ARM GAS  C:\Users\Phuong\AppData\Local\Temp\ccYkRU5p.s 			page 1


   1              		.syntax unified
   2              		.cpu cortex-m0plus
   3              		.fpu softvfp
   4              		.eabi_attribute 20, 1
   5              		.eabi_attribute 21, 1
   6              		.eabi_attribute 23, 3
   7              		.eabi_attribute 24, 1
   8              		.eabi_attribute 25, 1
   9              		.eabi_attribute 26, 1
  10              		.eabi_attribute 30, 1
  11              		.eabi_attribute 34, 0
  12              		.eabi_attribute 18, 4
  13              		.thumb
  14              		.syntax unified
  15              		.file	"md5.c"
  16              		.text
  17              	.Ltext0:
  18              		.cfi_sections	.debug_frame
  19              		.section	.text.mbedtls_md5_init,"ax",%progbits
  20              		.align	2
  21              		.global	mbedtls_md5_init
  22              		.code	16
  23              		.thumb_func
  24              		.type	mbedtls_md5_init, %function
  25              	mbedtls_md5_init:
  26              	.LFB1:
  27              		.file 1 "Source\\mbedtls_open\\library\\md5.c"
   1:Source\mbedtls_open\library/md5.c **** /*
   2:Source\mbedtls_open\library/md5.c ****  *  RFC 1321 compliant MD5 implementation
   3:Source\mbedtls_open\library/md5.c ****  *
   4:Source\mbedtls_open\library/md5.c ****  *  Copyright (C) 2006-2015, ARM Limited, All Rights Reserved
   5:Source\mbedtls_open\library/md5.c ****  *  SPDX-License-Identifier: Apache-2.0
   6:Source\mbedtls_open\library/md5.c ****  *
   7:Source\mbedtls_open\library/md5.c ****  *  Licensed under the Apache License, Version 2.0 (the "License"); you may
   8:Source\mbedtls_open\library/md5.c ****  *  not use this file except in compliance with the License.
   9:Source\mbedtls_open\library/md5.c ****  *  You may obtain a copy of the License at
  10:Source\mbedtls_open\library/md5.c ****  *
  11:Source\mbedtls_open\library/md5.c ****  *  http://www.apache.org/licenses/LICENSE-2.0
  12:Source\mbedtls_open\library/md5.c ****  *
  13:Source\mbedtls_open\library/md5.c ****  *  Unless required by applicable law or agreed to in writing, software
  14:Source\mbedtls_open\library/md5.c ****  *  distributed under the License is distributed on an "AS IS" BASIS, WITHOUT
  15:Source\mbedtls_open\library/md5.c ****  *  WARRANTIES OR CONDITIONS OF ANY KIND, either express or implied.
  16:Source\mbedtls_open\library/md5.c ****  *  See the License for the specific language governing permissions and
  17:Source\mbedtls_open\library/md5.c ****  *  limitations under the License.
  18:Source\mbedtls_open\library/md5.c ****  *
  19:Source\mbedtls_open\library/md5.c ****  *  This file is part of mbed TLS (https://tls.mbed.org)
  20:Source\mbedtls_open\library/md5.c ****  */
  21:Source\mbedtls_open\library/md5.c **** /*
  22:Source\mbedtls_open\library/md5.c ****  *  The MD5 algorithm was designed by Ron Rivest in 1991.
  23:Source\mbedtls_open\library/md5.c ****  *
  24:Source\mbedtls_open\library/md5.c ****  *  http://www.ietf.org/rfc/rfc1321.txt
  25:Source\mbedtls_open\library/md5.c ****  */
  26:Source\mbedtls_open\library/md5.c **** 
  27:Source\mbedtls_open\library/md5.c **** #if !defined(MBEDTLS_CONFIG_FILE)
  28:Source\mbedtls_open\library/md5.c **** #include "mbedtls/config.h"
  29:Source\mbedtls_open\library/md5.c **** #else
  30:Source\mbedtls_open\library/md5.c **** #include MBEDTLS_CONFIG_FILE
ARM GAS  C:\Users\Phuong\AppData\Local\Temp\ccYkRU5p.s 			page 2


  31:Source\mbedtls_open\library/md5.c **** #endif
  32:Source\mbedtls_open\library/md5.c **** 
  33:Source\mbedtls_open\library/md5.c **** #if defined(MBEDTLS_MD5_C)
  34:Source\mbedtls_open\library/md5.c **** 
  35:Source\mbedtls_open\library/md5.c **** #include "mbedtls/md5.h"
  36:Source\mbedtls_open\library/md5.c **** #include "mbedtls/platform_util.h"
  37:Source\mbedtls_open\library/md5.c **** 
  38:Source\mbedtls_open\library/md5.c **** #include <string.h>
  39:Source\mbedtls_open\library/md5.c **** 
  40:Source\mbedtls_open\library/md5.c **** #if defined(MBEDTLS_SELF_TEST)
  41:Source\mbedtls_open\library/md5.c **** #if defined(MBEDTLS_PLATFORM_C)
  42:Source\mbedtls_open\library/md5.c **** #include "mbedtls/platform.h"
  43:Source\mbedtls_open\library/md5.c **** #else
  44:Source\mbedtls_open\library/md5.c **** #include <stdio.h>
  45:Source\mbedtls_open\library/md5.c **** #define mbedtls_printf printf
  46:Source\mbedtls_open\library/md5.c **** #endif /* MBEDTLS_PLATFORM_C */
  47:Source\mbedtls_open\library/md5.c **** #endif /* MBEDTLS_SELF_TEST */
  48:Source\mbedtls_open\library/md5.c **** 
  49:Source\mbedtls_open\library/md5.c **** #if !defined(MBEDTLS_MD5_ALT)
  50:Source\mbedtls_open\library/md5.c **** 
  51:Source\mbedtls_open\library/md5.c **** /*
  52:Source\mbedtls_open\library/md5.c ****  * 32-bit integer manipulation macros (little endian)
  53:Source\mbedtls_open\library/md5.c ****  */
  54:Source\mbedtls_open\library/md5.c **** #ifndef GET_UINT32_LE
  55:Source\mbedtls_open\library/md5.c **** #define GET_UINT32_LE(n,b,i)                            \
  56:Source\mbedtls_open\library/md5.c **** {                                                       \
  57:Source\mbedtls_open\library/md5.c ****     (n) = ( (uint32_t) (b)[(i)    ]       )             \
  58:Source\mbedtls_open\library/md5.c ****         | ( (uint32_t) (b)[(i) + 1] <<  8 )             \
  59:Source\mbedtls_open\library/md5.c ****         | ( (uint32_t) (b)[(i) + 2] << 16 )             \
  60:Source\mbedtls_open\library/md5.c ****         | ( (uint32_t) (b)[(i) + 3] << 24 );            \
  61:Source\mbedtls_open\library/md5.c **** }
  62:Source\mbedtls_open\library/md5.c **** #endif
  63:Source\mbedtls_open\library/md5.c **** 
  64:Source\mbedtls_open\library/md5.c **** #ifndef PUT_UINT32_LE
  65:Source\mbedtls_open\library/md5.c **** #define PUT_UINT32_LE(n,b,i)                                    \
  66:Source\mbedtls_open\library/md5.c **** {                                                               \
  67:Source\mbedtls_open\library/md5.c ****     (b)[(i)    ] = (unsigned char) ( ( (n)       ) & 0xFF );    \
  68:Source\mbedtls_open\library/md5.c ****     (b)[(i) + 1] = (unsigned char) ( ( (n) >>  8 ) & 0xFF );    \
  69:Source\mbedtls_open\library/md5.c ****     (b)[(i) + 2] = (unsigned char) ( ( (n) >> 16 ) & 0xFF );    \
  70:Source\mbedtls_open\library/md5.c ****     (b)[(i) + 3] = (unsigned char) ( ( (n) >> 24 ) & 0xFF );    \
  71:Source\mbedtls_open\library/md5.c **** }
  72:Source\mbedtls_open\library/md5.c **** #endif
  73:Source\mbedtls_open\library/md5.c **** 
  74:Source\mbedtls_open\library/md5.c **** void mbedtls_md5_init( mbedtls_md5_context *ctx )
  75:Source\mbedtls_open\library/md5.c **** {
  28              		.loc 1 75 0
  29              		.cfi_startproc
  30              		@ args = 0, pretend = 0, frame = 0
  31              		@ frame_needed = 0, uses_anonymous_args = 0
  32              	.LVL0:
  33 0000 10B5     		push	{r4, lr}
  34              		.cfi_def_cfa_offset 8
  35              		.cfi_offset 4, -8
  36              		.cfi_offset 14, -4
  76:Source\mbedtls_open\library/md5.c ****     memset( ctx, 0, sizeof( mbedtls_md5_context ) );
  37              		.loc 1 76 0
  38 0002 5822     		movs	r2, #88
ARM GAS  C:\Users\Phuong\AppData\Local\Temp\ccYkRU5p.s 			page 3


  39 0004 0021     		movs	r1, #0
  40 0006 FFF7FEFF 		bl	memset
  41              	.LVL1:
  77:Source\mbedtls_open\library/md5.c **** }
  42              		.loc 1 77 0
  43              		@ sp needed
  44 000a 10BD     		pop	{r4, pc}
  45              		.cfi_endproc
  46              	.LFE1:
  47              		.size	mbedtls_md5_init, .-mbedtls_md5_init
  48              		.section	.text.mbedtls_md5_free,"ax",%progbits
  49              		.align	2
  50              		.global	mbedtls_md5_free
  51              		.code	16
  52              		.thumb_func
  53              		.type	mbedtls_md5_free, %function
  54              	mbedtls_md5_free:
  55              	.LFB2:
  78:Source\mbedtls_open\library/md5.c **** 
  79:Source\mbedtls_open\library/md5.c **** void mbedtls_md5_free( mbedtls_md5_context *ctx )
  80:Source\mbedtls_open\library/md5.c **** {
  56              		.loc 1 80 0
  57              		.cfi_startproc
  58              		@ args = 0, pretend = 0, frame = 0
  59              		@ frame_needed = 0, uses_anonymous_args = 0
  60              	.LVL2:
  61 0000 10B5     		push	{r4, lr}
  62              		.cfi_def_cfa_offset 8
  63              		.cfi_offset 4, -8
  64              		.cfi_offset 14, -4
  81:Source\mbedtls_open\library/md5.c ****     if( ctx == NULL )
  65              		.loc 1 81 0
  66 0002 0028     		cmp	r0, #0
  67 0004 02D0     		beq	.L2
  82:Source\mbedtls_open\library/md5.c ****         return;
  83:Source\mbedtls_open\library/md5.c **** 
  84:Source\mbedtls_open\library/md5.c ****     mbedtls_platform_zeroize( ctx, sizeof( mbedtls_md5_context ) );
  68              		.loc 1 84 0
  69 0006 5821     		movs	r1, #88
  70 0008 FFF7FEFF 		bl	mbedtls_platform_zeroize
  71              	.LVL3:
  72              	.L2:
  85:Source\mbedtls_open\library/md5.c **** }
  73              		.loc 1 85 0
  74              		@ sp needed
  75 000c 10BD     		pop	{r4, pc}
  76              		.cfi_endproc
  77              	.LFE2:
  78              		.size	mbedtls_md5_free, .-mbedtls_md5_free
  79 000e C046     		.section	.text.mbedtls_md5_clone,"ax",%progbits
  80              		.align	2
  81              		.global	mbedtls_md5_clone
  82              		.code	16
  83              		.thumb_func
  84              		.type	mbedtls_md5_clone, %function
  85              	mbedtls_md5_clone:
  86              	.LFB3:
ARM GAS  C:\Users\Phuong\AppData\Local\Temp\ccYkRU5p.s 			page 4


  86:Source\mbedtls_open\library/md5.c **** 
  87:Source\mbedtls_open\library/md5.c **** void mbedtls_md5_clone( mbedtls_md5_context *dst,
  88:Source\mbedtls_open\library/md5.c ****                         const mbedtls_md5_context *src )
  89:Source\mbedtls_open\library/md5.c **** {
  87              		.loc 1 89 0
  88              		.cfi_startproc
  89              		@ args = 0, pretend = 0, frame = 0
  90              		@ frame_needed = 0, uses_anonymous_args = 0
  91              	.LVL4:
  92 0000 10B5     		push	{r4, lr}
  93              		.cfi_def_cfa_offset 8
  94              		.cfi_offset 4, -8
  95              		.cfi_offset 14, -4
  90:Source\mbedtls_open\library/md5.c ****     *dst = *src;
  96              		.loc 1 90 0
  97 0002 5822     		movs	r2, #88
  98 0004 FFF7FEFF 		bl	memcpy
  99              	.LVL5:
  91:Source\mbedtls_open\library/md5.c **** }
 100              		.loc 1 91 0
 101              		@ sp needed
 102 0008 10BD     		pop	{r4, pc}
 103              		.cfi_endproc
 104              	.LFE3:
 105              		.size	mbedtls_md5_clone, .-mbedtls_md5_clone
 106 000a C046     		.section	.text.mbedtls_md5_starts_ret,"ax",%progbits
 107              		.align	2
 108              		.global	mbedtls_md5_starts_ret
 109              		.code	16
 110              		.thumb_func
 111              		.type	mbedtls_md5_starts_ret, %function
 112              	mbedtls_md5_starts_ret:
 113              	.LFB4:
  92:Source\mbedtls_open\library/md5.c **** 
  93:Source\mbedtls_open\library/md5.c **** /*
  94:Source\mbedtls_open\library/md5.c ****  * MD5 context setup
  95:Source\mbedtls_open\library/md5.c ****  */
  96:Source\mbedtls_open\library/md5.c **** int mbedtls_md5_starts_ret( mbedtls_md5_context *ctx )
  97:Source\mbedtls_open\library/md5.c **** {
 114              		.loc 1 97 0
 115              		.cfi_startproc
 116              		@ args = 0, pretend = 0, frame = 0
 117              		@ frame_needed = 0, uses_anonymous_args = 0
 118              		@ link register save eliminated.
 119              	.LVL6:
  98:Source\mbedtls_open\library/md5.c ****     ctx->total[0] = 0;
 120              		.loc 1 98 0
 121 0000 0023     		movs	r3, #0
 122 0002 0360     		str	r3, [r0]
  99:Source\mbedtls_open\library/md5.c ****     ctx->total[1] = 0;
 123              		.loc 1 99 0
 124 0004 4360     		str	r3, [r0, #4]
 100:Source\mbedtls_open\library/md5.c **** 
 101:Source\mbedtls_open\library/md5.c ****     ctx->state[0] = 0x67452301;
 125              		.loc 1 101 0
 126 0006 054B     		ldr	r3, .L6
 127 0008 8360     		str	r3, [r0, #8]
ARM GAS  C:\Users\Phuong\AppData\Local\Temp\ccYkRU5p.s 			page 5


 102:Source\mbedtls_open\library/md5.c ****     ctx->state[1] = 0xEFCDAB89;
 128              		.loc 1 102 0
 129 000a 054B     		ldr	r3, .L6+4
 130 000c C360     		str	r3, [r0, #12]
 103:Source\mbedtls_open\library/md5.c ****     ctx->state[2] = 0x98BADCFE;
 131              		.loc 1 103 0
 132 000e 054B     		ldr	r3, .L6+8
 133 0010 0361     		str	r3, [r0, #16]
 104:Source\mbedtls_open\library/md5.c ****     ctx->state[3] = 0x10325476;
 134              		.loc 1 104 0
 135 0012 054B     		ldr	r3, .L6+12
 136 0014 4361     		str	r3, [r0, #20]
 105:Source\mbedtls_open\library/md5.c **** 
 106:Source\mbedtls_open\library/md5.c ****     return( 0 );
 107:Source\mbedtls_open\library/md5.c **** }
 137              		.loc 1 107 0
 138 0016 0020     		movs	r0, #0
 139              	.LVL7:
 140              		@ sp needed
 141 0018 7047     		bx	lr
 142              	.L7:
 143 001a C046     		.align	2
 144              	.L6:
 145 001c 01234567 		.word	1732584193
 146 0020 89ABCDEF 		.word	-271733879
 147 0024 FEDCBA98 		.word	-1732584194
 148 0028 76543210 		.word	271733878
 149              		.cfi_endproc
 150              	.LFE4:
 151              		.size	mbedtls_md5_starts_ret, .-mbedtls_md5_starts_ret
 152              		.section	.text.mbedtls_md5_starts,"ax",%progbits
 153              		.align	2
 154              		.global	mbedtls_md5_starts
 155              		.code	16
 156              		.thumb_func
 157              		.type	mbedtls_md5_starts, %function
 158              	mbedtls_md5_starts:
 159              	.LFB5:
 108:Source\mbedtls_open\library/md5.c **** 
 109:Source\mbedtls_open\library/md5.c **** #if !defined(MBEDTLS_DEPRECATED_REMOVED)
 110:Source\mbedtls_open\library/md5.c **** void mbedtls_md5_starts( mbedtls_md5_context *ctx )
 111:Source\mbedtls_open\library/md5.c **** {
 160              		.loc 1 111 0
 161              		.cfi_startproc
 162              		@ args = 0, pretend = 0, frame = 0
 163              		@ frame_needed = 0, uses_anonymous_args = 0
 164              	.LVL8:
 165 0000 10B5     		push	{r4, lr}
 166              		.cfi_def_cfa_offset 8
 167              		.cfi_offset 4, -8
 168              		.cfi_offset 14, -4
 112:Source\mbedtls_open\library/md5.c ****     mbedtls_md5_starts_ret( ctx );
 169              		.loc 1 112 0
 170 0002 FFF7FEFF 		bl	mbedtls_md5_starts_ret
 171              	.LVL9:
 113:Source\mbedtls_open\library/md5.c **** }
 172              		.loc 1 113 0
ARM GAS  C:\Users\Phuong\AppData\Local\Temp\ccYkRU5p.s 			page 6


 173              		@ sp needed
 174 0006 10BD     		pop	{r4, pc}
 175              		.cfi_endproc
 176              	.LFE5:
 177              		.size	mbedtls_md5_starts, .-mbedtls_md5_starts
 178              		.section	.text.mbedtls_internal_md5_process,"ax",%progbits
 179              		.align	2
 180              		.global	mbedtls_internal_md5_process
 181              		.code	16
 182              		.thumb_func
 183              		.type	mbedtls_internal_md5_process, %function
 184              	mbedtls_internal_md5_process:
 185              	.LFB6:
 114:Source\mbedtls_open\library/md5.c **** #endif
 115:Source\mbedtls_open\library/md5.c **** 
 116:Source\mbedtls_open\library/md5.c **** #if !defined(MBEDTLS_MD5_PROCESS_ALT)
 117:Source\mbedtls_open\library/md5.c **** int mbedtls_internal_md5_process( mbedtls_md5_context *ctx,
 118:Source\mbedtls_open\library/md5.c ****                                   const unsigned char data[64] )
 119:Source\mbedtls_open\library/md5.c **** {
 186              		.loc 1 119 0
 187              		.cfi_startproc
 188              		@ args = 0, pretend = 0, frame = 64
 189              		@ frame_needed = 0, uses_anonymous_args = 0
 190              	.LVL10:
 191 0000 F0B5     		push	{r4, r5, r6, r7, lr}
 192              		.cfi_def_cfa_offset 20
 193              		.cfi_offset 4, -20
 194              		.cfi_offset 5, -16
 195              		.cfi_offset 6, -12
 196              		.cfi_offset 7, -8
 197              		.cfi_offset 14, -4
 198 0002 5F46     		mov	r7, fp
 199 0004 5646     		mov	r6, r10
 200 0006 4D46     		mov	r5, r9
 201 0008 4446     		mov	r4, r8
 202 000a F0B4     		push	{r4, r5, r6, r7}
 203              		.cfi_def_cfa_offset 36
 204              		.cfi_offset 8, -36
 205              		.cfi_offset 9, -32
 206              		.cfi_offset 10, -28
 207              		.cfi_offset 11, -24
 208 000c 91B0     		sub	sp, sp, #68
 209              		.cfi_def_cfa_offset 104
 120:Source\mbedtls_open\library/md5.c ****     uint32_t X[16], A, B, C, D;
 121:Source\mbedtls_open\library/md5.c **** 
 122:Source\mbedtls_open\library/md5.c ****     GET_UINT32_LE( X[ 0], data,  0 );
 210              		.loc 1 122 0
 211 000e 0A78     		ldrb	r2, [r1]
 212 0010 4B78     		ldrb	r3, [r1, #1]
 213 0012 1B02     		lsls	r3, r3, #8
 214 0014 1343     		orrs	r3, r2
 215 0016 8C78     		ldrb	r4, [r1, #2]
 216 0018 2404     		lsls	r4, r4, #16
 217 001a 2343     		orrs	r3, r4
 218 001c CA78     		ldrb	r2, [r1, #3]
 219 001e 1206     		lsls	r2, r2, #24
 220 0020 1343     		orrs	r3, r2
ARM GAS  C:\Users\Phuong\AppData\Local\Temp\ccYkRU5p.s 			page 7


 221 0022 1F00     		movs	r7, r3
 123:Source\mbedtls_open\library/md5.c ****     GET_UINT32_LE( X[ 1], data,  4 );
 222              		.loc 1 123 0
 223 0024 0B79     		ldrb	r3, [r1, #4]
 224 0026 4A79     		ldrb	r2, [r1, #5]
 225 0028 1202     		lsls	r2, r2, #8
 226 002a 1A43     		orrs	r2, r3
 227 002c 8C79     		ldrb	r4, [r1, #6]
 228 002e 2404     		lsls	r4, r4, #16
 229 0030 2243     		orrs	r2, r4
 230 0032 CB79     		ldrb	r3, [r1, #7]
 231 0034 1B06     		lsls	r3, r3, #24
 232 0036 1A43     		orrs	r2, r3
 233 0038 0092     		str	r2, [sp]
 124:Source\mbedtls_open\library/md5.c ****     GET_UINT32_LE( X[ 2], data,  8 );
 234              		.loc 1 124 0
 235 003a 0C7A     		ldrb	r4, [r1, #8]
 236 003c 4B7A     		ldrb	r3, [r1, #9]
 237 003e 1B02     		lsls	r3, r3, #8
 238 0040 2343     		orrs	r3, r4
 239 0042 8A7A     		ldrb	r2, [r1, #10]
 240 0044 1204     		lsls	r2, r2, #16
 241 0046 1343     		orrs	r3, r2
 242 0048 CC7A     		ldrb	r4, [r1, #11]
 243 004a 2406     		lsls	r4, r4, #24
 244 004c 2343     		orrs	r3, r4
 245 004e 0193     		str	r3, [sp, #4]
 125:Source\mbedtls_open\library/md5.c ****     GET_UINT32_LE( X[ 3], data, 12 );
 246              		.loc 1 125 0
 247 0050 0B7B     		ldrb	r3, [r1, #12]
 248 0052 4A7B     		ldrb	r2, [r1, #13]
 249 0054 1202     		lsls	r2, r2, #8
 250 0056 1A43     		orrs	r2, r3
 251 0058 8C7B     		ldrb	r4, [r1, #14]
 252 005a 2404     		lsls	r4, r4, #16
 253 005c 2243     		orrs	r2, r4
 254 005e CB7B     		ldrb	r3, [r1, #15]
 255 0060 1B06     		lsls	r3, r3, #24
 256 0062 1400     		movs	r4, r2
 257 0064 1C43     		orrs	r4, r3
 258 0066 0294     		str	r4, [sp, #8]
 126:Source\mbedtls_open\library/md5.c ****     GET_UINT32_LE( X[ 4], data, 16 );
 259              		.loc 1 126 0
 260 0068 0B7C     		ldrb	r3, [r1, #16]
 261 006a 4C7C     		ldrb	r4, [r1, #17]
 262 006c 2402     		lsls	r4, r4, #8
 263 006e 1C43     		orrs	r4, r3
 264 0070 8D7C     		ldrb	r5, [r1, #18]
 265 0072 2D04     		lsls	r5, r5, #16
 266 0074 2C43     		orrs	r4, r5
 267 0076 CB7C     		ldrb	r3, [r1, #19]
 268 0078 1B06     		lsls	r3, r3, #24
 269 007a 1C43     		orrs	r4, r3
 270 007c 0394     		str	r4, [sp, #12]
 127:Source\mbedtls_open\library/md5.c ****     GET_UINT32_LE( X[ 5], data, 20 );
 271              		.loc 1 127 0
 272 007e 0B7D     		ldrb	r3, [r1, #20]
ARM GAS  C:\Users\Phuong\AppData\Local\Temp\ccYkRU5p.s 			page 8


 273 0080 4A7D     		ldrb	r2, [r1, #21]
 274 0082 1202     		lsls	r2, r2, #8
 275 0084 1A43     		orrs	r2, r3
 276 0086 8C7D     		ldrb	r4, [r1, #22]
 277 0088 2404     		lsls	r4, r4, #16
 278 008a 2243     		orrs	r2, r4
 279 008c CB7D     		ldrb	r3, [r1, #23]
 280 008e 1B06     		lsls	r3, r3, #24
 281 0090 1500     		movs	r5, r2
 282 0092 1D43     		orrs	r5, r3
 283 0094 0495     		str	r5, [sp, #16]
 128:Source\mbedtls_open\library/md5.c ****     GET_UINT32_LE( X[ 6], data, 24 );
 284              		.loc 1 128 0
 285 0096 0B7E     		ldrb	r3, [r1, #24]
 286 0098 4A7E     		ldrb	r2, [r1, #25]
 287 009a 1202     		lsls	r2, r2, #8
 288 009c 1A43     		orrs	r2, r3
 289 009e 8C7E     		ldrb	r4, [r1, #26]
 290 00a0 2404     		lsls	r4, r4, #16
 291 00a2 2243     		orrs	r2, r4
 292 00a4 CB7E     		ldrb	r3, [r1, #27]
 293 00a6 1B06     		lsls	r3, r3, #24
 294 00a8 1600     		movs	r6, r2
 295 00aa 1E43     		orrs	r6, r3
 296 00ac 0596     		str	r6, [sp, #20]
 129:Source\mbedtls_open\library/md5.c ****     GET_UINT32_LE( X[ 7], data, 28 );
 297              		.loc 1 129 0
 298 00ae 0D7F     		ldrb	r5, [r1, #28]
 299 00b0 4B7F     		ldrb	r3, [r1, #29]
 300 00b2 1B02     		lsls	r3, r3, #8
 301 00b4 2B43     		orrs	r3, r5
 302 00b6 8A7F     		ldrb	r2, [r1, #30]
 303 00b8 1204     		lsls	r2, r2, #16
 304 00ba 1343     		orrs	r3, r2
 305 00bc CD7F     		ldrb	r5, [r1, #31]
 306 00be 2D06     		lsls	r5, r5, #24
 307 00c0 2B43     		orrs	r3, r5
 308 00c2 0693     		str	r3, [sp, #24]
 130:Source\mbedtls_open\library/md5.c ****     GET_UINT32_LE( X[ 8], data, 32 );
 309              		.loc 1 130 0
 310 00c4 2023     		movs	r3, #32
 311 00c6 CD5C     		ldrb	r5, [r1, r3]
 312 00c8 0133     		adds	r3, r3, #1
 313 00ca CC5C     		ldrb	r4, [r1, r3]
 314 00cc 2402     		lsls	r4, r4, #8
 315 00ce 2543     		orrs	r5, r4
 316 00d0 0133     		adds	r3, r3, #1
 317 00d2 CC5C     		ldrb	r4, [r1, r3]
 318 00d4 2404     		lsls	r4, r4, #16
 319 00d6 2C43     		orrs	r4, r5
 320 00d8 0133     		adds	r3, r3, #1
 321 00da CB5C     		ldrb	r3, [r1, r3]
 322 00dc 1B06     		lsls	r3, r3, #24
 323 00de 1C43     		orrs	r4, r3
 324 00e0 0794     		str	r4, [sp, #28]
 131:Source\mbedtls_open\library/md5.c ****     GET_UINT32_LE( X[ 9], data, 36 );
 325              		.loc 1 131 0
ARM GAS  C:\Users\Phuong\AppData\Local\Temp\ccYkRU5p.s 			page 9


 326 00e2 2423     		movs	r3, #36
 327 00e4 CC5C     		ldrb	r4, [r1, r3]
 328 00e6 0133     		adds	r3, r3, #1
 329 00e8 CB5C     		ldrb	r3, [r1, r3]
 330 00ea 1B02     		lsls	r3, r3, #8
 331 00ec 2200     		movs	r2, r4
 332 00ee 1A43     		orrs	r2, r3
 333 00f0 2623     		movs	r3, #38
 334 00f2 CB5C     		ldrb	r3, [r1, r3]
 335 00f4 1B04     		lsls	r3, r3, #16
 336 00f6 1343     		orrs	r3, r2
 337 00f8 2722     		movs	r2, #39
 338 00fa 8A5C     		ldrb	r2, [r1, r2]
 339 00fc 1206     		lsls	r2, r2, #24
 340 00fe 1343     		orrs	r3, r2
 341 0100 0893     		str	r3, [sp, #32]
 132:Source\mbedtls_open\library/md5.c ****     GET_UINT32_LE( X[10], data, 40 );
 342              		.loc 1 132 0
 343 0102 2823     		movs	r3, #40
 344 0104 CB5C     		ldrb	r3, [r1, r3]
 345 0106 2922     		movs	r2, #41
 346 0108 8A5C     		ldrb	r2, [r1, r2]
 347 010a 1202     		lsls	r2, r2, #8
 348 010c 1D00     		movs	r5, r3
 349 010e 1543     		orrs	r5, r2
 350 0110 2A23     		movs	r3, #42
 351 0112 CA5C     		ldrb	r2, [r1, r3]
 352 0114 1204     		lsls	r2, r2, #16
 353 0116 2A43     		orrs	r2, r5
 354 0118 0133     		adds	r3, r3, #1
 355 011a CB5C     		ldrb	r3, [r1, r3]
 356 011c 1B06     		lsls	r3, r3, #24
 357 011e 1A43     		orrs	r2, r3
 358 0120 0992     		str	r2, [sp, #36]
 133:Source\mbedtls_open\library/md5.c ****     GET_UINT32_LE( X[11], data, 44 );
 359              		.loc 1 133 0
 360 0122 2C23     		movs	r3, #44
 361 0124 CD5C     		ldrb	r5, [r1, r3]
 362 0126 0133     		adds	r3, r3, #1
 363 0128 CB5C     		ldrb	r3, [r1, r3]
 364 012a 1B02     		lsls	r3, r3, #8
 365 012c 1D43     		orrs	r5, r3
 366 012e 2E23     		movs	r3, #46
 367 0130 CB5C     		ldrb	r3, [r1, r3]
 368 0132 1B04     		lsls	r3, r3, #16
 369 0134 2B43     		orrs	r3, r5
 370 0136 2F22     		movs	r2, #47
 371 0138 8D5C     		ldrb	r5, [r1, r2]
 372 013a 2D06     		lsls	r5, r5, #24
 373 013c 1E00     		movs	r6, r3
 374 013e 2E43     		orrs	r6, r5
 375 0140 0A96     		str	r6, [sp, #40]
 134:Source\mbedtls_open\library/md5.c ****     GET_UINT32_LE( X[12], data, 48 );
 376              		.loc 1 134 0
 377 0142 3023     		movs	r3, #48
 378 0144 CB5C     		ldrb	r3, [r1, r3]
 379 0146 0232     		adds	r2, r2, #2
ARM GAS  C:\Users\Phuong\AppData\Local\Temp\ccYkRU5p.s 			page 10


 380 0148 8C5C     		ldrb	r4, [r1, r2]
 381 014a 2402     		lsls	r4, r4, #8
 382 014c 1D00     		movs	r5, r3
 383 014e 2543     		orrs	r5, r4
 384 0150 3223     		movs	r3, #50
 385 0152 CC5C     		ldrb	r4, [r1, r3]
 386 0154 2404     		lsls	r4, r4, #16
 387 0156 2C43     		orrs	r4, r5
 388 0158 0133     		adds	r3, r3, #1
 389 015a CB5C     		ldrb	r3, [r1, r3]
 390 015c 1B06     		lsls	r3, r3, #24
 391 015e 2500     		movs	r5, r4
 392 0160 1D43     		orrs	r5, r3
 393 0162 0B95     		str	r5, [sp, #44]
 135:Source\mbedtls_open\library/md5.c ****     GET_UINT32_LE( X[13], data, 52 );
 394              		.loc 1 135 0
 395 0164 3423     		movs	r3, #52
 396 0166 CC5C     		ldrb	r4, [r1, r3]
 397 0168 0133     		adds	r3, r3, #1
 398 016a CB5C     		ldrb	r3, [r1, r3]
 399 016c 1B02     		lsls	r3, r3, #8
 400 016e 2200     		movs	r2, r4
 401 0170 1A43     		orrs	r2, r3
 402 0172 3623     		movs	r3, #54
 403 0174 CB5C     		ldrb	r3, [r1, r3]
 404 0176 1B04     		lsls	r3, r3, #16
 405 0178 1343     		orrs	r3, r2
 406 017a 3722     		movs	r2, #55
 407 017c 8A5C     		ldrb	r2, [r1, r2]
 408 017e 1206     		lsls	r2, r2, #24
 409 0180 1343     		orrs	r3, r2
 410 0182 0C93     		str	r3, [sp, #48]
 136:Source\mbedtls_open\library/md5.c ****     GET_UINT32_LE( X[14], data, 56 );
 411              		.loc 1 136 0
 412 0184 3823     		movs	r3, #56
 413 0186 CC5C     		ldrb	r4, [r1, r3]
 414 0188 0133     		adds	r3, r3, #1
 415 018a CB5C     		ldrb	r3, [r1, r3]
 416 018c 1B02     		lsls	r3, r3, #8
 417 018e 2200     		movs	r2, r4
 418 0190 1A43     		orrs	r2, r3
 419 0192 3A23     		movs	r3, #58
 420 0194 CB5C     		ldrb	r3, [r1, r3]
 421 0196 1B04     		lsls	r3, r3, #16
 422 0198 1343     		orrs	r3, r2
 423 019a 3B22     		movs	r2, #59
 424 019c 8A5C     		ldrb	r2, [r1, r2]
 425 019e 1206     		lsls	r2, r2, #24
 426 01a0 1D00     		movs	r5, r3
 427 01a2 1543     		orrs	r5, r2
 428 01a4 0D95     		str	r5, [sp, #52]
 137:Source\mbedtls_open\library/md5.c ****     GET_UINT32_LE( X[15], data, 60 );
 429              		.loc 1 137 0
 430 01a6 3C23     		movs	r3, #60
 431 01a8 CA5C     		ldrb	r2, [r1, r3]
 432 01aa 0133     		adds	r3, r3, #1
 433 01ac CB5C     		ldrb	r3, [r1, r3]
ARM GAS  C:\Users\Phuong\AppData\Local\Temp\ccYkRU5p.s 			page 11


 434 01ae 1B02     		lsls	r3, r3, #8
 435 01b0 1A43     		orrs	r2, r3
 436 01b2 1400     		movs	r4, r2
 437 01b4 3E23     		movs	r3, #62
 438 01b6 CB5C     		ldrb	r3, [r1, r3]
 439 01b8 1A04     		lsls	r2, r3, #16
 440 01ba 1443     		orrs	r4, r2
 441 01bc 3F22     		movs	r2, #63
 442 01be 8A5C     		ldrb	r2, [r1, r2]
 443 01c0 1206     		lsls	r2, r2, #24
 444 01c2 2100     		movs	r1, r4
 445              	.LVL11:
 446 01c4 1143     		orrs	r1, r2
 447 01c6 8B46     		mov	fp, r1
 448              	.LVL12:
 138:Source\mbedtls_open\library/md5.c **** 
 139:Source\mbedtls_open\library/md5.c **** #define S(x,n) ((x << n) | ((x & 0xFFFFFFFF) >> (32 - n)))
 140:Source\mbedtls_open\library/md5.c **** 
 141:Source\mbedtls_open\library/md5.c **** #define P(a,b,c,d,k,s,t)                                \
 142:Source\mbedtls_open\library/md5.c **** {                                                       \
 143:Source\mbedtls_open\library/md5.c ****     a += F(b,c,d) + X[k] + t; a = S(a,s) + b;           \
 144:Source\mbedtls_open\library/md5.c **** }
 145:Source\mbedtls_open\library/md5.c **** 
 146:Source\mbedtls_open\library/md5.c ****     A = ctx->state[0];
 147:Source\mbedtls_open\library/md5.c ****     B = ctx->state[1];
 449              		.loc 1 147 0
 450 01c8 C168     		ldr	r1, [r0, #12]
 451 01ca 0A00     		movs	r2, r1
 452              	.LVL13:
 148:Source\mbedtls_open\library/md5.c ****     C = ctx->state[2];
 149:Source\mbedtls_open\library/md5.c ****     D = ctx->state[3];
 150:Source\mbedtls_open\library/md5.c **** 
 151:Source\mbedtls_open\library/md5.c **** #define F(x,y,z) (z ^ (x & (y ^ z)))
 152:Source\mbedtls_open\library/md5.c **** 
 153:Source\mbedtls_open\library/md5.c ****     P( A, B, C, D,  0,  7, 0xD76AA478 );
 453              		.loc 1 153 0
 454 01cc 0169     		ldr	r1, [r0, #16]
 455              	.LVL14:
 456 01ce 4569     		ldr	r5, [r0, #20]
 457 01d0 6940     		eors	r1, r5
 458 01d2 0E00     		movs	r6, r1
 459 01d4 1640     		ands	r6, r2
 460 01d6 6E40     		eors	r6, r5
 461 01d8 0E97     		str	r7, [sp, #56]
 462 01da B846     		mov	r8, r7
 463 01dc 4644     		add	r6, r6, r8
 464 01de 8168     		ldr	r1, [r0, #8]
 465 01e0 8846     		mov	r8, r1
 466 01e2 4644     		add	r6, r6, r8
 467 01e4 FE49     		ldr	r1, .L10
 468 01e6 8846     		mov	r8, r1
 469 01e8 4644     		add	r6, r6, r8
 470              	.LVL15:
 471 01ea 1923     		movs	r3, #25
 472 01ec DE41     		rors	r6, r6, r3
 473              	.LVL16:
 474 01ee 9446     		mov	ip, r2
ARM GAS  C:\Users\Phuong\AppData\Local\Temp\ccYkRU5p.s 			page 12


 475 01f0 6644     		add	r6, r6, ip
 476              	.LVL17:
 154:Source\mbedtls_open\library/md5.c ****     P( D, A, B, C,  1, 12, 0xE8C7B756 );
 477              		.loc 1 154 0
 478 01f2 0169     		ldr	r1, [r0, #16]
 479 01f4 1700     		movs	r7, r2
 480 01f6 5140     		eors	r1, r2
 481 01f8 0D00     		movs	r5, r1
 482 01fa 3540     		ands	r5, r6
 483 01fc 0169     		ldr	r1, [r0, #16]
 484 01fe 4D40     		eors	r5, r1
 485 0200 0099     		ldr	r1, [sp]
 486 0202 8846     		mov	r8, r1
 487 0204 4544     		add	r5, r5, r8
 488 0206 4269     		ldr	r2, [r0, #20]
 489              	.LVL18:
 490 0208 9046     		mov	r8, r2
 491 020a 4544     		add	r5, r5, r8
 492 020c F54A     		ldr	r2, .L10+4
 493 020e 9046     		mov	r8, r2
 494 0210 4544     		add	r5, r5, r8
 495              	.LVL19:
 496 0212 1422     		movs	r2, #20
 497 0214 9246     		mov	r10, r2
 498 0216 D541     		rors	r5, r5, r2
 499              	.LVL20:
 500 0218 7519     		adds	r5, r6, r5
 501              	.LVL21:
 155:Source\mbedtls_open\library/md5.c ****     P( C, D, A, B,  2, 17, 0x242070DB );
 502              		.loc 1 155 0
 503 021a 6246     		mov	r2, ip
 504 021c 7240     		eors	r2, r6
 505 021e 1400     		movs	r4, r2
 506 0220 2C40     		ands	r4, r5
 507 0222 7C40     		eors	r4, r7
 508 0224 019A     		ldr	r2, [sp, #4]
 509 0226 9046     		mov	r8, r2
 510 0228 4444     		add	r4, r4, r8
 511 022a 0169     		ldr	r1, [r0, #16]
 512 022c 8846     		mov	r8, r1
 513 022e 4444     		add	r4, r4, r8
 514 0230 ED49     		ldr	r1, .L10+8
 515 0232 8846     		mov	r8, r1
 516 0234 4444     		add	r4, r4, r8
 517              	.LVL22:
 518 0236 0F21     		movs	r1, #15
 519 0238 8946     		mov	r9, r1
 520 023a CC41     		rors	r4, r4, r1
 521              	.LVL23:
 522 023c 2C19     		adds	r4, r5, r4
 523              	.LVL24:
 156:Source\mbedtls_open\library/md5.c ****     P( B, C, D, A,  3, 22, 0xC1BDCEEE );
 524              		.loc 1 156 0
 525 023e 3200     		movs	r2, r6
 526 0240 6A40     		eors	r2, r5
 527 0242 2240     		ands	r2, r4
 528 0244 7240     		eors	r2, r6
ARM GAS  C:\Users\Phuong\AppData\Local\Temp\ccYkRU5p.s 			page 13


 529 0246 0299     		ldr	r1, [sp, #8]
 530 0248 8846     		mov	r8, r1
 531 024a 4244     		add	r2, r2, r8
 532 024c 0F97     		str	r7, [sp, #60]
 533 024e 6244     		add	r2, r2, ip
 534 0250 E649     		ldr	r1, .L10+12
 535 0252 8846     		mov	r8, r1
 536 0254 4244     		add	r2, r2, r8
 537              	.LVL25:
 538 0256 0A21     		movs	r1, #10
 539 0258 8846     		mov	r8, r1
 540 025a CA41     		rors	r2, r2, r1
 541              	.LVL26:
 542 025c A218     		adds	r2, r4, r2
 543              	.LVL27:
 157:Source\mbedtls_open\library/md5.c ****     P( A, B, C, D,  4,  7, 0xF57C0FAF );
 544              		.loc 1 157 0
 545 025e 2900     		movs	r1, r5
 546 0260 6140     		eors	r1, r4
 547 0262 1140     		ands	r1, r2
 548 0264 6940     		eors	r1, r5
 549 0266 039F     		ldr	r7, [sp, #12]
 550 0268 BC46     		mov	ip, r7
 551 026a 6144     		add	r1, r1, ip
 552 026c 7618     		adds	r6, r6, r1
 553              	.LVL28:
 554 026e E049     		ldr	r1, .L10+16
 555 0270 8C46     		mov	ip, r1
 556 0272 6644     		add	r6, r6, ip
 557              	.LVL29:
 558 0274 DE41     		rors	r6, r6, r3
 559              	.LVL30:
 560 0276 9619     		adds	r6, r2, r6
 561              	.LVL31:
 158:Source\mbedtls_open\library/md5.c ****     P( D, A, B, C,  5, 12, 0x4787C62A );
 562              		.loc 1 158 0
 563 0278 2100     		movs	r1, r4
 564 027a 5140     		eors	r1, r2
 565 027c 3140     		ands	r1, r6
 566 027e 6140     		eors	r1, r4
 567 0280 049F     		ldr	r7, [sp, #16]
 568 0282 BC46     		mov	ip, r7
 569 0284 6144     		add	r1, r1, ip
 570 0286 6D18     		adds	r5, r5, r1
 571              	.LVL32:
 572 0288 DA49     		ldr	r1, .L10+20
 573 028a 8C46     		mov	ip, r1
 574 028c 6544     		add	r5, r5, ip
 575              	.LVL33:
 576 028e 5146     		mov	r1, r10
 577 0290 CD41     		rors	r5, r5, r1
 578              	.LVL34:
 579 0292 7519     		adds	r5, r6, r5
 580              	.LVL35:
 159:Source\mbedtls_open\library/md5.c ****     P( C, D, A, B,  6, 17, 0xA8304613 );
 581              		.loc 1 159 0
 582 0294 1100     		movs	r1, r2
ARM GAS  C:\Users\Phuong\AppData\Local\Temp\ccYkRU5p.s 			page 14


 583 0296 7140     		eors	r1, r6
 584 0298 2940     		ands	r1, r5
 585 029a 5140     		eors	r1, r2
 586 029c 059F     		ldr	r7, [sp, #20]
 587 029e BC46     		mov	ip, r7
 588 02a0 6144     		add	r1, r1, ip
 589 02a2 6418     		adds	r4, r4, r1
 590              	.LVL36:
 591 02a4 D449     		ldr	r1, .L10+24
 592 02a6 8C46     		mov	ip, r1
 593 02a8 6444     		add	r4, r4, ip
 594              	.LVL37:
 595 02aa 4946     		mov	r1, r9
 596 02ac CC41     		rors	r4, r4, r1
 597              	.LVL38:
 598 02ae 2C19     		adds	r4, r5, r4
 599              	.LVL39:
 160:Source\mbedtls_open\library/md5.c ****     P( B, C, D, A,  7, 22, 0xFD469501 );
 600              		.loc 1 160 0
 601 02b0 3100     		movs	r1, r6
 602 02b2 6940     		eors	r1, r5
 603 02b4 2140     		ands	r1, r4
 604 02b6 7140     		eors	r1, r6
 605 02b8 069F     		ldr	r7, [sp, #24]
 606 02ba BC46     		mov	ip, r7
 607 02bc 6144     		add	r1, r1, ip
 608 02be 5118     		adds	r1, r2, r1
 609 02c0 CE4A     		ldr	r2, .L10+28
 610              	.LVL40:
 611 02c2 9446     		mov	ip, r2
 612 02c4 6144     		add	r1, r1, ip
 613              	.LVL41:
 614 02c6 4246     		mov	r2, r8
 615 02c8 D141     		rors	r1, r1, r2
 616              	.LVL42:
 617 02ca 6118     		adds	r1, r4, r1
 618              	.LVL43:
 161:Source\mbedtls_open\library/md5.c ****     P( A, B, C, D,  8,  7, 0x698098D8 );
 619              		.loc 1 161 0
 620 02cc 2A00     		movs	r2, r5
 621 02ce 6240     		eors	r2, r4
 622 02d0 0A40     		ands	r2, r1
 623 02d2 6A40     		eors	r2, r5
 624 02d4 079F     		ldr	r7, [sp, #28]
 625 02d6 BC46     		mov	ip, r7
 626 02d8 6244     		add	r2, r2, ip
 627 02da B618     		adds	r6, r6, r2
 628              	.LVL44:
 629 02dc C84A     		ldr	r2, .L10+32
 630 02de 9446     		mov	ip, r2
 631 02e0 6644     		add	r6, r6, ip
 632              	.LVL45:
 633 02e2 DE41     		rors	r6, r6, r3
 634              	.LVL46:
 635 02e4 8E19     		adds	r6, r1, r6
 636              	.LVL47:
 162:Source\mbedtls_open\library/md5.c ****     P( D, A, B, C,  9, 12, 0x8B44F7AF );
ARM GAS  C:\Users\Phuong\AppData\Local\Temp\ccYkRU5p.s 			page 15


 637              		.loc 1 162 0
 638 02e6 2200     		movs	r2, r4
 639 02e8 4A40     		eors	r2, r1
 640 02ea 3240     		ands	r2, r6
 641 02ec 6240     		eors	r2, r4
 642 02ee 089F     		ldr	r7, [sp, #32]
 643 02f0 BC46     		mov	ip, r7
 644 02f2 6244     		add	r2, r2, ip
 645 02f4 AD18     		adds	r5, r5, r2
 646              	.LVL48:
 647 02f6 C34A     		ldr	r2, .L10+36
 648 02f8 9446     		mov	ip, r2
 649 02fa 6544     		add	r5, r5, ip
 650              	.LVL49:
 651 02fc 5246     		mov	r2, r10
 652 02fe D541     		rors	r5, r5, r2
 653              	.LVL50:
 654 0300 7519     		adds	r5, r6, r5
 655              	.LVL51:
 163:Source\mbedtls_open\library/md5.c ****     P( C, D, A, B, 10, 17, 0xFFFF5BB1 );
 656              		.loc 1 163 0
 657 0302 0A00     		movs	r2, r1
 658 0304 7240     		eors	r2, r6
 659 0306 2A40     		ands	r2, r5
 660 0308 4A40     		eors	r2, r1
 661 030a 099F     		ldr	r7, [sp, #36]
 662 030c BC46     		mov	ip, r7
 663 030e 6244     		add	r2, r2, ip
 664 0310 A418     		adds	r4, r4, r2
 665              	.LVL52:
 666 0312 BD4A     		ldr	r2, .L10+40
 667 0314 9446     		mov	ip, r2
 668 0316 6444     		add	r4, r4, ip
 669              	.LVL53:
 670 0318 4A46     		mov	r2, r9
 671 031a D441     		rors	r4, r4, r2
 672              	.LVL54:
 673 031c 2C19     		adds	r4, r5, r4
 674              	.LVL55:
 164:Source\mbedtls_open\library/md5.c ****     P( B, C, D, A, 11, 22, 0x895CD7BE );
 675              		.loc 1 164 0
 676 031e 3200     		movs	r2, r6
 677 0320 6A40     		eors	r2, r5
 678 0322 2240     		ands	r2, r4
 679 0324 7240     		eors	r2, r6
 680 0326 0A9F     		ldr	r7, [sp, #40]
 681 0328 BC46     		mov	ip, r7
 682 032a 6244     		add	r2, r2, ip
 683 032c 8A18     		adds	r2, r1, r2
 684 032e B749     		ldr	r1, .L10+44
 685              	.LVL56:
 686 0330 8C46     		mov	ip, r1
 687 0332 6244     		add	r2, r2, ip
 688              	.LVL57:
 689 0334 4146     		mov	r1, r8
 690 0336 CA41     		rors	r2, r2, r1
 691              	.LVL58:
ARM GAS  C:\Users\Phuong\AppData\Local\Temp\ccYkRU5p.s 			page 16


 692 0338 A218     		adds	r2, r4, r2
 693              	.LVL59:
 165:Source\mbedtls_open\library/md5.c ****     P( A, B, C, D, 12,  7, 0x6B901122 );
 694              		.loc 1 165 0
 695 033a 2900     		movs	r1, r5
 696 033c 6140     		eors	r1, r4
 697 033e 1140     		ands	r1, r2
 698 0340 6940     		eors	r1, r5
 699 0342 0B9F     		ldr	r7, [sp, #44]
 700 0344 BC46     		mov	ip, r7
 701 0346 6144     		add	r1, r1, ip
 702 0348 7618     		adds	r6, r6, r1
 703              	.LVL60:
 704 034a B149     		ldr	r1, .L10+48
 705 034c 8C46     		mov	ip, r1
 706 034e 6644     		add	r6, r6, ip
 707              	.LVL61:
 708 0350 DE41     		rors	r6, r6, r3
 709              	.LVL62:
 710 0352 9319     		adds	r3, r2, r6
 711              	.LVL63:
 166:Source\mbedtls_open\library/md5.c ****     P( D, A, B, C, 13, 12, 0xFD987193 );
 712              		.loc 1 166 0
 713 0354 2600     		movs	r6, r4
 714 0356 5640     		eors	r6, r2
 715 0358 3100     		movs	r1, r6
 716 035a 1940     		ands	r1, r3
 717 035c 6140     		eors	r1, r4
 718 035e 0C9E     		ldr	r6, [sp, #48]
 719 0360 B446     		mov	ip, r6
 720 0362 6144     		add	r1, r1, ip
 721 0364 6D18     		adds	r5, r5, r1
 722              	.LVL64:
 723 0366 AB4E     		ldr	r6, .L10+52
 724 0368 B446     		mov	ip, r6
 725 036a 6544     		add	r5, r5, ip
 726              	.LVL65:
 727 036c 5646     		mov	r6, r10
 728 036e F541     		rors	r5, r5, r6
 729              	.LVL66:
 730 0370 5D19     		adds	r5, r3, r5
 731              	.LVL67:
 167:Source\mbedtls_open\library/md5.c ****     P( C, D, A, B, 14, 17, 0xA679438E );
 732              		.loc 1 167 0
 733 0372 1100     		movs	r1, r2
 734 0374 5940     		eors	r1, r3
 735 0376 2940     		ands	r1, r5
 736 0378 5140     		eors	r1, r2
 737 037a 0D9E     		ldr	r6, [sp, #52]
 738 037c B446     		mov	ip, r6
 739 037e 6144     		add	r1, r1, ip
 740 0380 6418     		adds	r4, r4, r1
 741              	.LVL68:
 742 0382 A54E     		ldr	r6, .L10+56
 743 0384 B446     		mov	ip, r6
 744 0386 6444     		add	r4, r4, ip
 745              	.LVL69:
ARM GAS  C:\Users\Phuong\AppData\Local\Temp\ccYkRU5p.s 			page 17


 746 0388 4E46     		mov	r6, r9
 747 038a F441     		rors	r4, r4, r6
 748              	.LVL70:
 749 038c 2C19     		adds	r4, r5, r4
 750              	.LVL71:
 168:Source\mbedtls_open\library/md5.c ****     P( B, C, D, A, 15, 22, 0x49B40821 );
 751              		.loc 1 168 0
 752 038e 1900     		movs	r1, r3
 753 0390 6940     		eors	r1, r5
 754 0392 2140     		ands	r1, r4
 755 0394 5940     		eors	r1, r3
 756 0396 5944     		add	r1, r1, fp
 757 0398 5118     		adds	r1, r2, r1
 758 039a A04A     		ldr	r2, .L10+60
 759              	.LVL72:
 760 039c 9446     		mov	ip, r2
 761 039e 6144     		add	r1, r1, ip
 762              	.LVL73:
 763 03a0 4246     		mov	r2, r8
 764 03a2 D141     		rors	r1, r1, r2
 765              	.LVL74:
 766 03a4 6118     		adds	r1, r4, r1
 767              	.LVL75:
 169:Source\mbedtls_open\library/md5.c **** 
 170:Source\mbedtls_open\library/md5.c **** #undef F
 171:Source\mbedtls_open\library/md5.c **** 
 172:Source\mbedtls_open\library/md5.c **** #define F(x,y,z) (y ^ (z & (x ^ y)))
 173:Source\mbedtls_open\library/md5.c **** 
 174:Source\mbedtls_open\library/md5.c ****     P( A, B, C, D,  1,  5, 0xF61E2562 );
 768              		.loc 1 174 0
 769 03a6 2600     		movs	r6, r4
 770 03a8 4E40     		eors	r6, r1
 771 03aa 2E40     		ands	r6, r5
 772 03ac 6640     		eors	r6, r4
 773 03ae 009A     		ldr	r2, [sp]
 774 03b0 9046     		mov	r8, r2
 775 03b2 4644     		add	r6, r6, r8
 776 03b4 9E19     		adds	r6, r3, r6
 777 03b6 9A4B     		ldr	r3, .L10+64
 778              	.LVL76:
 779 03b8 9C46     		mov	ip, r3
 780 03ba 6644     		add	r6, r6, ip
 781              	.LVL77:
 782 03bc 1B22     		movs	r2, #27
 783 03be D641     		rors	r6, r6, r2
 784              	.LVL78:
 785 03c0 8E19     		adds	r6, r1, r6
 786              	.LVL79:
 175:Source\mbedtls_open\library/md5.c ****     P( D, A, B, C,  6,  9, 0xC040B340 );
 787              		.loc 1 175 0
 788 03c2 0B00     		movs	r3, r1
 789 03c4 7340     		eors	r3, r6
 790 03c6 2340     		ands	r3, r4
 791 03c8 4B40     		eors	r3, r1
 792 03ca 059F     		ldr	r7, [sp, #20]
 793 03cc BC46     		mov	ip, r7
 794 03ce 6344     		add	r3, r3, ip
ARM GAS  C:\Users\Phuong\AppData\Local\Temp\ccYkRU5p.s 			page 18


 795 03d0 ED18     		adds	r5, r5, r3
 796              	.LVL80:
 797 03d2 944B     		ldr	r3, .L10+68
 798 03d4 9C46     		mov	ip, r3
 799 03d6 6544     		add	r5, r5, ip
 800              	.LVL81:
 801 03d8 1723     		movs	r3, #23
 802 03da DD41     		rors	r5, r5, r3
 803              	.LVL82:
 804 03dc 7519     		adds	r5, r6, r5
 805              	.LVL83:
 176:Source\mbedtls_open\library/md5.c ****     P( C, D, A, B, 11, 14, 0x265E5A51 );
 806              		.loc 1 176 0
 807 03de 3700     		movs	r7, r6
 808 03e0 6F40     		eors	r7, r5
 809 03e2 0F40     		ands	r7, r1
 810 03e4 7740     		eors	r7, r6
 811 03e6 B846     		mov	r8, r7
 812 03e8 0A9F     		ldr	r7, [sp, #40]
 813 03ea BC46     		mov	ip, r7
 814 03ec E044     		add	r8, r8, ip
 815 03ee 4444     		add	r4, r4, r8
 816              	.LVL84:
 817 03f0 8D4F     		ldr	r7, .L10+72
 818 03f2 BC46     		mov	ip, r7
 819 03f4 6444     		add	r4, r4, ip
 820              	.LVL85:
 821 03f6 1227     		movs	r7, #18
 822 03f8 B946     		mov	r9, r7
 823 03fa FC41     		rors	r4, r4, r7
 824              	.LVL86:
 825 03fc 2C19     		adds	r4, r5, r4
 826              	.LVL87:
 177:Source\mbedtls_open\library/md5.c ****     P( B, C, D, A,  0, 20, 0xE9B6C7AA );
 827              		.loc 1 177 0
 828 03fe 2F00     		movs	r7, r5
 829 0400 6740     		eors	r7, r4
 830 0402 3740     		ands	r7, r6
 831 0404 6F40     		eors	r7, r5
 832 0406 B846     		mov	r8, r7
 833 0408 0E9F     		ldr	r7, [sp, #56]
 834 040a BC46     		mov	ip, r7
 835 040c E044     		add	r8, r8, ip
 836 040e 4144     		add	r1, r1, r8
 837              	.LVL88:
 838 0410 864F     		ldr	r7, .L10+76
 839 0412 BC46     		mov	ip, r7
 840 0414 6144     		add	r1, r1, ip
 841              	.LVL89:
 842 0416 0C27     		movs	r7, #12
 843 0418 B846     		mov	r8, r7
 844 041a F941     		rors	r1, r1, r7
 845              	.LVL90:
 846 041c 6118     		adds	r1, r4, r1
 847              	.LVL91:
 178:Source\mbedtls_open\library/md5.c ****     P( A, B, C, D,  5,  5, 0xD62F105D );
 848              		.loc 1 178 0
ARM GAS  C:\Users\Phuong\AppData\Local\Temp\ccYkRU5p.s 			page 19


 849 041e 2700     		movs	r7, r4
 850 0420 4F40     		eors	r7, r1
 851 0422 2F40     		ands	r7, r5
 852 0424 6740     		eors	r7, r4
 853 0426 BA46     		mov	r10, r7
 854 0428 049F     		ldr	r7, [sp, #16]
 855 042a BC46     		mov	ip, r7
 856 042c E244     		add	r10, r10, ip
 857 042e 5644     		add	r6, r6, r10
 858              	.LVL92:
 859 0430 7F4F     		ldr	r7, .L10+80
 860 0432 BC46     		mov	ip, r7
 861 0434 6644     		add	r6, r6, ip
 862              	.LVL93:
 863 0436 D641     		rors	r6, r6, r2
 864              	.LVL94:
 865 0438 8E19     		adds	r6, r1, r6
 866              	.LVL95:
 179:Source\mbedtls_open\library/md5.c ****     P( D, A, B, C, 10,  9, 0x02441453 );
 867              		.loc 1 179 0
 868 043a 0F00     		movs	r7, r1
 869 043c 7740     		eors	r7, r6
 870 043e 2740     		ands	r7, r4
 871 0440 4F40     		eors	r7, r1
 872 0442 BA46     		mov	r10, r7
 873 0444 099F     		ldr	r7, [sp, #36]
 874 0446 BC46     		mov	ip, r7
 875 0448 E244     		add	r10, r10, ip
 876 044a 5544     		add	r5, r5, r10
 877              	.LVL96:
 878 044c 794F     		ldr	r7, .L10+84
 879 044e BC46     		mov	ip, r7
 880 0450 6544     		add	r5, r5, ip
 881              	.LVL97:
 882 0452 DD41     		rors	r5, r5, r3
 883              	.LVL98:
 884 0454 7519     		adds	r5, r6, r5
 885              	.LVL99:
 180:Source\mbedtls_open\library/md5.c ****     P( C, D, A, B, 15, 14, 0xD8A1E681 );
 886              		.loc 1 180 0
 887 0456 3700     		movs	r7, r6
 888 0458 6F40     		eors	r7, r5
 889 045a 0F40     		ands	r7, r1
 890 045c 7740     		eors	r7, r6
 891 045e BA46     		mov	r10, r7
 892 0460 DA44     		add	r10, r10, fp
 893 0462 5444     		add	r4, r4, r10
 894              	.LVL100:
 895 0464 744F     		ldr	r7, .L10+88
 896 0466 BC46     		mov	ip, r7
 897 0468 6444     		add	r4, r4, ip
 898              	.LVL101:
 899 046a 4F46     		mov	r7, r9
 900 046c FC41     		rors	r4, r4, r7
 901              	.LVL102:
 902 046e 2C19     		adds	r4, r5, r4
 903              	.LVL103:
ARM GAS  C:\Users\Phuong\AppData\Local\Temp\ccYkRU5p.s 			page 20


 181:Source\mbedtls_open\library/md5.c ****     P( B, C, D, A,  4, 20, 0xE7D3FBC8 );
 904              		.loc 1 181 0
 905 0470 2F00     		movs	r7, r5
 906 0472 6740     		eors	r7, r4
 907 0474 3740     		ands	r7, r6
 908 0476 6F40     		eors	r7, r5
 909 0478 BA46     		mov	r10, r7
 910 047a 039F     		ldr	r7, [sp, #12]
 911 047c BC46     		mov	ip, r7
 912 047e E244     		add	r10, r10, ip
 913 0480 5144     		add	r1, r1, r10
 914              	.LVL104:
 915 0482 6E4F     		ldr	r7, .L10+92
 916 0484 BC46     		mov	ip, r7
 917 0486 6144     		add	r1, r1, ip
 918              	.LVL105:
 919 0488 4746     		mov	r7, r8
 920 048a F941     		rors	r1, r1, r7
 921              	.LVL106:
 922 048c 6118     		adds	r1, r4, r1
 923              	.LVL107:
 182:Source\mbedtls_open\library/md5.c ****     P( A, B, C, D,  9,  5, 0x21E1CDE6 );
 924              		.loc 1 182 0
 925 048e 2700     		movs	r7, r4
 926 0490 4F40     		eors	r7, r1
 927 0492 2F40     		ands	r7, r5
 928 0494 6740     		eors	r7, r4
 929 0496 BA46     		mov	r10, r7
 930 0498 089F     		ldr	r7, [sp, #32]
 931 049a BC46     		mov	ip, r7
 932 049c E244     		add	r10, r10, ip
 933 049e 5644     		add	r6, r6, r10
 934              	.LVL108:
 935 04a0 674F     		ldr	r7, .L10+96
 936 04a2 BC46     		mov	ip, r7
 937 04a4 6644     		add	r6, r6, ip
 938              	.LVL109:
 939 04a6 D641     		rors	r6, r6, r2
 940              	.LVL110:
 941 04a8 8E19     		adds	r6, r1, r6
 942              	.LVL111:
 183:Source\mbedtls_open\library/md5.c ****     P( D, A, B, C, 14,  9, 0xC33707D6 );
 943              		.loc 1 183 0
 944 04aa 0F00     		movs	r7, r1
 945 04ac 7740     		eors	r7, r6
 946 04ae 2740     		ands	r7, r4
 947 04b0 4F40     		eors	r7, r1
 948 04b2 BA46     		mov	r10, r7
 949 04b4 0D9F     		ldr	r7, [sp, #52]
 950 04b6 BC46     		mov	ip, r7
 951 04b8 E244     		add	r10, r10, ip
 952 04ba 5544     		add	r5, r5, r10
 953              	.LVL112:
 954 04bc 614F     		ldr	r7, .L10+100
 955 04be BC46     		mov	ip, r7
 956 04c0 6544     		add	r5, r5, ip
 957              	.LVL113:
ARM GAS  C:\Users\Phuong\AppData\Local\Temp\ccYkRU5p.s 			page 21


 958 04c2 DD41     		rors	r5, r5, r3
 959              	.LVL114:
 960 04c4 7519     		adds	r5, r6, r5
 961              	.LVL115:
 184:Source\mbedtls_open\library/md5.c ****     P( C, D, A, B,  3, 14, 0xF4D50D87 );
 962              		.loc 1 184 0
 963 04c6 3700     		movs	r7, r6
 964 04c8 6F40     		eors	r7, r5
 965 04ca 0F40     		ands	r7, r1
 966 04cc 7740     		eors	r7, r6
 967 04ce BA46     		mov	r10, r7
 968 04d0 029F     		ldr	r7, [sp, #8]
 969 04d2 BC46     		mov	ip, r7
 970 04d4 E244     		add	r10, r10, ip
 971 04d6 5444     		add	r4, r4, r10
 972              	.LVL116:
 973 04d8 5B4F     		ldr	r7, .L10+104
 974 04da BC46     		mov	ip, r7
 975 04dc 6444     		add	r4, r4, ip
 976              	.LVL117:
 977 04de 4F46     		mov	r7, r9
 978 04e0 FC41     		rors	r4, r4, r7
 979              	.LVL118:
 980 04e2 2C19     		adds	r4, r5, r4
 981              	.LVL119:
 185:Source\mbedtls_open\library/md5.c ****     P( B, C, D, A,  8, 20, 0x455A14ED );
 982              		.loc 1 185 0
 983 04e4 2F00     		movs	r7, r5
 984 04e6 6740     		eors	r7, r4
 985 04e8 3740     		ands	r7, r6
 986 04ea 6F40     		eors	r7, r5
 987 04ec BA46     		mov	r10, r7
 988 04ee 079F     		ldr	r7, [sp, #28]
 989 04f0 BC46     		mov	ip, r7
 990 04f2 E244     		add	r10, r10, ip
 991 04f4 5144     		add	r1, r1, r10
 992              	.LVL120:
 993 04f6 554F     		ldr	r7, .L10+108
 994 04f8 BC46     		mov	ip, r7
 995 04fa 6144     		add	r1, r1, ip
 996              	.LVL121:
 997 04fc 4746     		mov	r7, r8
 998 04fe F941     		rors	r1, r1, r7
 999              	.LVL122:
 1000 0500 6118     		adds	r1, r4, r1
 1001              	.LVL123:
 186:Source\mbedtls_open\library/md5.c ****     P( A, B, C, D, 13,  5, 0xA9E3E905 );
 1002              		.loc 1 186 0
 1003 0502 2700     		movs	r7, r4
 1004 0504 4F40     		eors	r7, r1
 1005 0506 2F40     		ands	r7, r5
 1006 0508 6740     		eors	r7, r4
 1007 050a BA46     		mov	r10, r7
 1008 050c 0C9F     		ldr	r7, [sp, #48]
 1009 050e BC46     		mov	ip, r7
 1010 0510 E244     		add	r10, r10, ip
 1011 0512 5644     		add	r6, r6, r10
ARM GAS  C:\Users\Phuong\AppData\Local\Temp\ccYkRU5p.s 			page 22


 1012              	.LVL124:
 1013 0514 4E4F     		ldr	r7, .L10+112
 1014 0516 BC46     		mov	ip, r7
 1015 0518 6644     		add	r6, r6, ip
 1016              	.LVL125:
 1017 051a D641     		rors	r6, r6, r2
 1018              	.LVL126:
 1019 051c 8A19     		adds	r2, r1, r6
 1020              	.LVL127:
 187:Source\mbedtls_open\library/md5.c ****     P( D, A, B, C,  2,  9, 0xFCEFA3F8 );
 1021              		.loc 1 187 0
 1022 051e 0E00     		movs	r6, r1
 1023 0520 5640     		eors	r6, r2
 1024 0522 2640     		ands	r6, r4
 1025 0524 4E40     		eors	r6, r1
 1026 0526 019F     		ldr	r7, [sp, #4]
 1027 0528 BC46     		mov	ip, r7
 1028 052a 6644     		add	r6, r6, ip
 1029 052c AD19     		adds	r5, r5, r6
 1030              	.LVL128:
 1031 052e 494E     		ldr	r6, .L10+116
 1032 0530 B446     		mov	ip, r6
 1033 0532 6544     		add	r5, r5, ip
 1034              	.LVL129:
 1035 0534 DD41     		rors	r5, r5, r3
 1036              	.LVL130:
 1037 0536 5319     		adds	r3, r2, r5
 1038              	.LVL131:
 188:Source\mbedtls_open\library/md5.c ****     P( C, D, A, B,  7, 14, 0x676F02D9 );
 1039              		.loc 1 188 0
 1040 0538 1500     		movs	r5, r2
 1041 053a 5D40     		eors	r5, r3
 1042 053c 0D40     		ands	r5, r1
 1043 053e 5540     		eors	r5, r2
 1044 0540 069E     		ldr	r6, [sp, #24]
 1045 0542 B446     		mov	ip, r6
 1046 0544 6544     		add	r5, r5, ip
 1047 0546 6419     		adds	r4, r4, r5
 1048              	.LVL132:
 1049 0548 434D     		ldr	r5, .L10+120
 1050 054a AC46     		mov	ip, r5
 1051 054c 6444     		add	r4, r4, ip
 1052              	.LVL133:
 1053 054e 4D46     		mov	r5, r9
 1054 0550 EC41     		rors	r4, r4, r5
 1055              	.LVL134:
 1056 0552 1C19     		adds	r4, r3, r4
 1057              	.LVL135:
 189:Source\mbedtls_open\library/md5.c ****     P( B, C, D, A, 12, 20, 0x8D2A4C8A );
 1058              		.loc 1 189 0
 1059 0554 1D00     		movs	r5, r3
 1060 0556 6540     		eors	r5, r4
 1061 0558 1540     		ands	r5, r2
 1062 055a 5D40     		eors	r5, r3
 1063 055c 0B9E     		ldr	r6, [sp, #44]
 1064 055e B446     		mov	ip, r6
 1065 0560 6544     		add	r5, r5, ip
ARM GAS  C:\Users\Phuong\AppData\Local\Temp\ccYkRU5p.s 			page 23


 1066 0562 4919     		adds	r1, r1, r5
 1067              	.LVL136:
 1068 0564 3D4D     		ldr	r5, .L10+124
 1069 0566 AC46     		mov	ip, r5
 1070 0568 6144     		add	r1, r1, ip
 1071              	.LVL137:
 1072 056a 4546     		mov	r5, r8
 1073 056c E941     		rors	r1, r1, r5
 1074              	.LVL138:
 1075 056e 6118     		adds	r1, r4, r1
 1076              	.LVL139:
 190:Source\mbedtls_open\library/md5.c **** 
 191:Source\mbedtls_open\library/md5.c **** #undef F
 192:Source\mbedtls_open\library/md5.c **** 
 193:Source\mbedtls_open\library/md5.c **** #define F(x,y,z) (x ^ y ^ z)
 194:Source\mbedtls_open\library/md5.c **** 
 195:Source\mbedtls_open\library/md5.c ****     P( A, B, C, D,  5,  4, 0xFFFA3942 );
 1077              		.loc 1 195 0
 1078 0570 2500     		movs	r5, r4
 1079 0572 4D40     		eors	r5, r1
 1080 0574 5D40     		eors	r5, r3
 1081 0576 049E     		ldr	r6, [sp, #16]
 1082 0578 B446     		mov	ip, r6
 1083 057a 6544     		add	r5, r5, ip
 1084 057c 5219     		adds	r2, r2, r5
 1085              	.LVL140:
 1086 057e 384D     		ldr	r5, .L10+128
 1087 0580 AC46     		mov	ip, r5
 1088 0582 6244     		add	r2, r2, ip
 1089              	.LVL141:
 1090 0584 1C26     		movs	r6, #28
 1091 0586 F241     		rors	r2, r2, r6
 1092              	.LVL142:
 1093 0588 8A18     		adds	r2, r1, r2
 1094              	.LVL143:
 196:Source\mbedtls_open\library/md5.c ****     P( D, A, B, C,  8, 11, 0x8771F681 );
 1095              		.loc 1 196 0
 1096 058a 0D00     		movs	r5, r1
 1097 058c 5540     		eors	r5, r2
 1098 058e 6540     		eors	r5, r4
 1099 0590 079F     		ldr	r7, [sp, #28]
 1100 0592 BC46     		mov	ip, r7
 1101 0594 6544     		add	r5, r5, ip
 1102 0596 5B19     		adds	r3, r3, r5
 1103              	.LVL144:
 1104 0598 324D     		ldr	r5, .L10+132
 1105 059a AC46     		mov	ip, r5
 1106 059c 6344     		add	r3, r3, ip
 1107              	.LVL145:
 1108 059e 1525     		movs	r5, #21
 1109 05a0 A846     		mov	r8, r5
 1110 05a2 EB41     		rors	r3, r3, r5
 1111              	.LVL146:
 1112 05a4 D318     		adds	r3, r2, r3
 1113              	.LVL147:
 197:Source\mbedtls_open\library/md5.c ****     P( C, D, A, B, 11, 16, 0x6D9D6122 );
 1114              		.loc 1 197 0
ARM GAS  C:\Users\Phuong\AppData\Local\Temp\ccYkRU5p.s 			page 24


 1115 05a6 1500     		movs	r5, r2
 1116 05a8 5D40     		eors	r5, r3
 1117 05aa 4D40     		eors	r5, r1
 1118 05ac 0A9F     		ldr	r7, [sp, #40]
 1119 05ae BC46     		mov	ip, r7
 1120 05b0 6544     		add	r5, r5, ip
 1121 05b2 6419     		adds	r4, r4, r5
 1122              	.LVL148:
 1123 05b4 2C4D     		ldr	r5, .L10+136
 1124 05b6 AC46     		mov	ip, r5
 1125 05b8 6444     		add	r4, r4, ip
 1126              	.LVL149:
 1127 05ba 1025     		movs	r5, #16
 1128 05bc A946     		mov	r9, r5
 1129 05be EC41     		rors	r4, r4, r5
 1130              	.LVL150:
 1131 05c0 1C19     		adds	r4, r3, r4
 1132              	.LVL151:
 198:Source\mbedtls_open\library/md5.c ****     P( B, C, D, A, 14, 23, 0xFDE5380C );
 1133              		.loc 1 198 0
 1134 05c2 1D00     		movs	r5, r3
 1135 05c4 6540     		eors	r5, r4
 1136 05c6 5540     		eors	r5, r2
 1137 05c8 0D9F     		ldr	r7, [sp, #52]
 1138 05ca BC46     		mov	ip, r7
 1139 05cc 6544     		add	r5, r5, ip
 1140 05ce 4D19     		adds	r5, r1, r5
 1141 05d0 2649     		ldr	r1, .L10+140
 1142              	.LVL152:
 1143 05d2 8C46     		mov	ip, r1
 1144 05d4 6544     		add	r5, r5, ip
 1145              	.LVL153:
 1146 05d6 0921     		movs	r1, #9
 1147 05d8 CD41     		rors	r5, r5, r1
 1148              	.LVL154:
 1149 05da AA46     		mov	r10, r5
 1150 05dc 48E0     		b	.L11
 1151              	.L12:
 1152 05de C046     		.align	2
 1153              	.L10:
 1154 05e0 78A46AD7 		.word	-680876936
 1155 05e4 56B7C7E8 		.word	-389564586
 1156 05e8 DB702024 		.word	606105819
 1157 05ec EECEBDC1 		.word	-1044525330
 1158 05f0 AF0F7CF5 		.word	-176418897
 1159 05f4 2AC68747 		.word	1200080426
 1160 05f8 134630A8 		.word	-1473231341
 1161 05fc 019546FD 		.word	-45705983
 1162 0600 D8988069 		.word	1770035416
 1163 0604 AFF7448B 		.word	-1958414417
 1164 0608 B15BFFFF 		.word	-42063
 1165 060c BED75C89 		.word	-1990404162
 1166 0610 2211906B 		.word	1804603682
 1167 0614 937198FD 		.word	-40341101
 1168 0618 8E4379A6 		.word	-1502002290
 1169 061c 2108B449 		.word	1236535329
 1170 0620 62251EF6 		.word	-165796510
ARM GAS  C:\Users\Phuong\AppData\Local\Temp\ccYkRU5p.s 			page 25


 1171 0624 40B340C0 		.word	-1069501632
 1172 0628 515A5E26 		.word	643717713
 1173 062c AAC7B6E9 		.word	-373897302
 1174 0630 5D102FD6 		.word	-701558691
 1175 0634 53144402 		.word	38016083
 1176 0638 81E6A1D8 		.word	-660478335
 1177 063c C8FBD3E7 		.word	-405537848
 1178 0640 E6CDE121 		.word	568446438
 1179 0644 D60737C3 		.word	-1019803690
 1180 0648 870DD5F4 		.word	-187363961
 1181 064c ED145A45 		.word	1163531501
 1182 0650 05E9E3A9 		.word	-1444681467
 1183 0654 F8A3EFFC 		.word	-51403784
 1184 0658 D9026F67 		.word	1735328473
 1185 065c 8A4C2A8D 		.word	-1926607734
 1186 0660 4239FAFF 		.word	-378558
 1187 0664 81F67187 		.word	-2022574463
 1188 0668 22619D6D 		.word	1839030562
 1189 066c 0C38E5FD 		.word	-35309556
 1190              	.L11:
 1191 0670 A244     		add	r10, r10, r4
 1192              	.LVL155:
 199:Source\mbedtls_open\library/md5.c ****     P( A, B, C, D,  1,  4, 0xA4BEEA44 );
 1193              		.loc 1 199 0
 1194 0672 5546     		mov	r5, r10
 1195 0674 6540     		eors	r5, r4
 1196 0676 5D40     		eors	r5, r3
 1197 0678 009F     		ldr	r7, [sp]
 1198 067a BC46     		mov	ip, r7
 1199 067c 6544     		add	r5, r5, ip
 1200 067e 5219     		adds	r2, r2, r5
 1201              	.LVL156:
 1202 0680 BC4D     		ldr	r5, .L13
 1203 0682 AC46     		mov	ip, r5
 1204 0684 6244     		add	r2, r2, ip
 1205              	.LVL157:
 1206 0686 F241     		rors	r2, r2, r6
 1207              	.LVL158:
 1208 0688 5244     		add	r2, r2, r10
 1209              	.LVL159:
 200:Source\mbedtls_open\library/md5.c ****     P( D, A, B, C,  4, 11, 0x4BDECFA9 );
 1210              		.loc 1 200 0
 1211 068a 5546     		mov	r5, r10
 1212 068c 5540     		eors	r5, r2
 1213 068e 6540     		eors	r5, r4
 1214 0690 039F     		ldr	r7, [sp, #12]
 1215 0692 BC46     		mov	ip, r7
 1216 0694 6544     		add	r5, r5, ip
 1217 0696 5D19     		adds	r5, r3, r5
 1218 0698 B74B     		ldr	r3, .L13+4
 1219              	.LVL160:
 1220 069a 9C46     		mov	ip, r3
 1221 069c 6544     		add	r5, r5, ip
 1222              	.LVL161:
 1223 069e 4346     		mov	r3, r8
 1224 06a0 DD41     		rors	r5, r5, r3
 1225              	.LVL162:
ARM GAS  C:\Users\Phuong\AppData\Local\Temp\ccYkRU5p.s 			page 26


 1226 06a2 5519     		adds	r5, r2, r5
 1227              	.LVL163:
 201:Source\mbedtls_open\library/md5.c ****     P( C, D, A, B,  7, 16, 0xF6BB4B60 );
 1228              		.loc 1 201 0
 1229 06a4 1300     		movs	r3, r2
 1230 06a6 6B40     		eors	r3, r5
 1231 06a8 5746     		mov	r7, r10
 1232 06aa 7B40     		eors	r3, r7
 1233 06ac 069F     		ldr	r7, [sp, #24]
 1234 06ae BC46     		mov	ip, r7
 1235 06b0 6344     		add	r3, r3, ip
 1236 06b2 E418     		adds	r4, r4, r3
 1237              	.LVL164:
 1238 06b4 B14B     		ldr	r3, .L13+8
 1239 06b6 9C46     		mov	ip, r3
 1240 06b8 6444     		add	r4, r4, ip
 1241              	.LVL165:
 1242 06ba 4B46     		mov	r3, r9
 1243 06bc DC41     		rors	r4, r4, r3
 1244              	.LVL166:
 1245 06be 2C19     		adds	r4, r5, r4
 1246              	.LVL167:
 202:Source\mbedtls_open\library/md5.c ****     P( B, C, D, A, 10, 23, 0xBEBFBC70 );
 1247              		.loc 1 202 0
 1248 06c0 2B00     		movs	r3, r5
 1249 06c2 6340     		eors	r3, r4
 1250 06c4 5340     		eors	r3, r2
 1251 06c6 099F     		ldr	r7, [sp, #36]
 1252 06c8 BC46     		mov	ip, r7
 1253 06ca 6344     		add	r3, r3, ip
 1254 06cc 5344     		add	r3, r3, r10
 1255 06ce AC4F     		ldr	r7, .L13+12
 1256 06d0 BC46     		mov	ip, r7
 1257 06d2 6344     		add	r3, r3, ip
 1258              	.LVL168:
 1259 06d4 CB41     		rors	r3, r3, r1
 1260              	.LVL169:
 1261 06d6 E318     		adds	r3, r4, r3
 1262              	.LVL170:
 203:Source\mbedtls_open\library/md5.c ****     P( A, B, C, D, 13,  4, 0x289B7EC6 );
 1263              		.loc 1 203 0
 1264 06d8 2700     		movs	r7, r4
 1265 06da 5F40     		eors	r7, r3
 1266 06dc 6F40     		eors	r7, r5
 1267 06de BA46     		mov	r10, r7
 1268 06e0 0C9F     		ldr	r7, [sp, #48]
 1269 06e2 BC46     		mov	ip, r7
 1270 06e4 E244     		add	r10, r10, ip
 1271 06e6 5244     		add	r2, r2, r10
 1272              	.LVL171:
 1273 06e8 A64F     		ldr	r7, .L13+16
 1274 06ea BC46     		mov	ip, r7
 1275 06ec 6244     		add	r2, r2, ip
 1276              	.LVL172:
 1277 06ee F241     		rors	r2, r2, r6
 1278              	.LVL173:
 1279 06f0 9A18     		adds	r2, r3, r2
ARM GAS  C:\Users\Phuong\AppData\Local\Temp\ccYkRU5p.s 			page 27


 1280              	.LVL174:
 204:Source\mbedtls_open\library/md5.c ****     P( D, A, B, C,  0, 11, 0xEAA127FA );
 1281              		.loc 1 204 0
 1282 06f2 1F00     		movs	r7, r3
 1283 06f4 5740     		eors	r7, r2
 1284 06f6 6740     		eors	r7, r4
 1285 06f8 BA46     		mov	r10, r7
 1286 06fa 0E9F     		ldr	r7, [sp, #56]
 1287 06fc BC46     		mov	ip, r7
 1288 06fe E244     		add	r10, r10, ip
 1289 0700 5544     		add	r5, r5, r10
 1290              	.LVL175:
 1291 0702 A14F     		ldr	r7, .L13+20
 1292 0704 BC46     		mov	ip, r7
 1293 0706 6544     		add	r5, r5, ip
 1294              	.LVL176:
 1295 0708 4746     		mov	r7, r8
 1296 070a FD41     		rors	r5, r5, r7
 1297              	.LVL177:
 1298 070c 5519     		adds	r5, r2, r5
 1299              	.LVL178:
 205:Source\mbedtls_open\library/md5.c ****     P( C, D, A, B,  3, 16, 0xD4EF3085 );
 1300              		.loc 1 205 0
 1301 070e 1700     		movs	r7, r2
 1302 0710 6F40     		eors	r7, r5
 1303 0712 5F40     		eors	r7, r3
 1304 0714 BA46     		mov	r10, r7
 1305 0716 029F     		ldr	r7, [sp, #8]
 1306 0718 BC46     		mov	ip, r7
 1307 071a E244     		add	r10, r10, ip
 1308 071c 5444     		add	r4, r4, r10
 1309              	.LVL179:
 1310 071e 9B4F     		ldr	r7, .L13+24
 1311 0720 BC46     		mov	ip, r7
 1312 0722 6444     		add	r4, r4, ip
 1313              	.LVL180:
 1314 0724 4F46     		mov	r7, r9
 1315 0726 FC41     		rors	r4, r4, r7
 1316              	.LVL181:
 1317 0728 2C19     		adds	r4, r5, r4
 1318              	.LVL182:
 206:Source\mbedtls_open\library/md5.c ****     P( B, C, D, A,  6, 23, 0x04881D05 );
 1319              		.loc 1 206 0
 1320 072a 2F00     		movs	r7, r5
 1321 072c 6740     		eors	r7, r4
 1322 072e 5740     		eors	r7, r2
 1323 0730 BA46     		mov	r10, r7
 1324 0732 059F     		ldr	r7, [sp, #20]
 1325 0734 BC46     		mov	ip, r7
 1326 0736 E244     		add	r10, r10, ip
 1327 0738 5344     		add	r3, r3, r10
 1328              	.LVL183:
 1329 073a 954F     		ldr	r7, .L13+28
 1330 073c BC46     		mov	ip, r7
 1331 073e 6344     		add	r3, r3, ip
 1332              	.LVL184:
 1333 0740 CB41     		rors	r3, r3, r1
ARM GAS  C:\Users\Phuong\AppData\Local\Temp\ccYkRU5p.s 			page 28


 1334              	.LVL185:
 1335 0742 9A46     		mov	r10, r3
 1336 0744 A244     		add	r10, r10, r4
 1337              	.LVL186:
 207:Source\mbedtls_open\library/md5.c ****     P( A, B, C, D,  9,  4, 0xD9D4D039 );
 1338              		.loc 1 207 0
 1339 0746 5346     		mov	r3, r10
 1340 0748 6340     		eors	r3, r4
 1341 074a 6B40     		eors	r3, r5
 1342 074c 089F     		ldr	r7, [sp, #32]
 1343 074e BC46     		mov	ip, r7
 1344 0750 6344     		add	r3, r3, ip
 1345 0752 D218     		adds	r2, r2, r3
 1346              	.LVL187:
 1347 0754 8F4B     		ldr	r3, .L13+32
 1348 0756 9C46     		mov	ip, r3
 1349 0758 6244     		add	r2, r2, ip
 1350              	.LVL188:
 1351 075a F241     		rors	r2, r2, r6
 1352              	.LVL189:
 1353 075c 5244     		add	r2, r2, r10
 1354              	.LVL190:
 208:Source\mbedtls_open\library/md5.c ****     P( D, A, B, C, 12, 11, 0xE6DB99E5 );
 1355              		.loc 1 208 0
 1356 075e 5346     		mov	r3, r10
 1357 0760 5340     		eors	r3, r2
 1358 0762 1E00     		movs	r6, r3
 1359 0764 6640     		eors	r6, r4
 1360 0766 0B9B     		ldr	r3, [sp, #44]
 1361 0768 9C46     		mov	ip, r3
 1362 076a 6644     		add	r6, r6, ip
 1363 076c AD19     		adds	r5, r5, r6
 1364              	.LVL191:
 1365 076e 8A4B     		ldr	r3, .L13+36
 1366 0770 9C46     		mov	ip, r3
 1367 0772 6544     		add	r5, r5, ip
 1368              	.LVL192:
 1369 0774 4346     		mov	r3, r8
 1370 0776 DD41     		rors	r5, r5, r3
 1371              	.LVL193:
 1372 0778 5519     		adds	r5, r2, r5
 1373              	.LVL194:
 209:Source\mbedtls_open\library/md5.c ****     P( C, D, A, B, 15, 16, 0x1FA27CF8 );
 1374              		.loc 1 209 0
 1375 077a 1300     		movs	r3, r2
 1376 077c 6B40     		eors	r3, r5
 1377 077e 5646     		mov	r6, r10
 1378 0780 7340     		eors	r3, r6
 1379 0782 5B44     		add	r3, r3, fp
 1380 0784 E418     		adds	r4, r4, r3
 1381              	.LVL195:
 1382 0786 854B     		ldr	r3, .L13+40
 1383 0788 9C46     		mov	ip, r3
 1384 078a 6444     		add	r4, r4, ip
 1385              	.LVL196:
 1386 078c 4B46     		mov	r3, r9
 1387 078e DC41     		rors	r4, r4, r3
ARM GAS  C:\Users\Phuong\AppData\Local\Temp\ccYkRU5p.s 			page 29


 1388              	.LVL197:
 1389 0790 2C19     		adds	r4, r5, r4
 1390              	.LVL198:
 210:Source\mbedtls_open\library/md5.c ****     P( B, C, D, A,  2, 23, 0xC4AC5665 );
 1391              		.loc 1 210 0
 1392 0792 2B00     		movs	r3, r5
 1393 0794 6340     		eors	r3, r4
 1394 0796 5340     		eors	r3, r2
 1395 0798 019E     		ldr	r6, [sp, #4]
 1396 079a B446     		mov	ip, r6
 1397 079c 6344     		add	r3, r3, ip
 1398 079e 5344     		add	r3, r3, r10
 1399 07a0 7F4E     		ldr	r6, .L13+44
 1400 07a2 B446     		mov	ip, r6
 1401 07a4 6344     		add	r3, r3, ip
 1402              	.LVL199:
 1403 07a6 CB41     		rors	r3, r3, r1
 1404              	.LVL200:
 1405 07a8 E118     		adds	r1, r4, r3
 1406              	.LVL201:
 211:Source\mbedtls_open\library/md5.c **** 
 212:Source\mbedtls_open\library/md5.c **** #undef F
 213:Source\mbedtls_open\library/md5.c **** 
 214:Source\mbedtls_open\library/md5.c **** #define F(x,y,z) (y ^ (x | ~z))
 215:Source\mbedtls_open\library/md5.c **** 
 216:Source\mbedtls_open\library/md5.c ****     P( A, B, C, D,  0,  6, 0xF4292244 );
 1407              		.loc 1 216 0
 1408 07aa EB43     		mvns	r3, r5
 1409 07ac 0B43     		orrs	r3, r1
 1410 07ae 6340     		eors	r3, r4
 1411 07b0 0E9F     		ldr	r7, [sp, #56]
 1412 07b2 BC46     		mov	ip, r7
 1413 07b4 6344     		add	r3, r3, ip
 1414 07b6 D218     		adds	r2, r2, r3
 1415              	.LVL202:
 1416 07b8 7A4B     		ldr	r3, .L13+48
 1417 07ba 9C46     		mov	ip, r3
 1418 07bc 6244     		add	r2, r2, ip
 1419              	.LVL203:
 1420 07be 1A26     		movs	r6, #26
 1421 07c0 F241     		rors	r2, r2, r6
 1422              	.LVL204:
 1423 07c2 8A18     		adds	r2, r1, r2
 1424              	.LVL205:
 217:Source\mbedtls_open\library/md5.c ****     P( D, A, B, C,  7, 10, 0x432AFF97 );
 1425              		.loc 1 217 0
 1426 07c4 E343     		mvns	r3, r4
 1427 07c6 1343     		orrs	r3, r2
 1428 07c8 4B40     		eors	r3, r1
 1429 07ca 069F     		ldr	r7, [sp, #24]
 1430 07cc BC46     		mov	ip, r7
 1431 07ce 6344     		add	r3, r3, ip
 1432 07d0 ED18     		adds	r5, r5, r3
 1433              	.LVL206:
 1434 07d2 754B     		ldr	r3, .L13+52
 1435 07d4 9C46     		mov	ip, r3
 1436 07d6 6544     		add	r5, r5, ip
ARM GAS  C:\Users\Phuong\AppData\Local\Temp\ccYkRU5p.s 			page 30


 1437              	.LVL207:
 1438 07d8 1623     		movs	r3, #22
 1439 07da 9846     		mov	r8, r3
 1440 07dc DD41     		rors	r5, r5, r3
 1441              	.LVL208:
 1442 07de 5519     		adds	r5, r2, r5
 1443              	.LVL209:
 218:Source\mbedtls_open\library/md5.c ****     P( C, D, A, B, 14, 15, 0xAB9423A7 );
 1444              		.loc 1 218 0
 1445 07e0 CB43     		mvns	r3, r1
 1446 07e2 2B43     		orrs	r3, r5
 1447 07e4 5340     		eors	r3, r2
 1448 07e6 0D9F     		ldr	r7, [sp, #52]
 1449 07e8 BC46     		mov	ip, r7
 1450 07ea 6344     		add	r3, r3, ip
 1451 07ec E418     		adds	r4, r4, r3
 1452              	.LVL210:
 1453 07ee 6F4B     		ldr	r3, .L13+56
 1454 07f0 9C46     		mov	ip, r3
 1455 07f2 6444     		add	r4, r4, ip
 1456              	.LVL211:
 1457 07f4 1123     		movs	r3, #17
 1458 07f6 9946     		mov	r9, r3
 1459 07f8 DC41     		rors	r4, r4, r3
 1460              	.LVL212:
 1461 07fa 2C19     		adds	r4, r5, r4
 1462              	.LVL213:
 219:Source\mbedtls_open\library/md5.c ****     P( B, C, D, A,  5, 21, 0xFC93A039 );
 1463              		.loc 1 219 0
 1464 07fc D343     		mvns	r3, r2
 1465 07fe 2343     		orrs	r3, r4
 1466 0800 6B40     		eors	r3, r5
 1467 0802 049F     		ldr	r7, [sp, #16]
 1468 0804 BC46     		mov	ip, r7
 1469 0806 6344     		add	r3, r3, ip
 1470 0808 C918     		adds	r1, r1, r3
 1471              	.LVL214:
 1472 080a 694B     		ldr	r3, .L13+60
 1473 080c 9C46     		mov	ip, r3
 1474 080e 6144     		add	r1, r1, ip
 1475              	.LVL215:
 1476 0810 0B23     		movs	r3, #11
 1477 0812 9A46     		mov	r10, r3
 1478 0814 D941     		rors	r1, r1, r3
 1479              	.LVL216:
 1480 0816 6118     		adds	r1, r4, r1
 1481              	.LVL217:
 220:Source\mbedtls_open\library/md5.c ****     P( A, B, C, D, 12,  6, 0x655B59C3 );
 1482              		.loc 1 220 0
 1483 0818 EB43     		mvns	r3, r5
 1484 081a 0B43     		orrs	r3, r1
 1485 081c 6340     		eors	r3, r4
 1486 081e 0B9F     		ldr	r7, [sp, #44]
 1487 0820 BC46     		mov	ip, r7
 1488 0822 6344     		add	r3, r3, ip
 1489 0824 D218     		adds	r2, r2, r3
 1490              	.LVL218:
ARM GAS  C:\Users\Phuong\AppData\Local\Temp\ccYkRU5p.s 			page 31


 1491 0826 634B     		ldr	r3, .L13+64
 1492 0828 9C46     		mov	ip, r3
 1493 082a 6244     		add	r2, r2, ip
 1494              	.LVL219:
 1495 082c F241     		rors	r2, r2, r6
 1496              	.LVL220:
 1497 082e 8A18     		adds	r2, r1, r2
 1498              	.LVL221:
 221:Source\mbedtls_open\library/md5.c ****     P( D, A, B, C,  3, 10, 0x8F0CCC92 );
 1499              		.loc 1 221 0
 1500 0830 E343     		mvns	r3, r4
 1501 0832 1343     		orrs	r3, r2
 1502 0834 4B40     		eors	r3, r1
 1503 0836 029F     		ldr	r7, [sp, #8]
 1504 0838 BC46     		mov	ip, r7
 1505 083a 6344     		add	r3, r3, ip
 1506 083c ED18     		adds	r5, r5, r3
 1507              	.LVL222:
 1508 083e 5E4B     		ldr	r3, .L13+68
 1509 0840 9C46     		mov	ip, r3
 1510 0842 6544     		add	r5, r5, ip
 1511              	.LVL223:
 1512 0844 4346     		mov	r3, r8
 1513 0846 DD41     		rors	r5, r5, r3
 1514              	.LVL224:
 1515 0848 5519     		adds	r5, r2, r5
 1516              	.LVL225:
 222:Source\mbedtls_open\library/md5.c ****     P( C, D, A, B, 10, 15, 0xFFEFF47D );
 1517              		.loc 1 222 0
 1518 084a CB43     		mvns	r3, r1
 1519 084c 2B43     		orrs	r3, r5
 1520 084e 5340     		eors	r3, r2
 1521 0850 099F     		ldr	r7, [sp, #36]
 1522 0852 BC46     		mov	ip, r7
 1523 0854 6344     		add	r3, r3, ip
 1524 0856 E418     		adds	r4, r4, r3
 1525              	.LVL226:
 1526 0858 584B     		ldr	r3, .L13+72
 1527 085a 9C46     		mov	ip, r3
 1528 085c 6444     		add	r4, r4, ip
 1529              	.LVL227:
 1530 085e 4B46     		mov	r3, r9
 1531 0860 DC41     		rors	r4, r4, r3
 1532              	.LVL228:
 1533 0862 2C19     		adds	r4, r5, r4
 1534              	.LVL229:
 223:Source\mbedtls_open\library/md5.c ****     P( B, C, D, A,  1, 21, 0x85845DD1 );
 1535              		.loc 1 223 0
 1536 0864 D343     		mvns	r3, r2
 1537 0866 2343     		orrs	r3, r4
 1538 0868 6B40     		eors	r3, r5
 1539 086a 009F     		ldr	r7, [sp]
 1540 086c BC46     		mov	ip, r7
 1541 086e 6344     		add	r3, r3, ip
 1542 0870 C918     		adds	r1, r1, r3
 1543              	.LVL230:
 1544 0872 534B     		ldr	r3, .L13+76
ARM GAS  C:\Users\Phuong\AppData\Local\Temp\ccYkRU5p.s 			page 32


 1545 0874 9C46     		mov	ip, r3
 1546 0876 6144     		add	r1, r1, ip
 1547              	.LVL231:
 1548 0878 5346     		mov	r3, r10
 1549 087a D941     		rors	r1, r1, r3
 1550              	.LVL232:
 1551 087c 6118     		adds	r1, r4, r1
 1552              	.LVL233:
 224:Source\mbedtls_open\library/md5.c ****     P( A, B, C, D,  8,  6, 0x6FA87E4F );
 1553              		.loc 1 224 0
 1554 087e EB43     		mvns	r3, r5
 1555 0880 0B43     		orrs	r3, r1
 1556 0882 6340     		eors	r3, r4
 1557 0884 079F     		ldr	r7, [sp, #28]
 1558 0886 BC46     		mov	ip, r7
 1559 0888 6344     		add	r3, r3, ip
 1560 088a D218     		adds	r2, r2, r3
 1561              	.LVL234:
 1562 088c 4D4B     		ldr	r3, .L13+80
 1563 088e 9C46     		mov	ip, r3
 1564 0890 6244     		add	r2, r2, ip
 1565              	.LVL235:
 1566 0892 F241     		rors	r2, r2, r6
 1567              	.LVL236:
 1568 0894 8A18     		adds	r2, r1, r2
 1569              	.LVL237:
 225:Source\mbedtls_open\library/md5.c ****     P( D, A, B, C, 15, 10, 0xFE2CE6E0 );
 1570              		.loc 1 225 0
 1571 0896 E343     		mvns	r3, r4
 1572 0898 1343     		orrs	r3, r2
 1573 089a 4B40     		eors	r3, r1
 1574 089c 5B44     		add	r3, r3, fp
 1575 089e ED18     		adds	r5, r5, r3
 1576              	.LVL238:
 1577 08a0 494B     		ldr	r3, .L13+84
 1578 08a2 9C46     		mov	ip, r3
 1579 08a4 6544     		add	r5, r5, ip
 1580              	.LVL239:
 1581 08a6 4346     		mov	r3, r8
 1582 08a8 DD41     		rors	r5, r5, r3
 1583              	.LVL240:
 1584 08aa 5519     		adds	r5, r2, r5
 1585              	.LVL241:
 226:Source\mbedtls_open\library/md5.c ****     P( C, D, A, B,  6, 15, 0xA3014314 );
 1586              		.loc 1 226 0
 1587 08ac CB43     		mvns	r3, r1
 1588 08ae 2B43     		orrs	r3, r5
 1589 08b0 5340     		eors	r3, r2
 1590 08b2 059F     		ldr	r7, [sp, #20]
 1591 08b4 BC46     		mov	ip, r7
 1592 08b6 6344     		add	r3, r3, ip
 1593 08b8 E418     		adds	r4, r4, r3
 1594              	.LVL242:
 1595 08ba 444B     		ldr	r3, .L13+88
 1596 08bc 9C46     		mov	ip, r3
 1597 08be 6444     		add	r4, r4, ip
 1598              	.LVL243:
ARM GAS  C:\Users\Phuong\AppData\Local\Temp\ccYkRU5p.s 			page 33


 1599 08c0 4B46     		mov	r3, r9
 1600 08c2 DC41     		rors	r4, r4, r3
 1601              	.LVL244:
 1602 08c4 2C19     		adds	r4, r5, r4
 1603              	.LVL245:
 227:Source\mbedtls_open\library/md5.c ****     P( B, C, D, A, 13, 21, 0x4E0811A1 );
 1604              		.loc 1 227 0
 1605 08c6 D343     		mvns	r3, r2
 1606 08c8 2343     		orrs	r3, r4
 1607 08ca 6B40     		eors	r3, r5
 1608 08cc 0C9F     		ldr	r7, [sp, #48]
 1609 08ce BC46     		mov	ip, r7
 1610 08d0 6344     		add	r3, r3, ip
 1611 08d2 C918     		adds	r1, r1, r3
 1612              	.LVL246:
 1613 08d4 3E4B     		ldr	r3, .L13+92
 1614 08d6 9C46     		mov	ip, r3
 1615 08d8 6144     		add	r1, r1, ip
 1616              	.LVL247:
 1617 08da 5346     		mov	r3, r10
 1618 08dc D941     		rors	r1, r1, r3
 1619              	.LVL248:
 1620 08de 6118     		adds	r1, r4, r1
 1621              	.LVL249:
 228:Source\mbedtls_open\library/md5.c ****     P( A, B, C, D,  4,  6, 0xF7537E82 );
 1622              		.loc 1 228 0
 1623 08e0 EB43     		mvns	r3, r5
 1624 08e2 0B43     		orrs	r3, r1
 1625 08e4 6340     		eors	r3, r4
 1626 08e6 039F     		ldr	r7, [sp, #12]
 1627 08e8 BC46     		mov	ip, r7
 1628 08ea 6344     		add	r3, r3, ip
 1629 08ec D218     		adds	r2, r2, r3
 1630              	.LVL250:
 1631 08ee 394B     		ldr	r3, .L13+96
 1632 08f0 9C46     		mov	ip, r3
 1633 08f2 6244     		add	r2, r2, ip
 1634              	.LVL251:
 1635 08f4 F241     		rors	r2, r2, r6
 1636              	.LVL252:
 1637 08f6 8A18     		adds	r2, r1, r2
 1638              	.LVL253:
 229:Source\mbedtls_open\library/md5.c ****     P( D, A, B, C, 11, 10, 0xBD3AF235 );
 1639              		.loc 1 229 0
 1640 08f8 E643     		mvns	r6, r4
 1641 08fa 1643     		orrs	r6, r2
 1642 08fc 4E40     		eors	r6, r1
 1643 08fe 0A9B     		ldr	r3, [sp, #40]
 1644 0900 9C46     		mov	ip, r3
 1645 0902 6644     		add	r6, r6, ip
 1646 0904 AE19     		adds	r6, r5, r6
 1647 0906 344B     		ldr	r3, .L13+100
 1648 0908 9C46     		mov	ip, r3
 1649 090a 6644     		add	r6, r6, ip
 1650              	.LVL254:
 1651 090c 4346     		mov	r3, r8
 1652 090e DE41     		rors	r6, r6, r3
ARM GAS  C:\Users\Phuong\AppData\Local\Temp\ccYkRU5p.s 			page 34


 1653              	.LVL255:
 1654 0910 9619     		adds	r6, r2, r6
 1655              	.LVL256:
 230:Source\mbedtls_open\library/md5.c ****     P( C, D, A, B,  2, 15, 0x2AD7D2BB );
 1656              		.loc 1 230 0
 1657 0912 CB43     		mvns	r3, r1
 1658 0914 3343     		orrs	r3, r6
 1659 0916 5340     		eors	r3, r2
 1660 0918 019D     		ldr	r5, [sp, #4]
 1661 091a AC46     		mov	ip, r5
 1662 091c 6344     		add	r3, r3, ip
 1663 091e E418     		adds	r4, r4, r3
 1664              	.LVL257:
 1665 0920 2E4B     		ldr	r3, .L13+104
 1666 0922 9C46     		mov	ip, r3
 1667 0924 6444     		add	r4, r4, ip
 1668              	.LVL258:
 1669 0926 4B46     		mov	r3, r9
 1670 0928 DC41     		rors	r4, r4, r3
 1671              	.LVL259:
 1672 092a 3419     		adds	r4, r6, r4
 1673              	.LVL260:
 231:Source\mbedtls_open\library/md5.c ****     P( B, C, D, A,  9, 21, 0xEB86D391 );
 1674              		.loc 1 231 0
 1675 092c D343     		mvns	r3, r2
 1676 092e 2343     		orrs	r3, r4
 1677 0930 7340     		eors	r3, r6
 1678 0932 089F     		ldr	r7, [sp, #32]
 1679 0934 BC46     		mov	ip, r7
 1680 0936 6344     		add	r3, r3, ip
 1681 0938 C918     		adds	r1, r1, r3
 1682              	.LVL261:
 1683 093a 294B     		ldr	r3, .L13+108
 1684 093c 9C46     		mov	ip, r3
 1685 093e 6144     		add	r1, r1, ip
 1686              	.LVL262:
 1687 0940 5346     		mov	r3, r10
 1688 0942 D941     		rors	r1, r1, r3
 1689              	.LVL263:
 1690 0944 6118     		adds	r1, r4, r1
 1691              	.LVL264:
 232:Source\mbedtls_open\library/md5.c **** 
 233:Source\mbedtls_open\library/md5.c **** #undef F
 234:Source\mbedtls_open\library/md5.c **** 
 235:Source\mbedtls_open\library/md5.c ****     ctx->state[0] += A;
 1692              		.loc 1 235 0
 1693 0946 8368     		ldr	r3, [r0, #8]
 1694 0948 9C46     		mov	ip, r3
 1695 094a 6244     		add	r2, r2, ip
 1696              	.LVL265:
 1697 094c 8260     		str	r2, [r0, #8]
 236:Source\mbedtls_open\library/md5.c ****     ctx->state[1] += B;
 1698              		.loc 1 236 0
 1699 094e 0F9B     		ldr	r3, [sp, #60]
 1700 0950 9C46     		mov	ip, r3
 1701 0952 6144     		add	r1, r1, ip
 1702              	.LVL266:
ARM GAS  C:\Users\Phuong\AppData\Local\Temp\ccYkRU5p.s 			page 35


 1703 0954 C160     		str	r1, [r0, #12]
 237:Source\mbedtls_open\library/md5.c ****     ctx->state[2] += C;
 1704              		.loc 1 237 0
 1705 0956 0369     		ldr	r3, [r0, #16]
 1706 0958 9C46     		mov	ip, r3
 1707 095a 6444     		add	r4, r4, ip
 1708              	.LVL267:
 1709 095c 0461     		str	r4, [r0, #16]
 238:Source\mbedtls_open\library/md5.c ****     ctx->state[3] += D;
 1710              		.loc 1 238 0
 1711 095e 4369     		ldr	r3, [r0, #20]
 1712 0960 9F19     		adds	r7, r3, r6
 1713 0962 4761     		str	r7, [r0, #20]
 239:Source\mbedtls_open\library/md5.c **** 
 240:Source\mbedtls_open\library/md5.c ****     return( 0 );
 241:Source\mbedtls_open\library/md5.c **** }
 1714              		.loc 1 241 0
 1715 0964 0020     		movs	r0, #0
 1716              	.LVL268:
 1717 0966 11B0     		add	sp, sp, #68
 1718              		@ sp needed
 1719              	.LVL269:
 1720 0968 3CBC     		pop	{r2, r3, r4, r5}
 1721 096a 9046     		mov	r8, r2
 1722 096c 9946     		mov	r9, r3
 1723 096e A246     		mov	r10, r4
 1724 0970 AB46     		mov	fp, r5
 1725 0972 F0BD     		pop	{r4, r5, r6, r7, pc}
 1726              	.L14:
 1727              		.align	2
 1728              	.L13:
 1729 0974 44EABEA4 		.word	-1530992060
 1730 0978 A9CFDE4B 		.word	1272893353
 1731 097c 604BBBF6 		.word	-155497632
 1732 0980 70BCBFBE 		.word	-1094730640
 1733 0984 C67E9B28 		.word	681279174
 1734 0988 FA27A1EA 		.word	-358537222
 1735 098c 8530EFD4 		.word	-722521979
 1736 0990 051D8804 		.word	76029189
 1737 0994 39D0D4D9 		.word	-640364487
 1738 0998 E599DBE6 		.word	-421815835
 1739 099c F87CA21F 		.word	530742520
 1740 09a0 6556ACC4 		.word	-995338651
 1741 09a4 442229F4 		.word	-198630844
 1742 09a8 97FF2A43 		.word	1126891415
 1743 09ac A72394AB 		.word	-1416354905
 1744 09b0 39A093FC 		.word	-57434055
 1745 09b4 C3595B65 		.word	1700485571
 1746 09b8 92CC0C8F 		.word	-1894986606
 1747 09bc 7DF4EFFF 		.word	-1051523
 1748 09c0 D15D8485 		.word	-2054922799
 1749 09c4 4F7EA86F 		.word	1873313359
 1750 09c8 E0E62CFE 		.word	-30611744
 1751 09cc 144301A3 		.word	-1560198380
 1752 09d0 A111084E 		.word	1309151649
 1753 09d4 827E53F7 		.word	-145523070
 1754 09d8 35F23ABD 		.word	-1120210379
ARM GAS  C:\Users\Phuong\AppData\Local\Temp\ccYkRU5p.s 			page 36


 1755 09dc BBD2D72A 		.word	718787259
 1756 09e0 91D386EB 		.word	-343485551
 1757              		.cfi_endproc
 1758              	.LFE6:
 1759              		.size	mbedtls_internal_md5_process, .-mbedtls_internal_md5_process
 1760              		.section	.text.mbedtls_md5_process,"ax",%progbits
 1761              		.align	2
 1762              		.global	mbedtls_md5_process
 1763              		.code	16
 1764              		.thumb_func
 1765              		.type	mbedtls_md5_process, %function
 1766              	mbedtls_md5_process:
 1767              	.LFB7:
 242:Source\mbedtls_open\library/md5.c **** 
 243:Source\mbedtls_open\library/md5.c **** #if !defined(MBEDTLS_DEPRECATED_REMOVED)
 244:Source\mbedtls_open\library/md5.c **** void mbedtls_md5_process( mbedtls_md5_context *ctx,
 245:Source\mbedtls_open\library/md5.c ****                           const unsigned char data[64] )
 246:Source\mbedtls_open\library/md5.c **** {
 1768              		.loc 1 246 0
 1769              		.cfi_startproc
 1770              		@ args = 0, pretend = 0, frame = 0
 1771              		@ frame_needed = 0, uses_anonymous_args = 0
 1772              	.LVL270:
 1773 0000 10B5     		push	{r4, lr}
 1774              		.cfi_def_cfa_offset 8
 1775              		.cfi_offset 4, -8
 1776              		.cfi_offset 14, -4
 247:Source\mbedtls_open\library/md5.c ****     mbedtls_internal_md5_process( ctx, data );
 1777              		.loc 1 247 0
 1778 0002 FFF7FEFF 		bl	mbedtls_internal_md5_process
 1779              	.LVL271:
 248:Source\mbedtls_open\library/md5.c **** }
 1780              		.loc 1 248 0
 1781              		@ sp needed
 1782 0006 10BD     		pop	{r4, pc}
 1783              		.cfi_endproc
 1784              	.LFE7:
 1785              		.size	mbedtls_md5_process, .-mbedtls_md5_process
 1786              		.section	.text.mbedtls_md5_update_ret,"ax",%progbits
 1787              		.align	2
 1788              		.global	mbedtls_md5_update_ret
 1789              		.code	16
 1790              		.thumb_func
 1791              		.type	mbedtls_md5_update_ret, %function
 1792              	mbedtls_md5_update_ret:
 1793              	.LFB8:
 249:Source\mbedtls_open\library/md5.c **** #endif
 250:Source\mbedtls_open\library/md5.c **** #endif /* !MBEDTLS_MD5_PROCESS_ALT */
 251:Source\mbedtls_open\library/md5.c **** 
 252:Source\mbedtls_open\library/md5.c **** /*
 253:Source\mbedtls_open\library/md5.c ****  * MD5 process buffer
 254:Source\mbedtls_open\library/md5.c ****  */
 255:Source\mbedtls_open\library/md5.c **** int mbedtls_md5_update_ret( mbedtls_md5_context *ctx,
 256:Source\mbedtls_open\library/md5.c ****                             const unsigned char *input,
 257:Source\mbedtls_open\library/md5.c ****                             size_t ilen )
 258:Source\mbedtls_open\library/md5.c **** {
 1794              		.loc 1 258 0
ARM GAS  C:\Users\Phuong\AppData\Local\Temp\ccYkRU5p.s 			page 37


 1795              		.cfi_startproc
 1796              		@ args = 0, pretend = 0, frame = 0
 1797              		@ frame_needed = 0, uses_anonymous_args = 0
 1798              	.LVL272:
 1799 0000 F8B5     		push	{r3, r4, r5, r6, r7, lr}
 1800              		.cfi_def_cfa_offset 24
 1801              		.cfi_offset 3, -24
 1802              		.cfi_offset 4, -20
 1803              		.cfi_offset 5, -16
 1804              		.cfi_offset 6, -12
 1805              		.cfi_offset 7, -8
 1806              		.cfi_offset 14, -4
 1807 0002 4F46     		mov	r7, r9
 1808 0004 4646     		mov	r6, r8
 1809 0006 C0B4     		push	{r6, r7}
 1810              		.cfi_def_cfa_offset 32
 1811              		.cfi_offset 8, -32
 1812              		.cfi_offset 9, -28
 1813 0008 0600     		movs	r6, r0
 1814 000a 0D00     		movs	r5, r1
 1815 000c 141E     		subs	r4, r2, #0
 259:Source\mbedtls_open\library/md5.c ****     int ret;
 260:Source\mbedtls_open\library/md5.c ****     size_t fill;
 261:Source\mbedtls_open\library/md5.c ****     uint32_t left;
 262:Source\mbedtls_open\library/md5.c **** 
 263:Source\mbedtls_open\library/md5.c ****     if( ilen == 0 )
 1816              		.loc 1 263 0
 1817 000e 38D0     		beq	.L22
 264:Source\mbedtls_open\library/md5.c ****         return( 0 );
 265:Source\mbedtls_open\library/md5.c **** 
 266:Source\mbedtls_open\library/md5.c ****     left = ctx->total[0] & 0x3F;
 1818              		.loc 1 266 0
 1819 0010 0368     		ldr	r3, [r0]
 1820 0012 3F27     		movs	r7, #63
 1821 0014 1F40     		ands	r7, r3
 1822              	.LVL273:
 267:Source\mbedtls_open\library/md5.c ****     fill = 64 - left;
 1823              		.loc 1 267 0
 1824 0016 4022     		movs	r2, #64
 1825              	.LVL274:
 1826 0018 D21B     		subs	r2, r2, r7
 1827 001a 9046     		mov	r8, r2
 1828              	.LVL275:
 268:Source\mbedtls_open\library/md5.c **** 
 269:Source\mbedtls_open\library/md5.c ****     ctx->total[0] += (uint32_t) ilen;
 1829              		.loc 1 269 0
 1830 001c E318     		adds	r3, r4, r3
 1831 001e 0360     		str	r3, [r0]
 270:Source\mbedtls_open\library/md5.c ****     ctx->total[0] &= 0xFFFFFFFF;
 271:Source\mbedtls_open\library/md5.c **** 
 272:Source\mbedtls_open\library/md5.c ****     if( ctx->total[0] < (uint32_t) ilen )
 1832              		.loc 1 272 0
 1833 0020 9C42     		cmp	r4, r3
 1834 0022 02D9     		bls	.L18
 273:Source\mbedtls_open\library/md5.c ****         ctx->total[1]++;
 1835              		.loc 1 273 0
 1836 0024 4368     		ldr	r3, [r0, #4]
ARM GAS  C:\Users\Phuong\AppData\Local\Temp\ccYkRU5p.s 			page 38


 1837 0026 0133     		adds	r3, r3, #1
 1838 0028 4360     		str	r3, [r0, #4]
 1839              	.L18:
 274:Source\mbedtls_open\library/md5.c **** 
 275:Source\mbedtls_open\library/md5.c ****     if( left && ilen >= fill )
 1840              		.loc 1 275 0
 1841 002a 002F     		cmp	r7, #0
 1842 002c 1DD0     		beq	.L20
 1843              		.loc 1 275 0 is_stmt 0 discriminator 1
 1844 002e 4445     		cmp	r4, r8
 1845 0030 1BD3     		bcc	.L20
 276:Source\mbedtls_open\library/md5.c ****     {
 277:Source\mbedtls_open\library/md5.c ****         memcpy( (void *) (ctx->buffer + left), input, fill );
 1846              		.loc 1 277 0 is_stmt 1
 1847 0032 1823     		movs	r3, #24
 1848 0034 9946     		mov	r9, r3
 1849 0036 B144     		add	r9, r9, r6
 1850 0038 3800     		movs	r0, r7
 1851              	.LVL276:
 1852 003a 4844     		add	r0, r0, r9
 1853 003c 4246     		mov	r2, r8
 1854              	.LVL277:
 1855 003e 2900     		movs	r1, r5
 1856              	.LVL278:
 1857 0040 FFF7FEFF 		bl	memcpy
 1858              	.LVL279:
 278:Source\mbedtls_open\library/md5.c ****         if( ( ret = mbedtls_internal_md5_process( ctx, ctx->buffer ) ) != 0 )
 1859              		.loc 1 278 0
 1860 0044 4946     		mov	r1, r9
 1861 0046 3000     		movs	r0, r6
 1862 0048 FFF7FEFF 		bl	mbedtls_internal_md5_process
 1863              	.LVL280:
 1864 004c 0028     		cmp	r0, #0
 1865 004e 1BD1     		bne	.L17
 279:Source\mbedtls_open\library/md5.c ****             return( ret );
 280:Source\mbedtls_open\library/md5.c **** 
 281:Source\mbedtls_open\library/md5.c ****         input += fill;
 1866              		.loc 1 281 0
 1867 0050 4544     		add	r5, r5, r8
 1868              	.LVL281:
 282:Source\mbedtls_open\library/md5.c ****         ilen  -= fill;
 1869              		.loc 1 282 0
 1870 0052 4346     		mov	r3, r8
 1871 0054 E41A     		subs	r4, r4, r3
 1872              	.LVL282:
 283:Source\mbedtls_open\library/md5.c ****         left = 0;
 1873              		.loc 1 283 0
 1874 0056 0027     		movs	r7, #0
 1875 0058 07E0     		b	.L20
 1876              	.LVL283:
 1877              	.L21:
 284:Source\mbedtls_open\library/md5.c ****     }
 285:Source\mbedtls_open\library/md5.c **** 
 286:Source\mbedtls_open\library/md5.c ****     while( ilen >= 64 )
 287:Source\mbedtls_open\library/md5.c ****     {
 288:Source\mbedtls_open\library/md5.c ****         if( ( ret = mbedtls_internal_md5_process( ctx, input ) ) != 0 )
 1878              		.loc 1 288 0
ARM GAS  C:\Users\Phuong\AppData\Local\Temp\ccYkRU5p.s 			page 39


 1879 005a 2900     		movs	r1, r5
 1880 005c 3000     		movs	r0, r6
 1881 005e FFF7FEFF 		bl	mbedtls_internal_md5_process
 1882              	.LVL284:
 1883 0062 0028     		cmp	r0, #0
 1884 0064 10D1     		bne	.L17
 289:Source\mbedtls_open\library/md5.c ****             return( ret );
 290:Source\mbedtls_open\library/md5.c **** 
 291:Source\mbedtls_open\library/md5.c ****         input += 64;
 1885              		.loc 1 291 0
 1886 0066 4035     		adds	r5, r5, #64
 1887              	.LVL285:
 292:Source\mbedtls_open\library/md5.c ****         ilen  -= 64;
 1888              		.loc 1 292 0
 1889 0068 403C     		subs	r4, r4, #64
 1890              	.LVL286:
 1891              	.L20:
 286:Source\mbedtls_open\library/md5.c ****     {
 1892              		.loc 1 286 0
 1893 006a 3F2C     		cmp	r4, #63
 1894 006c F5D8     		bhi	.L21
 293:Source\mbedtls_open\library/md5.c ****     }
 294:Source\mbedtls_open\library/md5.c **** 
 295:Source\mbedtls_open\library/md5.c ****     if( ilen > 0 )
 1895              		.loc 1 295 0
 1896 006e 002C     		cmp	r4, #0
 1897 0070 09D0     		beq	.L25
 296:Source\mbedtls_open\library/md5.c ****     {
 297:Source\mbedtls_open\library/md5.c ****         memcpy( (void *) (ctx->buffer + left), input, ilen );
 1898              		.loc 1 297 0
 1899 0072 1836     		adds	r6, r6, #24
 1900              	.LVL287:
 1901 0074 F019     		adds	r0, r6, r7
 1902 0076 2200     		movs	r2, r4
 1903 0078 2900     		movs	r1, r5
 1904 007a FFF7FEFF 		bl	memcpy
 1905              	.LVL288:
 298:Source\mbedtls_open\library/md5.c ****     }
 299:Source\mbedtls_open\library/md5.c **** 
 300:Source\mbedtls_open\library/md5.c ****     return( 0 );
 1906              		.loc 1 300 0
 1907 007e 0020     		movs	r0, #0
 1908 0080 02E0     		b	.L17
 1909              	.LVL289:
 1910              	.L22:
 264:Source\mbedtls_open\library/md5.c **** 
 1911              		.loc 1 264 0
 1912 0082 0020     		movs	r0, #0
 1913              	.LVL290:
 1914 0084 00E0     		b	.L17
 1915              	.LVL291:
 1916              	.L25:
 1917              		.loc 1 300 0
 1918 0086 0020     		movs	r0, #0
 1919              	.LVL292:
 1920              	.L17:
 301:Source\mbedtls_open\library/md5.c **** }
ARM GAS  C:\Users\Phuong\AppData\Local\Temp\ccYkRU5p.s 			page 40


 1921              		.loc 1 301 0
 1922              		@ sp needed
 1923              	.LVL293:
 1924              	.LVL294:
 1925 0088 0CBC     		pop	{r2, r3}
 1926 008a 9046     		mov	r8, r2
 1927 008c 9946     		mov	r9, r3
 1928 008e F8BD     		pop	{r3, r4, r5, r6, r7, pc}
 1929              		.cfi_endproc
 1930              	.LFE8:
 1931              		.size	mbedtls_md5_update_ret, .-mbedtls_md5_update_ret
 1932              		.section	.text.mbedtls_md5_update,"ax",%progbits
 1933              		.align	2
 1934              		.global	mbedtls_md5_update
 1935              		.code	16
 1936              		.thumb_func
 1937              		.type	mbedtls_md5_update, %function
 1938              	mbedtls_md5_update:
 1939              	.LFB9:
 302:Source\mbedtls_open\library/md5.c **** 
 303:Source\mbedtls_open\library/md5.c **** #if !defined(MBEDTLS_DEPRECATED_REMOVED)
 304:Source\mbedtls_open\library/md5.c **** void mbedtls_md5_update( mbedtls_md5_context *ctx,
 305:Source\mbedtls_open\library/md5.c ****                          const unsigned char *input,
 306:Source\mbedtls_open\library/md5.c ****                          size_t ilen )
 307:Source\mbedtls_open\library/md5.c **** {
 1940              		.loc 1 307 0
 1941              		.cfi_startproc
 1942              		@ args = 0, pretend = 0, frame = 0
 1943              		@ frame_needed = 0, uses_anonymous_args = 0
 1944              	.LVL295:
 1945 0000 10B5     		push	{r4, lr}
 1946              		.cfi_def_cfa_offset 8
 1947              		.cfi_offset 4, -8
 1948              		.cfi_offset 14, -4
 308:Source\mbedtls_open\library/md5.c ****     mbedtls_md5_update_ret( ctx, input, ilen );
 1949              		.loc 1 308 0
 1950 0002 FFF7FEFF 		bl	mbedtls_md5_update_ret
 1951              	.LVL296:
 309:Source\mbedtls_open\library/md5.c **** }
 1952              		.loc 1 309 0
 1953              		@ sp needed
 1954 0006 10BD     		pop	{r4, pc}
 1955              		.cfi_endproc
 1956              	.LFE9:
 1957              		.size	mbedtls_md5_update, .-mbedtls_md5_update
 1958              		.section	.text.mbedtls_md5_finish_ret,"ax",%progbits
 1959              		.align	2
 1960              		.global	mbedtls_md5_finish_ret
 1961              		.code	16
 1962              		.thumb_func
 1963              		.type	mbedtls_md5_finish_ret, %function
 1964              	mbedtls_md5_finish_ret:
 1965              	.LFB10:
 310:Source\mbedtls_open\library/md5.c **** #endif
 311:Source\mbedtls_open\library/md5.c **** 
 312:Source\mbedtls_open\library/md5.c **** /*
 313:Source\mbedtls_open\library/md5.c ****  * MD5 final digest
ARM GAS  C:\Users\Phuong\AppData\Local\Temp\ccYkRU5p.s 			page 41


 314:Source\mbedtls_open\library/md5.c ****  */
 315:Source\mbedtls_open\library/md5.c **** int mbedtls_md5_finish_ret( mbedtls_md5_context *ctx,
 316:Source\mbedtls_open\library/md5.c ****                             unsigned char output[16] )
 317:Source\mbedtls_open\library/md5.c **** {
 1966              		.loc 1 317 0
 1967              		.cfi_startproc
 1968              		@ args = 0, pretend = 0, frame = 0
 1969              		@ frame_needed = 0, uses_anonymous_args = 0
 1970              	.LVL297:
 1971 0000 70B5     		push	{r4, r5, r6, lr}
 1972              		.cfi_def_cfa_offset 16
 1973              		.cfi_offset 4, -16
 1974              		.cfi_offset 5, -12
 1975              		.cfi_offset 6, -8
 1976              		.cfi_offset 14, -4
 1977 0002 0400     		movs	r4, r0
 1978 0004 0D00     		movs	r5, r1
 318:Source\mbedtls_open\library/md5.c ****     int ret;
 319:Source\mbedtls_open\library/md5.c ****     uint32_t used;
 320:Source\mbedtls_open\library/md5.c ****     uint32_t high, low;
 321:Source\mbedtls_open\library/md5.c **** 
 322:Source\mbedtls_open\library/md5.c ****     /*
 323:Source\mbedtls_open\library/md5.c ****      * Add padding: 0x80 then 0x00 until 8 bytes remain for the length
 324:Source\mbedtls_open\library/md5.c ****      */
 325:Source\mbedtls_open\library/md5.c ****     used = ctx->total[0] & 0x3F;
 1979              		.loc 1 325 0
 1980 0006 3F23     		movs	r3, #63
 1981 0008 0268     		ldr	r2, [r0]
 1982 000a 1340     		ands	r3, r2
 1983              	.LVL298:
 326:Source\mbedtls_open\library/md5.c **** 
 327:Source\mbedtls_open\library/md5.c ****     ctx->buffer[used++] = 0x80;
 1984              		.loc 1 327 0
 1985 000c 581C     		adds	r0, r3, #1
 1986              	.LVL299:
 1987 000e E318     		adds	r3, r4, r3
 1988 0010 8022     		movs	r2, #128
 1989 0012 1A76     		strb	r2, [r3, #24]
 328:Source\mbedtls_open\library/md5.c **** 
 329:Source\mbedtls_open\library/md5.c ****     if( used <= 56 )
 1990              		.loc 1 329 0
 1991 0014 3828     		cmp	r0, #56
 1992 0016 08D8     		bhi	.L28
 330:Source\mbedtls_open\library/md5.c ****     {
 331:Source\mbedtls_open\library/md5.c ****         /* Enough room for padding + length in current block */
 332:Source\mbedtls_open\library/md5.c ****         memset( ctx->buffer + used, 0, 56 - used );
 1993              		.loc 1 332 0
 1994 0018 2300     		movs	r3, r4
 1995 001a 1833     		adds	r3, r3, #24
 1996 001c 483A     		subs	r2, r2, #72
 1997 001e 121A     		subs	r2, r2, r0
 1998 0020 1818     		adds	r0, r3, r0
 1999              	.LVL300:
 2000 0022 0021     		movs	r1, #0
 2001              	.LVL301:
 2002 0024 FFF7FEFF 		bl	memset
 2003              	.LVL302:
ARM GAS  C:\Users\Phuong\AppData\Local\Temp\ccYkRU5p.s 			page 42


 2004 0028 12E0     		b	.L29
 2005              	.LVL303:
 2006              	.L28:
 333:Source\mbedtls_open\library/md5.c ****     }
 334:Source\mbedtls_open\library/md5.c ****     else
 335:Source\mbedtls_open\library/md5.c ****     {
 336:Source\mbedtls_open\library/md5.c ****         /* We'll need an extra block */
 337:Source\mbedtls_open\library/md5.c ****         memset( ctx->buffer + used, 0, 64 - used );
 2007              		.loc 1 337 0
 2008 002a 2600     		movs	r6, r4
 2009 002c 1836     		adds	r6, r6, #24
 2010 002e 4022     		movs	r2, #64
 2011 0030 121A     		subs	r2, r2, r0
 2012 0032 3018     		adds	r0, r6, r0
 2013              	.LVL304:
 2014 0034 0021     		movs	r1, #0
 2015              	.LVL305:
 2016 0036 FFF7FEFF 		bl	memset
 2017              	.LVL306:
 338:Source\mbedtls_open\library/md5.c **** 
 339:Source\mbedtls_open\library/md5.c ****         if( ( ret = mbedtls_internal_md5_process( ctx, ctx->buffer ) ) != 0 )
 2018              		.loc 1 339 0
 2019 003a 3100     		movs	r1, r6
 2020 003c 2000     		movs	r0, r4
 2021 003e FFF7FEFF 		bl	mbedtls_internal_md5_process
 2022              	.LVL307:
 2023 0042 0028     		cmp	r0, #0
 2024 0044 4BD1     		bne	.L30
 340:Source\mbedtls_open\library/md5.c ****             return( ret );
 341:Source\mbedtls_open\library/md5.c **** 
 342:Source\mbedtls_open\library/md5.c ****         memset( ctx->buffer, 0, 56 );
 2025              		.loc 1 342 0
 2026 0046 3822     		movs	r2, #56
 2027 0048 0021     		movs	r1, #0
 2028 004a 3000     		movs	r0, r6
 2029              	.LVL308:
 2030 004c FFF7FEFF 		bl	memset
 2031              	.LVL309:
 2032              	.L29:
 343:Source\mbedtls_open\library/md5.c ****     }
 344:Source\mbedtls_open\library/md5.c **** 
 345:Source\mbedtls_open\library/md5.c ****     /*
 346:Source\mbedtls_open\library/md5.c ****      * Add message length
 347:Source\mbedtls_open\library/md5.c ****      */
 348:Source\mbedtls_open\library/md5.c ****     high = ( ctx->total[0] >> 29 )
 2033              		.loc 1 348 0
 2034 0050 2268     		ldr	r2, [r4]
 2035 0052 510F     		lsrs	r1, r2, #29
 349:Source\mbedtls_open\library/md5.c ****          | ( ctx->total[1] <<  3 );
 2036              		.loc 1 349 0
 2037 0054 6368     		ldr	r3, [r4, #4]
 2038 0056 DB00     		lsls	r3, r3, #3
 348:Source\mbedtls_open\library/md5.c ****          | ( ctx->total[1] <<  3 );
 2039              		.loc 1 348 0
 2040 0058 0B43     		orrs	r3, r1
 2041              	.LVL310:
 350:Source\mbedtls_open\library/md5.c ****     low  = ( ctx->total[0] <<  3 );
ARM GAS  C:\Users\Phuong\AppData\Local\Temp\ccYkRU5p.s 			page 43


 2042              		.loc 1 350 0
 2043 005a D200     		lsls	r2, r2, #3
 2044              	.LVL311:
 351:Source\mbedtls_open\library/md5.c **** 
 352:Source\mbedtls_open\library/md5.c ****     PUT_UINT32_LE( low,  ctx->buffer, 56 );
 2045              		.loc 1 352 0
 2046 005c 5021     		movs	r1, #80
 2047 005e 6254     		strb	r2, [r4, r1]
 2048 0060 100A     		lsrs	r0, r2, #8
 2049 0062 0131     		adds	r1, r1, #1
 2050 0064 6054     		strb	r0, [r4, r1]
 2051 0066 100C     		lsrs	r0, r2, #16
 2052 0068 0131     		adds	r1, r1, #1
 2053 006a 6054     		strb	r0, [r4, r1]
 2054 006c 120E     		lsrs	r2, r2, #24
 2055              	.LVL312:
 2056 006e 0131     		adds	r1, r1, #1
 2057 0070 6254     		strb	r2, [r4, r1]
 353:Source\mbedtls_open\library/md5.c ****     PUT_UINT32_LE( high, ctx->buffer, 60 );
 2058              		.loc 1 353 0
 2059 0072 5422     		movs	r2, #84
 2060 0074 A354     		strb	r3, [r4, r2]
 2061 0076 190A     		lsrs	r1, r3, #8
 2062 0078 0132     		adds	r2, r2, #1
 2063 007a A154     		strb	r1, [r4, r2]
 2064 007c 190C     		lsrs	r1, r3, #16
 2065 007e 0132     		adds	r2, r2, #1
 2066 0080 A154     		strb	r1, [r4, r2]
 2067 0082 1B0E     		lsrs	r3, r3, #24
 2068              	.LVL313:
 2069 0084 0132     		adds	r2, r2, #1
 2070 0086 A354     		strb	r3, [r4, r2]
 354:Source\mbedtls_open\library/md5.c **** 
 355:Source\mbedtls_open\library/md5.c ****     if( ( ret = mbedtls_internal_md5_process( ctx, ctx->buffer ) ) != 0 )
 2071              		.loc 1 355 0
 2072 0088 2100     		movs	r1, r4
 2073 008a 1831     		adds	r1, r1, #24
 2074 008c 2000     		movs	r0, r4
 2075 008e FFF7FEFF 		bl	mbedtls_internal_md5_process
 2076              	.LVL314:
 2077 0092 0028     		cmp	r0, #0
 2078 0094 23D1     		bne	.L30
 356:Source\mbedtls_open\library/md5.c ****         return( ret );
 357:Source\mbedtls_open\library/md5.c **** 
 358:Source\mbedtls_open\library/md5.c ****     /*
 359:Source\mbedtls_open\library/md5.c ****      * Output final state
 360:Source\mbedtls_open\library/md5.c ****      */
 361:Source\mbedtls_open\library/md5.c ****     PUT_UINT32_LE( ctx->state[0], output,  0 );
 2079              		.loc 1 361 0
 2080 0096 237A     		ldrb	r3, [r4, #8]
 2081 0098 2B70     		strb	r3, [r5]
 2082 009a A368     		ldr	r3, [r4, #8]
 2083 009c 1B0A     		lsrs	r3, r3, #8
 2084 009e 6B70     		strb	r3, [r5, #1]
 2085 00a0 A37A     		ldrb	r3, [r4, #10]
 2086 00a2 AB70     		strb	r3, [r5, #2]
 2087 00a4 E37A     		ldrb	r3, [r4, #11]
ARM GAS  C:\Users\Phuong\AppData\Local\Temp\ccYkRU5p.s 			page 44


 2088 00a6 EB70     		strb	r3, [r5, #3]
 362:Source\mbedtls_open\library/md5.c ****     PUT_UINT32_LE( ctx->state[1], output,  4 );
 2089              		.loc 1 362 0
 2090 00a8 237B     		ldrb	r3, [r4, #12]
 2091 00aa 2B71     		strb	r3, [r5, #4]
 2092 00ac E368     		ldr	r3, [r4, #12]
 2093 00ae 1B0A     		lsrs	r3, r3, #8
 2094 00b0 6B71     		strb	r3, [r5, #5]
 2095 00b2 A37B     		ldrb	r3, [r4, #14]
 2096 00b4 AB71     		strb	r3, [r5, #6]
 2097 00b6 E37B     		ldrb	r3, [r4, #15]
 2098 00b8 EB71     		strb	r3, [r5, #7]
 363:Source\mbedtls_open\library/md5.c ****     PUT_UINT32_LE( ctx->state[2], output,  8 );
 2099              		.loc 1 363 0
 2100 00ba 237C     		ldrb	r3, [r4, #16]
 2101 00bc 2B72     		strb	r3, [r5, #8]
 2102 00be 2369     		ldr	r3, [r4, #16]
 2103 00c0 1B0A     		lsrs	r3, r3, #8
 2104 00c2 6B72     		strb	r3, [r5, #9]
 2105 00c4 A37C     		ldrb	r3, [r4, #18]
 2106 00c6 AB72     		strb	r3, [r5, #10]
 2107 00c8 E37C     		ldrb	r3, [r4, #19]
 2108 00ca EB72     		strb	r3, [r5, #11]
 364:Source\mbedtls_open\library/md5.c ****     PUT_UINT32_LE( ctx->state[3], output, 12 );
 2109              		.loc 1 364 0
 2110 00cc 237D     		ldrb	r3, [r4, #20]
 2111 00ce 2B73     		strb	r3, [r5, #12]
 2112 00d0 6369     		ldr	r3, [r4, #20]
 2113 00d2 1B0A     		lsrs	r3, r3, #8
 2114 00d4 6B73     		strb	r3, [r5, #13]
 2115 00d6 A37D     		ldrb	r3, [r4, #22]
 2116 00d8 AB73     		strb	r3, [r5, #14]
 2117 00da E37D     		ldrb	r3, [r4, #23]
 2118 00dc EB73     		strb	r3, [r5, #15]
 2119              	.L30:
 365:Source\mbedtls_open\library/md5.c **** 
 366:Source\mbedtls_open\library/md5.c ****     return( 0 );
 367:Source\mbedtls_open\library/md5.c **** }
 2120              		.loc 1 367 0
 2121              		@ sp needed
 2122              	.LVL315:
 2123              	.LVL316:
 2124 00de 70BD     		pop	{r4, r5, r6, pc}
 2125              		.cfi_endproc
 2126              	.LFE10:
 2127              		.size	mbedtls_md5_finish_ret, .-mbedtls_md5_finish_ret
 2128              		.section	.text.mbedtls_md5_finish,"ax",%progbits
 2129              		.align	2
 2130              		.global	mbedtls_md5_finish
 2131              		.code	16
 2132              		.thumb_func
 2133              		.type	mbedtls_md5_finish, %function
 2134              	mbedtls_md5_finish:
 2135              	.LFB11:
 368:Source\mbedtls_open\library/md5.c **** 
 369:Source\mbedtls_open\library/md5.c **** #if !defined(MBEDTLS_DEPRECATED_REMOVED)
 370:Source\mbedtls_open\library/md5.c **** void mbedtls_md5_finish( mbedtls_md5_context *ctx,
ARM GAS  C:\Users\Phuong\AppData\Local\Temp\ccYkRU5p.s 			page 45


 371:Source\mbedtls_open\library/md5.c ****                          unsigned char output[16] )
 372:Source\mbedtls_open\library/md5.c **** {
 2136              		.loc 1 372 0
 2137              		.cfi_startproc
 2138              		@ args = 0, pretend = 0, frame = 0
 2139              		@ frame_needed = 0, uses_anonymous_args = 0
 2140              	.LVL317:
 2141 0000 10B5     		push	{r4, lr}
 2142              		.cfi_def_cfa_offset 8
 2143              		.cfi_offset 4, -8
 2144              		.cfi_offset 14, -4
 373:Source\mbedtls_open\library/md5.c ****     mbedtls_md5_finish_ret( ctx, output );
 2145              		.loc 1 373 0
 2146 0002 FFF7FEFF 		bl	mbedtls_md5_finish_ret
 2147              	.LVL318:
 374:Source\mbedtls_open\library/md5.c **** }
 2148              		.loc 1 374 0
 2149              		@ sp needed
 2150 0006 10BD     		pop	{r4, pc}
 2151              		.cfi_endproc
 2152              	.LFE11:
 2153              		.size	mbedtls_md5_finish, .-mbedtls_md5_finish
 2154              		.section	.text.mbedtls_md5_ret,"ax",%progbits
 2155              		.align	2
 2156              		.global	mbedtls_md5_ret
 2157              		.code	16
 2158              		.thumb_func
 2159              		.type	mbedtls_md5_ret, %function
 2160              	mbedtls_md5_ret:
 2161              	.LFB12:
 375:Source\mbedtls_open\library/md5.c **** #endif
 376:Source\mbedtls_open\library/md5.c **** 
 377:Source\mbedtls_open\library/md5.c **** #endif /* !MBEDTLS_MD5_ALT */
 378:Source\mbedtls_open\library/md5.c **** 
 379:Source\mbedtls_open\library/md5.c **** /*
 380:Source\mbedtls_open\library/md5.c ****  * output = MD5( input buffer )
 381:Source\mbedtls_open\library/md5.c ****  */
 382:Source\mbedtls_open\library/md5.c **** int mbedtls_md5_ret( const unsigned char *input,
 383:Source\mbedtls_open\library/md5.c ****                      size_t ilen,
 384:Source\mbedtls_open\library/md5.c ****                      unsigned char output[16] )
 385:Source\mbedtls_open\library/md5.c **** {
 2162              		.loc 1 385 0
 2163              		.cfi_startproc
 2164              		@ args = 0, pretend = 0, frame = 88
 2165              		@ frame_needed = 0, uses_anonymous_args = 0
 2166              	.LVL319:
 2167 0000 F0B5     		push	{r4, r5, r6, r7, lr}
 2168              		.cfi_def_cfa_offset 20
 2169              		.cfi_offset 4, -20
 2170              		.cfi_offset 5, -16
 2171              		.cfi_offset 6, -12
 2172              		.cfi_offset 7, -8
 2173              		.cfi_offset 14, -4
 2174 0002 97B0     		sub	sp, sp, #92
 2175              		.cfi_def_cfa_offset 112
 2176 0004 0500     		movs	r5, r0
 2177 0006 0E00     		movs	r6, r1
ARM GAS  C:\Users\Phuong\AppData\Local\Temp\ccYkRU5p.s 			page 46


 2178 0008 1700     		movs	r7, r2
 386:Source\mbedtls_open\library/md5.c ****     int ret;
 387:Source\mbedtls_open\library/md5.c ****     mbedtls_md5_context ctx;
 388:Source\mbedtls_open\library/md5.c **** 
 389:Source\mbedtls_open\library/md5.c ****     mbedtls_md5_init( &ctx );
 2179              		.loc 1 389 0
 2180 000a 6846     		mov	r0, sp
 2181              	.LVL320:
 2182 000c FFF7FEFF 		bl	mbedtls_md5_init
 2183              	.LVL321:
 390:Source\mbedtls_open\library/md5.c **** 
 391:Source\mbedtls_open\library/md5.c ****     if( ( ret = mbedtls_md5_starts_ret( &ctx ) ) != 0 )
 2184              		.loc 1 391 0
 2185 0010 6846     		mov	r0, sp
 2186 0012 FFF7FEFF 		bl	mbedtls_md5_starts_ret
 2187              	.LVL322:
 2188 0016 041E     		subs	r4, r0, #0
 2189              	.LVL323:
 2190 0018 0BD1     		bne	.L35
 392:Source\mbedtls_open\library/md5.c ****         goto exit;
 393:Source\mbedtls_open\library/md5.c **** 
 394:Source\mbedtls_open\library/md5.c ****     if( ( ret = mbedtls_md5_update_ret( &ctx, input, ilen ) ) != 0 )
 2191              		.loc 1 394 0
 2192 001a 3200     		movs	r2, r6
 2193 001c 2900     		movs	r1, r5
 2194 001e 6846     		mov	r0, sp
 2195              	.LVL324:
 2196 0020 FFF7FEFF 		bl	mbedtls_md5_update_ret
 2197              	.LVL325:
 2198 0024 041E     		subs	r4, r0, #0
 2199              	.LVL326:
 2200 0026 04D1     		bne	.L35
 395:Source\mbedtls_open\library/md5.c ****         goto exit;
 396:Source\mbedtls_open\library/md5.c **** 
 397:Source\mbedtls_open\library/md5.c ****     if( ( ret = mbedtls_md5_finish_ret( &ctx, output ) ) != 0 )
 2201              		.loc 1 397 0
 2202 0028 3900     		movs	r1, r7
 2203 002a 6846     		mov	r0, sp
 2204              	.LVL327:
 2205 002c FFF7FEFF 		bl	mbedtls_md5_finish_ret
 2206              	.LVL328:
 2207 0030 0400     		movs	r4, r0
 2208              	.LVL329:
 2209              	.L35:
 398:Source\mbedtls_open\library/md5.c ****         goto exit;
 399:Source\mbedtls_open\library/md5.c **** 
 400:Source\mbedtls_open\library/md5.c **** exit:
 401:Source\mbedtls_open\library/md5.c ****     mbedtls_md5_free( &ctx );
 2210              		.loc 1 401 0
 2211 0032 6846     		mov	r0, sp
 2212              	.LVL330:
 2213 0034 FFF7FEFF 		bl	mbedtls_md5_free
 2214              	.LVL331:
 402:Source\mbedtls_open\library/md5.c **** 
 403:Source\mbedtls_open\library/md5.c ****     return( ret );
 404:Source\mbedtls_open\library/md5.c **** }
 2215              		.loc 1 404 0
ARM GAS  C:\Users\Phuong\AppData\Local\Temp\ccYkRU5p.s 			page 47


 2216 0038 2000     		movs	r0, r4
 2217 003a 17B0     		add	sp, sp, #92
 2218              		@ sp needed
 2219              	.LVL332:
 2220              	.LVL333:
 2221              	.LVL334:
 2222              	.LVL335:
 2223 003c F0BD     		pop	{r4, r5, r6, r7, pc}
 2224              		.cfi_endproc
 2225              	.LFE12:
 2226              		.size	mbedtls_md5_ret, .-mbedtls_md5_ret
 2227 003e C046     		.section	.text.mbedtls_md5,"ax",%progbits
 2228              		.align	2
 2229              		.global	mbedtls_md5
 2230              		.code	16
 2231              		.thumb_func
 2232              		.type	mbedtls_md5, %function
 2233              	mbedtls_md5:
 2234              	.LFB13:
 405:Source\mbedtls_open\library/md5.c **** 
 406:Source\mbedtls_open\library/md5.c **** #if !defined(MBEDTLS_DEPRECATED_REMOVED)
 407:Source\mbedtls_open\library/md5.c **** void mbedtls_md5( const unsigned char *input,
 408:Source\mbedtls_open\library/md5.c ****                   size_t ilen,
 409:Source\mbedtls_open\library/md5.c ****                   unsigned char output[16] )
 410:Source\mbedtls_open\library/md5.c **** {
 2235              		.loc 1 410 0
 2236              		.cfi_startproc
 2237              		@ args = 0, pretend = 0, frame = 0
 2238              		@ frame_needed = 0, uses_anonymous_args = 0
 2239              	.LVL336:
 2240 0000 10B5     		push	{r4, lr}
 2241              		.cfi_def_cfa_offset 8
 2242              		.cfi_offset 4, -8
 2243              		.cfi_offset 14, -4
 411:Source\mbedtls_open\library/md5.c ****     mbedtls_md5_ret( input, ilen, output );
 2244              		.loc 1 411 0
 2245 0002 FFF7FEFF 		bl	mbedtls_md5_ret
 2246              	.LVL337:
 412:Source\mbedtls_open\library/md5.c **** }
 2247              		.loc 1 412 0
 2248              		@ sp needed
 2249 0006 10BD     		pop	{r4, pc}
 2250              		.cfi_endproc
 2251              	.LFE13:
 2252              		.size	mbedtls_md5, .-mbedtls_md5
 2253              		.section	.text.mbedtls_md5_self_test,"ax",%progbits
 2254              		.align	2
 2255              		.global	mbedtls_md5_self_test
 2256              		.code	16
 2257              		.thumb_func
 2258              		.type	mbedtls_md5_self_test, %function
 2259              	mbedtls_md5_self_test:
 2260              	.LFB14:
 413:Source\mbedtls_open\library/md5.c **** #endif
 414:Source\mbedtls_open\library/md5.c **** 
 415:Source\mbedtls_open\library/md5.c **** #if defined(MBEDTLS_SELF_TEST)
 416:Source\mbedtls_open\library/md5.c **** /*
ARM GAS  C:\Users\Phuong\AppData\Local\Temp\ccYkRU5p.s 			page 48


 417:Source\mbedtls_open\library/md5.c ****  * RFC 1321 test vectors
 418:Source\mbedtls_open\library/md5.c ****  */
 419:Source\mbedtls_open\library/md5.c **** static const unsigned char md5_test_buf[7][81] =
 420:Source\mbedtls_open\library/md5.c **** {
 421:Source\mbedtls_open\library/md5.c ****     { "" },
 422:Source\mbedtls_open\library/md5.c ****     { "a" },
 423:Source\mbedtls_open\library/md5.c ****     { "abc" },
 424:Source\mbedtls_open\library/md5.c ****     { "message digest" },
 425:Source\mbedtls_open\library/md5.c ****     { "abcdefghijklmnopqrstuvwxyz" },
 426:Source\mbedtls_open\library/md5.c ****     { "ABCDEFGHIJKLMNOPQRSTUVWXYZabcdefghijklmnopqrstuvwxyz0123456789" },
 427:Source\mbedtls_open\library/md5.c ****     { "12345678901234567890123456789012345678901234567890123456789012"
 428:Source\mbedtls_open\library/md5.c ****       "345678901234567890" }
 429:Source\mbedtls_open\library/md5.c **** };
 430:Source\mbedtls_open\library/md5.c **** 
 431:Source\mbedtls_open\library/md5.c **** static const size_t md5_test_buflen[7] =
 432:Source\mbedtls_open\library/md5.c **** {
 433:Source\mbedtls_open\library/md5.c ****     0, 1, 3, 14, 26, 62, 80
 434:Source\mbedtls_open\library/md5.c **** };
 435:Source\mbedtls_open\library/md5.c **** 
 436:Source\mbedtls_open\library/md5.c **** static const unsigned char md5_test_sum[7][16] =
 437:Source\mbedtls_open\library/md5.c **** {
 438:Source\mbedtls_open\library/md5.c ****     { 0xD4, 0x1D, 0x8C, 0xD9, 0x8F, 0x00, 0xB2, 0x04,
 439:Source\mbedtls_open\library/md5.c ****       0xE9, 0x80, 0x09, 0x98, 0xEC, 0xF8, 0x42, 0x7E },
 440:Source\mbedtls_open\library/md5.c ****     { 0x0C, 0xC1, 0x75, 0xB9, 0xC0, 0xF1, 0xB6, 0xA8,
 441:Source\mbedtls_open\library/md5.c ****       0x31, 0xC3, 0x99, 0xE2, 0x69, 0x77, 0x26, 0x61 },
 442:Source\mbedtls_open\library/md5.c ****     { 0x90, 0x01, 0x50, 0x98, 0x3C, 0xD2, 0x4F, 0xB0,
 443:Source\mbedtls_open\library/md5.c ****       0xD6, 0x96, 0x3F, 0x7D, 0x28, 0xE1, 0x7F, 0x72 },
 444:Source\mbedtls_open\library/md5.c ****     { 0xF9, 0x6B, 0x69, 0x7D, 0x7C, 0xB7, 0x93, 0x8D,
 445:Source\mbedtls_open\library/md5.c ****       0x52, 0x5A, 0x2F, 0x31, 0xAA, 0xF1, 0x61, 0xD0 },
 446:Source\mbedtls_open\library/md5.c ****     { 0xC3, 0xFC, 0xD3, 0xD7, 0x61, 0x92, 0xE4, 0x00,
 447:Source\mbedtls_open\library/md5.c ****       0x7D, 0xFB, 0x49, 0x6C, 0xCA, 0x67, 0xE1, 0x3B },
 448:Source\mbedtls_open\library/md5.c ****     { 0xD1, 0x74, 0xAB, 0x98, 0xD2, 0x77, 0xD9, 0xF5,
 449:Source\mbedtls_open\library/md5.c ****       0xA5, 0x61, 0x1C, 0x2C, 0x9F, 0x41, 0x9D, 0x9F },
 450:Source\mbedtls_open\library/md5.c ****     { 0x57, 0xED, 0xF4, 0xA2, 0x2B, 0xE3, 0xC9, 0x55,
 451:Source\mbedtls_open\library/md5.c ****       0xAC, 0x49, 0xDA, 0x2E, 0x21, 0x07, 0xB6, 0x7A }
 452:Source\mbedtls_open\library/md5.c **** };
 453:Source\mbedtls_open\library/md5.c **** 
 454:Source\mbedtls_open\library/md5.c **** /*
 455:Source\mbedtls_open\library/md5.c ****  * Checkup routine
 456:Source\mbedtls_open\library/md5.c ****  */
 457:Source\mbedtls_open\library/md5.c **** int mbedtls_md5_self_test( int verbose )
 458:Source\mbedtls_open\library/md5.c **** {
 2261              		.loc 1 458 0
 2262              		.cfi_startproc
 2263              		@ args = 0, pretend = 0, frame = 16
 2264              		@ frame_needed = 0, uses_anonymous_args = 0
 2265              	.LVL338:
 2266 0000 70B5     		push	{r4, r5, r6, lr}
 2267              		.cfi_def_cfa_offset 16
 2268              		.cfi_offset 4, -16
 2269              		.cfi_offset 5, -12
 2270              		.cfi_offset 6, -8
 2271              		.cfi_offset 14, -4
 2272 0002 84B0     		sub	sp, sp, #16
 2273              		.cfi_def_cfa_offset 32
 2274 0004 0500     		movs	r5, r0
 2275              	.LVL339:
ARM GAS  C:\Users\Phuong\AppData\Local\Temp\ccYkRU5p.s 			page 49


 459:Source\mbedtls_open\library/md5.c ****     int i, ret = 0;
 460:Source\mbedtls_open\library/md5.c ****     unsigned char md5sum[16];
 461:Source\mbedtls_open\library/md5.c **** 
 462:Source\mbedtls_open\library/md5.c ****     for( i = 0; i < 7; i++ )
 2276              		.loc 1 462 0
 2277 0006 0024     		movs	r4, #0
 2278 0008 24E0     		b	.L38
 2279              	.LVL340:
 2280              	.L42:
 463:Source\mbedtls_open\library/md5.c ****     {
 464:Source\mbedtls_open\library/md5.c ****         if( verbose != 0 )
 2281              		.loc 1 464 0
 2282 000a 002D     		cmp	r5, #0
 2283 000c 03D0     		beq	.L39
 465:Source\mbedtls_open\library/md5.c ****             mbedtls_printf( "  MD5 test #%d: ", i + 1 );
 2284              		.loc 1 465 0
 2285 000e 611C     		adds	r1, r4, #1
 2286 0010 1B48     		ldr	r0, .L47
 2287 0012 FFF7FEFF 		bl	printf
 2288              	.LVL341:
 2289              	.L39:
 466:Source\mbedtls_open\library/md5.c **** 
 467:Source\mbedtls_open\library/md5.c ****         ret = mbedtls_md5_ret( md5_test_buf[i], md5_test_buflen[i], md5sum );
 2290              		.loc 1 467 0
 2291 0016 E000     		lsls	r0, r4, #3
 2292 0018 0019     		adds	r0, r0, r4
 2293 001a C300     		lsls	r3, r0, #3
 2294 001c C018     		adds	r0, r0, r3
 2295 001e 194B     		ldr	r3, .L47+4
 2296 0020 1818     		adds	r0, r3, r0
 2297 0022 A300     		lsls	r3, r4, #2
 2298 0024 184A     		ldr	r2, .L47+8
 2299 0026 D318     		adds	r3, r2, r3
 2300 0028 996B     		ldr	r1, [r3, #56]
 2301 002a 6A46     		mov	r2, sp
 2302 002c FFF7FEFF 		bl	mbedtls_md5_ret
 2303              	.LVL342:
 2304 0030 061E     		subs	r6, r0, #0
 2305              	.LVL343:
 468:Source\mbedtls_open\library/md5.c ****         if( ret != 0 )
 2306              		.loc 1 468 0
 2307 0032 19D1     		bne	.L40
 469:Source\mbedtls_open\library/md5.c ****             goto fail;
 470:Source\mbedtls_open\library/md5.c **** 
 471:Source\mbedtls_open\library/md5.c ****         if( memcmp( md5sum, md5_test_sum[i], 16 ) != 0 )
 2308              		.loc 1 471 0
 2309 0034 2301     		lsls	r3, r4, #4
 2310 0036 1449     		ldr	r1, .L47+8
 2311 0038 5431     		adds	r1, r1, #84
 2312 003a C918     		adds	r1, r1, r3
 2313 003c 1022     		movs	r2, #16
 2314 003e 6846     		mov	r0, sp
 2315              	.LVL344:
 2316 0040 FFF7FEFF 		bl	memcmp
 2317              	.LVL345:
 2318 0044 0028     		cmp	r0, #0
 2319 0046 0ED1     		bne	.L44
ARM GAS  C:\Users\Phuong\AppData\Local\Temp\ccYkRU5p.s 			page 50


 472:Source\mbedtls_open\library/md5.c ****         {
 473:Source\mbedtls_open\library/md5.c ****             ret = 1;
 474:Source\mbedtls_open\library/md5.c ****             goto fail;
 475:Source\mbedtls_open\library/md5.c ****         }
 476:Source\mbedtls_open\library/md5.c **** 
 477:Source\mbedtls_open\library/md5.c ****         if( verbose != 0 )
 2320              		.loc 1 477 0
 2321 0048 002D     		cmp	r5, #0
 2322 004a 02D0     		beq	.L41
 478:Source\mbedtls_open\library/md5.c ****             mbedtls_printf( "passed\n" );
 2323              		.loc 1 478 0
 2324 004c 0F48     		ldr	r0, .L47+12
 2325 004e FFF7FEFF 		bl	puts
 2326              	.LVL346:
 2327              	.L41:
 462:Source\mbedtls_open\library/md5.c ****     {
 2328              		.loc 1 462 0 discriminator 2
 2329 0052 0134     		adds	r4, r4, #1
 2330              	.LVL347:
 2331              	.L38:
 462:Source\mbedtls_open\library/md5.c ****     {
 2332              		.loc 1 462 0 is_stmt 0 discriminator 1
 2333 0054 062C     		cmp	r4, #6
 2334 0056 D8DD     		ble	.L42
 479:Source\mbedtls_open\library/md5.c ****     }
 480:Source\mbedtls_open\library/md5.c **** 
 481:Source\mbedtls_open\library/md5.c ****     if( verbose != 0 )
 2335              		.loc 1 481 0 is_stmt 1
 2336 0058 002D     		cmp	r5, #0
 2337 005a 0CD0     		beq	.L45
 482:Source\mbedtls_open\library/md5.c ****         mbedtls_printf( "\n" );
 2338              		.loc 1 482 0
 2339 005c 0A20     		movs	r0, #10
 2340 005e FFF7FEFF 		bl	putchar
 2341              	.LVL348:
 483:Source\mbedtls_open\library/md5.c **** 
 484:Source\mbedtls_open\library/md5.c ****     return( 0 );
 2342              		.loc 1 484 0
 2343 0062 0020     		movs	r0, #0
 2344 0064 0AE0     		b	.L43
 2345              	.LVL349:
 2346              	.L44:
 473:Source\mbedtls_open\library/md5.c ****             goto fail;
 2347              		.loc 1 473 0
 2348 0066 0126     		movs	r6, #1
 2349              	.LVL350:
 2350              	.L40:
 485:Source\mbedtls_open\library/md5.c **** 
 486:Source\mbedtls_open\library/md5.c **** fail:
 487:Source\mbedtls_open\library/md5.c ****     if( verbose != 0 )
 2351              		.loc 1 487 0
 2352 0068 002D     		cmp	r5, #0
 2353 006a 06D0     		beq	.L46
 488:Source\mbedtls_open\library/md5.c ****         mbedtls_printf( "failed\n" );
 2354              		.loc 1 488 0
 2355 006c 0848     		ldr	r0, .L47+16
 2356 006e FFF7FEFF 		bl	puts
ARM GAS  C:\Users\Phuong\AppData\Local\Temp\ccYkRU5p.s 			page 51


 2357              	.LVL351:
 489:Source\mbedtls_open\library/md5.c **** 
 490:Source\mbedtls_open\library/md5.c ****     return( ret );
 2358              		.loc 1 490 0
 2359 0072 3000     		movs	r0, r6
 2360 0074 02E0     		b	.L43
 2361              	.LVL352:
 2362              	.L45:
 484:Source\mbedtls_open\library/md5.c **** 
 2363              		.loc 1 484 0
 2364 0076 0020     		movs	r0, #0
 2365 0078 00E0     		b	.L43
 2366              	.LVL353:
 2367              	.L46:
 2368              		.loc 1 490 0
 2369 007a 3000     		movs	r0, r6
 2370              	.LVL354:
 2371              	.L43:
 491:Source\mbedtls_open\library/md5.c **** }
 2372              		.loc 1 491 0
 2373 007c 04B0     		add	sp, sp, #16
 2374              		@ sp needed
 2375              	.LVL355:
 2376              	.LVL356:
 2377 007e 70BD     		pop	{r4, r5, r6, pc}
 2378              	.L48:
 2379              		.align	2
 2380              	.L47:
 2381 0080 00000000 		.word	.LC0
 2382 0084 00000000 		.word	.LANCHOR0
 2383 0088 00020000 		.word	.LANCHOR1
 2384 008c 14000000 		.word	.LC4
 2385 0090 1C000000 		.word	.LC6
 2386              		.cfi_endproc
 2387              	.LFE14:
 2388              		.size	mbedtls_md5_self_test, .-mbedtls_md5_self_test
 2389              		.section	.rodata
 2390              		.align	2
 2391              		.set	.LANCHOR0,. + 0
 2392              		.set	.LANCHOR1,. + 512
 2393              		.type	md5_test_buf, %object
 2394              		.size	md5_test_buf, 567
 2395              	md5_test_buf:
 2396 0000 00       		.ascii	"\000"
 2397 0001 00000000 		.space	80
 2397      00000000 
 2397      00000000 
 2397      00000000 
 2397      00000000 
 2398 0051 6100     		.ascii	"a\000"
 2399 0053 00000000 		.space	79
 2399      00000000 
 2399      00000000 
 2399      00000000 
 2399      00000000 
 2400 00a2 61626300 		.ascii	"abc\000"
 2401 00a6 00000000 		.space	77
ARM GAS  C:\Users\Phuong\AppData\Local\Temp\ccYkRU5p.s 			page 52


 2401      00000000 
 2401      00000000 
 2401      00000000 
 2401      00000000 
 2402 00f3 6D657373 		.ascii	"message digest\000"
 2402      61676520 
 2402      64696765 
 2402      737400
 2403 0102 00000000 		.space	66
 2403      00000000 
 2403      00000000 
 2403      00000000 
 2403      00000000 
 2404 0144 61626364 		.ascii	"abcdefghijklmnopqrstuvwxyz\000"
 2404      65666768 
 2404      696A6B6C 
 2404      6D6E6F70 
 2404      71727374 
 2405 015f 00000000 		.space	54
 2405      00000000 
 2405      00000000 
 2405      00000000 
 2405      00000000 
 2406 0195 41424344 		.ascii	"ABCDEFGHIJKLMNOPQRSTUVWXYZabcdefghijklmnopqrstuvwxy"
 2406      45464748 
 2406      494A4B4C 
 2406      4D4E4F50 
 2406      51525354 
 2407 01c8 7A303132 		.ascii	"z0123456789\000"
 2407      33343536 
 2407      37383900 
 2408 01d4 00000000 		.space	18
 2408      00000000 
 2408      00000000 
 2408      00000000 
 2408      0000
 2409 01e6 31323334 		.ascii	"123456789012345678901234567890123456789012345678901"
 2409      35363738 
 2409      39303132 
 2409      33343536 
 2409      37383930 
 2410 0219 32333435 		.ascii	"23456789012345678901234567890\000"
 2410      36373839 
 2410      30313233 
 2410      34353637 
 2410      38393031 
 2411 0237 00       		.space	1
 2412              		.type	md5_test_buflen, %object
 2413              		.size	md5_test_buflen, 28
 2414              	md5_test_buflen:
 2415 0238 00000000 		.word	0
 2416 023c 01000000 		.word	1
 2417 0240 03000000 		.word	3
 2418 0244 0E000000 		.word	14
 2419 0248 1A000000 		.word	26
 2420 024c 3E000000 		.word	62
 2421 0250 50000000 		.word	80
ARM GAS  C:\Users\Phuong\AppData\Local\Temp\ccYkRU5p.s 			page 53


 2422              		.type	md5_test_sum, %object
 2423              		.size	md5_test_sum, 112
 2424              	md5_test_sum:
 2425 0254 D4       		.byte	-44
 2426 0255 1D       		.byte	29
 2427 0256 8C       		.byte	-116
 2428 0257 D9       		.byte	-39
 2429 0258 8F       		.byte	-113
 2430 0259 00       		.byte	0
 2431 025a B2       		.byte	-78
 2432 025b 04       		.byte	4
 2433 025c E9       		.byte	-23
 2434 025d 80       		.byte	-128
 2435 025e 09       		.byte	9
 2436 025f 98       		.byte	-104
 2437 0260 EC       		.byte	-20
 2438 0261 F8       		.byte	-8
 2439 0262 42       		.byte	66
 2440 0263 7E       		.byte	126
 2441 0264 0C       		.byte	12
 2442 0265 C1       		.byte	-63
 2443 0266 75       		.byte	117
 2444 0267 B9       		.byte	-71
 2445 0268 C0       		.byte	-64
 2446 0269 F1       		.byte	-15
 2447 026a B6       		.byte	-74
 2448 026b A8       		.byte	-88
 2449 026c 31       		.byte	49
 2450 026d C3       		.byte	-61
 2451 026e 99       		.byte	-103
 2452 026f E2       		.byte	-30
 2453 0270 69       		.byte	105
 2454 0271 77       		.byte	119
 2455 0272 26       		.byte	38
 2456 0273 61       		.byte	97
 2457 0274 90       		.byte	-112
 2458 0275 01       		.byte	1
 2459 0276 50       		.byte	80
 2460 0277 98       		.byte	-104
 2461 0278 3C       		.byte	60
 2462 0279 D2       		.byte	-46
 2463 027a 4F       		.byte	79
 2464 027b B0       		.byte	-80
 2465 027c D6       		.byte	-42
 2466 027d 96       		.byte	-106
 2467 027e 3F       		.byte	63
 2468 027f 7D       		.byte	125
 2469 0280 28       		.byte	40
 2470 0281 E1       		.byte	-31
 2471 0282 7F       		.byte	127
 2472 0283 72       		.byte	114
 2473 0284 F9       		.byte	-7
 2474 0285 6B       		.byte	107
 2475 0286 69       		.byte	105
 2476 0287 7D       		.byte	125
 2477 0288 7C       		.byte	124
 2478 0289 B7       		.byte	-73
ARM GAS  C:\Users\Phuong\AppData\Local\Temp\ccYkRU5p.s 			page 54


 2479 028a 93       		.byte	-109
 2480 028b 8D       		.byte	-115
 2481 028c 52       		.byte	82
 2482 028d 5A       		.byte	90
 2483 028e 2F       		.byte	47
 2484 028f 31       		.byte	49
 2485 0290 AA       		.byte	-86
 2486 0291 F1       		.byte	-15
 2487 0292 61       		.byte	97
 2488 0293 D0       		.byte	-48
 2489 0294 C3       		.byte	-61
 2490 0295 FC       		.byte	-4
 2491 0296 D3       		.byte	-45
 2492 0297 D7       		.byte	-41
 2493 0298 61       		.byte	97
 2494 0299 92       		.byte	-110
 2495 029a E4       		.byte	-28
 2496 029b 00       		.byte	0
 2497 029c 7D       		.byte	125
 2498 029d FB       		.byte	-5
 2499 029e 49       		.byte	73
 2500 029f 6C       		.byte	108
 2501 02a0 CA       		.byte	-54
 2502 02a1 67       		.byte	103
 2503 02a2 E1       		.byte	-31
 2504 02a3 3B       		.byte	59
 2505 02a4 D1       		.byte	-47
 2506 02a5 74       		.byte	116
 2507 02a6 AB       		.byte	-85
 2508 02a7 98       		.byte	-104
 2509 02a8 D2       		.byte	-46
 2510 02a9 77       		.byte	119
 2511 02aa D9       		.byte	-39
 2512 02ab F5       		.byte	-11
 2513 02ac A5       		.byte	-91
 2514 02ad 61       		.byte	97
 2515 02ae 1C       		.byte	28
 2516 02af 2C       		.byte	44
 2517 02b0 9F       		.byte	-97
 2518 02b1 41       		.byte	65
 2519 02b2 9D       		.byte	-99
 2520 02b3 9F       		.byte	-97
 2521 02b4 57       		.byte	87
 2522 02b5 ED       		.byte	-19
 2523 02b6 F4       		.byte	-12
 2524 02b7 A2       		.byte	-94
 2525 02b8 2B       		.byte	43
 2526 02b9 E3       		.byte	-29
 2527 02ba C9       		.byte	-55
 2528 02bb 55       		.byte	85
 2529 02bc AC       		.byte	-84
 2530 02bd 49       		.byte	73
 2531 02be DA       		.byte	-38
 2532 02bf 2E       		.byte	46
 2533 02c0 21       		.byte	33
 2534 02c1 07       		.byte	7
 2535 02c2 B6       		.byte	-74
ARM GAS  C:\Users\Phuong\AppData\Local\Temp\ccYkRU5p.s 			page 55


 2536 02c3 7A       		.byte	122
 2537              		.section	.rodata.str1.4,"aMS",%progbits,1
 2538              		.align	2
 2539              	.LC0:
 2540 0000 20204D44 		.ascii	"  MD5 test #%d: \000"
 2540      35207465 
 2540      73742023 
 2540      25643A20 
 2540      00
 2541 0011 000000   		.space	3
 2542              	.LC4:
 2543 0014 70617373 		.ascii	"passed\000"
 2543      656400
 2544 001b 00       		.space	1
 2545              	.LC6:
 2546 001c 6661696C 		.ascii	"failed\000"
 2546      656400
 2547              		.text
 2548              	.Letext0:
 2549              		.file 2 "c:\\program files (x86)\\cypress\\psoc creator\\4.2\\psoc creator\\import\\gnu\\arm\\5.4.
 2550              		.file 3 "c:\\program files (x86)\\cypress\\psoc creator\\4.2\\psoc creator\\import\\gnu\\arm\\5.4.
 2551              		.file 4 "c:\\program files (x86)\\cypress\\psoc creator\\4.2\\psoc creator\\import\\gnu\\arm\\5.4.
 2552              		.file 5 ".\\Source\\mbedtls_open\\include/mbedtls/md5.h"
 2553              		.file 6 ".\\Source\\mbedtls_open\\include/mbedtls/platform_util.h"
 2554              		.file 7 "c:\\program files (x86)\\cypress\\psoc creator\\4.2\\psoc creator\\import\\gnu\\arm\\5.4.
 2555              		.file 8 "c:\\program files (x86)\\cypress\\psoc creator\\4.2\\psoc creator\\import\\gnu\\arm\\5.4.
 2556              		.file 9 "<built-in>"