ARM GAS  C:\Users\Phuong\AppData\Local\Temp\ccYkRU5p.s 			page 1


   1              		.syntax unified
   2              		.cpu cortex-m0plus
   3              		.fpu softvfp
   4              		.eabi_attribute 20, 1
   5              		.eabi_attribute 21, 1
   6              		.eabi_attribute 23, 3
   7              		.eabi_attribute 24, 1
   8              		.eabi_attribute 25, 1
   9              		.eabi_attribute 26, 1
  10              		.eabi_attribute 30, 1
  11              		.eabi_attribute 34, 0
  12              		.eabi_attribute 18, 4
  13              		.thumb
  14              		.syntax unified
  15              		.file	"md5.c"
  16              		.text
  17              	.Ltext0:
  18              		.cfi_sections	.debug_frame
  19              		.section	.text.mbedtls_md5_init,"ax",%progbits
  20              		.align	2
  21              		.global	mbedtls_md5_init
  22              		.code	16
  23              		.thumb_func
  24              		.type	mbedtls_md5_init, %function
  25              	mbedtls_md5_init:
  26              	.LFB1:
  27              		.file 1 "Source\\mbedtls_open\\library\\md5.c"
   1:Source\mbedtls_open\library/md5.c **** /*
   2:Source\mbedtls_open\library/md5.c ****  *  RFC 1321 compliant MD5 implementation
   3:Source\mbedtls_open\library/md5.c ****  *
   4:Source\mbedtls_open\library/md5.c ****  *  Copyright (C) 2006-2015, ARM Limited, All Rights Reserved
   5:Source\mbedtls_open\library/md5.c ****  *  SPDX-License-Identifier: Apache-2.0
   6:Source\mbedtls_open\library/md5.c ****  *
   7:Source\mbedtls_open\library/md5.c ****  *  Licensed under the Apache License, Version 2.0 (the "License"); you may
   8:Source\mbedtls_open\library/md5.c ****  *  not use this file except in compliance with the License.
   9:Source\mbedtls_open\library/md5.c ****  *  You may obtain a copy of the License at
  10:Source\mbedtls_open\library/md5.c ****  *
  11:Source\mbedtls_open\library/md5.c ****  *  http://www.apache.org/licenses/LICENSE-2.0
  12:Source\mbedtls_open\library/md5.c ****  *
  13:Source\mbedtls_open\library/md5.c ****  *  Unless required by applicable law or agreed to in writing, software
  14:Source\mbedtls_open\library/md5.c ****  *  distributed under the License is distributed on an "AS IS" BASIS, WITHOUT
  15:Source\mbedtls_open\library/md5.c ****  *  WARRANTIES OR CONDITIONS OF ANY KIND, either express or implied.
  16:Source\mbedtls_open\library/md5.c ****  *  See the License for the specific language governing permissions and
  17:Source\mbedtls_open\library/md5.c ****  *  limitations under the License.
  18:Source\mbedtls_open\library/md5.c ****  *
  19:Source\mbedtls_open\library/md5.c ****  *  This file is part of mbed TLS (https://tls.mbed.org)
  20:Source\mbedtls_open\library/md5.c ****  */
  21:Source\mbedtls_open\library/md5.c **** /*
  22:Source\mbedtls_open\library/md5.c ****  *  The MD5 algorithm was designed by Ron Rivest in 1991.
  23:Source\mbedtls_open\library/md5.c ****  *
  24:Source\mbedtls_open\library/md5.c ****  *  http://www.ietf.org/rfc/rfc1321.txt
  25:Source\mbedtls_open\library/md5.c ****  */
  26:Source\mbedtls_open\library/md5.c **** 
  27:Source\mbedtls_open\library/md5.c **** #if !defined(MBEDTLS_CONFIG_FILE)
  28:Source\mbedtls_open\library/md5.c **** #include "mbedtls/config.h"
  29:Source\mbedtls_open\library/md5.c **** #else
  30:Source\mbedtls_open\library/md5.c **** #include MBEDTLS_CONFIG_FILE
ARM GAS  C:\Users\Phuong\AppData\Local\Temp\ccYkRU5p.s 			page 2


  31:Source\mbedtls_open\library/md5.c **** #endif
  32:Source\mbedtls_open\library/md5.c **** 
  33:Source\mbedtls_open\library/md5.c **** #if defined(MBEDTLS_MD5_C)
  34:Source\mbedtls_open\library/md5.c **** 
  35:Source\mbedtls_open\library/md5.c **** #include "mbedtls/md5.h"
  36:Source\mbedtls_open\library/md5.c **** #include "mbedtls/platform_util.h"
  37:Source\mbedtls_open\library/md5.c **** 
  38:Source\mbedtls_open\library/md5.c **** #include <string.h>
  39:Source\mbedtls_open\library/md5.c **** 
  40:Source\mbedtls_open\library/md5.c **** #if defined(MBEDTLS_SELF_TEST)
  41:Source\mbedtls_open\library/md5.c **** #if defined(MBEDTLS_PLATFORM_C)
  42:Source\mbedtls_open\library/md5.c **** #include "mbedtls/platform.h"
  43:Source\mbedtls_open\library/md5.c **** #else
  44:Source\mbedtls_open\library/md5.c **** #include <stdio.h>
  45:Source\mbedtls_open\library/md5.c **** #define mbedtls_printf printf
  46:Source\mbedtls_open\library/md5.c **** #endif /* MBEDTLS_PLATFORM_C */
  47:Source\mbedtls_open\library/md5.c **** #endif /* MBEDTLS_SELF_TEST */
  48:Source\mbedtls_open\library/md5.c **** 
  49:Source\mbedtls_open\library/md5.c **** #if !defined(MBEDTLS_MD5_ALT)
  50:Source\mbedtls_open\library/md5.c **** 
  51:Source\mbedtls_open\library/md5.c **** /*
  52:Source\mbedtls_open\library/md5.c ****  * 32-bit integer manipulation macros (little endian)
  53:Source\mbedtls_open\library/md5.c ****  */
  54:Source\mbedtls_open\library/md5.c **** #ifndef GET_UINT32_LE
  55:Source\mbedtls_open\library/md5.c **** #define GET_UINT32_LE(n,b,i)                            \
  56:Source\mbedtls_open\library/md5.c **** {                                                       \
  57:Source\mbedtls_open\library/md5.c ****     (n) = ( (uint32_t) (b)[(i)    ]       )             \
  58:Source\mbedtls_open\library/md5.c ****         | ( (uint32_t) (b)[(i) + 1] <<  8 )             \
  59:Source\mbedtls_open\library/md5.c ****         | ( (uint32_t) (b)[(i) + 2] << 16 )             \
  60:Source\mbedtls_open\library/md5.c ****         | ( (uint32_t) (b)[(i) + 3] << 24 );            \
  61:Source\mbedtls_open\library/md5.c **** }
  62:Source\mbedtls_open\library/md5.c **** #endif
  63:Source\mbedtls_open\library/md5.c **** 
  64:Source\mbedtls_open\library/md5.c **** #ifndef PUT_UINT32_LE
  65:Source\mbedtls_open\library/md5.c **** #define PUT_UINT32_LE(n,b,i)                                    \
  66:Source\mbedtls_open\library/md5.c **** {                                                               \
  67:Source\mbedtls_open\library/md5.c ****     (b)[(i)    ] = (unsigned char) ( ( (n)       ) & 0xFF );    \
  68:Source\mbedtls_open\library/md5.c ****     (b)[(i) + 1] = (unsigned char) ( ( (n) >>  8 ) & 0xFF );    \
  69:Source\mbedtls_open\library/md5.c ****     (b)[(i) + 2] = (unsigned char) ( ( (n) >> 16 ) & 0xFF );    \
  70:Source\mbedtls_open\library/md5.c ****     (b)[(i) + 3] = (unsigned char) ( ( (n) >> 24 ) & 0xFF );    \
  71:Source\mbedtls_open\library/md5.c **** }
  72:Source\mbedtls_open\library/md5.c **** #endif
  73:Source\mbedtls_open\library/md5.c **** 
  74:Source\mbedtls_open\library/md5.c **** void mbedtls_md5_init( mbedtls_md5_context *ctx )
  75:Source\mbedtls_open\library/md5.c **** {
  28              		.loc 1 75 0
  29              		.cfi_startproc
  30              		@ args = 0, pretend = 0, frame = 0
  31              		@ frame_needed = 0, uses_anonymous_args = 0
  32              	.LVL0:
  33 0000 10B5     		push	{r4, lr}
  34              		.cfi_def_cfa_offset 8
  35              		.cfi_offset 4, -8
  36              		.cfi_offset 14, -4
  76:Source\mbedtls_open\library/md5.c ****     memset( ctx, 0, sizeof( mbedtls_md5_context ) );
  37              		.loc 1 76 0
  38 0002 5822     		movs	r2, #88
ARM GAS  C:\Users\Phuong\AppData\Local\Temp\ccYkRU5p.s 			page 3


  39 0004 0021     		movs	r1, #0
  40 0006 FFF7FEFF 		bl	memset
  41              	.LVL1:
  77:Source\mbedtls_open\library/md5.c **** }
  42              		.loc 1 77 0
  43              		@ sp needed
  44 000a 10BD     		pop	{r4, pc}
  45              		.cfi_endproc
  46              	.LFE1:
  47              		.size	mbedtls_md5_init, .-mbedtls_md5_init
  48              		.section	.text.mbedtls_md5_free,"ax",%progbits
  49              		.align	2
  50              		.global	mbedtls_md5_free
  51              		.code	16
  52              		.thumb_func
  53              		.type	mbedtls_md5_free, %function
  54              	mbedtls_md5_free:
  55              	.LFB2:
  78:Source\mbedtls_open\library/md5.c **** 
  79:Source\mbedtls_open\library/md5.c **** void mbedtls_md5_free( mbedtls_md5_context *ctx )
  80:Source\mbedtls_open\library/md5.c **** {
  56              		.loc 1 80 0
  57              		.cfi_startproc
  58              		@ args = 0, pretend = 0, frame = 0
  59              		@ frame_needed = 0, uses_anonymous_args = 0
  60              	.LVL2:
  61 0000 10B5     		push	{r4, lr}
  62              		.cfi_def_cfa_offset 8
  63              		.cfi_offset 4, -8
  64              		.cfi_offset 14, -4
  81:Source\mbedtls_open\library/md5.c ****     if( ctx == NULL )
  65              		.loc 1 81 0
  66 0002 0028     		cmp	r0, #0
  67 0004 02D0     		beq	.L2
  82:Source\mbedtls_open\library/md5.c ****         return;
  83:Source\mbedtls_open\library/md5.c **** 
  84:Source\mbedtls_open\library/md5.c ****     mbedtls_platform_zeroize( ctx, sizeof( mbedtls_md5_context ) );
  68              		.loc 1 84 0
  69 0006 5821     		movs	r1, #88
  70 0008 FFF7FEFF 		bl	mbedtls_platform_zeroize
  71              	.LVL3:
  72              	.L2:
  85:Source\mbedtls_open\library/md5.c **** }
  73              		.loc 1 85 0
  74              		@ sp needed
  75 000c 10BD     		pop	{r4, pc}
  76              		.cfi_endproc
  77              	.LFE2:
  78              		.size	mbedtls_md5_free, .-mbedtls_md5_free
  79 000e C046     		.section	.text.mbedtls_md5_clone,"ax",%progbits
  80              		.align	2
  81              		.global	mbedtls_md5_clone
  82              		.code	16
  83              		.thumb_func
  84              		.type	mbedtls_md5_clone, %function
  85              	mbedtls_md5_clone:
  86              	.LFB3:
ARM GAS  C:\Users\Phuong\AppData\Local\Temp\ccYkRU5p.s 			page 4


  86:Source\mbedtls_open\library/md5.c **** 
  87:Source\mbedtls_open\library/md5.c **** void mbedtls_md5_clone( mbedtls_md5_context *dst,
  88:Source\mbedtls_open\library/md5.c ****                         const mbedtls_md5_context *src )
  89:Source\mbedtls_open\library/md5.c **** {
  87              		.loc 1 89 0
  88              		.cfi_startproc
  89              		@ args = 0, pretend = 0, frame = 0
  90              		@ frame_needed = 0, uses_anonymous_args = 0
  91              	.LVL4:
  92 0000 10B5     		push	{r4, lr}
  93              		.cfi_def_cfa_offset 8
  94              		.cfi_offset 4, -8
  95              		.cfi_offset 14, -4
  90:Source\mbedtls_open\library/md5.c ****     *dst = *src;
  96              		.loc 1 90 0
  97 0002 5822     		movs	r2, #88
  98 0004 FFF7FEFF 		bl	memcpy
  99              	.LVL5:
  91:Source\mbedtls_open\library/md5.c **** }
 100              		.loc 1 91 0
 101              		@ sp needed
 102 0008 10BD     		pop	{r4, pc}
 103              		.cfi_endproc
 104              	.LFE3:
 105              		.size	mbedtls_md5_clone, .-mbedtls_md5_clone
 106 000a C046     		.section	.text.mbedtls_md5_starts_ret,"ax",%progbits
 107              		.align	2
 108              		.global	mbedtls_md5_starts_ret
 109              		.code	16
 110              		.thumb_func
 111              		.type	mbedtls_md5_starts_ret, %function
 112              	mbedtls_md5_starts_ret:
 113              	.LFB4:
  92:Source\mbedtls_open\library/md5.c **** 
  93:Source\mbedtls_open\library/md5.c **** /*
  94:Source\mbedtls_open\library/md5.c ****  * MD5 context setup
  95:Source\mbedtls_open\library/md5.c ****  */
  96:Source\mbedtls_open\library/md5.c **** int mbedtls_md5_starts_ret( mbedtls_md5_context *ctx )
  97:Source\mbedtls_open\library/md5.c **** {
 114              		.loc 1 97 0
 115              		.cfi_startproc
 116              		@ args = 0, pretend = 0, frame = 0
 117              		@ frame_needed = 0, uses_anonymous_args = 0
 118              		@ link register save eliminated.
 119              	.LVL6:
  98:Source\mbedtls_open\library/md5.c ****     ctx->total[0] = 0;
 120              		.loc 1 98 0
 121 0000 0023     		movs	r3, #0
 122 0002 0360     		str	r3, [r0]
  99:Source\mbedtls_open\library/md5.c ****     ctx->total[1] = 0;
 123              		.loc 1 99 0
 124 0004 4360     		str	r3, [r0, #4]
 100:Source\mbedtls_open\library/md5.c **** 
 101:Source\mbedtls_open\library/md5.c ****     ctx->state[0] = 0x67452301;
 125              		.loc 1 101 0
 126 0006 054B     		ldr	r3, .L6
 127 0008 8360     		str	r3, [r0, #8]
ARM GAS  C:\Users\Phuong\AppData\Local\Temp\ccYkRU5p.s 			page 5


 102:Source\mbedtls_open\library/md5.c ****     ctx->state[1] = 0xEFCDAB89;
 128              		.loc 1 102 0
 129 000a 054B     		ldr	r3, .L6+4
 130 000c C360     		str	r3, [r0, #12]
 103:Source\mbedtls_open\library/md5.c ****     ctx->state[2] = 0x98BADCFE;
 131              		.loc 1 103 0
 132 000e 054B     		ldr	r3, .L6+8
 133 0010 0361     		str	r3, [r0, #16]
 104:Source\mbedtls_open\library/md5.c ****     ctx->state[3] = 0x10325476;
 134              		.loc 1 104 0
 135 0012 054B     		ldr	r3, .L6+12
 136 0014 4361     		str	r3, [r0, #20]
 105:Source\mbedtls_open\library/md5.c **** 
 106:Source\mbedtls_open\library/md5.c ****     return( 0 );
 107:Source\mbedtls_open\library/md5.c **** }
 137              		.loc 1 107 0
 138 0016 0020     		movs	r0, #0
 139              	.LVL7:
 140              		@ sp needed
 141 0018 7047     		bx	lr
 142              	.L7:
 143 001a C046     		.align	2
 144              	.L6:
 145 001c 01234567 		.word	1732584193
 146 0020 89ABCDEF 		.word	-271733879
 147 0024 FEDCBA98 		.word	-1732584194
 148 0028 76543210 		.word	271733878
 149              		.cfi_endproc
 150              	.LFE4:
 151              		.size	mbedtls_md5_starts_ret, .-mbedtls_md5_starts_ret
 152              		.section	.text.mbedtls_md5_starts,"ax",%progbits
 153              		.align	2
 154              		.global	mbedtls_md5_starts
 155              		.code	16
 156              		.thumb_func
 157              		.type	mbedtls_md5_starts, %function
 158              	mbedtls_md5_starts:
 159              	.LFB5:
 108:Source\mbedtls_open\library/md5.c **** 
 109:Source\mbedtls_open\library/md5.c **** #if !defined(MBEDTLS_DEPRECATED_REMOVED)
 110:Source\mbedtls_open\library/md5.c **** void mbedtls_md5_starts( mbedtls_md5_context *ctx )
 111:Source\mbedtls_open\library/md5.c **** {
 160              		.loc 1 111 0
 161              		.cfi_startproc
 162              		@ args = 0, pretend = 0, frame = 0
 163              		@ frame_needed = 0, uses_anonymous_args = 0
 164              	.LVL8:
 165 0000 10B5     		push	{r4, lr}
 166              		.cfi_def_cfa_offset 8
 167              		.cfi_offset 4, -8
 168              		.cfi_offset 14, -4
 112:Source\mbedtls_open\library/md5.c ****     mbedtls_md5_starts_ret( ctx );
 169              		.loc 1 112 0
 170 0002 FFF7FEFF 		bl	mbedtls_md5_starts_ret
 171              	.LVL9:
 113:Source\mbedtls_open\library/md5.c **** }
 172              		.loc 1 113 0
ARM GAS  C:\Users\Phuong\AppData\Local\Temp\ccYkRU5p.s 			page 6


 173              		@ sp needed
 174 0006 10BD     		pop	{r4, pc}
 175              		.cfi_endproc
 176              	.LFE5:
 177              		.size	mbedtls_md5_starts, .-mbedtls_md5_starts
 178              		.section	.text.mbedtls_internal_md5_process,"ax",%progbits
 179              		.align	2
 180              		.global	mbedtls_internal_md5_process
 181              		.code	16
 182              		.thumb_func
 183              		.type	mbedtls_internal_md5_process, %function
 184              	mbedtls_internal_md5_process:
 185              	.LFB6:
 114:Source\mbedtls_open\library/md5.c **** #endif
 115:Source\mbedtls_open\library/md5.c **** 
 116:Source\mbedtls_open\library/md5.c **** #if !defined(MBEDTLS_MD5_PROCESS_ALT)
 117:Source\mbedtls_open\library/md5.c **** int mbedtls_internal_md5_process( mbedtls_md5_context *ctx,
 118:Source\mbedtls_open\library/md5.c ****                                   const unsigned char data[64] )
 119:Source\mbedtls_open\library/md5.c **** {
 186              		.loc 1 119 0
 187              		.cfi_startproc
 188              		@ args = 0, pretend = 0, frame = 64
 189              		@ frame_needed = 0, uses_anonymous_args = 0
 190              	.LVL10:
 191 0000 F0B5     		push	{r4, r5, r6, r7, lr}
 192              		.cfi_def_cfa_offset 20
 193              		.cfi_offset 4, -20
 194              		.cfi_offset 5, -16
 195              		.cfi_offset 6, -12
 196              		.cfi_offset 7, -8
 197              		.cfi_offset 14, -4
 198 0002 5F46     		mov	r7, fp
 199 0004 5646     		mov	r6, r10
 200 0006 4D46     		mov	r5, r9
 201 0008 4446     		mov	r4, r8
 202 000a F0B4     		push	{r4, r5, r6, r7}
 203              		.cfi_def_cfa_offset 36
 204              		.cfi_offset 8, -36
 205              		.cfi_offset 9, -32
 206              		.cfi_offset 10, -28
 207              		.cfi_offset 11, -24
 208 000c 91B0     		sub	sp, sp, #68
 209              		.cfi_def_cfa_offset 104
 120:Source\mbedtls_open\library/md5.c ****     uint32_t X[16], A, B, C, D;
 121:Source\mbedtls_open\library/md5.c **** 
 122:Source\mbedtls_open\library/md5.c ****     GET_UINT32_LE( X[ 0], data,  0 );
 210              		.loc 1 122 0
 211 000e 0A78     		ldrb	r2, [r1]
 212 0010 4B78     		ldrb	r3, [r1, #1]
 213 0012 1B02     		lsls	r3, r3, #8
 214 0014 1343     		orrs	r3, r2
 215 0016 8C78     		ldrb	r4, [r1, #2]
 216 0018 2404     		lsls	r4, r4, #16
 217 001a 2343     		orrs	r3, r4
 218 001c CA78     		ldrb	r2, [r1, #3]
 219 001e 1206     		lsls	r2, r2, #24
 220 0020 1343     		orrs	r3, r2
ARM GAS  C:\Users\Phuong\AppData\Local\Temp\ccYkRU5p.s 			page 7


 221 0022 1F00     		movs	r7, r3
 123:Source\mbedtls_open\library/md5.c ****     GET_UINT32_LE( X[ 1], data,  4 );
 222              		.loc 1 123 0
 223 0024 0B79     		ldrb	r3, [r1, #4]
 224 0026 4A79     		ldrb	r2, [r1, #5]
 225 0028 1202     		lsls	r2, r2, #8
 226 002a 1A43     		orrs	r2, r3
 227 002c 8C79     		ldrb	r4, [r1, #6]
 228 002e 2404     		lsls	r4, r4, #16
 229 0030 2243     		orrs	r2, r4
 230 0032 CB79     		ldrb	r3, [r1, #7]
 231 0034 1B06     		lsls	r3, r3, #24
 232 0036 1A43     		orrs	r2, r3
 233 0038 0092     		str	r2, [sp]
 124:Source\mbedtls_open\library/md5.c ****     GET_UINT32_LE( X[ 2], data,  8 );
 234              		.loc 1 124 0
 235 003a 0C7A     		ldrb	r4, [r1, #8]
 236 003c 4B7A     		ldrb	r3, [r1, #9]
 237 003e 1B02     		lsls	r3, r3, #8
 238 0040 2343     		orrs	r3, r4
 239 0042 8A7A     		ldrb	r2, [r1, #10]
 240 0044 1204     		lsls	r2, r2, #16
 241 0046 1343     		orrs	r3, r2
 242 0048 CC7A     		ldrb	r4, [r1, #11]
 243 004a 2406     		lsls	r4, r4, #24
 244 004c 2343     		orrs	r3, r4
 245 004e 0193     		str	r3, [sp, #4]
 125:Source\mbedtls_open\library/md5.c ****     GET_UINT32_LE( X[ 3], data, 12 );
 246              		.loc 1 125 0
 247 0050 0B7B     		ldrb	r3, [r1, #12]
 248 0052 4A7B     		ldrb	r2, [r1, #13]
 249 0054 1202     		lsls	r2, r2, #8
 250 0056 1A43     		orrs	r2, r3
 251 0058 8C7B     		ldrb	r4, [r1, #14]
 252 005a 2404     		lsls	r4, r4, #16
 253 005c 2243     		orrs	r2, r4
 254 005e CB7B     		ldrb	r3, [r1, #15]
 255 0060 1B06     		lsls	r3, r3, #24
 256 0062 1400     		movs	r4, r2
 257 0064 1C43     		orrs	r4, r3
 258 0066 0294     		str	r4, [sp, #8]
 126:Source\mbedtls_open\library/md5.c ****     GET_UINT32_LE( X[ 4], data, 16 );
 259              		.loc 1 126 0
 260 0068 0B7C     		ldrb	r3, [r1, #16]
 261 006a 4C7C     		ldrb	r4, [r1, #17]
 262 006c 2402     		lsls	r4, r4, #8
 263 006e 1C43     		orrs	r4, r3
 264 0070 8D7C     		ldrb	r5, [r1, #18]
 265 0072 2D04     		lsls	r5, r5, #16
 266 0074 2C43     		orrs	r4, r5
 267 0076 CB7C     		ldrb	r3, [r1, #19]
 268 0078 1B06     		lsls	r3, r3, #24
 269 007a 1C43     		orrs	r4, r3
 270 007c 0394     		str	r4, [sp, #12]
 127:Source\mbedtls_open\library/md5.c ****     GET_UINT32_LE( X[ 5], data, 20 );
 271              		.loc 1 127 0
 272 007e 0B7D     		ldrb	r3, [r1, #20]
ARM GAS  C:\Users\Phuong\AppData\Local\Temp\ccYkRU5p.s 			page 8


 273 0080 4A7D     		ldrb	r2, [r1, #21]
 274 0082 1202     		lsls	r2, r2, #8
 275 0084 1A43     		orrs	r2, r3
 276 0086 8C7D     		ldrb	r4, [r1, #22]
 277 0088 2404     		lsls	r4, r4, #16
 278 008a 2243     		orrs	r2, r4
 279 008c CB7D     		ldrb	r3, [r1, #23]
 280 008e 1B06     		lsls	r3, r3, #24
 281 0090 1500     		movs	r5, r2
 282 0092 1D43     		orrs	r5, r3
 283 0094 0495     		str	r5, [sp, #16]
 128:Source\mbedtls_open\library/md5.c ****     GET_UINT32_LE( X[ 6], data, 24 );
 284              		.loc 1 128 0
 285 0096 0B7E     		ldrb	r3, [r1, #24]
 286 0098 4A7E     		ldrb	r2, [r1, #25]
 287 009a 1202     		lsls	r2, r2, #8
 288 009c 1A43     		orrs	r2, r3
 289 009e 8C7E     		ldrb	r4, [r1, #26]
 290 00a0 2404     		lsls	r4, r4, #16
 291 00a2 2243     		orrs	r2, r4
 292 00a4 CB7E     		ldrb	r3, [r1, #27]
 293 00a6 1B06     		lsls	r3, r3, #24
 294 00a8 1600     		movs	r6, r2
 295 00aa 1E43     		orrs	r6, r3
 296 00ac 0596     		str	r6, [sp, #20]
 129:Source\mbedtls_open\library/md5.c ****     GET_UINT32_LE( X[ 7], data, 28 );
 297              		.loc 1 129 0
 298 00ae 0D7F     		ldrb	r5, [r1, #28]
 299 00b0 4B7F     		ldrb	r3, [r1, #29]
 300 00b2 1B02     		lsls	r3, r3, #8
 301 00b4 2B43     		orrs	r3, r5
 302 00b6 8A7F     		ldrb	r2, [r1, #30]
 303 00b8 1204     		lsls	r2, r2, #16
 304 00ba 1343     		orrs	r3, r2
 305 00bc CD7F     		ldrb	r5, [r1, #31]
 306 00be 2D06     		lsls	r5, r5, #24
 307 00c0 2B43     		orrs	r3, r5
 308 00c2 0693     		str	r3, [sp, #24]
 130:Source\mbedtls_open\library/md5.c ****     GET_UINT32_LE( X[ 8], data, 32 );
 309              		.loc 1 130 0
 310 00c4 2023     		movs	r3, #32
 311 00c6 CD5C     		ldrb	r5, [r1, r3]
 312 00c8 0133     		adds	r3, r3, #1
 313 00ca CC5C     		ldrb	r4, [r1, r3]
 314 00cc 2402     		lsls	r4, r4, #8
 315 00ce 2543     		orrs	r5, r4
 316 00d0 0133     		adds	r3, r3, #1
 317 00d2 CC5C     		ldrb	r4, [r1, r3]
 318 00d4 2404     		lsls	r4, r4, #16
 319 00d6 2C43     		orrs	r4, r5
 320 00d8 0133     		adds	r3, r3, #1
 321 00da CB5C     		ldrb	r3, [r1, r3]
 322 00dc 1B06     		lsls	r3, r3, #24
 323 00de 1C43     		orrs	r4, r3
 324 00e0 0794     		str	r4, [sp, #28]
 131:Source\mbedtls_open\library/md5.c ****     GET_UINT32_LE( X[ 9], data, 36 );
 325              		.loc 1 131 0
ARM GAS  C:\Users\Phuong\AppData\Local\Temp\ccYkRU5p.s 			page 9


 326 00e2 2423     		movs	r3, #36
 327 00e4 CC5C     		ldrb	r4, [r1, r3]
 328 00e6 0133     		adds	r3, r3, #1
 329 00e8 CB5C     		ldrb	r3, [r1, r3]
 330 00ea 1B02     		lsls	r3, r3, #8
 331 00ec 2200     		movs	r2, r4
 332 00ee 1A43     		orrs	r2, r3
 333 00f0 2623     		movs	r3, #38
 334 00f2 CB5C     		ldrb	r3, [r1, r3]
 335 00f4 1B04     		lsls	r3, r3, #16
 336 00f6 1343     		orrs	r3, r2
 337 00f8 2722     		movs	r2, #39
 338 00fa 8A5C     		ldrb	r2, [r1, r2]
 339 00fc 1206     		lsls	r2, r2, #24
 340 00fe 1343     		orrs	r3, r2
 341 0100 0893     		str	r3, [sp, #32]
 132:Source\mbedtls_open\library/md5.c ****     GET_UINT32_LE( X[10], data, 40 );
 342              		.loc 1 132 0
 343 0102 2823     		movs	r3, #40
 344 0104 CB5C     		ldrb	r3, [r1, r3]
 345 0106 2922     		movs	r2, #41
 346 0108 8A5C     		ldrb	r2, [r1, r2]
 347 010a 1202     		lsls	r2, r2, #8
 348 010c 1D00     		movs	r5, r3
 349 010e 1543     		orrs	r5, r2
 350 0110 2A23     		movs	r3, #42
 351 0112 CA5C     		ldrb	r2, [r1, r3]
 352 0114 1204     		lsls	r2, r2, #16
 353 0116 2A43     		orrs	r2, r5
 354 0118 0133     		adds	r3, r3, #1
 355 011a CB5C     		ldrb	r3, [r1, r3]
 356 011c 1B06     		lsls	r3, r3, #24
 357 011e 1A43     		orrs	r2, r3
 358 0120 0992     		str	r2, [sp, #36]
 133:Source\mbedtls_open\library/md5.c ****     GET_UINT32_LE( X[11], data, 44 );
 359              		.loc 1 133 0
 360 0122 2C23     		movs	r3, #44
 361 0124 CD5C     		ldrb	r5, [r1, r3]
 362 0126 0133     		adds	r3, r3, #1
 363 0128 CB5C     		ldrb	r3, [r1, r3]
 364 012a 1B02     		lsls	r3, r3, #8
 365 012c 1D43     		orrs	r5, r3
 366 012e 2E23     		movs	r3, #46
 367 0130 CB5C     		ldrb	r3, [r1, r3]
 368 0132 1B04     		lsls	r3, r3, #16
 369 0134 2B43     		orrs	r3, r5
 370 0136 2F22     		movs	r2, #47
 371 0138 8D5C     		ldrb	r5, [r1, r2]
 372 013a 2D06     		lsls	r5, r5, #24
 373 013c 1E00     		movs	r6, r3
 374 013e 2E43     		orrs	r6, r5
 375 0140 0A96     		str	r6, [sp, #40]
 134:Source\mbedtls_open\library/md5.c ****     GET_UINT32_LE( X[12], data, 48 );
 376              		.loc 1 134 0
 377 0142 3023     		movs	r3, #48
 378 0144 CB5C     		ldrb	r3, [r1, r3]
 379 0146 0232     		adds	r2, r2, #2
ARM GAS  C:\Users\Phuong\AppData\Local\Temp\ccYkRU5p.s 			page 10


 380 0148 8C5C     		ldrb	r4, [r1, r2]
 381 014a 2402     		lsls	r4, r4, #8
 382 014c 1D00     		movs	r5, r3
 383 014e 2543     		orrs	r5, r4
 384 0150 3223     		movs	r3, #50
 385 0152 CC5C     		ldrb	r4, [r1, r3]
 386 0154 2404     		lsls	r4, r4, #16
 387 0156 2C43     		orrs	r4, r5
 388 0158 0133     		adds	r3, r3, #1
 389 015a CB5C     		ldrb	r3, [r1, r3]
 390 015c 1B06     		lsls	r3, r3, #24
 391 015e 2500     		movs	r5, r4
 392 0160 1D43     		orrs	r5, r3
 393 0162 0B95     		str	r5, [sp, #44]
 135:Source\mbedtls_open\library/md5.c ****     GET_UINT32_LE( X[13], data, 52 );
 394              		.loc 1 135 0
 395 0164 3423     		movs	r3, #52
 396 0166 CC5C     		ldrb	r4, [r1, r3]
 397 0168 0133     		adds	r3, r3, #1
 398 016a CB5C     		ldrb	r3, [r1, r3]
 399 016c 1B02     		lsls	r3, r3, #8
 400 016e 2200     		movs	r2, r4
 401 0170 1A43     		orrs	r2, r3
 402 0172 3623     		movs	r3, #54
 403 0174 CB5C     		ldrb	r3, [r1, r3]
 404 0176 1B04     		lsls	r3, r3, #16
 405 0178 1343     		orrs	r3, r2
 406 017a 3722     		movs	r2, #55
 407 017c 8A5C     		ldrb	r2, [r1, r2]
 408 017e 1206     		lsls	r2, r2, #24
 409 0180 1343     		orrs	r3, r2
 410 0182 0C93     		str	r3, [sp, #48]
 136:Source\mbedtls_open\library/md5.c ****     GET_UINT32_LE( X[14], data, 56 );
 411              		.loc 1 136 0
 412 0184 3823     		movs	r3, #56
 413 0186 CC5C     		ldrb	r4, [r1, r3]
 414 0188 0133     		adds	r3, r3, #1
 415 018a CB5C     		ldrb	r3, [r1, r3]
 416 018c 1B02     		lsls	r3, r3, #8
 417 018e 2200     		movs	r2, r4
 418 0190 1A43     		orrs	r2, r3
 419 0192 3A23     		movs	r3, #58
 420 0194 CB5C     		ldrb	r3, [r1, r3]
 421 0196 1B04     		lsls	r3, r3, #16
 422 0198 1343     		orrs	r3, r2
 423 019a 3B22     		movs	r2, #59
 424 019c 8A5C     		ldrb	r2, [r1, r2]
 425 019e 1206     		lsls	r2, r2, #24
 426 01a0 1D00     		movs	r5, r3
 427 01a2 1543     		orrs	r5, r2
 428 01a4 0D95     		str	r5, [sp, #52]
 137:Source\mbedtls_open\library/md5.c ****     GET_UINT32_LE( X[15], data, 60 );
 429              		.loc 1 137 0
 430 01a6 3C23     		movs	r3, #60
 431 01a8 CA5C     		ldrb	r2, [r1, r3]
 432 01aa 0133     		adds	r3, r3, #1
 433 01ac CB5C     		ldrb	r3, [r1, r3]
ARM GAS  C:\Users\Phuong\AppData\Local\Temp\ccYkRU5p.s 			page 11


 434 01ae 1B02     		lsls	r3, r3, #8
 435 01b0 1A43     		orrs	r2, r3
 436 01b2 1400     		movs	r4, r2
 437 01b4 3E23     		movs	r3, #62
 438 01b6 CB5C     		ldrb	r3, [r1, r3]
 439 01b8 1A04     		lsls	r2, r3, #16
 440 01ba 1443     		orrs	r4, r2
 441 01bc 3F22     		movs	r2, #63
 442 01be 8A5C     		ldrb	r2, [r1, r2]
 443 01c0 1206     		lsls	r2, r2, #24
 444 01c2 2100     		movs	r1, r4
 445              	.LVL11:
 446 01c4 1143     		orrs	r1, r2
 447 01c6 8B46     		mov	fp, r1
 448              	.LVL12:
 138:Source\mbedtls_open\library/md5.c **** 
 139:Source\mbedtls_open\library/md5.c **** #define S(x,n) ((x << n) | ((x & 0xFFFFFFFF) >> (32 - n)))
 140:Source\mbedtls_open\library/md5.c **** 
 141:Source\mbedtls_open\library/md5.c **** #define P(a,b,c,d,k,s,t)                                \
 142:Source\mbedtls_open\library/md5.c **** {                                                       \
 143:Source\mbedtls_open\library/md5.c ****     a += F(b,c,d) + X[k] + t; a = S(a,s) + b;           \
 144:Source\mbedtls_open\library/md5.c **** }
 145:Source\mbedtls_open\library/md5.c **** 
 146:Source\mbedtls_open\library/md5.c ****     A = ctx->state[0];
 147:Source\mbedtls_open\library/md5.c ****     B = ctx->state[1];
 449              		.loc 1 147 0
 450 01c8 C168     		ldr	r1, [r0, #12]
 451 01ca 0A00     		movs	r2, r1
 452              	.LVL13:
 148:Source\mbedtls_open\library/md5.c ****     C = ctx->state[2];
 149:Source\mbedtls_open\library/md5.c ****     D = ctx->state[3];
 150:Source\mbedtls_open\library/md5.c **** 
 151:Source\mbedtls_open\library/md5.c **** #define F(x,y,z) (z ^ (x & (y ^ z)))
 152:Source\mbedtls_open\library/md5.c **** 
 153:Source\mbedtls_open\library/md5.c ****     P( A, B, C, D,  0,  7, 0xD76AA478 );
 453              		.loc 1 153 0
 454 01cc 0169     		ldr	r1, [r0, #16]
 455              	.LVL14:
 456 01ce 4569     		ldr	r5, [r0, #20]
 457 01d0 6940     		eors	r1, r5
 458 01d2 0E00     		movs	r6, r1
 459 01d4 1640     		ands	r6, r2
 460 01d6 6E40     		eors	r6, r5
 461 01d8 0E97     		str	r7, [sp, #56]
 462 01da B846     		mov	r8, r7
 463 01dc 4644     		add	r6, r6, r8
 464 01de 8168     		ldr	r1, [r0, #8]
 465 01e0 8846     		mov	r8, r1
 466 01e2 4644     		add	r6, r6, r8
 467 01e4 FE49     		ldr	r1, .L10
 468 01e6 8846     		mov	r8, r1
 469 01e8 4644     		add	r6, r6, r8
 470              	.LVL15:
 471 01ea 1923     		movs	r3, #25
 472 01ec DE41     		rors	r6, r6, r3
 473              	.LVL16:
 474 01ee 9446     		mov	ip, r2
ARM GAS  C:\Users\Phuong\AppData\Local\Temp\ccYkRU5p.s 			page 12


 475 01f0 6644     		add	r6, r6, ip
 476              	.LVL17:
 154:Source\mbedtls_open\library/md5.c ****     P( D, A, B, C,  1, 12, 0xE8C7B756 );
 477              		.loc 1 154 0
 478 01f2 0169     		ldr	r1, [r0, #16]
 479 01f4 1700     		movs	r7, r2
 480 01f6 5140     		eors	r1, r2
 481 01f8 0D00     		movs	r5, r1
 482 01fa 3540     		ands	r5, r6
 483 01fc 0169     		ldr	r1, [r0, #16]
 484 01fe 4D40     		eors	r5, r1
 485 0200 0099     		ldr	r1, [sp]
 486 0202 8846     		mov	r8, r1
 487 0204 4544     		add	r5, r5, r8
 488 0206 4269     		ldr	r2, [r0, #20]
 489              	.LVL18:
 490 0208 9046     		mov	r8, r2
 491 020a 4544     		add	r5, r5, r8
 492 020c F54A     		ldr	r2, .L10+4
 493 020e 9046     		mov	r8, r2
 494 0210 4544     		add	r5, r5, r8
 495              	.LVL19:
 496 0212 1422     		movs	r2, #20
 497 0214 9246     		mov	r10, r2
 498 0216 D541     		rors	r5, r5, r2
 499              	.LVL20:
 500 0218 7519     		adds	r5, r6, r5
 501              	.LVL21:
 155:Source\mbedtls_open\library/md5.c ****     P( C, D, A, B,  2, 17, 0x242070DB );
 502              		.loc 1 155 0
 503 021a 6246     		mov	r2, ip
 504 021c 7240     		eors	r2, r6
 505 021e 1400     		movs	r4, r2
 506 0220 2C40     		ands	r4, r5
 507 0222 7C40     		eors	r4, r7
 508 0224 019A     		ldr	r2, [sp, #4]
 509 0226 9046     		mov	r8, r2
 510 0228 4444     		add	r4, r4, r8
 511 022a 0169     		ldr	r1, [r0, #16]
 512 022c 8846     		mov	r8, r1
 513 022e 4444     		add	r4, r4, r8
 514 0230 ED49     		ldr	r1, .L10+8
 515 0232 8846     		mov	r8, r1
 516 0234 4444     		add	r4, r4, r8
 517              	.LVL22:
 518 0236 0F21     		movs	r1, #15
 519 0238 8946     		mov	r9, r1
 520 023a CC41     		rors	r4, r4, r1
 521              	.LVL23:
 522 023c 2C19     		adds	r4, r5, r4
 523              	.LVL24:
 156:Source\mbedtls_open\library/md5.c ****     P( B, C, D, A,  3, 22, 0xC1BDCEEE );
 524              		.loc 1 156 0
 525 023e 3200     		movs	r2, r6
 526 0240 6A40     		eors	r2, r5
 527 0242 2240     		ands	r2, r4
 528 0244 7240     		eors	r2, r6
ARM GAS  C:\Users\Phuong\AppData\Local\Temp\ccYkRU5p.s 			page 13


 529 0246 0299     		ldr	r1, [sp, #8]
 530 0248 8846     		mov	r8, r1
 531 024a 4244     		add	r2, r2, r8
 532 024c 0F97     		str	r7, [sp, #60]
 533 024e 6244     		add	r2, r2, ip
 534 0250 E649     		ldr	r1, .L10+12
 535 0252 8846     		mov	r8, r1
 536 0254 4244     		add	r2, r2, r8
 537              	.LVL25:
 538 0256 0A21     		movs	r1, #10
 539 0258 8846     		mov	r8, r1
 540 025a CA41     		rors	r2, r2, r1
 541              	.LVL26:
 542 025c A218     		adds	r2, r4, r2
 543              	.LVL27:
 157:Source\mbedtls_open\library/md5.c ****     P( A, B, C, D,  4,  7, 0xF57C0FAF );
 544              		.loc 1 157 0
 545 025e 2900     		movs	r1, r5
 546 0260 6140     		eors	r1, r4
 547 0262 1140     		ands	r1, r2
 548 0264 6940     		eors	r1, r5
 549 0266 039F     		ldr	r7, [sp, #12]
 550 0268 BC46     		mov	ip, r7
 551 026a 6144     		add	r1, r1, ip
 552 026c 7618     		adds	r6, r6, r1
 553              	.LVL28:
 554 026e E049     		ldr	r1, .L10+16
 555 0270 8C46     		mov	ip, r1
 556 0272 6644     		add	r6, r6, ip
 557              	.LVL29:
 558 0274 DE41     		rors	r6, r6, r3
 559              	.LVL30:
 560 0276 9619     		adds	r6, r2, r6
 561              	.LVL31:
 158:Source\mbedtls_open\library/md5.c ****     P( D, A, B, C,  5, 12, 0x4787C62A );
 562              		.loc 1 158 0
 563 0278 2100     		movs	r1, r4
 564 027a 5140     		eors	r1, r2
 565 027c 3140     		ands	r1, r6
 566 027e 6140     		eors	r1, r4
 567 0280 049F     		ldr	r7, [sp, #16]
 568 0282 BC46     		mov	ip, r7
 569 0284 6144     		add	r1, r1, ip
 570 0286 6D18     		adds	r5, r5, r1
 571              	.LVL32:
 572 0288 DA49     		ldr	r1, .L10+20
 573 028a 8C46     		mov	ip, r1
 574 028c 6544     		add	r5, r5, ip
 575              	.LVL33:
 576 028e 5146     		mov	r1, r10
 577 0290 CD41     		rors	r5, r5, r1
 578              	.LVL34:
 579 0292 7519     		adds	r5, r6, r5
 580              	.LVL35:
 159:Source\mbedtls_open\library/md5.c ****     P( C, D, A, B,  6, 17, 0xA8304613 );
 581              		.loc 1 159 0
 582 0294 1100     		movs	r1, r2
ARM GAS  C:\Users\Phuong\AppData\Local\Temp\ccYkRU5p.s 			page 14


 583 0296 7140     		eors	r1, r6
 584 0298 2940     		ands	r1, r5
 585 029a 5140     		eors	r1, r2
 586 029c 059F     		ldr	r7, [sp, #20]
 587 029e BC46     		mov	ip, r7
 588 02a0 6144     		add	r1, r1, ip
 589 02a2 6418     		adds	r4, r4, r1
 590              	.LVL36:
 591 02a4 D449     		ldr	r1, .L10+24
 592 02a6 8C46     		mov	ip, r1
 593 02a8 6444     		add	r4, r4, ip
 594              	.LVL37:
 595 02aa 4946     		mov	r1, r9
 596 02ac CC41     		rors	r4, r4, r1
 597              	.LVL38:
 598 02ae 2C19     		adds	r4, r5, r4
 599              	.LVL39:
 160:Source\mbedtls_open\library/md5.c ****     P( B, C, D, A,  7, 22, 0xFD469501 );
 600              		.loc 1 160 0
 601 02b0 3100     		movs	r1, r6
 602 02b2 6940     		eors	r1, r5
 603 02b4 2140     		ands	r1, r4
 604 02b6 7140     		eors	r1, r6
 605 02b8 069F     		ldr	r7, [sp, #24]
 606 02ba BC46     		mov	ip, r7
 607 02bc 6144     		add	r1, r1, ip
 608 02be 5118     		adds	r1, r2, r1
 609 02c0 CE4A     		ldr	r2, .L10+28
 610              	.LVL40:
 611 02c2 9446     		mov	ip, r2
 612 02c4 6144     		add	r1, r1, ip
 613              	.LVL41:
 614 02c6 4246     		mov	r2, r8
 615 02c8 D141     		rors	r1, r1, r2
 616              	.LVL42:
 617 02ca 6118     		adds	r1, r4, r1
 618              	.LVL43:
 161:Source\mbedtls_open\library/md5.c ****     P( A, B, C, D,  8,  7, 0x698098D8 );
 619              		.loc 1 161 0
 620 02cc 2A00     		movs	r2, r5
 621 02ce 6240     		eors	r2, r4
 622 02d0 0A40     		ands	r2, r1
 623 02d2 6A40     		eors	r2, r5
 624 02d4 079F     		ldr	r7, [sp, #28]
 625 02d6 BC46     		mov	ip, r7
 626 02d8 6244     		add	r2, r2, ip
 627 02da B618     		adds	r6, r6, r2
 628              	.LVL44:
 629 02dc C84A     		ldr	r2, .L10+32
 630 02de 9446     		mov	ip, r2
 631 02e0 6644     		add	r6, r6, ip
 632              	.LVL45:
 633 02e2 DE41     		rors	r6, r6, r3
 634              	.LVL46:
 635 02e4 8E19     		adds	r6, r1, r6
 636              	.LVL47:
 162:Source\mbedtls_open\library/md5.c ****     P( D, A, B, C,  9, 12, 0x8B44F7AF );
ARM GAS  C:\Users\Phuong\AppData\Local\Temp\ccYkRU5p.s 			page 15


 637              		.loc 1 162 0
 638 02e6 2200     		movs	r2, r4
 639 02e8 4A40     		eors	r2, r1
 640 02ea 3240     		ands	r2, r6
 641 02ec 6240     		eors	r2, r4
 642 02ee 089F     		ldr	r7, [sp, #32]
 643 02f0 BC46     		mov	ip, r7
 644 02f2 6244     		add	r2, r2, ip
 645 02f4 AD18     		adds	r5, r5, r2
 646              	.LVL48:
 647 02f6 C34A     		ldr	r2, .L10+36
 648 02f8 9446     		mov	ip, r2
 649 02fa 6544     		add	r5, r5, ip
 650              	.LVL49:
 651 02fc 5246     		mov	r2, r10
 652 02fe D541     		rors	r5, r5, r2
 653              	.LVL50:
 654 0300 7519     		adds	r5, r6, r5
 655              	.LVL51:
 163:Source\mbedtls_open\library/md5.c ****     P( C, D, A, B, 10, 17, 0xFFFF5BB1 );
 656              		.loc 1 163 0
 657 0302 0A00     		movs	r2, r1
 658 0304 7240     		eors	r2, r6
 659 0306 2A40     		ands	r2, r5
 660 0308 4A40     		eors	r2, r1
 661 030a 099F     		ldr	r7, [sp, #36]
 662 030c BC46     		mov	ip, r7
 663 030e 6244     		add	r2, r2, ip
 664 0310 A418     		adds	r4, r4, r2
 665              	.LVL52:
 666 0312 BD4A     		ldr	r2, .L10+40
 667 0314 9446     		mov	ip, r2
 668 0316 6444     		add	r4, r4, ip
 669              	.LVL53:
 670 0318 4A46     		mov	r2, r9
 671 031a D441     		rors	r4, r4, r2
 672              	.LVL54:
 673 031c 2C19     		adds	r4, r5, r4
 674              	.LVL55:
 164:Source\mbedtls_open\library/md5.c ****     P( B, C, D, A, 11, 22, 0x895CD7BE );
 675              		.loc 1 164 0
 676 031e 3200     		movs	r2, r6
 677 0320 6A40     		eors	r2, r5
 678 0322 2240     		ands	r2, r4
 679 0324 7240     		eors	r2, r6
 680 0326 0A9F     		ldr	r7, [sp, #40]
 681 0328 BC46     		mov	ip, r7
 682 032a 6244     		add	r2, r2, ip
 683 032c 8A18     		adds	r2, r1, r2
 684 032e B749     		ldr	r1, .L10+44
 685              	.LVL56:
 686 0330 8C46     		mov	ip, r1
 687 0332 6244     		add	r2, r2, ip
 688              	.LVL57:
 689 0334 4146     		mov	r1, r8
 690 0336 CA41     		rors	r2, r2, r1
 691              	.LVL58:
ARM GAS  C:\Users\Phuong\AppData\Local\Temp\ccYkRU5p.s 			page 16


 692 0338 A218     		adds	r2, r4, r2
 693              	.LVL59:
 165:Source\mbedtls_open\library/md5.c ****     P( A, B, C, D, 12,  7, 0x6B901122 );
 694              		.loc 1 165 0
 695 033a 2900     		movs	r1, r5
 696 033c 6140     		eors	r1, r4
 697 033e 1140     		ands	r1, r2
 698 0340 6940     		eors	r1, r5
 699 0342 0B9F     		ldr	r7, [sp, #44]
 700 0344 BC46     		mov	ip, r7
 701 0346 6144     		add	r1, r1, ip
 702 0348 7618     		adds	r6, r6, r1
 703              	.LVL60:
 704 034a B149     		ldr	r1, .L10+48
 705 034c 8C46     		mov	ip, r1
 706 034e 6644     		add	r6, r6, ip
 707              	.LVL61:
 708 0350 DE41     		rors	r6, r6, r3
 709              	.LVL62:
 710 0352 9319     		adds	r3, r2, r6
 711              	.LVL63:
 166:Source\mbedtls_open\library/md5.c ****     P( D, A, B, C, 13, 12, 0xFD987193 );
 712              		.loc 1 166 0
 713 0354 2600     		movs	r6, r4
 714 0356 5640     		eors	r6, r2
 715 0358 3100     		movs	r1, r6
 716 035a 1940     		ands	r1, r3
 717 035c 6140     		eors	r1, r4
 718 035e 0C9E     		ldr	r6, [sp, #48]
 719 0360 B446     		mov	ip, r6
 720 0362 6144     		add	r1, r1, ip
 721 0364 6D18     		adds	r5, r5, r1
 722              	.LVL64:
 723 0366 AB4E     		ldr	r6, .L10+52
 724 0368 B446     		mov	ip, r6
 725 036a 6544     		add	r5, r5, ip
 726              	.LVL65:
 727 036c 5646     		mov	r6, r10
 728 036e F541     		rors	r5, r5, r6
 729              	.LVL66:
 730 0370 5D19     		adds	r5, r3, r5
 731              	.LVL67:
 167:Source\mbedtls_open\library/md5.c ****     P( C, D, A, B, 14, 17, 0xA679438E );
 732              		.loc 1 167 0
 733 0372 1100     		movs	r1, r2
 734 0374 5940     		eors	r1, r3
 735 0376 2940     		ands	r1, r5
 736 0378 5140     		eors	r1, r2
 737 037a 0D9E     		ldr	r6, [sp, #52]
 738 037c B446     		mov	ip, r6
 739 037e 6144     		add	r1, r1, ip
 740 0380 6418     		adds	r4, r4, r1
 741              	.LVL68:
 742 0382 A54E     		ldr	r6, .L10+56
 743 0384 B446     		mov	ip, r6
 744 0386 6444     		add	r4, r4, ip
 745              	.LVL69:
ARM GAS  C:\Users\Phuong\AppData\Local\Temp\ccYkRU5p.s 			page 17


 746 0388 4E46     		mov	r6, r9
 747 038a F441     		rors	r4, r4, r6
 748              	.LVL70:
 749 038c 2C19     		adds	r4, r5, r4
 750              	.LVL71:
 168:Source\mbedtls_open\library/md5.c ****     P( B, C, D, A, 15, 22, 0x49B40821 );
 751              		.loc 1 168 0
 752 038e 1900     		movs	r1, r3
 753 0390 6940     		eors	r1, r5
 754 0392 2140     		ands	r1, r4
 755 0394 5940     		eors	r1, r3
 756 0396 5944     		add	r1, r1, fp
 757 0398 5118     		adds	r1, r2, r1
 758 039a A04A     		ldr	r2, .L10+60
 759              	.LVL72:
 760 039c 9446     		mov	ip, r2
 761 039e 6144     		add	r1, r1, ip
 762              	.LVL73:
 763 03a0 4246     		mov	r2, r8
 764 03a2 D141     		rors	r1, r1, r2
 765              	.LVL74:
 766 03a4 6118     		adds	r1, r4, r1
 767              	.LVL75:
 169:Source\mbedtls_open\library/md5.c **** 
 170:Source\mbedtls_open\library/md5.c **** #undef F
 171:Source\mbedtls_open\library/md5.c **** 
 172:Source\mbedtls_open\library/md5.c **** #define F(x,y,z) (y ^ (z & (x ^ y)))
 173:Source\mbedtls_open\library/md5.c **** 
 174:Source\mbedtls_open\library/md5.c ****     P( A, B, C, D,  1,  5, 0xF61E2562 );
 768              		.loc 1 174 0
 769 03a6 2600     		movs	r6, r4
 770 03a8 4E40     		eors	r6, r1
 771 03aa 2E40     		ands	r6, r5
 772 03ac 6640     		eors	r6, r4
 773 03ae 009A     		ldr	r2, [sp]
 774 03b0 9046     		mov	r8, r2
 775 03b2 4644     		add	r6, r6, r8
 776 03b4 9E19     		adds	r6, r3, r6
 777 03b6 9A4B     		ldr	r3, .L10+64
 778              	.LVL76:
 779 03b8 9C46     		mov	ip, r3
 780 03ba 6644     		add	r6, r6, ip
 781              	.LVL77:
 782 03bc 1B22     		movs	r2, #27
 783 03be D641     		rors	r6, r6, r2
 784              	.LVL78:
 785 03c0 8E19     		adds	r6, r1, r6
 786              	.LVL79:
 175:Source\mbedtls_open\library/md5.c ****     P( D, A, B, C,  6,  9, 0xC040B340 );
 787              		.loc 1 175 0
 788 03c2 0B00     		movs	r3, r1
 789 03c4 7340     		eors	r3, r6
 790 03c6 2340     		ands	r3, r4
 791 03c8 4B40     		eors	r3, r1
 792 03ca 059F     		ldr	r7, [sp, #20]
 793 03cc BC46     		mov	ip, r7
 794 03ce 6344     		add	r3, r3, ip
ARM GAS  C:\Users\Phuong\AppData\Local\Temp\ccYkRU5p.s 			page 18


 795 03d0 ED18     		adds	r5, r5, r3
 796              	.LVL80:
 797 03d2 944B     		ldr	r3, .L10+68
 798 03d4 9C46     		mov	ip, r3
 799 03d6 6544     		add	r5, r5, ip
 800              	.LVL81:
 801 03d8 1723     		movs	r3, #23
 802 03da DD41     		rors	r5, r5, r3
 803              	.LVL82:
 804 03dc 7519     		adds	r5, r6, r5
 805              	.LVL83:
 176:Source\mbedtls_open\library/md5.c ****     P( C, D, A, B, 11, 14, 0x265E5A51 );
 806              		.loc 1 176 0
 807 03de 3700     		movs	r7, r6
 808 03e0 6F40     		eors	r7, r5
 809 03e2 0F40     		ands	r7, r1
 810 03e4 7740     		eors	r7, r6
 811 03e6 B846     		mov	r8, r7
 812 03e8 0A9F     		ldr	r7, [sp, #40]
 813 03ea BC46     		mov	ip, r7
 814 03ec E044     		add	r8, r8, ip
 815 03ee 4444     		add	r4, r4, r8
 816              	.LVL84:
 817 03f0 8D4F     		ldr	r7, .L10+72
 818 03f2 BC46     		mov	ip, r7
 819 03f4 6444     		add	r4, r4, ip
 820              	.LVL85:
 821 03f6 1227     		movs	r7, #18
 822 03f8 B946     		mov	r9, r7
 823 03fa FC41     		rors	r4, r4, r7
 824              	.LVL86:
 825 03fc 2C19     		adds	r4, r5, r4
 826              	.LVL87:
 177:Source\mbedtls_open\library/md5.c ****     P( B, C, D, A,  0, 20, 0xE9B6C7AA );
 827              		.loc 1 177 0
 828 03fe 2F00     		movs	r7, r5
 829 0400 6740     		eors	r7, r4
 830 0402 3740     		ands	r7, r6
 831 0404 6F40     		eors	r7, r5
 832 0406 B846     		mov	r8, r7
 833 0408 0E9F     		ldr	r7, [sp, #56]
 834 040a BC46     		mov	ip, r7
 835 040c E044     		add	r8, r8, ip
 836 040e 4144     		add	r1, r1, r8
 837              	.LVL88:
 838 0410 864F     		ldr	r7, .L10+76
 839 0412 BC46     		mov	ip, r7
 840 0414 6144     		add	r1, r1, ip
 841              	.LVL89:
 842 0416 0C27     		movs	r7, #12
 843 0418 B846     		mov	r8, r7
 844 041a F941     		rors	r1, r1, r7
 845              	.LVL90:
 846 041c 6118     		adds	r1, r4, r1
 847              	.LVL91:
 178:Source\mbedtls_open\library/md5.c ****     P( A, B, C, D,  5,  5, 0xD62F105D );
 848              		.loc 1 178 0
ARM GAS  C:\Users\Phuong\AppData\Local\Temp\ccYkRU5p.s 			page 19


 849 041e 2700     		movs	r7, r4
 850 0420 4F40     		eors	r7, r1
 851 0422 2F40     		ands	r7, r5
 852 0424 6740     		eors	r7, r4
 853 0426 BA46     		mov	r10, r7
 854 0428 049F     		ldr	r7, [sp, #16]
 855 042a BC46     		mov	ip, r7
 856 042c E244     		add	r10, r10, ip
 857 042e 5644     		add	r6, r6, r10
 858              	.LVL92:
 859 0430 7F4F     		ldr	r7, .L10+80
 860 0432 BC46     		mov	ip, r7
 861 0434 6644     		add	r6, r6, ip
 862              	.LVL93:
 863 0436 D641     		rors	r6, r6, r2
 864              	.LVL94:
 865 0438 8E19     		adds	r6, r1, r6
 866              	.LVL95:
 179:Source\mbedtls_open\library/md5.c ****     P( D, A, B, C, 10,  9, 0x02441453 );
 867              		.loc 1 179 0
 868 043a 0F00     		movs	r7, r1
 869 043c 7740     		eors	r7, r6
 870 043e 2740     		ands	r7, r4
 871 0440 4F40     		eors	r7, r1
 872 0442 BA46     		mov	r10, r7
 873 0444 099F     		ldr	r7, [sp, #36]
 874 0446 BC46     		mov	ip, r7
 875 0448 E244     		add	r10, r10, ip
 876 044a 5544     		add	r5, r5, r10
 877              	.LVL96:
 878 044c 794F     		ldr	r7, .L10+84
 879 044e BC46     		mov	ip, r7
 880 0450 6544     		add	r5, r5, ip
 881              	.LVL97:
 882 0452 DD41     		rors	r5, r5, r3
 883              	.LVL98:
 884 0454 7519     		adds	r5, r6, r5
 885              	.LVL99:
 180:Source\mbedtls_open\library/md5.c ****     P( C, D, A, B, 15, 14, 0xD8A1E681 );
 886              		.loc 1 180 0
 887 0456 3700     		movs	r7, r6
 888 0458 6F40     		eors	r7, r5
 889 045a 0F40     		ands	r7, r1
 890 045c 7740     		eors	r7, r6
 891 045e BA46     		mov	r10, r7
 892 0460 DA44     		add	r10, r10, fp
 893 0462 5444     		add	r4, r4, r10
 894              	.LVL100:
 895 0464 744F     		ldr	r7, .L10+88
 896 0466 BC46     		mov	ip, r7
 897 0468 6444     		add	r4, r4, ip
 898              	.LVL101:
 899 046a 4F46     		mov	r7, r9
 900 046c FC41     		rors	r4, r4, r7
 901              	.LVL102:
 902 046e 2C19     		adds	r4, r5, r4
 903              	.LVL103:
ARM GAS  C:\Users\Phuong\AppData\Local\Temp\ccYkRU5p.s 			page 20


 181:Source\mbedtls_open\library/md5.c ****     P( B, C, D, A,  4, 20, 0xE7D3FBC8 );
 904              		.loc 1 181 0
 905 0470 2F00     		movs	r7, r5
 906 0472 6740     		eors	r7, r4
 907 0474 3740     		ands	r7, r6
 908 0476 6F40     		eors	r7, r5
 909 0478 BA46     		mov	r10, r7
 910 047a 039F     		ldr	r7, [sp, #12]
 911 047c BC46     		mov	ip, r7
 912 047e E244     		add	r10, r10, ip
 913 0480 5144     		add	r1, r1, r10
 914              	.LVL104:
 915 0482 6E4F     		ldr	r7, .L10+92
 916 0484 BC46     		mov	ip, r7
 917 0486 6144     		add	r1, r1, ip
 918              	.LVL105:
 919 0488 4746     		mov	r7, r8
 920 048a F941     		rors	r1, r1, r7
 921              	.LVL106:
 922 048c 6118     		adds	r1, r4, r1
 923              	.LVL107:
 182:Source\mbedtls_open\library/md5.c ****     P( A, B, C, D,  9,  5, 0x21E1CDE6 );
 924              		.loc 1 182 0
 925 048e 2700     		movs	r7, r4
 926 0490 4F40     		eors	r7, r1
 927 0492 2F40     		ands	r7, r5
 928 0494 6740     		eors	r7, r4
 929 0496 BA46     		mov	r10, r7
 930 0498 089F     		ldr	r7, [sp, #32]
 931 049a BC46     		mov	ip, r7
 932 049c E244     		add	r10, r10, ip
 933 049e 5644     		add	r6, r6, r10
 934              	.LVL108:
 935 04a0 674F     		ldr	r7, .L10+96
 936 04a2 BC46     		mov	ip, r7
 937 04a4 6644     		add	r6, r6, ip
 938              	.LVL109:
 939 04a6 D641     		rors	r6, r6, r2
 940              	.LVL110:
 941 04a8 8E19     		adds	r6, r1, r6
 942              	.LVL111:
 183:Source\mbedtls_open\library/md5.c ****     P( D, A, B, C, 14,  9, 0xC33707D6 );
 943              		.loc 1 183 0
 944 04aa 0F00     		movs	r7, r1
 945 04ac 7740     		eors	r7, r6
 946 04ae 2740     		ands	r7, r4
 947 04b0 4F40     		eors	r7, r1
 948 04b2 BA46     		mov	r10, r7
 949 04b4 0D9F     		ldr	r7, [sp, #52]
 950 04b6 BC46     		mov	ip, r7
 951 04b8 E244     		add	r10, r10, ip
 952 04ba 5544     		add	r5, r5, r10
 953              	.LVL112:
 954 04bc 614F     		ldr	r7, .L10+100
 955 04be BC46     		mov	ip, r7
 956 04c0 6544     		add	r5, r5, ip
 957              	.LVL113:
ARM GAS  C:\Users\Phuong\AppData\Local\Temp\ccYkRU5p.s 			page 21


 958 04c2 DD41     		rors	r5, r5, r3
 959              	.LVL114:
 960 04c4 7519     		adds	r5, r6, r5
 961              	.LVL115:
 184:Source\mbedtls_open\library/md5.c ****     P( C, D, A, B,  3, 14, 0xF4D50D87 );
 962              		.loc 1 184 0
 963 04c6 3700     		movs	r7, r6
 964 04c8 6F40     		eors	r7, r5
 965 04ca 0F40     		ands	r7, r1
 966 04cc 7740     		eors	r7, r6
 967 04ce BA46     		mov	r10, r7
 968 04d0 029F     		ldr	r7, [sp, #8]
 969 04d2 BC46     		mov	ip, r7
 970 04d4 E244     		add	r10, r10, ip
 971 04d6 5444     		add	r4, r4, r10
 972              	.LVL116:
 973 04d8 5B4F     		ldr	r7, .L10+104
 974 04da BC46     		mov	ip, r7
 975 04dc 6444     		add	r4, r4, ip
 976              	.LVL117:
 977 04de 4F46     		mov	r7, r9
 978 04e0 FC41     		rors	r4, r4, r7
 979              	.LVL118:
 980 04e2 2C19     		adds	r4, r5, r4
 981              	.LVL119:
 185:Source\mbedtls_open\library/md5.c ****     P( B, C, D, A,  8, 20, 0x455A14ED );
 982              		.loc 1 185 0
 983 04e4 2F00     		movs	r7, r5
 984 04e6 6740     		eors	r7, r4
 985 04e8 3740     		ands	r7, r6
 986 04ea 6F40     		eors	r7, r5
 987 04ec BA46     		mov	r10, r7
 988 04ee 079F     		ldr	r7, [sp, #28]
 989 04f0 BC46     		mov	ip, r7
 990 04f2 E244     		add	r10, r10, ip
 991 04f4 5144     		add	r1, r1, r10
 992              	.LVL120:
 993 04f6 554F     		ldr	r7, .L10+108
 994 04f8 BC46     		mov	ip, r7
 995 04fa 6144     		add	r1, r1, ip
 996              	.LVL121:
 997 04fc 4746     		mov	r7, r8
 998 04fe F941     		rors	r1, r1, r7
 999              	.LVL122:
 1000 0500 6118     		adds	r1, r4, r1
 1001              	.LVL123:
 186:Source\mbedtls_open\library/md5.c ****     P( A, B, C, D, 13,  5, 0xA9E3E905 );
 1002              		.loc 1 186 0
 1003 0502 2700     		movs	r7, r4
 1004 0504 4F40     		eors	r7, r1
 1005 0506 2F40     		ands	r7, r5
 1006 0508 6740     		eors	r7, r4
 1007 050a BA46     		mov	r10, r7
 1008 050c 0C9F     		ldr	r7, [sp, #48]
 1009 050e BC46     		mov	ip, r7
 1010 0510 E244     		add	r10, r10, ip
 1011 0512 5644     		add	r6, r6, r10
ARM GAS  C:\Users\Phuong\AppData\Local\Temp\ccYkRU5p.s 			page 22


 1012              	.LVL124:
 1013 0514 4E4F     		ldr	r7, .L10+112
 1014 0516 BC46     		mov	ip, r7
 1015 0518 6644     		add	r6, r6, ip
 1016              	.LVL125:
 1017 051a D641     		rors	r6, r6, r2
 1018              	.LVL126:
 1019 051c 8A19     		adds	r2, r1, r6
 1020              	.LVL127:
 187:Source\mbedtls_open\library/md5.c ****     P( D, A, B, C,  2,  9, 0xFCEFA3F8 );
 1021              		.loc 1 187 0
 1022 051e 0E00     		movs	r6, r1
 1023 0520 5640     		eors	r6, r2
 1024 0522 2640     		ands	r6, r4
 1025 0524 4E40     		eors	r6, r1
 1026 0526 019F     		ldr	r7, [sp, #4]
 1027 0528 BC46     		mov	ip, r7
 1028 052a 6644     		add	r6, r6, ip
 1029 052c AD19     		adds	r5, r5, r6
 1030              	.LVL128:
 1031 052e 494E     		ldr	r6, .L10+116
 1032 0530 B446     		mov	ip, r6
 1033 0532 6544     		add	r5, r5, ip
 1034              	.LVL129:
 1035 0534 DD41     		rors	r5, r5, r3
 1036              	.LVL130:
 1037 0536 5319     		adds	r3, r2, r5
 1038              	.LVL131:
 188:Source\mbedtls_open\library/md5.c ****     P( C, D, A, B,  7, 14, 0x676F02D9 );
 1039              		.loc 1 188 0
 1040 0538 1500     		movs	r5, r2
 1041 053a 5D40     		eors	r5, r3
 1042 053c 0D40     		ands	r5, r1
 1043 053e 5540     		eors	r5, r2
 1044 0540 069E     		ldr	r6, [sp, #24]
 1045 0542 B446     		mov	ip, r6
 1046 0544 6544     		add	r5, r5, ip
 1047 0546 6419     		adds	r4, r4, r5
 1048              	.LVL132:
 1049 0548 434D     		ldr	r5, .L10+120
 1050 054a AC46     		mov	ip, r5
 1051 054c 6444     		add	r4, r4, ip
 1052              	.LVL133:
 1053 054e 4D46     		mov	r5, r9
 1054 0550 EC41     		rors	r4, r4, r5
 1055              	.LVL134:
 1056 0552 1C19     		adds	r4, r3, r4
 1057              	.LVL135:
 189:Source\mbedtls_open\library/md5.c ****     P( B, C, D, A, 12, 20, 0x8D2A4C8A );
 1058              		.loc 1 189 0
 1059 0554 1D00     		movs	r5, r3
 1060 0556 6540     		eors	r5, r4
 1061 0558 1540     		ands	r5, r2
 1062 055a 5D40     		eors	r5, r3
 1063 055c 0B9E     		ldr	r6, [sp, #44]
 1064 055e B446     		mov	ip, r6
 1065 0560 6544     		add	r5, r5, ip
ARM GAS  C:\Users\Phuong\AppData\Local\Temp\ccYkRU5p.s 			page 23


 1066 0562 4919     		adds	r1, r1, r5
 1067              	.LVL136:
 1068 0564 3D4D     		ldr	r5, .L10+124
 1069 0566 AC46     		mov	ip, r5
 1070 0568 6144     		add	r1, r1, ip
 1071              	.LVL137:
 1072 056a 4546     		mov	r5, r8
 1073 056c E941     		rors	r1, r1, r5
 1074              	.LVL138:
 1075 056e 6118     		adds	r1, r4, r1
 1076              	.LVL139:
 190:Source\mbedtls_open\library/md5.c **** 
 191:Source\mbedtls_open\library/md5.c **** #undef F
 192:Source\mbedtls_open\library/md5.c **** 
 193:Source\mbedtls_open\library/md5.c **** #define F(x,y,z) (x ^ y ^ z)
 194:Source\mbedtls_open\library/md5.c **** 
 195:Source\mbedtls_open\library/md5.c ****     P( A, B, C, D,  5,  4, 0xFFFA3942 );
 1077              		.loc 1 195 0
 1078 0570 2500     		movs	r5, r4
 1079 0572 4D40     		eors	r5, r1
 1080 0574 5D40     		eors	r5, r3
 1081 0576 049E     		ldr	r6, [sp, #16]
 1082 0578 B446     		mov	ip, r6
 1083 057a 6544     		add	r5, r5, ip
 1084 057c 5219     		adds	r2, r2, r5
 1085              	.LVL140:
 1086 057e 384D     		ldr	r5, .L10+128
 1087 0580 AC46     		mov	ip, r5
 1088 0582 6244     		add	r2, r2, ip
 1089              	.LVL141:
 1090 0584 1C26     		movs	r6, #28
 1091 0586 F241     		rors	r2, r2, r6
 1092              	.LVL142:
 1093 0588 8A18     		adds	r2, r1, r2
 1094              	.LVL143:
 196:Source\mbedtls_open\library/md5.c ****     P( D, A, B, C,  8, 11, 0x8771F681 );
 1095              		.loc 1 196 0
 1096 058a 0D00     		movs	r5, r1
 1097 058c 5540     		eors	r5, r2
 1098 058e 6540     		eors	r5, r4
 1099 0590 079F     		ldr	r7, [sp, #28]
 1100 0592 BC46     		mov	ip, r7
 1101 0594 6544     		add	r5, r5, ip
 1102 0596 5B19     		adds	r3, r3, r5
 1103              	.LVL144:
 1104 0598 324D     		ldr	r5, .L10+132
 1105 059a AC46     		mov	ip, r5
 1106 059c 6344     		add	r3, r3, ip
 1107              	.LVL145:
 1108 059e 1525     		movs	r5, #21
 1109 05a0 A846     		mov	r8, r5
 1110 05a2 EB41     		rors	r3, r3, r5
 1111              	.LVL146:
 1112 05a4 D318     		adds	r3, r2, r3
 1113              	.LVL147:
 197:Source\mbedtls_open\library/md5.c ****     P( C, D, A, B, 11, 16, 0x6D9D6122 );
 1114              		.loc 1 197 0
ARM GAS  C:\Users\Phuong\AppData\Local\Temp\ccYkRU5p.s 			page 24


 1115 05a6 1500     		movs	r5, r2
 1116 05a8 5D40     		eors	r5, r3
 1117 05aa 4D40     		eors	r5, r1
 1118 05ac 0A9F     		ldr	r7, [sp, #40]
 1119 05ae BC46     		mov	ip, r7
 1120 05b0 6544     		add	r5, r5, ip
 1121 05b2 6419     		adds	r4, r4, r5
 1122              	.LVL148:
 1123 05b4 2C4D     		ldr	r5, .L10+136
 1124 05b6 AC46     		mov	ip, r5
 1125 05b8 6444     		add	r4, r4, ip
 1126              	.LVL149:
 1127 05ba 1025     		movs	r5, #16
 1128 05bc A946     		mov	r9, r5
 1129 05be EC41     		rors	r4, r4, r5
 1130              	.LVL150:
 1131 05c0 1C19     		adds	r4, r3, r4
 1132              	.LVL151:
 198:Source\mbedtls_open\library/md5.c ****     P( B, C, D, A, 14, 23, 0xFDE5380C );
 1133              		.loc 1 198 0
 1134 05c2 1D00     		movs	r5, r3
 1135 05c4 6540     		eors	r5, r4
 1136 05c6 5540     		eors	r5, r2
 1137 05c8 0D9F     		ldr	r7, [sp, #52]
 1138 05ca BC46     		mov	ip, r7
 1139 05cc 6544     		add	r5, r5, ip
 1140 05ce 4D19     		adds	r5, r1, r5
 1141 05d0 2649     		ldr	r1, .L10+140
 1142              	.LVL152:
 1143 05d2 8C46     		mov	ip, r1
 1144 05d4 6544     		add	r5, r5, ip
 1145              	.LVL153:
 1146 05d6 0921     		movs	r1, #9
 1147 05d8 CD41     		rors	r5, r5, r1
 1148              	.LVL154:
 1149 05da AA46     		mov	r10, r5
 1150 05dc 48E0     		b	.L11
 1151              	.L12:
 1152 05de C046     		.align	2
 1153              	.L10:
 1154 05e0 78A46AD7 		.word	-680876936
 1155 05e4 56B7C7E8 		.word	-389564586
 1156 05e8 DB702024 		.word	606105819
 1157 05ec EECEBDC1 		.word	-1044525330
 1158 05f0 AF0F7CF5 		.word	-176418897
 1159 05f4 2AC68747 		.word	1200080426
 1160 05f8 134630A8 		.word	-1473231341
 1161 05fc 019546FD 		.word	-45705983
 1162 0600 D8988069 		.word	1770035416
 1163 0604 AFF7448B 		.word	-1958414417
 1164 0608 B15BFFFF 		.word	-42063
 1165 060c BED75C89 		.word	-1990404162
 1166 0610 2211906B 		.word	1804603682
 1167 0614 937198FD 		.word	-40341101
 1168 0618 8E4379A6 		.word	-1502002290
 1169 061c 2108B449 		.word	1236535329
 1170 0620 62251EF6 		.word	-165796510
ARM GAS  C:\Users\Phuong\AppData\Local\Temp\ccYkRU5p.s 			page 25


 1171 0624 40B340C0 		.word	-1069501632
 1172 0628 515A5E26 		.word	643717713
 1173 062c AAC7B6E9 		.word	-373897302
 1174 0630 5D102FD6 		.word	-701558691
 1175 0634 53144402 		.word	38016083
 1176 0638 81E6A1D8 		.word	-660478335
 1177 063c C8FBD3E7 		.word	-405537848
 1178 0640 E6CDE121 		.word	568446438
 1179 0644 D60737C3 		.word	-1019803690
 1180 0648 870DD5F4 		.word	-187363961
 1181 064c ED145A45 		.word	1163531501
 1182 0650 05E9E3A9 		.word	-1444681467
 1183 0654 F8A3EFFC 		.word	-51403784
 1184 0658 D9026F67 		.word	1735328473
 1185 065c 8A4C2A8D 		.word	-1926607734
 1186 0660 4239FAFF 		.word	-378558
 1187 0664 81F67187 		.word	-2022574463
 1188 0668 22619D6D 		.word	1839030562
 1189 066c 0C38E5FD 		.word	-35309556
 1190              	.L11:
 1191 0670 A244     		add	r10, r10, r4
 1192              	.LVL155:
 199:Source\mbedtls_open\library/md5.c ****     P( A, B, C, D,  1,  4, 0xA4BEEA44 );
 1193              		.loc 1 199 0
 1194 0672 5546     		mov	r5, r10
 1195 0674 6540     		eors	r5, r4
 1196 0676 5D40     		eors	r5, r3
 1197 0678 009F     		ldr	r7, [sp]
 1198 067a BC46     		mov	ip, r7
 1199 067c 6544     		add	r5, r5, ip
 1200 067e 5219     		adds	r2, r2, r5
 1201              	.LVL156:
 1202 0680 BC4D     		ldr	r5, .L13
 1203 0682 AC46     		mov	ip, r5
 1204 0684 6244     		add	r2, r2, ip
 1205              	.LVL157:
 1206 0686 F241     		rors	r2, r2, r6
 1207              	.LVL158:
 1208 0688 5244     		add	r2, r2, r10
 1209              	.LVL159:
 200:Source\mbedtls_open\library/md5.c ****     P( D, A, B, C,  4, 11, 0x4BDECFA9 );
 1210              		.loc 1 200 0
 1211 068a 5546     		mov	r5, r10
 1212 068c 5540     		eors	r5, r2
 1213 068e 6540     		eors	r5, r4
 1214 0690 039F     		ldr	r7, [sp, #12]
 1215 0692 BC46     		mov	ip, r7
 1216 0694 6544     		add	r5, r5, ip
 1217 0696 5D19     		adds	r5, r3, r5
 1218 0698 B74B     		ldr	r3, .L13+4
 1219              	.LVL160:
 1220 069a 9C46     		mov	ip, r3
 1221 069c 6544     		add	r5, r5, ip
 1222              	.LVL161:
 1223 069e 4346     		mov	r3, r8
 1224 06a0 DD41     		rors	r5, r5, r3
 1225              	.LVL162:
ARM GAS  C:\Users\Phuong\AppData\Local\Temp\ccYkRU5p.s 			page 26


 1226 06a2 5519     		adds	r5, r2, r5
 1227              	.LVL163:
 201:Source\mbedtls_open\library/md5.c ****     P( C, D, A, B,  7, 16, 0xF6BB4B60 );
 1228              		.loc 1 201 0
 1229 06a4 1300     		movs	r3, r2
 1230 06a6 6B40     		eors	r3, r5
 1231 06a8 5746     		mov	r7, r10
 1232 06aa 7B40     		eors	r3, r7
 1233 06ac 069F     		ldr	r7, [sp, #24]
 1234 06ae BC46     		mov	ip, r7
 1235 06b0 6344     		add	r3, r3, ip
 1236 06b2 E418     		adds	r4, r4, r3
 1237              	.LVL164:
 1238 06b4 B14B     		ldr	r3, .L13+8
 1239 06b6 9C46     		mov	ip, r3
 1240 06b8 6444     		add	r4, r4, ip
 1241              	.LVL165:
 1242 06ba 4B46     		mov	r3, r9
 1243 06bc DC41     		rors	r4, r4, r3
 1244              	.LVL166:
 1245 06be 2C19     		adds	r4, r5, r4
 1246              	.LVL167:
 202:Source\mbedtls_open\library/md5.c ****     P( B, C, D, A, 10, 23, 0xBEBFBC70 );
 1247              		.loc 1 202 0
 1248 06c0 2B00     		movs	r3, r5
 1249 06c2 6340     		eors	r3, r4
 1250 06c4 5340     		eors	r3, r2
 1251 06c6 099F     		ldr	r7, [sp, #36]
 1252 06c8 BC46     		mov	ip, r7
 1253 06ca 6344     		add	r3, r3, ip
 1254 06cc 5344     		add	r3, r3, r10
 1255 06ce AC4F     		ldr	r7, .L13+12
 1256 06d0 BC46     		mov	ip, r7
 1257 06d2 6344     		add	r3, r3, ip
 1258              	.LVL168:
 1259 06d4 CB41     		rors	r3, r3, r1
 1260              	.LVL169:
 1261 06d6 E318     		adds	r3, r4, r3
 1262              	.LVL170:
 203:Source\mbedtls_open\library/md5.c ****     P( A, B, C, D, 13,  4, 0x289B7EC6 );
 1263              		.loc 1 203 0
 1264 06d8 2700     		movs	r7, r4
 1265 06da 5F40     		eors	r7, r3
 1266 06dc 6F40     		eors	r7, r5
 1267 06de BA46     		mov	r10, r7
 1268 06e0 0C9F     		ldr	r7, [sp, #48]
 1269 06e2 BC46     		mov	ip, r7
 1270 06e4 E244     		add	r10, r10, ip
 1271 06e6 5244     		add	r2, r2, r10
 1272              	.LVL171:
 1273 06e8 A64F     		ldr	r7, .L13+16
 1274 06ea BC46     		mov	ip, r7
 1275 06ec 6244     		add	r2, r2, ip
 1276              	.LVL172:
 1277 06ee F241     		rors	r2, r2, r6
 1278              	.LVL173:
 1279 06f0 9A18     		adds	r2, r3, r2
ARM GAS  C:\Users\Phuong\AppData\Local\Temp\ccYkRU5p.s 			page 27


 1280              	.LVL174:
 204:Source\mbedtls_open\library/md5.c ****     P( D, A, B, C,  0, 11, 0xEAA127FA );
 1281              		.loc 1 204 0
 1282 06f2 1F00     		movs	r7, r3
 1283 06f4 5740     		eors	r7, r2
 1284 06f6 6740     		eors	r7, r4
 1285 06f8 BA46     		mov	r10, r7
 1286 06fa 0E9F     		ldr	r7, [sp, #56]
 1287 06fc BC46     		mov	ip, r7
 1288 06fe E244     		add	r10, r10, ip
 1289 0700 5544     		add	r5, r5, r10
 1290              	.LVL175:
 1291 0702 A14F     		ldr	r7, .L13+20
 1292 0704 BC46     		mov	ip, r7
 1293 0706 6544     		add	r5, r5, ip
 1294              	.LVL176:
 1295 0708 4746     		mov	r7, r8
 1296 070a FD41     		rors	r5, r5, r7
 1297              	.LVL177:
 1298 070c 5519     		adds	r5, r2, r5
 1299              	.LVL178:
 205:Source\mbedtls_open\library/md5.c ****     P( C, D, A, B,  3, 16, 0xD4EF3085 );
 1300              		.loc 1 205 0
 1301 070e 1700     		movs	r7, r2
 1302 0710 6F40     		eors	r7, r5
 1303 0712 5F40     		eors	r7, r3
 1304 0714 BA46     		mov	r10, r7
 1305 0716 029F     		ldr	r7, [sp, #8]
 1306 0718 BC46     		mov	ip, r7
 1307 071a E244     		add	r10, r10, ip
 1308 071c 5444     		add	r4, r4, r10
 1309              	.LVL179:
 1310 071e 9B4F     		ldr	r7, .L13+24
 1311 0720 BC46     		mov	ip, r7
 1312 0722 6444     		add	r4, r4, ip
 1313              	.LVL180:
 1314 0724 4F46     		mov	r7, r9
 1315 0726 FC41     		rors	r4, r4, r7
 1316              	.LVL181:
 1317 0728 2C19     		adds	r4, r5, r4
 1318              	.LVL182:
 206:Source\mbedtls_open\library/md5.c ****     P( B, C, D, A,  6, 23, 0x04881D05 );
 1319              		.loc 1 206 0
 1320 072a 2F00     		movs	r7, r5
 1321 072c 6740     		eors	r7, r4
 1322 072e 5740     		eors	r7, r2
 1323 0730 BA46     		mov	r10, r7
 1324 0732 059F     		ldr	r7, [sp, #20]
 1325 0734 BC46     		mov	ip, r7
 1326 0736 E244     		add	r10, r10, ip
 1327 0738 5344     		add	r3, r3, r10
 1328              	.LVL183:
 1329 073a 954F     		ldr	r7, .L13+28
 1330 073c BC46     		mov	ip, r7
 1331 073e 6344     		add	r3, r3, ip
 1332              	.LVL184:
 1333 0740 CB41     		rors	r3, r3, r1
ARM GAS  C:\Users\Phuong\AppData\Local\Temp\ccYkRU5p.s 			page 28


 1334              	.LVL185:
 1335 0742 9A46     		mov	r10, r3
 1336 0744 A244     		add	r10, r10, r4
 1337              	.LVL186:
 207:Source\mbedtls_open\library/md5.c ****     P( A, B, C, D,  9,  4, 0xD9D4D039 );
 1338              		.loc 1 207 0
 1339 0746 5346     		mov	r3, r10
 1340 0748 6340     		eors	r3, r4
 1341 074a 6B40     		eors	r3, r5
 1342 074c 089F     		ldr	r7, [sp, #32]
 1343 074e BC46     		mov	ip, r7
 1344 0750 6344     		add	r3, r3, ip
 1345 0752 D218     		adds	r2, r2, r3
 1346              	.LVL187:
 1347 0754 8F4B     		ldr	r3, .L13+32
 1348 0756 9C46     		mov	ip, r3
 1349 0758 6244     		add	r2, r2, ip
 1350              	.LVL188:
 1351 075a F241     		rors	r2, r2, r6
 1352              	.LVL189:
 1353 075c 5244     		add	r2, r2, r10
 1354              	.LVL190:
 208:Source\mbedtls_open\library/md5.c ****     P( D, A, B, C, 12, 11, 0xE6DB99E5 );
 1355              		.loc 1 208 0
 1356 075e 5346     		mov	r3, r10
 1357 0760 5340     		eors	r3, r2
 1358 0762 1E00     		movs	r6, r3
 1359 0764 6640     		eors	r6, r4
 1360 0766 0B9B     		ldr	r3, [sp, #44]
 1361 0768 9C46     		mov	ip, r3
 1362 076a 6644     		add	r6, r6, ip
 1363 076c AD19     		adds	r5, r5, r6
 1364              	.LVL191:
 1365 076e 8A4B     		ldr	r3, .L13+36
 1366 0770 9C46     		mov	ip, r3
 1367 0772 6544     		add	r5, r5, ip
 1368              	.LVL192:
 1369 0774 4346     		mov	r3, r8
 1370 0776 DD41     		rors	r5, r5, r3
 1371              	.LVL193:
 1372 0778 5519     		adds	r5, r2, r5
 1373              	.LVL194:
 209:Source\mbedtls_open\library/md5.c ****     P( C, D, A, B, 15, 16, 0x1FA27CF8 );
 1374              		.loc 1 209 0
 1375 077a 1300     		movs	r3, r2
 1376 077c 6B40     		eors	r3, r5
 1377 077e 5646     		mov	r6, r10
 1378 0780 7340     		eors	r3, r6
 1379 0782 5B44     		add	r3, r3, fp
 1380 0784 E418     		adds	r4, r4, r3
 1381              	.LVL195:
 1382 0786 854B     		ldr	r3, .L13+40
 1383 0788 9C46     		mov	ip, r3
 1384 078a 6444     		add	r4, r4, ip
 1385              	.LVL196:
 1386 078c 4B46     		mov	r3, r9
 1387 078e DC41     		rors	r4, r4, r3
ARM GAS  C:\Users\Phuong\AppData\Local\Temp\ccYkRU5p.s 			page 29


 1388              	.LVL197:
 1389 0790 2C19     		adds	r4, r5, r4
 1390              	.LVL198:
 210:Source\mbedtls_open\library/md5.c ****     P( B, C, D, A,  2, 23, 0xC4AC5665 );
 1391              		.loc 1 210 0
 1392 0792 2B00     		movs	r3, r5
 1393 0794 6340     		eors	r3, r4
 1394 0796 5340     		eors	r3, r2
 1395 0798 019E     		ldr	r6, [sp, #4]
 1396 079a B446     		mov	ip, r6
 1397 079c 6344     		add	r3, r3, ip
 1398 079e 5344     		add	r3, r3, r10
 1399 07a0 7F4E     		ldr	r6, .L13+44
 1400 07a2 B446     		mov	ip, r6
 1401 07a4 6344     		add	r3, r3, ip
 1402              	.LVL199:
 1403 07a6 CB41     		rors	r3, r3, r1
 1404              	.LVL200:
 1405 07a8 E118     		adds	r1, r4, r3
 1406              	.LVL201:
 211:Source\mbedtls_open\library/md5.c **** 
 212:Source\mbedtls_open\library/md5.c **** #undef F
 213:Source\mbedtls_open\library/md5.c **** 
 214:Source\mbedtls_open\library/md5.c **** #define F(x,y,z) (y ^ (x | ~z))
 215:Source\mbedtls_open\library/md5.c **** 
 216:Source\mbedtls_open\library/md5.c ****     P( A, B, C, D,  0,  6, 0xF4292244 );
 1407              		.loc 1 216 0
 1408 07aa EB43     		mvns	r3, r5
 1409 07ac 0B43     		orrs	r3, r1
 1410 07ae 6340     		eors	r3, r4
 1411 07b0 0E9F     		ldr	r7, [sp, #56]
 1412 07b2 BC46     		mov	ip, r7
 1413 07b4 6344     		add	r3, r3, ip
 1414 07b6 D218     		adds	r2, r2, r3
 1415              	.LVL202:
 1416 07b8 7A4B     		ldr	r3, .L13+48
 1417 07ba 9C46     		mov	ip, r3
 1418 07bc 6244     		add	r2, r2, ip
 1419              	.LVL203:
 1420 07be 1A26     		movs	r6, #26
 1421 07c0 F241     		rors	r2, r2, r6
 1422              	.LVL204:
 1423 07c2 8A18     		adds	r2, r1, r2
 1424              	.LVL205:
 217:Source\mbedtls_open\library/md5.c ****     P( D, A, B, C,  7, 10, 0x432AFF97 );
 1425              		.loc 1 217 0
 1426 07c4 E343     		mvns	r3, r4
 1427 07c6 1343     		orrs	r3, r2
 1428 07c8 4B40     		eors	r3, r1
 1429 07ca 069F     		ldr	r7, [sp, #24]
 1430 07cc BC46     		mov	ip, r7
 1431 07ce 6344     		add	r3, r3, ip
 1432 07d0 ED18     		adds	r5, r5, r3
 1433              	.LVL206:
 1434 07d2 754B     		ldr	r3, .L13+52
 1435 07d4 9C46     		mov	ip, r3
 1436 07d6 6544     		add	r5, r5, ip
ARM GAS  C:\Users\Phuong\AppData\Local\Temp\ccYkRU5p.s 			page 30


 1437              	.LVL207:
 1438 07d8 1623     		movs	r3, #22
 1439 07da 9846     		mov	r8, r3
 1440 07dc DD41     		rors	r5, r5, r3
 1441              	.LVL208:
 1442 07de 5519     		adds	r5, r2, r5
 1443              	.LVL209:
 218:Source\mbedtls_open\library/md5.c ****     P( C, D, A, B, 14, 15, 0xAB9423A7 );
 1444              		.loc 1 218 0
 1445 07e0 CB43     		mvns	r3, r1
 1446 07e2 2B43     		orrs	r3, r5
 1447 07e4 5340     		eors	r3, r2
 1448 07e6 0D9F     		ldr	r7, [sp, #52]
 1449 07e8 BC46     		mov	ip, r7
 1450 07ea 6344     		add	r3, r3, ip
 1451 07ec E418     		adds	r4, r4, r3
 1452              	.LVL210:
 1453 07ee 6F4B     		ldr	r3, .L13+56
 1454 07f0 9C46     		mov	ip, r3
 1455 07f2 6444     		add	r4, r4, ip
 1456              	.LVL211:
 1457 07f4 1123     		movs	r3, #17
 1458 07f6 9946     		mov	r9, r3
 1459 07f8 DC41     		rors	r4, r4, r3
 1460              	.LVL212:
 1461 07fa 2C19     		adds	r4, r5, r4
 1462              	.LVL213:
 219:Source\mbedtls_open\library/md5.c ****     P( B, C, D, A,  5, 21, 0xFC93A039 );
 1463              		.loc 1 219 0
 1464 07fc D343     		mvns	r3, r2
 1465 07fe 2343     		orrs	r3, r4
 1466 0800 6B40     		eors	r3, r5
 1467 0802 049F     		ldr	r7, [sp, #16]
 1468 0804 BC46     		mov	ip, r7
 1469 0806 6344     		add	r3, r3, ip
 1470 0808 C918     		adds	r1, r1, r3
 1471              	.LVL214:
 1472 080a 694B     		ldr	r3, .L13+60
 1473 080c 9C46     		mov	ip, r3
 1474 080e 6144     		add	r1, r1, ip
 1475              	.LVL215:
 1476 0810 0B23     		movs	r3, #11
 1477 0812 9A46     		mov	r10, r3
 1478 0814 D941     		rors	r1, r1, r3
 1479              	.LVL216:
 1480 0816 6118     		adds	r1, r4, r1
 1481              	.LVL217:
 220:Source\mbedtls_open\library/md5.c ****     P( A, B, C, D, 12,  6, 0x655B59C3 );
 1482              		.loc 1 220 0
 1483 0818 EB43     		mvns	r3, r5
 1484 081a 0B43     		orrs	r3, r1
 1485 081c 6340     		eors	r3, r4
 1486 081e 0B9F     		ldr	r7, [sp, #44]
 1487 0820 BC46     		mov	ip, r7
 1488 0822 6344     		add	r3, r3, ip
 1489 0824 D218     		adds	r2, r2, r3
 1490              	.LVL218:
ARM GAS  C:\Users\Phuong\AppData\Local\Temp\ccYkRU5p.s 			page 31


 1491 0826 634B     		ldr	r3, .L13+64
 1492 0828 9C46     		mov	ip, r3
 1493 082a 6244     		add	r2, r2, ip
 1494              	.LVL219:
 1495 082c F241     		rors	r2, r2, r6
 1496              	.LVL220:
 1497 082e 8A18     		adds	r2, r1, r2
 1498              	.LVL221:
 221:Source\mbedtls_open\library/md5.c ****     P( D, A, B, C,  3, 10, 0x8F0CCC92 );
 1499              		.loc 1 221 0
 1500 0830 E343     		mvns	r3, r4
 1501 0832 1343     		orrs	r3, r2
 1502 0834 4B40     		eors	r3, r1
 1503 0836 029F     		ldr	r7, [sp, #8]
 1504 0838 BC46     		mov	ip, r7
 1505 083a 6344     		add	r3, r3, ip
 1506 083c ED18     		adds	r5, r5, r3
 1507              	.LVL222:
 1508 083e 5E4B     		ldr	r3, .L13+68
 1509 0840 9C46     		mov	ip, r3
 1510 0842 6544     		add	r5, r5, ip
 1511              	.LVL223:
 1512 0844 4346     		mov	r3, r8
 1513 0846 DD41     		rors	r5, r5, r3
 1514              	.LVL224:
 1515 0848 5519     		adds	r5, r2, r5
 1516              	.LVL225:
 222:Source\mbedtls_open\library/md5.c ****     P( C, D, A, B, 10, 15, 0xFFEFF47D );
 1517              		.loc 1 222 0
 1518 084a CB43     		mvns	r3, r1
 1519 084c 2B43     		orrs	r3, r5
 1520 084e 5340     		eors	r3, r2
 1521 0850 099F     		ldr	r7, [sp, #36]
 1522 0852 BC46     		mov	ip, r7
 1523 0854 6344     		add	r3, r3, ip
 1524 0856 E418     		adds	r4, r4, r3
 1525              	.LVL226:
 1526 0858 584B     		ldr	r3, .L13+72
 1527 085a 9C46     		mov	ip, r3
 1528 085c 6444     		add	r4, r4, ip
 1529              	.LVL227:
 1530 085e 4B46     		mov	r3, r9
 1531 0860 DC41     		rors	r4, r4, r3
 1532              	.LVL228:
 1533 0862 2C19     		adds	r4, r5, r4
 1534              	.LVL229:
 223:Source\mbedtls_open\library/md5.c ****     P( B, C, D, A,  1, 21, 0x85845DD1 );
 1535              		.loc 1 223 0
 1536 0864 D343     		mvns	r3, r2
 1537 0866 2343     		orrs	r3, r4
 1538 0868 6B40     		eors	r3, r5
 1539 086a 009F     		ldr	r7, [sp]
 1540 086c BC46     		mov	ip, r7
 1541 086e 6344     		add	r3, r3, ip
 1542 0870 C918     		adds	r1, r1, r3
 1543              	.LVL230:
 1544 0872 534B     		ldr	r3, .L13+76
ARM GAS  C:\Users\Phuong\AppData\Local\Temp\ccYkRU5p.s 			page 32


 1545 0874 9C46     		mov	ip, r3
 1546 0876 6144     		add	r1, r1, ip
 1547              	.LVL231:
 1548 0878 5346     		mov	r3, r10
 1549 087a D941     		rors	r1, r1, r3
 1550              	.LVL232:
 1551 087c 6118     		adds	r1, r4, r1
 1552              	.LVL233:
 224:Source\mbedtls_open\library/md5.c ****     P( A, B, C, D,  8,  6, 0x6FA87E4F );
 1553              		.loc 1 224 0
 1554 087e EB43     		mvns	r3, r5
 1555 0880 0B43     		orrs	r3, r1
 1556 0882 6340     		eors	r3, r4
 1557 0884 079F     		ldr	r7, [sp, #28]
 1558 0886 BC46     		mov	ip, r7
 1559 0888 6344     		add	r3, r3, ip
 1560 088a D218     		adds	r2, r2, r3
 1561              	.LVL234:
 1562 088c 4D4B     		ldr	r3, .L13+80
 1563 088e 9C46     		mov	ip, r3
 1564 0890 6244     		add	r2, r2, ip
 1565              	.LVL235:
 1566 0892 F241     		rors	r2, r2, r6
 1567              	.LVL236:
 1568 0894 8A18     		adds	r2, r1, r2
 1569              	.LVL237:
 225:Source\mbedtls_open\library/md5.c ****     P( D, A, B, C, 15, 10, 0xFE2CE6E0 );
 1570              		.loc 1 225 0
 1571 0896 E343     		mvns	r3, r4
 1572 0898 1343     		orrs	r3, r2
 1573 089a 4B40     		eors	r3, r1
 1574 089c 5B44     		add	r3, r3, fp
 1575 089e ED18     		adds	r5, r5, r3
 1576              	.LVL238:
 1577 08a0 494B     		ldr	r3, .L13+84
 1578 08a2 9C46     		mov	ip, r3
 1579 08a4 6544     		add	r5, r5, ip
 1580              	.LVL239:
 1581 08a6 4346     		mov	r3, r8
 1582 08a8 DD41     		rors	r5, r5, r3
 1583              	.LVL240:
 1584 08aa 5519     		adds	r5, r2, r5
 1585              	.LVL241:
 226:Source\mbedtls_open\library/md5.c ****     P( C, D, A, B,  6, 15, 0xA3014314 );
 1586              		.loc 1 226 0
 1587 08ac CB43     		mvns	r3, r1
 1588 08ae 2B43     		orrs	r3, r5
 1589 08b0 5340     		eors	r3, r2
 1590 08b2 059F     		ldr	r7, [sp, #20]
 1591 08b4 BC46     		mov	ip, r7
 1592 08b6 6344     		add	r3, r3, ip
 1593 08b8 E418     		adds	r4, r4, r3
 1594              	.LVL242:
 1595 08ba 444B     		ldr	r3, .L13+88
 1596 08bc 9C46     		mov	ip, r3
 1597 08be 6444     		add	r4, r4, ip
 1598              	.LVL243:
ARM GAS  C:\Users\Phuong\AppData\Local\Temp\ccYkRU5p.s 			page 33


 1599 08c0 4B46     		mov	r3, r9
 1600 08c2 DC41     		rors	r4, r4, r3
 1601              	.LVL244:
 1602 08c4 2C19     		adds	r4, r5, r4
 1603              	.LVL245:
 227:Source\mbedtls_open\library/md5.c ****     P( B, C, D, A, 13, 21, 0x4E0811A1 );
 1604              		.loc 1 227 0
 1605 08c6 D343     		mvns	r3, r2
 1606 08c8 2343     		orrs	r3, r4
 1607 08ca 6B40     		eors	r3, r5
 1608 08cc 0C9F     		ldr	r7, [sp, #48]
 1609 08ce BC46     		mov	ip, r7
 1610 08d0 6344     		add	r3, r3, ip
 1611 08d2 C918     		adds	r1, r1, r3
 1612              	.LVL246:
 1613 08d4 3E4B     		ldr	r3, .L13+92
 1614 08d6 9C46     		mov	ip, r3
 1615 08d8 6144     		add	r1, r1, ip
 1616              	.LVL247:
 1617 08da 5346     		mov	r3, r10
 1618 08dc D941     		rors	r1, r1, r3
 1619              	.LVL248:
 1620 08de 6118     		adds	r1, r4, r1
 1621              	.LVL249:
 228:Source\mbedtls_open\library/md5.c ****     P( A, B, C, D,  4,  6, 0xF7537E82 );
 1622              		.loc 1 228 0
 1623 08e0 EB43     		mvns	r3, r5
 1624 08e2 0B43     		orrs	r3, r1
 1625 08e4 6340     		eors	r3, r4
 1626 08e6 039F     		ldr	r7, [sp, #12]
 1627 08e8 BC46     		mov	ip, r7
 1628 08ea 6344     		add	r3, r3, ip
 1629 08ec D218     		adds	r2, r2, r3
 1630              	.LVL250:
 1631 08ee 394B     		ldr	r3, .L13+96
 1632 08f0 9C46     		mov	ip, r3
 1633 08f2 6244     		add	r2, r2, ip
 1634              	.LVL251:
 1635 08f4 F241     		rors	r2, r2, r6
 1636              	.LVL252:
 1637 08f6 8A18     		adds	r2, r1, r2
 1638              	.LVL253:
 229:Source\mbedtls_open\library/md5.c ****     P( D, A, B, C, 11, 10, 0xBD3AF235 );
 1639              		.loc 1 229 0
 1640 08f8 E643     		mvns	r6, r4
 1641 08fa 1643     		orrs	r6, r2
 1642 08fc 4E40     		eors	r6, r1
 1643 08fe 0A9B     		ldr	r3, [sp, #40]
 1644 0900 9C46     		mov	ip, r3
 1645 0902 6644     		add	r6, r6, ip
 1646 0904 AE19     		adds	r6, r5, r6
 1647 0906 344B     		ldr	r3, .L13+100
 1648 0908 9C46     		mov	ip, r3
 1649 090a 6644     		add	r6, r6, ip
 1650              	.LVL254:
 1651 090c 4346     		mov	r3, r8
 1652 090e DE41     		rors	r6, r6, r3
ARM GAS  C:\Users\Phuong\AppData\Local\Temp\ccYkRU5p.s 			page 34


 1653              	.LVL255:
 1654 0910 9619     		adds	r6, r2, r6
 1655              	.LVL256:
 230:Source\mbedtls_open\library/md5.c ****     P( C, D, A, B,  2, 15, 0x2AD7D2BB );
 1656              		.loc 1 230 0
 1657 0912 CB43     		mvns	r3, r1
 1658 0914 3343     		orrs	r3, r6
 1659 0916 5340     		eors	r3, r2
 1660 0918 019D     		ldr	r5, [sp, #4]
 1661 091a AC46     		mov	ip, r5
 1662 091c 6344     		add	r3, r3, ip
 1663 091e E418     		adds	r4, r4, r3
 1664              	.LVL257:
 1665 0920 2E4B     		ldr	r3, .L13+104
 1666 0922 9C46     		mov	ip, r3
 1667 0924 6444     		add	r4, r4, ip
 1668              	.LVL258:
 1669 0926 4B46     		mov	r3, r9
 1670 0928 DC41     		rors	r4, r4, r3
 1671              	.LVL259:
 1672 092a 3419     		adds	r4, r6, r4
 1673              	.LVL260:
 231:Source\mbedtls_open\library/md5.c ****     P( B, C, D, A,  9, 21, 0xEB86D391 );
 1674              		.loc 1 231 0
 1675 092c D343     		mvns	r3, r2
 1676 092e 2343     		orrs	r3, r4
 1677 0930 7340     		eors	r3, r6
 1678 0932 089F     		ldr	r7, [sp, #32]
 1679 0934 BC46     		mov	ip, r7
 1680 0936 6344     		add	r3, r3, ip
 1681 0938 C918     		adds	r1, r1, r3
 1682              	.LVL261:
 1683 093a 294B     		ldr	r3, .L13+108
 1684 093c 9C46     		mov	ip, r3
 1685 093e 6144     		add	r1, r1, ip
 1686              	.LVL262:
 1687 0940 5346     		mov	r3, r10
 1688 0942 D941     		rors	r1, r1, r3
 1689              	.LVL263:
 1690 0944 6118     		adds	r1, r4, r1
 1691              	.LVL264:
 232:Source\mbedtls_open\library/md5.c **** 
 233:Source\mbedtls_open\library/md5.c **** #undef F
 234:Source\mbedtls_open\library/md5.c **** 
 235:Source\mbedtls_open\library/md5.c ****     ctx->state[0] += A;
 1692              		.loc 1 235 0
 1693 0946 8368     		ldr	r3, [r0, #8]
 1694 0948 9C46     		mov	ip, r3
 1695 094a 6244     		add	r2, r2, ip
 1696              	.LVL265:
 1697 094c 8260     		str	r2, [r0, #8]
 236:Source\mbedtls_open\library/md5.c ****     ctx->state[1] += B;
 1698              		.loc 1 236 0
 1699 094e 0F9B     		ldr	r3, [sp, #60]
 1700 0950 9C46     		mov	ip, r3
 1701 0952 6144     		add	r1, r1, ip
 1702              	.LVL266:
ARM GAS  C:\Users\Phuong\AppData\Local\Temp\ccYkRU5p.s 			page 35


 1703 0954 C160     		str	r1, [r0, #12]
 237:Source\mbedtls_open\library/md5.c ****     ctx->state[2] += C;
 1704              		.loc 1 237 0
 1705 0956 0369     		ldr	r3, [r0, #16]
 1706 0958 9C46     		mov	ip, r3
 1707 095a 6444     		add	r4, r4, ip
 1708              	.LVL267:
 1709 095c 0461     		str	r4, [r0, #16]
 238:Source\mbedtls_open\library/md5.c ****     ctx->state[3] += D;
 1710              		.loc 1 238 0
 1711 095e 4369     		ldr	r3, [r0, #20]
 1712 0960 9F19     		adds	r7, r3, r6
 1713 0962 4761     		str	r7, [r0, #20]
 239:Source\mbedtls_open\library/md5.c **** 
 240:Source\mbedtls_open\library/md5.c ****     return( 0 );
 241:Source\mbedtls_open\library/md5.c **** }
 1714              		.loc 1 241 0
 1715 0964 0020     		movs	r0, #0
 1716              	.LVL268:
 1717 0966 11B0     		add	sp, sp, #68
 1718              		@ sp needed
 1719              	.LVL269:
 1720 0968 3CBC     		pop	{r2, r3, r4, r5}
 1721 096a 9046     		mov	r8, r2
 1722 096c 9946     		mov	r9, r3
 1723 096e A246     		mov	r10, r4
 1724 0970 AB46     		mov	fp, r5
 1725 0972 F0BD     		pop	{r4, r5, r6, r7, pc}
 1726              	.L14:
 1727              		.align	2
 1728              	.L13:
 1729 0974 44EABEA4 		.word	-1530992060
 1730 0978 A9CFDE4B 		.word	1272893353
 1731 097c 604BBBF6 		.word	-155497632
 1732 0980 70BCBFBE 		.word	-1094730640
 1733 0984 C67E9B28 		.word	681279174
 1734 0988 FA27A1EA 		.word	-358537222
 1735 098c 8530EFD4 		.word	-722521979
 1736 0990 051D8804 		.word	76029189
 1737 0994 39D0D4D9 		.word	-640364487
 1738 0998 E599DBE6 		.word	-421815835
 1739 099c F87CA21F 		.word	530742520
 1740 09a0 6556ACC4 		.word	-995338651
 1741 09a4 442229F4 		.word	-198630844
 1742 09a8 97FF2A43 		.word	1126891415
 1743 09ac A72394AB 		.word	-1416354905
 1744 09b0 39A093FC 		.word	-57434055
 1745 09b4 C3595B65 		.word	1700485571
 1746 09b8 92CC0C8F 		.word	-1894986606
 1747 09bc 7DF4EFFF 		.word	-1051523
 1748 09c0 D15D8485 		.word	-2054922799
 1749 09c4 4F7EA86F 		.word	1873313359
 1750 09c8 E0E62CFE 		.word	-30611744
 1751 09cc 144301A3 		.word	-1560198380
 1752 09d0 A111084E 		.word	1309151649
 1753 09d4 827E53F7 		.word	-145523070
 1754 09d8 35F23ABD 		.word	-1120210379
ARM GAS  C:\Users\Phuong\AppData\Local\Temp\ccYkRU5p.s 			page 36


 1755 09dc BBD2D72A 		.word	718787259
 1756 09e0 91D386EB 		.word	-343485551
 1757              		.cfi_endproc
 1758              	.LFE6:
 1759              		.size	mbedtls_internal_md5_process, .-mbedtls_internal_md5_process
 1760              		.section	.text.mbedtls_md5_process,"ax",%progbits
 1761              		.align	2
 1762              		.global	mbedtls_md5_process
 1763              		.code	16
 1764              		.thumb_func
 1765              		.type	mbedtls_md5_process, %function
 1766              	mbedtls_md5_process:
 1767              	.LFB7:
 242:Source\mbedtls_open\library/md5.c **** 
 243:Source\mbedtls_open\library/md5.c **** #if !defined(MBEDTLS_DEPRECATED_REMOVED)
 244:Source\mbedtls_open\library/md5.c **** void mbedtls_md5_process( mbedtls_md5_context *ctx,
 245:Source\mbedtls_open\library/md5.c ****                           const unsigned char data[64] )
 246:Source\mbedtls_open\library/md5.c **** {
 1768              		.loc 1 246 0
 1769              		.cfi_startproc
 1770              		@ args = 0, pretend = 0, frame = 0
 1771              		@ frame_needed = 0, uses_anonymous_args = 0
 1772              	.LVL270:
 1773 0000 10B5     		push	{r4, lr}
 1774              		.cfi_def_cfa_offset 8
 1775              		.cfi_offset 4, -8
 1776              		.cfi_offset 14, -4
 247:Source\mbedtls_open\library/md5.c ****     mbedtls_internal_md5_process( ctx, data );
 1777              		.loc 1 247 0
 1778 0002 FFF7FEFF 		bl	mbedtls_internal_md5_process
 1779              	.LVL271:
 248:Source\mbedtls_open\library/md5.c **** }
 1780              		.loc 1 248 0
 1781              		@ sp needed
 1782 0006 10BD     		pop	{r4, pc}
 1783              		.cfi_endproc
 1784              	.LFE7:
 1785              		.size	mbedtls_md5_process, .-mbedtls_md5_process
 1786              		.section	.text.mbedtls_md5_update_ret,"ax",%progbits
 1787              		.align	2
 1788              		.global	mbedtls_md5_update_ret
 1789              		.code	16
 1790              		.thumb_func
 1791              		.type	mbedtls_md5_update_ret, %function
 1792              	mbedtls_md5_update_ret:
 1793              	.LFB8:
 249:Source\mbedtls_open\library/md5.c **** #endif
 250:Source\mbedtls_open\library/md5.c **** #endif /* !MBEDTLS_MD5_PROCESS_ALT */
 251:Source\mbedtls_open\library/md5.c **** 
 252:Source\mbedtls_open\library/md5.c **** /*
 253:Source\mbedtls_open\library/md5.c ****  * MD5 process buffer
 254:Source\mbedtls_open\library/md5.c ****  */
 255:Source\mbedtls_open\library/md5.c **** int mbedtls_md5_update_ret( mbedtls_md5_context *ctx,
 256:Source\mbedtls_open\library/md5.c ****                             const unsigned char *input,
 257:Source\mbedtls_open\library/md5.c ****                             size_t ilen )
 258:Source\mbedtls_open\library/md5.c **** {
 1794              		.loc 1 258 0
ARM GAS  C:\Users\Phuong\AppData\Local\Temp\ccYkRU5p.s 			page 37


 1795              		.cfi_startproc
 1796              		@ args = 0, pretend = 0, frame = 0
 1797              		@ frame_needed = 0, uses_anonymous_args = 0
 1798              	.LVL272:
 1799 0000 F8B5     		push	{r3, r4, r5, r6, r7, lr}
 1800              		.cfi_def_cfa_offset 24
 1801              		.cfi_offset 3, -24
 1802              		.cfi_offset 4, -20
 1803              		.cfi_offset 5, -16
 1804              		.cfi_offset 6, -12
 1805              		.cfi_offset 7, -8
 1806              		.cfi_offset 14, -4
 1807 0002 4F46     		mov	r7, r9
 1808 0004 4646     		mov	r6, r8
 1809 0006 C0B4     		push	{r6, r7}
 1810              		.cfi_def_cfa_offset 32
 1811              		.cfi_offset 8, -32
 1812              		.cfi_offset 9, -28
 1813 0008 0600     		movs	r6, r0
 1814 000a 0D00     		movs	r5, r1
 1815 000c 141E     		subs	r4, r2, #0
 259:Source\mbedtls_open\library/md5.c ****     int ret;
 260:Source\mbedtls_open\library/md5.c ****     size_t fill;
 261:Source\mbedtls_open\library/md5.c ****     uint32_t left;
 262:Source\mbedtls_open\library/md5.c **** 
 263:Source\mbedtls_open\library/md5.c ****     if( ilen == 0 )
 1816              		.loc 1 263 0
 1817 000e 38D0     		beq	.L22
 264:Source\mbedtls_open\library/md5.c ****         return( 0 );
 265:Source\mbedtls_open\library/md5.c **** 
 266:Source\mbedtls_open\library/md5.c ****     left = ctx->total[0] & 0x3F;
 1818              		.loc 1 266 0
 1819 0010 0368     		ldr	r3, [r0]
 1820 0012 3F27     		movs	r7, #63
 1821 0014 1F40     		ands	r7, r3
 1822              	.LVL273:
 267:Source\mbedtls_open\library/md5.c ****     fill = 64 - left;
 1823              		.loc 1 267 0
 1824 0016 4022     		movs	r2, #64
 1825              	.LVL274:
 1826 0018 D21B     		subs	r2, r2, r7
 1827 001a 9046     		mov	r8, r2
 1828              	.LVL275:
 268:Source\mbedtls_open\library/md5.c **** 
 269:Source\mbedtls_open\library/md5.c ****     ctx->total[0] += (uint32_t) ilen;
 1829              		.loc 1 269 0
 1830 001c E318     		adds	r3, r4, r3
 1831 001e 0360     		str	r3, [r0]
 270:Source\mbedtls_open\library/md5.c ****     ctx->total[0] &= 0xFFFFFFFF;
 271:Source\mbedtls_open\library/md5.c **** 
 272:Source\mbedtls_open\library/md5.c ****     if( ctx->total[0] < (uint32_t) ilen )
 1832              		.loc 1 272 0
 1833 0020 9C42     		cmp	r4, r3
 1834 0022 02D9     		bls	.L18
 273:Source\mbedtls_open\library/md5.c ****         ctx->total[1]++;
 1835              		.loc 1 273 0
 1836 0024 4368     		ldr	r3, [r0, #4]
ARM GAS  C:\Users\Phuong\AppData\Local\Temp\ccYkRU5p.s 			page 38


 1837 0026 0133     		adds	r3, r3, #1
 1838 0028 4360     		str	r3, [r0, #4]
 1839              	.L18:
 274:Source\mbedtls_open\library/md5.c **** 
 275:Source\mbedtls_open\library/md5.c ****     if( left && ilen >= fill )
 1840              		.loc 1 275 0
 1841 002a 002F     		cmp	r7, #0
 1842 002c 1DD0     		beq	.L20
 1843              		.loc 1 275 0 is_stmt 0 discriminator 1
 1844 002e 4445     		cmp	r4, r8
 1845 0030 1BD3     		bcc	.L20
 276:Source\mbedtls_open\library/md5.c ****     {
 277:Source\mbedtls_open\library/md5.c ****         memcpy( (void *) (ctx->buffer + left), input, fill );
 1846              		.loc 1 277 0 is_stmt 1
 1847 0032 1823     		movs	r3, #24
 1848 0034 9946     		mov	r9, r3
 1849 0036 B144     		add	r9, r9, r6
 1850 0038 3800     		movs	r0, r7
 1851              	.LVL276:
 1852 003a 4844     		add	r0, r0, r9
 1853 003c 4246     		mov	r2, r8
 1854              	.LVL277:
 1855 003e 2900     		movs	r1, r5
 1856              	.LVL278:
 1857 0040 FFF7FEFF 		bl	memcpy
 1858              	.LVL279:
 278:Source\mbedtls_open\library/md5.c ****         if( ( ret = mbedtls_internal_md5_process( ctx, ctx->buffer ) ) != 0 )
 1859              		.loc 1 278 0
 1860 0044 4946     		mov	r1, r9
 1861 0046 3000     		movs	r0, r6
 1862 0048 FFF7FEFF 		bl	mbedtls_internal_md5_process
 1863              	.LVL280:
 1864 004c 0028     		cmp	r0, #0
 1865 004e 1BD1     		bne	.L17
 279:Source\mbedtls_open\library/md5.c ****             return( ret );
 280:Source\mbedtls_open\library/md5.c **** 
 281:Source\mbedtls_open\library/md5.c ****         input += fill;
 1866              		.loc 1 281 0
 1867 0050 4544     		add	r5, r5, r8
 1868              	.LVL281:
 282:Source\mbedtls_open\library/md5.c ****         ilen  -= fill;
 1869              		.loc 1 282 0
 1870 0052 4346     		mov	r3, r8
 1871 0054 E41A     		subs	r4, r4, r3
 1872              	.LVL282:
 283:Source\mbedtls_open\library/md5.c ****         left = 0;
 1873              		.loc 1 283 0
 1874 0056 0027     		movs	r7, #0
 1875 0058 07E0     		b	.L20
 1876              	.LVL283:
 1877              	.L21:
 284:Source\mbedtls_open\library/md5.c ****     }
 285:Source\mbedtls_open\library/md5.c **** 
 286:Source\mbedtls_open\library/md5.c ****     while( ilen >= 64 )
 287:Source\mbedtls_open\library/md5.c ****     {
 288:Source\mbedtls_open\library/md5.c ****         if( ( ret = mbedtls_internal_md5_process( ctx, input ) ) != 0 )
 1878              		.loc 1 288 0
ARM GAS  C:\Users\Phuong\AppData\Local\Temp\ccYkRU5p.s 			page 39


 1879 005a 2900     		movs	r1, r5
 1880 005c 3000     		movs	r0, r6
 1881 005e FFF7FEFF 		bl	mbedtls_internal_md5_process
 1882              	.LVL284:
 1883 0062 0028     		cmp	r0, #0
 1884 0064 10D1     		bne	.L17
 289:Source\mbedtls_open\library/md5.c ****             return( ret );
 290:Source\mbedtls_open\library/md5.c **** 
 291:Source\mbedtls_open\library/md5.c ****         input += 64;
 1885              		.loc 1 291 0
 1886 0066 4035     		adds	r5, r5, #64
 1887              	.LVL285:
 292:Source\mbedtls_open\library/md5.c ****         ilen  -= 64;
 1888              		.loc 1 292 0
 1889 0068 403C     		subs	r4, r4, #64
 1890              	.LVL286:
 1891              	.L20:
 286:Source\mbedtls_open\library/md5.c ****     {
 1892              		.loc 1 286 0
 1893 006a 3F2C     		cmp	r4, #63
 1894 006c F5D8     		bhi	.L21
 293:Source\mbedtls_open\library/md5.c ****     }
 294:Source\mbedtls_open\library/md5.c **** 
 295:Source\mbedtls_open\library/md5.c ****     if( ilen > 0 )
 1895              		.loc 1 295 0
 1896 006e 002C     		cmp	r4, #0
 1897 0070 09D0     		beq	.L25
 296:Source\mbedtls_open\library/md5.c ****     {
 297:Source\mbedtls_open\library/md5.c ****         memcpy( (void *) (ctx->buffer + left), input, ilen );
 1898              		.loc 1 297 0
 1899 0072 1836     		adds	r6, r6, #24
 1900              	.LVL287:
 1901 0074 F019     		adds	r0, r6, r7
 1902 0076 2200     		movs	r2, r4
 1903 0078 2900     		movs	r1, r5
 1904 007a FFF7FEFF 		bl	memcpy
 1905              	.LVL288:
 298:Source\mbedtls_open\library/md5.c ****     }
 299:Source\mbedtls_open\library/md5.c **** 
 300:Source\mbedtls_open\library/md5.c ****     return( 0 );
 1906              		.loc 1 300 0
 1907 007e 0020     		movs	r0, #0
 1908 0080 02E0     		b	.L17
 1909              	.LVL289:
 1910              	.L22:
 264:Source\mbedtls_open\library/md5.c **** 
 1911              		.loc 1 264 0
 1912 0082 0020     		movs	r0, #0
 1913              	.LVL290:
 1914 0084 00E0     		b	.L17
 1915              	.LVL291:
 1916              	.L25:
 1917              		.loc 1 300 0
 1918 0086 0020     		movs	r0, #0
 1919              	.LVL292:
 1920              	.L17:
 301:Source\mbedtls_open\library/md5.c **** }
ARM GAS  C:\Users\Phuong\AppData\Local\Temp\ccYkRU5p.s 			page 40


 1921              		.loc 1 301 0
 1922              		@ sp needed
 1923              	.LVL293:
 1924              	.LVL294:
 1925 0088 0CBC     		pop	{r2, r3}
 1926 008a 9046     		mov	r8, r2
 1927 008c 9946     		mov	r9, r3
 1928 008e F8BD     		pop	{r3, r4, r5, r6, r7, pc}
 1929              		.cfi_endproc
 1930              	.LFE8:
 1931              		.size	mbedtls_md5_update_ret, .-mbedtls_md5_update_ret
 1932              		.section	.text.mbedtls_md5_update,"ax",%progbits
 1933              		.align	2
 1934              		.global	mbedtls_md5_update
 1935              		.code	16
 1936              		.thumb_func
 1937              		.type	mbedtls_md5_update, %function
 1938              	mbedtls_md5_update:
 1939              	.LFB9:
 302:Source\mbedtls_open\library/md5.c **** 
 303:Source\mbedtls_open\library/md5.c **** #if !defined(MBEDTLS_DEPRECATED_REMOVED)
 304:Source\mbedtls_open\library/md5.c **** void mbedtls_md5_update( mbedtls_md5_context *ctx,
 305:Source\mbedtls_open\library/md5.c ****                          const unsigned char *input,
 306:Source\mbedtls_open\library/md5.c ****                          size_t ilen )
 307:Source\mbedtls_open\library/md5.c **** {
 1940              		.loc 1 307 0
 1941              		.cfi_startproc
 1942              		@ args = 0, pretend = 0, frame = 0
 1943              		@ frame_needed = 0, uses_anonymous_args = 0
 1944              	.LVL295:
 1945 0000 10B5     		push	{r4, lr}
 1946              		.cfi_def_cfa_offset 8
 1947              		.cfi_offset 4, -8
 1948              		.cfi_offset 14, -4
 308:Source\mbedtls_open\library/md5.c ****     mbedtls_md5_update_ret( ctx, input, ilen );
 1949              		.loc 1 308 0
 1950 0002 FFF7FEFF 		bl	mbedtls_md5_update_ret
 1951              	.LVL296:
 309:Source\mbedtls_open\library/md5.c **** }
 1952              		.loc 1 309 0
 1953              		@ sp needed
 1954 0006 10BD     		pop	{r4, pc}
 1955              		.cfi_endproc
 1956              	.LFE9:
 1957              		.size	mbedtls_md5_update, .-mbedtls_md5_update
 1958              		.section	.text.mbedtls_md5_finish_ret,"ax",%progbits
 1959              		.align	2
 1960              		.global	mbedtls_md5_finish_ret
 1961              		.code	16
 1962              		.thumb_func
 1963              		.type	mbedtls_md5_finish_ret, %function
 1964              	mbedtls_md5_finish_ret:
 1965              	.LFB10:
 310:Source\mbedtls_open\library/md5.c **** #endif
 311:Source\mbedtls_open\library/md5.c **** 
 312:Source\mbedtls_open\library/md5.c **** /*
 313:Source\mbedtls_open\library/md5.c ****  * MD5 final digest
ARM GAS  C:\Users\Phuong\AppData\Local\Temp\ccYkRU5p.s 			page 41


 314:Source\mbedtls_open\library/md5.c ****  */
 315:Source\mbedtls_open\library/md5.c **** int mbedtls_md5_finish_ret( mbedtls_md5_context *ctx,
 316:Source\mbedtls_open\library/md5.c ****                             unsigned char output[16] )
 317:Source\mbedtls_open\library/md5.c **** {
 1966              		.loc 1 317 0
 1967              		.cfi_startproc
 1968              		@ args = 0, pretend = 0, frame = 0
 1969              		@ frame_needed = 0, uses_anonymous_args = 0
 1970              	.LVL297:
 1971 0000 70B5     		push	{r4, r5, r6, lr}
 1972              		.cfi_def_cfa_offset 16
 1973              		.cfi_offset 4, -16
 1974              		.cfi_offset 5, -12
 1975              		.cfi_offset 6, -8
 1976              		.cfi_offset 14, -4
 1977 0002 0400     		movs	r4, r0
 1978 0004 0D00     		movs	r5, r1
 318:Source\mbedtls_open\library/md5.c ****     int ret;
 319:Source\mbedtls_open\library/md5.c ****     uint32_t used;
 320:Source\mbedtls_open\library/md5.c ****     uint32_t high, low;
 321:Source\mbedtls_open\library/md5.c **** 
 322:Source\mbedtls_open\library/md5.c ****     /*
 323:Source\mbedtls_open\library/md5.c ****      * Add padding: 0x80 then 0x00 until 8 bytes remain for the length
 324:Source\mbedtls_open\library/md5.c ****      */
 325:Source\mbedtls_open\library/md5.c ****     used = ctx->total[0] & 0x3F;
 1979              		.loc 1 325 0
 1980 0006 3F23     		movs	r3, #63
 1981 0008 0268     		ldr	r2, [r0]
 1982 000a 1340     		ands	r3, r2
 1983              	.LVL298:
 326:Source\mbedtls_open\library/md5.c **** 
 327:Source\mbedtls_open\library/md5.c ****     ctx->buffer[used++] = 0x80;
 1984              		.loc 1 327 0
 1985 000c 581C     		adds	r0, r3, #1
 1986              	.LVL299:
 1987 000e E318     		adds	r3, r4, r3
 1988 0010 8022     		movs	r2, #128
 1989 0012 1A76     		strb	r2, [r3, #24]
 328:Source\mbedtls_open\library/md5.c **** 
 329:Source\mbedtls_open\library/md5.c ****     if( used <= 56 )
 1990              		.loc 1 329 0
 1991 0014 3828     		cmp	r0, #56
 1992 0016 08D8     		bhi	.L28
 330:Source\mbedtls_open\library/md5.c ****     {
 331:Source\mbedtls_open\library/md5.c ****         /* Enough room for padding + length in current block */
 332:Source\mbedtls_open\library/md5.c ****         memset( ctx->buffer + used, 0, 56 - used );
 1993              		.loc 1 332 0
 1994 0018 2300     		movs	r3, r4
 1995 001a 1833     		adds	r3, r3, #24
 1996 001c 483A     		subs	r2, r2, #72
 1997 001e 121A     		subs	r2, r2, r0
 1998 0020 1818     		adds	r0, r3, r0
 1999              	.LVL300:
 2000 0022 0021     		movs	r1, #0
 2001              	.LVL301:
 2002 0024 FFF7FEFF 		bl	memset
 2003              	.LVL302:
ARM GAS  C:\Users\Phuong\AppData\Local\Temp\ccYkRU5p.s 			page 42


 2004 0028 12E0     		b	.L29
 2005              	.LVL303:
 2006              	.L28:
 333:Source\mbedtls_open\library/md5.c ****     }
 334:Source\mbedtls_open\library/md5.c ****     else
 335:Source\mbedtls_open\library/md5.c ****     {
 336:Source\mbedtls_open\library/md5.c ****         /* We'll need an extra block */
 337:Source\mbedtls_open\library/md5.c ****         memset( ctx->buffer + used, 0, 64 - used );
 2007              		.loc 1 337 0
 2008 002a 2600     		movs	r6, r4
 2009 002c 1836     		adds	r6, r6, #24
 2010 002e 4022     		movs	r2, #64
 2011 0030 121A     		subs	r2, r2, r0
 2012 0032 3018     		adds	r0, r6, r0
 2013              	.LVL304:
 2014 0034 0021     		movs	r1, #0
 2015              	.LVL305:
 2016 0036 FFF7FEFF 		bl	memset
 2017              	.LVL306:
 338:Source\mbedtls_open\library/md5.c **** 
 339:Source\mbedtls_open\library/md5.c ****         if( ( ret = mbedtls_internal_md5_process( ctx, ctx->buffer ) ) != 0 )
 2018              		.loc 1 339 0
 2019 003a 3100     		movs	r1, r6
 2020 003c 2000     		movs	r0, r4
 2021 003e FFF7FEFF 		bl	mbedtls_internal_md5_process
 2022              	.LVL307:
 2023 0042 0028     		cmp	r0, #0
 2024 0044 4BD1     		bne	.L30
 340:Source\mbedtls_open\library/md5.c ****             return( ret );
 341:Source\mbedtls_open\library/md5.c **** 
 342:Source\mbedtls_open\library/md5.c ****         memset( ctx->buffer, 0, 56 );
 2025              		.loc 1 342 0
 2026 0046 3822     		movs	r2, #56
 2027 0048 0021     		movs	r1, #0
 2028 004a 3000     		movs	r0, r6
 2029              	.LVL308:
 2030 004c FFF7FEFF 		bl	memset
 2031              	.LVL309:
 2032              	.L29:
 343:Source\mbedtls_open\library/md5.c ****     }
 344:Source\mbedtls_open\library/md5.c **** 
 345:Source\mbedtls_open\library/md5.c ****     /*
 346:Source\mbedtls_open\library/md5.c ****      * Add message length
 347:Source\mbedtls_open\library/md5.c ****      */
 348:Source\mbedtls_open\library/md5.c ****     high = ( ctx->total[0] >> 29 )
 2033              		.loc 1 348 0
 2034 0050 2268     		ldr	r2, [r4]
 2035 0052 510F     		lsrs	r1, r2, #29
 349:Source\mbedtls_open\library/md5.c ****          | ( ctx->total[1] <<  3 );
 2036              		.loc 1 349 0
 2037 0054 6368     		ldr	r3, [r4, #4]
 2038 0056 DB00     		lsls	r3, r3, #3
 348:Source\mbedtls_open\library/md5.c ****          | ( ctx->total[1] <<  3 );
 2039              		.loc 1 348 0
 2040 0058 0B43     		orrs	r3, r1
 2041              	.LVL310:
 350:Source\mbedtls_open\library/md5.c ****     low  = ( ctx->total[0] <<  3 );
ARM GAS  C:\Users\Phuong\AppData\Local\Temp\ccYkRU5p.s 			page 43


 2042              		.loc 1 350 0
 2043 005a D200     		lsls	r2, r2, #3
 2044              	.LVL311:
 351:Source\mbedtls_open\library/md5.c **** 
 352:Source\mbedtls_open\library/md5.c ****     PUT_UINT32_LE( low,  ctx->buffer, 56 );
 2045              		.loc 1 352 0
 2046 005c 5021     		movs	r1, #80
 2047 005e 6254     		strb	r2, [r4, r1]
 2048 0060 100A     		lsrs	r0, r2, #8
 2049 0062 0131     		adds	r1, r1, #1
 2050 0064 6054     		strb	r0, [r4, r1]
 2051 0066 100C     		lsrs	r0, r2, #16
 2052 0068 0131     		adds	r1, r1, #1
 2053 006a 6054     		strb	r0, [r4, r1]
 2054 006c 120E     		lsrs	r2, r2, #24
 2055              	.LVL312:
 2056 006e 0131     		adds	r1, r1, #1
 2057 0070 6254     		strb	r2, [r4, r1]
 353:Source\mbedtls_open\library/md5.c ****     PUT_UINT32_LE( high, ctx->buffer, 60 );
 2058              		.loc 1 353 0
 2059 0072 5422     		movs	r2, #84
 2060 0074 A354     		strb	r3, [r4, r2]
 2061 0076 190A     		lsrs	r1, r3, #8
 2062 0078 0132     		adds	r2, r2, #1
 2063 007a A154     		strb	r1, [r4, r2]
 2064 007c 190C     		lsrs	r1, r3, #16
 2065 007e 0132     		adds	r2, r2, #1
 2066 0080 A154     		strb	r1, [r4, r2]
 2067 0082 1B0E     		lsrs	r3, r3, #24
 2068              	.LVL313:
 2069 0084 0132     		adds	r2, r2, #1
 2070 0086 A354     		strb	r3, [r4, r2]
 354:Source\mbedtls_open\library/md5.c **** 
 355:Source\mbedtls_open\library/md5.c ****     if( ( ret = mbedtls_internal_md5_process( ctx, ctx->buffer ) ) != 0 )
 2071              		.loc 1 355 0
 2072 0088 2100     		movs	r1, r4
 2073 008a 1831     		adds	r1, r1, #24
 2074 008c 2000     		movs	r0, r4
 2075 008e FFF7FEFF 		bl	mbedtls_internal_md5_process
 2076              	.LVL314:
 2077 0092 0028     		cmp	r0, #0
 2078 0094 23D1     		bne	.L30
 356:Source\mbedtls_open\library/md5.c ****         return( ret );
 357:Source\mbedtls_open\library/md5.c **** 
 358:Source\mbedtls_open\library/md5.c ****     /*
 359:Source\mbedtls_open\library/md5.c ****      * Output final state
 360:Source\mbedtls_open\library/md5.c ****      */
 361:Source\mbedtls_open\library/md5.c ****     PUT_UINT32_LE( ctx->state[0], output,  0 );
 2079              		.loc 1 361 0
 2080 0096 237A     		ldrb	r3, [r4, #8]
 2081 0098 2B70     		strb	r3, [r5]
 2082 009a A368     		ldr	r3, [r4, #8]
 2083 009c 1B0A     		lsrs	r3, r3, #8
 2084 009e 6B70     		strb	r3, [r5, #1]
 2085 00a0 A37A     		ldrb	r3, [r4, #10]
 2086 00a2 AB70     		strb	r3, [r5, #2]
 2087 00a4 E37A     		ldrb	r3, [r4, #11]
ARM GAS  C:\Users\Phuong\AppData\Local\Temp\ccYkRU5p.s 			page 44


 2088 00a6 EB70     		strb	r3, [r5, #3]
 362:Source\mbedtls_open\library/md5.c ****     PUT_UINT32_LE( ctx->state[1], output,  4 );
 2089              		.loc 1 362 0
 2090 00a8 237B     		ldrb	r3, [r4, #12]
 2091 00aa 2B71     		strb	r3, [r5, #4]
 2092 00ac E368     		ldr	r3, [r4, #12]
 2093 00ae 1B0A     		lsrs	r3, r3, #8
 2094 00b0 6B71     		strb	r3, [r5, #5]
 2095 00b2 A37B     		ldrb	r3, [r4, #14]
 2096 00b4 AB71     		strb	r3, [r5, #6]
 2097 00b6 E37B     		ldrb	r3, [r4, #15]
 2098 00b8 EB71     		strb	r3, [r5, #7]
 363:Source\mbedtls_open\library/md5.c ****     PUT_UINT32_LE( ctx->state[2], output,  8 );
 2099              		.loc 1 363 0
 2100 00ba 237C     		ldrb	r3, [r4, #16]
 2101 00bc 2B72     		strb	r3, [r5, #8]
 2102 00be 2369     		ldr	r3, [r4, #16]
 2103 00c0 1B0A     		lsrs	r3, r3, #8
 2104 00c2 6B72     		strb	r3, [r5, #9]
 2105 00c4 A37C     		ldrb	r3, [r4, #18]
 2106 00c6 AB72     		strb	r3, [r5, #10]
 2107 00c8 E37C     		ldrb	r3, [r4, #19]
 2108 00ca EB72     		strb	r3, [r5, #11]
 364:Source\mbedtls_open\library/md5.c ****     PUT_UINT32_LE( ctx->state[3], output, 12 );
 2109              		.loc 1 364 0
 2110 00cc 237D     		ldrb	r3, [r4, #20]
 2111 00ce 2B73     		strb	r3, [r5, #12]
 2112 00d0 6369     		ldr	r3, [r4, #20]
 2113 00d2 1B0A     		lsrs	r3, r3, #8
 2114 00d4 6B73     		strb	r3, [r5, #13]
 2115 00d6 A37D     		ldrb	r3, [r4, #22]
 2116 00d8 AB73     		strb	r3, [r5, #14]
 2117 00da E37D     		ldrb	r3, [r4, #23]
 2118 00dc EB73     		strb	r3, [r5, #15]
 2119              	.L30:
 365:Source\mbedtls_open\library/md5.c **** 
 366:Source\mbedtls_open\library/md5.c ****     return( 0 );
 367:Source\mbedtls_open\library/md5.c **** }
 2120              		.loc 1 367 0
 2121              		@ sp needed
 2122              	.LVL315:
 2123              	.LVL316:
 2124 00de 70BD     		pop	{r4, r5, r6, pc}
 2125              		.cfi_endproc
 2126              	.LFE10:
 2127              		.size	mbedtls_md5_finish_ret, .-mbedtls_md5_finish_ret
 2128              		.section	.text.mbedtls_md5_finish,"ax",%progbits
 2129              		.align	2
 2130              		.global	mbedtls_md5_finish
 2131              		.code	16
 2132              		.thumb_func
 2133              		.type	mbedtls_md5_finish, %function
 2134              	mbedtls_md5_finish:
 2135              	.LFB11:
 368:Source\mbedtls_open\library/md5.c **** 
 369:Source\mbedtls_open\library/md5.c **** #if !defined(MBEDTLS_DEPRECATED_REMOVED)
 370:Source\mbedtls_open\library/md5.c **** void mbedtls_md5_finish( mbedtls_md5_context *ctx,
ARM GAS  C:\Users\Phuong\AppData\Local\Temp\ccYkRU5p.s 			page 45


 371:Source\mbedtls_open\library/md5.c ****                          unsigned char output[16] )
 372:Source\mbedtls_open\library/md5.c **** {
 2136              		.loc 1 372 0
 2137              		.cfi_startproc
 2138              		@ args = 0, pretend = 0, frame = 0
 2139              		@ frame_needed = 0, uses_anonymous_args = 0
 2140              	.LVL317:
 2141 0000 10B5     		push	{r4, lr}
 2142              		.cfi_def_cfa_offset 8
 2143              		.cfi_offset 4, -8
 2144              		.cfi_offset 14, -4
 373:Source\mbedtls_open\library/md5.c ****     mbedtls_md5_finish_ret( ctx, output );
 2145              		.loc 1 373 0
 2146 0002 FFF7FEFF 		bl	mbedtls_md5_finish_ret
 2147              	.LVL318:
 374:Source\mbedtls_open\library/md5.c **** }
 2148              		.loc 1 374 0
 2149              		@ sp needed
 2150 0006 10BD     		pop	{r4, pc}
 2151              		.cfi_endproc
 2152              	.LFE11:
 2153              		.size	mbedtls_md5_finish, .-mbedtls_md5_finish
 2154              		.section	.text.mbedtls_md5_ret,"ax",%progbits
 2155              		.align	2
 2156              		.global	mbedtls_md5_ret
 2157              		.code	16
 2158              		.thumb_func
 2159              		.type	mbedtls_md5_ret, %function
 2160              	mbedtls_md5_ret:
 2161              	.LFB12:
 375:Source\mbedtls_open\library/md5.c **** #endif
 376:Source\mbedtls_open\library/md5.c **** 
 377:Source\mbedtls_open\library/md5.c **** #endif /* !MBEDTLS_MD5_ALT */
 378:Source\mbedtls_open\library/md5.c **** 
 379:Source\mbedtls_open\library/md5.c **** /*
 380:Source\mbedtls_open\library/md5.c ****  * output = MD5( input buffer )
 381:Source\mbedtls_open\library/md5.c ****  */
 382:Source\mbedtls_open\library/md5.c **** int mbedtls_md5_ret( const unsigned char *input,
 383:Source\mbedtls_open\library/md5.c ****                      size_t ilen,
 384:Source\mbedtls_open\library/md5.c ****                      unsigned char output[16] )
 385:Source\mbedtls_open\library/md5.c **** {
 2162              		.loc 1 385 0
 2163              		.cfi_startproc
 2164              		@ args = 0, pretend = 0, frame = 88
 2165              		@ frame_needed = 0, uses_anonymous_args = 0
 2166              	.LVL319:
 2167 0000 F0B5     		push	{r4, r5, r6, r7, lr}
 2168              		.cfi_def_cfa_offset 20
 2169              		.cfi_offset 4, -20
 2170              		.cfi_offset 5, -16
 2171              		.cfi_offset 6, -12
 2172              		.cfi_offset 7, -8
 2173              		.cfi_offset 14, -4
 2174 0002 97B0     		sub	sp, sp, #92
 2175              		.cfi_def_cfa_offset 112
 2176 0004 0500     		movs	r5, r0
 2177 0006 0E00     		movs	r6, r1
ARM GAS  C:\Users\Phuong\AppData\Local\Temp\ccYkRU5p.s 			page 46


 2178 0008 1700     		movs	r7, r2
 386:Source\mbedtls_open\library/md5.c ****     int ret;
 387:Source\mbedtls_open\library/md5.c ****     mbedtls_md5_context ctx;
 388:Source\mbedtls_open\library/md5.c **** 
 389:Source\mbedtls_open\library/md5.c ****     mbedtls_md5_init( &ctx );
 2179              		.loc 1 389 0
 2180 000a 6846     		mov	r0, sp
 2181              	.LVL320:
 2182 000c FFF7FEFF 		bl	mbedtls_md5_init
 2183              	.LVL321:
 390:Source\mbedtls_open\library/md5.c **** 
 391:Source\mbedtls_open\library/md5.c ****     if( ( ret = mbedtls_md5_starts_ret( &ctx ) ) != 0 )
 2184              		.loc 1 391 0
 2185 0010 6846     		mov	r0, sp
 2186 0012 FFF7FEFF 		bl	mbedtls_md5_starts_ret
 2187              	.LVL322:
 2188 0016 041E     		subs	r4, r0, #0
 2189              	.LVL323:
 2190 0018 0BD1     		bne	.L35
 392:Source\mbedtls_open\library/md5.c ****         goto exit;
 393:Source\mbedtls_open\library/md5.c **** 
 394:Source\mbedtls_open\library/md5.c ****     if( ( ret = mbedtls_md5_update_ret( &ctx, input, ilen ) ) != 0 )
 2191              		.loc 1 394 0
 2192 001a 3200     		movs	r2, r6
 2193 001c 2900     		movs	r1, r5
 2194 001e 6846     		mov	r0, sp
 2195              	.LVL324:
 2196 0020 FFF7FEFF 		bl	mbedtls_md5_update_ret
 2197              	.LVL325:
 2198 0024 041E     		subs	r4, r0, #0
 2199              	.LVL326:
 2200 0026 04D1     		bne	.L35
 395:Source\mbedtls_open\library/md5.c ****         goto exit;
 396:Source\mbedtls_open\library/md5.c **** 
 397:Source\mbedtls_open\library/md5.c ****     if( ( ret = mbedtls_md5_finish_ret( &ctx, output ) ) != 0 )
 2201              		.loc 1 397 0
 2202 0028 3900     		movs	r1, r7
 2203 002a 6846     		mov	r0, sp
 2204              	.LVL327:
 2205 002c FFF7FEFF 		bl	mbedtls_md5_finish_ret
 2206              	.LVL328:
 2207 0030 0400     		movs	r4, r0
 2208              	.LVL329:
 2209              	.L35:
 398:Source\mbedtls_open\library/md5.c ****         goto exit;
 399:Source\mbedtls_open\library/md5.c **** 
 400:Source\mbedtls_open\library/md5.c **** exit:
 401:Source\mbedtls_open\library/md5.c ****     mbedtls_md5_free( &ctx );
 2210              		.loc 1 401 0
 2211 0032 6846     		mov	r0, sp
 2212              	.LVL330:
 2213 0034 FFF7FEFF 		bl	mbedtls_md5_free
 2214              	.LVL331:
 402:Source\mbedtls_open\library/md5.c **** 
 403:Source\mbedtls_open\library/md5.c ****     return( ret );
 404:Source\mbedtls_open\library/md5.c **** }
 2215              		.loc 1 404 0
ARM GAS  C:\Users\Phuong\AppData\Local\Temp\ccYkRU5p.s 			page 47


 2216 0038 2000     		movs	r0, r4
 2217 003a 17B0     		add	sp, sp, #92
 2218              		@ sp needed
 2219              	.LVL332:
 2220              	.LVL333:
 2221              	.LVL334:
 2222              	.LVL335:
 2223 003c F0BD     		pop	{r4, r5, r6, r7, pc}
 2224              		.cfi_endproc
 2225              	.LFE12:
 2226              		.size	mbedtls_md5_ret, .-mbedtls_md5_ret
 2227 003e C046     		.section	.text.mbedtls_md5,"ax",%progbits
 2228              		.align	2
 2229              		.global	mbedtls_md5
 2230              		.code	16
 2231              		.thumb_func
 2232              		.type	mbedtls_md5, %function
 2233              	mbedtls_md5:
 2234              	.LFB13:
 405:Source\mbedtls_open\library/md5.c **** 
 406:Source\mbedtls_open\library/md5.c **** #if !defined(MBEDTLS_DEPRECATED_REMOVED)
 407:Source\mbedtls_open\library/md5.c **** void mbedtls_md5( const unsigned char *input,
 408:Source\mbedtls_open\library/md5.c ****                   size_t ilen,
 409:Source\mbedtls_open\library/md5.c ****                   unsigned char output[16] )
 410:Source\mbedtls_open\library/md5.c **** {
 2235              		.loc 1 410 0
 2236              		.cfi_startproc
 2237              		@ args = 0, pretend = 0, frame = 0
 2238              		@ frame_needed = 0, uses_anonymous_args = 0
 2239              	.LVL336:
 2240 0000 10B5     		push	{r4, lr}
 2241              		.cfi_def_cfa_offset 8
 2242              		.cfi_offset 4, -8
 2243              		.cfi_offset 14, -4
 411:Source\mbedtls_open\library/md5.c ****     mbedtls_md5_ret( input, ilen, output );
 2244              		.loc 1 411 0
 2245 0002 FFF7FEFF 		bl	mbedtls_md5_ret
 2246              	.LVL337:
 412:Source\mbedtls_open\library/md5.c **** }
 2247              		.loc 1 412 0
 2248              		@ sp needed
 2249 0006 10BD     		pop	{r4, pc}
 2250              		.cfi_endproc
 2251              	.LFE13:
 2252              		.size	mbedtls_md5, .-mbedtls_md5
 2253              		.section	.text.mbedtls_md5_self_test,"ax",%progbits
 2254              		.align	2
 2255              		.global	mbedtls_md5_self_test
 2256              		.code	16
 2257              		.thumb_func
 2258              		.type	mbedtls_md5_self_test, %function
 2259              	mbedtls_md5_self_test:
 2260              	.LFB14:
 413:Source\mbedtls_open\library/md5.c **** #endif
 414:Source\mbedtls_open\library/md5.c **** 
 415:Source\mbedtls_open\library/md5.c **** #if defined(MBEDTLS_SELF_TEST)
 416:Source\mbedtls_open\library/md5.c **** /*
ARM GAS  C:\Users\Phuong\AppData\Local\Temp\ccYkRU5p.s 			page 48


 417:Source\mbedtls_open\library/md5.c ****  * RFC 1321 test vectors
 418:Source\mbedtls_open\library/md5.c ****  */
 419:Source\mbedtls_open\library/md5.c **** static const unsigned char md5_test_buf[7][81] =
 420:Source\mbedtls_open\library/md5.c **** {
 421:Source\mbedtls_open\library/md5.c ****     { "" },
 422:Source\mbedtls_open\library/md5.c ****     { "a" },
 423:Source\mbedtls_open\library/md5.c ****     { "abc" },
 424:Source\mbedtls_open\library/md5.c ****     { "message digest" },
 425:Source\mbedtls_open\library/md5.c ****     { "abcdefghijklmnopqrstuvwxyz" },
 426:Source\mbedtls_open\library/md5.c ****     { "ABCDEFGHIJKLMNOPQRSTUVWXYZabcdefghijklmnopqrstuvwxyz0123456789" },
 427:Source\mbedtls_open\library/md5.c ****     { "12345678901234567890123456789012345678901234567890123456789012"
 428:Source\mbedtls_open\library/md5.c ****       "345678901234567890" }
 429:Source\mbedtls_open\library/md5.c **** };
 430:Source\mbedtls_open\library/md5.c **** 
 431:Source\mbedtls_open\library/md5.c **** static const size_t md5_test_buflen[7] =
 432:Source\mbedtls_open\library/md5.c **** {
 433:Source\mbedtls_open\library/md5.c ****     0, 1, 3, 14, 26, 62, 80
 434:Source\mbedtls_open\library/md5.c **** };
 435:Source\mbedtls_open\library/md5.c **** 
 436:Source\mbedtls_open\library/md5.c **** static const unsigned char md5_test_sum[7][16] =
 437:Source\mbedtls_open\library/md5.c **** {
 438:Source\mbedtls_open\library/md5.c ****     { 0xD4, 0x1D, 0x8C, 0xD9, 0x8F, 0x00, 0xB2, 0x04,
 439:Source\mbedtls_open\library/md5.c ****       0xE9, 0x80, 0x09, 0x98, 0xEC, 0xF8, 0x42, 0x7E },
 440:Source\mbedtls_open\library/md5.c ****     { 0x0C, 0xC1, 0x75, 0xB9, 0xC0, 0xF1, 0xB6, 0xA8,
 441:Source\mbedtls_open\library/md5.c ****       0x31, 0xC3, 0x99, 0xE2, 0x69, 0x77, 0x26, 0x61 },
 442:Source\mbedtls_open\library/md5.c ****     { 0x90, 0x01, 0x50, 0x98, 0x3C, 0xD2, 0x4F, 0xB0,
 443:Source\mbedtls_open\library/md5.c ****       0xD6, 0x96, 0x3F, 0x7D, 0x28, 0xE1, 0x7F, 0x72 },
 444:Source\mbedtls_open\library/md5.c ****     { 0xF9, 0x6B, 0x69, 0x7D, 0x7C, 0xB7, 0x93, 0x8D,
 445:Source\mbedtls_open\library/md5.c ****       0x52, 0x5A, 0x2F, 0x31, 0xAA, 0xF1, 0x61, 0xD0 },
 446:Source\mbedtls_open\library/md5.c ****     { 0xC3, 0xFC, 0xD3, 0xD7, 0x61, 0x92, 0xE4, 0x00,
 447:Source\mbedtls_open\library/md5.c ****       0x7D, 0xFB, 0x49, 0x6C, 0xCA, 0x67, 0xE1, 0x3B },
 448:Source\mbedtls_open\library/md5.c ****     { 0xD1, 0x74, 0xAB, 0x98, 0xD2, 0x77, 0xD9, 0xF5,
 449:Source\mbedtls_open\library/md5.c ****       0xA5, 0x61, 0x1C, 0x2C, 0x9F, 0x41, 0x9D, 0x9F },
 450:Source\mbedtls_open\library/md5.c ****     { 0x57, 0xED, 0xF4, 0xA2, 0x2B, 0xE3, 0xC9, 0x55,
 451:Source\mbedtls_open\library/md5.c ****       0xAC, 0x49, 0xDA, 0x2E, 0x21, 0x07, 0xB6, 0x7A }
 452:Source\mbedtls_open\library/md5.c **** };
 453:Source\mbedtls_open\library/md5.c **** 
 454:Source\mbedtls_open\library/md5.c **** /*
 455:Source\mbedtls_open\library/md5.c ****  * Checkup routine
 456:Source\mbedtls_open\library/md5.c ****  */
 457:Source\mbedtls_open\library/md5.c **** int mbedtls_md5_self_test( int verbose )
 458:Source\mbedtls_open\library/md5.c **** {
 2261              		.loc 1 458 0
 2262              		.cfi_startproc
 2263              		@ args = 0, pretend = 0, frame = 16
 2264              		@ frame_needed = 0, uses_anonymous_args = 0
 2265              	.LVL338:
 2266 0000 70B5     		push	{r4, r5, r6, lr}
 2267              		.cfi_def_cfa_offset 16
 2268              		.cfi_offset 4, -16
 2269              		.cfi_offset 5, -12
 2270              		.cfi_offset 6, -8
 2271              		.cfi_offset 14, -4
 2272 0002 84B0     		sub	sp, sp, #16
 2273              		.cfi_def_cfa_offset 32
 2274 0004 0500     		movs	r5, r0
 2275              	.LVL339:
ARM GAS  C:\Users\Phuong\AppData\Local\Temp\ccYkRU5p.s 			page 49


 459:Source\mbedtls_open\library/md5.c ****     int i, ret = 0;
 460:Source\mbedtls_open\library/md5.c ****     unsigned char md5sum[16];
 461:Source\mbedtls_open\library/md5.c **** 
 462:Source\mbedtls_open\library/md5.c ****     for( i = 0; i < 7; i++ )
 2276              		.loc 1 462 0
 2277 0006 0024     		movs	r4, #0
 2278 0008 24E0     		b	.L38
 2279              	.LVL340:
 2280              	.L42:
 463:Source\mbedtls_open\library/md5.c ****     {
 464:Source\mbedtls_open\library/md5.c ****         if( verbose != 0 )
 2281              		.loc 1 464 0
 2282 000a 002D     		cmp	r5, #0
 2283 000c 03D0     		beq	.L39
 465:Source\mbedtls_open\library/md5.c ****             mbedtls_printf( "  MD5 test #%d: ", i + 1 );
 2284              		.loc 1 465 0
 2285 000e 611C     		adds	r1, r4, #1
 2286 0010 1B48     		ldr	r0, .L47
 2287 0012 FFF7FEFF 		bl	printf
 2288              	.LVL341:
 2289              	.L39:
 466:Source\mbedtls_open\library/md5.c **** 
 467:Source\mbedtls_open\library/md5.c ****         ret = mbedtls_md5_ret( md5_test_buf[i], md5_test_buflen[i], md5sum );
 2290              		.loc 1 467 0
 2291 0016 E000     		lsls	r0, r4, #3
 2292 0018 0019     		adds	r0, r0, r4
 2293 001a C300     		lsls	r3, r0, #3
 2294 001c C018     		adds	r0, r0, r3
 2295 001e 194B     		ldr	r3, .L47+4
 2296 0020 1818     		adds	r0, r3, r0
 2297 0022 A300     		lsls	r3, r4, #2
 2298 0024 184A     		ldr	r2, .L47+8
 2299 0026 D318     		adds	r3, r2, r3
 2300 0028 996B     		ldr	r1, [r3, #56]
 2301 002a 6A46     		mov	r2, sp
 2302 002c FFF7FEFF 		bl	mbedtls_md5_ret
 2303              	.LVL342:
 2304 0030 061E     		subs	r6, r0, #0
 2305              	.LVL343:
 468:Source\mbedtls_open\library/md5.c ****         if( ret != 0 )
 2306              		.loc 1 468 0
 2307 0032 19D1     		bne	.L40
 469:Source\mbedtls_open\library/md5.c ****             goto fail;
 470:Source\mbedtls_open\library/md5.c **** 
 471:Source\mbedtls_open\library/md5.c ****         if( memcmp( md5sum, md5_test_sum[i], 16 ) != 0 )
 2308              		.loc 1 471 0
 2309 0034 2301     		lsls	r3, r4, #4
 2310 0036 1449     		ldr	r1, .L47+8
 2311 0038 5431     		adds	r1, r1, #84
 2312 003a C918     		adds	r1, r1, r3
 2313 003c 1022     		movs	r2, #16
 2314 003e 6846     		mov	r0, sp
 2315              	.LVL344:
 2316 0040 FFF7FEFF 		bl	memcmp
 2317              	.LVL345:
 2318 0044 0028     		cmp	r0, #0
 2319 0046 0ED1     		bne	.L44
ARM GAS  C:\Users\Phuong\AppData\Local\Temp\ccYkRU5p.s 			page 50


 472:Source\mbedtls_open\library/md5.c ****         {
 473:Source\mbedtls_open\library/md5.c ****             ret = 1;
 474:Source\mbedtls_open\library/md5.c ****             goto fail;
 475:Source\mbedtls_open\library/md5.c ****         }
 476:Source\mbedtls_open\library/md5.c **** 
 477:Source\mbedtls_open\library/md5.c ****         if( verbose != 0 )
 2320              		.loc 1 477 0
 2321 0048 002D     		cmp	r5, #0
 2322 004a 02D0     		beq	.L41
 478:Source\mbedtls_open\library/md5.c ****             mbedtls_printf( "passed\n" );
 2323              		.loc 1 478 0
 2324 004c 0F48     		ldr	r0, .L47+12
 2325 004e FFF7FEFF 		bl	puts
 2326              	.LVL346:
 2327              	.L41:
 462:Source\mbedtls_open\library/md5.c ****     {
 2328              		.loc 1 462 0 discriminator 2
 2329 0052 0134     		adds	r4, r4, #1
 2330              	.LVL347:
 2331              	.L38:
 462:Source\mbedtls_open\library/md5.c ****     {
 2332              		.loc 1 462 0 is_stmt 0 discriminator 1
 2333 0054 062C     		cmp	r4, #6
 2334 0056 D8DD     		ble	.L42
 479:Source\mbedtls_open\library/md5.c ****     }
 480:Source\mbedtls_open\library/md5.c **** 
 481:Source\mbedtls_open\library/md5.c ****     if( verbose != 0 )
 2335              		.loc 1 481 0 is_stmt 1
 2336 0058 002D     		cmp	r5, #0
 2337 005a 0CD0     		beq	.L45
 482:Source\mbedtls_open\library/md5.c ****         mbedtls_printf( "\n" );
 2338              		.loc 1 482 0
 2339 005c 0A20     		movs	r0, #10
 2340 005e FFF7FEFF 		bl	putchar
 2341              	.LVL348:
 483:Source\mbedtls_open\library/md5.c **** 
 484:Source\mbedtls_open\library/md5.c ****     return( 0 );
 2342              		.loc 1 484 0
 2343 0062 0020     		movs	r0, #0
 2344 0064 0AE0     		b	.L43
 2345              	.LVL349:
 2346              	.L44:
 473:Source\mbedtls_open\library/md5.c ****             goto fail;
 2347              		.loc 1 473 0
 2348 0066 0126     		movs	r6, #1
 2349              	.LVL350:
 2350              	.L40:
 485:Source\mbedtls_open\library/md5.c **** 
 486:Source\mbedtls_open\library/md5.c **** fail:
 487:Source\mbedtls_open\library/md5.c ****     if( verbose != 0 )
 2351              		.loc 1 487 0
 2352 0068 002D     		cmp	r5, #0
 2353 006a 06D0     		beq	.L46
 488:Source\mbedtls_open\library/md5.c ****         mbedtls_printf( "failed\n" );
 2354              		.loc 1 488 0
 2355 006c 0848     		ldr	r0, .L47+16
 2356 006e FFF7FEFF 		bl	puts
ARM GAS  C:\Users\Phuong\AppData\Local\Temp\ccYkRU5p.s 			page 51


 2357              	.LVL351:
 489:Source\mbedtls_open\library/md5.c **** 
 490:Source\mbedtls_open\library/md5.c ****     return( ret );
 2358              		.loc 1 490 0
 2359 0072 3000     		movs	r0, r6
 2360 0074 02E0     		b	.L43
 2361              	.LVL352:
 2362              	.L45:
 484:Source\mbedtls_open\library/md5.c **** 
 2363              		.loc 1 484 0
 2364 0076 0020     		movs	r0, #0
 2365 0078 00E0     		b	.L43
 2366              	.LVL353:
 2367              	.L46:
 2368              		.loc 1 490 0
 2369 007a 3000     		movs	r0, r6
 2370              	.LVL354:
 2371              	.L43:
 491:Source\mbedtls_open\library/md5.c **** }
 2372              		.loc 1 491 0
 2373 007c 04B0     		add	sp, sp, #16
 2374              		@ sp needed
 2375              	.LVL355:
 2376              	.LVL356:
 2377 007e 70BD     		pop	{r4, r5, r6, pc}
 2378              	.L48:
 2379              		.align	2
 2380              	.L47:
 2381 0080 00000000 		.word	.LC0
 2382 0084 00000000 		.word	.LANCHOR0
 2383 0088 00020000 		.word	.LANCHOR1
 2384 008c 14000000 		.word	.LC4
 2385 0090 1C000000 		.word	.LC6
 2386              		.cfi_endproc
 2387              	.LFE14:
 2388              		.size	mbedtls_md5_self_test, .-mbedtls_md5_self_test
 2389              		.section	.rodata
 2390              		.align	2
 2391              		.set	.LANCHOR0,. + 0
 2392              		.set	.LANCHOR1,. + 512
 2393              		.type	md5_test_buf, %object
 2394              		.size	md5_test_buf, 567
 2395              	md5_test_buf:
 2396 0000 00       		.ascii	"\000"
 2397 0001 00000000 		.space	80
 2397      00000000 
 2397      00000000 
 2397      00000000 
 2397      00000000 
 2398 0051 6100     		.ascii	"a\000"
 2399 0053 00000000 		.space	79
 2399      00000000 
 2399      00000000 
 2399      00000000 
 2399      00000000 
 2400 00a2 61626300 		.ascii	"abc\000"
 2401 00a6 00000000 		.space	77
ARM GAS  C:\Users\Phuong\AppData\Local\Temp\ccYkRU5p.s 			page 52


 2401      00000000 
 2401      00000000 
 2401      00000000 
 2401      00000000 
 2402 00f3 6D657373 		.ascii	"message digest\000"
 2402      61676520 
 2402      64696765 
 2402      737400
 2403 0102 00000000 		.space	66
 2403      00000000 
 2403      00000000 
 2403      00000000 
 2403      00000000 
 2404 0144 61626364 		.ascii	"abcdefghijklmnopqrstuvwxyz\000"
 2404      65666768 
 2404      696A6B6C 
 2404      6D6E6F70 
 2404      71727374 
 2405 015f 00000000 		.space	54
 2405      00000000 
 2405      00000000 
 2405      00000000 
 2405      00000000 
 2406 0195 41424344 		.ascii	"ABCDEFGHIJKLMNOPQRSTUVWXYZabcdefghijklmnopqrstuvwxy"
 2406      45464748 
 2406      494A4B4C 
 2406      4D4E4F50 
 2406      51525354 
 2407 01c8 7A303132 		.ascii	"z0123456789\000"
 2407      33343536 
 2407      37383900 
 2408 01d4 00000000 		.space	18
 2408      00000000 
 2408      00000000 
 2408      00000000 
 2408      0000
 2409 01e6 31323334 		.ascii	"123456789012345678901234567890123456789012345678901"
 2409      35363738 
 2409      39303132 
 2409      33343536 
 2409      37383930 
 2410 0219 32333435 		.ascii	"23456789012345678901234567890\000"
 2410      36373839 
 2410      30313233 
 2410      34353637 
 2410      38393031 
 2411 0237 00       		.space	1
 2412              		.type	md5_test_buflen, %object
 2413              		.size	md5_test_buflen, 28
 2414              	md5_test_buflen:
 2415 0238 00000000 		.word	0
 2416 023c 01000000 		.word	1
 2417 0240 03000000 		.word	3
 2418 0244 0E000000 		.word	14
 2419 0248 1A000000 		.word	26
 2420 024c 3E000000 		.word	62
 2421 0250 50000000 		.word	80
ARM GAS  C:\Users\Phuong\AppData\Local\Temp\ccYkRU5p.s 			page 53


 2422              		.type	md5_test_sum, %object
 2423              		.size	md5_test_sum, 112
 2424              	md5_test_sum:
 2425 0254 D4       		.byte	-44
 2426 0255 1D       		.byte	29
 2427 0256 8C       		.byte	-116
 2428 0257 D9       		.byte	-39
 2429 0258 8F       		.byte	-113
 2430 0259 00       		.byte	0
 2431 025a B2       		.byte	-78
 2432 025b 04       		.byte	4
 2433 025c E9       		.byte	-23
 2434 025d 80       		.byte	-128
 2435 025e 09       		.byte	9
 2436 025f 98       		.byte	-104
 2437 0260 EC       		.byte	-20
 2438 0261 F8       		.byte	-8
 2439 0262 42       		.byte	66
 2440 0263 7E       		.byte	126
 2441 0264 0C       		.byte	12
 2442 0265 C1       		.byte	-63
 2443 0266 75       		.byte	117
 2444 0267 B9       		.byte	-71
 2445 0268 C0       		.byte	-64
 2446 0269 F1       		.byte	-15
 2447 026a B6       		.byte	-74
 2448 026b A8       		.byte	-88
 2449 026c 31       		.byte	49
 2450 026d C3       		.byte	-61
 2451 026e 99       		.byte	-103
 2452 026f E2       		.byte	-30
 2453 0270 69       		.byte	105
 2454 0271 77       		.byte	119
 2455 0272 26       		.byte	38
 2456 0273 61       		.byte	97
 2457 0274 90       		.byte	-112
 2458 0275 01       		.byte	1
 2459 0276 50       		.byte	80
 2460 0277 98       		.byte	-104
 2461 0278 3C       		.byte	60
 2462 0279 D2       		.byte	-46
 2463 027a 4F       		.byte	79
 2464 027b B0       		.byte	-80
 2465 027c D6       		.byte	-42
 2466 027d 96       		.byte	-106
 2467 027e 3F       		.byte	63
 2468 027f 7D       		.byte	125
 2469 0280 28       		.byte	40
 2470 0281 E1       		.byte	-31
 2471 0282 7F       		.byte	127
 2472 0283 72       		.byte	114
 2473 0284 F9       		.byte	-7
 2474 0285 6B       		.byte	107
 2475 0286 69       		.byte	105
 2476 0287 7D       		.byte	125
 2477 0288 7C       		.byte	124
 2478 0289 B7       		.byte	-73
ARM GAS  C:\Users\Phuong\AppData\Local\Temp\ccYkRU5p.s 			page 54


 2479 028a 93       		.byte	-109
 2480 028b 8D       		.byte	-115
 2481 028c 52       		.byte	82
 2482 028d 5A       		.byte	90
 2483 028e 2F       		.byte	47
 2484 028f 31       		.byte	49
 2485 0290 AA       		.byte	-86
 2486 0291 F1       		.byte	-15
 2487 0292 61       		.byte	97
 2488 0293 D0       		.byte	-48
 2489 0294 C3       		.byte	-61
 2490 0295 FC       		.byte	-4
 2491 0296 D3       		.byte	-45
 2492 0297 D7       		.byte	-41
 2493 0298 61       		.byte	97
 2494 0299 92       		.byte	-110
 2495 029a E4       		.byte	-28
 2496 029b 00       		.byte	0
 2497 029c 7D       		.byte	125
 2498 029d FB       		.byte	-5
 2499 029e 49       		.byte	73
 2500 029f 6C       		.byte	108
 2501 02a0 CA       		.byte	-54
 2502 02a1 67       		.byte	103
 2503 02a2 E1       		.byte	-31
 2504 02a3 3B       		.byte	59
 2505 02a4 D1       		.byte	-47
 2506 02a5 74       		.byte	116
 2507 02a6 AB       		.byte	-85
 2508 02a7 98       		.byte	-104
 2509 02a8 D2       		.byte	-46
 2510 02a9 77       		.byte	119
 2511 02aa D9       		.byte	-39
 2512 02ab F5       		.byte	-11
 2513 02ac A5       		.byte	-91
 2514 02ad 61       		.byte	97
 2515 02ae 1C       		.byte	28
 2516 02af 2C       		.byte	44
 2517 02b0 9F       		.byte	-97
 2518 02b1 41       		.byte	65
 2519 02b2 9D       		.byte	-99
 2520 02b3 9F       		.byte	-97
 2521 02b4 57       		.byte	87
 2522 02b5 ED       		.byte	-19
 2523 02b6 F4       		.byte	-12
 2524 02b7 A2       		.byte	-94
 2525 02b8 2B       		.byte	43
 2526 02b9 E3       		.byte	-29
 2527 02ba C9       		.byte	-55
 2528 02bb 55       		.byte	85
 2529 02bc AC       		.byte	-84
 2530 02bd 49       		.byte	73
 2531 02be DA       		.byte	-38
 2532 02bf 2E       		.byte	46
 2533 02c0 21       		.byte	33
 2534 02c1 07       		.byte	7
 2535 02c2 B6       		.byte	-74
ARM GAS  C:\Users\Phuong\AppData\Local\Temp\ccYkRU5p.s 			page 55


 2536 02c3 7A       		.byte	122
 2537              		.section	.rodata.str1.4,"aMS",%progbits,1
 2538              		.align	2
 2539              	.LC0:
 2540 0000 20204D44 		.ascii	"  MD5 test #%d: \000"
 2540      35207465 
 2540      73742023 
 2540      25643A20 
 2540      00
 2541 0011 000000   		.space	3
 2542              	.LC4:
 2543 0014 70617373 		.ascii	"passed\000"
 2543      656400
 2544 001b 00       		.space	1
 2545              	.LC6:
 2546 001c 6661696C 		.ascii	"failed\000"
 2546      656400
 2547              		.text
 2548              	.Letext0:
 2549              		.file 2 "c:\\program files (x86)\\cypress\\psoc creator\\4.2\\psoc creator\\import\\gnu\\arm\\5.4.
 2550              		.file 3 "c:\\program files (x86)\\cypress\\psoc creator\\4.2\\psoc creator\\import\\gnu\\arm\\5.4.
 2551              		.file 4 "c:\\program files (x86)\\cypress\\psoc creator\\4.2\\psoc creator\\import\\gnu\\arm\\5.4.
 2552              		.file 5 ".\\Source\\mbedtls_open\\include/mbedtls/md5.h"
 2553              		.file 6 ".\\Source\\mbedtls_open\\include/mbedtls/platform_util.h"
 2554              		.file 7 "c:\\program files (x86)\\cypress\\psoc creator\\4.2\\psoc creator\\import\\gnu\\arm\\5.4.
 2555              		.file 8 "c:\\program files (x86)\\cypress\\psoc creator\\4.2\\psoc creator\\import\\gnu\\arm\\5.4.
 2556              		.file 9 "<built-in>"
 2557              		.section	.debug_info,"",%progbits
 2558              	.Ldebug_info0:
 2559 0000 18090000 		.4byte	0x918
 2560 0004 0400     		.2byte	0x4
 2561 0006 00000000 		.4byte	.Ldebug_abbrev0
 2562 000a 04       		.byte	0x4
 2563 000b 01       		.uleb128 0x1
 2564 000c 13030000 		.4byte	.LASF57
 2565 0010 0C       		.byte	0xc
 2566 0011 73020000 		.4byte	.LASF58
 2567 0015 BC010000 		.4byte	.LASF59
 2568 0019 00000000 		.4byte	.Ldebug_ranges0+0
 2569 001d 00000000 		.4byte	0
 2570 0021 00000000 		.4byte	.Ldebug_line0
 2571 0025 02       		.uleb128 0x2
 2572 0026 01       		.byte	0x1
 2573 0027 06       		.byte	0x6
 2574 0028 5D000000 		.4byte	.LASF0
 2575 002c 02       		.uleb128 0x2
 2576 002d 01       		.byte	0x1
 2577 002e 08       		.byte	0x8
 2578 002f A2020000 		.4byte	.LASF1
 2579 0033 02       		.uleb128 0x2
 2580 0034 02       		.byte	0x2
 2581 0035 05       		.byte	0x5
 2582 0036 B0020000 		.4byte	.LASF2
 2583 003a 02       		.uleb128 0x2
 2584 003b 02       		.byte	0x2
 2585 003c 07       		.byte	0x7
 2586 003d 2D010000 		.4byte	.LASF3
ARM GAS  C:\Users\Phuong\AppData\Local\Temp\ccYkRU5p.s 			page 56


 2587 0041 02       		.uleb128 0x2
 2588 0042 04       		.byte	0x4
 2589 0043 05       		.byte	0x5
 2590 0044 82000000 		.4byte	.LASF4
 2591 0048 03       		.uleb128 0x3
 2592 0049 D5000000 		.4byte	.LASF9
 2593 004d 02       		.byte	0x2
 2594 004e 41       		.byte	0x41
 2595 004f 53000000 		.4byte	0x53
 2596 0053 02       		.uleb128 0x2
 2597 0054 04       		.byte	0x4
 2598 0055 07       		.byte	0x7
 2599 0056 ED000000 		.4byte	.LASF5
 2600 005a 02       		.uleb128 0x2
 2601 005b 08       		.byte	0x8
 2602 005c 05       		.byte	0x5
 2603 005d 4F000000 		.4byte	.LASF6
 2604 0061 02       		.uleb128 0x2
 2605 0062 08       		.byte	0x8
 2606 0063 07       		.byte	0x7
 2607 0064 38000000 		.4byte	.LASF7
 2608 0068 04       		.uleb128 0x4
 2609 0069 04       		.byte	0x4
 2610 006a 05       		.byte	0x5
 2611 006b 696E7400 		.ascii	"int\000"
 2612 006f 02       		.uleb128 0x2
 2613 0070 04       		.byte	0x4
 2614 0071 07       		.byte	0x7
 2615 0072 E0000000 		.4byte	.LASF8
 2616 0076 03       		.uleb128 0x3
 2617 0077 1E000000 		.4byte	.LASF10
 2618 007b 03       		.byte	0x3
 2619 007c D8       		.byte	0xd8
 2620 007d 6F000000 		.4byte	0x6f
 2621 0081 02       		.uleb128 0x2
 2622 0082 08       		.byte	0x8
 2623 0083 04       		.byte	0x4
 2624 0084 B0010000 		.4byte	.LASF11
 2625 0088 03       		.uleb128 0x3
 2626 0089 E6020000 		.4byte	.LASF12
 2627 008d 04       		.byte	0x4
 2628 008e 30       		.byte	0x30
 2629 008f 48000000 		.4byte	0x48
 2630 0093 05       		.uleb128 0x5
 2631 0094 C1000000 		.4byte	.LASF17
 2632 0098 58       		.byte	0x58
 2633 0099 05       		.byte	0x5
 2634 009a 3A       		.byte	0x3a
 2635 009b C4000000 		.4byte	0xc4
 2636 009f 06       		.uleb128 0x6
 2637 00a0 40010000 		.4byte	.LASF13
 2638 00a4 05       		.byte	0x5
 2639 00a5 3C       		.byte	0x3c
 2640 00a6 C4000000 		.4byte	0xc4
 2641 00aa 00       		.byte	0
 2642 00ab 06       		.uleb128 0x6
 2643 00ac 7C000000 		.4byte	.LASF14
ARM GAS  C:\Users\Phuong\AppData\Local\Temp\ccYkRU5p.s 			page 57


 2644 00b0 05       		.byte	0x5
 2645 00b1 3D       		.byte	0x3d
 2646 00b2 DB000000 		.4byte	0xdb
 2647 00b6 08       		.byte	0x8
 2648 00b7 06       		.uleb128 0x6
 2649 00b8 DC030000 		.4byte	.LASF15
 2650 00bc 05       		.byte	0x5
 2651 00bd 3E       		.byte	0x3e
 2652 00be EB000000 		.4byte	0xeb
 2653 00c2 18       		.byte	0x18
 2654 00c3 00       		.byte	0
 2655 00c4 07       		.uleb128 0x7
 2656 00c5 88000000 		.4byte	0x88
 2657 00c9 D4000000 		.4byte	0xd4
 2658 00cd 08       		.uleb128 0x8
 2659 00ce D4000000 		.4byte	0xd4
 2660 00d2 01       		.byte	0x1
 2661 00d3 00       		.byte	0
 2662 00d4 02       		.uleb128 0x2
 2663 00d5 04       		.byte	0x4
 2664 00d6 07       		.byte	0x7
 2665 00d7 A7010000 		.4byte	.LASF16
 2666 00db 07       		.uleb128 0x7
 2667 00dc 88000000 		.4byte	0x88
 2668 00e0 EB000000 		.4byte	0xeb
 2669 00e4 08       		.uleb128 0x8
 2670 00e5 D4000000 		.4byte	0xd4
 2671 00e9 03       		.byte	0x3
 2672 00ea 00       		.byte	0
 2673 00eb 07       		.uleb128 0x7
 2674 00ec 2C000000 		.4byte	0x2c
 2675 00f0 FB000000 		.4byte	0xfb
 2676 00f4 08       		.uleb128 0x8
 2677 00f5 D4000000 		.4byte	0xd4
 2678 00f9 3F       		.byte	0x3f
 2679 00fa 00       		.byte	0
 2680 00fb 03       		.uleb128 0x3
 2681 00fc C1000000 		.4byte	.LASF17
 2682 0100 05       		.byte	0x5
 2683 0101 40       		.byte	0x40
 2684 0102 93000000 		.4byte	0x93
 2685 0106 09       		.uleb128 0x9
 2686 0107 04       		.byte	0x4
 2687 0108 2C000000 		.4byte	0x2c
 2688 010c 02       		.uleb128 0x2
 2689 010d 01       		.byte	0x1
 2690 010e 08       		.byte	0x8
 2691 010f A5030000 		.4byte	.LASF18
 2692 0113 0A       		.uleb128 0xa
 2693 0114 02030000 		.4byte	.LASF19
 2694 0118 01       		.byte	0x1
 2695 0119 4A       		.byte	0x4a
 2696 011a 00000000 		.4byte	.LFB1
 2697 011e 0C000000 		.4byte	.LFE1-.LFB1
 2698 0122 01       		.uleb128 0x1
 2699 0123 9C       		.byte	0x9c
 2700 0124 54010000 		.4byte	0x154
ARM GAS  C:\Users\Phuong\AppData\Local\Temp\ccYkRU5p.s 			page 58


 2701 0128 0B       		.uleb128 0xb
 2702 0129 63747800 		.ascii	"ctx\000"
 2703 012d 01       		.byte	0x1
 2704 012e 4A       		.byte	0x4a
 2705 012f 54010000 		.4byte	0x154
 2706 0133 00000000 		.4byte	.LLST0
 2707 0137 0C       		.uleb128 0xc
 2708 0138 0A000000 		.4byte	.LVL1
 2709 013c CA080000 		.4byte	0x8ca
 2710 0140 0D       		.uleb128 0xd
 2711 0141 01       		.uleb128 0x1
 2712 0142 50       		.byte	0x50
 2713 0143 03       		.uleb128 0x3
 2714 0144 F3       		.byte	0xf3
 2715 0145 01       		.uleb128 0x1
 2716 0146 50       		.byte	0x50
 2717 0147 0D       		.uleb128 0xd
 2718 0148 01       		.uleb128 0x1
 2719 0149 51       		.byte	0x51
 2720 014a 01       		.uleb128 0x1
 2721 014b 30       		.byte	0x30
 2722 014c 0D       		.uleb128 0xd
 2723 014d 01       		.uleb128 0x1
 2724 014e 52       		.byte	0x52
 2725 014f 02       		.uleb128 0x2
 2726 0150 08       		.byte	0x8
 2727 0151 58       		.byte	0x58
 2728 0152 00       		.byte	0
 2729 0153 00       		.byte	0
 2730 0154 09       		.uleb128 0x9
 2731 0155 04       		.byte	0x4
 2732 0156 FB000000 		.4byte	0xfb
 2733 015a 0A       		.uleb128 0xa
 2734 015b CB030000 		.4byte	.LASF20
 2735 015f 01       		.byte	0x1
 2736 0160 4F       		.byte	0x4f
 2737 0161 00000000 		.4byte	.LFB2
 2738 0165 0E000000 		.4byte	.LFE2-.LFB2
 2739 0169 01       		.uleb128 0x1
 2740 016a 9C       		.byte	0x9c
 2741 016b 96010000 		.4byte	0x196
 2742 016f 0B       		.uleb128 0xb
 2743 0170 63747800 		.ascii	"ctx\000"
 2744 0174 01       		.byte	0x1
 2745 0175 4F       		.byte	0x4f
 2746 0176 54010000 		.4byte	0x154
 2747 017a 21000000 		.4byte	.LLST1
 2748 017e 0C       		.uleb128 0xc
 2749 017f 0C000000 		.4byte	.LVL3
 2750 0183 D3080000 		.4byte	0x8d3
 2751 0187 0D       		.uleb128 0xd
 2752 0188 01       		.uleb128 0x1
 2753 0189 50       		.byte	0x50
 2754 018a 03       		.uleb128 0x3
 2755 018b F3       		.byte	0xf3
 2756 018c 01       		.uleb128 0x1
 2757 018d 50       		.byte	0x50
ARM GAS  C:\Users\Phuong\AppData\Local\Temp\ccYkRU5p.s 			page 59


 2758 018e 0D       		.uleb128 0xd
 2759 018f 01       		.uleb128 0x1
 2760 0190 51       		.byte	0x51
 2761 0191 02       		.uleb128 0x2
 2762 0192 08       		.byte	0x8
 2763 0193 58       		.byte	0x58
 2764 0194 00       		.byte	0
 2765 0195 00       		.byte	0
 2766 0196 0A       		.uleb128 0xa
 2767 0197 AF000000 		.4byte	.LASF21
 2768 019b 01       		.byte	0x1
 2769 019c 57       		.byte	0x57
 2770 019d 00000000 		.4byte	.LFB3
 2771 01a1 0A000000 		.4byte	.LFE3-.LFB3
 2772 01a5 01       		.uleb128 0x1
 2773 01a6 9C       		.byte	0x9c
 2774 01a7 E8010000 		.4byte	0x1e8
 2775 01ab 0B       		.uleb128 0xb
 2776 01ac 64737400 		.ascii	"dst\000"
 2777 01b0 01       		.byte	0x1
 2778 01b1 57       		.byte	0x57
 2779 01b2 54010000 		.4byte	0x154
 2780 01b6 42000000 		.4byte	.LLST2
 2781 01ba 0B       		.uleb128 0xb
 2782 01bb 73726300 		.ascii	"src\000"
 2783 01bf 01       		.byte	0x1
 2784 01c0 58       		.byte	0x58
 2785 01c1 E8010000 		.4byte	0x1e8
 2786 01c5 63000000 		.4byte	.LLST3
 2787 01c9 0C       		.uleb128 0xc
 2788 01ca 08000000 		.4byte	.LVL5
 2789 01ce DE080000 		.4byte	0x8de
 2790 01d2 0D       		.uleb128 0xd
 2791 01d3 01       		.uleb128 0x1
 2792 01d4 50       		.byte	0x50
 2793 01d5 03       		.uleb128 0x3
 2794 01d6 F3       		.byte	0xf3
 2795 01d7 01       		.uleb128 0x1
 2796 01d8 50       		.byte	0x50
 2797 01d9 0D       		.uleb128 0xd
 2798 01da 01       		.uleb128 0x1
 2799 01db 51       		.byte	0x51
 2800 01dc 03       		.uleb128 0x3
 2801 01dd F3       		.byte	0xf3
 2802 01de 01       		.uleb128 0x1
 2803 01df 51       		.byte	0x51
 2804 01e0 0D       		.uleb128 0xd
 2805 01e1 01       		.uleb128 0x1
 2806 01e2 52       		.byte	0x52
 2807 01e3 02       		.uleb128 0x2
 2808 01e4 08       		.byte	0x8
 2809 01e5 58       		.byte	0x58
 2810 01e6 00       		.byte	0
 2811 01e7 00       		.byte	0
 2812 01e8 09       		.uleb128 0x9
 2813 01e9 04       		.byte	0x4
 2814 01ea EE010000 		.4byte	0x1ee
ARM GAS  C:\Users\Phuong\AppData\Local\Temp\ccYkRU5p.s 			page 60


 2815 01ee 0E       		.uleb128 0xe
 2816 01ef FB000000 		.4byte	0xfb
 2817 01f3 0F       		.uleb128 0xf
 2818 01f4 CF020000 		.4byte	.LASF23
 2819 01f8 01       		.byte	0x1
 2820 01f9 60       		.byte	0x60
 2821 01fa 68000000 		.4byte	0x68
 2822 01fe 00000000 		.4byte	.LFB4
 2823 0202 2C000000 		.4byte	.LFE4-.LFB4
 2824 0206 01       		.uleb128 0x1
 2825 0207 9C       		.byte	0x9c
 2826 0208 1C020000 		.4byte	0x21c
 2827 020c 0B       		.uleb128 0xb
 2828 020d 63747800 		.ascii	"ctx\000"
 2829 0211 01       		.byte	0x1
 2830 0212 60       		.byte	0x60
 2831 0213 54010000 		.4byte	0x154
 2832 0217 84000000 		.4byte	.LLST4
 2833 021b 00       		.byte	0
 2834 021c 0A       		.uleb128 0xa
 2835 021d EF020000 		.4byte	.LASF22
 2836 0221 01       		.byte	0x1
 2837 0222 6E       		.byte	0x6e
 2838 0223 00000000 		.4byte	.LFB5
 2839 0227 08000000 		.4byte	.LFE5-.LFB5
 2840 022b 01       		.uleb128 0x1
 2841 022c 9C       		.byte	0x9c
 2842 022d 52020000 		.4byte	0x252
 2843 0231 0B       		.uleb128 0xb
 2844 0232 63747800 		.ascii	"ctx\000"
 2845 0236 01       		.byte	0x1
 2846 0237 6E       		.byte	0x6e
 2847 0238 54010000 		.4byte	0x154
 2848 023c A5000000 		.4byte	.LLST5
 2849 0240 0C       		.uleb128 0xc
 2850 0241 06000000 		.4byte	.LVL9
 2851 0245 F3010000 		.4byte	0x1f3
 2852 0249 0D       		.uleb128 0xd
 2853 024a 01       		.uleb128 0x1
 2854 024b 50       		.byte	0x50
 2855 024c 03       		.uleb128 0x3
 2856 024d F3       		.byte	0xf3
 2857 024e 01       		.uleb128 0x1
 2858 024f 50       		.byte	0x50
 2859 0250 00       		.byte	0
 2860 0251 00       		.byte	0
 2861 0252 0F       		.uleb128 0xf
 2862 0253 8A010000 		.4byte	.LASF24
 2863 0257 01       		.byte	0x1
 2864 0258 75       		.byte	0x75
 2865 0259 68000000 		.4byte	0x68
 2866 025d 00000000 		.4byte	.LFB6
 2867 0261 E4090000 		.4byte	.LFE6-.LFB6
 2868 0265 01       		.uleb128 0x1
 2869 0266 9C       		.byte	0x9c
 2870 0267 C7020000 		.4byte	0x2c7
 2871 026b 0B       		.uleb128 0xb
ARM GAS  C:\Users\Phuong\AppData\Local\Temp\ccYkRU5p.s 			page 61


 2872 026c 63747800 		.ascii	"ctx\000"
 2873 0270 01       		.byte	0x1
 2874 0271 75       		.byte	0x75
 2875 0272 54010000 		.4byte	0x154
 2876 0276 C6000000 		.4byte	.LLST6
 2877 027a 10       		.uleb128 0x10
 2878 027b 28010000 		.4byte	.LASF25
 2879 027f 01       		.byte	0x1
 2880 0280 76       		.byte	0x76
 2881 0281 C7020000 		.4byte	0x2c7
 2882 0285 E7000000 		.4byte	.LLST7
 2883 0289 11       		.uleb128 0x11
 2884 028a 5800     		.ascii	"X\000"
 2885 028c 01       		.byte	0x1
 2886 028d 78       		.byte	0x78
 2887 028e D2020000 		.4byte	0x2d2
 2888 0292 12       		.uleb128 0x12
 2889 0293 4100     		.ascii	"A\000"
 2890 0295 01       		.byte	0x1
 2891 0296 78       		.byte	0x78
 2892 0297 88000000 		.4byte	0x88
 2893 029b 08010000 		.4byte	.LLST8
 2894 029f 12       		.uleb128 0x12
 2895 02a0 4200     		.ascii	"B\000"
 2896 02a2 01       		.byte	0x1
 2897 02a3 78       		.byte	0x78
 2898 02a4 88000000 		.4byte	0x88
 2899 02a8 1F030000 		.4byte	.LLST9
 2900 02ac 12       		.uleb128 0x12
 2901 02ad 4300     		.ascii	"C\000"
 2902 02af 01       		.byte	0x1
 2903 02b0 78       		.byte	0x78
 2904 02b1 88000000 		.4byte	0x88
 2905 02b5 08050000 		.4byte	.LLST10
 2906 02b9 12       		.uleb128 0x12
 2907 02ba 4400     		.ascii	"D\000"
 2908 02bc 01       		.byte	0x1
 2909 02bd 78       		.byte	0x78
 2910 02be 88000000 		.4byte	0x88
 2911 02c2 9C060000 		.4byte	.LLST11
 2912 02c6 00       		.byte	0
 2913 02c7 09       		.uleb128 0x9
 2914 02c8 04       		.byte	0x4
 2915 02c9 CD020000 		.4byte	0x2cd
 2916 02cd 0E       		.uleb128 0xe
 2917 02ce 2C000000 		.4byte	0x2c
 2918 02d2 07       		.uleb128 0x7
 2919 02d3 88000000 		.4byte	0x88
 2920 02d7 E2020000 		.4byte	0x2e2
 2921 02db 08       		.uleb128 0x8
 2922 02dc D4000000 		.4byte	0xd4
 2923 02e0 0F       		.byte	0xf
 2924 02e1 00       		.byte	0
 2925 02e2 0A       		.uleb128 0xa
 2926 02e3 52010000 		.4byte	.LASF26
 2927 02e7 01       		.byte	0x1
 2928 02e8 F4       		.byte	0xf4
ARM GAS  C:\Users\Phuong\AppData\Local\Temp\ccYkRU5p.s 			page 62


 2929 02e9 00000000 		.4byte	.LFB7
 2930 02ed 08000000 		.4byte	.LFE7-.LFB7
 2931 02f1 01       		.uleb128 0x1
 2932 02f2 9C       		.byte	0x9c
 2933 02f3 2E030000 		.4byte	0x32e
 2934 02f7 0B       		.uleb128 0xb
 2935 02f8 63747800 		.ascii	"ctx\000"
 2936 02fc 01       		.byte	0x1
 2937 02fd F4       		.byte	0xf4
 2938 02fe 54010000 		.4byte	0x154
 2939 0302 50080000 		.4byte	.LLST12
 2940 0306 10       		.uleb128 0x10
 2941 0307 28010000 		.4byte	.LASF25
 2942 030b 01       		.byte	0x1
 2943 030c F5       		.byte	0xf5
 2944 030d C7020000 		.4byte	0x2c7
 2945 0311 71080000 		.4byte	.LLST13
 2946 0315 0C       		.uleb128 0xc
 2947 0316 06000000 		.4byte	.LVL271
 2948 031a 52020000 		.4byte	0x252
 2949 031e 0D       		.uleb128 0xd
 2950 031f 01       		.uleb128 0x1
 2951 0320 50       		.byte	0x50
 2952 0321 03       		.uleb128 0x3
 2953 0322 F3       		.byte	0xf3
 2954 0323 01       		.uleb128 0x1
 2955 0324 50       		.byte	0x50
 2956 0325 0D       		.uleb128 0xd
 2957 0326 01       		.uleb128 0x1
 2958 0327 51       		.byte	0x51
 2959 0328 03       		.uleb128 0x3
 2960 0329 F3       		.byte	0xf3
 2961 032a 01       		.uleb128 0x1
 2962 032b 51       		.byte	0x51
 2963 032c 00       		.byte	0
 2964 032d 00       		.byte	0
 2965 032e 0F       		.uleb128 0xf
 2966 032f FF000000 		.4byte	.LASF27
 2967 0333 01       		.byte	0x1
 2968 0334 FF       		.byte	0xff
 2969 0335 68000000 		.4byte	0x68
 2970 0339 00000000 		.4byte	.LFB8
 2971 033d 90000000 		.4byte	.LFE8-.LFB8
 2972 0341 01       		.uleb128 0x1
 2973 0342 9C       		.byte	0x9c
 2974 0343 1D040000 		.4byte	0x41d
 2975 0347 0B       		.uleb128 0xb
 2976 0348 63747800 		.ascii	"ctx\000"
 2977 034c 01       		.byte	0x1
 2978 034d FF       		.byte	0xff
 2979 034e 54010000 		.4byte	0x154
 2980 0352 92080000 		.4byte	.LLST14
 2981 0356 13       		.uleb128 0x13
 2982 0357 8B000000 		.4byte	.LASF28
 2983 035b 01       		.byte	0x1
 2984 035c 0001     		.2byte	0x100
 2985 035e C7020000 		.4byte	0x2c7
ARM GAS  C:\Users\Phuong\AppData\Local\Temp\ccYkRU5p.s 			page 63


 2986 0362 E1080000 		.4byte	.LLST15
 2987 0366 13       		.uleb128 0x13
 2988 0367 0B040000 		.4byte	.LASF29
 2989 036b 01       		.byte	0x1
 2990 036c 0101     		.2byte	0x101
 2991 036e 76000000 		.4byte	0x76
 2992 0372 15090000 		.4byte	.LLST16
 2993 0376 14       		.uleb128 0x14
 2994 0377 72657400 		.ascii	"ret\000"
 2995 037b 01       		.byte	0x1
 2996 037c 0301     		.2byte	0x103
 2997 037e 68000000 		.4byte	0x68
 2998 0382 49090000 		.4byte	.LLST17
 2999 0386 15       		.uleb128 0x15
 3000 0387 BA020000 		.4byte	.LASF30
 3001 038b 01       		.byte	0x1
 3002 038c 0401     		.2byte	0x104
 3003 038e 76000000 		.4byte	0x76
 3004 0392 67090000 		.4byte	.LLST18
 3005 0396 15       		.uleb128 0x15
 3006 0397 1A040000 		.4byte	.LASF31
 3007 039b 01       		.byte	0x1
 3008 039c 0501     		.2byte	0x105
 3009 039e 88000000 		.4byte	0x88
 3010 03a2 90090000 		.4byte	.LLST19
 3011 03a6 16       		.uleb128 0x16
 3012 03a7 44000000 		.4byte	.LVL279
 3013 03ab DE080000 		.4byte	0x8de
 3014 03af C9030000 		.4byte	0x3c9
 3015 03b3 0D       		.uleb128 0xd
 3016 03b4 01       		.uleb128 0x1
 3017 03b5 50       		.byte	0x50
 3018 03b6 05       		.uleb128 0x5
 3019 03b7 79       		.byte	0x79
 3020 03b8 00       		.sleb128 0
 3021 03b9 77       		.byte	0x77
 3022 03ba 00       		.sleb128 0
 3023 03bb 22       		.byte	0x22
 3024 03bc 0D       		.uleb128 0xd
 3025 03bd 01       		.uleb128 0x1
 3026 03be 51       		.byte	0x51
 3027 03bf 02       		.uleb128 0x2
 3028 03c0 75       		.byte	0x75
 3029 03c1 00       		.sleb128 0
 3030 03c2 0D       		.uleb128 0xd
 3031 03c3 01       		.uleb128 0x1
 3032 03c4 52       		.byte	0x52
 3033 03c5 02       		.uleb128 0x2
 3034 03c6 78       		.byte	0x78
 3035 03c7 00       		.sleb128 0
 3036 03c8 00       		.byte	0
 3037 03c9 16       		.uleb128 0x16
 3038 03ca 4C000000 		.4byte	.LVL280
 3039 03ce 52020000 		.4byte	0x252
 3040 03d2 E3030000 		.4byte	0x3e3
 3041 03d6 0D       		.uleb128 0xd
 3042 03d7 01       		.uleb128 0x1
ARM GAS  C:\Users\Phuong\AppData\Local\Temp\ccYkRU5p.s 			page 64


 3043 03d8 50       		.byte	0x50
 3044 03d9 02       		.uleb128 0x2
 3045 03da 76       		.byte	0x76
 3046 03db 00       		.sleb128 0
 3047 03dc 0D       		.uleb128 0xd
 3048 03dd 01       		.uleb128 0x1
 3049 03de 51       		.byte	0x51
 3050 03df 02       		.uleb128 0x2
 3051 03e0 79       		.byte	0x79
 3052 03e1 00       		.sleb128 0
 3053 03e2 00       		.byte	0
 3054 03e3 16       		.uleb128 0x16
 3055 03e4 62000000 		.4byte	.LVL284
 3056 03e8 52020000 		.4byte	0x252
 3057 03ec FD030000 		.4byte	0x3fd
 3058 03f0 0D       		.uleb128 0xd
 3059 03f1 01       		.uleb128 0x1
 3060 03f2 50       		.byte	0x50
 3061 03f3 02       		.uleb128 0x2
 3062 03f4 76       		.byte	0x76
 3063 03f5 00       		.sleb128 0
 3064 03f6 0D       		.uleb128 0xd
 3065 03f7 01       		.uleb128 0x1
 3066 03f8 51       		.byte	0x51
 3067 03f9 02       		.uleb128 0x2
 3068 03fa 75       		.byte	0x75
 3069 03fb 00       		.sleb128 0
 3070 03fc 00       		.byte	0
 3071 03fd 0C       		.uleb128 0xc
 3072 03fe 7E000000 		.4byte	.LVL288
 3073 0402 DE080000 		.4byte	0x8de
 3074 0406 0D       		.uleb128 0xd
 3075 0407 01       		.uleb128 0x1
 3076 0408 50       		.byte	0x50
 3077 0409 05       		.uleb128 0x5
 3078 040a 76       		.byte	0x76
 3079 040b 00       		.sleb128 0
 3080 040c 77       		.byte	0x77
 3081 040d 00       		.sleb128 0
 3082 040e 22       		.byte	0x22
 3083 040f 0D       		.uleb128 0xd
 3084 0410 01       		.uleb128 0x1
 3085 0411 51       		.byte	0x51
 3086 0412 02       		.uleb128 0x2
 3087 0413 75       		.byte	0x75
 3088 0414 00       		.sleb128 0
 3089 0415 0D       		.uleb128 0xd
 3090 0416 01       		.uleb128 0x1
 3091 0417 52       		.byte	0x52
 3092 0418 02       		.uleb128 0x2
 3093 0419 74       		.byte	0x74
 3094 041a 00       		.sleb128 0
 3095 041b 00       		.byte	0
 3096 041c 00       		.byte	0
 3097 041d 17       		.uleb128 0x17
 3098 041e 69000000 		.4byte	.LASF32
 3099 0422 01       		.byte	0x1
ARM GAS  C:\Users\Phuong\AppData\Local\Temp\ccYkRU5p.s 			page 65


 3100 0423 3001     		.2byte	0x130
 3101 0425 00000000 		.4byte	.LFB9
 3102 0429 08000000 		.4byte	.LFE9-.LFB9
 3103 042d 01       		.uleb128 0x1
 3104 042e 9C       		.byte	0x9c
 3105 042f 83040000 		.4byte	0x483
 3106 0433 18       		.uleb128 0x18
 3107 0434 63747800 		.ascii	"ctx\000"
 3108 0438 01       		.byte	0x1
 3109 0439 3001     		.2byte	0x130
 3110 043b 54010000 		.4byte	0x154
 3111 043f C5090000 		.4byte	.LLST20
 3112 0443 13       		.uleb128 0x13
 3113 0444 8B000000 		.4byte	.LASF28
 3114 0448 01       		.byte	0x1
 3115 0449 3101     		.2byte	0x131
 3116 044b C7020000 		.4byte	0x2c7
 3117 044f E6090000 		.4byte	.LLST21
 3118 0453 13       		.uleb128 0x13
 3119 0454 0B040000 		.4byte	.LASF29
 3120 0458 01       		.byte	0x1
 3121 0459 3201     		.2byte	0x132
 3122 045b 76000000 		.4byte	0x76
 3123 045f 070A0000 		.4byte	.LLST22
 3124 0463 0C       		.uleb128 0xc
 3125 0464 06000000 		.4byte	.LVL296
 3126 0468 2E030000 		.4byte	0x32e
 3127 046c 0D       		.uleb128 0xd
 3128 046d 01       		.uleb128 0x1
 3129 046e 50       		.byte	0x50
 3130 046f 03       		.uleb128 0x3
 3131 0470 F3       		.byte	0xf3
 3132 0471 01       		.uleb128 0x1
 3133 0472 50       		.byte	0x50
 3134 0473 0D       		.uleb128 0xd
 3135 0474 01       		.uleb128 0x1
 3136 0475 51       		.byte	0x51
 3137 0476 03       		.uleb128 0x3
 3138 0477 F3       		.byte	0xf3
 3139 0478 01       		.uleb128 0x1
 3140 0479 51       		.byte	0x51
 3141 047a 0D       		.uleb128 0xd
 3142 047b 01       		.uleb128 0x1
 3143 047c 52       		.byte	0x52
 3144 047d 03       		.uleb128 0x3
 3145 047e F3       		.byte	0xf3
 3146 047f 01       		.uleb128 0x1
 3147 0480 52       		.byte	0x52
 3148 0481 00       		.byte	0
 3149 0482 00       		.byte	0
 3150 0483 19       		.uleb128 0x19
 3151 0484 07000000 		.4byte	.LASF33
 3152 0488 01       		.byte	0x1
 3153 0489 3B01     		.2byte	0x13b
 3154 048b 68000000 		.4byte	0x68
 3155 048f 00000000 		.4byte	.LFB10
 3156 0493 E0000000 		.4byte	.LFE10-.LFB10
ARM GAS  C:\Users\Phuong\AppData\Local\Temp\ccYkRU5p.s 			page 66


 3157 0497 01       		.uleb128 0x1
 3158 0498 9C       		.byte	0x9c
 3159 0499 73050000 		.4byte	0x573
 3160 049d 18       		.uleb128 0x18
 3161 049e 63747800 		.ascii	"ctx\000"
 3162 04a2 01       		.byte	0x1
 3163 04a3 3B01     		.2byte	0x13b
 3164 04a5 54010000 		.4byte	0x154
 3165 04a9 280A0000 		.4byte	.LLST23
 3166 04ad 13       		.uleb128 0x13
 3167 04ae 7C010000 		.4byte	.LASF34
 3168 04b2 01       		.byte	0x1
 3169 04b3 3C01     		.2byte	0x13c
 3170 04b5 06010000 		.4byte	0x106
 3171 04b9 540A0000 		.4byte	.LLST24
 3172 04bd 14       		.uleb128 0x14
 3173 04be 72657400 		.ascii	"ret\000"
 3174 04c2 01       		.byte	0x1
 3175 04c3 3E01     		.2byte	0x13e
 3176 04c5 68000000 		.4byte	0x68
 3177 04c9 960A0000 		.4byte	.LLST25
 3178 04cd 15       		.uleb128 0x15
 3179 04ce 6E020000 		.4byte	.LASF35
 3180 04d2 01       		.byte	0x1
 3181 04d3 3F01     		.2byte	0x13f
 3182 04d5 88000000 		.4byte	0x88
 3183 04d9 B40A0000 		.4byte	.LLST26
 3184 04dd 15       		.uleb128 0x15
 3185 04de E3030000 		.4byte	.LASF36
 3186 04e2 01       		.byte	0x1
 3187 04e3 4001     		.2byte	0x140
 3188 04e5 88000000 		.4byte	0x88
 3189 04e9 DD0A0000 		.4byte	.LLST27
 3190 04ed 14       		.uleb128 0x14
 3191 04ee 6C6F7700 		.ascii	"low\000"
 3192 04f2 01       		.byte	0x1
 3193 04f3 4001     		.2byte	0x140
 3194 04f5 88000000 		.4byte	0x88
 3195 04f9 F00A0000 		.4byte	.LLST28
 3196 04fd 16       		.uleb128 0x16
 3197 04fe 28000000 		.4byte	.LVL302
 3198 0502 CA080000 		.4byte	0x8ca
 3199 0506 10050000 		.4byte	0x510
 3200 050a 0D       		.uleb128 0xd
 3201 050b 01       		.uleb128 0x1
 3202 050c 51       		.byte	0x51
 3203 050d 01       		.uleb128 0x1
 3204 050e 30       		.byte	0x30
 3205 050f 00       		.byte	0
 3206 0510 16       		.uleb128 0x16
 3207 0511 3A000000 		.4byte	.LVL306
 3208 0515 CA080000 		.4byte	0x8ca
 3209 0519 23050000 		.4byte	0x523
 3210 051d 0D       		.uleb128 0xd
 3211 051e 01       		.uleb128 0x1
 3212 051f 51       		.byte	0x51
 3213 0520 01       		.uleb128 0x1
ARM GAS  C:\Users\Phuong\AppData\Local\Temp\ccYkRU5p.s 			page 67


 3214 0521 30       		.byte	0x30
 3215 0522 00       		.byte	0
 3216 0523 16       		.uleb128 0x16
 3217 0524 42000000 		.4byte	.LVL307
 3218 0528 52020000 		.4byte	0x252
 3219 052c 3D050000 		.4byte	0x53d
 3220 0530 0D       		.uleb128 0xd
 3221 0531 01       		.uleb128 0x1
 3222 0532 50       		.byte	0x50
 3223 0533 02       		.uleb128 0x2
 3224 0534 74       		.byte	0x74
 3225 0535 00       		.sleb128 0
 3226 0536 0D       		.uleb128 0xd
 3227 0537 01       		.uleb128 0x1
 3228 0538 51       		.byte	0x51
 3229 0539 02       		.uleb128 0x2
 3230 053a 76       		.byte	0x76
 3231 053b 00       		.sleb128 0
 3232 053c 00       		.byte	0
 3233 053d 16       		.uleb128 0x16
 3234 053e 50000000 		.4byte	.LVL309
 3235 0542 CA080000 		.4byte	0x8ca
 3236 0546 5C050000 		.4byte	0x55c
 3237 054a 0D       		.uleb128 0xd
 3238 054b 01       		.uleb128 0x1
 3239 054c 50       		.byte	0x50
 3240 054d 02       		.uleb128 0x2
 3241 054e 76       		.byte	0x76
 3242 054f 00       		.sleb128 0
 3243 0550 0D       		.uleb128 0xd
 3244 0551 01       		.uleb128 0x1
 3245 0552 51       		.byte	0x51
 3246 0553 01       		.uleb128 0x1
 3247 0554 30       		.byte	0x30
 3248 0555 0D       		.uleb128 0xd
 3249 0556 01       		.uleb128 0x1
 3250 0557 52       		.byte	0x52
 3251 0558 02       		.uleb128 0x2
 3252 0559 08       		.byte	0x8
 3253 055a 38       		.byte	0x38
 3254 055b 00       		.byte	0
 3255 055c 0C       		.uleb128 0xc
 3256 055d 92000000 		.4byte	.LVL314
 3257 0561 52020000 		.4byte	0x252
 3258 0565 0D       		.uleb128 0xd
 3259 0566 01       		.uleb128 0x1
 3260 0567 50       		.byte	0x50
 3261 0568 02       		.uleb128 0x2
 3262 0569 74       		.byte	0x74
 3263 056a 00       		.sleb128 0
 3264 056b 0D       		.uleb128 0xd
 3265 056c 01       		.uleb128 0x1
 3266 056d 51       		.byte	0x51
 3267 056e 02       		.uleb128 0x2
 3268 056f 74       		.byte	0x74
 3269 0570 18       		.sleb128 24
 3270 0571 00       		.byte	0
ARM GAS  C:\Users\Phuong\AppData\Local\Temp\ccYkRU5p.s 			page 68


 3271 0572 00       		.byte	0
 3272 0573 17       		.uleb128 0x17
 3273 0574 25000000 		.4byte	.LASF37
 3274 0578 01       		.byte	0x1
 3275 0579 7201     		.2byte	0x172
 3276 057b 00000000 		.4byte	.LFB11
 3277 057f 08000000 		.4byte	.LFE11-.LFB11
 3278 0583 01       		.uleb128 0x1
 3279 0584 9C       		.byte	0x9c
 3280 0585 C2050000 		.4byte	0x5c2
 3281 0589 18       		.uleb128 0x18
 3282 058a 63747800 		.ascii	"ctx\000"
 3283 058e 01       		.byte	0x1
 3284 058f 7201     		.2byte	0x172
 3285 0591 54010000 		.4byte	0x154
 3286 0595 030B0000 		.4byte	.LLST29
 3287 0599 13       		.uleb128 0x13
 3288 059a 7C010000 		.4byte	.LASF34
 3289 059e 01       		.byte	0x1
 3290 059f 7301     		.2byte	0x173
 3291 05a1 06010000 		.4byte	0x106
 3292 05a5 240B0000 		.4byte	.LLST30
 3293 05a9 0C       		.uleb128 0xc
 3294 05aa 06000000 		.4byte	.LVL318
 3295 05ae 83040000 		.4byte	0x483
 3296 05b2 0D       		.uleb128 0xd
 3297 05b3 01       		.uleb128 0x1
 3298 05b4 50       		.byte	0x50
 3299 05b5 03       		.uleb128 0x3
 3300 05b6 F3       		.byte	0xf3
 3301 05b7 01       		.uleb128 0x1
 3302 05b8 50       		.byte	0x50
 3303 05b9 0D       		.uleb128 0xd
 3304 05ba 01       		.uleb128 0x1
 3305 05bb 51       		.byte	0x51
 3306 05bc 03       		.uleb128 0x3
 3307 05bd F3       		.byte	0xf3
 3308 05be 01       		.uleb128 0x1
 3309 05bf 51       		.byte	0x51
 3310 05c0 00       		.byte	0
 3311 05c1 00       		.byte	0
 3312 05c2 19       		.uleb128 0x19
 3313 05c3 BF020000 		.4byte	.LASF38
 3314 05c7 01       		.byte	0x1
 3315 05c8 7E01     		.2byte	0x17e
 3316 05ca 68000000 		.4byte	0x68
 3317 05ce 00000000 		.4byte	.LFB12
 3318 05d2 3E000000 		.4byte	.LFE12-.LFB12
 3319 05d6 01       		.uleb128 0x1
 3320 05d7 9C       		.byte	0x9c
 3321 05d8 AB060000 		.4byte	0x6ab
 3322 05dc 13       		.uleb128 0x13
 3323 05dd 8B000000 		.4byte	.LASF28
 3324 05e1 01       		.byte	0x1
 3325 05e2 7E01     		.2byte	0x17e
 3326 05e4 C7020000 		.4byte	0x2c7
 3327 05e8 450B0000 		.4byte	.LLST31
ARM GAS  C:\Users\Phuong\AppData\Local\Temp\ccYkRU5p.s 			page 69


 3328 05ec 13       		.uleb128 0x13
 3329 05ed 0B040000 		.4byte	.LASF29
 3330 05f1 01       		.byte	0x1
 3331 05f2 7F01     		.2byte	0x17f
 3332 05f4 76000000 		.4byte	0x76
 3333 05f8 710B0000 		.4byte	.LLST32
 3334 05fc 13       		.uleb128 0x13
 3335 05fd 7C010000 		.4byte	.LASF34
 3336 0601 01       		.byte	0x1
 3337 0602 8001     		.2byte	0x180
 3338 0604 06010000 		.4byte	0x106
 3339 0608 9D0B0000 		.4byte	.LLST33
 3340 060c 14       		.uleb128 0x14
 3341 060d 72657400 		.ascii	"ret\000"
 3342 0611 01       		.byte	0x1
 3343 0612 8201     		.2byte	0x182
 3344 0614 68000000 		.4byte	0x68
 3345 0618 C90B0000 		.4byte	.LLST34
 3346 061c 1A       		.uleb128 0x1a
 3347 061d 63747800 		.ascii	"ctx\000"
 3348 0621 01       		.byte	0x1
 3349 0622 8301     		.2byte	0x183
 3350 0624 FB000000 		.4byte	0xfb
 3351 0628 03       		.uleb128 0x3
 3352 0629 91       		.byte	0x91
 3353 062a 907F     		.sleb128 -112
 3354 062c 1B       		.uleb128 0x1b
 3355 062d 06040000 		.4byte	.LASF43
 3356 0631 01       		.byte	0x1
 3357 0632 9001     		.2byte	0x190
 3358 0634 32000000 		.4byte	.L35
 3359 0638 16       		.uleb128 0x16
 3360 0639 10000000 		.4byte	.LVL321
 3361 063d 13010000 		.4byte	0x113
 3362 0641 4C060000 		.4byte	0x64c
 3363 0645 0D       		.uleb128 0xd
 3364 0646 01       		.uleb128 0x1
 3365 0647 50       		.byte	0x50
 3366 0648 02       		.uleb128 0x2
 3367 0649 7D       		.byte	0x7d
 3368 064a 00       		.sleb128 0
 3369 064b 00       		.byte	0
 3370 064c 16       		.uleb128 0x16
 3371 064d 16000000 		.4byte	.LVL322
 3372 0651 F3010000 		.4byte	0x1f3
 3373 0655 60060000 		.4byte	0x660
 3374 0659 0D       		.uleb128 0xd
 3375 065a 01       		.uleb128 0x1
 3376 065b 50       		.byte	0x50
 3377 065c 02       		.uleb128 0x2
 3378 065d 7D       		.byte	0x7d
 3379 065e 00       		.sleb128 0
 3380 065f 00       		.byte	0
 3381 0660 16       		.uleb128 0x16
 3382 0661 24000000 		.4byte	.LVL325
 3383 0665 2E030000 		.4byte	0x32e
 3384 0669 80060000 		.4byte	0x680
ARM GAS  C:\Users\Phuong\AppData\Local\Temp\ccYkRU5p.s 			page 70


 3385 066d 0D       		.uleb128 0xd
 3386 066e 01       		.uleb128 0x1
 3387 066f 50       		.byte	0x50
 3388 0670 02       		.uleb128 0x2
 3389 0671 7D       		.byte	0x7d
 3390 0672 00       		.sleb128 0
 3391 0673 0D       		.uleb128 0xd
 3392 0674 01       		.uleb128 0x1
 3393 0675 51       		.byte	0x51
 3394 0676 02       		.uleb128 0x2
 3395 0677 75       		.byte	0x75
 3396 0678 00       		.sleb128 0
 3397 0679 0D       		.uleb128 0xd
 3398 067a 01       		.uleb128 0x1
 3399 067b 52       		.byte	0x52
 3400 067c 02       		.uleb128 0x2
 3401 067d 76       		.byte	0x76
 3402 067e 00       		.sleb128 0
 3403 067f 00       		.byte	0
 3404 0680 16       		.uleb128 0x16
 3405 0681 30000000 		.4byte	.LVL328
 3406 0685 83040000 		.4byte	0x483
 3407 0689 9A060000 		.4byte	0x69a
 3408 068d 0D       		.uleb128 0xd
 3409 068e 01       		.uleb128 0x1
 3410 068f 50       		.byte	0x50
 3411 0690 02       		.uleb128 0x2
 3412 0691 7D       		.byte	0x7d
 3413 0692 00       		.sleb128 0
 3414 0693 0D       		.uleb128 0xd
 3415 0694 01       		.uleb128 0x1
 3416 0695 51       		.byte	0x51
 3417 0696 02       		.uleb128 0x2
 3418 0697 77       		.byte	0x77
 3419 0698 00       		.sleb128 0
 3420 0699 00       		.byte	0
 3421 069a 0C       		.uleb128 0xc
 3422 069b 38000000 		.4byte	.LVL331
 3423 069f 5A010000 		.4byte	0x15a
 3424 06a3 0D       		.uleb128 0xd
 3425 06a4 01       		.uleb128 0x1
 3426 06a5 50       		.byte	0x50
 3427 06a6 02       		.uleb128 0x2
 3428 06a7 7D       		.byte	0x7d
 3429 06a8 00       		.sleb128 0
 3430 06a9 00       		.byte	0
 3431 06aa 00       		.byte	0
 3432 06ab 17       		.uleb128 0x17
 3433 06ac 46010000 		.4byte	.LASF39
 3434 06b0 01       		.byte	0x1
 3435 06b1 9701     		.2byte	0x197
 3436 06b3 00000000 		.4byte	.LFB13
 3437 06b7 08000000 		.4byte	.LFE13-.LFB13
 3438 06bb 01       		.uleb128 0x1
 3439 06bc 9C       		.byte	0x9c
 3440 06bd 11070000 		.4byte	0x711
 3441 06c1 13       		.uleb128 0x13
ARM GAS  C:\Users\Phuong\AppData\Local\Temp\ccYkRU5p.s 			page 71


 3442 06c2 8B000000 		.4byte	.LASF28
 3443 06c6 01       		.byte	0x1
 3444 06c7 9701     		.2byte	0x197
 3445 06c9 C7020000 		.4byte	0x2c7
 3446 06cd 1E0C0000 		.4byte	.LLST35
 3447 06d1 13       		.uleb128 0x13
 3448 06d2 0B040000 		.4byte	.LASF29
 3449 06d6 01       		.byte	0x1
 3450 06d7 9801     		.2byte	0x198
 3451 06d9 76000000 		.4byte	0x76
 3452 06dd 3F0C0000 		.4byte	.LLST36
 3453 06e1 13       		.uleb128 0x13
 3454 06e2 7C010000 		.4byte	.LASF34
 3455 06e6 01       		.byte	0x1
 3456 06e7 9901     		.2byte	0x199
 3457 06e9 06010000 		.4byte	0x106
 3458 06ed 600C0000 		.4byte	.LLST37
 3459 06f1 0C       		.uleb128 0xc
 3460 06f2 06000000 		.4byte	.LVL337
 3461 06f6 C2050000 		.4byte	0x5c2
 3462 06fa 0D       		.uleb128 0xd
 3463 06fb 01       		.uleb128 0x1
 3464 06fc 50       		.byte	0x50
 3465 06fd 03       		.uleb128 0x3
 3466 06fe F3       		.byte	0xf3
 3467 06ff 01       		.uleb128 0x1
 3468 0700 50       		.byte	0x50
 3469 0701 0D       		.uleb128 0xd
 3470 0702 01       		.uleb128 0x1
 3471 0703 51       		.byte	0x51
 3472 0704 03       		.uleb128 0x3
 3473 0705 F3       		.byte	0xf3
 3474 0706 01       		.uleb128 0x1
 3475 0707 51       		.byte	0x51
 3476 0708 0D       		.uleb128 0xd
 3477 0709 01       		.uleb128 0x1
 3478 070a 52       		.byte	0x52
 3479 070b 03       		.uleb128 0x3
 3480 070c F3       		.byte	0xf3
 3481 070d 01       		.uleb128 0x1
 3482 070e 52       		.byte	0x52
 3483 070f 00       		.byte	0
 3484 0710 00       		.byte	0
 3485 0711 19       		.uleb128 0x19
 3486 0712 66010000 		.4byte	.LASF40
 3487 0716 01       		.byte	0x1
 3488 0717 C901     		.2byte	0x1c9
 3489 0719 68000000 		.4byte	0x68
 3490 071d 00000000 		.4byte	.LFB14
 3491 0721 94000000 		.4byte	.LFE14-.LFB14
 3492 0725 01       		.uleb128 0x1
 3493 0726 9C       		.byte	0x9c
 3494 0727 34080000 		.4byte	0x834
 3495 072b 13       		.uleb128 0x13
 3496 072c C3030000 		.4byte	.LASF41
 3497 0730 01       		.byte	0x1
 3498 0731 C901     		.2byte	0x1c9
ARM GAS  C:\Users\Phuong\AppData\Local\Temp\ccYkRU5p.s 			page 72


 3499 0733 68000000 		.4byte	0x68
 3500 0737 810C0000 		.4byte	.LLST38
 3501 073b 14       		.uleb128 0x14
 3502 073c 6900     		.ascii	"i\000"
 3503 073e 01       		.byte	0x1
 3504 073f CB01     		.2byte	0x1cb
 3505 0741 68000000 		.4byte	0x68
 3506 0745 AD0C0000 		.4byte	.LLST39
 3507 0749 14       		.uleb128 0x14
 3508 074a 72657400 		.ascii	"ret\000"
 3509 074e 01       		.byte	0x1
 3510 074f CB01     		.2byte	0x1cb
 3511 0751 68000000 		.4byte	0x68
 3512 0755 CC0C0000 		.4byte	.LLST40
 3513 0759 1C       		.uleb128 0x1c
 3514 075a 83010000 		.4byte	.LASF42
 3515 075e 01       		.byte	0x1
 3516 075f CC01     		.2byte	0x1cc
 3517 0761 34080000 		.4byte	0x834
 3518 0765 02       		.uleb128 0x2
 3519 0766 91       		.byte	0x91
 3520 0767 60       		.sleb128 -32
 3521 0768 1B       		.uleb128 0x1b
 3522 0769 10040000 		.4byte	.LASF44
 3523 076d 01       		.byte	0x1
 3524 076e E601     		.2byte	0x1e6
 3525 0770 68000000 		.4byte	.L40
 3526 0774 16       		.uleb128 0x16
 3527 0775 16000000 		.4byte	.LVL341
 3528 0779 E7080000 		.4byte	0x8e7
 3529 077d 91070000 		.4byte	0x791
 3530 0781 0D       		.uleb128 0xd
 3531 0782 01       		.uleb128 0x1
 3532 0783 50       		.byte	0x50
 3533 0784 05       		.uleb128 0x5
 3534 0785 03       		.byte	0x3
 3535 0786 00000000 		.4byte	.LC0
 3536 078a 0D       		.uleb128 0xd
 3537 078b 01       		.uleb128 0x1
 3538 078c 51       		.byte	0x51
 3539 078d 02       		.uleb128 0x2
 3540 078e 74       		.byte	0x74
 3541 078f 01       		.sleb128 1
 3542 0790 00       		.byte	0
 3543 0791 16       		.uleb128 0x16
 3544 0792 30000000 		.4byte	.LVL342
 3545 0796 C2050000 		.4byte	0x5c2
 3546 079a CF070000 		.4byte	0x7cf
 3547 079e 0D       		.uleb128 0xd
 3548 079f 01       		.uleb128 0x1
 3549 07a0 50       		.byte	0x50
 3550 07a1 17       		.uleb128 0x17
 3551 07a2 74       		.byte	0x74
 3552 07a3 00       		.sleb128 0
 3553 07a4 33       		.byte	0x33
 3554 07a5 24       		.byte	0x24
 3555 07a6 74       		.byte	0x74
ARM GAS  C:\Users\Phuong\AppData\Local\Temp\ccYkRU5p.s 			page 73


 3556 07a7 00       		.sleb128 0
 3557 07a8 33       		.byte	0x33
 3558 07a9 24       		.byte	0x24
 3559 07aa 74       		.byte	0x74
 3560 07ab 00       		.sleb128 0
 3561 07ac 22       		.byte	0x22
 3562 07ad 33       		.byte	0x33
 3563 07ae 24       		.byte	0x24
 3564 07af 22       		.byte	0x22
 3565 07b0 74       		.byte	0x74
 3566 07b1 00       		.sleb128 0
 3567 07b2 22       		.byte	0x22
 3568 07b3 03       		.byte	0x3
 3569 07b4 00000000 		.4byte	.LANCHOR0
 3570 07b8 22       		.byte	0x22
 3571 07b9 0D       		.uleb128 0xd
 3572 07ba 01       		.uleb128 0x1
 3573 07bb 51       		.byte	0x51
 3574 07bc 0B       		.uleb128 0xb
 3575 07bd 74       		.byte	0x74
 3576 07be 00       		.sleb128 0
 3577 07bf 32       		.byte	0x32
 3578 07c0 24       		.byte	0x24
 3579 07c1 03       		.byte	0x3
 3580 07c2 38020000 		.4byte	.LANCHOR1+56
 3581 07c6 22       		.byte	0x22
 3582 07c7 06       		.byte	0x6
 3583 07c8 0D       		.uleb128 0xd
 3584 07c9 01       		.uleb128 0x1
 3585 07ca 52       		.byte	0x52
 3586 07cb 02       		.uleb128 0x2
 3587 07cc 7D       		.byte	0x7d
 3588 07cd 00       		.sleb128 0
 3589 07ce 00       		.byte	0
 3590 07cf 16       		.uleb128 0x16
 3591 07d0 44000000 		.4byte	.LVL345
 3592 07d4 F2080000 		.4byte	0x8f2
 3593 07d8 F6070000 		.4byte	0x7f6
 3594 07dc 0D       		.uleb128 0xd
 3595 07dd 01       		.uleb128 0x1
 3596 07de 50       		.byte	0x50
 3597 07df 02       		.uleb128 0x2
 3598 07e0 7D       		.byte	0x7d
 3599 07e1 00       		.sleb128 0
 3600 07e2 0D       		.uleb128 0xd
 3601 07e3 01       		.uleb128 0x1
 3602 07e4 51       		.byte	0x51
 3603 07e5 0A       		.uleb128 0xa
 3604 07e6 74       		.byte	0x74
 3605 07e7 00       		.sleb128 0
 3606 07e8 34       		.byte	0x34
 3607 07e9 24       		.byte	0x24
 3608 07ea 03       		.byte	0x3
 3609 07eb 54020000 		.4byte	.LANCHOR1+84
 3610 07ef 22       		.byte	0x22
 3611 07f0 0D       		.uleb128 0xd
 3612 07f1 01       		.uleb128 0x1
ARM GAS  C:\Users\Phuong\AppData\Local\Temp\ccYkRU5p.s 			page 74


 3613 07f2 52       		.byte	0x52
 3614 07f3 01       		.uleb128 0x1
 3615 07f4 40       		.byte	0x40
 3616 07f5 00       		.byte	0
 3617 07f6 16       		.uleb128 0x16
 3618 07f7 52000000 		.4byte	.LVL346
 3619 07fb FD080000 		.4byte	0x8fd
 3620 07ff 0D080000 		.4byte	0x80d
 3621 0803 0D       		.uleb128 0xd
 3622 0804 01       		.uleb128 0x1
 3623 0805 50       		.byte	0x50
 3624 0806 05       		.uleb128 0x5
 3625 0807 03       		.byte	0x3
 3626 0808 14000000 		.4byte	.LC4
 3627 080c 00       		.byte	0
 3628 080d 16       		.uleb128 0x16
 3629 080e 62000000 		.4byte	.LVL348
 3630 0812 0C090000 		.4byte	0x90c
 3631 0816 20080000 		.4byte	0x820
 3632 081a 0D       		.uleb128 0xd
 3633 081b 01       		.uleb128 0x1
 3634 081c 50       		.byte	0x50
 3635 081d 01       		.uleb128 0x1
 3636 081e 3A       		.byte	0x3a
 3637 081f 00       		.byte	0
 3638 0820 0C       		.uleb128 0xc
 3639 0821 72000000 		.4byte	.LVL351
 3640 0825 FD080000 		.4byte	0x8fd
 3641 0829 0D       		.uleb128 0xd
 3642 082a 01       		.uleb128 0x1
 3643 082b 50       		.byte	0x50
 3644 082c 05       		.uleb128 0x5
 3645 082d 03       		.byte	0x3
 3646 082e 1C000000 		.4byte	.LC6
 3647 0832 00       		.byte	0
 3648 0833 00       		.byte	0
 3649 0834 07       		.uleb128 0x7
 3650 0835 2C000000 		.4byte	0x2c
 3651 0839 44080000 		.4byte	0x844
 3652 083d 08       		.uleb128 0x8
 3653 083e D4000000 		.4byte	0xd4
 3654 0842 0F       		.byte	0xf
 3655 0843 00       		.byte	0
 3656 0844 07       		.uleb128 0x7
 3657 0845 CD020000 		.4byte	0x2cd
 3658 0849 5A080000 		.4byte	0x85a
 3659 084d 08       		.uleb128 0x8
 3660 084e D4000000 		.4byte	0xd4
 3661 0852 06       		.byte	0x6
 3662 0853 08       		.uleb128 0x8
 3663 0854 D4000000 		.4byte	0xd4
 3664 0858 50       		.byte	0x50
 3665 0859 00       		.byte	0
 3666 085a 1C       		.uleb128 0x1c
 3667 085b 95020000 		.4byte	.LASF45
 3668 085f 01       		.byte	0x1
 3669 0860 A301     		.2byte	0x1a3
ARM GAS  C:\Users\Phuong\AppData\Local\Temp\ccYkRU5p.s 			page 75


 3670 0862 6C080000 		.4byte	0x86c
 3671 0866 05       		.uleb128 0x5
 3672 0867 03       		.byte	0x3
 3673 0868 00000000 		.4byte	md5_test_buf
 3674 086c 0E       		.uleb128 0xe
 3675 086d 44080000 		.4byte	0x844
 3676 0871 07       		.uleb128 0x7
 3677 0872 81080000 		.4byte	0x881
 3678 0876 81080000 		.4byte	0x881
 3679 087a 08       		.uleb128 0x8
 3680 087b D4000000 		.4byte	0xd4
 3681 087f 06       		.byte	0x6
 3682 0880 00       		.byte	0
 3683 0881 0E       		.uleb128 0xe
 3684 0882 76000000 		.4byte	0x76
 3685 0886 1C       		.uleb128 0x1c
 3686 0887 EF030000 		.4byte	.LASF46
 3687 088b 01       		.byte	0x1
 3688 088c AF01     		.2byte	0x1af
 3689 088e 98080000 		.4byte	0x898
 3690 0892 05       		.uleb128 0x5
 3691 0893 03       		.byte	0x3
 3692 0894 38020000 		.4byte	md5_test_buflen
 3693 0898 0E       		.uleb128 0xe
 3694 0899 71080000 		.4byte	0x871
 3695 089d 07       		.uleb128 0x7
 3696 089e CD020000 		.4byte	0x2cd
 3697 08a2 B3080000 		.4byte	0x8b3
 3698 08a6 08       		.uleb128 0x8
 3699 08a7 D4000000 		.4byte	0xd4
 3700 08ab 06       		.byte	0x6
 3701 08ac 08       		.uleb128 0x8
 3702 08ad D4000000 		.4byte	0xd4
 3703 08b1 0F       		.byte	0xf
 3704 08b2 00       		.byte	0
 3705 08b3 1C       		.uleb128 0x1c
 3706 08b4 61020000 		.4byte	.LASF47
 3707 08b8 01       		.byte	0x1
 3708 08b9 B401     		.2byte	0x1b4
 3709 08bb C5080000 		.4byte	0x8c5
 3710 08bf 05       		.uleb128 0x5
 3711 08c0 03       		.byte	0x3
 3712 08c1 54020000 		.4byte	md5_test_sum
 3713 08c5 0E       		.uleb128 0xe
 3714 08c6 9D080000 		.4byte	0x89d
 3715 08ca 1D       		.uleb128 0x1d
 3716 08cb FF030000 		.4byte	.LASF48
 3717 08cf FF030000 		.4byte	.LASF48
 3718 08d3 1E       		.uleb128 0x1e
 3719 08d4 AA030000 		.4byte	.LASF50
 3720 08d8 AA030000 		.4byte	.LASF50
 3721 08dc 06       		.byte	0x6
 3722 08dd 42       		.byte	0x42
 3723 08de 1D       		.uleb128 0x1d
 3724 08df A0000000 		.4byte	.LASF49
 3725 08e3 A0000000 		.4byte	.LASF49
 3726 08e7 1E       		.uleb128 0x1e
ARM GAS  C:\Users\Phuong\AppData\Local\Temp\ccYkRU5p.s 			page 76


 3727 08e8 00000000 		.4byte	.LASF51
 3728 08ec 00000000 		.4byte	.LASF51
 3729 08f0 07       		.byte	0x7
 3730 08f1 BB       		.byte	0xbb
 3731 08f2 1E       		.uleb128 0x1e
 3732 08f3 E8030000 		.4byte	.LASF52
 3733 08f7 E8030000 		.4byte	.LASF52
 3734 08fb 08       		.byte	0x8
 3735 08fc 16       		.byte	0x16
 3736 08fd 1F       		.uleb128 0x1f
 3737 08fe 15040000 		.4byte	.LASF53
 3738 0902 91000000 		.4byte	.LASF55
 3739 0906 09       		.byte	0x9
 3740 0907 00       		.byte	0
 3741 0908 15040000 		.4byte	.LASF53
 3742 090c 1F       		.uleb128 0x1f
 3743 090d A7000000 		.4byte	.LASF54
 3744 0911 16010000 		.4byte	.LASF56
 3745 0915 09       		.byte	0x9
 3746 0916 00       		.byte	0
 3747 0917 A7000000 		.4byte	.LASF54
 3748 091b 00       		.byte	0
 3749              		.section	.debug_abbrev,"",%progbits
 3750              	.Ldebug_abbrev0:
 3751 0000 01       		.uleb128 0x1
 3752 0001 11       		.uleb128 0x11
 3753 0002 01       		.byte	0x1
 3754 0003 25       		.uleb128 0x25
 3755 0004 0E       		.uleb128 0xe
 3756 0005 13       		.uleb128 0x13
 3757 0006 0B       		.uleb128 0xb
 3758 0007 03       		.uleb128 0x3
 3759 0008 0E       		.uleb128 0xe
 3760 0009 1B       		.uleb128 0x1b
 3761 000a 0E       		.uleb128 0xe
 3762 000b 55       		.uleb128 0x55
 3763 000c 17       		.uleb128 0x17
 3764 000d 11       		.uleb128 0x11
 3765 000e 01       		.uleb128 0x1
 3766 000f 10       		.uleb128 0x10
 3767 0010 17       		.uleb128 0x17
 3768 0011 00       		.byte	0
 3769 0012 00       		.byte	0
 3770 0013 02       		.uleb128 0x2
 3771 0014 24       		.uleb128 0x24
 3772 0015 00       		.byte	0
 3773 0016 0B       		.uleb128 0xb
 3774 0017 0B       		.uleb128 0xb
 3775 0018 3E       		.uleb128 0x3e
 3776 0019 0B       		.uleb128 0xb
 3777 001a 03       		.uleb128 0x3
 3778 001b 0E       		.uleb128 0xe
 3779 001c 00       		.byte	0
 3780 001d 00       		.byte	0
 3781 001e 03       		.uleb128 0x3
 3782 001f 16       		.uleb128 0x16
 3783 0020 00       		.byte	0
ARM GAS  C:\Users\Phuong\AppData\Local\Temp\ccYkRU5p.s 			page 77


 3784 0021 03       		.uleb128 0x3
 3785 0022 0E       		.uleb128 0xe
 3786 0023 3A       		.uleb128 0x3a
 3787 0024 0B       		.uleb128 0xb
 3788 0025 3B       		.uleb128 0x3b
 3789 0026 0B       		.uleb128 0xb
 3790 0027 49       		.uleb128 0x49
 3791 0028 13       		.uleb128 0x13
 3792 0029 00       		.byte	0
 3793 002a 00       		.byte	0
 3794 002b 04       		.uleb128 0x4
 3795 002c 24       		.uleb128 0x24
 3796 002d 00       		.byte	0
 3797 002e 0B       		.uleb128 0xb
 3798 002f 0B       		.uleb128 0xb
 3799 0030 3E       		.uleb128 0x3e
 3800 0031 0B       		.uleb128 0xb
 3801 0032 03       		.uleb128 0x3
 3802 0033 08       		.uleb128 0x8
 3803 0034 00       		.byte	0
 3804 0035 00       		.byte	0
 3805 0036 05       		.uleb128 0x5
 3806 0037 13       		.uleb128 0x13
 3807 0038 01       		.byte	0x1
 3808 0039 03       		.uleb128 0x3
 3809 003a 0E       		.uleb128 0xe
 3810 003b 0B       		.uleb128 0xb
 3811 003c 0B       		.uleb128 0xb
 3812 003d 3A       		.uleb128 0x3a
 3813 003e 0B       		.uleb128 0xb
 3814 003f 3B       		.uleb128 0x3b
 3815 0040 0B       		.uleb128 0xb
 3816 0041 01       		.uleb128 0x1
 3817 0042 13       		.uleb128 0x13
 3818 0043 00       		.byte	0
 3819 0044 00       		.byte	0
 3820 0045 06       		.uleb128 0x6
 3821 0046 0D       		.uleb128 0xd
 3822 0047 00       		.byte	0
 3823 0048 03       		.uleb128 0x3
 3824 0049 0E       		.uleb128 0xe
 3825 004a 3A       		.uleb128 0x3a
 3826 004b 0B       		.uleb128 0xb
 3827 004c 3B       		.uleb128 0x3b
 3828 004d 0B       		.uleb128 0xb
 3829 004e 49       		.uleb128 0x49
 3830 004f 13       		.uleb128 0x13
 3831 0050 38       		.uleb128 0x38
 3832 0051 0B       		.uleb128 0xb
 3833 0052 00       		.byte	0
 3834 0053 00       		.byte	0
 3835 0054 07       		.uleb128 0x7
 3836 0055 01       		.uleb128 0x1
 3837 0056 01       		.byte	0x1
 3838 0057 49       		.uleb128 0x49
 3839 0058 13       		.uleb128 0x13
 3840 0059 01       		.uleb128 0x1
ARM GAS  C:\Users\Phuong\AppData\Local\Temp\ccYkRU5p.s 			page 78


 3841 005a 13       		.uleb128 0x13
 3842 005b 00       		.byte	0
 3843 005c 00       		.byte	0
 3844 005d 08       		.uleb128 0x8
 3845 005e 21       		.uleb128 0x21
 3846 005f 00       		.byte	0
 3847 0060 49       		.uleb128 0x49
 3848 0061 13       		.uleb128 0x13
 3849 0062 2F       		.uleb128 0x2f
 3850 0063 0B       		.uleb128 0xb
 3851 0064 00       		.byte	0
 3852 0065 00       		.byte	0
 3853 0066 09       		.uleb128 0x9
 3854 0067 0F       		.uleb128 0xf
 3855 0068 00       		.byte	0
 3856 0069 0B       		.uleb128 0xb
 3857 006a 0B       		.uleb128 0xb
 3858 006b 49       		.uleb128 0x49
 3859 006c 13       		.uleb128 0x13
 3860 006d 00       		.byte	0
 3861 006e 00       		.byte	0
 3862 006f 0A       		.uleb128 0xa
 3863 0070 2E       		.uleb128 0x2e
 3864 0071 01       		.byte	0x1
 3865 0072 3F       		.uleb128 0x3f
 3866 0073 19       		.uleb128 0x19
 3867 0074 03       		.uleb128 0x3
 3868 0075 0E       		.uleb128 0xe
 3869 0076 3A       		.uleb128 0x3a
 3870 0077 0B       		.uleb128 0xb
 3871 0078 3B       		.uleb128 0x3b
 3872 0079 0B       		.uleb128 0xb
 3873 007a 27       		.uleb128 0x27
 3874 007b 19       		.uleb128 0x19
 3875 007c 11       		.uleb128 0x11
 3876 007d 01       		.uleb128 0x1
 3877 007e 12       		.uleb128 0x12
 3878 007f 06       		.uleb128 0x6
 3879 0080 40       		.uleb128 0x40
 3880 0081 18       		.uleb128 0x18
 3881 0082 9742     		.uleb128 0x2117
 3882 0084 19       		.uleb128 0x19
 3883 0085 01       		.uleb128 0x1
 3884 0086 13       		.uleb128 0x13
 3885 0087 00       		.byte	0
 3886 0088 00       		.byte	0
 3887 0089 0B       		.uleb128 0xb
 3888 008a 05       		.uleb128 0x5
 3889 008b 00       		.byte	0
 3890 008c 03       		.uleb128 0x3
 3891 008d 08       		.uleb128 0x8
 3892 008e 3A       		.uleb128 0x3a
 3893 008f 0B       		.uleb128 0xb
 3894 0090 3B       		.uleb128 0x3b
 3895 0091 0B       		.uleb128 0xb
 3896 0092 49       		.uleb128 0x49
 3897 0093 13       		.uleb128 0x13
ARM GAS  C:\Users\Phuong\AppData\Local\Temp\ccYkRU5p.s 			page 79


 3898 0094 02       		.uleb128 0x2
 3899 0095 17       		.uleb128 0x17
 3900 0096 00       		.byte	0
 3901 0097 00       		.byte	0
 3902 0098 0C       		.uleb128 0xc
 3903 0099 898201   		.uleb128 0x4109
 3904 009c 01       		.byte	0x1
 3905 009d 11       		.uleb128 0x11
 3906 009e 01       		.uleb128 0x1
 3907 009f 31       		.uleb128 0x31
 3908 00a0 13       		.uleb128 0x13
 3909 00a1 00       		.byte	0
 3910 00a2 00       		.byte	0
 3911 00a3 0D       		.uleb128 0xd
 3912 00a4 8A8201   		.uleb128 0x410a
 3913 00a7 00       		.byte	0
 3914 00a8 02       		.uleb128 0x2
 3915 00a9 18       		.uleb128 0x18
 3916 00aa 9142     		.uleb128 0x2111
 3917 00ac 18       		.uleb128 0x18
 3918 00ad 00       		.byte	0
 3919 00ae 00       		.byte	0
 3920 00af 0E       		.uleb128 0xe
 3921 00b0 26       		.uleb128 0x26
 3922 00b1 00       		.byte	0
 3923 00b2 49       		.uleb128 0x49
 3924 00b3 13       		.uleb128 0x13
 3925 00b4 00       		.byte	0
 3926 00b5 00       		.byte	0
 3927 00b6 0F       		.uleb128 0xf
 3928 00b7 2E       		.uleb128 0x2e
 3929 00b8 01       		.byte	0x1
 3930 00b9 3F       		.uleb128 0x3f
 3931 00ba 19       		.uleb128 0x19
 3932 00bb 03       		.uleb128 0x3
 3933 00bc 0E       		.uleb128 0xe
 3934 00bd 3A       		.uleb128 0x3a
 3935 00be 0B       		.uleb128 0xb
 3936 00bf 3B       		.uleb128 0x3b
 3937 00c0 0B       		.uleb128 0xb
 3938 00c1 27       		.uleb128 0x27
 3939 00c2 19       		.uleb128 0x19
 3940 00c3 49       		.uleb128 0x49
 3941 00c4 13       		.uleb128 0x13
 3942 00c5 11       		.uleb128 0x11
 3943 00c6 01       		.uleb128 0x1
 3944 00c7 12       		.uleb128 0x12
 3945 00c8 06       		.uleb128 0x6
 3946 00c9 40       		.uleb128 0x40
 3947 00ca 18       		.uleb128 0x18
 3948 00cb 9742     		.uleb128 0x2117
 3949 00cd 19       		.uleb128 0x19
 3950 00ce 01       		.uleb128 0x1
 3951 00cf 13       		.uleb128 0x13
 3952 00d0 00       		.byte	0
 3953 00d1 00       		.byte	0
 3954 00d2 10       		.uleb128 0x10
ARM GAS  C:\Users\Phuong\AppData\Local\Temp\ccYkRU5p.s 			page 80


 3955 00d3 05       		.uleb128 0x5
 3956 00d4 00       		.byte	0
 3957 00d5 03       		.uleb128 0x3
 3958 00d6 0E       		.uleb128 0xe
 3959 00d7 3A       		.uleb128 0x3a
 3960 00d8 0B       		.uleb128 0xb
 3961 00d9 3B       		.uleb128 0x3b
 3962 00da 0B       		.uleb128 0xb
 3963 00db 49       		.uleb128 0x49
 3964 00dc 13       		.uleb128 0x13
 3965 00dd 02       		.uleb128 0x2
 3966 00de 17       		.uleb128 0x17
 3967 00df 00       		.byte	0
 3968 00e0 00       		.byte	0
 3969 00e1 11       		.uleb128 0x11
 3970 00e2 34       		.uleb128 0x34
 3971 00e3 00       		.byte	0
 3972 00e4 03       		.uleb128 0x3
 3973 00e5 08       		.uleb128 0x8
 3974 00e6 3A       		.uleb128 0x3a
 3975 00e7 0B       		.uleb128 0xb
 3976 00e8 3B       		.uleb128 0x3b
 3977 00e9 0B       		.uleb128 0xb
 3978 00ea 49       		.uleb128 0x49
 3979 00eb 13       		.uleb128 0x13
 3980 00ec 00       		.byte	0
 3981 00ed 00       		.byte	0
 3982 00ee 12       		.uleb128 0x12
 3983 00ef 34       		.uleb128 0x34
 3984 00f0 00       		.byte	0
 3985 00f1 03       		.uleb128 0x3
 3986 00f2 08       		.uleb128 0x8
 3987 00f3 3A       		.uleb128 0x3a
 3988 00f4 0B       		.uleb128 0xb
 3989 00f5 3B       		.uleb128 0x3b
 3990 00f6 0B       		.uleb128 0xb
 3991 00f7 49       		.uleb128 0x49
 3992 00f8 13       		.uleb128 0x13
 3993 00f9 02       		.uleb128 0x2
 3994 00fa 17       		.uleb128 0x17
 3995 00fb 00       		.byte	0
 3996 00fc 00       		.byte	0
 3997 00fd 13       		.uleb128 0x13
 3998 00fe 05       		.uleb128 0x5
 3999 00ff 00       		.byte	0
 4000 0100 03       		.uleb128 0x3
 4001 0101 0E       		.uleb128 0xe
 4002 0102 3A       		.uleb128 0x3a
 4003 0103 0B       		.uleb128 0xb
 4004 0104 3B       		.uleb128 0x3b
 4005 0105 05       		.uleb128 0x5
 4006 0106 49       		.uleb128 0x49
 4007 0107 13       		.uleb128 0x13
 4008 0108 02       		.uleb128 0x2
 4009 0109 17       		.uleb128 0x17
 4010 010a 00       		.byte	0
 4011 010b 00       		.byte	0
ARM GAS  C:\Users\Phuong\AppData\Local\Temp\ccYkRU5p.s 			page 81


 4012 010c 14       		.uleb128 0x14
 4013 010d 34       		.uleb128 0x34
 4014 010e 00       		.byte	0
 4015 010f 03       		.uleb128 0x3
 4016 0110 08       		.uleb128 0x8
 4017 0111 3A       		.uleb128 0x3a
 4018 0112 0B       		.uleb128 0xb
 4019 0113 3B       		.uleb128 0x3b
 4020 0114 05       		.uleb128 0x5
 4021 0115 49       		.uleb128 0x49
 4022 0116 13       		.uleb128 0x13
 4023 0117 02       		.uleb128 0x2
 4024 0118 17       		.uleb128 0x17
 4025 0119 00       		.byte	0
 4026 011a 00       		.byte	0
 4027 011b 15       		.uleb128 0x15
 4028 011c 34       		.uleb128 0x34
 4029 011d 00       		.byte	0
 4030 011e 03       		.uleb128 0x3
 4031 011f 0E       		.uleb128 0xe
 4032 0120 3A       		.uleb128 0x3a
 4033 0121 0B       		.uleb128 0xb
 4034 0122 3B       		.uleb128 0x3b
 4035 0123 05       		.uleb128 0x5
 4036 0124 49       		.uleb128 0x49
 4037 0125 13       		.uleb128 0x13
 4038 0126 02       		.uleb128 0x2
 4039 0127 17       		.uleb128 0x17
 4040 0128 00       		.byte	0
 4041 0129 00       		.byte	0
 4042 012a 16       		.uleb128 0x16
 4043 012b 898201   		.uleb128 0x4109
 4044 012e 01       		.byte	0x1
 4045 012f 11       		.uleb128 0x11
 4046 0130 01       		.uleb128 0x1
 4047 0131 31       		.uleb128 0x31
 4048 0132 13       		.uleb128 0x13
 4049 0133 01       		.uleb128 0x1
 4050 0134 13       		.uleb128 0x13
 4051 0135 00       		.byte	0
 4052 0136 00       		.byte	0
 4053 0137 17       		.uleb128 0x17
 4054 0138 2E       		.uleb128 0x2e
 4055 0139 01       		.byte	0x1
 4056 013a 3F       		.uleb128 0x3f
 4057 013b 19       		.uleb128 0x19
 4058 013c 03       		.uleb128 0x3
 4059 013d 0E       		.uleb128 0xe
 4060 013e 3A       		.uleb128 0x3a
 4061 013f 0B       		.uleb128 0xb
 4062 0140 3B       		.uleb128 0x3b
 4063 0141 05       		.uleb128 0x5
 4064 0142 27       		.uleb128 0x27
 4065 0143 19       		.uleb128 0x19
 4066 0144 11       		.uleb128 0x11
 4067 0145 01       		.uleb128 0x1
 4068 0146 12       		.uleb128 0x12
ARM GAS  C:\Users\Phuong\AppData\Local\Temp\ccYkRU5p.s 			page 82


 4069 0147 06       		.uleb128 0x6
 4070 0148 40       		.uleb128 0x40
 4071 0149 18       		.uleb128 0x18
 4072 014a 9742     		.uleb128 0x2117
 4073 014c 19       		.uleb128 0x19
 4074 014d 01       		.uleb128 0x1
 4075 014e 13       		.uleb128 0x13
 4076 014f 00       		.byte	0
 4077 0150 00       		.byte	0
 4078 0151 18       		.uleb128 0x18
 4079 0152 05       		.uleb128 0x5
 4080 0153 00       		.byte	0
 4081 0154 03       		.uleb128 0x3
 4082 0155 08       		.uleb128 0x8
 4083 0156 3A       		.uleb128 0x3a
 4084 0157 0B       		.uleb128 0xb
 4085 0158 3B       		.uleb128 0x3b
 4086 0159 05       		.uleb128 0x5
 4087 015a 49       		.uleb128 0x49
 4088 015b 13       		.uleb128 0x13
 4089 015c 02       		.uleb128 0x2
 4090 015d 17       		.uleb128 0x17
 4091 015e 00       		.byte	0
 4092 015f 00       		.byte	0
 4093 0160 19       		.uleb128 0x19
 4094 0161 2E       		.uleb128 0x2e
 4095 0162 01       		.byte	0x1
 4096 0163 3F       		.uleb128 0x3f
 4097 0164 19       		.uleb128 0x19
 4098 0165 03       		.uleb128 0x3
 4099 0166 0E       		.uleb128 0xe
 4100 0167 3A       		.uleb128 0x3a
 4101 0168 0B       		.uleb128 0xb
 4102 0169 3B       		.uleb128 0x3b
 4103 016a 05       		.uleb128 0x5
 4104 016b 27       		.uleb128 0x27
 4105 016c 19       		.uleb128 0x19
 4106 016d 49       		.uleb128 0x49
 4107 016e 13       		.uleb128 0x13
 4108 016f 11       		.uleb128 0x11
 4109 0170 01       		.uleb128 0x1
 4110 0171 12       		.uleb128 0x12
 4111 0172 06       		.uleb128 0x6
 4112 0173 40       		.uleb128 0x40
 4113 0174 18       		.uleb128 0x18
 4114 0175 9742     		.uleb128 0x2117
 4115 0177 19       		.uleb128 0x19
 4116 0178 01       		.uleb128 0x1
 4117 0179 13       		.uleb128 0x13
 4118 017a 00       		.byte	0
 4119 017b 00       		.byte	0
 4120 017c 1A       		.uleb128 0x1a
 4121 017d 34       		.uleb128 0x34
 4122 017e 00       		.byte	0
 4123 017f 03       		.uleb128 0x3
 4124 0180 08       		.uleb128 0x8
 4125 0181 3A       		.uleb128 0x3a
ARM GAS  C:\Users\Phuong\AppData\Local\Temp\ccYkRU5p.s 			page 83


 4126 0182 0B       		.uleb128 0xb
 4127 0183 3B       		.uleb128 0x3b
 4128 0184 05       		.uleb128 0x5
 4129 0185 49       		.uleb128 0x49
 4130 0186 13       		.uleb128 0x13
 4131 0187 02       		.uleb128 0x2
 4132 0188 18       		.uleb128 0x18
 4133 0189 00       		.byte	0
 4134 018a 00       		.byte	0
 4135 018b 1B       		.uleb128 0x1b
 4136 018c 0A       		.uleb128 0xa
 4137 018d 00       		.byte	0
 4138 018e 03       		.uleb128 0x3
 4139 018f 0E       		.uleb128 0xe
 4140 0190 3A       		.uleb128 0x3a
 4141 0191 0B       		.uleb128 0xb
 4142 0192 3B       		.uleb128 0x3b
 4143 0193 05       		.uleb128 0x5
 4144 0194 11       		.uleb128 0x11
 4145 0195 01       		.uleb128 0x1
 4146 0196 00       		.byte	0
 4147 0197 00       		.byte	0
 4148 0198 1C       		.uleb128 0x1c
 4149 0199 34       		.uleb128 0x34
 4150 019a 00       		.byte	0
 4151 019b 03       		.uleb128 0x3
 4152 019c 0E       		.uleb128 0xe
 4153 019d 3A       		.uleb128 0x3a
 4154 019e 0B       		.uleb128 0xb
 4155 019f 3B       		.uleb128 0x3b
 4156 01a0 05       		.uleb128 0x5
 4157 01a1 49       		.uleb128 0x49
 4158 01a2 13       		.uleb128 0x13
 4159 01a3 02       		.uleb128 0x2
 4160 01a4 18       		.uleb128 0x18
 4161 01a5 00       		.byte	0
 4162 01a6 00       		.byte	0
 4163 01a7 1D       		.uleb128 0x1d
 4164 01a8 2E       		.uleb128 0x2e
 4165 01a9 00       		.byte	0
 4166 01aa 3F       		.uleb128 0x3f
 4167 01ab 19       		.uleb128 0x19
 4168 01ac 3C       		.uleb128 0x3c
 4169 01ad 19       		.uleb128 0x19
 4170 01ae 6E       		.uleb128 0x6e
 4171 01af 0E       		.uleb128 0xe
 4172 01b0 03       		.uleb128 0x3
 4173 01b1 0E       		.uleb128 0xe
 4174 01b2 00       		.byte	0
 4175 01b3 00       		.byte	0
 4176 01b4 1E       		.uleb128 0x1e
 4177 01b5 2E       		.uleb128 0x2e
 4178 01b6 00       		.byte	0
 4179 01b7 3F       		.uleb128 0x3f
 4180 01b8 19       		.uleb128 0x19
 4181 01b9 3C       		.uleb128 0x3c
 4182 01ba 19       		.uleb128 0x19
ARM GAS  C:\Users\Phuong\AppData\Local\Temp\ccYkRU5p.s 			page 84


 4183 01bb 6E       		.uleb128 0x6e
 4184 01bc 0E       		.uleb128 0xe
 4185 01bd 03       		.uleb128 0x3
 4186 01be 0E       		.uleb128 0xe
 4187 01bf 3A       		.uleb128 0x3a
 4188 01c0 0B       		.uleb128 0xb
 4189 01c1 3B       		.uleb128 0x3b
 4190 01c2 0B       		.uleb128 0xb
 4191 01c3 00       		.byte	0
 4192 01c4 00       		.byte	0
 4193 01c5 1F       		.uleb128 0x1f
 4194 01c6 2E       		.uleb128 0x2e
 4195 01c7 00       		.byte	0
 4196 01c8 3F       		.uleb128 0x3f
 4197 01c9 19       		.uleb128 0x19
 4198 01ca 3C       		.uleb128 0x3c
 4199 01cb 19       		.uleb128 0x19
 4200 01cc 6E       		.uleb128 0x6e
 4201 01cd 0E       		.uleb128 0xe
 4202 01ce 03       		.uleb128 0x3
 4203 01cf 0E       		.uleb128 0xe
 4204 01d0 3A       		.uleb128 0x3a
 4205 01d1 0B       		.uleb128 0xb
 4206 01d2 3B       		.uleb128 0x3b
 4207 01d3 0B       		.uleb128 0xb
 4208 01d4 6E       		.uleb128 0x6e
 4209 01d5 0E       		.uleb128 0xe
 4210 01d6 00       		.byte	0
 4211 01d7 00       		.byte	0
 4212 01d8 00       		.byte	0
 4213              		.section	.debug_loc,"",%progbits
 4214              	.Ldebug_loc0:
 4215              	.LLST0:
 4216 0000 00000000 		.4byte	.LVL0
 4217 0004 09000000 		.4byte	.LVL1-1
 4218 0008 0100     		.2byte	0x1
 4219 000a 50       		.byte	0x50
 4220 000b 09000000 		.4byte	.LVL1-1
 4221 000f 0C000000 		.4byte	.LFE1
 4222 0013 0400     		.2byte	0x4
 4223 0015 F3       		.byte	0xf3
 4224 0016 01       		.uleb128 0x1
 4225 0017 50       		.byte	0x50
 4226 0018 9F       		.byte	0x9f
 4227 0019 00000000 		.4byte	0
 4228 001d 00000000 		.4byte	0
 4229              	.LLST1:
 4230 0021 00000000 		.4byte	.LVL2
 4231 0025 0B000000 		.4byte	.LVL3-1
 4232 0029 0100     		.2byte	0x1
 4233 002b 50       		.byte	0x50
 4234 002c 0B000000 		.4byte	.LVL3-1
 4235 0030 0E000000 		.4byte	.LFE2
 4236 0034 0400     		.2byte	0x4
 4237 0036 F3       		.byte	0xf3
 4238 0037 01       		.uleb128 0x1
 4239 0038 50       		.byte	0x50
ARM GAS  C:\Users\Phuong\AppData\Local\Temp\ccYkRU5p.s 			page 85


 4240 0039 9F       		.byte	0x9f
 4241 003a 00000000 		.4byte	0
 4242 003e 00000000 		.4byte	0
 4243              	.LLST2:
 4244 0042 00000000 		.4byte	.LVL4
 4245 0046 07000000 		.4byte	.LVL5-1
 4246 004a 0100     		.2byte	0x1
 4247 004c 50       		.byte	0x50
 4248 004d 07000000 		.4byte	.LVL5-1
 4249 0051 0A000000 		.4byte	.LFE3
 4250 0055 0400     		.2byte	0x4
 4251 0057 F3       		.byte	0xf3
 4252 0058 01       		.uleb128 0x1
 4253 0059 50       		.byte	0x50
 4254 005a 9F       		.byte	0x9f
 4255 005b 00000000 		.4byte	0
 4256 005f 00000000 		.4byte	0
 4257              	.LLST3:
 4258 0063 00000000 		.4byte	.LVL4
 4259 0067 07000000 		.4byte	.LVL5-1
 4260 006b 0100     		.2byte	0x1
 4261 006d 51       		.byte	0x51
 4262 006e 07000000 		.4byte	.LVL5-1
 4263 0072 0A000000 		.4byte	.LFE3
 4264 0076 0400     		.2byte	0x4
 4265 0078 F3       		.byte	0xf3
 4266 0079 01       		.uleb128 0x1
 4267 007a 51       		.byte	0x51
 4268 007b 9F       		.byte	0x9f
 4269 007c 00000000 		.4byte	0
 4270 0080 00000000 		.4byte	0
 4271              	.LLST4:
 4272 0084 00000000 		.4byte	.LVL6
 4273 0088 18000000 		.4byte	.LVL7
 4274 008c 0100     		.2byte	0x1
 4275 008e 50       		.byte	0x50
 4276 008f 18000000 		.4byte	.LVL7
 4277 0093 2C000000 		.4byte	.LFE4
 4278 0097 0400     		.2byte	0x4
 4279 0099 F3       		.byte	0xf3
 4280 009a 01       		.uleb128 0x1
 4281 009b 50       		.byte	0x50
 4282 009c 9F       		.byte	0x9f
 4283 009d 00000000 		.4byte	0
 4284 00a1 00000000 		.4byte	0
 4285              	.LLST5:
 4286 00a5 00000000 		.4byte	.LVL8
 4287 00a9 05000000 		.4byte	.LVL9-1
 4288 00ad 0100     		.2byte	0x1
 4289 00af 50       		.byte	0x50
 4290 00b0 05000000 		.4byte	.LVL9-1
 4291 00b4 08000000 		.4byte	.LFE5
 4292 00b8 0400     		.2byte	0x4
 4293 00ba F3       		.byte	0xf3
 4294 00bb 01       		.uleb128 0x1
 4295 00bc 50       		.byte	0x50
 4296 00bd 9F       		.byte	0x9f
ARM GAS  C:\Users\Phuong\AppData\Local\Temp\ccYkRU5p.s 			page 86


 4297 00be 00000000 		.4byte	0
 4298 00c2 00000000 		.4byte	0
 4299              	.LLST6:
 4300 00c6 00000000 		.4byte	.LVL10
 4301 00ca 66090000 		.4byte	.LVL268
 4302 00ce 0100     		.2byte	0x1
 4303 00d0 50       		.byte	0x50
 4304 00d1 66090000 		.4byte	.LVL268
 4305 00d5 E4090000 		.4byte	.LFE6
 4306 00d9 0400     		.2byte	0x4
 4307 00db F3       		.byte	0xf3
 4308 00dc 01       		.uleb128 0x1
 4309 00dd 50       		.byte	0x50
 4310 00de 9F       		.byte	0x9f
 4311 00df 00000000 		.4byte	0
 4312 00e3 00000000 		.4byte	0
 4313              	.LLST7:
 4314 00e7 00000000 		.4byte	.LVL10
 4315 00eb C4010000 		.4byte	.LVL11
 4316 00ef 0100     		.2byte	0x1
 4317 00f1 51       		.byte	0x51
 4318 00f2 C4010000 		.4byte	.LVL11
 4319 00f6 E4090000 		.4byte	.LFE6
 4320 00fa 0400     		.2byte	0x4
 4321 00fc F3       		.byte	0xf3
 4322 00fd 01       		.uleb128 0x1
 4323 00fe 51       		.byte	0x51
 4324 00ff 9F       		.byte	0x9f
 4325 0100 00000000 		.4byte	0
 4326 0104 00000000 		.4byte	0
 4327              	.LLST8:
 4328 0108 C8010000 		.4byte	.LVL12
 4329 010c EA010000 		.4byte	.LVL15
 4330 0110 0200     		.2byte	0x2
 4331 0112 70       		.byte	0x70
 4332 0113 08       		.sleb128 8
 4333 0114 EA010000 		.4byte	.LVL15
 4334 0118 EE010000 		.4byte	.LVL16
 4335 011c 0100     		.2byte	0x1
 4336 011e 56       		.byte	0x56
 4337 011f EE010000 		.4byte	.LVL16
 4338 0123 F2010000 		.4byte	.LVL17
 4339 0127 1900     		.2byte	0x19
 4340 0129 70       		.byte	0x70
 4341 012a 10       		.sleb128 16
 4342 012b 06       		.byte	0x6
 4343 012c 70       		.byte	0x70
 4344 012d 14       		.sleb128 20
 4345 012e 06       		.byte	0x6
 4346 012f 27       		.byte	0x27
 4347 0130 72       		.byte	0x72
 4348 0131 00       		.sleb128 0
 4349 0132 1A       		.byte	0x1a
 4350 0133 70       		.byte	0x70
 4351 0134 14       		.sleb128 20
 4352 0135 06       		.byte	0x6
 4353 0136 27       		.byte	0x27
ARM GAS  C:\Users\Phuong\AppData\Local\Temp\ccYkRU5p.s 			page 87


 4354 0137 71       		.byte	0x71
 4355 0138 00       		.sleb128 0
 4356 0139 22       		.byte	0x22
 4357 013a 77       		.byte	0x77
 4358 013b 00       		.sleb128 0
 4359 013c 22       		.byte	0x22
 4360 013d 70       		.byte	0x70
 4361 013e 08       		.sleb128 8
 4362 013f 06       		.byte	0x6
 4363 0140 22       		.byte	0x22
 4364 0141 9F       		.byte	0x9f
 4365 0142 F2010000 		.4byte	.LVL17
 4366 0146 6E020000 		.4byte	.LVL28
 4367 014a 0100     		.2byte	0x1
 4368 014c 56       		.byte	0x56
 4369 014d 6E020000 		.4byte	.LVL28
 4370 0151 74020000 		.4byte	.LVL29
 4371 0155 2D00     		.2byte	0x2d
 4372 0157 70       		.byte	0x70
 4373 0158 10       		.sleb128 16
 4374 0159 06       		.byte	0x6
 4375 015a 70       		.byte	0x70
 4376 015b 14       		.sleb128 20
 4377 015c 06       		.byte	0x6
 4378 015d 27       		.byte	0x27
 4379 015e 70       		.byte	0x70
 4380 015f 0C       		.sleb128 12
 4381 0160 06       		.byte	0x6
 4382 0161 1A       		.byte	0x1a
 4383 0162 70       		.byte	0x70
 4384 0163 14       		.sleb128 20
 4385 0164 06       		.byte	0x6
 4386 0165 27       		.byte	0x27
 4387 0166 91       		.byte	0x91
 4388 0167 50       		.sleb128 -48
 4389 0168 06       		.byte	0x6
 4390 0169 22       		.byte	0x22
 4391 016a 70       		.byte	0x70
 4392 016b 08       		.sleb128 8
 4393 016c 06       		.byte	0x6
 4394 016d 22       		.byte	0x22
 4395 016e 0C       		.byte	0xc
 4396 016f 885B9528 		.4byte	0x28955b88
 4397 0173 1C       		.byte	0x1c
 4398 0174 73       		.byte	0x73
 4399 0175 00       		.sleb128 0
 4400 0176 14       		.byte	0x14
 4401 0177 14       		.byte	0x14
 4402 0178 1F       		.byte	0x1f
 4403 0179 23       		.byte	0x23
 4404 017a 20       		.uleb128 0x20
 4405 017b 24       		.byte	0x24
 4406 017c 17       		.byte	0x17
 4407 017d 25       		.byte	0x25
 4408 017e 21       		.byte	0x21
 4409 017f 70       		.byte	0x70
 4410 0180 0C       		.sleb128 12
ARM GAS  C:\Users\Phuong\AppData\Local\Temp\ccYkRU5p.s 			page 88


 4411 0181 06       		.byte	0x6
 4412 0182 22       		.byte	0x22
 4413 0183 9F       		.byte	0x9f
 4414 0184 74020000 		.4byte	.LVL29
 4415 0188 76020000 		.4byte	.LVL30
 4416 018c 0100     		.2byte	0x1
 4417 018e 56       		.byte	0x56
 4418 018f 76020000 		.4byte	.LVL30
 4419 0193 78020000 		.4byte	.LVL31
 4420 0197 3F00     		.2byte	0x3f
 4421 0199 75       		.byte	0x75
 4422 019a 00       		.sleb128 0
 4423 019b 74       		.byte	0x74
 4424 019c 00       		.sleb128 0
 4425 019d 27       		.byte	0x27
 4426 019e 72       		.byte	0x72
 4427 019f 00       		.sleb128 0
 4428 01a0 1A       		.byte	0x1a
 4429 01a1 75       		.byte	0x75
 4430 01a2 00       		.sleb128 0
 4431 01a3 27       		.byte	0x27
 4432 01a4 70       		.byte	0x70
 4433 01a5 10       		.sleb128 16
 4434 01a6 06       		.byte	0x6
 4435 01a7 70       		.byte	0x70
 4436 01a8 14       		.sleb128 20
 4437 01a9 06       		.byte	0x6
 4438 01aa 27       		.byte	0x27
 4439 01ab 70       		.byte	0x70
 4440 01ac 0C       		.sleb128 12
 4441 01ad 06       		.byte	0x6
 4442 01ae 1A       		.byte	0x1a
 4443 01af 70       		.byte	0x70
 4444 01b0 14       		.sleb128 20
 4445 01b1 06       		.byte	0x6
 4446 01b2 27       		.byte	0x27
 4447 01b3 91       		.byte	0x91
 4448 01b4 50       		.sleb128 -48
 4449 01b5 06       		.byte	0x6
 4450 01b6 22       		.byte	0x22
 4451 01b7 70       		.byte	0x70
 4452 01b8 08       		.sleb128 8
 4453 01b9 06       		.byte	0x6
 4454 01ba 22       		.byte	0x22
 4455 01bb 0C       		.byte	0xc
 4456 01bc 885B9528 		.4byte	0x28955b88
 4457 01c0 1C       		.byte	0x1c
 4458 01c1 73       		.byte	0x73
 4459 01c2 00       		.sleb128 0
 4460 01c3 14       		.byte	0x14
 4461 01c4 14       		.byte	0x14
 4462 01c5 1F       		.byte	0x1f
 4463 01c6 23       		.byte	0x23
 4464 01c7 20       		.uleb128 0x20
 4465 01c8 24       		.byte	0x24
 4466 01c9 17       		.byte	0x17
 4467 01ca 25       		.byte	0x25
ARM GAS  C:\Users\Phuong\AppData\Local\Temp\ccYkRU5p.s 			page 89


 4468 01cb 21       		.byte	0x21
 4469 01cc 22       		.byte	0x22
 4470 01cd 71       		.byte	0x71
 4471 01ce 00       		.sleb128 0
 4472 01cf 22       		.byte	0x22
 4473 01d0 77       		.byte	0x77
 4474 01d1 00       		.sleb128 0
 4475 01d2 22       		.byte	0x22
 4476 01d3 70       		.byte	0x70
 4477 01d4 0C       		.sleb128 12
 4478 01d5 06       		.byte	0x6
 4479 01d6 22       		.byte	0x22
 4480 01d7 9F       		.byte	0x9f
 4481 01d8 78020000 		.4byte	.LVL31
 4482 01dc DC020000 		.4byte	.LVL44
 4483 01e0 0100     		.2byte	0x1
 4484 01e2 56       		.byte	0x56
 4485 01e3 E2020000 		.4byte	.LVL45
 4486 01e7 E4020000 		.4byte	.LVL46
 4487 01eb 0100     		.2byte	0x1
 4488 01ed 56       		.byte	0x56
 4489 01ee E6020000 		.4byte	.LVL47
 4490 01f2 4A030000 		.4byte	.LVL60
 4491 01f6 0100     		.2byte	0x1
 4492 01f8 56       		.byte	0x56
 4493 01f9 50030000 		.4byte	.LVL61
 4494 01fd 52030000 		.4byte	.LVL62
 4495 0201 0100     		.2byte	0x1
 4496 0203 56       		.byte	0x56
 4497 0204 54030000 		.4byte	.LVL63
 4498 0208 B8030000 		.4byte	.LVL76
 4499 020c 0100     		.2byte	0x1
 4500 020e 53       		.byte	0x53
 4501 020f BC030000 		.4byte	.LVL77
 4502 0213 C0030000 		.4byte	.LVL78
 4503 0217 0100     		.2byte	0x1
 4504 0219 56       		.byte	0x56
 4505 021a C2030000 		.4byte	.LVL79
 4506 021e 30040000 		.4byte	.LVL92
 4507 0222 0100     		.2byte	0x1
 4508 0224 56       		.byte	0x56
 4509 0225 36040000 		.4byte	.LVL93
 4510 0229 38040000 		.4byte	.LVL94
 4511 022d 0100     		.2byte	0x1
 4512 022f 56       		.byte	0x56
 4513 0230 3A040000 		.4byte	.LVL95
 4514 0234 A0040000 		.4byte	.LVL108
 4515 0238 0100     		.2byte	0x1
 4516 023a 56       		.byte	0x56
 4517 023b A6040000 		.4byte	.LVL109
 4518 023f A8040000 		.4byte	.LVL110
 4519 0243 0100     		.2byte	0x1
 4520 0245 56       		.byte	0x56
 4521 0246 AA040000 		.4byte	.LVL111
 4522 024a 14050000 		.4byte	.LVL124
 4523 024e 0100     		.2byte	0x1
 4524 0250 56       		.byte	0x56
ARM GAS  C:\Users\Phuong\AppData\Local\Temp\ccYkRU5p.s 			page 90


 4525 0251 1A050000 		.4byte	.LVL125
 4526 0255 1C050000 		.4byte	.LVL126
 4527 0259 0100     		.2byte	0x1
 4528 025b 56       		.byte	0x56
 4529 025c 1E050000 		.4byte	.LVL127
 4530 0260 7E050000 		.4byte	.LVL140
 4531 0264 0100     		.2byte	0x1
 4532 0266 52       		.byte	0x52
 4533 0267 84050000 		.4byte	.LVL141
 4534 026b 88050000 		.4byte	.LVL142
 4535 026f 0100     		.2byte	0x1
 4536 0271 52       		.byte	0x52
 4537 0272 8A050000 		.4byte	.LVL143
 4538 0276 80060000 		.4byte	.LVL156
 4539 027a 0100     		.2byte	0x1
 4540 027c 52       		.byte	0x52
 4541 027d 86060000 		.4byte	.LVL157
 4542 0281 88060000 		.4byte	.LVL158
 4543 0285 0100     		.2byte	0x1
 4544 0287 52       		.byte	0x52
 4545 0288 8A060000 		.4byte	.LVL159
 4546 028c E8060000 		.4byte	.LVL171
 4547 0290 0100     		.2byte	0x1
 4548 0292 52       		.byte	0x52
 4549 0293 EE060000 		.4byte	.LVL172
 4550 0297 F0060000 		.4byte	.LVL173
 4551 029b 0100     		.2byte	0x1
 4552 029d 52       		.byte	0x52
 4553 029e F2060000 		.4byte	.LVL174
 4554 02a2 54070000 		.4byte	.LVL187
 4555 02a6 0100     		.2byte	0x1
 4556 02a8 52       		.byte	0x52
 4557 02a9 5A070000 		.4byte	.LVL188
 4558 02ad 5C070000 		.4byte	.LVL189
 4559 02b1 0100     		.2byte	0x1
 4560 02b3 52       		.byte	0x52
 4561 02b4 5E070000 		.4byte	.LVL190
 4562 02b8 B8070000 		.4byte	.LVL202
 4563 02bc 0100     		.2byte	0x1
 4564 02be 52       		.byte	0x52
 4565 02bf BE070000 		.4byte	.LVL203
 4566 02c3 C2070000 		.4byte	.LVL204
 4567 02c7 0100     		.2byte	0x1
 4568 02c9 52       		.byte	0x52
 4569 02ca C4070000 		.4byte	.LVL205
 4570 02ce 26080000 		.4byte	.LVL218
 4571 02d2 0100     		.2byte	0x1
 4572 02d4 52       		.byte	0x52
 4573 02d5 2C080000 		.4byte	.LVL219
 4574 02d9 2E080000 		.4byte	.LVL220
 4575 02dd 0100     		.2byte	0x1
 4576 02df 52       		.byte	0x52
 4577 02e0 30080000 		.4byte	.LVL221
 4578 02e4 8C080000 		.4byte	.LVL234
 4579 02e8 0100     		.2byte	0x1
 4580 02ea 52       		.byte	0x52
 4581 02eb 92080000 		.4byte	.LVL235
ARM GAS  C:\Users\Phuong\AppData\Local\Temp\ccYkRU5p.s 			page 91


 4582 02ef 94080000 		.4byte	.LVL236
 4583 02f3 0100     		.2byte	0x1
 4584 02f5 52       		.byte	0x52
 4585 02f6 96080000 		.4byte	.LVL237
 4586 02fa EE080000 		.4byte	.LVL250
 4587 02fe 0100     		.2byte	0x1
 4588 0300 52       		.byte	0x52
 4589 0301 F4080000 		.4byte	.LVL251
 4590 0305 F6080000 		.4byte	.LVL252
 4591 0309 0100     		.2byte	0x1
 4592 030b 52       		.byte	0x52
 4593 030c F8080000 		.4byte	.LVL253
 4594 0310 4C090000 		.4byte	.LVL265
 4595 0314 0100     		.2byte	0x1
 4596 0316 52       		.byte	0x52
 4597 0317 00000000 		.4byte	0
 4598 031b 00000000 		.4byte	0
 4599              	.LLST9:
 4600 031f CC010000 		.4byte	.LVL13
 4601 0323 CE010000 		.4byte	.LVL14
 4602 0327 0100     		.2byte	0x1
 4603 0329 51       		.byte	0x51
 4604 032a CE010000 		.4byte	.LVL14
 4605 032e 08020000 		.4byte	.LVL18
 4606 0332 0100     		.2byte	0x1
 4607 0334 52       		.byte	0x52
 4608 0335 08020000 		.4byte	.LVL18
 4609 0339 56020000 		.4byte	.LVL25
 4610 033d 0100     		.2byte	0x1
 4611 033f 57       		.byte	0x57
 4612 0340 56020000 		.4byte	.LVL25
 4613 0344 5C020000 		.4byte	.LVL26
 4614 0348 0100     		.2byte	0x1
 4615 034a 52       		.byte	0x52
 4616 034b 5C020000 		.4byte	.LVL26
 4617 034f 5E020000 		.4byte	.LVL27
 4618 0353 1A00     		.2byte	0x1a
 4619 0355 76       		.byte	0x76
 4620 0356 00       		.sleb128 0
 4621 0357 75       		.byte	0x75
 4622 0358 00       		.sleb128 0
 4623 0359 27       		.byte	0x27
 4624 035a 74       		.byte	0x74
 4625 035b 00       		.sleb128 0
 4626 035c 1A       		.byte	0x1a
 4627 035d 76       		.byte	0x76
 4628 035e 00       		.sleb128 0
 4629 035f 27       		.byte	0x27
 4630 0360 91       		.byte	0x91
 4631 0361 A07F     		.sleb128 -96
 4632 0363 06       		.byte	0x6
 4633 0364 22       		.byte	0x22
 4634 0365 77       		.byte	0x77
 4635 0366 00       		.sleb128 0
 4636 0367 22       		.byte	0x22
 4637 0368 0C       		.byte	0xc
 4638 0369 1231423E 		.4byte	0x3e423112
ARM GAS  C:\Users\Phuong\AppData\Local\Temp\ccYkRU5p.s 			page 92


 4639 036d 1C       		.byte	0x1c
 4640 036e 9F       		.byte	0x9f
 4641 036f 5E020000 		.4byte	.LVL27
 4642 0373 C2020000 		.4byte	.LVL40
 4643 0377 0100     		.2byte	0x1
 4644 0379 52       		.byte	0x52
 4645 037a C6020000 		.4byte	.LVL41
 4646 037e CA020000 		.4byte	.LVL42
 4647 0382 0100     		.2byte	0x1
 4648 0384 51       		.byte	0x51
 4649 0385 CC020000 		.4byte	.LVL43
 4650 0389 30030000 		.4byte	.LVL56
 4651 038d 0100     		.2byte	0x1
 4652 038f 51       		.byte	0x51
 4653 0390 34030000 		.4byte	.LVL57
 4654 0394 38030000 		.4byte	.LVL58
 4655 0398 0100     		.2byte	0x1
 4656 039a 52       		.byte	0x52
 4657 039b 3A030000 		.4byte	.LVL59
 4658 039f 9C030000 		.4byte	.LVL72
 4659 03a3 0100     		.2byte	0x1
 4660 03a5 52       		.byte	0x52
 4661 03a6 A0030000 		.4byte	.LVL73
 4662 03aa A4030000 		.4byte	.LVL74
 4663 03ae 0100     		.2byte	0x1
 4664 03b0 51       		.byte	0x51
 4665 03b1 A6030000 		.4byte	.LVL75
 4666 03b5 10040000 		.4byte	.LVL88
 4667 03b9 0100     		.2byte	0x1
 4668 03bb 51       		.byte	0x51
 4669 03bc 16040000 		.4byte	.LVL89
 4670 03c0 1C040000 		.4byte	.LVL90
 4671 03c4 0100     		.2byte	0x1
 4672 03c6 51       		.byte	0x51
 4673 03c7 1E040000 		.4byte	.LVL91
 4674 03cb 82040000 		.4byte	.LVL104
 4675 03cf 0100     		.2byte	0x1
 4676 03d1 51       		.byte	0x51
 4677 03d2 88040000 		.4byte	.LVL105
 4678 03d6 8C040000 		.4byte	.LVL106
 4679 03da 0100     		.2byte	0x1
 4680 03dc 51       		.byte	0x51
 4681 03dd 8E040000 		.4byte	.LVL107
 4682 03e1 F6040000 		.4byte	.LVL120
 4683 03e5 0100     		.2byte	0x1
 4684 03e7 51       		.byte	0x51
 4685 03e8 FC040000 		.4byte	.LVL121
 4686 03ec 00050000 		.4byte	.LVL122
 4687 03f0 0100     		.2byte	0x1
 4688 03f2 51       		.byte	0x51
 4689 03f3 02050000 		.4byte	.LVL123
 4690 03f7 64050000 		.4byte	.LVL136
 4691 03fb 0100     		.2byte	0x1
 4692 03fd 51       		.byte	0x51
 4693 03fe 6A050000 		.4byte	.LVL137
 4694 0402 6E050000 		.4byte	.LVL138
 4695 0406 0100     		.2byte	0x1
ARM GAS  C:\Users\Phuong\AppData\Local\Temp\ccYkRU5p.s 			page 93


 4696 0408 51       		.byte	0x51
 4697 0409 70050000 		.4byte	.LVL139
 4698 040d D2050000 		.4byte	.LVL152
 4699 0411 0100     		.2byte	0x1
 4700 0413 51       		.byte	0x51
 4701 0414 D6050000 		.4byte	.LVL153
 4702 0418 DA050000 		.4byte	.LVL154
 4703 041c 0100     		.2byte	0x1
 4704 041e 55       		.byte	0x55
 4705 041f 72060000 		.4byte	.LVL155
 4706 0423 D4060000 		.4byte	.LVL168
 4707 0427 0100     		.2byte	0x1
 4708 0429 5A       		.byte	0x5a
 4709 042a D4060000 		.4byte	.LVL168
 4710 042e D6060000 		.4byte	.LVL169
 4711 0432 0100     		.2byte	0x1
 4712 0434 53       		.byte	0x53
 4713 0435 D6060000 		.4byte	.LVL169
 4714 0439 D8060000 		.4byte	.LVL170
 4715 043d 1400     		.2byte	0x14
 4716 043f 75       		.byte	0x75
 4717 0440 00       		.sleb128 0
 4718 0441 74       		.byte	0x74
 4719 0442 00       		.sleb128 0
 4720 0443 27       		.byte	0x27
 4721 0444 72       		.byte	0x72
 4722 0445 00       		.sleb128 0
 4723 0446 27       		.byte	0x27
 4724 0447 77       		.byte	0x77
 4725 0448 00       		.sleb128 0
 4726 0449 22       		.byte	0x22
 4727 044a 91       		.byte	0x91
 4728 044b BC7F     		.sleb128 -68
 4729 044d 06       		.byte	0x6
 4730 044e 22       		.byte	0x22
 4731 044f 7A       		.byte	0x7a
 4732 0450 00       		.sleb128 0
 4733 0451 22       		.byte	0x22
 4734 0452 9F       		.byte	0x9f
 4735 0453 D8060000 		.4byte	.LVL170
 4736 0457 3A070000 		.4byte	.LVL183
 4737 045b 0100     		.2byte	0x1
 4738 045d 53       		.byte	0x53
 4739 045e 40070000 		.4byte	.LVL184
 4740 0462 42070000 		.4byte	.LVL185
 4741 0466 0100     		.2byte	0x1
 4742 0468 53       		.byte	0x53
 4743 0469 46070000 		.4byte	.LVL186
 4744 046d A6070000 		.4byte	.LVL199
 4745 0471 0100     		.2byte	0x1
 4746 0473 5A       		.byte	0x5a
 4747 0474 A6070000 		.4byte	.LVL199
 4748 0478 A8070000 		.4byte	.LVL200
 4749 047c 0100     		.2byte	0x1
 4750 047e 53       		.byte	0x53
 4751 047f A8070000 		.4byte	.LVL200
 4752 0483 AA070000 		.4byte	.LVL201
ARM GAS  C:\Users\Phuong\AppData\Local\Temp\ccYkRU5p.s 			page 94


 4753 0487 1400     		.2byte	0x14
 4754 0489 75       		.byte	0x75
 4755 048a 00       		.sleb128 0
 4756 048b 74       		.byte	0x74
 4757 048c 00       		.sleb128 0
 4758 048d 27       		.byte	0x27
 4759 048e 72       		.byte	0x72
 4760 048f 00       		.sleb128 0
 4761 0490 27       		.byte	0x27
 4762 0491 76       		.byte	0x76
 4763 0492 00       		.sleb128 0
 4764 0493 22       		.byte	0x22
 4765 0494 91       		.byte	0x91
 4766 0495 9C7F     		.sleb128 -100
 4767 0497 06       		.byte	0x6
 4768 0498 22       		.byte	0x22
 4769 0499 7A       		.byte	0x7a
 4770 049a 00       		.sleb128 0
 4771 049b 22       		.byte	0x22
 4772 049c 9F       		.byte	0x9f
 4773 049d AA070000 		.4byte	.LVL201
 4774 04a1 0A080000 		.4byte	.LVL214
 4775 04a5 0100     		.2byte	0x1
 4776 04a7 51       		.byte	0x51
 4777 04a8 10080000 		.4byte	.LVL215
 4778 04ac 16080000 		.4byte	.LVL216
 4779 04b0 0100     		.2byte	0x1
 4780 04b2 51       		.byte	0x51
 4781 04b3 18080000 		.4byte	.LVL217
 4782 04b7 72080000 		.4byte	.LVL230
 4783 04bb 0100     		.2byte	0x1
 4784 04bd 51       		.byte	0x51
 4785 04be 78080000 		.4byte	.LVL231
 4786 04c2 7C080000 		.4byte	.LVL232
 4787 04c6 0100     		.2byte	0x1
 4788 04c8 51       		.byte	0x51
 4789 04c9 7E080000 		.4byte	.LVL233
 4790 04cd D4080000 		.4byte	.LVL246
 4791 04d1 0100     		.2byte	0x1
 4792 04d3 51       		.byte	0x51
 4793 04d4 DA080000 		.4byte	.LVL247
 4794 04d8 DE080000 		.4byte	.LVL248
 4795 04dc 0100     		.2byte	0x1
 4796 04de 51       		.byte	0x51
 4797 04df E0080000 		.4byte	.LVL249
 4798 04e3 3A090000 		.4byte	.LVL261
 4799 04e7 0100     		.2byte	0x1
 4800 04e9 51       		.byte	0x51
 4801 04ea 40090000 		.4byte	.LVL262
 4802 04ee 44090000 		.4byte	.LVL263
 4803 04f2 0100     		.2byte	0x1
 4804 04f4 51       		.byte	0x51
 4805 04f5 46090000 		.4byte	.LVL264
 4806 04f9 54090000 		.4byte	.LVL266
 4807 04fd 0100     		.2byte	0x1
 4808 04ff 51       		.byte	0x51
 4809 0500 00000000 		.4byte	0
ARM GAS  C:\Users\Phuong\AppData\Local\Temp\ccYkRU5p.s 			page 95


 4810 0504 00000000 		.4byte	0
 4811              	.LLST10:
 4812 0508 CC010000 		.4byte	.LVL13
 4813 050c 36020000 		.4byte	.LVL22
 4814 0510 0200     		.2byte	0x2
 4815 0512 70       		.byte	0x70
 4816 0513 10       		.sleb128 16
 4817 0514 36020000 		.4byte	.LVL22
 4818 0518 3C020000 		.4byte	.LVL23
 4819 051c 0100     		.2byte	0x1
 4820 051e 54       		.byte	0x54
 4821 051f 3C020000 		.4byte	.LVL23
 4822 0523 3E020000 		.4byte	.LVL24
 4823 0527 1600     		.2byte	0x16
 4824 0529 77       		.byte	0x77
 4825 052a 00       		.sleb128 0
 4826 052b 76       		.byte	0x76
 4827 052c 00       		.sleb128 0
 4828 052d 27       		.byte	0x27
 4829 052e 75       		.byte	0x75
 4830 052f 00       		.sleb128 0
 4831 0530 1A       		.byte	0x1a
 4832 0531 77       		.byte	0x77
 4833 0532 00       		.sleb128 0
 4834 0533 27       		.byte	0x27
 4835 0534 72       		.byte	0x72
 4836 0535 00       		.sleb128 0
 4837 0536 22       		.byte	0x22
 4838 0537 78       		.byte	0x78
 4839 0538 00       		.sleb128 0
 4840 0539 22       		.byte	0x22
 4841 053a 70       		.byte	0x70
 4842 053b 10       		.sleb128 16
 4843 053c 06       		.byte	0x6
 4844 053d 22       		.byte	0x22
 4845 053e 9F       		.byte	0x9f
 4846 053f 3E020000 		.4byte	.LVL24
 4847 0543 A4020000 		.4byte	.LVL36
 4848 0547 0100     		.2byte	0x1
 4849 0549 54       		.byte	0x54
 4850 054a AA020000 		.4byte	.LVL37
 4851 054e AE020000 		.4byte	.LVL38
 4852 0552 0100     		.2byte	0x1
 4853 0554 54       		.byte	0x54
 4854 0555 B0020000 		.4byte	.LVL39
 4855 0559 12030000 		.4byte	.LVL52
 4856 055d 0100     		.2byte	0x1
 4857 055f 54       		.byte	0x54
 4858 0560 18030000 		.4byte	.LVL53
 4859 0564 1C030000 		.4byte	.LVL54
 4860 0568 0100     		.2byte	0x1
 4861 056a 54       		.byte	0x54
 4862 056b 1E030000 		.4byte	.LVL55
 4863 056f 82030000 		.4byte	.LVL68
 4864 0573 0100     		.2byte	0x1
 4865 0575 54       		.byte	0x54
 4866 0576 88030000 		.4byte	.LVL69
ARM GAS  C:\Users\Phuong\AppData\Local\Temp\ccYkRU5p.s 			page 96


 4867 057a 8C030000 		.4byte	.LVL70
 4868 057e 0100     		.2byte	0x1
 4869 0580 54       		.byte	0x54
 4870 0581 8E030000 		.4byte	.LVL71
 4871 0585 F0030000 		.4byte	.LVL84
 4872 0589 0100     		.2byte	0x1
 4873 058b 54       		.byte	0x54
 4874 058c F6030000 		.4byte	.LVL85
 4875 0590 FC030000 		.4byte	.LVL86
 4876 0594 0100     		.2byte	0x1
 4877 0596 54       		.byte	0x54
 4878 0597 FE030000 		.4byte	.LVL87
 4879 059b 64040000 		.4byte	.LVL100
 4880 059f 0100     		.2byte	0x1
 4881 05a1 54       		.byte	0x54
 4882 05a2 6A040000 		.4byte	.LVL101
 4883 05a6 6E040000 		.4byte	.LVL102
 4884 05aa 0100     		.2byte	0x1
 4885 05ac 54       		.byte	0x54
 4886 05ad 70040000 		.4byte	.LVL103
 4887 05b1 D8040000 		.4byte	.LVL116
 4888 05b5 0100     		.2byte	0x1
 4889 05b7 54       		.byte	0x54
 4890 05b8 DE040000 		.4byte	.LVL117
 4891 05bc E2040000 		.4byte	.LVL118
 4892 05c0 0100     		.2byte	0x1
 4893 05c2 54       		.byte	0x54
 4894 05c3 E4040000 		.4byte	.LVL119
 4895 05c7 48050000 		.4byte	.LVL132
 4896 05cb 0100     		.2byte	0x1
 4897 05cd 54       		.byte	0x54
 4898 05ce 4E050000 		.4byte	.LVL133
 4899 05d2 52050000 		.4byte	.LVL134
 4900 05d6 0100     		.2byte	0x1
 4901 05d8 54       		.byte	0x54
 4902 05d9 54050000 		.4byte	.LVL135
 4903 05dd B4050000 		.4byte	.LVL148
 4904 05e1 0100     		.2byte	0x1
 4905 05e3 54       		.byte	0x54
 4906 05e4 BA050000 		.4byte	.LVL149
 4907 05e8 C0050000 		.4byte	.LVL150
 4908 05ec 0100     		.2byte	0x1
 4909 05ee 54       		.byte	0x54
 4910 05ef C2050000 		.4byte	.LVL151
 4911 05f3 B4060000 		.4byte	.LVL164
 4912 05f7 0100     		.2byte	0x1
 4913 05f9 54       		.byte	0x54
 4914 05fa BA060000 		.4byte	.LVL165
 4915 05fe BE060000 		.4byte	.LVL166
 4916 0602 0100     		.2byte	0x1
 4917 0604 54       		.byte	0x54
 4918 0605 C0060000 		.4byte	.LVL167
 4919 0609 1E070000 		.4byte	.LVL179
 4920 060d 0100     		.2byte	0x1
 4921 060f 54       		.byte	0x54
 4922 0610 24070000 		.4byte	.LVL180
 4923 0614 28070000 		.4byte	.LVL181
ARM GAS  C:\Users\Phuong\AppData\Local\Temp\ccYkRU5p.s 			page 97


 4924 0618 0100     		.2byte	0x1
 4925 061a 54       		.byte	0x54
 4926 061b 2A070000 		.4byte	.LVL182
 4927 061f 86070000 		.4byte	.LVL195
 4928 0623 0100     		.2byte	0x1
 4929 0625 54       		.byte	0x54
 4930 0626 8C070000 		.4byte	.LVL196
 4931 062a 90070000 		.4byte	.LVL197
 4932 062e 0100     		.2byte	0x1
 4933 0630 54       		.byte	0x54
 4934 0631 92070000 		.4byte	.LVL198
 4935 0635 EE070000 		.4byte	.LVL210
 4936 0639 0100     		.2byte	0x1
 4937 063b 54       		.byte	0x54
 4938 063c F4070000 		.4byte	.LVL211
 4939 0640 FA070000 		.4byte	.LVL212
 4940 0644 0100     		.2byte	0x1
 4941 0646 54       		.byte	0x54
 4942 0647 FC070000 		.4byte	.LVL213
 4943 064b 58080000 		.4byte	.LVL226
 4944 064f 0100     		.2byte	0x1
 4945 0651 54       		.byte	0x54
 4946 0652 5E080000 		.4byte	.LVL227
 4947 0656 62080000 		.4byte	.LVL228
 4948 065a 0100     		.2byte	0x1
 4949 065c 54       		.byte	0x54
 4950 065d 64080000 		.4byte	.LVL229
 4951 0661 BA080000 		.4byte	.LVL242
 4952 0665 0100     		.2byte	0x1
 4953 0667 54       		.byte	0x54
 4954 0668 C0080000 		.4byte	.LVL243
 4955 066c C4080000 		.4byte	.LVL244
 4956 0670 0100     		.2byte	0x1
 4957 0672 54       		.byte	0x54
 4958 0673 C6080000 		.4byte	.LVL245
 4959 0677 20090000 		.4byte	.LVL257
 4960 067b 0100     		.2byte	0x1
 4961 067d 54       		.byte	0x54
 4962 067e 26090000 		.4byte	.LVL258
 4963 0682 2A090000 		.4byte	.LVL259
 4964 0686 0100     		.2byte	0x1
 4965 0688 54       		.byte	0x54
 4966 0689 2C090000 		.4byte	.LVL260
 4967 068d 5C090000 		.4byte	.LVL267
 4968 0691 0100     		.2byte	0x1
 4969 0693 54       		.byte	0x54
 4970 0694 00000000 		.4byte	0
 4971 0698 00000000 		.4byte	0
 4972              	.LLST11:
 4973 069c CC010000 		.4byte	.LVL13
 4974 06a0 12020000 		.4byte	.LVL19
 4975 06a4 0200     		.2byte	0x2
 4976 06a6 70       		.byte	0x70
 4977 06a7 14       		.sleb128 20
 4978 06a8 12020000 		.4byte	.LVL19
 4979 06ac 18020000 		.4byte	.LVL20
 4980 06b0 0100     		.2byte	0x1
ARM GAS  C:\Users\Phuong\AppData\Local\Temp\ccYkRU5p.s 			page 98


 4981 06b2 55       		.byte	0x55
 4982 06b3 18020000 		.4byte	.LVL20
 4983 06b7 1A020000 		.4byte	.LVL21
 4984 06bb 1800     		.2byte	0x18
 4985 06bd 70       		.byte	0x70
 4986 06be 10       		.sleb128 16
 4987 06bf 06       		.byte	0x6
 4988 06c0 77       		.byte	0x77
 4989 06c1 00       		.sleb128 0
 4990 06c2 27       		.byte	0x27
 4991 06c3 76       		.byte	0x76
 4992 06c4 00       		.sleb128 0
 4993 06c5 1A       		.byte	0x1a
 4994 06c6 70       		.byte	0x70
 4995 06c7 10       		.sleb128 16
 4996 06c8 06       		.byte	0x6
 4997 06c9 27       		.byte	0x27
 4998 06ca 71       		.byte	0x71
 4999 06cb 00       		.sleb128 0
 5000 06cc 22       		.byte	0x22
 5001 06cd 78       		.byte	0x78
 5002 06ce 00       		.sleb128 0
 5003 06cf 22       		.byte	0x22
 5004 06d0 70       		.byte	0x70
 5005 06d1 14       		.sleb128 20
 5006 06d2 06       		.byte	0x6
 5007 06d3 22       		.byte	0x22
 5008 06d4 9F       		.byte	0x9f
 5009 06d5 1A020000 		.4byte	.LVL21
 5010 06d9 88020000 		.4byte	.LVL32
 5011 06dd 0100     		.2byte	0x1
 5012 06df 55       		.byte	0x55
 5013 06e0 8E020000 		.4byte	.LVL33
 5014 06e4 92020000 		.4byte	.LVL34
 5015 06e8 0100     		.2byte	0x1
 5016 06ea 55       		.byte	0x55
 5017 06eb 94020000 		.4byte	.LVL35
 5018 06ef F6020000 		.4byte	.LVL48
 5019 06f3 0100     		.2byte	0x1
 5020 06f5 55       		.byte	0x55
 5021 06f6 FC020000 		.4byte	.LVL49
 5022 06fa 00030000 		.4byte	.LVL50
 5023 06fe 0100     		.2byte	0x1
 5024 0700 55       		.byte	0x55
 5025 0701 02030000 		.4byte	.LVL51
 5026 0705 66030000 		.4byte	.LVL64
 5027 0709 0100     		.2byte	0x1
 5028 070b 55       		.byte	0x55
 5029 070c 6C030000 		.4byte	.LVL65
 5030 0710 70030000 		.4byte	.LVL66
 5031 0714 0100     		.2byte	0x1
 5032 0716 55       		.byte	0x55
 5033 0717 72030000 		.4byte	.LVL67
 5034 071b D2030000 		.4byte	.LVL80
 5035 071f 0100     		.2byte	0x1
 5036 0721 55       		.byte	0x55
 5037 0722 D8030000 		.4byte	.LVL81
ARM GAS  C:\Users\Phuong\AppData\Local\Temp\ccYkRU5p.s 			page 99


 5038 0726 DC030000 		.4byte	.LVL82
 5039 072a 0100     		.2byte	0x1
 5040 072c 55       		.byte	0x55
 5041 072d DE030000 		.4byte	.LVL83
 5042 0731 4C040000 		.4byte	.LVL96
 5043 0735 0100     		.2byte	0x1
 5044 0737 55       		.byte	0x55
 5045 0738 52040000 		.4byte	.LVL97
 5046 073c 54040000 		.4byte	.LVL98
 5047 0740 0100     		.2byte	0x1
 5048 0742 55       		.byte	0x55
 5049 0743 56040000 		.4byte	.LVL99
 5050 0747 BC040000 		.4byte	.LVL112
 5051 074b 0100     		.2byte	0x1
 5052 074d 55       		.byte	0x55
 5053 074e C2040000 		.4byte	.LVL113
 5054 0752 C4040000 		.4byte	.LVL114
 5055 0756 0100     		.2byte	0x1
 5056 0758 55       		.byte	0x55
 5057 0759 C6040000 		.4byte	.LVL115
 5058 075d 2E050000 		.4byte	.LVL128
 5059 0761 0100     		.2byte	0x1
 5060 0763 55       		.byte	0x55
 5061 0764 34050000 		.4byte	.LVL129
 5062 0768 36050000 		.4byte	.LVL130
 5063 076c 0100     		.2byte	0x1
 5064 076e 55       		.byte	0x55
 5065 076f 38050000 		.4byte	.LVL131
 5066 0773 98050000 		.4byte	.LVL144
 5067 0777 0100     		.2byte	0x1
 5068 0779 53       		.byte	0x53
 5069 077a 9E050000 		.4byte	.LVL145
 5070 077e A4050000 		.4byte	.LVL146
 5071 0782 0100     		.2byte	0x1
 5072 0784 53       		.byte	0x53
 5073 0785 A6050000 		.4byte	.LVL147
 5074 0789 9A060000 		.4byte	.LVL160
 5075 078d 0100     		.2byte	0x1
 5076 078f 53       		.byte	0x53
 5077 0790 9E060000 		.4byte	.LVL161
 5078 0794 A2060000 		.4byte	.LVL162
 5079 0798 0100     		.2byte	0x1
 5080 079a 55       		.byte	0x55
 5081 079b A4060000 		.4byte	.LVL163
 5082 079f 02070000 		.4byte	.LVL175
 5083 07a3 0100     		.2byte	0x1
 5084 07a5 55       		.byte	0x55
 5085 07a6 08070000 		.4byte	.LVL176
 5086 07aa 0C070000 		.4byte	.LVL177
 5087 07ae 0100     		.2byte	0x1
 5088 07b0 55       		.byte	0x55
 5089 07b1 0E070000 		.4byte	.LVL178
 5090 07b5 6E070000 		.4byte	.LVL191
 5091 07b9 0100     		.2byte	0x1
 5092 07bb 55       		.byte	0x55
 5093 07bc 74070000 		.4byte	.LVL192
 5094 07c0 78070000 		.4byte	.LVL193
ARM GAS  C:\Users\Phuong\AppData\Local\Temp\ccYkRU5p.s 			page 100


 5095 07c4 0100     		.2byte	0x1
 5096 07c6 55       		.byte	0x55
 5097 07c7 7A070000 		.4byte	.LVL194
 5098 07cb D2070000 		.4byte	.LVL206
 5099 07cf 0100     		.2byte	0x1
 5100 07d1 55       		.byte	0x55
 5101 07d2 D8070000 		.4byte	.LVL207
 5102 07d6 DE070000 		.4byte	.LVL208
 5103 07da 0100     		.2byte	0x1
 5104 07dc 55       		.byte	0x55
 5105 07dd E0070000 		.4byte	.LVL209
 5106 07e1 3E080000 		.4byte	.LVL222
 5107 07e5 0100     		.2byte	0x1
 5108 07e7 55       		.byte	0x55
 5109 07e8 44080000 		.4byte	.LVL223
 5110 07ec 48080000 		.4byte	.LVL224
 5111 07f0 0100     		.2byte	0x1
 5112 07f2 55       		.byte	0x55
 5113 07f3 4A080000 		.4byte	.LVL225
 5114 07f7 A0080000 		.4byte	.LVL238
 5115 07fb 0100     		.2byte	0x1
 5116 07fd 55       		.byte	0x55
 5117 07fe A6080000 		.4byte	.LVL239
 5118 0802 AA080000 		.4byte	.LVL240
 5119 0806 0100     		.2byte	0x1
 5120 0808 55       		.byte	0x55
 5121 0809 AC080000 		.4byte	.LVL241
 5122 080d 0C090000 		.4byte	.LVL254
 5123 0811 0100     		.2byte	0x1
 5124 0813 55       		.byte	0x55
 5125 0814 0C090000 		.4byte	.LVL254
 5126 0818 10090000 		.4byte	.LVL255
 5127 081c 0100     		.2byte	0x1
 5128 081e 56       		.byte	0x56
 5129 081f 10090000 		.4byte	.LVL255
 5130 0823 12090000 		.4byte	.LVL256
 5131 0827 1400     		.2byte	0x14
 5132 0829 74       		.byte	0x74
 5133 082a 00       		.sleb128 0
 5134 082b 20       		.byte	0x20
 5135 082c 72       		.byte	0x72
 5136 082d 00       		.sleb128 0
 5137 082e 21       		.byte	0x21
 5138 082f 71       		.byte	0x71
 5139 0830 00       		.sleb128 0
 5140 0831 27       		.byte	0x27
 5141 0832 7C       		.byte	0x7c
 5142 0833 00       		.sleb128 0
 5143 0834 22       		.byte	0x22
 5144 0835 91       		.byte	0x91
 5145 0836 40       		.sleb128 -64
 5146 0837 06       		.byte	0x6
 5147 0838 22       		.byte	0x22
 5148 0839 75       		.byte	0x75
 5149 083a 00       		.sleb128 0
 5150 083b 22       		.byte	0x22
 5151 083c 9F       		.byte	0x9f
ARM GAS  C:\Users\Phuong\AppData\Local\Temp\ccYkRU5p.s 			page 101


 5152 083d 12090000 		.4byte	.LVL256
 5153 0841 68090000 		.4byte	.LVL269
 5154 0845 0100     		.2byte	0x1
 5155 0847 56       		.byte	0x56
 5156 0848 00000000 		.4byte	0
 5157 084c 00000000 		.4byte	0
 5158              	.LLST12:
 5159 0850 00000000 		.4byte	.LVL270
 5160 0854 05000000 		.4byte	.LVL271-1
 5161 0858 0100     		.2byte	0x1
 5162 085a 50       		.byte	0x50
 5163 085b 05000000 		.4byte	.LVL271-1
 5164 085f 08000000 		.4byte	.LFE7
 5165 0863 0400     		.2byte	0x4
 5166 0865 F3       		.byte	0xf3
 5167 0866 01       		.uleb128 0x1
 5168 0867 50       		.byte	0x50
 5169 0868 9F       		.byte	0x9f
 5170 0869 00000000 		.4byte	0
 5171 086d 00000000 		.4byte	0
 5172              	.LLST13:
 5173 0871 00000000 		.4byte	.LVL270
 5174 0875 05000000 		.4byte	.LVL271-1
 5175 0879 0100     		.2byte	0x1
 5176 087b 51       		.byte	0x51
 5177 087c 05000000 		.4byte	.LVL271-1
 5178 0880 08000000 		.4byte	.LFE7
 5179 0884 0400     		.2byte	0x4
 5180 0886 F3       		.byte	0xf3
 5181 0887 01       		.uleb128 0x1
 5182 0888 51       		.byte	0x51
 5183 0889 9F       		.byte	0x9f
 5184 088a 00000000 		.4byte	0
 5185 088e 00000000 		.4byte	0
 5186              	.LLST14:
 5187 0892 00000000 		.4byte	.LVL272
 5188 0896 3A000000 		.4byte	.LVL276
 5189 089a 0100     		.2byte	0x1
 5190 089c 50       		.byte	0x50
 5191 089d 3A000000 		.4byte	.LVL276
 5192 08a1 74000000 		.4byte	.LVL287
 5193 08a5 0100     		.2byte	0x1
 5194 08a7 56       		.byte	0x56
 5195 08a8 74000000 		.4byte	.LVL287
 5196 08ac 82000000 		.4byte	.LVL289
 5197 08b0 0300     		.2byte	0x3
 5198 08b2 76       		.byte	0x76
 5199 08b3 68       		.sleb128 -24
 5200 08b4 9F       		.byte	0x9f
 5201 08b5 82000000 		.4byte	.LVL289
 5202 08b9 84000000 		.4byte	.LVL290
 5203 08bd 0100     		.2byte	0x1
 5204 08bf 50       		.byte	0x50
 5205 08c0 84000000 		.4byte	.LVL290
 5206 08c4 88000000 		.4byte	.LVL292
 5207 08c8 0100     		.2byte	0x1
 5208 08ca 56       		.byte	0x56
ARM GAS  C:\Users\Phuong\AppData\Local\Temp\ccYkRU5p.s 			page 102


 5209 08cb 88000000 		.4byte	.LVL292
 5210 08cf 90000000 		.4byte	.LFE8
 5211 08d3 0400     		.2byte	0x4
 5212 08d5 F3       		.byte	0xf3
 5213 08d6 01       		.uleb128 0x1
 5214 08d7 50       		.byte	0x50
 5215 08d8 9F       		.byte	0x9f
 5216 08d9 00000000 		.4byte	0
 5217 08dd 00000000 		.4byte	0
 5218              	.LLST15:
 5219 08e1 00000000 		.4byte	.LVL272
 5220 08e5 40000000 		.4byte	.LVL278
 5221 08e9 0100     		.2byte	0x1
 5222 08eb 51       		.byte	0x51
 5223 08ec 40000000 		.4byte	.LVL278
 5224 08f0 82000000 		.4byte	.LVL289
 5225 08f4 0100     		.2byte	0x1
 5226 08f6 55       		.byte	0x55
 5227 08f7 82000000 		.4byte	.LVL289
 5228 08fb 86000000 		.4byte	.LVL291
 5229 08ff 0100     		.2byte	0x1
 5230 0901 51       		.byte	0x51
 5231 0902 86000000 		.4byte	.LVL291
 5232 0906 88000000 		.4byte	.LVL294
 5233 090a 0100     		.2byte	0x1
 5234 090c 55       		.byte	0x55
 5235 090d 00000000 		.4byte	0
 5236 0911 00000000 		.4byte	0
 5237              	.LLST16:
 5238 0915 00000000 		.4byte	.LVL272
 5239 0919 18000000 		.4byte	.LVL274
 5240 091d 0100     		.2byte	0x1
 5241 091f 52       		.byte	0x52
 5242 0920 18000000 		.4byte	.LVL274
 5243 0924 82000000 		.4byte	.LVL289
 5244 0928 0100     		.2byte	0x1
 5245 092a 54       		.byte	0x54
 5246 092b 82000000 		.4byte	.LVL289
 5247 092f 86000000 		.4byte	.LVL291
 5248 0933 0100     		.2byte	0x1
 5249 0935 52       		.byte	0x52
 5250 0936 86000000 		.4byte	.LVL291
 5251 093a 88000000 		.4byte	.LVL293
 5252 093e 0100     		.2byte	0x1
 5253 0940 54       		.byte	0x54
 5254 0941 00000000 		.4byte	0
 5255 0945 00000000 		.4byte	0
 5256              	.LLST17:
 5257 0949 4C000000 		.4byte	.LVL280
 5258 094d 5A000000 		.4byte	.LVL283
 5259 0951 0100     		.2byte	0x1
 5260 0953 50       		.byte	0x50
 5261 0954 62000000 		.4byte	.LVL284
 5262 0958 6A000000 		.4byte	.LVL286
 5263 095c 0100     		.2byte	0x1
 5264 095e 50       		.byte	0x50
 5265 095f 00000000 		.4byte	0
ARM GAS  C:\Users\Phuong\AppData\Local\Temp\ccYkRU5p.s 			page 103


 5266 0963 00000000 		.4byte	0
 5267              	.LLST18:
 5268 0967 1C000000 		.4byte	.LVL275
 5269 096b 3E000000 		.4byte	.LVL277
 5270 096f 0100     		.2byte	0x1
 5271 0971 52       		.byte	0x52
 5272 0972 3E000000 		.4byte	.LVL277
 5273 0976 82000000 		.4byte	.LVL289
 5274 097a 0100     		.2byte	0x1
 5275 097c 58       		.byte	0x58
 5276 097d 86000000 		.4byte	.LVL291
 5277 0981 88000000 		.4byte	.LVL292
 5278 0985 0100     		.2byte	0x1
 5279 0987 58       		.byte	0x58
 5280 0988 00000000 		.4byte	0
 5281 098c 00000000 		.4byte	0
 5282              	.LLST19:
 5283 0990 16000000 		.4byte	.LVL273
 5284 0994 56000000 		.4byte	.LVL282
 5285 0998 0100     		.2byte	0x1
 5286 099a 57       		.byte	0x57
 5287 099b 56000000 		.4byte	.LVL282
 5288 099f 5A000000 		.4byte	.LVL283
 5289 09a3 0200     		.2byte	0x2
 5290 09a5 30       		.byte	0x30
 5291 09a6 9F       		.byte	0x9f
 5292 09a7 5A000000 		.4byte	.LVL283
 5293 09ab 82000000 		.4byte	.LVL289
 5294 09af 0100     		.2byte	0x1
 5295 09b1 57       		.byte	0x57
 5296 09b2 86000000 		.4byte	.LVL291
 5297 09b6 88000000 		.4byte	.LVL292
 5298 09ba 0100     		.2byte	0x1
 5299 09bc 57       		.byte	0x57
 5300 09bd 00000000 		.4byte	0
 5301 09c1 00000000 		.4byte	0
 5302              	.LLST20:
 5303 09c5 00000000 		.4byte	.LVL295
 5304 09c9 05000000 		.4byte	.LVL296-1
 5305 09cd 0100     		.2byte	0x1
 5306 09cf 50       		.byte	0x50
 5307 09d0 05000000 		.4byte	.LVL296-1
 5308 09d4 08000000 		.4byte	.LFE9
 5309 09d8 0400     		.2byte	0x4
 5310 09da F3       		.byte	0xf3
 5311 09db 01       		.uleb128 0x1
 5312 09dc 50       		.byte	0x50
 5313 09dd 9F       		.byte	0x9f
 5314 09de 00000000 		.4byte	0
 5315 09e2 00000000 		.4byte	0
 5316              	.LLST21:
 5317 09e6 00000000 		.4byte	.LVL295
 5318 09ea 05000000 		.4byte	.LVL296-1
 5319 09ee 0100     		.2byte	0x1
 5320 09f0 51       		.byte	0x51
 5321 09f1 05000000 		.4byte	.LVL296-1
 5322 09f5 08000000 		.4byte	.LFE9
ARM GAS  C:\Users\Phuong\AppData\Local\Temp\ccYkRU5p.s 			page 104


 5323 09f9 0400     		.2byte	0x4
 5324 09fb F3       		.byte	0xf3
 5325 09fc 01       		.uleb128 0x1
 5326 09fd 51       		.byte	0x51
 5327 09fe 9F       		.byte	0x9f
 5328 09ff 00000000 		.4byte	0
 5329 0a03 00000000 		.4byte	0
 5330              	.LLST22:
 5331 0a07 00000000 		.4byte	.LVL295
 5332 0a0b 05000000 		.4byte	.LVL296-1
 5333 0a0f 0100     		.2byte	0x1
 5334 0a11 52       		.byte	0x52
 5335 0a12 05000000 		.4byte	.LVL296-1
 5336 0a16 08000000 		.4byte	.LFE9
 5337 0a1a 0400     		.2byte	0x4
 5338 0a1c F3       		.byte	0xf3
 5339 0a1d 01       		.uleb128 0x1
 5340 0a1e 52       		.byte	0x52
 5341 0a1f 9F       		.byte	0x9f
 5342 0a20 00000000 		.4byte	0
 5343 0a24 00000000 		.4byte	0
 5344              	.LLST23:
 5345 0a28 00000000 		.4byte	.LVL297
 5346 0a2c 0E000000 		.4byte	.LVL299
 5347 0a30 0100     		.2byte	0x1
 5348 0a32 50       		.byte	0x50
 5349 0a33 0E000000 		.4byte	.LVL299
 5350 0a37 DE000000 		.4byte	.LVL315
 5351 0a3b 0100     		.2byte	0x1
 5352 0a3d 54       		.byte	0x54
 5353 0a3e DE000000 		.4byte	.LVL315
 5354 0a42 E0000000 		.4byte	.LFE10
 5355 0a46 0400     		.2byte	0x4
 5356 0a48 F3       		.byte	0xf3
 5357 0a49 01       		.uleb128 0x1
 5358 0a4a 50       		.byte	0x50
 5359 0a4b 9F       		.byte	0x9f
 5360 0a4c 00000000 		.4byte	0
 5361 0a50 00000000 		.4byte	0
 5362              	.LLST24:
 5363 0a54 00000000 		.4byte	.LVL297
 5364 0a58 24000000 		.4byte	.LVL301
 5365 0a5c 0100     		.2byte	0x1
 5366 0a5e 51       		.byte	0x51
 5367 0a5f 24000000 		.4byte	.LVL301
 5368 0a63 2A000000 		.4byte	.LVL303
 5369 0a67 0100     		.2byte	0x1
 5370 0a69 55       		.byte	0x55
 5371 0a6a 2A000000 		.4byte	.LVL303
 5372 0a6e 36000000 		.4byte	.LVL305
 5373 0a72 0100     		.2byte	0x1
 5374 0a74 51       		.byte	0x51
 5375 0a75 36000000 		.4byte	.LVL305
 5376 0a79 DE000000 		.4byte	.LVL316
 5377 0a7d 0100     		.2byte	0x1
 5378 0a7f 55       		.byte	0x55
 5379 0a80 DE000000 		.4byte	.LVL316
ARM GAS  C:\Users\Phuong\AppData\Local\Temp\ccYkRU5p.s 			page 105


 5380 0a84 E0000000 		.4byte	.LFE10
 5381 0a88 0400     		.2byte	0x4
 5382 0a8a F3       		.byte	0xf3
 5383 0a8b 01       		.uleb128 0x1
 5384 0a8c 51       		.byte	0x51
 5385 0a8d 9F       		.byte	0x9f
 5386 0a8e 00000000 		.4byte	0
 5387 0a92 00000000 		.4byte	0
 5388              	.LLST25:
 5389 0a96 42000000 		.4byte	.LVL307
 5390 0a9a 4C000000 		.4byte	.LVL308
 5391 0a9e 0100     		.2byte	0x1
 5392 0aa0 50       		.byte	0x50
 5393 0aa1 92000000 		.4byte	.LVL314
 5394 0aa5 E0000000 		.4byte	.LFE10
 5395 0aa9 0100     		.2byte	0x1
 5396 0aab 50       		.byte	0x50
 5397 0aac 00000000 		.4byte	0
 5398 0ab0 00000000 		.4byte	0
 5399              	.LLST26:
 5400 0ab4 0C000000 		.4byte	.LVL298
 5401 0ab8 0E000000 		.4byte	.LVL299
 5402 0abc 0100     		.2byte	0x1
 5403 0abe 53       		.byte	0x53
 5404 0abf 0E000000 		.4byte	.LVL299
 5405 0ac3 22000000 		.4byte	.LVL300
 5406 0ac7 0100     		.2byte	0x1
 5407 0ac9 50       		.byte	0x50
 5408 0aca 2A000000 		.4byte	.LVL303
 5409 0ace 34000000 		.4byte	.LVL304
 5410 0ad2 0100     		.2byte	0x1
 5411 0ad4 50       		.byte	0x50
 5412 0ad5 00000000 		.4byte	0
 5413 0ad9 00000000 		.4byte	0
 5414              	.LLST27:
 5415 0add 5A000000 		.4byte	.LVL310
 5416 0ae1 84000000 		.4byte	.LVL313
 5417 0ae5 0100     		.2byte	0x1
 5418 0ae7 53       		.byte	0x53
 5419 0ae8 00000000 		.4byte	0
 5420 0aec 00000000 		.4byte	0
 5421              	.LLST28:
 5422 0af0 5C000000 		.4byte	.LVL311
 5423 0af4 6E000000 		.4byte	.LVL312
 5424 0af8 0100     		.2byte	0x1
 5425 0afa 52       		.byte	0x52
 5426 0afb 00000000 		.4byte	0
 5427 0aff 00000000 		.4byte	0
 5428              	.LLST29:
 5429 0b03 00000000 		.4byte	.LVL317
 5430 0b07 05000000 		.4byte	.LVL318-1
 5431 0b0b 0100     		.2byte	0x1
 5432 0b0d 50       		.byte	0x50
 5433 0b0e 05000000 		.4byte	.LVL318-1
 5434 0b12 08000000 		.4byte	.LFE11
 5435 0b16 0400     		.2byte	0x4
 5436 0b18 F3       		.byte	0xf3
ARM GAS  C:\Users\Phuong\AppData\Local\Temp\ccYkRU5p.s 			page 106


 5437 0b19 01       		.uleb128 0x1
 5438 0b1a 50       		.byte	0x50
 5439 0b1b 9F       		.byte	0x9f
 5440 0b1c 00000000 		.4byte	0
 5441 0b20 00000000 		.4byte	0
 5442              	.LLST30:
 5443 0b24 00000000 		.4byte	.LVL317
 5444 0b28 05000000 		.4byte	.LVL318-1
 5445 0b2c 0100     		.2byte	0x1
 5446 0b2e 51       		.byte	0x51
 5447 0b2f 05000000 		.4byte	.LVL318-1
 5448 0b33 08000000 		.4byte	.LFE11
 5449 0b37 0400     		.2byte	0x4
 5450 0b39 F3       		.byte	0xf3
 5451 0b3a 01       		.uleb128 0x1
 5452 0b3b 51       		.byte	0x51
 5453 0b3c 9F       		.byte	0x9f
 5454 0b3d 00000000 		.4byte	0
 5455 0b41 00000000 		.4byte	0
 5456              	.LLST31:
 5457 0b45 00000000 		.4byte	.LVL319
 5458 0b49 0C000000 		.4byte	.LVL320
 5459 0b4d 0100     		.2byte	0x1
 5460 0b4f 50       		.byte	0x50
 5461 0b50 0C000000 		.4byte	.LVL320
 5462 0b54 3C000000 		.4byte	.LVL333
 5463 0b58 0100     		.2byte	0x1
 5464 0b5a 55       		.byte	0x55
 5465 0b5b 3C000000 		.4byte	.LVL333
 5466 0b5f 3E000000 		.4byte	.LFE12
 5467 0b63 0400     		.2byte	0x4
 5468 0b65 F3       		.byte	0xf3
 5469 0b66 01       		.uleb128 0x1
 5470 0b67 50       		.byte	0x50
 5471 0b68 9F       		.byte	0x9f
 5472 0b69 00000000 		.4byte	0
 5473 0b6d 00000000 		.4byte	0
 5474              	.LLST32:
 5475 0b71 00000000 		.4byte	.LVL319
 5476 0b75 0F000000 		.4byte	.LVL321-1
 5477 0b79 0100     		.2byte	0x1
 5478 0b7b 51       		.byte	0x51
 5479 0b7c 0F000000 		.4byte	.LVL321-1
 5480 0b80 3C000000 		.4byte	.LVL334
 5481 0b84 0100     		.2byte	0x1
 5482 0b86 56       		.byte	0x56
 5483 0b87 3C000000 		.4byte	.LVL334
 5484 0b8b 3E000000 		.4byte	.LFE12
 5485 0b8f 0400     		.2byte	0x4
 5486 0b91 F3       		.byte	0xf3
 5487 0b92 01       		.uleb128 0x1
 5488 0b93 51       		.byte	0x51
 5489 0b94 9F       		.byte	0x9f
 5490 0b95 00000000 		.4byte	0
 5491 0b99 00000000 		.4byte	0
 5492              	.LLST33:
 5493 0b9d 00000000 		.4byte	.LVL319
ARM GAS  C:\Users\Phuong\AppData\Local\Temp\ccYkRU5p.s 			page 107


 5494 0ba1 0F000000 		.4byte	.LVL321-1
 5495 0ba5 0100     		.2byte	0x1
 5496 0ba7 52       		.byte	0x52
 5497 0ba8 0F000000 		.4byte	.LVL321-1
 5498 0bac 3C000000 		.4byte	.LVL335
 5499 0bb0 0100     		.2byte	0x1
 5500 0bb2 57       		.byte	0x57
 5501 0bb3 3C000000 		.4byte	.LVL335
 5502 0bb7 3E000000 		.4byte	.LFE12
 5503 0bbb 0400     		.2byte	0x4
 5504 0bbd F3       		.byte	0xf3
 5505 0bbe 01       		.uleb128 0x1
 5506 0bbf 52       		.byte	0x52
 5507 0bc0 9F       		.byte	0x9f
 5508 0bc1 00000000 		.4byte	0
 5509 0bc5 00000000 		.4byte	0
 5510              	.LLST34:
 5511 0bc9 18000000 		.4byte	.LVL323
 5512 0bcd 20000000 		.4byte	.LVL324
 5513 0bd1 0100     		.2byte	0x1
 5514 0bd3 50       		.byte	0x50
 5515 0bd4 20000000 		.4byte	.LVL324
 5516 0bd8 26000000 		.4byte	.LVL326
 5517 0bdc 0100     		.2byte	0x1
 5518 0bde 54       		.byte	0x54
 5519 0bdf 26000000 		.4byte	.LVL326
 5520 0be3 2C000000 		.4byte	.LVL327
 5521 0be7 0100     		.2byte	0x1
 5522 0be9 50       		.byte	0x50
 5523 0bea 2C000000 		.4byte	.LVL327
 5524 0bee 32000000 		.4byte	.LVL329
 5525 0bf2 0100     		.2byte	0x1
 5526 0bf4 54       		.byte	0x54
 5527 0bf5 32000000 		.4byte	.LVL329
 5528 0bf9 34000000 		.4byte	.LVL330
 5529 0bfd 0100     		.2byte	0x1
 5530 0bff 50       		.byte	0x50
 5531 0c00 34000000 		.4byte	.LVL330
 5532 0c04 3C000000 		.4byte	.LVL332
 5533 0c08 0100     		.2byte	0x1
 5534 0c0a 54       		.byte	0x54
 5535 0c0b 3C000000 		.4byte	.LVL332
 5536 0c0f 3E000000 		.4byte	.LFE12
 5537 0c13 0100     		.2byte	0x1
 5538 0c15 50       		.byte	0x50
 5539 0c16 00000000 		.4byte	0
 5540 0c1a 00000000 		.4byte	0
 5541              	.LLST35:
 5542 0c1e 00000000 		.4byte	.LVL336
 5543 0c22 05000000 		.4byte	.LVL337-1
 5544 0c26 0100     		.2byte	0x1
 5545 0c28 50       		.byte	0x50
 5546 0c29 05000000 		.4byte	.LVL337-1
 5547 0c2d 08000000 		.4byte	.LFE13
 5548 0c31 0400     		.2byte	0x4
 5549 0c33 F3       		.byte	0xf3
 5550 0c34 01       		.uleb128 0x1
ARM GAS  C:\Users\Phuong\AppData\Local\Temp\ccYkRU5p.s 			page 108


 5551 0c35 50       		.byte	0x50
 5552 0c36 9F       		.byte	0x9f
 5553 0c37 00000000 		.4byte	0
 5554 0c3b 00000000 		.4byte	0
 5555              	.LLST36:
 5556 0c3f 00000000 		.4byte	.LVL336
 5557 0c43 05000000 		.4byte	.LVL337-1
 5558 0c47 0100     		.2byte	0x1
 5559 0c49 51       		.byte	0x51
 5560 0c4a 05000000 		.4byte	.LVL337-1
 5561 0c4e 08000000 		.4byte	.LFE13
 5562 0c52 0400     		.2byte	0x4
 5563 0c54 F3       		.byte	0xf3
 5564 0c55 01       		.uleb128 0x1
 5565 0c56 51       		.byte	0x51
 5566 0c57 9F       		.byte	0x9f
 5567 0c58 00000000 		.4byte	0
 5568 0c5c 00000000 		.4byte	0
 5569              	.LLST37:
 5570 0c60 00000000 		.4byte	.LVL336
 5571 0c64 05000000 		.4byte	.LVL337-1
 5572 0c68 0100     		.2byte	0x1
 5573 0c6a 52       		.byte	0x52
 5574 0c6b 05000000 		.4byte	.LVL337-1
 5575 0c6f 08000000 		.4byte	.LFE13
 5576 0c73 0400     		.2byte	0x4
 5577 0c75 F3       		.byte	0xf3
 5578 0c76 01       		.uleb128 0x1
 5579 0c77 52       		.byte	0x52
 5580 0c78 9F       		.byte	0x9f
 5581 0c79 00000000 		.4byte	0
 5582 0c7d 00000000 		.4byte	0
 5583              	.LLST38:
 5584 0c81 00000000 		.4byte	.LVL338
 5585 0c85 0A000000 		.4byte	.LVL340
 5586 0c89 0100     		.2byte	0x1
 5587 0c8b 50       		.byte	0x50
 5588 0c8c 0A000000 		.4byte	.LVL340
 5589 0c90 7E000000 		.4byte	.LVL356
 5590 0c94 0100     		.2byte	0x1
 5591 0c96 55       		.byte	0x55
 5592 0c97 7E000000 		.4byte	.LVL356
 5593 0c9b 94000000 		.4byte	.LFE14
 5594 0c9f 0400     		.2byte	0x4
 5595 0ca1 F3       		.byte	0xf3
 5596 0ca2 01       		.uleb128 0x1
 5597 0ca3 50       		.byte	0x50
 5598 0ca4 9F       		.byte	0x9f
 5599 0ca5 00000000 		.4byte	0
 5600 0ca9 00000000 		.4byte	0
 5601              	.LLST39:
 5602 0cad 06000000 		.4byte	.LVL339
 5603 0cb1 0A000000 		.4byte	.LVL340
 5604 0cb5 0200     		.2byte	0x2
 5605 0cb7 30       		.byte	0x30
 5606 0cb8 9F       		.byte	0x9f
 5607 0cb9 0A000000 		.4byte	.LVL340
ARM GAS  C:\Users\Phuong\AppData\Local\Temp\ccYkRU5p.s 			page 109


 5608 0cbd 7E000000 		.4byte	.LVL355
 5609 0cc1 0100     		.2byte	0x1
 5610 0cc3 54       		.byte	0x54
 5611 0cc4 00000000 		.4byte	0
 5612 0cc8 00000000 		.4byte	0
 5613              	.LLST40:
 5614 0ccc 06000000 		.4byte	.LVL339
 5615 0cd0 0A000000 		.4byte	.LVL340
 5616 0cd4 0200     		.2byte	0x2
 5617 0cd6 30       		.byte	0x30
 5618 0cd7 9F       		.byte	0x9f
 5619 0cd8 32000000 		.4byte	.LVL343
 5620 0cdc 40000000 		.4byte	.LVL344
 5621 0ce0 0100     		.2byte	0x1
 5622 0ce2 50       		.byte	0x50
 5623 0ce3 40000000 		.4byte	.LVL344
 5624 0ce7 54000000 		.4byte	.LVL347
 5625 0ceb 0100     		.2byte	0x1
 5626 0ced 56       		.byte	0x56
 5627 0cee 66000000 		.4byte	.LVL349
 5628 0cf2 76000000 		.4byte	.LVL352
 5629 0cf6 0100     		.2byte	0x1
 5630 0cf8 56       		.byte	0x56
 5631 0cf9 7A000000 		.4byte	.LVL353
 5632 0cfd 7C000000 		.4byte	.LVL354
 5633 0d01 0100     		.2byte	0x1
 5634 0d03 56       		.byte	0x56
 5635 0d04 00000000 		.4byte	0
 5636 0d08 00000000 		.4byte	0
 5637              		.section	.debug_aranges,"",%progbits
 5638 0000 84000000 		.4byte	0x84
 5639 0004 0200     		.2byte	0x2
 5640 0006 00000000 		.4byte	.Ldebug_info0
 5641 000a 04       		.byte	0x4
 5642 000b 00       		.byte	0
 5643 000c 0000     		.2byte	0
 5644 000e 0000     		.2byte	0
 5645 0010 00000000 		.4byte	.LFB1
 5646 0014 0C000000 		.4byte	.LFE1-.LFB1
 5647 0018 00000000 		.4byte	.LFB2
 5648 001c 0E000000 		.4byte	.LFE2-.LFB2
 5649 0020 00000000 		.4byte	.LFB3
 5650 0024 0A000000 		.4byte	.LFE3-.LFB3
 5651 0028 00000000 		.4byte	.LFB4
 5652 002c 2C000000 		.4byte	.LFE4-.LFB4
 5653 0030 00000000 		.4byte	.LFB5
 5654 0034 08000000 		.4byte	.LFE5-.LFB5
 5655 0038 00000000 		.4byte	.LFB6
 5656 003c E4090000 		.4byte	.LFE6-.LFB6
 5657 0040 00000000 		.4byte	.LFB7
 5658 0044 08000000 		.4byte	.LFE7-.LFB7
 5659 0048 00000000 		.4byte	.LFB8
 5660 004c 90000000 		.4byte	.LFE8-.LFB8
 5661 0050 00000000 		.4byte	.LFB9
 5662 0054 08000000 		.4byte	.LFE9-.LFB9
 5663 0058 00000000 		.4byte	.LFB10
 5664 005c E0000000 		.4byte	.LFE10-.LFB10
ARM GAS  C:\Users\Phuong\AppData\Local\Temp\ccYkRU5p.s 			page 110


 5665 0060 00000000 		.4byte	.LFB11
 5666 0064 08000000 		.4byte	.LFE11-.LFB11
 5667 0068 00000000 		.4byte	.LFB12
 5668 006c 3E000000 		.4byte	.LFE12-.LFB12
 5669 0070 00000000 		.4byte	.LFB13
 5670 0074 08000000 		.4byte	.LFE13-.LFB13
 5671 0078 00000000 		.4byte	.LFB14
 5672 007c 94000000 		.4byte	.LFE14-.LFB14
 5673 0080 00000000 		.4byte	0
 5674 0084 00000000 		.4byte	0
 5675              		.section	.debug_ranges,"",%progbits
 5676              	.Ldebug_ranges0:
 5677 0000 00000000 		.4byte	.LFB1
 5678 0004 0C000000 		.4byte	.LFE1
 5679 0008 00000000 		.4byte	.LFB2
 5680 000c 0E000000 		.4byte	.LFE2
 5681 0010 00000000 		.4byte	.LFB3
 5682 0014 0A000000 		.4byte	.LFE3
 5683 0018 00000000 		.4byte	.LFB4
 5684 001c 2C000000 		.4byte	.LFE4
 5685 0020 00000000 		.4byte	.LFB5
 5686 0024 08000000 		.4byte	.LFE5
 5687 0028 00000000 		.4byte	.LFB6
 5688 002c E4090000 		.4byte	.LFE6
 5689 0030 00000000 		.4byte	.LFB7
 5690 0034 08000000 		.4byte	.LFE7
 5691 0038 00000000 		.4byte	.LFB8
 5692 003c 90000000 		.4byte	.LFE8
 5693 0040 00000000 		.4byte	.LFB9
 5694 0044 08000000 		.4byte	.LFE9
 5695 0048 00000000 		.4byte	.LFB10
 5696 004c E0000000 		.4byte	.LFE10
 5697 0050 00000000 		.4byte	.LFB11
 5698 0054 08000000 		.4byte	.LFE11
 5699 0058 00000000 		.4byte	.LFB12
 5700 005c 3E000000 		.4byte	.LFE12
 5701 0060 00000000 		.4byte	.LFB13
 5702 0064 08000000 		.4byte	.LFE13
 5703 0068 00000000 		.4byte	.LFB14
 5704 006c 94000000 		.4byte	.LFE14
 5705 0070 00000000 		.4byte	0
 5706 0074 00000000 		.4byte	0
 5707              		.section	.debug_line,"",%progbits
 5708              	.Ldebug_line0:
 5709 0000 4A040000 		.section	.debug_str,"MS",%progbits,1
 5709      02008602 
 5709      00000201 
 5709      FB0E0D00 
 5709      01010101 
 5710              	.LASF51:
 5711 0000 7072696E 		.ascii	"printf\000"
 5711      746600
 5712              	.LASF33:
 5713 0007 6D626564 		.ascii	"mbedtls_md5_finish_ret\000"
 5713      746C735F 
 5713      6D64355F 
 5713      66696E69 
ARM GAS  C:\Users\Phuong\AppData\Local\Temp\ccYkRU5p.s 			page 111


 5713      73685F72 
 5714              	.LASF10:
 5715 001e 73697A65 		.ascii	"size_t\000"
 5715      5F7400
 5716              	.LASF37:
 5717 0025 6D626564 		.ascii	"mbedtls_md5_finish\000"
 5717      746C735F 
 5717      6D64355F 
 5717      66696E69 
 5717      736800
 5718              	.LASF7:
 5719 0038 6C6F6E67 		.ascii	"long long unsigned int\000"
 5719      206C6F6E 
 5719      6720756E 
 5719      7369676E 
 5719      65642069 
 5720              	.LASF6:
 5721 004f 6C6F6E67 		.ascii	"long long int\000"
 5721      206C6F6E 
 5721      6720696E 
 5721      7400
 5722              	.LASF0:
 5723 005d 7369676E 		.ascii	"signed char\000"
 5723      65642063 
 5723      68617200 
 5724              	.LASF32:
 5725 0069 6D626564 		.ascii	"mbedtls_md5_update\000"
 5725      746C735F 
 5725      6D64355F 
 5725      75706461 
 5725      746500
 5726              	.LASF14:
 5727 007c 73746174 		.ascii	"state\000"
 5727      6500
 5728              	.LASF4:
 5729 0082 6C6F6E67 		.ascii	"long int\000"
 5729      20696E74 
 5729      00
 5730              	.LASF28:
 5731 008b 696E7075 		.ascii	"input\000"
 5731      7400
 5732              	.LASF55:
 5733 0091 5F5F6275 		.ascii	"__builtin_puts\000"
 5733      696C7469 
 5733      6E5F7075 
 5733      747300
 5734              	.LASF49:
 5735 00a0 6D656D63 		.ascii	"memcpy\000"
 5735      707900
 5736              	.LASF54:
 5737 00a7 70757463 		.ascii	"putchar\000"
 5737      68617200 
 5738              	.LASF21:
 5739 00af 6D626564 		.ascii	"mbedtls_md5_clone\000"
 5739      746C735F 
 5739      6D64355F 
 5739      636C6F6E 
ARM GAS  C:\Users\Phuong\AppData\Local\Temp\ccYkRU5p.s 			page 112


 5739      6500
 5740              	.LASF17:
 5741 00c1 6D626564 		.ascii	"mbedtls_md5_context\000"
 5741      746C735F 
 5741      6D64355F 
 5741      636F6E74 
 5741      65787400 
 5742              	.LASF9:
 5743 00d5 5F5F7569 		.ascii	"__uint32_t\000"
 5743      6E743332 
 5743      5F7400
 5744              	.LASF8:
 5745 00e0 756E7369 		.ascii	"unsigned int\000"
 5745      676E6564 
 5745      20696E74 
 5745      00
 5746              	.LASF5:
 5747 00ed 6C6F6E67 		.ascii	"long unsigned int\000"
 5747      20756E73 
 5747      69676E65 
 5747      6420696E 
 5747      7400
 5748              	.LASF27:
 5749 00ff 6D626564 		.ascii	"mbedtls_md5_update_ret\000"
 5749      746C735F 
 5749      6D64355F 
 5749      75706461 
 5749      74655F72 
 5750              	.LASF56:
 5751 0116 5F5F6275 		.ascii	"__builtin_putchar\000"
 5751      696C7469 
 5751      6E5F7075 
 5751      74636861 
 5751      7200
 5752              	.LASF25:
 5753 0128 64617461 		.ascii	"data\000"
 5753      00
 5754              	.LASF3:
 5755 012d 73686F72 		.ascii	"short unsigned int\000"
 5755      7420756E 
 5755      7369676E 
 5755      65642069 
 5755      6E7400
 5756              	.LASF13:
 5757 0140 746F7461 		.ascii	"total\000"
 5757      6C00
 5758              	.LASF39:
 5759 0146 6D626564 		.ascii	"mbedtls_md5\000"
 5759      746C735F 
 5759      6D643500 
 5760              	.LASF26:
 5761 0152 6D626564 		.ascii	"mbedtls_md5_process\000"
 5761      746C735F 
 5761      6D64355F 
 5761      70726F63 
 5761      65737300 
 5762              	.LASF40:
ARM GAS  C:\Users\Phuong\AppData\Local\Temp\ccYkRU5p.s 			page 113


 5763 0166 6D626564 		.ascii	"mbedtls_md5_self_test\000"
 5763      746C735F 
 5763      6D64355F 
 5763      73656C66 
 5763      5F746573 
 5764              	.LASF34:
 5765 017c 6F757470 		.ascii	"output\000"
 5765      757400
 5766              	.LASF42:
 5767 0183 6D643573 		.ascii	"md5sum\000"
 5767      756D00
 5768              	.LASF24:
 5769 018a 6D626564 		.ascii	"mbedtls_internal_md5_process\000"
 5769      746C735F 
 5769      696E7465 
 5769      726E616C 
 5769      5F6D6435 
 5770              	.LASF16:
 5771 01a7 73697A65 		.ascii	"sizetype\000"
 5771      74797065 
 5771      00
 5772              	.LASF11:
 5773 01b0 6C6F6E67 		.ascii	"long double\000"
 5773      20646F75 
 5773      626C6500 
 5774              	.LASF59:
 5775 01bc 433A5C55 		.ascii	"C:\\Users\\Phuong\\Documents\\PSoC Creator\\Dec0820"
 5775      73657273 
 5775      5C506875 
 5775      6F6E675C 
 5775      446F6375 
 5776 01ea 31385C69 		.ascii	"18\\iot-sdk-iot-dev\\PSOC6_FreeRTOS+LwIP+MbedTLS_Az"
 5776      6F742D73 
 5776      646B2D69 
 5776      6F742D64 
 5776      65765C50 
 5777 021b 7572652D 		.ascii	"ure-IOT-Hub-Demo\\PSOC6_FreeRTOS+LwIP+MbedTLS_Azure"
 5777      494F542D 
 5777      4875622D 
 5777      44656D6F 
 5777      5C50534F 
 5778 024d 2D494F54 		.ascii	"-IOT-Hub-Demo.cydsn\000"
 5778      2D487562 
 5778      2D44656D 
 5778      6F2E6379 
 5778      64736E00 
 5779              	.LASF47:
 5780 0261 6D64355F 		.ascii	"md5_test_sum\000"
 5780      74657374 
 5780      5F73756D 
 5780      00
 5781              	.LASF35:
 5782 026e 75736564 		.ascii	"used\000"
 5782      00
 5783              	.LASF58:
 5784 0273 536F7572 		.ascii	"Source\\mbedtls_open\\library\\md5.c\000"
 5784      63655C6D 
ARM GAS  C:\Users\Phuong\AppData\Local\Temp\ccYkRU5p.s 			page 114


 5784      62656474 
 5784      6C735F6F 
 5784      70656E5C 
 5785              	.LASF45:
 5786 0295 6D64355F 		.ascii	"md5_test_buf\000"
 5786      74657374 
 5786      5F627566 
 5786      00
 5787              	.LASF1:
 5788 02a2 756E7369 		.ascii	"unsigned char\000"
 5788      676E6564 
 5788      20636861 
 5788      7200
 5789              	.LASF2:
 5790 02b0 73686F72 		.ascii	"short int\000"
 5790      7420696E 
 5790      7400
 5791              	.LASF30:
 5792 02ba 66696C6C 		.ascii	"fill\000"
 5792      00
 5793              	.LASF38:
 5794 02bf 6D626564 		.ascii	"mbedtls_md5_ret\000"
 5794      746C735F 
 5794      6D64355F 
 5794      72657400 
 5795              	.LASF23:
 5796 02cf 6D626564 		.ascii	"mbedtls_md5_starts_ret\000"
 5796      746C735F 
 5796      6D64355F 
 5796      73746172 
 5796      74735F72 
 5797              	.LASF12:
 5798 02e6 75696E74 		.ascii	"uint32_t\000"
 5798      33325F74 
 5798      00
 5799              	.LASF22:
 5800 02ef 6D626564 		.ascii	"mbedtls_md5_starts\000"
 5800      746C735F 
 5800      6D64355F 
 5800      73746172 
 5800      747300
 5801              	.LASF19:
 5802 0302 6D626564 		.ascii	"mbedtls_md5_init\000"
 5802      746C735F 
 5802      6D64355F 
 5802      696E6974 
 5802      00
 5803              	.LASF57:
 5804 0313 474E5520 		.ascii	"GNU C11 5.4.1 20160609 (release) [ARM/embedded-5-br"
 5804      43313120 
 5804      352E342E 
 5804      31203230 
 5804      31363036 
 5805 0346 616E6368 		.ascii	"anch revision 237715] -mcpu=cortex-m0plus -mthumb -"
 5805      20726576 
 5805      6973696F 
 5805      6E203233 
ARM GAS  C:\Users\Phuong\AppData\Local\Temp\ccYkRU5p.s 			page 115


 5805      37373135 
 5806 0379 67202D4F 		.ascii	"g -Og -ffunction-sections -ffat-lto-objects\000"
 5806      67202D66 
 5806      66756E63 
 5806      74696F6E 
 5806      2D736563 
 5807              	.LASF18:
 5808 03a5 63686172 		.ascii	"char\000"
 5808      00
 5809              	.LASF50:
 5810 03aa 6D626564 		.ascii	"mbedtls_platform_zeroize\000"
 5810      746C735F 
 5810      706C6174 
 5810      666F726D 
 5810      5F7A6572 
 5811              	.LASF41:
 5812 03c3 76657262 		.ascii	"verbose\000"
 5812      6F736500 
 5813              	.LASF20:
 5814 03cb 6D626564 		.ascii	"mbedtls_md5_free\000"
 5814      746C735F 
 5814      6D64355F 
 5814      66726565 
 5814      00
 5815              	.LASF15:
 5816 03dc 62756666 		.ascii	"buffer\000"
 5816      657200
 5817              	.LASF36:
 5818 03e3 68696768 		.ascii	"high\000"
 5818      00
 5819              	.LASF52:
 5820 03e8 6D656D63 		.ascii	"memcmp\000"
 5820      6D7000
 5821              	.LASF46:
 5822 03ef 6D64355F 		.ascii	"md5_test_buflen\000"
 5822      74657374 
 5822      5F627566 
 5822      6C656E00 
 5823              	.LASF48:
 5824 03ff 6D656D73 		.ascii	"memset\000"
 5824      657400
 5825              	.LASF43:
 5826 0406 65786974 		.ascii	"exit\000"
 5826      00
 5827              	.LASF29:
 5828 040b 696C656E 		.ascii	"ilen\000"
 5828      00
 5829              	.LASF44:
 5830 0410 6661696C 		.ascii	"fail\000"
 5830      00
 5831              	.LASF53:
 5832 0415 70757473 		.ascii	"puts\000"
 5832      00
 5833              	.LASF31:
 5834 041a 6C656674 		.ascii	"left\000"
 5834      00
 5835              		.ident	"GCC: (GNU Tools for ARM Embedded Processors) 5.4.1 20160609 (release) [ARM/embedded-5-bran
ARM GAS  C:\Users\Phuong\AppData\Local\Temp\ccYkRU5p.s 			page 116


