ARM GAS  C:\Users\Phuong\AppData\Local\Temp\cctHCtS3.s 			page 1


   1              		.syntax unified
   2              		.cpu cortex-m0plus
   3              		.fpu softvfp
   4              		.eabi_attribute 20, 1
   5              		.eabi_attribute 21, 1
   6              		.eabi_attribute 23, 3
   7              		.eabi_attribute 24, 1
   8              		.eabi_attribute 25, 1
   9              		.eabi_attribute 26, 1
  10              		.eabi_attribute 30, 1
  11              		.eabi_attribute 34, 0
  12              		.eabi_attribute 18, 4
  13              		.thumb
  14              		.syntax unified
  15              		.file	"md_wrap.c"
  16              		.text
  17              	.Ltext0:
  18              		.cfi_sections	.debug_frame
  19              		.section	.text.md5_process_wrap,"ax",%progbits
  20              		.align	2
  21              		.code	16
  22              		.thumb_func
  23              		.type	md5_process_wrap, %function
  24              	md5_process_wrap:
  25              	.LFB7:
  26              		.file 1 "Source\\mbedtls_open\\library\\md_wrap.c"
   1:Source\mbedtls_open\library/md_wrap.c **** /**
   2:Source\mbedtls_open\library/md_wrap.c ****  * \file md_wrap.c
   3:Source\mbedtls_open\library/md_wrap.c ****  *
   4:Source\mbedtls_open\library/md_wrap.c ****  * \brief Generic message digest wrapper for mbed TLS
   5:Source\mbedtls_open\library/md_wrap.c ****  *
   6:Source\mbedtls_open\library/md_wrap.c ****  * \author Adriaan de Jong <dejong@fox-it.com>
   7:Source\mbedtls_open\library/md_wrap.c ****  *
   8:Source\mbedtls_open\library/md_wrap.c ****  *  Copyright (C) 2006-2015, ARM Limited, All Rights Reserved
   9:Source\mbedtls_open\library/md_wrap.c ****  *  SPDX-License-Identifier: Apache-2.0
  10:Source\mbedtls_open\library/md_wrap.c ****  *
  11:Source\mbedtls_open\library/md_wrap.c ****  *  Licensed under the Apache License, Version 2.0 (the "License"); you may
  12:Source\mbedtls_open\library/md_wrap.c ****  *  not use this file except in compliance with the License.
  13:Source\mbedtls_open\library/md_wrap.c ****  *  You may obtain a copy of the License at
  14:Source\mbedtls_open\library/md_wrap.c ****  *
  15:Source\mbedtls_open\library/md_wrap.c ****  *  http://www.apache.org/licenses/LICENSE-2.0
  16:Source\mbedtls_open\library/md_wrap.c ****  *
  17:Source\mbedtls_open\library/md_wrap.c ****  *  Unless required by applicable law or agreed to in writing, software
  18:Source\mbedtls_open\library/md_wrap.c ****  *  distributed under the License is distributed on an "AS IS" BASIS, WITHOUT
  19:Source\mbedtls_open\library/md_wrap.c ****  *  WARRANTIES OR CONDITIONS OF ANY KIND, either express or implied.
  20:Source\mbedtls_open\library/md_wrap.c ****  *  See the License for the specific language governing permissions and
  21:Source\mbedtls_open\library/md_wrap.c ****  *  limitations under the License.
  22:Source\mbedtls_open\library/md_wrap.c ****  *
  23:Source\mbedtls_open\library/md_wrap.c ****  *  This file is part of mbed TLS (https://tls.mbed.org)
  24:Source\mbedtls_open\library/md_wrap.c ****  */
  25:Source\mbedtls_open\library/md_wrap.c **** 
  26:Source\mbedtls_open\library/md_wrap.c **** #if !defined(MBEDTLS_CONFIG_FILE)
  27:Source\mbedtls_open\library/md_wrap.c **** #include "mbedtls/config.h"
  28:Source\mbedtls_open\library/md_wrap.c **** #else
  29:Source\mbedtls_open\library/md_wrap.c **** #include MBEDTLS_CONFIG_FILE
  30:Source\mbedtls_open\library/md_wrap.c **** #endif
  31:Source\mbedtls_open\library/md_wrap.c **** 
ARM GAS  C:\Users\Phuong\AppData\Local\Temp\cctHCtS3.s 			page 2


  32:Source\mbedtls_open\library/md_wrap.c **** #if defined(MBEDTLS_MD_C)
  33:Source\mbedtls_open\library/md_wrap.c **** 
  34:Source\mbedtls_open\library/md_wrap.c **** #include "mbedtls/md_internal.h"
  35:Source\mbedtls_open\library/md_wrap.c **** 
  36:Source\mbedtls_open\library/md_wrap.c **** #if defined(MBEDTLS_MD2_C)
  37:Source\mbedtls_open\library/md_wrap.c **** #include "mbedtls/md2.h"
  38:Source\mbedtls_open\library/md_wrap.c **** #endif
  39:Source\mbedtls_open\library/md_wrap.c **** 
  40:Source\mbedtls_open\library/md_wrap.c **** #if defined(MBEDTLS_MD4_C)
  41:Source\mbedtls_open\library/md_wrap.c **** #include "mbedtls/md4.h"
  42:Source\mbedtls_open\library/md_wrap.c **** #endif
  43:Source\mbedtls_open\library/md_wrap.c **** 
  44:Source\mbedtls_open\library/md_wrap.c **** #if defined(MBEDTLS_MD5_C)
  45:Source\mbedtls_open\library/md_wrap.c **** #include "mbedtls/md5.h"
  46:Source\mbedtls_open\library/md_wrap.c **** #endif
  47:Source\mbedtls_open\library/md_wrap.c **** 
  48:Source\mbedtls_open\library/md_wrap.c **** #if defined(MBEDTLS_RIPEMD160_C)
  49:Source\mbedtls_open\library/md_wrap.c **** #include "mbedtls/ripemd160.h"
  50:Source\mbedtls_open\library/md_wrap.c **** #endif
  51:Source\mbedtls_open\library/md_wrap.c **** 
  52:Source\mbedtls_open\library/md_wrap.c **** #if defined(MBEDTLS_SHA1_C)
  53:Source\mbedtls_open\library/md_wrap.c **** #include "mbedtls/sha1.h"
  54:Source\mbedtls_open\library/md_wrap.c **** #endif
  55:Source\mbedtls_open\library/md_wrap.c **** 
  56:Source\mbedtls_open\library/md_wrap.c **** #if defined(MBEDTLS_SHA256_C)
  57:Source\mbedtls_open\library/md_wrap.c **** #include "mbedtls/sha256.h"
  58:Source\mbedtls_open\library/md_wrap.c **** #endif
  59:Source\mbedtls_open\library/md_wrap.c **** 
  60:Source\mbedtls_open\library/md_wrap.c **** #if defined(MBEDTLS_SHA512_C)
  61:Source\mbedtls_open\library/md_wrap.c **** #include "mbedtls/sha512.h"
  62:Source\mbedtls_open\library/md_wrap.c **** #endif
  63:Source\mbedtls_open\library/md_wrap.c **** 
  64:Source\mbedtls_open\library/md_wrap.c **** #if defined(MBEDTLS_PLATFORM_C)
  65:Source\mbedtls_open\library/md_wrap.c **** #include "mbedtls/platform.h"
  66:Source\mbedtls_open\library/md_wrap.c **** #else
  67:Source\mbedtls_open\library/md_wrap.c **** #include <stdlib.h>
  68:Source\mbedtls_open\library/md_wrap.c **** #define mbedtls_calloc    calloc
  69:Source\mbedtls_open\library/md_wrap.c **** #define mbedtls_free       free
  70:Source\mbedtls_open\library/md_wrap.c **** #endif
  71:Source\mbedtls_open\library/md_wrap.c **** 
  72:Source\mbedtls_open\library/md_wrap.c **** #if defined(MBEDTLS_MD2_C)
  73:Source\mbedtls_open\library/md_wrap.c **** 
  74:Source\mbedtls_open\library/md_wrap.c **** static int md2_starts_wrap( void *ctx )
  75:Source\mbedtls_open\library/md_wrap.c **** {
  76:Source\mbedtls_open\library/md_wrap.c ****     return( mbedtls_md2_starts_ret( (mbedtls_md2_context *) ctx ) );
  77:Source\mbedtls_open\library/md_wrap.c **** }
  78:Source\mbedtls_open\library/md_wrap.c **** 
  79:Source\mbedtls_open\library/md_wrap.c **** static int md2_update_wrap( void *ctx, const unsigned char *input,
  80:Source\mbedtls_open\library/md_wrap.c ****                              size_t ilen )
  81:Source\mbedtls_open\library/md_wrap.c **** {
  82:Source\mbedtls_open\library/md_wrap.c ****     return( mbedtls_md2_update_ret( (mbedtls_md2_context *) ctx, input, ilen ) );
  83:Source\mbedtls_open\library/md_wrap.c **** }
  84:Source\mbedtls_open\library/md_wrap.c **** 
  85:Source\mbedtls_open\library/md_wrap.c **** static int md2_finish_wrap( void *ctx, unsigned char *output )
  86:Source\mbedtls_open\library/md_wrap.c **** {
  87:Source\mbedtls_open\library/md_wrap.c ****     return( mbedtls_md2_finish_ret( (mbedtls_md2_context *) ctx, output ) );
  88:Source\mbedtls_open\library/md_wrap.c **** }
ARM GAS  C:\Users\Phuong\AppData\Local\Temp\cctHCtS3.s 			page 3


  89:Source\mbedtls_open\library/md_wrap.c **** 
  90:Source\mbedtls_open\library/md_wrap.c **** static void *md2_ctx_alloc( void )
  91:Source\mbedtls_open\library/md_wrap.c **** {
  92:Source\mbedtls_open\library/md_wrap.c ****     void *ctx = mbedtls_calloc( 1, sizeof( mbedtls_md2_context ) );
  93:Source\mbedtls_open\library/md_wrap.c **** 
  94:Source\mbedtls_open\library/md_wrap.c ****     if( ctx != NULL )
  95:Source\mbedtls_open\library/md_wrap.c ****         mbedtls_md2_init( (mbedtls_md2_context *) ctx );
  96:Source\mbedtls_open\library/md_wrap.c **** 
  97:Source\mbedtls_open\library/md_wrap.c ****     return( ctx );
  98:Source\mbedtls_open\library/md_wrap.c **** }
  99:Source\mbedtls_open\library/md_wrap.c **** 
 100:Source\mbedtls_open\library/md_wrap.c **** static void md2_ctx_free( void *ctx )
 101:Source\mbedtls_open\library/md_wrap.c **** {
 102:Source\mbedtls_open\library/md_wrap.c ****     mbedtls_md2_free( (mbedtls_md2_context *) ctx );
 103:Source\mbedtls_open\library/md_wrap.c ****     mbedtls_free( ctx );
 104:Source\mbedtls_open\library/md_wrap.c **** }
 105:Source\mbedtls_open\library/md_wrap.c **** 
 106:Source\mbedtls_open\library/md_wrap.c **** static void md2_clone_wrap( void *dst, const void *src )
 107:Source\mbedtls_open\library/md_wrap.c **** {
 108:Source\mbedtls_open\library/md_wrap.c ****     mbedtls_md2_clone( (mbedtls_md2_context *) dst,
 109:Source\mbedtls_open\library/md_wrap.c ****                  (const mbedtls_md2_context *) src );
 110:Source\mbedtls_open\library/md_wrap.c **** }
 111:Source\mbedtls_open\library/md_wrap.c **** 
 112:Source\mbedtls_open\library/md_wrap.c **** static int md2_process_wrap( void *ctx, const unsigned char *data )
 113:Source\mbedtls_open\library/md_wrap.c **** {
 114:Source\mbedtls_open\library/md_wrap.c ****     ((void) data);
 115:Source\mbedtls_open\library/md_wrap.c **** 
 116:Source\mbedtls_open\library/md_wrap.c ****     return( mbedtls_internal_md2_process( (mbedtls_md2_context *) ctx ) );
 117:Source\mbedtls_open\library/md_wrap.c **** }
 118:Source\mbedtls_open\library/md_wrap.c **** 
 119:Source\mbedtls_open\library/md_wrap.c **** const mbedtls_md_info_t mbedtls_md2_info = {
 120:Source\mbedtls_open\library/md_wrap.c ****     MBEDTLS_MD_MD2,
 121:Source\mbedtls_open\library/md_wrap.c ****     "MD2",
 122:Source\mbedtls_open\library/md_wrap.c ****     16,
 123:Source\mbedtls_open\library/md_wrap.c ****     16,
 124:Source\mbedtls_open\library/md_wrap.c ****     md2_starts_wrap,
 125:Source\mbedtls_open\library/md_wrap.c ****     md2_update_wrap,
 126:Source\mbedtls_open\library/md_wrap.c ****     md2_finish_wrap,
 127:Source\mbedtls_open\library/md_wrap.c ****     mbedtls_md2_ret,
 128:Source\mbedtls_open\library/md_wrap.c ****     md2_ctx_alloc,
 129:Source\mbedtls_open\library/md_wrap.c ****     md2_ctx_free,
 130:Source\mbedtls_open\library/md_wrap.c ****     md2_clone_wrap,
 131:Source\mbedtls_open\library/md_wrap.c ****     md2_process_wrap,
 132:Source\mbedtls_open\library/md_wrap.c **** };
 133:Source\mbedtls_open\library/md_wrap.c **** 
 134:Source\mbedtls_open\library/md_wrap.c **** #endif /* MBEDTLS_MD2_C */
 135:Source\mbedtls_open\library/md_wrap.c **** 
 136:Source\mbedtls_open\library/md_wrap.c **** #if defined(MBEDTLS_MD4_C)
 137:Source\mbedtls_open\library/md_wrap.c **** 
 138:Source\mbedtls_open\library/md_wrap.c **** static int md4_starts_wrap( void *ctx )
 139:Source\mbedtls_open\library/md_wrap.c **** {
 140:Source\mbedtls_open\library/md_wrap.c ****     return( mbedtls_md4_starts_ret( (mbedtls_md4_context *) ctx ) );
 141:Source\mbedtls_open\library/md_wrap.c **** }
 142:Source\mbedtls_open\library/md_wrap.c **** 
 143:Source\mbedtls_open\library/md_wrap.c **** static int md4_update_wrap( void *ctx, const unsigned char *input,
 144:Source\mbedtls_open\library/md_wrap.c ****                              size_t ilen )
 145:Source\mbedtls_open\library/md_wrap.c **** {
ARM GAS  C:\Users\Phuong\AppData\Local\Temp\cctHCtS3.s 			page 4


 146:Source\mbedtls_open\library/md_wrap.c ****     return( mbedtls_md4_update_ret( (mbedtls_md4_context *) ctx, input, ilen ) );
 147:Source\mbedtls_open\library/md_wrap.c **** }
 148:Source\mbedtls_open\library/md_wrap.c **** 
 149:Source\mbedtls_open\library/md_wrap.c **** static int md4_finish_wrap( void *ctx, unsigned char *output )
 150:Source\mbedtls_open\library/md_wrap.c **** {
 151:Source\mbedtls_open\library/md_wrap.c ****     return( mbedtls_md4_finish_ret( (mbedtls_md4_context *) ctx, output ) );
 152:Source\mbedtls_open\library/md_wrap.c **** }
 153:Source\mbedtls_open\library/md_wrap.c **** 
 154:Source\mbedtls_open\library/md_wrap.c **** static void *md4_ctx_alloc( void )
 155:Source\mbedtls_open\library/md_wrap.c **** {
 156:Source\mbedtls_open\library/md_wrap.c ****     void *ctx = mbedtls_calloc( 1, sizeof( mbedtls_md4_context ) );
 157:Source\mbedtls_open\library/md_wrap.c **** 
 158:Source\mbedtls_open\library/md_wrap.c ****     if( ctx != NULL )
 159:Source\mbedtls_open\library/md_wrap.c ****         mbedtls_md4_init( (mbedtls_md4_context *) ctx );
 160:Source\mbedtls_open\library/md_wrap.c **** 
 161:Source\mbedtls_open\library/md_wrap.c ****     return( ctx );
 162:Source\mbedtls_open\library/md_wrap.c **** }
 163:Source\mbedtls_open\library/md_wrap.c **** 
 164:Source\mbedtls_open\library/md_wrap.c **** static void md4_ctx_free( void *ctx )
 165:Source\mbedtls_open\library/md_wrap.c **** {
 166:Source\mbedtls_open\library/md_wrap.c ****     mbedtls_md4_free( (mbedtls_md4_context *) ctx );
 167:Source\mbedtls_open\library/md_wrap.c ****     mbedtls_free( ctx );
 168:Source\mbedtls_open\library/md_wrap.c **** }
 169:Source\mbedtls_open\library/md_wrap.c **** 
 170:Source\mbedtls_open\library/md_wrap.c **** static void md4_clone_wrap( void *dst, const void *src )
 171:Source\mbedtls_open\library/md_wrap.c **** {
 172:Source\mbedtls_open\library/md_wrap.c ****     mbedtls_md4_clone( (mbedtls_md4_context *) dst,
 173:Source\mbedtls_open\library/md_wrap.c ****                        (const mbedtls_md4_context *) src );
 174:Source\mbedtls_open\library/md_wrap.c **** }
 175:Source\mbedtls_open\library/md_wrap.c **** 
 176:Source\mbedtls_open\library/md_wrap.c **** static int md4_process_wrap( void *ctx, const unsigned char *data )
 177:Source\mbedtls_open\library/md_wrap.c **** {
 178:Source\mbedtls_open\library/md_wrap.c ****     return( mbedtls_internal_md4_process( (mbedtls_md4_context *) ctx, data ) );
 179:Source\mbedtls_open\library/md_wrap.c **** }
 180:Source\mbedtls_open\library/md_wrap.c **** 
 181:Source\mbedtls_open\library/md_wrap.c **** const mbedtls_md_info_t mbedtls_md4_info = {
 182:Source\mbedtls_open\library/md_wrap.c ****     MBEDTLS_MD_MD4,
 183:Source\mbedtls_open\library/md_wrap.c ****     "MD4",
 184:Source\mbedtls_open\library/md_wrap.c ****     16,
 185:Source\mbedtls_open\library/md_wrap.c ****     64,
 186:Source\mbedtls_open\library/md_wrap.c ****     md4_starts_wrap,
 187:Source\mbedtls_open\library/md_wrap.c ****     md4_update_wrap,
 188:Source\mbedtls_open\library/md_wrap.c ****     md4_finish_wrap,
 189:Source\mbedtls_open\library/md_wrap.c ****     mbedtls_md4_ret,
 190:Source\mbedtls_open\library/md_wrap.c ****     md4_ctx_alloc,
 191:Source\mbedtls_open\library/md_wrap.c ****     md4_ctx_free,
 192:Source\mbedtls_open\library/md_wrap.c ****     md4_clone_wrap,
 193:Source\mbedtls_open\library/md_wrap.c ****     md4_process_wrap,
 194:Source\mbedtls_open\library/md_wrap.c **** };
 195:Source\mbedtls_open\library/md_wrap.c **** 
 196:Source\mbedtls_open\library/md_wrap.c **** #endif /* MBEDTLS_MD4_C */
 197:Source\mbedtls_open\library/md_wrap.c **** 
 198:Source\mbedtls_open\library/md_wrap.c **** #if defined(MBEDTLS_MD5_C)
 199:Source\mbedtls_open\library/md_wrap.c **** 
 200:Source\mbedtls_open\library/md_wrap.c **** static int md5_starts_wrap( void *ctx )
 201:Source\mbedtls_open\library/md_wrap.c **** {
 202:Source\mbedtls_open\library/md_wrap.c ****     return( mbedtls_md5_starts_ret( (mbedtls_md5_context *) ctx ) );
ARM GAS  C:\Users\Phuong\AppData\Local\Temp\cctHCtS3.s 			page 5


 203:Source\mbedtls_open\library/md_wrap.c **** }
 204:Source\mbedtls_open\library/md_wrap.c **** 
 205:Source\mbedtls_open\library/md_wrap.c **** static int md5_update_wrap( void *ctx, const unsigned char *input,
 206:Source\mbedtls_open\library/md_wrap.c ****                              size_t ilen )
 207:Source\mbedtls_open\library/md_wrap.c **** {
 208:Source\mbedtls_open\library/md_wrap.c ****     return( mbedtls_md5_update_ret( (mbedtls_md5_context *) ctx, input, ilen ) );
 209:Source\mbedtls_open\library/md_wrap.c **** }
 210:Source\mbedtls_open\library/md_wrap.c **** 
 211:Source\mbedtls_open\library/md_wrap.c **** static int md5_finish_wrap( void *ctx, unsigned char *output )
 212:Source\mbedtls_open\library/md_wrap.c **** {
 213:Source\mbedtls_open\library/md_wrap.c ****     return( mbedtls_md5_finish_ret( (mbedtls_md5_context *) ctx, output ) );
 214:Source\mbedtls_open\library/md_wrap.c **** }
 215:Source\mbedtls_open\library/md_wrap.c **** 
 216:Source\mbedtls_open\library/md_wrap.c **** static void *md5_ctx_alloc( void )
 217:Source\mbedtls_open\library/md_wrap.c **** {
 218:Source\mbedtls_open\library/md_wrap.c ****     void *ctx = mbedtls_calloc( 1, sizeof( mbedtls_md5_context ) );
 219:Source\mbedtls_open\library/md_wrap.c **** 
 220:Source\mbedtls_open\library/md_wrap.c ****     if( ctx != NULL )
 221:Source\mbedtls_open\library/md_wrap.c ****         mbedtls_md5_init( (mbedtls_md5_context *) ctx );
 222:Source\mbedtls_open\library/md_wrap.c **** 
 223:Source\mbedtls_open\library/md_wrap.c ****     return( ctx );
 224:Source\mbedtls_open\library/md_wrap.c **** }
 225:Source\mbedtls_open\library/md_wrap.c **** 
 226:Source\mbedtls_open\library/md_wrap.c **** static void md5_ctx_free( void *ctx )
 227:Source\mbedtls_open\library/md_wrap.c **** {
 228:Source\mbedtls_open\library/md_wrap.c ****     mbedtls_md5_free( (mbedtls_md5_context *) ctx );
 229:Source\mbedtls_open\library/md_wrap.c ****     mbedtls_free( ctx );
 230:Source\mbedtls_open\library/md_wrap.c **** }
 231:Source\mbedtls_open\library/md_wrap.c **** 
 232:Source\mbedtls_open\library/md_wrap.c **** static void md5_clone_wrap( void *dst, const void *src )
 233:Source\mbedtls_open\library/md_wrap.c **** {
 234:Source\mbedtls_open\library/md_wrap.c ****     mbedtls_md5_clone( (mbedtls_md5_context *) dst,
 235:Source\mbedtls_open\library/md_wrap.c ****                        (const mbedtls_md5_context *) src );
 236:Source\mbedtls_open\library/md_wrap.c **** }
 237:Source\mbedtls_open\library/md_wrap.c **** 
 238:Source\mbedtls_open\library/md_wrap.c **** static int md5_process_wrap( void *ctx, const unsigned char *data )
 239:Source\mbedtls_open\library/md_wrap.c **** {
  27              		.loc 1 239 0
  28              		.cfi_startproc
  29              		@ args = 0, pretend = 0, frame = 0
  30              		@ frame_needed = 0, uses_anonymous_args = 0
  31              	.LVL0:
  32 0000 10B5     		push	{r4, lr}
  33              		.cfi_def_cfa_offset 8
  34              		.cfi_offset 4, -8
  35              		.cfi_offset 14, -4
 240:Source\mbedtls_open\library/md_wrap.c ****     return( mbedtls_internal_md5_process( (mbedtls_md5_context *) ctx, data ) );
  36              		.loc 1 240 0
  37 0002 FFF7FEFF 		bl	mbedtls_internal_md5_process
  38              	.LVL1:
 241:Source\mbedtls_open\library/md_wrap.c **** }
  39              		.loc 1 241 0
  40              		@ sp needed
  41 0006 10BD     		pop	{r4, pc}
  42              		.cfi_endproc
  43              	.LFE7:
  44              		.size	md5_process_wrap, .-md5_process_wrap
ARM GAS  C:\Users\Phuong\AppData\Local\Temp\cctHCtS3.s 			page 6


  45              		.section	.text.md5_clone_wrap,"ax",%progbits
  46              		.align	2
  47              		.code	16
  48              		.thumb_func
  49              		.type	md5_clone_wrap, %function
  50              	md5_clone_wrap:
  51              	.LFB6:
 233:Source\mbedtls_open\library/md_wrap.c ****     mbedtls_md5_clone( (mbedtls_md5_context *) dst,
  52              		.loc 1 233 0
  53              		.cfi_startproc
  54              		@ args = 0, pretend = 0, frame = 0
  55              		@ frame_needed = 0, uses_anonymous_args = 0
  56              	.LVL2:
  57 0000 10B5     		push	{r4, lr}
  58              		.cfi_def_cfa_offset 8
  59              		.cfi_offset 4, -8
  60              		.cfi_offset 14, -4
 234:Source\mbedtls_open\library/md_wrap.c ****                        (const mbedtls_md5_context *) src );
  61              		.loc 1 234 0
  62 0002 FFF7FEFF 		bl	mbedtls_md5_clone
  63              	.LVL3:
 236:Source\mbedtls_open\library/md_wrap.c **** 
  64              		.loc 1 236 0
  65              		@ sp needed
  66 0006 10BD     		pop	{r4, pc}
  67              		.cfi_endproc
  68              	.LFE6:
  69              		.size	md5_clone_wrap, .-md5_clone_wrap
  70              		.section	.text.md5_ctx_free,"ax",%progbits
  71              		.align	2
  72              		.code	16
  73              		.thumb_func
  74              		.type	md5_ctx_free, %function
  75              	md5_ctx_free:
  76              	.LFB5:
 227:Source\mbedtls_open\library/md_wrap.c ****     mbedtls_md5_free( (mbedtls_md5_context *) ctx );
  77              		.loc 1 227 0
  78              		.cfi_startproc
  79              		@ args = 0, pretend = 0, frame = 0
  80              		@ frame_needed = 0, uses_anonymous_args = 0
  81              	.LVL4:
  82 0000 10B5     		push	{r4, lr}
  83              		.cfi_def_cfa_offset 8
  84              		.cfi_offset 4, -8
  85              		.cfi_offset 14, -4
  86 0002 0400     		movs	r4, r0
 228:Source\mbedtls_open\library/md_wrap.c ****     mbedtls_free( ctx );
  87              		.loc 1 228 0
  88 0004 FFF7FEFF 		bl	mbedtls_md5_free
  89              	.LVL5:
 229:Source\mbedtls_open\library/md_wrap.c **** }
  90              		.loc 1 229 0
  91 0008 2000     		movs	r0, r4
  92 000a FFF7FEFF 		bl	free
  93              	.LVL6:
 230:Source\mbedtls_open\library/md_wrap.c **** 
  94              		.loc 1 230 0
ARM GAS  C:\Users\Phuong\AppData\Local\Temp\cctHCtS3.s 			page 7


  95              		@ sp needed
  96              	.LVL7:
  97 000e 10BD     		pop	{r4, pc}
  98              		.cfi_endproc
  99              	.LFE5:
 100              		.size	md5_ctx_free, .-md5_ctx_free
 101              		.section	.text.md5_ctx_alloc,"ax",%progbits
 102              		.align	2
 103              		.code	16
 104              		.thumb_func
 105              		.type	md5_ctx_alloc, %function
 106              	md5_ctx_alloc:
 107              	.LFB4:
 217:Source\mbedtls_open\library/md_wrap.c ****     void *ctx = mbedtls_calloc( 1, sizeof( mbedtls_md5_context ) );
 108              		.loc 1 217 0
 109              		.cfi_startproc
 110              		@ args = 0, pretend = 0, frame = 0
 111              		@ frame_needed = 0, uses_anonymous_args = 0
 112 0000 10B5     		push	{r4, lr}
 113              		.cfi_def_cfa_offset 8
 114              		.cfi_offset 4, -8
 115              		.cfi_offset 14, -4
 218:Source\mbedtls_open\library/md_wrap.c **** 
 116              		.loc 1 218 0
 117 0002 5821     		movs	r1, #88
 118 0004 0120     		movs	r0, #1
 119 0006 FFF7FEFF 		bl	calloc
 120              	.LVL8:
 121 000a 041E     		subs	r4, r0, #0
 122              	.LVL9:
 220:Source\mbedtls_open\library/md_wrap.c ****         mbedtls_md5_init( (mbedtls_md5_context *) ctx );
 123              		.loc 1 220 0
 124 000c 01D0     		beq	.L5
 221:Source\mbedtls_open\library/md_wrap.c **** 
 125              		.loc 1 221 0
 126 000e FFF7FEFF 		bl	mbedtls_md5_init
 127              	.LVL10:
 128              	.L5:
 224:Source\mbedtls_open\library/md_wrap.c **** 
 129              		.loc 1 224 0
 130 0012 2000     		movs	r0, r4
 131              		@ sp needed
 132              	.LVL11:
 133 0014 10BD     		pop	{r4, pc}
 134              		.cfi_endproc
 135              	.LFE4:
 136              		.size	md5_ctx_alloc, .-md5_ctx_alloc
 137 0016 C046     		.section	.text.md5_finish_wrap,"ax",%progbits
 138              		.align	2
 139              		.code	16
 140              		.thumb_func
 141              		.type	md5_finish_wrap, %function
 142              	md5_finish_wrap:
 143              	.LFB3:
 212:Source\mbedtls_open\library/md_wrap.c ****     return( mbedtls_md5_finish_ret( (mbedtls_md5_context *) ctx, output ) );
 144              		.loc 1 212 0
 145              		.cfi_startproc
ARM GAS  C:\Users\Phuong\AppData\Local\Temp\cctHCtS3.s 			page 8


 146              		@ args = 0, pretend = 0, frame = 0
 147              		@ frame_needed = 0, uses_anonymous_args = 0
 148              	.LVL12:
 149 0000 10B5     		push	{r4, lr}
 150              		.cfi_def_cfa_offset 8
 151              		.cfi_offset 4, -8
 152              		.cfi_offset 14, -4
 213:Source\mbedtls_open\library/md_wrap.c **** }
 153              		.loc 1 213 0
 154 0002 FFF7FEFF 		bl	mbedtls_md5_finish_ret
 155              	.LVL13:
 214:Source\mbedtls_open\library/md_wrap.c **** 
 156              		.loc 1 214 0
 157              		@ sp needed
 158 0006 10BD     		pop	{r4, pc}
 159              		.cfi_endproc
 160              	.LFE3:
 161              		.size	md5_finish_wrap, .-md5_finish_wrap
 162              		.section	.text.md5_update_wrap,"ax",%progbits
 163              		.align	2
 164              		.code	16
 165              		.thumb_func
 166              		.type	md5_update_wrap, %function
 167              	md5_update_wrap:
 168              	.LFB2:
 207:Source\mbedtls_open\library/md_wrap.c ****     return( mbedtls_md5_update_ret( (mbedtls_md5_context *) ctx, input, ilen ) );
 169              		.loc 1 207 0
 170              		.cfi_startproc
 171              		@ args = 0, pretend = 0, frame = 0
 172              		@ frame_needed = 0, uses_anonymous_args = 0
 173              	.LVL14:
 174 0000 10B5     		push	{r4, lr}
 175              		.cfi_def_cfa_offset 8
 176              		.cfi_offset 4, -8
 177              		.cfi_offset 14, -4
 208:Source\mbedtls_open\library/md_wrap.c **** }
 178              		.loc 1 208 0
 179 0002 FFF7FEFF 		bl	mbedtls_md5_update_ret
 180              	.LVL15:
 209:Source\mbedtls_open\library/md_wrap.c **** 
 181              		.loc 1 209 0
 182              		@ sp needed
 183 0006 10BD     		pop	{r4, pc}
 184              		.cfi_endproc
 185              	.LFE2:
 186              		.size	md5_update_wrap, .-md5_update_wrap
 187              		.section	.text.md5_starts_wrap,"ax",%progbits
 188              		.align	2
 189              		.code	16
 190              		.thumb_func
 191              		.type	md5_starts_wrap, %function
 192              	md5_starts_wrap:
 193              	.LFB1:
 201:Source\mbedtls_open\library/md_wrap.c ****     return( mbedtls_md5_starts_ret( (mbedtls_md5_context *) ctx ) );
 194              		.loc 1 201 0
 195              		.cfi_startproc
 196              		@ args = 0, pretend = 0, frame = 0
ARM GAS  C:\Users\Phuong\AppData\Local\Temp\cctHCtS3.s 			page 9


 197              		@ frame_needed = 0, uses_anonymous_args = 0
 198              	.LVL16:
 199 0000 10B5     		push	{r4, lr}
 200              		.cfi_def_cfa_offset 8
 201              		.cfi_offset 4, -8
 202              		.cfi_offset 14, -4
 202:Source\mbedtls_open\library/md_wrap.c **** }
 203              		.loc 1 202 0
 204 0002 FFF7FEFF 		bl	mbedtls_md5_starts_ret
 205              	.LVL17:
 203:Source\mbedtls_open\library/md_wrap.c **** 
 206              		.loc 1 203 0
 207              		@ sp needed
 208 0006 10BD     		pop	{r4, pc}
 209              		.cfi_endproc
 210              	.LFE1:
 211              		.size	md5_starts_wrap, .-md5_starts_wrap
 212              		.section	.text.ripemd160_process_wrap,"ax",%progbits
 213              		.align	2
 214              		.code	16
 215              		.thumb_func
 216              		.type	ripemd160_process_wrap, %function
 217              	ripemd160_process_wrap:
 218              	.LFB14:
 242:Source\mbedtls_open\library/md_wrap.c **** 
 243:Source\mbedtls_open\library/md_wrap.c **** const mbedtls_md_info_t mbedtls_md5_info = {
 244:Source\mbedtls_open\library/md_wrap.c ****     MBEDTLS_MD_MD5,
 245:Source\mbedtls_open\library/md_wrap.c ****     "MD5",
 246:Source\mbedtls_open\library/md_wrap.c ****     16,
 247:Source\mbedtls_open\library/md_wrap.c ****     64,
 248:Source\mbedtls_open\library/md_wrap.c ****     md5_starts_wrap,
 249:Source\mbedtls_open\library/md_wrap.c ****     md5_update_wrap,
 250:Source\mbedtls_open\library/md_wrap.c ****     md5_finish_wrap,
 251:Source\mbedtls_open\library/md_wrap.c ****     mbedtls_md5_ret,
 252:Source\mbedtls_open\library/md_wrap.c ****     md5_ctx_alloc,
 253:Source\mbedtls_open\library/md_wrap.c ****     md5_ctx_free,
 254:Source\mbedtls_open\library/md_wrap.c ****     md5_clone_wrap,
 255:Source\mbedtls_open\library/md_wrap.c ****     md5_process_wrap,
 256:Source\mbedtls_open\library/md_wrap.c **** };
 257:Source\mbedtls_open\library/md_wrap.c **** 
 258:Source\mbedtls_open\library/md_wrap.c **** #endif /* MBEDTLS_MD5_C */
 259:Source\mbedtls_open\library/md_wrap.c **** 
 260:Source\mbedtls_open\library/md_wrap.c **** #if defined(MBEDTLS_RIPEMD160_C)
 261:Source\mbedtls_open\library/md_wrap.c **** 
 262:Source\mbedtls_open\library/md_wrap.c **** static int ripemd160_starts_wrap( void *ctx )
 263:Source\mbedtls_open\library/md_wrap.c **** {
 264:Source\mbedtls_open\library/md_wrap.c ****     return( mbedtls_ripemd160_starts_ret( (mbedtls_ripemd160_context *) ctx ) );
 265:Source\mbedtls_open\library/md_wrap.c **** }
 266:Source\mbedtls_open\library/md_wrap.c **** 
 267:Source\mbedtls_open\library/md_wrap.c **** static int ripemd160_update_wrap( void *ctx, const unsigned char *input,
 268:Source\mbedtls_open\library/md_wrap.c ****                                    size_t ilen )
 269:Source\mbedtls_open\library/md_wrap.c **** {
 270:Source\mbedtls_open\library/md_wrap.c ****     return( mbedtls_ripemd160_update_ret( (mbedtls_ripemd160_context *) ctx,
 271:Source\mbedtls_open\library/md_wrap.c ****                                           input, ilen ) );
 272:Source\mbedtls_open\library/md_wrap.c **** }
 273:Source\mbedtls_open\library/md_wrap.c **** 
 274:Source\mbedtls_open\library/md_wrap.c **** static int ripemd160_finish_wrap( void *ctx, unsigned char *output )
ARM GAS  C:\Users\Phuong\AppData\Local\Temp\cctHCtS3.s 			page 10


 275:Source\mbedtls_open\library/md_wrap.c **** {
 276:Source\mbedtls_open\library/md_wrap.c ****     return( mbedtls_ripemd160_finish_ret( (mbedtls_ripemd160_context *) ctx,
 277:Source\mbedtls_open\library/md_wrap.c ****                                           output ) );
 278:Source\mbedtls_open\library/md_wrap.c **** }
 279:Source\mbedtls_open\library/md_wrap.c **** 
 280:Source\mbedtls_open\library/md_wrap.c **** static void *ripemd160_ctx_alloc( void )
 281:Source\mbedtls_open\library/md_wrap.c **** {
 282:Source\mbedtls_open\library/md_wrap.c ****     void *ctx = mbedtls_calloc( 1, sizeof( mbedtls_ripemd160_context ) );
 283:Source\mbedtls_open\library/md_wrap.c **** 
 284:Source\mbedtls_open\library/md_wrap.c ****     if( ctx != NULL )
 285:Source\mbedtls_open\library/md_wrap.c ****         mbedtls_ripemd160_init( (mbedtls_ripemd160_context *) ctx );
 286:Source\mbedtls_open\library/md_wrap.c **** 
 287:Source\mbedtls_open\library/md_wrap.c ****     return( ctx );
 288:Source\mbedtls_open\library/md_wrap.c **** }
 289:Source\mbedtls_open\library/md_wrap.c **** 
 290:Source\mbedtls_open\library/md_wrap.c **** static void ripemd160_ctx_free( void *ctx )
 291:Source\mbedtls_open\library/md_wrap.c **** {
 292:Source\mbedtls_open\library/md_wrap.c ****     mbedtls_ripemd160_free( (mbedtls_ripemd160_context *) ctx );
 293:Source\mbedtls_open\library/md_wrap.c ****     mbedtls_free( ctx );
 294:Source\mbedtls_open\library/md_wrap.c **** }
 295:Source\mbedtls_open\library/md_wrap.c **** 
 296:Source\mbedtls_open\library/md_wrap.c **** static void ripemd160_clone_wrap( void *dst, const void *src )
 297:Source\mbedtls_open\library/md_wrap.c **** {
 298:Source\mbedtls_open\library/md_wrap.c ****     mbedtls_ripemd160_clone( (mbedtls_ripemd160_context *) dst,
 299:Source\mbedtls_open\library/md_wrap.c ****                        (const mbedtls_ripemd160_context *) src );
 300:Source\mbedtls_open\library/md_wrap.c **** }
 301:Source\mbedtls_open\library/md_wrap.c **** 
 302:Source\mbedtls_open\library/md_wrap.c **** static int ripemd160_process_wrap( void *ctx, const unsigned char *data )
 303:Source\mbedtls_open\library/md_wrap.c **** {
 219              		.loc 1 303 0
 220              		.cfi_startproc
 221              		@ args = 0, pretend = 0, frame = 0
 222              		@ frame_needed = 0, uses_anonymous_args = 0
 223              	.LVL18:
 224 0000 10B5     		push	{r4, lr}
 225              		.cfi_def_cfa_offset 8
 226              		.cfi_offset 4, -8
 227              		.cfi_offset 14, -4
 304:Source\mbedtls_open\library/md_wrap.c ****     return( mbedtls_internal_ripemd160_process(
 228              		.loc 1 304 0
 229 0002 FFF7FEFF 		bl	mbedtls_internal_ripemd160_process
 230              	.LVL19:
 305:Source\mbedtls_open\library/md_wrap.c ****                                 (mbedtls_ripemd160_context *) ctx, data ) );
 306:Source\mbedtls_open\library/md_wrap.c **** }
 231              		.loc 1 306 0
 232              		@ sp needed
 233 0006 10BD     		pop	{r4, pc}
 234              		.cfi_endproc
 235              	.LFE14:
 236              		.size	ripemd160_process_wrap, .-ripemd160_process_wrap
 237              		.section	.text.ripemd160_clone_wrap,"ax",%progbits
 238              		.align	2
 239              		.code	16
 240              		.thumb_func
 241              		.type	ripemd160_clone_wrap, %function
 242              	ripemd160_clone_wrap:
 243              	.LFB13:
ARM GAS  C:\Users\Phuong\AppData\Local\Temp\cctHCtS3.s 			page 11


 297:Source\mbedtls_open\library/md_wrap.c ****     mbedtls_ripemd160_clone( (mbedtls_ripemd160_context *) dst,
 244              		.loc 1 297 0
 245              		.cfi_startproc
 246              		@ args = 0, pretend = 0, frame = 0
 247              		@ frame_needed = 0, uses_anonymous_args = 0
 248              	.LVL20:
 249 0000 10B5     		push	{r4, lr}
 250              		.cfi_def_cfa_offset 8
 251              		.cfi_offset 4, -8
 252              		.cfi_offset 14, -4
 298:Source\mbedtls_open\library/md_wrap.c ****                        (const mbedtls_ripemd160_context *) src );
 253              		.loc 1 298 0
 254 0002 FFF7FEFF 		bl	mbedtls_ripemd160_clone
 255              	.LVL21:
 300:Source\mbedtls_open\library/md_wrap.c **** 
 256              		.loc 1 300 0
 257              		@ sp needed
 258 0006 10BD     		pop	{r4, pc}
 259              		.cfi_endproc
 260              	.LFE13:
 261              		.size	ripemd160_clone_wrap, .-ripemd160_clone_wrap
 262              		.section	.text.ripemd160_ctx_free,"ax",%progbits
 263              		.align	2
 264              		.code	16
 265              		.thumb_func
 266              		.type	ripemd160_ctx_free, %function
 267              	ripemd160_ctx_free:
 268              	.LFB12:
 291:Source\mbedtls_open\library/md_wrap.c ****     mbedtls_ripemd160_free( (mbedtls_ripemd160_context *) ctx );
 269              		.loc 1 291 0
 270              		.cfi_startproc
 271              		@ args = 0, pretend = 0, frame = 0
 272              		@ frame_needed = 0, uses_anonymous_args = 0
 273              	.LVL22:
 274 0000 10B5     		push	{r4, lr}
 275              		.cfi_def_cfa_offset 8
 276              		.cfi_offset 4, -8
 277              		.cfi_offset 14, -4
 278 0002 0400     		movs	r4, r0
 292:Source\mbedtls_open\library/md_wrap.c ****     mbedtls_free( ctx );
 279              		.loc 1 292 0
 280 0004 FFF7FEFF 		bl	mbedtls_ripemd160_free
 281              	.LVL23:
 293:Source\mbedtls_open\library/md_wrap.c **** }
 282              		.loc 1 293 0
 283 0008 2000     		movs	r0, r4
 284 000a FFF7FEFF 		bl	free
 285              	.LVL24:
 294:Source\mbedtls_open\library/md_wrap.c **** 
 286              		.loc 1 294 0
 287              		@ sp needed
 288              	.LVL25:
 289 000e 10BD     		pop	{r4, pc}
 290              		.cfi_endproc
 291              	.LFE12:
 292              		.size	ripemd160_ctx_free, .-ripemd160_ctx_free
 293              		.section	.text.ripemd160_ctx_alloc,"ax",%progbits
ARM GAS  C:\Users\Phuong\AppData\Local\Temp\cctHCtS3.s 			page 12


 294              		.align	2
 295              		.code	16
 296              		.thumb_func
 297              		.type	ripemd160_ctx_alloc, %function
 298              	ripemd160_ctx_alloc:
 299              	.LFB11:
 281:Source\mbedtls_open\library/md_wrap.c ****     void *ctx = mbedtls_calloc( 1, sizeof( mbedtls_ripemd160_context ) );
 300              		.loc 1 281 0
 301              		.cfi_startproc
 302              		@ args = 0, pretend = 0, frame = 0
 303              		@ frame_needed = 0, uses_anonymous_args = 0
 304 0000 10B5     		push	{r4, lr}
 305              		.cfi_def_cfa_offset 8
 306              		.cfi_offset 4, -8
 307              		.cfi_offset 14, -4
 282:Source\mbedtls_open\library/md_wrap.c **** 
 308              		.loc 1 282 0
 309 0002 5C21     		movs	r1, #92
 310 0004 0120     		movs	r0, #1
 311 0006 FFF7FEFF 		bl	calloc
 312              	.LVL26:
 313 000a 041E     		subs	r4, r0, #0
 314              	.LVL27:
 284:Source\mbedtls_open\library/md_wrap.c ****         mbedtls_ripemd160_init( (mbedtls_ripemd160_context *) ctx );
 315              		.loc 1 284 0
 316 000c 01D0     		beq	.L13
 285:Source\mbedtls_open\library/md_wrap.c **** 
 317              		.loc 1 285 0
 318 000e FFF7FEFF 		bl	mbedtls_ripemd160_init
 319              	.LVL28:
 320              	.L13:
 288:Source\mbedtls_open\library/md_wrap.c **** 
 321              		.loc 1 288 0
 322 0012 2000     		movs	r0, r4
 323              		@ sp needed
 324              	.LVL29:
 325 0014 10BD     		pop	{r4, pc}
 326              		.cfi_endproc
 327              	.LFE11:
 328              		.size	ripemd160_ctx_alloc, .-ripemd160_ctx_alloc
 329 0016 C046     		.section	.text.ripemd160_finish_wrap,"ax",%progbits
 330              		.align	2
 331              		.code	16
 332              		.thumb_func
 333              		.type	ripemd160_finish_wrap, %function
 334              	ripemd160_finish_wrap:
 335              	.LFB10:
 275:Source\mbedtls_open\library/md_wrap.c ****     return( mbedtls_ripemd160_finish_ret( (mbedtls_ripemd160_context *) ctx,
 336              		.loc 1 275 0
 337              		.cfi_startproc
 338              		@ args = 0, pretend = 0, frame = 0
 339              		@ frame_needed = 0, uses_anonymous_args = 0
 340              	.LVL30:
 341 0000 10B5     		push	{r4, lr}
 342              		.cfi_def_cfa_offset 8
 343              		.cfi_offset 4, -8
 344              		.cfi_offset 14, -4
ARM GAS  C:\Users\Phuong\AppData\Local\Temp\cctHCtS3.s 			page 13


 276:Source\mbedtls_open\library/md_wrap.c ****                                           output ) );
 345              		.loc 1 276 0
 346 0002 FFF7FEFF 		bl	mbedtls_ripemd160_finish_ret
 347              	.LVL31:
 278:Source\mbedtls_open\library/md_wrap.c **** 
 348              		.loc 1 278 0
 349              		@ sp needed
 350 0006 10BD     		pop	{r4, pc}
 351              		.cfi_endproc
 352              	.LFE10:
 353              		.size	ripemd160_finish_wrap, .-ripemd160_finish_wrap
 354              		.section	.text.ripemd160_update_wrap,"ax",%progbits
 355              		.align	2
 356              		.code	16
 357              		.thumb_func
 358              		.type	ripemd160_update_wrap, %function
 359              	ripemd160_update_wrap:
 360              	.LFB9:
 269:Source\mbedtls_open\library/md_wrap.c ****     return( mbedtls_ripemd160_update_ret( (mbedtls_ripemd160_context *) ctx,
 361              		.loc 1 269 0
 362              		.cfi_startproc
 363              		@ args = 0, pretend = 0, frame = 0
 364              		@ frame_needed = 0, uses_anonymous_args = 0
 365              	.LVL32:
 366 0000 10B5     		push	{r4, lr}
 367              		.cfi_def_cfa_offset 8
 368              		.cfi_offset 4, -8
 369              		.cfi_offset 14, -4
 270:Source\mbedtls_open\library/md_wrap.c ****                                           input, ilen ) );
 370              		.loc 1 270 0
 371 0002 FFF7FEFF 		bl	mbedtls_ripemd160_update_ret
 372              	.LVL33:
 272:Source\mbedtls_open\library/md_wrap.c **** 
 373              		.loc 1 272 0
 374              		@ sp needed
 375 0006 10BD     		pop	{r4, pc}
 376              		.cfi_endproc
 377              	.LFE9:
 378              		.size	ripemd160_update_wrap, .-ripemd160_update_wrap
 379              		.section	.text.ripemd160_starts_wrap,"ax",%progbits
 380              		.align	2
 381              		.code	16
 382              		.thumb_func
 383              		.type	ripemd160_starts_wrap, %function
 384              	ripemd160_starts_wrap:
 385              	.LFB8:
 263:Source\mbedtls_open\library/md_wrap.c ****     return( mbedtls_ripemd160_starts_ret( (mbedtls_ripemd160_context *) ctx ) );
 386              		.loc 1 263 0
 387              		.cfi_startproc
 388              		@ args = 0, pretend = 0, frame = 0
 389              		@ frame_needed = 0, uses_anonymous_args = 0
 390              	.LVL34:
 391 0000 10B5     		push	{r4, lr}
 392              		.cfi_def_cfa_offset 8
 393              		.cfi_offset 4, -8
 394              		.cfi_offset 14, -4
 264:Source\mbedtls_open\library/md_wrap.c **** }
ARM GAS  C:\Users\Phuong\AppData\Local\Temp\cctHCtS3.s 			page 14


 395              		.loc 1 264 0
 396 0002 FFF7FEFF 		bl	mbedtls_ripemd160_starts_ret
 397              	.LVL35:
 265:Source\mbedtls_open\library/md_wrap.c **** 
 398              		.loc 1 265 0
 399              		@ sp needed
 400 0006 10BD     		pop	{r4, pc}
 401              		.cfi_endproc
 402              	.LFE8:
 403              		.size	ripemd160_starts_wrap, .-ripemd160_starts_wrap
 404              		.section	.text.sha1_process_wrap,"ax",%progbits
 405              		.align	2
 406              		.code	16
 407              		.thumb_func
 408              		.type	sha1_process_wrap, %function
 409              	sha1_process_wrap:
 410              	.LFB21:
 307:Source\mbedtls_open\library/md_wrap.c **** 
 308:Source\mbedtls_open\library/md_wrap.c **** const mbedtls_md_info_t mbedtls_ripemd160_info = {
 309:Source\mbedtls_open\library/md_wrap.c ****     MBEDTLS_MD_RIPEMD160,
 310:Source\mbedtls_open\library/md_wrap.c ****     "RIPEMD160",
 311:Source\mbedtls_open\library/md_wrap.c ****     20,
 312:Source\mbedtls_open\library/md_wrap.c ****     64,
 313:Source\mbedtls_open\library/md_wrap.c ****     ripemd160_starts_wrap,
 314:Source\mbedtls_open\library/md_wrap.c ****     ripemd160_update_wrap,
 315:Source\mbedtls_open\library/md_wrap.c ****     ripemd160_finish_wrap,
 316:Source\mbedtls_open\library/md_wrap.c ****     mbedtls_ripemd160_ret,
 317:Source\mbedtls_open\library/md_wrap.c ****     ripemd160_ctx_alloc,
 318:Source\mbedtls_open\library/md_wrap.c ****     ripemd160_ctx_free,
 319:Source\mbedtls_open\library/md_wrap.c ****     ripemd160_clone_wrap,
 320:Source\mbedtls_open\library/md_wrap.c ****     ripemd160_process_wrap,
 321:Source\mbedtls_open\library/md_wrap.c **** };
 322:Source\mbedtls_open\library/md_wrap.c **** 
 323:Source\mbedtls_open\library/md_wrap.c **** #endif /* MBEDTLS_RIPEMD160_C */
 324:Source\mbedtls_open\library/md_wrap.c **** 
 325:Source\mbedtls_open\library/md_wrap.c **** #if defined(MBEDTLS_SHA1_C)
 326:Source\mbedtls_open\library/md_wrap.c **** 
 327:Source\mbedtls_open\library/md_wrap.c **** static int sha1_starts_wrap( void *ctx )
 328:Source\mbedtls_open\library/md_wrap.c **** {
 329:Source\mbedtls_open\library/md_wrap.c ****     return( mbedtls_sha1_starts_ret( (mbedtls_sha1_context *) ctx ) );
 330:Source\mbedtls_open\library/md_wrap.c **** }
 331:Source\mbedtls_open\library/md_wrap.c **** 
 332:Source\mbedtls_open\library/md_wrap.c **** static int sha1_update_wrap( void *ctx, const unsigned char *input,
 333:Source\mbedtls_open\library/md_wrap.c ****                               size_t ilen )
 334:Source\mbedtls_open\library/md_wrap.c **** {
 335:Source\mbedtls_open\library/md_wrap.c ****     return( mbedtls_sha1_update_ret( (mbedtls_sha1_context *) ctx,
 336:Source\mbedtls_open\library/md_wrap.c ****                                      input, ilen ) );
 337:Source\mbedtls_open\library/md_wrap.c **** }
 338:Source\mbedtls_open\library/md_wrap.c **** 
 339:Source\mbedtls_open\library/md_wrap.c **** static int sha1_finish_wrap( void *ctx, unsigned char *output )
 340:Source\mbedtls_open\library/md_wrap.c **** {
 341:Source\mbedtls_open\library/md_wrap.c ****     return( mbedtls_sha1_finish_ret( (mbedtls_sha1_context *) ctx, output ) );
 342:Source\mbedtls_open\library/md_wrap.c **** }
 343:Source\mbedtls_open\library/md_wrap.c **** 
 344:Source\mbedtls_open\library/md_wrap.c **** static void *sha1_ctx_alloc( void )
 345:Source\mbedtls_open\library/md_wrap.c **** {
 346:Source\mbedtls_open\library/md_wrap.c ****     void *ctx = mbedtls_calloc( 1, sizeof( mbedtls_sha1_context ) );
ARM GAS  C:\Users\Phuong\AppData\Local\Temp\cctHCtS3.s 			page 15


 347:Source\mbedtls_open\library/md_wrap.c **** 
 348:Source\mbedtls_open\library/md_wrap.c ****     if( ctx != NULL )
 349:Source\mbedtls_open\library/md_wrap.c ****         mbedtls_sha1_init( (mbedtls_sha1_context *) ctx );
 350:Source\mbedtls_open\library/md_wrap.c **** 
 351:Source\mbedtls_open\library/md_wrap.c ****     return( ctx );
 352:Source\mbedtls_open\library/md_wrap.c **** }
 353:Source\mbedtls_open\library/md_wrap.c **** 
 354:Source\mbedtls_open\library/md_wrap.c **** static void sha1_clone_wrap( void *dst, const void *src )
 355:Source\mbedtls_open\library/md_wrap.c **** {
 356:Source\mbedtls_open\library/md_wrap.c ****     mbedtls_sha1_clone( (mbedtls_sha1_context *) dst,
 357:Source\mbedtls_open\library/md_wrap.c ****                   (const mbedtls_sha1_context *) src );
 358:Source\mbedtls_open\library/md_wrap.c **** }
 359:Source\mbedtls_open\library/md_wrap.c **** 
 360:Source\mbedtls_open\library/md_wrap.c **** static void sha1_ctx_free( void *ctx )
 361:Source\mbedtls_open\library/md_wrap.c **** {
 362:Source\mbedtls_open\library/md_wrap.c ****     mbedtls_sha1_free( (mbedtls_sha1_context *) ctx );
 363:Source\mbedtls_open\library/md_wrap.c ****     mbedtls_free( ctx );
 364:Source\mbedtls_open\library/md_wrap.c **** }
 365:Source\mbedtls_open\library/md_wrap.c **** 
 366:Source\mbedtls_open\library/md_wrap.c **** static int sha1_process_wrap( void *ctx, const unsigned char *data )
 367:Source\mbedtls_open\library/md_wrap.c **** {
 411              		.loc 1 367 0
 412              		.cfi_startproc
 413              		@ args = 0, pretend = 0, frame = 0
 414              		@ frame_needed = 0, uses_anonymous_args = 0
 415              	.LVL36:
 416 0000 10B5     		push	{r4, lr}
 417              		.cfi_def_cfa_offset 8
 418              		.cfi_offset 4, -8
 419              		.cfi_offset 14, -4
 368:Source\mbedtls_open\library/md_wrap.c ****     return( mbedtls_internal_sha1_process( (mbedtls_sha1_context *) ctx,
 420              		.loc 1 368 0
 421 0002 FFF7FEFF 		bl	mbedtls_internal_sha1_process
 422              	.LVL37:
 369:Source\mbedtls_open\library/md_wrap.c ****                                            data ) );
 370:Source\mbedtls_open\library/md_wrap.c **** }
 423              		.loc 1 370 0
 424              		@ sp needed
 425 0006 10BD     		pop	{r4, pc}
 426              		.cfi_endproc
 427              	.LFE21:
 428              		.size	sha1_process_wrap, .-sha1_process_wrap
 429              		.section	.text.sha1_clone_wrap,"ax",%progbits
 430              		.align	2
 431              		.code	16
 432              		.thumb_func
 433              		.type	sha1_clone_wrap, %function
 434              	sha1_clone_wrap:
 435              	.LFB19:
 355:Source\mbedtls_open\library/md_wrap.c ****     mbedtls_sha1_clone( (mbedtls_sha1_context *) dst,
 436              		.loc 1 355 0
 437              		.cfi_startproc
 438              		@ args = 0, pretend = 0, frame = 0
 439              		@ frame_needed = 0, uses_anonymous_args = 0
 440              	.LVL38:
 441 0000 10B5     		push	{r4, lr}
 442              		.cfi_def_cfa_offset 8
ARM GAS  C:\Users\Phuong\AppData\Local\Temp\cctHCtS3.s 			page 16


 443              		.cfi_offset 4, -8
 444              		.cfi_offset 14, -4
 356:Source\mbedtls_open\library/md_wrap.c ****                   (const mbedtls_sha1_context *) src );
 445              		.loc 1 356 0
 446 0002 FFF7FEFF 		bl	mbedtls_sha1_clone
 447              	.LVL39:
 358:Source\mbedtls_open\library/md_wrap.c **** 
 448              		.loc 1 358 0
 449              		@ sp needed
 450 0006 10BD     		pop	{r4, pc}
 451              		.cfi_endproc
 452              	.LFE19:
 453              		.size	sha1_clone_wrap, .-sha1_clone_wrap
 454              		.section	.text.sha1_ctx_free,"ax",%progbits
 455              		.align	2
 456              		.code	16
 457              		.thumb_func
 458              		.type	sha1_ctx_free, %function
 459              	sha1_ctx_free:
 460              	.LFB20:
 361:Source\mbedtls_open\library/md_wrap.c ****     mbedtls_sha1_free( (mbedtls_sha1_context *) ctx );
 461              		.loc 1 361 0
 462              		.cfi_startproc
 463              		@ args = 0, pretend = 0, frame = 0
 464              		@ frame_needed = 0, uses_anonymous_args = 0
 465              	.LVL40:
 466 0000 10B5     		push	{r4, lr}
 467              		.cfi_def_cfa_offset 8
 468              		.cfi_offset 4, -8
 469              		.cfi_offset 14, -4
 470 0002 0400     		movs	r4, r0
 362:Source\mbedtls_open\library/md_wrap.c ****     mbedtls_free( ctx );
 471              		.loc 1 362 0
 472 0004 FFF7FEFF 		bl	mbedtls_sha1_free
 473              	.LVL41:
 363:Source\mbedtls_open\library/md_wrap.c **** }
 474              		.loc 1 363 0
 475 0008 2000     		movs	r0, r4
 476 000a FFF7FEFF 		bl	free
 477              	.LVL42:
 364:Source\mbedtls_open\library/md_wrap.c **** 
 478              		.loc 1 364 0
 479              		@ sp needed
 480              	.LVL43:
 481 000e 10BD     		pop	{r4, pc}
 482              		.cfi_endproc
 483              	.LFE20:
 484              		.size	sha1_ctx_free, .-sha1_ctx_free
 485              		.section	.text.sha1_ctx_alloc,"ax",%progbits
 486              		.align	2
 487              		.code	16
 488              		.thumb_func
 489              		.type	sha1_ctx_alloc, %function
 490              	sha1_ctx_alloc:
 491              	.LFB18:
 345:Source\mbedtls_open\library/md_wrap.c ****     void *ctx = mbedtls_calloc( 1, sizeof( mbedtls_sha1_context ) );
 492              		.loc 1 345 0
ARM GAS  C:\Users\Phuong\AppData\Local\Temp\cctHCtS3.s 			page 17


 493              		.cfi_startproc
 494              		@ args = 0, pretend = 0, frame = 0
 495              		@ frame_needed = 0, uses_anonymous_args = 0
 496 0000 10B5     		push	{r4, lr}
 497              		.cfi_def_cfa_offset 8
 498              		.cfi_offset 4, -8
 499              		.cfi_offset 14, -4
 346:Source\mbedtls_open\library/md_wrap.c **** 
 500              		.loc 1 346 0
 501 0002 5C21     		movs	r1, #92
 502 0004 0120     		movs	r0, #1
 503 0006 FFF7FEFF 		bl	calloc
 504              	.LVL44:
 505 000a 041E     		subs	r4, r0, #0
 506              	.LVL45:
 348:Source\mbedtls_open\library/md_wrap.c ****         mbedtls_sha1_init( (mbedtls_sha1_context *) ctx );
 507              		.loc 1 348 0
 508 000c 01D0     		beq	.L21
 349:Source\mbedtls_open\library/md_wrap.c **** 
 509              		.loc 1 349 0
 510 000e FFF7FEFF 		bl	mbedtls_sha1_init
 511              	.LVL46:
 512              	.L21:
 352:Source\mbedtls_open\library/md_wrap.c **** 
 513              		.loc 1 352 0
 514 0012 2000     		movs	r0, r4
 515              		@ sp needed
 516              	.LVL47:
 517 0014 10BD     		pop	{r4, pc}
 518              		.cfi_endproc
 519              	.LFE18:
 520              		.size	sha1_ctx_alloc, .-sha1_ctx_alloc
 521 0016 C046     		.section	.text.sha1_finish_wrap,"ax",%progbits
 522              		.align	2
 523              		.code	16
 524              		.thumb_func
 525              		.type	sha1_finish_wrap, %function
 526              	sha1_finish_wrap:
 527              	.LFB17:
 340:Source\mbedtls_open\library/md_wrap.c ****     return( mbedtls_sha1_finish_ret( (mbedtls_sha1_context *) ctx, output ) );
 528              		.loc 1 340 0
 529              		.cfi_startproc
 530              		@ args = 0, pretend = 0, frame = 0
 531              		@ frame_needed = 0, uses_anonymous_args = 0
 532              	.LVL48:
 533 0000 10B5     		push	{r4, lr}
 534              		.cfi_def_cfa_offset 8
 535              		.cfi_offset 4, -8
 536              		.cfi_offset 14, -4
 341:Source\mbedtls_open\library/md_wrap.c **** }
 537              		.loc 1 341 0
 538 0002 FFF7FEFF 		bl	mbedtls_sha1_finish_ret
 539              	.LVL49:
 342:Source\mbedtls_open\library/md_wrap.c **** 
 540              		.loc 1 342 0
 541              		@ sp needed
 542 0006 10BD     		pop	{r4, pc}
ARM GAS  C:\Users\Phuong\AppData\Local\Temp\cctHCtS3.s 			page 18


 543              		.cfi_endproc
 544              	.LFE17:
 545              		.size	sha1_finish_wrap, .-sha1_finish_wrap
 546              		.section	.text.sha1_update_wrap,"ax",%progbits
 547              		.align	2
 548              		.code	16
 549              		.thumb_func
 550              		.type	sha1_update_wrap, %function
 551              	sha1_update_wrap:
 552              	.LFB16:
 334:Source\mbedtls_open\library/md_wrap.c ****     return( mbedtls_sha1_update_ret( (mbedtls_sha1_context *) ctx,
 553              		.loc 1 334 0
 554              		.cfi_startproc
 555              		@ args = 0, pretend = 0, frame = 0
 556              		@ frame_needed = 0, uses_anonymous_args = 0
 557              	.LVL50:
 558 0000 10B5     		push	{r4, lr}
 559              		.cfi_def_cfa_offset 8
 560              		.cfi_offset 4, -8
 561              		.cfi_offset 14, -4
 335:Source\mbedtls_open\library/md_wrap.c ****                                      input, ilen ) );
 562              		.loc 1 335 0
 563 0002 FFF7FEFF 		bl	mbedtls_sha1_update_ret
 564              	.LVL51:
 337:Source\mbedtls_open\library/md_wrap.c **** 
 565              		.loc 1 337 0
 566              		@ sp needed
 567 0006 10BD     		pop	{r4, pc}
 568              		.cfi_endproc
 569              	.LFE16:
 570              		.size	sha1_update_wrap, .-sha1_update_wrap
 571              		.section	.text.sha1_starts_wrap,"ax",%progbits
 572              		.align	2
 573              		.code	16
 574              		.thumb_func
 575              		.type	sha1_starts_wrap, %function
 576              	sha1_starts_wrap:
 577              	.LFB15:
 328:Source\mbedtls_open\library/md_wrap.c ****     return( mbedtls_sha1_starts_ret( (mbedtls_sha1_context *) ctx ) );
 578              		.loc 1 328 0
 579              		.cfi_startproc
 580              		@ args = 0, pretend = 0, frame = 0
 581              		@ frame_needed = 0, uses_anonymous_args = 0
 582              	.LVL52:
 583 0000 10B5     		push	{r4, lr}
 584              		.cfi_def_cfa_offset 8
 585              		.cfi_offset 4, -8
 586              		.cfi_offset 14, -4
 329:Source\mbedtls_open\library/md_wrap.c **** }
 587              		.loc 1 329 0
 588 0002 FFF7FEFF 		bl	mbedtls_sha1_starts_ret
 589              	.LVL53:
 330:Source\mbedtls_open\library/md_wrap.c **** 
 590              		.loc 1 330 0
 591              		@ sp needed
 592 0006 10BD     		pop	{r4, pc}
 593              		.cfi_endproc
ARM GAS  C:\Users\Phuong\AppData\Local\Temp\cctHCtS3.s 			page 19


 594              	.LFE15:
 595              		.size	sha1_starts_wrap, .-sha1_starts_wrap
 596              		.section	.text.sha224_process_wrap,"ax",%progbits
 597              		.align	2
 598              		.code	16
 599              		.thumb_func
 600              		.type	sha224_process_wrap, %function
 601              	sha224_process_wrap:
 602              	.LFB29:
 371:Source\mbedtls_open\library/md_wrap.c **** 
 372:Source\mbedtls_open\library/md_wrap.c **** const mbedtls_md_info_t mbedtls_sha1_info = {
 373:Source\mbedtls_open\library/md_wrap.c ****     MBEDTLS_MD_SHA1,
 374:Source\mbedtls_open\library/md_wrap.c ****     "SHA1",
 375:Source\mbedtls_open\library/md_wrap.c ****     20,
 376:Source\mbedtls_open\library/md_wrap.c ****     64,
 377:Source\mbedtls_open\library/md_wrap.c ****     sha1_starts_wrap,
 378:Source\mbedtls_open\library/md_wrap.c ****     sha1_update_wrap,
 379:Source\mbedtls_open\library/md_wrap.c ****     sha1_finish_wrap,
 380:Source\mbedtls_open\library/md_wrap.c ****     mbedtls_sha1_ret,
 381:Source\mbedtls_open\library/md_wrap.c ****     sha1_ctx_alloc,
 382:Source\mbedtls_open\library/md_wrap.c ****     sha1_ctx_free,
 383:Source\mbedtls_open\library/md_wrap.c ****     sha1_clone_wrap,
 384:Source\mbedtls_open\library/md_wrap.c ****     sha1_process_wrap,
 385:Source\mbedtls_open\library/md_wrap.c **** };
 386:Source\mbedtls_open\library/md_wrap.c **** 
 387:Source\mbedtls_open\library/md_wrap.c **** #endif /* MBEDTLS_SHA1_C */
 388:Source\mbedtls_open\library/md_wrap.c **** 
 389:Source\mbedtls_open\library/md_wrap.c **** /*
 390:Source\mbedtls_open\library/md_wrap.c ****  * Wrappers for generic message digests
 391:Source\mbedtls_open\library/md_wrap.c ****  */
 392:Source\mbedtls_open\library/md_wrap.c **** #if defined(MBEDTLS_SHA256_C)
 393:Source\mbedtls_open\library/md_wrap.c **** 
 394:Source\mbedtls_open\library/md_wrap.c **** static int sha224_starts_wrap( void *ctx )
 395:Source\mbedtls_open\library/md_wrap.c **** {
 396:Source\mbedtls_open\library/md_wrap.c ****     return( mbedtls_sha256_starts_ret( (mbedtls_sha256_context *) ctx, 1 ) );
 397:Source\mbedtls_open\library/md_wrap.c **** }
 398:Source\mbedtls_open\library/md_wrap.c **** 
 399:Source\mbedtls_open\library/md_wrap.c **** static int sha224_update_wrap( void *ctx, const unsigned char *input,
 400:Source\mbedtls_open\library/md_wrap.c ****                                 size_t ilen )
 401:Source\mbedtls_open\library/md_wrap.c **** {
 402:Source\mbedtls_open\library/md_wrap.c ****     return( mbedtls_sha256_update_ret( (mbedtls_sha256_context *) ctx,
 403:Source\mbedtls_open\library/md_wrap.c ****                                        input, ilen ) );
 404:Source\mbedtls_open\library/md_wrap.c **** }
 405:Source\mbedtls_open\library/md_wrap.c **** 
 406:Source\mbedtls_open\library/md_wrap.c **** static int sha224_finish_wrap( void *ctx, unsigned char *output )
 407:Source\mbedtls_open\library/md_wrap.c **** {
 408:Source\mbedtls_open\library/md_wrap.c ****     return( mbedtls_sha256_finish_ret( (mbedtls_sha256_context *) ctx,
 409:Source\mbedtls_open\library/md_wrap.c ****                                        output ) );
 410:Source\mbedtls_open\library/md_wrap.c **** }
 411:Source\mbedtls_open\library/md_wrap.c **** 
 412:Source\mbedtls_open\library/md_wrap.c **** static int sha224_wrap( const unsigned char *input, size_t ilen,
 413:Source\mbedtls_open\library/md_wrap.c ****                         unsigned char *output )
 414:Source\mbedtls_open\library/md_wrap.c **** {
 415:Source\mbedtls_open\library/md_wrap.c ****     return( mbedtls_sha256_ret( input, ilen, output, 1 ) );
 416:Source\mbedtls_open\library/md_wrap.c **** }
 417:Source\mbedtls_open\library/md_wrap.c **** 
 418:Source\mbedtls_open\library/md_wrap.c **** static void *sha224_ctx_alloc( void )
ARM GAS  C:\Users\Phuong\AppData\Local\Temp\cctHCtS3.s 			page 20


 419:Source\mbedtls_open\library/md_wrap.c **** {
 420:Source\mbedtls_open\library/md_wrap.c ****     void *ctx = mbedtls_calloc( 1, sizeof( mbedtls_sha256_context ) );
 421:Source\mbedtls_open\library/md_wrap.c **** 
 422:Source\mbedtls_open\library/md_wrap.c ****     if( ctx != NULL )
 423:Source\mbedtls_open\library/md_wrap.c ****         mbedtls_sha256_init( (mbedtls_sha256_context *) ctx );
 424:Source\mbedtls_open\library/md_wrap.c **** 
 425:Source\mbedtls_open\library/md_wrap.c ****     return( ctx );
 426:Source\mbedtls_open\library/md_wrap.c **** }
 427:Source\mbedtls_open\library/md_wrap.c **** 
 428:Source\mbedtls_open\library/md_wrap.c **** static void sha224_ctx_free( void *ctx )
 429:Source\mbedtls_open\library/md_wrap.c **** {
 430:Source\mbedtls_open\library/md_wrap.c ****     mbedtls_sha256_free( (mbedtls_sha256_context *) ctx );
 431:Source\mbedtls_open\library/md_wrap.c ****     mbedtls_free( ctx );
 432:Source\mbedtls_open\library/md_wrap.c **** }
 433:Source\mbedtls_open\library/md_wrap.c **** 
 434:Source\mbedtls_open\library/md_wrap.c **** static void sha224_clone_wrap( void *dst, const void *src )
 435:Source\mbedtls_open\library/md_wrap.c **** {
 436:Source\mbedtls_open\library/md_wrap.c ****     mbedtls_sha256_clone( (mbedtls_sha256_context *) dst,
 437:Source\mbedtls_open\library/md_wrap.c ****                     (const mbedtls_sha256_context *) src );
 438:Source\mbedtls_open\library/md_wrap.c **** }
 439:Source\mbedtls_open\library/md_wrap.c **** 
 440:Source\mbedtls_open\library/md_wrap.c **** static int sha224_process_wrap( void *ctx, const unsigned char *data )
 441:Source\mbedtls_open\library/md_wrap.c **** {
 603              		.loc 1 441 0
 604              		.cfi_startproc
 605              		@ args = 0, pretend = 0, frame = 0
 606              		@ frame_needed = 0, uses_anonymous_args = 0
 607              	.LVL54:
 608 0000 10B5     		push	{r4, lr}
 609              		.cfi_def_cfa_offset 8
 610              		.cfi_offset 4, -8
 611              		.cfi_offset 14, -4
 442:Source\mbedtls_open\library/md_wrap.c ****     return( mbedtls_internal_sha256_process( (mbedtls_sha256_context *) ctx,
 612              		.loc 1 442 0
 613 0002 FFF7FEFF 		bl	mbedtls_internal_sha256_process
 614              	.LVL55:
 443:Source\mbedtls_open\library/md_wrap.c ****                                              data ) );
 444:Source\mbedtls_open\library/md_wrap.c **** }
 615              		.loc 1 444 0
 616              		@ sp needed
 617 0006 10BD     		pop	{r4, pc}
 618              		.cfi_endproc
 619              	.LFE29:
 620              		.size	sha224_process_wrap, .-sha224_process_wrap
 621              		.section	.text.sha224_clone_wrap,"ax",%progbits
 622              		.align	2
 623              		.code	16
 624              		.thumb_func
 625              		.type	sha224_clone_wrap, %function
 626              	sha224_clone_wrap:
 627              	.LFB28:
 435:Source\mbedtls_open\library/md_wrap.c ****     mbedtls_sha256_clone( (mbedtls_sha256_context *) dst,
 628              		.loc 1 435 0
 629              		.cfi_startproc
 630              		@ args = 0, pretend = 0, frame = 0
 631              		@ frame_needed = 0, uses_anonymous_args = 0
 632              	.LVL56:
ARM GAS  C:\Users\Phuong\AppData\Local\Temp\cctHCtS3.s 			page 21


 633 0000 10B5     		push	{r4, lr}
 634              		.cfi_def_cfa_offset 8
 635              		.cfi_offset 4, -8
 636              		.cfi_offset 14, -4
 436:Source\mbedtls_open\library/md_wrap.c ****                     (const mbedtls_sha256_context *) src );
 637              		.loc 1 436 0
 638 0002 FFF7FEFF 		bl	mbedtls_sha256_clone
 639              	.LVL57:
 438:Source\mbedtls_open\library/md_wrap.c **** 
 640              		.loc 1 438 0
 641              		@ sp needed
 642 0006 10BD     		pop	{r4, pc}
 643              		.cfi_endproc
 644              	.LFE28:
 645              		.size	sha224_clone_wrap, .-sha224_clone_wrap
 646              		.section	.text.sha224_ctx_free,"ax",%progbits
 647              		.align	2
 648              		.code	16
 649              		.thumb_func
 650              		.type	sha224_ctx_free, %function
 651              	sha224_ctx_free:
 652              	.LFB27:
 429:Source\mbedtls_open\library/md_wrap.c ****     mbedtls_sha256_free( (mbedtls_sha256_context *) ctx );
 653              		.loc 1 429 0
 654              		.cfi_startproc
 655              		@ args = 0, pretend = 0, frame = 0
 656              		@ frame_needed = 0, uses_anonymous_args = 0
 657              	.LVL58:
 658 0000 10B5     		push	{r4, lr}
 659              		.cfi_def_cfa_offset 8
 660              		.cfi_offset 4, -8
 661              		.cfi_offset 14, -4
 662 0002 0400     		movs	r4, r0
 430:Source\mbedtls_open\library/md_wrap.c ****     mbedtls_free( ctx );
 663              		.loc 1 430 0
 664 0004 FFF7FEFF 		bl	mbedtls_sha256_free
 665              	.LVL59:
 431:Source\mbedtls_open\library/md_wrap.c **** }
 666              		.loc 1 431 0
 667 0008 2000     		movs	r0, r4
 668 000a FFF7FEFF 		bl	free
 669              	.LVL60:
 432:Source\mbedtls_open\library/md_wrap.c **** 
 670              		.loc 1 432 0
 671              		@ sp needed
 672              	.LVL61:
 673 000e 10BD     		pop	{r4, pc}
 674              		.cfi_endproc
 675              	.LFE27:
 676              		.size	sha224_ctx_free, .-sha224_ctx_free
 677              		.section	.text.sha224_ctx_alloc,"ax",%progbits
 678              		.align	2
 679              		.code	16
 680              		.thumb_func
 681              		.type	sha224_ctx_alloc, %function
 682              	sha224_ctx_alloc:
 683              	.LFB26:
ARM GAS  C:\Users\Phuong\AppData\Local\Temp\cctHCtS3.s 			page 22


 419:Source\mbedtls_open\library/md_wrap.c ****     void *ctx = mbedtls_calloc( 1, sizeof( mbedtls_sha256_context ) );
 684              		.loc 1 419 0
 685              		.cfi_startproc
 686              		@ args = 0, pretend = 0, frame = 0
 687              		@ frame_needed = 0, uses_anonymous_args = 0
 688 0000 10B5     		push	{r4, lr}
 689              		.cfi_def_cfa_offset 8
 690              		.cfi_offset 4, -8
 691              		.cfi_offset 14, -4
 420:Source\mbedtls_open\library/md_wrap.c **** 
 692              		.loc 1 420 0
 693 0002 6C21     		movs	r1, #108
 694 0004 0120     		movs	r0, #1
 695 0006 FFF7FEFF 		bl	calloc
 696              	.LVL62:
 697 000a 041E     		subs	r4, r0, #0
 698              	.LVL63:
 422:Source\mbedtls_open\library/md_wrap.c ****         mbedtls_sha256_init( (mbedtls_sha256_context *) ctx );
 699              		.loc 1 422 0
 700 000c 01D0     		beq	.L29
 423:Source\mbedtls_open\library/md_wrap.c **** 
 701              		.loc 1 423 0
 702 000e FFF7FEFF 		bl	mbedtls_sha256_init
 703              	.LVL64:
 704              	.L29:
 426:Source\mbedtls_open\library/md_wrap.c **** 
 705              		.loc 1 426 0
 706 0012 2000     		movs	r0, r4
 707              		@ sp needed
 708              	.LVL65:
 709 0014 10BD     		pop	{r4, pc}
 710              		.cfi_endproc
 711              	.LFE26:
 712              		.size	sha224_ctx_alloc, .-sha224_ctx_alloc
 713 0016 C046     		.section	.text.sha224_wrap,"ax",%progbits
 714              		.align	2
 715              		.code	16
 716              		.thumb_func
 717              		.type	sha224_wrap, %function
 718              	sha224_wrap:
 719              	.LFB25:
 414:Source\mbedtls_open\library/md_wrap.c ****     return( mbedtls_sha256_ret( input, ilen, output, 1 ) );
 720              		.loc 1 414 0
 721              		.cfi_startproc
 722              		@ args = 0, pretend = 0, frame = 0
 723              		@ frame_needed = 0, uses_anonymous_args = 0
 724              	.LVL66:
 725 0000 10B5     		push	{r4, lr}
 726              		.cfi_def_cfa_offset 8
 727              		.cfi_offset 4, -8
 728              		.cfi_offset 14, -4
 415:Source\mbedtls_open\library/md_wrap.c **** }
 729              		.loc 1 415 0
 730 0002 0123     		movs	r3, #1
 731 0004 FFF7FEFF 		bl	mbedtls_sha256_ret
 732              	.LVL67:
 416:Source\mbedtls_open\library/md_wrap.c **** 
ARM GAS  C:\Users\Phuong\AppData\Local\Temp\cctHCtS3.s 			page 23


 733              		.loc 1 416 0
 734              		@ sp needed
 735 0008 10BD     		pop	{r4, pc}
 736              		.cfi_endproc
 737              	.LFE25:
 738              		.size	sha224_wrap, .-sha224_wrap
 739 000a C046     		.section	.text.sha256_wrap,"ax",%progbits
 740              		.align	2
 741              		.code	16
 742              		.thumb_func
 743              		.type	sha256_wrap, %function
 744              	sha256_wrap:
 745              	.LFB31:
 445:Source\mbedtls_open\library/md_wrap.c **** 
 446:Source\mbedtls_open\library/md_wrap.c **** const mbedtls_md_info_t mbedtls_sha224_info = {
 447:Source\mbedtls_open\library/md_wrap.c ****     MBEDTLS_MD_SHA224,
 448:Source\mbedtls_open\library/md_wrap.c ****     "SHA224",
 449:Source\mbedtls_open\library/md_wrap.c ****     28,
 450:Source\mbedtls_open\library/md_wrap.c ****     64,
 451:Source\mbedtls_open\library/md_wrap.c ****     sha224_starts_wrap,
 452:Source\mbedtls_open\library/md_wrap.c ****     sha224_update_wrap,
 453:Source\mbedtls_open\library/md_wrap.c ****     sha224_finish_wrap,
 454:Source\mbedtls_open\library/md_wrap.c ****     sha224_wrap,
 455:Source\mbedtls_open\library/md_wrap.c ****     sha224_ctx_alloc,
 456:Source\mbedtls_open\library/md_wrap.c ****     sha224_ctx_free,
 457:Source\mbedtls_open\library/md_wrap.c ****     sha224_clone_wrap,
 458:Source\mbedtls_open\library/md_wrap.c ****     sha224_process_wrap,
 459:Source\mbedtls_open\library/md_wrap.c **** };
 460:Source\mbedtls_open\library/md_wrap.c **** 
 461:Source\mbedtls_open\library/md_wrap.c **** static int sha256_starts_wrap( void *ctx )
 462:Source\mbedtls_open\library/md_wrap.c **** {
 463:Source\mbedtls_open\library/md_wrap.c ****     return( mbedtls_sha256_starts_ret( (mbedtls_sha256_context *) ctx, 0 ) );
 464:Source\mbedtls_open\library/md_wrap.c **** }
 465:Source\mbedtls_open\library/md_wrap.c **** 
 466:Source\mbedtls_open\library/md_wrap.c **** static int sha256_wrap( const unsigned char *input, size_t ilen,
 467:Source\mbedtls_open\library/md_wrap.c ****                         unsigned char *output )
 468:Source\mbedtls_open\library/md_wrap.c **** {
 746              		.loc 1 468 0
 747              		.cfi_startproc
 748              		@ args = 0, pretend = 0, frame = 0
 749              		@ frame_needed = 0, uses_anonymous_args = 0
 750              	.LVL68:
 751 0000 10B5     		push	{r4, lr}
 752              		.cfi_def_cfa_offset 8
 753              		.cfi_offset 4, -8
 754              		.cfi_offset 14, -4
 469:Source\mbedtls_open\library/md_wrap.c ****     return( mbedtls_sha256_ret( input, ilen, output, 0 ) );
 755              		.loc 1 469 0
 756 0002 0023     		movs	r3, #0
 757 0004 FFF7FEFF 		bl	mbedtls_sha256_ret
 758              	.LVL69:
 470:Source\mbedtls_open\library/md_wrap.c **** }
 759              		.loc 1 470 0
 760              		@ sp needed
 761 0008 10BD     		pop	{r4, pc}
 762              		.cfi_endproc
 763              	.LFE31:
ARM GAS  C:\Users\Phuong\AppData\Local\Temp\cctHCtS3.s 			page 24


 764              		.size	sha256_wrap, .-sha256_wrap
 765 000a C046     		.section	.text.sha224_finish_wrap,"ax",%progbits
 766              		.align	2
 767              		.code	16
 768              		.thumb_func
 769              		.type	sha224_finish_wrap, %function
 770              	sha224_finish_wrap:
 771              	.LFB24:
 407:Source\mbedtls_open\library/md_wrap.c ****     return( mbedtls_sha256_finish_ret( (mbedtls_sha256_context *) ctx,
 772              		.loc 1 407 0
 773              		.cfi_startproc
 774              		@ args = 0, pretend = 0, frame = 0
 775              		@ frame_needed = 0, uses_anonymous_args = 0
 776              	.LVL70:
 777 0000 10B5     		push	{r4, lr}
 778              		.cfi_def_cfa_offset 8
 779              		.cfi_offset 4, -8
 780              		.cfi_offset 14, -4
 408:Source\mbedtls_open\library/md_wrap.c ****                                        output ) );
 781              		.loc 1 408 0
 782 0002 FFF7FEFF 		bl	mbedtls_sha256_finish_ret
 783              	.LVL71:
 410:Source\mbedtls_open\library/md_wrap.c **** 
 784              		.loc 1 410 0
 785              		@ sp needed
 786 0006 10BD     		pop	{r4, pc}
 787              		.cfi_endproc
 788              	.LFE24:
 789              		.size	sha224_finish_wrap, .-sha224_finish_wrap
 790              		.section	.text.sha224_update_wrap,"ax",%progbits
 791              		.align	2
 792              		.code	16
 793              		.thumb_func
 794              		.type	sha224_update_wrap, %function
 795              	sha224_update_wrap:
 796              	.LFB23:
 401:Source\mbedtls_open\library/md_wrap.c ****     return( mbedtls_sha256_update_ret( (mbedtls_sha256_context *) ctx,
 797              		.loc 1 401 0
 798              		.cfi_startproc
 799              		@ args = 0, pretend = 0, frame = 0
 800              		@ frame_needed = 0, uses_anonymous_args = 0
 801              	.LVL72:
 802 0000 10B5     		push	{r4, lr}
 803              		.cfi_def_cfa_offset 8
 804              		.cfi_offset 4, -8
 805              		.cfi_offset 14, -4
 402:Source\mbedtls_open\library/md_wrap.c ****                                        input, ilen ) );
 806              		.loc 1 402 0
 807 0002 FFF7FEFF 		bl	mbedtls_sha256_update_ret
 808              	.LVL73:
 404:Source\mbedtls_open\library/md_wrap.c **** 
 809              		.loc 1 404 0
 810              		@ sp needed
 811 0006 10BD     		pop	{r4, pc}
 812              		.cfi_endproc
 813              	.LFE23:
 814              		.size	sha224_update_wrap, .-sha224_update_wrap
ARM GAS  C:\Users\Phuong\AppData\Local\Temp\cctHCtS3.s 			page 25


 815              		.section	.text.sha224_starts_wrap,"ax",%progbits
 816              		.align	2
 817              		.code	16
 818              		.thumb_func
 819              		.type	sha224_starts_wrap, %function
 820              	sha224_starts_wrap:
 821              	.LFB22:
 395:Source\mbedtls_open\library/md_wrap.c ****     return( mbedtls_sha256_starts_ret( (mbedtls_sha256_context *) ctx, 1 ) );
 822              		.loc 1 395 0
 823              		.cfi_startproc
 824              		@ args = 0, pretend = 0, frame = 0
 825              		@ frame_needed = 0, uses_anonymous_args = 0
 826              	.LVL74:
 827 0000 10B5     		push	{r4, lr}
 828              		.cfi_def_cfa_offset 8
 829              		.cfi_offset 4, -8
 830              		.cfi_offset 14, -4
 396:Source\mbedtls_open\library/md_wrap.c **** }
 831              		.loc 1 396 0
 832 0002 0121     		movs	r1, #1
 833 0004 FFF7FEFF 		bl	mbedtls_sha256_starts_ret
 834              	.LVL75:
 397:Source\mbedtls_open\library/md_wrap.c **** 
 835              		.loc 1 397 0
 836              		@ sp needed
 837 0008 10BD     		pop	{r4, pc}
 838              		.cfi_endproc
 839              	.LFE22:
 840              		.size	sha224_starts_wrap, .-sha224_starts_wrap
 841 000a C046     		.section	.text.sha256_starts_wrap,"ax",%progbits
 842              		.align	2
 843              		.code	16
 844              		.thumb_func
 845              		.type	sha256_starts_wrap, %function
 846              	sha256_starts_wrap:
 847              	.LFB30:
 462:Source\mbedtls_open\library/md_wrap.c ****     return( mbedtls_sha256_starts_ret( (mbedtls_sha256_context *) ctx, 0 ) );
 848              		.loc 1 462 0
 849              		.cfi_startproc
 850              		@ args = 0, pretend = 0, frame = 0
 851              		@ frame_needed = 0, uses_anonymous_args = 0
 852              	.LVL76:
 853 0000 10B5     		push	{r4, lr}
 854              		.cfi_def_cfa_offset 8
 855              		.cfi_offset 4, -8
 856              		.cfi_offset 14, -4
 463:Source\mbedtls_open\library/md_wrap.c **** }
 857              		.loc 1 463 0
 858 0002 0021     		movs	r1, #0
 859 0004 FFF7FEFF 		bl	mbedtls_sha256_starts_ret
 860              	.LVL77:
 464:Source\mbedtls_open\library/md_wrap.c **** 
 861              		.loc 1 464 0
 862              		@ sp needed
 863 0008 10BD     		pop	{r4, pc}
 864              		.cfi_endproc
 865              	.LFE30:
ARM GAS  C:\Users\Phuong\AppData\Local\Temp\cctHCtS3.s 			page 26


 866              		.size	sha256_starts_wrap, .-sha256_starts_wrap
 867 000a C046     		.section	.text.sha384_process_wrap,"ax",%progbits
 868              		.align	2
 869              		.code	16
 870              		.thumb_func
 871              		.type	sha384_process_wrap, %function
 872              	sha384_process_wrap:
 873              	.LFB39:
 471:Source\mbedtls_open\library/md_wrap.c **** 
 472:Source\mbedtls_open\library/md_wrap.c **** const mbedtls_md_info_t mbedtls_sha256_info = {
 473:Source\mbedtls_open\library/md_wrap.c ****     MBEDTLS_MD_SHA256,
 474:Source\mbedtls_open\library/md_wrap.c ****     "SHA256",
 475:Source\mbedtls_open\library/md_wrap.c ****     32,
 476:Source\mbedtls_open\library/md_wrap.c ****     64,
 477:Source\mbedtls_open\library/md_wrap.c ****     sha256_starts_wrap,
 478:Source\mbedtls_open\library/md_wrap.c ****     sha224_update_wrap,
 479:Source\mbedtls_open\library/md_wrap.c ****     sha224_finish_wrap,
 480:Source\mbedtls_open\library/md_wrap.c ****     sha256_wrap,
 481:Source\mbedtls_open\library/md_wrap.c ****     sha224_ctx_alloc,
 482:Source\mbedtls_open\library/md_wrap.c ****     sha224_ctx_free,
 483:Source\mbedtls_open\library/md_wrap.c ****     sha224_clone_wrap,
 484:Source\mbedtls_open\library/md_wrap.c ****     sha224_process_wrap,
 485:Source\mbedtls_open\library/md_wrap.c **** };
 486:Source\mbedtls_open\library/md_wrap.c **** 
 487:Source\mbedtls_open\library/md_wrap.c **** #endif /* MBEDTLS_SHA256_C */
 488:Source\mbedtls_open\library/md_wrap.c **** 
 489:Source\mbedtls_open\library/md_wrap.c **** #if defined(MBEDTLS_SHA512_C)
 490:Source\mbedtls_open\library/md_wrap.c **** 
 491:Source\mbedtls_open\library/md_wrap.c **** static int sha384_starts_wrap( void *ctx )
 492:Source\mbedtls_open\library/md_wrap.c **** {
 493:Source\mbedtls_open\library/md_wrap.c ****     return( mbedtls_sha512_starts_ret( (mbedtls_sha512_context *) ctx, 1 ) );
 494:Source\mbedtls_open\library/md_wrap.c **** }
 495:Source\mbedtls_open\library/md_wrap.c **** 
 496:Source\mbedtls_open\library/md_wrap.c **** static int sha384_update_wrap( void *ctx, const unsigned char *input,
 497:Source\mbedtls_open\library/md_wrap.c ****                                size_t ilen )
 498:Source\mbedtls_open\library/md_wrap.c **** {
 499:Source\mbedtls_open\library/md_wrap.c ****     return( mbedtls_sha512_update_ret( (mbedtls_sha512_context *) ctx,
 500:Source\mbedtls_open\library/md_wrap.c ****                                        input, ilen ) );
 501:Source\mbedtls_open\library/md_wrap.c **** }
 502:Source\mbedtls_open\library/md_wrap.c **** 
 503:Source\mbedtls_open\library/md_wrap.c **** static int sha384_finish_wrap( void *ctx, unsigned char *output )
 504:Source\mbedtls_open\library/md_wrap.c **** {
 505:Source\mbedtls_open\library/md_wrap.c ****     return( mbedtls_sha512_finish_ret( (mbedtls_sha512_context *) ctx,
 506:Source\mbedtls_open\library/md_wrap.c ****                                        output ) );
 507:Source\mbedtls_open\library/md_wrap.c **** }
 508:Source\mbedtls_open\library/md_wrap.c **** 
 509:Source\mbedtls_open\library/md_wrap.c **** static int sha384_wrap( const unsigned char *input, size_t ilen,
 510:Source\mbedtls_open\library/md_wrap.c ****                         unsigned char *output )
 511:Source\mbedtls_open\library/md_wrap.c **** {
 512:Source\mbedtls_open\library/md_wrap.c ****     return( mbedtls_sha512_ret( input, ilen, output, 1 ) );
 513:Source\mbedtls_open\library/md_wrap.c **** }
 514:Source\mbedtls_open\library/md_wrap.c **** 
 515:Source\mbedtls_open\library/md_wrap.c **** static void *sha384_ctx_alloc( void )
 516:Source\mbedtls_open\library/md_wrap.c **** {
 517:Source\mbedtls_open\library/md_wrap.c ****     void *ctx = mbedtls_calloc( 1, sizeof( mbedtls_sha512_context ) );
 518:Source\mbedtls_open\library/md_wrap.c **** 
 519:Source\mbedtls_open\library/md_wrap.c ****     if( ctx != NULL )
ARM GAS  C:\Users\Phuong\AppData\Local\Temp\cctHCtS3.s 			page 27


 520:Source\mbedtls_open\library/md_wrap.c ****         mbedtls_sha512_init( (mbedtls_sha512_context *) ctx );
 521:Source\mbedtls_open\library/md_wrap.c **** 
 522:Source\mbedtls_open\library/md_wrap.c ****     return( ctx );
 523:Source\mbedtls_open\library/md_wrap.c **** }
 524:Source\mbedtls_open\library/md_wrap.c **** 
 525:Source\mbedtls_open\library/md_wrap.c **** static void sha384_ctx_free( void *ctx )
 526:Source\mbedtls_open\library/md_wrap.c **** {
 527:Source\mbedtls_open\library/md_wrap.c ****     mbedtls_sha512_free( (mbedtls_sha512_context *) ctx );
 528:Source\mbedtls_open\library/md_wrap.c ****     mbedtls_free( ctx );
 529:Source\mbedtls_open\library/md_wrap.c **** }
 530:Source\mbedtls_open\library/md_wrap.c **** 
 531:Source\mbedtls_open\library/md_wrap.c **** static void sha384_clone_wrap( void *dst, const void *src )
 532:Source\mbedtls_open\library/md_wrap.c **** {
 533:Source\mbedtls_open\library/md_wrap.c ****     mbedtls_sha512_clone( (mbedtls_sha512_context *) dst,
 534:Source\mbedtls_open\library/md_wrap.c ****                     (const mbedtls_sha512_context *) src );
 535:Source\mbedtls_open\library/md_wrap.c **** }
 536:Source\mbedtls_open\library/md_wrap.c **** 
 537:Source\mbedtls_open\library/md_wrap.c **** static int sha384_process_wrap( void *ctx, const unsigned char *data )
 538:Source\mbedtls_open\library/md_wrap.c **** {
 874              		.loc 1 538 0
 875              		.cfi_startproc
 876              		@ args = 0, pretend = 0, frame = 0
 877              		@ frame_needed = 0, uses_anonymous_args = 0
 878              	.LVL78:
 879 0000 10B5     		push	{r4, lr}
 880              		.cfi_def_cfa_offset 8
 881              		.cfi_offset 4, -8
 882              		.cfi_offset 14, -4
 539:Source\mbedtls_open\library/md_wrap.c ****     return( mbedtls_internal_sha512_process( (mbedtls_sha512_context *) ctx,
 883              		.loc 1 539 0
 884 0002 FFF7FEFF 		bl	mbedtls_internal_sha512_process
 885              	.LVL79:
 540:Source\mbedtls_open\library/md_wrap.c ****                                              data ) );
 541:Source\mbedtls_open\library/md_wrap.c **** }
 886              		.loc 1 541 0
 887              		@ sp needed
 888 0006 10BD     		pop	{r4, pc}
 889              		.cfi_endproc
 890              	.LFE39:
 891              		.size	sha384_process_wrap, .-sha384_process_wrap
 892              		.section	.text.sha384_clone_wrap,"ax",%progbits
 893              		.align	2
 894              		.code	16
 895              		.thumb_func
 896              		.type	sha384_clone_wrap, %function
 897              	sha384_clone_wrap:
 898              	.LFB38:
 532:Source\mbedtls_open\library/md_wrap.c ****     mbedtls_sha512_clone( (mbedtls_sha512_context *) dst,
 899              		.loc 1 532 0
 900              		.cfi_startproc
 901              		@ args = 0, pretend = 0, frame = 0
 902              		@ frame_needed = 0, uses_anonymous_args = 0
 903              	.LVL80:
 904 0000 10B5     		push	{r4, lr}
 905              		.cfi_def_cfa_offset 8
 906              		.cfi_offset 4, -8
 907              		.cfi_offset 14, -4
ARM GAS  C:\Users\Phuong\AppData\Local\Temp\cctHCtS3.s 			page 28


 533:Source\mbedtls_open\library/md_wrap.c ****                     (const mbedtls_sha512_context *) src );
 908              		.loc 1 533 0
 909 0002 FFF7FEFF 		bl	mbedtls_sha512_clone
 910              	.LVL81:
 535:Source\mbedtls_open\library/md_wrap.c **** 
 911              		.loc 1 535 0
 912              		@ sp needed
 913 0006 10BD     		pop	{r4, pc}
 914              		.cfi_endproc
 915              	.LFE38:
 916              		.size	sha384_clone_wrap, .-sha384_clone_wrap
 917              		.section	.text.sha384_ctx_free,"ax",%progbits
 918              		.align	2
 919              		.code	16
 920              		.thumb_func
 921              		.type	sha384_ctx_free, %function
 922              	sha384_ctx_free:
 923              	.LFB37:
 526:Source\mbedtls_open\library/md_wrap.c ****     mbedtls_sha512_free( (mbedtls_sha512_context *) ctx );
 924              		.loc 1 526 0
 925              		.cfi_startproc
 926              		@ args = 0, pretend = 0, frame = 0
 927              		@ frame_needed = 0, uses_anonymous_args = 0
 928              	.LVL82:
 929 0000 10B5     		push	{r4, lr}
 930              		.cfi_def_cfa_offset 8
 931              		.cfi_offset 4, -8
 932              		.cfi_offset 14, -4
 933 0002 0400     		movs	r4, r0
 527:Source\mbedtls_open\library/md_wrap.c ****     mbedtls_free( ctx );
 934              		.loc 1 527 0
 935 0004 FFF7FEFF 		bl	mbedtls_sha512_free
 936              	.LVL83:
 528:Source\mbedtls_open\library/md_wrap.c **** }
 937              		.loc 1 528 0
 938 0008 2000     		movs	r0, r4
 939 000a FFF7FEFF 		bl	free
 940              	.LVL84:
 529:Source\mbedtls_open\library/md_wrap.c **** 
 941              		.loc 1 529 0
 942              		@ sp needed
 943              	.LVL85:
 944 000e 10BD     		pop	{r4, pc}
 945              		.cfi_endproc
 946              	.LFE37:
 947              		.size	sha384_ctx_free, .-sha384_ctx_free
 948              		.section	.text.sha384_ctx_alloc,"ax",%progbits
 949              		.align	2
 950              		.code	16
 951              		.thumb_func
 952              		.type	sha384_ctx_alloc, %function
 953              	sha384_ctx_alloc:
 954              	.LFB36:
 516:Source\mbedtls_open\library/md_wrap.c ****     void *ctx = mbedtls_calloc( 1, sizeof( mbedtls_sha512_context ) );
 955              		.loc 1 516 0
 956              		.cfi_startproc
 957              		@ args = 0, pretend = 0, frame = 0
ARM GAS  C:\Users\Phuong\AppData\Local\Temp\cctHCtS3.s 			page 29


 958              		@ frame_needed = 0, uses_anonymous_args = 0
 959 0000 10B5     		push	{r4, lr}
 960              		.cfi_def_cfa_offset 8
 961              		.cfi_offset 4, -8
 962              		.cfi_offset 14, -4
 517:Source\mbedtls_open\library/md_wrap.c **** 
 963              		.loc 1 517 0
 964 0002 D821     		movs	r1, #216
 965 0004 0120     		movs	r0, #1
 966 0006 FFF7FEFF 		bl	calloc
 967              	.LVL86:
 968 000a 041E     		subs	r4, r0, #0
 969              	.LVL87:
 519:Source\mbedtls_open\library/md_wrap.c ****         mbedtls_sha512_init( (mbedtls_sha512_context *) ctx );
 970              		.loc 1 519 0
 971 000c 01D0     		beq	.L40
 520:Source\mbedtls_open\library/md_wrap.c **** 
 972              		.loc 1 520 0
 973 000e FFF7FEFF 		bl	mbedtls_sha512_init
 974              	.LVL88:
 975              	.L40:
 523:Source\mbedtls_open\library/md_wrap.c **** 
 976              		.loc 1 523 0
 977 0012 2000     		movs	r0, r4
 978              		@ sp needed
 979              	.LVL89:
 980 0014 10BD     		pop	{r4, pc}
 981              		.cfi_endproc
 982              	.LFE36:
 983              		.size	sha384_ctx_alloc, .-sha384_ctx_alloc
 984 0016 C046     		.section	.text.sha384_wrap,"ax",%progbits
 985              		.align	2
 986              		.code	16
 987              		.thumb_func
 988              		.type	sha384_wrap, %function
 989              	sha384_wrap:
 990              	.LFB35:
 511:Source\mbedtls_open\library/md_wrap.c ****     return( mbedtls_sha512_ret( input, ilen, output, 1 ) );
 991              		.loc 1 511 0
 992              		.cfi_startproc
 993              		@ args = 0, pretend = 0, frame = 0
 994              		@ frame_needed = 0, uses_anonymous_args = 0
 995              	.LVL90:
 996 0000 10B5     		push	{r4, lr}
 997              		.cfi_def_cfa_offset 8
 998              		.cfi_offset 4, -8
 999              		.cfi_offset 14, -4
 512:Source\mbedtls_open\library/md_wrap.c **** }
 1000              		.loc 1 512 0
 1001 0002 0123     		movs	r3, #1
 1002 0004 FFF7FEFF 		bl	mbedtls_sha512_ret
 1003              	.LVL91:
 513:Source\mbedtls_open\library/md_wrap.c **** 
 1004              		.loc 1 513 0
 1005              		@ sp needed
 1006 0008 10BD     		pop	{r4, pc}
 1007              		.cfi_endproc
ARM GAS  C:\Users\Phuong\AppData\Local\Temp\cctHCtS3.s 			page 30


 1008              	.LFE35:
 1009              		.size	sha384_wrap, .-sha384_wrap
 1010 000a C046     		.section	.text.sha512_wrap,"ax",%progbits
 1011              		.align	2
 1012              		.code	16
 1013              		.thumb_func
 1014              		.type	sha512_wrap, %function
 1015              	sha512_wrap:
 1016              	.LFB41:
 542:Source\mbedtls_open\library/md_wrap.c **** 
 543:Source\mbedtls_open\library/md_wrap.c **** const mbedtls_md_info_t mbedtls_sha384_info = {
 544:Source\mbedtls_open\library/md_wrap.c ****     MBEDTLS_MD_SHA384,
 545:Source\mbedtls_open\library/md_wrap.c ****     "SHA384",
 546:Source\mbedtls_open\library/md_wrap.c ****     48,
 547:Source\mbedtls_open\library/md_wrap.c ****     128,
 548:Source\mbedtls_open\library/md_wrap.c ****     sha384_starts_wrap,
 549:Source\mbedtls_open\library/md_wrap.c ****     sha384_update_wrap,
 550:Source\mbedtls_open\library/md_wrap.c ****     sha384_finish_wrap,
 551:Source\mbedtls_open\library/md_wrap.c ****     sha384_wrap,
 552:Source\mbedtls_open\library/md_wrap.c ****     sha384_ctx_alloc,
 553:Source\mbedtls_open\library/md_wrap.c ****     sha384_ctx_free,
 554:Source\mbedtls_open\library/md_wrap.c ****     sha384_clone_wrap,
 555:Source\mbedtls_open\library/md_wrap.c ****     sha384_process_wrap,
 556:Source\mbedtls_open\library/md_wrap.c **** };
 557:Source\mbedtls_open\library/md_wrap.c **** 
 558:Source\mbedtls_open\library/md_wrap.c **** static int sha512_starts_wrap( void *ctx )
 559:Source\mbedtls_open\library/md_wrap.c **** {
 560:Source\mbedtls_open\library/md_wrap.c ****     return( mbedtls_sha512_starts_ret( (mbedtls_sha512_context *) ctx, 0 ) );
 561:Source\mbedtls_open\library/md_wrap.c **** }
 562:Source\mbedtls_open\library/md_wrap.c **** 
 563:Source\mbedtls_open\library/md_wrap.c **** static int sha512_wrap( const unsigned char *input, size_t ilen,
 564:Source\mbedtls_open\library/md_wrap.c ****                         unsigned char *output )
 565:Source\mbedtls_open\library/md_wrap.c **** {
 1017              		.loc 1 565 0
 1018              		.cfi_startproc
 1019              		@ args = 0, pretend = 0, frame = 0
 1020              		@ frame_needed = 0, uses_anonymous_args = 0
 1021              	.LVL92:
 1022 0000 10B5     		push	{r4, lr}
 1023              		.cfi_def_cfa_offset 8
 1024              		.cfi_offset 4, -8
 1025              		.cfi_offset 14, -4
 566:Source\mbedtls_open\library/md_wrap.c ****     return( mbedtls_sha512_ret( input, ilen, output, 0 ) );
 1026              		.loc 1 566 0
 1027 0002 0023     		movs	r3, #0
 1028 0004 FFF7FEFF 		bl	mbedtls_sha512_ret
 1029              	.LVL93:
 567:Source\mbedtls_open\library/md_wrap.c **** }
 1030              		.loc 1 567 0
 1031              		@ sp needed
 1032 0008 10BD     		pop	{r4, pc}
 1033              		.cfi_endproc
 1034              	.LFE41:
 1035              		.size	sha512_wrap, .-sha512_wrap
 1036 000a C046     		.section	.text.sha384_finish_wrap,"ax",%progbits
 1037              		.align	2
 1038              		.code	16
ARM GAS  C:\Users\Phuong\AppData\Local\Temp\cctHCtS3.s 			page 31


 1039              		.thumb_func
 1040              		.type	sha384_finish_wrap, %function
 1041              	sha384_finish_wrap:
 1042              	.LFB34:
 504:Source\mbedtls_open\library/md_wrap.c ****     return( mbedtls_sha512_finish_ret( (mbedtls_sha512_context *) ctx,
 1043              		.loc 1 504 0
 1044              		.cfi_startproc
 1045              		@ args = 0, pretend = 0, frame = 0
 1046              		@ frame_needed = 0, uses_anonymous_args = 0
 1047              	.LVL94:
 1048 0000 10B5     		push	{r4, lr}
 1049              		.cfi_def_cfa_offset 8
 1050              		.cfi_offset 4, -8
 1051              		.cfi_offset 14, -4
 505:Source\mbedtls_open\library/md_wrap.c ****                                        output ) );
 1052              		.loc 1 505 0
 1053 0002 FFF7FEFF 		bl	mbedtls_sha512_finish_ret
 1054              	.LVL95:
 507:Source\mbedtls_open\library/md_wrap.c **** 
 1055              		.loc 1 507 0
 1056              		@ sp needed
 1057 0006 10BD     		pop	{r4, pc}
 1058              		.cfi_endproc
 1059              	.LFE34:
 1060              		.size	sha384_finish_wrap, .-sha384_finish_wrap
 1061              		.section	.text.sha384_update_wrap,"ax",%progbits
 1062              		.align	2
 1063              		.code	16
 1064              		.thumb_func
 1065              		.type	sha384_update_wrap, %function
 1066              	sha384_update_wrap:
 1067              	.LFB33:
 498:Source\mbedtls_open\library/md_wrap.c ****     return( mbedtls_sha512_update_ret( (mbedtls_sha512_context *) ctx,
 1068              		.loc 1 498 0
 1069              		.cfi_startproc
 1070              		@ args = 0, pretend = 0, frame = 0
 1071              		@ frame_needed = 0, uses_anonymous_args = 0
 1072              	.LVL96:
 1073 0000 10B5     		push	{r4, lr}
 1074              		.cfi_def_cfa_offset 8
 1075              		.cfi_offset 4, -8
 1076              		.cfi_offset 14, -4
 499:Source\mbedtls_open\library/md_wrap.c ****                                        input, ilen ) );
 1077              		.loc 1 499 0
 1078 0002 FFF7FEFF 		bl	mbedtls_sha512_update_ret
 1079              	.LVL97:
 501:Source\mbedtls_open\library/md_wrap.c **** 
 1080              		.loc 1 501 0
 1081              		@ sp needed
 1082 0006 10BD     		pop	{r4, pc}
 1083              		.cfi_endproc
 1084              	.LFE33:
 1085              		.size	sha384_update_wrap, .-sha384_update_wrap
 1086              		.section	.text.sha384_starts_wrap,"ax",%progbits
 1087              		.align	2
 1088              		.code	16
 1089              		.thumb_func
ARM GAS  C:\Users\Phuong\AppData\Local\Temp\cctHCtS3.s 			page 32


 1090              		.type	sha384_starts_wrap, %function
 1091              	sha384_starts_wrap:
 1092              	.LFB32:
 492:Source\mbedtls_open\library/md_wrap.c ****     return( mbedtls_sha512_starts_ret( (mbedtls_sha512_context *) ctx, 1 ) );
 1093              		.loc 1 492 0
 1094              		.cfi_startproc
 1095              		@ args = 0, pretend = 0, frame = 0
 1096              		@ frame_needed = 0, uses_anonymous_args = 0
 1097              	.LVL98:
 1098 0000 10B5     		push	{r4, lr}
 1099              		.cfi_def_cfa_offset 8
 1100              		.cfi_offset 4, -8
 1101              		.cfi_offset 14, -4
 493:Source\mbedtls_open\library/md_wrap.c **** }
 1102              		.loc 1 493 0
 1103 0002 0121     		movs	r1, #1
 1104 0004 FFF7FEFF 		bl	mbedtls_sha512_starts_ret
 1105              	.LVL99:
 494:Source\mbedtls_open\library/md_wrap.c **** 
 1106              		.loc 1 494 0
 1107              		@ sp needed
 1108 0008 10BD     		pop	{r4, pc}
 1109              		.cfi_endproc
 1110              	.LFE32:
 1111              		.size	sha384_starts_wrap, .-sha384_starts_wrap
 1112 000a C046     		.section	.text.sha512_starts_wrap,"ax",%progbits
 1113              		.align	2
 1114              		.code	16
 1115              		.thumb_func
 1116              		.type	sha512_starts_wrap, %function
 1117              	sha512_starts_wrap:
 1118              	.LFB40:
 559:Source\mbedtls_open\library/md_wrap.c ****     return( mbedtls_sha512_starts_ret( (mbedtls_sha512_context *) ctx, 0 ) );
 1119              		.loc 1 559 0
 1120              		.cfi_startproc
 1121              		@ args = 0, pretend = 0, frame = 0
 1122              		@ frame_needed = 0, uses_anonymous_args = 0
 1123              	.LVL100:
 1124 0000 10B5     		push	{r4, lr}
 1125              		.cfi_def_cfa_offset 8
 1126              		.cfi_offset 4, -8
 1127              		.cfi_offset 14, -4
 560:Source\mbedtls_open\library/md_wrap.c **** }
 1128              		.loc 1 560 0
 1129 0002 0021     		movs	r1, #0
 1130 0004 FFF7FEFF 		bl	mbedtls_sha512_starts_ret
 1131              	.LVL101:
 561:Source\mbedtls_open\library/md_wrap.c **** 
 1132              		.loc 1 561 0
 1133              		@ sp needed
 1134 0008 10BD     		pop	{r4, pc}
 1135              		.cfi_endproc
 1136              	.LFE40:
 1137              		.size	sha512_starts_wrap, .-sha512_starts_wrap
 1138              		.global	mbedtls_sha512_info
 1139              		.global	mbedtls_sha384_info
 1140              		.global	mbedtls_sha256_info
ARM GAS  C:\Users\Phuong\AppData\Local\Temp\cctHCtS3.s 			page 33


 1141              		.global	mbedtls_sha224_info
 1142              		.global	mbedtls_sha1_info
 1143              		.global	mbedtls_ripemd160_info
 1144              		.global	mbedtls_md5_info
 1145 000a C046     		.section	.rodata
 1146              		.align	2
 1147              		.type	mbedtls_sha512_info, %object
 1148              		.size	mbedtls_sha512_info, 48
 1149              	mbedtls_sha512_info:
 1150 0000 08       		.byte	8
 1151 0001 000000   		.space	3
 1152 0004 00000000 		.word	.LC0
 1153 0008 40000000 		.word	64
 1154 000c 80000000 		.word	128
 1155 0010 00000000 		.word	sha512_starts_wrap
 1156 0014 00000000 		.word	sha384_update_wrap
 1157 0018 00000000 		.word	sha384_finish_wrap
 1158 001c 00000000 		.word	sha512_wrap
 1159 0020 00000000 		.word	sha384_ctx_alloc
 1160 0024 00000000 		.word	sha384_ctx_free
 1161 0028 00000000 		.word	sha384_clone_wrap
 1162 002c 00000000 		.word	sha384_process_wrap
 1163              		.type	mbedtls_sha384_info, %object
 1164              		.size	mbedtls_sha384_info, 48
 1165              	mbedtls_sha384_info:
 1166 0030 07       		.byte	7
 1167 0031 000000   		.space	3
 1168 0034 08000000 		.word	.LC1
 1169 0038 30000000 		.word	48
 1170 003c 80000000 		.word	128
 1171 0040 00000000 		.word	sha384_starts_wrap
 1172 0044 00000000 		.word	sha384_update_wrap
 1173 0048 00000000 		.word	sha384_finish_wrap
 1174 004c 00000000 		.word	sha384_wrap
 1175 0050 00000000 		.word	sha384_ctx_alloc
 1176 0054 00000000 		.word	sha384_ctx_free
 1177 0058 00000000 		.word	sha384_clone_wrap
 1178 005c 00000000 		.word	sha384_process_wrap
 1179              		.type	mbedtls_sha256_info, %object
 1180              		.size	mbedtls_sha256_info, 48
 1181              	mbedtls_sha256_info:
 1182 0060 06       		.byte	6
 1183 0061 000000   		.space	3
 1184 0064 10000000 		.word	.LC2
 1185 0068 20000000 		.word	32
 1186 006c 40000000 		.word	64
 1187 0070 00000000 		.word	sha256_starts_wrap
 1188 0074 00000000 		.word	sha224_update_wrap
 1189 0078 00000000 		.word	sha224_finish_wrap
 1190 007c 00000000 		.word	sha256_wrap
 1191 0080 00000000 		.word	sha224_ctx_alloc
 1192 0084 00000000 		.word	sha224_ctx_free
 1193 0088 00000000 		.word	sha224_clone_wrap
 1194 008c 00000000 		.word	sha224_process_wrap
 1195              		.type	mbedtls_sha224_info, %object
 1196              		.size	mbedtls_sha224_info, 48
 1197              	mbedtls_sha224_info:
ARM GAS  C:\Users\Phuong\AppData\Local\Temp\cctHCtS3.s 			page 34


 1198 0090 05       		.byte	5
 1199 0091 000000   		.space	3
 1200 0094 18000000 		.word	.LC3
 1201 0098 1C000000 		.word	28
 1202 009c 40000000 		.word	64
 1203 00a0 00000000 		.word	sha224_starts_wrap
 1204 00a4 00000000 		.word	sha224_update_wrap
 1205 00a8 00000000 		.word	sha224_finish_wrap
 1206 00ac 00000000 		.word	sha224_wrap
 1207 00b0 00000000 		.word	sha224_ctx_alloc
 1208 00b4 00000000 		.word	sha224_ctx_free
 1209 00b8 00000000 		.word	sha224_clone_wrap
 1210 00bc 00000000 		.word	sha224_process_wrap
 1211              		.type	mbedtls_sha1_info, %object
 1212              		.size	mbedtls_sha1_info, 48
 1213              	mbedtls_sha1_info:
 1214 00c0 04       		.byte	4
 1215 00c1 000000   		.space	3
 1216 00c4 20000000 		.word	.LC4
 1217 00c8 14000000 		.word	20
 1218 00cc 40000000 		.word	64
 1219 00d0 00000000 		.word	sha1_starts_wrap
 1220 00d4 00000000 		.word	sha1_update_wrap
 1221 00d8 00000000 		.word	sha1_finish_wrap
 1222 00dc 00000000 		.word	mbedtls_sha1_ret
 1223 00e0 00000000 		.word	sha1_ctx_alloc
 1224 00e4 00000000 		.word	sha1_ctx_free
 1225 00e8 00000000 		.word	sha1_clone_wrap
 1226 00ec 00000000 		.word	sha1_process_wrap
 1227              		.type	mbedtls_ripemd160_info, %object
 1228              		.size	mbedtls_ripemd160_info, 48
 1229              	mbedtls_ripemd160_info:
 1230 00f0 09       		.byte	9
 1231 00f1 000000   		.space	3
 1232 00f4 28000000 		.word	.LC5
 1233 00f8 14000000 		.word	20
 1234 00fc 40000000 		.word	64
 1235 0100 00000000 		.word	ripemd160_starts_wrap
 1236 0104 00000000 		.word	ripemd160_update_wrap
 1237 0108 00000000 		.word	ripemd160_finish_wrap
 1238 010c 00000000 		.word	mbedtls_ripemd160_ret
 1239 0110 00000000 		.word	ripemd160_ctx_alloc
 1240 0114 00000000 		.word	ripemd160_ctx_free
 1241 0118 00000000 		.word	ripemd160_clone_wrap
 1242 011c 00000000 		.word	ripemd160_process_wrap
 1243              		.type	mbedtls_md5_info, %object
 1244              		.size	mbedtls_md5_info, 48
 1245              	mbedtls_md5_info:
 1246 0120 03       		.byte	3
 1247 0121 000000   		.space	3
 1248 0124 34000000 		.word	.LC6
 1249 0128 10000000 		.word	16
 1250 012c 40000000 		.word	64
 1251 0130 00000000 		.word	md5_starts_wrap
 1252 0134 00000000 		.word	md5_update_wrap
 1253 0138 00000000 		.word	md5_finish_wrap
 1254 013c 00000000 		.word	mbedtls_md5_ret
ARM GAS  C:\Users\Phuong\AppData\Local\Temp\cctHCtS3.s 			page 35


 1255 0140 00000000 		.word	md5_ctx_alloc
 1256 0144 00000000 		.word	md5_ctx_free
 1257 0148 00000000 		.word	md5_clone_wrap
 1258 014c 00000000 		.word	md5_process_wrap
 1259              		.section	.rodata.str1.4,"aMS",%progbits,1
 1260              		.align	2
 1261              	.LC0:
 1262 0000 53484135 		.ascii	"SHA512\000"
 1262      313200
 1263 0007 00       		.space	1
 1264              	.LC1:
 1265 0008 53484133 		.ascii	"SHA384\000"
 1265      383400
 1266 000f 00       		.space	1
 1267              	.LC2:
 1268 0010 53484132 		.ascii	"SHA256\000"
 1268      353600
 1269 0017 00       		.space	1
 1270              	.LC3:
 1271 0018 53484132 		.ascii	"SHA224\000"
 1271      323400
 1272 001f 00       		.space	1
 1273              	.LC4:
 1274 0020 53484131 		.ascii	"SHA1\000"
 1274      00
 1275 0025 000000   		.space	3
 1276              	.LC5:
 1277 0028 52495045 		.ascii	"RIPEMD160\000"
 1277      4D443136 
 1277      3000
 1278 0032 0000     		.space	2
 1279              	.LC6:
 1280 0034 4D443500 		.ascii	"MD5\000"
 1281              		.text
 1282              	.Letext0:
 1283              		.file 2 "c:\\program files (x86)\\cypress\\psoc creator\\4.2\\psoc creator\\import\\gnu\\arm\\5.4.
 1284              		.file 3 "c:\\program files (x86)\\cypress\\psoc creator\\4.2\\psoc creator\\import\\gnu\\arm\\5.4.
 1285              		.file 4 ".\\Source\\mbedtls_open\\include/mbedtls/md.h"
 1286              		.file 5 ".\\Source\\mbedtls_open\\include/mbedtls/md_internal.h"
 1287              		.file 6 "c:\\program files (x86)\\cypress\\psoc creator\\4.2\\psoc creator\\import\\gnu\\arm\\5.4.
 1288              		.file 7 ".\\Source\\mbedtls_open\\include/mbedtls/md5.h"
 1289              		.file 8 ".\\Source\\mbedtls_open\\include/mbedtls/ripemd160.h"
 1290              		.file 9 ".\\Source\\mbedtls_open\\include/mbedtls/sha1.h"
 1291              		.file 10 ".\\Source\\mbedtls_open\\include/mbedtls/sha256.h"
 1292              		.file 11 ".\\Source\\mbedtls_open\\include/mbedtls/sha512.h"
 1293              		.file 12 "c:\\program files (x86)\\cypress\\psoc creator\\4.2\\psoc creator\\import\\gnu\\arm\\5.4