ARM GAS  C:\Users\Phuong\AppData\Local\Temp\ccVo7wGq.s 			page 1


   1              		.syntax unified
   2              		.cpu cortex-m0plus
   3              		.fpu softvfp
   4              		.eabi_attribute 20, 1
   5              		.eabi_attribute 21, 1
   6              		.eabi_attribute 23, 3
   7              		.eabi_attribute 24, 1
   8              		.eabi_attribute 25, 1
   9              		.eabi_attribute 26, 1
  10              		.eabi_attribute 30, 1
  11              		.eabi_attribute 34, 0
  12              		.eabi_attribute 18, 4
  13              		.thumb
  14              		.syntax unified
  15              		.file	"memp.c"
  16              		.text
  17              	.Ltext0:
  18              		.cfi_sections	.debug_frame
  19              		.section	.text.memp_overflow_init_element,"ax",%progbits
  20              		.align	2
  21              		.code	16
  22              		.thumb_func
  23              		.type	memp_overflow_init_element, %function
  24              	memp_overflow_init_element:
  25              	.LFB55:
  26              		.file 1 "Source\\LwIP\\src\\core\\memp.c"
   1:Source\LwIP\src\core/memp.c **** /**
   2:Source\LwIP\src\core/memp.c ****  * @file
   3:Source\LwIP\src\core/memp.c ****  * Dynamic pool memory manager
   4:Source\LwIP\src\core/memp.c ****  *
   5:Source\LwIP\src\core/memp.c ****  * lwIP has dedicated pools for many structures (netconn, protocol control blocks,
   6:Source\LwIP\src\core/memp.c ****  * packet buffers, ...). All these pools are managed here.
   7:Source\LwIP\src\core/memp.c ****  *
   8:Source\LwIP\src\core/memp.c ****  * @defgroup mempool Memory pools
   9:Source\LwIP\src\core/memp.c ****  * @ingroup infrastructure
  10:Source\LwIP\src\core/memp.c ****  * Custom memory pools
  11:Source\LwIP\src\core/memp.c **** 
  12:Source\LwIP\src\core/memp.c ****  */
  13:Source\LwIP\src\core/memp.c **** 
  14:Source\LwIP\src\core/memp.c **** /*
  15:Source\LwIP\src\core/memp.c ****  * Copyright (c) 2001-2004 Swedish Institute of Computer Science.
  16:Source\LwIP\src\core/memp.c ****  * All rights reserved.
  17:Source\LwIP\src\core/memp.c ****  *
  18:Source\LwIP\src\core/memp.c ****  * Redistribution and use in source and binary forms, with or without modification,
  19:Source\LwIP\src\core/memp.c ****  * are permitted provided that the following conditions are met:
  20:Source\LwIP\src\core/memp.c ****  *
  21:Source\LwIP\src\core/memp.c ****  * 1. Redistributions of source code must retain the above copyright notice,
  22:Source\LwIP\src\core/memp.c ****  *    this list of conditions and the following disclaimer.
  23:Source\LwIP\src\core/memp.c ****  * 2. Redistributions in binary form must reproduce the above copyright notice,
  24:Source\LwIP\src\core/memp.c ****  *    this list of conditions and the following disclaimer in the documentation
  25:Source\LwIP\src\core/memp.c ****  *    and/or other materials provided with the distribution.
  26:Source\LwIP\src\core/memp.c ****  * 3. The name of the author may not be used to endorse or promote products
  27:Source\LwIP\src\core/memp.c ****  *    derived from this software without specific prior written permission.
  28:Source\LwIP\src\core/memp.c ****  *
  29:Source\LwIP\src\core/memp.c ****  * THIS SOFTWARE IS PROVIDED BY THE AUTHOR ``AS IS'' AND ANY EXPRESS OR IMPLIED
  30:Source\LwIP\src\core/memp.c ****  * WARRANTIES, INCLUDING, BUT NOT LIMITED TO, THE IMPLIED WARRANTIES OF
  31:Source\LwIP\src\core/memp.c ****  * MERCHANTABILITY AND FITNESS FOR A PARTICULAR PURPOSE ARE DISCLAIMED. IN NO EVENT
ARM GAS  C:\Users\Phuong\AppData\Local\Temp\ccVo7wGq.s 			page 2


  32:Source\LwIP\src\core/memp.c ****  * SHALL THE AUTHOR BE LIABLE FOR ANY DIRECT, INDIRECT, INCIDENTAL, SPECIAL,
  33:Source\LwIP\src\core/memp.c ****  * EXEMPLARY, OR CONSEQUENTIAL DAMAGES (INCLUDING, BUT NOT LIMITED TO, PROCUREMENT
  34:Source\LwIP\src\core/memp.c ****  * OF SUBSTITUTE GOODS OR SERVICES; LOSS OF USE, DATA, OR PROFITS; OR BUSINESS
  35:Source\LwIP\src\core/memp.c ****  * INTERRUPTION) HOWEVER CAUSED AND ON ANY THEORY OF LIABILITY, WHETHER IN
  36:Source\LwIP\src\core/memp.c ****  * CONTRACT, STRICT LIABILITY, OR TORT (INCLUDING NEGLIGENCE OR OTHERWISE) ARISING
  37:Source\LwIP\src\core/memp.c ****  * IN ANY WAY OUT OF THE USE OF THIS SOFTWARE, EVEN IF ADVISED OF THE POSSIBILITY
  38:Source\LwIP\src\core/memp.c ****  * OF SUCH DAMAGE.
  39:Source\LwIP\src\core/memp.c ****  *
  40:Source\LwIP\src\core/memp.c ****  * This file is part of the lwIP TCP/IP stack.
  41:Source\LwIP\src\core/memp.c ****  *
  42:Source\LwIP\src\core/memp.c ****  * Author: Adam Dunkels <adam@sics.se>
  43:Source\LwIP\src\core/memp.c ****  *
  44:Source\LwIP\src\core/memp.c ****  */
  45:Source\LwIP\src\core/memp.c **** 
  46:Source\LwIP\src\core/memp.c **** #include "lwip/opt.h"
  47:Source\LwIP\src\core/memp.c **** 
  48:Source\LwIP\src\core/memp.c **** #include "lwip/memp.h"
  49:Source\LwIP\src\core/memp.c **** #include "lwip/sys.h"
  50:Source\LwIP\src\core/memp.c **** #include "lwip/stats.h"
  51:Source\LwIP\src\core/memp.c **** 
  52:Source\LwIP\src\core/memp.c **** #include <string.h>
  53:Source\LwIP\src\core/memp.c **** 
  54:Source\LwIP\src\core/memp.c **** /* Make sure we include everything we need for size calculation required by memp_std.h */
  55:Source\LwIP\src\core/memp.c **** #include "lwip/pbuf.h"
  56:Source\LwIP\src\core/memp.c **** #include "lwip/raw.h"
  57:Source\LwIP\src\core/memp.c **** #include "lwip/udp.h"
  58:Source\LwIP\src\core/memp.c **** #include "lwip/tcp.h"
  59:Source\LwIP\src\core/memp.c **** #include "lwip/priv/tcp_priv.h"
  60:Source\LwIP\src\core/memp.c **** #include "lwip/ip4_frag.h"
  61:Source\LwIP\src\core/memp.c **** #include "lwip/netbuf.h"
  62:Source\LwIP\src\core/memp.c **** #include "lwip/api.h"
  63:Source\LwIP\src\core/memp.c **** #include "lwip/priv/tcpip_priv.h"
  64:Source\LwIP\src\core/memp.c **** #include "lwip/priv/api_msg.h"
  65:Source\LwIP\src\core/memp.c **** #include "lwip/sockets.h"
  66:Source\LwIP\src\core/memp.c **** #include "lwip/netifapi.h"
  67:Source\LwIP\src\core/memp.c **** #include "lwip/etharp.h"
  68:Source\LwIP\src\core/memp.c **** #include "lwip/igmp.h"
  69:Source\LwIP\src\core/memp.c **** #include "lwip/timeouts.h"
  70:Source\LwIP\src\core/memp.c **** /* needed by default MEMP_NUM_SYS_TIMEOUT */
  71:Source\LwIP\src\core/memp.c **** #include "netif/ppp/ppp_opts.h"
  72:Source\LwIP\src\core/memp.c **** #include "lwip/netdb.h"
  73:Source\LwIP\src\core/memp.c **** #include "lwip/dns.h"
  74:Source\LwIP\src\core/memp.c **** #include "lwip/priv/nd6_priv.h"
  75:Source\LwIP\src\core/memp.c **** #include "lwip/ip6_frag.h"
  76:Source\LwIP\src\core/memp.c **** #include "lwip/mld6.h"
  77:Source\LwIP\src\core/memp.c **** 
  78:Source\LwIP\src\core/memp.c **** #define LWIP_MEMPOOL(name,num,size,desc) LWIP_MEMPOOL_DECLARE(name,num,size,desc)
  79:Source\LwIP\src\core/memp.c **** #include "lwip/priv/memp_std.h"
  80:Source\LwIP\src\core/memp.c **** 
  81:Source\LwIP\src\core/memp.c **** const struct memp_desc* const memp_pools[MEMP_MAX] = {
  82:Source\LwIP\src\core/memp.c **** #define LWIP_MEMPOOL(name,num,size,desc) &memp_ ## name,
  83:Source\LwIP\src\core/memp.c **** #include "lwip/priv/memp_std.h"
  84:Source\LwIP\src\core/memp.c **** };
  85:Source\LwIP\src\core/memp.c **** 
  86:Source\LwIP\src\core/memp.c **** #ifdef LWIP_HOOK_FILENAME
  87:Source\LwIP\src\core/memp.c **** #include LWIP_HOOK_FILENAME
  88:Source\LwIP\src\core/memp.c **** #endif
ARM GAS  C:\Users\Phuong\AppData\Local\Temp\ccVo7wGq.s 			page 3


  89:Source\LwIP\src\core/memp.c **** 
  90:Source\LwIP\src\core/memp.c **** #if MEMP_MEM_MALLOC && MEMP_OVERFLOW_CHECK >= 2
  91:Source\LwIP\src\core/memp.c **** #undef MEMP_OVERFLOW_CHECK
  92:Source\LwIP\src\core/memp.c **** /* MEMP_OVERFLOW_CHECK >= 2 does not work with MEMP_MEM_MALLOC, use 1 instead */
  93:Source\LwIP\src\core/memp.c **** #define MEMP_OVERFLOW_CHECK 1
  94:Source\LwIP\src\core/memp.c **** #endif
  95:Source\LwIP\src\core/memp.c **** 
  96:Source\LwIP\src\core/memp.c **** #if MEMP_SANITY_CHECK && !MEMP_MEM_MALLOC
  97:Source\LwIP\src\core/memp.c **** /**
  98:Source\LwIP\src\core/memp.c ****  * Check that memp-lists don't form a circle, using "Floyd's cycle-finding algorithm".
  99:Source\LwIP\src\core/memp.c ****  */
 100:Source\LwIP\src\core/memp.c **** static int
 101:Source\LwIP\src\core/memp.c **** memp_sanity(const struct memp_desc *desc)
 102:Source\LwIP\src\core/memp.c **** {
 103:Source\LwIP\src\core/memp.c ****   struct memp *t, *h;
 104:Source\LwIP\src\core/memp.c **** 
 105:Source\LwIP\src\core/memp.c ****   t = *desc->tab;
 106:Source\LwIP\src\core/memp.c ****   if (t != NULL) {
 107:Source\LwIP\src\core/memp.c ****     for (h = t->next; (t != NULL) && (h != NULL); t = t->next,
 108:Source\LwIP\src\core/memp.c ****       h = ((h->next != NULL) ? h->next->next : NULL)) {
 109:Source\LwIP\src\core/memp.c ****       if (t == h) {
 110:Source\LwIP\src\core/memp.c ****         return 0;
 111:Source\LwIP\src\core/memp.c ****       }
 112:Source\LwIP\src\core/memp.c ****     }
 113:Source\LwIP\src\core/memp.c ****   }
 114:Source\LwIP\src\core/memp.c **** 
 115:Source\LwIP\src\core/memp.c ****   return 1;
 116:Source\LwIP\src\core/memp.c **** }
 117:Source\LwIP\src\core/memp.c **** #endif /* MEMP_SANITY_CHECK && !MEMP_MEM_MALLOC */
 118:Source\LwIP\src\core/memp.c **** 
 119:Source\LwIP\src\core/memp.c **** #if MEMP_OVERFLOW_CHECK
 120:Source\LwIP\src\core/memp.c **** /**
 121:Source\LwIP\src\core/memp.c ****  * Check if a memp element was victim of an overflow
 122:Source\LwIP\src\core/memp.c ****  * (e.g. the restricted area after it has been altered)
 123:Source\LwIP\src\core/memp.c ****  *
 124:Source\LwIP\src\core/memp.c ****  * @param p the memp element to check
 125:Source\LwIP\src\core/memp.c ****  * @param desc the pool p comes from
 126:Source\LwIP\src\core/memp.c ****  */
 127:Source\LwIP\src\core/memp.c **** static void
 128:Source\LwIP\src\core/memp.c **** memp_overflow_check_element_overflow(struct memp *p, const struct memp_desc *desc)
 129:Source\LwIP\src\core/memp.c **** {
 130:Source\LwIP\src\core/memp.c **** #if MEMP_SANITY_REGION_AFTER_ALIGNED > 0
 131:Source\LwIP\src\core/memp.c ****   u16_t k;
 132:Source\LwIP\src\core/memp.c ****   u8_t *m;
 133:Source\LwIP\src\core/memp.c ****   m = (u8_t*)p + MEMP_SIZE + desc->size;
 134:Source\LwIP\src\core/memp.c ****   for (k = 0; k < MEMP_SANITY_REGION_AFTER_ALIGNED; k++) {
 135:Source\LwIP\src\core/memp.c ****     if (m[k] != 0xcd) {
 136:Source\LwIP\src\core/memp.c ****       char errstr[128] = "detected memp overflow in pool ";
 137:Source\LwIP\src\core/memp.c ****       strcat(errstr, desc->desc);
 138:Source\LwIP\src\core/memp.c ****       LWIP_ASSERT(errstr, 0);
 139:Source\LwIP\src\core/memp.c ****     }
 140:Source\LwIP\src\core/memp.c ****   }
 141:Source\LwIP\src\core/memp.c **** #else /* MEMP_SANITY_REGION_AFTER_ALIGNED > 0 */
 142:Source\LwIP\src\core/memp.c ****   LWIP_UNUSED_ARG(p);
 143:Source\LwIP\src\core/memp.c ****   LWIP_UNUSED_ARG(desc);
 144:Source\LwIP\src\core/memp.c **** #endif /* MEMP_SANITY_REGION_AFTER_ALIGNED > 0 */
 145:Source\LwIP\src\core/memp.c **** }
ARM GAS  C:\Users\Phuong\AppData\Local\Temp\ccVo7wGq.s 			page 4


 146:Source\LwIP\src\core/memp.c **** 
 147:Source\LwIP\src\core/memp.c **** /**
 148:Source\LwIP\src\core/memp.c ****  * Check if a memp element was victim of an underflow
 149:Source\LwIP\src\core/memp.c ****  * (e.g. the restricted area before it has been altered)
 150:Source\LwIP\src\core/memp.c ****  *
 151:Source\LwIP\src\core/memp.c ****  * @param p the memp element to check
 152:Source\LwIP\src\core/memp.c ****  * @param desc the pool p comes from
 153:Source\LwIP\src\core/memp.c ****  */
 154:Source\LwIP\src\core/memp.c **** static void
 155:Source\LwIP\src\core/memp.c **** memp_overflow_check_element_underflow(struct memp *p, const struct memp_desc *desc)
 156:Source\LwIP\src\core/memp.c **** {
 157:Source\LwIP\src\core/memp.c **** #if MEMP_SANITY_REGION_BEFORE_ALIGNED > 0
 158:Source\LwIP\src\core/memp.c ****   u16_t k;
 159:Source\LwIP\src\core/memp.c ****   u8_t *m;
 160:Source\LwIP\src\core/memp.c ****   m = (u8_t*)p + MEMP_SIZE - MEMP_SANITY_REGION_BEFORE_ALIGNED;
 161:Source\LwIP\src\core/memp.c ****   for (k = 0; k < MEMP_SANITY_REGION_BEFORE_ALIGNED; k++) {
 162:Source\LwIP\src\core/memp.c ****     if (m[k] != 0xcd) {
 163:Source\LwIP\src\core/memp.c ****       char errstr[128] = "detected memp underflow in pool ";
 164:Source\LwIP\src\core/memp.c ****       strcat(errstr, desc->desc);
 165:Source\LwIP\src\core/memp.c ****       LWIP_ASSERT(errstr, 0);
 166:Source\LwIP\src\core/memp.c ****     }
 167:Source\LwIP\src\core/memp.c ****   }
 168:Source\LwIP\src\core/memp.c **** #else /* MEMP_SANITY_REGION_BEFORE_ALIGNED > 0 */
 169:Source\LwIP\src\core/memp.c ****   LWIP_UNUSED_ARG(p);
 170:Source\LwIP\src\core/memp.c ****   LWIP_UNUSED_ARG(desc);
 171:Source\LwIP\src\core/memp.c **** #endif /* MEMP_SANITY_REGION_BEFORE_ALIGNED > 0 */
 172:Source\LwIP\src\core/memp.c **** }
 173:Source\LwIP\src\core/memp.c **** 
 174:Source\LwIP\src\core/memp.c **** /**
 175:Source\LwIP\src\core/memp.c ****  * Initialize the restricted area of on memp element.
 176:Source\LwIP\src\core/memp.c ****  */
 177:Source\LwIP\src\core/memp.c **** static void
 178:Source\LwIP\src\core/memp.c **** memp_overflow_init_element(struct memp *p, const struct memp_desc *desc)
 179:Source\LwIP\src\core/memp.c **** {
  27              		.loc 1 179 0
  28              		.cfi_startproc
  29              		@ args = 0, pretend = 0, frame = 0
  30              		@ frame_needed = 0, uses_anonymous_args = 0
  31              	.LVL0:
  32 0000 70B5     		push	{r4, r5, r6, lr}
  33              		.cfi_def_cfa_offset 16
  34              		.cfi_offset 4, -16
  35              		.cfi_offset 5, -12
  36              		.cfi_offset 6, -8
  37              		.cfi_offset 14, -4
  38 0002 0400     		movs	r4, r0
  39 0004 0D00     		movs	r5, r1
 180:Source\LwIP\src\core/memp.c **** #if MEMP_SANITY_REGION_BEFORE_ALIGNED > 0 || MEMP_SANITY_REGION_AFTER_ALIGNED > 0
 181:Source\LwIP\src\core/memp.c ****   u8_t *m;
 182:Source\LwIP\src\core/memp.c **** #if MEMP_SANITY_REGION_BEFORE_ALIGNED > 0
 183:Source\LwIP\src\core/memp.c ****   m = (u8_t*)p + MEMP_SIZE - MEMP_SANITY_REGION_BEFORE_ALIGNED;
  40              		.loc 1 183 0
  41 0006 0C30     		adds	r0, r0, #12
  42              	.LVL1:
 184:Source\LwIP\src\core/memp.c ****   memset(m, 0xcd, MEMP_SANITY_REGION_BEFORE_ALIGNED);
  43              		.loc 1 184 0
  44 0008 1022     		movs	r2, #16
ARM GAS  C:\Users\Phuong\AppData\Local\Temp\ccVo7wGq.s 			page 5


  45 000a CD21     		movs	r1, #205
  46              	.LVL2:
  47 000c FFF7FEFF 		bl	memset
  48              	.LVL3:
 185:Source\LwIP\src\core/memp.c **** #endif
 186:Source\LwIP\src\core/memp.c **** #if MEMP_SANITY_REGION_AFTER_ALIGNED > 0
 187:Source\LwIP\src\core/memp.c ****   m = (u8_t*)p + MEMP_SIZE + desc->size;
  49              		.loc 1 187 0
  50 0010 2889     		ldrh	r0, [r5, #8]
  51 0012 1C30     		adds	r0, r0, #28
  52 0014 2018     		adds	r0, r4, r0
  53              	.LVL4:
 188:Source\LwIP\src\core/memp.c ****   memset(m, 0xcd, MEMP_SANITY_REGION_AFTER_ALIGNED);
  54              		.loc 1 188 0
  55 0016 1022     		movs	r2, #16
  56 0018 CD21     		movs	r1, #205
  57 001a FFF7FEFF 		bl	memset
  58              	.LVL5:
 189:Source\LwIP\src\core/memp.c **** #endif
 190:Source\LwIP\src\core/memp.c **** #else /* MEMP_SANITY_REGION_BEFORE_ALIGNED > 0 || MEMP_SANITY_REGION_AFTER_ALIGNED > 0 */
 191:Source\LwIP\src\core/memp.c ****   LWIP_UNUSED_ARG(p);
 192:Source\LwIP\src\core/memp.c ****   LWIP_UNUSED_ARG(desc);
 193:Source\LwIP\src\core/memp.c **** #endif /* MEMP_SANITY_REGION_BEFORE_ALIGNED > 0 || MEMP_SANITY_REGION_AFTER_ALIGNED > 0 */
 194:Source\LwIP\src\core/memp.c **** }
  59              		.loc 1 194 0
  60              		@ sp needed
  61              	.LVL6:
  62              	.LVL7:
  63 001e 70BD     		pop	{r4, r5, r6, pc}
  64              		.cfi_endproc
  65              	.LFE55:
  66              		.size	memp_overflow_init_element, .-memp_overflow_init_element
  67              		.section	.text.do_memp_malloc_pool_fn,"ax",%progbits
  68              		.align	2
  69              		.code	16
  70              		.thumb_func
  71              		.type	do_memp_malloc_pool_fn, %function
  72              	do_memp_malloc_pool_fn:
  73              	.LFB59:
 195:Source\LwIP\src\core/memp.c **** 
 196:Source\LwIP\src\core/memp.c **** #if MEMP_OVERFLOW_CHECK >= 2
 197:Source\LwIP\src\core/memp.c **** /**
 198:Source\LwIP\src\core/memp.c ****  * Do an overflow check for all elements in every pool.
 199:Source\LwIP\src\core/memp.c ****  *
 200:Source\LwIP\src\core/memp.c ****  * @see memp_overflow_check_element for a description of the check
 201:Source\LwIP\src\core/memp.c ****  */
 202:Source\LwIP\src\core/memp.c **** static void
 203:Source\LwIP\src\core/memp.c **** memp_overflow_check_all(void)
 204:Source\LwIP\src\core/memp.c **** {
 205:Source\LwIP\src\core/memp.c ****   u16_t i, j;
 206:Source\LwIP\src\core/memp.c ****   struct memp *p;
 207:Source\LwIP\src\core/memp.c ****   SYS_ARCH_DECL_PROTECT(old_level);
 208:Source\LwIP\src\core/memp.c ****   SYS_ARCH_PROTECT(old_level);
 209:Source\LwIP\src\core/memp.c **** 
 210:Source\LwIP\src\core/memp.c ****   for (i = 0; i < MEMP_MAX; ++i) {
 211:Source\LwIP\src\core/memp.c ****     p = (struct memp*)LWIP_MEM_ALIGN(memp_pools[i]->base);
 212:Source\LwIP\src\core/memp.c ****     for (j = 0; j < memp_pools[i]->num; ++j) {
ARM GAS  C:\Users\Phuong\AppData\Local\Temp\ccVo7wGq.s 			page 6


 213:Source\LwIP\src\core/memp.c ****       memp_overflow_check_element_overflow(p, memp_pools[i]);
 214:Source\LwIP\src\core/memp.c ****       memp_overflow_check_element_underflow(p, memp_pools[i]);
 215:Source\LwIP\src\core/memp.c ****       p = LWIP_ALIGNMENT_CAST(struct memp*, ((u8_t*)p + MEMP_SIZE + memp_pools[i]->size + MEMP_SANI
 216:Source\LwIP\src\core/memp.c ****     }
 217:Source\LwIP\src\core/memp.c ****   }
 218:Source\LwIP\src\core/memp.c ****   SYS_ARCH_UNPROTECT(old_level);
 219:Source\LwIP\src\core/memp.c **** }
 220:Source\LwIP\src\core/memp.c **** #endif /* MEMP_OVERFLOW_CHECK >= 2 */
 221:Source\LwIP\src\core/memp.c **** #endif /* MEMP_OVERFLOW_CHECK */
 222:Source\LwIP\src\core/memp.c **** 
 223:Source\LwIP\src\core/memp.c **** /**
 224:Source\LwIP\src\core/memp.c ****  * Initialize custom memory pool.
 225:Source\LwIP\src\core/memp.c ****  * Related functions: memp_malloc_pool, memp_free_pool
 226:Source\LwIP\src\core/memp.c ****  *
 227:Source\LwIP\src\core/memp.c ****  * @param desc pool to initialize
 228:Source\LwIP\src\core/memp.c ****  */
 229:Source\LwIP\src\core/memp.c **** void
 230:Source\LwIP\src\core/memp.c **** memp_init_pool(const struct memp_desc *desc)
 231:Source\LwIP\src\core/memp.c **** {
 232:Source\LwIP\src\core/memp.c **** #if MEMP_MEM_MALLOC
 233:Source\LwIP\src\core/memp.c ****   LWIP_UNUSED_ARG(desc);
 234:Source\LwIP\src\core/memp.c **** #else
 235:Source\LwIP\src\core/memp.c ****   int i;
 236:Source\LwIP\src\core/memp.c ****   struct memp *memp;
 237:Source\LwIP\src\core/memp.c **** 
 238:Source\LwIP\src\core/memp.c ****   *desc->tab = NULL;
 239:Source\LwIP\src\core/memp.c ****   memp = (struct memp*)LWIP_MEM_ALIGN(desc->base);
 240:Source\LwIP\src\core/memp.c ****   /* create a linked list of memp elements */
 241:Source\LwIP\src\core/memp.c ****   for (i = 0; i < desc->num; ++i) {
 242:Source\LwIP\src\core/memp.c ****     memp->next = *desc->tab;
 243:Source\LwIP\src\core/memp.c ****     *desc->tab = memp;
 244:Source\LwIP\src\core/memp.c **** #if MEMP_OVERFLOW_CHECK
 245:Source\LwIP\src\core/memp.c ****     memp_overflow_init_element(memp, desc);
 246:Source\LwIP\src\core/memp.c **** #endif /* MEMP_OVERFLOW_CHECK */
 247:Source\LwIP\src\core/memp.c ****    /* cast through void* to get rid of alignment warnings */
 248:Source\LwIP\src\core/memp.c ****    memp = (struct memp *)(void *)((u8_t *)memp + MEMP_SIZE + desc->size
 249:Source\LwIP\src\core/memp.c **** #if MEMP_OVERFLOW_CHECK
 250:Source\LwIP\src\core/memp.c ****       + MEMP_SANITY_REGION_AFTER_ALIGNED
 251:Source\LwIP\src\core/memp.c **** #endif
 252:Source\LwIP\src\core/memp.c ****     );
 253:Source\LwIP\src\core/memp.c ****   }
 254:Source\LwIP\src\core/memp.c **** #if MEMP_STATS
 255:Source\LwIP\src\core/memp.c ****   desc->stats->avail = desc->num;
 256:Source\LwIP\src\core/memp.c **** #endif /* MEMP_STATS */
 257:Source\LwIP\src\core/memp.c **** #endif /* !MEMP_MEM_MALLOC */
 258:Source\LwIP\src\core/memp.c **** 
 259:Source\LwIP\src\core/memp.c **** #if MEMP_STATS && (defined(LWIP_DEBUG) || LWIP_STATS_DISPLAY)
 260:Source\LwIP\src\core/memp.c ****   desc->stats->name  = desc->desc;
 261:Source\LwIP\src\core/memp.c **** #endif /* MEMP_STATS && (defined(LWIP_DEBUG) || LWIP_STATS_DISPLAY) */
 262:Source\LwIP\src\core/memp.c **** }
 263:Source\LwIP\src\core/memp.c **** 
 264:Source\LwIP\src\core/memp.c **** /**
 265:Source\LwIP\src\core/memp.c ****  * Initializes lwIP built-in pools.
 266:Source\LwIP\src\core/memp.c ****  * Related functions: memp_malloc, memp_free
 267:Source\LwIP\src\core/memp.c ****  *
 268:Source\LwIP\src\core/memp.c ****  * Carves out memp_memory into linked lists for each pool-type.
 269:Source\LwIP\src\core/memp.c ****  */
ARM GAS  C:\Users\Phuong\AppData\Local\Temp\ccVo7wGq.s 			page 7


 270:Source\LwIP\src\core/memp.c **** void
 271:Source\LwIP\src\core/memp.c **** memp_init(void)
 272:Source\LwIP\src\core/memp.c **** {
 273:Source\LwIP\src\core/memp.c ****   u16_t i;
 274:Source\LwIP\src\core/memp.c **** 
 275:Source\LwIP\src\core/memp.c ****   /* for every pool: */
 276:Source\LwIP\src\core/memp.c ****   for (i = 0; i < LWIP_ARRAYSIZE(memp_pools); i++) {
 277:Source\LwIP\src\core/memp.c ****     memp_init_pool(memp_pools[i]);
 278:Source\LwIP\src\core/memp.c **** 
 279:Source\LwIP\src\core/memp.c **** #if LWIP_STATS && MEMP_STATS
 280:Source\LwIP\src\core/memp.c ****     lwip_stats.memp[i] = memp_pools[i]->stats;
 281:Source\LwIP\src\core/memp.c **** #endif
 282:Source\LwIP\src\core/memp.c ****   }
 283:Source\LwIP\src\core/memp.c **** 
 284:Source\LwIP\src\core/memp.c **** #if MEMP_OVERFLOW_CHECK >= 2
 285:Source\LwIP\src\core/memp.c ****   /* check everything a first time to see if it worked */
 286:Source\LwIP\src\core/memp.c ****   memp_overflow_check_all();
 287:Source\LwIP\src\core/memp.c **** #endif /* MEMP_OVERFLOW_CHECK >= 2 */
 288:Source\LwIP\src\core/memp.c **** }
 289:Source\LwIP\src\core/memp.c **** 
 290:Source\LwIP\src\core/memp.c **** static void*
 291:Source\LwIP\src\core/memp.c **** #if !MEMP_OVERFLOW_CHECK
 292:Source\LwIP\src\core/memp.c **** do_memp_malloc_pool(const struct memp_desc *desc)
 293:Source\LwIP\src\core/memp.c **** #else
 294:Source\LwIP\src\core/memp.c **** do_memp_malloc_pool_fn(const struct memp_desc *desc, const char* file, const int line)
 295:Source\LwIP\src\core/memp.c **** #endif
 296:Source\LwIP\src\core/memp.c **** {
  74              		.loc 1 296 0
  75              		.cfi_startproc
  76              		@ args = 0, pretend = 0, frame = 0
  77              		@ frame_needed = 0, uses_anonymous_args = 0
  78              	.LVL8:
  79 0000 F8B5     		push	{r3, r4, r5, r6, r7, lr}
  80              		.cfi_def_cfa_offset 24
  81              		.cfi_offset 3, -24
  82              		.cfi_offset 4, -20
  83              		.cfi_offset 5, -16
  84              		.cfi_offset 6, -12
  85              		.cfi_offset 7, -8
  86              		.cfi_offset 14, -4
  87 0002 0500     		movs	r5, r0
  88 0004 0F00     		movs	r7, r1
  89 0006 1600     		movs	r6, r2
 297:Source\LwIP\src\core/memp.c ****   struct memp *memp;
 298:Source\LwIP\src\core/memp.c ****   SYS_ARCH_DECL_PROTECT(old_level);
 299:Source\LwIP\src\core/memp.c **** 
 300:Source\LwIP\src\core/memp.c **** #if MEMP_MEM_MALLOC
 301:Source\LwIP\src\core/memp.c ****   memp = (struct memp *)mem_malloc(MEMP_SIZE + MEMP_ALIGN_SIZE(desc->size));
 302:Source\LwIP\src\core/memp.c ****   SYS_ARCH_PROTECT(old_level);
 303:Source\LwIP\src\core/memp.c **** #else /* MEMP_MEM_MALLOC */
 304:Source\LwIP\src\core/memp.c ****   SYS_ARCH_PROTECT(old_level);
  90              		.loc 1 304 0
  91 0008 FFF7FEFF 		bl	sys_arch_protect
  92              	.LVL9:
 305:Source\LwIP\src\core/memp.c **** 
 306:Source\LwIP\src\core/memp.c ****   memp = *desc->tab;
  93              		.loc 1 306 0
ARM GAS  C:\Users\Phuong\AppData\Local\Temp\ccVo7wGq.s 			page 8


  94 000c 2B69     		ldr	r3, [r5, #16]
  95 000e 1C68     		ldr	r4, [r3]
  96              	.LVL10:
 307:Source\LwIP\src\core/memp.c **** #endif /* MEMP_MEM_MALLOC */
 308:Source\LwIP\src\core/memp.c **** 
 309:Source\LwIP\src\core/memp.c ****   if (memp != NULL) {
  97              		.loc 1 309 0
  98 0010 002C     		cmp	r4, #0
  99 0012 14D0     		beq	.L3
 310:Source\LwIP\src\core/memp.c **** #if !MEMP_MEM_MALLOC
 311:Source\LwIP\src\core/memp.c **** #if MEMP_OVERFLOW_CHECK == 1
 312:Source\LwIP\src\core/memp.c ****     memp_overflow_check_element_overflow(memp, desc);
 313:Source\LwIP\src\core/memp.c ****     memp_overflow_check_element_underflow(memp, desc);
 314:Source\LwIP\src\core/memp.c **** #endif /* MEMP_OVERFLOW_CHECK */
 315:Source\LwIP\src\core/memp.c **** 
 316:Source\LwIP\src\core/memp.c ****     *desc->tab = memp->next;
 100              		.loc 1 316 0
 101 0014 2268     		ldr	r2, [r4]
 102 0016 1A60     		str	r2, [r3]
 317:Source\LwIP\src\core/memp.c **** #if MEMP_OVERFLOW_CHECK
 318:Source\LwIP\src\core/memp.c ****     memp->next = NULL;
 103              		.loc 1 318 0
 104 0018 0023     		movs	r3, #0
 105 001a 2360     		str	r3, [r4]
 319:Source\LwIP\src\core/memp.c **** #endif /* MEMP_OVERFLOW_CHECK */
 320:Source\LwIP\src\core/memp.c **** #endif /* !MEMP_MEM_MALLOC */
 321:Source\LwIP\src\core/memp.c **** #if MEMP_OVERFLOW_CHECK
 322:Source\LwIP\src\core/memp.c ****     memp->file = file;
 106              		.loc 1 322 0
 107 001c 6760     		str	r7, [r4, #4]
 323:Source\LwIP\src\core/memp.c ****     memp->line = line;
 108              		.loc 1 323 0
 109 001e A660     		str	r6, [r4, #8]
 324:Source\LwIP\src\core/memp.c **** #if MEMP_MEM_MALLOC
 325:Source\LwIP\src\core/memp.c ****     memp_overflow_init_element(memp, desc);
 326:Source\LwIP\src\core/memp.c **** #endif /* MEMP_MEM_MALLOC */
 327:Source\LwIP\src\core/memp.c **** #endif /* MEMP_OVERFLOW_CHECK */
 328:Source\LwIP\src\core/memp.c ****     LWIP_ASSERT("memp_malloc: memp properly aligned",
 329:Source\LwIP\src\core/memp.c ****                 ((mem_ptr_t)memp % MEM_ALIGNMENT) == 0);
 330:Source\LwIP\src\core/memp.c **** #if MEMP_STATS
 331:Source\LwIP\src\core/memp.c ****     desc->stats->used++;
 110              		.loc 1 331 0
 111 0020 6A68     		ldr	r2, [r5, #4]
 112 0022 D368     		ldr	r3, [r2, #12]
 113 0024 0133     		adds	r3, r3, #1
 114 0026 D360     		str	r3, [r2, #12]
 332:Source\LwIP\src\core/memp.c ****     if (desc->stats->used > desc->stats->max) {
 115              		.loc 1 332 0
 116 0028 6B68     		ldr	r3, [r5, #4]
 117 002a DA68     		ldr	r2, [r3, #12]
 118 002c 1969     		ldr	r1, [r3, #16]
 119 002e 8A42     		cmp	r2, r1
 120 0030 00D9     		bls	.L4
 333:Source\LwIP\src\core/memp.c ****       desc->stats->max = desc->stats->used;
 121              		.loc 1 333 0
 122 0032 1A61     		str	r2, [r3, #16]
 123              	.L4:
ARM GAS  C:\Users\Phuong\AppData\Local\Temp\ccVo7wGq.s 			page 9


 334:Source\LwIP\src\core/memp.c ****     }
 335:Source\LwIP\src\core/memp.c **** #endif
 336:Source\LwIP\src\core/memp.c ****     SYS_ARCH_UNPROTECT(old_level);
 124              		.loc 1 336 0
 125 0034 FFF7FEFF 		bl	sys_arch_unprotect
 126              	.LVL11:
 337:Source\LwIP\src\core/memp.c ****     /* cast through u8_t* to get rid of alignment warnings */
 338:Source\LwIP\src\core/memp.c ****     return ((u8_t*)memp + MEMP_SIZE);
 127              		.loc 1 338 0
 128 0038 2000     		movs	r0, r4
 129 003a 1C30     		adds	r0, r0, #28
 130 003c 06E0     		b	.L5
 131              	.LVL12:
 132              	.L3:
 339:Source\LwIP\src\core/memp.c ****   } else {
 340:Source\LwIP\src\core/memp.c ****     LWIP_DEBUGF(MEMP_DEBUG | LWIP_DBG_LEVEL_SERIOUS, ("memp_malloc: out of memory in pool %s\n", de
 341:Source\LwIP\src\core/memp.c **** #if MEMP_STATS
 342:Source\LwIP\src\core/memp.c ****     desc->stats->err++;
 133              		.loc 1 342 0
 134 003e 6A68     		ldr	r2, [r5, #4]
 135 0040 9388     		ldrh	r3, [r2, #4]
 136 0042 0133     		adds	r3, r3, #1
 137 0044 9380     		strh	r3, [r2, #4]
 343:Source\LwIP\src\core/memp.c **** #endif
 344:Source\LwIP\src\core/memp.c ****   }
 345:Source\LwIP\src\core/memp.c **** 
 346:Source\LwIP\src\core/memp.c ****   SYS_ARCH_UNPROTECT(old_level);
 138              		.loc 1 346 0
 139 0046 FFF7FEFF 		bl	sys_arch_unprotect
 140              	.LVL13:
 347:Source\LwIP\src\core/memp.c ****   return NULL;
 141              		.loc 1 347 0
 142 004a 0020     		movs	r0, #0
 143              	.L5:
 348:Source\LwIP\src\core/memp.c **** }
 144              		.loc 1 348 0
 145              		@ sp needed
 146              	.LVL14:
 147              	.LVL15:
 148              	.LVL16:
 149              	.LVL17:
 150 004c F8BD     		pop	{r3, r4, r5, r6, r7, pc}
 151              		.cfi_endproc
 152              	.LFE59:
 153              		.size	do_memp_malloc_pool_fn, .-do_memp_malloc_pool_fn
 154 004e C046     		.section	.text.do_memp_free_pool,"ax",%progbits
 155              		.align	2
 156              		.code	16
 157              		.thumb_func
 158              		.type	do_memp_free_pool, %function
 159              	do_memp_free_pool:
 160              	.LFB62:
 349:Source\LwIP\src\core/memp.c **** 
 350:Source\LwIP\src\core/memp.c **** /**
 351:Source\LwIP\src\core/memp.c ****  * Get an element from a custom pool.
 352:Source\LwIP\src\core/memp.c ****  *
 353:Source\LwIP\src\core/memp.c ****  * @param desc the pool to get an element from
ARM GAS  C:\Users\Phuong\AppData\Local\Temp\ccVo7wGq.s 			page 10


 354:Source\LwIP\src\core/memp.c ****  *
 355:Source\LwIP\src\core/memp.c ****  * @return a pointer to the allocated memory or a NULL pointer on error
 356:Source\LwIP\src\core/memp.c ****  */
 357:Source\LwIP\src\core/memp.c **** void *
 358:Source\LwIP\src\core/memp.c **** #if !MEMP_OVERFLOW_CHECK
 359:Source\LwIP\src\core/memp.c **** memp_malloc_pool(const struct memp_desc *desc)
 360:Source\LwIP\src\core/memp.c **** #else
 361:Source\LwIP\src\core/memp.c **** memp_malloc_pool_fn(const struct memp_desc *desc, const char* file, const int line)
 362:Source\LwIP\src\core/memp.c **** #endif
 363:Source\LwIP\src\core/memp.c **** {
 364:Source\LwIP\src\core/memp.c ****   LWIP_ASSERT("invalid pool desc", desc != NULL);
 365:Source\LwIP\src\core/memp.c ****   if (desc == NULL) {
 366:Source\LwIP\src\core/memp.c ****     return NULL;
 367:Source\LwIP\src\core/memp.c ****   }
 368:Source\LwIP\src\core/memp.c **** 
 369:Source\LwIP\src\core/memp.c **** #if !MEMP_OVERFLOW_CHECK
 370:Source\LwIP\src\core/memp.c ****   return do_memp_malloc_pool(desc);
 371:Source\LwIP\src\core/memp.c **** #else
 372:Source\LwIP\src\core/memp.c ****   return do_memp_malloc_pool_fn(desc, file, line);
 373:Source\LwIP\src\core/memp.c **** #endif
 374:Source\LwIP\src\core/memp.c **** }
 375:Source\LwIP\src\core/memp.c **** 
 376:Source\LwIP\src\core/memp.c **** /**
 377:Source\LwIP\src\core/memp.c ****  * Get an element from a specific pool.
 378:Source\LwIP\src\core/memp.c ****  *
 379:Source\LwIP\src\core/memp.c ****  * @param type the pool to get an element from
 380:Source\LwIP\src\core/memp.c ****  *
 381:Source\LwIP\src\core/memp.c ****  * @return a pointer to the allocated memory or a NULL pointer on error
 382:Source\LwIP\src\core/memp.c ****  */
 383:Source\LwIP\src\core/memp.c **** void *
 384:Source\LwIP\src\core/memp.c **** #if !MEMP_OVERFLOW_CHECK
 385:Source\LwIP\src\core/memp.c **** memp_malloc(memp_t type)
 386:Source\LwIP\src\core/memp.c **** #else
 387:Source\LwIP\src\core/memp.c **** memp_malloc_fn(memp_t type, const char* file, const int line)
 388:Source\LwIP\src\core/memp.c **** #endif
 389:Source\LwIP\src\core/memp.c **** {
 390:Source\LwIP\src\core/memp.c ****   void *memp;
 391:Source\LwIP\src\core/memp.c ****   LWIP_ERROR("memp_malloc: type < MEMP_MAX", (type < MEMP_MAX), return NULL;);
 392:Source\LwIP\src\core/memp.c **** 
 393:Source\LwIP\src\core/memp.c **** #if MEMP_OVERFLOW_CHECK >= 2
 394:Source\LwIP\src\core/memp.c ****   memp_overflow_check_all();
 395:Source\LwIP\src\core/memp.c **** #endif /* MEMP_OVERFLOW_CHECK >= 2 */
 396:Source\LwIP\src\core/memp.c **** 
 397:Source\LwIP\src\core/memp.c **** #if !MEMP_OVERFLOW_CHECK
 398:Source\LwIP\src\core/memp.c ****   memp = do_memp_malloc_pool(memp_pools[type]);
 399:Source\LwIP\src\core/memp.c **** #else
 400:Source\LwIP\src\core/memp.c ****   memp = do_memp_malloc_pool_fn(memp_pools[type], file, line);
 401:Source\LwIP\src\core/memp.c **** #endif
 402:Source\LwIP\src\core/memp.c **** 
 403:Source\LwIP\src\core/memp.c ****   return memp;
 404:Source\LwIP\src\core/memp.c **** }
 405:Source\LwIP\src\core/memp.c **** 
 406:Source\LwIP\src\core/memp.c **** static void
 407:Source\LwIP\src\core/memp.c **** do_memp_free_pool(const struct memp_desc* desc, void *mem)
 408:Source\LwIP\src\core/memp.c **** {
 161              		.loc 1 408 0
 162              		.cfi_startproc
ARM GAS  C:\Users\Phuong\AppData\Local\Temp\ccVo7wGq.s 			page 11


 163              		@ args = 0, pretend = 0, frame = 0
 164              		@ frame_needed = 0, uses_anonymous_args = 0
 165              	.LVL18:
 166 0000 70B5     		push	{r4, r5, r6, lr}
 167              		.cfi_def_cfa_offset 16
 168              		.cfi_offset 4, -16
 169              		.cfi_offset 5, -12
 170              		.cfi_offset 6, -8
 171              		.cfi_offset 14, -4
 172 0002 0500     		movs	r5, r0
 409:Source\LwIP\src\core/memp.c ****   struct memp *memp;
 410:Source\LwIP\src\core/memp.c ****   SYS_ARCH_DECL_PROTECT(old_level);
 411:Source\LwIP\src\core/memp.c **** 
 412:Source\LwIP\src\core/memp.c ****   LWIP_ASSERT("memp_free: mem properly aligned",
 413:Source\LwIP\src\core/memp.c ****                 ((mem_ptr_t)mem % MEM_ALIGNMENT) == 0);
 414:Source\LwIP\src\core/memp.c **** 
 415:Source\LwIP\src\core/memp.c ****   /* cast through void* to get rid of alignment warnings */
 416:Source\LwIP\src\core/memp.c ****   memp = (struct memp *)(void *)((u8_t*)mem - MEMP_SIZE);
 173              		.loc 1 416 0
 174 0004 1C39     		subs	r1, r1, #28
 175              	.LVL19:
 176 0006 0C00     		movs	r4, r1
 177              	.LVL20:
 417:Source\LwIP\src\core/memp.c **** 
 418:Source\LwIP\src\core/memp.c ****   SYS_ARCH_PROTECT(old_level);
 178              		.loc 1 418 0
 179 0008 FFF7FEFF 		bl	sys_arch_protect
 180              	.LVL21:
 419:Source\LwIP\src\core/memp.c **** 
 420:Source\LwIP\src\core/memp.c **** #if MEMP_OVERFLOW_CHECK == 1
 421:Source\LwIP\src\core/memp.c ****   memp_overflow_check_element_overflow(memp, desc);
 422:Source\LwIP\src\core/memp.c ****   memp_overflow_check_element_underflow(memp, desc);
 423:Source\LwIP\src\core/memp.c **** #endif /* MEMP_OVERFLOW_CHECK */
 424:Source\LwIP\src\core/memp.c **** 
 425:Source\LwIP\src\core/memp.c **** #if MEMP_STATS
 426:Source\LwIP\src\core/memp.c ****   desc->stats->used--;
 181              		.loc 1 426 0
 182 000c 6A68     		ldr	r2, [r5, #4]
 183 000e D368     		ldr	r3, [r2, #12]
 184 0010 013B     		subs	r3, r3, #1
 185 0012 D360     		str	r3, [r2, #12]
 427:Source\LwIP\src\core/memp.c **** #endif
 428:Source\LwIP\src\core/memp.c **** 
 429:Source\LwIP\src\core/memp.c **** #if MEMP_MEM_MALLOC
 430:Source\LwIP\src\core/memp.c ****   LWIP_UNUSED_ARG(desc);
 431:Source\LwIP\src\core/memp.c ****   SYS_ARCH_UNPROTECT(old_level);
 432:Source\LwIP\src\core/memp.c ****   mem_free(memp);
 433:Source\LwIP\src\core/memp.c **** #else /* MEMP_MEM_MALLOC */
 434:Source\LwIP\src\core/memp.c ****   memp->next = *desc->tab;
 186              		.loc 1 434 0
 187 0014 2B69     		ldr	r3, [r5, #16]
 188 0016 1B68     		ldr	r3, [r3]
 189 0018 2360     		str	r3, [r4]
 435:Source\LwIP\src\core/memp.c ****   *desc->tab = memp;
 190              		.loc 1 435 0
 191 001a 2B69     		ldr	r3, [r5, #16]
 192 001c 1C60     		str	r4, [r3]
ARM GAS  C:\Users\Phuong\AppData\Local\Temp\ccVo7wGq.s 			page 12


 436:Source\LwIP\src\core/memp.c **** 
 437:Source\LwIP\src\core/memp.c **** #if MEMP_SANITY_CHECK
 438:Source\LwIP\src\core/memp.c ****   LWIP_ASSERT("memp sanity", memp_sanity(desc));
 439:Source\LwIP\src\core/memp.c **** #endif /* MEMP_SANITY_CHECK */
 440:Source\LwIP\src\core/memp.c **** 
 441:Source\LwIP\src\core/memp.c ****   SYS_ARCH_UNPROTECT(old_level);
 193              		.loc 1 441 0
 194 001e FFF7FEFF 		bl	sys_arch_unprotect
 195              	.LVL22:
 442:Source\LwIP\src\core/memp.c **** #endif /* !MEMP_MEM_MALLOC */
 443:Source\LwIP\src\core/memp.c **** }
 196              		.loc 1 443 0
 197              		@ sp needed
 198              	.LVL23:
 199              	.LVL24:
 200 0022 70BD     		pop	{r4, r5, r6, pc}
 201              		.cfi_endproc
 202              	.LFE62:
 203              		.size	do_memp_free_pool, .-do_memp_free_pool
 204              		.section	.text.memp_overflow_check_element_overflow,"ax",%progbits
 205              		.align	2
 206              		.code	16
 207              		.thumb_func
 208              		.type	memp_overflow_check_element_overflow, %function
 209              	memp_overflow_check_element_overflow:
 210              	.LFB53:
 129:Source\LwIP\src\core/memp.c **** #if MEMP_SANITY_REGION_AFTER_ALIGNED > 0
 211              		.loc 1 129 0
 212              		.cfi_startproc
 213              		@ args = 0, pretend = 0, frame = 128
 214              		@ frame_needed = 0, uses_anonymous_args = 0
 215              	.LVL25:
 216 0000 F0B5     		push	{r4, r5, r6, r7, lr}
 217              		.cfi_def_cfa_offset 20
 218              		.cfi_offset 4, -20
 219              		.cfi_offset 5, -16
 220              		.cfi_offset 6, -12
 221              		.cfi_offset 7, -8
 222              		.cfi_offset 14, -4
 223 0002 4F46     		mov	r7, r9
 224 0004 4646     		mov	r6, r8
 225 0006 C0B4     		push	{r6, r7}
 226              		.cfi_def_cfa_offset 28
 227              		.cfi_offset 8, -28
 228              		.cfi_offset 9, -24
 229 0008 A1B0     		sub	sp, sp, #132
 230              		.cfi_def_cfa_offset 160
 231 000a 0700     		movs	r7, r0
 232 000c 8846     		mov	r8, r1
 133:Source\LwIP\src\core/memp.c ****   for (k = 0; k < MEMP_SANITY_REGION_AFTER_ALIGNED; k++) {
 233              		.loc 1 133 0
 234 000e 0E89     		ldrh	r6, [r1, #8]
 235 0010 1C23     		movs	r3, #28
 236 0012 9946     		mov	r9, r3
 237 0014 B144     		add	r9, r9, r6
 238              	.LVL26:
 134:Source\LwIP\src\core/memp.c ****     if (m[k] != 0xcd) {
ARM GAS  C:\Users\Phuong\AppData\Local\Temp\ccVo7wGq.s 			page 13


 239              		.loc 1 134 0
 240 0016 0024     		movs	r4, #0
 241 0018 19E0     		b	.L8
 242              	.LVL27:
 243              	.L10:
 135:Source\LwIP\src\core/memp.c ****       char errstr[128] = "detected memp overflow in pool ";
 244              		.loc 1 135 0
 245 001a 4B46     		mov	r3, r9
 246 001c FB18     		adds	r3, r7, r3
 247 001e 1B5D     		ldrb	r3, [r3, r4]
 248 0020 CD2B     		cmp	r3, #205
 249 0022 12D0     		beq	.L9
 250              	.LBB2:
 136:Source\LwIP\src\core/memp.c ****       strcat(errstr, desc->desc);
 251              		.loc 1 136 0
 252 0024 0D49     		ldr	r1, .L11
 253 0026 6B46     		mov	r3, sp
 254 0028 0A00     		movs	r2, r1
 255 002a 43CA     		ldmia	r2!, {r0, r1, r6}
 256 002c 43C3     		stmia	r3!, {r0, r1, r6}
 257 002e 43CA     		ldmia	r2!, {r0, r1, r6}
 258 0030 43C3     		stmia	r3!, {r0, r1, r6}
 259 0032 03CA     		ldmia	r2!, {r0, r1}
 260 0034 03C3     		stmia	r3!, {r0, r1}
 261 0036 6022     		movs	r2, #96
 262 0038 0021     		movs	r1, #0
 263 003a 08A8     		add	r0, sp, #32
 264 003c FFF7FEFF 		bl	memset
 265              	.LVL28:
 137:Source\LwIP\src\core/memp.c ****       LWIP_ASSERT(errstr, 0);
 266              		.loc 1 137 0
 267 0040 4346     		mov	r3, r8
 268 0042 1968     		ldr	r1, [r3]
 269 0044 6846     		mov	r0, sp
 270 0046 FFF7FEFF 		bl	strcat
 271              	.LVL29:
 272              	.L9:
 273              	.LBE2:
 134:Source\LwIP\src\core/memp.c ****     if (m[k] != 0xcd) {
 274              		.loc 1 134 0 discriminator 2
 275 004a 0134     		adds	r4, r4, #1
 276              	.LVL30:
 277 004c A4B2     		uxth	r4, r4
 278              	.LVL31:
 279              	.L8:
 134:Source\LwIP\src\core/memp.c ****     if (m[k] != 0xcd) {
 280              		.loc 1 134 0 is_stmt 0 discriminator 1
 281 004e 0F2C     		cmp	r4, #15
 282 0050 E3D9     		bls	.L10
 145:Source\LwIP\src\core/memp.c **** 
 283              		.loc 1 145 0 is_stmt 1
 284 0052 21B0     		add	sp, sp, #132
 285              		@ sp needed
 286              	.LVL32:
 287              	.LVL33:
 288              	.LVL34:
 289              	.LVL35:
ARM GAS  C:\Users\Phuong\AppData\Local\Temp\ccVo7wGq.s 			page 14


 290 0054 0CBC     		pop	{r2, r3}
 291 0056 9046     		mov	r8, r2
 292 0058 9946     		mov	r9, r3
 293 005a F0BD     		pop	{r4, r5, r6, r7, pc}
 294              	.L12:
 295              		.align	2
 296              	.L11:
 297 005c 00000000 		.word	.LANCHOR0
 298              		.cfi_endproc
 299              	.LFE53:
 300              		.size	memp_overflow_check_element_overflow, .-memp_overflow_check_element_overflow
 301              		.section	.text.memp_overflow_check_element_underflow,"ax",%progbits
 302              		.align	2
 303              		.code	16
 304              		.thumb_func
 305              		.type	memp_overflow_check_element_underflow, %function
 306              	memp_overflow_check_element_underflow:
 307              	.LFB54:
 156:Source\LwIP\src\core/memp.c **** #if MEMP_SANITY_REGION_BEFORE_ALIGNED > 0
 308              		.loc 1 156 0
 309              		.cfi_startproc
 310              		@ args = 0, pretend = 0, frame = 128
 311              		@ frame_needed = 0, uses_anonymous_args = 0
 312              	.LVL36:
 313 0000 F0B5     		push	{r4, r5, r6, r7, lr}
 314              		.cfi_def_cfa_offset 20
 315              		.cfi_offset 4, -20
 316              		.cfi_offset 5, -16
 317              		.cfi_offset 6, -12
 318              		.cfi_offset 7, -8
 319              		.cfi_offset 14, -4
 320 0002 4746     		mov	r7, r8
 321 0004 80B4     		push	{r7}
 322              		.cfi_def_cfa_offset 24
 323              		.cfi_offset 8, -24
 324 0006 A0B0     		sub	sp, sp, #128
 325              		.cfi_def_cfa_offset 152
 326 0008 0600     		movs	r6, r0
 327 000a 8846     		mov	r8, r1
 328              	.LVL37:
 161:Source\LwIP\src\core/memp.c ****     if (m[k] != 0xcd) {
 329              		.loc 1 161 0
 330 000c 0024     		movs	r4, #0
 331 000e 1BE0     		b	.L14
 332              	.LVL38:
 333              	.L16:
 162:Source\LwIP\src\core/memp.c ****       char errstr[128] = "detected memp underflow in pool ";
 334              		.loc 1 162 0
 335 0010 3319     		adds	r3, r6, r4
 336 0012 1B7B     		ldrb	r3, [r3, #12]
 337 0014 CD2B     		cmp	r3, #205
 338 0016 15D0     		beq	.L15
 339              	.LBB3:
 163:Source\LwIP\src\core/memp.c ****       strcat(errstr, desc->desc);
 340              		.loc 1 163 0
 341 0018 0E49     		ldr	r1, .L17
 342 001a 6B46     		mov	r3, sp
ARM GAS  C:\Users\Phuong\AppData\Local\Temp\ccVo7wGq.s 			page 15


 343 001c 0A00     		movs	r2, r1
 344 001e 83CA     		ldmia	r2!, {r0, r1, r7}
 345 0020 83C3     		stmia	r3!, {r0, r1, r7}
 346 0022 83CA     		ldmia	r2!, {r0, r1, r7}
 347 0024 83C3     		stmia	r3!, {r0, r1, r7}
 348 0026 03CA     		ldmia	r2!, {r0, r1}
 349 0028 03C3     		stmia	r3!, {r0, r1}
 350 002a 1278     		ldrb	r2, [r2]
 351 002c 1A70     		strb	r2, [r3]
 352 002e 5F22     		movs	r2, #95
 353 0030 0021     		movs	r1, #0
 354 0032 2120     		movs	r0, #33
 355 0034 6844     		add	r0, r0, sp
 356 0036 FFF7FEFF 		bl	memset
 357              	.LVL39:
 164:Source\LwIP\src\core/memp.c ****       LWIP_ASSERT(errstr, 0);
 358              		.loc 1 164 0
 359 003a 4346     		mov	r3, r8
 360 003c 1968     		ldr	r1, [r3]
 361 003e 6846     		mov	r0, sp
 362 0040 FFF7FEFF 		bl	strcat
 363              	.LVL40:
 364              	.L15:
 365              	.LBE3:
 161:Source\LwIP\src\core/memp.c ****     if (m[k] != 0xcd) {
 366              		.loc 1 161 0 discriminator 2
 367 0044 0134     		adds	r4, r4, #1
 368              	.LVL41:
 369 0046 A4B2     		uxth	r4, r4
 370              	.LVL42:
 371              	.L14:
 161:Source\LwIP\src\core/memp.c ****     if (m[k] != 0xcd) {
 372              		.loc 1 161 0 is_stmt 0 discriminator 1
 373 0048 0F2C     		cmp	r4, #15
 374 004a E1D9     		bls	.L16
 172:Source\LwIP\src\core/memp.c **** 
 375              		.loc 1 172 0 is_stmt 1
 376 004c 20B0     		add	sp, sp, #128
 377              		@ sp needed
 378              	.LVL43:
 379              	.LVL44:
 380              	.LVL45:
 381 004e 04BC     		pop	{r2}
 382 0050 9046     		mov	r8, r2
 383 0052 F0BD     		pop	{r4, r5, r6, r7, pc}
 384              	.L18:
 385              		.align	2
 386              	.L17:
 387 0054 80000000 		.word	.LANCHOR1
 388              		.cfi_endproc
 389              	.LFE54:
 390              		.size	memp_overflow_check_element_underflow, .-memp_overflow_check_element_underflow
 391              		.section	.text.memp_overflow_check_all,"ax",%progbits
 392              		.align	2
 393              		.code	16
 394              		.thumb_func
 395              		.type	memp_overflow_check_all, %function
ARM GAS  C:\Users\Phuong\AppData\Local\Temp\ccVo7wGq.s 			page 16


 396              	memp_overflow_check_all:
 397              	.LFB56:
 204:Source\LwIP\src\core/memp.c ****   u16_t i, j;
 398              		.loc 1 204 0
 399              		.cfi_startproc
 400              		@ args = 0, pretend = 0, frame = 8
 401              		@ frame_needed = 0, uses_anonymous_args = 0
 402 0000 F0B5     		push	{r4, r5, r6, r7, lr}
 403              		.cfi_def_cfa_offset 20
 404              		.cfi_offset 4, -20
 405              		.cfi_offset 5, -16
 406              		.cfi_offset 6, -12
 407              		.cfi_offset 7, -8
 408              		.cfi_offset 14, -4
 409 0002 83B0     		sub	sp, sp, #12
 410              		.cfi_def_cfa_offset 32
 208:Source\LwIP\src\core/memp.c **** 
 411              		.loc 1 208 0
 412 0004 FFF7FEFF 		bl	sys_arch_protect
 413              	.LVL46:
 414 0008 0190     		str	r0, [sp, #4]
 415              	.LVL47:
 210:Source\LwIP\src\core/memp.c ****     p = (struct memp*)LWIP_MEM_ALIGN(memp_pools[i]->base);
 416              		.loc 1 210 0
 417 000a 0026     		movs	r6, #0
 418 000c 1AE0     		b	.L20
 419              	.LVL48:
 420              	.L23:
 211:Source\LwIP\src\core/memp.c ****     for (j = 0; j < memp_pools[i]->num; ++j) {
 421              		.loc 1 211 0
 422 000e B300     		lsls	r3, r6, #2
 423 0010 104A     		ldr	r2, .L24
 424 0012 9F58     		ldr	r7, [r3, r2]
 425 0014 FB68     		ldr	r3, [r7, #12]
 426 0016 DD1C     		adds	r5, r3, #3
 427 0018 0323     		movs	r3, #3
 428 001a 9D43     		bics	r5, r3
 429              	.LVL49:
 212:Source\LwIP\src\core/memp.c ****       memp_overflow_check_element_overflow(p, memp_pools[i]);
 430              		.loc 1 212 0
 431 001c 0024     		movs	r4, #0
 432 001e 0CE0     		b	.L21
 433              	.LVL50:
 434              	.L22:
 213:Source\LwIP\src\core/memp.c ****       memp_overflow_check_element_underflow(p, memp_pools[i]);
 435              		.loc 1 213 0 discriminator 3
 436 0020 3900     		movs	r1, r7
 437 0022 2800     		movs	r0, r5
 438 0024 FFF7FEFF 		bl	memp_overflow_check_element_overflow
 439              	.LVL51:
 214:Source\LwIP\src\core/memp.c ****       p = LWIP_ALIGNMENT_CAST(struct memp*, ((u8_t*)p + MEMP_SIZE + memp_pools[i]->size + MEMP_SANI
 440              		.loc 1 214 0 discriminator 3
 441 0028 3900     		movs	r1, r7
 442 002a 2800     		movs	r0, r5
 443 002c FFF7FEFF 		bl	memp_overflow_check_element_underflow
 444              	.LVL52:
 215:Source\LwIP\src\core/memp.c ****     }
ARM GAS  C:\Users\Phuong\AppData\Local\Temp\ccVo7wGq.s 			page 17


 445              		.loc 1 215 0 discriminator 3
 446 0030 3B89     		ldrh	r3, [r7, #8]
 447 0032 2C33     		adds	r3, r3, #44
 448 0034 ED18     		adds	r5, r5, r3
 449              	.LVL53:
 212:Source\LwIP\src\core/memp.c ****       memp_overflow_check_element_overflow(p, memp_pools[i]);
 450              		.loc 1 212 0 discriminator 3
 451 0036 0134     		adds	r4, r4, #1
 452              	.LVL54:
 453 0038 A4B2     		uxth	r4, r4
 454              	.LVL55:
 455              	.L21:
 212:Source\LwIP\src\core/memp.c ****       memp_overflow_check_element_overflow(p, memp_pools[i]);
 456              		.loc 1 212 0 is_stmt 0 discriminator 1
 457 003a 7B89     		ldrh	r3, [r7, #10]
 458 003c 9C42     		cmp	r4, r3
 459 003e EFD3     		bcc	.L22
 210:Source\LwIP\src\core/memp.c ****     p = (struct memp*)LWIP_MEM_ALIGN(memp_pools[i]->base);
 460              		.loc 1 210 0 is_stmt 1 discriminator 2
 461 0040 731C     		adds	r3, r6, #1
 462 0042 9EB2     		uxth	r6, r3
 463              	.LVL56:
 464              	.L20:
 210:Source\LwIP\src\core/memp.c ****     p = (struct memp*)LWIP_MEM_ALIGN(memp_pools[i]->base);
 465              		.loc 1 210 0 is_stmt 0 discriminator 1
 466 0044 0F2E     		cmp	r6, #15
 467 0046 E2D9     		bls	.L23
 218:Source\LwIP\src\core/memp.c **** }
 468              		.loc 1 218 0 is_stmt 1
 469 0048 0198     		ldr	r0, [sp, #4]
 470 004a FFF7FEFF 		bl	sys_arch_unprotect
 471              	.LVL57:
 219:Source\LwIP\src\core/memp.c **** #endif /* MEMP_OVERFLOW_CHECK >= 2 */
 472              		.loc 1 219 0
 473 004e 03B0     		add	sp, sp, #12
 474              		@ sp needed
 475              	.LVL58:
 476 0050 F0BD     		pop	{r4, r5, r6, r7, pc}
 477              	.L25:
 478 0052 C046     		.align	2
 479              	.L24:
 480 0054 00010000 		.word	.LANCHOR2
 481              		.cfi_endproc
 482              	.LFE56:
 483              		.size	memp_overflow_check_all, .-memp_overflow_check_all
 484              		.section	.text.memp_init_pool,"ax",%progbits
 485              		.align	2
 486              		.global	memp_init_pool
 487              		.code	16
 488              		.thumb_func
 489              		.type	memp_init_pool, %function
 490              	memp_init_pool:
 491              	.LFB57:
 231:Source\LwIP\src\core/memp.c **** #if MEMP_MEM_MALLOC
 492              		.loc 1 231 0
 493              		.cfi_startproc
 494              		@ args = 0, pretend = 0, frame = 0
ARM GAS  C:\Users\Phuong\AppData\Local\Temp\ccVo7wGq.s 			page 18


 495              		@ frame_needed = 0, uses_anonymous_args = 0
 496              	.LVL59:
 497 0000 70B5     		push	{r4, r5, r6, lr}
 498              		.cfi_def_cfa_offset 16
 499              		.cfi_offset 4, -16
 500              		.cfi_offset 5, -12
 501              		.cfi_offset 6, -8
 502              		.cfi_offset 14, -4
 503 0002 0400     		movs	r4, r0
 238:Source\LwIP\src\core/memp.c ****   memp = (struct memp*)LWIP_MEM_ALIGN(desc->base);
 504              		.loc 1 238 0
 505 0004 0369     		ldr	r3, [r0, #16]
 506 0006 0022     		movs	r2, #0
 507 0008 1A60     		str	r2, [r3]
 239:Source\LwIP\src\core/memp.c ****   /* create a linked list of memp elements */
 508              		.loc 1 239 0
 509 000a C368     		ldr	r3, [r0, #12]
 510 000c DD1C     		adds	r5, r3, #3
 511 000e 0323     		movs	r3, #3
 512 0010 9D43     		bics	r5, r3
 513              	.LVL60:
 241:Source\LwIP\src\core/memp.c ****     memp->next = *desc->tab;
 514              		.loc 1 241 0
 515 0012 0026     		movs	r6, #0
 516 0014 0CE0     		b	.L27
 517              	.LVL61:
 518              	.L28:
 242:Source\LwIP\src\core/memp.c ****     *desc->tab = memp;
 519              		.loc 1 242 0 discriminator 3
 520 0016 2369     		ldr	r3, [r4, #16]
 521 0018 1B68     		ldr	r3, [r3]
 522 001a 2B60     		str	r3, [r5]
 243:Source\LwIP\src\core/memp.c **** #if MEMP_OVERFLOW_CHECK
 523              		.loc 1 243 0 discriminator 3
 524 001c 2369     		ldr	r3, [r4, #16]
 525 001e 1D60     		str	r5, [r3]
 245:Source\LwIP\src\core/memp.c **** #endif /* MEMP_OVERFLOW_CHECK */
 526              		.loc 1 245 0 discriminator 3
 527 0020 2100     		movs	r1, r4
 528 0022 2800     		movs	r0, r5
 529 0024 FFF7FEFF 		bl	memp_overflow_init_element
 530              	.LVL62:
 248:Source\LwIP\src\core/memp.c **** #if MEMP_OVERFLOW_CHECK
 531              		.loc 1 248 0 discriminator 3
 532 0028 2389     		ldrh	r3, [r4, #8]
 250:Source\LwIP\src\core/memp.c **** #endif
 533              		.loc 1 250 0 discriminator 3
 534 002a 2C33     		adds	r3, r3, #44
 248:Source\LwIP\src\core/memp.c **** #if MEMP_OVERFLOW_CHECK
 535              		.loc 1 248 0 discriminator 3
 536 002c ED18     		adds	r5, r5, r3
 537              	.LVL63:
 241:Source\LwIP\src\core/memp.c ****     memp->next = *desc->tab;
 538              		.loc 1 241 0 discriminator 3
 539 002e 0136     		adds	r6, r6, #1
 540              	.LVL64:
 541              	.L27:
ARM GAS  C:\Users\Phuong\AppData\Local\Temp\ccVo7wGq.s 			page 19


 241:Source\LwIP\src\core/memp.c ****     memp->next = *desc->tab;
 542              		.loc 1 241 0 is_stmt 0 discriminator 1
 543 0030 6389     		ldrh	r3, [r4, #10]
 544 0032 9E42     		cmp	r6, r3
 545 0034 EFDB     		blt	.L28
 255:Source\LwIP\src\core/memp.c **** #endif /* MEMP_STATS */
 546              		.loc 1 255 0 is_stmt 1
 547 0036 6268     		ldr	r2, [r4, #4]
 548 0038 9360     		str	r3, [r2, #8]
 260:Source\LwIP\src\core/memp.c **** #endif /* MEMP_STATS && (defined(LWIP_DEBUG) || LWIP_STATS_DISPLAY) */
 549              		.loc 1 260 0
 550 003a 6368     		ldr	r3, [r4, #4]
 551 003c 2268     		ldr	r2, [r4]
 552 003e 1A60     		str	r2, [r3]
 262:Source\LwIP\src\core/memp.c **** 
 553              		.loc 1 262 0
 554              		@ sp needed
 555              	.LVL65:
 556              	.LVL66:
 557              	.LVL67:
 558 0040 70BD     		pop	{r4, r5, r6, pc}
 559              		.cfi_endproc
 560              	.LFE57:
 561              		.size	memp_init_pool, .-memp_init_pool
 562 0042 C046     		.section	.text.memp_init,"ax",%progbits
 563              		.align	2
 564              		.global	memp_init
 565              		.code	16
 566              		.thumb_func
 567              		.type	memp_init, %function
 568              	memp_init:
 569              	.LFB58:
 272:Source\LwIP\src\core/memp.c ****   u16_t i;
 570              		.loc 1 272 0
 571              		.cfi_startproc
 572              		@ args = 0, pretend = 0, frame = 0
 573              		@ frame_needed = 0, uses_anonymous_args = 0
 574 0000 70B5     		push	{r4, r5, r6, lr}
 575              		.cfi_def_cfa_offset 16
 576              		.cfi_offset 4, -16
 577              		.cfi_offset 5, -12
 578              		.cfi_offset 6, -8
 579              		.cfi_offset 14, -4
 580              	.LVL68:
 276:Source\LwIP\src\core/memp.c ****     memp_init_pool(memp_pools[i]);
 581              		.loc 1 276 0
 582 0002 0024     		movs	r4, #0
 583 0004 0EE0     		b	.L30
 584              	.LVL69:
 585              	.L31:
 277:Source\LwIP\src\core/memp.c **** 
 586              		.loc 1 277 0 discriminator 3
 587 0006 A200     		lsls	r2, r4, #2
 588 0008 094B     		ldr	r3, .L32
 589 000a D558     		ldr	r5, [r2, r3]
 590 000c 2800     		movs	r0, r5
 591 000e FFF7FEFF 		bl	memp_init_pool
ARM GAS  C:\Users\Phuong\AppData\Local\Temp\ccVo7wGq.s 			page 20


 592              	.LVL70:
 280:Source\LwIP\src\core/memp.c **** #endif
 593              		.loc 1 280 0 discriminator 3
 594 0012 6A68     		ldr	r2, [r5, #4]
 595 0014 2300     		movs	r3, r4
 596 0016 3033     		adds	r3, r3, #48
 597 0018 9B00     		lsls	r3, r3, #2
 598 001a 0649     		ldr	r1, .L32+4
 599 001c CB18     		adds	r3, r1, r3
 600 001e 5A60     		str	r2, [r3, #4]
 276:Source\LwIP\src\core/memp.c ****     memp_init_pool(memp_pools[i]);
 601              		.loc 1 276 0 discriminator 3
 602 0020 0134     		adds	r4, r4, #1
 603              	.LVL71:
 604 0022 A4B2     		uxth	r4, r4
 605              	.LVL72:
 606              	.L30:
 276:Source\LwIP\src\core/memp.c ****     memp_init_pool(memp_pools[i]);
 607              		.loc 1 276 0 is_stmt 0 discriminator 1
 608 0024 0F2C     		cmp	r4, #15
 609 0026 EED9     		bls	.L31
 286:Source\LwIP\src\core/memp.c **** #endif /* MEMP_OVERFLOW_CHECK >= 2 */
 610              		.loc 1 286 0 is_stmt 1
 611 0028 FFF7FEFF 		bl	memp_overflow_check_all
 612              	.LVL73:
 288:Source\LwIP\src\core/memp.c **** 
 613              		.loc 1 288 0
 614              		@ sp needed
 615              	.LVL74:
 616 002c 70BD     		pop	{r4, r5, r6, pc}
 617              	.L33:
 618 002e C046     		.align	2
 619              	.L32:
 620 0030 00010000 		.word	.LANCHOR2
 621 0034 00000000 		.word	lwip_stats
 622              		.cfi_endproc
 623              	.LFE58:
 624              		.size	memp_init, .-memp_init
 625              		.section	.text.memp_malloc_pool_fn,"ax",%progbits
 626              		.align	2
 627              		.global	memp_malloc_pool_fn
 628              		.code	16
 629              		.thumb_func
 630              		.type	memp_malloc_pool_fn, %function
 631              	memp_malloc_pool_fn:
 632              	.LFB60:
 363:Source\LwIP\src\core/memp.c ****   LWIP_ASSERT("invalid pool desc", desc != NULL);
 633              		.loc 1 363 0
 634              		.cfi_startproc
 635              		@ args = 0, pretend = 0, frame = 0
 636              		@ frame_needed = 0, uses_anonymous_args = 0
 637              	.LVL75:
 638 0000 10B5     		push	{r4, lr}
 639              		.cfi_def_cfa_offset 8
 640              		.cfi_offset 4, -8
 641              		.cfi_offset 14, -4
 365:Source\LwIP\src\core/memp.c ****     return NULL;
ARM GAS  C:\Users\Phuong\AppData\Local\Temp\ccVo7wGq.s 			page 21


 642              		.loc 1 365 0
 643 0002 0028     		cmp	r0, #0
 644 0004 02D0     		beq	.L36
 372:Source\LwIP\src\core/memp.c **** #endif
 645              		.loc 1 372 0
 646 0006 FFF7FEFF 		bl	do_memp_malloc_pool_fn
 647              	.LVL76:
 648 000a 00E0     		b	.L35
 649              	.LVL77:
 650              	.L36:
 366:Source\LwIP\src\core/memp.c ****   }
 651              		.loc 1 366 0
 652 000c 0020     		movs	r0, #0
 653              	.LVL78:
 654              	.L35:
 374:Source\LwIP\src\core/memp.c **** 
 655              		.loc 1 374 0
 656              		@ sp needed
 657 000e 10BD     		pop	{r4, pc}
 658              		.cfi_endproc
 659              	.LFE60:
 660              		.size	memp_malloc_pool_fn, .-memp_malloc_pool_fn
 661              		.section	.text.memp_malloc_fn,"ax",%progbits
 662              		.align	2
 663              		.global	memp_malloc_fn
 664              		.code	16
 665              		.thumb_func
 666              		.type	memp_malloc_fn, %function
 667              	memp_malloc_fn:
 668              	.LFB61:
 389:Source\LwIP\src\core/memp.c ****   void *memp;
 669              		.loc 1 389 0
 670              		.cfi_startproc
 671              		@ args = 0, pretend = 0, frame = 0
 672              		@ frame_needed = 0, uses_anonymous_args = 0
 673              	.LVL79:
 674 0000 70B5     		push	{r4, r5, r6, lr}
 675              		.cfi_def_cfa_offset 16
 676              		.cfi_offset 4, -16
 677              		.cfi_offset 5, -12
 678              		.cfi_offset 6, -8
 679              		.cfi_offset 14, -4
 680 0002 0400     		movs	r4, r0
 681 0004 0D00     		movs	r5, r1
 682 0006 1600     		movs	r6, r2
 391:Source\LwIP\src\core/memp.c **** 
 683              		.loc 1 391 0
 684 0008 0F28     		cmp	r0, #15
 685 000a 09D8     		bhi	.L39
 394:Source\LwIP\src\core/memp.c **** #endif /* MEMP_OVERFLOW_CHECK >= 2 */
 686              		.loc 1 394 0
 687 000c FFF7FEFF 		bl	memp_overflow_check_all
 688              	.LVL80:
 400:Source\LwIP\src\core/memp.c **** #endif
 689              		.loc 1 400 0
 690 0010 A400     		lsls	r4, r4, #2
 691 0012 044B     		ldr	r3, .L40
ARM GAS  C:\Users\Phuong\AppData\Local\Temp\ccVo7wGq.s 			page 22


 692 0014 E058     		ldr	r0, [r4, r3]
 693 0016 3200     		movs	r2, r6
 694 0018 2900     		movs	r1, r5
 695 001a FFF7FEFF 		bl	do_memp_malloc_pool_fn
 696              	.LVL81:
 403:Source\LwIP\src\core/memp.c **** }
 697              		.loc 1 403 0
 698 001e 00E0     		b	.L38
 699              	.LVL82:
 700              	.L39:
 391:Source\LwIP\src\core/memp.c **** 
 701              		.loc 1 391 0
 702 0020 0020     		movs	r0, #0
 703              	.LVL83:
 704              	.L38:
 404:Source\LwIP\src\core/memp.c **** 
 705              		.loc 1 404 0
 706              		@ sp needed
 707              	.LVL84:
 708              	.LVL85:
 709 0022 70BD     		pop	{r4, r5, r6, pc}
 710              	.L41:
 711              		.align	2
 712              	.L40:
 713 0024 00010000 		.word	.LANCHOR2
 714              		.cfi_endproc
 715              	.LFE61:
 716              		.size	memp_malloc_fn, .-memp_malloc_fn
 717              		.section	.text.memp_free_pool,"ax",%progbits
 718              		.align	2
 719              		.global	memp_free_pool
 720              		.code	16
 721              		.thumb_func
 722              		.type	memp_free_pool, %function
 723              	memp_free_pool:
 724              	.LFB63:
 444:Source\LwIP\src\core/memp.c **** 
 445:Source\LwIP\src\core/memp.c **** /**
 446:Source\LwIP\src\core/memp.c ****  * Put a custom pool element back into its pool.
 447:Source\LwIP\src\core/memp.c ****  *
 448:Source\LwIP\src\core/memp.c ****  * @param desc the pool where to put mem
 449:Source\LwIP\src\core/memp.c ****  * @param mem the memp element to free
 450:Source\LwIP\src\core/memp.c ****  */
 451:Source\LwIP\src\core/memp.c **** void
 452:Source\LwIP\src\core/memp.c **** memp_free_pool(const struct memp_desc* desc, void *mem)
 453:Source\LwIP\src\core/memp.c **** {
 725              		.loc 1 453 0
 726              		.cfi_startproc
 727              		@ args = 0, pretend = 0, frame = 0
 728              		@ frame_needed = 0, uses_anonymous_args = 0
 729              	.LVL86:
 730 0000 10B5     		push	{r4, lr}
 731              		.cfi_def_cfa_offset 8
 732              		.cfi_offset 4, -8
 733              		.cfi_offset 14, -4
 454:Source\LwIP\src\core/memp.c ****   LWIP_ASSERT("invalid pool desc", desc != NULL);
 455:Source\LwIP\src\core/memp.c ****   if ((desc == NULL) || (mem == NULL)) {
ARM GAS  C:\Users\Phuong\AppData\Local\Temp\ccVo7wGq.s 			page 23


 734              		.loc 1 455 0
 735 0002 0028     		cmp	r0, #0
 736 0004 03D0     		beq	.L42
 737              		.loc 1 455 0 is_stmt 0 discriminator 1
 738 0006 0029     		cmp	r1, #0
 739 0008 01D0     		beq	.L42
 456:Source\LwIP\src\core/memp.c ****     return;
 457:Source\LwIP\src\core/memp.c ****   }
 458:Source\LwIP\src\core/memp.c **** 
 459:Source\LwIP\src\core/memp.c ****   do_memp_free_pool(desc, mem);
 740              		.loc 1 459 0 is_stmt 1
 741 000a FFF7FEFF 		bl	do_memp_free_pool
 742              	.LVL87:
 743              	.L42:
 460:Source\LwIP\src\core/memp.c **** }
 744              		.loc 1 460 0
 745              		@ sp needed
 746 000e 10BD     		pop	{r4, pc}
 747              		.cfi_endproc
 748              	.LFE63:
 749              		.size	memp_free_pool, .-memp_free_pool
 750              		.section	.text.memp_free,"ax",%progbits
 751              		.align	2
 752              		.global	memp_free
 753              		.code	16
 754              		.thumb_func
 755              		.type	memp_free, %function
 756              	memp_free:
 757              	.LFB64:
 461:Source\LwIP\src\core/memp.c **** 
 462:Source\LwIP\src\core/memp.c **** /**
 463:Source\LwIP\src\core/memp.c ****  * Put an element back into its pool.
 464:Source\LwIP\src\core/memp.c ****  *
 465:Source\LwIP\src\core/memp.c ****  * @param type the pool where to put mem
 466:Source\LwIP\src\core/memp.c ****  * @param mem the memp element to free
 467:Source\LwIP\src\core/memp.c ****  */
 468:Source\LwIP\src\core/memp.c **** void
 469:Source\LwIP\src\core/memp.c **** memp_free(memp_t type, void *mem)
 470:Source\LwIP\src\core/memp.c **** {
 758              		.loc 1 470 0
 759              		.cfi_startproc
 760              		@ args = 0, pretend = 0, frame = 0
 761              		@ frame_needed = 0, uses_anonymous_args = 0
 762              	.LVL88:
 763 0000 70B5     		push	{r4, r5, r6, lr}
 764              		.cfi_def_cfa_offset 16
 765              		.cfi_offset 4, -16
 766              		.cfi_offset 5, -12
 767              		.cfi_offset 6, -8
 768              		.cfi_offset 14, -4
 769 0002 0400     		movs	r4, r0
 770 0004 0D00     		movs	r5, r1
 471:Source\LwIP\src\core/memp.c **** #ifdef LWIP_HOOK_MEMP_AVAILABLE
 472:Source\LwIP\src\core/memp.c ****   struct memp *old_first;
 473:Source\LwIP\src\core/memp.c **** #endif
 474:Source\LwIP\src\core/memp.c **** 
 475:Source\LwIP\src\core/memp.c ****   LWIP_ERROR("memp_free: type < MEMP_MAX", (type < MEMP_MAX), return;);
ARM GAS  C:\Users\Phuong\AppData\Local\Temp\ccVo7wGq.s 			page 24


 771              		.loc 1 475 0
 772 0006 0F28     		cmp	r0, #15
 773 0008 09D8     		bhi	.L44
 476:Source\LwIP\src\core/memp.c **** 
 477:Source\LwIP\src\core/memp.c ****   if (mem == NULL) {
 774              		.loc 1 477 0
 775 000a 0029     		cmp	r1, #0
 776 000c 07D0     		beq	.L44
 478:Source\LwIP\src\core/memp.c ****     return;
 479:Source\LwIP\src\core/memp.c ****   }
 480:Source\LwIP\src\core/memp.c **** 
 481:Source\LwIP\src\core/memp.c **** #if MEMP_OVERFLOW_CHECK >= 2
 482:Source\LwIP\src\core/memp.c ****   memp_overflow_check_all();
 777              		.loc 1 482 0
 778 000e FFF7FEFF 		bl	memp_overflow_check_all
 779              	.LVL89:
 483:Source\LwIP\src\core/memp.c **** #endif /* MEMP_OVERFLOW_CHECK >= 2 */
 484:Source\LwIP\src\core/memp.c **** 
 485:Source\LwIP\src\core/memp.c **** #ifdef LWIP_HOOK_MEMP_AVAILABLE
 486:Source\LwIP\src\core/memp.c ****   old_first = *memp_pools[type]->tab;
 487:Source\LwIP\src\core/memp.c **** #endif
 488:Source\LwIP\src\core/memp.c **** 
 489:Source\LwIP\src\core/memp.c ****   do_memp_free_pool(memp_pools[type], mem);
 780              		.loc 1 489 0
 781 0012 A400     		lsls	r4, r4, #2
 782 0014 024B     		ldr	r3, .L46
 783 0016 E058     		ldr	r0, [r4, r3]
 784 0018 2900     		movs	r1, r5
 785 001a FFF7FEFF 		bl	do_memp_free_pool
 786              	.LVL90:
 787              	.L44:
 490:Source\LwIP\src\core/memp.c **** 
 491:Source\LwIP\src\core/memp.c **** #ifdef LWIP_HOOK_MEMP_AVAILABLE
 492:Source\LwIP\src\core/memp.c ****   if (old_first == NULL) {
 493:Source\LwIP\src\core/memp.c ****     LWIP_HOOK_MEMP_AVAILABLE(type);
 494:Source\LwIP\src\core/memp.c ****   }
 495:Source\LwIP\src\core/memp.c **** #endif
 496:Source\LwIP\src\core/memp.c **** }
 788              		.loc 1 496 0
 789              		@ sp needed
 790              	.LVL91:
 791 001e 70BD     		pop	{r4, r5, r6, pc}
 792              	.L47:
 793              		.align	2
 794              	.L46:
 795 0020 00010000 		.word	.LANCHOR2
 796              		.cfi_endproc
 797              	.LFE64:
 798              		.size	memp_free, .-memp_free
 799              		.global	memp_pools
 800              		.global	memp_PBUF_POOL
 801              		.comm	memp_memory_PBUF_POOL_base,26499,4
 802              		.global	memp_PBUF
 803              		.comm	memp_memory_PBUF_base,1475,4
 804              		.global	memp_NETDB
 805              		.comm	memp_memory_NETDB_base,355,4
 806              		.global	memp_SYS_TIMEOUT
ARM GAS  C:\Users\Phuong\AppData\Local\Temp\ccVo7wGq.s 			page 25


 807              		.comm	memp_memory_SYS_TIMEOUT_base,423,4
 808              		.global	memp_IGMP_GROUP
 809              		.comm	memp_memory_IGMP_GROUP_base,483,4
 810              		.global	memp_ARP_QUEUE
 811              		.comm	memp_memory_ARP_QUEUE_base,263,4
 812              		.global	memp_TCPIP_MSG_INPKT
 813              		.comm	memp_memory_TCPIP_MSG_INPKT_base,483,4
 814              		.global	memp_TCPIP_MSG_API
 815              		.comm	memp_memory_TCPIP_MSG_API_base,483,4
 816              		.global	memp_NETCONN
 817              		.comm	memp_memory_NETCONN_base,1659,4
 818              		.global	memp_NETBUF
 819              		.comm	memp_memory_NETBUF_base,843,4
 820              		.global	memp_REASSDATA
 821              		.comm	memp_memory_REASSDATA_base,307,4
 822              		.global	memp_TCP_SEG
 823              		.comm	memp_memory_TCP_SEG_base,1603,4
 824              		.global	memp_TCP_PCB_LISTEN
 825              		.comm	memp_memory_TCP_PCB_LISTEN_base,611,4
 826              		.global	memp_TCP_PCB
 827              		.comm	memp_memory_TCP_PCB_base,1023,4
 828              		.global	memp_UDP_PCB
 829              		.comm	memp_memory_UDP_PCB_base,843,4
 830              		.global	memp_RAW_PCB
 831              		.comm	memp_memory_RAW_PCB_base,291,4
 832              		.section	.rodata
 833              		.align	2
 834              		.set	.LANCHOR0,. + 0
 835              		.set	.LANCHOR1,. + 128
 836              		.set	.LANCHOR2,. + 256
 837              	.LC0:
 838 0000 64657465 		.ascii	"detected memp overflow in pool \000"
 838      63746564 
 838      206D656D 
 838      70206F76 
 838      6572666C 
 839 0020 00000000 		.space	96
 839      00000000 
 839      00000000 
 839      00000000 
 839      00000000 
 840              	.LC2:
 841 0080 64657465 		.ascii	"detected memp underflow in pool \000"
 841      63746564 
 841      206D656D 
 841      7020756E 
 841      64657266 
 842 00a1 00000000 		.space	95
 842      00000000 
 842      00000000 
 842      00000000 
 842      00000000 
 843              		.type	memp_pools, %object
 844              		.size	memp_pools, 64
 845              	memp_pools:
 846 0100 00000000 		.word	memp_RAW_PCB
 847 0104 00000000 		.word	memp_UDP_PCB
ARM GAS  C:\Users\Phuong\AppData\Local\Temp\ccVo7wGq.s 			page 26


 848 0108 00000000 		.word	memp_TCP_PCB
 849 010c 00000000 		.word	memp_TCP_PCB_LISTEN
 850 0110 00000000 		.word	memp_TCP_SEG
 851 0114 00000000 		.word	memp_REASSDATA
 852 0118 00000000 		.word	memp_NETBUF
 853 011c 00000000 		.word	memp_NETCONN
 854 0120 00000000 		.word	memp_TCPIP_MSG_API
 855 0124 00000000 		.word	memp_TCPIP_MSG_INPKT
 856 0128 00000000 		.word	memp_ARP_QUEUE
 857 012c 00000000 		.word	memp_IGMP_GROUP
 858 0130 00000000 		.word	memp_SYS_TIMEOUT
 859 0134 00000000 		.word	memp_NETDB
 860 0138 00000000 		.word	memp_PBUF
 861 013c 00000000 		.word	memp_PBUF_POOL
 862              		.type	memp_PBUF_POOL, %object
 863              		.size	memp_PBUF_POOL, 20
 864              	memp_PBUF_POOL:
 865 0140 00000000 		.word	.LC9
 866 0144 04000000 		.word	memp_stats_PBUF_POOL
 867 0148 4C06     		.short	1612
 868 014a 1000     		.short	16
 869 014c 00000000 		.word	memp_memory_PBUF_POOL_base
 870 0150 00000000 		.word	memp_tab_PBUF_POOL
 871              		.type	memp_PBUF, %object
 872              		.size	memp_PBUF, 20
 873              	memp_PBUF:
 874 0154 0C000000 		.word	.LC10
 875 0158 20000000 		.word	memp_stats_PBUF
 876 015c 3000     		.short	48
 877 015e 1000     		.short	16
 878 0160 00000000 		.word	memp_memory_PBUF_base
 879 0164 1C000000 		.word	memp_tab_PBUF
 880              		.type	memp_NETDB, %object
 881              		.size	memp_NETDB, 20
 882              	memp_NETDB:
 883 0168 1C000000 		.word	.LC11
 884 016c 3C000000 		.word	memp_stats_NETDB
 885 0170 3401     		.short	308
 886 0172 0100     		.short	1
 887 0174 00000000 		.word	memp_memory_NETDB_base
 888 0178 38000000 		.word	memp_tab_NETDB
 889              		.type	memp_SYS_TIMEOUT, %object
 890              		.size	memp_SYS_TIMEOUT, 20
 891              	memp_SYS_TIMEOUT:
 892 017c 24000000 		.word	.LC12
 893 0180 58000000 		.word	memp_stats_SYS_TIMEOUT
 894 0184 1000     		.short	16
 895 0186 0700     		.short	7
 896 0188 00000000 		.word	memp_memory_SYS_TIMEOUT_base
 897 018c 54000000 		.word	memp_tab_SYS_TIMEOUT
 898              		.type	memp_IGMP_GROUP, %object
 899              		.size	memp_IGMP_GROUP, 20
 900              	memp_IGMP_GROUP:
 901 0190 30000000 		.word	.LC13
 902 0194 74000000 		.word	memp_stats_IGMP_GROUP
 903 0198 1000     		.short	16
 904 019a 0800     		.short	8
ARM GAS  C:\Users\Phuong\AppData\Local\Temp\ccVo7wGq.s 			page 27


 905 019c 00000000 		.word	memp_memory_IGMP_GROUP_base
 906 01a0 70000000 		.word	memp_tab_IGMP_GROUP
 907              		.type	memp_ARP_QUEUE, %object
 908              		.size	memp_ARP_QUEUE, 20
 909              	memp_ARP_QUEUE:
 910 01a4 3C000000 		.word	.LC14
 911 01a8 90000000 		.word	memp_stats_ARP_QUEUE
 912 01ac 0800     		.short	8
 913 01ae 0500     		.short	5
 914 01b0 00000000 		.word	memp_memory_ARP_QUEUE_base
 915 01b4 8C000000 		.word	memp_tab_ARP_QUEUE
 916              		.type	memp_TCPIP_MSG_INPKT, %object
 917              		.size	memp_TCPIP_MSG_INPKT, 20
 918              	memp_TCPIP_MSG_INPKT:
 919 01b8 48000000 		.word	.LC15
 920 01bc AC000000 		.word	memp_stats_TCPIP_MSG_INPKT
 921 01c0 1000     		.short	16
 922 01c2 0800     		.short	8
 923 01c4 00000000 		.word	memp_memory_TCPIP_MSG_INPKT_base
 924 01c8 A8000000 		.word	memp_tab_TCPIP_MSG_INPKT
 925              		.type	memp_TCPIP_MSG_API, %object
 926              		.size	memp_TCPIP_MSG_API, 20
 927              	memp_TCPIP_MSG_API:
 928 01cc 58000000 		.word	.LC16
 929 01d0 C8000000 		.word	memp_stats_TCPIP_MSG_API
 930 01d4 1000     		.short	16
 931 01d6 0800     		.short	8
 932 01d8 00000000 		.word	memp_memory_TCPIP_MSG_API_base
 933 01dc C4000000 		.word	memp_tab_TCPIP_MSG_API
 934              		.type	memp_NETCONN, %object
 935              		.size	memp_NETCONN, 20
 936              	memp_NETCONN:
 937 01e0 68000000 		.word	.LC17
 938 01e4 E4000000 		.word	memp_stats_NETCONN
 939 01e8 3000     		.short	48
 940 01ea 1200     		.short	18
 941 01ec 00000000 		.word	memp_memory_NETCONN_base
 942 01f0 E0000000 		.word	memp_tab_NETCONN
 943              		.type	memp_NETBUF, %object
 944              		.size	memp_NETBUF, 20
 945              	memp_NETBUF:
 946 01f4 70000000 		.word	.LC18
 947 01f8 00010000 		.word	memp_stats_NETBUF
 948 01fc 1000     		.short	16
 949 01fe 0E00     		.short	14
 950 0200 00000000 		.word	memp_memory_NETBUF_base
 951 0204 FC000000 		.word	memp_tab_NETBUF
 952              		.type	memp_REASSDATA, %object
 953              		.size	memp_REASSDATA, 20
 954              	memp_REASSDATA:
 955 0208 78000000 		.word	.LC19
 956 020c 1C010000 		.word	memp_stats_REASSDATA
 957 0210 2000     		.short	32
 958 0212 0400     		.short	4
 959 0214 00000000 		.word	memp_memory_REASSDATA_base
 960 0218 18010000 		.word	memp_tab_REASSDATA
 961              		.type	memp_TCP_SEG, %object
ARM GAS  C:\Users\Phuong\AppData\Local\Temp\ccVo7wGq.s 			page 28


 962              		.size	memp_TCP_SEG, 20
 963              	memp_TCP_SEG:
 964 021c 84000000 		.word	.LC20
 965 0220 38010000 		.word	memp_stats_TCP_SEG
 966 0224 1400     		.short	20
 967 0226 1900     		.short	25
 968 0228 00000000 		.word	memp_memory_TCP_SEG_base
 969 022c 34010000 		.word	memp_tab_TCP_SEG
 970              		.type	memp_TCP_PCB_LISTEN, %object
 971              		.size	memp_TCP_PCB_LISTEN, 20
 972              	memp_TCP_PCB_LISTEN:
 973 0230 8C000000 		.word	.LC21
 974 0234 54010000 		.word	memp_stats_TCP_PCB_LISTEN
 975 0238 2000     		.short	32
 976 023a 0800     		.short	8
 977 023c 00000000 		.word	memp_memory_TCP_PCB_LISTEN_base
 978 0240 50010000 		.word	memp_tab_TCP_PCB_LISTEN
 979              		.type	memp_TCP_PCB, %object
 980              		.size	memp_TCP_PCB, 20
 981              	memp_TCP_PCB:
 982 0244 9C000000 		.word	.LC22
 983 0248 70010000 		.word	memp_stats_TCP_PCB
 984 024c A000     		.short	160
 985 024e 0500     		.short	5
 986 0250 00000000 		.word	memp_memory_TCP_PCB_base
 987 0254 6C010000 		.word	memp_tab_TCP_PCB
 988              		.type	memp_UDP_PCB, %object
 989              		.size	memp_UDP_PCB, 20
 990              	memp_UDP_PCB:
 991 0258 A4000000 		.word	.LC23
 992 025c 8C010000 		.word	memp_stats_UDP_PCB
 993 0260 2800     		.short	40
 994 0262 0A00     		.short	10
 995 0264 00000000 		.word	memp_memory_UDP_PCB_base
 996 0268 88010000 		.word	memp_tab_UDP_PCB
 997              		.type	memp_RAW_PCB, %object
 998              		.size	memp_RAW_PCB, 20
 999              	memp_RAW_PCB:
 1000 026c AC000000 		.word	.LC24
 1001 0270 A8010000 		.word	memp_stats_RAW_PCB
 1002 0274 1C00     		.short	28
 1003 0276 0400     		.short	4
 1004 0278 00000000 		.word	memp_memory_RAW_PCB_base
 1005 027c A4010000 		.word	memp_tab_RAW_PCB
 1006              		.section	.rodata.str1.4,"aMS",%progbits,1
 1007              		.align	2
 1008              	.LC9:
 1009 0000 50425546 		.ascii	"PBUF_POOL\000"
 1009      5F504F4F 
 1009      4C00
 1010 000a 0000     		.space	2
 1011              	.LC10:
 1012 000c 50425546 		.ascii	"PBUF_REF/ROM\000"
 1012      5F524546 
 1012      2F524F4D 
 1012      00
 1013 0019 000000   		.space	3
ARM GAS  C:\Users\Phuong\AppData\Local\Temp\ccVo7wGq.s 			page 29


 1014              	.LC11:
 1015 001c 4E455444 		.ascii	"NETDB\000"
 1015      4200
 1016 0022 0000     		.space	2
 1017              	.LC12:
 1018 0024 5359535F 		.ascii	"SYS_TIMEOUT\000"
 1018      54494D45 
 1018      4F555400 
 1019              	.LC13:
 1020 0030 49474D50 		.ascii	"IGMP_GROUP\000"
 1020      5F47524F 
 1020      555000
 1021 003b 00       		.space	1
 1022              	.LC14:
 1023 003c 4152505F 		.ascii	"ARP_QUEUE\000"
 1023      51554555 
 1023      4500
 1024 0046 0000     		.space	2
 1025              	.LC15:
 1026 0048 54435049 		.ascii	"TCPIP_MSG_INPKT\000"
 1026      505F4D53 
 1026      475F494E 
 1026      504B5400 
 1027              	.LC16:
 1028 0058 54435049 		.ascii	"TCPIP_MSG_API\000"
 1028      505F4D53 
 1028      475F4150 
 1028      4900
 1029 0066 0000     		.space	2
 1030              	.LC17:
 1031 0068 4E455443 		.ascii	"NETCONN\000"
 1031      4F4E4E00 
 1032              	.LC18:
 1033 0070 4E455442 		.ascii	"NETBUF\000"
 1033      554600
 1034 0077 00       		.space	1
 1035              	.LC19:
 1036 0078 52454153 		.ascii	"REASSDATA\000"
 1036      53444154 
 1036      4100
 1037 0082 0000     		.space	2
 1038              	.LC20:
 1039 0084 5443505F 		.ascii	"TCP_SEG\000"
 1039      53454700 
 1040              	.LC21:
 1041 008c 5443505F 		.ascii	"TCP_PCB_LISTEN\000"
 1041      5043425F 
 1041      4C495354 
 1041      454E00
 1042 009b 00       		.space	1
 1043              	.LC22:
 1044 009c 5443505F 		.ascii	"TCP_PCB\000"
 1044      50434200 
 1045              	.LC23:
 1046 00a4 5544505F 		.ascii	"UDP_PCB\000"
 1046      50434200 
 1047              	.LC24:
ARM GAS  C:\Users\Phuong\AppData\Local\Temp\ccVo7wGq.s 			page 30


 1048 00ac 5241575F 		.ascii	"RAW_PCB\000"
 1048      50434200 
 1049              		.bss
 1050              		.align	2
 1051              		.type	memp_tab_PBUF_POOL, %object
 1052              		.size	memp_tab_PBUF_POOL, 4
 1053              	memp_tab_PBUF_POOL:
 1054 0000 00000000 		.space	4
 1055              		.type	memp_stats_PBUF_POOL, %object
 1056              		.size	memp_stats_PBUF_POOL, 24
 1057              	memp_stats_PBUF_POOL:
 1058 0004 00000000 		.space	24
 1058      00000000 
 1058      00000000 
 1058      00000000 
 1058      00000000 
 1059              		.type	memp_tab_PBUF, %object
 1060              		.size	memp_tab_PBUF, 4
 1061              	memp_tab_PBUF:
 1062 001c 00000000 		.space	4
 1063              		.type	memp_stats_PBUF, %object
 1064              		.size	memp_stats_PBUF, 24
 1065              	memp_stats_PBUF:
 1066 0020 00000000 		.space	24
 1066      00000000 
 1066      00000000 
 1066      00000000 
 1066      00000000 
 1067              		.type	memp_tab_NETDB, %object
 1068              		.size	memp_tab_NETDB, 4
 1069              	memp_tab_NETDB:
 1070 0038 00000000 		.space	4
 1071              		.type	memp_stats_NETDB, %object
 1072              		.size	memp_stats_NETDB, 24
 1073              	memp_stats_NETDB:
 1074 003c 00000000 		.space	24
 1074      00000000 
 1074      00000000 
 1074      00000000 
 1074      00000000 
 1075              		.type	memp_tab_SYS_TIMEOUT, %object
 1076              		.size	memp_tab_SYS_TIMEOUT, 4
 1077              	memp_tab_SYS_TIMEOUT:
 1078 0054 00000000 		.space	4
 1079              		.type	memp_stats_SYS_TIMEOUT, %object
 1080              		.size	memp_stats_SYS_TIMEOUT, 24
 1081              	memp_stats_SYS_TIMEOUT:
 1082 0058 00000000 		.space	24
 1082      00000000 
 1082      00000000 
 1082      00000000 
 1082      00000000 
 1083              		.type	memp_tab_IGMP_GROUP, %object
 1084              		.size	memp_tab_IGMP_GROUP, 4
 1085              	memp_tab_IGMP_GROUP:
 1086 0070 00000000 		.space	4
 1087              		.type	memp_stats_IGMP_GROUP, %object
ARM GAS  C:\Users\Phuong\AppData\Local\Temp\ccVo7wGq.s 			page 31


 1088              		.size	memp_stats_IGMP_GROUP, 24
 1089              	memp_stats_IGMP_GROUP:
 1090 0074 00000000 		.space	24
 1090      00000000 
 1090      00000000 
 1090      00000000 
 1090      00000000 
 1091              		.type	memp_tab_ARP_QUEUE, %object
 1092              		.size	memp_tab_ARP_QUEUE, 4
 1093              	memp_tab_ARP_QUEUE:
 1094 008c 00000000 		.space	4
 1095              		.type	memp_stats_ARP_QUEUE, %object
 1096              		.size	memp_stats_ARP_QUEUE, 24
 1097              	memp_stats_ARP_QUEUE:
 1098 0090 00000000 		.space	24
 1098      00000000 
 1098      00000000 
 1098      00000000 
 1098      00000000 
 1099              		.type	memp_tab_TCPIP_MSG_INPKT, %object
 1100              		.size	memp_tab_TCPIP_MSG_INPKT, 4
 1101              	memp_tab_TCPIP_MSG_INPKT:
 1102 00a8 00000000 		.space	4
 1103              		.type	memp_stats_TCPIP_MSG_INPKT, %object
 1104              		.size	memp_stats_TCPIP_MSG_INPKT, 24
 1105              	memp_stats_TCPIP_MSG_INPKT:
 1106 00ac 00000000 		.space	24
 1106      00000000 
 1106      00000000 
 1106      00000000 
 1106      00000000 
 1107              		.type	memp_tab_TCPIP_MSG_API, %object
 1108              		.size	memp_tab_TCPIP_MSG_API, 4
 1109              	memp_tab_TCPIP_MSG_API:
 1110 00c4 00000000 		.space	4
 1111              		.type	memp_stats_TCPIP_MSG_API, %object
 1112              		.size	memp_stats_TCPIP_MSG_API, 24
 1113              	memp_stats_TCPIP_MSG_API:
 1114 00c8 00000000 		.space	24
 1114      00000000 
 1114      00000000 
 1114      00000000 
 1114      00000000 
 1115              		.type	memp_tab_NETCONN, %object
 1116              		.size	memp_tab_NETCONN, 4
 1117              	memp_tab_NETCONN:
 1118 00e0 00000000 		.space	4
 1119              		.type	memp_stats_NETCONN, %object
 1120              		.size	memp_stats_NETCONN, 24
 1121              	memp_stats_NETCONN:
 1122 00e4 00000000 		.space	24
 1122      00000000 
 1122      00000000 
 1122      00000000 
 1122      00000000 
 1123              		.type	memp_tab_NETBUF, %object
 1124              		.size	memp_tab_NETBUF, 4
ARM GAS  C:\Users\Phuong\AppData\Local\Temp\ccVo7wGq.s 			page 32


 1125              	memp_tab_NETBUF:
 1126 00fc 00000000 		.space	4
 1127              		.type	memp_stats_NETBUF, %object
 1128              		.size	memp_stats_NETBUF, 24
 1129              	memp_stats_NETBUF:
 1130 0100 00000000 		.space	24
 1130      00000000 
 1130      00000000 
 1130      00000000 
 1130      00000000 
 1131              		.type	memp_tab_REASSDATA, %object
 1132              		.size	memp_tab_REASSDATA, 4
 1133              	memp_tab_REASSDATA:
 1134 0118 00000000 		.space	4
 1135              		.type	memp_stats_REASSDATA, %object
 1136              		.size	memp_stats_REASSDATA, 24
 1137              	memp_stats_REASSDATA:
 1138 011c 00000000 		.space	24
 1138      00000000 
 1138      00000000 
 1138      00000000 
 1138      00000000 
 1139              		.type	memp_tab_TCP_SEG, %object
 1140              		.size	memp_tab_TCP_SEG, 4
 1141              	memp_tab_TCP_SEG:
 1142 0134 00000000 		.space	4
 1143              		.type	memp_stats_TCP_SEG, %object
 1144              		.size	memp_stats_TCP_SEG, 24
 1145              	memp_stats_TCP_SEG:
 1146 0138 00000000 		.space	24
 1146      00000000 
 1146      00000000 
 1146      00000000 
 1146      00000000 
 1147              		.type	memp_tab_TCP_PCB_LISTEN, %object
 1148              		.size	memp_tab_TCP_PCB_LISTEN, 4
 1149              	memp_tab_TCP_PCB_LISTEN:
 1150 0150 00000000 		.space	4
 1151              		.type	memp_stats_TCP_PCB_LISTEN, %object
 1152              		.size	memp_stats_TCP_PCB_LISTEN, 24
 1153              	memp_stats_TCP_PCB_LISTEN:
 1154 0154 00000000 		.space	24
 1154      00000000 
 1154      00000000 
 1154      00000000 
 1154      00000000 
 1155              		.type	memp_tab_TCP_PCB, %object
 1156              		.size	memp_tab_TCP_PCB, 4
 1157              	memp_tab_TCP_PCB:
 1158 016c 00000000 		.space	4
 1159              		.type	memp_stats_TCP_PCB, %object
 1160              		.size	memp_stats_TCP_PCB, 24
 1161              	memp_stats_TCP_PCB:
 1162 0170 00000000 		.space	24
 1162      00000000 
 1162      00000000 
 1162      00000000 
ARM GAS  C:\Users\Phuong\AppData\Local\Temp\ccVo7wGq.s 			page 33


 1162      00000000 
 1163              		.type	memp_tab_UDP_PCB, %object
 1164              		.size	memp_tab_UDP_PCB, 4
 1165              	memp_tab_UDP_PCB:
 1166 0188 00000000 		.space	4
 1167              		.type	memp_stats_UDP_PCB, %object
 1168              		.size	memp_stats_UDP_PCB, 24
 1169              	memp_stats_UDP_PCB:
 1170 018c 00000000 		.space	24
 1170      00000000 
 1170      00000000 
 1170      00000000 
 1170      00000000 
 1171              		.type	memp_tab_RAW_PCB, %object
 1172              		.size	memp_tab_RAW_PCB, 4
 1173              	memp_tab_RAW_PCB:
 1174 01a4 00000000 		.space	4
 1175              		.type	memp_stats_RAW_PCB, %object
 1176              		.size	memp_stats_RAW_PCB, 24
 1177              	memp_stats_RAW_PCB:
 1178 01a8 00000000 		.space	24
 1178      00000000 
 1178      00000000 
 1178      00000000 
 1178      00000000 
 1179              		.text
 1180              	.Letext0:
 1181              		.file 2 "c:\\program files (x86)\\cypress\\psoc creator\\4.2\\psoc creator\\import\\gnu\\arm\\5.4.
 1182              		.file 3 "c:\\program files (x86)\\cypress\\psoc creator\\4.2\\psoc creator\\import\\gnu\\arm\\5.4.
 1183              		.file 4 "c:\\program files (x86)\\cypress\\psoc creator\\4.2\\psoc creator\\import\\gnu\\arm\\5.4.
 1184              		.file 5 ".\\Source\\LwIP\\src\\include/arch/cc.h"
 1185              		.file 6 ".\\Source\\LwIP\\src\\include/lwip/arch.h"
 1186              		.file 7 ".\\Source\\LwIP\\src\\include/lwip/memp.h"
 1187              		.file 8 ".\\Source\\LwIP\\src\\include/lwip/mem.h"
 1188              		.file 9 ".\\Source\\LwIP\\src\\include/lwip/priv/memp_priv.h"
 1189              		.file 10 ".\\Source\\LwIP\\src\\include/lwip/stats.h"
 1190              		.file 11 ".\\Source\\LwIP\\src\\include/lwip/priv/memp_std.h"
 1191              		.file 12 "c:\\program files (x86)\\cypress\\psoc creator\\4.2\\psoc creator\\import\\gnu\\arm\\5.4
 1192              		.file 13 ".\\Source\\LwIP\\src\\include/lwip/sys.h"
 1193              		.file 14 ".\\Source\\LwIP\\src\\include/lwip/netif.h"