ARM GAS  C:\Users\Phuong\AppData\Local\Temp\ccaRXo0w.s 			page 1


   1              		.syntax unified
   2              		.cpu cortex-m0plus
   3              		.fpu softvfp
   4              		.eabi_attribute 20, 1
   5              		.eabi_attribute 21, 1
   6              		.eabi_attribute 23, 3
   7              		.eabi_attribute 24, 1
   8              		.eabi_attribute 25, 1
   9              		.eabi_attribute 26, 1
  10              		.eabi_attribute 30, 1
  11              		.eabi_attribute 34, 0
  12              		.eabi_attribute 18, 4
  13              		.thumb
  14              		.syntax unified
  15              		.file	"message_queue.c"
  16              		.text
  17              	.Ltext0:
  18              		.cfi_sections	.debug_frame
  19              		.section	.text.fire_message_callback,"ax",%progbits
  20              		.align	2
  21              		.code	16
  22              		.thumb_func
  23              		.type	fire_message_callback, %function
  24              	fire_message_callback:
  25              	.LFB2:
  26              		.file 1 "Source\\azure_iot_sdk\\iothub_client\\src\\message_queue.c"
   1:Source\azure_iot_sdk\iothub_client\src/message_queue.c **** // Copyright (c) Microsoft. All rights reserved.
   2:Source\azure_iot_sdk\iothub_client\src/message_queue.c **** // Licensed under the MIT license. See LICENSE file in the project root for full license informatio
   3:Source\azure_iot_sdk\iothub_client\src/message_queue.c **** 
   4:Source\azure_iot_sdk\iothub_client\src/message_queue.c **** #include <stdlib.h>
   5:Source\azure_iot_sdk\iothub_client\src/message_queue.c **** #include <stdbool.h>
   6:Source\azure_iot_sdk\iothub_client\src/message_queue.c **** #include "azure_c_shared_utility/optimize_size.h"
   7:Source\azure_iot_sdk\iothub_client\src/message_queue.c **** #include "azure_c_shared_utility/crt_abstractions.h"
   8:Source\azure_iot_sdk\iothub_client\src/message_queue.c **** #include "azure_c_shared_utility/gballoc.h"
   9:Source\azure_iot_sdk\iothub_client\src/message_queue.c **** #include "azure_c_shared_utility/agenttime.h"
  10:Source\azure_iot_sdk\iothub_client\src/message_queue.c **** #include "azure_c_shared_utility/xlogging.h"
  11:Source\azure_iot_sdk\iothub_client\src/message_queue.c **** #include "azure_c_shared_utility/singlylinkedlist.h"
  12:Source\azure_iot_sdk\iothub_client\src/message_queue.c **** 
  13:Source\azure_iot_sdk\iothub_client\src/message_queue.c **** typedef struct MESSAGE_QUEUE_TAG MESSAGE_QUEUE;
  14:Source\azure_iot_sdk\iothub_client\src/message_queue.c **** 
  15:Source\azure_iot_sdk\iothub_client\src/message_queue.c **** #include "internal/message_queue.h"
  16:Source\azure_iot_sdk\iothub_client\src/message_queue.c **** 
  17:Source\azure_iot_sdk\iothub_client\src/message_queue.c **** #define RESULT_OK 0
  18:Source\azure_iot_sdk\iothub_client\src/message_queue.c **** #define INDEFINITE_TIME ((time_t)(-1))
  19:Source\azure_iot_sdk\iothub_client\src/message_queue.c **** 
  20:Source\azure_iot_sdk\iothub_client\src/message_queue.c **** static const char* SAVED_OPTION_MAX_RETRY_COUNT = "SAVED_OPTION_MAX_RETRY_COUNT";
  21:Source\azure_iot_sdk\iothub_client\src/message_queue.c **** static const char* SAVED_OPTION_MAX_ENQUEUE_TIME_SECS = "SAVED_OPTION_MAX_ENQUEUE_TIME_SECS";
  22:Source\azure_iot_sdk\iothub_client\src/message_queue.c **** static const char* SAVED_OPTION_MAX_PROCESSING_TIME_SECS = "SAVED_OPTION_MAX_PROCESSING_TIME_SECS";
  23:Source\azure_iot_sdk\iothub_client\src/message_queue.c **** 
  24:Source\azure_iot_sdk\iothub_client\src/message_queue.c **** 
  25:Source\azure_iot_sdk\iothub_client\src/message_queue.c **** struct MESSAGE_QUEUE_TAG
  26:Source\azure_iot_sdk\iothub_client\src/message_queue.c **** {
  27:Source\azure_iot_sdk\iothub_client\src/message_queue.c ****     size_t max_message_enqueued_time_secs;
  28:Source\azure_iot_sdk\iothub_client\src/message_queue.c ****     size_t max_message_processing_time_secs;
  29:Source\azure_iot_sdk\iothub_client\src/message_queue.c ****     size_t max_retry_count;
  30:Source\azure_iot_sdk\iothub_client\src/message_queue.c **** 
  31:Source\azure_iot_sdk\iothub_client\src/message_queue.c ****     PROCESS_MESSAGE_CALLBACK on_process_message_callback;
ARM GAS  C:\Users\Phuong\AppData\Local\Temp\ccaRXo0w.s 			page 2


  32:Source\azure_iot_sdk\iothub_client\src/message_queue.c ****     void* on_process_message_context;
  33:Source\azure_iot_sdk\iothub_client\src/message_queue.c **** 
  34:Source\azure_iot_sdk\iothub_client\src/message_queue.c ****     SINGLYLINKEDLIST_HANDLE pending;
  35:Source\azure_iot_sdk\iothub_client\src/message_queue.c ****     SINGLYLINKEDLIST_HANDLE in_progress;
  36:Source\azure_iot_sdk\iothub_client\src/message_queue.c **** };
  37:Source\azure_iot_sdk\iothub_client\src/message_queue.c **** 
  38:Source\azure_iot_sdk\iothub_client\src/message_queue.c **** typedef struct MESSAGE_QUEUE_ITEM_TAG
  39:Source\azure_iot_sdk\iothub_client\src/message_queue.c **** {
  40:Source\azure_iot_sdk\iothub_client\src/message_queue.c ****     MQ_MESSAGE_HANDLE message;
  41:Source\azure_iot_sdk\iothub_client\src/message_queue.c ****     MESSAGE_PROCESSING_COMPLETED_CALLBACK on_message_processing_completed_callback;
  42:Source\azure_iot_sdk\iothub_client\src/message_queue.c ****     void* user_context;
  43:Source\azure_iot_sdk\iothub_client\src/message_queue.c ****     time_t enqueue_time;
  44:Source\azure_iot_sdk\iothub_client\src/message_queue.c ****     time_t processing_start_time;
  45:Source\azure_iot_sdk\iothub_client\src/message_queue.c ****     size_t number_of_attempts;
  46:Source\azure_iot_sdk\iothub_client\src/message_queue.c **** } MESSAGE_QUEUE_ITEM;
  47:Source\azure_iot_sdk\iothub_client\src/message_queue.c **** 
  48:Source\azure_iot_sdk\iothub_client\src/message_queue.c **** 
  49:Source\azure_iot_sdk\iothub_client\src/message_queue.c **** 
  50:Source\azure_iot_sdk\iothub_client\src/message_queue.c **** // ---------- Helper Functions ---------- //
  51:Source\azure_iot_sdk\iothub_client\src/message_queue.c **** 
  52:Source\azure_iot_sdk\iothub_client\src/message_queue.c **** static bool find_item_by_message_ptr(LIST_ITEM_HANDLE list_item, const void* match_context)
  53:Source\azure_iot_sdk\iothub_client\src/message_queue.c **** {
  54:Source\azure_iot_sdk\iothub_client\src/message_queue.c ****     MESSAGE_QUEUE_ITEM* current_item = (MESSAGE_QUEUE_ITEM*)singlylinkedlist_item_get_value(list_it
  55:Source\azure_iot_sdk\iothub_client\src/message_queue.c ****     MQ_MESSAGE_HANDLE* target_item = (MQ_MESSAGE_HANDLE*)match_context;
  56:Source\azure_iot_sdk\iothub_client\src/message_queue.c **** 
  57:Source\azure_iot_sdk\iothub_client\src/message_queue.c ****     return (current_item->message == target_item);
  58:Source\azure_iot_sdk\iothub_client\src/message_queue.c **** }
  59:Source\azure_iot_sdk\iothub_client\src/message_queue.c **** 
  60:Source\azure_iot_sdk\iothub_client\src/message_queue.c **** static void fire_message_callback(MESSAGE_QUEUE_ITEM* mq_item, MESSAGE_QUEUE_RESULT result, void* r
  61:Source\azure_iot_sdk\iothub_client\src/message_queue.c **** {
  27              		.loc 1 61 0
  28              		.cfi_startproc
  29              		@ args = 0, pretend = 0, frame = 0
  30              		@ frame_needed = 0, uses_anonymous_args = 0
  31              	.LVL0:
  32 0000 10B5     		push	{r4, lr}
  33              		.cfi_def_cfa_offset 8
  34              		.cfi_offset 4, -8
  35              		.cfi_offset 14, -4
  62:Source\azure_iot_sdk\iothub_client\src/message_queue.c ****     if (mq_item->on_message_processing_completed_callback != NULL)
  36              		.loc 1 62 0
  37 0002 4468     		ldr	r4, [r0, #4]
  38 0004 002C     		cmp	r4, #0
  39 0006 05D0     		beq	.L1
  63:Source\azure_iot_sdk\iothub_client\src/message_queue.c ****     {
  64:Source\azure_iot_sdk\iothub_client\src/message_queue.c ****         if (result == MESSAGE_QUEUE_RETRYABLE_ERROR)
  40              		.loc 1 64 0
  41 0008 0229     		cmp	r1, #2
  42 000a 00D1     		bne	.L3
  65:Source\azure_iot_sdk\iothub_client\src/message_queue.c ****         {
  66:Source\azure_iot_sdk\iothub_client\src/message_queue.c ****             result = MESSAGE_QUEUE_ERROR;
  43              		.loc 1 66 0
  44 000c 0139     		subs	r1, r1, #1
  45              	.LVL1:
  46              	.L3:
  67:Source\azure_iot_sdk\iothub_client\src/message_queue.c ****         }
  68:Source\azure_iot_sdk\iothub_client\src/message_queue.c **** 
ARM GAS  C:\Users\Phuong\AppData\Local\Temp\ccaRXo0w.s 			page 3


  69:Source\azure_iot_sdk\iothub_client\src/message_queue.c ****         mq_item->on_message_processing_completed_callback(mq_item->message, result, reason, mq_item
  47              		.loc 1 69 0
  48 000e 8368     		ldr	r3, [r0, #8]
  49 0010 0068     		ldr	r0, [r0]
  50              	.LVL2:
  51 0012 A047     		blx	r4
  52              	.LVL3:
  53              	.L1:
  70:Source\azure_iot_sdk\iothub_client\src/message_queue.c ****     }
  71:Source\azure_iot_sdk\iothub_client\src/message_queue.c **** }
  54              		.loc 1 71 0
  55              		@ sp needed
  56 0014 10BD     		pop	{r4, pc}
  57              		.cfi_endproc
  58              	.LFE2:
  59              		.size	fire_message_callback, .-fire_message_callback
  60 0016 C046     		.section	.text.should_retry_sending,"ax",%progbits
  61              		.align	2
  62              		.code	16
  63              		.thumb_func
  64              		.type	should_retry_sending, %function
  65              	should_retry_sending:
  66              	.LFB3:
  72:Source\azure_iot_sdk\iothub_client\src/message_queue.c **** 
  73:Source\azure_iot_sdk\iothub_client\src/message_queue.c **** static bool should_retry_sending(MESSAGE_QUEUE_HANDLE message_queue, MESSAGE_QUEUE_ITEM* mq_item, M
  74:Source\azure_iot_sdk\iothub_client\src/message_queue.c **** {
  67              		.loc 1 74 0
  68              		.cfi_startproc
  69              		@ args = 0, pretend = 0, frame = 0
  70              		@ frame_needed = 0, uses_anonymous_args = 0
  71              		@ link register save eliminated.
  72              	.LVL4:
  75:Source\azure_iot_sdk\iothub_client\src/message_queue.c ****     return (result == MESSAGE_QUEUE_RETRYABLE_ERROR && mq_item->number_of_attempts <= message_queue
  73              		.loc 1 75 0
  74 0000 022A     		cmp	r2, #2
  75 0002 05D1     		bne	.L7
  76              		.loc 1 75 0 is_stmt 0 discriminator 1
  77 0004 4A69     		ldr	r2, [r1, #20]
  78              	.LVL5:
  79 0006 8368     		ldr	r3, [r0, #8]
  80 0008 9A42     		cmp	r2, r3
  81 000a 03D9     		bls	.L8
  82              		.loc 1 75 0
  83 000c 0020     		movs	r0, #0
  84              	.LVL6:
  85 000e 02E0     		b	.L6
  86              	.LVL7:
  87              	.L7:
  88 0010 0020     		movs	r0, #0
  89              	.LVL8:
  90 0012 00E0     		b	.L6
  91              	.LVL9:
  92              	.L8:
  93 0014 0120     		movs	r0, #1
  94              	.LVL10:
  95              	.L6:
  76:Source\azure_iot_sdk\iothub_client\src/message_queue.c **** }
ARM GAS  C:\Users\Phuong\AppData\Local\Temp\ccaRXo0w.s 			page 4


  96              		.loc 1 76 0 is_stmt 1 discriminator 6
  97              		@ sp needed
  98 0016 7047     		bx	lr
  99              		.cfi_endproc
 100              	.LFE3:
 101              		.size	should_retry_sending, .-should_retry_sending
 102              		.section	.text.find_item_by_message_ptr,"ax",%progbits
 103              		.align	2
 104              		.code	16
 105              		.thumb_func
 106              		.type	find_item_by_message_ptr, %function
 107              	find_item_by_message_ptr:
 108              	.LFB1:
  53:Source\azure_iot_sdk\iothub_client\src/message_queue.c ****     MESSAGE_QUEUE_ITEM* current_item = (MESSAGE_QUEUE_ITEM*)singlylinkedlist_item_get_value(list_it
 109              		.loc 1 53 0
 110              		.cfi_startproc
 111              		@ args = 0, pretend = 0, frame = 0
 112              		@ frame_needed = 0, uses_anonymous_args = 0
 113              	.LVL11:
 114 0000 10B5     		push	{r4, lr}
 115              		.cfi_def_cfa_offset 8
 116              		.cfi_offset 4, -8
 117              		.cfi_offset 14, -4
 118 0002 0C00     		movs	r4, r1
  54:Source\azure_iot_sdk\iothub_client\src/message_queue.c ****     MQ_MESSAGE_HANDLE* target_item = (MQ_MESSAGE_HANDLE*)match_context;
 119              		.loc 1 54 0
 120 0004 FFF7FEFF 		bl	singlylinkedlist_item_get_value
 121              	.LVL12:
  57:Source\azure_iot_sdk\iothub_client\src/message_queue.c **** }
 122              		.loc 1 57 0
 123 0008 0068     		ldr	r0, [r0]
 124              	.LVL13:
 125 000a 201A     		subs	r0, r4, r0
 126 000c 4442     		rsbs	r4, r0, #0
 127 000e 6041     		adcs	r0, r0, r4
 128              	.LVL14:
 129 0010 C0B2     		uxtb	r0, r0
  58:Source\azure_iot_sdk\iothub_client\src/message_queue.c **** 
 130              		.loc 1 58 0
 131              		@ sp needed
 132 0012 10BD     		pop	{r4, pc}
 133              		.cfi_endproc
 134              	.LFE1:
 135              		.size	find_item_by_message_ptr, .-find_item_by_message_ptr
 136              		.section	.text.dequeue_message_and_fire_callback,"ax",%progbits
 137              		.align	2
 138              		.code	16
 139              		.thumb_func
 140              		.type	dequeue_message_and_fire_callback, %function
 141              	dequeue_message_and_fire_callback:
 142              	.LFB5:
  77:Source\azure_iot_sdk\iothub_client\src/message_queue.c **** 
  78:Source\azure_iot_sdk\iothub_client\src/message_queue.c **** static int retry_sending_message(MESSAGE_QUEUE_HANDLE message_queue, LIST_ITEM_HANDLE list_item)
  79:Source\azure_iot_sdk\iothub_client\src/message_queue.c **** {
  80:Source\azure_iot_sdk\iothub_client\src/message_queue.c ****     int result;
  81:Source\azure_iot_sdk\iothub_client\src/message_queue.c ****     MESSAGE_QUEUE_ITEM* mq_item;
  82:Source\azure_iot_sdk\iothub_client\src/message_queue.c **** 
ARM GAS  C:\Users\Phuong\AppData\Local\Temp\ccaRXo0w.s 			page 5


  83:Source\azure_iot_sdk\iothub_client\src/message_queue.c ****     mq_item = (MESSAGE_QUEUE_ITEM*)singlylinkedlist_item_get_value(list_item);
  84:Source\azure_iot_sdk\iothub_client\src/message_queue.c **** 
  85:Source\azure_iot_sdk\iothub_client\src/message_queue.c ****     if (singlylinkedlist_remove(message_queue->in_progress, list_item))
  86:Source\azure_iot_sdk\iothub_client\src/message_queue.c ****     {
  87:Source\azure_iot_sdk\iothub_client\src/message_queue.c ****         LogError("Failed removing message from in-progress list");
  88:Source\azure_iot_sdk\iothub_client\src/message_queue.c ****         result = __FAILURE__;
  89:Source\azure_iot_sdk\iothub_client\src/message_queue.c ****     }
  90:Source\azure_iot_sdk\iothub_client\src/message_queue.c ****     else if (singlylinkedlist_add(message_queue->pending, (const void*)mq_item) == NULL)
  91:Source\azure_iot_sdk\iothub_client\src/message_queue.c ****     {
  92:Source\azure_iot_sdk\iothub_client\src/message_queue.c ****         LogError("Failed moving message back to pending list");
  93:Source\azure_iot_sdk\iothub_client\src/message_queue.c ****         result = __FAILURE__;
  94:Source\azure_iot_sdk\iothub_client\src/message_queue.c ****     }
  95:Source\azure_iot_sdk\iothub_client\src/message_queue.c ****     else
  96:Source\azure_iot_sdk\iothub_client\src/message_queue.c ****     {
  97:Source\azure_iot_sdk\iothub_client\src/message_queue.c ****         result = RESULT_OK;
  98:Source\azure_iot_sdk\iothub_client\src/message_queue.c ****     }
  99:Source\azure_iot_sdk\iothub_client\src/message_queue.c **** 
 100:Source\azure_iot_sdk\iothub_client\src/message_queue.c ****     return result;
 101:Source\azure_iot_sdk\iothub_client\src/message_queue.c **** }
 102:Source\azure_iot_sdk\iothub_client\src/message_queue.c **** 
 103:Source\azure_iot_sdk\iothub_client\src/message_queue.c **** static void dequeue_message_and_fire_callback(SINGLYLINKEDLIST_HANDLE list, LIST_ITEM_HANDLE list_i
 104:Source\azure_iot_sdk\iothub_client\src/message_queue.c **** {
 143              		.loc 1 104 0
 144              		.cfi_startproc
 145              		@ args = 0, pretend = 0, frame = 8
 146              		@ frame_needed = 0, uses_anonymous_args = 0
 147              	.LVL15:
 148 0000 F0B5     		push	{r4, r5, r6, r7, lr}
 149              		.cfi_def_cfa_offset 20
 150              		.cfi_offset 4, -20
 151              		.cfi_offset 5, -16
 152              		.cfi_offset 6, -12
 153              		.cfi_offset 7, -8
 154              		.cfi_offset 14, -4
 155 0002 87B0     		sub	sp, sp, #28
 156              		.cfi_def_cfa_offset 48
 157 0004 0500     		movs	r5, r0
 158 0006 0E00     		movs	r6, r1
 159 0008 0592     		str	r2, [sp, #20]
 160 000a 1F00     		movs	r7, r3
 105:Source\azure_iot_sdk\iothub_client\src/message_queue.c ****     MESSAGE_QUEUE_ITEM* mq_item = (MESSAGE_QUEUE_ITEM*)singlylinkedlist_item_get_value(list_item);
 161              		.loc 1 105 0
 162 000c 0800     		movs	r0, r1
 163              	.LVL16:
 164 000e FFF7FEFF 		bl	singlylinkedlist_item_get_value
 165              	.LVL17:
 166 0012 0400     		movs	r4, r0
 167              	.LVL18:
 106:Source\azure_iot_sdk\iothub_client\src/message_queue.c **** 
 107:Source\azure_iot_sdk\iothub_client\src/message_queue.c ****     // Codes_SRS_MESSAGE_QUEUE_09_045: [If `message` is present in `message_queue->in_progress`, it
 108:Source\azure_iot_sdk\iothub_client\src/message_queue.c ****     if (singlylinkedlist_remove(list, list_item))
 168              		.loc 1 108 0
 169 0014 3100     		movs	r1, r6
 170 0016 2800     		movs	r0, r5
 171              	.LVL19:
 172 0018 FFF7FEFF 		bl	singlylinkedlist_remove
 173              	.LVL20:
ARM GAS  C:\Users\Phuong\AppData\Local\Temp\ccaRXo0w.s 			page 6


 174 001c 0028     		cmp	r0, #0
 175 001e 0DD0     		beq	.L11
 176              	.LBB2:
 109:Source\azure_iot_sdk\iothub_client\src/message_queue.c ****     {
 110:Source\azure_iot_sdk\iothub_client\src/message_queue.c ****         LogError("failed removing message from list (%p)", list);
 177              		.loc 1 110 0 discriminator 3
 178 0020 FFF7FEFF 		bl	xlogging_get_log_function
 179              	.LVL21:
 180 0024 061E     		subs	r6, r0, #0
 181              	.LVL22:
 182 0026 09D0     		beq	.L11
 183              		.loc 1 110 0 is_stmt 0 discriminator 4
 184 0028 0295     		str	r5, [sp, #8]
 185 002a 094B     		ldr	r3, .L12
 186 002c 0193     		str	r3, [sp, #4]
 187 002e 0123     		movs	r3, #1
 188 0030 0093     		str	r3, [sp]
 189 0032 6D33     		adds	r3, r3, #109
 190 0034 074A     		ldr	r2, .L12+4
 191 0036 0849     		ldr	r1, .L12+8
 192 0038 0020     		movs	r0, #0
 193              	.LVL23:
 194 003a B047     		blx	r6
 195              	.LVL24:
 196              	.L11:
 197              	.LBE2:
 111:Source\azure_iot_sdk\iothub_client\src/message_queue.c ****     }
 112:Source\azure_iot_sdk\iothub_client\src/message_queue.c **** 
 113:Source\azure_iot_sdk\iothub_client\src/message_queue.c ****     // Codes_SRS_MESSAGE_QUEUE_09_049: [Otherwise `mq_item->on_message_processing_completed_callbac
 114:Source\azure_iot_sdk\iothub_client\src/message_queue.c ****     fire_message_callback(mq_item, result, reason);
 198              		.loc 1 114 0 is_stmt 1
 199 003c 3A00     		movs	r2, r7
 200 003e 0599     		ldr	r1, [sp, #20]
 201 0040 2000     		movs	r0, r4
 202 0042 FFF7FEFF 		bl	fire_message_callback
 203              	.LVL25:
 115:Source\azure_iot_sdk\iothub_client\src/message_queue.c **** 
 116:Source\azure_iot_sdk\iothub_client\src/message_queue.c ****     // Codes_SRS_MESSAGE_QUEUE_09_050: [The `mq_item` related to `message` shall be freed]
 117:Source\azure_iot_sdk\iothub_client\src/message_queue.c ****     free(mq_item);
 204              		.loc 1 117 0
 205 0046 2000     		movs	r0, r4
 206 0048 FFF7FEFF 		bl	free
 207              	.LVL26:
 118:Source\azure_iot_sdk\iothub_client\src/message_queue.c **** }
 208              		.loc 1 118 0
 209 004c 07B0     		add	sp, sp, #28
 210              		@ sp needed
 211              	.LVL27:
 212              	.LVL28:
 213              	.LVL29:
 214 004e F0BD     		pop	{r4, r5, r6, r7, pc}
 215              	.L13:
 216              		.align	2
 217              	.L12:
 218 0050 38000000 		.word	.LC3
 219 0054 00000000 		.word	.LANCHOR0
 220 0058 00000000 		.word	.LC1
ARM GAS  C:\Users\Phuong\AppData\Local\Temp\ccaRXo0w.s 			page 7


 221              		.cfi_endproc
 222              	.LFE5:
 223              		.size	dequeue_message_and_fire_callback, .-dequeue_message_and_fire_callback
 224              		.section	.text.move_messages_between_lists,"ax",%progbits
 225              		.align	2
 226              		.code	16
 227              		.thumb_func
 228              		.type	move_messages_between_lists, %function
 229              	move_messages_between_lists:
 230              	.LFB12:
 119:Source\azure_iot_sdk\iothub_client\src/message_queue.c **** 
 120:Source\azure_iot_sdk\iothub_client\src/message_queue.c **** static void on_process_message_completed_callback(MESSAGE_QUEUE_HANDLE message_queue, MQ_MESSAGE_HA
 121:Source\azure_iot_sdk\iothub_client\src/message_queue.c **** {
 122:Source\azure_iot_sdk\iothub_client\src/message_queue.c ****     // Codes_SRS_MESSAGE_QUEUE_09_069: [If `message` or `message_queue` are NULL, on_message_proces
 123:Source\azure_iot_sdk\iothub_client\src/message_queue.c ****     if (message == NULL || message_queue == NULL)
 124:Source\azure_iot_sdk\iothub_client\src/message_queue.c ****     {
 125:Source\azure_iot_sdk\iothub_client\src/message_queue.c ****         LogError("on_process_message_completed_callback invoked with NULL arguments (message=%p, me
 126:Source\azure_iot_sdk\iothub_client\src/message_queue.c ****     }
 127:Source\azure_iot_sdk\iothub_client\src/message_queue.c ****     else
 128:Source\azure_iot_sdk\iothub_client\src/message_queue.c ****     {
 129:Source\azure_iot_sdk\iothub_client\src/message_queue.c ****         LIST_ITEM_HANDLE list_item;
 130:Source\azure_iot_sdk\iothub_client\src/message_queue.c **** 
 131:Source\azure_iot_sdk\iothub_client\src/message_queue.c ****         if ((list_item = singlylinkedlist_find(message_queue->in_progress, find_item_by_message_ptr
 132:Source\azure_iot_sdk\iothub_client\src/message_queue.c ****         {
 133:Source\azure_iot_sdk\iothub_client\src/message_queue.c ****             // Codes_SRS_MESSAGE_QUEUE_09_044: [If `message` is not present in `message_queue->in_p
 134:Source\azure_iot_sdk\iothub_client\src/message_queue.c ****             LogError("on_process_message_completed_callback invoked for a message not in the in-pro
 135:Source\azure_iot_sdk\iothub_client\src/message_queue.c ****         }
 136:Source\azure_iot_sdk\iothub_client\src/message_queue.c ****         else
 137:Source\azure_iot_sdk\iothub_client\src/message_queue.c ****         {
 138:Source\azure_iot_sdk\iothub_client\src/message_queue.c ****             MESSAGE_QUEUE_ITEM* mq_item = (MESSAGE_QUEUE_ITEM*)singlylinkedlist_item_get_value(list
 139:Source\azure_iot_sdk\iothub_client\src/message_queue.c **** 
 140:Source\azure_iot_sdk\iothub_client\src/message_queue.c ****             // Codes_SRS_MESSAGE_QUEUE_09_047: [If `result` is MESSAGE_QUEUE_RETRYABLE_ERROR and `m
 141:Source\azure_iot_sdk\iothub_client\src/message_queue.c ****             // Codes_SRS_MESSAGE_QUEUE_09_048: [If `result` is MESSAGE_QUEUE_RETRYABLE_ERROR and `m
 142:Source\azure_iot_sdk\iothub_client\src/message_queue.c ****             if (!should_retry_sending(message_queue, mq_item, result) || retry_sending_message(mess
 143:Source\azure_iot_sdk\iothub_client\src/message_queue.c ****             {
 144:Source\azure_iot_sdk\iothub_client\src/message_queue.c ****                 dequeue_message_and_fire_callback(message_queue->in_progress, list_item, result, re
 145:Source\azure_iot_sdk\iothub_client\src/message_queue.c ****             }
 146:Source\azure_iot_sdk\iothub_client\src/message_queue.c ****         }
 147:Source\azure_iot_sdk\iothub_client\src/message_queue.c ****     }
 148:Source\azure_iot_sdk\iothub_client\src/message_queue.c **** }
 149:Source\azure_iot_sdk\iothub_client\src/message_queue.c **** 
 150:Source\azure_iot_sdk\iothub_client\src/message_queue.c **** static void process_timeouts(MESSAGE_QUEUE_HANDLE message_queue)
 151:Source\azure_iot_sdk\iothub_client\src/message_queue.c **** {
 152:Source\azure_iot_sdk\iothub_client\src/message_queue.c ****     time_t current_time;
 153:Source\azure_iot_sdk\iothub_client\src/message_queue.c **** 
 154:Source\azure_iot_sdk\iothub_client\src/message_queue.c ****     if ((current_time = get_time(NULL)) == INDEFINITE_TIME)
 155:Source\azure_iot_sdk\iothub_client\src/message_queue.c ****     {
 156:Source\azure_iot_sdk\iothub_client\src/message_queue.c ****         LogError("failed processing timeouts (get_time failed)");
 157:Source\azure_iot_sdk\iothub_client\src/message_queue.c ****     }
 158:Source\azure_iot_sdk\iothub_client\src/message_queue.c ****     else
 159:Source\azure_iot_sdk\iothub_client\src/message_queue.c ****     {
 160:Source\azure_iot_sdk\iothub_client\src/message_queue.c ****         // Codes_SRS_MESSAGE_QUEUE_09_035: [If `message_queue->max_message_enqueued_time_secs` is g
 161:Source\azure_iot_sdk\iothub_client\src/message_queue.c ****         if (message_queue->max_message_enqueued_time_secs > 0)
 162:Source\azure_iot_sdk\iothub_client\src/message_queue.c ****         {
 163:Source\azure_iot_sdk\iothub_client\src/message_queue.c ****             LIST_ITEM_HANDLE list_item = singlylinkedlist_get_head_item(message_queue->pending);
 164:Source\azure_iot_sdk\iothub_client\src/message_queue.c **** 
 165:Source\azure_iot_sdk\iothub_client\src/message_queue.c ****             while (list_item != NULL)
ARM GAS  C:\Users\Phuong\AppData\Local\Temp\ccaRXo0w.s 			page 8


 166:Source\azure_iot_sdk\iothub_client\src/message_queue.c ****             {
 167:Source\azure_iot_sdk\iothub_client\src/message_queue.c ****                 LIST_ITEM_HANDLE current_list_item = list_item;
 168:Source\azure_iot_sdk\iothub_client\src/message_queue.c ****                 MESSAGE_QUEUE_ITEM* mq_item = (MESSAGE_QUEUE_ITEM*)singlylinkedlist_item_get_value(
 169:Source\azure_iot_sdk\iothub_client\src/message_queue.c **** 
 170:Source\azure_iot_sdk\iothub_client\src/message_queue.c ****                 list_item = singlylinkedlist_get_next_item(list_item);
 171:Source\azure_iot_sdk\iothub_client\src/message_queue.c **** 
 172:Source\azure_iot_sdk\iothub_client\src/message_queue.c ****                 if (mq_item == NULL)
 173:Source\azure_iot_sdk\iothub_client\src/message_queue.c ****                 {
 174:Source\azure_iot_sdk\iothub_client\src/message_queue.c ****                     LogError("failed processing timeouts (unexpected NULL pointer to MESSAGE_QUEUE_
 175:Source\azure_iot_sdk\iothub_client\src/message_queue.c ****                 }
 176:Source\azure_iot_sdk\iothub_client\src/message_queue.c ****                 else if (get_difftime(current_time, mq_item->enqueue_time) >= message_queue->max_me
 177:Source\azure_iot_sdk\iothub_client\src/message_queue.c ****                 {
 178:Source\azure_iot_sdk\iothub_client\src/message_queue.c ****                     // Codes_SRS_MESSAGE_QUEUE_09_036: [If any items are in `message_queue` lists f
 179:Source\azure_iot_sdk\iothub_client\src/message_queue.c ****                     dequeue_message_and_fire_callback(message_queue->pending, current_list_item, ME
 180:Source\azure_iot_sdk\iothub_client\src/message_queue.c ****                 }
 181:Source\azure_iot_sdk\iothub_client\src/message_queue.c ****                 else
 182:Source\azure_iot_sdk\iothub_client\src/message_queue.c ****                 {
 183:Source\azure_iot_sdk\iothub_client\src/message_queue.c ****                     // The pending list order is already based on enqueue time, so if one message i
 184:Source\azure_iot_sdk\iothub_client\src/message_queue.c ****                     break;
 185:Source\azure_iot_sdk\iothub_client\src/message_queue.c ****                 }
 186:Source\azure_iot_sdk\iothub_client\src/message_queue.c ****             }
 187:Source\azure_iot_sdk\iothub_client\src/message_queue.c **** 
 188:Source\azure_iot_sdk\iothub_client\src/message_queue.c ****             list_item = singlylinkedlist_get_head_item(message_queue->in_progress);
 189:Source\azure_iot_sdk\iothub_client\src/message_queue.c **** 
 190:Source\azure_iot_sdk\iothub_client\src/message_queue.c ****             while (list_item != NULL)
 191:Source\azure_iot_sdk\iothub_client\src/message_queue.c ****             {
 192:Source\azure_iot_sdk\iothub_client\src/message_queue.c ****                 LIST_ITEM_HANDLE current_list_item = list_item;
 193:Source\azure_iot_sdk\iothub_client\src/message_queue.c ****                 MESSAGE_QUEUE_ITEM* mq_item = (MESSAGE_QUEUE_ITEM*)singlylinkedlist_item_get_value(
 194:Source\azure_iot_sdk\iothub_client\src/message_queue.c **** 
 195:Source\azure_iot_sdk\iothub_client\src/message_queue.c ****                 list_item = singlylinkedlist_get_next_item(list_item);
 196:Source\azure_iot_sdk\iothub_client\src/message_queue.c **** 
 197:Source\azure_iot_sdk\iothub_client\src/message_queue.c ****                 if (mq_item == NULL)
 198:Source\azure_iot_sdk\iothub_client\src/message_queue.c ****                 {
 199:Source\azure_iot_sdk\iothub_client\src/message_queue.c ****                     LogError("failed processing timeouts (unexpected NULL pointer to MESSAGE_QUEUE_
 200:Source\azure_iot_sdk\iothub_client\src/message_queue.c ****                 }
 201:Source\azure_iot_sdk\iothub_client\src/message_queue.c ****                 else if (get_difftime(current_time, mq_item->enqueue_time) >= message_queue->max_me
 202:Source\azure_iot_sdk\iothub_client\src/message_queue.c ****                 {
 203:Source\azure_iot_sdk\iothub_client\src/message_queue.c ****                     // Codes_SRS_MESSAGE_QUEUE_09_038: [If any items are in `message_queue->in_prog
 204:Source\azure_iot_sdk\iothub_client\src/message_queue.c ****                     dequeue_message_and_fire_callback(message_queue->in_progress, current_list_item
 205:Source\azure_iot_sdk\iothub_client\src/message_queue.c ****                 }
 206:Source\azure_iot_sdk\iothub_client\src/message_queue.c ****             }
 207:Source\azure_iot_sdk\iothub_client\src/message_queue.c ****         }
 208:Source\azure_iot_sdk\iothub_client\src/message_queue.c **** 
 209:Source\azure_iot_sdk\iothub_client\src/message_queue.c ****         // Codes_SRS_MESSAGE_QUEUE_09_037: [If `message_queue->max_message_processing_time_secs` is
 210:Source\azure_iot_sdk\iothub_client\src/message_queue.c ****         if (message_queue->max_message_processing_time_secs > 0)
 211:Source\azure_iot_sdk\iothub_client\src/message_queue.c ****         {
 212:Source\azure_iot_sdk\iothub_client\src/message_queue.c ****             LIST_ITEM_HANDLE list_item = singlylinkedlist_get_head_item(message_queue->in_progress)
 213:Source\azure_iot_sdk\iothub_client\src/message_queue.c **** 
 214:Source\azure_iot_sdk\iothub_client\src/message_queue.c ****             while (list_item != NULL)
 215:Source\azure_iot_sdk\iothub_client\src/message_queue.c ****             {
 216:Source\azure_iot_sdk\iothub_client\src/message_queue.c ****                 LIST_ITEM_HANDLE current_list_item = list_item;
 217:Source\azure_iot_sdk\iothub_client\src/message_queue.c ****                 MESSAGE_QUEUE_ITEM* mq_item = (MESSAGE_QUEUE_ITEM*)singlylinkedlist_item_get_value(
 218:Source\azure_iot_sdk\iothub_client\src/message_queue.c **** 
 219:Source\azure_iot_sdk\iothub_client\src/message_queue.c ****                 list_item = singlylinkedlist_get_next_item(list_item);
 220:Source\azure_iot_sdk\iothub_client\src/message_queue.c **** 
 221:Source\azure_iot_sdk\iothub_client\src/message_queue.c ****                 if (mq_item == NULL)
 222:Source\azure_iot_sdk\iothub_client\src/message_queue.c ****                 {
ARM GAS  C:\Users\Phuong\AppData\Local\Temp\ccaRXo0w.s 			page 9


 223:Source\azure_iot_sdk\iothub_client\src/message_queue.c ****                     LogError("failed processing timeouts (unexpected NULL pointer to MESSAGE_QUEUE_
 224:Source\azure_iot_sdk\iothub_client\src/message_queue.c ****                 }
 225:Source\azure_iot_sdk\iothub_client\src/message_queue.c ****                 else if (get_difftime(current_time, mq_item->processing_start_time) >= message_queu
 226:Source\azure_iot_sdk\iothub_client\src/message_queue.c ****                 {
 227:Source\azure_iot_sdk\iothub_client\src/message_queue.c ****                     dequeue_message_and_fire_callback(message_queue->in_progress, current_list_item
 228:Source\azure_iot_sdk\iothub_client\src/message_queue.c ****                 }
 229:Source\azure_iot_sdk\iothub_client\src/message_queue.c ****                 else
 230:Source\azure_iot_sdk\iothub_client\src/message_queue.c ****                 {
 231:Source\azure_iot_sdk\iothub_client\src/message_queue.c ****                     // The in-progress list order is already based on start-processing time, so if 
 232:Source\azure_iot_sdk\iothub_client\src/message_queue.c ****                     break;
 233:Source\azure_iot_sdk\iothub_client\src/message_queue.c ****                 }
 234:Source\azure_iot_sdk\iothub_client\src/message_queue.c ****             }
 235:Source\azure_iot_sdk\iothub_client\src/message_queue.c ****         }
 236:Source\azure_iot_sdk\iothub_client\src/message_queue.c ****     }
 237:Source\azure_iot_sdk\iothub_client\src/message_queue.c **** }
 238:Source\azure_iot_sdk\iothub_client\src/message_queue.c **** 
 239:Source\azure_iot_sdk\iothub_client\src/message_queue.c **** static void process_pending_messages(MESSAGE_QUEUE_HANDLE message_queue)
 240:Source\azure_iot_sdk\iothub_client\src/message_queue.c **** {
 241:Source\azure_iot_sdk\iothub_client\src/message_queue.c ****     LIST_ITEM_HANDLE list_item;
 242:Source\azure_iot_sdk\iothub_client\src/message_queue.c **** 
 243:Source\azure_iot_sdk\iothub_client\src/message_queue.c ****     while ((list_item = singlylinkedlist_get_head_item(message_queue->pending)) != NULL)
 244:Source\azure_iot_sdk\iothub_client\src/message_queue.c ****     {
 245:Source\azure_iot_sdk\iothub_client\src/message_queue.c ****         MESSAGE_QUEUE_ITEM* mq_item = (MESSAGE_QUEUE_ITEM*)singlylinkedlist_item_get_value(list_ite
 246:Source\azure_iot_sdk\iothub_client\src/message_queue.c **** 
 247:Source\azure_iot_sdk\iothub_client\src/message_queue.c ****         if (mq_item == NULL)
 248:Source\azure_iot_sdk\iothub_client\src/message_queue.c ****         {
 249:Source\azure_iot_sdk\iothub_client\src/message_queue.c ****             LogError("internal error, failed to retrieve list node value");
 250:Source\azure_iot_sdk\iothub_client\src/message_queue.c ****             break;
 251:Source\azure_iot_sdk\iothub_client\src/message_queue.c ****         }
 252:Source\azure_iot_sdk\iothub_client\src/message_queue.c ****         else if (singlylinkedlist_remove(message_queue->pending, list_item) != 0)
 253:Source\azure_iot_sdk\iothub_client\src/message_queue.c ****         {
 254:Source\azure_iot_sdk\iothub_client\src/message_queue.c ****             LogError("failed moving message out of pending list (%p)", mq_item->message);
 255:Source\azure_iot_sdk\iothub_client\src/message_queue.c **** 
 256:Source\azure_iot_sdk\iothub_client\src/message_queue.c ****             // Codes_SRS_MESSAGE_QUEUE_09_042: [If any failures occur, `mq_item->on_message_process
 257:Source\azure_iot_sdk\iothub_client\src/message_queue.c ****             if (mq_item->on_message_processing_completed_callback != NULL)
 258:Source\azure_iot_sdk\iothub_client\src/message_queue.c ****             {
 259:Source\azure_iot_sdk\iothub_client\src/message_queue.c ****                 mq_item->on_message_processing_completed_callback(mq_item->message, MESSAGE_QUEUE_E
 260:Source\azure_iot_sdk\iothub_client\src/message_queue.c ****             }
 261:Source\azure_iot_sdk\iothub_client\src/message_queue.c **** 
 262:Source\azure_iot_sdk\iothub_client\src/message_queue.c ****             // Not freeing since this would cause a memory A/V on the next call.
 263:Source\azure_iot_sdk\iothub_client\src/message_queue.c **** 
 264:Source\azure_iot_sdk\iothub_client\src/message_queue.c ****             break; // Trying to avoid an infinite loop
 265:Source\azure_iot_sdk\iothub_client\src/message_queue.c ****         }
 266:Source\azure_iot_sdk\iothub_client\src/message_queue.c ****         // Codes_SRS_MESSAGE_QUEUE_09_040: [`mq_item->processing_start_time` shall be set using get
 267:Source\azure_iot_sdk\iothub_client\src/message_queue.c ****         else if ((mq_item->processing_start_time = get_time(NULL)) == INDEFINITE_TIME)
 268:Source\azure_iot_sdk\iothub_client\src/message_queue.c ****         {
 269:Source\azure_iot_sdk\iothub_client\src/message_queue.c ****             // Codes_SRS_MESSAGE_QUEUE_09_041: [If get_time() fails, `mq_item` shall be removed fro
 270:Source\azure_iot_sdk\iothub_client\src/message_queue.c ****             LogError("failed setting message processing_start_time (%p)", mq_item->message);
 271:Source\azure_iot_sdk\iothub_client\src/message_queue.c **** 
 272:Source\azure_iot_sdk\iothub_client\src/message_queue.c ****             // Codes_SRS_MESSAGE_QUEUE_09_042: [If any failures occur, `mq_item->on_message_process
 273:Source\azure_iot_sdk\iothub_client\src/message_queue.c ****             if (mq_item->on_message_processing_completed_callback != NULL)
 274:Source\azure_iot_sdk\iothub_client\src/message_queue.c ****             {
 275:Source\azure_iot_sdk\iothub_client\src/message_queue.c ****                 mq_item->on_message_processing_completed_callback(mq_item->message, MESSAGE_QUEUE_E
 276:Source\azure_iot_sdk\iothub_client\src/message_queue.c ****             }
 277:Source\azure_iot_sdk\iothub_client\src/message_queue.c **** 
 278:Source\azure_iot_sdk\iothub_client\src/message_queue.c ****             free(mq_item);
 279:Source\azure_iot_sdk\iothub_client\src/message_queue.c ****         }
ARM GAS  C:\Users\Phuong\AppData\Local\Temp\ccaRXo0w.s 			page 10


 280:Source\azure_iot_sdk\iothub_client\src/message_queue.c ****         // Codes_SRS_MESSAGE_QUEUE_09_039: [Each `mq_item` in `message_queue->pending` shall be mov
 281:Source\azure_iot_sdk\iothub_client\src/message_queue.c ****         else if (singlylinkedlist_add(message_queue->in_progress, (const void*)mq_item) == NULL)
 282:Source\azure_iot_sdk\iothub_client\src/message_queue.c ****         {
 283:Source\azure_iot_sdk\iothub_client\src/message_queue.c ****             LogError("failed moving message to in-progress list (%p)", mq_item->message);
 284:Source\azure_iot_sdk\iothub_client\src/message_queue.c **** 
 285:Source\azure_iot_sdk\iothub_client\src/message_queue.c ****             // Codes_SRS_MESSAGE_QUEUE_09_042: [If any failures occur, `mq_item->on_message_process
 286:Source\azure_iot_sdk\iothub_client\src/message_queue.c ****             if (mq_item->on_message_processing_completed_callback != NULL)
 287:Source\azure_iot_sdk\iothub_client\src/message_queue.c ****             {
 288:Source\azure_iot_sdk\iothub_client\src/message_queue.c ****                 mq_item->on_message_processing_completed_callback(mq_item->message, MESSAGE_QUEUE_E
 289:Source\azure_iot_sdk\iothub_client\src/message_queue.c ****             }
 290:Source\azure_iot_sdk\iothub_client\src/message_queue.c **** 
 291:Source\azure_iot_sdk\iothub_client\src/message_queue.c ****             free(mq_item);
 292:Source\azure_iot_sdk\iothub_client\src/message_queue.c ****         }
 293:Source\azure_iot_sdk\iothub_client\src/message_queue.c ****         else
 294:Source\azure_iot_sdk\iothub_client\src/message_queue.c ****         {
 295:Source\azure_iot_sdk\iothub_client\src/message_queue.c ****             mq_item->number_of_attempts++;
 296:Source\azure_iot_sdk\iothub_client\src/message_queue.c **** 
 297:Source\azure_iot_sdk\iothub_client\src/message_queue.c ****             // Codes_SRS_MESSAGE_QUEUE_09_043: [If no failures occur, `message_queue->on_process_me
 298:Source\azure_iot_sdk\iothub_client\src/message_queue.c ****             message_queue->on_process_message_callback(message_queue, mq_item->message, on_process_
 299:Source\azure_iot_sdk\iothub_client\src/message_queue.c ****         }
 300:Source\azure_iot_sdk\iothub_client\src/message_queue.c ****     }
 301:Source\azure_iot_sdk\iothub_client\src/message_queue.c **** }
 302:Source\azure_iot_sdk\iothub_client\src/message_queue.c **** 
 303:Source\azure_iot_sdk\iothub_client\src/message_queue.c **** static void* cloneOption(const char* name, const void* value)
 304:Source\azure_iot_sdk\iothub_client\src/message_queue.c **** {
 305:Source\azure_iot_sdk\iothub_client\src/message_queue.c ****     void* result;
 306:Source\azure_iot_sdk\iothub_client\src/message_queue.c **** 
 307:Source\azure_iot_sdk\iothub_client\src/message_queue.c ****     if (name == NULL || value == NULL)
 308:Source\azure_iot_sdk\iothub_client\src/message_queue.c ****     {
 309:Source\azure_iot_sdk\iothub_client\src/message_queue.c ****         LogError("invalid argument (name=%p, value=%p)", name, value);
 310:Source\azure_iot_sdk\iothub_client\src/message_queue.c ****         result = NULL;
 311:Source\azure_iot_sdk\iothub_client\src/message_queue.c ****     }
 312:Source\azure_iot_sdk\iothub_client\src/message_queue.c ****     else if (strcmp(SAVED_OPTION_MAX_ENQUEUE_TIME_SECS, name) == 0 ||
 313:Source\azure_iot_sdk\iothub_client\src/message_queue.c ****         strcmp(SAVED_OPTION_MAX_PROCESSING_TIME_SECS, name) == 0 ||
 314:Source\azure_iot_sdk\iothub_client\src/message_queue.c ****         strcmp(SAVED_OPTION_MAX_RETRY_COUNT, name) == 0)
 315:Source\azure_iot_sdk\iothub_client\src/message_queue.c ****     {
 316:Source\azure_iot_sdk\iothub_client\src/message_queue.c ****         if ((result = malloc(sizeof(size_t))) == NULL)
 317:Source\azure_iot_sdk\iothub_client\src/message_queue.c ****         {
 318:Source\azure_iot_sdk\iothub_client\src/message_queue.c ****             LogError("failed cloning option %s (malloc failed)", name);
 319:Source\azure_iot_sdk\iothub_client\src/message_queue.c ****         }
 320:Source\azure_iot_sdk\iothub_client\src/message_queue.c ****         else
 321:Source\azure_iot_sdk\iothub_client\src/message_queue.c ****         {
 322:Source\azure_iot_sdk\iothub_client\src/message_queue.c ****             memcpy(result, value, sizeof(size_t));
 323:Source\azure_iot_sdk\iothub_client\src/message_queue.c ****         }
 324:Source\azure_iot_sdk\iothub_client\src/message_queue.c ****     }
 325:Source\azure_iot_sdk\iothub_client\src/message_queue.c ****     else
 326:Source\azure_iot_sdk\iothub_client\src/message_queue.c ****     {
 327:Source\azure_iot_sdk\iothub_client\src/message_queue.c ****         LogError("option %s is invalid", name);
 328:Source\azure_iot_sdk\iothub_client\src/message_queue.c ****         result = NULL;
 329:Source\azure_iot_sdk\iothub_client\src/message_queue.c ****     }
 330:Source\azure_iot_sdk\iothub_client\src/message_queue.c **** 
 331:Source\azure_iot_sdk\iothub_client\src/message_queue.c ****     return result;
 332:Source\azure_iot_sdk\iothub_client\src/message_queue.c **** }
 333:Source\azure_iot_sdk\iothub_client\src/message_queue.c **** 
 334:Source\azure_iot_sdk\iothub_client\src/message_queue.c **** static void destroyOption(const char* name, const void* value)
 335:Source\azure_iot_sdk\iothub_client\src/message_queue.c **** {
 336:Source\azure_iot_sdk\iothub_client\src/message_queue.c ****     if (name == NULL || value == NULL)
ARM GAS  C:\Users\Phuong\AppData\Local\Temp\ccaRXo0w.s 			page 11


 337:Source\azure_iot_sdk\iothub_client\src/message_queue.c ****     {
 338:Source\azure_iot_sdk\iothub_client\src/message_queue.c ****         LogError("invalid argument (name=%p, value=%p)", name, value);
 339:Source\azure_iot_sdk\iothub_client\src/message_queue.c ****     }
 340:Source\azure_iot_sdk\iothub_client\src/message_queue.c ****     else if (strcmp(SAVED_OPTION_MAX_ENQUEUE_TIME_SECS, name) == 0 ||
 341:Source\azure_iot_sdk\iothub_client\src/message_queue.c ****         strcmp(SAVED_OPTION_MAX_PROCESSING_TIME_SECS, name) == 0 ||
 342:Source\azure_iot_sdk\iothub_client\src/message_queue.c ****         strcmp(SAVED_OPTION_MAX_RETRY_COUNT, name) == 0)
 343:Source\azure_iot_sdk\iothub_client\src/message_queue.c ****     {
 344:Source\azure_iot_sdk\iothub_client\src/message_queue.c ****         free((void*)value);
 345:Source\azure_iot_sdk\iothub_client\src/message_queue.c ****     }
 346:Source\azure_iot_sdk\iothub_client\src/message_queue.c ****     else
 347:Source\azure_iot_sdk\iothub_client\src/message_queue.c ****     {
 348:Source\azure_iot_sdk\iothub_client\src/message_queue.c ****         LogError("option %s is invalid", name);
 349:Source\azure_iot_sdk\iothub_client\src/message_queue.c ****     }
 350:Source\azure_iot_sdk\iothub_client\src/message_queue.c **** }
 351:Source\azure_iot_sdk\iothub_client\src/message_queue.c **** 
 352:Source\azure_iot_sdk\iothub_client\src/message_queue.c **** 
 353:Source\azure_iot_sdk\iothub_client\src/message_queue.c **** 
 354:Source\azure_iot_sdk\iothub_client\src/message_queue.c **** // ---------- Public APIs ---------- //
 355:Source\azure_iot_sdk\iothub_client\src/message_queue.c **** 
 356:Source\azure_iot_sdk\iothub_client\src/message_queue.c **** void message_queue_remove_all(MESSAGE_QUEUE_HANDLE message_queue)
 357:Source\azure_iot_sdk\iothub_client\src/message_queue.c **** {
 358:Source\azure_iot_sdk\iothub_client\src/message_queue.c ****     // Codes_SRS_MESSAGE_QUEUE_09_026: [If `message_queue` is NULL, message_queue_retrieve_options 
 359:Source\azure_iot_sdk\iothub_client\src/message_queue.c ****     if (message_queue != NULL)
 360:Source\azure_iot_sdk\iothub_client\src/message_queue.c ****     {
 361:Source\azure_iot_sdk\iothub_client\src/message_queue.c ****         LIST_ITEM_HANDLE list_item;
 362:Source\azure_iot_sdk\iothub_client\src/message_queue.c **** 
 363:Source\azure_iot_sdk\iothub_client\src/message_queue.c ****         // Codes_SRS_MESSAGE_QUEUE_09_027: [Each `mq_item` in `message_queue->pending` and `message
 364:Source\azure_iot_sdk\iothub_client\src/message_queue.c ****         while ((list_item = singlylinkedlist_get_head_item(message_queue->in_progress)) != NULL)
 365:Source\azure_iot_sdk\iothub_client\src/message_queue.c ****         {
 366:Source\azure_iot_sdk\iothub_client\src/message_queue.c ****             // Codes_SRS_MESSAGE_QUEUE_09_028: [`message_queue->on_message_processing_completed_cal
 367:Source\azure_iot_sdk\iothub_client\src/message_queue.c ****             // Codes_SRS_MESSAGE_QUEUE_09_029: [Each `mq_item` shall be freed]
 368:Source\azure_iot_sdk\iothub_client\src/message_queue.c ****             dequeue_message_and_fire_callback(message_queue->in_progress, list_item, MESSAGE_QUEUE_
 369:Source\azure_iot_sdk\iothub_client\src/message_queue.c ****         }
 370:Source\azure_iot_sdk\iothub_client\src/message_queue.c **** 
 371:Source\azure_iot_sdk\iothub_client\src/message_queue.c ****         while ((list_item = singlylinkedlist_get_head_item(message_queue->pending)) != NULL)
 372:Source\azure_iot_sdk\iothub_client\src/message_queue.c ****         {
 373:Source\azure_iot_sdk\iothub_client\src/message_queue.c ****             // Codes_SRS_MESSAGE_QUEUE_09_028: [`message_queue->on_message_processing_completed_cal
 374:Source\azure_iot_sdk\iothub_client\src/message_queue.c ****             // Codes_SRS_MESSAGE_QUEUE_09_029: [Each `mq_item` shall be freed]
 375:Source\azure_iot_sdk\iothub_client\src/message_queue.c ****             dequeue_message_and_fire_callback(message_queue->pending, list_item, MESSAGE_QUEUE_CANC
 376:Source\azure_iot_sdk\iothub_client\src/message_queue.c ****         }
 377:Source\azure_iot_sdk\iothub_client\src/message_queue.c ****     }
 378:Source\azure_iot_sdk\iothub_client\src/message_queue.c **** }
 379:Source\azure_iot_sdk\iothub_client\src/message_queue.c **** 
 380:Source\azure_iot_sdk\iothub_client\src/message_queue.c **** static int move_messages_between_lists(SINGLYLINKEDLIST_HANDLE from_list, SINGLYLINKEDLIST_HANDLE t
 381:Source\azure_iot_sdk\iothub_client\src/message_queue.c **** {
 231              		.loc 1 381 0
 232              		.cfi_startproc
 233              		@ args = 0, pretend = 0, frame = 0
 234              		@ frame_needed = 0, uses_anonymous_args = 0
 235              	.LVL30:
 236 0000 F0B5     		push	{r4, r5, r6, r7, lr}
 237              		.cfi_def_cfa_offset 20
 238              		.cfi_offset 4, -20
 239              		.cfi_offset 5, -16
 240              		.cfi_offset 6, -12
 241              		.cfi_offset 7, -8
 242              		.cfi_offset 14, -4
ARM GAS  C:\Users\Phuong\AppData\Local\Temp\ccaRXo0w.s 			page 12


 243 0002 83B0     		sub	sp, sp, #12
 244              		.cfi_def_cfa_offset 32
 245 0004 0500     		movs	r5, r0
 246 0006 0E00     		movs	r6, r1
 247              	.LVL31:
 382:Source\azure_iot_sdk\iothub_client\src/message_queue.c ****     int result;
 383:Source\azure_iot_sdk\iothub_client\src/message_queue.c ****     LIST_ITEM_HANDLE list_item;
 384:Source\azure_iot_sdk\iothub_client\src/message_queue.c **** 
 385:Source\azure_iot_sdk\iothub_client\src/message_queue.c ****     result = RESULT_OK;
 248              		.loc 1 385 0
 249 0008 0027     		movs	r7, #0
 386:Source\azure_iot_sdk\iothub_client\src/message_queue.c **** 
 387:Source\azure_iot_sdk\iothub_client\src/message_queue.c ****     while ((list_item = singlylinkedlist_get_head_item(from_list)) != NULL)
 250              		.loc 1 387 0
 251 000a 42E0     		b	.L15
 252              	.LVL32:
 253              	.L21:
 388:Source\azure_iot_sdk\iothub_client\src/message_queue.c ****     {
 389:Source\azure_iot_sdk\iothub_client\src/message_queue.c ****         if (singlylinkedlist_remove(from_list, list_item) != 0)
 254              		.loc 1 389 0
 255 000c 2100     		movs	r1, r4
 256 000e 2800     		movs	r0, r5
 257              	.LVL33:
 258 0010 FFF7FEFF 		bl	singlylinkedlist_remove
 259              	.LVL34:
 260 0014 0028     		cmp	r0, #0
 261 0016 11D0     		beq	.L16
 262              	.LBB3:
 390:Source\azure_iot_sdk\iothub_client\src/message_queue.c ****         {
 391:Source\azure_iot_sdk\iothub_client\src/message_queue.c ****             LogError("failed removing message from list");
 263              		.loc 1 391 0 discriminator 3
 264 0018 FFF7FEFF 		bl	xlogging_get_log_function
 265              	.LVL35:
 266 001c 041E     		subs	r4, r0, #0
 267              	.LVL36:
 268 001e 36D0     		beq	.L22
 269              		.loc 1 391 0 is_stmt 0 discriminator 4
 270 0020 204B     		ldr	r3, .L23
 271 0022 0193     		str	r3, [sp, #4]
 272 0024 0123     		movs	r3, #1
 273 0026 0093     		str	r3, [sp]
 274 0028 8823     		movs	r3, #136
 275 002a FF33     		adds	r3, r3, #255
 276 002c 1E4A     		ldr	r2, .L23+4
 277 002e 2432     		adds	r2, r2, #36
 278 0030 1E49     		ldr	r1, .L23+8
 279 0032 0020     		movs	r0, #0
 280              	.LVL37:
 281 0034 A047     		blx	r4
 282              	.LVL38:
 283              	.LBE3:
 392:Source\azure_iot_sdk\iothub_client\src/message_queue.c ****             result = __FAILURE__;
 284              		.loc 1 392 0 is_stmt 1 discriminator 4
 285 0036 C427     		movs	r7, #196
 286              	.LVL39:
 287 0038 7F00     		lsls	r7, r7, #1
 288 003a 2AE0     		b	.L15
ARM GAS  C:\Users\Phuong\AppData\Local\Temp\ccaRXo0w.s 			page 13


 289              	.LVL40:
 290              	.L16:
 291              	.LBB4:
 393:Source\azure_iot_sdk\iothub_client\src/message_queue.c ****         }
 394:Source\azure_iot_sdk\iothub_client\src/message_queue.c ****         else
 395:Source\azure_iot_sdk\iothub_client\src/message_queue.c ****         {
 396:Source\azure_iot_sdk\iothub_client\src/message_queue.c ****             MESSAGE_QUEUE_ITEM* mq_item = (MESSAGE_QUEUE_ITEM*)singlylinkedlist_item_get_value(list
 292              		.loc 1 396 0
 293 003c 2000     		movs	r0, r4
 294 003e FFF7FEFF 		bl	singlylinkedlist_item_get_value
 295              	.LVL41:
 296 0042 0400     		movs	r4, r0
 297              	.LVL42:
 397:Source\azure_iot_sdk\iothub_client\src/message_queue.c **** 
 398:Source\azure_iot_sdk\iothub_client\src/message_queue.c ****             if (singlylinkedlist_add(to_list, (const void*)mq_item) != 0)
 298              		.loc 1 398 0
 299 0044 0100     		movs	r1, r0
 300 0046 3000     		movs	r0, r6
 301              	.LVL43:
 302 0048 FFF7FEFF 		bl	singlylinkedlist_add
 303              	.LVL44:
 304 004c 0028     		cmp	r0, #0
 305 004e 19D0     		beq	.L18
 306              	.LBB5:
 399:Source\azure_iot_sdk\iothub_client\src/message_queue.c ****             {
 400:Source\azure_iot_sdk\iothub_client\src/message_queue.c ****                 LogError("failed moving message to list");
 307              		.loc 1 400 0 discriminator 3
 308 0050 FFF7FEFF 		bl	xlogging_get_log_function
 309              	.LVL45:
 310 0054 051E     		subs	r5, r0, #0
 311              	.LVL46:
 312 0056 0AD0     		beq	.L19
 313              		.loc 1 400 0 is_stmt 0 discriminator 4
 314 0058 154B     		ldr	r3, .L23+12
 315 005a 0193     		str	r3, [sp, #4]
 316 005c 0123     		movs	r3, #1
 317 005e 0093     		str	r3, [sp]
 318 0060 9033     		adds	r3, r3, #144
 319 0062 FF33     		adds	r3, r3, #255
 320 0064 104A     		ldr	r2, .L23+4
 321 0066 2432     		adds	r2, r2, #36
 322 0068 1049     		ldr	r1, .L23+8
 323 006a 0020     		movs	r0, #0
 324              	.LVL47:
 325 006c A847     		blx	r5
 326              	.LVL48:
 327              	.L19:
 328              	.LBE5:
 401:Source\azure_iot_sdk\iothub_client\src/message_queue.c **** 
 402:Source\azure_iot_sdk\iothub_client\src/message_queue.c ****                 fire_message_callback(mq_item, MESSAGE_QUEUE_CANCELLED, NULL);
 329              		.loc 1 402 0 is_stmt 1
 330 006e 0022     		movs	r2, #0
 331 0070 0421     		movs	r1, #4
 332 0072 2000     		movs	r0, r4
 333 0074 FFF7FEFF 		bl	fire_message_callback
 334              	.LVL49:
 403:Source\azure_iot_sdk\iothub_client\src/message_queue.c **** 
ARM GAS  C:\Users\Phuong\AppData\Local\Temp\ccaRXo0w.s 			page 14


 404:Source\azure_iot_sdk\iothub_client\src/message_queue.c ****                 free(mq_item);
 335              		.loc 1 404 0
 336 0078 2000     		movs	r0, r4
 337 007a FFF7FEFF 		bl	free
 338              	.LVL50:
 405:Source\azure_iot_sdk\iothub_client\src/message_queue.c **** 
 406:Source\azure_iot_sdk\iothub_client\src/message_queue.c ****                 result = __FAILURE__;
 339              		.loc 1 406 0
 340 007e CB27     		movs	r7, #203
 341 0080 7F00     		lsls	r7, r7, #1
 407:Source\azure_iot_sdk\iothub_client\src/message_queue.c **** 
 408:Source\azure_iot_sdk\iothub_client\src/message_queue.c ****                 break;
 342              		.loc 1 408 0
 343 0082 0BE0     		b	.L20
 344              	.LVL51:
 345              	.L18:
 409:Source\azure_iot_sdk\iothub_client\src/message_queue.c ****             }
 410:Source\azure_iot_sdk\iothub_client\src/message_queue.c ****             else
 411:Source\azure_iot_sdk\iothub_client\src/message_queue.c ****             {
 412:Source\azure_iot_sdk\iothub_client\src/message_queue.c ****                 mq_item->number_of_attempts = 0;
 346              		.loc 1 412 0
 347 0084 0023     		movs	r3, #0
 348 0086 6361     		str	r3, [r4, #20]
 413:Source\azure_iot_sdk\iothub_client\src/message_queue.c ****                 mq_item->processing_start_time = INDEFINITE_TIME;
 349              		.loc 1 413 0
 350 0088 013B     		subs	r3, r3, #1
 351 008a 2361     		str	r3, [r4, #16]
 352 008c 01E0     		b	.L15
 353              	.LVL52:
 354              	.L22:
 355              	.LBE4:
 392:Source\azure_iot_sdk\iothub_client\src/message_queue.c ****         }
 356              		.loc 1 392 0
 357 008e C427     		movs	r7, #196
 358              	.LVL53:
 359 0090 7F00     		lsls	r7, r7, #1
 360              	.LVL54:
 361              	.L15:
 387:Source\azure_iot_sdk\iothub_client\src/message_queue.c ****     {
 362              		.loc 1 387 0
 363 0092 2800     		movs	r0, r5
 364 0094 FFF7FEFF 		bl	singlylinkedlist_get_head_item
 365              	.LVL55:
 366 0098 041E     		subs	r4, r0, #0
 367              	.LVL56:
 368 009a B7D1     		bne	.L21
 369              	.LVL57:
 370              	.L20:
 414:Source\azure_iot_sdk\iothub_client\src/message_queue.c ****             }
 415:Source\azure_iot_sdk\iothub_client\src/message_queue.c ****         }
 416:Source\azure_iot_sdk\iothub_client\src/message_queue.c ****     }
 417:Source\azure_iot_sdk\iothub_client\src/message_queue.c **** 
 418:Source\azure_iot_sdk\iothub_client\src/message_queue.c ****     return result;
 419:Source\azure_iot_sdk\iothub_client\src/message_queue.c **** }
 371              		.loc 1 419 0
 372 009c 3800     		movs	r0, r7
 373 009e 03B0     		add	sp, sp, #12
ARM GAS  C:\Users\Phuong\AppData\Local\Temp\ccaRXo0w.s 			page 15


 374              		@ sp needed
 375              	.LVL58:
 376              	.LVL59:
 377 00a0 F0BD     		pop	{r4, r5, r6, r7, pc}
 378              	.L24:
 379 00a2 C046     		.align	2
 380              	.L23:
 381 00a4 60000000 		.word	.LC7
 382 00a8 00000000 		.word	.LANCHOR0
 383 00ac 00000000 		.word	.LC1
 384 00b0 84000000 		.word	.LC9
 385              		.cfi_endproc
 386              	.LFE12:
 387              		.size	move_messages_between_lists, .-move_messages_between_lists
 388              		.section	.text.retry_sending_message,"ax",%progbits
 389              		.align	2
 390              		.code	16
 391              		.thumb_func
 392              		.type	retry_sending_message, %function
 393              	retry_sending_message:
 394              	.LFB4:
  79:Source\azure_iot_sdk\iothub_client\src/message_queue.c ****     int result;
 395              		.loc 1 79 0
 396              		.cfi_startproc
 397              		@ args = 0, pretend = 0, frame = 0
 398              		@ frame_needed = 0, uses_anonymous_args = 0
 399              	.LVL60:
 400 0000 70B5     		push	{r4, r5, r6, lr}
 401              		.cfi_def_cfa_offset 16
 402              		.cfi_offset 4, -16
 403              		.cfi_offset 5, -12
 404              		.cfi_offset 6, -8
 405              		.cfi_offset 14, -4
 406 0002 82B0     		sub	sp, sp, #8
 407              		.cfi_def_cfa_offset 24
 408 0004 0500     		movs	r5, r0
 409 0006 0C00     		movs	r4, r1
  83:Source\azure_iot_sdk\iothub_client\src/message_queue.c **** 
 410              		.loc 1 83 0
 411 0008 0800     		movs	r0, r1
 412              	.LVL61:
 413 000a FFF7FEFF 		bl	singlylinkedlist_item_get_value
 414              	.LVL62:
 415 000e 0600     		movs	r6, r0
 416              	.LVL63:
  85:Source\azure_iot_sdk\iothub_client\src/message_queue.c ****     {
 417              		.loc 1 85 0
 418 0010 2100     		movs	r1, r4
 419 0012 A869     		ldr	r0, [r5, #24]
 420              	.LVL64:
 421 0014 FFF7FEFF 		bl	singlylinkedlist_remove
 422              	.LVL65:
 423 0018 0028     		cmp	r0, #0
 424 001a 0FD0     		beq	.L26
 425              	.LBB6:
  87:Source\azure_iot_sdk\iothub_client\src/message_queue.c ****         result = __FAILURE__;
 426              		.loc 1 87 0 discriminator 3
ARM GAS  C:\Users\Phuong\AppData\Local\Temp\ccaRXo0w.s 			page 16


 427 001c FFF7FEFF 		bl	xlogging_get_log_function
 428              	.LVL66:
 429 0020 041E     		subs	r4, r0, #0
 430              	.LVL67:
 431 0022 21D0     		beq	.L28
  87:Source\azure_iot_sdk\iothub_client\src/message_queue.c ****         result = __FAILURE__;
 432              		.loc 1 87 0 is_stmt 0 discriminator 4
 433 0024 144B     		ldr	r3, .L31
 434 0026 0193     		str	r3, [sp, #4]
 435 0028 0123     		movs	r3, #1
 436 002a 0093     		str	r3, [sp]
 437 002c 5633     		adds	r3, r3, #86
 438 002e 134A     		ldr	r2, .L31+4
 439 0030 4032     		adds	r2, r2, #64
 440 0032 1349     		ldr	r1, .L31+8
 441 0034 0020     		movs	r0, #0
 442              	.LVL68:
 443 0036 A047     		blx	r4
 444              	.LVL69:
 445              	.LBE6:
  88:Source\azure_iot_sdk\iothub_client\src/message_queue.c ****     }
 446              		.loc 1 88 0 is_stmt 1 discriminator 4
 447 0038 5820     		movs	r0, #88
 448 003a 1AE0     		b	.L27
 449              	.LVL70:
 450              	.L26:
  90:Source\azure_iot_sdk\iothub_client\src/message_queue.c ****     {
 451              		.loc 1 90 0
 452 003c 6869     		ldr	r0, [r5, #20]
 453 003e 3100     		movs	r1, r6
 454 0040 FFF7FEFF 		bl	singlylinkedlist_add
 455              	.LVL71:
 456 0044 0028     		cmp	r0, #0
 457 0046 11D1     		bne	.L29
 458              	.LBB7:
  92:Source\azure_iot_sdk\iothub_client\src/message_queue.c ****         result = __FAILURE__;
 459              		.loc 1 92 0 discriminator 3
 460 0048 FFF7FEFF 		bl	xlogging_get_log_function
 461              	.LVL72:
 462 004c 041E     		subs	r4, r0, #0
 463              	.LVL73:
 464 004e 0FD0     		beq	.L30
  92:Source\azure_iot_sdk\iothub_client\src/message_queue.c ****         result = __FAILURE__;
 465              		.loc 1 92 0 is_stmt 0 discriminator 4
 466 0050 0C4B     		ldr	r3, .L31+12
 467 0052 0193     		str	r3, [sp, #4]
 468 0054 0123     		movs	r3, #1
 469 0056 0093     		str	r3, [sp]
 470 0058 5B33     		adds	r3, r3, #91
 471 005a 084A     		ldr	r2, .L31+4
 472 005c 4032     		adds	r2, r2, #64
 473 005e 0849     		ldr	r1, .L31+8
 474 0060 0020     		movs	r0, #0
 475              	.LVL74:
 476 0062 A047     		blx	r4
 477              	.LVL75:
 478              	.LBE7:
ARM GAS  C:\Users\Phuong\AppData\Local\Temp\ccaRXo0w.s 			page 17


  93:Source\azure_iot_sdk\iothub_client\src/message_queue.c ****     }
 479              		.loc 1 93 0 is_stmt 1 discriminator 4
 480 0064 5D20     		movs	r0, #93
 481 0066 04E0     		b	.L27
 482              	.LVL76:
 483              	.L28:
  88:Source\azure_iot_sdk\iothub_client\src/message_queue.c ****     }
 484              		.loc 1 88 0
 485 0068 5820     		movs	r0, #88
 486              	.LVL77:
 487 006a 02E0     		b	.L27
 488              	.LVL78:
 489              	.L29:
  97:Source\azure_iot_sdk\iothub_client\src/message_queue.c ****     }
 490              		.loc 1 97 0
 491 006c 0020     		movs	r0, #0
 492 006e 00E0     		b	.L27
 493              	.LVL79:
 494              	.L30:
  93:Source\azure_iot_sdk\iothub_client\src/message_queue.c ****     }
 495              		.loc 1 93 0
 496 0070 5D20     		movs	r0, #93
 497              	.LVL80:
 498              	.L27:
 101:Source\azure_iot_sdk\iothub_client\src/message_queue.c **** 
 499              		.loc 1 101 0
 500 0072 02B0     		add	sp, sp, #8
 501              		@ sp needed
 502              	.LVL81:
 503              	.LVL82:
 504 0074 70BD     		pop	{r4, r5, r6, pc}
 505              	.L32:
 506 0076 C046     		.align	2
 507              	.L31:
 508 0078 A4000000 		.word	.LC13
 509 007c 00000000 		.word	.LANCHOR0
 510 0080 00000000 		.word	.LC1
 511 0084 D4000000 		.word	.LC15
 512              		.cfi_endproc
 513              	.LFE4:
 514              		.size	retry_sending_message, .-retry_sending_message
 515              		.section	.text.process_pending_messages,"ax",%progbits
 516              		.align	2
 517              		.code	16
 518              		.thumb_func
 519              		.type	process_pending_messages, %function
 520              	process_pending_messages:
 521              	.LFB8:
 240:Source\azure_iot_sdk\iothub_client\src/message_queue.c ****     LIST_ITEM_HANDLE list_item;
 522              		.loc 1 240 0
 523              		.cfi_startproc
 524              		@ args = 0, pretend = 0, frame = 0
 525              		@ frame_needed = 0, uses_anonymous_args = 0
 526              	.LVL83:
 527 0000 70B5     		push	{r4, r5, r6, lr}
 528              		.cfi_def_cfa_offset 16
 529              		.cfi_offset 4, -16
ARM GAS  C:\Users\Phuong\AppData\Local\Temp\ccaRXo0w.s 			page 18


 530              		.cfi_offset 5, -12
 531              		.cfi_offset 6, -8
 532              		.cfi_offset 14, -4
 533 0002 84B0     		sub	sp, sp, #16
 534              		.cfi_def_cfa_offset 32
 535 0004 0600     		movs	r6, r0
 243:Source\azure_iot_sdk\iothub_client\src/message_queue.c ****     {
 536              		.loc 1 243 0
 537 0006 82E0     		b	.L34
 538              	.LVL84:
 539              	.L46:
 540              	.LBB8:
 245:Source\azure_iot_sdk\iothub_client\src/message_queue.c **** 
 541              		.loc 1 245 0
 542 0008 2800     		movs	r0, r5
 543              	.LVL85:
 544 000a FFF7FEFF 		bl	singlylinkedlist_item_get_value
 545              	.LVL86:
 546 000e 041E     		subs	r4, r0, #0
 547              	.LVL87:
 247:Source\azure_iot_sdk\iothub_client\src/message_queue.c ****         {
 548              		.loc 1 247 0
 549 0010 0FD1     		bne	.L35
 550              	.LBB9:
 249:Source\azure_iot_sdk\iothub_client\src/message_queue.c ****             break;
 551              		.loc 1 249 0 discriminator 3
 552 0012 FFF7FEFF 		bl	xlogging_get_log_function
 553              	.LVL88:
 554 0016 041E     		subs	r4, r0, #0
 555              	.LVL89:
 556 0018 00D1     		bne	.LCB569
 557 001a 7EE0     		b	.L33	@long jump
 558              	.LCB569:
 249:Source\azure_iot_sdk\iothub_client\src/message_queue.c ****             break;
 559              		.loc 1 249 0 is_stmt 0 discriminator 4
 560 001c 404B     		ldr	r3, .L47
 561 001e 0193     		str	r3, [sp, #4]
 562 0020 0123     		movs	r3, #1
 563 0022 0093     		str	r3, [sp]
 564 0024 F833     		adds	r3, r3, #248
 565 0026 3F4A     		ldr	r2, .L47+4
 566 0028 5832     		adds	r2, r2, #88
 567 002a 3F49     		ldr	r1, .L47+8
 568 002c 0020     		movs	r0, #0
 569              	.LVL90:
 570 002e A047     		blx	r4
 571              	.LVL91:
 572 0030 73E0     		b	.L33
 573              	.LVL92:
 574              	.L35:
 575              	.LBE9:
 252:Source\azure_iot_sdk\iothub_client\src/message_queue.c ****         {
 576              		.loc 1 252 0 is_stmt 1
 577 0032 2900     		movs	r1, r5
 578 0034 7069     		ldr	r0, [r6, #20]
 579              	.LVL93:
 580 0036 FFF7FEFF 		bl	singlylinkedlist_remove
ARM GAS  C:\Users\Phuong\AppData\Local\Temp\ccaRXo0w.s 			page 19


 581              	.LVL94:
 582 003a 0028     		cmp	r0, #0
 583 003c 18D0     		beq	.L37
 584              	.LBB10:
 254:Source\azure_iot_sdk\iothub_client\src/message_queue.c **** 
 585              		.loc 1 254 0 discriminator 3
 586 003e FFF7FEFF 		bl	xlogging_get_log_function
 587              	.LVL95:
 588 0042 051E     		subs	r5, r0, #0
 589              	.LVL96:
 590 0044 0BD0     		beq	.L38
 254:Source\azure_iot_sdk\iothub_client\src/message_queue.c **** 
 591              		.loc 1 254 0 is_stmt 0 discriminator 4
 592 0046 2368     		ldr	r3, [r4]
 593 0048 0293     		str	r3, [sp, #8]
 594 004a 384B     		ldr	r3, .L47+12
 595 004c 0193     		str	r3, [sp, #4]
 596 004e 0123     		movs	r3, #1
 597 0050 0093     		str	r3, [sp]
 598 0052 FD33     		adds	r3, r3, #253
 599 0054 334A     		ldr	r2, .L47+4
 600 0056 5832     		adds	r2, r2, #88
 601 0058 3349     		ldr	r1, .L47+8
 602 005a 0020     		movs	r0, #0
 603              	.LVL97:
 604 005c A847     		blx	r5
 605              	.LVL98:
 606              	.L38:
 607              	.LBE10:
 257:Source\azure_iot_sdk\iothub_client\src/message_queue.c ****             {
 608              		.loc 1 257 0 is_stmt 1
 609 005e 6568     		ldr	r5, [r4, #4]
 610              	.LVL99:
 611 0060 002D     		cmp	r5, #0
 612 0062 5AD0     		beq	.L33
 259:Source\azure_iot_sdk\iothub_client\src/message_queue.c ****             }
 613              		.loc 1 259 0
 614 0064 A368     		ldr	r3, [r4, #8]
 615 0066 2068     		ldr	r0, [r4]
 616 0068 0022     		movs	r2, #0
 617 006a 0121     		movs	r1, #1
 618 006c A847     		blx	r5
 619              	.LVL100:
 620 006e 54E0     		b	.L33
 621              	.LVL101:
 622              	.L37:
 267:Source\azure_iot_sdk\iothub_client\src/message_queue.c ****         {
 623              		.loc 1 267 0
 624 0070 0020     		movs	r0, #0
 625 0072 FFF7FEFF 		bl	get_time
 626              	.LVL102:
 627 0076 2061     		str	r0, [r4, #16]
 628 0078 431C     		adds	r3, r0, #1
 629 007a 1CD1     		bne	.L39
 630              	.LBB11:
 270:Source\azure_iot_sdk\iothub_client\src/message_queue.c **** 
 631              		.loc 1 270 0 discriminator 3
ARM GAS  C:\Users\Phuong\AppData\Local\Temp\ccaRXo0w.s 			page 20


 632 007c FFF7FEFF 		bl	xlogging_get_log_function
 633              	.LVL103:
 634 0080 051E     		subs	r5, r0, #0
 635              	.LVL104:
 636 0082 0CD0     		beq	.L40
 270:Source\azure_iot_sdk\iothub_client\src/message_queue.c **** 
 637              		.loc 1 270 0 is_stmt 0 discriminator 4
 638 0084 2368     		ldr	r3, [r4]
 639 0086 0293     		str	r3, [sp, #8]
 640 0088 294B     		ldr	r3, .L47+16
 641 008a 0193     		str	r3, [sp, #4]
 642 008c 0123     		movs	r3, #1
 643 008e 0093     		str	r3, [sp]
 644 0090 0E33     		adds	r3, r3, #14
 645 0092 FF33     		adds	r3, r3, #255
 646 0094 234A     		ldr	r2, .L47+4
 647 0096 5832     		adds	r2, r2, #88
 648 0098 2349     		ldr	r1, .L47+8
 649 009a 0020     		movs	r0, #0
 650              	.LVL105:
 651 009c A847     		blx	r5
 652              	.LVL106:
 653              	.L40:
 654              	.LBE11:
 273:Source\azure_iot_sdk\iothub_client\src/message_queue.c ****             {
 655              		.loc 1 273 0 is_stmt 1
 656 009e 6568     		ldr	r5, [r4, #4]
 657              	.LVL107:
 658 00a0 002D     		cmp	r5, #0
 659 00a2 04D0     		beq	.L41
 275:Source\azure_iot_sdk\iothub_client\src/message_queue.c ****             }
 660              		.loc 1 275 0
 661 00a4 A368     		ldr	r3, [r4, #8]
 662 00a6 0022     		movs	r2, #0
 663 00a8 0121     		movs	r1, #1
 664 00aa 2068     		ldr	r0, [r4]
 665 00ac A847     		blx	r5
 666              	.LVL108:
 667              	.L41:
 278:Source\azure_iot_sdk\iothub_client\src/message_queue.c ****         }
 668              		.loc 1 278 0
 669 00ae 2000     		movs	r0, r4
 670 00b0 FFF7FEFF 		bl	free
 671              	.LVL109:
 672 00b4 2BE0     		b	.L34
 673              	.LVL110:
 674              	.L39:
 281:Source\azure_iot_sdk\iothub_client\src/message_queue.c ****         {
 675              		.loc 1 281 0
 676 00b6 2100     		movs	r1, r4
 677 00b8 B069     		ldr	r0, [r6, #24]
 678 00ba FFF7FEFF 		bl	singlylinkedlist_add
 679              	.LVL111:
 680 00be 0028     		cmp	r0, #0
 681 00c0 1CD1     		bne	.L43
 682              	.LBB12:
 283:Source\azure_iot_sdk\iothub_client\src/message_queue.c **** 
ARM GAS  C:\Users\Phuong\AppData\Local\Temp\ccaRXo0w.s 			page 21


 683              		.loc 1 283 0 discriminator 3
 684 00c2 FFF7FEFF 		bl	xlogging_get_log_function
 685              	.LVL112:
 686 00c6 051E     		subs	r5, r0, #0
 687              	.LVL113:
 688 00c8 0CD0     		beq	.L44
 283:Source\azure_iot_sdk\iothub_client\src/message_queue.c **** 
 689              		.loc 1 283 0 is_stmt 0 discriminator 4
 690 00ca 2368     		ldr	r3, [r4]
 691 00cc 0293     		str	r3, [sp, #8]
 692 00ce 194B     		ldr	r3, .L47+20
 693 00d0 0193     		str	r3, [sp, #4]
 694 00d2 0123     		movs	r3, #1
 695 00d4 0093     		str	r3, [sp]
 696 00d6 1C23     		movs	r3, #28
 697 00d8 FF33     		adds	r3, r3, #255
 698 00da 124A     		ldr	r2, .L47+4
 699 00dc 5832     		adds	r2, r2, #88
 700 00de 1249     		ldr	r1, .L47+8
 701 00e0 0020     		movs	r0, #0
 702              	.LVL114:
 703 00e2 A847     		blx	r5
 704              	.LVL115:
 705              	.L44:
 706              	.LBE12:
 286:Source\azure_iot_sdk\iothub_client\src/message_queue.c ****             {
 707              		.loc 1 286 0 is_stmt 1
 708 00e4 6568     		ldr	r5, [r4, #4]
 709              	.LVL116:
 710 00e6 002D     		cmp	r5, #0
 711 00e8 04D0     		beq	.L45
 288:Source\azure_iot_sdk\iothub_client\src/message_queue.c ****             }
 712              		.loc 1 288 0
 713 00ea A368     		ldr	r3, [r4, #8]
 714 00ec 0022     		movs	r2, #0
 715 00ee 0121     		movs	r1, #1
 716 00f0 2068     		ldr	r0, [r4]
 717 00f2 A847     		blx	r5
 718              	.LVL117:
 719              	.L45:
 291:Source\azure_iot_sdk\iothub_client\src/message_queue.c ****         }
 720              		.loc 1 291 0
 721 00f4 2000     		movs	r0, r4
 722 00f6 FFF7FEFF 		bl	free
 723              	.LVL118:
 724 00fa 08E0     		b	.L34
 725              	.LVL119:
 726              	.L43:
 295:Source\azure_iot_sdk\iothub_client\src/message_queue.c **** 
 727              		.loc 1 295 0
 728 00fc 6369     		ldr	r3, [r4, #20]
 729 00fe 0133     		adds	r3, r3, #1
 730 0100 6361     		str	r3, [r4, #20]
 298:Source\azure_iot_sdk\iothub_client\src/message_queue.c ****         }
 731              		.loc 1 298 0
 732 0102 A368     		ldr	r3, [r4, #8]
 733 0104 2168     		ldr	r1, [r4]
ARM GAS  C:\Users\Phuong\AppData\Local\Temp\ccaRXo0w.s 			page 22


 734 0106 0C4A     		ldr	r2, .L47+24
 735 0108 3000     		movs	r0, r6
 736 010a F468     		ldr	r4, [r6, #12]
 737              	.LVL120:
 738 010c A047     		blx	r4
 739              	.LVL121:
 740              	.L34:
 741              	.LBE8:
 243:Source\azure_iot_sdk\iothub_client\src/message_queue.c ****     {
 742              		.loc 1 243 0
 743 010e 7069     		ldr	r0, [r6, #20]
 744 0110 FFF7FEFF 		bl	singlylinkedlist_get_head_item
 745              	.LVL122:
 746 0114 051E     		subs	r5, r0, #0
 747              	.LVL123:
 748 0116 00D0     		beq	.LCB785
 749 0118 76E7     		b	.L46	@long jump
 750              	.LCB785:
 751              	.LVL124:
 752              	.L33:
 301:Source\azure_iot_sdk\iothub_client\src/message_queue.c **** 
 753              		.loc 1 301 0
 754 011a 04B0     		add	sp, sp, #16
 755              		@ sp needed
 756              	.LVL125:
 757 011c 70BD     		pop	{r4, r5, r6, pc}
 758              	.L48:
 759 011e C046     		.align	2
 760              	.L47:
 761 0120 00010000 		.word	.LC19
 762 0124 00000000 		.word	.LANCHOR0
 763 0128 00000000 		.word	.LC1
 764 012c 34010000 		.word	.LC21
 765 0130 64010000 		.word	.LC23
 766 0134 98010000 		.word	.LC25
 767 0138 00000000 		.word	on_process_message_completed_callback
 768              		.cfi_endproc
 769              	.LFE8:
 770              		.size	process_pending_messages, .-process_pending_messages
 771              		.global	__aeabi_ui2d
 772              		.global	__aeabi_dcmpge
 773              		.section	.text.process_timeouts,"ax",%progbits
 774              		.align	2
 775              		.code	16
 776              		.thumb_func
 777              		.type	process_timeouts, %function
 778              	process_timeouts:
 779              	.LFB7:
 151:Source\azure_iot_sdk\iothub_client\src/message_queue.c ****     time_t current_time;
 780              		.loc 1 151 0
 781              		.cfi_startproc
 782              		@ args = 0, pretend = 0, frame = 16
 783              		@ frame_needed = 0, uses_anonymous_args = 0
 784              	.LVL126:
 785 0000 F0B5     		push	{r4, r5, r6, r7, lr}
 786              		.cfi_def_cfa_offset 20
 787              		.cfi_offset 4, -20
ARM GAS  C:\Users\Phuong\AppData\Local\Temp\ccaRXo0w.s 			page 23


 788              		.cfi_offset 5, -16
 789              		.cfi_offset 6, -12
 790              		.cfi_offset 7, -8
 791              		.cfi_offset 14, -4
 792 0002 87B0     		sub	sp, sp, #28
 793              		.cfi_def_cfa_offset 48
 794 0004 0700     		movs	r7, r0
 154:Source\azure_iot_sdk\iothub_client\src/message_queue.c ****     {
 795              		.loc 1 154 0
 796 0006 0020     		movs	r0, #0
 797              	.LVL127:
 798 0008 FFF7FEFF 		bl	get_time
 799              	.LVL128:
 800 000c 0500     		movs	r5, r0
 801              	.LVL129:
 802 000e 431C     		adds	r3, r0, #1
 803 0010 0FD1     		bne	.L50
 804              	.LBB13:
 156:Source\azure_iot_sdk\iothub_client\src/message_queue.c ****     }
 805              		.loc 1 156 0 discriminator 3
 806 0012 FFF7FEFF 		bl	xlogging_get_log_function
 807              	.LVL130:
 808 0016 041E     		subs	r4, r0, #0
 809              	.LVL131:
 810 0018 00D1     		bne	.LCB841
 811 001a B8E0     		b	.L49	@long jump
 812              	.LCB841:
 156:Source\azure_iot_sdk\iothub_client\src/message_queue.c ****     }
 813              		.loc 1 156 0 is_stmt 0 discriminator 4
 814 001c 5D4B     		ldr	r3, .L72
 815 001e 0193     		str	r3, [sp, #4]
 816 0020 0123     		movs	r3, #1
 817 0022 0093     		str	r3, [sp]
 818 0024 9B33     		adds	r3, r3, #155
 819 0026 5C4A     		ldr	r2, .L72+4
 820 0028 7432     		adds	r2, r2, #116
 821 002a 5C49     		ldr	r1, .L72+8
 822 002c 0020     		movs	r0, #0
 823              	.LVL132:
 824 002e A047     		blx	r4
 825              	.LVL133:
 826 0030 ADE0     		b	.L49
 827              	.LVL134:
 828              	.L50:
 829              	.LBE13:
 161:Source\azure_iot_sdk\iothub_client\src/message_queue.c ****         {
 830              		.loc 1 161 0 is_stmt 1
 831 0032 3B68     		ldr	r3, [r7]
 832 0034 002B     		cmp	r3, #0
 833 0036 6FD0     		beq	.L52
 834              	.LBB14:
 163:Source\azure_iot_sdk\iothub_client\src/message_queue.c **** 
 835              		.loc 1 163 0
 836 0038 7869     		ldr	r0, [r7, #20]
 837              	.LVL135:
 838 003a FFF7FEFF 		bl	singlylinkedlist_get_head_item
 839              	.LVL136:
ARM GAS  C:\Users\Phuong\AppData\Local\Temp\ccaRXo0w.s 			page 24


 840 003e 0400     		movs	r4, r0
 841              	.LVL137:
 165:Source\azure_iot_sdk\iothub_client\src/message_queue.c ****             {
 842              		.loc 1 165 0
 843 0040 30E0     		b	.L53
 844              	.LVL138:
 845              	.L58:
 846              	.LBB15:
 168:Source\azure_iot_sdk\iothub_client\src/message_queue.c **** 
 847              		.loc 1 168 0
 848 0042 2000     		movs	r0, r4
 849 0044 FFF7FEFF 		bl	singlylinkedlist_item_get_value
 850              	.LVL139:
 851 0048 0600     		movs	r6, r0
 852              	.LVL140:
 170:Source\azure_iot_sdk\iothub_client\src/message_queue.c **** 
 853              		.loc 1 170 0
 854 004a 2000     		movs	r0, r4
 855              	.LVL141:
 856 004c FFF7FEFF 		bl	singlylinkedlist_get_next_item
 857              	.LVL142:
 858 0050 0390     		str	r0, [sp, #12]
 859              	.LVL143:
 172:Source\azure_iot_sdk\iothub_client\src/message_queue.c ****                 {
 860              		.loc 1 172 0
 861 0052 002E     		cmp	r6, #0
 862 0054 0ED1     		bne	.L54
 863              	.LBB16:
 174:Source\azure_iot_sdk\iothub_client\src/message_queue.c ****                 }
 864              		.loc 1 174 0 discriminator 3
 865 0056 FFF7FEFF 		bl	xlogging_get_log_function
 866              	.LVL144:
 867 005a 041E     		subs	r4, r0, #0
 868              	.LVL145:
 869 005c 21D0     		beq	.L55
 174:Source\azure_iot_sdk\iothub_client\src/message_queue.c ****                 }
 870              		.loc 1 174 0 is_stmt 0 discriminator 4
 871 005e 504B     		ldr	r3, .L72+12
 872 0060 0193     		str	r3, [sp, #4]
 873 0062 0123     		movs	r3, #1
 874 0064 0093     		str	r3, [sp]
 875 0066 AD33     		adds	r3, r3, #173
 876 0068 4B4A     		ldr	r2, .L72+4
 877 006a 7432     		adds	r2, r2, #116
 878 006c 4B49     		ldr	r1, .L72+8
 879 006e 0020     		movs	r0, #0
 880              	.LVL146:
 881 0070 A047     		blx	r4
 882              	.LVL147:
 883 0072 16E0     		b	.L55
 884              	.LVL148:
 885              	.L54:
 886              	.LBE16:
 176:Source\azure_iot_sdk\iothub_client\src/message_queue.c ****                 {
 887              		.loc 1 176 0 is_stmt 1
 888 0074 F168     		ldr	r1, [r6, #12]
 889 0076 2800     		movs	r0, r5
ARM GAS  C:\Users\Phuong\AppData\Local\Temp\ccaRXo0w.s 			page 25


 890              	.LVL149:
 891 0078 FFF7FEFF 		bl	get_difftime
 892              	.LVL150:
 893 007c 0490     		str	r0, [sp, #16]
 894 007e 0591     		str	r1, [sp, #20]
 895 0080 3868     		ldr	r0, [r7]
 896 0082 FFF7FEFF 		bl	__aeabi_ui2d
 897              	.LVL151:
 898 0086 0200     		movs	r2, r0
 899 0088 0B00     		movs	r3, r1
 900 008a 0498     		ldr	r0, [sp, #16]
 901 008c 0599     		ldr	r1, [sp, #20]
 902 008e FFF7FEFF 		bl	__aeabi_dcmpge
 903              	.LVL152:
 904 0092 0028     		cmp	r0, #0
 905 0094 08D0     		beq	.L56
 179:Source\azure_iot_sdk\iothub_client\src/message_queue.c ****                 }
 906              		.loc 1 179 0
 907 0096 0023     		movs	r3, #0
 908 0098 0322     		movs	r2, #3
 909 009a 2100     		movs	r1, r4
 910 009c 7869     		ldr	r0, [r7, #20]
 911 009e FFF7FEFF 		bl	dequeue_message_and_fire_callback
 912              	.LVL153:
 913              	.L55:
 914              	.LBE15:
 915              	.LBE14:
 151:Source\azure_iot_sdk\iothub_client\src/message_queue.c ****     time_t current_time;
 916              		.loc 1 151 0
 917 00a2 039C     		ldr	r4, [sp, #12]
 918              	.LVL154:
 919              	.L53:
 920              	.LBB19:
 165:Source\azure_iot_sdk\iothub_client\src/message_queue.c ****             {
 921              		.loc 1 165 0
 922 00a4 002C     		cmp	r4, #0
 923 00a6 CCD1     		bne	.L58
 924              	.LVL155:
 925              	.L56:
 188:Source\azure_iot_sdk\iothub_client\src/message_queue.c **** 
 926              		.loc 1 188 0
 927 00a8 B869     		ldr	r0, [r7, #24]
 928 00aa FFF7FEFF 		bl	singlylinkedlist_get_head_item
 929              	.LVL156:
 930 00ae 0400     		movs	r4, r0
 931              	.LVL157:
 190:Source\azure_iot_sdk\iothub_client\src/message_queue.c ****             {
 932              		.loc 1 190 0
 933 00b0 30E0     		b	.L59
 934              	.LVL158:
 935              	.L63:
 936              	.LBB17:
 193:Source\azure_iot_sdk\iothub_client\src/message_queue.c **** 
 937              		.loc 1 193 0
 938 00b2 2000     		movs	r0, r4
 939 00b4 FFF7FEFF 		bl	singlylinkedlist_item_get_value
 940              	.LVL159:
ARM GAS  C:\Users\Phuong\AppData\Local\Temp\ccaRXo0w.s 			page 26


 941 00b8 0600     		movs	r6, r0
 942              	.LVL160:
 195:Source\azure_iot_sdk\iothub_client\src/message_queue.c **** 
 943              		.loc 1 195 0
 944 00ba 2000     		movs	r0, r4
 945              	.LVL161:
 946 00bc FFF7FEFF 		bl	singlylinkedlist_get_next_item
 947              	.LVL162:
 948 00c0 0390     		str	r0, [sp, #12]
 949              	.LVL163:
 197:Source\azure_iot_sdk\iothub_client\src/message_queue.c ****                 {
 950              		.loc 1 197 0
 951 00c2 002E     		cmp	r6, #0
 952 00c4 0ED1     		bne	.L60
 953              	.LBB18:
 199:Source\azure_iot_sdk\iothub_client\src/message_queue.c ****                 }
 954              		.loc 1 199 0 discriminator 3
 955 00c6 FFF7FEFF 		bl	xlogging_get_log_function
 956              	.LVL164:
 957 00ca 041E     		subs	r4, r0, #0
 958              	.LVL165:
 959 00cc 21D0     		beq	.L61
 199:Source\azure_iot_sdk\iothub_client\src/message_queue.c ****                 }
 960              		.loc 1 199 0 is_stmt 0 discriminator 4
 961 00ce 344B     		ldr	r3, .L72+12
 962 00d0 0193     		str	r3, [sp, #4]
 963 00d2 0123     		movs	r3, #1
 964 00d4 0093     		str	r3, [sp]
 965 00d6 C633     		adds	r3, r3, #198
 966 00d8 2F4A     		ldr	r2, .L72+4
 967 00da 7432     		adds	r2, r2, #116
 968 00dc 2F49     		ldr	r1, .L72+8
 969 00de 0020     		movs	r0, #0
 970              	.LVL166:
 971 00e0 A047     		blx	r4
 972              	.LVL167:
 973 00e2 16E0     		b	.L61
 974              	.LVL168:
 975              	.L60:
 976              	.LBE18:
 201:Source\azure_iot_sdk\iothub_client\src/message_queue.c ****                 {
 977              		.loc 1 201 0 is_stmt 1
 978 00e4 F168     		ldr	r1, [r6, #12]
 979 00e6 2800     		movs	r0, r5
 980              	.LVL169:
 981 00e8 FFF7FEFF 		bl	get_difftime
 982              	.LVL170:
 983 00ec 0490     		str	r0, [sp, #16]
 984 00ee 0591     		str	r1, [sp, #20]
 985 00f0 3868     		ldr	r0, [r7]
 986 00f2 FFF7FEFF 		bl	__aeabi_ui2d
 987              	.LVL171:
 988 00f6 0200     		movs	r2, r0
 989 00f8 0B00     		movs	r3, r1
 990 00fa 0498     		ldr	r0, [sp, #16]
 991 00fc 0599     		ldr	r1, [sp, #20]
 992 00fe FFF7FEFF 		bl	__aeabi_dcmpge
ARM GAS  C:\Users\Phuong\AppData\Local\Temp\ccaRXo0w.s 			page 27


 993              	.LVL172:
 994 0102 0028     		cmp	r0, #0
 995 0104 05D0     		beq	.L61
 204:Source\azure_iot_sdk\iothub_client\src/message_queue.c ****                 }
 996              		.loc 1 204 0
 997 0106 0023     		movs	r3, #0
 998 0108 0322     		movs	r2, #3
 999 010a 2100     		movs	r1, r4
 1000 010c B869     		ldr	r0, [r7, #24]
 1001 010e FFF7FEFF 		bl	dequeue_message_and_fire_callback
 1002              	.LVL173:
 1003              	.L61:
 1004              	.LBE17:
 1005              	.LBE19:
 151:Source\azure_iot_sdk\iothub_client\src/message_queue.c ****     time_t current_time;
 1006              		.loc 1 151 0
 1007 0112 039C     		ldr	r4, [sp, #12]
 1008              	.LVL174:
 1009              	.L59:
 1010              	.LBB20:
 190:Source\azure_iot_sdk\iothub_client\src/message_queue.c ****             {
 1011              		.loc 1 190 0
 1012 0114 002C     		cmp	r4, #0
 1013 0116 CCD1     		bne	.L63
 1014              	.LVL175:
 1015              	.L52:
 1016              	.LBE20:
 210:Source\azure_iot_sdk\iothub_client\src/message_queue.c ****         {
 1017              		.loc 1 210 0
 1018 0118 7B68     		ldr	r3, [r7, #4]
 1019 011a 002B     		cmp	r3, #0
 1020 011c 37D0     		beq	.L49
 1021              	.LBB21:
 212:Source\azure_iot_sdk\iothub_client\src/message_queue.c **** 
 1022              		.loc 1 212 0
 1023 011e B869     		ldr	r0, [r7, #24]
 1024 0120 FFF7FEFF 		bl	singlylinkedlist_get_head_item
 1025              	.LVL176:
 1026 0124 0400     		movs	r4, r0
 1027              	.LVL177:
 214:Source\azure_iot_sdk\iothub_client\src/message_queue.c ****             {
 1028              		.loc 1 214 0
 1029 0126 30E0     		b	.L64
 1030              	.LVL178:
 1031              	.L68:
 1032              	.LBB22:
 217:Source\azure_iot_sdk\iothub_client\src/message_queue.c **** 
 1033              		.loc 1 217 0
 1034 0128 2000     		movs	r0, r4
 1035 012a FFF7FEFF 		bl	singlylinkedlist_item_get_value
 1036              	.LVL179:
 1037 012e 0600     		movs	r6, r0
 1038              	.LVL180:
 219:Source\azure_iot_sdk\iothub_client\src/message_queue.c **** 
 1039              		.loc 1 219 0
 1040 0130 2000     		movs	r0, r4
 1041              	.LVL181:
ARM GAS  C:\Users\Phuong\AppData\Local\Temp\ccaRXo0w.s 			page 28


 1042 0132 FFF7FEFF 		bl	singlylinkedlist_get_next_item
 1043              	.LVL182:
 1044 0136 0390     		str	r0, [sp, #12]
 1045              	.LVL183:
 221:Source\azure_iot_sdk\iothub_client\src/message_queue.c ****                 {
 1046              		.loc 1 221 0
 1047 0138 002E     		cmp	r6, #0
 1048 013a 0ED1     		bne	.L65
 1049              	.LBB23:
 223:Source\azure_iot_sdk\iothub_client\src/message_queue.c ****                 }
 1050              		.loc 1 223 0 discriminator 3
 1051 013c FFF7FEFF 		bl	xlogging_get_log_function
 1052              	.LVL184:
 1053 0140 041E     		subs	r4, r0, #0
 1054              	.LVL185:
 1055 0142 21D0     		beq	.L66
 223:Source\azure_iot_sdk\iothub_client\src/message_queue.c ****                 }
 1056              		.loc 1 223 0 is_stmt 0 discriminator 4
 1057 0144 164B     		ldr	r3, .L72+12
 1058 0146 0193     		str	r3, [sp, #4]
 1059 0148 0123     		movs	r3, #1
 1060 014a 0093     		str	r3, [sp]
 1061 014c DE33     		adds	r3, r3, #222
 1062 014e 124A     		ldr	r2, .L72+4
 1063 0150 7432     		adds	r2, r2, #116
 1064 0152 1249     		ldr	r1, .L72+8
 1065 0154 0020     		movs	r0, #0
 1066              	.LVL186:
 1067 0156 A047     		blx	r4
 1068              	.LVL187:
 1069 0158 16E0     		b	.L66
 1070              	.LVL188:
 1071              	.L65:
 1072              	.LBE23:
 225:Source\azure_iot_sdk\iothub_client\src/message_queue.c ****                 {
 1073              		.loc 1 225 0 is_stmt 1
 1074 015a 3169     		ldr	r1, [r6, #16]
 1075 015c 2800     		movs	r0, r5
 1076              	.LVL189:
 1077 015e FFF7FEFF 		bl	get_difftime
 1078              	.LVL190:
 1079 0162 0490     		str	r0, [sp, #16]
 1080 0164 0591     		str	r1, [sp, #20]
 1081 0166 7868     		ldr	r0, [r7, #4]
 1082 0168 FFF7FEFF 		bl	__aeabi_ui2d
 1083              	.LVL191:
 1084 016c 0200     		movs	r2, r0
 1085 016e 0B00     		movs	r3, r1
 1086 0170 0498     		ldr	r0, [sp, #16]
 1087 0172 0599     		ldr	r1, [sp, #20]
 1088 0174 FFF7FEFF 		bl	__aeabi_dcmpge
 1089              	.LVL192:
 1090 0178 0028     		cmp	r0, #0
 1091 017a 08D0     		beq	.L49
 227:Source\azure_iot_sdk\iothub_client\src/message_queue.c ****                 }
 1092              		.loc 1 227 0
 1093 017c 0023     		movs	r3, #0
ARM GAS  C:\Users\Phuong\AppData\Local\Temp\ccaRXo0w.s 			page 29


 1094 017e 0322     		movs	r2, #3
 1095 0180 2100     		movs	r1, r4
 1096 0182 B869     		ldr	r0, [r7, #24]
 1097 0184 FFF7FEFF 		bl	dequeue_message_and_fire_callback
 1098              	.LVL193:
 1099              	.L66:
 1100              	.LBE22:
 1101              	.LBE21:
 151:Source\azure_iot_sdk\iothub_client\src/message_queue.c ****     time_t current_time;
 1102              		.loc 1 151 0
 1103 0188 039C     		ldr	r4, [sp, #12]
 1104              	.LVL194:
 1105              	.L64:
 1106              	.LBB24:
 214:Source\azure_iot_sdk\iothub_client\src/message_queue.c ****             {
 1107              		.loc 1 214 0
 1108 018a 002C     		cmp	r4, #0
 1109 018c CCD1     		bne	.L68
 1110              	.LVL195:
 1111              	.L49:
 1112              	.LBE24:
 237:Source\azure_iot_sdk\iothub_client\src/message_queue.c **** 
 1113              		.loc 1 237 0
 1114 018e 07B0     		add	sp, sp, #28
 1115              		@ sp needed
 1116              	.LVL196:
 1117              	.LVL197:
 1118 0190 F0BD     		pop	{r4, r5, r6, r7, pc}
 1119              	.L73:
 1120 0192 C046     		.align	2
 1121              	.L72:
 1122 0194 C8010000 		.word	.LC30
 1123 0198 00000000 		.word	.LANCHOR0
 1124 019c 00000000 		.word	.LC1
 1125 01a0 F8010000 		.word	.LC32
 1126              		.cfi_endproc
 1127              	.LFE7:
 1128              		.size	process_timeouts, .-process_timeouts
 1129              		.section	.text.on_process_message_completed_callback,"ax",%progbits
 1130              		.align	2
 1131              		.code	16
 1132              		.thumb_func
 1133              		.type	on_process_message_completed_callback, %function
 1134              	on_process_message_completed_callback:
 1135              	.LFB6:
 121:Source\azure_iot_sdk\iothub_client\src/message_queue.c ****     // Codes_SRS_MESSAGE_QUEUE_09_069: [If `message` or `message_queue` are NULL, on_message_proces
 1136              		.loc 1 121 0
 1137              		.cfi_startproc
 1138              		@ args = 0, pretend = 0, frame = 8
 1139              		@ frame_needed = 0, uses_anonymous_args = 0
 1140              	.LVL198:
 1141 0000 F0B5     		push	{r4, r5, r6, r7, lr}
 1142              		.cfi_def_cfa_offset 20
 1143              		.cfi_offset 4, -20
 1144              		.cfi_offset 5, -16
 1145              		.cfi_offset 6, -12
 1146              		.cfi_offset 7, -8
ARM GAS  C:\Users\Phuong\AppData\Local\Temp\ccaRXo0w.s 			page 30


 1147              		.cfi_offset 14, -4
 1148 0002 87B0     		sub	sp, sp, #28
 1149              		.cfi_def_cfa_offset 48
 1150 0004 0400     		movs	r4, r0
 1151 0006 0F00     		movs	r7, r1
 1152 0008 1600     		movs	r6, r2
 1153 000a 0593     		str	r3, [sp, #20]
 123:Source\azure_iot_sdk\iothub_client\src/message_queue.c ****     {
 1154              		.loc 1 123 0
 1155 000c 0029     		cmp	r1, #0
 1156 000e 01D0     		beq	.L75
 123:Source\azure_iot_sdk\iothub_client\src/message_queue.c ****     {
 1157              		.loc 1 123 0 is_stmt 0 discriminator 1
 1158 0010 0028     		cmp	r0, #0
 1159 0012 10D1     		bne	.L76
 1160              	.L75:
 1161              	.LBB25:
 125:Source\azure_iot_sdk\iothub_client\src/message_queue.c ****     }
 1162              		.loc 1 125 0 is_stmt 1 discriminator 3
 1163 0014 FFF7FEFF 		bl	xlogging_get_log_function
 1164              	.LVL199:
 1165 0018 051E     		subs	r5, r0, #0
 1166              	.LVL200:
 1167 001a 38D0     		beq	.L74
 125:Source\azure_iot_sdk\iothub_client\src/message_queue.c ****     }
 1168              		.loc 1 125 0 is_stmt 0 discriminator 4
 1169 001c 0394     		str	r4, [sp, #12]
 1170 001e 0297     		str	r7, [sp, #8]
 1171 0020 1C4B     		ldr	r3, .L80
 1172 0022 0193     		str	r3, [sp, #4]
 1173 0024 0123     		movs	r3, #1
 1174 0026 0093     		str	r3, [sp]
 1175 0028 7C33     		adds	r3, r3, #124
 1176 002a 1B4A     		ldr	r2, .L80+4
 1177 002c 0832     		adds	r2, r2, #8
 1178 002e 1B49     		ldr	r1, .L80+8
 1179 0030 0020     		movs	r0, #0
 1180              	.LVL201:
 1181 0032 A847     		blx	r5
 1182              	.LVL202:
 1183 0034 2BE0     		b	.L74
 1184              	.LVL203:
 1185              	.L76:
 1186              	.LBE25:
 1187              	.LBB26:
 131:Source\azure_iot_sdk\iothub_client\src/message_queue.c ****         {
 1188              		.loc 1 131 0 is_stmt 1
 1189 0036 0A00     		movs	r2, r1
 1190              	.LVL204:
 1191 0038 1949     		ldr	r1, .L80+12
 1192              	.LVL205:
 1193 003a 8069     		ldr	r0, [r0, #24]
 1194              	.LVL206:
 1195 003c FFF7FEFF 		bl	singlylinkedlist_find
 1196              	.LVL207:
 1197 0040 051E     		subs	r5, r0, #0
 1198              	.LVL208:
ARM GAS  C:\Users\Phuong\AppData\Local\Temp\ccaRXo0w.s 			page 31


 1199 0042 0FD1     		bne	.L78
 1200              	.LBB27:
 134:Source\azure_iot_sdk\iothub_client\src/message_queue.c ****         }
 1201              		.loc 1 134 0 discriminator 3
 1202 0044 FFF7FEFF 		bl	xlogging_get_log_function
 1203              	.LVL209:
 1204 0048 041E     		subs	r4, r0, #0
 1205              	.LVL210:
 1206 004a 20D0     		beq	.L74
 134:Source\azure_iot_sdk\iothub_client\src/message_queue.c ****         }
 1207              		.loc 1 134 0 is_stmt 0 discriminator 4
 1208 004c 0297     		str	r7, [sp, #8]
 1209 004e 154B     		ldr	r3, .L80+16
 1210 0050 0193     		str	r3, [sp, #4]
 1211 0052 0123     		movs	r3, #1
 1212 0054 0093     		str	r3, [sp]
 1213 0056 8533     		adds	r3, r3, #133
 1214 0058 0F4A     		ldr	r2, .L80+4
 1215 005a 0832     		adds	r2, r2, #8
 1216 005c 0F49     		ldr	r1, .L80+8
 1217 005e 0020     		movs	r0, #0
 1218              	.LVL211:
 1219 0060 A047     		blx	r4
 1220              	.LVL212:
 1221 0062 14E0     		b	.L74
 1222              	.LVL213:
 1223              	.L78:
 1224              	.LBE27:
 1225              	.LBB28:
 138:Source\azure_iot_sdk\iothub_client\src/message_queue.c **** 
 1226              		.loc 1 138 0 is_stmt 1
 1227 0064 FFF7FEFF 		bl	singlylinkedlist_item_get_value
 1228              	.LVL214:
 1229 0068 0100     		movs	r1, r0
 1230              	.LVL215:
 142:Source\azure_iot_sdk\iothub_client\src/message_queue.c ****             {
 1231              		.loc 1 142 0
 1232 006a 3200     		movs	r2, r6
 1233 006c 2000     		movs	r0, r4
 1234              	.LVL216:
 1235 006e FFF7FEFF 		bl	should_retry_sending
 1236              	.LVL217:
 1237 0072 0028     		cmp	r0, #0
 1238 0074 05D0     		beq	.L79
 142:Source\azure_iot_sdk\iothub_client\src/message_queue.c ****             {
 1239              		.loc 1 142 0 is_stmt 0 discriminator 1
 1240 0076 2900     		movs	r1, r5
 1241 0078 2000     		movs	r0, r4
 1242 007a FFF7FEFF 		bl	retry_sending_message
 1243              	.LVL218:
 1244 007e 0028     		cmp	r0, #0
 1245 0080 05D0     		beq	.L74
 1246              	.L79:
 144:Source\azure_iot_sdk\iothub_client\src/message_queue.c ****             }
 1247              		.loc 1 144 0 is_stmt 1
 1248 0082 A069     		ldr	r0, [r4, #24]
 1249 0084 059B     		ldr	r3, [sp, #20]
ARM GAS  C:\Users\Phuong\AppData\Local\Temp\ccaRXo0w.s 			page 32


 1250 0086 3200     		movs	r2, r6
 1251 0088 2900     		movs	r1, r5
 1252 008a FFF7FEFF 		bl	dequeue_message_and_fire_callback
 1253              	.LVL219:
 1254              	.L74:
 1255              	.LBE28:
 1256              	.LBE26:
 148:Source\azure_iot_sdk\iothub_client\src/message_queue.c **** 
 1257              		.loc 1 148 0
 1258 008e 07B0     		add	sp, sp, #28
 1259              		@ sp needed
 1260              	.LVL220:
 1261 0090 F0BD     		pop	{r4, r5, r6, r7, pc}
 1262              	.L81:
 1263 0092 C046     		.align	2
 1264              	.L80:
 1265 0094 44020000 		.word	.LC36
 1266 0098 80000000 		.word	.LANCHOR1
 1267 009c 00000000 		.word	.LC1
 1268 00a0 00000000 		.word	find_item_by_message_ptr
 1269 00a4 A8020000 		.word	.LC39
 1270              		.cfi_endproc
 1271              	.LFE6:
 1272              		.size	on_process_message_completed_callback, .-on_process_message_completed_callback
 1273              		.section	.text.destroyOption,"ax",%progbits
 1274              		.align	2
 1275              		.code	16
 1276              		.thumb_func
 1277              		.type	destroyOption, %function
 1278              	destroyOption:
 1279              	.LFB10:
 335:Source\azure_iot_sdk\iothub_client\src/message_queue.c ****     if (name == NULL || value == NULL)
 1280              		.loc 1 335 0
 1281              		.cfi_startproc
 1282              		@ args = 0, pretend = 0, frame = 0
 1283              		@ frame_needed = 0, uses_anonymous_args = 0
 1284              	.LVL221:
 1285 0000 70B5     		push	{r4, r5, r6, lr}
 1286              		.cfi_def_cfa_offset 16
 1287              		.cfi_offset 4, -16
 1288              		.cfi_offset 5, -12
 1289              		.cfi_offset 6, -8
 1290              		.cfi_offset 14, -4
 1291 0002 84B0     		sub	sp, sp, #16
 1292              		.cfi_def_cfa_offset 32
 1293 0004 0400     		movs	r4, r0
 1294 0006 0D00     		movs	r5, r1
 336:Source\azure_iot_sdk\iothub_client\src/message_queue.c ****     {
 1295              		.loc 1 336 0
 1296 0008 0028     		cmp	r0, #0
 1297 000a 01D0     		beq	.L83
 336:Source\azure_iot_sdk\iothub_client\src/message_queue.c ****     {
 1298              		.loc 1 336 0 is_stmt 0 discriminator 1
 1299 000c 0029     		cmp	r1, #0
 1300 000e 11D1     		bne	.L84
 1301              	.L83:
 1302              	.LBB29:
ARM GAS  C:\Users\Phuong\AppData\Local\Temp\ccaRXo0w.s 			page 33


 338:Source\azure_iot_sdk\iothub_client\src/message_queue.c ****     }
 1303              		.loc 1 338 0 is_stmt 1 discriminator 3
 1304 0010 FFF7FEFF 		bl	xlogging_get_log_function
 1305              	.LVL222:
 1306 0014 061E     		subs	r6, r0, #0
 1307              	.LVL223:
 1308 0016 33D0     		beq	.L82
 338:Source\azure_iot_sdk\iothub_client\src/message_queue.c ****     }
 1309              		.loc 1 338 0 is_stmt 0 discriminator 4
 1310 0018 0395     		str	r5, [sp, #12]
 1311 001a 0294     		str	r4, [sp, #8]
 1312 001c 194B     		ldr	r3, .L88
 1313 001e 0193     		str	r3, [sp, #4]
 1314 0020 0123     		movs	r3, #1
 1315 0022 0093     		str	r3, [sp]
 1316 0024 5233     		adds	r3, r3, #82
 1317 0026 FF33     		adds	r3, r3, #255
 1318 0028 174A     		ldr	r2, .L88+4
 1319 002a 3032     		adds	r2, r2, #48
 1320 002c 1749     		ldr	r1, .L88+8
 1321 002e 0020     		movs	r0, #0
 1322              	.LVL224:
 1323 0030 B047     		blx	r6
 1324              	.LVL225:
 1325 0032 25E0     		b	.L82
 1326              	.LVL226:
 1327              	.L84:
 1328              	.LBE29:
 340:Source\azure_iot_sdk\iothub_client\src/message_queue.c ****         strcmp(SAVED_OPTION_MAX_PROCESSING_TIME_SECS, name) == 0 ||
 1329              		.loc 1 340 0 is_stmt 1
 1330 0034 0100     		movs	r1, r0
 1331              	.LVL227:
 1332 0036 1648     		ldr	r0, .L88+12
 1333              	.LVL228:
 1334 0038 FFF7FEFF 		bl	strcmp
 1335              	.LVL229:
 1336 003c 0028     		cmp	r0, #0
 1337 003e 0BD0     		beq	.L86
 341:Source\azure_iot_sdk\iothub_client\src/message_queue.c ****         strcmp(SAVED_OPTION_MAX_RETRY_COUNT, name) == 0)
 1338              		.loc 1 341 0 discriminator 1
 1339 0040 2100     		movs	r1, r4
 1340 0042 1448     		ldr	r0, .L88+16
 1341 0044 FFF7FEFF 		bl	strcmp
 1342              	.LVL230:
 340:Source\azure_iot_sdk\iothub_client\src/message_queue.c ****         strcmp(SAVED_OPTION_MAX_PROCESSING_TIME_SECS, name) == 0 ||
 1343              		.loc 1 340 0 discriminator 1
 1344 0048 0028     		cmp	r0, #0
 1345 004a 05D0     		beq	.L86
 342:Source\azure_iot_sdk\iothub_client\src/message_queue.c ****     {
 1346              		.loc 1 342 0
 1347 004c 2100     		movs	r1, r4
 1348 004e 1248     		ldr	r0, .L88+20
 1349 0050 FFF7FEFF 		bl	strcmp
 1350              	.LVL231:
 341:Source\azure_iot_sdk\iothub_client\src/message_queue.c ****         strcmp(SAVED_OPTION_MAX_RETRY_COUNT, name) == 0)
 1351              		.loc 1 341 0
 1352 0054 0028     		cmp	r0, #0
ARM GAS  C:\Users\Phuong\AppData\Local\Temp\ccaRXo0w.s 			page 34


 1353 0056 03D1     		bne	.L87
 1354              	.L86:
 344:Source\azure_iot_sdk\iothub_client\src/message_queue.c ****     }
 1355              		.loc 1 344 0
 1356 0058 2800     		movs	r0, r5
 1357 005a FFF7FEFF 		bl	free
 1358              	.LVL232:
 1359 005e 0FE0     		b	.L82
 1360              	.L87:
 1361              	.LBB30:
 348:Source\azure_iot_sdk\iothub_client\src/message_queue.c ****     }
 1362              		.loc 1 348 0 discriminator 3
 1363 0060 FFF7FEFF 		bl	xlogging_get_log_function
 1364              	.LVL233:
 1365 0064 051E     		subs	r5, r0, #0
 1366              	.LVL234:
 1367 0066 0BD0     		beq	.L82
 348:Source\azure_iot_sdk\iothub_client\src/message_queue.c ****     }
 1368              		.loc 1 348 0 is_stmt 0 discriminator 4
 1369 0068 0294     		str	r4, [sp, #8]
 1370 006a 0C4B     		ldr	r3, .L88+24
 1371 006c 0193     		str	r3, [sp, #4]
 1372 006e 0123     		movs	r3, #1
 1373 0070 0093     		str	r3, [sp]
 1374 0072 5C33     		adds	r3, r3, #92
 1375 0074 FF33     		adds	r3, r3, #255
 1376 0076 044A     		ldr	r2, .L88+4
 1377 0078 3032     		adds	r2, r2, #48
 1378 007a 0449     		ldr	r1, .L88+8
 1379 007c 0020     		movs	r0, #0
 1380              	.LVL235:
 1381 007e A847     		blx	r5
 1382              	.LVL236:
 1383              	.L82:
 1384              	.LBE30:
 350:Source\azure_iot_sdk\iothub_client\src/message_queue.c **** 
 1385              		.loc 1 350 0 is_stmt 1
 1386 0080 04B0     		add	sp, sp, #16
 1387              		@ sp needed
 1388              	.LVL237:
 1389 0082 70BD     		pop	{r4, r5, r6, pc}
 1390              	.L89:
 1391              		.align	2
 1392              	.L88:
 1393 0084 08030000 		.word	.LC43
 1394 0088 80000000 		.word	.LANCHOR1
 1395 008c 00000000 		.word	.LC1
 1396 0090 30030000 		.word	.LC45
 1397 0094 54030000 		.word	.LC47
 1398 0098 7C030000 		.word	.LC49
 1399 009c 9C030000 		.word	.LC51
 1400              		.cfi_endproc
 1401              	.LFE10:
 1402              		.size	destroyOption, .-destroyOption
 1403              		.section	.text.cloneOption,"ax",%progbits
 1404              		.align	2
 1405              		.code	16
ARM GAS  C:\Users\Phuong\AppData\Local\Temp\ccaRXo0w.s 			page 35


 1406              		.thumb_func
 1407              		.type	cloneOption, %function
 1408              	cloneOption:
 1409              	.LFB9:
 304:Source\azure_iot_sdk\iothub_client\src/message_queue.c ****     void* result;
 1410              		.loc 1 304 0
 1411              		.cfi_startproc
 1412              		@ args = 0, pretend = 0, frame = 0
 1413              		@ frame_needed = 0, uses_anonymous_args = 0
 1414              	.LVL238:
 1415 0000 70B5     		push	{r4, r5, r6, lr}
 1416              		.cfi_def_cfa_offset 16
 1417              		.cfi_offset 4, -16
 1418              		.cfi_offset 5, -12
 1419              		.cfi_offset 6, -8
 1420              		.cfi_offset 14, -4
 1421 0002 84B0     		sub	sp, sp, #16
 1422              		.cfi_def_cfa_offset 32
 1423 0004 0400     		movs	r4, r0
 1424 0006 0E00     		movs	r6, r1
 307:Source\azure_iot_sdk\iothub_client\src/message_queue.c ****     {
 1425              		.loc 1 307 0
 1426 0008 0028     		cmp	r0, #0
 1427 000a 01D0     		beq	.L91
 307:Source\azure_iot_sdk\iothub_client\src/message_queue.c ****     {
 1428              		.loc 1 307 0 is_stmt 0 discriminator 1
 1429 000c 0029     		cmp	r1, #0
 1430 000e 12D1     		bne	.L92
 1431              	.L91:
 1432              	.LBB31:
 309:Source\azure_iot_sdk\iothub_client\src/message_queue.c ****         result = NULL;
 1433              		.loc 1 309 0 is_stmt 1 discriminator 3
 1434 0010 FFF7FEFF 		bl	xlogging_get_log_function
 1435              	.LVL239:
 1436 0014 051E     		subs	r5, r0, #0
 1437              	.LVL240:
 1438 0016 4DD0     		beq	.L97
 309:Source\azure_iot_sdk\iothub_client\src/message_queue.c ****         result = NULL;
 1439              		.loc 1 309 0 is_stmt 0 discriminator 4
 1440 0018 0396     		str	r6, [sp, #12]
 1441 001a 0294     		str	r4, [sp, #8]
 1442 001c 284B     		ldr	r3, .L99
 1443 001e 0193     		str	r3, [sp, #4]
 1444 0020 0123     		movs	r3, #1
 1445 0022 0093     		str	r3, [sp]
 1446 0024 3623     		movs	r3, #54
 1447 0026 FF33     		adds	r3, r3, #255
 1448 0028 264A     		ldr	r2, .L99+4
 1449 002a 4032     		adds	r2, r2, #64
 1450 002c 2649     		ldr	r1, .L99+8
 1451 002e 0020     		movs	r0, #0
 1452              	.LVL241:
 1453 0030 A847     		blx	r5
 1454              	.LVL242:
 1455              	.LBE31:
 310:Source\azure_iot_sdk\iothub_client\src/message_queue.c ****     }
 1456              		.loc 1 310 0 is_stmt 1 discriminator 4
ARM GAS  C:\Users\Phuong\AppData\Local\Temp\ccaRXo0w.s 			page 36


 1457 0032 0025     		movs	r5, #0
 1458              	.LVL243:
 1459 0034 41E0     		b	.L93
 1460              	.LVL244:
 1461              	.L92:
 312:Source\azure_iot_sdk\iothub_client\src/message_queue.c ****         strcmp(SAVED_OPTION_MAX_PROCESSING_TIME_SECS, name) == 0 ||
 1462              		.loc 1 312 0
 1463 0036 0100     		movs	r1, r0
 1464              	.LVL245:
 1465 0038 2448     		ldr	r0, .L99+12
 1466              	.LVL246:
 1467 003a FFF7FEFF 		bl	strcmp
 1468              	.LVL247:
 1469 003e 0028     		cmp	r0, #0
 1470 0040 0BD0     		beq	.L94
 313:Source\azure_iot_sdk\iothub_client\src/message_queue.c ****         strcmp(SAVED_OPTION_MAX_RETRY_COUNT, name) == 0)
 1471              		.loc 1 313 0 discriminator 1
 1472 0042 2100     		movs	r1, r4
 1473 0044 2248     		ldr	r0, .L99+16
 1474 0046 FFF7FEFF 		bl	strcmp
 1475              	.LVL248:
 312:Source\azure_iot_sdk\iothub_client\src/message_queue.c ****         strcmp(SAVED_OPTION_MAX_PROCESSING_TIME_SECS, name) == 0 ||
 1476              		.loc 1 312 0 discriminator 1
 1477 004a 0028     		cmp	r0, #0
 1478 004c 05D0     		beq	.L94
 314:Source\azure_iot_sdk\iothub_client\src/message_queue.c ****     {
 1479              		.loc 1 314 0
 1480 004e 2100     		movs	r1, r4
 1481 0050 2048     		ldr	r0, .L99+20
 1482 0052 FFF7FEFF 		bl	strcmp
 1483              	.LVL249:
 313:Source\azure_iot_sdk\iothub_client\src/message_queue.c ****         strcmp(SAVED_OPTION_MAX_RETRY_COUNT, name) == 0)
 1484              		.loc 1 313 0
 1485 0056 0028     		cmp	r0, #0
 1486 0058 1AD1     		bne	.L95
 1487              	.L94:
 316:Source\azure_iot_sdk\iothub_client\src/message_queue.c ****         {
 1488              		.loc 1 316 0
 1489 005a 0420     		movs	r0, #4
 1490 005c FFF7FEFF 		bl	malloc
 1491              	.LVL250:
 1492 0060 051E     		subs	r5, r0, #0
 1493              	.LVL251:
 1494 0062 10D1     		bne	.L96
 1495              	.LBB32:
 318:Source\azure_iot_sdk\iothub_client\src/message_queue.c ****         }
 1496              		.loc 1 318 0 discriminator 3
 1497 0064 FFF7FEFF 		bl	xlogging_get_log_function
 1498              	.LVL252:
 1499 0068 061E     		subs	r6, r0, #0
 1500              	.LVL253:
 1501 006a 26D0     		beq	.L93
 318:Source\azure_iot_sdk\iothub_client\src/message_queue.c ****         }
 1502              		.loc 1 318 0 is_stmt 0 discriminator 4
 1503 006c 0294     		str	r4, [sp, #8]
 1504 006e 1A4B     		ldr	r3, .L99+24
 1505 0070 0193     		str	r3, [sp, #4]
ARM GAS  C:\Users\Phuong\AppData\Local\Temp\ccaRXo0w.s 			page 37


 1506 0072 0123     		movs	r3, #1
 1507 0074 0093     		str	r3, [sp]
 1508 0076 3E33     		adds	r3, r3, #62
 1509 0078 FF33     		adds	r3, r3, #255
 1510 007a 124A     		ldr	r2, .L99+4
 1511 007c 4032     		adds	r2, r2, #64
 1512 007e 1249     		ldr	r1, .L99+8
 1513 0080 0020     		movs	r0, #0
 1514              	.LVL254:
 1515 0082 B047     		blx	r6
 1516              	.LVL255:
 1517 0084 19E0     		b	.L93
 1518              	.LVL256:
 1519              	.L96:
 1520              	.LBE32:
 322:Source\azure_iot_sdk\iothub_client\src/message_queue.c ****         }
 1521              		.loc 1 322 0 is_stmt 1
 1522 0086 0422     		movs	r2, #4
 1523 0088 3100     		movs	r1, r6
 1524 008a FFF7FEFF 		bl	memcpy
 1525              	.LVL257:
 1526 008e 14E0     		b	.L93
 1527              	.LVL258:
 1528              	.L95:
 1529              	.LBB33:
 327:Source\azure_iot_sdk\iothub_client\src/message_queue.c ****         result = NULL;
 1530              		.loc 1 327 0 discriminator 3
 1531 0090 FFF7FEFF 		bl	xlogging_get_log_function
 1532              	.LVL259:
 1533 0094 051E     		subs	r5, r0, #0
 1534              	.LVL260:
 1535 0096 0FD0     		beq	.L98
 327:Source\azure_iot_sdk\iothub_client\src/message_queue.c ****         result = NULL;
 1536              		.loc 1 327 0 is_stmt 0 discriminator 4
 1537 0098 0294     		str	r4, [sp, #8]
 1538 009a 104B     		ldr	r3, .L99+28
 1539 009c 0193     		str	r3, [sp, #4]
 1540 009e 0123     		movs	r3, #1
 1541 00a0 0093     		str	r3, [sp]
 1542 00a2 4823     		movs	r3, #72
 1543 00a4 FF33     		adds	r3, r3, #255
 1544 00a6 074A     		ldr	r2, .L99+4
 1545 00a8 4032     		adds	r2, r2, #64
 1546 00aa 0749     		ldr	r1, .L99+8
 1547 00ac 0020     		movs	r0, #0
 1548              	.LVL261:
 1549 00ae A847     		blx	r5
 1550              	.LVL262:
 1551              	.LBE33:
 328:Source\azure_iot_sdk\iothub_client\src/message_queue.c ****     }
 1552              		.loc 1 328 0 is_stmt 1 discriminator 4
 1553 00b0 0025     		movs	r5, #0
 1554              	.LVL263:
 1555 00b2 02E0     		b	.L93
 1556              	.LVL264:
 1557              	.L97:
 310:Source\azure_iot_sdk\iothub_client\src/message_queue.c ****     }
ARM GAS  C:\Users\Phuong\AppData\Local\Temp\ccaRXo0w.s 			page 38


 1558              		.loc 1 310 0
 1559 00b4 0025     		movs	r5, #0
 1560 00b6 00E0     		b	.L93
 1561              	.LVL265:
 1562              	.L98:
 328:Source\azure_iot_sdk\iothub_client\src/message_queue.c ****     }
 1563              		.loc 1 328 0
 1564 00b8 0025     		movs	r5, #0
 1565              	.LVL266:
 1566              	.L93:
 332:Source\azure_iot_sdk\iothub_client\src/message_queue.c **** 
 1567              		.loc 1 332 0
 1568 00ba 2800     		movs	r0, r5
 1569 00bc 04B0     		add	sp, sp, #16
 1570              		@ sp needed
 1571              	.LVL267:
 1572              	.LVL268:
 1573 00be 70BD     		pop	{r4, r5, r6, pc}
 1574              	.L100:
 1575              		.align	2
 1576              	.L99:
 1577 00c0 08030000 		.word	.LC43
 1578 00c4 80000000 		.word	.LANCHOR1
 1579 00c8 00000000 		.word	.LC1
 1580 00cc 30030000 		.word	.LC45
 1581 00d0 54030000 		.word	.LC47
 1582 00d4 7C030000 		.word	.LC49
 1583 00d8 B4030000 		.word	.LC59
 1584 00dc 9C030000 		.word	.LC51
 1585              		.cfi_endproc
 1586              	.LFE9:
 1587              		.size	cloneOption, .-cloneOption
 1588              		.section	.text.message_queue_remove_all,"ax",%progbits
 1589              		.align	2
 1590              		.global	message_queue_remove_all
 1591              		.code	16
 1592              		.thumb_func
 1593              		.type	message_queue_remove_all, %function
 1594              	message_queue_remove_all:
 1595              	.LFB11:
 357:Source\azure_iot_sdk\iothub_client\src/message_queue.c ****     // Codes_SRS_MESSAGE_QUEUE_09_026: [If `message_queue` is NULL, message_queue_retrieve_options 
 1596              		.loc 1 357 0
 1597              		.cfi_startproc
 1598              		@ args = 0, pretend = 0, frame = 0
 1599              		@ frame_needed = 0, uses_anonymous_args = 0
 1600              	.LVL269:
 1601 0000 10B5     		push	{r4, lr}
 1602              		.cfi_def_cfa_offset 8
 1603              		.cfi_offset 4, -8
 1604              		.cfi_offset 14, -4
 1605 0002 041E     		subs	r4, r0, #0
 359:Source\azure_iot_sdk\iothub_client\src/message_queue.c ****     {
 1606              		.loc 1 359 0
 1607 0004 06D1     		bne	.L102
 1608              	.LBB34:
 1609 0006 16E0     		b	.L101
 1610              	.LVL270:
ARM GAS  C:\Users\Phuong\AppData\Local\Temp\ccaRXo0w.s 			page 39


 1611              	.L104:
 368:Source\azure_iot_sdk\iothub_client\src/message_queue.c ****         }
 1612              		.loc 1 368 0
 1613 0008 0023     		movs	r3, #0
 1614 000a 0422     		movs	r2, #4
 1615 000c 0100     		movs	r1, r0
 1616 000e A069     		ldr	r0, [r4, #24]
 1617              	.LVL271:
 1618 0010 FFF7FEFF 		bl	dequeue_message_and_fire_callback
 1619              	.LVL272:
 1620              	.L102:
 364:Source\azure_iot_sdk\iothub_client\src/message_queue.c ****         {
 1621              		.loc 1 364 0
 1622 0014 A069     		ldr	r0, [r4, #24]
 1623 0016 FFF7FEFF 		bl	singlylinkedlist_get_head_item
 1624              	.LVL273:
 1625 001a 0028     		cmp	r0, #0
 1626 001c F4D1     		bne	.L104
 1627 001e 05E0     		b	.L105
 1628              	.L106:
 375:Source\azure_iot_sdk\iothub_client\src/message_queue.c ****         }
 1629              		.loc 1 375 0
 1630 0020 0023     		movs	r3, #0
 1631 0022 0422     		movs	r2, #4
 1632 0024 0100     		movs	r1, r0
 1633 0026 6069     		ldr	r0, [r4, #20]
 1634              	.LVL274:
 1635 0028 FFF7FEFF 		bl	dequeue_message_and_fire_callback
 1636              	.LVL275:
 1637              	.L105:
 371:Source\azure_iot_sdk\iothub_client\src/message_queue.c ****         {
 1638              		.loc 1 371 0
 1639 002c 6069     		ldr	r0, [r4, #20]
 1640 002e FFF7FEFF 		bl	singlylinkedlist_get_head_item
 1641              	.LVL276:
 1642 0032 0028     		cmp	r0, #0
 1643 0034 F4D1     		bne	.L106
 1644              	.LVL277:
 1645              	.L101:
 1646              	.LBE34:
 378:Source\azure_iot_sdk\iothub_client\src/message_queue.c **** 
 1647              		.loc 1 378 0
 1648              		@ sp needed
 1649              	.LVL278:
 1650 0036 10BD     		pop	{r4, pc}
 1651              		.cfi_endproc
 1652              	.LFE11:
 1653              		.size	message_queue_remove_all, .-message_queue_remove_all
 1654              		.section	.text.message_queue_move_all_back_to_pending,"ax",%progbits
 1655              		.align	2
 1656              		.global	message_queue_move_all_back_to_pending
 1657              		.code	16
 1658              		.thumb_func
 1659              		.type	message_queue_move_all_back_to_pending, %function
 1660              	message_queue_move_all_back_to_pending:
 1661              	.LFB13:
 420:Source\azure_iot_sdk\iothub_client\src/message_queue.c **** 
ARM GAS  C:\Users\Phuong\AppData\Local\Temp\ccaRXo0w.s 			page 40


 421:Source\azure_iot_sdk\iothub_client\src/message_queue.c **** int message_queue_move_all_back_to_pending(MESSAGE_QUEUE_HANDLE message_queue)
 422:Source\azure_iot_sdk\iothub_client\src/message_queue.c **** {
 1662              		.loc 1 422 0
 1663              		.cfi_startproc
 1664              		@ args = 0, pretend = 0, frame = 0
 1665              		@ frame_needed = 0, uses_anonymous_args = 0
 1666              	.LVL279:
 1667 0000 30B5     		push	{r4, r5, lr}
 1668              		.cfi_def_cfa_offset 12
 1669              		.cfi_offset 4, -12
 1670              		.cfi_offset 5, -8
 1671              		.cfi_offset 14, -4
 1672 0002 83B0     		sub	sp, sp, #12
 1673              		.cfi_def_cfa_offset 24
 1674 0004 051E     		subs	r5, r0, #0
 423:Source\azure_iot_sdk\iothub_client\src/message_queue.c ****     int result;
 424:Source\azure_iot_sdk\iothub_client\src/message_queue.c **** 
 425:Source\azure_iot_sdk\iothub_client\src/message_queue.c ****     if (message_queue == NULL)
 1675              		.loc 1 425 0
 1676 0006 12D1     		bne	.L108
 1677              	.LBB35:
 426:Source\azure_iot_sdk\iothub_client\src/message_queue.c ****     {
 427:Source\azure_iot_sdk\iothub_client\src/message_queue.c ****         LogError("invalid argument (message_queue is NULL)");
 1678              		.loc 1 427 0 discriminator 3
 1679 0008 FFF7FEFF 		bl	xlogging_get_log_function
 1680              	.LVL280:
 1681 000c 041E     		subs	r4, r0, #0
 1682              	.LVL281:
 1683 000e 00D1     		bne	.LCB1799
 1684 0010 87E0     		b	.L117	@long jump
 1685              	.LCB1799:
 1686              		.loc 1 427 0 is_stmt 0 discriminator 4
 1687 0012 484B     		ldr	r3, .L123
 1688 0014 0193     		str	r3, [sp, #4]
 1689 0016 0123     		movs	r3, #1
 1690 0018 0093     		str	r3, [sp]
 1691 001a AC23     		movs	r3, #172
 1692 001c FF33     		adds	r3, r3, #255
 1693 001e 464A     		ldr	r2, .L123+4
 1694 0020 4C32     		adds	r2, r2, #76
 1695 0022 4649     		ldr	r1, .L123+8
 1696 0024 0020     		movs	r0, #0
 1697              	.LVL282:
 1698 0026 A047     		blx	r4
 1699              	.LVL283:
 1700              	.LBE35:
 428:Source\azure_iot_sdk\iothub_client\src/message_queue.c ****         result = __FAILURE__;
 1701              		.loc 1 428 0 is_stmt 1 discriminator 4
 1702 0028 AD35     		adds	r5, r5, #173
 1703              	.LVL284:
 1704 002a FF35     		adds	r5, r5, #255
 1705              	.LVL285:
 1706 002c 7EE0     		b	.L109
 1707              	.LVL286:
 1708              	.L108:
 1709              	.LBB36:
 429:Source\azure_iot_sdk\iothub_client\src/message_queue.c ****     }
ARM GAS  C:\Users\Phuong\AppData\Local\Temp\ccaRXo0w.s 			page 41


 430:Source\azure_iot_sdk\iothub_client\src/message_queue.c ****     else
 431:Source\azure_iot_sdk\iothub_client\src/message_queue.c ****     {
 432:Source\azure_iot_sdk\iothub_client\src/message_queue.c ****         SINGLYLINKEDLIST_HANDLE temp_list;
 433:Source\azure_iot_sdk\iothub_client\src/message_queue.c **** 
 434:Source\azure_iot_sdk\iothub_client\src/message_queue.c ****         if ((temp_list = singlylinkedlist_create()) == NULL)
 1710              		.loc 1 434 0
 1711 002e FFF7FEFF 		bl	singlylinkedlist_create
 1712              	.LVL287:
 1713 0032 041E     		subs	r4, r0, #0
 1714              	.LVL288:
 1715 0034 11D1     		bne	.L110
 1716              	.LBB37:
 435:Source\azure_iot_sdk\iothub_client\src/message_queue.c ****         {
 436:Source\azure_iot_sdk\iothub_client\src/message_queue.c ****             LogError("failed creating temporary list");
 1717              		.loc 1 436 0 discriminator 3
 1718 0036 FFF7FEFF 		bl	xlogging_get_log_function
 1719              	.LVL289:
 1720 003a 041E     		subs	r4, r0, #0
 1721              	.LVL290:
 1722 003c 74D0     		beq	.L118
 1723              		.loc 1 436 0 is_stmt 0 discriminator 4
 1724 003e 404B     		ldr	r3, .L123+12
 1725 0040 0193     		str	r3, [sp, #4]
 1726 0042 0123     		movs	r3, #1
 1727 0044 0093     		str	r3, [sp]
 1728 0046 B433     		adds	r3, r3, #180
 1729 0048 FF33     		adds	r3, r3, #255
 1730 004a 3B4A     		ldr	r2, .L123+4
 1731 004c 4C32     		adds	r2, r2, #76
 1732 004e 3B49     		ldr	r1, .L123+8
 1733 0050 0020     		movs	r0, #0
 1734              	.LVL291:
 1735 0052 A047     		blx	r4
 1736              	.LVL292:
 1737              	.LBE37:
 437:Source\azure_iot_sdk\iothub_client\src/message_queue.c ****             result = __FAILURE__;
 1738              		.loc 1 437 0 is_stmt 1 discriminator 4
 1739 0054 B625     		movs	r5, #182
 1740              	.LVL293:
 1741 0056 FF35     		adds	r5, r5, #255
 1742 0058 68E0     		b	.L109
 1743              	.LVL294:
 1744              	.L110:
 438:Source\azure_iot_sdk\iothub_client\src/message_queue.c ****         }
 439:Source\azure_iot_sdk\iothub_client\src/message_queue.c ****         else
 440:Source\azure_iot_sdk\iothub_client\src/message_queue.c ****         {
 441:Source\azure_iot_sdk\iothub_client\src/message_queue.c ****             if (move_messages_between_lists(message_queue->in_progress, temp_list) != 0)
 1745              		.loc 1 441 0
 1746 005a 0100     		movs	r1, r0
 1747 005c A869     		ldr	r0, [r5, #24]
 1748              	.LVL295:
 1749 005e FFF7FEFF 		bl	move_messages_between_lists
 1750              	.LVL296:
 1751 0062 0028     		cmp	r0, #0
 1752 0064 11D0     		beq	.L111
 1753              	.LBB38:
 442:Source\azure_iot_sdk\iothub_client\src/message_queue.c ****             {
ARM GAS  C:\Users\Phuong\AppData\Local\Temp\ccaRXo0w.s 			page 42


 443:Source\azure_iot_sdk\iothub_client\src/message_queue.c ****                 LogError("failed moving in-progress message to temporary list");
 1754              		.loc 1 443 0 discriminator 3
 1755 0066 FFF7FEFF 		bl	xlogging_get_log_function
 1756              	.LVL297:
 1757 006a 051E     		subs	r5, r0, #0
 1758              	.LVL298:
 1759 006c 3DD0     		beq	.L119
 1760              		.loc 1 443 0 is_stmt 0 discriminator 4
 1761 006e 354B     		ldr	r3, .L123+16
 1762 0070 0193     		str	r3, [sp, #4]
 1763 0072 0123     		movs	r3, #1
 1764 0074 0093     		str	r3, [sp]
 1765 0076 BC23     		movs	r3, #188
 1766 0078 FF33     		adds	r3, r3, #255
 1767 007a 2F4A     		ldr	r2, .L123+4
 1768 007c 4C32     		adds	r2, r2, #76
 1769 007e 2F49     		ldr	r1, .L123+8
 1770 0080 0020     		movs	r0, #0
 1771              	.LVL299:
 1772 0082 A847     		blx	r5
 1773              	.LVL300:
 1774              	.LBE38:
 444:Source\azure_iot_sdk\iothub_client\src/message_queue.c ****                 result = __FAILURE__;
 1775              		.loc 1 444 0 is_stmt 1 discriminator 4
 1776 0084 DE25     		movs	r5, #222
 1777              	.LVL301:
 1778 0086 6D00     		lsls	r5, r5, #1
 1779 0088 39E0     		b	.L112
 1780              	.LVL302:
 1781              	.L111:
 445:Source\azure_iot_sdk\iothub_client\src/message_queue.c ****             }
 446:Source\azure_iot_sdk\iothub_client\src/message_queue.c ****             else if (move_messages_between_lists(message_queue->pending, temp_list) != 0)
 1782              		.loc 1 446 0
 1783 008a 2100     		movs	r1, r4
 1784 008c 6869     		ldr	r0, [r5, #20]
 1785 008e FFF7FEFF 		bl	move_messages_between_lists
 1786              	.LVL303:
 1787 0092 0028     		cmp	r0, #0
 1788 0094 11D0     		beq	.L113
 1789              	.LBB39:
 447:Source\azure_iot_sdk\iothub_client\src/message_queue.c ****             {
 448:Source\azure_iot_sdk\iothub_client\src/message_queue.c ****                 LogError("failed moving pending message to temporary list");
 1790              		.loc 1 448 0 discriminator 3
 1791 0096 FFF7FEFF 		bl	xlogging_get_log_function
 1792              	.LVL304:
 1793 009a 051E     		subs	r5, r0, #0
 1794              	.LVL305:
 1795 009c 28D0     		beq	.L120
 1796              		.loc 1 448 0 is_stmt 0 discriminator 4
 1797 009e 2A4B     		ldr	r3, .L123+20
 1798 00a0 0193     		str	r3, [sp, #4]
 1799 00a2 0123     		movs	r3, #1
 1800 00a4 0093     		str	r3, [sp]
 1801 00a6 C033     		adds	r3, r3, #192
 1802 00a8 FF33     		adds	r3, r3, #255
 1803 00aa 234A     		ldr	r2, .L123+4
 1804 00ac 4C32     		adds	r2, r2, #76
ARM GAS  C:\Users\Phuong\AppData\Local\Temp\ccaRXo0w.s 			page 43


 1805 00ae 2349     		ldr	r1, .L123+8
 1806 00b0 0020     		movs	r0, #0
 1807              	.LVL306:
 1808 00b2 A847     		blx	r5
 1809              	.LVL307:
 1810              	.LBE39:
 449:Source\azure_iot_sdk\iothub_client\src/message_queue.c ****                 result = __FAILURE__;
 1811              		.loc 1 449 0 is_stmt 1 discriminator 4
 1812 00b4 C225     		movs	r5, #194
 1813              	.LVL308:
 1814 00b6 FF35     		adds	r5, r5, #255
 1815 00b8 21E0     		b	.L112
 1816              	.LVL309:
 1817              	.L113:
 450:Source\azure_iot_sdk\iothub_client\src/message_queue.c ****             }
 451:Source\azure_iot_sdk\iothub_client\src/message_queue.c ****             else if (move_messages_between_lists(temp_list, message_queue->pending) != 0)
 1818              		.loc 1 451 0
 1819 00ba 6969     		ldr	r1, [r5, #20]
 1820 00bc 2000     		movs	r0, r4
 1821 00be FFF7FEFF 		bl	move_messages_between_lists
 1822              	.LVL310:
 1823 00c2 0028     		cmp	r0, #0
 1824 00c4 17D0     		beq	.L121
 1825              	.LBB40:
 452:Source\azure_iot_sdk\iothub_client\src/message_queue.c ****             {
 453:Source\azure_iot_sdk\iothub_client\src/message_queue.c ****                 LogError("failed moving pending message to temporary list");
 1826              		.loc 1 453 0 discriminator 3
 1827 00c6 FFF7FEFF 		bl	xlogging_get_log_function
 1828              	.LVL311:
 1829 00ca 051E     		subs	r5, r0, #0
 1830              	.LVL312:
 1831 00cc 15D0     		beq	.L122
 1832              		.loc 1 453 0 is_stmt 0 discriminator 4
 1833 00ce 1E4B     		ldr	r3, .L123+20
 1834 00d0 0193     		str	r3, [sp, #4]
 1835 00d2 0123     		movs	r3, #1
 1836 00d4 0093     		str	r3, [sp]
 1837 00d6 C623     		movs	r3, #198
 1838 00d8 FF33     		adds	r3, r3, #255
 1839 00da 174A     		ldr	r2, .L123+4
 1840 00dc 4C32     		adds	r2, r2, #76
 1841 00de 1749     		ldr	r1, .L123+8
 1842 00e0 0020     		movs	r0, #0
 1843              	.LVL313:
 1844 00e2 A847     		blx	r5
 1845              	.LVL314:
 1846              	.LBE40:
 454:Source\azure_iot_sdk\iothub_client\src/message_queue.c ****                 result = __FAILURE__;
 1847              		.loc 1 454 0 is_stmt 1 discriminator 4
 1848 00e4 E325     		movs	r5, #227
 1849              	.LVL315:
 1850 00e6 6D00     		lsls	r5, r5, #1
 1851 00e8 09E0     		b	.L112
 1852              	.LVL316:
 1853              	.L119:
 444:Source\azure_iot_sdk\iothub_client\src/message_queue.c ****             }
 1854              		.loc 1 444 0
ARM GAS  C:\Users\Phuong\AppData\Local\Temp\ccaRXo0w.s 			page 44


 1855 00ea DE25     		movs	r5, #222
 1856 00ec 6D00     		lsls	r5, r5, #1
 1857 00ee 06E0     		b	.L112
 1858              	.LVL317:
 1859              	.L120:
 449:Source\azure_iot_sdk\iothub_client\src/message_queue.c ****             }
 1860              		.loc 1 449 0
 1861 00f0 C225     		movs	r5, #194
 1862 00f2 FF35     		adds	r5, r5, #255
 1863 00f4 03E0     		b	.L112
 1864              	.LVL318:
 1865              	.L121:
 455:Source\azure_iot_sdk\iothub_client\src/message_queue.c ****             }
 456:Source\azure_iot_sdk\iothub_client\src/message_queue.c ****             else
 457:Source\azure_iot_sdk\iothub_client\src/message_queue.c ****             {
 458:Source\azure_iot_sdk\iothub_client\src/message_queue.c ****                 result = RESULT_OK;
 1866              		.loc 1 458 0
 1867 00f6 0025     		movs	r5, #0
 1868              	.LVL319:
 1869 00f8 01E0     		b	.L112
 1870              	.LVL320:
 1871              	.L122:
 454:Source\azure_iot_sdk\iothub_client\src/message_queue.c ****             }
 1872              		.loc 1 454 0
 1873 00fa E325     		movs	r5, #227
 1874 00fc 6D00     		lsls	r5, r5, #1
 1875              	.LVL321:
 1876              	.L112:
 459:Source\azure_iot_sdk\iothub_client\src/message_queue.c ****             }
 460:Source\azure_iot_sdk\iothub_client\src/message_queue.c **** 
 461:Source\azure_iot_sdk\iothub_client\src/message_queue.c ****             if (result != RESULT_OK)
 1877              		.loc 1 461 0
 1878 00fe 002D     		cmp	r5, #0
 1879 0100 06D1     		bne	.L114
 1880              	.LBB41:
 1881 0102 0AE0     		b	.L115
 1882              	.LVL322:
 1883              	.L116:
 462:Source\azure_iot_sdk\iothub_client\src/message_queue.c ****             {
 463:Source\azure_iot_sdk\iothub_client\src/message_queue.c ****                 LIST_ITEM_HANDLE list_item;
 464:Source\azure_iot_sdk\iothub_client\src/message_queue.c **** 
 465:Source\azure_iot_sdk\iothub_client\src/message_queue.c ****                 while ((list_item = singlylinkedlist_get_head_item(temp_list)) != NULL)
 466:Source\azure_iot_sdk\iothub_client\src/message_queue.c ****                 {
 467:Source\azure_iot_sdk\iothub_client\src/message_queue.c ****                     dequeue_message_and_fire_callback(temp_list, list_item, MESSAGE_QUEUE_CANCELLED
 1884              		.loc 1 467 0
 1885 0104 0023     		movs	r3, #0
 1886 0106 0422     		movs	r2, #4
 1887 0108 0100     		movs	r1, r0
 1888 010a 2000     		movs	r0, r4
 1889              	.LVL323:
 1890 010c FFF7FEFF 		bl	dequeue_message_and_fire_callback
 1891              	.LVL324:
 1892              	.L114:
 465:Source\azure_iot_sdk\iothub_client\src/message_queue.c ****                 {
 1893              		.loc 1 465 0
 1894 0110 2000     		movs	r0, r4
 1895 0112 FFF7FEFF 		bl	singlylinkedlist_get_head_item
ARM GAS  C:\Users\Phuong\AppData\Local\Temp\ccaRXo0w.s 			page 45


 1896              	.LVL325:
 1897 0116 0028     		cmp	r0, #0
 1898 0118 F4D1     		bne	.L116
 1899              	.LVL326:
 1900              	.L115:
 1901              	.LBE41:
 468:Source\azure_iot_sdk\iothub_client\src/message_queue.c ****                 }
 469:Source\azure_iot_sdk\iothub_client\src/message_queue.c ****             }
 470:Source\azure_iot_sdk\iothub_client\src/message_queue.c **** 
 471:Source\azure_iot_sdk\iothub_client\src/message_queue.c ****             singlylinkedlist_destroy(temp_list);
 1902              		.loc 1 471 0
 1903 011a 2000     		movs	r0, r4
 1904 011c FFF7FEFF 		bl	singlylinkedlist_destroy
 1905              	.LVL327:
 1906 0120 04E0     		b	.L109
 1907              	.LVL328:
 1908              	.L117:
 1909              	.LBE36:
 428:Source\azure_iot_sdk\iothub_client\src/message_queue.c ****     }
 1910              		.loc 1 428 0
 1911 0122 D625     		movs	r5, #214
 1912              	.LVL329:
 1913 0124 6D00     		lsls	r5, r5, #1
 1914 0126 01E0     		b	.L109
 1915              	.LVL330:
 1916              	.L118:
 1917              	.LBB42:
 437:Source\azure_iot_sdk\iothub_client\src/message_queue.c ****         }
 1918              		.loc 1 437 0
 1919 0128 B625     		movs	r5, #182
 1920              	.LVL331:
 1921 012a FF35     		adds	r5, r5, #255
 1922              	.LVL332:
 1923              	.L109:
 1924              	.LBE42:
 472:Source\azure_iot_sdk\iothub_client\src/message_queue.c ****         }
 473:Source\azure_iot_sdk\iothub_client\src/message_queue.c ****     }
 474:Source\azure_iot_sdk\iothub_client\src/message_queue.c **** 
 475:Source\azure_iot_sdk\iothub_client\src/message_queue.c ****     return result;
 476:Source\azure_iot_sdk\iothub_client\src/message_queue.c **** }
 1925              		.loc 1 476 0
 1926 012c 2800     		movs	r0, r5
 1927 012e 03B0     		add	sp, sp, #12
 1928              		@ sp needed
 1929              	.LVL333:
 1930 0130 30BD     		pop	{r4, r5, pc}
 1931              	.L124:
 1932 0132 C046     		.align	2
 1933              	.L123:
 1934 0134 E0030000 		.word	.LC64
 1935 0138 80000000 		.word	.LANCHOR1
 1936 013c 00000000 		.word	.LC1
 1937 0140 0C040000 		.word	.LC66
 1938 0144 2C040000 		.word	.LC68
 1939 0148 60040000 		.word	.LC70
 1940              		.cfi_endproc
 1941              	.LFE13:
ARM GAS  C:\Users\Phuong\AppData\Local\Temp\ccaRXo0w.s 			page 46


 1942              		.size	message_queue_move_all_back_to_pending, .-message_queue_move_all_back_to_pending
 1943              		.section	.text.message_queue_destroy,"ax",%progbits
 1944              		.align	2
 1945              		.global	message_queue_destroy
 1946              		.code	16
 1947              		.thumb_func
 1948              		.type	message_queue_destroy, %function
 1949              	message_queue_destroy:
 1950              	.LFB14:
 477:Source\azure_iot_sdk\iothub_client\src/message_queue.c **** 
 478:Source\azure_iot_sdk\iothub_client\src/message_queue.c **** void message_queue_destroy(MESSAGE_QUEUE_HANDLE message_queue)
 479:Source\azure_iot_sdk\iothub_client\src/message_queue.c **** {
 1951              		.loc 1 479 0
 1952              		.cfi_startproc
 1953              		@ args = 0, pretend = 0, frame = 0
 1954              		@ frame_needed = 0, uses_anonymous_args = 0
 1955              	.LVL334:
 1956 0000 10B5     		push	{r4, lr}
 1957              		.cfi_def_cfa_offset 8
 1958              		.cfi_offset 4, -8
 1959              		.cfi_offset 14, -4
 1960 0002 041E     		subs	r4, r0, #0
 480:Source\azure_iot_sdk\iothub_client\src/message_queue.c ****     // Codes_SRS_MESSAGE_QUEUE_09_013: [If `message_queue` is NULL, message_queue_destroy shall ret
 481:Source\azure_iot_sdk\iothub_client\src/message_queue.c ****     if (message_queue != NULL)
 1961              		.loc 1 481 0
 1962 0004 0ED0     		beq	.L125
 482:Source\azure_iot_sdk\iothub_client\src/message_queue.c ****     {
 483:Source\azure_iot_sdk\iothub_client\src/message_queue.c ****         // Codes_SRS_MESSAGE_QUEUE_09_014: [message_queue_destroy shall invoke message_queue_remove
 484:Source\azure_iot_sdk\iothub_client\src/message_queue.c ****         message_queue_remove_all(message_queue);
 1963              		.loc 1 484 0
 1964 0006 FFF7FEFF 		bl	message_queue_remove_all
 1965              	.LVL335:
 485:Source\azure_iot_sdk\iothub_client\src/message_queue.c **** 
 486:Source\azure_iot_sdk\iothub_client\src/message_queue.c ****         // Codes_SRS_MESSAGE_QUEUE_09_015: [message_queue_destroy shall free all memory allocated a
 487:Source\azure_iot_sdk\iothub_client\src/message_queue.c ****         if (message_queue->pending != NULL)
 1966              		.loc 1 487 0
 1967 000a 6069     		ldr	r0, [r4, #20]
 1968 000c 0028     		cmp	r0, #0
 1969 000e 01D0     		beq	.L127
 488:Source\azure_iot_sdk\iothub_client\src/message_queue.c ****         {
 489:Source\azure_iot_sdk\iothub_client\src/message_queue.c ****             singlylinkedlist_destroy(message_queue->pending);
 1970              		.loc 1 489 0
 1971 0010 FFF7FEFF 		bl	singlylinkedlist_destroy
 1972              	.LVL336:
 1973              	.L127:
 490:Source\azure_iot_sdk\iothub_client\src/message_queue.c ****         }
 491:Source\azure_iot_sdk\iothub_client\src/message_queue.c **** 
 492:Source\azure_iot_sdk\iothub_client\src/message_queue.c ****         if (message_queue->in_progress != NULL)
 1974              		.loc 1 492 0
 1975 0014 A069     		ldr	r0, [r4, #24]
 1976 0016 0028     		cmp	r0, #0
 1977 0018 01D0     		beq	.L128
 493:Source\azure_iot_sdk\iothub_client\src/message_queue.c ****         {
 494:Source\azure_iot_sdk\iothub_client\src/message_queue.c ****             singlylinkedlist_destroy(message_queue->in_progress);
 1978              		.loc 1 494 0
 1979 001a FFF7FEFF 		bl	singlylinkedlist_destroy
 1980              	.LVL337:
ARM GAS  C:\Users\Phuong\AppData\Local\Temp\ccaRXo0w.s 			page 47


 1981              	.L128:
 495:Source\azure_iot_sdk\iothub_client\src/message_queue.c ****         }
 496:Source\azure_iot_sdk\iothub_client\src/message_queue.c **** 
 497:Source\azure_iot_sdk\iothub_client\src/message_queue.c ****         free(message_queue);
 1982              		.loc 1 497 0
 1983 001e 2000     		movs	r0, r4
 1984 0020 FFF7FEFF 		bl	free
 1985              	.LVL338:
 1986              	.L125:
 498:Source\azure_iot_sdk\iothub_client\src/message_queue.c ****     }
 499:Source\azure_iot_sdk\iothub_client\src/message_queue.c **** }
 1987              		.loc 1 499 0
 1988              		@ sp needed
 1989              	.LVL339:
 1990 0024 10BD     		pop	{r4, pc}
 1991              		.cfi_endproc
 1992              	.LFE14:
 1993              		.size	message_queue_destroy, .-message_queue_destroy
 1994 0026 C046     		.section	.text.message_queue_create,"ax",%progbits
 1995              		.align	2
 1996              		.global	message_queue_create
 1997              		.code	16
 1998              		.thumb_func
 1999              		.type	message_queue_create, %function
 2000              	message_queue_create:
 2001              	.LFB15:
 500:Source\azure_iot_sdk\iothub_client\src/message_queue.c **** 
 501:Source\azure_iot_sdk\iothub_client\src/message_queue.c **** MESSAGE_QUEUE_HANDLE message_queue_create(MESSAGE_QUEUE_CONFIG* config)
 502:Source\azure_iot_sdk\iothub_client\src/message_queue.c **** {
 2002              		.loc 1 502 0
 2003              		.cfi_startproc
 2004              		@ args = 0, pretend = 0, frame = 0
 2005              		@ frame_needed = 0, uses_anonymous_args = 0
 2006              	.LVL340:
 2007 0000 30B5     		push	{r4, r5, lr}
 2008              		.cfi_def_cfa_offset 12
 2009              		.cfi_offset 4, -12
 2010              		.cfi_offset 5, -8
 2011              		.cfi_offset 14, -4
 2012 0002 83B0     		sub	sp, sp, #12
 2013              		.cfi_def_cfa_offset 24
 2014 0004 051E     		subs	r5, r0, #0
 503:Source\azure_iot_sdk\iothub_client\src/message_queue.c ****     MESSAGE_QUEUE* result;
 504:Source\azure_iot_sdk\iothub_client\src/message_queue.c **** 
 505:Source\azure_iot_sdk\iothub_client\src/message_queue.c ****     // Codes_SRS_MESSAGE_QUEUE_09_001: [If `config` is NULL, message_queue_create shall fail and re
 506:Source\azure_iot_sdk\iothub_client\src/message_queue.c ****     if (config == NULL)
 2015              		.loc 1 506 0
 2016 0006 10D1     		bne	.L130
 2017              	.LBB43:
 507:Source\azure_iot_sdk\iothub_client\src/message_queue.c ****     {
 508:Source\azure_iot_sdk\iothub_client\src/message_queue.c ****         LogError("invalid configuration (NULL)");
 2018              		.loc 1 508 0 discriminator 3
 2019 0008 FFF7FEFF 		bl	xlogging_get_log_function
 2020              	.LVL341:
 2021 000c 041E     		subs	r4, r0, #0
 2022              	.LVL342:
 2023 000e 71D0     		beq	.L138
ARM GAS  C:\Users\Phuong\AppData\Local\Temp\ccaRXo0w.s 			page 48


 2024              		.loc 1 508 0 is_stmt 0 discriminator 4
 2025 0010 3B4B     		ldr	r3, .L140
 2026 0012 0193     		str	r3, [sp, #4]
 2027 0014 0123     		movs	r3, #1
 2028 0016 0093     		str	r3, [sp]
 2029 0018 FC33     		adds	r3, r3, #252
 2030 001a FF33     		adds	r3, r3, #255
 2031 001c 394A     		ldr	r2, .L140+4
 2032 001e 7432     		adds	r2, r2, #116
 2033 0020 3949     		ldr	r1, .L140+8
 2034 0022 0020     		movs	r0, #0
 2035              	.LVL343:
 2036 0024 A047     		blx	r4
 2037              	.LVL344:
 2038              	.LBE43:
 509:Source\azure_iot_sdk\iothub_client\src/message_queue.c ****         result = NULL;
 2039              		.loc 1 509 0 is_stmt 1 discriminator 4
 2040 0026 0024     		movs	r4, #0
 2041              	.LVL345:
 2042 0028 67E0     		b	.L131
 2043              	.LVL346:
 2044              	.L130:
 510:Source\azure_iot_sdk\iothub_client\src/message_queue.c ****     }
 511:Source\azure_iot_sdk\iothub_client\src/message_queue.c ****     // Codes_SRS_MESSAGE_QUEUE_09_002: [If `config->on_process_message_callback` is NULL, message_q
 512:Source\azure_iot_sdk\iothub_client\src/message_queue.c ****     else if (config->on_process_message_callback == NULL)
 2045              		.loc 1 512 0
 2046 002a 0368     		ldr	r3, [r0]
 2047 002c 002B     		cmp	r3, #0
 2048 002e 0FD1     		bne	.L132
 2049              	.LBB44:
 513:Source\azure_iot_sdk\iothub_client\src/message_queue.c ****     {
 514:Source\azure_iot_sdk\iothub_client\src/message_queue.c ****         LogError("invalid configuration (on_process_message_callback is NULL)");
 2050              		.loc 1 514 0 discriminator 3
 2051 0030 FFF7FEFF 		bl	xlogging_get_log_function
 2052              	.LVL347:
 2053 0034 041E     		subs	r4, r0, #0
 2054              	.LVL348:
 2055 0036 5FD0     		beq	.L139
 2056              		.loc 1 514 0 is_stmt 0 discriminator 4
 2057 0038 344B     		ldr	r3, .L140+12
 2058 003a 0193     		str	r3, [sp, #4]
 2059 003c 0123     		movs	r3, #1
 2060 003e 0093     		str	r3, [sp]
 2061 0040 334B     		ldr	r3, .L140+16
 2062 0042 304A     		ldr	r2, .L140+4
 2063 0044 7432     		adds	r2, r2, #116
 2064 0046 3049     		ldr	r1, .L140+8
 2065 0048 0020     		movs	r0, #0
 2066              	.LVL349:
 2067 004a A047     		blx	r4
 2068              	.LVL350:
 2069              	.LBE44:
 515:Source\azure_iot_sdk\iothub_client\src/message_queue.c ****         result = NULL;
 2070              		.loc 1 515 0 is_stmt 1 discriminator 4
 2071 004c 0024     		movs	r4, #0
 2072              	.LVL351:
 2073 004e 54E0     		b	.L131
ARM GAS  C:\Users\Phuong\AppData\Local\Temp\ccaRXo0w.s 			page 49


 2074              	.LVL352:
 2075              	.L132:
 516:Source\azure_iot_sdk\iothub_client\src/message_queue.c ****     }
 517:Source\azure_iot_sdk\iothub_client\src/message_queue.c ****     // Codes_SRS_MESSAGE_QUEUE_09_004: [Memory shall be allocated for the MESSAGE_QUEUE data struct
 518:Source\azure_iot_sdk\iothub_client\src/message_queue.c ****     else if ((result = (MESSAGE_QUEUE*)malloc(sizeof(MESSAGE_QUEUE))) == NULL)
 2076              		.loc 1 518 0
 2077 0050 1C20     		movs	r0, #28
 2078              	.LVL353:
 2079 0052 FFF7FEFF 		bl	malloc
 2080              	.LVL354:
 2081 0056 041E     		subs	r4, r0, #0
 2082              	.LVL355:
 2083 0058 0ED1     		bne	.L133
 2084              	.LBB45:
 519:Source\azure_iot_sdk\iothub_client\src/message_queue.c ****     {
 520:Source\azure_iot_sdk\iothub_client\src/message_queue.c ****         // Codes_SRS_MESSAGE_QUEUE_09_005: [If `instance` cannot be allocated, message_queue_create
 521:Source\azure_iot_sdk\iothub_client\src/message_queue.c ****         LogError("failed allocating MESSAGE_QUEUE");
 2085              		.loc 1 521 0 discriminator 3
 2086 005a FFF7FEFF 		bl	xlogging_get_log_function
 2087              	.LVL356:
 2088 005e 051E     		subs	r5, r0, #0
 2089              	.LVL357:
 2090 0060 4BD0     		beq	.L131
 2091              		.loc 1 521 0 is_stmt 0 discriminator 4
 2092 0062 2C4B     		ldr	r3, .L140+20
 2093 0064 0193     		str	r3, [sp, #4]
 2094 0066 0123     		movs	r3, #1
 2095 0068 0093     		str	r3, [sp]
 2096 006a 2B4B     		ldr	r3, .L140+24
 2097 006c 254A     		ldr	r2, .L140+4
 2098 006e 7432     		adds	r2, r2, #116
 2099 0070 2549     		ldr	r1, .L140+8
 2100 0072 0020     		movs	r0, #0
 2101              	.LVL358:
 2102 0074 A847     		blx	r5
 2103              	.LVL359:
 2104 0076 40E0     		b	.L131
 2105              	.LVL360:
 2106              	.L133:
 2107              	.LBE45:
 522:Source\azure_iot_sdk\iothub_client\src/message_queue.c ****         result = NULL;
 523:Source\azure_iot_sdk\iothub_client\src/message_queue.c ****     }
 524:Source\azure_iot_sdk\iothub_client\src/message_queue.c ****     else
 525:Source\azure_iot_sdk\iothub_client\src/message_queue.c ****     {
 526:Source\azure_iot_sdk\iothub_client\src/message_queue.c ****         memset(result, 0, sizeof(MESSAGE_QUEUE));
 2108              		.loc 1 526 0 is_stmt 1
 2109 0078 1C22     		movs	r2, #28
 2110 007a 0021     		movs	r1, #0
 2111 007c FFF7FEFF 		bl	memset
 2112              	.LVL361:
 527:Source\azure_iot_sdk\iothub_client\src/message_queue.c **** 
 528:Source\azure_iot_sdk\iothub_client\src/message_queue.c ****         // Codes_SRS_MESSAGE_QUEUE_09_006: [`message_queue->pending` shall be set using singlylinke
 529:Source\azure_iot_sdk\iothub_client\src/message_queue.c ****         if ((result->pending = singlylinkedlist_create()) == NULL)
 2113              		.loc 1 529 0
 2114 0080 FFF7FEFF 		bl	singlylinkedlist_create
 2115              	.LVL362:
 2116 0084 6061     		str	r0, [r4, #20]
ARM GAS  C:\Users\Phuong\AppData\Local\Temp\ccaRXo0w.s 			page 50


 2117 0086 0028     		cmp	r0, #0
 2118 0088 13D1     		bne	.L134
 2119              	.LBB46:
 530:Source\azure_iot_sdk\iothub_client\src/message_queue.c ****         {
 531:Source\azure_iot_sdk\iothub_client\src/message_queue.c ****             // Codes_SRS_MESSAGE_QUEUE_09_007: [If singlylinkedlist_create fails, message_queue_cre
 532:Source\azure_iot_sdk\iothub_client\src/message_queue.c ****             LogError("failed allocating MESSAGE_QUEUE pending list");
 2120              		.loc 1 532 0 discriminator 3
 2121 008a FFF7FEFF 		bl	xlogging_get_log_function
 2122              	.LVL363:
 2123 008e 051E     		subs	r5, r0, #0
 2124              	.LVL364:
 2125 0090 0AD0     		beq	.L135
 2126              		.loc 1 532 0 is_stmt 0 discriminator 4
 2127 0092 224B     		ldr	r3, .L140+28
 2128 0094 0193     		str	r3, [sp, #4]
 2129 0096 0123     		movs	r3, #1
 2130 0098 0093     		str	r3, [sp]
 2131 009a 8523     		movs	r3, #133
 2132 009c 9B00     		lsls	r3, r3, #2
 2133 009e 194A     		ldr	r2, .L140+4
 2134 00a0 7432     		adds	r2, r2, #116
 2135 00a2 1949     		ldr	r1, .L140+8
 2136 00a4 0020     		movs	r0, #0
 2137              	.LVL365:
 2138 00a6 A847     		blx	r5
 2139              	.LVL366:
 2140              	.L135:
 2141              	.LBE46:
 533:Source\azure_iot_sdk\iothub_client\src/message_queue.c ****             // Codes_SRS_MESSAGE_QUEUE_09_011: [If any failures occur, message_queue_create shall r
 534:Source\azure_iot_sdk\iothub_client\src/message_queue.c ****             message_queue_destroy(result);
 2142              		.loc 1 534 0 is_stmt 1
 2143 00a8 2000     		movs	r0, r4
 2144 00aa FFF7FEFF 		bl	message_queue_destroy
 2145              	.LVL367:
 535:Source\azure_iot_sdk\iothub_client\src/message_queue.c ****             result = NULL;
 2146              		.loc 1 535 0
 2147 00ae 0024     		movs	r4, #0
 2148 00b0 23E0     		b	.L131
 2149              	.LVL368:
 2150              	.L134:
 536:Source\azure_iot_sdk\iothub_client\src/message_queue.c ****         }
 537:Source\azure_iot_sdk\iothub_client\src/message_queue.c ****         // Codes_SRS_MESSAGE_QUEUE_09_008: [`message_queue->in_progress` shall be set using singlyl
 538:Source\azure_iot_sdk\iothub_client\src/message_queue.c ****         else if ((result->in_progress = singlylinkedlist_create()) == NULL)
 2151              		.loc 1 538 0
 2152 00b2 FFF7FEFF 		bl	singlylinkedlist_create
 2153              	.LVL369:
 2154 00b6 A061     		str	r0, [r4, #24]
 2155 00b8 0028     		cmp	r0, #0
 2156 00ba 12D1     		bne	.L136
 2157              	.LBB47:
 539:Source\azure_iot_sdk\iothub_client\src/message_queue.c ****         {
 540:Source\azure_iot_sdk\iothub_client\src/message_queue.c ****             // Codes_SRS_MESSAGE_QUEUE_09_009: [If singlylinkedlist_create fails, message_queue_cre
 541:Source\azure_iot_sdk\iothub_client\src/message_queue.c ****             LogError("failed allocating MESSAGE_QUEUE in-progress list");
 2158              		.loc 1 541 0 discriminator 3
 2159 00bc FFF7FEFF 		bl	xlogging_get_log_function
 2160              	.LVL370:
 2161 00c0 051E     		subs	r5, r0, #0
ARM GAS  C:\Users\Phuong\AppData\Local\Temp\ccaRXo0w.s 			page 51


 2162              	.LVL371:
 2163 00c2 09D0     		beq	.L137
 2164              		.loc 1 541 0 is_stmt 0 discriminator 4
 2165 00c4 164B     		ldr	r3, .L140+32
 2166 00c6 0193     		str	r3, [sp, #4]
 2167 00c8 0123     		movs	r3, #1
 2168 00ca 0093     		str	r3, [sp]
 2169 00cc 154B     		ldr	r3, .L140+36
 2170 00ce 0D4A     		ldr	r2, .L140+4
 2171 00d0 7432     		adds	r2, r2, #116
 2172 00d2 0D49     		ldr	r1, .L140+8
 2173 00d4 0020     		movs	r0, #0
 2174              	.LVL372:
 2175 00d6 A847     		blx	r5
 2176              	.LVL373:
 2177              	.L137:
 2178              	.LBE47:
 542:Source\azure_iot_sdk\iothub_client\src/message_queue.c ****             // Codes_SRS_MESSAGE_QUEUE_09_011: [If any failures occur, message_queue_create shall r
 543:Source\azure_iot_sdk\iothub_client\src/message_queue.c ****             message_queue_destroy(result);
 2179              		.loc 1 543 0 is_stmt 1
 2180 00d8 2000     		movs	r0, r4
 2181 00da FFF7FEFF 		bl	message_queue_destroy
 2182              	.LVL374:
 544:Source\azure_iot_sdk\iothub_client\src/message_queue.c ****             result = NULL;
 2183              		.loc 1 544 0
 2184 00de 0024     		movs	r4, #0
 2185 00e0 0BE0     		b	.L131
 2186              	.LVL375:
 2187              	.L136:
 545:Source\azure_iot_sdk\iothub_client\src/message_queue.c ****         }
 546:Source\azure_iot_sdk\iothub_client\src/message_queue.c ****         else
 547:Source\azure_iot_sdk\iothub_client\src/message_queue.c ****         {
 548:Source\azure_iot_sdk\iothub_client\src/message_queue.c ****             // Codes_SRS_MESSAGE_QUEUE_09_010: [All arguments in `config` shall be saved into `mess
 549:Source\azure_iot_sdk\iothub_client\src/message_queue.c ****             // Codes_SRS_MESSAGE_QUEUE_09_012: [If no failures occur, message_queue_create shall re
 550:Source\azure_iot_sdk\iothub_client\src/message_queue.c **** 
 551:Source\azure_iot_sdk\iothub_client\src/message_queue.c ****             result->max_message_enqueued_time_secs = config->max_message_enqueued_time_secs;
 2188              		.loc 1 551 0
 2189 00e2 6B68     		ldr	r3, [r5, #4]
 2190 00e4 2360     		str	r3, [r4]
 552:Source\azure_iot_sdk\iothub_client\src/message_queue.c ****             result->max_message_processing_time_secs = config->max_message_processing_time_secs;
 2191              		.loc 1 552 0
 2192 00e6 AB68     		ldr	r3, [r5, #8]
 2193 00e8 6360     		str	r3, [r4, #4]
 553:Source\azure_iot_sdk\iothub_client\src/message_queue.c ****             result->max_retry_count = config->max_retry_count;
 2194              		.loc 1 553 0
 2195 00ea EB68     		ldr	r3, [r5, #12]
 2196 00ec A360     		str	r3, [r4, #8]
 554:Source\azure_iot_sdk\iothub_client\src/message_queue.c ****             result->on_process_message_callback = config->on_process_message_callback;
 2197              		.loc 1 554 0
 2198 00ee 2B68     		ldr	r3, [r5]
 2199 00f0 E360     		str	r3, [r4, #12]
 2200 00f2 02E0     		b	.L131
 2201              	.LVL376:
 2202              	.L138:
 509:Source\azure_iot_sdk\iothub_client\src/message_queue.c ****     }
 2203              		.loc 1 509 0
 2204 00f4 0024     		movs	r4, #0
ARM GAS  C:\Users\Phuong\AppData\Local\Temp\ccaRXo0w.s 			page 52


 2205 00f6 00E0     		b	.L131
 2206              	.LVL377:
 2207              	.L139:
 515:Source\azure_iot_sdk\iothub_client\src/message_queue.c ****     }
 2208              		.loc 1 515 0
 2209 00f8 0024     		movs	r4, #0
 2210              	.LVL378:
 2211              	.L131:
 555:Source\azure_iot_sdk\iothub_client\src/message_queue.c ****         }
 556:Source\azure_iot_sdk\iothub_client\src/message_queue.c ****     }
 557:Source\azure_iot_sdk\iothub_client\src/message_queue.c **** 
 558:Source\azure_iot_sdk\iothub_client\src/message_queue.c ****     return result;
 559:Source\azure_iot_sdk\iothub_client\src/message_queue.c **** }
 2212              		.loc 1 559 0
 2213 00fa 2000     		movs	r0, r4
 2214 00fc 03B0     		add	sp, sp, #12
 2215              		@ sp needed
 2216              	.LVL379:
 2217 00fe 30BD     		pop	{r4, r5, pc}
 2218              	.L141:
 2219              		.align	2
 2220              	.L140:
 2221 0100 90040000 		.word	.LC74
 2222 0104 80000000 		.word	.LANCHOR1
 2223 0108 00000000 		.word	.LC1
 2224 010c B0040000 		.word	.LC76
 2225 0110 02020000 		.word	514
 2226 0114 EC040000 		.word	.LC78
 2227 0118 09020000 		.word	521
 2228 011c 0C050000 		.word	.LC80
 2229 0120 3C050000 		.word	.LC82
 2230 0124 1D020000 		.word	541
 2231              		.cfi_endproc
 2232              	.LFE15:
 2233              		.size	message_queue_create, .-message_queue_create
 2234              		.section	.text.message_queue_add,"ax",%progbits
 2235              		.align	2
 2236              		.global	message_queue_add
 2237              		.code	16
 2238              		.thumb_func
 2239              		.type	message_queue_add, %function
 2240              	message_queue_add:
 2241              	.LFB16:
 560:Source\azure_iot_sdk\iothub_client\src/message_queue.c **** 
 561:Source\azure_iot_sdk\iothub_client\src/message_queue.c **** int message_queue_add(MESSAGE_QUEUE_HANDLE message_queue, MQ_MESSAGE_HANDLE message, MESSAGE_PROCES
 562:Source\azure_iot_sdk\iothub_client\src/message_queue.c **** {
 2242              		.loc 1 562 0
 2243              		.cfi_startproc
 2244              		@ args = 0, pretend = 0, frame = 8
 2245              		@ frame_needed = 0, uses_anonymous_args = 0
 2246              	.LVL380:
 2247 0000 F0B5     		push	{r4, r5, r6, r7, lr}
 2248              		.cfi_def_cfa_offset 20
 2249              		.cfi_offset 4, -20
 2250              		.cfi_offset 5, -16
 2251              		.cfi_offset 6, -12
 2252              		.cfi_offset 7, -8
ARM GAS  C:\Users\Phuong\AppData\Local\Temp\ccaRXo0w.s 			page 53


 2253              		.cfi_offset 14, -4
 2254 0002 87B0     		sub	sp, sp, #28
 2255              		.cfi_def_cfa_offset 48
 2256 0004 0500     		movs	r5, r0
 2257 0006 0E00     		movs	r6, r1
 2258 0008 1700     		movs	r7, r2
 2259 000a 0593     		str	r3, [sp, #20]
 563:Source\azure_iot_sdk\iothub_client\src/message_queue.c ****     int result;
 564:Source\azure_iot_sdk\iothub_client\src/message_queue.c **** 
 565:Source\azure_iot_sdk\iothub_client\src/message_queue.c ****     // Codes_SRS_MESSAGE_QUEUE_09_016: [If `message_queue` or `message` are NULL, message_queue_add
 566:Source\azure_iot_sdk\iothub_client\src/message_queue.c ****     if (message_queue == NULL || message == NULL)
 2260              		.loc 1 566 0
 2261 000c 0028     		cmp	r0, #0
 2262 000e 01D0     		beq	.L143
 2263              		.loc 1 566 0 is_stmt 0 discriminator 1
 2264 0010 0029     		cmp	r1, #0
 2265 0012 12D1     		bne	.L144
 2266              	.L143:
 2267              	.LBB48:
 567:Source\azure_iot_sdk\iothub_client\src/message_queue.c ****     {
 568:Source\azure_iot_sdk\iothub_client\src/message_queue.c ****         LogError("invalid argument (message_queue=%p, message=%p)", message_queue, message);
 2268              		.loc 1 568 0 is_stmt 1 discriminator 3
 2269 0014 FFF7FEFF 		bl	xlogging_get_log_function
 2270              	.LVL381:
 2271 0018 041E     		subs	r4, r0, #0
 2272              	.LVL382:
 2273 001a 63D0     		beq	.L151
 2274              		.loc 1 568 0 is_stmt 0 discriminator 4
 2275 001c 0396     		str	r6, [sp, #12]
 2276 001e 0295     		str	r5, [sp, #8]
 2277 0020 334B     		ldr	r3, .L153
 2278 0022 0193     		str	r3, [sp, #4]
 2279 0024 0123     		movs	r3, #1
 2280 0026 0093     		str	r3, [sp]
 2281 0028 8E23     		movs	r3, #142
 2282 002a 9B00     		lsls	r3, r3, #2
 2283 002c 314A     		ldr	r2, .L153+4
 2284 002e 0C32     		adds	r2, r2, #12
 2285 0030 3149     		ldr	r1, .L153+8
 2286 0032 0020     		movs	r0, #0
 2287              	.LVL383:
 2288 0034 A047     		blx	r4
 2289              	.LVL384:
 2290              	.LBE48:
 569:Source\azure_iot_sdk\iothub_client\src/message_queue.c ****         result = __FAILURE__;
 2291              		.loc 1 569 0 is_stmt 1 discriminator 4
 2292 0036 3148     		ldr	r0, .L153+12
 2293 0038 58E0     		b	.L145
 2294              	.LVL385:
 2295              	.L144:
 2296              	.LBB49:
 570:Source\azure_iot_sdk\iothub_client\src/message_queue.c ****     }
 571:Source\azure_iot_sdk\iothub_client\src/message_queue.c ****     else
 572:Source\azure_iot_sdk\iothub_client\src/message_queue.c ****     {
 573:Source\azure_iot_sdk\iothub_client\src/message_queue.c ****         MESSAGE_QUEUE_ITEM* mq_item;
 574:Source\azure_iot_sdk\iothub_client\src/message_queue.c **** 
 575:Source\azure_iot_sdk\iothub_client\src/message_queue.c ****         // Codes_SRS_MESSAGE_QUEUE_09_017: [message_queue_add shall allocate a structure (aka `mq_i
ARM GAS  C:\Users\Phuong\AppData\Local\Temp\ccaRXo0w.s 			page 54


 576:Source\azure_iot_sdk\iothub_client\src/message_queue.c ****         if ((mq_item = (MESSAGE_QUEUE_ITEM*)malloc(sizeof(MESSAGE_QUEUE_ITEM))) == NULL)
 2297              		.loc 1 576 0
 2298 003a 1820     		movs	r0, #24
 2299              	.LVL386:
 2300 003c FFF7FEFF 		bl	malloc
 2301              	.LVL387:
 2302 0040 041E     		subs	r4, r0, #0
 2303              	.LVL388:
 2304 0042 10D1     		bne	.L146
 2305              	.LBB50:
 577:Source\azure_iot_sdk\iothub_client\src/message_queue.c ****         {
 578:Source\azure_iot_sdk\iothub_client\src/message_queue.c ****             // Codes_SRS_MESSAGE_QUEUE_09_018: [If `mq_item` cannot be allocated, message_queue_add
 579:Source\azure_iot_sdk\iothub_client\src/message_queue.c ****             LogError("failed creating container for message");
 2306              		.loc 1 579 0 discriminator 3
 2307 0044 FFF7FEFF 		bl	xlogging_get_log_function
 2308              	.LVL389:
 2309 0048 041E     		subs	r4, r0, #0
 2310              	.LVL390:
 2311 004a 4DD0     		beq	.L152
 2312              		.loc 1 579 0 is_stmt 0 discriminator 4
 2313 004c 2C4B     		ldr	r3, .L153+16
 2314 004e 0193     		str	r3, [sp, #4]
 2315 0050 0123     		movs	r3, #1
 2316 0052 0093     		str	r3, [sp]
 2317 0054 2B4B     		ldr	r3, .L153+20
 2318 0056 274A     		ldr	r2, .L153+4
 2319 0058 0C32     		adds	r2, r2, #12
 2320 005a 2749     		ldr	r1, .L153+8
 2321 005c 0020     		movs	r0, #0
 2322              	.LVL391:
 2323 005e A047     		blx	r4
 2324              	.LVL392:
 2325              	.LBE50:
 580:Source\azure_iot_sdk\iothub_client\src/message_queue.c ****             result = __FAILURE__;
 2326              		.loc 1 580 0 is_stmt 1 discriminator 4
 2327 0060 9120     		movs	r0, #145
 2328 0062 8000     		lsls	r0, r0, #2
 2329 0064 42E0     		b	.L145
 2330              	.LVL393:
 2331              	.L146:
 581:Source\azure_iot_sdk\iothub_client\src/message_queue.c ****         }
 582:Source\azure_iot_sdk\iothub_client\src/message_queue.c ****         else
 583:Source\azure_iot_sdk\iothub_client\src/message_queue.c ****         {
 584:Source\azure_iot_sdk\iothub_client\src/message_queue.c ****             memset(mq_item, 0, sizeof(MESSAGE_QUEUE_ITEM));
 2332              		.loc 1 584 0
 2333 0066 1822     		movs	r2, #24
 2334 0068 0021     		movs	r1, #0
 2335 006a FFF7FEFF 		bl	memset
 2336              	.LVL394:
 585:Source\azure_iot_sdk\iothub_client\src/message_queue.c **** 
 586:Source\azure_iot_sdk\iothub_client\src/message_queue.c ****             // Codes_SRS_MESSAGE_QUEUE_09_019: [`mq_item->enqueue_time` shall be set using get_time
 587:Source\azure_iot_sdk\iothub_client\src/message_queue.c ****             if ((mq_item->enqueue_time = get_time(NULL)) == INDEFINITE_TIME)
 2337              		.loc 1 587 0
 2338 006e 0020     		movs	r0, #0
 2339 0070 FFF7FEFF 		bl	get_time
 2340              	.LVL395:
 2341 0074 E060     		str	r0, [r4, #12]
ARM GAS  C:\Users\Phuong\AppData\Local\Temp\ccaRXo0w.s 			page 55


 2342 0076 431C     		adds	r3, r0, #1
 2343 0078 12D1     		bne	.L147
 2344              	.LBB51:
 588:Source\azure_iot_sdk\iothub_client\src/message_queue.c ****             {
 589:Source\azure_iot_sdk\iothub_client\src/message_queue.c ****                 // Codes_SRS_MESSAGE_QUEUE_09_020: [If get_time fails, message_queue_add shall fail
 590:Source\azure_iot_sdk\iothub_client\src/message_queue.c ****                 LogError("failed setting message enqueue time");
 2345              		.loc 1 590 0 discriminator 3
 2346 007a FFF7FEFF 		bl	xlogging_get_log_function
 2347              	.LVL396:
 2348 007e 051E     		subs	r5, r0, #0
 2349              	.LVL397:
 2350 0080 09D0     		beq	.L148
 2351              		.loc 1 590 0 is_stmt 0 discriminator 4
 2352 0082 214B     		ldr	r3, .L153+24
 2353 0084 0193     		str	r3, [sp, #4]
 2354 0086 0123     		movs	r3, #1
 2355 0088 0093     		str	r3, [sp]
 2356 008a 204B     		ldr	r3, .L153+28
 2357 008c 194A     		ldr	r2, .L153+4
 2358 008e 0C32     		adds	r2, r2, #12
 2359 0090 1949     		ldr	r1, .L153+8
 2360 0092 0020     		movs	r0, #0
 2361              	.LVL398:
 2362 0094 A847     		blx	r5
 2363              	.LVL399:
 2364              	.L148:
 2365              	.LBE51:
 591:Source\azure_iot_sdk\iothub_client\src/message_queue.c ****                 // Codes_SRS_MESSAGE_QUEUE_09_024: [If any failures occur, message_queue_add shall 
 592:Source\azure_iot_sdk\iothub_client\src/message_queue.c ****                 free(mq_item);
 2366              		.loc 1 592 0 is_stmt 1
 2367 0096 2000     		movs	r0, r4
 2368 0098 FFF7FEFF 		bl	free
 2369              	.LVL400:
 593:Source\azure_iot_sdk\iothub_client\src/message_queue.c ****                 result = __FAILURE__;
 2370              		.loc 1 593 0
 2371 009c 1C48     		ldr	r0, .L153+32
 2372 009e 25E0     		b	.L145
 2373              	.LVL401:
 2374              	.L147:
 594:Source\azure_iot_sdk\iothub_client\src/message_queue.c ****             }
 595:Source\azure_iot_sdk\iothub_client\src/message_queue.c ****             // Codes_SRS_MESSAGE_QUEUE_09_021: [`mq_item` shall be added to `message_queue->pending
 596:Source\azure_iot_sdk\iothub_client\src/message_queue.c ****             else if (singlylinkedlist_add(message_queue->pending, (const void*)mq_item) == NULL)
 2375              		.loc 1 596 0
 2376 00a0 6869     		ldr	r0, [r5, #20]
 2377 00a2 2100     		movs	r1, r4
 2378 00a4 FFF7FEFF 		bl	singlylinkedlist_add
 2379              	.LVL402:
 2380 00a8 0028     		cmp	r0, #0
 2381 00aa 12D1     		bne	.L149
 2382              	.LBB52:
 597:Source\azure_iot_sdk\iothub_client\src/message_queue.c ****             {
 598:Source\azure_iot_sdk\iothub_client\src/message_queue.c ****                 // Codes_SRS_MESSAGE_QUEUE_09_022: [`mq_item` fails to be added to `message_queue->
 599:Source\azure_iot_sdk\iothub_client\src/message_queue.c ****                 LogError("failed enqueing message");
 2383              		.loc 1 599 0 discriminator 3
 2384 00ac FFF7FEFF 		bl	xlogging_get_log_function
 2385              	.LVL403:
 2386 00b0 051E     		subs	r5, r0, #0
ARM GAS  C:\Users\Phuong\AppData\Local\Temp\ccaRXo0w.s 			page 56


 2387              	.LVL404:
 2388 00b2 09D0     		beq	.L150
 2389              		.loc 1 599 0 is_stmt 0 discriminator 4
 2390 00b4 174B     		ldr	r3, .L153+36
 2391 00b6 0193     		str	r3, [sp, #4]
 2392 00b8 0123     		movs	r3, #1
 2393 00ba 0093     		str	r3, [sp]
 2394 00bc 164B     		ldr	r3, .L153+40
 2395 00be 0D4A     		ldr	r2, .L153+4
 2396 00c0 0C32     		adds	r2, r2, #12
 2397 00c2 0D49     		ldr	r1, .L153+8
 2398 00c4 0020     		movs	r0, #0
 2399              	.LVL405:
 2400 00c6 A847     		blx	r5
 2401              	.LVL406:
 2402              	.L150:
 2403              	.LBE52:
 600:Source\azure_iot_sdk\iothub_client\src/message_queue.c ****                 // Codes_SRS_MESSAGE_QUEUE_09_024: [If any failures occur, message_queue_add shall 
 601:Source\azure_iot_sdk\iothub_client\src/message_queue.c ****                 free(mq_item);
 2404              		.loc 1 601 0 is_stmt 1
 2405 00c8 2000     		movs	r0, r4
 2406 00ca FFF7FEFF 		bl	free
 2407              	.LVL407:
 602:Source\azure_iot_sdk\iothub_client\src/message_queue.c ****                 result = __FAILURE__;
 2408              		.loc 1 602 0
 2409 00ce 1348     		ldr	r0, .L153+44
 2410 00d0 0CE0     		b	.L145
 2411              	.LVL408:
 2412              	.L149:
 603:Source\azure_iot_sdk\iothub_client\src/message_queue.c ****             }
 604:Source\azure_iot_sdk\iothub_client\src/message_queue.c ****             else
 605:Source\azure_iot_sdk\iothub_client\src/message_queue.c ****             {
 606:Source\azure_iot_sdk\iothub_client\src/message_queue.c ****                 // Codes_SRS_MESSAGE_QUEUE_09_023: [`message` shall be saved into `mq_item->message
 607:Source\azure_iot_sdk\iothub_client\src/message_queue.c ****                 mq_item->message = message;
 2413              		.loc 1 607 0
 2414 00d2 2660     		str	r6, [r4]
 608:Source\azure_iot_sdk\iothub_client\src/message_queue.c ****                 mq_item->on_message_processing_completed_callback = on_message_processing_completed
 2415              		.loc 1 608 0
 2416 00d4 6760     		str	r7, [r4, #4]
 609:Source\azure_iot_sdk\iothub_client\src/message_queue.c ****                 mq_item->user_context = user_context;
 2417              		.loc 1 609 0
 2418 00d6 059B     		ldr	r3, [sp, #20]
 2419 00d8 A360     		str	r3, [r4, #8]
 610:Source\azure_iot_sdk\iothub_client\src/message_queue.c ****                 mq_item->processing_start_time = INDEFINITE_TIME;
 2420              		.loc 1 610 0
 2421 00da 0123     		movs	r3, #1
 2422 00dc 5B42     		rsbs	r3, r3, #0
 2423 00de 2361     		str	r3, [r4, #16]
 2424              	.LVL409:
 611:Source\azure_iot_sdk\iothub_client\src/message_queue.c ****                 // Codes_SRS_MESSAGE_QUEUE_09_025: [If no failures occur, message_queue_add shall r
 612:Source\azure_iot_sdk\iothub_client\src/message_queue.c ****                 result = RESULT_OK;
 2425              		.loc 1 612 0
 2426 00e0 0020     		movs	r0, #0
 2427 00e2 03E0     		b	.L145
 2428              	.LVL410:
 2429              	.L151:
 2430              	.LBE49:
ARM GAS  C:\Users\Phuong\AppData\Local\Temp\ccaRXo0w.s 			page 57


 569:Source\azure_iot_sdk\iothub_client\src/message_queue.c ****     }
 2431              		.loc 1 569 0
 2432 00e4 0548     		ldr	r0, .L153+12
 2433              	.LVL411:
 2434 00e6 01E0     		b	.L145
 2435              	.LVL412:
 2436              	.L152:
 2437              	.LBB53:
 580:Source\azure_iot_sdk\iothub_client\src/message_queue.c ****         }
 2438              		.loc 1 580 0
 2439 00e8 9120     		movs	r0, #145
 2440              	.LVL413:
 2441 00ea 8000     		lsls	r0, r0, #2
 2442              	.LVL414:
 2443              	.L145:
 2444              	.LBE53:
 613:Source\azure_iot_sdk\iothub_client\src/message_queue.c ****             }
 614:Source\azure_iot_sdk\iothub_client\src/message_queue.c ****         }
 615:Source\azure_iot_sdk\iothub_client\src/message_queue.c ****     }
 616:Source\azure_iot_sdk\iothub_client\src/message_queue.c **** 
 617:Source\azure_iot_sdk\iothub_client\src/message_queue.c ****     return result;
 618:Source\azure_iot_sdk\iothub_client\src/message_queue.c **** }
 2445              		.loc 1 618 0
 2446 00ec 07B0     		add	sp, sp, #28
 2447              		@ sp needed
 2448              	.LVL415:
 2449              	.LVL416:
 2450 00ee F0BD     		pop	{r4, r5, r6, r7, pc}
 2451              	.L154:
 2452              		.align	2
 2453              	.L153:
 2454 00f0 70050000 		.word	.LC86
 2455 00f4 00010000 		.word	.LANCHOR2
 2456 00f8 00000000 		.word	.LC1
 2457 00fc 39020000 		.word	569
 2458 0100 A0050000 		.word	.LC88
 2459 0104 43020000 		.word	579
 2460 0108 C8050000 		.word	.LC90
 2461 010c 4E020000 		.word	590
 2462 0110 51020000 		.word	593
 2463 0114 EC050000 		.word	.LC92
 2464 0118 57020000 		.word	599
 2465 011c 5A020000 		.word	602
 2466              		.cfi_endproc
 2467              	.LFE16:
 2468              		.size	message_queue_add, .-message_queue_add
 2469              		.section	.text.message_queue_is_empty,"ax",%progbits
 2470              		.align	2
 2471              		.global	message_queue_is_empty
 2472              		.code	16
 2473              		.thumb_func
 2474              		.type	message_queue_is_empty, %function
 2475              	message_queue_is_empty:
 2476              	.LFB17:
 619:Source\azure_iot_sdk\iothub_client\src/message_queue.c **** 
 620:Source\azure_iot_sdk\iothub_client\src/message_queue.c **** int message_queue_is_empty(MESSAGE_QUEUE_HANDLE message_queue, bool* is_empty)
 621:Source\azure_iot_sdk\iothub_client\src/message_queue.c **** {
ARM GAS  C:\Users\Phuong\AppData\Local\Temp\ccaRXo0w.s 			page 58


 2477              		.loc 1 621 0
 2478              		.cfi_startproc
 2479              		@ args = 0, pretend = 0, frame = 0
 2480              		@ frame_needed = 0, uses_anonymous_args = 0
 2481              	.LVL417:
 2482 0000 70B5     		push	{r4, r5, r6, lr}
 2483              		.cfi_def_cfa_offset 16
 2484              		.cfi_offset 4, -16
 2485              		.cfi_offset 5, -12
 2486              		.cfi_offset 6, -8
 2487              		.cfi_offset 14, -4
 2488 0002 84B0     		sub	sp, sp, #16
 2489              		.cfi_def_cfa_offset 32
 2490 0004 0400     		movs	r4, r0
 2491 0006 0D00     		movs	r5, r1
 622:Source\azure_iot_sdk\iothub_client\src/message_queue.c ****     int result;
 623:Source\azure_iot_sdk\iothub_client\src/message_queue.c **** 
 624:Source\azure_iot_sdk\iothub_client\src/message_queue.c ****     // Codes_SRS_MESSAGE_QUEUE_09_030: [If `message_queue` or `is_empty` are NULL, message_queue_is
 625:Source\azure_iot_sdk\iothub_client\src/message_queue.c ****     if (message_queue == NULL || is_empty == NULL)
 2492              		.loc 1 625 0
 2493 0008 0028     		cmp	r0, #0
 2494 000a 01D0     		beq	.L156
 2495              		.loc 1 625 0 is_stmt 0 discriminator 1
 2496 000c 0029     		cmp	r1, #0
 2497 000e 12D1     		bne	.L157
 2498              	.L156:
 2499              	.LBB54:
 626:Source\azure_iot_sdk\iothub_client\src/message_queue.c ****     {
 627:Source\azure_iot_sdk\iothub_client\src/message_queue.c ****         LogError("invalid argument (message_queue=%p, is_empty=%p)", message_queue, is_empty);
 2500              		.loc 1 627 0 is_stmt 1 discriminator 3
 2501 0010 FFF7FEFF 		bl	xlogging_get_log_function
 2502              	.LVL418:
 2503 0014 061E     		subs	r6, r0, #0
 2504              	.LVL419:
 2505 0016 20D0     		beq	.L160
 2506              		.loc 1 627 0 is_stmt 0 discriminator 4
 2507 0018 0395     		str	r5, [sp, #12]
 2508 001a 0294     		str	r4, [sp, #8]
 2509 001c 114B     		ldr	r3, .L163
 2510 001e 0193     		str	r3, [sp, #4]
 2511 0020 0123     		movs	r3, #1
 2512 0022 0093     		str	r3, [sp]
 2513 0024 104B     		ldr	r3, .L163+4
 2514 0026 114A     		ldr	r2, .L163+8
 2515 0028 2032     		adds	r2, r2, #32
 2516 002a 1149     		ldr	r1, .L163+12
 2517 002c 0020     		movs	r0, #0
 2518              	.LVL420:
 2519 002e B047     		blx	r6
 2520              	.LVL421:
 2521              	.LBE54:
 628:Source\azure_iot_sdk\iothub_client\src/message_queue.c ****         result = __FAILURE__;
 2522              		.loc 1 628 0 is_stmt 1 discriminator 4
 2523 0030 9D20     		movs	r0, #157
 2524 0032 8000     		lsls	r0, r0, #2
 2525 0034 13E0     		b	.L158
 2526              	.LVL422:
ARM GAS  C:\Users\Phuong\AppData\Local\Temp\ccaRXo0w.s 			page 59


 2527              	.L157:
 629:Source\azure_iot_sdk\iothub_client\src/message_queue.c ****     }
 630:Source\azure_iot_sdk\iothub_client\src/message_queue.c ****     else
 631:Source\azure_iot_sdk\iothub_client\src/message_queue.c ****     {
 632:Source\azure_iot_sdk\iothub_client\src/message_queue.c ****         // Codes_SRS_MESSAGE_QUEUE_09_031: [If `message_queue->pending` and `message_queue->in_prog
 633:Source\azure_iot_sdk\iothub_client\src/message_queue.c ****         // Codes_SRS_MESSAGE_QUEUE_09_032: [Otherwise `is_empty` shall be set to false]
 634:Source\azure_iot_sdk\iothub_client\src/message_queue.c ****         *is_empty = (singlylinkedlist_get_head_item(message_queue->pending) == NULL && singlylinked
 2528              		.loc 1 634 0
 2529 0036 4069     		ldr	r0, [r0, #20]
 2530              	.LVL423:
 2531 0038 FFF7FEFF 		bl	singlylinkedlist_get_head_item
 2532              	.LVL424:
 2533 003c 0028     		cmp	r0, #0
 2534 003e 06D1     		bne	.L161
 2535              		.loc 1 634 0 is_stmt 0 discriminator 1
 2536 0040 A069     		ldr	r0, [r4, #24]
 2537 0042 FFF7FEFF 		bl	singlylinkedlist_get_head_item
 2538              	.LVL425:
 2539 0046 0028     		cmp	r0, #0
 2540 0048 03D1     		bne	.L162
 2541              		.loc 1 634 0
 2542 004a 0123     		movs	r3, #1
 2543 004c 02E0     		b	.L159
 2544              	.L161:
 2545 004e 0023     		movs	r3, #0
 2546 0050 00E0     		b	.L159
 2547              	.L162:
 2548 0052 0023     		movs	r3, #0
 2549              	.L159:
 2550              		.loc 1 634 0 discriminator 6
 2551 0054 2B70     		strb	r3, [r5]
 2552              	.LVL426:
 635:Source\azure_iot_sdk\iothub_client\src/message_queue.c ****         // Codes_SRS_MESSAGE_QUEUE_09_033: [If no failures occur, message_queue_is_empty shall retu
 636:Source\azure_iot_sdk\iothub_client\src/message_queue.c ****         result = RESULT_OK;
 2553              		.loc 1 636 0 is_stmt 1 discriminator 6
 2554 0056 0020     		movs	r0, #0
 2555 0058 01E0     		b	.L158
 2556              	.LVL427:
 2557              	.L160:
 628:Source\azure_iot_sdk\iothub_client\src/message_queue.c ****     }
 2558              		.loc 1 628 0
 2559 005a 9D20     		movs	r0, #157
 2560              	.LVL428:
 2561 005c 8000     		lsls	r0, r0, #2
 2562              	.LVL429:
 2563              	.L158:
 637:Source\azure_iot_sdk\iothub_client\src/message_queue.c ****     }
 638:Source\azure_iot_sdk\iothub_client\src/message_queue.c **** 
 639:Source\azure_iot_sdk\iothub_client\src/message_queue.c ****     return result;
 640:Source\azure_iot_sdk\iothub_client\src/message_queue.c **** }
 2564              		.loc 1 640 0
 2565 005e 04B0     		add	sp, sp, #16
 2566              		@ sp needed
 2567              	.LVL430:
 2568              	.LVL431:
 2569 0060 70BD     		pop	{r4, r5, r6, pc}
 2570              	.L164:
ARM GAS  C:\Users\Phuong\AppData\Local\Temp\ccaRXo0w.s 			page 60


 2571 0062 C046     		.align	2
 2572              	.L163:
 2573 0064 04060000 		.word	.LC96
 2574 0068 73020000 		.word	627
 2575 006c 00010000 		.word	.LANCHOR2
 2576 0070 00000000 		.word	.LC1
 2577              		.cfi_endproc
 2578              	.LFE17:
 2579              		.size	message_queue_is_empty, .-message_queue_is_empty
 2580              		.section	.text.message_queue_do_work,"ax",%progbits
 2581              		.align	2
 2582              		.global	message_queue_do_work
 2583              		.code	16
 2584              		.thumb_func
 2585              		.type	message_queue_do_work, %function
 2586              	message_queue_do_work:
 2587              	.LFB18:
 641:Source\azure_iot_sdk\iothub_client\src/message_queue.c **** 
 642:Source\azure_iot_sdk\iothub_client\src/message_queue.c **** void message_queue_do_work(MESSAGE_QUEUE_HANDLE message_queue)
 643:Source\azure_iot_sdk\iothub_client\src/message_queue.c **** {
 2588              		.loc 1 643 0
 2589              		.cfi_startproc
 2590              		@ args = 0, pretend = 0, frame = 0
 2591              		@ frame_needed = 0, uses_anonymous_args = 0
 2592              	.LVL432:
 2593 0000 10B5     		push	{r4, lr}
 2594              		.cfi_def_cfa_offset 8
 2595              		.cfi_offset 4, -8
 2596              		.cfi_offset 14, -4
 2597 0002 041E     		subs	r4, r0, #0
 644:Source\azure_iot_sdk\iothub_client\src/message_queue.c ****     // Codes_SRS_MESSAGE_QUEUE_09_034: [If `message_queue` is NULL, message_queue_do_work shall ret
 645:Source\azure_iot_sdk\iothub_client\src/message_queue.c ****     if (message_queue != NULL)
 2598              		.loc 1 645 0
 2599 0004 04D0     		beq	.L165
 646:Source\azure_iot_sdk\iothub_client\src/message_queue.c ****     {
 647:Source\azure_iot_sdk\iothub_client\src/message_queue.c ****         process_timeouts(message_queue);
 2600              		.loc 1 647 0
 2601 0006 FFF7FEFF 		bl	process_timeouts
 2602              	.LVL433:
 648:Source\azure_iot_sdk\iothub_client\src/message_queue.c ****         process_pending_messages(message_queue);
 2603              		.loc 1 648 0
 2604 000a 2000     		movs	r0, r4
 2605 000c FFF7FEFF 		bl	process_pending_messages
 2606              	.LVL434:
 2607              	.L165:
 649:Source\azure_iot_sdk\iothub_client\src/message_queue.c ****     }
 650:Source\azure_iot_sdk\iothub_client\src/message_queue.c **** }
 2608              		.loc 1 650 0
 2609              		@ sp needed
 2610              	.LVL435:
 2611 0010 10BD     		pop	{r4, pc}
 2612              		.cfi_endproc
 2613              	.LFE18:
 2614              		.size	message_queue_do_work, .-message_queue_do_work
 2615 0012 C046     		.section	.text.message_queue_set_max_message_enqueued_time_secs,"ax",%progbits
 2616              		.align	2
 2617              		.global	message_queue_set_max_message_enqueued_time_secs
ARM GAS  C:\Users\Phuong\AppData\Local\Temp\ccaRXo0w.s 			page 61


 2618              		.code	16
 2619              		.thumb_func
 2620              		.type	message_queue_set_max_message_enqueued_time_secs, %function
 2621              	message_queue_set_max_message_enqueued_time_secs:
 2622              	.LFB19:
 651:Source\azure_iot_sdk\iothub_client\src/message_queue.c **** 
 652:Source\azure_iot_sdk\iothub_client\src/message_queue.c **** int message_queue_set_max_message_enqueued_time_secs(MESSAGE_QUEUE_HANDLE message_queue, size_t sec
 653:Source\azure_iot_sdk\iothub_client\src/message_queue.c **** {
 2623              		.loc 1 653 0
 2624              		.cfi_startproc
 2625              		@ args = 0, pretend = 0, frame = 0
 2626              		@ frame_needed = 0, uses_anonymous_args = 0
 2627              	.LVL436:
 2628 0000 10B5     		push	{r4, lr}
 2629              		.cfi_def_cfa_offset 8
 2630              		.cfi_offset 4, -8
 2631              		.cfi_offset 14, -4
 2632 0002 82B0     		sub	sp, sp, #8
 2633              		.cfi_def_cfa_offset 16
 654:Source\azure_iot_sdk\iothub_client\src/message_queue.c ****     int result;
 655:Source\azure_iot_sdk\iothub_client\src/message_queue.c **** 
 656:Source\azure_iot_sdk\iothub_client\src/message_queue.c ****     // Codes_SRS_MESSAGE_QUEUE_09_051: [If `message_queue` is NULL, message_queue_set_max_message_e
 657:Source\azure_iot_sdk\iothub_client\src/message_queue.c ****     if (message_queue == NULL)
 2634              		.loc 1 657 0
 2635 0004 0028     		cmp	r0, #0
 2636 0006 10D1     		bne	.L168
 2637              	.LBB55:
 658:Source\azure_iot_sdk\iothub_client\src/message_queue.c ****     {
 659:Source\azure_iot_sdk\iothub_client\src/message_queue.c ****         LogError("invalid argument (message_queue is NULL)");
 2638              		.loc 1 659 0 discriminator 3
 2639 0008 FFF7FEFF 		bl	xlogging_get_log_function
 2640              	.LVL437:
 2641 000c 041E     		subs	r4, r0, #0
 2642              	.LVL438:
 2643 000e 0FD0     		beq	.L170
 2644              		.loc 1 659 0 is_stmt 0 discriminator 4
 2645 0010 094B     		ldr	r3, .L171
 2646 0012 0193     		str	r3, [sp, #4]
 2647 0014 0123     		movs	r3, #1
 2648 0016 0093     		str	r3, [sp]
 2649 0018 084B     		ldr	r3, .L171+4
 2650 001a 094A     		ldr	r2, .L171+8
 2651 001c 3832     		adds	r2, r2, #56
 2652 001e 0949     		ldr	r1, .L171+12
 2653 0020 0020     		movs	r0, #0
 2654              	.LVL439:
 2655 0022 A047     		blx	r4
 2656              	.LVL440:
 2657              	.LBE55:
 660:Source\azure_iot_sdk\iothub_client\src/message_queue.c ****         result = __FAILURE__;
 2658              		.loc 1 660 0 is_stmt 1 discriminator 4
 2659 0024 A520     		movs	r0, #165
 2660 0026 8000     		lsls	r0, r0, #2
 2661 0028 04E0     		b	.L169
 2662              	.LVL441:
 2663              	.L168:
 661:Source\azure_iot_sdk\iothub_client\src/message_queue.c ****     }
ARM GAS  C:\Users\Phuong\AppData\Local\Temp\ccaRXo0w.s 			page 62


 662:Source\azure_iot_sdk\iothub_client\src/message_queue.c ****     else
 663:Source\azure_iot_sdk\iothub_client\src/message_queue.c ****     {
 664:Source\azure_iot_sdk\iothub_client\src/message_queue.c ****         // Codes_SRS_MESSAGE_QUEUE_09_053: [`seconds` shall be saved into `message_queue->max_messa
 665:Source\azure_iot_sdk\iothub_client\src/message_queue.c ****         message_queue->max_message_enqueued_time_secs = seconds;
 2664              		.loc 1 665 0
 2665 002a 0160     		str	r1, [r0]
 2666              	.LVL442:
 666:Source\azure_iot_sdk\iothub_client\src/message_queue.c ****         // Codes_SRS_MESSAGE_QUEUE_09_054: [If no failures occur, message_queue_set_max_message_enq
 667:Source\azure_iot_sdk\iothub_client\src/message_queue.c ****         result = RESULT_OK;
 2667              		.loc 1 667 0
 2668 002c 0020     		movs	r0, #0
 2669              	.LVL443:
 2670 002e 01E0     		b	.L169
 2671              	.LVL444:
 2672              	.L170:
 660:Source\azure_iot_sdk\iothub_client\src/message_queue.c ****     }
 2673              		.loc 1 660 0
 2674 0030 A520     		movs	r0, #165
 2675              	.LVL445:
 2676 0032 8000     		lsls	r0, r0, #2
 2677              	.LVL446:
 2678              	.L169:
 668:Source\azure_iot_sdk\iothub_client\src/message_queue.c ****     }
 669:Source\azure_iot_sdk\iothub_client\src/message_queue.c **** 
 670:Source\azure_iot_sdk\iothub_client\src/message_queue.c ****     return result;
 671:Source\azure_iot_sdk\iothub_client\src/message_queue.c **** }
 2679              		.loc 1 671 0
 2680 0034 02B0     		add	sp, sp, #8
 2681              		@ sp needed
 2682 0036 10BD     		pop	{r4, pc}
 2683              	.L172:
 2684              		.align	2
 2685              	.L171:
 2686 0038 E0030000 		.word	.LC64
 2687 003c 93020000 		.word	659
 2688 0040 00010000 		.word	.LANCHOR2
 2689 0044 00000000 		.word	.LC1
 2690              		.cfi_endproc
 2691              	.LFE19:
 2692              		.size	message_queue_set_max_message_enqueued_time_secs, .-message_queue_set_max_message_enqueued_t
 2693              		.section	.text.message_queue_set_max_message_processing_time_secs,"ax",%progbits
 2694              		.align	2
 2695              		.global	message_queue_set_max_message_processing_time_secs
 2696              		.code	16
 2697              		.thumb_func
 2698              		.type	message_queue_set_max_message_processing_time_secs, %function
 2699              	message_queue_set_max_message_processing_time_secs:
 2700              	.LFB20:
 672:Source\azure_iot_sdk\iothub_client\src/message_queue.c **** 
 673:Source\azure_iot_sdk\iothub_client\src/message_queue.c **** int message_queue_set_max_message_processing_time_secs(MESSAGE_QUEUE_HANDLE message_queue, size_t s
 674:Source\azure_iot_sdk\iothub_client\src/message_queue.c **** {
 2701              		.loc 1 674 0
 2702              		.cfi_startproc
 2703              		@ args = 0, pretend = 0, frame = 0
 2704              		@ frame_needed = 0, uses_anonymous_args = 0
 2705              	.LVL447:
 2706 0000 10B5     		push	{r4, lr}
ARM GAS  C:\Users\Phuong\AppData\Local\Temp\ccaRXo0w.s 			page 63


 2707              		.cfi_def_cfa_offset 8
 2708              		.cfi_offset 4, -8
 2709              		.cfi_offset 14, -4
 2710 0002 82B0     		sub	sp, sp, #8
 2711              		.cfi_def_cfa_offset 16
 675:Source\azure_iot_sdk\iothub_client\src/message_queue.c ****     int result;
 676:Source\azure_iot_sdk\iothub_client\src/message_queue.c **** 
 677:Source\azure_iot_sdk\iothub_client\src/message_queue.c ****     // Codes_SRS_MESSAGE_QUEUE_09_055: [If `message_queue` is NULL, message_queue_set_max_message_p
 678:Source\azure_iot_sdk\iothub_client\src/message_queue.c ****     if (message_queue == NULL)
 2712              		.loc 1 678 0
 2713 0004 0028     		cmp	r0, #0
 2714 0006 10D1     		bne	.L174
 2715              	.LBB56:
 679:Source\azure_iot_sdk\iothub_client\src/message_queue.c ****     {
 680:Source\azure_iot_sdk\iothub_client\src/message_queue.c ****         LogError("invalid argument (message_queue is NULL)");
 2716              		.loc 1 680 0 discriminator 3
 2717 0008 FFF7FEFF 		bl	xlogging_get_log_function
 2718              	.LVL448:
 2719 000c 041E     		subs	r4, r0, #0
 2720              	.LVL449:
 2721 000e 0FD0     		beq	.L176
 2722              		.loc 1 680 0 is_stmt 0 discriminator 4
 2723 0010 094B     		ldr	r3, .L177
 2724 0012 0193     		str	r3, [sp, #4]
 2725 0014 0123     		movs	r3, #1
 2726 0016 0093     		str	r3, [sp]
 2727 0018 AA23     		movs	r3, #170
 2728 001a 9B00     		lsls	r3, r3, #2
 2729 001c 074A     		ldr	r2, .L177+4
 2730 001e 6C32     		adds	r2, r2, #108
 2731 0020 0749     		ldr	r1, .L177+8
 2732 0022 0020     		movs	r0, #0
 2733              	.LVL450:
 2734 0024 A047     		blx	r4
 2735              	.LVL451:
 2736              	.LBE56:
 681:Source\azure_iot_sdk\iothub_client\src/message_queue.c ****         result = __FAILURE__;
 2737              		.loc 1 681 0 is_stmt 1 discriminator 4
 2738 0026 0748     		ldr	r0, .L177+12
 2739 0028 03E0     		b	.L175
 2740              	.LVL452:
 2741              	.L174:
 682:Source\azure_iot_sdk\iothub_client\src/message_queue.c ****     }
 683:Source\azure_iot_sdk\iothub_client\src/message_queue.c ****     else
 684:Source\azure_iot_sdk\iothub_client\src/message_queue.c ****     {
 685:Source\azure_iot_sdk\iothub_client\src/message_queue.c ****         // Codes_SRS_MESSAGE_QUEUE_09_057: [`seconds` shall be saved into `message_queue->max_messa
 686:Source\azure_iot_sdk\iothub_client\src/message_queue.c ****         message_queue->max_message_processing_time_secs = seconds;
 2742              		.loc 1 686 0
 2743 002a 4160     		str	r1, [r0, #4]
 2744              	.LVL453:
 687:Source\azure_iot_sdk\iothub_client\src/message_queue.c ****         // Codes_SRS_MESSAGE_QUEUE_09_058: [If no failures occur, message_queue_set_max_message_pro
 688:Source\azure_iot_sdk\iothub_client\src/message_queue.c ****         result = RESULT_OK;
 2745              		.loc 1 688 0
 2746 002c 0020     		movs	r0, #0
 2747              	.LVL454:
 2748 002e 00E0     		b	.L175
 2749              	.LVL455:
ARM GAS  C:\Users\Phuong\AppData\Local\Temp\ccaRXo0w.s 			page 64


 2750              	.L176:
 681:Source\azure_iot_sdk\iothub_client\src/message_queue.c ****     }
 2751              		.loc 1 681 0
 2752 0030 0448     		ldr	r0, .L177+12
 2753              	.LVL456:
 2754              	.L175:
 689:Source\azure_iot_sdk\iothub_client\src/message_queue.c ****     }
 690:Source\azure_iot_sdk\iothub_client\src/message_queue.c **** 
 691:Source\azure_iot_sdk\iothub_client\src/message_queue.c ****     return result;
 692:Source\azure_iot_sdk\iothub_client\src/message_queue.c **** }
 2755              		.loc 1 692 0
 2756 0032 02B0     		add	sp, sp, #8
 2757              		@ sp needed
 2758 0034 10BD     		pop	{r4, pc}
 2759              	.L178:
 2760 0036 C046     		.align	2
 2761              	.L177:
 2762 0038 E0030000 		.word	.LC64
 2763 003c 00010000 		.word	.LANCHOR2
 2764 0040 00000000 		.word	.LC1
 2765 0044 A9020000 		.word	681
 2766              		.cfi_endproc
 2767              	.LFE20:
 2768              		.size	message_queue_set_max_message_processing_time_secs, .-message_queue_set_max_message_processi
 2769              		.section	.text.message_queue_set_max_retry_count,"ax",%progbits
 2770              		.align	2
 2771              		.global	message_queue_set_max_retry_count
 2772              		.code	16
 2773              		.thumb_func
 2774              		.type	message_queue_set_max_retry_count, %function
 2775              	message_queue_set_max_retry_count:
 2776              	.LFB21:
 693:Source\azure_iot_sdk\iothub_client\src/message_queue.c **** 
 694:Source\azure_iot_sdk\iothub_client\src/message_queue.c **** int message_queue_set_max_retry_count(MESSAGE_QUEUE_HANDLE message_queue, size_t max_retry_count)
 695:Source\azure_iot_sdk\iothub_client\src/message_queue.c **** {
 2777              		.loc 1 695 0
 2778              		.cfi_startproc
 2779              		@ args = 0, pretend = 0, frame = 0
 2780              		@ frame_needed = 0, uses_anonymous_args = 0
 2781              	.LVL457:
 2782 0000 10B5     		push	{r4, lr}
 2783              		.cfi_def_cfa_offset 8
 2784              		.cfi_offset 4, -8
 2785              		.cfi_offset 14, -4
 2786 0002 82B0     		sub	sp, sp, #8
 2787              		.cfi_def_cfa_offset 16
 696:Source\azure_iot_sdk\iothub_client\src/message_queue.c ****     int result;
 697:Source\azure_iot_sdk\iothub_client\src/message_queue.c **** 
 698:Source\azure_iot_sdk\iothub_client\src/message_queue.c ****     // Codes_SRS_MESSAGE_QUEUE_09_059: [If `message_queue` is NULL, message_queue_set_max_retry_cou
 699:Source\azure_iot_sdk\iothub_client\src/message_queue.c ****     if (message_queue == NULL)
 2788              		.loc 1 699 0
 2789 0004 0028     		cmp	r0, #0
 2790 0006 0FD1     		bne	.L180
 2791              	.LBB57:
 700:Source\azure_iot_sdk\iothub_client\src/message_queue.c ****     {
 701:Source\azure_iot_sdk\iothub_client\src/message_queue.c ****         LogError("invalid argument (message_queue is NULL)");
 2792              		.loc 1 701 0 discriminator 3
ARM GAS  C:\Users\Phuong\AppData\Local\Temp\ccaRXo0w.s 			page 65


 2793 0008 FFF7FEFF 		bl	xlogging_get_log_function
 2794              	.LVL458:
 2795 000c 041E     		subs	r4, r0, #0
 2796              	.LVL459:
 2797 000e 0ED0     		beq	.L182
 2798              		.loc 1 701 0 is_stmt 0 discriminator 4
 2799 0010 084B     		ldr	r3, .L183
 2800 0012 0193     		str	r3, [sp, #4]
 2801 0014 0123     		movs	r3, #1
 2802 0016 0093     		str	r3, [sp]
 2803 0018 074B     		ldr	r3, .L183+4
 2804 001a 084A     		ldr	r2, .L183+8
 2805 001c 2032     		adds	r2, r2, #32
 2806 001e 0849     		ldr	r1, .L183+12
 2807 0020 0020     		movs	r0, #0
 2808              	.LVL460:
 2809 0022 A047     		blx	r4
 2810              	.LVL461:
 2811              	.LBE57:
 702:Source\azure_iot_sdk\iothub_client\src/message_queue.c ****         result = __FAILURE__;
 2812              		.loc 1 702 0 is_stmt 1 discriminator 4
 2813 0024 0748     		ldr	r0, .L183+16
 2814 0026 03E0     		b	.L181
 2815              	.LVL462:
 2816              	.L180:
 703:Source\azure_iot_sdk\iothub_client\src/message_queue.c ****     }
 704:Source\azure_iot_sdk\iothub_client\src/message_queue.c ****     else
 705:Source\azure_iot_sdk\iothub_client\src/message_queue.c ****     {
 706:Source\azure_iot_sdk\iothub_client\src/message_queue.c ****         // Codes_SRS_MESSAGE_QUEUE_09_061: [If no failures occur, message_queue_set_max_retry_count
 707:Source\azure_iot_sdk\iothub_client\src/message_queue.c ****         message_queue->max_retry_count = max_retry_count;
 2817              		.loc 1 707 0
 2818 0028 8160     		str	r1, [r0, #8]
 2819              	.LVL463:
 708:Source\azure_iot_sdk\iothub_client\src/message_queue.c ****         // Codes_SRS_MESSAGE_QUEUE_09_060: [`max_retry_count` shall be saved into `message_queue->m
 709:Source\azure_iot_sdk\iothub_client\src/message_queue.c ****         result = RESULT_OK;
 2820              		.loc 1 709 0
 2821 002a 0020     		movs	r0, #0
 2822              	.LVL464:
 2823 002c 00E0     		b	.L181
 2824              	.LVL465:
 2825              	.L182:
 702:Source\azure_iot_sdk\iothub_client\src/message_queue.c ****     }
 2826              		.loc 1 702 0
 2827 002e 0548     		ldr	r0, .L183+16
 2828              	.LVL466:
 2829              	.L181:
 710:Source\azure_iot_sdk\iothub_client\src/message_queue.c ****     }
 711:Source\azure_iot_sdk\iothub_client\src/message_queue.c **** 
 712:Source\azure_iot_sdk\iothub_client\src/message_queue.c ****     return result;
 713:Source\azure_iot_sdk\iothub_client\src/message_queue.c **** }
 2830              		.loc 1 713 0
 2831 0030 02B0     		add	sp, sp, #8
 2832              		@ sp needed
 2833 0032 10BD     		pop	{r4, pc}
 2834              	.L184:
 2835              		.align	2
 2836              	.L183:
ARM GAS  C:\Users\Phuong\AppData\Local\Temp\ccaRXo0w.s 			page 66


 2837 0034 E0030000 		.word	.LC64
 2838 0038 BD020000 		.word	701
 2839 003c 80010000 		.word	.LANCHOR3
 2840 0040 00000000 		.word	.LC1
 2841 0044 BE020000 		.word	702
 2842              		.cfi_endproc
 2843              	.LFE21:
 2844              		.size	message_queue_set_max_retry_count, .-message_queue_set_max_retry_count
 2845              		.section	.text.setOption,"ax",%progbits
 2846              		.align	2
 2847              		.code	16
 2848              		.thumb_func
 2849              		.type	setOption, %function
 2850              	setOption:
 2851              	.LFB22:
 714:Source\azure_iot_sdk\iothub_client\src/message_queue.c **** 
 715:Source\azure_iot_sdk\iothub_client\src/message_queue.c **** static int setOption(void* handle, const char* name, const void* value)
 716:Source\azure_iot_sdk\iothub_client\src/message_queue.c **** {
 2852              		.loc 1 716 0
 2853              		.cfi_startproc
 2854              		@ args = 0, pretend = 0, frame = 0
 2855              		@ frame_needed = 0, uses_anonymous_args = 0
 2856              	.LVL467:
 2857 0000 F0B5     		push	{r4, r5, r6, r7, lr}
 2858              		.cfi_def_cfa_offset 20
 2859              		.cfi_offset 4, -20
 2860              		.cfi_offset 5, -16
 2861              		.cfi_offset 6, -12
 2862              		.cfi_offset 7, -8
 2863              		.cfi_offset 14, -4
 2864 0002 87B0     		sub	sp, sp, #28
 2865              		.cfi_def_cfa_offset 48
 2866 0004 0500     		movs	r5, r0
 2867 0006 0C00     		movs	r4, r1
 2868 0008 1600     		movs	r6, r2
 717:Source\azure_iot_sdk\iothub_client\src/message_queue.c ****     int result;
 718:Source\azure_iot_sdk\iothub_client\src/message_queue.c **** 
 719:Source\azure_iot_sdk\iothub_client\src/message_queue.c ****     if (handle == NULL || name == NULL || value == NULL)
 2869              		.loc 1 719 0
 2870 000a 0028     		cmp	r0, #0
 2871 000c 03D0     		beq	.L186
 2872              		.loc 1 719 0 is_stmt 0 discriminator 1
 2873 000e 0029     		cmp	r1, #0
 2874 0010 01D0     		beq	.L186
 2875              		.loc 1 719 0 discriminator 2
 2876 0012 002A     		cmp	r2, #0
 2877 0014 12D1     		bne	.L187
 2878              	.L186:
 2879              	.LBB58:
 720:Source\azure_iot_sdk\iothub_client\src/message_queue.c ****     {
 721:Source\azure_iot_sdk\iothub_client\src/message_queue.c ****         LogError("invalid argument (handle=%p, name=%p, value=%p)", handle, name, value);
 2880              		.loc 1 721 0 is_stmt 1 discriminator 3
 2881 0016 FFF7FEFF 		bl	xlogging_get_log_function
 2882              	.LVL468:
 2883 001a 071E     		subs	r7, r0, #0
 2884              	.LVL469:
 2885 001c 78D0     		beq	.L192
ARM GAS  C:\Users\Phuong\AppData\Local\Temp\ccaRXo0w.s 			page 67


 2886              		.loc 1 721 0 is_stmt 0 discriminator 4
 2887 001e 0496     		str	r6, [sp, #16]
 2888 0020 0394     		str	r4, [sp, #12]
 2889 0022 0295     		str	r5, [sp, #8]
 2890 0024 434B     		ldr	r3, .L200
 2891 0026 0193     		str	r3, [sp, #4]
 2892 0028 0123     		movs	r3, #1
 2893 002a 0093     		str	r3, [sp]
 2894 002c 424B     		ldr	r3, .L200+4
 2895 002e 434A     		ldr	r2, .L200+8
 2896 0030 4432     		adds	r2, r2, #68
 2897 0032 4349     		ldr	r1, .L200+12
 2898 0034 0020     		movs	r0, #0
 2899              	.LVL470:
 2900 0036 B847     		blx	r7
 2901              	.LVL471:
 2902              	.LBE58:
 722:Source\azure_iot_sdk\iothub_client\src/message_queue.c ****         result = __FAILURE__;
 2903              		.loc 1 722 0 is_stmt 1 discriminator 4
 2904 0038 4248     		ldr	r0, .L200+16
 2905 003a 78E0     		b	.L188
 2906              	.LVL472:
 2907              	.L187:
 723:Source\azure_iot_sdk\iothub_client\src/message_queue.c ****     }
 724:Source\azure_iot_sdk\iothub_client\src/message_queue.c ****     else if (strcmp(SAVED_OPTION_MAX_ENQUEUE_TIME_SECS, name) == 0)
 2908              		.loc 1 724 0
 2909 003c 4248     		ldr	r0, .L200+20
 2910              	.LVL473:
 2911 003e FFF7FEFF 		bl	strcmp
 2912              	.LVL474:
 2913 0042 0028     		cmp	r0, #0
 2914 0044 17D1     		bne	.L189
 725:Source\azure_iot_sdk\iothub_client\src/message_queue.c ****     {
 726:Source\azure_iot_sdk\iothub_client\src/message_queue.c ****         if (message_queue_set_max_message_enqueued_time_secs((MESSAGE_QUEUE_HANDLE)handle, *(size_t
 2915              		.loc 1 726 0
 2916 0046 3168     		ldr	r1, [r6]
 2917 0048 2800     		movs	r0, r5
 2918 004a FFF7FEFF 		bl	message_queue_set_max_message_enqueued_time_secs
 2919              	.LVL475:
 2920 004e 0028     		cmp	r0, #0
 2921 0050 60D0     		beq	.L193
 2922              	.LBB59:
 727:Source\azure_iot_sdk\iothub_client\src/message_queue.c ****         {
 728:Source\azure_iot_sdk\iothub_client\src/message_queue.c ****             LogError("failed setting option %s", name);
 2923              		.loc 1 728 0 discriminator 3
 2924 0052 FFF7FEFF 		bl	xlogging_get_log_function
 2925              	.LVL476:
 2926 0056 051E     		subs	r5, r0, #0
 2927              	.LVL477:
 2928 0058 5ED0     		beq	.L194
 2929              		.loc 1 728 0 is_stmt 0 discriminator 4
 2930 005a 0294     		str	r4, [sp, #8]
 2931 005c 3B4B     		ldr	r3, .L200+24
 2932 005e 0193     		str	r3, [sp, #4]
 2933 0060 0123     		movs	r3, #1
 2934 0062 0093     		str	r3, [sp]
 2935 0064 B623     		movs	r3, #182
ARM GAS  C:\Users\Phuong\AppData\Local\Temp\ccaRXo0w.s 			page 68


 2936 0066 9B00     		lsls	r3, r3, #2
 2937 0068 344A     		ldr	r2, .L200+8
 2938 006a 4432     		adds	r2, r2, #68
 2939 006c 3449     		ldr	r1, .L200+12
 2940 006e 0020     		movs	r0, #0
 2941              	.LVL478:
 2942 0070 A847     		blx	r5
 2943              	.LVL479:
 2944              	.LBE59:
 729:Source\azure_iot_sdk\iothub_client\src/message_queue.c ****             result = __FAILURE__;
 2945              		.loc 1 729 0 is_stmt 1 discriminator 4
 2946 0072 3748     		ldr	r0, .L200+28
 2947 0074 5BE0     		b	.L188
 2948              	.LVL480:
 2949              	.L189:
 730:Source\azure_iot_sdk\iothub_client\src/message_queue.c ****         }
 731:Source\azure_iot_sdk\iothub_client\src/message_queue.c ****         else
 732:Source\azure_iot_sdk\iothub_client\src/message_queue.c ****         {
 733:Source\azure_iot_sdk\iothub_client\src/message_queue.c ****             result = RESULT_OK;
 734:Source\azure_iot_sdk\iothub_client\src/message_queue.c ****         }
 735:Source\azure_iot_sdk\iothub_client\src/message_queue.c ****     }
 736:Source\azure_iot_sdk\iothub_client\src/message_queue.c ****     else if (strcmp(SAVED_OPTION_MAX_PROCESSING_TIME_SECS, name) == 0)
 2950              		.loc 1 736 0
 2951 0076 2100     		movs	r1, r4
 2952 0078 3648     		ldr	r0, .L200+32
 2953 007a FFF7FEFF 		bl	strcmp
 2954              	.LVL481:
 2955 007e 0028     		cmp	r0, #0
 2956 0080 17D1     		bne	.L190
 737:Source\azure_iot_sdk\iothub_client\src/message_queue.c ****     {
 738:Source\azure_iot_sdk\iothub_client\src/message_queue.c ****         if (message_queue_set_max_message_processing_time_secs((MESSAGE_QUEUE_HANDLE)handle, *(size
 2957              		.loc 1 738 0
 2958 0082 3168     		ldr	r1, [r6]
 2959 0084 2800     		movs	r0, r5
 2960 0086 FFF7FEFF 		bl	message_queue_set_max_message_processing_time_secs
 2961              	.LVL482:
 2962 008a 0028     		cmp	r0, #0
 2963 008c 46D0     		beq	.L195
 2964              	.LBB60:
 739:Source\azure_iot_sdk\iothub_client\src/message_queue.c ****         {
 740:Source\azure_iot_sdk\iothub_client\src/message_queue.c ****             LogError("failed setting option %s", name);
 2965              		.loc 1 740 0 discriminator 3
 2966 008e FFF7FEFF 		bl	xlogging_get_log_function
 2967              	.LVL483:
 2968 0092 051E     		subs	r5, r0, #0
 2969              	.LVL484:
 2970 0094 44D0     		beq	.L196
 2971              		.loc 1 740 0 is_stmt 0 discriminator 4
 2972 0096 0294     		str	r4, [sp, #8]
 2973 0098 2C4B     		ldr	r3, .L200+24
 2974 009a 0193     		str	r3, [sp, #4]
 2975 009c 0123     		movs	r3, #1
 2976 009e 0093     		str	r3, [sp]
 2977 00a0 B923     		movs	r3, #185
 2978 00a2 9B00     		lsls	r3, r3, #2
 2979 00a4 254A     		ldr	r2, .L200+8
 2980 00a6 4432     		adds	r2, r2, #68
ARM GAS  C:\Users\Phuong\AppData\Local\Temp\ccaRXo0w.s 			page 69


 2981 00a8 2549     		ldr	r1, .L200+12
 2982 00aa 0020     		movs	r0, #0
 2983              	.LVL485:
 2984 00ac A847     		blx	r5
 2985              	.LVL486:
 2986              	.LBE60:
 741:Source\azure_iot_sdk\iothub_client\src/message_queue.c ****             result = __FAILURE__;
 2987              		.loc 1 741 0 is_stmt 1 discriminator 4
 2988 00ae 2A48     		ldr	r0, .L200+36
 2989 00b0 3DE0     		b	.L188
 2990              	.LVL487:
 2991              	.L190:
 742:Source\azure_iot_sdk\iothub_client\src/message_queue.c ****         }
 743:Source\azure_iot_sdk\iothub_client\src/message_queue.c ****         else
 744:Source\azure_iot_sdk\iothub_client\src/message_queue.c ****         {
 745:Source\azure_iot_sdk\iothub_client\src/message_queue.c ****             result = RESULT_OK;
 746:Source\azure_iot_sdk\iothub_client\src/message_queue.c ****         }
 747:Source\azure_iot_sdk\iothub_client\src/message_queue.c ****     }
 748:Source\azure_iot_sdk\iothub_client\src/message_queue.c ****     else if (strcmp(SAVED_OPTION_MAX_RETRY_COUNT, name) == 0)
 2992              		.loc 1 748 0
 2993 00b2 2100     		movs	r1, r4
 2994 00b4 2948     		ldr	r0, .L200+40
 2995 00b6 FFF7FEFF 		bl	strcmp
 2996              	.LVL488:
 2997 00ba 0028     		cmp	r0, #0
 2998 00bc 17D1     		bne	.L191
 749:Source\azure_iot_sdk\iothub_client\src/message_queue.c ****     {
 750:Source\azure_iot_sdk\iothub_client\src/message_queue.c ****         if (message_queue_set_max_retry_count((MESSAGE_QUEUE_HANDLE)handle, *(size_t*)value) != RES
 2999              		.loc 1 750 0
 3000 00be 3168     		ldr	r1, [r6]
 3001 00c0 2800     		movs	r0, r5
 3002 00c2 FFF7FEFF 		bl	message_queue_set_max_retry_count
 3003              	.LVL489:
 3004 00c6 0028     		cmp	r0, #0
 3005 00c8 2CD0     		beq	.L197
 3006              	.LBB61:
 751:Source\azure_iot_sdk\iothub_client\src/message_queue.c ****         {
 752:Source\azure_iot_sdk\iothub_client\src/message_queue.c ****             LogError("failed setting option %s", name);
 3007              		.loc 1 752 0 discriminator 3
 3008 00ca FFF7FEFF 		bl	xlogging_get_log_function
 3009              	.LVL490:
 3010 00ce 051E     		subs	r5, r0, #0
 3011              	.LVL491:
 3012 00d0 2AD0     		beq	.L198
 3013              		.loc 1 752 0 is_stmt 0 discriminator 4
 3014 00d2 0294     		str	r4, [sp, #8]
 3015 00d4 1D4B     		ldr	r3, .L200+24
 3016 00d6 0193     		str	r3, [sp, #4]
 3017 00d8 0123     		movs	r3, #1
 3018 00da 0093     		str	r3, [sp]
 3019 00dc BC23     		movs	r3, #188
 3020 00de 9B00     		lsls	r3, r3, #2
 3021 00e0 164A     		ldr	r2, .L200+8
 3022 00e2 4432     		adds	r2, r2, #68
 3023 00e4 1649     		ldr	r1, .L200+12
 3024 00e6 0020     		movs	r0, #0
 3025              	.LVL492:
ARM GAS  C:\Users\Phuong\AppData\Local\Temp\ccaRXo0w.s 			page 70


 3026 00e8 A847     		blx	r5
 3027              	.LVL493:
 3028              	.LBE61:
 753:Source\azure_iot_sdk\iothub_client\src/message_queue.c ****             result = __FAILURE__;
 3029              		.loc 1 753 0 is_stmt 1 discriminator 4
 3030 00ea 1D48     		ldr	r0, .L200+44
 3031 00ec 1FE0     		b	.L188
 3032              	.LVL494:
 3033              	.L191:
 3034              	.LBB62:
 754:Source\azure_iot_sdk\iothub_client\src/message_queue.c ****         }
 755:Source\azure_iot_sdk\iothub_client\src/message_queue.c ****         else
 756:Source\azure_iot_sdk\iothub_client\src/message_queue.c ****         {
 757:Source\azure_iot_sdk\iothub_client\src/message_queue.c ****             result = RESULT_OK;
 758:Source\azure_iot_sdk\iothub_client\src/message_queue.c ****         }
 759:Source\azure_iot_sdk\iothub_client\src/message_queue.c ****     }
 760:Source\azure_iot_sdk\iothub_client\src/message_queue.c ****     else
 761:Source\azure_iot_sdk\iothub_client\src/message_queue.c ****     {
 762:Source\azure_iot_sdk\iothub_client\src/message_queue.c ****         LogError("option %s is invalid", name);
 3035              		.loc 1 762 0 discriminator 3
 3036 00ee FFF7FEFF 		bl	xlogging_get_log_function
 3037              	.LVL495:
 3038 00f2 051E     		subs	r5, r0, #0
 3039              	.LVL496:
 3040 00f4 1AD0     		beq	.L199
 3041              		.loc 1 762 0 is_stmt 0 discriminator 4
 3042 00f6 0294     		str	r4, [sp, #8]
 3043 00f8 1A4B     		ldr	r3, .L200+48
 3044 00fa 0193     		str	r3, [sp, #4]
 3045 00fc 0123     		movs	r3, #1
 3046 00fe 0093     		str	r3, [sp]
 3047 0100 194B     		ldr	r3, .L200+52
 3048 0102 0E4A     		ldr	r2, .L200+8
 3049 0104 4432     		adds	r2, r2, #68
 3050 0106 0E49     		ldr	r1, .L200+12
 3051 0108 0020     		movs	r0, #0
 3052              	.LVL497:
 3053 010a A847     		blx	r5
 3054              	.LVL498:
 3055              	.LBE62:
 763:Source\azure_iot_sdk\iothub_client\src/message_queue.c ****         result = __FAILURE__;
 3056              		.loc 1 763 0 is_stmt 1 discriminator 4
 3057 010c 1748     		ldr	r0, .L200+56
 3058 010e 0EE0     		b	.L188
 3059              	.LVL499:
 3060              	.L192:
 722:Source\azure_iot_sdk\iothub_client\src/message_queue.c ****     }
 3061              		.loc 1 722 0
 3062 0110 0C48     		ldr	r0, .L200+16
 3063              	.LVL500:
 3064 0112 0CE0     		b	.L188
 3065              	.LVL501:
 3066              	.L193:
 733:Source\azure_iot_sdk\iothub_client\src/message_queue.c ****         }
 3067              		.loc 1 733 0
 3068 0114 0020     		movs	r0, #0
 3069 0116 0AE0     		b	.L188
ARM GAS  C:\Users\Phuong\AppData\Local\Temp\ccaRXo0w.s 			page 71


 3070              	.LVL502:
 3071              	.L194:
 729:Source\azure_iot_sdk\iothub_client\src/message_queue.c ****         }
 3072              		.loc 1 729 0
 3073 0118 0D48     		ldr	r0, .L200+28
 3074              	.LVL503:
 3075 011a 08E0     		b	.L188
 3076              	.LVL504:
 3077              	.L195:
 745:Source\azure_iot_sdk\iothub_client\src/message_queue.c ****         }
 3078              		.loc 1 745 0
 3079 011c 0020     		movs	r0, #0
 3080 011e 06E0     		b	.L188
 3081              	.LVL505:
 3082              	.L196:
 741:Source\azure_iot_sdk\iothub_client\src/message_queue.c ****         }
 3083              		.loc 1 741 0
 3084 0120 0D48     		ldr	r0, .L200+36
 3085              	.LVL506:
 3086 0122 04E0     		b	.L188
 3087              	.LVL507:
 3088              	.L197:
 757:Source\azure_iot_sdk\iothub_client\src/message_queue.c ****         }
 3089              		.loc 1 757 0
 3090 0124 0020     		movs	r0, #0
 3091 0126 02E0     		b	.L188
 3092              	.LVL508:
 3093              	.L198:
 753:Source\azure_iot_sdk\iothub_client\src/message_queue.c ****         }
 3094              		.loc 1 753 0
 3095 0128 0D48     		ldr	r0, .L200+44
 3096              	.LVL509:
 3097 012a 00E0     		b	.L188
 3098              	.LVL510:
 3099              	.L199:
 3100              		.loc 1 763 0
 3101 012c 0F48     		ldr	r0, .L200+56
 3102              	.LVL511:
 3103              	.L188:
 764:Source\azure_iot_sdk\iothub_client\src/message_queue.c ****     }
 765:Source\azure_iot_sdk\iothub_client\src/message_queue.c **** 
 766:Source\azure_iot_sdk\iothub_client\src/message_queue.c ****     return result;
 767:Source\azure_iot_sdk\iothub_client\src/message_queue.c **** }
 3104              		.loc 1 767 0
 3105 012e 07B0     		add	sp, sp, #28
 3106              		@ sp needed
 3107              	.LVL512:
 3108              	.LVL513:
 3109 0130 F0BD     		pop	{r4, r5, r6, r7, pc}
 3110              	.L201:
 3111 0132 C046     		.align	2
 3112              	.L200:
 3113 0134 38060000 		.word	.LC109
 3114 0138 D1020000 		.word	721
 3115 013c 80010000 		.word	.LANCHOR3
 3116 0140 00000000 		.word	.LC1
 3117 0144 D2020000 		.word	722
ARM GAS  C:\Users\Phuong\AppData\Local\Temp\ccaRXo0w.s 			page 72


 3118 0148 30030000 		.word	.LC45
 3119 014c 68060000 		.word	.LC112
 3120 0150 D9020000 		.word	729
 3121 0154 54030000 		.word	.LC47
 3122 0158 E5020000 		.word	741
 3123 015c 7C030000 		.word	.LC49
 3124 0160 F1020000 		.word	753
 3125 0164 9C030000 		.word	.LC51
 3126 0168 FA020000 		.word	762
 3127 016c FB020000 		.word	763
 3128              		.cfi_endproc
 3129              	.LFE22:
 3130              		.size	setOption, .-setOption
 3131              		.section	.text.message_queue_retrieve_options,"ax",%progbits
 3132              		.align	2
 3133              		.global	message_queue_retrieve_options
 3134              		.code	16
 3135              		.thumb_func
 3136              		.type	message_queue_retrieve_options, %function
 3137              	message_queue_retrieve_options:
 3138              	.LFB23:
 768:Source\azure_iot_sdk\iothub_client\src/message_queue.c **** 
 769:Source\azure_iot_sdk\iothub_client\src/message_queue.c **** OPTIONHANDLER_HANDLE message_queue_retrieve_options(MESSAGE_QUEUE_HANDLE message_queue)
 770:Source\azure_iot_sdk\iothub_client\src/message_queue.c **** {
 3139              		.loc 1 770 0
 3140              		.cfi_startproc
 3141              		@ args = 0, pretend = 0, frame = 0
 3142              		@ frame_needed = 0, uses_anonymous_args = 0
 3143              	.LVL514:
 3144 0000 30B5     		push	{r4, r5, lr}
 3145              		.cfi_def_cfa_offset 12
 3146              		.cfi_offset 4, -12
 3147              		.cfi_offset 5, -8
 3148              		.cfi_offset 14, -4
 3149 0002 85B0     		sub	sp, sp, #20
 3150              		.cfi_def_cfa_offset 32
 3151 0004 051E     		subs	r5, r0, #0
 771:Source\azure_iot_sdk\iothub_client\src/message_queue.c ****     OPTIONHANDLER_HANDLE result;
 772:Source\azure_iot_sdk\iothub_client\src/message_queue.c **** 
 773:Source\azure_iot_sdk\iothub_client\src/message_queue.c ****     // Codes_SRS_MESSAGE_QUEUE_09_062: [If `message_queue` is NULL, message_queue_retrieve_options 
 774:Source\azure_iot_sdk\iothub_client\src/message_queue.c ****     if (message_queue == NULL)
 3152              		.loc 1 774 0
 3153 0006 10D1     		bne	.L203
 3154              	.LBB63:
 775:Source\azure_iot_sdk\iothub_client\src/message_queue.c ****     {
 776:Source\azure_iot_sdk\iothub_client\src/message_queue.c ****         LogError("invalid argument (message_queue is NULL)");
 3155              		.loc 1 776 0 discriminator 3
 3156 0008 FFF7FEFF 		bl	xlogging_get_log_function
 3157              	.LVL515:
 3158 000c 041E     		subs	r4, r0, #0
 3159              	.LVL516:
 3160 000e 79D0     		beq	.L211
 3161              		.loc 1 776 0 is_stmt 0 discriminator 4
 3162 0010 3E4B     		ldr	r3, .L212
 3163 0012 0193     		str	r3, [sp, #4]
 3164 0014 0123     		movs	r3, #1
 3165 0016 0093     		str	r3, [sp]
ARM GAS  C:\Users\Phuong\AppData\Local\Temp\ccaRXo0w.s 			page 73


 3166 0018 C223     		movs	r3, #194
 3167 001a 9B00     		lsls	r3, r3, #2
 3168 001c 3C4A     		ldr	r2, .L212+4
 3169 001e 5032     		adds	r2, r2, #80
 3170 0020 3C49     		ldr	r1, .L212+8
 3171 0022 0020     		movs	r0, #0
 3172              	.LVL517:
 3173 0024 A047     		blx	r4
 3174              	.LVL518:
 3175              	.LBE63:
 777:Source\azure_iot_sdk\iothub_client\src/message_queue.c ****         result = NULL;
 3176              		.loc 1 777 0 is_stmt 1 discriminator 4
 3177 0026 0024     		movs	r4, #0
 3178              	.LVL519:
 3179 0028 6DE0     		b	.L204
 3180              	.LVL520:
 3181              	.L203:
 778:Source\azure_iot_sdk\iothub_client\src/message_queue.c ****     }
 779:Source\azure_iot_sdk\iothub_client\src/message_queue.c ****     // Codes_SRS_MESSAGE_QUEUE_09_063: [An OPTIONHANDLER_HANDLE instance shall be created using Opt
 780:Source\azure_iot_sdk\iothub_client\src/message_queue.c ****     else if ((result = OptionHandler_Create(cloneOption, destroyOption, setOption)) == NULL)
 3182              		.loc 1 780 0
 3183 002a 3B4A     		ldr	r2, .L212+12
 3184 002c 3B49     		ldr	r1, .L212+16
 3185 002e 3C48     		ldr	r0, .L212+20
 3186              	.LVL521:
 3187 0030 FFF7FEFF 		bl	OptionHandler_Create
 3188              	.LVL522:
 3189 0034 041E     		subs	r4, r0, #0
 3190              	.LVL523:
 3191 0036 0ED1     		bne	.L205
 3192              	.LBB64:
 781:Source\azure_iot_sdk\iothub_client\src/message_queue.c ****     {
 782:Source\azure_iot_sdk\iothub_client\src/message_queue.c ****         // Codes_SRS_MESSAGE_QUEUE_09_064: [If an OPTIONHANDLER_HANDLE instance fails to be created
 783:Source\azure_iot_sdk\iothub_client\src/message_queue.c ****         LogError("failed creating OPTIONHANDLER_HANDLE");
 3193              		.loc 1 783 0 discriminator 3
 3194 0038 FFF7FEFF 		bl	xlogging_get_log_function
 3195              	.LVL524:
 3196 003c 051E     		subs	r5, r0, #0
 3197              	.LVL525:
 3198 003e 62D0     		beq	.L204
 3199              		.loc 1 783 0 is_stmt 0 discriminator 4
 3200 0040 384B     		ldr	r3, .L212+24
 3201 0042 0193     		str	r3, [sp, #4]
 3202 0044 0123     		movs	r3, #1
 3203 0046 0093     		str	r3, [sp]
 3204 0048 374B     		ldr	r3, .L212+28
 3205 004a 314A     		ldr	r2, .L212+4
 3206 004c 5032     		adds	r2, r2, #80
 3207 004e 3149     		ldr	r1, .L212+8
 3208 0050 0020     		movs	r0, #0
 3209              	.LVL526:
 3210 0052 A847     		blx	r5
 3211              	.LVL527:
 3212 0054 57E0     		b	.L204
 3213              	.LVL528:
 3214              	.L205:
 3215              	.LBE64:
ARM GAS  C:\Users\Phuong\AppData\Local\Temp\ccaRXo0w.s 			page 74


 784:Source\azure_iot_sdk\iothub_client\src/message_queue.c ****     }
 785:Source\azure_iot_sdk\iothub_client\src/message_queue.c ****     // Codes_SRS_MESSAGE_QUEUE_09_065: [Each option of `instance` shall be added to the OPTIONHANDL
 786:Source\azure_iot_sdk\iothub_client\src/message_queue.c ****     else if (OptionHandler_AddOption(result, SAVED_OPTION_MAX_ENQUEUE_TIME_SECS, &message_queue->ma
 3216              		.loc 1 786 0 is_stmt 1
 3217 0056 2A00     		movs	r2, r5
 3218 0058 3449     		ldr	r1, .L212+32
 3219 005a FFF7FEFF 		bl	OptionHandler_AddOption
 3220              	.LVL529:
 3221 005e 0028     		cmp	r0, #0
 3222 0060 15D0     		beq	.L206
 3223              	.LBB65:
 787:Source\azure_iot_sdk\iothub_client\src/message_queue.c ****     {
 788:Source\azure_iot_sdk\iothub_client\src/message_queue.c ****         LogError("failed retrieving options (failed adding %s)", SAVED_OPTION_MAX_ENQUEUE_TIME_SECS
 3224              		.loc 1 788 0 discriminator 3
 3225 0062 FFF7FEFF 		bl	xlogging_get_log_function
 3226              	.LVL530:
 3227 0066 051E     		subs	r5, r0, #0
 3228              	.LVL531:
 3229 0068 0CD0     		beq	.L207
 3230              		.loc 1 788 0 is_stmt 0 discriminator 4
 3231 006a 304B     		ldr	r3, .L212+32
 3232 006c 0293     		str	r3, [sp, #8]
 3233 006e 304B     		ldr	r3, .L212+36
 3234 0070 0193     		str	r3, [sp, #4]
 3235 0072 0123     		movs	r3, #1
 3236 0074 0093     		str	r3, [sp]
 3237 0076 C523     		movs	r3, #197
 3238 0078 9B00     		lsls	r3, r3, #2
 3239 007a 254A     		ldr	r2, .L212+4
 3240 007c 5032     		adds	r2, r2, #80
 3241 007e 2549     		ldr	r1, .L212+8
 3242 0080 0020     		movs	r0, #0
 3243              	.LVL532:
 3244 0082 A847     		blx	r5
 3245              	.LVL533:
 3246              	.L207:
 3247              	.LBE65:
 789:Source\azure_iot_sdk\iothub_client\src/message_queue.c ****         // Codes_SRS_MESSAGE_QUEUE_09_067: [If message_queue_retrieve_options fails, any allocated 
 790:Source\azure_iot_sdk\iothub_client\src/message_queue.c ****         OptionHandler_Destroy(result);
 3248              		.loc 1 790 0 is_stmt 1
 3249 0084 2000     		movs	r0, r4
 3250 0086 FFF7FEFF 		bl	OptionHandler_Destroy
 3251              	.LVL534:
 791:Source\azure_iot_sdk\iothub_client\src/message_queue.c ****         // Codes_SRS_MESSAGE_QUEUE_09_066: [If OptionHandler_AddOption fails, message_queue_retriev
 792:Source\azure_iot_sdk\iothub_client\src/message_queue.c ****         result = NULL;
 3252              		.loc 1 792 0
 3253 008a 0024     		movs	r4, #0
 3254 008c 3BE0     		b	.L204
 3255              	.LVL535:
 3256              	.L206:
 793:Source\azure_iot_sdk\iothub_client\src/message_queue.c ****     }
 794:Source\azure_iot_sdk\iothub_client\src/message_queue.c ****     else if (OptionHandler_AddOption(result, SAVED_OPTION_MAX_PROCESSING_TIME_SECS, &message_queue-
 3257              		.loc 1 794 0
 3258 008e 2A1D     		adds	r2, r5, #4
 3259 0090 2849     		ldr	r1, .L212+40
 3260 0092 2000     		movs	r0, r4
 3261 0094 FFF7FEFF 		bl	OptionHandler_AddOption
ARM GAS  C:\Users\Phuong\AppData\Local\Temp\ccaRXo0w.s 			page 75


 3262              	.LVL536:
 3263 0098 0028     		cmp	r0, #0
 3264 009a 15D0     		beq	.L208
 3265              	.LBB66:
 795:Source\azure_iot_sdk\iothub_client\src/message_queue.c ****     {
 796:Source\azure_iot_sdk\iothub_client\src/message_queue.c ****         LogError("failed retrieving options (failed adding %s)", SAVED_OPTION_MAX_PROCESSING_TIME_S
 3266              		.loc 1 796 0 discriminator 3
 3267 009c FFF7FEFF 		bl	xlogging_get_log_function
 3268              	.LVL537:
 3269 00a0 051E     		subs	r5, r0, #0
 3270              	.LVL538:
 3271 00a2 0CD0     		beq	.L209
 3272              		.loc 1 796 0 is_stmt 0 discriminator 4
 3273 00a4 234B     		ldr	r3, .L212+40
 3274 00a6 0293     		str	r3, [sp, #8]
 3275 00a8 214B     		ldr	r3, .L212+36
 3276 00aa 0193     		str	r3, [sp, #4]
 3277 00ac 0123     		movs	r3, #1
 3278 00ae 0093     		str	r3, [sp]
 3279 00b0 C723     		movs	r3, #199
 3280 00b2 9B00     		lsls	r3, r3, #2
 3281 00b4 164A     		ldr	r2, .L212+4
 3282 00b6 5032     		adds	r2, r2, #80
 3283 00b8 1649     		ldr	r1, .L212+8
 3284 00ba 0020     		movs	r0, #0
 3285              	.LVL539:
 3286 00bc A847     		blx	r5
 3287              	.LVL540:
 3288              	.L209:
 3289              	.LBE66:
 797:Source\azure_iot_sdk\iothub_client\src/message_queue.c ****         // Codes_SRS_MESSAGE_QUEUE_09_067: [If message_queue_retrieve_options fails, any allocated 
 798:Source\azure_iot_sdk\iothub_client\src/message_queue.c ****         OptionHandler_Destroy(result);
 3290              		.loc 1 798 0 is_stmt 1
 3291 00be 2000     		movs	r0, r4
 3292 00c0 FFF7FEFF 		bl	OptionHandler_Destroy
 3293              	.LVL541:
 799:Source\azure_iot_sdk\iothub_client\src/message_queue.c ****         // Codes_SRS_MESSAGE_QUEUE_09_066: [If OptionHandler_AddOption fails, message_queue_retriev
 800:Source\azure_iot_sdk\iothub_client\src/message_queue.c ****         result = NULL;
 3294              		.loc 1 800 0
 3295 00c4 0024     		movs	r4, #0
 3296 00c6 1EE0     		b	.L204
 3297              	.LVL542:
 3298              	.L208:
 801:Source\azure_iot_sdk\iothub_client\src/message_queue.c ****     }
 802:Source\azure_iot_sdk\iothub_client\src/message_queue.c ****     else if (OptionHandler_AddOption(result, SAVED_OPTION_MAX_RETRY_COUNT, &message_queue->max_retr
 3299              		.loc 1 802 0
 3300 00c8 2A00     		movs	r2, r5
 3301 00ca 0832     		adds	r2, r2, #8
 3302 00cc 1A49     		ldr	r1, .L212+44
 3303 00ce 2000     		movs	r0, r4
 3304 00d0 FFF7FEFF 		bl	OptionHandler_AddOption
 3305              	.LVL543:
 3306 00d4 0028     		cmp	r0, #0
 3307 00d6 16D0     		beq	.L204
 3308              	.LBB67:
 803:Source\azure_iot_sdk\iothub_client\src/message_queue.c ****     {
 804:Source\azure_iot_sdk\iothub_client\src/message_queue.c ****         LogError("failed retrieving options (failed adding %s)", SAVED_OPTION_MAX_PROCESSING_TIME_S
ARM GAS  C:\Users\Phuong\AppData\Local\Temp\ccaRXo0w.s 			page 76


 3309              		.loc 1 804 0 discriminator 3
 3310 00d8 FFF7FEFF 		bl	xlogging_get_log_function
 3311              	.LVL544:
 3312 00dc 051E     		subs	r5, r0, #0
 3313              	.LVL545:
 3314 00de 0CD0     		beq	.L210
 3315              		.loc 1 804 0 is_stmt 0 discriminator 4
 3316 00e0 144B     		ldr	r3, .L212+40
 3317 00e2 0293     		str	r3, [sp, #8]
 3318 00e4 124B     		ldr	r3, .L212+36
 3319 00e6 0193     		str	r3, [sp, #4]
 3320 00e8 0123     		movs	r3, #1
 3321 00ea 0093     		str	r3, [sp]
 3322 00ec C923     		movs	r3, #201
 3323 00ee 9B00     		lsls	r3, r3, #2
 3324 00f0 074A     		ldr	r2, .L212+4
 3325 00f2 5032     		adds	r2, r2, #80
 3326 00f4 0749     		ldr	r1, .L212+8
 3327 00f6 0020     		movs	r0, #0
 3328              	.LVL546:
 3329 00f8 A847     		blx	r5
 3330              	.LVL547:
 3331              	.L210:
 3332              	.LBE67:
 805:Source\azure_iot_sdk\iothub_client\src/message_queue.c ****         // Codes_SRS_MESSAGE_QUEUE_09_067: [If message_queue_retrieve_options fails, any allocated 
 806:Source\azure_iot_sdk\iothub_client\src/message_queue.c ****         OptionHandler_Destroy(result);
 3333              		.loc 1 806 0 is_stmt 1
 3334 00fa 2000     		movs	r0, r4
 3335 00fc FFF7FEFF 		bl	OptionHandler_Destroy
 3336              	.LVL548:
 807:Source\azure_iot_sdk\iothub_client\src/message_queue.c ****         // Codes_SRS_MESSAGE_QUEUE_09_066: [If OptionHandler_AddOption fails, message_queue_retriev
 808:Source\azure_iot_sdk\iothub_client\src/message_queue.c ****         result = NULL;
 3337              		.loc 1 808 0
 3338 0100 0024     		movs	r4, #0
 3339 0102 00E0     		b	.L204
 3340              	.LVL549:
 3341              	.L211:
 777:Source\azure_iot_sdk\iothub_client\src/message_queue.c ****     }
 3342              		.loc 1 777 0
 3343 0104 0024     		movs	r4, #0
 3344              	.LVL550:
 3345              	.L204:
 809:Source\azure_iot_sdk\iothub_client\src/message_queue.c ****     }
 810:Source\azure_iot_sdk\iothub_client\src/message_queue.c **** 
 811:Source\azure_iot_sdk\iothub_client\src/message_queue.c ****     // Codes_SRS_MESSAGE_QUEUE_09_068: [If no failures occur, message_queue_retrieve_options shall 
 812:Source\azure_iot_sdk\iothub_client\src/message_queue.c ****     return result;
 813:Source\azure_iot_sdk\iothub_client\src/message_queue.c **** }
 3346              		.loc 1 813 0
 3347 0106 2000     		movs	r0, r4
 3348 0108 05B0     		add	sp, sp, #20
 3349              		@ sp needed
 3350              	.LVL551:
 3351 010a 30BD     		pop	{r4, r5, pc}
 3352              	.L213:
 3353              		.align	2
 3354              	.L212:
 3355 010c E0030000 		.word	.LC64
ARM GAS  C:\Users\Phuong\AppData\Local\Temp\ccaRXo0w.s 			page 77


 3356 0110 80010000 		.word	.LANCHOR3
 3357 0114 00000000 		.word	.LC1
 3358 0118 00000000 		.word	setOption
 3359 011c 00000000 		.word	destroyOption
 3360 0120 00000000 		.word	cloneOption
 3361 0124 84060000 		.word	.LC123
 3362 0128 0F030000 		.word	783
 3363 012c 30030000 		.word	.LC45
 3364 0130 AC060000 		.word	.LC126
 3365 0134 54030000 		.word	.LC47
 3366 0138 7C030000 		.word	.LC49
 3367              		.cfi_endproc
 3368              	.LFE23:
 3369              		.size	message_queue_retrieve_options, .-message_queue_retrieve_options
 3370              		.section	.rodata
 3371              		.align	2
 3372              		.set	.LANCHOR0,. + 0
 3373              		.set	.LANCHOR1,. + 128
 3374              		.set	.LANCHOR2,. + 256
 3375              		.set	.LANCHOR3,. + 384
 3376              		.type	__func__.6082, %object
 3377              		.size	__func__.6082, 34
 3378              	__func__.6082:
 3379 0000 64657175 		.ascii	"dequeue_message_and_fire_callback\000"
 3379      6575655F 
 3379      6D657373 
 3379      6167655F 
 3379      616E645F 
 3380 0022 0000     		.space	2
 3381              		.type	__func__.6198, %object
 3382              		.size	__func__.6198, 28
 3383              	__func__.6198:
 3384 0024 6D6F7665 		.ascii	"move_messages_between_lists\000"
 3384      5F6D6573 
 3384      73616765 
 3384      735F6265 
 3384      74776565 
 3385              		.type	__func__.6068, %object
 3386              		.size	__func__.6068, 22
 3387              	__func__.6068:
 3388 0040 72657472 		.ascii	"retry_sending_message\000"
 3388      795F7365 
 3388      6E64696E 
 3388      675F6D65 
 3388      73736167 
 3389 0056 0000     		.space	2
 3390              		.type	__func__.6140, %object
 3391              		.size	__func__.6140, 25
 3392              	__func__.6140:
 3393 0058 70726F63 		.ascii	"process_pending_messages\000"
 3393      6573735F 
 3393      70656E64 
 3393      696E675F 
 3393      6D657373 
 3394 0071 000000   		.space	3
 3395              		.type	__func__.6105, %object
 3396              		.size	__func__.6105, 17
ARM GAS  C:\Users\Phuong\AppData\Local\Temp\ccaRXo0w.s 			page 78


 3397              	__func__.6105:
 3398 0074 70726F63 		.ascii	"process_timeouts\000"
 3398      6573735F 
 3398      74696D65 
 3398      6F757473 
 3398      00
 3399 0085 000000   		.space	3
 3400              		.type	__func__.6092, %object
 3401              		.size	__func__.6092, 38
 3402              	__func__.6092:
 3403 0088 6F6E5F70 		.ascii	"on_process_message_completed_callback\000"
 3403      726F6365 
 3403      73735F6D 
 3403      65737361 
 3403      67655F63 
 3404 00ae 0000     		.space	2
 3405              		.type	__func__.6175, %object
 3406              		.size	__func__.6175, 14
 3407              	__func__.6175:
 3408 00b0 64657374 		.ascii	"destroyOption\000"
 3408      726F794F 
 3408      7074696F 
 3408      6E00
 3409 00be 0000     		.space	2
 3410              		.type	__func__.6161, %object
 3411              		.size	__func__.6161, 12
 3412              	__func__.6161:
 3413 00c0 636C6F6E 		.ascii	"cloneOption\000"
 3413      654F7074 
 3413      696F6E00 
 3414              		.type	__func__.6213, %object
 3415              		.size	__func__.6213, 39
 3416              	__func__.6213:
 3417 00cc 6D657373 		.ascii	"message_queue_move_all_back_to_pending\000"
 3417      6167655F 
 3417      71756575 
 3417      655F6D6F 
 3417      76655F61 
 3418 00f3 00       		.space	1
 3419              		.type	__func__.6241, %object
 3420              		.size	__func__.6241, 21
 3421              	__func__.6241:
 3422 00f4 6D657373 		.ascii	"message_queue_create\000"
 3422      6167655F 
 3422      71756575 
 3422      655F6372 
 3422      65617465 
 3423 0109 000000   		.space	3
 3424              		.type	__func__.6264, %object
 3425              		.size	__func__.6264, 18
 3426              	__func__.6264:
 3427 010c 6D657373 		.ascii	"message_queue_add\000"
 3427      6167655F 
 3427      71756575 
 3427      655F6164 
 3427      6400
 3428 011e 0000     		.space	2
ARM GAS  C:\Users\Phuong\AppData\Local\Temp\ccaRXo0w.s 			page 79


 3429              		.type	__func__.6283, %object
 3430              		.size	__func__.6283, 23
 3431              	__func__.6283:
 3432 0120 6D657373 		.ascii	"message_queue_is_empty\000"
 3432      6167655F 
 3432      71756575 
 3432      655F6973 
 3432      5F656D70 
 3433 0137 00       		.space	1
 3434              		.type	__func__.6295, %object
 3435              		.size	__func__.6295, 49
 3436              	__func__.6295:
 3437 0138 6D657373 		.ascii	"message_queue_set_max_message_enqueued_time_secs\000"
 3437      6167655F 
 3437      71756575 
 3437      655F7365 
 3437      745F6D61 
 3438 0169 000000   		.space	3
 3439              		.type	__func__.6304, %object
 3440              		.size	__func__.6304, 51
 3441              	__func__.6304:
 3442 016c 6D657373 		.ascii	"message_queue_set_max_message_processing_time_secs\000"
 3442      6167655F 
 3442      71756575 
 3442      655F7365 
 3442      745F6D61 
 3443 019f 00       		.space	1
 3444              		.type	__func__.6313, %object
 3445              		.size	__func__.6313, 34
 3446              	__func__.6313:
 3447 01a0 6D657373 		.ascii	"message_queue_set_max_retry_count\000"
 3447      6167655F 
 3447      71756575 
 3447      655F7365 
 3447      745F6D61 
 3448 01c2 0000     		.space	2
 3449              		.type	__func__.6323, %object
 3450              		.size	__func__.6323, 10
 3451              	__func__.6323:
 3452 01c4 7365744F 		.ascii	"setOption\000"
 3452      7074696F 
 3452      6E00
 3453 01ce 0000     		.space	2
 3454              		.type	__func__.6343, %object
 3455              		.size	__func__.6343, 31
 3456              	__func__.6343:
 3457 01d0 6D657373 		.ascii	"message_queue_retrieve_options\000"
 3457      6167655F 
 3457      71756575 
 3457      655F7265 
 3457      74726965 
 3458              		.section	.rodata.str1.4,"aMS",%progbits,1
 3459              		.align	2
 3460              	.LC1:
 3461 0000 536F7572 		.ascii	"Source\\azure_iot_sdk\\iothub_client\\src\\message_"
 3461      63655C61 
 3461      7A757265 
ARM GAS  C:\Users\Phuong\AppData\Local\Temp\ccaRXo0w.s 			page 80


 3461      5F696F74 
 3461      5F73646B 
 3462 002f 71756575 		.ascii	"queue.c\000"
 3462      652E6300 
 3463 0037 00       		.space	1
 3464              	.LC3:
 3465 0038 6661696C 		.ascii	"failed removing message from list (%p)\000"
 3465      65642072 
 3465      656D6F76 
 3465      696E6720 
 3465      6D657373 
 3466 005f 00       		.space	1
 3467              	.LC7:
 3468 0060 6661696C 		.ascii	"failed removing message from list\000"
 3468      65642072 
 3468      656D6F76 
 3468      696E6720 
 3468      6D657373 
 3469 0082 0000     		.space	2
 3470              	.LC9:
 3471 0084 6661696C 		.ascii	"failed moving message to list\000"
 3471      6564206D 
 3471      6F76696E 
 3471      67206D65 
 3471      73736167 
 3472 00a2 0000     		.space	2
 3473              	.LC13:
 3474 00a4 4661696C 		.ascii	"Failed removing message from in-progress list\000"
 3474      65642072 
 3474      656D6F76 
 3474      696E6720 
 3474      6D657373 
 3475 00d2 0000     		.space	2
 3476              	.LC15:
 3477 00d4 4661696C 		.ascii	"Failed moving message back to pending list\000"
 3477      6564206D 
 3477      6F76696E 
 3477      67206D65 
 3477      73736167 
 3478 00ff 00       		.space	1
 3479              	.LC19:
 3480 0100 696E7465 		.ascii	"internal error, failed to retrieve list node value\000"
 3480      726E616C 
 3480      20657272 
 3480      6F722C20 
 3480      6661696C 
 3481 0133 00       		.space	1
 3482              	.LC21:
 3483 0134 6661696C 		.ascii	"failed moving message out of pending list (%p)\000"
 3483      6564206D 
 3483      6F76696E 
 3483      67206D65 
 3483      73736167 
 3484 0163 00       		.space	1
 3485              	.LC23:
 3486 0164 6661696C 		.ascii	"failed setting message processing_start_time (%p)\000"
 3486      65642073 
ARM GAS  C:\Users\Phuong\AppData\Local\Temp\ccaRXo0w.s 			page 81


 3486      65747469 
 3486      6E67206D 
 3486      65737361 
 3487 0196 0000     		.space	2
 3488              	.LC25:
 3489 0198 6661696C 		.ascii	"failed moving message to in-progress list (%p)\000"
 3489      6564206D 
 3489      6F76696E 
 3489      67206D65 
 3489      73736167 
 3490 01c7 00       		.space	1
 3491              	.LC30:
 3492 01c8 6661696C 		.ascii	"failed processing timeouts (get_time failed)\000"
 3492      65642070 
 3492      726F6365 
 3492      7373696E 
 3492      67207469 
 3493 01f5 000000   		.space	3
 3494              	.LC32:
 3495 01f8 6661696C 		.ascii	"failed processing timeouts (unexpected NULL pointer"
 3495      65642070 
 3495      726F6365 
 3495      7373696E 
 3495      67207469 
 3496 022b 20746F20 		.ascii	" to MESSAGE_QUEUE_ITEM)\000"
 3496      4D455353 
 3496      4147455F 
 3496      51554555 
 3496      455F4954 
 3497 0243 00       		.space	1
 3498              	.LC36:
 3499 0244 6F6E5F70 		.ascii	"on_process_message_completed_callback invoked with "
 3499      726F6365 
 3499      73735F6D 
 3499      65737361 
 3499      67655F63 
 3500 0277 4E554C4C 		.ascii	"NULL arguments (message=%p, message_queue=%p)\000"
 3500      20617267 
 3500      756D656E 
 3500      74732028 
 3500      6D657373 
 3501 02a5 000000   		.space	3
 3502              	.LC39:
 3503 02a8 6F6E5F70 		.ascii	"on_process_message_completed_callback invoked for a"
 3503      726F6365 
 3503      73735F6D 
 3503      65737361 
 3503      67655F63 
 3504 02db 206D6573 		.ascii	" message not in the in-progress list (%p)\000"
 3504      73616765 
 3504      206E6F74 
 3504      20696E20 
 3504      74686520 
 3505 0305 000000   		.space	3
 3506              	.LC43:
 3507 0308 696E7661 		.ascii	"invalid argument (name=%p, value=%p)\000"
 3507      6C696420 
ARM GAS  C:\Users\Phuong\AppData\Local\Temp\ccaRXo0w.s 			page 82


 3507      61726775 
 3507      6D656E74 
 3507      20286E61 
 3508 032d 000000   		.space	3
 3509              	.LC45:
 3510 0330 53415645 		.ascii	"SAVED_OPTION_MAX_ENQUEUE_TIME_SECS\000"
 3510      445F4F50 
 3510      54494F4E 
 3510      5F4D4158 
 3510      5F454E51 
 3511 0353 00       		.space	1
 3512              	.LC47:
 3513 0354 53415645 		.ascii	"SAVED_OPTION_MAX_PROCESSING_TIME_SECS\000"
 3513      445F4F50 
 3513      54494F4E 
 3513      5F4D4158 
 3513      5F50524F 
 3514 037a 0000     		.space	2
 3515              	.LC49:
 3516 037c 53415645 		.ascii	"SAVED_OPTION_MAX_RETRY_COUNT\000"
 3516      445F4F50 
 3516      54494F4E 
 3516      5F4D4158 
 3516      5F524554 
 3517 0399 000000   		.space	3
 3518              	.LC51:
 3519 039c 6F707469 		.ascii	"option %s is invalid\000"
 3519      6F6E2025 
 3519      73206973 
 3519      20696E76 
 3519      616C6964 
 3520 03b1 000000   		.space	3
 3521              	.LC59:
 3522 03b4 6661696C 		.ascii	"failed cloning option %s (malloc failed)\000"
 3522      65642063 
 3522      6C6F6E69 
 3522      6E67206F 
 3522      7074696F 
 3523 03dd 000000   		.space	3
 3524              	.LC64:
 3525 03e0 696E7661 		.ascii	"invalid argument (message_queue is NULL)\000"
 3525      6C696420 
 3525      61726775 
 3525      6D656E74 
 3525      20286D65 
 3526 0409 000000   		.space	3
 3527              	.LC66:
 3528 040c 6661696C 		.ascii	"failed creating temporary list\000"
 3528      65642063 
 3528      72656174 
 3528      696E6720 
 3528      74656D70 
 3529 042b 00       		.space	1
 3530              	.LC68:
 3531 042c 6661696C 		.ascii	"failed moving in-progress message to temporary list"
 3531      6564206D 
 3531      6F76696E 
ARM GAS  C:\Users\Phuong\AppData\Local\Temp\ccaRXo0w.s 			page 83


 3531      6720696E 
 3531      2D70726F 
 3532 045f 00       		.ascii	"\000"
 3533              	.LC70:
 3534 0460 6661696C 		.ascii	"failed moving pending message to temporary list\000"
 3534      6564206D 
 3534      6F76696E 
 3534      67207065 
 3534      6E64696E 
 3535              	.LC74:
 3536 0490 696E7661 		.ascii	"invalid configuration (NULL)\000"
 3536      6C696420 
 3536      636F6E66 
 3536      69677572 
 3536      6174696F 
 3537 04ad 000000   		.space	3
 3538              	.LC76:
 3539 04b0 696E7661 		.ascii	"invalid configuration (on_process_message_callback "
 3539      6C696420 
 3539      636F6E66 
 3539      69677572 
 3539      6174696F 
 3540 04e3 6973204E 		.ascii	"is NULL)\000"
 3540      554C4C29 
 3540      00
 3541              	.LC78:
 3542 04ec 6661696C 		.ascii	"failed allocating MESSAGE_QUEUE\000"
 3542      65642061 
 3542      6C6C6F63 
 3542      6174696E 
 3542      67204D45 
 3543              	.LC80:
 3544 050c 6661696C 		.ascii	"failed allocating MESSAGE_QUEUE pending list\000"
 3544      65642061 
 3544      6C6C6F63 
 3544      6174696E 
 3544      67204D45 
 3545 0539 000000   		.space	3
 3546              	.LC82:
 3547 053c 6661696C 		.ascii	"failed allocating MESSAGE_QUEUE in-progress list\000"
 3547      65642061 
 3547      6C6C6F63 
 3547      6174696E 
 3547      67204D45 
 3548 056d 000000   		.space	3
 3549              	.LC86:
 3550 0570 696E7661 		.ascii	"invalid argument (message_queue=%p, message=%p)\000"
 3550      6C696420 
 3550      61726775 
 3550      6D656E74 
 3550      20286D65 
 3551              	.LC88:
 3552 05a0 6661696C 		.ascii	"failed creating container for message\000"
 3552      65642063 
 3552      72656174 
 3552      696E6720 
 3552      636F6E74 
ARM GAS  C:\Users\Phuong\AppData\Local\Temp\ccaRXo0w.s 			page 84


 3553 05c6 0000     		.space	2
 3554              	.LC90:
 3555 05c8 6661696C 		.ascii	"failed setting message enqueue time\000"
 3555      65642073 
 3555      65747469 
 3555      6E67206D 
 3555      65737361 
 3556              	.LC92:
 3557 05ec 6661696C 		.ascii	"failed enqueing message\000"
 3557      65642065 
 3557      6E717565 
 3557      696E6720 
 3557      6D657373 
 3558              	.LC96:
 3559 0604 696E7661 		.ascii	"invalid argument (message_queue=%p, is_empty=%p)\000"
 3559      6C696420 
 3559      61726775 
 3559      6D656E74 
 3559      20286D65 
 3560 0635 000000   		.space	3
 3561              	.LC109:
 3562 0638 696E7661 		.ascii	"invalid argument (handle=%p, name=%p, value=%p)\000"
 3562      6C696420 
 3562      61726775 
 3562      6D656E74 
 3562      20286861 
 3563              	.LC112:
 3564 0668 6661696C 		.ascii	"failed setting option %s\000"
 3564      65642073 
 3564      65747469 
 3564      6E67206F 
 3564      7074696F 
 3565 0681 000000   		.space	3
 3566              	.LC123:
 3567 0684 6661696C 		.ascii	"failed creating OPTIONHANDLER_HANDLE\000"
 3567      65642063 
 3567      72656174 
 3567      696E6720 
 3567      4F505449 
 3568 06a9 000000   		.space	3
 3569              	.LC126:
 3570 06ac 6661696C 		.ascii	"failed retrieving options (failed adding %s)\000"
 3570      65642072 
 3570      65747269 
 3570      6576696E 
 3570      67206F70 
 3571              		.text
 3572              	.Letext0:
 3573              		.file 2 "c:\\program files (x86)\\cypress\\psoc creator\\4.2\\psoc creator\\import\\gnu\\arm\\5.4.
 3574              		.file 3 "c:\\program files (x86)\\cypress\\psoc creator\\4.2\\psoc creator\\import\\gnu\\arm\\5.4.
 3575              		.file 4 ".\\Source\\azure_iot_sdk\\c-utility\\inc/azure_c_shared_utility/xlogging.h"
 3576              		.file 5 ".\\Source\\azure_iot_sdk\\c-utility\\inc/azure_c_shared_utility/singlylinkedlist.h"
 3577              		.file 6 ".\\Source\\azure_iot_sdk\\c-utility\\inc/azure_c_shared_utility/optionhandler.h"
 3578              		.file 7 ".\\Source\\azure_iot_sdk\\iothub_client\\inc/internal/message_queue.h"
 3579              		.file 8 "c:\\program files (x86)\\cypress\\psoc creator\\4.2\\psoc creator\\import\\gnu\\arm\\5.4.
 3580              		.file 9 ".\\Source\\azure_iot_sdk\\c-utility\\inc/azure_c_shared_utility/agenttime.h"
 3581              		.file 10 "c:\\program files (x86)\\cypress\\psoc creator\\4.2\\psoc creator\\import\\gnu\\arm\\5.4
ARM GAS  C:\Users\Phuong\AppData\Local\Temp\ccaRXo0w.s 			page 85


 3582              		.section	.debug_info,"",%progbits
 3583              	.Ldebug_info0:
 3584 0000 6E280000 		.4byte	0x286e
 3585 0004 0400     		.2byte	0x4
 3586 0006 00000000 		.4byte	.Ldebug_abbrev0
 3587 000a 04       		.byte	0x4
 3588 000b 01       		.uleb128 0x1
 3589 000c AF010000 		.4byte	.LASF129
 3590 0010 0C       		.byte	0xc
 3591 0011 1F040000 		.4byte	.LASF130
 3592 0015 DB020000 		.4byte	.LASF131
 3593 0019 68000000 		.4byte	.Ldebug_ranges0+0x68
 3594 001d 00000000 		.4byte	0
 3595 0021 00000000 		.4byte	.Ldebug_line0
 3596 0025 02       		.uleb128 0x2
 3597 0026 A2030000 		.4byte	.LASF12
 3598 002a 02       		.byte	0x2
 3599 002b D8       		.byte	0xd8
 3600 002c 30000000 		.4byte	0x30
 3601 0030 03       		.uleb128 0x3
 3602 0031 04       		.byte	0x4
 3603 0032 07       		.byte	0x7
 3604 0033 83000000 		.4byte	.LASF0
 3605 0037 04       		.uleb128 0x4
 3606 0038 04       		.byte	0x4
 3607 0039 05       		.byte	0x5
 3608 003a 696E7400 		.ascii	"int\000"
 3609 003e 03       		.uleb128 0x3
 3610 003f 08       		.byte	0x8
 3611 0040 05       		.byte	0x5
 3612 0041 C6050000 		.4byte	.LASF1
 3613 0045 03       		.uleb128 0x3
 3614 0046 08       		.byte	0x8
 3615 0047 04       		.byte	0x4
 3616 0048 13070000 		.4byte	.LASF2
 3617 004c 03       		.uleb128 0x3
 3618 004d 01       		.byte	0x1
 3619 004e 06       		.byte	0x6
 3620 004f AC090000 		.4byte	.LASF3
 3621 0053 03       		.uleb128 0x3
 3622 0054 01       		.byte	0x1
 3623 0055 08       		.byte	0x8
 3624 0056 DF080000 		.4byte	.LASF4
 3625 005a 03       		.uleb128 0x3
 3626 005b 02       		.byte	0x2
 3627 005c 05       		.byte	0x5
 3628 005d 81070000 		.4byte	.LASF5
 3629 0061 03       		.uleb128 0x3
 3630 0062 02       		.byte	0x2
 3631 0063 07       		.byte	0x7
 3632 0064 EF090000 		.4byte	.LASF6
 3633 0068 03       		.uleb128 0x3
 3634 0069 04       		.byte	0x4
 3635 006a 05       		.byte	0x5
 3636 006b A4070000 		.4byte	.LASF7
 3637 006f 03       		.uleb128 0x3
 3638 0070 04       		.byte	0x4
ARM GAS  C:\Users\Phuong\AppData\Local\Temp\ccaRXo0w.s 			page 86


 3639 0071 07       		.byte	0x7
 3640 0072 36080000 		.4byte	.LASF8
 3641 0076 03       		.uleb128 0x3
 3642 0077 08       		.byte	0x8
 3643 0078 07       		.byte	0x7
 3644 0079 61020000 		.4byte	.LASF9
 3645 007d 03       		.uleb128 0x3
 3646 007e 04       		.byte	0x4
 3647 007f 07       		.byte	0x7
 3648 0080 2D080000 		.4byte	.LASF10
 3649 0084 05       		.uleb128 0x5
 3650 0085 04       		.byte	0x4
 3651 0086 03       		.uleb128 0x3
 3652 0087 01       		.byte	0x1
 3653 0088 08       		.byte	0x8
 3654 0089 CC040000 		.4byte	.LASF11
 3655 008d 06       		.uleb128 0x6
 3656 008e 04       		.byte	0x4
 3657 008f 93000000 		.4byte	0x93
 3658 0093 07       		.uleb128 0x7
 3659 0094 86000000 		.4byte	0x86
 3660 0098 06       		.uleb128 0x6
 3661 0099 04       		.byte	0x4
 3662 009a 9E000000 		.4byte	0x9e
 3663 009e 08       		.uleb128 0x8
 3664 009f 02       		.uleb128 0x2
 3665 00a0 58050000 		.4byte	.LASF13
 3666 00a4 03       		.byte	0x3
 3667 00a5 28       		.byte	0x28
 3668 00a6 68000000 		.4byte	0x68
 3669 00aa 09       		.uleb128 0x9
 3670 00ab 1D090000 		.4byte	.LASF32
 3671 00af 01       		.byte	0x1
 3672 00b0 53000000 		.4byte	0x53
 3673 00b4 04       		.byte	0x4
 3674 00b5 22       		.byte	0x22
 3675 00b6 CD000000 		.4byte	0xcd
 3676 00ba 0A       		.uleb128 0xa
 3677 00bb 1F070000 		.4byte	.LASF14
 3678 00bf 00       		.byte	0
 3679 00c0 0A       		.uleb128 0xa
 3680 00c1 4C050000 		.4byte	.LASF15
 3681 00c5 01       		.byte	0x1
 3682 00c6 0A       		.uleb128 0xa
 3683 00c7 64090000 		.4byte	.LASF16
 3684 00cb 02       		.byte	0x2
 3685 00cc 00       		.byte	0
 3686 00cd 02       		.uleb128 0x2
 3687 00ce 13060000 		.4byte	.LASF17
 3688 00d2 04       		.byte	0x4
 3689 00d3 27       		.byte	0x27
 3690 00d4 AA000000 		.4byte	0xaa
 3691 00d8 02       		.uleb128 0x2
 3692 00d9 22080000 		.4byte	.LASF18
 3693 00dd 04       		.byte	0x4
 3694 00de 2F       		.byte	0x2f
 3695 00df E3000000 		.4byte	0xe3
ARM GAS  C:\Users\Phuong\AppData\Local\Temp\ccaRXo0w.s 			page 87


 3696 00e3 06       		.uleb128 0x6
 3697 00e4 04       		.byte	0x4
 3698 00e5 E9000000 		.4byte	0xe9
 3699 00e9 0B       		.uleb128 0xb
 3700 00ea 0E010000 		.4byte	0x10e
 3701 00ee 0C       		.uleb128 0xc
 3702 00ef CD000000 		.4byte	0xcd
 3703 00f3 0C       		.uleb128 0xc
 3704 00f4 8D000000 		.4byte	0x8d
 3705 00f8 0C       		.uleb128 0xc
 3706 00f9 8D000000 		.4byte	0x8d
 3707 00fd 0C       		.uleb128 0xc
 3708 00fe 37000000 		.4byte	0x37
 3709 0102 0C       		.uleb128 0xc
 3710 0103 30000000 		.4byte	0x30
 3711 0107 0C       		.uleb128 0xc
 3712 0108 8D000000 		.4byte	0x8d
 3713 010c 0D       		.uleb128 0xd
 3714 010d 00       		.byte	0
 3715 010e 02       		.uleb128 0x2
 3716 010f E4070000 		.4byte	.LASF19
 3717 0113 05       		.byte	0x5
 3718 0114 0F       		.byte	0xf
 3719 0115 19010000 		.4byte	0x119
 3720 0119 06       		.uleb128 0x6
 3721 011a 04       		.byte	0x4
 3722 011b 1F010000 		.4byte	0x11f
 3723 011f 0E       		.uleb128 0xe
 3724 0120 D1040000 		.4byte	.LASF21
 3725 0124 02       		.uleb128 0x2
 3726 0125 53000000 		.4byte	.LASF20
 3727 0129 05       		.byte	0x5
 3728 012a 10       		.byte	0x10
 3729 012b 2F010000 		.4byte	0x12f
 3730 012f 06       		.uleb128 0x6
 3731 0130 04       		.byte	0x4
 3732 0131 35010000 		.4byte	0x135
 3733 0135 0E       		.uleb128 0xe
 3734 0136 02040000 		.4byte	.LASF22
 3735 013a 03       		.uleb128 0x3
 3736 013b 01       		.byte	0x1
 3737 013c 02       		.byte	0x2
 3738 013d 19040000 		.4byte	.LASF23
 3739 0141 06       		.uleb128 0x6
 3740 0142 04       		.byte	0x4
 3741 0143 3A010000 		.4byte	0x13a
 3742 0147 02       		.uleb128 0x2
 3743 0148 DE030000 		.4byte	.LASF24
 3744 014c 01       		.byte	0x1
 3745 014d 0D       		.byte	0xd
 3746 014e 52010000 		.4byte	0x152
 3747 0152 0F       		.uleb128 0xf
 3748 0153 41000000 		.4byte	.LASF52
 3749 0157 1C       		.byte	0x1c
 3750 0158 01       		.byte	0x1
 3751 0159 19       		.byte	0x19
 3752 015a B3010000 		.4byte	0x1b3
ARM GAS  C:\Users\Phuong\AppData\Local\Temp\ccaRXo0w.s 			page 88


 3753 015e 10       		.uleb128 0x10
 3754 015f B8090000 		.4byte	.LASF25
 3755 0163 01       		.byte	0x1
 3756 0164 1B       		.byte	0x1b
 3757 0165 25000000 		.4byte	0x25
 3758 0169 00       		.byte	0
 3759 016a 10       		.uleb128 0x10
 3760 016b FC070000 		.4byte	.LASF26
 3761 016f 01       		.byte	0x1
 3762 0170 1C       		.byte	0x1c
 3763 0171 25000000 		.4byte	0x25
 3764 0175 04       		.byte	0x4
 3765 0176 10       		.uleb128 0x10
 3766 0177 03070000 		.4byte	.LASF27
 3767 017b 01       		.byte	0x1
 3768 017c 1D       		.byte	0x1d
 3769 017d 25000000 		.4byte	0x25
 3770 0181 08       		.byte	0x8
 3771 0182 10       		.uleb128 0x10
 3772 0183 07010000 		.4byte	.LASF28
 3773 0187 01       		.byte	0x1
 3774 0188 1F       		.byte	0x1f
 3775 0189 A3020000 		.4byte	0x2a3
 3776 018d 0C       		.byte	0xc
 3777 018e 10       		.uleb128 0x10
 3778 018f BD0A0000 		.4byte	.LASF29
 3779 0193 01       		.byte	0x1
 3780 0194 20       		.byte	0x20
 3781 0195 84000000 		.4byte	0x84
 3782 0199 10       		.byte	0x10
 3783 019a 10       		.uleb128 0x10
 3784 019b 82040000 		.4byte	.LASF30
 3785 019f 01       		.byte	0x1
 3786 01a0 22       		.byte	0x22
 3787 01a1 0E010000 		.4byte	0x10e
 3788 01a5 14       		.byte	0x14
 3789 01a6 10       		.uleb128 0x10
 3790 01a7 5F0A0000 		.4byte	.LASF31
 3791 01ab 01       		.byte	0x1
 3792 01ac 23       		.byte	0x23
 3793 01ad 0E010000 		.4byte	0x10e
 3794 01b1 18       		.byte	0x18
 3795 01b2 00       		.byte	0
 3796 01b3 09       		.uleb128 0x9
 3797 01b4 2C070000 		.4byte	.LASF33
 3798 01b8 01       		.byte	0x1
 3799 01b9 53000000 		.4byte	0x53
 3800 01bd 06       		.byte	0x6
 3801 01be 0E       		.byte	0xe
 3802 01bf D6010000 		.4byte	0x1d6
 3803 01c3 0A       		.uleb128 0xa
 3804 01c4 17000000 		.4byte	.LASF34
 3805 01c8 00       		.byte	0
 3806 01c9 0A       		.uleb128 0xa
 3807 01ca EA050000 		.4byte	.LASF35
 3808 01ce 01       		.byte	0x1
 3809 01cf 0A       		.uleb128 0xa
ARM GAS  C:\Users\Phuong\AppData\Local\Temp\ccaRXo0w.s 			page 89


 3810 01d0 43090000 		.4byte	.LASF36
 3811 01d4 02       		.byte	0x2
 3812 01d5 00       		.byte	0
 3813 01d6 02       		.uleb128 0x2
 3814 01d7 4F060000 		.4byte	.LASF37
 3815 01db 06       		.byte	0x6
 3816 01dc 16       		.byte	0x16
 3817 01dd E1010000 		.4byte	0x1e1
 3818 01e1 06       		.uleb128 0x6
 3819 01e2 04       		.byte	0x4
 3820 01e3 E7010000 		.4byte	0x1e7
 3821 01e7 0E       		.uleb128 0xe
 3822 01e8 65010000 		.4byte	.LASF38
 3823 01ec 02       		.uleb128 0x2
 3824 01ed 80030000 		.4byte	.LASF39
 3825 01f1 07       		.byte	0x7
 3826 01f2 14       		.byte	0x14
 3827 01f3 F7010000 		.4byte	0x1f7
 3828 01f7 06       		.uleb128 0x6
 3829 01f8 04       		.byte	0x4
 3830 01f9 52010000 		.4byte	0x152
 3831 01fd 02       		.uleb128 0x2
 3832 01fe 6B0A0000 		.4byte	.LASF40
 3833 0202 07       		.byte	0x7
 3834 0203 15       		.byte	0x15
 3835 0204 84000000 		.4byte	0x84
 3836 0208 02       		.uleb128 0x2
 3837 0209 80080000 		.4byte	.LASF41
 3838 020d 07       		.byte	0x7
 3839 020e 16       		.byte	0x16
 3840 020f 84000000 		.4byte	0x84
 3841 0213 09       		.uleb128 0x9
 3842 0214 64040000 		.4byte	.LASF42
 3843 0218 01       		.byte	0x1
 3844 0219 53000000 		.4byte	0x53
 3845 021d 07       		.byte	0x7
 3846 021e 1F       		.byte	0x1f
 3847 021f 42020000 		.4byte	0x242
 3848 0223 0A       		.uleb128 0xa
 3849 0224 6C060000 		.4byte	.LASF43
 3850 0228 00       		.byte	0
 3851 0229 0A       		.uleb128 0xa
 3852 022a F3000000 		.4byte	.LASF44
 3853 022e 01       		.byte	0x1
 3854 022f 0A       		.uleb128 0xa
 3855 0230 EF040000 		.4byte	.LASF45
 3856 0234 02       		.byte	0x2
 3857 0235 0A       		.uleb128 0xa
 3858 0236 61070000 		.4byte	.LASF46
 3859 023a 03       		.byte	0x3
 3860 023b 0A       		.uleb128 0xa
 3861 023c 94080000 		.4byte	.LASF47
 3862 0240 04       		.byte	0x4
 3863 0241 00       		.byte	0
 3864 0242 02       		.uleb128 0x2
 3865 0243 FE050000 		.4byte	.LASF48
 3866 0247 07       		.byte	0x7
ARM GAS  C:\Users\Phuong\AppData\Local\Temp\ccaRXo0w.s 			page 90


 3867 0248 1F       		.byte	0x1f
 3868 0249 13020000 		.4byte	0x213
 3869 024d 02       		.uleb128 0x2
 3870 024e 8E060000 		.4byte	.LASF49
 3871 0252 07       		.byte	0x7
 3872 0253 24       		.byte	0x24
 3873 0254 58020000 		.4byte	0x258
 3874 0258 06       		.uleb128 0x6
 3875 0259 04       		.byte	0x4
 3876 025a 5E020000 		.4byte	0x25e
 3877 025e 0B       		.uleb128 0xb
 3878 025f 78020000 		.4byte	0x278
 3879 0263 0C       		.uleb128 0xc
 3880 0264 FD010000 		.4byte	0x1fd
 3881 0268 0C       		.uleb128 0xc
 3882 0269 42020000 		.4byte	0x242
 3883 026d 0C       		.uleb128 0xc
 3884 026e 08020000 		.4byte	0x208
 3885 0272 0C       		.uleb128 0xc
 3886 0273 84000000 		.4byte	0x84
 3887 0277 00       		.byte	0
 3888 0278 02       		.uleb128 0x2
 3889 0279 7F020000 		.4byte	.LASF50
 3890 027d 07       		.byte	0x7
 3891 027e 2A       		.byte	0x2a
 3892 027f 83020000 		.4byte	0x283
 3893 0283 06       		.uleb128 0x6
 3894 0284 04       		.byte	0x4
 3895 0285 89020000 		.4byte	0x289
 3896 0289 0B       		.uleb128 0xb
 3897 028a A3020000 		.4byte	0x2a3
 3898 028e 0C       		.uleb128 0xc
 3899 028f EC010000 		.4byte	0x1ec
 3900 0293 0C       		.uleb128 0xc
 3901 0294 FD010000 		.4byte	0x1fd
 3902 0298 0C       		.uleb128 0xc
 3903 0299 42020000 		.4byte	0x242
 3904 029d 0C       		.uleb128 0xc
 3905 029e 08020000 		.4byte	0x208
 3906 02a2 00       		.byte	0
 3907 02a3 02       		.uleb128 0x2
 3908 02a4 B3040000 		.4byte	.LASF51
 3909 02a8 07       		.byte	0x7
 3910 02a9 2F       		.byte	0x2f
 3911 02aa AE020000 		.4byte	0x2ae
 3912 02ae 06       		.uleb128 0x6
 3913 02af 04       		.byte	0x4
 3914 02b0 B4020000 		.4byte	0x2b4
 3915 02b4 0B       		.uleb128 0xb
 3916 02b5 CE020000 		.4byte	0x2ce
 3917 02b9 0C       		.uleb128 0xc
 3918 02ba EC010000 		.4byte	0x1ec
 3919 02be 0C       		.uleb128 0xc
 3920 02bf FD010000 		.4byte	0x1fd
 3921 02c3 0C       		.uleb128 0xc
 3922 02c4 78020000 		.4byte	0x278
 3923 02c8 0C       		.uleb128 0xc
ARM GAS  C:\Users\Phuong\AppData\Local\Temp\ccaRXo0w.s 			page 91


 3924 02c9 84000000 		.4byte	0x84
 3925 02cd 00       		.byte	0
 3926 02ce 0F       		.uleb128 0xf
 3927 02cf 83010000 		.4byte	.LASF53
 3928 02d3 10       		.byte	0x10
 3929 02d4 07       		.byte	0x7
 3930 02d5 31       		.byte	0x31
 3931 02d6 0B030000 		.4byte	0x30b
 3932 02da 10       		.uleb128 0x10
 3933 02db 07010000 		.4byte	.LASF28
 3934 02df 07       		.byte	0x7
 3935 02e0 3A       		.byte	0x3a
 3936 02e1 A3020000 		.4byte	0x2a3
 3937 02e5 00       		.byte	0
 3938 02e6 10       		.uleb128 0x10
 3939 02e7 B8090000 		.4byte	.LASF25
 3940 02eb 07       		.byte	0x7
 3941 02ec 3B       		.byte	0x3b
 3942 02ed 25000000 		.4byte	0x25
 3943 02f1 04       		.byte	0x4
 3944 02f2 10       		.uleb128 0x10
 3945 02f3 FC070000 		.4byte	.LASF26
 3946 02f7 07       		.byte	0x7
 3947 02f8 3C       		.byte	0x3c
 3948 02f9 25000000 		.4byte	0x25
 3949 02fd 08       		.byte	0x8
 3950 02fe 10       		.uleb128 0x10
 3951 02ff 03070000 		.4byte	.LASF27
 3952 0303 07       		.byte	0x7
 3953 0304 3D       		.byte	0x3d
 3954 0305 25000000 		.4byte	0x25
 3955 0309 0C       		.byte	0xc
 3956 030a 00       		.byte	0
 3957 030b 02       		.uleb128 0x2
 3958 030c 100A0000 		.4byte	.LASF54
 3959 0310 07       		.byte	0x7
 3960 0311 3E       		.byte	0x3e
 3961 0312 CE020000 		.4byte	0x2ce
 3962 0316 0F       		.uleb128 0xf
 3963 0317 B4060000 		.4byte	.LASF55
 3964 031b 18       		.byte	0x18
 3965 031c 01       		.byte	0x1
 3966 031d 26       		.byte	0x26
 3967 031e 6B030000 		.4byte	0x36b
 3968 0322 10       		.uleb128 0x10
 3969 0323 72000000 		.4byte	.LASF56
 3970 0327 01       		.byte	0x1
 3971 0328 28       		.byte	0x28
 3972 0329 FD010000 		.4byte	0x1fd
 3973 032d 00       		.byte	0
 3974 032e 10       		.uleb128 0x10
 3975 032f 8A040000 		.4byte	.LASF57
 3976 0333 01       		.byte	0x1
 3977 0334 29       		.byte	0x29
 3978 0335 4D020000 		.4byte	0x24d
 3979 0339 04       		.byte	0x4
 3980 033a 10       		.uleb128 0x10
ARM GAS  C:\Users\Phuong\AppData\Local\Temp\ccaRXo0w.s 			page 92


 3981 033b 5F050000 		.4byte	.LASF58
 3982 033f 01       		.byte	0x1
 3983 0340 2A       		.byte	0x2a
 3984 0341 84000000 		.4byte	0x84
 3985 0345 08       		.byte	0x8
 3986 0346 10       		.uleb128 0x10
 3987 0347 C6070000 		.4byte	.LASF59
 3988 034b 01       		.byte	0x1
 3989 034c 2B       		.byte	0x2b
 3990 034d 9F000000 		.4byte	0x9f
 3991 0351 0C       		.byte	0xc
 3992 0352 10       		.uleb128 0x10
 3993 0353 D4050000 		.4byte	.LASF60
 3994 0357 01       		.byte	0x1
 3995 0358 2C       		.byte	0x2c
 3996 0359 9F000000 		.4byte	0x9f
 3997 035d 10       		.byte	0x10
 3998 035e 10       		.uleb128 0x10
 3999 035f 71090000 		.4byte	.LASF61
 4000 0363 01       		.byte	0x1
 4001 0364 2D       		.byte	0x2d
 4002 0365 25000000 		.4byte	0x25
 4003 0369 14       		.byte	0x14
 4004 036a 00       		.byte	0
 4005 036b 02       		.uleb128 0x2
 4006 036c 9C010000 		.4byte	.LASF62
 4007 0370 01       		.byte	0x1
 4008 0371 2E       		.byte	0x2e
 4009 0372 16030000 		.4byte	0x316
 4010 0376 11       		.uleb128 0x11
 4011 0377 EC030000 		.4byte	.LASF73
 4012 037b 01       		.byte	0x1
 4013 037c 3C       		.byte	0x3c
 4014 037d 00000000 		.4byte	.LFB2
 4015 0381 16000000 		.4byte	.LFE2-.LFB2
 4016 0385 01       		.uleb128 0x1
 4017 0386 9C       		.byte	0x9c
 4018 0387 B9030000 		.4byte	0x3b9
 4019 038b 12       		.uleb128 0x12
 4020 038c A4090000 		.4byte	.LASF63
 4021 0390 01       		.byte	0x1
 4022 0391 3C       		.byte	0x3c
 4023 0392 B9030000 		.4byte	0x3b9
 4024 0396 00000000 		.4byte	.LLST0
 4025 039a 12       		.uleb128 0x12
 4026 039b 5A020000 		.4byte	.LASF64
 4027 039f 01       		.byte	0x1
 4028 03a0 3C       		.byte	0x3c
 4029 03a1 42020000 		.4byte	0x242
 4030 03a5 21000000 		.4byte	.LLST1
 4031 03a9 12       		.uleb128 0x12
 4032 03aa 78020000 		.4byte	.LASF65
 4033 03ae 01       		.byte	0x1
 4034 03af 3C       		.byte	0x3c
 4035 03b0 84000000 		.4byte	0x84
 4036 03b4 3F000000 		.4byte	.LLST2
 4037 03b8 00       		.byte	0
ARM GAS  C:\Users\Phuong\AppData\Local\Temp\ccaRXo0w.s 			page 93


 4038 03b9 06       		.uleb128 0x6
 4039 03ba 04       		.byte	0x4
 4040 03bb 6B030000 		.4byte	0x36b
 4041 03bf 13       		.uleb128 0x13
 4042 03c0 F90A0000 		.4byte	.LASF67
 4043 03c4 01       		.byte	0x1
 4044 03c5 49       		.byte	0x49
 4045 03c6 3A010000 		.4byte	0x13a
 4046 03ca 00000000 		.4byte	.LFB3
 4047 03ce 18000000 		.4byte	.LFE3-.LFB3
 4048 03d2 01       		.uleb128 0x1
 4049 03d3 9C       		.byte	0x9c
 4050 03d4 04040000 		.4byte	0x404
 4051 03d8 12       		.uleb128 0x12
 4052 03d9 56040000 		.4byte	.LASF66
 4053 03dd 01       		.byte	0x1
 4054 03de 49       		.byte	0x49
 4055 03df EC010000 		.4byte	0x1ec
 4056 03e3 60000000 		.4byte	.LLST3
 4057 03e7 14       		.uleb128 0x14
 4058 03e8 A4090000 		.4byte	.LASF63
 4059 03ec 01       		.byte	0x1
 4060 03ed 49       		.byte	0x49
 4061 03ee B9030000 		.4byte	0x3b9
 4062 03f2 01       		.uleb128 0x1
 4063 03f3 51       		.byte	0x51
 4064 03f4 12       		.uleb128 0x12
 4065 03f5 5A020000 		.4byte	.LASF64
 4066 03f9 01       		.byte	0x1
 4067 03fa 49       		.byte	0x49
 4068 03fb 42020000 		.4byte	0x242
 4069 03ff B3000000 		.4byte	.LLST4
 4070 0403 00       		.byte	0
 4071 0404 13       		.uleb128 0x13
 4072 0405 28000000 		.4byte	.LASF68
 4073 0409 01       		.byte	0x1
 4074 040a 34       		.byte	0x34
 4075 040b 3A010000 		.4byte	0x13a
 4076 040f 00000000 		.4byte	.LFB1
 4077 0413 14000000 		.4byte	.LFE1-.LFB1
 4078 0417 01       		.uleb128 0x1
 4079 0418 9C       		.byte	0x9c
 4080 0419 6B040000 		.4byte	0x46b
 4081 041d 12       		.uleb128 0x12
 4082 041e 77070000 		.4byte	.LASF69
 4083 0422 01       		.byte	0x1
 4084 0423 34       		.byte	0x34
 4085 0424 24010000 		.4byte	0x124
 4086 0428 ED000000 		.4byte	.LLST5
 4087 042c 12       		.uleb128 0x12
 4088 042d AF0A0000 		.4byte	.LASF70
 4089 0431 01       		.byte	0x1
 4090 0432 34       		.byte	0x34
 4091 0433 98000000 		.4byte	0x98
 4092 0437 0E010000 		.4byte	.LLST6
 4093 043b 15       		.uleb128 0x15
 4094 043c D2080000 		.4byte	.LASF71
ARM GAS  C:\Users\Phuong\AppData\Local\Temp\ccaRXo0w.s 			page 94


 4095 0440 01       		.byte	0x1
 4096 0441 36       		.byte	0x36
 4097 0442 B9030000 		.4byte	0x3b9
 4098 0446 3A010000 		.4byte	.LLST7
 4099 044a 15       		.uleb128 0x15
 4100 044b 82060000 		.4byte	.LASF72
 4101 044f 01       		.byte	0x1
 4102 0450 37       		.byte	0x37
 4103 0451 6B040000 		.4byte	0x46b
 4104 0455 4D010000 		.4byte	.LLST8
 4105 0459 16       		.uleb128 0x16
 4106 045a 08000000 		.4byte	.LVL12
 4107 045e A4270000 		.4byte	0x27a4
 4108 0462 17       		.uleb128 0x17
 4109 0463 01       		.uleb128 0x1
 4110 0464 50       		.byte	0x50
 4111 0465 03       		.uleb128 0x3
 4112 0466 F3       		.byte	0xf3
 4113 0467 01       		.uleb128 0x1
 4114 0468 50       		.byte	0x50
 4115 0469 00       		.byte	0
 4116 046a 00       		.byte	0
 4117 046b 06       		.uleb128 0x6
 4118 046c 04       		.byte	0x4
 4119 046d FD010000 		.4byte	0x1fd
 4120 0471 18       		.uleb128 0x18
 4121 0472 5E080000 		.4byte	.LASF74
 4122 0476 01       		.byte	0x1
 4123 0477 67       		.byte	0x67
 4124 0478 00000000 		.4byte	.LFB5
 4125 047c 5C000000 		.4byte	.LFE5-.LFB5
 4126 0480 01       		.uleb128 0x1
 4127 0481 9C       		.byte	0x9c
 4128 0482 A2050000 		.4byte	0x5a2
 4129 0486 12       		.uleb128 0x12
 4130 0487 60010000 		.4byte	.LASF75
 4131 048b 01       		.byte	0x1
 4132 048c 67       		.byte	0x67
 4133 048d 0E010000 		.4byte	0x10e
 4134 0491 6E010000 		.4byte	.LLST9
 4135 0495 12       		.uleb128 0x12
 4136 0496 77070000 		.4byte	.LASF69
 4137 049a 01       		.byte	0x1
 4138 049b 67       		.byte	0x67
 4139 049c 24010000 		.4byte	0x124
 4140 04a0 9A010000 		.4byte	.LLST10
 4141 04a4 12       		.uleb128 0x12
 4142 04a5 5A020000 		.4byte	.LASF64
 4143 04a9 01       		.byte	0x1
 4144 04aa 67       		.byte	0x67
 4145 04ab 42020000 		.4byte	0x242
 4146 04af C6010000 		.4byte	.LLST11
 4147 04b3 12       		.uleb128 0x12
 4148 04b4 78020000 		.4byte	.LASF65
 4149 04b8 01       		.byte	0x1
 4150 04b9 67       		.byte	0x67
 4151 04ba 84000000 		.4byte	0x84
ARM GAS  C:\Users\Phuong\AppData\Local\Temp\ccaRXo0w.s 			page 95


 4152 04be E7010000 		.4byte	.LLST12
 4153 04c2 15       		.uleb128 0x15
 4154 04c3 A4090000 		.4byte	.LASF63
 4155 04c7 01       		.byte	0x1
 4156 04c8 69       		.byte	0x69
 4157 04c9 B9030000 		.4byte	0x3b9
 4158 04cd 13020000 		.4byte	.LLST13
 4159 04d1 19       		.uleb128 0x19
 4160 04d2 560A0000 		.4byte	.LASF79
 4161 04d6 B2050000 		.4byte	0x5b2
 4162 04da 05       		.uleb128 0x5
 4163 04db 03       		.byte	0x3
 4164 04dc 00000000 		.4byte	__func__.6082
 4165 04e0 1A       		.uleb128 0x1a
 4166 04e1 20000000 		.4byte	.LBB2
 4167 04e5 1C000000 		.4byte	.LBE2-.LBB2
 4168 04e9 41050000 		.4byte	0x541
 4169 04ed 1B       		.uleb128 0x1b
 4170 04ee 6C00     		.ascii	"l\000"
 4171 04f0 01       		.byte	0x1
 4172 04f1 6E       		.byte	0x6e
 4173 04f2 D8000000 		.4byte	0xd8
 4174 04f6 31020000 		.4byte	.LLST14
 4175 04fa 1C       		.uleb128 0x1c
 4176 04fb 24000000 		.4byte	.LVL21
 4177 04ff AF270000 		.4byte	0x27af
 4178 0503 1D       		.uleb128 0x1d
 4179 0504 3C000000 		.4byte	.LVL24
 4180 0508 02       		.uleb128 0x2
 4181 0509 76       		.byte	0x76
 4182 050a 00       		.sleb128 0
 4183 050b 17       		.uleb128 0x17
 4184 050c 01       		.uleb128 0x1
 4185 050d 50       		.byte	0x50
 4186 050e 01       		.uleb128 0x1
 4187 050f 30       		.byte	0x30
 4188 0510 17       		.uleb128 0x17
 4189 0511 01       		.uleb128 0x1
 4190 0512 51       		.byte	0x51
 4191 0513 05       		.uleb128 0x5
 4192 0514 03       		.byte	0x3
 4193 0515 00000000 		.4byte	.LC1
 4194 0519 17       		.uleb128 0x17
 4195 051a 01       		.uleb128 0x1
 4196 051b 52       		.byte	0x52
 4197 051c 05       		.uleb128 0x5
 4198 051d 03       		.byte	0x3
 4199 051e 00000000 		.4byte	.LANCHOR0
 4200 0522 17       		.uleb128 0x17
 4201 0523 01       		.uleb128 0x1
 4202 0524 53       		.byte	0x53
 4203 0525 02       		.uleb128 0x2
 4204 0526 08       		.byte	0x8
 4205 0527 6E       		.byte	0x6e
 4206 0528 17       		.uleb128 0x17
 4207 0529 02       		.uleb128 0x2
 4208 052a 7D       		.byte	0x7d
ARM GAS  C:\Users\Phuong\AppData\Local\Temp\ccaRXo0w.s 			page 96


 4209 052b 00       		.sleb128 0
 4210 052c 01       		.uleb128 0x1
 4211 052d 31       		.byte	0x31
 4212 052e 17       		.uleb128 0x17
 4213 052f 02       		.uleb128 0x2
 4214 0530 7D       		.byte	0x7d
 4215 0531 04       		.sleb128 4
 4216 0532 05       		.uleb128 0x5
 4217 0533 03       		.byte	0x3
 4218 0534 38000000 		.4byte	.LC3
 4219 0538 17       		.uleb128 0x17
 4220 0539 02       		.uleb128 0x2
 4221 053a 7D       		.byte	0x7d
 4222 053b 08       		.sleb128 8
 4223 053c 02       		.uleb128 0x2
 4224 053d 75       		.byte	0x75
 4225 053e 00       		.sleb128 0
 4226 053f 00       		.byte	0
 4227 0540 00       		.byte	0
 4228 0541 1E       		.uleb128 0x1e
 4229 0542 12000000 		.4byte	.LVL17
 4230 0546 A4270000 		.4byte	0x27a4
 4231 054a 55050000 		.4byte	0x555
 4232 054e 17       		.uleb128 0x17
 4233 054f 01       		.uleb128 0x1
 4234 0550 50       		.byte	0x50
 4235 0551 02       		.uleb128 0x2
 4236 0552 76       		.byte	0x76
 4237 0553 00       		.sleb128 0
 4238 0554 00       		.byte	0
 4239 0555 1E       		.uleb128 0x1e
 4240 0556 1C000000 		.4byte	.LVL20
 4241 055a BA270000 		.4byte	0x27ba
 4242 055e 6F050000 		.4byte	0x56f
 4243 0562 17       		.uleb128 0x17
 4244 0563 01       		.uleb128 0x1
 4245 0564 50       		.byte	0x50
 4246 0565 02       		.uleb128 0x2
 4247 0566 75       		.byte	0x75
 4248 0567 00       		.sleb128 0
 4249 0568 17       		.uleb128 0x17
 4250 0569 01       		.uleb128 0x1
 4251 056a 51       		.byte	0x51
 4252 056b 02       		.uleb128 0x2
 4253 056c 76       		.byte	0x76
 4254 056d 00       		.sleb128 0
 4255 056e 00       		.byte	0
 4256 056f 1E       		.uleb128 0x1e
 4257 0570 46000000 		.4byte	.LVL25
 4258 0574 76030000 		.4byte	0x376
 4259 0578 91050000 		.4byte	0x591
 4260 057c 17       		.uleb128 0x17
 4261 057d 01       		.uleb128 0x1
 4262 057e 50       		.byte	0x50
 4263 057f 02       		.uleb128 0x2
 4264 0580 74       		.byte	0x74
 4265 0581 00       		.sleb128 0
ARM GAS  C:\Users\Phuong\AppData\Local\Temp\ccaRXo0w.s 			page 97


 4266 0582 17       		.uleb128 0x17
 4267 0583 01       		.uleb128 0x1
 4268 0584 51       		.byte	0x51
 4269 0585 04       		.uleb128 0x4
 4270 0586 91       		.byte	0x91
 4271 0587 64       		.sleb128 -28
 4272 0588 94       		.byte	0x94
 4273 0589 01       		.byte	0x1
 4274 058a 17       		.uleb128 0x17
 4275 058b 01       		.uleb128 0x1
 4276 058c 52       		.byte	0x52
 4277 058d 02       		.uleb128 0x2
 4278 058e 77       		.byte	0x77
 4279 058f 00       		.sleb128 0
 4280 0590 00       		.byte	0
 4281 0591 16       		.uleb128 0x16
 4282 0592 4C000000 		.4byte	.LVL26
 4283 0596 C5270000 		.4byte	0x27c5
 4284 059a 17       		.uleb128 0x17
 4285 059b 01       		.uleb128 0x1
 4286 059c 50       		.byte	0x50
 4287 059d 02       		.uleb128 0x2
 4288 059e 74       		.byte	0x74
 4289 059f 00       		.sleb128 0
 4290 05a0 00       		.byte	0
 4291 05a1 00       		.byte	0
 4292 05a2 1F       		.uleb128 0x1f
 4293 05a3 93000000 		.4byte	0x93
 4294 05a7 B2050000 		.4byte	0x5b2
 4295 05ab 20       		.uleb128 0x20
 4296 05ac 7D000000 		.4byte	0x7d
 4297 05b0 21       		.byte	0x21
 4298 05b1 00       		.byte	0
 4299 05b2 07       		.uleb128 0x7
 4300 05b3 A2050000 		.4byte	0x5a2
 4301 05b7 21       		.uleb128 0x21
 4302 05b8 930A0000 		.4byte	.LASF76
 4303 05bc 01       		.byte	0x1
 4304 05bd 7C01     		.2byte	0x17c
 4305 05bf 37000000 		.4byte	0x37
 4306 05c3 00000000 		.4byte	.LFB12
 4307 05c7 B4000000 		.4byte	.LFE12-.LFB12
 4308 05cb 01       		.uleb128 0x1
 4309 05cc 9C       		.byte	0x9c
 4310 05cd 7D070000 		.4byte	0x77d
 4311 05d1 22       		.uleb128 0x22
 4312 05d2 B0000000 		.4byte	.LASF77
 4313 05d6 01       		.byte	0x1
 4314 05d7 7C01     		.2byte	0x17c
 4315 05d9 0E010000 		.4byte	0x10e
 4316 05dd 4F020000 		.4byte	.LLST15
 4317 05e1 22       		.uleb128 0x22
 4318 05e2 5C090000 		.4byte	.LASF78
 4319 05e6 01       		.byte	0x1
 4320 05e7 7C01     		.2byte	0x17c
 4321 05e9 0E010000 		.4byte	0x10e
 4322 05ed 94020000 		.4byte	.LLST16
ARM GAS  C:\Users\Phuong\AppData\Local\Temp\ccaRXo0w.s 			page 98


 4323 05f1 23       		.uleb128 0x23
 4324 05f2 5A020000 		.4byte	.LASF64
 4325 05f6 01       		.byte	0x1
 4326 05f7 7E01     		.2byte	0x17e
 4327 05f9 37000000 		.4byte	0x37
 4328 05fd C0020000 		.4byte	.LLST17
 4329 0601 23       		.uleb128 0x23
 4330 0602 77070000 		.4byte	.LASF69
 4331 0606 01       		.byte	0x1
 4332 0607 7F01     		.2byte	0x17f
 4333 0609 24010000 		.4byte	0x124
 4334 060d 19030000 		.4byte	.LLST18
 4335 0611 19       		.uleb128 0x19
 4336 0612 560A0000 		.4byte	.LASF79
 4337 0616 8D070000 		.4byte	0x78d
 4338 061a 05       		.uleb128 0x5
 4339 061b 03       		.byte	0x3
 4340 061c 24000000 		.4byte	__func__.6198
 4341 0620 1A       		.uleb128 0x1a
 4342 0621 18000000 		.4byte	.LBB3
 4343 0625 1E000000 		.4byte	.LBE3-.LBB3
 4344 0629 7C060000 		.4byte	0x67c
 4345 062d 24       		.uleb128 0x24
 4346 062e 6C00     		.ascii	"l\000"
 4347 0630 01       		.byte	0x1
 4348 0631 8701     		.2byte	0x187
 4349 0633 D8000000 		.4byte	0xd8
 4350 0637 4D030000 		.4byte	.LLST19
 4351 063b 1C       		.uleb128 0x1c
 4352 063c 1C000000 		.4byte	.LVL35
 4353 0640 AF270000 		.4byte	0x27af
 4354 0644 1D       		.uleb128 0x1d
 4355 0645 36000000 		.4byte	.LVL38
 4356 0649 02       		.uleb128 0x2
 4357 064a 74       		.byte	0x74
 4358 064b 00       		.sleb128 0
 4359 064c 17       		.uleb128 0x17
 4360 064d 01       		.uleb128 0x1
 4361 064e 50       		.byte	0x50
 4362 064f 01       		.uleb128 0x1
 4363 0650 30       		.byte	0x30
 4364 0651 17       		.uleb128 0x17
 4365 0652 01       		.uleb128 0x1
 4366 0653 51       		.byte	0x51
 4367 0654 05       		.uleb128 0x5
 4368 0655 03       		.byte	0x3
 4369 0656 00000000 		.4byte	.LC1
 4370 065a 17       		.uleb128 0x17
 4371 065b 01       		.uleb128 0x1
 4372 065c 52       		.byte	0x52
 4373 065d 05       		.uleb128 0x5
 4374 065e 03       		.byte	0x3
 4375 065f 24000000 		.4byte	.LANCHOR0+36
 4376 0663 17       		.uleb128 0x17
 4377 0664 01       		.uleb128 0x1
 4378 0665 53       		.byte	0x53
 4379 0666 03       		.uleb128 0x3
ARM GAS  C:\Users\Phuong\AppData\Local\Temp\ccaRXo0w.s 			page 99


 4380 0667 0A       		.byte	0xa
 4381 0668 8701     		.2byte	0x187
 4382 066a 17       		.uleb128 0x17
 4383 066b 02       		.uleb128 0x2
 4384 066c 7D       		.byte	0x7d
 4385 066d 00       		.sleb128 0
 4386 066e 01       		.uleb128 0x1
 4387 066f 31       		.byte	0x31
 4388 0670 17       		.uleb128 0x17
 4389 0671 02       		.uleb128 0x2
 4390 0672 7D       		.byte	0x7d
 4391 0673 04       		.sleb128 4
 4392 0674 05       		.uleb128 0x5
 4393 0675 03       		.byte	0x3
 4394 0676 60000000 		.4byte	.LC7
 4395 067a 00       		.byte	0
 4396 067b 00       		.byte	0
 4397 067c 1A       		.uleb128 0x1a
 4398 067d 3C000000 		.4byte	.LBB4
 4399 0681 52000000 		.4byte	.LBE4-.LBB4
 4400 0685 52070000 		.4byte	0x752
 4401 0689 23       		.uleb128 0x23
 4402 068a A4090000 		.4byte	.LASF63
 4403 068e 01       		.byte	0x1
 4404 068f 8C01     		.2byte	0x18c
 4405 0691 B9030000 		.4byte	0x3b9
 4406 0695 76030000 		.4byte	.LLST20
 4407 0699 1A       		.uleb128 0x1a
 4408 069a 50000000 		.4byte	.LBB5
 4409 069e 1E000000 		.4byte	.LBE5-.LBB5
 4410 06a2 F5060000 		.4byte	0x6f5
 4411 06a6 24       		.uleb128 0x24
 4412 06a7 6C00     		.ascii	"l\000"
 4413 06a9 01       		.byte	0x1
 4414 06aa 9001     		.2byte	0x190
 4415 06ac D8000000 		.4byte	0xd8
 4416 06b0 9F030000 		.4byte	.LLST21
 4417 06b4 1C       		.uleb128 0x1c
 4418 06b5 54000000 		.4byte	.LVL45
 4419 06b9 AF270000 		.4byte	0x27af
 4420 06bd 1D       		.uleb128 0x1d
 4421 06be 6E000000 		.4byte	.LVL48
 4422 06c2 02       		.uleb128 0x2
 4423 06c3 75       		.byte	0x75
 4424 06c4 00       		.sleb128 0
 4425 06c5 17       		.uleb128 0x17
 4426 06c6 01       		.uleb128 0x1
 4427 06c7 50       		.byte	0x50
 4428 06c8 01       		.uleb128 0x1
 4429 06c9 30       		.byte	0x30
 4430 06ca 17       		.uleb128 0x17
 4431 06cb 01       		.uleb128 0x1
 4432 06cc 51       		.byte	0x51
 4433 06cd 05       		.uleb128 0x5
 4434 06ce 03       		.byte	0x3
 4435 06cf 00000000 		.4byte	.LC1
 4436 06d3 17       		.uleb128 0x17
ARM GAS  C:\Users\Phuong\AppData\Local\Temp\ccaRXo0w.s 			page 100


 4437 06d4 01       		.uleb128 0x1
 4438 06d5 52       		.byte	0x52
 4439 06d6 05       		.uleb128 0x5
 4440 06d7 03       		.byte	0x3
 4441 06d8 24000000 		.4byte	.LANCHOR0+36
 4442 06dc 17       		.uleb128 0x17
 4443 06dd 01       		.uleb128 0x1
 4444 06de 53       		.byte	0x53
 4445 06df 03       		.uleb128 0x3
 4446 06e0 0A       		.byte	0xa
 4447 06e1 9001     		.2byte	0x190
 4448 06e3 17       		.uleb128 0x17
 4449 06e4 02       		.uleb128 0x2
 4450 06e5 7D       		.byte	0x7d
 4451 06e6 00       		.sleb128 0
 4452 06e7 01       		.uleb128 0x1
 4453 06e8 31       		.byte	0x31
 4454 06e9 17       		.uleb128 0x17
 4455 06ea 02       		.uleb128 0x2
 4456 06eb 7D       		.byte	0x7d
 4457 06ec 04       		.sleb128 4
 4458 06ed 05       		.uleb128 0x5
 4459 06ee 03       		.byte	0x3
 4460 06ef 84000000 		.4byte	.LC9
 4461 06f3 00       		.byte	0
 4462 06f4 00       		.byte	0
 4463 06f5 1E       		.uleb128 0x1e
 4464 06f6 42000000 		.4byte	.LVL41
 4465 06fa A4270000 		.4byte	0x27a4
 4466 06fe 09070000 		.4byte	0x709
 4467 0702 17       		.uleb128 0x17
 4468 0703 01       		.uleb128 0x1
 4469 0704 50       		.byte	0x50
 4470 0705 02       		.uleb128 0x2
 4471 0706 74       		.byte	0x74
 4472 0707 00       		.sleb128 0
 4473 0708 00       		.byte	0
 4474 0709 1E       		.uleb128 0x1e
 4475 070a 4C000000 		.4byte	.LVL44
 4476 070e D0270000 		.4byte	0x27d0
 4477 0712 23070000 		.4byte	0x723
 4478 0716 17       		.uleb128 0x17
 4479 0717 01       		.uleb128 0x1
 4480 0718 50       		.byte	0x50
 4481 0719 02       		.uleb128 0x2
 4482 071a 76       		.byte	0x76
 4483 071b 00       		.sleb128 0
 4484 071c 17       		.uleb128 0x17
 4485 071d 01       		.uleb128 0x1
 4486 071e 51       		.byte	0x51
 4487 071f 02       		.uleb128 0x2
 4488 0720 74       		.byte	0x74
 4489 0721 00       		.sleb128 0
 4490 0722 00       		.byte	0
 4491 0723 1E       		.uleb128 0x1e
 4492 0724 78000000 		.4byte	.LVL49
 4493 0728 76030000 		.4byte	0x376
ARM GAS  C:\Users\Phuong\AppData\Local\Temp\ccaRXo0w.s 			page 101


 4494 072c 41070000 		.4byte	0x741
 4495 0730 17       		.uleb128 0x17
 4496 0731 01       		.uleb128 0x1
 4497 0732 50       		.byte	0x50
 4498 0733 02       		.uleb128 0x2
 4499 0734 74       		.byte	0x74
 4500 0735 00       		.sleb128 0
 4501 0736 17       		.uleb128 0x17
 4502 0737 01       		.uleb128 0x1
 4503 0738 51       		.byte	0x51
 4504 0739 01       		.uleb128 0x1
 4505 073a 34       		.byte	0x34
 4506 073b 17       		.uleb128 0x17
 4507 073c 01       		.uleb128 0x1
 4508 073d 52       		.byte	0x52
 4509 073e 01       		.uleb128 0x1
 4510 073f 30       		.byte	0x30
 4511 0740 00       		.byte	0
 4512 0741 16       		.uleb128 0x16
 4513 0742 7E000000 		.4byte	.LVL50
 4514 0746 C5270000 		.4byte	0x27c5
 4515 074a 17       		.uleb128 0x17
 4516 074b 01       		.uleb128 0x1
 4517 074c 50       		.byte	0x50
 4518 074d 02       		.uleb128 0x2
 4519 074e 74       		.byte	0x74
 4520 074f 00       		.sleb128 0
 4521 0750 00       		.byte	0
 4522 0751 00       		.byte	0
 4523 0752 1E       		.uleb128 0x1e
 4524 0753 14000000 		.4byte	.LVL34
 4525 0757 BA270000 		.4byte	0x27ba
 4526 075b 6C070000 		.4byte	0x76c
 4527 075f 17       		.uleb128 0x17
 4528 0760 01       		.uleb128 0x1
 4529 0761 50       		.byte	0x50
 4530 0762 02       		.uleb128 0x2
 4531 0763 75       		.byte	0x75
 4532 0764 00       		.sleb128 0
 4533 0765 17       		.uleb128 0x17
 4534 0766 01       		.uleb128 0x1
 4535 0767 51       		.byte	0x51
 4536 0768 02       		.uleb128 0x2
 4537 0769 74       		.byte	0x74
 4538 076a 00       		.sleb128 0
 4539 076b 00       		.byte	0
 4540 076c 16       		.uleb128 0x16
 4541 076d 98000000 		.4byte	.LVL55
 4542 0771 DB270000 		.4byte	0x27db
 4543 0775 17       		.uleb128 0x17
 4544 0776 01       		.uleb128 0x1
 4545 0777 50       		.byte	0x50
 4546 0778 02       		.uleb128 0x2
 4547 0779 75       		.byte	0x75
 4548 077a 00       		.sleb128 0
 4549 077b 00       		.byte	0
 4550 077c 00       		.byte	0
ARM GAS  C:\Users\Phuong\AppData\Local\Temp\ccaRXo0w.s 			page 102


 4551 077d 1F       		.uleb128 0x1f
 4552 077e 93000000 		.4byte	0x93
 4553 0782 8D070000 		.4byte	0x78d
 4554 0786 20       		.uleb128 0x20
 4555 0787 7D000000 		.4byte	0x7d
 4556 078b 1B       		.byte	0x1b
 4557 078c 00       		.byte	0
 4558 078d 07       		.uleb128 0x7
 4559 078e 7D070000 		.4byte	0x77d
 4560 0792 13       		.uleb128 0x13
 4561 0793 48080000 		.4byte	.LASF80
 4562 0797 01       		.byte	0x1
 4563 0798 4E       		.byte	0x4e
 4564 0799 37000000 		.4byte	0x37
 4565 079d 00000000 		.4byte	.LFB4
 4566 07a1 88000000 		.4byte	.LFE4-.LFB4
 4567 07a5 01       		.uleb128 0x1
 4568 07a6 9C       		.byte	0x9c
 4569 07a7 E1080000 		.4byte	0x8e1
 4570 07ab 12       		.uleb128 0x12
 4571 07ac 56040000 		.4byte	.LASF66
 4572 07b0 01       		.byte	0x1
 4573 07b1 4E       		.byte	0x4e
 4574 07b2 EC010000 		.4byte	0x1ec
 4575 07b6 BD030000 		.4byte	.LLST22
 4576 07ba 12       		.uleb128 0x12
 4577 07bb 77070000 		.4byte	.LASF69
 4578 07bf 01       		.byte	0x1
 4579 07c0 4E       		.byte	0x4e
 4580 07c1 24010000 		.4byte	0x124
 4581 07c5 E9030000 		.4byte	.LLST23
 4582 07c9 25       		.uleb128 0x25
 4583 07ca 5A020000 		.4byte	.LASF64
 4584 07ce 01       		.byte	0x1
 4585 07cf 50       		.byte	0x50
 4586 07d0 37000000 		.4byte	0x37
 4587 07d4 01       		.uleb128 0x1
 4588 07d5 50       		.byte	0x50
 4589 07d6 15       		.uleb128 0x15
 4590 07d7 A4090000 		.4byte	.LASF63
 4591 07db 01       		.byte	0x1
 4592 07dc 51       		.byte	0x51
 4593 07dd B9030000 		.4byte	0x3b9
 4594 07e1 47040000 		.4byte	.LLST24
 4595 07e5 19       		.uleb128 0x19
 4596 07e6 560A0000 		.4byte	.LASF79
 4597 07ea F1080000 		.4byte	0x8f1
 4598 07ee 05       		.uleb128 0x5
 4599 07ef 03       		.byte	0x3
 4600 07f0 40000000 		.4byte	__func__.6068
 4601 07f4 1A       		.uleb128 0x1a
 4602 07f5 1C000000 		.4byte	.LBB6
 4603 07f9 1C000000 		.4byte	.LBE6-.LBB6
 4604 07fd 4E080000 		.4byte	0x84e
 4605 0801 1B       		.uleb128 0x1b
 4606 0802 6C00     		.ascii	"l\000"
 4607 0804 01       		.byte	0x1
ARM GAS  C:\Users\Phuong\AppData\Local\Temp\ccaRXo0w.s 			page 103


 4608 0805 57       		.byte	0x57
 4609 0806 D8000000 		.4byte	0xd8
 4610 080a 65040000 		.4byte	.LLST25
 4611 080e 1C       		.uleb128 0x1c
 4612 080f 20000000 		.4byte	.LVL66
 4613 0813 AF270000 		.4byte	0x27af
 4614 0817 1D       		.uleb128 0x1d
 4615 0818 38000000 		.4byte	.LVL69
 4616 081c 02       		.uleb128 0x2
 4617 081d 74       		.byte	0x74
 4618 081e 00       		.sleb128 0
 4619 081f 17       		.uleb128 0x17
 4620 0820 01       		.uleb128 0x1
 4621 0821 50       		.byte	0x50
 4622 0822 01       		.uleb128 0x1
 4623 0823 30       		.byte	0x30
 4624 0824 17       		.uleb128 0x17
 4625 0825 01       		.uleb128 0x1
 4626 0826 51       		.byte	0x51
 4627 0827 05       		.uleb128 0x5
 4628 0828 03       		.byte	0x3
 4629 0829 00000000 		.4byte	.LC1
 4630 082d 17       		.uleb128 0x17
 4631 082e 01       		.uleb128 0x1
 4632 082f 52       		.byte	0x52
 4633 0830 05       		.uleb128 0x5
 4634 0831 03       		.byte	0x3
 4635 0832 40000000 		.4byte	.LANCHOR0+64
 4636 0836 17       		.uleb128 0x17
 4637 0837 01       		.uleb128 0x1
 4638 0838 53       		.byte	0x53
 4639 0839 02       		.uleb128 0x2
 4640 083a 08       		.byte	0x8
 4641 083b 57       		.byte	0x57
 4642 083c 17       		.uleb128 0x17
 4643 083d 02       		.uleb128 0x2
 4644 083e 7D       		.byte	0x7d
 4645 083f 00       		.sleb128 0
 4646 0840 01       		.uleb128 0x1
 4647 0841 31       		.byte	0x31
 4648 0842 17       		.uleb128 0x17
 4649 0843 02       		.uleb128 0x2
 4650 0844 7D       		.byte	0x7d
 4651 0845 04       		.sleb128 4
 4652 0846 05       		.uleb128 0x5
 4653 0847 03       		.byte	0x3
 4654 0848 A4000000 		.4byte	.LC13
 4655 084c 00       		.byte	0
 4656 084d 00       		.byte	0
 4657 084e 1A       		.uleb128 0x1a
 4658 084f 48000000 		.4byte	.LBB7
 4659 0853 1C000000 		.4byte	.LBE7-.LBB7
 4660 0857 A8080000 		.4byte	0x8a8
 4661 085b 1B       		.uleb128 0x1b
 4662 085c 6C00     		.ascii	"l\000"
 4663 085e 01       		.byte	0x1
 4664 085f 5C       		.byte	0x5c
ARM GAS  C:\Users\Phuong\AppData\Local\Temp\ccaRXo0w.s 			page 104


 4665 0860 D8000000 		.4byte	0xd8
 4666 0864 99040000 		.4byte	.LLST26
 4667 0868 1C       		.uleb128 0x1c
 4668 0869 4C000000 		.4byte	.LVL72
 4669 086d AF270000 		.4byte	0x27af
 4670 0871 1D       		.uleb128 0x1d
 4671 0872 64000000 		.4byte	.LVL75
 4672 0876 02       		.uleb128 0x2
 4673 0877 74       		.byte	0x74
 4674 0878 00       		.sleb128 0
 4675 0879 17       		.uleb128 0x17
 4676 087a 01       		.uleb128 0x1
 4677 087b 50       		.byte	0x50
 4678 087c 01       		.uleb128 0x1
 4679 087d 30       		.byte	0x30
 4680 087e 17       		.uleb128 0x17
 4681 087f 01       		.uleb128 0x1
 4682 0880 51       		.byte	0x51
 4683 0881 05       		.uleb128 0x5
 4684 0882 03       		.byte	0x3
 4685 0883 00000000 		.4byte	.LC1
 4686 0887 17       		.uleb128 0x17
 4687 0888 01       		.uleb128 0x1
 4688 0889 52       		.byte	0x52
 4689 088a 05       		.uleb128 0x5
 4690 088b 03       		.byte	0x3
 4691 088c 40000000 		.4byte	.LANCHOR0+64
 4692 0890 17       		.uleb128 0x17
 4693 0891 01       		.uleb128 0x1
 4694 0892 53       		.byte	0x53
 4695 0893 02       		.uleb128 0x2
 4696 0894 08       		.byte	0x8
 4697 0895 5C       		.byte	0x5c
 4698 0896 17       		.uleb128 0x17
 4699 0897 02       		.uleb128 0x2
 4700 0898 7D       		.byte	0x7d
 4701 0899 00       		.sleb128 0
 4702 089a 01       		.uleb128 0x1
 4703 089b 31       		.byte	0x31
 4704 089c 17       		.uleb128 0x17
 4705 089d 02       		.uleb128 0x2
 4706 089e 7D       		.byte	0x7d
 4707 089f 04       		.sleb128 4
 4708 08a0 05       		.uleb128 0x5
 4709 08a1 03       		.byte	0x3
 4710 08a2 D4000000 		.4byte	.LC15
 4711 08a6 00       		.byte	0
 4712 08a7 00       		.byte	0
 4713 08a8 1E       		.uleb128 0x1e
 4714 08a9 0E000000 		.4byte	.LVL62
 4715 08ad A4270000 		.4byte	0x27a4
 4716 08b1 BC080000 		.4byte	0x8bc
 4717 08b5 17       		.uleb128 0x17
 4718 08b6 01       		.uleb128 0x1
 4719 08b7 50       		.byte	0x50
 4720 08b8 02       		.uleb128 0x2
 4721 08b9 74       		.byte	0x74
ARM GAS  C:\Users\Phuong\AppData\Local\Temp\ccaRXo0w.s 			page 105


 4722 08ba 00       		.sleb128 0
 4723 08bb 00       		.byte	0
 4724 08bc 1E       		.uleb128 0x1e
 4725 08bd 18000000 		.4byte	.LVL65
 4726 08c1 BA270000 		.4byte	0x27ba
 4727 08c5 D0080000 		.4byte	0x8d0
 4728 08c9 17       		.uleb128 0x17
 4729 08ca 01       		.uleb128 0x1
 4730 08cb 51       		.byte	0x51
 4731 08cc 02       		.uleb128 0x2
 4732 08cd 74       		.byte	0x74
 4733 08ce 00       		.sleb128 0
 4734 08cf 00       		.byte	0
 4735 08d0 16       		.uleb128 0x16
 4736 08d1 44000000 		.4byte	.LVL71
 4737 08d5 D0270000 		.4byte	0x27d0
 4738 08d9 17       		.uleb128 0x17
 4739 08da 01       		.uleb128 0x1
 4740 08db 51       		.byte	0x51
 4741 08dc 02       		.uleb128 0x2
 4742 08dd 76       		.byte	0x76
 4743 08de 00       		.sleb128 0
 4744 08df 00       		.byte	0
 4745 08e0 00       		.byte	0
 4746 08e1 1F       		.uleb128 0x1f
 4747 08e2 93000000 		.4byte	0x93
 4748 08e6 F1080000 		.4byte	0x8f1
 4749 08ea 20       		.uleb128 0x20
 4750 08eb 7D000000 		.4byte	0x7d
 4751 08ef 15       		.byte	0x15
 4752 08f0 00       		.byte	0
 4753 08f1 07       		.uleb128 0x7
 4754 08f2 E1080000 		.4byte	0x8e1
 4755 08f6 18       		.uleb128 0x18
 4756 08f7 8B070000 		.4byte	.LASF81
 4757 08fb 01       		.byte	0x1
 4758 08fc EF       		.byte	0xef
 4759 08fd 00000000 		.4byte	.LFB8
 4760 0901 3C010000 		.4byte	.LFE8-.LFB8
 4761 0905 01       		.uleb128 0x1
 4762 0906 9C       		.byte	0x9c
 4763 0907 9F0B0000 		.4byte	0xb9f
 4764 090b 12       		.uleb128 0x12
 4765 090c 56040000 		.4byte	.LASF66
 4766 0910 01       		.byte	0x1
 4767 0911 EF       		.byte	0xef
 4768 0912 EC010000 		.4byte	0x1ec
 4769 0916 C2040000 		.4byte	.LLST27
 4770 091a 15       		.uleb128 0x15
 4771 091b 77070000 		.4byte	.LASF69
 4772 091f 01       		.byte	0x1
 4773 0920 F1       		.byte	0xf1
 4774 0921 24010000 		.4byte	0x124
 4775 0925 EE040000 		.4byte	.LLST28
 4776 0929 19       		.uleb128 0x19
 4777 092a 560A0000 		.4byte	.LASF79
 4778 092e AF0B0000 		.4byte	0xbaf
ARM GAS  C:\Users\Phuong\AppData\Local\Temp\ccaRXo0w.s 			page 106


 4779 0932 05       		.uleb128 0x5
 4780 0933 03       		.byte	0x3
 4781 0934 58000000 		.4byte	__func__.6140
 4782 0938 1A       		.uleb128 0x1a
 4783 0939 08000000 		.4byte	.LBB8
 4784 093d 06010000 		.4byte	.LBE8-.LBB8
 4785 0941 950B0000 		.4byte	0xb95
 4786 0945 15       		.uleb128 0x15
 4787 0946 A4090000 		.4byte	.LASF63
 4788 094a 01       		.byte	0x1
 4789 094b F5       		.byte	0xf5
 4790 094c B9030000 		.4byte	0x3b9
 4791 0950 38050000 		.4byte	.LLST29
 4792 0954 1A       		.uleb128 0x1a
 4793 0955 12000000 		.4byte	.LBB9
 4794 0959 20000000 		.4byte	.LBE9-.LBB9
 4795 095d AE090000 		.4byte	0x9ae
 4796 0961 1B       		.uleb128 0x1b
 4797 0962 6C00     		.ascii	"l\000"
 4798 0964 01       		.byte	0x1
 4799 0965 F9       		.byte	0xf9
 4800 0966 D8000000 		.4byte	0xd8
 4801 096a 6C050000 		.4byte	.LLST30
 4802 096e 1C       		.uleb128 0x1c
 4803 096f 16000000 		.4byte	.LVL88
 4804 0973 AF270000 		.4byte	0x27af
 4805 0977 1D       		.uleb128 0x1d
 4806 0978 30000000 		.4byte	.LVL91
 4807 097c 02       		.uleb128 0x2
 4808 097d 74       		.byte	0x74
 4809 097e 00       		.sleb128 0
 4810 097f 17       		.uleb128 0x17
 4811 0980 01       		.uleb128 0x1
 4812 0981 50       		.byte	0x50
 4813 0982 01       		.uleb128 0x1
 4814 0983 30       		.byte	0x30
 4815 0984 17       		.uleb128 0x17
 4816 0985 01       		.uleb128 0x1
 4817 0986 51       		.byte	0x51
 4818 0987 05       		.uleb128 0x5
 4819 0988 03       		.byte	0x3
 4820 0989 00000000 		.4byte	.LC1
 4821 098d 17       		.uleb128 0x17
 4822 098e 01       		.uleb128 0x1
 4823 098f 52       		.byte	0x52
 4824 0990 05       		.uleb128 0x5
 4825 0991 03       		.byte	0x3
 4826 0992 58000000 		.4byte	.LANCHOR0+88
 4827 0996 17       		.uleb128 0x17
 4828 0997 01       		.uleb128 0x1
 4829 0998 53       		.byte	0x53
 4830 0999 02       		.uleb128 0x2
 4831 099a 08       		.byte	0x8
 4832 099b F9       		.byte	0xf9
 4833 099c 17       		.uleb128 0x17
 4834 099d 02       		.uleb128 0x2
 4835 099e 7D       		.byte	0x7d
ARM GAS  C:\Users\Phuong\AppData\Local\Temp\ccaRXo0w.s 			page 107


 4836 099f 00       		.sleb128 0
 4837 09a0 01       		.uleb128 0x1
 4838 09a1 31       		.byte	0x31
 4839 09a2 17       		.uleb128 0x17
 4840 09a3 02       		.uleb128 0x2
 4841 09a4 7D       		.byte	0x7d
 4842 09a5 04       		.sleb128 4
 4843 09a6 05       		.uleb128 0x5
 4844 09a7 03       		.byte	0x3
 4845 09a8 00010000 		.4byte	.LC19
 4846 09ac 00       		.byte	0
 4847 09ad 00       		.byte	0
 4848 09ae 1A       		.uleb128 0x1a
 4849 09af 3E000000 		.4byte	.LBB10
 4850 09b3 20000000 		.4byte	.LBE10-.LBB10
 4851 09b7 080A0000 		.4byte	0xa08
 4852 09bb 1B       		.uleb128 0x1b
 4853 09bc 6C00     		.ascii	"l\000"
 4854 09be 01       		.byte	0x1
 4855 09bf FE       		.byte	0xfe
 4856 09c0 D8000000 		.4byte	0xd8
 4857 09c4 8A050000 		.4byte	.LLST31
 4858 09c8 1C       		.uleb128 0x1c
 4859 09c9 42000000 		.4byte	.LVL95
 4860 09cd AF270000 		.4byte	0x27af
 4861 09d1 1D       		.uleb128 0x1d
 4862 09d2 5E000000 		.4byte	.LVL98
 4863 09d6 02       		.uleb128 0x2
 4864 09d7 75       		.byte	0x75
 4865 09d8 00       		.sleb128 0
 4866 09d9 17       		.uleb128 0x17
 4867 09da 01       		.uleb128 0x1
 4868 09db 50       		.byte	0x50
 4869 09dc 01       		.uleb128 0x1
 4870 09dd 30       		.byte	0x30
 4871 09de 17       		.uleb128 0x17
 4872 09df 01       		.uleb128 0x1
 4873 09e0 51       		.byte	0x51
 4874 09e1 05       		.uleb128 0x5
 4875 09e2 03       		.byte	0x3
 4876 09e3 00000000 		.4byte	.LC1
 4877 09e7 17       		.uleb128 0x17
 4878 09e8 01       		.uleb128 0x1
 4879 09e9 52       		.byte	0x52
 4880 09ea 05       		.uleb128 0x5
 4881 09eb 03       		.byte	0x3
 4882 09ec 58000000 		.4byte	.LANCHOR0+88
 4883 09f0 17       		.uleb128 0x17
 4884 09f1 01       		.uleb128 0x1
 4885 09f2 53       		.byte	0x53
 4886 09f3 02       		.uleb128 0x2
 4887 09f4 08       		.byte	0x8
 4888 09f5 FE       		.byte	0xfe
 4889 09f6 17       		.uleb128 0x17
 4890 09f7 02       		.uleb128 0x2
 4891 09f8 7D       		.byte	0x7d
 4892 09f9 00       		.sleb128 0
ARM GAS  C:\Users\Phuong\AppData\Local\Temp\ccaRXo0w.s 			page 108


 4893 09fa 01       		.uleb128 0x1
 4894 09fb 31       		.byte	0x31
 4895 09fc 17       		.uleb128 0x17
 4896 09fd 02       		.uleb128 0x2
 4897 09fe 7D       		.byte	0x7d
 4898 09ff 04       		.sleb128 4
 4899 0a00 05       		.uleb128 0x5
 4900 0a01 03       		.byte	0x3
 4901 0a02 34010000 		.4byte	.LC21
 4902 0a06 00       		.byte	0
 4903 0a07 00       		.byte	0
 4904 0a08 1A       		.uleb128 0x1a
 4905 0a09 7C000000 		.4byte	.LBB11
 4906 0a0d 22000000 		.4byte	.LBE11-.LBB11
 4907 0a11 640A0000 		.4byte	0xa64
 4908 0a15 24       		.uleb128 0x24
 4909 0a16 6C00     		.ascii	"l\000"
 4910 0a18 01       		.byte	0x1
 4911 0a19 0E01     		.2byte	0x10e
 4912 0a1b D8000000 		.4byte	0xd8
 4913 0a1f A8050000 		.4byte	.LLST32
 4914 0a23 1C       		.uleb128 0x1c
 4915 0a24 80000000 		.4byte	.LVL103
 4916 0a28 AF270000 		.4byte	0x27af
 4917 0a2c 1D       		.uleb128 0x1d
 4918 0a2d 9E000000 		.4byte	.LVL106
 4919 0a31 02       		.uleb128 0x2
 4920 0a32 75       		.byte	0x75
 4921 0a33 00       		.sleb128 0
 4922 0a34 17       		.uleb128 0x17
 4923 0a35 01       		.uleb128 0x1
 4924 0a36 50       		.byte	0x50
 4925 0a37 01       		.uleb128 0x1
 4926 0a38 30       		.byte	0x30
 4927 0a39 17       		.uleb128 0x17
 4928 0a3a 01       		.uleb128 0x1
 4929 0a3b 51       		.byte	0x51
 4930 0a3c 05       		.uleb128 0x5
 4931 0a3d 03       		.byte	0x3
 4932 0a3e 00000000 		.4byte	.LC1
 4933 0a42 17       		.uleb128 0x17
 4934 0a43 01       		.uleb128 0x1
 4935 0a44 52       		.byte	0x52
 4936 0a45 05       		.uleb128 0x5
 4937 0a46 03       		.byte	0x3
 4938 0a47 58000000 		.4byte	.LANCHOR0+88
 4939 0a4b 17       		.uleb128 0x17
 4940 0a4c 01       		.uleb128 0x1
 4941 0a4d 53       		.byte	0x53
 4942 0a4e 03       		.uleb128 0x3
 4943 0a4f 0A       		.byte	0xa
 4944 0a50 0E01     		.2byte	0x10e
 4945 0a52 17       		.uleb128 0x17
 4946 0a53 02       		.uleb128 0x2
 4947 0a54 7D       		.byte	0x7d
 4948 0a55 00       		.sleb128 0
 4949 0a56 01       		.uleb128 0x1
ARM GAS  C:\Users\Phuong\AppData\Local\Temp\ccaRXo0w.s 			page 109


 4950 0a57 31       		.byte	0x31
 4951 0a58 17       		.uleb128 0x17
 4952 0a59 02       		.uleb128 0x2
 4953 0a5a 7D       		.byte	0x7d
 4954 0a5b 04       		.sleb128 4
 4955 0a5c 05       		.uleb128 0x5
 4956 0a5d 03       		.byte	0x3
 4957 0a5e 64010000 		.4byte	.LC23
 4958 0a62 00       		.byte	0
 4959 0a63 00       		.byte	0
 4960 0a64 1A       		.uleb128 0x1a
 4961 0a65 C2000000 		.4byte	.LBB12
 4962 0a69 22000000 		.4byte	.LBE12-.LBB12
 4963 0a6d C00A0000 		.4byte	0xac0
 4964 0a71 24       		.uleb128 0x24
 4965 0a72 6C00     		.ascii	"l\000"
 4966 0a74 01       		.byte	0x1
 4967 0a75 1B01     		.2byte	0x11b
 4968 0a77 D8000000 		.4byte	0xd8
 4969 0a7b C6050000 		.4byte	.LLST33
 4970 0a7f 1C       		.uleb128 0x1c
 4971 0a80 C6000000 		.4byte	.LVL112
 4972 0a84 AF270000 		.4byte	0x27af
 4973 0a88 1D       		.uleb128 0x1d
 4974 0a89 E4000000 		.4byte	.LVL115
 4975 0a8d 02       		.uleb128 0x2
 4976 0a8e 75       		.byte	0x75
 4977 0a8f 00       		.sleb128 0
 4978 0a90 17       		.uleb128 0x17
 4979 0a91 01       		.uleb128 0x1
 4980 0a92 50       		.byte	0x50
 4981 0a93 01       		.uleb128 0x1
 4982 0a94 30       		.byte	0x30
 4983 0a95 17       		.uleb128 0x17
 4984 0a96 01       		.uleb128 0x1
 4985 0a97 51       		.byte	0x51
 4986 0a98 05       		.uleb128 0x5
 4987 0a99 03       		.byte	0x3
 4988 0a9a 00000000 		.4byte	.LC1
 4989 0a9e 17       		.uleb128 0x17
 4990 0a9f 01       		.uleb128 0x1
 4991 0aa0 52       		.byte	0x52
 4992 0aa1 05       		.uleb128 0x5
 4993 0aa2 03       		.byte	0x3
 4994 0aa3 58000000 		.4byte	.LANCHOR0+88
 4995 0aa7 17       		.uleb128 0x17
 4996 0aa8 01       		.uleb128 0x1
 4997 0aa9 53       		.byte	0x53
 4998 0aaa 03       		.uleb128 0x3
 4999 0aab 0A       		.byte	0xa
 5000 0aac 1B01     		.2byte	0x11b
 5001 0aae 17       		.uleb128 0x17
 5002 0aaf 02       		.uleb128 0x2
 5003 0ab0 7D       		.byte	0x7d
 5004 0ab1 00       		.sleb128 0
 5005 0ab2 01       		.uleb128 0x1
 5006 0ab3 31       		.byte	0x31
ARM GAS  C:\Users\Phuong\AppData\Local\Temp\ccaRXo0w.s 			page 110


 5007 0ab4 17       		.uleb128 0x17
 5008 0ab5 02       		.uleb128 0x2
 5009 0ab6 7D       		.byte	0x7d
 5010 0ab7 04       		.sleb128 4
 5011 0ab8 05       		.uleb128 0x5
 5012 0ab9 03       		.byte	0x3
 5013 0aba 98010000 		.4byte	.LC25
 5014 0abe 00       		.byte	0
 5015 0abf 00       		.byte	0
 5016 0ac0 1E       		.uleb128 0x1e
 5017 0ac1 0E000000 		.4byte	.LVL86
 5018 0ac5 A4270000 		.4byte	0x27a4
 5019 0ac9 D40A0000 		.4byte	0xad4
 5020 0acd 17       		.uleb128 0x17
 5021 0ace 01       		.uleb128 0x1
 5022 0acf 50       		.byte	0x50
 5023 0ad0 02       		.uleb128 0x2
 5024 0ad1 75       		.byte	0x75
 5025 0ad2 00       		.sleb128 0
 5026 0ad3 00       		.byte	0
 5027 0ad4 1E       		.uleb128 0x1e
 5028 0ad5 3A000000 		.4byte	.LVL94
 5029 0ad9 BA270000 		.4byte	0x27ba
 5030 0add E80A0000 		.4byte	0xae8
 5031 0ae1 17       		.uleb128 0x17
 5032 0ae2 01       		.uleb128 0x1
 5033 0ae3 51       		.byte	0x51
 5034 0ae4 02       		.uleb128 0x2
 5035 0ae5 75       		.byte	0x75
 5036 0ae6 00       		.sleb128 0
 5037 0ae7 00       		.byte	0
 5038 0ae8 26       		.uleb128 0x26
 5039 0ae9 6E000000 		.4byte	.LVL100
 5040 0aed 02       		.uleb128 0x2
 5041 0aee 75       		.byte	0x75
 5042 0aef 00       		.sleb128 0
 5043 0af0 FF0A0000 		.4byte	0xaff
 5044 0af4 17       		.uleb128 0x17
 5045 0af5 01       		.uleb128 0x1
 5046 0af6 51       		.byte	0x51
 5047 0af7 01       		.uleb128 0x1
 5048 0af8 31       		.byte	0x31
 5049 0af9 17       		.uleb128 0x17
 5050 0afa 01       		.uleb128 0x1
 5051 0afb 52       		.byte	0x52
 5052 0afc 01       		.uleb128 0x1
 5053 0afd 30       		.byte	0x30
 5054 0afe 00       		.byte	0
 5055 0aff 1E       		.uleb128 0x1e
 5056 0b00 76000000 		.4byte	.LVL102
 5057 0b04 E6270000 		.4byte	0x27e6
 5058 0b08 120B0000 		.4byte	0xb12
 5059 0b0c 17       		.uleb128 0x17
 5060 0b0d 01       		.uleb128 0x1
 5061 0b0e 50       		.byte	0x50
 5062 0b0f 01       		.uleb128 0x1
 5063 0b10 30       		.byte	0x30
ARM GAS  C:\Users\Phuong\AppData\Local\Temp\ccaRXo0w.s 			page 111


 5064 0b11 00       		.byte	0
 5065 0b12 26       		.uleb128 0x26
 5066 0b13 AE000000 		.4byte	.LVL108
 5067 0b17 02       		.uleb128 0x2
 5068 0b18 75       		.byte	0x75
 5069 0b19 00       		.sleb128 0
 5070 0b1a 290B0000 		.4byte	0xb29
 5071 0b1e 17       		.uleb128 0x17
 5072 0b1f 01       		.uleb128 0x1
 5073 0b20 51       		.byte	0x51
 5074 0b21 01       		.uleb128 0x1
 5075 0b22 31       		.byte	0x31
 5076 0b23 17       		.uleb128 0x17
 5077 0b24 01       		.uleb128 0x1
 5078 0b25 52       		.byte	0x52
 5079 0b26 01       		.uleb128 0x1
 5080 0b27 30       		.byte	0x30
 5081 0b28 00       		.byte	0
 5082 0b29 1E       		.uleb128 0x1e
 5083 0b2a B4000000 		.4byte	.LVL109
 5084 0b2e C5270000 		.4byte	0x27c5
 5085 0b32 3D0B0000 		.4byte	0xb3d
 5086 0b36 17       		.uleb128 0x17
 5087 0b37 01       		.uleb128 0x1
 5088 0b38 50       		.byte	0x50
 5089 0b39 02       		.uleb128 0x2
 5090 0b3a 74       		.byte	0x74
 5091 0b3b 00       		.sleb128 0
 5092 0b3c 00       		.byte	0
 5093 0b3d 1E       		.uleb128 0x1e
 5094 0b3e BE000000 		.4byte	.LVL111
 5095 0b42 D0270000 		.4byte	0x27d0
 5096 0b46 510B0000 		.4byte	0xb51
 5097 0b4a 17       		.uleb128 0x17
 5098 0b4b 01       		.uleb128 0x1
 5099 0b4c 51       		.byte	0x51
 5100 0b4d 02       		.uleb128 0x2
 5101 0b4e 74       		.byte	0x74
 5102 0b4f 00       		.sleb128 0
 5103 0b50 00       		.byte	0
 5104 0b51 26       		.uleb128 0x26
 5105 0b52 F4000000 		.4byte	.LVL117
 5106 0b56 02       		.uleb128 0x2
 5107 0b57 75       		.byte	0x75
 5108 0b58 00       		.sleb128 0
 5109 0b59 680B0000 		.4byte	0xb68
 5110 0b5d 17       		.uleb128 0x17
 5111 0b5e 01       		.uleb128 0x1
 5112 0b5f 51       		.byte	0x51
 5113 0b60 01       		.uleb128 0x1
 5114 0b61 31       		.byte	0x31
 5115 0b62 17       		.uleb128 0x17
 5116 0b63 01       		.uleb128 0x1
 5117 0b64 52       		.byte	0x52
 5118 0b65 01       		.uleb128 0x1
 5119 0b66 30       		.byte	0x30
 5120 0b67 00       		.byte	0
ARM GAS  C:\Users\Phuong\AppData\Local\Temp\ccaRXo0w.s 			page 112


 5121 0b68 1E       		.uleb128 0x1e
 5122 0b69 FA000000 		.4byte	.LVL118
 5123 0b6d C5270000 		.4byte	0x27c5
 5124 0b71 7C0B0000 		.4byte	0xb7c
 5125 0b75 17       		.uleb128 0x17
 5126 0b76 01       		.uleb128 0x1
 5127 0b77 50       		.byte	0x50
 5128 0b78 02       		.uleb128 0x2
 5129 0b79 74       		.byte	0x74
 5130 0b7a 00       		.sleb128 0
 5131 0b7b 00       		.byte	0
 5132 0b7c 1D       		.uleb128 0x1d
 5133 0b7d 0E010000 		.4byte	.LVL121
 5134 0b81 02       		.uleb128 0x2
 5135 0b82 74       		.byte	0x74
 5136 0b83 00       		.sleb128 0
 5137 0b84 17       		.uleb128 0x17
 5138 0b85 01       		.uleb128 0x1
 5139 0b86 50       		.byte	0x50
 5140 0b87 02       		.uleb128 0x2
 5141 0b88 76       		.byte	0x76
 5142 0b89 00       		.sleb128 0
 5143 0b8a 17       		.uleb128 0x17
 5144 0b8b 01       		.uleb128 0x1
 5145 0b8c 52       		.byte	0x52
 5146 0b8d 05       		.uleb128 0x5
 5147 0b8e 03       		.byte	0x3
 5148 0b8f 00000000 		.4byte	on_process_message_completed_callback
 5149 0b93 00       		.byte	0
 5150 0b94 00       		.byte	0
 5151 0b95 1C       		.uleb128 0x1c
 5152 0b96 14010000 		.4byte	.LVL122
 5153 0b9a DB270000 		.4byte	0x27db
 5154 0b9e 00       		.byte	0
 5155 0b9f 1F       		.uleb128 0x1f
 5156 0ba0 93000000 		.4byte	0x93
 5157 0ba4 AF0B0000 		.4byte	0xbaf
 5158 0ba8 20       		.uleb128 0x20
 5159 0ba9 7D000000 		.4byte	0x7d
 5160 0bad 18       		.byte	0x18
 5161 0bae 00       		.byte	0
 5162 0baf 07       		.uleb128 0x7
 5163 0bb0 9F0B0000 		.4byte	0xb9f
 5164 0bb4 11       		.uleb128 0x11
 5165 0bb5 D3070000 		.4byte	.LASF82
 5166 0bb9 01       		.byte	0x1
 5167 0bba 96       		.byte	0x96
 5168 0bbb 00000000 		.4byte	.LFB7
 5169 0bbf A4010000 		.4byte	.LFE7-.LFB7
 5170 0bc3 01       		.uleb128 0x1
 5171 0bc4 9C       		.byte	0x9c
 5172 0bc5 410F0000 		.4byte	0xf41
 5173 0bc9 12       		.uleb128 0x12
 5174 0bca 56040000 		.4byte	.LASF66
 5175 0bce 01       		.byte	0x1
 5176 0bcf 96       		.byte	0x96
 5177 0bd0 EC010000 		.4byte	0x1ec
ARM GAS  C:\Users\Phuong\AppData\Local\Temp\ccaRXo0w.s 			page 113


 5178 0bd4 E4050000 		.4byte	.LLST34
 5179 0bd8 15       		.uleb128 0x15
 5180 0bd9 95030000 		.4byte	.LASF83
 5181 0bdd 01       		.byte	0x1
 5182 0bde 98       		.byte	0x98
 5183 0bdf 9F000000 		.4byte	0x9f
 5184 0be3 10060000 		.4byte	.LLST35
 5185 0be7 19       		.uleb128 0x19
 5186 0be8 560A0000 		.4byte	.LASF79
 5187 0bec 510F0000 		.4byte	0xf51
 5188 0bf0 05       		.uleb128 0x5
 5189 0bf1 03       		.byte	0x3
 5190 0bf2 74000000 		.4byte	__func__.6105
 5191 0bf6 1A       		.uleb128 0x1a
 5192 0bf7 12000000 		.4byte	.LBB13
 5193 0bfb 20000000 		.4byte	.LBE13-.LBB13
 5194 0bff 500C0000 		.4byte	0xc50
 5195 0c03 1B       		.uleb128 0x1b
 5196 0c04 6C00     		.ascii	"l\000"
 5197 0c06 01       		.byte	0x1
 5198 0c07 9C       		.byte	0x9c
 5199 0c08 D8000000 		.4byte	0xd8
 5200 0c0c 44060000 		.4byte	.LLST36
 5201 0c10 1C       		.uleb128 0x1c
 5202 0c11 16000000 		.4byte	.LVL130
 5203 0c15 AF270000 		.4byte	0x27af
 5204 0c19 1D       		.uleb128 0x1d
 5205 0c1a 30000000 		.4byte	.LVL133
 5206 0c1e 02       		.uleb128 0x2
 5207 0c1f 74       		.byte	0x74
 5208 0c20 00       		.sleb128 0
 5209 0c21 17       		.uleb128 0x17
 5210 0c22 01       		.uleb128 0x1
 5211 0c23 50       		.byte	0x50
 5212 0c24 01       		.uleb128 0x1
 5213 0c25 30       		.byte	0x30
 5214 0c26 17       		.uleb128 0x17
 5215 0c27 01       		.uleb128 0x1
 5216 0c28 51       		.byte	0x51
 5217 0c29 05       		.uleb128 0x5
 5218 0c2a 03       		.byte	0x3
 5219 0c2b 00000000 		.4byte	.LC1
 5220 0c2f 17       		.uleb128 0x17
 5221 0c30 01       		.uleb128 0x1
 5222 0c31 52       		.byte	0x52
 5223 0c32 05       		.uleb128 0x5
 5224 0c33 03       		.byte	0x3
 5225 0c34 74000000 		.4byte	.LANCHOR0+116
 5226 0c38 17       		.uleb128 0x17
 5227 0c39 01       		.uleb128 0x1
 5228 0c3a 53       		.byte	0x53
 5229 0c3b 02       		.uleb128 0x2
 5230 0c3c 08       		.byte	0x8
 5231 0c3d 9C       		.byte	0x9c
 5232 0c3e 17       		.uleb128 0x17
 5233 0c3f 02       		.uleb128 0x2
 5234 0c40 7D       		.byte	0x7d
ARM GAS  C:\Users\Phuong\AppData\Local\Temp\ccaRXo0w.s 			page 114


 5235 0c41 00       		.sleb128 0
 5236 0c42 01       		.uleb128 0x1
 5237 0c43 31       		.byte	0x31
 5238 0c44 17       		.uleb128 0x17
 5239 0c45 02       		.uleb128 0x2
 5240 0c46 7D       		.byte	0x7d
 5241 0c47 04       		.sleb128 4
 5242 0c48 05       		.uleb128 0x5
 5243 0c49 03       		.byte	0x3
 5244 0c4a C8010000 		.4byte	.LC30
 5245 0c4e 00       		.byte	0
 5246 0c4f 00       		.byte	0
 5247 0c50 27       		.uleb128 0x27
 5248 0c51 00000000 		.4byte	.Ldebug_ranges0+0
 5249 0c55 330E0000 		.4byte	0xe33
 5250 0c59 15       		.uleb128 0x15
 5251 0c5a 77070000 		.4byte	.LASF69
 5252 0c5e 01       		.byte	0x1
 5253 0c5f A3       		.byte	0xa3
 5254 0c60 24010000 		.4byte	0x124
 5255 0c64 62060000 		.4byte	.LLST37
 5256 0c68 1A       		.uleb128 0x1a
 5257 0c69 42000000 		.4byte	.LBB15
 5258 0c6d 60000000 		.4byte	.LBE15-.LBB15
 5259 0c71 440D0000 		.4byte	0xd44
 5260 0c75 15       		.uleb128 0x15
 5261 0c76 27060000 		.4byte	.LASF84
 5262 0c7a 01       		.byte	0x1
 5263 0c7b A7       		.byte	0xa7
 5264 0c7c 24010000 		.4byte	0x124
 5265 0c80 08070000 		.4byte	.LLST38
 5266 0c84 15       		.uleb128 0x15
 5267 0c85 A4090000 		.4byte	.LASF63
 5268 0c89 01       		.byte	0x1
 5269 0c8a A8       		.byte	0xa8
 5270 0c8b B9030000 		.4byte	0x3b9
 5271 0c8f 26070000 		.4byte	.LLST39
 5272 0c93 1A       		.uleb128 0x1a
 5273 0c94 56000000 		.4byte	.LBB16
 5274 0c98 1E000000 		.4byte	.LBE16-.LBB16
 5275 0c9c ED0C0000 		.4byte	0xced
 5276 0ca0 1B       		.uleb128 0x1b
 5277 0ca1 6C00     		.ascii	"l\000"
 5278 0ca3 01       		.byte	0x1
 5279 0ca4 AE       		.byte	0xae
 5280 0ca5 D8000000 		.4byte	0xd8
 5281 0ca9 44070000 		.4byte	.LLST40
 5282 0cad 1C       		.uleb128 0x1c
 5283 0cae 5A000000 		.4byte	.LVL144
 5284 0cb2 AF270000 		.4byte	0x27af
 5285 0cb6 1D       		.uleb128 0x1d
 5286 0cb7 72000000 		.4byte	.LVL147
 5287 0cbb 02       		.uleb128 0x2
 5288 0cbc 74       		.byte	0x74
 5289 0cbd 00       		.sleb128 0
 5290 0cbe 17       		.uleb128 0x17
 5291 0cbf 01       		.uleb128 0x1
ARM GAS  C:\Users\Phuong\AppData\Local\Temp\ccaRXo0w.s 			page 115


 5292 0cc0 50       		.byte	0x50
 5293 0cc1 01       		.uleb128 0x1
 5294 0cc2 30       		.byte	0x30
 5295 0cc3 17       		.uleb128 0x17
 5296 0cc4 01       		.uleb128 0x1
 5297 0cc5 51       		.byte	0x51
 5298 0cc6 05       		.uleb128 0x5
 5299 0cc7 03       		.byte	0x3
 5300 0cc8 00000000 		.4byte	.LC1
 5301 0ccc 17       		.uleb128 0x17
 5302 0ccd 01       		.uleb128 0x1
 5303 0cce 52       		.byte	0x52
 5304 0ccf 05       		.uleb128 0x5
 5305 0cd0 03       		.byte	0x3
 5306 0cd1 74000000 		.4byte	.LANCHOR0+116
 5307 0cd5 17       		.uleb128 0x17
 5308 0cd6 01       		.uleb128 0x1
 5309 0cd7 53       		.byte	0x53
 5310 0cd8 02       		.uleb128 0x2
 5311 0cd9 08       		.byte	0x8
 5312 0cda AE       		.byte	0xae
 5313 0cdb 17       		.uleb128 0x17
 5314 0cdc 02       		.uleb128 0x2
 5315 0cdd 7D       		.byte	0x7d
 5316 0cde 00       		.sleb128 0
 5317 0cdf 01       		.uleb128 0x1
 5318 0ce0 31       		.byte	0x31
 5319 0ce1 17       		.uleb128 0x17
 5320 0ce2 02       		.uleb128 0x2
 5321 0ce3 7D       		.byte	0x7d
 5322 0ce4 04       		.sleb128 4
 5323 0ce5 05       		.uleb128 0x5
 5324 0ce6 03       		.byte	0x3
 5325 0ce7 F8010000 		.4byte	.LC32
 5326 0ceb 00       		.byte	0
 5327 0cec 00       		.byte	0
 5328 0ced 1E       		.uleb128 0x1e
 5329 0cee 48000000 		.4byte	.LVL139
 5330 0cf2 A4270000 		.4byte	0x27a4
 5331 0cf6 010D0000 		.4byte	0xd01
 5332 0cfa 17       		.uleb128 0x17
 5333 0cfb 01       		.uleb128 0x1
 5334 0cfc 50       		.byte	0x50
 5335 0cfd 02       		.uleb128 0x2
 5336 0cfe 74       		.byte	0x74
 5337 0cff 00       		.sleb128 0
 5338 0d00 00       		.byte	0
 5339 0d01 1E       		.uleb128 0x1e
 5340 0d02 50000000 		.4byte	.LVL142
 5341 0d06 F1270000 		.4byte	0x27f1
 5342 0d0a 150D0000 		.4byte	0xd15
 5343 0d0e 17       		.uleb128 0x17
 5344 0d0f 01       		.uleb128 0x1
 5345 0d10 50       		.byte	0x50
 5346 0d11 02       		.uleb128 0x2
 5347 0d12 74       		.byte	0x74
 5348 0d13 00       		.sleb128 0
ARM GAS  C:\Users\Phuong\AppData\Local\Temp\ccaRXo0w.s 			page 116


 5349 0d14 00       		.byte	0
 5350 0d15 1E       		.uleb128 0x1e
 5351 0d16 7C000000 		.4byte	.LVL150
 5352 0d1a FC270000 		.4byte	0x27fc
 5353 0d1e 290D0000 		.4byte	0xd29
 5354 0d22 17       		.uleb128 0x17
 5355 0d23 01       		.uleb128 0x1
 5356 0d24 50       		.byte	0x50
 5357 0d25 02       		.uleb128 0x2
 5358 0d26 75       		.byte	0x75
 5359 0d27 00       		.sleb128 0
 5360 0d28 00       		.byte	0
 5361 0d29 16       		.uleb128 0x16
 5362 0d2a A2000000 		.4byte	.LVL153
 5363 0d2e 71040000 		.4byte	0x471
 5364 0d32 17       		.uleb128 0x17
 5365 0d33 01       		.uleb128 0x1
 5366 0d34 51       		.byte	0x51
 5367 0d35 02       		.uleb128 0x2
 5368 0d36 74       		.byte	0x74
 5369 0d37 00       		.sleb128 0
 5370 0d38 17       		.uleb128 0x17
 5371 0d39 01       		.uleb128 0x1
 5372 0d3a 52       		.byte	0x52
 5373 0d3b 01       		.uleb128 0x1
 5374 0d3c 33       		.byte	0x33
 5375 0d3d 17       		.uleb128 0x17
 5376 0d3e 01       		.uleb128 0x1
 5377 0d3f 53       		.byte	0x53
 5378 0d40 01       		.uleb128 0x1
 5379 0d41 30       		.byte	0x30
 5380 0d42 00       		.byte	0
 5381 0d43 00       		.byte	0
 5382 0d44 1A       		.uleb128 0x1a
 5383 0d45 B2000000 		.4byte	.LBB17
 5384 0d49 60000000 		.4byte	.LBE17-.LBB17
 5385 0d4d 200E0000 		.4byte	0xe20
 5386 0d51 15       		.uleb128 0x15
 5387 0d52 27060000 		.4byte	.LASF84
 5388 0d56 01       		.byte	0x1
 5389 0d57 C0       		.byte	0xc0
 5390 0d58 24010000 		.4byte	0x124
 5391 0d5c 62070000 		.4byte	.LLST41
 5392 0d60 15       		.uleb128 0x15
 5393 0d61 A4090000 		.4byte	.LASF63
 5394 0d65 01       		.byte	0x1
 5395 0d66 C1       		.byte	0xc1
 5396 0d67 B9030000 		.4byte	0x3b9
 5397 0d6b 80070000 		.4byte	.LLST42
 5398 0d6f 1A       		.uleb128 0x1a
 5399 0d70 C6000000 		.4byte	.LBB18
 5400 0d74 1E000000 		.4byte	.LBE18-.LBB18
 5401 0d78 C90D0000 		.4byte	0xdc9
 5402 0d7c 1B       		.uleb128 0x1b
 5403 0d7d 6C00     		.ascii	"l\000"
 5404 0d7f 01       		.byte	0x1
 5405 0d80 C7       		.byte	0xc7
ARM GAS  C:\Users\Phuong\AppData\Local\Temp\ccaRXo0w.s 			page 117


 5406 0d81 D8000000 		.4byte	0xd8
 5407 0d85 9E070000 		.4byte	.LLST43
 5408 0d89 1C       		.uleb128 0x1c
 5409 0d8a CA000000 		.4byte	.LVL164
 5410 0d8e AF270000 		.4byte	0x27af
 5411 0d92 1D       		.uleb128 0x1d
 5412 0d93 E2000000 		.4byte	.LVL167
 5413 0d97 02       		.uleb128 0x2
 5414 0d98 74       		.byte	0x74
 5415 0d99 00       		.sleb128 0
 5416 0d9a 17       		.uleb128 0x17
 5417 0d9b 01       		.uleb128 0x1
 5418 0d9c 50       		.byte	0x50
 5419 0d9d 01       		.uleb128 0x1
 5420 0d9e 30       		.byte	0x30
 5421 0d9f 17       		.uleb128 0x17
 5422 0da0 01       		.uleb128 0x1
 5423 0da1 51       		.byte	0x51
 5424 0da2 05       		.uleb128 0x5
 5425 0da3 03       		.byte	0x3
 5426 0da4 00000000 		.4byte	.LC1
 5427 0da8 17       		.uleb128 0x17
 5428 0da9 01       		.uleb128 0x1
 5429 0daa 52       		.byte	0x52
 5430 0dab 05       		.uleb128 0x5
 5431 0dac 03       		.byte	0x3
 5432 0dad 74000000 		.4byte	.LANCHOR0+116
 5433 0db1 17       		.uleb128 0x17
 5434 0db2 01       		.uleb128 0x1
 5435 0db3 53       		.byte	0x53
 5436 0db4 02       		.uleb128 0x2
 5437 0db5 08       		.byte	0x8
 5438 0db6 C7       		.byte	0xc7
 5439 0db7 17       		.uleb128 0x17
 5440 0db8 02       		.uleb128 0x2
 5441 0db9 7D       		.byte	0x7d
 5442 0dba 00       		.sleb128 0
 5443 0dbb 01       		.uleb128 0x1
 5444 0dbc 31       		.byte	0x31
 5445 0dbd 17       		.uleb128 0x17
 5446 0dbe 02       		.uleb128 0x2
 5447 0dbf 7D       		.byte	0x7d
 5448 0dc0 04       		.sleb128 4
 5449 0dc1 05       		.uleb128 0x5
 5450 0dc2 03       		.byte	0x3
 5451 0dc3 F8010000 		.4byte	.LC32
 5452 0dc7 00       		.byte	0
 5453 0dc8 00       		.byte	0
 5454 0dc9 1E       		.uleb128 0x1e
 5455 0dca B8000000 		.4byte	.LVL159
 5456 0dce A4270000 		.4byte	0x27a4
 5457 0dd2 DD0D0000 		.4byte	0xddd
 5458 0dd6 17       		.uleb128 0x17
 5459 0dd7 01       		.uleb128 0x1
 5460 0dd8 50       		.byte	0x50
 5461 0dd9 02       		.uleb128 0x2
 5462 0dda 74       		.byte	0x74
ARM GAS  C:\Users\Phuong\AppData\Local\Temp\ccaRXo0w.s 			page 118


 5463 0ddb 00       		.sleb128 0
 5464 0ddc 00       		.byte	0
 5465 0ddd 1E       		.uleb128 0x1e
 5466 0dde C0000000 		.4byte	.LVL162
 5467 0de2 F1270000 		.4byte	0x27f1
 5468 0de6 F10D0000 		.4byte	0xdf1
 5469 0dea 17       		.uleb128 0x17
 5470 0deb 01       		.uleb128 0x1
 5471 0dec 50       		.byte	0x50
 5472 0ded 02       		.uleb128 0x2
 5473 0dee 74       		.byte	0x74
 5474 0def 00       		.sleb128 0
 5475 0df0 00       		.byte	0
 5476 0df1 1E       		.uleb128 0x1e
 5477 0df2 EC000000 		.4byte	.LVL170
 5478 0df6 FC270000 		.4byte	0x27fc
 5479 0dfa 050E0000 		.4byte	0xe05
 5480 0dfe 17       		.uleb128 0x17
 5481 0dff 01       		.uleb128 0x1
 5482 0e00 50       		.byte	0x50
 5483 0e01 02       		.uleb128 0x2
 5484 0e02 75       		.byte	0x75
 5485 0e03 00       		.sleb128 0
 5486 0e04 00       		.byte	0
 5487 0e05 16       		.uleb128 0x16
 5488 0e06 12010000 		.4byte	.LVL173
 5489 0e0a 71040000 		.4byte	0x471
 5490 0e0e 17       		.uleb128 0x17
 5491 0e0f 01       		.uleb128 0x1
 5492 0e10 51       		.byte	0x51
 5493 0e11 02       		.uleb128 0x2
 5494 0e12 74       		.byte	0x74
 5495 0e13 00       		.sleb128 0
 5496 0e14 17       		.uleb128 0x17
 5497 0e15 01       		.uleb128 0x1
 5498 0e16 52       		.byte	0x52
 5499 0e17 01       		.uleb128 0x1
 5500 0e18 33       		.byte	0x33
 5501 0e19 17       		.uleb128 0x17
 5502 0e1a 01       		.uleb128 0x1
 5503 0e1b 53       		.byte	0x53
 5504 0e1c 01       		.uleb128 0x1
 5505 0e1d 30       		.byte	0x30
 5506 0e1e 00       		.byte	0
 5507 0e1f 00       		.byte	0
 5508 0e20 1C       		.uleb128 0x1c
 5509 0e21 3E000000 		.4byte	.LVL136
 5510 0e25 DB270000 		.4byte	0x27db
 5511 0e29 1C       		.uleb128 0x1c
 5512 0e2a AE000000 		.4byte	.LVL156
 5513 0e2e DB270000 		.4byte	0x27db
 5514 0e32 00       		.byte	0
 5515 0e33 27       		.uleb128 0x27
 5516 0e34 20000000 		.4byte	.Ldebug_ranges0+0x20
 5517 0e38 310F0000 		.4byte	0xf31
 5518 0e3c 15       		.uleb128 0x15
 5519 0e3d 77070000 		.4byte	.LASF69
ARM GAS  C:\Users\Phuong\AppData\Local\Temp\ccaRXo0w.s 			page 119


 5520 0e41 01       		.byte	0x1
 5521 0e42 D4       		.byte	0xd4
 5522 0e43 24010000 		.4byte	0x124
 5523 0e47 BC070000 		.4byte	.LLST44
 5524 0e4b 1A       		.uleb128 0x1a
 5525 0e4c 28010000 		.4byte	.LBB22
 5526 0e50 60000000 		.4byte	.LBE22-.LBB22
 5527 0e54 270F0000 		.4byte	0xf27
 5528 0e58 15       		.uleb128 0x15
 5529 0e59 27060000 		.4byte	.LASF84
 5530 0e5d 01       		.byte	0x1
 5531 0e5e D8       		.byte	0xd8
 5532 0e5f 24010000 		.4byte	0x124
 5533 0e63 13080000 		.4byte	.LLST45
 5534 0e67 15       		.uleb128 0x15
 5535 0e68 A4090000 		.4byte	.LASF63
 5536 0e6c 01       		.byte	0x1
 5537 0e6d D9       		.byte	0xd9
 5538 0e6e B9030000 		.4byte	0x3b9
 5539 0e72 31080000 		.4byte	.LLST46
 5540 0e76 1A       		.uleb128 0x1a
 5541 0e77 3C010000 		.4byte	.LBB23
 5542 0e7b 1E000000 		.4byte	.LBE23-.LBB23
 5543 0e7f D00E0000 		.4byte	0xed0
 5544 0e83 1B       		.uleb128 0x1b
 5545 0e84 6C00     		.ascii	"l\000"
 5546 0e86 01       		.byte	0x1
 5547 0e87 DF       		.byte	0xdf
 5548 0e88 D8000000 		.4byte	0xd8
 5549 0e8c 4F080000 		.4byte	.LLST47
 5550 0e90 1C       		.uleb128 0x1c
 5551 0e91 40010000 		.4byte	.LVL184
 5552 0e95 AF270000 		.4byte	0x27af
 5553 0e99 1D       		.uleb128 0x1d
 5554 0e9a 58010000 		.4byte	.LVL187
 5555 0e9e 02       		.uleb128 0x2
 5556 0e9f 74       		.byte	0x74
 5557 0ea0 00       		.sleb128 0
 5558 0ea1 17       		.uleb128 0x17
 5559 0ea2 01       		.uleb128 0x1
 5560 0ea3 50       		.byte	0x50
 5561 0ea4 01       		.uleb128 0x1
 5562 0ea5 30       		.byte	0x30
 5563 0ea6 17       		.uleb128 0x17
 5564 0ea7 01       		.uleb128 0x1
 5565 0ea8 51       		.byte	0x51
 5566 0ea9 05       		.uleb128 0x5
 5567 0eaa 03       		.byte	0x3
 5568 0eab 00000000 		.4byte	.LC1
 5569 0eaf 17       		.uleb128 0x17
 5570 0eb0 01       		.uleb128 0x1
 5571 0eb1 52       		.byte	0x52
 5572 0eb2 05       		.uleb128 0x5
 5573 0eb3 03       		.byte	0x3
 5574 0eb4 74000000 		.4byte	.LANCHOR0+116
 5575 0eb8 17       		.uleb128 0x17
 5576 0eb9 01       		.uleb128 0x1
ARM GAS  C:\Users\Phuong\AppData\Local\Temp\ccaRXo0w.s 			page 120


 5577 0eba 53       		.byte	0x53
 5578 0ebb 02       		.uleb128 0x2
 5579 0ebc 08       		.byte	0x8
 5580 0ebd DF       		.byte	0xdf
 5581 0ebe 17       		.uleb128 0x17
 5582 0ebf 02       		.uleb128 0x2
 5583 0ec0 7D       		.byte	0x7d
 5584 0ec1 00       		.sleb128 0
 5585 0ec2 01       		.uleb128 0x1
 5586 0ec3 31       		.byte	0x31
 5587 0ec4 17       		.uleb128 0x17
 5588 0ec5 02       		.uleb128 0x2
 5589 0ec6 7D       		.byte	0x7d
 5590 0ec7 04       		.sleb128 4
 5591 0ec8 05       		.uleb128 0x5
 5592 0ec9 03       		.byte	0x3
 5593 0eca F8010000 		.4byte	.LC32
 5594 0ece 00       		.byte	0
 5595 0ecf 00       		.byte	0
 5596 0ed0 1E       		.uleb128 0x1e
 5597 0ed1 2E010000 		.4byte	.LVL179
 5598 0ed5 A4270000 		.4byte	0x27a4
 5599 0ed9 E40E0000 		.4byte	0xee4
 5600 0edd 17       		.uleb128 0x17
 5601 0ede 01       		.uleb128 0x1
 5602 0edf 50       		.byte	0x50
 5603 0ee0 02       		.uleb128 0x2
 5604 0ee1 74       		.byte	0x74
 5605 0ee2 00       		.sleb128 0
 5606 0ee3 00       		.byte	0
 5607 0ee4 1E       		.uleb128 0x1e
 5608 0ee5 36010000 		.4byte	.LVL182
 5609 0ee9 F1270000 		.4byte	0x27f1
 5610 0eed F80E0000 		.4byte	0xef8
 5611 0ef1 17       		.uleb128 0x17
 5612 0ef2 01       		.uleb128 0x1
 5613 0ef3 50       		.byte	0x50
 5614 0ef4 02       		.uleb128 0x2
 5615 0ef5 74       		.byte	0x74
 5616 0ef6 00       		.sleb128 0
 5617 0ef7 00       		.byte	0
 5618 0ef8 1E       		.uleb128 0x1e
 5619 0ef9 62010000 		.4byte	.LVL190
 5620 0efd FC270000 		.4byte	0x27fc
 5621 0f01 0C0F0000 		.4byte	0xf0c
 5622 0f05 17       		.uleb128 0x17
 5623 0f06 01       		.uleb128 0x1
 5624 0f07 50       		.byte	0x50
 5625 0f08 02       		.uleb128 0x2
 5626 0f09 75       		.byte	0x75
 5627 0f0a 00       		.sleb128 0
 5628 0f0b 00       		.byte	0
 5629 0f0c 16       		.uleb128 0x16
 5630 0f0d 88010000 		.4byte	.LVL193
 5631 0f11 71040000 		.4byte	0x471
 5632 0f15 17       		.uleb128 0x17
 5633 0f16 01       		.uleb128 0x1
ARM GAS  C:\Users\Phuong\AppData\Local\Temp\ccaRXo0w.s 			page 121


 5634 0f17 51       		.byte	0x51
 5635 0f18 02       		.uleb128 0x2
 5636 0f19 74       		.byte	0x74
 5637 0f1a 00       		.sleb128 0
 5638 0f1b 17       		.uleb128 0x17
 5639 0f1c 01       		.uleb128 0x1
 5640 0f1d 52       		.byte	0x52
 5641 0f1e 01       		.uleb128 0x1
 5642 0f1f 33       		.byte	0x33
 5643 0f20 17       		.uleb128 0x17
 5644 0f21 01       		.uleb128 0x1
 5645 0f22 53       		.byte	0x53
 5646 0f23 01       		.uleb128 0x1
 5647 0f24 30       		.byte	0x30
 5648 0f25 00       		.byte	0
 5649 0f26 00       		.byte	0
 5650 0f27 1C       		.uleb128 0x1c
 5651 0f28 24010000 		.4byte	.LVL176
 5652 0f2c DB270000 		.4byte	0x27db
 5653 0f30 00       		.byte	0
 5654 0f31 16       		.uleb128 0x16
 5655 0f32 0C000000 		.4byte	.LVL128
 5656 0f36 E6270000 		.4byte	0x27e6
 5657 0f3a 17       		.uleb128 0x17
 5658 0f3b 01       		.uleb128 0x1
 5659 0f3c 50       		.byte	0x50
 5660 0f3d 01       		.uleb128 0x1
 5661 0f3e 30       		.byte	0x30
 5662 0f3f 00       		.byte	0
 5663 0f40 00       		.byte	0
 5664 0f41 1F       		.uleb128 0x1f
 5665 0f42 93000000 		.4byte	0x93
 5666 0f46 510F0000 		.4byte	0xf51
 5667 0f4a 20       		.uleb128 0x20
 5668 0f4b 7D000000 		.4byte	0x7d
 5669 0f4f 10       		.byte	0x10
 5670 0f50 00       		.byte	0
 5671 0f51 07       		.uleb128 0x7
 5672 0f52 410F0000 		.4byte	0xf41
 5673 0f56 18       		.uleb128 0x18
 5674 0f57 A0050000 		.4byte	.LASF85
 5675 0f5b 01       		.byte	0x1
 5676 0f5c 78       		.byte	0x78
 5677 0f5d 00000000 		.4byte	.LFB6
 5678 0f61 A8000000 		.4byte	.LFE6-.LFB6
 5679 0f65 01       		.uleb128 0x1
 5680 0f66 9C       		.byte	0x9c
 5681 0f67 29110000 		.4byte	0x1129
 5682 0f6b 12       		.uleb128 0x12
 5683 0f6c 56040000 		.4byte	.LASF66
 5684 0f70 01       		.byte	0x1
 5685 0f71 78       		.byte	0x78
 5686 0f72 EC010000 		.4byte	0x1ec
 5687 0f76 6D080000 		.4byte	.LLST48
 5688 0f7a 12       		.uleb128 0x12
 5689 0f7b 72000000 		.4byte	.LASF56
 5690 0f7f 01       		.byte	0x1
ARM GAS  C:\Users\Phuong\AppData\Local\Temp\ccaRXo0w.s 			page 122


 5691 0f80 78       		.byte	0x78
 5692 0f81 FD010000 		.4byte	0x1fd
 5693 0f85 C8080000 		.4byte	.LLST49
 5694 0f89 12       		.uleb128 0x12
 5695 0f8a 5A020000 		.4byte	.LASF64
 5696 0f8e 01       		.byte	0x1
 5697 0f8f 78       		.byte	0x78
 5698 0f90 42020000 		.4byte	0x242
 5699 0f94 0A090000 		.4byte	.LLST50
 5700 0f98 12       		.uleb128 0x12
 5701 0f99 78020000 		.4byte	.LASF65
 5702 0f9d 01       		.byte	0x1
 5703 0f9e 78       		.byte	0x78
 5704 0f9f 08020000 		.4byte	0x208
 5705 0fa3 44090000 		.4byte	.LLST51
 5706 0fa7 19       		.uleb128 0x19
 5707 0fa8 560A0000 		.4byte	.LASF79
 5708 0fac 39110000 		.4byte	0x1139
 5709 0fb0 05       		.uleb128 0x5
 5710 0fb1 03       		.byte	0x3
 5711 0fb2 88000000 		.4byte	__func__.6092
 5712 0fb6 1A       		.uleb128 0x1a
 5713 0fb7 14000000 		.4byte	.LBB25
 5714 0fbb 22000000 		.4byte	.LBE25-.LBB25
 5715 0fbf 1E100000 		.4byte	0x101e
 5716 0fc3 1B       		.uleb128 0x1b
 5717 0fc4 6C00     		.ascii	"l\000"
 5718 0fc6 01       		.byte	0x1
 5719 0fc7 7D       		.byte	0x7d
 5720 0fc8 D8000000 		.4byte	0xd8
 5721 0fcc 7A090000 		.4byte	.LLST52
 5722 0fd0 1C       		.uleb128 0x1c
 5723 0fd1 18000000 		.4byte	.LVL199
 5724 0fd5 AF270000 		.4byte	0x27af
 5725 0fd9 1D       		.uleb128 0x1d
 5726 0fda 34000000 		.4byte	.LVL202
 5727 0fde 02       		.uleb128 0x2
 5728 0fdf 75       		.byte	0x75
 5729 0fe0 00       		.sleb128 0
 5730 0fe1 17       		.uleb128 0x17
 5731 0fe2 01       		.uleb128 0x1
 5732 0fe3 50       		.byte	0x50
 5733 0fe4 01       		.uleb128 0x1
 5734 0fe5 30       		.byte	0x30
 5735 0fe6 17       		.uleb128 0x17
 5736 0fe7 01       		.uleb128 0x1
 5737 0fe8 51       		.byte	0x51
 5738 0fe9 05       		.uleb128 0x5
 5739 0fea 03       		.byte	0x3
 5740 0feb 00000000 		.4byte	.LC1
 5741 0fef 17       		.uleb128 0x17
 5742 0ff0 01       		.uleb128 0x1
 5743 0ff1 52       		.byte	0x52
 5744 0ff2 05       		.uleb128 0x5
 5745 0ff3 03       		.byte	0x3
 5746 0ff4 88000000 		.4byte	.LANCHOR1+8
 5747 0ff8 17       		.uleb128 0x17
ARM GAS  C:\Users\Phuong\AppData\Local\Temp\ccaRXo0w.s 			page 123


 5748 0ff9 01       		.uleb128 0x1
 5749 0ffa 53       		.byte	0x53
 5750 0ffb 02       		.uleb128 0x2
 5751 0ffc 08       		.byte	0x8
 5752 0ffd 7D       		.byte	0x7d
 5753 0ffe 17       		.uleb128 0x17
 5754 0fff 02       		.uleb128 0x2
 5755 1000 7D       		.byte	0x7d
 5756 1001 00       		.sleb128 0
 5757 1002 01       		.uleb128 0x1
 5758 1003 31       		.byte	0x31
 5759 1004 17       		.uleb128 0x17
 5760 1005 02       		.uleb128 0x2
 5761 1006 7D       		.byte	0x7d
 5762 1007 04       		.sleb128 4
 5763 1008 05       		.uleb128 0x5
 5764 1009 03       		.byte	0x3
 5765 100a 44020000 		.4byte	.LC36
 5766 100e 17       		.uleb128 0x17
 5767 100f 02       		.uleb128 0x2
 5768 1010 7D       		.byte	0x7d
 5769 1011 08       		.sleb128 8
 5770 1012 02       		.uleb128 0x2
 5771 1013 77       		.byte	0x77
 5772 1014 00       		.sleb128 0
 5773 1015 17       		.uleb128 0x17
 5774 1016 02       		.uleb128 0x2
 5775 1017 7D       		.byte	0x7d
 5776 1018 0C       		.sleb128 12
 5777 1019 02       		.uleb128 0x2
 5778 101a 74       		.byte	0x74
 5779 101b 00       		.sleb128 0
 5780 101c 00       		.byte	0
 5781 101d 00       		.byte	0
 5782 101e 28       		.uleb128 0x28
 5783 101f 36000000 		.4byte	.LBB26
 5784 1023 58000000 		.4byte	.LBE26-.LBB26
 5785 1027 15       		.uleb128 0x15
 5786 1028 77070000 		.4byte	.LASF69
 5787 102c 01       		.byte	0x1
 5788 102d 81       		.byte	0x81
 5789 102e 24010000 		.4byte	0x124
 5790 1032 98090000 		.4byte	.LLST53
 5791 1036 1A       		.uleb128 0x1a
 5792 1037 44000000 		.4byte	.LBB27
 5793 103b 20000000 		.4byte	.LBE27-.LBB27
 5794 103f 97100000 		.4byte	0x1097
 5795 1043 1B       		.uleb128 0x1b
 5796 1044 6C00     		.ascii	"l\000"
 5797 1046 01       		.byte	0x1
 5798 1047 86       		.byte	0x86
 5799 1048 D8000000 		.4byte	0xd8
 5800 104c CC090000 		.4byte	.LLST54
 5801 1050 1C       		.uleb128 0x1c
 5802 1051 48000000 		.4byte	.LVL209
 5803 1055 AF270000 		.4byte	0x27af
 5804 1059 1D       		.uleb128 0x1d
ARM GAS  C:\Users\Phuong\AppData\Local\Temp\ccaRXo0w.s 			page 124


 5805 105a 62000000 		.4byte	.LVL212
 5806 105e 02       		.uleb128 0x2
 5807 105f 74       		.byte	0x74
 5808 1060 00       		.sleb128 0
 5809 1061 17       		.uleb128 0x17
 5810 1062 01       		.uleb128 0x1
 5811 1063 50       		.byte	0x50
 5812 1064 01       		.uleb128 0x1
 5813 1065 30       		.byte	0x30
 5814 1066 17       		.uleb128 0x17
 5815 1067 01       		.uleb128 0x1
 5816 1068 51       		.byte	0x51
 5817 1069 05       		.uleb128 0x5
 5818 106a 03       		.byte	0x3
 5819 106b 00000000 		.4byte	.LC1
 5820 106f 17       		.uleb128 0x17
 5821 1070 01       		.uleb128 0x1
 5822 1071 52       		.byte	0x52
 5823 1072 05       		.uleb128 0x5
 5824 1073 03       		.byte	0x3
 5825 1074 88000000 		.4byte	.LANCHOR1+8
 5826 1078 17       		.uleb128 0x17
 5827 1079 01       		.uleb128 0x1
 5828 107a 53       		.byte	0x53
 5829 107b 02       		.uleb128 0x2
 5830 107c 08       		.byte	0x8
 5831 107d 86       		.byte	0x86
 5832 107e 17       		.uleb128 0x17
 5833 107f 02       		.uleb128 0x2
 5834 1080 7D       		.byte	0x7d
 5835 1081 00       		.sleb128 0
 5836 1082 01       		.uleb128 0x1
 5837 1083 31       		.byte	0x31
 5838 1084 17       		.uleb128 0x17
 5839 1085 02       		.uleb128 0x2
 5840 1086 7D       		.byte	0x7d
 5841 1087 04       		.sleb128 4
 5842 1088 05       		.uleb128 0x5
 5843 1089 03       		.byte	0x3
 5844 108a A8020000 		.4byte	.LC39
 5845 108e 17       		.uleb128 0x17
 5846 108f 02       		.uleb128 0x2
 5847 1090 7D       		.byte	0x7d
 5848 1091 08       		.sleb128 8
 5849 1092 02       		.uleb128 0x2
 5850 1093 77       		.byte	0x77
 5851 1094 00       		.sleb128 0
 5852 1095 00       		.byte	0
 5853 1096 00       		.byte	0
 5854 1097 1A       		.uleb128 0x1a
 5855 1098 64000000 		.4byte	.LBB28
 5856 109c 2A000000 		.4byte	.LBE28-.LBB28
 5857 10a0 0E110000 		.4byte	0x110e
 5858 10a4 15       		.uleb128 0x15
 5859 10a5 A4090000 		.4byte	.LASF63
 5860 10a9 01       		.byte	0x1
 5861 10aa 8A       		.byte	0x8a
ARM GAS  C:\Users\Phuong\AppData\Local\Temp\ccaRXo0w.s 			page 125


 5862 10ab B9030000 		.4byte	0x3b9
 5863 10af EA090000 		.4byte	.LLST55
 5864 10b3 1C       		.uleb128 0x1c
 5865 10b4 68000000 		.4byte	.LVL214
 5866 10b8 A4270000 		.4byte	0x27a4
 5867 10bc 1E       		.uleb128 0x1e
 5868 10bd 72000000 		.4byte	.LVL217
 5869 10c1 BF030000 		.4byte	0x3bf
 5870 10c5 D6100000 		.4byte	0x10d6
 5871 10c9 17       		.uleb128 0x17
 5872 10ca 01       		.uleb128 0x1
 5873 10cb 50       		.byte	0x50
 5874 10cc 02       		.uleb128 0x2
 5875 10cd 74       		.byte	0x74
 5876 10ce 00       		.sleb128 0
 5877 10cf 17       		.uleb128 0x17
 5878 10d0 01       		.uleb128 0x1
 5879 10d1 52       		.byte	0x52
 5880 10d2 02       		.uleb128 0x2
 5881 10d3 76       		.byte	0x76
 5882 10d4 00       		.sleb128 0
 5883 10d5 00       		.byte	0
 5884 10d6 1E       		.uleb128 0x1e
 5885 10d7 7E000000 		.4byte	.LVL218
 5886 10db 92070000 		.4byte	0x792
 5887 10df F0100000 		.4byte	0x10f0
 5888 10e3 17       		.uleb128 0x17
 5889 10e4 01       		.uleb128 0x1
 5890 10e5 50       		.byte	0x50
 5891 10e6 02       		.uleb128 0x2
 5892 10e7 74       		.byte	0x74
 5893 10e8 00       		.sleb128 0
 5894 10e9 17       		.uleb128 0x17
 5895 10ea 01       		.uleb128 0x1
 5896 10eb 51       		.byte	0x51
 5897 10ec 02       		.uleb128 0x2
 5898 10ed 75       		.byte	0x75
 5899 10ee 00       		.sleb128 0
 5900 10ef 00       		.byte	0
 5901 10f0 16       		.uleb128 0x16
 5902 10f1 8E000000 		.4byte	.LVL219
 5903 10f5 71040000 		.4byte	0x471
 5904 10f9 17       		.uleb128 0x17
 5905 10fa 01       		.uleb128 0x1
 5906 10fb 51       		.byte	0x51
 5907 10fc 02       		.uleb128 0x2
 5908 10fd 75       		.byte	0x75
 5909 10fe 00       		.sleb128 0
 5910 10ff 17       		.uleb128 0x17
 5911 1100 01       		.uleb128 0x1
 5912 1101 52       		.byte	0x52
 5913 1102 02       		.uleb128 0x2
 5914 1103 76       		.byte	0x76
 5915 1104 00       		.sleb128 0
 5916 1105 17       		.uleb128 0x17
 5917 1106 01       		.uleb128 0x1
 5918 1107 53       		.byte	0x53
ARM GAS  C:\Users\Phuong\AppData\Local\Temp\ccaRXo0w.s 			page 126


 5919 1108 03       		.uleb128 0x3
 5920 1109 91       		.byte	0x91
 5921 110a 64       		.sleb128 -28
 5922 110b 06       		.byte	0x6
 5923 110c 00       		.byte	0
 5924 110d 00       		.byte	0
 5925 110e 16       		.uleb128 0x16
 5926 110f 40000000 		.4byte	.LVL207
 5927 1113 07280000 		.4byte	0x2807
 5928 1117 17       		.uleb128 0x17
 5929 1118 01       		.uleb128 0x1
 5930 1119 51       		.byte	0x51
 5931 111a 05       		.uleb128 0x5
 5932 111b 03       		.byte	0x3
 5933 111c 00000000 		.4byte	find_item_by_message_ptr
 5934 1120 17       		.uleb128 0x17
 5935 1121 01       		.uleb128 0x1
 5936 1122 52       		.byte	0x52
 5937 1123 02       		.uleb128 0x2
 5938 1124 77       		.byte	0x77
 5939 1125 00       		.sleb128 0
 5940 1126 00       		.byte	0
 5941 1127 00       		.byte	0
 5942 1128 00       		.byte	0
 5943 1129 1F       		.uleb128 0x1f
 5944 112a 93000000 		.4byte	0x93
 5945 112e 39110000 		.4byte	0x1139
 5946 1132 20       		.uleb128 0x20
 5947 1133 7D000000 		.4byte	0x7d
 5948 1137 25       		.byte	0x25
 5949 1138 00       		.byte	0
 5950 1139 07       		.uleb128 0x7
 5951 113a 29110000 		.4byte	0x1129
 5952 113e 29       		.uleb128 0x29
 5953 113f 64000000 		.4byte	.LASF86
 5954 1143 01       		.byte	0x1
 5955 1144 4E01     		.2byte	0x14e
 5956 1146 00000000 		.4byte	.LFB10
 5957 114a A0000000 		.4byte	.LFE10-.LFB10
 5958 114e 01       		.uleb128 0x1
 5959 114f 9C       		.byte	0x9c
 5960 1150 B8120000 		.4byte	0x12b8
 5961 1154 22       		.uleb128 0x22
 5962 1155 1D080000 		.4byte	.LASF87
 5963 1159 01       		.byte	0x1
 5964 115a 4E01     		.2byte	0x14e
 5965 115c 8D000000 		.4byte	0x8d
 5966 1160 080A0000 		.4byte	.LLST56
 5967 1164 22       		.uleb128 0x22
 5968 1165 D5020000 		.4byte	.LASF88
 5969 1169 01       		.byte	0x1
 5970 116a 4E01     		.2byte	0x14e
 5971 116c 98000000 		.4byte	0x98
 5972 1170 4A0A0000 		.4byte	.LLST57
 5973 1174 19       		.uleb128 0x19
 5974 1175 560A0000 		.4byte	.LASF79
 5975 1179 C8120000 		.4byte	0x12c8
ARM GAS  C:\Users\Phuong\AppData\Local\Temp\ccaRXo0w.s 			page 127


 5976 117d 05       		.uleb128 0x5
 5977 117e 03       		.byte	0x3
 5978 117f B0000000 		.4byte	__func__.6175
 5979 1183 1A       		.uleb128 0x1a
 5980 1184 10000000 		.4byte	.LBB29
 5981 1188 24000000 		.4byte	.LBE29-.LBB29
 5982 118c ED110000 		.4byte	0x11ed
 5983 1190 24       		.uleb128 0x24
 5984 1191 6C00     		.ascii	"l\000"
 5985 1193 01       		.byte	0x1
 5986 1194 5201     		.2byte	0x152
 5987 1196 D8000000 		.4byte	0xd8
 5988 119a 8C0A0000 		.4byte	.LLST58
 5989 119e 1C       		.uleb128 0x1c
 5990 119f 14000000 		.4byte	.LVL222
 5991 11a3 AF270000 		.4byte	0x27af
 5992 11a7 1D       		.uleb128 0x1d
 5993 11a8 32000000 		.4byte	.LVL225
 5994 11ac 02       		.uleb128 0x2
 5995 11ad 76       		.byte	0x76
 5996 11ae 00       		.sleb128 0
 5997 11af 17       		.uleb128 0x17
 5998 11b0 01       		.uleb128 0x1
 5999 11b1 50       		.byte	0x50
 6000 11b2 01       		.uleb128 0x1
 6001 11b3 30       		.byte	0x30
 6002 11b4 17       		.uleb128 0x17
 6003 11b5 01       		.uleb128 0x1
 6004 11b6 51       		.byte	0x51
 6005 11b7 05       		.uleb128 0x5
 6006 11b8 03       		.byte	0x3
 6007 11b9 00000000 		.4byte	.LC1
 6008 11bd 17       		.uleb128 0x17
 6009 11be 01       		.uleb128 0x1
 6010 11bf 52       		.byte	0x52
 6011 11c0 05       		.uleb128 0x5
 6012 11c1 03       		.byte	0x3
 6013 11c2 B0000000 		.4byte	.LANCHOR1+48
 6014 11c6 17       		.uleb128 0x17
 6015 11c7 01       		.uleb128 0x1
 6016 11c8 53       		.byte	0x53
 6017 11c9 03       		.uleb128 0x3
 6018 11ca 0A       		.byte	0xa
 6019 11cb 5201     		.2byte	0x152
 6020 11cd 17       		.uleb128 0x17
 6021 11ce 02       		.uleb128 0x2
 6022 11cf 7D       		.byte	0x7d
 6023 11d0 00       		.sleb128 0
 6024 11d1 01       		.uleb128 0x1
 6025 11d2 31       		.byte	0x31
 6026 11d3 17       		.uleb128 0x17
 6027 11d4 02       		.uleb128 0x2
 6028 11d5 7D       		.byte	0x7d
 6029 11d6 04       		.sleb128 4
 6030 11d7 05       		.uleb128 0x5
 6031 11d8 03       		.byte	0x3
 6032 11d9 08030000 		.4byte	.LC43
ARM GAS  C:\Users\Phuong\AppData\Local\Temp\ccaRXo0w.s 			page 128


 6033 11dd 17       		.uleb128 0x17
 6034 11de 02       		.uleb128 0x2
 6035 11df 7D       		.byte	0x7d
 6036 11e0 08       		.sleb128 8
 6037 11e1 02       		.uleb128 0x2
 6038 11e2 74       		.byte	0x74
 6039 11e3 00       		.sleb128 0
 6040 11e4 17       		.uleb128 0x17
 6041 11e5 02       		.uleb128 0x2
 6042 11e6 7D       		.byte	0x7d
 6043 11e7 0C       		.sleb128 12
 6044 11e8 02       		.uleb128 0x2
 6045 11e9 75       		.byte	0x75
 6046 11ea 00       		.sleb128 0
 6047 11eb 00       		.byte	0
 6048 11ec 00       		.byte	0
 6049 11ed 1A       		.uleb128 0x1a
 6050 11ee 60000000 		.4byte	.LBB30
 6051 11f2 20000000 		.4byte	.LBE30-.LBB30
 6052 11f6 50120000 		.4byte	0x1250
 6053 11fa 24       		.uleb128 0x24
 6054 11fb 6C00     		.ascii	"l\000"
 6055 11fd 01       		.byte	0x1
 6056 11fe 5C01     		.2byte	0x15c
 6057 1200 D8000000 		.4byte	0xd8
 6058 1204 AA0A0000 		.4byte	.LLST59
 6059 1208 1C       		.uleb128 0x1c
 6060 1209 64000000 		.4byte	.LVL233
 6061 120d AF270000 		.4byte	0x27af
 6062 1211 1D       		.uleb128 0x1d
 6063 1212 80000000 		.4byte	.LVL236
 6064 1216 02       		.uleb128 0x2
 6065 1217 75       		.byte	0x75
 6066 1218 00       		.sleb128 0
 6067 1219 17       		.uleb128 0x17
 6068 121a 01       		.uleb128 0x1
 6069 121b 50       		.byte	0x50
 6070 121c 01       		.uleb128 0x1
 6071 121d 30       		.byte	0x30
 6072 121e 17       		.uleb128 0x17
 6073 121f 01       		.uleb128 0x1
 6074 1220 51       		.byte	0x51
 6075 1221 05       		.uleb128 0x5
 6076 1222 03       		.byte	0x3
 6077 1223 00000000 		.4byte	.LC1
 6078 1227 17       		.uleb128 0x17
 6079 1228 01       		.uleb128 0x1
 6080 1229 52       		.byte	0x52
 6081 122a 05       		.uleb128 0x5
 6082 122b 03       		.byte	0x3
 6083 122c B0000000 		.4byte	.LANCHOR1+48
 6084 1230 17       		.uleb128 0x17
 6085 1231 01       		.uleb128 0x1
 6086 1232 53       		.byte	0x53
 6087 1233 03       		.uleb128 0x3
 6088 1234 0A       		.byte	0xa
 6089 1235 5C01     		.2byte	0x15c
ARM GAS  C:\Users\Phuong\AppData\Local\Temp\ccaRXo0w.s 			page 129


 6090 1237 17       		.uleb128 0x17
 6091 1238 02       		.uleb128 0x2
 6092 1239 7D       		.byte	0x7d
 6093 123a 00       		.sleb128 0
 6094 123b 01       		.uleb128 0x1
 6095 123c 31       		.byte	0x31
 6096 123d 17       		.uleb128 0x17
 6097 123e 02       		.uleb128 0x2
 6098 123f 7D       		.byte	0x7d
 6099 1240 04       		.sleb128 4
 6100 1241 05       		.uleb128 0x5
 6101 1242 03       		.byte	0x3
 6102 1243 9C030000 		.4byte	.LC51
 6103 1247 17       		.uleb128 0x17
 6104 1248 02       		.uleb128 0x2
 6105 1249 7D       		.byte	0x7d
 6106 124a 08       		.sleb128 8
 6107 124b 02       		.uleb128 0x2
 6108 124c 74       		.byte	0x74
 6109 124d 00       		.sleb128 0
 6110 124e 00       		.byte	0
 6111 124f 00       		.byte	0
 6112 1250 1E       		.uleb128 0x1e
 6113 1251 3C000000 		.4byte	.LVL229
 6114 1255 12280000 		.4byte	0x2812
 6115 1259 6D120000 		.4byte	0x126d
 6116 125d 17       		.uleb128 0x17
 6117 125e 01       		.uleb128 0x1
 6118 125f 50       		.byte	0x50
 6119 1260 05       		.uleb128 0x5
 6120 1261 03       		.byte	0x3
 6121 1262 30030000 		.4byte	.LC45
 6122 1266 17       		.uleb128 0x17
 6123 1267 01       		.uleb128 0x1
 6124 1268 51       		.byte	0x51
 6125 1269 02       		.uleb128 0x2
 6126 126a 74       		.byte	0x74
 6127 126b 00       		.sleb128 0
 6128 126c 00       		.byte	0
 6129 126d 1E       		.uleb128 0x1e
 6130 126e 48000000 		.4byte	.LVL230
 6131 1272 12280000 		.4byte	0x2812
 6132 1276 8A120000 		.4byte	0x128a
 6133 127a 17       		.uleb128 0x17
 6134 127b 01       		.uleb128 0x1
 6135 127c 50       		.byte	0x50
 6136 127d 05       		.uleb128 0x5
 6137 127e 03       		.byte	0x3
 6138 127f 54030000 		.4byte	.LC47
 6139 1283 17       		.uleb128 0x17
 6140 1284 01       		.uleb128 0x1
 6141 1285 51       		.byte	0x51
 6142 1286 02       		.uleb128 0x2
 6143 1287 74       		.byte	0x74
 6144 1288 00       		.sleb128 0
 6145 1289 00       		.byte	0
 6146 128a 1E       		.uleb128 0x1e
ARM GAS  C:\Users\Phuong\AppData\Local\Temp\ccaRXo0w.s 			page 130


 6147 128b 54000000 		.4byte	.LVL231
 6148 128f 12280000 		.4byte	0x2812
 6149 1293 A7120000 		.4byte	0x12a7
 6150 1297 17       		.uleb128 0x17
 6151 1298 01       		.uleb128 0x1
 6152 1299 50       		.byte	0x50
 6153 129a 05       		.uleb128 0x5
 6154 129b 03       		.byte	0x3
 6155 129c 7C030000 		.4byte	.LC49
 6156 12a0 17       		.uleb128 0x17
 6157 12a1 01       		.uleb128 0x1
 6158 12a2 51       		.byte	0x51
 6159 12a3 02       		.uleb128 0x2
 6160 12a4 74       		.byte	0x74
 6161 12a5 00       		.sleb128 0
 6162 12a6 00       		.byte	0
 6163 12a7 16       		.uleb128 0x16
 6164 12a8 5E000000 		.4byte	.LVL232
 6165 12ac C5270000 		.4byte	0x27c5
 6166 12b0 17       		.uleb128 0x17
 6167 12b1 01       		.uleb128 0x1
 6168 12b2 50       		.byte	0x50
 6169 12b3 02       		.uleb128 0x2
 6170 12b4 75       		.byte	0x75
 6171 12b5 00       		.sleb128 0
 6172 12b6 00       		.byte	0
 6173 12b7 00       		.byte	0
 6174 12b8 1F       		.uleb128 0x1f
 6175 12b9 93000000 		.4byte	0x93
 6176 12bd C8120000 		.4byte	0x12c8
 6177 12c1 20       		.uleb128 0x20
 6178 12c2 7D000000 		.4byte	0x7d
 6179 12c6 0D       		.byte	0xd
 6180 12c7 00       		.byte	0
 6181 12c8 07       		.uleb128 0x7
 6182 12c9 B8120000 		.4byte	0x12b8
 6183 12cd 21       		.uleb128 0x21
 6184 12ce DD000000 		.4byte	.LASF89
 6185 12d2 01       		.byte	0x1
 6186 12d3 2F01     		.2byte	0x12f
 6187 12d5 84000000 		.4byte	0x84
 6188 12d9 00000000 		.4byte	.LFB9
 6189 12dd E0000000 		.4byte	.LFE9-.LFB9
 6190 12e1 01       		.uleb128 0x1
 6191 12e2 9C       		.byte	0x9c
 6192 12e3 D6140000 		.4byte	0x14d6
 6193 12e7 22       		.uleb128 0x22
 6194 12e8 1D080000 		.4byte	.LASF87
 6195 12ec 01       		.byte	0x1
 6196 12ed 2F01     		.2byte	0x12f
 6197 12ef 8D000000 		.4byte	0x8d
 6198 12f3 C80A0000 		.4byte	.LLST60
 6199 12f7 22       		.uleb128 0x22
 6200 12f8 D5020000 		.4byte	.LASF88
 6201 12fc 01       		.byte	0x1
 6202 12fd 2F01     		.2byte	0x12f
 6203 12ff 98000000 		.4byte	0x98
ARM GAS  C:\Users\Phuong\AppData\Local\Temp\ccaRXo0w.s 			page 131


 6204 1303 0A0B0000 		.4byte	.LLST61
 6205 1307 23       		.uleb128 0x23
 6206 1308 5A020000 		.4byte	.LASF64
 6207 130c 01       		.byte	0x1
 6208 130d 3101     		.2byte	0x131
 6209 130f 84000000 		.4byte	0x84
 6210 1313 650B0000 		.4byte	.LLST62
 6211 1317 19       		.uleb128 0x19
 6212 1318 560A0000 		.4byte	.LASF79
 6213 131c E6140000 		.4byte	0x14e6
 6214 1320 05       		.uleb128 0x5
 6215 1321 03       		.byte	0x3
 6216 1322 C0000000 		.4byte	__func__.6161
 6217 1326 1A       		.uleb128 0x1a
 6218 1327 10000000 		.4byte	.LBB31
 6219 132b 22000000 		.4byte	.LBE31-.LBB31
 6220 132f 90130000 		.4byte	0x1390
 6221 1333 24       		.uleb128 0x24
 6222 1334 6C00     		.ascii	"l\000"
 6223 1336 01       		.byte	0x1
 6224 1337 3501     		.2byte	0x135
 6225 1339 D8000000 		.4byte	0xd8
 6226 133d AF0B0000 		.4byte	.LLST63
 6227 1341 1C       		.uleb128 0x1c
 6228 1342 14000000 		.4byte	.LVL239
 6229 1346 AF270000 		.4byte	0x27af
 6230 134a 1D       		.uleb128 0x1d
 6231 134b 32000000 		.4byte	.LVL242
 6232 134f 02       		.uleb128 0x2
 6233 1350 75       		.byte	0x75
 6234 1351 00       		.sleb128 0
 6235 1352 17       		.uleb128 0x17
 6236 1353 01       		.uleb128 0x1
 6237 1354 50       		.byte	0x50
 6238 1355 01       		.uleb128 0x1
 6239 1356 30       		.byte	0x30
 6240 1357 17       		.uleb128 0x17
 6241 1358 01       		.uleb128 0x1
 6242 1359 51       		.byte	0x51
 6243 135a 05       		.uleb128 0x5
 6244 135b 03       		.byte	0x3
 6245 135c 00000000 		.4byte	.LC1
 6246 1360 17       		.uleb128 0x17
 6247 1361 01       		.uleb128 0x1
 6248 1362 52       		.byte	0x52
 6249 1363 05       		.uleb128 0x5
 6250 1364 03       		.byte	0x3
 6251 1365 C0000000 		.4byte	.LANCHOR1+64
 6252 1369 17       		.uleb128 0x17
 6253 136a 01       		.uleb128 0x1
 6254 136b 53       		.byte	0x53
 6255 136c 03       		.uleb128 0x3
 6256 136d 0A       		.byte	0xa
 6257 136e 3501     		.2byte	0x135
 6258 1370 17       		.uleb128 0x17
 6259 1371 02       		.uleb128 0x2
 6260 1372 7D       		.byte	0x7d
ARM GAS  C:\Users\Phuong\AppData\Local\Temp\ccaRXo0w.s 			page 132


 6261 1373 00       		.sleb128 0
 6262 1374 01       		.uleb128 0x1
 6263 1375 31       		.byte	0x31
 6264 1376 17       		.uleb128 0x17
 6265 1377 02       		.uleb128 0x2
 6266 1378 7D       		.byte	0x7d
 6267 1379 04       		.sleb128 4
 6268 137a 05       		.uleb128 0x5
 6269 137b 03       		.byte	0x3
 6270 137c 08030000 		.4byte	.LC43
 6271 1380 17       		.uleb128 0x17
 6272 1381 02       		.uleb128 0x2
 6273 1382 7D       		.byte	0x7d
 6274 1383 08       		.sleb128 8
 6275 1384 02       		.uleb128 0x2
 6276 1385 74       		.byte	0x74
 6277 1386 00       		.sleb128 0
 6278 1387 17       		.uleb128 0x17
 6279 1388 02       		.uleb128 0x2
 6280 1389 7D       		.byte	0x7d
 6281 138a 0C       		.sleb128 12
 6282 138b 02       		.uleb128 0x2
 6283 138c 76       		.byte	0x76
 6284 138d 00       		.sleb128 0
 6285 138e 00       		.byte	0
 6286 138f 00       		.byte	0
 6287 1390 1A       		.uleb128 0x1a
 6288 1391 64000000 		.4byte	.LBB32
 6289 1395 22000000 		.4byte	.LBE32-.LBB32
 6290 1399 F3130000 		.4byte	0x13f3
 6291 139d 24       		.uleb128 0x24
 6292 139e 6C00     		.ascii	"l\000"
 6293 13a0 01       		.byte	0x1
 6294 13a1 3E01     		.2byte	0x13e
 6295 13a3 D8000000 		.4byte	0xd8
 6296 13a7 D80B0000 		.4byte	.LLST64
 6297 13ab 1C       		.uleb128 0x1c
 6298 13ac 68000000 		.4byte	.LVL252
 6299 13b0 AF270000 		.4byte	0x27af
 6300 13b4 1D       		.uleb128 0x1d
 6301 13b5 84000000 		.4byte	.LVL255
 6302 13b9 02       		.uleb128 0x2
 6303 13ba 76       		.byte	0x76
 6304 13bb 00       		.sleb128 0
 6305 13bc 17       		.uleb128 0x17
 6306 13bd 01       		.uleb128 0x1
 6307 13be 50       		.byte	0x50
 6308 13bf 01       		.uleb128 0x1
 6309 13c0 30       		.byte	0x30
 6310 13c1 17       		.uleb128 0x17
 6311 13c2 01       		.uleb128 0x1
 6312 13c3 51       		.byte	0x51
 6313 13c4 05       		.uleb128 0x5
 6314 13c5 03       		.byte	0x3
 6315 13c6 00000000 		.4byte	.LC1
 6316 13ca 17       		.uleb128 0x17
 6317 13cb 01       		.uleb128 0x1
ARM GAS  C:\Users\Phuong\AppData\Local\Temp\ccaRXo0w.s 			page 133


 6318 13cc 52       		.byte	0x52
 6319 13cd 05       		.uleb128 0x5
 6320 13ce 03       		.byte	0x3
 6321 13cf C0000000 		.4byte	.LANCHOR1+64
 6322 13d3 17       		.uleb128 0x17
 6323 13d4 01       		.uleb128 0x1
 6324 13d5 53       		.byte	0x53
 6325 13d6 03       		.uleb128 0x3
 6326 13d7 0A       		.byte	0xa
 6327 13d8 3E01     		.2byte	0x13e
 6328 13da 17       		.uleb128 0x17
 6329 13db 02       		.uleb128 0x2
 6330 13dc 7D       		.byte	0x7d
 6331 13dd 00       		.sleb128 0
 6332 13de 01       		.uleb128 0x1
 6333 13df 31       		.byte	0x31
 6334 13e0 17       		.uleb128 0x17
 6335 13e1 02       		.uleb128 0x2
 6336 13e2 7D       		.byte	0x7d
 6337 13e3 04       		.sleb128 4
 6338 13e4 05       		.uleb128 0x5
 6339 13e5 03       		.byte	0x3
 6340 13e6 B4030000 		.4byte	.LC59
 6341 13ea 17       		.uleb128 0x17
 6342 13eb 02       		.uleb128 0x2
 6343 13ec 7D       		.byte	0x7d
 6344 13ed 08       		.sleb128 8
 6345 13ee 02       		.uleb128 0x2
 6346 13ef 74       		.byte	0x74
 6347 13f0 00       		.sleb128 0
 6348 13f1 00       		.byte	0
 6349 13f2 00       		.byte	0
 6350 13f3 1A       		.uleb128 0x1a
 6351 13f4 90000000 		.4byte	.LBB33
 6352 13f8 20000000 		.4byte	.LBE33-.LBB33
 6353 13fc 56140000 		.4byte	0x1456
 6354 1400 24       		.uleb128 0x24
 6355 1401 6C00     		.ascii	"l\000"
 6356 1403 01       		.byte	0x1
 6357 1404 4701     		.2byte	0x147
 6358 1406 D8000000 		.4byte	0xd8
 6359 140a F60B0000 		.4byte	.LLST65
 6360 140e 1C       		.uleb128 0x1c
 6361 140f 94000000 		.4byte	.LVL259
 6362 1413 AF270000 		.4byte	0x27af
 6363 1417 1D       		.uleb128 0x1d
 6364 1418 B0000000 		.4byte	.LVL262
 6365 141c 02       		.uleb128 0x2
 6366 141d 75       		.byte	0x75
 6367 141e 00       		.sleb128 0
 6368 141f 17       		.uleb128 0x17
 6369 1420 01       		.uleb128 0x1
 6370 1421 50       		.byte	0x50
 6371 1422 01       		.uleb128 0x1
 6372 1423 30       		.byte	0x30
 6373 1424 17       		.uleb128 0x17
 6374 1425 01       		.uleb128 0x1
ARM GAS  C:\Users\Phuong\AppData\Local\Temp\ccaRXo0w.s 			page 134


 6375 1426 51       		.byte	0x51
 6376 1427 05       		.uleb128 0x5
 6377 1428 03       		.byte	0x3
 6378 1429 00000000 		.4byte	.LC1
 6379 142d 17       		.uleb128 0x17
 6380 142e 01       		.uleb128 0x1
 6381 142f 52       		.byte	0x52
 6382 1430 05       		.uleb128 0x5
 6383 1431 03       		.byte	0x3
 6384 1432 C0000000 		.4byte	.LANCHOR1+64
 6385 1436 17       		.uleb128 0x17
 6386 1437 01       		.uleb128 0x1
 6387 1438 53       		.byte	0x53
 6388 1439 03       		.uleb128 0x3
 6389 143a 0A       		.byte	0xa
 6390 143b 4701     		.2byte	0x147
 6391 143d 17       		.uleb128 0x17
 6392 143e 02       		.uleb128 0x2
 6393 143f 7D       		.byte	0x7d
 6394 1440 00       		.sleb128 0
 6395 1441 01       		.uleb128 0x1
 6396 1442 31       		.byte	0x31
 6397 1443 17       		.uleb128 0x17
 6398 1444 02       		.uleb128 0x2
 6399 1445 7D       		.byte	0x7d
 6400 1446 04       		.sleb128 4
 6401 1447 05       		.uleb128 0x5
 6402 1448 03       		.byte	0x3
 6403 1449 9C030000 		.4byte	.LC51
 6404 144d 17       		.uleb128 0x17
 6405 144e 02       		.uleb128 0x2
 6406 144f 7D       		.byte	0x7d
 6407 1450 08       		.sleb128 8
 6408 1451 02       		.uleb128 0x2
 6409 1452 74       		.byte	0x74
 6410 1453 00       		.sleb128 0
 6411 1454 00       		.byte	0
 6412 1455 00       		.byte	0
 6413 1456 1E       		.uleb128 0x1e
 6414 1457 3E000000 		.4byte	.LVL247
 6415 145b 12280000 		.4byte	0x2812
 6416 145f 73140000 		.4byte	0x1473
 6417 1463 17       		.uleb128 0x17
 6418 1464 01       		.uleb128 0x1
 6419 1465 50       		.byte	0x50
 6420 1466 05       		.uleb128 0x5
 6421 1467 03       		.byte	0x3
 6422 1468 30030000 		.4byte	.LC45
 6423 146c 17       		.uleb128 0x17
 6424 146d 01       		.uleb128 0x1
 6425 146e 51       		.byte	0x51
 6426 146f 02       		.uleb128 0x2
 6427 1470 74       		.byte	0x74
 6428 1471 00       		.sleb128 0
 6429 1472 00       		.byte	0
 6430 1473 1E       		.uleb128 0x1e
 6431 1474 4A000000 		.4byte	.LVL248
ARM GAS  C:\Users\Phuong\AppData\Local\Temp\ccaRXo0w.s 			page 135


 6432 1478 12280000 		.4byte	0x2812
 6433 147c 90140000 		.4byte	0x1490
 6434 1480 17       		.uleb128 0x17
 6435 1481 01       		.uleb128 0x1
 6436 1482 50       		.byte	0x50
 6437 1483 05       		.uleb128 0x5
 6438 1484 03       		.byte	0x3
 6439 1485 54030000 		.4byte	.LC47
 6440 1489 17       		.uleb128 0x17
 6441 148a 01       		.uleb128 0x1
 6442 148b 51       		.byte	0x51
 6443 148c 02       		.uleb128 0x2
 6444 148d 74       		.byte	0x74
 6445 148e 00       		.sleb128 0
 6446 148f 00       		.byte	0
 6447 1490 1E       		.uleb128 0x1e
 6448 1491 56000000 		.4byte	.LVL249
 6449 1495 12280000 		.4byte	0x2812
 6450 1499 AD140000 		.4byte	0x14ad
 6451 149d 17       		.uleb128 0x17
 6452 149e 01       		.uleb128 0x1
 6453 149f 50       		.byte	0x50
 6454 14a0 05       		.uleb128 0x5
 6455 14a1 03       		.byte	0x3
 6456 14a2 7C030000 		.4byte	.LC49
 6457 14a6 17       		.uleb128 0x17
 6458 14a7 01       		.uleb128 0x1
 6459 14a8 51       		.byte	0x51
 6460 14a9 02       		.uleb128 0x2
 6461 14aa 74       		.byte	0x74
 6462 14ab 00       		.sleb128 0
 6463 14ac 00       		.byte	0
 6464 14ad 1E       		.uleb128 0x1e
 6465 14ae 60000000 		.4byte	.LVL250
 6466 14b2 1D280000 		.4byte	0x281d
 6467 14b6 C0140000 		.4byte	0x14c0
 6468 14ba 17       		.uleb128 0x17
 6469 14bb 01       		.uleb128 0x1
 6470 14bc 50       		.byte	0x50
 6471 14bd 01       		.uleb128 0x1
 6472 14be 34       		.byte	0x34
 6473 14bf 00       		.byte	0
 6474 14c0 16       		.uleb128 0x16
 6475 14c1 8E000000 		.4byte	.LVL257
 6476 14c5 28280000 		.4byte	0x2828
 6477 14c9 17       		.uleb128 0x17
 6478 14ca 01       		.uleb128 0x1
 6479 14cb 51       		.byte	0x51
 6480 14cc 02       		.uleb128 0x2
 6481 14cd 76       		.byte	0x76
 6482 14ce 00       		.sleb128 0
 6483 14cf 17       		.uleb128 0x17
 6484 14d0 01       		.uleb128 0x1
 6485 14d1 52       		.byte	0x52
 6486 14d2 01       		.uleb128 0x1
 6487 14d3 34       		.byte	0x34
 6488 14d4 00       		.byte	0
ARM GAS  C:\Users\Phuong\AppData\Local\Temp\ccaRXo0w.s 			page 136


 6489 14d5 00       		.byte	0
 6490 14d6 1F       		.uleb128 0x1f
 6491 14d7 93000000 		.4byte	0x93
 6492 14db E6140000 		.4byte	0x14e6
 6493 14df 20       		.uleb128 0x20
 6494 14e0 7D000000 		.4byte	0x7d
 6495 14e4 0B       		.byte	0xb
 6496 14e5 00       		.byte	0
 6497 14e6 07       		.uleb128 0x7
 6498 14e7 D6140000 		.4byte	0x14d6
 6499 14eb 2A       		.uleb128 0x2a
 6500 14ec AD070000 		.4byte	.LASF91
 6501 14f0 01       		.byte	0x1
 6502 14f1 6401     		.2byte	0x164
 6503 14f3 00000000 		.4byte	.LFB11
 6504 14f7 38000000 		.4byte	.LFE11-.LFB11
 6505 14fb 01       		.uleb128 0x1
 6506 14fc 9C       		.byte	0x9c
 6507 14fd 6E150000 		.4byte	0x156e
 6508 1501 22       		.uleb128 0x22
 6509 1502 56040000 		.4byte	.LASF66
 6510 1506 01       		.byte	0x1
 6511 1507 6401     		.2byte	0x164
 6512 1509 EC010000 		.4byte	0x1ec
 6513 150d 1F0C0000 		.4byte	.LLST66
 6514 1511 28       		.uleb128 0x28
 6515 1512 06000000 		.4byte	.LBB34
 6516 1516 30000000 		.4byte	.LBE34-.LBB34
 6517 151a 23       		.uleb128 0x23
 6518 151b 77070000 		.4byte	.LASF69
 6519 151f 01       		.byte	0x1
 6520 1520 6901     		.2byte	0x169
 6521 1522 24010000 		.4byte	0x124
 6522 1526 4B0C0000 		.4byte	.LLST67
 6523 152a 1E       		.uleb128 0x1e
 6524 152b 14000000 		.4byte	.LVL272
 6525 152f 71040000 		.4byte	0x471
 6526 1533 42150000 		.4byte	0x1542
 6527 1537 17       		.uleb128 0x17
 6528 1538 01       		.uleb128 0x1
 6529 1539 52       		.byte	0x52
 6530 153a 01       		.uleb128 0x1
 6531 153b 34       		.byte	0x34
 6532 153c 17       		.uleb128 0x17
 6533 153d 01       		.uleb128 0x1
 6534 153e 53       		.byte	0x53
 6535 153f 01       		.uleb128 0x1
 6536 1540 30       		.byte	0x30
 6537 1541 00       		.byte	0
 6538 1542 1C       		.uleb128 0x1c
 6539 1543 1A000000 		.4byte	.LVL273
 6540 1547 DB270000 		.4byte	0x27db
 6541 154b 1E       		.uleb128 0x1e
 6542 154c 2C000000 		.4byte	.LVL275
 6543 1550 71040000 		.4byte	0x471
 6544 1554 63150000 		.4byte	0x1563
 6545 1558 17       		.uleb128 0x17
ARM GAS  C:\Users\Phuong\AppData\Local\Temp\ccaRXo0w.s 			page 137


 6546 1559 01       		.uleb128 0x1
 6547 155a 52       		.byte	0x52
 6548 155b 01       		.uleb128 0x1
 6549 155c 34       		.byte	0x34
 6550 155d 17       		.uleb128 0x17
 6551 155e 01       		.uleb128 0x1
 6552 155f 53       		.byte	0x53
 6553 1560 01       		.uleb128 0x1
 6554 1561 30       		.byte	0x30
 6555 1562 00       		.byte	0
 6556 1563 1C       		.uleb128 0x1c
 6557 1564 32000000 		.4byte	.LVL276
 6558 1568 DB270000 		.4byte	0x27db
 6559 156c 00       		.byte	0
 6560 156d 00       		.byte	0
 6561 156e 2B       		.uleb128 0x2b
 6562 156f 6C050000 		.4byte	.LASF93
 6563 1573 01       		.byte	0x1
 6564 1574 A501     		.2byte	0x1a5
 6565 1576 37000000 		.4byte	0x37
 6566 157a 00000000 		.4byte	.LFB13
 6567 157e 4C010000 		.4byte	.LFE13-.LFB13
 6568 1582 01       		.uleb128 0x1
 6569 1583 9C       		.byte	0x9c
 6570 1584 3B180000 		.4byte	0x183b
 6571 1588 22       		.uleb128 0x22
 6572 1589 56040000 		.4byte	.LASF66
 6573 158d 01       		.byte	0x1
 6574 158e A501     		.2byte	0x1a5
 6575 1590 EC010000 		.4byte	0x1ec
 6576 1594 8A0C0000 		.4byte	.LLST68
 6577 1598 23       		.uleb128 0x23
 6578 1599 5A020000 		.4byte	.LASF64
 6579 159d 01       		.byte	0x1
 6580 159e A701     		.2byte	0x1a7
 6581 15a0 37000000 		.4byte	0x37
 6582 15a4 7E0D0000 		.4byte	.LLST69
 6583 15a8 19       		.uleb128 0x19
 6584 15a9 560A0000 		.4byte	.LASF79
 6585 15ad 4B180000 		.4byte	0x184b
 6586 15b1 05       		.uleb128 0x5
 6587 15b2 03       		.byte	0x3
 6588 15b3 CC000000 		.4byte	__func__.6213
 6589 15b7 1A       		.uleb128 0x1a
 6590 15b8 08000000 		.4byte	.LBB35
 6591 15bc 20000000 		.4byte	.LBE35-.LBB35
 6592 15c0 13160000 		.4byte	0x1613
 6593 15c4 24       		.uleb128 0x24
 6594 15c5 6C00     		.ascii	"l\000"
 6595 15c7 01       		.byte	0x1
 6596 15c8 AB01     		.2byte	0x1ab
 6597 15ca D8000000 		.4byte	0xd8
 6598 15ce A70D0000 		.4byte	.LLST70
 6599 15d2 1C       		.uleb128 0x1c
 6600 15d3 0C000000 		.4byte	.LVL280
 6601 15d7 AF270000 		.4byte	0x27af
 6602 15db 1D       		.uleb128 0x1d
ARM GAS  C:\Users\Phuong\AppData\Local\Temp\ccaRXo0w.s 			page 138


 6603 15dc 28000000 		.4byte	.LVL283
 6604 15e0 02       		.uleb128 0x2
 6605 15e1 74       		.byte	0x74
 6606 15e2 00       		.sleb128 0
 6607 15e3 17       		.uleb128 0x17
 6608 15e4 01       		.uleb128 0x1
 6609 15e5 50       		.byte	0x50
 6610 15e6 01       		.uleb128 0x1
 6611 15e7 30       		.byte	0x30
 6612 15e8 17       		.uleb128 0x17
 6613 15e9 01       		.uleb128 0x1
 6614 15ea 51       		.byte	0x51
 6615 15eb 05       		.uleb128 0x5
 6616 15ec 03       		.byte	0x3
 6617 15ed 00000000 		.4byte	.LC1
 6618 15f1 17       		.uleb128 0x17
 6619 15f2 01       		.uleb128 0x1
 6620 15f3 52       		.byte	0x52
 6621 15f4 05       		.uleb128 0x5
 6622 15f5 03       		.byte	0x3
 6623 15f6 CC000000 		.4byte	.LANCHOR1+76
 6624 15fa 17       		.uleb128 0x17
 6625 15fb 01       		.uleb128 0x1
 6626 15fc 53       		.byte	0x53
 6627 15fd 03       		.uleb128 0x3
 6628 15fe 0A       		.byte	0xa
 6629 15ff AB01     		.2byte	0x1ab
 6630 1601 17       		.uleb128 0x17
 6631 1602 02       		.uleb128 0x2
 6632 1603 7D       		.byte	0x7d
 6633 1604 00       		.sleb128 0
 6634 1605 01       		.uleb128 0x1
 6635 1606 31       		.byte	0x31
 6636 1607 17       		.uleb128 0x17
 6637 1608 02       		.uleb128 0x2
 6638 1609 7D       		.byte	0x7d
 6639 160a 04       		.sleb128 4
 6640 160b 05       		.uleb128 0x5
 6641 160c 03       		.byte	0x3
 6642 160d E0030000 		.4byte	.LC64
 6643 1611 00       		.byte	0
 6644 1612 00       		.byte	0
 6645 1613 2C       		.uleb128 0x2c
 6646 1614 38000000 		.4byte	.Ldebug_ranges0+0x38
 6647 1618 23       		.uleb128 0x23
 6648 1619 E9000000 		.4byte	.LASF90
 6649 161d 01       		.byte	0x1
 6650 161e B001     		.2byte	0x1b0
 6651 1620 0E010000 		.4byte	0x10e
 6652 1624 D00D0000 		.4byte	.LLST71
 6653 1628 1A       		.uleb128 0x1a
 6654 1629 36000000 		.4byte	.LBB37
 6655 162d 1E000000 		.4byte	.LBE37-.LBB37
 6656 1631 84160000 		.4byte	0x1684
 6657 1635 24       		.uleb128 0x24
 6658 1636 6C00     		.ascii	"l\000"
 6659 1638 01       		.byte	0x1
ARM GAS  C:\Users\Phuong\AppData\Local\Temp\ccaRXo0w.s 			page 139


 6660 1639 B401     		.2byte	0x1b4
 6661 163b D8000000 		.4byte	0xd8
 6662 163f 040E0000 		.4byte	.LLST72
 6663 1643 1C       		.uleb128 0x1c
 6664 1644 3A000000 		.4byte	.LVL289
 6665 1648 AF270000 		.4byte	0x27af
 6666 164c 1D       		.uleb128 0x1d
 6667 164d 54000000 		.4byte	.LVL292
 6668 1651 02       		.uleb128 0x2
 6669 1652 74       		.byte	0x74
 6670 1653 00       		.sleb128 0
 6671 1654 17       		.uleb128 0x17
 6672 1655 01       		.uleb128 0x1
 6673 1656 50       		.byte	0x50
 6674 1657 01       		.uleb128 0x1
 6675 1658 30       		.byte	0x30
 6676 1659 17       		.uleb128 0x17
 6677 165a 01       		.uleb128 0x1
 6678 165b 51       		.byte	0x51
 6679 165c 05       		.uleb128 0x5
 6680 165d 03       		.byte	0x3
 6681 165e 00000000 		.4byte	.LC1
 6682 1662 17       		.uleb128 0x17
 6683 1663 01       		.uleb128 0x1
 6684 1664 52       		.byte	0x52
 6685 1665 05       		.uleb128 0x5
 6686 1666 03       		.byte	0x3
 6687 1667 CC000000 		.4byte	.LANCHOR1+76
 6688 166b 17       		.uleb128 0x17
 6689 166c 01       		.uleb128 0x1
 6690 166d 53       		.byte	0x53
 6691 166e 03       		.uleb128 0x3
 6692 166f 0A       		.byte	0xa
 6693 1670 B401     		.2byte	0x1b4
 6694 1672 17       		.uleb128 0x17
 6695 1673 02       		.uleb128 0x2
 6696 1674 7D       		.byte	0x7d
 6697 1675 00       		.sleb128 0
 6698 1676 01       		.uleb128 0x1
 6699 1677 31       		.byte	0x31
 6700 1678 17       		.uleb128 0x17
 6701 1679 02       		.uleb128 0x2
 6702 167a 7D       		.byte	0x7d
 6703 167b 04       		.sleb128 4
 6704 167c 05       		.uleb128 0x5
 6705 167d 03       		.byte	0x3
 6706 167e 0C040000 		.4byte	.LC66
 6707 1682 00       		.byte	0
 6708 1683 00       		.byte	0
 6709 1684 1A       		.uleb128 0x1a
 6710 1685 66000000 		.4byte	.LBB38
 6711 1689 1E000000 		.4byte	.LBE38-.LBB38
 6712 168d E0160000 		.4byte	0x16e0
 6713 1691 24       		.uleb128 0x24
 6714 1692 6C00     		.ascii	"l\000"
 6715 1694 01       		.byte	0x1
 6716 1695 BB01     		.2byte	0x1bb
ARM GAS  C:\Users\Phuong\AppData\Local\Temp\ccaRXo0w.s 			page 140


 6717 1697 D8000000 		.4byte	0xd8
 6718 169b 2D0E0000 		.4byte	.LLST73
 6719 169f 1C       		.uleb128 0x1c
 6720 16a0 6A000000 		.4byte	.LVL297
 6721 16a4 AF270000 		.4byte	0x27af
 6722 16a8 1D       		.uleb128 0x1d
 6723 16a9 84000000 		.4byte	.LVL300
 6724 16ad 02       		.uleb128 0x2
 6725 16ae 75       		.byte	0x75
 6726 16af 00       		.sleb128 0
 6727 16b0 17       		.uleb128 0x17
 6728 16b1 01       		.uleb128 0x1
 6729 16b2 50       		.byte	0x50
 6730 16b3 01       		.uleb128 0x1
 6731 16b4 30       		.byte	0x30
 6732 16b5 17       		.uleb128 0x17
 6733 16b6 01       		.uleb128 0x1
 6734 16b7 51       		.byte	0x51
 6735 16b8 05       		.uleb128 0x5
 6736 16b9 03       		.byte	0x3
 6737 16ba 00000000 		.4byte	.LC1
 6738 16be 17       		.uleb128 0x17
 6739 16bf 01       		.uleb128 0x1
 6740 16c0 52       		.byte	0x52
 6741 16c1 05       		.uleb128 0x5
 6742 16c2 03       		.byte	0x3
 6743 16c3 CC000000 		.4byte	.LANCHOR1+76
 6744 16c7 17       		.uleb128 0x17
 6745 16c8 01       		.uleb128 0x1
 6746 16c9 53       		.byte	0x53
 6747 16ca 03       		.uleb128 0x3
 6748 16cb 0A       		.byte	0xa
 6749 16cc BB01     		.2byte	0x1bb
 6750 16ce 17       		.uleb128 0x17
 6751 16cf 02       		.uleb128 0x2
 6752 16d0 7D       		.byte	0x7d
 6753 16d1 00       		.sleb128 0
 6754 16d2 01       		.uleb128 0x1
 6755 16d3 31       		.byte	0x31
 6756 16d4 17       		.uleb128 0x17
 6757 16d5 02       		.uleb128 0x2
 6758 16d6 7D       		.byte	0x7d
 6759 16d7 04       		.sleb128 4
 6760 16d8 05       		.uleb128 0x5
 6761 16d9 03       		.byte	0x3
 6762 16da 2C040000 		.4byte	.LC68
 6763 16de 00       		.byte	0
 6764 16df 00       		.byte	0
 6765 16e0 1A       		.uleb128 0x1a
 6766 16e1 96000000 		.4byte	.LBB39
 6767 16e5 1E000000 		.4byte	.LBE39-.LBB39
 6768 16e9 3C170000 		.4byte	0x173c
 6769 16ed 24       		.uleb128 0x24
 6770 16ee 6C00     		.ascii	"l\000"
 6771 16f0 01       		.byte	0x1
 6772 16f1 C001     		.2byte	0x1c0
 6773 16f3 D8000000 		.4byte	0xd8
ARM GAS  C:\Users\Phuong\AppData\Local\Temp\ccaRXo0w.s 			page 141


 6774 16f7 560E0000 		.4byte	.LLST74
 6775 16fb 1C       		.uleb128 0x1c
 6776 16fc 9A000000 		.4byte	.LVL304
 6777 1700 AF270000 		.4byte	0x27af
 6778 1704 1D       		.uleb128 0x1d
 6779 1705 B4000000 		.4byte	.LVL307
 6780 1709 02       		.uleb128 0x2
 6781 170a 75       		.byte	0x75
 6782 170b 00       		.sleb128 0
 6783 170c 17       		.uleb128 0x17
 6784 170d 01       		.uleb128 0x1
 6785 170e 50       		.byte	0x50
 6786 170f 01       		.uleb128 0x1
 6787 1710 30       		.byte	0x30
 6788 1711 17       		.uleb128 0x17
 6789 1712 01       		.uleb128 0x1
 6790 1713 51       		.byte	0x51
 6791 1714 05       		.uleb128 0x5
 6792 1715 03       		.byte	0x3
 6793 1716 00000000 		.4byte	.LC1
 6794 171a 17       		.uleb128 0x17
 6795 171b 01       		.uleb128 0x1
 6796 171c 52       		.byte	0x52
 6797 171d 05       		.uleb128 0x5
 6798 171e 03       		.byte	0x3
 6799 171f CC000000 		.4byte	.LANCHOR1+76
 6800 1723 17       		.uleb128 0x17
 6801 1724 01       		.uleb128 0x1
 6802 1725 53       		.byte	0x53
 6803 1726 03       		.uleb128 0x3
 6804 1727 0A       		.byte	0xa
 6805 1728 C001     		.2byte	0x1c0
 6806 172a 17       		.uleb128 0x17
 6807 172b 02       		.uleb128 0x2
 6808 172c 7D       		.byte	0x7d
 6809 172d 00       		.sleb128 0
 6810 172e 01       		.uleb128 0x1
 6811 172f 31       		.byte	0x31
 6812 1730 17       		.uleb128 0x17
 6813 1731 02       		.uleb128 0x2
 6814 1732 7D       		.byte	0x7d
 6815 1733 04       		.sleb128 4
 6816 1734 05       		.uleb128 0x5
 6817 1735 03       		.byte	0x3
 6818 1736 60040000 		.4byte	.LC70
 6819 173a 00       		.byte	0
 6820 173b 00       		.byte	0
 6821 173c 1A       		.uleb128 0x1a
 6822 173d C6000000 		.4byte	.LBB40
 6823 1741 1E000000 		.4byte	.LBE40-.LBB40
 6824 1745 98170000 		.4byte	0x1798
 6825 1749 24       		.uleb128 0x24
 6826 174a 6C00     		.ascii	"l\000"
 6827 174c 01       		.byte	0x1
 6828 174d C501     		.2byte	0x1c5
 6829 174f D8000000 		.4byte	0xd8
 6830 1753 7F0E0000 		.4byte	.LLST75
ARM GAS  C:\Users\Phuong\AppData\Local\Temp\ccaRXo0w.s 			page 142


 6831 1757 1C       		.uleb128 0x1c
 6832 1758 CA000000 		.4byte	.LVL311
 6833 175c AF270000 		.4byte	0x27af
 6834 1760 1D       		.uleb128 0x1d
 6835 1761 E4000000 		.4byte	.LVL314
 6836 1765 02       		.uleb128 0x2
 6837 1766 75       		.byte	0x75
 6838 1767 00       		.sleb128 0
 6839 1768 17       		.uleb128 0x17
 6840 1769 01       		.uleb128 0x1
 6841 176a 50       		.byte	0x50
 6842 176b 01       		.uleb128 0x1
 6843 176c 30       		.byte	0x30
 6844 176d 17       		.uleb128 0x17
 6845 176e 01       		.uleb128 0x1
 6846 176f 51       		.byte	0x51
 6847 1770 05       		.uleb128 0x5
 6848 1771 03       		.byte	0x3
 6849 1772 00000000 		.4byte	.LC1
 6850 1776 17       		.uleb128 0x17
 6851 1777 01       		.uleb128 0x1
 6852 1778 52       		.byte	0x52
 6853 1779 05       		.uleb128 0x5
 6854 177a 03       		.byte	0x3
 6855 177b CC000000 		.4byte	.LANCHOR1+76
 6856 177f 17       		.uleb128 0x17
 6857 1780 01       		.uleb128 0x1
 6858 1781 53       		.byte	0x53
 6859 1782 03       		.uleb128 0x3
 6860 1783 0A       		.byte	0xa
 6861 1784 C501     		.2byte	0x1c5
 6862 1786 17       		.uleb128 0x17
 6863 1787 02       		.uleb128 0x2
 6864 1788 7D       		.byte	0x7d
 6865 1789 00       		.sleb128 0
 6866 178a 01       		.uleb128 0x1
 6867 178b 31       		.byte	0x31
 6868 178c 17       		.uleb128 0x17
 6869 178d 02       		.uleb128 0x2
 6870 178e 7D       		.byte	0x7d
 6871 178f 04       		.sleb128 4
 6872 1790 05       		.uleb128 0x5
 6873 1791 03       		.byte	0x3
 6874 1792 60040000 		.4byte	.LC70
 6875 1796 00       		.byte	0
 6876 1797 00       		.byte	0
 6877 1798 1A       		.uleb128 0x1a
 6878 1799 02010000 		.4byte	.LBB41
 6879 179d 18000000 		.4byte	.LBE41-.LBB41
 6880 17a1 E4170000 		.4byte	0x17e4
 6881 17a5 23       		.uleb128 0x23
 6882 17a6 77070000 		.4byte	.LASF69
 6883 17aa 01       		.byte	0x1
 6884 17ab CF01     		.2byte	0x1cf
 6885 17ad 24010000 		.4byte	0x124
 6886 17b1 A80E0000 		.4byte	.LLST76
 6887 17b5 1E       		.uleb128 0x1e
ARM GAS  C:\Users\Phuong\AppData\Local\Temp\ccaRXo0w.s 			page 143


 6888 17b6 10010000 		.4byte	.LVL324
 6889 17ba 71040000 		.4byte	0x471
 6890 17be D3170000 		.4byte	0x17d3
 6891 17c2 17       		.uleb128 0x17
 6892 17c3 01       		.uleb128 0x1
 6893 17c4 50       		.byte	0x50
 6894 17c5 02       		.uleb128 0x2
 6895 17c6 74       		.byte	0x74
 6896 17c7 00       		.sleb128 0
 6897 17c8 17       		.uleb128 0x17
 6898 17c9 01       		.uleb128 0x1
 6899 17ca 52       		.byte	0x52
 6900 17cb 01       		.uleb128 0x1
 6901 17cc 34       		.byte	0x34
 6902 17cd 17       		.uleb128 0x17
 6903 17ce 01       		.uleb128 0x1
 6904 17cf 53       		.byte	0x53
 6905 17d0 01       		.uleb128 0x1
 6906 17d1 30       		.byte	0x30
 6907 17d2 00       		.byte	0
 6908 17d3 16       		.uleb128 0x16
 6909 17d4 16010000 		.4byte	.LVL325
 6910 17d8 DB270000 		.4byte	0x27db
 6911 17dc 17       		.uleb128 0x17
 6912 17dd 01       		.uleb128 0x1
 6913 17de 50       		.byte	0x50
 6914 17df 02       		.uleb128 0x2
 6915 17e0 74       		.byte	0x74
 6916 17e1 00       		.sleb128 0
 6917 17e2 00       		.byte	0
 6918 17e3 00       		.byte	0
 6919 17e4 1C       		.uleb128 0x1c
 6920 17e5 32000000 		.4byte	.LVL287
 6921 17e9 31280000 		.4byte	0x2831
 6922 17ed 1E       		.uleb128 0x1e
 6923 17ee 62000000 		.4byte	.LVL296
 6924 17f2 B7050000 		.4byte	0x5b7
 6925 17f6 01180000 		.4byte	0x1801
 6926 17fa 17       		.uleb128 0x17
 6927 17fb 01       		.uleb128 0x1
 6928 17fc 51       		.byte	0x51
 6929 17fd 02       		.uleb128 0x2
 6930 17fe 74       		.byte	0x74
 6931 17ff 00       		.sleb128 0
 6932 1800 00       		.byte	0
 6933 1801 1E       		.uleb128 0x1e
 6934 1802 92000000 		.4byte	.LVL303
 6935 1806 B7050000 		.4byte	0x5b7
 6936 180a 15180000 		.4byte	0x1815
 6937 180e 17       		.uleb128 0x17
 6938 180f 01       		.uleb128 0x1
 6939 1810 51       		.byte	0x51
 6940 1811 02       		.uleb128 0x2
 6941 1812 74       		.byte	0x74
 6942 1813 00       		.sleb128 0
 6943 1814 00       		.byte	0
 6944 1815 1E       		.uleb128 0x1e
ARM GAS  C:\Users\Phuong\AppData\Local\Temp\ccaRXo0w.s 			page 144


 6945 1816 C2000000 		.4byte	.LVL310
 6946 181a B7050000 		.4byte	0x5b7
 6947 181e 29180000 		.4byte	0x1829
 6948 1822 17       		.uleb128 0x17
 6949 1823 01       		.uleb128 0x1
 6950 1824 50       		.byte	0x50
 6951 1825 02       		.uleb128 0x2
 6952 1826 74       		.byte	0x74
 6953 1827 00       		.sleb128 0
 6954 1828 00       		.byte	0
 6955 1829 16       		.uleb128 0x16
 6956 182a 20010000 		.4byte	.LVL327
 6957 182e 3C280000 		.4byte	0x283c
 6958 1832 17       		.uleb128 0x17
 6959 1833 01       		.uleb128 0x1
 6960 1834 50       		.byte	0x50
 6961 1835 02       		.uleb128 0x2
 6962 1836 74       		.byte	0x74
 6963 1837 00       		.sleb128 0
 6964 1838 00       		.byte	0
 6965 1839 00       		.byte	0
 6966 183a 00       		.byte	0
 6967 183b 1F       		.uleb128 0x1f
 6968 183c 93000000 		.4byte	0x93
 6969 1840 4B180000 		.4byte	0x184b
 6970 1844 20       		.uleb128 0x20
 6971 1845 7D000000 		.4byte	0x7d
 6972 1849 26       		.byte	0x26
 6973 184a 00       		.byte	0
 6974 184b 07       		.uleb128 0x7
 6975 184c 3B180000 		.4byte	0x183b
 6976 1850 2A       		.uleb128 0x2a
 6977 1851 C8030000 		.4byte	.LASF92
 6978 1855 01       		.byte	0x1
 6979 1856 DE01     		.2byte	0x1de
 6980 1858 00000000 		.4byte	.LFB14
 6981 185c 26000000 		.4byte	.LFE14-.LFB14
 6982 1860 01       		.uleb128 0x1
 6983 1861 9C       		.byte	0x9c
 6984 1862 AD180000 		.4byte	0x18ad
 6985 1866 22       		.uleb128 0x22
 6986 1867 56040000 		.4byte	.LASF66
 6987 186b 01       		.byte	0x1
 6988 186c DE01     		.2byte	0x1de
 6989 186e EC010000 		.4byte	0x1ec
 6990 1872 D10E0000 		.4byte	.LLST77
 6991 1876 1E       		.uleb128 0x1e
 6992 1877 0A000000 		.4byte	.LVL335
 6993 187b EB140000 		.4byte	0x14eb
 6994 187f 8A180000 		.4byte	0x188a
 6995 1883 17       		.uleb128 0x17
 6996 1884 01       		.uleb128 0x1
 6997 1885 50       		.byte	0x50
 6998 1886 02       		.uleb128 0x2
 6999 1887 74       		.byte	0x74
 7000 1888 00       		.sleb128 0
 7001 1889 00       		.byte	0
ARM GAS  C:\Users\Phuong\AppData\Local\Temp\ccaRXo0w.s 			page 145


 7002 188a 1C       		.uleb128 0x1c
 7003 188b 14000000 		.4byte	.LVL336
 7004 188f 3C280000 		.4byte	0x283c
 7005 1893 1C       		.uleb128 0x1c
 7006 1894 1E000000 		.4byte	.LVL337
 7007 1898 3C280000 		.4byte	0x283c
 7008 189c 16       		.uleb128 0x16
 7009 189d 24000000 		.4byte	.LVL338
 7010 18a1 C5270000 		.4byte	0x27c5
 7011 18a5 17       		.uleb128 0x17
 7012 18a6 01       		.uleb128 0x1
 7013 18a7 50       		.byte	0x50
 7014 18a8 02       		.uleb128 0x2
 7015 18a9 74       		.byte	0x74
 7016 18aa 00       		.sleb128 0
 7017 18ab 00       		.byte	0
 7018 18ac 00       		.byte	0
 7019 18ad 2B       		.uleb128 0x2b
 7020 18ae 2E090000 		.4byte	.LASF94
 7021 18b2 01       		.byte	0x1
 7022 18b3 F501     		.2byte	0x1f5
 7023 18b5 EC010000 		.4byte	0x1ec
 7024 18b9 00000000 		.4byte	.LFB15
 7025 18bd 28010000 		.4byte	.LFE15-.LFB15
 7026 18c1 01       		.uleb128 0x1
 7027 18c2 9C       		.byte	0x9c
 7028 18c3 241B0000 		.4byte	0x1b24
 7029 18c7 22       		.uleb128 0x22
 7030 18c8 45070000 		.4byte	.LASF95
 7031 18cc 01       		.byte	0x1
 7032 18cd F501     		.2byte	0x1f5
 7033 18cf 241B0000 		.4byte	0x1b24
 7034 18d3 FD0E0000 		.4byte	.LLST78
 7035 18d7 23       		.uleb128 0x23
 7036 18d8 5A020000 		.4byte	.LASF64
 7037 18dc 01       		.byte	0x1
 7038 18dd F701     		.2byte	0x1f7
 7039 18df 2A1B0000 		.4byte	0x1b2a
 7040 18e3 A00F0000 		.4byte	.LLST79
 7041 18e7 19       		.uleb128 0x19
 7042 18e8 560A0000 		.4byte	.LASF79
 7043 18ec 401B0000 		.4byte	0x1b40
 7044 18f0 05       		.uleb128 0x5
 7045 18f1 03       		.byte	0x3
 7046 18f2 F4000000 		.4byte	__func__.6241
 7047 18f6 1A       		.uleb128 0x1a
 7048 18f7 08000000 		.4byte	.LBB43
 7049 18fb 1E000000 		.4byte	.LBE43-.LBB43
 7050 18ff 52190000 		.4byte	0x1952
 7051 1903 24       		.uleb128 0x24
 7052 1904 6C00     		.ascii	"l\000"
 7053 1906 01       		.byte	0x1
 7054 1907 FC01     		.2byte	0x1fc
 7055 1909 D8000000 		.4byte	0xd8
 7056 190d 18100000 		.4byte	.LLST80
 7057 1911 1C       		.uleb128 0x1c
 7058 1912 0C000000 		.4byte	.LVL341
ARM GAS  C:\Users\Phuong\AppData\Local\Temp\ccaRXo0w.s 			page 146


 7059 1916 AF270000 		.4byte	0x27af
 7060 191a 1D       		.uleb128 0x1d
 7061 191b 26000000 		.4byte	.LVL344
 7062 191f 02       		.uleb128 0x2
 7063 1920 74       		.byte	0x74
 7064 1921 00       		.sleb128 0
 7065 1922 17       		.uleb128 0x17
 7066 1923 01       		.uleb128 0x1
 7067 1924 50       		.byte	0x50
 7068 1925 01       		.uleb128 0x1
 7069 1926 30       		.byte	0x30
 7070 1927 17       		.uleb128 0x17
 7071 1928 01       		.uleb128 0x1
 7072 1929 51       		.byte	0x51
 7073 192a 05       		.uleb128 0x5
 7074 192b 03       		.byte	0x3
 7075 192c 00000000 		.4byte	.LC1
 7076 1930 17       		.uleb128 0x17
 7077 1931 01       		.uleb128 0x1
 7078 1932 52       		.byte	0x52
 7079 1933 05       		.uleb128 0x5
 7080 1934 03       		.byte	0x3
 7081 1935 F4000000 		.4byte	.LANCHOR1+116
 7082 1939 17       		.uleb128 0x17
 7083 193a 01       		.uleb128 0x1
 7084 193b 53       		.byte	0x53
 7085 193c 03       		.uleb128 0x3
 7086 193d 0A       		.byte	0xa
 7087 193e FC01     		.2byte	0x1fc
 7088 1940 17       		.uleb128 0x17
 7089 1941 02       		.uleb128 0x2
 7090 1942 7D       		.byte	0x7d
 7091 1943 00       		.sleb128 0
 7092 1944 01       		.uleb128 0x1
 7093 1945 31       		.byte	0x31
 7094 1946 17       		.uleb128 0x17
 7095 1947 02       		.uleb128 0x2
 7096 1948 7D       		.byte	0x7d
 7097 1949 04       		.sleb128 4
 7098 194a 05       		.uleb128 0x5
 7099 194b 03       		.byte	0x3
 7100 194c 90040000 		.4byte	.LC74
 7101 1950 00       		.byte	0
 7102 1951 00       		.byte	0
 7103 1952 1A       		.uleb128 0x1a
 7104 1953 30000000 		.4byte	.LBB44
 7105 1957 1C000000 		.4byte	.LBE44-.LBB44
 7106 195b AE190000 		.4byte	0x19ae
 7107 195f 24       		.uleb128 0x24
 7108 1960 6C00     		.ascii	"l\000"
 7109 1962 01       		.byte	0x1
 7110 1963 0202     		.2byte	0x202
 7111 1965 D8000000 		.4byte	0xd8
 7112 1969 41100000 		.4byte	.LLST81
 7113 196d 1C       		.uleb128 0x1c
 7114 196e 34000000 		.4byte	.LVL347
 7115 1972 AF270000 		.4byte	0x27af
ARM GAS  C:\Users\Phuong\AppData\Local\Temp\ccaRXo0w.s 			page 147


 7116 1976 1D       		.uleb128 0x1d
 7117 1977 4C000000 		.4byte	.LVL350
 7118 197b 02       		.uleb128 0x2
 7119 197c 74       		.byte	0x74
 7120 197d 00       		.sleb128 0
 7121 197e 17       		.uleb128 0x17
 7122 197f 01       		.uleb128 0x1
 7123 1980 50       		.byte	0x50
 7124 1981 01       		.uleb128 0x1
 7125 1982 30       		.byte	0x30
 7126 1983 17       		.uleb128 0x17
 7127 1984 01       		.uleb128 0x1
 7128 1985 51       		.byte	0x51
 7129 1986 05       		.uleb128 0x5
 7130 1987 03       		.byte	0x3
 7131 1988 00000000 		.4byte	.LC1
 7132 198c 17       		.uleb128 0x17
 7133 198d 01       		.uleb128 0x1
 7134 198e 52       		.byte	0x52
 7135 198f 05       		.uleb128 0x5
 7136 1990 03       		.byte	0x3
 7137 1991 F4000000 		.4byte	.LANCHOR1+116
 7138 1995 17       		.uleb128 0x17
 7139 1996 01       		.uleb128 0x1
 7140 1997 53       		.byte	0x53
 7141 1998 03       		.uleb128 0x3
 7142 1999 0A       		.byte	0xa
 7143 199a 0202     		.2byte	0x202
 7144 199c 17       		.uleb128 0x17
 7145 199d 02       		.uleb128 0x2
 7146 199e 7D       		.byte	0x7d
 7147 199f 00       		.sleb128 0
 7148 19a0 01       		.uleb128 0x1
 7149 19a1 31       		.byte	0x31
 7150 19a2 17       		.uleb128 0x17
 7151 19a3 02       		.uleb128 0x2
 7152 19a4 7D       		.byte	0x7d
 7153 19a5 04       		.sleb128 4
 7154 19a6 05       		.uleb128 0x5
 7155 19a7 03       		.byte	0x3
 7156 19a8 B0040000 		.4byte	.LC76
 7157 19ac 00       		.byte	0
 7158 19ad 00       		.byte	0
 7159 19ae 1A       		.uleb128 0x1a
 7160 19af 5A000000 		.4byte	.LBB45
 7161 19b3 1E000000 		.4byte	.LBE45-.LBB45
 7162 19b7 0A1A0000 		.4byte	0x1a0a
 7163 19bb 24       		.uleb128 0x24
 7164 19bc 6C00     		.ascii	"l\000"
 7165 19be 01       		.byte	0x1
 7166 19bf 0902     		.2byte	0x209
 7167 19c1 D8000000 		.4byte	0xd8
 7168 19c5 6A100000 		.4byte	.LLST82
 7169 19c9 1C       		.uleb128 0x1c
 7170 19ca 5E000000 		.4byte	.LVL356
 7171 19ce AF270000 		.4byte	0x27af
 7172 19d2 1D       		.uleb128 0x1d
ARM GAS  C:\Users\Phuong\AppData\Local\Temp\ccaRXo0w.s 			page 148


 7173 19d3 76000000 		.4byte	.LVL359
 7174 19d7 02       		.uleb128 0x2
 7175 19d8 75       		.byte	0x75
 7176 19d9 00       		.sleb128 0
 7177 19da 17       		.uleb128 0x17
 7178 19db 01       		.uleb128 0x1
 7179 19dc 50       		.byte	0x50
 7180 19dd 01       		.uleb128 0x1
 7181 19de 30       		.byte	0x30
 7182 19df 17       		.uleb128 0x17
 7183 19e0 01       		.uleb128 0x1
 7184 19e1 51       		.byte	0x51
 7185 19e2 05       		.uleb128 0x5
 7186 19e3 03       		.byte	0x3
 7187 19e4 00000000 		.4byte	.LC1
 7188 19e8 17       		.uleb128 0x17
 7189 19e9 01       		.uleb128 0x1
 7190 19ea 52       		.byte	0x52
 7191 19eb 05       		.uleb128 0x5
 7192 19ec 03       		.byte	0x3
 7193 19ed F4000000 		.4byte	.LANCHOR1+116
 7194 19f1 17       		.uleb128 0x17
 7195 19f2 01       		.uleb128 0x1
 7196 19f3 53       		.byte	0x53
 7197 19f4 03       		.uleb128 0x3
 7198 19f5 0A       		.byte	0xa
 7199 19f6 0902     		.2byte	0x209
 7200 19f8 17       		.uleb128 0x17
 7201 19f9 02       		.uleb128 0x2
 7202 19fa 7D       		.byte	0x7d
 7203 19fb 00       		.sleb128 0
 7204 19fc 01       		.uleb128 0x1
 7205 19fd 31       		.byte	0x31
 7206 19fe 17       		.uleb128 0x17
 7207 19ff 02       		.uleb128 0x2
 7208 1a00 7D       		.byte	0x7d
 7209 1a01 04       		.sleb128 4
 7210 1a02 05       		.uleb128 0x5
 7211 1a03 03       		.byte	0x3
 7212 1a04 EC040000 		.4byte	.LC78
 7213 1a08 00       		.byte	0
 7214 1a09 00       		.byte	0
 7215 1a0a 1A       		.uleb128 0x1a
 7216 1a0b 8A000000 		.4byte	.LBB46
 7217 1a0f 1E000000 		.4byte	.LBE46-.LBB46
 7218 1a13 661A0000 		.4byte	0x1a66
 7219 1a17 24       		.uleb128 0x24
 7220 1a18 6C00     		.ascii	"l\000"
 7221 1a1a 01       		.byte	0x1
 7222 1a1b 1402     		.2byte	0x214
 7223 1a1d D8000000 		.4byte	0xd8
 7224 1a21 88100000 		.4byte	.LLST83
 7225 1a25 1C       		.uleb128 0x1c
 7226 1a26 8E000000 		.4byte	.LVL363
 7227 1a2a AF270000 		.4byte	0x27af
 7228 1a2e 1D       		.uleb128 0x1d
 7229 1a2f A8000000 		.4byte	.LVL366
ARM GAS  C:\Users\Phuong\AppData\Local\Temp\ccaRXo0w.s 			page 149


 7230 1a33 02       		.uleb128 0x2
 7231 1a34 75       		.byte	0x75
 7232 1a35 00       		.sleb128 0
 7233 1a36 17       		.uleb128 0x17
 7234 1a37 01       		.uleb128 0x1
 7235 1a38 50       		.byte	0x50
 7236 1a39 01       		.uleb128 0x1
 7237 1a3a 30       		.byte	0x30
 7238 1a3b 17       		.uleb128 0x17
 7239 1a3c 01       		.uleb128 0x1
 7240 1a3d 51       		.byte	0x51
 7241 1a3e 05       		.uleb128 0x5
 7242 1a3f 03       		.byte	0x3
 7243 1a40 00000000 		.4byte	.LC1
 7244 1a44 17       		.uleb128 0x17
 7245 1a45 01       		.uleb128 0x1
 7246 1a46 52       		.byte	0x52
 7247 1a47 05       		.uleb128 0x5
 7248 1a48 03       		.byte	0x3
 7249 1a49 F4000000 		.4byte	.LANCHOR1+116
 7250 1a4d 17       		.uleb128 0x17
 7251 1a4e 01       		.uleb128 0x1
 7252 1a4f 53       		.byte	0x53
 7253 1a50 03       		.uleb128 0x3
 7254 1a51 0A       		.byte	0xa
 7255 1a52 1402     		.2byte	0x214
 7256 1a54 17       		.uleb128 0x17
 7257 1a55 02       		.uleb128 0x2
 7258 1a56 7D       		.byte	0x7d
 7259 1a57 00       		.sleb128 0
 7260 1a58 01       		.uleb128 0x1
 7261 1a59 31       		.byte	0x31
 7262 1a5a 17       		.uleb128 0x17
 7263 1a5b 02       		.uleb128 0x2
 7264 1a5c 7D       		.byte	0x7d
 7265 1a5d 04       		.sleb128 4
 7266 1a5e 05       		.uleb128 0x5
 7267 1a5f 03       		.byte	0x3
 7268 1a60 0C050000 		.4byte	.LC80
 7269 1a64 00       		.byte	0
 7270 1a65 00       		.byte	0
 7271 1a66 1A       		.uleb128 0x1a
 7272 1a67 BC000000 		.4byte	.LBB47
 7273 1a6b 1C000000 		.4byte	.LBE47-.LBB47
 7274 1a6f C21A0000 		.4byte	0x1ac2
 7275 1a73 24       		.uleb128 0x24
 7276 1a74 6C00     		.ascii	"l\000"
 7277 1a76 01       		.byte	0x1
 7278 1a77 1D02     		.2byte	0x21d
 7279 1a79 D8000000 		.4byte	0xd8
 7280 1a7d A6100000 		.4byte	.LLST84
 7281 1a81 1C       		.uleb128 0x1c
 7282 1a82 C0000000 		.4byte	.LVL370
 7283 1a86 AF270000 		.4byte	0x27af
 7284 1a8a 1D       		.uleb128 0x1d
 7285 1a8b D8000000 		.4byte	.LVL373
 7286 1a8f 02       		.uleb128 0x2
ARM GAS  C:\Users\Phuong\AppData\Local\Temp\ccaRXo0w.s 			page 150


 7287 1a90 75       		.byte	0x75
 7288 1a91 00       		.sleb128 0
 7289 1a92 17       		.uleb128 0x17
 7290 1a93 01       		.uleb128 0x1
 7291 1a94 50       		.byte	0x50
 7292 1a95 01       		.uleb128 0x1
 7293 1a96 30       		.byte	0x30
 7294 1a97 17       		.uleb128 0x17
 7295 1a98 01       		.uleb128 0x1
 7296 1a99 51       		.byte	0x51
 7297 1a9a 05       		.uleb128 0x5
 7298 1a9b 03       		.byte	0x3
 7299 1a9c 00000000 		.4byte	.LC1
 7300 1aa0 17       		.uleb128 0x17
 7301 1aa1 01       		.uleb128 0x1
 7302 1aa2 52       		.byte	0x52
 7303 1aa3 05       		.uleb128 0x5
 7304 1aa4 03       		.byte	0x3
 7305 1aa5 F4000000 		.4byte	.LANCHOR1+116
 7306 1aa9 17       		.uleb128 0x17
 7307 1aaa 01       		.uleb128 0x1
 7308 1aab 53       		.byte	0x53
 7309 1aac 03       		.uleb128 0x3
 7310 1aad 0A       		.byte	0xa
 7311 1aae 1D02     		.2byte	0x21d
 7312 1ab0 17       		.uleb128 0x17
 7313 1ab1 02       		.uleb128 0x2
 7314 1ab2 7D       		.byte	0x7d
 7315 1ab3 00       		.sleb128 0
 7316 1ab4 01       		.uleb128 0x1
 7317 1ab5 31       		.byte	0x31
 7318 1ab6 17       		.uleb128 0x17
 7319 1ab7 02       		.uleb128 0x2
 7320 1ab8 7D       		.byte	0x7d
 7321 1ab9 04       		.sleb128 4
 7322 1aba 05       		.uleb128 0x5
 7323 1abb 03       		.byte	0x3
 7324 1abc 3C050000 		.4byte	.LC82
 7325 1ac0 00       		.byte	0
 7326 1ac1 00       		.byte	0
 7327 1ac2 1E       		.uleb128 0x1e
 7328 1ac3 56000000 		.4byte	.LVL354
 7329 1ac7 1D280000 		.4byte	0x281d
 7330 1acb D51A0000 		.4byte	0x1ad5
 7331 1acf 17       		.uleb128 0x17
 7332 1ad0 01       		.uleb128 0x1
 7333 1ad1 50       		.byte	0x50
 7334 1ad2 01       		.uleb128 0x1
 7335 1ad3 4C       		.byte	0x4c
 7336 1ad4 00       		.byte	0
 7337 1ad5 1E       		.uleb128 0x1e
 7338 1ad6 80000000 		.4byte	.LVL361
 7339 1ada 47280000 		.4byte	0x2847
 7340 1ade ED1A0000 		.4byte	0x1aed
 7341 1ae2 17       		.uleb128 0x17
 7342 1ae3 01       		.uleb128 0x1
 7343 1ae4 51       		.byte	0x51
ARM GAS  C:\Users\Phuong\AppData\Local\Temp\ccaRXo0w.s 			page 151


 7344 1ae5 01       		.uleb128 0x1
 7345 1ae6 30       		.byte	0x30
 7346 1ae7 17       		.uleb128 0x17
 7347 1ae8 01       		.uleb128 0x1
 7348 1ae9 52       		.byte	0x52
 7349 1aea 01       		.uleb128 0x1
 7350 1aeb 4C       		.byte	0x4c
 7351 1aec 00       		.byte	0
 7352 1aed 1C       		.uleb128 0x1c
 7353 1aee 84000000 		.4byte	.LVL362
 7354 1af2 31280000 		.4byte	0x2831
 7355 1af6 1E       		.uleb128 0x1e
 7356 1af7 AE000000 		.4byte	.LVL367
 7357 1afb 50180000 		.4byte	0x1850
 7358 1aff 0A1B0000 		.4byte	0x1b0a
 7359 1b03 17       		.uleb128 0x17
 7360 1b04 01       		.uleb128 0x1
 7361 1b05 50       		.byte	0x50
 7362 1b06 02       		.uleb128 0x2
 7363 1b07 74       		.byte	0x74
 7364 1b08 00       		.sleb128 0
 7365 1b09 00       		.byte	0
 7366 1b0a 1C       		.uleb128 0x1c
 7367 1b0b B6000000 		.4byte	.LVL369
 7368 1b0f 31280000 		.4byte	0x2831
 7369 1b13 16       		.uleb128 0x16
 7370 1b14 DE000000 		.4byte	.LVL374
 7371 1b18 50180000 		.4byte	0x1850
 7372 1b1c 17       		.uleb128 0x17
 7373 1b1d 01       		.uleb128 0x1
 7374 1b1e 50       		.byte	0x50
 7375 1b1f 02       		.uleb128 0x2
 7376 1b20 74       		.byte	0x74
 7377 1b21 00       		.sleb128 0
 7378 1b22 00       		.byte	0
 7379 1b23 00       		.byte	0
 7380 1b24 06       		.uleb128 0x6
 7381 1b25 04       		.byte	0x4
 7382 1b26 0B030000 		.4byte	0x30b
 7383 1b2a 06       		.uleb128 0x6
 7384 1b2b 04       		.byte	0x4
 7385 1b2c 47010000 		.4byte	0x147
 7386 1b30 1F       		.uleb128 0x1f
 7387 1b31 93000000 		.4byte	0x93
 7388 1b35 401B0000 		.4byte	0x1b40
 7389 1b39 20       		.uleb128 0x20
 7390 1b3a 7D000000 		.4byte	0x7d
 7391 1b3e 14       		.byte	0x14
 7392 1b3f 00       		.byte	0
 7393 1b40 07       		.uleb128 0x7
 7394 1b41 301B0000 		.4byte	0x1b30
 7395 1b45 2B       		.uleb128 0x2b
 7396 1b46 48020000 		.4byte	.LASF96
 7397 1b4a 01       		.byte	0x1
 7398 1b4b 3102     		.2byte	0x231
 7399 1b4d 37000000 		.4byte	0x37
 7400 1b51 00000000 		.4byte	.LFB16
ARM GAS  C:\Users\Phuong\AppData\Local\Temp\ccaRXo0w.s 			page 152


 7401 1b55 20010000 		.4byte	.LFE16-.LFB16
 7402 1b59 01       		.uleb128 0x1
 7403 1b5a 9C       		.byte	0x9c
 7404 1b5b C91D0000 		.4byte	0x1dc9
 7405 1b5f 22       		.uleb128 0x22
 7406 1b60 56040000 		.4byte	.LASF66
 7407 1b64 01       		.byte	0x1
 7408 1b65 3102     		.2byte	0x231
 7409 1b67 EC010000 		.4byte	0x1ec
 7410 1b6b C4100000 		.4byte	.LLST85
 7411 1b6f 22       		.uleb128 0x22
 7412 1b70 72000000 		.4byte	.LASF56
 7413 1b74 01       		.byte	0x1
 7414 1b75 3102     		.2byte	0x231
 7415 1b77 FD010000 		.4byte	0x1fd
 7416 1b7b 38110000 		.4byte	.LLST86
 7417 1b7f 22       		.uleb128 0x22
 7418 1b80 8A040000 		.4byte	.LASF57
 7419 1b84 01       		.byte	0x1
 7420 1b85 3102     		.2byte	0x231
 7421 1b87 4D020000 		.4byte	0x24d
 7422 1b8b 7A110000 		.4byte	.LLST87
 7423 1b8f 22       		.uleb128 0x22
 7424 1b90 5F050000 		.4byte	.LASF58
 7425 1b94 01       		.byte	0x1
 7426 1b95 3102     		.2byte	0x231
 7427 1b97 84000000 		.4byte	0x84
 7428 1b9b BC110000 		.4byte	.LLST88
 7429 1b9f 23       		.uleb128 0x23
 7430 1ba0 5A020000 		.4byte	.LASF64
 7431 1ba4 01       		.byte	0x1
 7432 1ba5 3302     		.2byte	0x233
 7433 1ba7 37000000 		.4byte	0x37
 7434 1bab F2110000 		.4byte	.LLST89
 7435 1baf 19       		.uleb128 0x19
 7436 1bb0 560A0000 		.4byte	.LASF79
 7437 1bb4 D91D0000 		.4byte	0x1dd9
 7438 1bb8 05       		.uleb128 0x5
 7439 1bb9 03       		.byte	0x3
 7440 1bba 0C010000 		.4byte	__func__.6264
 7441 1bbe 1A       		.uleb128 0x1a
 7442 1bbf 14000000 		.4byte	.LBB48
 7443 1bc3 22000000 		.4byte	.LBE48-.LBB48
 7444 1bc7 281C0000 		.4byte	0x1c28
 7445 1bcb 24       		.uleb128 0x24
 7446 1bcc 6C00     		.ascii	"l\000"
 7447 1bce 01       		.byte	0x1
 7448 1bcf 3802     		.2byte	0x238
 7449 1bd1 D8000000 		.4byte	0xd8
 7450 1bd5 2D120000 		.4byte	.LLST90
 7451 1bd9 1C       		.uleb128 0x1c
 7452 1bda 18000000 		.4byte	.LVL381
 7453 1bde AF270000 		.4byte	0x27af
 7454 1be2 1D       		.uleb128 0x1d
 7455 1be3 36000000 		.4byte	.LVL384
 7456 1be7 02       		.uleb128 0x2
 7457 1be8 74       		.byte	0x74
ARM GAS  C:\Users\Phuong\AppData\Local\Temp\ccaRXo0w.s 			page 153


 7458 1be9 00       		.sleb128 0
 7459 1bea 17       		.uleb128 0x17
 7460 1beb 01       		.uleb128 0x1
 7461 1bec 50       		.byte	0x50
 7462 1bed 01       		.uleb128 0x1
 7463 1bee 30       		.byte	0x30
 7464 1bef 17       		.uleb128 0x17
 7465 1bf0 01       		.uleb128 0x1
 7466 1bf1 51       		.byte	0x51
 7467 1bf2 05       		.uleb128 0x5
 7468 1bf3 03       		.byte	0x3
 7469 1bf4 00000000 		.4byte	.LC1
 7470 1bf8 17       		.uleb128 0x17
 7471 1bf9 01       		.uleb128 0x1
 7472 1bfa 52       		.byte	0x52
 7473 1bfb 05       		.uleb128 0x5
 7474 1bfc 03       		.byte	0x3
 7475 1bfd 0C010000 		.4byte	.LANCHOR2+12
 7476 1c01 17       		.uleb128 0x17
 7477 1c02 01       		.uleb128 0x1
 7478 1c03 53       		.byte	0x53
 7479 1c04 03       		.uleb128 0x3
 7480 1c05 0A       		.byte	0xa
 7481 1c06 3802     		.2byte	0x238
 7482 1c08 17       		.uleb128 0x17
 7483 1c09 02       		.uleb128 0x2
 7484 1c0a 7D       		.byte	0x7d
 7485 1c0b 00       		.sleb128 0
 7486 1c0c 01       		.uleb128 0x1
 7487 1c0d 31       		.byte	0x31
 7488 1c0e 17       		.uleb128 0x17
 7489 1c0f 02       		.uleb128 0x2
 7490 1c10 7D       		.byte	0x7d
 7491 1c11 04       		.sleb128 4
 7492 1c12 05       		.uleb128 0x5
 7493 1c13 03       		.byte	0x3
 7494 1c14 70050000 		.4byte	.LC86
 7495 1c18 17       		.uleb128 0x17
 7496 1c19 02       		.uleb128 0x2
 7497 1c1a 7D       		.byte	0x7d
 7498 1c1b 08       		.sleb128 8
 7499 1c1c 02       		.uleb128 0x2
 7500 1c1d 75       		.byte	0x75
 7501 1c1e 00       		.sleb128 0
 7502 1c1f 17       		.uleb128 0x17
 7503 1c20 02       		.uleb128 0x2
 7504 1c21 7D       		.byte	0x7d
 7505 1c22 0C       		.sleb128 12
 7506 1c23 02       		.uleb128 0x2
 7507 1c24 76       		.byte	0x76
 7508 1c25 00       		.sleb128 0
 7509 1c26 00       		.byte	0
 7510 1c27 00       		.byte	0
 7511 1c28 2C       		.uleb128 0x2c
 7512 1c29 50000000 		.4byte	.Ldebug_ranges0+0x50
 7513 1c2d 23       		.uleb128 0x23
 7514 1c2e A4090000 		.4byte	.LASF63
ARM GAS  C:\Users\Phuong\AppData\Local\Temp\ccaRXo0w.s 			page 154


 7515 1c32 01       		.byte	0x1
 7516 1c33 3D02     		.2byte	0x23d
 7517 1c35 B9030000 		.4byte	0x3b9
 7518 1c39 61120000 		.4byte	.LLST91
 7519 1c3d 1A       		.uleb128 0x1a
 7520 1c3e 44000000 		.4byte	.LBB50
 7521 1c42 1C000000 		.4byte	.LBE50-.LBB50
 7522 1c46 991C0000 		.4byte	0x1c99
 7523 1c4a 24       		.uleb128 0x24
 7524 1c4b 6C00     		.ascii	"l\000"
 7525 1c4d 01       		.byte	0x1
 7526 1c4e 4302     		.2byte	0x243
 7527 1c50 D8000000 		.4byte	0xd8
 7528 1c54 95120000 		.4byte	.LLST92
 7529 1c58 1C       		.uleb128 0x1c
 7530 1c59 48000000 		.4byte	.LVL389
 7531 1c5d AF270000 		.4byte	0x27af
 7532 1c61 1D       		.uleb128 0x1d
 7533 1c62 60000000 		.4byte	.LVL392
 7534 1c66 02       		.uleb128 0x2
 7535 1c67 74       		.byte	0x74
 7536 1c68 00       		.sleb128 0
 7537 1c69 17       		.uleb128 0x17
 7538 1c6a 01       		.uleb128 0x1
 7539 1c6b 50       		.byte	0x50
 7540 1c6c 01       		.uleb128 0x1
 7541 1c6d 30       		.byte	0x30
 7542 1c6e 17       		.uleb128 0x17
 7543 1c6f 01       		.uleb128 0x1
 7544 1c70 51       		.byte	0x51
 7545 1c71 05       		.uleb128 0x5
 7546 1c72 03       		.byte	0x3
 7547 1c73 00000000 		.4byte	.LC1
 7548 1c77 17       		.uleb128 0x17
 7549 1c78 01       		.uleb128 0x1
 7550 1c79 52       		.byte	0x52
 7551 1c7a 05       		.uleb128 0x5
 7552 1c7b 03       		.byte	0x3
 7553 1c7c 0C010000 		.4byte	.LANCHOR2+12
 7554 1c80 17       		.uleb128 0x17
 7555 1c81 01       		.uleb128 0x1
 7556 1c82 53       		.byte	0x53
 7557 1c83 03       		.uleb128 0x3
 7558 1c84 0A       		.byte	0xa
 7559 1c85 4302     		.2byte	0x243
 7560 1c87 17       		.uleb128 0x17
 7561 1c88 02       		.uleb128 0x2
 7562 1c89 7D       		.byte	0x7d
 7563 1c8a 00       		.sleb128 0
 7564 1c8b 01       		.uleb128 0x1
 7565 1c8c 31       		.byte	0x31
 7566 1c8d 17       		.uleb128 0x17
 7567 1c8e 02       		.uleb128 0x2
 7568 1c8f 7D       		.byte	0x7d
 7569 1c90 04       		.sleb128 4
 7570 1c91 05       		.uleb128 0x5
 7571 1c92 03       		.byte	0x3
ARM GAS  C:\Users\Phuong\AppData\Local\Temp\ccaRXo0w.s 			page 155


 7572 1c93 A0050000 		.4byte	.LC88
 7573 1c97 00       		.byte	0
 7574 1c98 00       		.byte	0
 7575 1c99 1A       		.uleb128 0x1a
 7576 1c9a 7A000000 		.4byte	.LBB51
 7577 1c9e 1C000000 		.4byte	.LBE51-.LBB51
 7578 1ca2 F51C0000 		.4byte	0x1cf5
 7579 1ca6 24       		.uleb128 0x24
 7580 1ca7 6C00     		.ascii	"l\000"
 7581 1ca9 01       		.byte	0x1
 7582 1caa 4E02     		.2byte	0x24e
 7583 1cac D8000000 		.4byte	0xd8
 7584 1cb0 C9120000 		.4byte	.LLST93
 7585 1cb4 1C       		.uleb128 0x1c
 7586 1cb5 7E000000 		.4byte	.LVL396
 7587 1cb9 AF270000 		.4byte	0x27af
 7588 1cbd 1D       		.uleb128 0x1d
 7589 1cbe 96000000 		.4byte	.LVL399
 7590 1cc2 02       		.uleb128 0x2
 7591 1cc3 75       		.byte	0x75
 7592 1cc4 00       		.sleb128 0
 7593 1cc5 17       		.uleb128 0x17
 7594 1cc6 01       		.uleb128 0x1
 7595 1cc7 50       		.byte	0x50
 7596 1cc8 01       		.uleb128 0x1
 7597 1cc9 30       		.byte	0x30
 7598 1cca 17       		.uleb128 0x17
 7599 1ccb 01       		.uleb128 0x1
 7600 1ccc 51       		.byte	0x51
 7601 1ccd 05       		.uleb128 0x5
 7602 1cce 03       		.byte	0x3
 7603 1ccf 00000000 		.4byte	.LC1
 7604 1cd3 17       		.uleb128 0x17
 7605 1cd4 01       		.uleb128 0x1
 7606 1cd5 52       		.byte	0x52
 7607 1cd6 05       		.uleb128 0x5
 7608 1cd7 03       		.byte	0x3
 7609 1cd8 0C010000 		.4byte	.LANCHOR2+12
 7610 1cdc 17       		.uleb128 0x17
 7611 1cdd 01       		.uleb128 0x1
 7612 1cde 53       		.byte	0x53
 7613 1cdf 03       		.uleb128 0x3
 7614 1ce0 0A       		.byte	0xa
 7615 1ce1 4E02     		.2byte	0x24e
 7616 1ce3 17       		.uleb128 0x17
 7617 1ce4 02       		.uleb128 0x2
 7618 1ce5 7D       		.byte	0x7d
 7619 1ce6 00       		.sleb128 0
 7620 1ce7 01       		.uleb128 0x1
 7621 1ce8 31       		.byte	0x31
 7622 1ce9 17       		.uleb128 0x17
 7623 1cea 02       		.uleb128 0x2
 7624 1ceb 7D       		.byte	0x7d
 7625 1cec 04       		.sleb128 4
 7626 1ced 05       		.uleb128 0x5
 7627 1cee 03       		.byte	0x3
 7628 1cef C8050000 		.4byte	.LC90
ARM GAS  C:\Users\Phuong\AppData\Local\Temp\ccaRXo0w.s 			page 156


 7629 1cf3 00       		.byte	0
 7630 1cf4 00       		.byte	0
 7631 1cf5 1A       		.uleb128 0x1a
 7632 1cf6 AC000000 		.4byte	.LBB52
 7633 1cfa 1C000000 		.4byte	.LBE52-.LBB52
 7634 1cfe 511D0000 		.4byte	0x1d51
 7635 1d02 24       		.uleb128 0x24
 7636 1d03 6C00     		.ascii	"l\000"
 7637 1d05 01       		.byte	0x1
 7638 1d06 5702     		.2byte	0x257
 7639 1d08 D8000000 		.4byte	0xd8
 7640 1d0c E7120000 		.4byte	.LLST94
 7641 1d10 1C       		.uleb128 0x1c
 7642 1d11 B0000000 		.4byte	.LVL403
 7643 1d15 AF270000 		.4byte	0x27af
 7644 1d19 1D       		.uleb128 0x1d
 7645 1d1a C8000000 		.4byte	.LVL406
 7646 1d1e 02       		.uleb128 0x2
 7647 1d1f 75       		.byte	0x75
 7648 1d20 00       		.sleb128 0
 7649 1d21 17       		.uleb128 0x17
 7650 1d22 01       		.uleb128 0x1
 7651 1d23 50       		.byte	0x50
 7652 1d24 01       		.uleb128 0x1
 7653 1d25 30       		.byte	0x30
 7654 1d26 17       		.uleb128 0x17
 7655 1d27 01       		.uleb128 0x1
 7656 1d28 51       		.byte	0x51
 7657 1d29 05       		.uleb128 0x5
 7658 1d2a 03       		.byte	0x3
 7659 1d2b 00000000 		.4byte	.LC1
 7660 1d2f 17       		.uleb128 0x17
 7661 1d30 01       		.uleb128 0x1
 7662 1d31 52       		.byte	0x52
 7663 1d32 05       		.uleb128 0x5
 7664 1d33 03       		.byte	0x3
 7665 1d34 0C010000 		.4byte	.LANCHOR2+12
 7666 1d38 17       		.uleb128 0x17
 7667 1d39 01       		.uleb128 0x1
 7668 1d3a 53       		.byte	0x53
 7669 1d3b 03       		.uleb128 0x3
 7670 1d3c 0A       		.byte	0xa
 7671 1d3d 5702     		.2byte	0x257
 7672 1d3f 17       		.uleb128 0x17
 7673 1d40 02       		.uleb128 0x2
 7674 1d41 7D       		.byte	0x7d
 7675 1d42 00       		.sleb128 0
 7676 1d43 01       		.uleb128 0x1
 7677 1d44 31       		.byte	0x31
 7678 1d45 17       		.uleb128 0x17
 7679 1d46 02       		.uleb128 0x2
 7680 1d47 7D       		.byte	0x7d
 7681 1d48 04       		.sleb128 4
 7682 1d49 05       		.uleb128 0x5
 7683 1d4a 03       		.byte	0x3
 7684 1d4b EC050000 		.4byte	.LC92
 7685 1d4f 00       		.byte	0
ARM GAS  C:\Users\Phuong\AppData\Local\Temp\ccaRXo0w.s 			page 157


 7686 1d50 00       		.byte	0
 7687 1d51 1E       		.uleb128 0x1e
 7688 1d52 40000000 		.4byte	.LVL387
 7689 1d56 1D280000 		.4byte	0x281d
 7690 1d5a 641D0000 		.4byte	0x1d64
 7691 1d5e 17       		.uleb128 0x17
 7692 1d5f 01       		.uleb128 0x1
 7693 1d60 50       		.byte	0x50
 7694 1d61 01       		.uleb128 0x1
 7695 1d62 48       		.byte	0x48
 7696 1d63 00       		.byte	0
 7697 1d64 1E       		.uleb128 0x1e
 7698 1d65 6E000000 		.4byte	.LVL394
 7699 1d69 47280000 		.4byte	0x2847
 7700 1d6d 7C1D0000 		.4byte	0x1d7c
 7701 1d71 17       		.uleb128 0x17
 7702 1d72 01       		.uleb128 0x1
 7703 1d73 51       		.byte	0x51
 7704 1d74 01       		.uleb128 0x1
 7705 1d75 30       		.byte	0x30
 7706 1d76 17       		.uleb128 0x17
 7707 1d77 01       		.uleb128 0x1
 7708 1d78 52       		.byte	0x52
 7709 1d79 01       		.uleb128 0x1
 7710 1d7a 48       		.byte	0x48
 7711 1d7b 00       		.byte	0
 7712 1d7c 1E       		.uleb128 0x1e
 7713 1d7d 74000000 		.4byte	.LVL395
 7714 1d81 E6270000 		.4byte	0x27e6
 7715 1d85 8F1D0000 		.4byte	0x1d8f
 7716 1d89 17       		.uleb128 0x17
 7717 1d8a 01       		.uleb128 0x1
 7718 1d8b 50       		.byte	0x50
 7719 1d8c 01       		.uleb128 0x1
 7720 1d8d 30       		.byte	0x30
 7721 1d8e 00       		.byte	0
 7722 1d8f 1E       		.uleb128 0x1e
 7723 1d90 9C000000 		.4byte	.LVL400
 7724 1d94 C5270000 		.4byte	0x27c5
 7725 1d98 A31D0000 		.4byte	0x1da3
 7726 1d9c 17       		.uleb128 0x17
 7727 1d9d 01       		.uleb128 0x1
 7728 1d9e 50       		.byte	0x50
 7729 1d9f 02       		.uleb128 0x2
 7730 1da0 74       		.byte	0x74
 7731 1da1 00       		.sleb128 0
 7732 1da2 00       		.byte	0
 7733 1da3 1E       		.uleb128 0x1e
 7734 1da4 A8000000 		.4byte	.LVL402
 7735 1da8 D0270000 		.4byte	0x27d0
 7736 1dac B71D0000 		.4byte	0x1db7
 7737 1db0 17       		.uleb128 0x17
 7738 1db1 01       		.uleb128 0x1
 7739 1db2 51       		.byte	0x51
 7740 1db3 02       		.uleb128 0x2
 7741 1db4 74       		.byte	0x74
 7742 1db5 00       		.sleb128 0
ARM GAS  C:\Users\Phuong\AppData\Local\Temp\ccaRXo0w.s 			page 158


 7743 1db6 00       		.byte	0
 7744 1db7 16       		.uleb128 0x16
 7745 1db8 CE000000 		.4byte	.LVL407
 7746 1dbc C5270000 		.4byte	0x27c5
 7747 1dc0 17       		.uleb128 0x17
 7748 1dc1 01       		.uleb128 0x1
 7749 1dc2 50       		.byte	0x50
 7750 1dc3 02       		.uleb128 0x2
 7751 1dc4 74       		.byte	0x74
 7752 1dc5 00       		.sleb128 0
 7753 1dc6 00       		.byte	0
 7754 1dc7 00       		.byte	0
 7755 1dc8 00       		.byte	0
 7756 1dc9 1F       		.uleb128 0x1f
 7757 1dca 93000000 		.4byte	0x93
 7758 1dce D91D0000 		.4byte	0x1dd9
 7759 1dd2 20       		.uleb128 0x20
 7760 1dd3 7D000000 		.4byte	0x7d
 7761 1dd7 11       		.byte	0x11
 7762 1dd8 00       		.byte	0
 7763 1dd9 07       		.uleb128 0x7
 7764 1dda C91D0000 		.4byte	0x1dc9
 7765 1dde 2B       		.uleb128 0x2b
 7766 1ddf 00000000 		.4byte	.LASF97
 7767 1de3 01       		.byte	0x1
 7768 1de4 6C02     		.2byte	0x26c
 7769 1de6 37000000 		.4byte	0x37
 7770 1dea 00000000 		.4byte	.LFB17
 7771 1dee 74000000 		.4byte	.LFE17-.LFB17
 7772 1df2 01       		.uleb128 0x1
 7773 1df3 9C       		.byte	0x9c
 7774 1df4 B41E0000 		.4byte	0x1eb4
 7775 1df8 22       		.uleb128 0x22
 7776 1df9 56040000 		.4byte	.LASF66
 7777 1dfd 01       		.byte	0x1
 7778 1dfe 6C02     		.2byte	0x26c
 7779 1e00 EC010000 		.4byte	0x1ec
 7780 1e04 05130000 		.4byte	.LLST95
 7781 1e08 22       		.uleb128 0x22
 7782 1e09 7A000000 		.4byte	.LASF98
 7783 1e0d 01       		.byte	0x1
 7784 1e0e 6C02     		.2byte	0x26c
 7785 1e10 41010000 		.4byte	0x141
 7786 1e14 47130000 		.4byte	.LLST96
 7787 1e18 23       		.uleb128 0x23
 7788 1e19 5A020000 		.4byte	.LASF64
 7789 1e1d 01       		.byte	0x1
 7790 1e1e 6E02     		.2byte	0x26e
 7791 1e20 37000000 		.4byte	0x37
 7792 1e24 89130000 		.4byte	.LLST97
 7793 1e28 19       		.uleb128 0x19
 7794 1e29 560A0000 		.4byte	.LASF79
 7795 1e2d C41E0000 		.4byte	0x1ec4
 7796 1e31 05       		.uleb128 0x5
 7797 1e32 03       		.byte	0x3
 7798 1e33 20010000 		.4byte	__func__.6283
 7799 1e37 1A       		.uleb128 0x1a
ARM GAS  C:\Users\Phuong\AppData\Local\Temp\ccaRXo0w.s 			page 159


 7800 1e38 10000000 		.4byte	.LBB54
 7801 1e3c 20000000 		.4byte	.LBE54-.LBB54
 7802 1e40 A11E0000 		.4byte	0x1ea1
 7803 1e44 24       		.uleb128 0x24
 7804 1e45 6C00     		.ascii	"l\000"
 7805 1e47 01       		.byte	0x1
 7806 1e48 7302     		.2byte	0x273
 7807 1e4a D8000000 		.4byte	0xd8
 7808 1e4e A8130000 		.4byte	.LLST98
 7809 1e52 1C       		.uleb128 0x1c
 7810 1e53 14000000 		.4byte	.LVL418
 7811 1e57 AF270000 		.4byte	0x27af
 7812 1e5b 1D       		.uleb128 0x1d
 7813 1e5c 30000000 		.4byte	.LVL421
 7814 1e60 02       		.uleb128 0x2
 7815 1e61 76       		.byte	0x76
 7816 1e62 00       		.sleb128 0
 7817 1e63 17       		.uleb128 0x17
 7818 1e64 01       		.uleb128 0x1
 7819 1e65 50       		.byte	0x50
 7820 1e66 01       		.uleb128 0x1
 7821 1e67 30       		.byte	0x30
 7822 1e68 17       		.uleb128 0x17
 7823 1e69 01       		.uleb128 0x1
 7824 1e6a 51       		.byte	0x51
 7825 1e6b 05       		.uleb128 0x5
 7826 1e6c 03       		.byte	0x3
 7827 1e6d 00000000 		.4byte	.LC1
 7828 1e71 17       		.uleb128 0x17
 7829 1e72 01       		.uleb128 0x1
 7830 1e73 52       		.byte	0x52
 7831 1e74 05       		.uleb128 0x5
 7832 1e75 03       		.byte	0x3
 7833 1e76 20010000 		.4byte	.LANCHOR2+32
 7834 1e7a 17       		.uleb128 0x17
 7835 1e7b 01       		.uleb128 0x1
 7836 1e7c 53       		.byte	0x53
 7837 1e7d 03       		.uleb128 0x3
 7838 1e7e 0A       		.byte	0xa
 7839 1e7f 7302     		.2byte	0x273
 7840 1e81 17       		.uleb128 0x17
 7841 1e82 02       		.uleb128 0x2
 7842 1e83 7D       		.byte	0x7d
 7843 1e84 00       		.sleb128 0
 7844 1e85 01       		.uleb128 0x1
 7845 1e86 31       		.byte	0x31
 7846 1e87 17       		.uleb128 0x17
 7847 1e88 02       		.uleb128 0x2
 7848 1e89 7D       		.byte	0x7d
 7849 1e8a 04       		.sleb128 4
 7850 1e8b 05       		.uleb128 0x5
 7851 1e8c 03       		.byte	0x3
 7852 1e8d 04060000 		.4byte	.LC96
 7853 1e91 17       		.uleb128 0x17
 7854 1e92 02       		.uleb128 0x2
 7855 1e93 7D       		.byte	0x7d
 7856 1e94 08       		.sleb128 8
ARM GAS  C:\Users\Phuong\AppData\Local\Temp\ccaRXo0w.s 			page 160


 7857 1e95 02       		.uleb128 0x2
 7858 1e96 74       		.byte	0x74
 7859 1e97 00       		.sleb128 0
 7860 1e98 17       		.uleb128 0x17
 7861 1e99 02       		.uleb128 0x2
 7862 1e9a 7D       		.byte	0x7d
 7863 1e9b 0C       		.sleb128 12
 7864 1e9c 02       		.uleb128 0x2
 7865 1e9d 75       		.byte	0x75
 7866 1e9e 00       		.sleb128 0
 7867 1e9f 00       		.byte	0
 7868 1ea0 00       		.byte	0
 7869 1ea1 1C       		.uleb128 0x1c
 7870 1ea2 3C000000 		.4byte	.LVL424
 7871 1ea6 DB270000 		.4byte	0x27db
 7872 1eaa 1C       		.uleb128 0x1c
 7873 1eab 46000000 		.4byte	.LVL425
 7874 1eaf DB270000 		.4byte	0x27db
 7875 1eb3 00       		.byte	0
 7876 1eb4 1F       		.uleb128 0x1f
 7877 1eb5 93000000 		.4byte	0x93
 7878 1eb9 C41E0000 		.4byte	0x1ec4
 7879 1ebd 20       		.uleb128 0x20
 7880 1ebe 7D000000 		.4byte	0x7d
 7881 1ec2 16       		.byte	0x16
 7882 1ec3 00       		.byte	0
 7883 1ec4 07       		.uleb128 0x7
 7884 1ec5 B41E0000 		.4byte	0x1eb4
 7885 1ec9 2A       		.uleb128 0x2a
 7886 1eca 90000000 		.4byte	.LASF99
 7887 1ece 01       		.byte	0x1
 7888 1ecf 8202     		.2byte	0x282
 7889 1ed1 00000000 		.4byte	.LFB18
 7890 1ed5 12000000 		.4byte	.LFE18-.LFB18
 7891 1ed9 01       		.uleb128 0x1
 7892 1eda 9C       		.byte	0x9c
 7893 1edb 141F0000 		.4byte	0x1f14
 7894 1edf 22       		.uleb128 0x22
 7895 1ee0 56040000 		.4byte	.LASF66
 7896 1ee4 01       		.byte	0x1
 7897 1ee5 8202     		.2byte	0x282
 7898 1ee7 EC010000 		.4byte	0x1ec
 7899 1eeb DC130000 		.4byte	.LLST99
 7900 1eef 1E       		.uleb128 0x1e
 7901 1ef0 0A000000 		.4byte	.LVL433
 7902 1ef4 B40B0000 		.4byte	0xbb4
 7903 1ef8 031F0000 		.4byte	0x1f03
 7904 1efc 17       		.uleb128 0x17
 7905 1efd 01       		.uleb128 0x1
 7906 1efe 50       		.byte	0x50
 7907 1eff 02       		.uleb128 0x2
 7908 1f00 74       		.byte	0x74
 7909 1f01 00       		.sleb128 0
 7910 1f02 00       		.byte	0
 7911 1f03 16       		.uleb128 0x16
 7912 1f04 10000000 		.4byte	.LVL434
 7913 1f08 F6080000 		.4byte	0x8f6
ARM GAS  C:\Users\Phuong\AppData\Local\Temp\ccaRXo0w.s 			page 161


 7914 1f0c 17       		.uleb128 0x17
 7915 1f0d 01       		.uleb128 0x1
 7916 1f0e 50       		.byte	0x50
 7917 1f0f 02       		.uleb128 0x2
 7918 1f10 74       		.byte	0x74
 7919 1f11 00       		.sleb128 0
 7920 1f12 00       		.byte	0
 7921 1f13 00       		.byte	0
 7922 1f14 2B       		.uleb128 0x2b
 7923 1f15 250A0000 		.4byte	.LASF100
 7924 1f19 01       		.byte	0x1
 7925 1f1a 8C02     		.2byte	0x28c
 7926 1f1c 37000000 		.4byte	0x37
 7927 1f20 00000000 		.4byte	.LFB19
 7928 1f24 48000000 		.4byte	.LFE19-.LFB19
 7929 1f28 01       		.uleb128 0x1
 7930 1f29 9C       		.byte	0x9c
 7931 1f2a C61F0000 		.4byte	0x1fc6
 7932 1f2e 22       		.uleb128 0x22
 7933 1f2f 56040000 		.4byte	.LASF66
 7934 1f33 01       		.byte	0x1
 7935 1f34 8C02     		.2byte	0x28c
 7936 1f36 EC010000 		.4byte	0x1ec
 7937 1f3a 08140000 		.4byte	.LLST100
 7938 1f3e 22       		.uleb128 0x22
 7939 1f3f 64060000 		.4byte	.LASF101
 7940 1f43 01       		.byte	0x1
 7941 1f44 8C02     		.2byte	0x28c
 7942 1f46 25000000 		.4byte	0x25
 7943 1f4a 42140000 		.4byte	.LLST101
 7944 1f4e 23       		.uleb128 0x23
 7945 1f4f 5A020000 		.4byte	.LASF64
 7946 1f53 01       		.byte	0x1
 7947 1f54 8E02     		.2byte	0x28e
 7948 1f56 37000000 		.4byte	0x37
 7949 1f5a 7C140000 		.4byte	.LLST102
 7950 1f5e 19       		.uleb128 0x19
 7951 1f5f 560A0000 		.4byte	.LASF79
 7952 1f63 D61F0000 		.4byte	0x1fd6
 7953 1f67 05       		.uleb128 0x5
 7954 1f68 03       		.byte	0x3
 7955 1f69 38010000 		.4byte	__func__.6295
 7956 1f6d 28       		.uleb128 0x28
 7957 1f6e 08000000 		.4byte	.LBB55
 7958 1f72 1C000000 		.4byte	.LBE55-.LBB55
 7959 1f76 24       		.uleb128 0x24
 7960 1f77 6C00     		.ascii	"l\000"
 7961 1f79 01       		.byte	0x1
 7962 1f7a 9302     		.2byte	0x293
 7963 1f7c D8000000 		.4byte	0xd8
 7964 1f80 9B140000 		.4byte	.LLST103
 7965 1f84 1C       		.uleb128 0x1c
 7966 1f85 0C000000 		.4byte	.LVL437
 7967 1f89 AF270000 		.4byte	0x27af
 7968 1f8d 1D       		.uleb128 0x1d
 7969 1f8e 24000000 		.4byte	.LVL440
 7970 1f92 02       		.uleb128 0x2
ARM GAS  C:\Users\Phuong\AppData\Local\Temp\ccaRXo0w.s 			page 162


 7971 1f93 74       		.byte	0x74
 7972 1f94 00       		.sleb128 0
 7973 1f95 17       		.uleb128 0x17
 7974 1f96 01       		.uleb128 0x1
 7975 1f97 50       		.byte	0x50
 7976 1f98 01       		.uleb128 0x1
 7977 1f99 30       		.byte	0x30
 7978 1f9a 17       		.uleb128 0x17
 7979 1f9b 01       		.uleb128 0x1
 7980 1f9c 51       		.byte	0x51
 7981 1f9d 05       		.uleb128 0x5
 7982 1f9e 03       		.byte	0x3
 7983 1f9f 00000000 		.4byte	.LC1
 7984 1fa3 17       		.uleb128 0x17
 7985 1fa4 01       		.uleb128 0x1
 7986 1fa5 52       		.byte	0x52
 7987 1fa6 05       		.uleb128 0x5
 7988 1fa7 03       		.byte	0x3
 7989 1fa8 38010000 		.4byte	.LANCHOR2+56
 7990 1fac 17       		.uleb128 0x17
 7991 1fad 01       		.uleb128 0x1
 7992 1fae 53       		.byte	0x53
 7993 1faf 03       		.uleb128 0x3
 7994 1fb0 0A       		.byte	0xa
 7995 1fb1 9302     		.2byte	0x293
 7996 1fb3 17       		.uleb128 0x17
 7997 1fb4 02       		.uleb128 0x2
 7998 1fb5 7D       		.byte	0x7d
 7999 1fb6 00       		.sleb128 0
 8000 1fb7 01       		.uleb128 0x1
 8001 1fb8 31       		.byte	0x31
 8002 1fb9 17       		.uleb128 0x17
 8003 1fba 02       		.uleb128 0x2
 8004 1fbb 7D       		.byte	0x7d
 8005 1fbc 04       		.sleb128 4
 8006 1fbd 05       		.uleb128 0x5
 8007 1fbe 03       		.byte	0x3
 8008 1fbf E0030000 		.4byte	.LC64
 8009 1fc3 00       		.byte	0
 8010 1fc4 00       		.byte	0
 8011 1fc5 00       		.byte	0
 8012 1fc6 1F       		.uleb128 0x1f
 8013 1fc7 93000000 		.4byte	0x93
 8014 1fcb D61F0000 		.4byte	0x1fd6
 8015 1fcf 20       		.uleb128 0x20
 8016 1fd0 7D000000 		.4byte	0x7d
 8017 1fd4 30       		.byte	0x30
 8018 1fd5 00       		.byte	0
 8019 1fd6 07       		.uleb128 0x7
 8020 1fd7 C61F0000 		.4byte	0x1fc6
 8021 1fdb 2B       		.uleb128 0x2b
 8022 1fdc A2020000 		.4byte	.LASF102
 8023 1fe0 01       		.byte	0x1
 8024 1fe1 A102     		.2byte	0x2a1
 8025 1fe3 37000000 		.4byte	0x37
 8026 1fe7 00000000 		.4byte	.LFB20
 8027 1feb 48000000 		.4byte	.LFE20-.LFB20
ARM GAS  C:\Users\Phuong\AppData\Local\Temp\ccaRXo0w.s 			page 163


 8028 1fef 01       		.uleb128 0x1
 8029 1ff0 9C       		.byte	0x9c
 8030 1ff1 8D200000 		.4byte	0x208d
 8031 1ff5 22       		.uleb128 0x22
 8032 1ff6 56040000 		.4byte	.LASF66
 8033 1ffa 01       		.byte	0x1
 8034 1ffb A102     		.2byte	0x2a1
 8035 1ffd EC010000 		.4byte	0x1ec
 8036 2001 CF140000 		.4byte	.LLST104
 8037 2005 22       		.uleb128 0x22
 8038 2006 64060000 		.4byte	.LASF101
 8039 200a 01       		.byte	0x1
 8040 200b A102     		.2byte	0x2a1
 8041 200d 25000000 		.4byte	0x25
 8042 2011 09150000 		.4byte	.LLST105
 8043 2015 23       		.uleb128 0x23
 8044 2016 5A020000 		.4byte	.LASF64
 8045 201a 01       		.byte	0x1
 8046 201b A302     		.2byte	0x2a3
 8047 201d 37000000 		.4byte	0x37
 8048 2021 43150000 		.4byte	.LLST106
 8049 2025 19       		.uleb128 0x19
 8050 2026 560A0000 		.4byte	.LASF79
 8051 202a 9D200000 		.4byte	0x209d
 8052 202e 05       		.uleb128 0x5
 8053 202f 03       		.byte	0x3
 8054 2030 6C010000 		.4byte	__func__.6304
 8055 2034 28       		.uleb128 0x28
 8056 2035 08000000 		.4byte	.LBB56
 8057 2039 1E000000 		.4byte	.LBE56-.LBB56
 8058 203d 24       		.uleb128 0x24
 8059 203e 6C00     		.ascii	"l\000"
 8060 2040 01       		.byte	0x1
 8061 2041 A802     		.2byte	0x2a8
 8062 2043 D8000000 		.4byte	0xd8
 8063 2047 62150000 		.4byte	.LLST107
 8064 204b 1C       		.uleb128 0x1c
 8065 204c 0C000000 		.4byte	.LVL448
 8066 2050 AF270000 		.4byte	0x27af
 8067 2054 1D       		.uleb128 0x1d
 8068 2055 26000000 		.4byte	.LVL451
 8069 2059 02       		.uleb128 0x2
 8070 205a 74       		.byte	0x74
 8071 205b 00       		.sleb128 0
 8072 205c 17       		.uleb128 0x17
 8073 205d 01       		.uleb128 0x1
 8074 205e 50       		.byte	0x50
 8075 205f 01       		.uleb128 0x1
 8076 2060 30       		.byte	0x30
 8077 2061 17       		.uleb128 0x17
 8078 2062 01       		.uleb128 0x1
 8079 2063 51       		.byte	0x51
 8080 2064 05       		.uleb128 0x5
 8081 2065 03       		.byte	0x3
 8082 2066 00000000 		.4byte	.LC1
 8083 206a 17       		.uleb128 0x17
 8084 206b 01       		.uleb128 0x1
ARM GAS  C:\Users\Phuong\AppData\Local\Temp\ccaRXo0w.s 			page 164


 8085 206c 52       		.byte	0x52
 8086 206d 05       		.uleb128 0x5
 8087 206e 03       		.byte	0x3
 8088 206f 6C010000 		.4byte	.LANCHOR2+108
 8089 2073 17       		.uleb128 0x17
 8090 2074 01       		.uleb128 0x1
 8091 2075 53       		.byte	0x53
 8092 2076 03       		.uleb128 0x3
 8093 2077 0A       		.byte	0xa
 8094 2078 A802     		.2byte	0x2a8
 8095 207a 17       		.uleb128 0x17
 8096 207b 02       		.uleb128 0x2
 8097 207c 7D       		.byte	0x7d
 8098 207d 00       		.sleb128 0
 8099 207e 01       		.uleb128 0x1
 8100 207f 31       		.byte	0x31
 8101 2080 17       		.uleb128 0x17
 8102 2081 02       		.uleb128 0x2
 8103 2082 7D       		.byte	0x7d
 8104 2083 04       		.sleb128 4
 8105 2084 05       		.uleb128 0x5
 8106 2085 03       		.byte	0x3
 8107 2086 E0030000 		.4byte	.LC64
 8108 208a 00       		.byte	0
 8109 208b 00       		.byte	0
 8110 208c 00       		.byte	0
 8111 208d 1F       		.uleb128 0x1f
 8112 208e 93000000 		.4byte	0x93
 8113 2092 9D200000 		.4byte	0x209d
 8114 2096 20       		.uleb128 0x20
 8115 2097 7D000000 		.4byte	0x7d
 8116 209b 32       		.byte	0x32
 8117 209c 00       		.byte	0
 8118 209d 07       		.uleb128 0x7
 8119 209e 8D200000 		.4byte	0x208d
 8120 20a2 2B       		.uleb128 0x2b
 8121 20a3 0D050000 		.4byte	.LASF103
 8122 20a7 01       		.byte	0x1
 8123 20a8 B602     		.2byte	0x2b6
 8124 20aa 37000000 		.4byte	0x37
 8125 20ae 00000000 		.4byte	.LFB21
 8126 20b2 48000000 		.4byte	.LFE21-.LFB21
 8127 20b6 01       		.uleb128 0x1
 8128 20b7 9C       		.byte	0x9c
 8129 20b8 54210000 		.4byte	0x2154
 8130 20bc 22       		.uleb128 0x22
 8131 20bd 56040000 		.4byte	.LASF66
 8132 20c1 01       		.byte	0x1
 8133 20c2 B602     		.2byte	0x2b6
 8134 20c4 EC010000 		.4byte	0x1ec
 8135 20c8 8B150000 		.4byte	.LLST108
 8136 20cc 22       		.uleb128 0x22
 8137 20cd 03070000 		.4byte	.LASF27
 8138 20d1 01       		.byte	0x1
 8139 20d2 B602     		.2byte	0x2b6
 8140 20d4 25000000 		.4byte	0x25
 8141 20d8 C5150000 		.4byte	.LLST109
ARM GAS  C:\Users\Phuong\AppData\Local\Temp\ccaRXo0w.s 			page 165


 8142 20dc 23       		.uleb128 0x23
 8143 20dd 5A020000 		.4byte	.LASF64
 8144 20e1 01       		.byte	0x1
 8145 20e2 B802     		.2byte	0x2b8
 8146 20e4 37000000 		.4byte	0x37
 8147 20e8 FF150000 		.4byte	.LLST110
 8148 20ec 19       		.uleb128 0x19
 8149 20ed 560A0000 		.4byte	.LASF79
 8150 20f1 54210000 		.4byte	0x2154
 8151 20f5 05       		.uleb128 0x5
 8152 20f6 03       		.byte	0x3
 8153 20f7 A0010000 		.4byte	__func__.6313
 8154 20fb 28       		.uleb128 0x28
 8155 20fc 08000000 		.4byte	.LBB57
 8156 2100 1C000000 		.4byte	.LBE57-.LBB57
 8157 2104 24       		.uleb128 0x24
 8158 2105 6C00     		.ascii	"l\000"
 8159 2107 01       		.byte	0x1
 8160 2108 BD02     		.2byte	0x2bd
 8161 210a D8000000 		.4byte	0xd8
 8162 210e 1E160000 		.4byte	.LLST111
 8163 2112 1C       		.uleb128 0x1c
 8164 2113 0C000000 		.4byte	.LVL458
 8165 2117 AF270000 		.4byte	0x27af
 8166 211b 1D       		.uleb128 0x1d
 8167 211c 24000000 		.4byte	.LVL461
 8168 2120 02       		.uleb128 0x2
 8169 2121 74       		.byte	0x74
 8170 2122 00       		.sleb128 0
 8171 2123 17       		.uleb128 0x17
 8172 2124 01       		.uleb128 0x1
 8173 2125 50       		.byte	0x50
 8174 2126 01       		.uleb128 0x1
 8175 2127 30       		.byte	0x30
 8176 2128 17       		.uleb128 0x17
 8177 2129 01       		.uleb128 0x1
 8178 212a 51       		.byte	0x51
 8179 212b 05       		.uleb128 0x5
 8180 212c 03       		.byte	0x3
 8181 212d 00000000 		.4byte	.LC1
 8182 2131 17       		.uleb128 0x17
 8183 2132 01       		.uleb128 0x1
 8184 2133 52       		.byte	0x52
 8185 2134 05       		.uleb128 0x5
 8186 2135 03       		.byte	0x3
 8187 2136 A0010000 		.4byte	.LANCHOR3+32
 8188 213a 17       		.uleb128 0x17
 8189 213b 01       		.uleb128 0x1
 8190 213c 53       		.byte	0x53
 8191 213d 03       		.uleb128 0x3
 8192 213e 0A       		.byte	0xa
 8193 213f BD02     		.2byte	0x2bd
 8194 2141 17       		.uleb128 0x17
 8195 2142 02       		.uleb128 0x2
 8196 2143 7D       		.byte	0x7d
 8197 2144 00       		.sleb128 0
 8198 2145 01       		.uleb128 0x1
ARM GAS  C:\Users\Phuong\AppData\Local\Temp\ccaRXo0w.s 			page 166


 8199 2146 31       		.byte	0x31
 8200 2147 17       		.uleb128 0x17
 8201 2148 02       		.uleb128 0x2
 8202 2149 7D       		.byte	0x7d
 8203 214a 04       		.sleb128 4
 8204 214b 05       		.uleb128 0x5
 8205 214c 03       		.byte	0x3
 8206 214d E0030000 		.4byte	.LC64
 8207 2151 00       		.byte	0
 8208 2152 00       		.byte	0
 8209 2153 00       		.byte	0
 8210 2154 07       		.uleb128 0x7
 8211 2155 A2050000 		.4byte	0x5a2
 8212 2159 21       		.uleb128 0x21
 8213 215a A6000000 		.4byte	.LASF104
 8214 215e 01       		.byte	0x1
 8215 215f CB02     		.2byte	0x2cb
 8216 2161 37000000 		.4byte	0x37
 8217 2165 00000000 		.4byte	.LFB22
 8218 2169 70010000 		.4byte	.LFE22-.LFB22
 8219 216d 01       		.uleb128 0x1
 8220 216e 9C       		.byte	0x9c
 8221 216f 47240000 		.4byte	0x2447
 8222 2173 22       		.uleb128 0x22
 8223 2174 020A0000 		.4byte	.LASF105
 8224 2178 01       		.byte	0x1
 8225 2179 CB02     		.2byte	0x2cb
 8226 217b 84000000 		.4byte	0x84
 8227 217f 47160000 		.4byte	.LLST112
 8228 2183 22       		.uleb128 0x22
 8229 2184 1D080000 		.4byte	.LASF87
 8230 2188 01       		.byte	0x1
 8231 2189 CB02     		.2byte	0x2cb
 8232 218b 8D000000 		.4byte	0x8d
 8233 218f 1F170000 		.4byte	.LLST113
 8234 2193 22       		.uleb128 0x22
 8235 2194 D5020000 		.4byte	.LASF88
 8236 2198 01       		.byte	0x1
 8237 2199 CB02     		.2byte	0x2cb
 8238 219b 98000000 		.4byte	0x98
 8239 219f 61170000 		.4byte	.LLST114
 8240 21a3 2D       		.uleb128 0x2d
 8241 21a4 5A020000 		.4byte	.LASF64
 8242 21a8 01       		.byte	0x1
 8243 21a9 CD02     		.2byte	0x2cd
 8244 21ab 37000000 		.4byte	0x37
 8245 21af 01       		.uleb128 0x1
 8246 21b0 50       		.byte	0x50
 8247 21b1 19       		.uleb128 0x19
 8248 21b2 560A0000 		.4byte	.LASF79
 8249 21b6 57240000 		.4byte	0x2457
 8250 21ba 05       		.uleb128 0x5
 8251 21bb 03       		.byte	0x3
 8252 21bc C4010000 		.4byte	__func__.6323
 8253 21c0 1A       		.uleb128 0x1a
 8254 21c1 16000000 		.4byte	.LBB58
 8255 21c5 22000000 		.4byte	.LBE58-.LBB58
ARM GAS  C:\Users\Phuong\AppData\Local\Temp\ccaRXo0w.s 			page 167


 8256 21c9 31220000 		.4byte	0x2231
 8257 21cd 24       		.uleb128 0x24
 8258 21ce 6C00     		.ascii	"l\000"
 8259 21d0 01       		.byte	0x1
 8260 21d1 D102     		.2byte	0x2d1
 8261 21d3 D8000000 		.4byte	0xd8
 8262 21d7 A3170000 		.4byte	.LLST115
 8263 21db 1C       		.uleb128 0x1c
 8264 21dc 1A000000 		.4byte	.LVL468
 8265 21e0 AF270000 		.4byte	0x27af
 8266 21e4 1D       		.uleb128 0x1d
 8267 21e5 38000000 		.4byte	.LVL471
 8268 21e9 02       		.uleb128 0x2
 8269 21ea 77       		.byte	0x77
 8270 21eb 00       		.sleb128 0
 8271 21ec 17       		.uleb128 0x17
 8272 21ed 01       		.uleb128 0x1
 8273 21ee 50       		.byte	0x50
 8274 21ef 01       		.uleb128 0x1
 8275 21f0 30       		.byte	0x30
 8276 21f1 17       		.uleb128 0x17
 8277 21f2 01       		.uleb128 0x1
 8278 21f3 51       		.byte	0x51
 8279 21f4 05       		.uleb128 0x5
 8280 21f5 03       		.byte	0x3
 8281 21f6 00000000 		.4byte	.LC1
 8282 21fa 17       		.uleb128 0x17
 8283 21fb 01       		.uleb128 0x1
 8284 21fc 52       		.byte	0x52
 8285 21fd 05       		.uleb128 0x5
 8286 21fe 03       		.byte	0x3
 8287 21ff C4010000 		.4byte	.LANCHOR3+68
 8288 2203 17       		.uleb128 0x17
 8289 2204 01       		.uleb128 0x1
 8290 2205 53       		.byte	0x53
 8291 2206 03       		.uleb128 0x3
 8292 2207 0A       		.byte	0xa
 8293 2208 D102     		.2byte	0x2d1
 8294 220a 17       		.uleb128 0x17
 8295 220b 02       		.uleb128 0x2
 8296 220c 7D       		.byte	0x7d
 8297 220d 00       		.sleb128 0
 8298 220e 01       		.uleb128 0x1
 8299 220f 31       		.byte	0x31
 8300 2210 17       		.uleb128 0x17
 8301 2211 02       		.uleb128 0x2
 8302 2212 7D       		.byte	0x7d
 8303 2213 04       		.sleb128 4
 8304 2214 05       		.uleb128 0x5
 8305 2215 03       		.byte	0x3
 8306 2216 38060000 		.4byte	.LC109
 8307 221a 17       		.uleb128 0x17
 8308 221b 02       		.uleb128 0x2
 8309 221c 7D       		.byte	0x7d
 8310 221d 08       		.sleb128 8
 8311 221e 02       		.uleb128 0x2
 8312 221f 75       		.byte	0x75
ARM GAS  C:\Users\Phuong\AppData\Local\Temp\ccaRXo0w.s 			page 168


 8313 2220 00       		.sleb128 0
 8314 2221 17       		.uleb128 0x17
 8315 2222 02       		.uleb128 0x2
 8316 2223 7D       		.byte	0x7d
 8317 2224 0C       		.sleb128 12
 8318 2225 02       		.uleb128 0x2
 8319 2226 74       		.byte	0x74
 8320 2227 00       		.sleb128 0
 8321 2228 17       		.uleb128 0x17
 8322 2229 02       		.uleb128 0x2
 8323 222a 7D       		.byte	0x7d
 8324 222b 10       		.sleb128 16
 8325 222c 02       		.uleb128 0x2
 8326 222d 76       		.byte	0x76
 8327 222e 00       		.sleb128 0
 8328 222f 00       		.byte	0
 8329 2230 00       		.byte	0
 8330 2231 1A       		.uleb128 0x1a
 8331 2232 52000000 		.4byte	.LBB59
 8332 2236 20000000 		.4byte	.LBE59-.LBB59
 8333 223a 94220000 		.4byte	0x2294
 8334 223e 24       		.uleb128 0x24
 8335 223f 6C00     		.ascii	"l\000"
 8336 2241 01       		.byte	0x1
 8337 2242 D802     		.2byte	0x2d8
 8338 2244 D8000000 		.4byte	0xd8
 8339 2248 D7170000 		.4byte	.LLST116
 8340 224c 1C       		.uleb128 0x1c
 8341 224d 56000000 		.4byte	.LVL476
 8342 2251 AF270000 		.4byte	0x27af
 8343 2255 1D       		.uleb128 0x1d
 8344 2256 72000000 		.4byte	.LVL479
 8345 225a 02       		.uleb128 0x2
 8346 225b 75       		.byte	0x75
 8347 225c 00       		.sleb128 0
 8348 225d 17       		.uleb128 0x17
 8349 225e 01       		.uleb128 0x1
 8350 225f 50       		.byte	0x50
 8351 2260 01       		.uleb128 0x1
 8352 2261 30       		.byte	0x30
 8353 2262 17       		.uleb128 0x17
 8354 2263 01       		.uleb128 0x1
 8355 2264 51       		.byte	0x51
 8356 2265 05       		.uleb128 0x5
 8357 2266 03       		.byte	0x3
 8358 2267 00000000 		.4byte	.LC1
 8359 226b 17       		.uleb128 0x17
 8360 226c 01       		.uleb128 0x1
 8361 226d 52       		.byte	0x52
 8362 226e 05       		.uleb128 0x5
 8363 226f 03       		.byte	0x3
 8364 2270 C4010000 		.4byte	.LANCHOR3+68
 8365 2274 17       		.uleb128 0x17
 8366 2275 01       		.uleb128 0x1
 8367 2276 53       		.byte	0x53
 8368 2277 03       		.uleb128 0x3
 8369 2278 0A       		.byte	0xa
ARM GAS  C:\Users\Phuong\AppData\Local\Temp\ccaRXo0w.s 			page 169


 8370 2279 D802     		.2byte	0x2d8
 8371 227b 17       		.uleb128 0x17
 8372 227c 02       		.uleb128 0x2
 8373 227d 7D       		.byte	0x7d
 8374 227e 00       		.sleb128 0
 8375 227f 01       		.uleb128 0x1
 8376 2280 31       		.byte	0x31
 8377 2281 17       		.uleb128 0x17
 8378 2282 02       		.uleb128 0x2
 8379 2283 7D       		.byte	0x7d
 8380 2284 04       		.sleb128 4
 8381 2285 05       		.uleb128 0x5
 8382 2286 03       		.byte	0x3
 8383 2287 68060000 		.4byte	.LC112
 8384 228b 17       		.uleb128 0x17
 8385 228c 02       		.uleb128 0x2
 8386 228d 7D       		.byte	0x7d
 8387 228e 08       		.sleb128 8
 8388 228f 02       		.uleb128 0x2
 8389 2290 74       		.byte	0x74
 8390 2291 00       		.sleb128 0
 8391 2292 00       		.byte	0
 8392 2293 00       		.byte	0
 8393 2294 1A       		.uleb128 0x1a
 8394 2295 8E000000 		.4byte	.LBB60
 8395 2299 20000000 		.4byte	.LBE60-.LBB60
 8396 229d F7220000 		.4byte	0x22f7
 8397 22a1 24       		.uleb128 0x24
 8398 22a2 6C00     		.ascii	"l\000"
 8399 22a4 01       		.byte	0x1
 8400 22a5 E402     		.2byte	0x2e4
 8401 22a7 D8000000 		.4byte	0xd8
 8402 22ab 0B180000 		.4byte	.LLST117
 8403 22af 1C       		.uleb128 0x1c
 8404 22b0 92000000 		.4byte	.LVL483
 8405 22b4 AF270000 		.4byte	0x27af
 8406 22b8 1D       		.uleb128 0x1d
 8407 22b9 AE000000 		.4byte	.LVL486
 8408 22bd 02       		.uleb128 0x2
 8409 22be 75       		.byte	0x75
 8410 22bf 00       		.sleb128 0
 8411 22c0 17       		.uleb128 0x17
 8412 22c1 01       		.uleb128 0x1
 8413 22c2 50       		.byte	0x50
 8414 22c3 01       		.uleb128 0x1
 8415 22c4 30       		.byte	0x30
 8416 22c5 17       		.uleb128 0x17
 8417 22c6 01       		.uleb128 0x1
 8418 22c7 51       		.byte	0x51
 8419 22c8 05       		.uleb128 0x5
 8420 22c9 03       		.byte	0x3
 8421 22ca 00000000 		.4byte	.LC1
 8422 22ce 17       		.uleb128 0x17
 8423 22cf 01       		.uleb128 0x1
 8424 22d0 52       		.byte	0x52
 8425 22d1 05       		.uleb128 0x5
 8426 22d2 03       		.byte	0x3
ARM GAS  C:\Users\Phuong\AppData\Local\Temp\ccaRXo0w.s 			page 170


 8427 22d3 C4010000 		.4byte	.LANCHOR3+68
 8428 22d7 17       		.uleb128 0x17
 8429 22d8 01       		.uleb128 0x1
 8430 22d9 53       		.byte	0x53
 8431 22da 03       		.uleb128 0x3
 8432 22db 0A       		.byte	0xa
 8433 22dc E402     		.2byte	0x2e4
 8434 22de 17       		.uleb128 0x17
 8435 22df 02       		.uleb128 0x2
 8436 22e0 7D       		.byte	0x7d
 8437 22e1 00       		.sleb128 0
 8438 22e2 01       		.uleb128 0x1
 8439 22e3 31       		.byte	0x31
 8440 22e4 17       		.uleb128 0x17
 8441 22e5 02       		.uleb128 0x2
 8442 22e6 7D       		.byte	0x7d
 8443 22e7 04       		.sleb128 4
 8444 22e8 05       		.uleb128 0x5
 8445 22e9 03       		.byte	0x3
 8446 22ea 68060000 		.4byte	.LC112
 8447 22ee 17       		.uleb128 0x17
 8448 22ef 02       		.uleb128 0x2
 8449 22f0 7D       		.byte	0x7d
 8450 22f1 08       		.sleb128 8
 8451 22f2 02       		.uleb128 0x2
 8452 22f3 74       		.byte	0x74
 8453 22f4 00       		.sleb128 0
 8454 22f5 00       		.byte	0
 8455 22f6 00       		.byte	0
 8456 22f7 1A       		.uleb128 0x1a
 8457 22f8 CA000000 		.4byte	.LBB61
 8458 22fc 20000000 		.4byte	.LBE61-.LBB61
 8459 2300 5A230000 		.4byte	0x235a
 8460 2304 24       		.uleb128 0x24
 8461 2305 6C00     		.ascii	"l\000"
 8462 2307 01       		.byte	0x1
 8463 2308 F002     		.2byte	0x2f0
 8464 230a D8000000 		.4byte	0xd8
 8465 230e 3F180000 		.4byte	.LLST118
 8466 2312 1C       		.uleb128 0x1c
 8467 2313 CE000000 		.4byte	.LVL490
 8468 2317 AF270000 		.4byte	0x27af
 8469 231b 1D       		.uleb128 0x1d
 8470 231c EA000000 		.4byte	.LVL493
 8471 2320 02       		.uleb128 0x2
 8472 2321 75       		.byte	0x75
 8473 2322 00       		.sleb128 0
 8474 2323 17       		.uleb128 0x17
 8475 2324 01       		.uleb128 0x1
 8476 2325 50       		.byte	0x50
 8477 2326 01       		.uleb128 0x1
 8478 2327 30       		.byte	0x30
 8479 2328 17       		.uleb128 0x17
 8480 2329 01       		.uleb128 0x1
 8481 232a 51       		.byte	0x51
 8482 232b 05       		.uleb128 0x5
 8483 232c 03       		.byte	0x3
ARM GAS  C:\Users\Phuong\AppData\Local\Temp\ccaRXo0w.s 			page 171


 8484 232d 00000000 		.4byte	.LC1
 8485 2331 17       		.uleb128 0x17
 8486 2332 01       		.uleb128 0x1
 8487 2333 52       		.byte	0x52
 8488 2334 05       		.uleb128 0x5
 8489 2335 03       		.byte	0x3
 8490 2336 C4010000 		.4byte	.LANCHOR3+68
 8491 233a 17       		.uleb128 0x17
 8492 233b 01       		.uleb128 0x1
 8493 233c 53       		.byte	0x53
 8494 233d 03       		.uleb128 0x3
 8495 233e 0A       		.byte	0xa
 8496 233f F002     		.2byte	0x2f0
 8497 2341 17       		.uleb128 0x17
 8498 2342 02       		.uleb128 0x2
 8499 2343 7D       		.byte	0x7d
 8500 2344 00       		.sleb128 0
 8501 2345 01       		.uleb128 0x1
 8502 2346 31       		.byte	0x31
 8503 2347 17       		.uleb128 0x17
 8504 2348 02       		.uleb128 0x2
 8505 2349 7D       		.byte	0x7d
 8506 234a 04       		.sleb128 4
 8507 234b 05       		.uleb128 0x5
 8508 234c 03       		.byte	0x3
 8509 234d 68060000 		.4byte	.LC112
 8510 2351 17       		.uleb128 0x17
 8511 2352 02       		.uleb128 0x2
 8512 2353 7D       		.byte	0x7d
 8513 2354 08       		.sleb128 8
 8514 2355 02       		.uleb128 0x2
 8515 2356 74       		.byte	0x74
 8516 2357 00       		.sleb128 0
 8517 2358 00       		.byte	0
 8518 2359 00       		.byte	0
 8519 235a 1A       		.uleb128 0x1a
 8520 235b EE000000 		.4byte	.LBB62
 8521 235f 1E000000 		.4byte	.LBE62-.LBB62
 8522 2363 BD230000 		.4byte	0x23bd
 8523 2367 24       		.uleb128 0x24
 8524 2368 6C00     		.ascii	"l\000"
 8525 236a 01       		.byte	0x1
 8526 236b FA02     		.2byte	0x2fa
 8527 236d D8000000 		.4byte	0xd8
 8528 2371 73180000 		.4byte	.LLST119
 8529 2375 1C       		.uleb128 0x1c
 8530 2376 F2000000 		.4byte	.LVL495
 8531 237a AF270000 		.4byte	0x27af
 8532 237e 1D       		.uleb128 0x1d
 8533 237f 0C010000 		.4byte	.LVL498
 8534 2383 02       		.uleb128 0x2
 8535 2384 75       		.byte	0x75
 8536 2385 00       		.sleb128 0
 8537 2386 17       		.uleb128 0x17
 8538 2387 01       		.uleb128 0x1
 8539 2388 50       		.byte	0x50
 8540 2389 01       		.uleb128 0x1
ARM GAS  C:\Users\Phuong\AppData\Local\Temp\ccaRXo0w.s 			page 172


 8541 238a 30       		.byte	0x30
 8542 238b 17       		.uleb128 0x17
 8543 238c 01       		.uleb128 0x1
 8544 238d 51       		.byte	0x51
 8545 238e 05       		.uleb128 0x5
 8546 238f 03       		.byte	0x3
 8547 2390 00000000 		.4byte	.LC1
 8548 2394 17       		.uleb128 0x17
 8549 2395 01       		.uleb128 0x1
 8550 2396 52       		.byte	0x52
 8551 2397 05       		.uleb128 0x5
 8552 2398 03       		.byte	0x3
 8553 2399 C4010000 		.4byte	.LANCHOR3+68
 8554 239d 17       		.uleb128 0x17
 8555 239e 01       		.uleb128 0x1
 8556 239f 53       		.byte	0x53
 8557 23a0 03       		.uleb128 0x3
 8558 23a1 0A       		.byte	0xa
 8559 23a2 FA02     		.2byte	0x2fa
 8560 23a4 17       		.uleb128 0x17
 8561 23a5 02       		.uleb128 0x2
 8562 23a6 7D       		.byte	0x7d
 8563 23a7 00       		.sleb128 0
 8564 23a8 01       		.uleb128 0x1
 8565 23a9 31       		.byte	0x31
 8566 23aa 17       		.uleb128 0x17
 8567 23ab 02       		.uleb128 0x2
 8568 23ac 7D       		.byte	0x7d
 8569 23ad 04       		.sleb128 4
 8570 23ae 05       		.uleb128 0x5
 8571 23af 03       		.byte	0x3
 8572 23b0 9C030000 		.4byte	.LC51
 8573 23b4 17       		.uleb128 0x17
 8574 23b5 02       		.uleb128 0x2
 8575 23b6 7D       		.byte	0x7d
 8576 23b7 08       		.sleb128 8
 8577 23b8 02       		.uleb128 0x2
 8578 23b9 74       		.byte	0x74
 8579 23ba 00       		.sleb128 0
 8580 23bb 00       		.byte	0
 8581 23bc 00       		.byte	0
 8582 23bd 1E       		.uleb128 0x1e
 8583 23be 42000000 		.4byte	.LVL474
 8584 23c2 12280000 		.4byte	0x2812
 8585 23c6 D4230000 		.4byte	0x23d4
 8586 23ca 17       		.uleb128 0x17
 8587 23cb 01       		.uleb128 0x1
 8588 23cc 50       		.byte	0x50
 8589 23cd 05       		.uleb128 0x5
 8590 23ce 03       		.byte	0x3
 8591 23cf 30030000 		.4byte	.LC45
 8592 23d3 00       		.byte	0
 8593 23d4 1E       		.uleb128 0x1e
 8594 23d5 4E000000 		.4byte	.LVL475
 8595 23d9 141F0000 		.4byte	0x1f14
 8596 23dd E8230000 		.4byte	0x23e8
 8597 23e1 17       		.uleb128 0x17
ARM GAS  C:\Users\Phuong\AppData\Local\Temp\ccaRXo0w.s 			page 173


 8598 23e2 01       		.uleb128 0x1
 8599 23e3 50       		.byte	0x50
 8600 23e4 02       		.uleb128 0x2
 8601 23e5 75       		.byte	0x75
 8602 23e6 00       		.sleb128 0
 8603 23e7 00       		.byte	0
 8604 23e8 1E       		.uleb128 0x1e
 8605 23e9 7E000000 		.4byte	.LVL481
 8606 23ed 12280000 		.4byte	0x2812
 8607 23f1 05240000 		.4byte	0x2405
 8608 23f5 17       		.uleb128 0x17
 8609 23f6 01       		.uleb128 0x1
 8610 23f7 50       		.byte	0x50
 8611 23f8 05       		.uleb128 0x5
 8612 23f9 03       		.byte	0x3
 8613 23fa 54030000 		.4byte	.LC47
 8614 23fe 17       		.uleb128 0x17
 8615 23ff 01       		.uleb128 0x1
 8616 2400 51       		.byte	0x51
 8617 2401 02       		.uleb128 0x2
 8618 2402 74       		.byte	0x74
 8619 2403 00       		.sleb128 0
 8620 2404 00       		.byte	0
 8621 2405 1E       		.uleb128 0x1e
 8622 2406 8A000000 		.4byte	.LVL482
 8623 240a DB1F0000 		.4byte	0x1fdb
 8624 240e 19240000 		.4byte	0x2419
 8625 2412 17       		.uleb128 0x17
 8626 2413 01       		.uleb128 0x1
 8627 2414 50       		.byte	0x50
 8628 2415 02       		.uleb128 0x2
 8629 2416 75       		.byte	0x75
 8630 2417 00       		.sleb128 0
 8631 2418 00       		.byte	0
 8632 2419 1E       		.uleb128 0x1e
 8633 241a BA000000 		.4byte	.LVL488
 8634 241e 12280000 		.4byte	0x2812
 8635 2422 36240000 		.4byte	0x2436
 8636 2426 17       		.uleb128 0x17
 8637 2427 01       		.uleb128 0x1
 8638 2428 50       		.byte	0x50
 8639 2429 05       		.uleb128 0x5
 8640 242a 03       		.byte	0x3
 8641 242b 7C030000 		.4byte	.LC49
 8642 242f 17       		.uleb128 0x17
 8643 2430 01       		.uleb128 0x1
 8644 2431 51       		.byte	0x51
 8645 2432 02       		.uleb128 0x2
 8646 2433 74       		.byte	0x74
 8647 2434 00       		.sleb128 0
 8648 2435 00       		.byte	0
 8649 2436 16       		.uleb128 0x16
 8650 2437 C6000000 		.4byte	.LVL489
 8651 243b A2200000 		.4byte	0x20a2
 8652 243f 17       		.uleb128 0x17
 8653 2440 01       		.uleb128 0x1
 8654 2441 50       		.byte	0x50
ARM GAS  C:\Users\Phuong\AppData\Local\Temp\ccaRXo0w.s 			page 174


 8655 2442 02       		.uleb128 0x2
 8656 2443 75       		.byte	0x75
 8657 2444 00       		.sleb128 0
 8658 2445 00       		.byte	0
 8659 2446 00       		.byte	0
 8660 2447 1F       		.uleb128 0x1f
 8661 2448 93000000 		.4byte	0x93
 8662 244c 57240000 		.4byte	0x2457
 8663 2450 20       		.uleb128 0x20
 8664 2451 7D000000 		.4byte	0x7d
 8665 2455 09       		.byte	0x9
 8666 2456 00       		.byte	0
 8667 2457 07       		.uleb128 0x7
 8668 2458 47240000 		.4byte	0x2447
 8669 245c 2B       		.uleb128 0x2b
 8670 245d 41010000 		.4byte	.LASF106
 8671 2461 01       		.byte	0x1
 8672 2462 0103     		.2byte	0x301
 8673 2464 D6010000 		.4byte	0x1d6
 8674 2468 00000000 		.4byte	.LFB23
 8675 246c 3C010000 		.4byte	.LFE23-.LFB23
 8676 2470 01       		.uleb128 0x1
 8677 2471 9C       		.byte	0x9c
 8678 2472 54270000 		.4byte	0x2754
 8679 2476 22       		.uleb128 0x22
 8680 2477 56040000 		.4byte	.LASF66
 8681 247b 01       		.byte	0x1
 8682 247c 0103     		.2byte	0x301
 8683 247e EC010000 		.4byte	0x1ec
 8684 2482 9C180000 		.4byte	.LLST120
 8685 2486 23       		.uleb128 0x23
 8686 2487 5A020000 		.4byte	.LASF64
 8687 248b 01       		.byte	0x1
 8688 248c 0303     		.2byte	0x303
 8689 248e D6010000 		.4byte	0x1d6
 8690 2492 42190000 		.4byte	.LLST121
 8691 2496 19       		.uleb128 0x19
 8692 2497 560A0000 		.4byte	.LASF79
 8693 249b 64270000 		.4byte	0x2764
 8694 249f 05       		.uleb128 0x5
 8695 24a0 03       		.byte	0x3
 8696 24a1 D0010000 		.4byte	__func__.6343
 8697 24a5 1A       		.uleb128 0x1a
 8698 24a6 08000000 		.4byte	.LBB63
 8699 24aa 1E000000 		.4byte	.LBE63-.LBB63
 8700 24ae 01250000 		.4byte	0x2501
 8701 24b2 24       		.uleb128 0x24
 8702 24b3 6C00     		.ascii	"l\000"
 8703 24b5 01       		.byte	0x1
 8704 24b6 0803     		.2byte	0x308
 8705 24b8 D8000000 		.4byte	0xd8
 8706 24bc C6190000 		.4byte	.LLST122
 8707 24c0 1C       		.uleb128 0x1c
 8708 24c1 0C000000 		.4byte	.LVL515
 8709 24c5 AF270000 		.4byte	0x27af
 8710 24c9 1D       		.uleb128 0x1d
 8711 24ca 26000000 		.4byte	.LVL518
ARM GAS  C:\Users\Phuong\AppData\Local\Temp\ccaRXo0w.s 			page 175


 8712 24ce 02       		.uleb128 0x2
 8713 24cf 74       		.byte	0x74
 8714 24d0 00       		.sleb128 0
 8715 24d1 17       		.uleb128 0x17
 8716 24d2 01       		.uleb128 0x1
 8717 24d3 50       		.byte	0x50
 8718 24d4 01       		.uleb128 0x1
 8719 24d5 30       		.byte	0x30
 8720 24d6 17       		.uleb128 0x17
 8721 24d7 01       		.uleb128 0x1
 8722 24d8 51       		.byte	0x51
 8723 24d9 05       		.uleb128 0x5
 8724 24da 03       		.byte	0x3
 8725 24db 00000000 		.4byte	.LC1
 8726 24df 17       		.uleb128 0x17
 8727 24e0 01       		.uleb128 0x1
 8728 24e1 52       		.byte	0x52
 8729 24e2 05       		.uleb128 0x5
 8730 24e3 03       		.byte	0x3
 8731 24e4 D0010000 		.4byte	.LANCHOR3+80
 8732 24e8 17       		.uleb128 0x17
 8733 24e9 01       		.uleb128 0x1
 8734 24ea 53       		.byte	0x53
 8735 24eb 03       		.uleb128 0x3
 8736 24ec 0A       		.byte	0xa
 8737 24ed 0803     		.2byte	0x308
 8738 24ef 17       		.uleb128 0x17
 8739 24f0 02       		.uleb128 0x2
 8740 24f1 7D       		.byte	0x7d
 8741 24f2 00       		.sleb128 0
 8742 24f3 01       		.uleb128 0x1
 8743 24f4 31       		.byte	0x31
 8744 24f5 17       		.uleb128 0x17
 8745 24f6 02       		.uleb128 0x2
 8746 24f7 7D       		.byte	0x7d
 8747 24f8 04       		.sleb128 4
 8748 24f9 05       		.uleb128 0x5
 8749 24fa 03       		.byte	0x3
 8750 24fb E0030000 		.4byte	.LC64
 8751 24ff 00       		.byte	0
 8752 2500 00       		.byte	0
 8753 2501 1A       		.uleb128 0x1a
 8754 2502 38000000 		.4byte	.LBB64
 8755 2506 1E000000 		.4byte	.LBE64-.LBB64
 8756 250a 5D250000 		.4byte	0x255d
 8757 250e 24       		.uleb128 0x24
 8758 250f 6C00     		.ascii	"l\000"
 8759 2511 01       		.byte	0x1
 8760 2512 0F03     		.2byte	0x30f
 8761 2514 D8000000 		.4byte	0xd8
 8762 2518 EF190000 		.4byte	.LLST123
 8763 251c 1C       		.uleb128 0x1c
 8764 251d 3C000000 		.4byte	.LVL524
 8765 2521 AF270000 		.4byte	0x27af
 8766 2525 1D       		.uleb128 0x1d
 8767 2526 54000000 		.4byte	.LVL527
 8768 252a 02       		.uleb128 0x2
ARM GAS  C:\Users\Phuong\AppData\Local\Temp\ccaRXo0w.s 			page 176


 8769 252b 75       		.byte	0x75
 8770 252c 00       		.sleb128 0
 8771 252d 17       		.uleb128 0x17
 8772 252e 01       		.uleb128 0x1
 8773 252f 50       		.byte	0x50
 8774 2530 01       		.uleb128 0x1
 8775 2531 30       		.byte	0x30
 8776 2532 17       		.uleb128 0x17
 8777 2533 01       		.uleb128 0x1
 8778 2534 51       		.byte	0x51
 8779 2535 05       		.uleb128 0x5
 8780 2536 03       		.byte	0x3
 8781 2537 00000000 		.4byte	.LC1
 8782 253b 17       		.uleb128 0x17
 8783 253c 01       		.uleb128 0x1
 8784 253d 52       		.byte	0x52
 8785 253e 05       		.uleb128 0x5
 8786 253f 03       		.byte	0x3
 8787 2540 D0010000 		.4byte	.LANCHOR3+80
 8788 2544 17       		.uleb128 0x17
 8789 2545 01       		.uleb128 0x1
 8790 2546 53       		.byte	0x53
 8791 2547 03       		.uleb128 0x3
 8792 2548 0A       		.byte	0xa
 8793 2549 0F03     		.2byte	0x30f
 8794 254b 17       		.uleb128 0x17
 8795 254c 02       		.uleb128 0x2
 8796 254d 7D       		.byte	0x7d
 8797 254e 00       		.sleb128 0
 8798 254f 01       		.uleb128 0x1
 8799 2550 31       		.byte	0x31
 8800 2551 17       		.uleb128 0x17
 8801 2552 02       		.uleb128 0x2
 8802 2553 7D       		.byte	0x7d
 8803 2554 04       		.sleb128 4
 8804 2555 05       		.uleb128 0x5
 8805 2556 03       		.byte	0x3
 8806 2557 84060000 		.4byte	.LC123
 8807 255b 00       		.byte	0
 8808 255c 00       		.byte	0
 8809 255d 1A       		.uleb128 0x1a
 8810 255e 62000000 		.4byte	.LBB65
 8811 2562 22000000 		.4byte	.LBE65-.LBB65
 8812 2566 C3250000 		.4byte	0x25c3
 8813 256a 24       		.uleb128 0x24
 8814 256b 6C00     		.ascii	"l\000"
 8815 256d 01       		.byte	0x1
 8816 256e 1403     		.2byte	0x314
 8817 2570 D8000000 		.4byte	0xd8
 8818 2574 0D1A0000 		.4byte	.LLST124
 8819 2578 1C       		.uleb128 0x1c
 8820 2579 66000000 		.4byte	.LVL530
 8821 257d AF270000 		.4byte	0x27af
 8822 2581 1D       		.uleb128 0x1d
 8823 2582 84000000 		.4byte	.LVL533
 8824 2586 02       		.uleb128 0x2
 8825 2587 75       		.byte	0x75
ARM GAS  C:\Users\Phuong\AppData\Local\Temp\ccaRXo0w.s 			page 177


 8826 2588 00       		.sleb128 0
 8827 2589 17       		.uleb128 0x17
 8828 258a 01       		.uleb128 0x1
 8829 258b 50       		.byte	0x50
 8830 258c 01       		.uleb128 0x1
 8831 258d 30       		.byte	0x30
 8832 258e 17       		.uleb128 0x17
 8833 258f 01       		.uleb128 0x1
 8834 2590 51       		.byte	0x51
 8835 2591 05       		.uleb128 0x5
 8836 2592 03       		.byte	0x3
 8837 2593 00000000 		.4byte	.LC1
 8838 2597 17       		.uleb128 0x17
 8839 2598 01       		.uleb128 0x1
 8840 2599 52       		.byte	0x52
 8841 259a 05       		.uleb128 0x5
 8842 259b 03       		.byte	0x3
 8843 259c D0010000 		.4byte	.LANCHOR3+80
 8844 25a0 17       		.uleb128 0x17
 8845 25a1 01       		.uleb128 0x1
 8846 25a2 53       		.byte	0x53
 8847 25a3 03       		.uleb128 0x3
 8848 25a4 0A       		.byte	0xa
 8849 25a5 1403     		.2byte	0x314
 8850 25a7 17       		.uleb128 0x17
 8851 25a8 02       		.uleb128 0x2
 8852 25a9 7D       		.byte	0x7d
 8853 25aa 00       		.sleb128 0
 8854 25ab 01       		.uleb128 0x1
 8855 25ac 31       		.byte	0x31
 8856 25ad 17       		.uleb128 0x17
 8857 25ae 02       		.uleb128 0x2
 8858 25af 7D       		.byte	0x7d
 8859 25b0 04       		.sleb128 4
 8860 25b1 05       		.uleb128 0x5
 8861 25b2 03       		.byte	0x3
 8862 25b3 AC060000 		.4byte	.LC126
 8863 25b7 17       		.uleb128 0x17
 8864 25b8 02       		.uleb128 0x2
 8865 25b9 7D       		.byte	0x7d
 8866 25ba 08       		.sleb128 8
 8867 25bb 05       		.uleb128 0x5
 8868 25bc 03       		.byte	0x3
 8869 25bd 30030000 		.4byte	.LC45
 8870 25c1 00       		.byte	0
 8871 25c2 00       		.byte	0
 8872 25c3 1A       		.uleb128 0x1a
 8873 25c4 9C000000 		.4byte	.LBB66
 8874 25c8 22000000 		.4byte	.LBE66-.LBB66
 8875 25cc 29260000 		.4byte	0x2629
 8876 25d0 24       		.uleb128 0x24
 8877 25d1 6C00     		.ascii	"l\000"
 8878 25d3 01       		.byte	0x1
 8879 25d4 1C03     		.2byte	0x31c
 8880 25d6 D8000000 		.4byte	0xd8
 8881 25da 2B1A0000 		.4byte	.LLST125
 8882 25de 1C       		.uleb128 0x1c
ARM GAS  C:\Users\Phuong\AppData\Local\Temp\ccaRXo0w.s 			page 178


 8883 25df A0000000 		.4byte	.LVL537
 8884 25e3 AF270000 		.4byte	0x27af
 8885 25e7 1D       		.uleb128 0x1d
 8886 25e8 BE000000 		.4byte	.LVL540
 8887 25ec 02       		.uleb128 0x2
 8888 25ed 75       		.byte	0x75
 8889 25ee 00       		.sleb128 0
 8890 25ef 17       		.uleb128 0x17
 8891 25f0 01       		.uleb128 0x1
 8892 25f1 50       		.byte	0x50
 8893 25f2 01       		.uleb128 0x1
 8894 25f3 30       		.byte	0x30
 8895 25f4 17       		.uleb128 0x17
 8896 25f5 01       		.uleb128 0x1
 8897 25f6 51       		.byte	0x51
 8898 25f7 05       		.uleb128 0x5
 8899 25f8 03       		.byte	0x3
 8900 25f9 00000000 		.4byte	.LC1
 8901 25fd 17       		.uleb128 0x17
 8902 25fe 01       		.uleb128 0x1
 8903 25ff 52       		.byte	0x52
 8904 2600 05       		.uleb128 0x5
 8905 2601 03       		.byte	0x3
 8906 2602 D0010000 		.4byte	.LANCHOR3+80
 8907 2606 17       		.uleb128 0x17
 8908 2607 01       		.uleb128 0x1
 8909 2608 53       		.byte	0x53
 8910 2609 03       		.uleb128 0x3
 8911 260a 0A       		.byte	0xa
 8912 260b 1C03     		.2byte	0x31c
 8913 260d 17       		.uleb128 0x17
 8914 260e 02       		.uleb128 0x2
 8915 260f 7D       		.byte	0x7d
 8916 2610 00       		.sleb128 0
 8917 2611 01       		.uleb128 0x1
 8918 2612 31       		.byte	0x31
 8919 2613 17       		.uleb128 0x17
 8920 2614 02       		.uleb128 0x2
 8921 2615 7D       		.byte	0x7d
 8922 2616 04       		.sleb128 4
 8923 2617 05       		.uleb128 0x5
 8924 2618 03       		.byte	0x3
 8925 2619 AC060000 		.4byte	.LC126
 8926 261d 17       		.uleb128 0x17
 8927 261e 02       		.uleb128 0x2
 8928 261f 7D       		.byte	0x7d
 8929 2620 08       		.sleb128 8
 8930 2621 05       		.uleb128 0x5
 8931 2622 03       		.byte	0x3
 8932 2623 54030000 		.4byte	.LC47
 8933 2627 00       		.byte	0
 8934 2628 00       		.byte	0
 8935 2629 1A       		.uleb128 0x1a
 8936 262a D8000000 		.4byte	.LBB67
 8937 262e 22000000 		.4byte	.LBE67-.LBB67
 8938 2632 8F260000 		.4byte	0x268f
 8939 2636 24       		.uleb128 0x24
ARM GAS  C:\Users\Phuong\AppData\Local\Temp\ccaRXo0w.s 			page 179


 8940 2637 6C00     		.ascii	"l\000"
 8941 2639 01       		.byte	0x1
 8942 263a 2403     		.2byte	0x324
 8943 263c D8000000 		.4byte	0xd8
 8944 2640 491A0000 		.4byte	.LLST126
 8945 2644 1C       		.uleb128 0x1c
 8946 2645 DC000000 		.4byte	.LVL544
 8947 2649 AF270000 		.4byte	0x27af
 8948 264d 1D       		.uleb128 0x1d
 8949 264e FA000000 		.4byte	.LVL547
 8950 2652 02       		.uleb128 0x2
 8951 2653 75       		.byte	0x75
 8952 2654 00       		.sleb128 0
 8953 2655 17       		.uleb128 0x17
 8954 2656 01       		.uleb128 0x1
 8955 2657 50       		.byte	0x50
 8956 2658 01       		.uleb128 0x1
 8957 2659 30       		.byte	0x30
 8958 265a 17       		.uleb128 0x17
 8959 265b 01       		.uleb128 0x1
 8960 265c 51       		.byte	0x51
 8961 265d 05       		.uleb128 0x5
 8962 265e 03       		.byte	0x3
 8963 265f 00000000 		.4byte	.LC1
 8964 2663 17       		.uleb128 0x17
 8965 2664 01       		.uleb128 0x1
 8966 2665 52       		.byte	0x52
 8967 2666 05       		.uleb128 0x5
 8968 2667 03       		.byte	0x3
 8969 2668 D0010000 		.4byte	.LANCHOR3+80
 8970 266c 17       		.uleb128 0x17
 8971 266d 01       		.uleb128 0x1
 8972 266e 53       		.byte	0x53
 8973 266f 03       		.uleb128 0x3
 8974 2670 0A       		.byte	0xa
 8975 2671 2403     		.2byte	0x324
 8976 2673 17       		.uleb128 0x17
 8977 2674 02       		.uleb128 0x2
 8978 2675 7D       		.byte	0x7d
 8979 2676 00       		.sleb128 0
 8980 2677 01       		.uleb128 0x1
 8981 2678 31       		.byte	0x31
 8982 2679 17       		.uleb128 0x17
 8983 267a 02       		.uleb128 0x2
 8984 267b 7D       		.byte	0x7d
 8985 267c 04       		.sleb128 4
 8986 267d 05       		.uleb128 0x5
 8987 267e 03       		.byte	0x3
 8988 267f AC060000 		.4byte	.LC126
 8989 2683 17       		.uleb128 0x17
 8990 2684 02       		.uleb128 0x2
 8991 2685 7D       		.byte	0x7d
 8992 2686 08       		.sleb128 8
 8993 2687 05       		.uleb128 0x5
 8994 2688 03       		.byte	0x3
 8995 2689 54030000 		.4byte	.LC47
 8996 268d 00       		.byte	0
ARM GAS  C:\Users\Phuong\AppData\Local\Temp\ccaRXo0w.s 			page 180


 8997 268e 00       		.byte	0
 8998 268f 1E       		.uleb128 0x1e
 8999 2690 34000000 		.4byte	.LVL522
 9000 2694 50280000 		.4byte	0x2850
 9001 2698 B8260000 		.4byte	0x26b8
 9002 269c 17       		.uleb128 0x17
 9003 269d 01       		.uleb128 0x1
 9004 269e 50       		.byte	0x50
 9005 269f 05       		.uleb128 0x5
 9006 26a0 03       		.byte	0x3
 9007 26a1 00000000 		.4byte	cloneOption
 9008 26a5 17       		.uleb128 0x17
 9009 26a6 01       		.uleb128 0x1
 9010 26a7 51       		.byte	0x51
 9011 26a8 05       		.uleb128 0x5
 9012 26a9 03       		.byte	0x3
 9013 26aa 00000000 		.4byte	destroyOption
 9014 26ae 17       		.uleb128 0x17
 9015 26af 01       		.uleb128 0x1
 9016 26b0 52       		.byte	0x52
 9017 26b1 05       		.uleb128 0x5
 9018 26b2 03       		.byte	0x3
 9019 26b3 00000000 		.4byte	setOption
 9020 26b7 00       		.byte	0
 9021 26b8 1E       		.uleb128 0x1e
 9022 26b9 5E000000 		.4byte	.LVL529
 9023 26bd 5B280000 		.4byte	0x285b
 9024 26c1 D5260000 		.4byte	0x26d5
 9025 26c5 17       		.uleb128 0x17
 9026 26c6 01       		.uleb128 0x1
 9027 26c7 51       		.byte	0x51
 9028 26c8 05       		.uleb128 0x5
 9029 26c9 03       		.byte	0x3
 9030 26ca 30030000 		.4byte	.LC45
 9031 26ce 17       		.uleb128 0x17
 9032 26cf 01       		.uleb128 0x1
 9033 26d0 52       		.byte	0x52
 9034 26d1 02       		.uleb128 0x2
 9035 26d2 75       		.byte	0x75
 9036 26d3 00       		.sleb128 0
 9037 26d4 00       		.byte	0
 9038 26d5 1E       		.uleb128 0x1e
 9039 26d6 8A000000 		.4byte	.LVL534
 9040 26da 66280000 		.4byte	0x2866
 9041 26de E9260000 		.4byte	0x26e9
 9042 26e2 17       		.uleb128 0x17
 9043 26e3 01       		.uleb128 0x1
 9044 26e4 50       		.byte	0x50
 9045 26e5 02       		.uleb128 0x2
 9046 26e6 74       		.byte	0x74
 9047 26e7 00       		.sleb128 0
 9048 26e8 00       		.byte	0
 9049 26e9 1E       		.uleb128 0x1e
 9050 26ea 98000000 		.4byte	.LVL536
 9051 26ee 5B280000 		.4byte	0x285b
 9052 26f2 0C270000 		.4byte	0x270c
 9053 26f6 17       		.uleb128 0x17
ARM GAS  C:\Users\Phuong\AppData\Local\Temp\ccaRXo0w.s 			page 181


 9054 26f7 01       		.uleb128 0x1
 9055 26f8 50       		.byte	0x50
 9056 26f9 02       		.uleb128 0x2
 9057 26fa 74       		.byte	0x74
 9058 26fb 00       		.sleb128 0
 9059 26fc 17       		.uleb128 0x17
 9060 26fd 01       		.uleb128 0x1
 9061 26fe 51       		.byte	0x51
 9062 26ff 05       		.uleb128 0x5
 9063 2700 03       		.byte	0x3
 9064 2701 54030000 		.4byte	.LC47
 9065 2705 17       		.uleb128 0x17
 9066 2706 01       		.uleb128 0x1
 9067 2707 52       		.byte	0x52
 9068 2708 02       		.uleb128 0x2
 9069 2709 75       		.byte	0x75
 9070 270a 04       		.sleb128 4
 9071 270b 00       		.byte	0
 9072 270c 1E       		.uleb128 0x1e
 9073 270d C4000000 		.4byte	.LVL541
 9074 2711 66280000 		.4byte	0x2866
 9075 2715 20270000 		.4byte	0x2720
 9076 2719 17       		.uleb128 0x17
 9077 271a 01       		.uleb128 0x1
 9078 271b 50       		.byte	0x50
 9079 271c 02       		.uleb128 0x2
 9080 271d 74       		.byte	0x74
 9081 271e 00       		.sleb128 0
 9082 271f 00       		.byte	0
 9083 2720 1E       		.uleb128 0x1e
 9084 2721 D4000000 		.4byte	.LVL543
 9085 2725 5B280000 		.4byte	0x285b
 9086 2729 43270000 		.4byte	0x2743
 9087 272d 17       		.uleb128 0x17
 9088 272e 01       		.uleb128 0x1
 9089 272f 50       		.byte	0x50
 9090 2730 02       		.uleb128 0x2
 9091 2731 74       		.byte	0x74
 9092 2732 00       		.sleb128 0
 9093 2733 17       		.uleb128 0x17
 9094 2734 01       		.uleb128 0x1
 9095 2735 51       		.byte	0x51
 9096 2736 05       		.uleb128 0x5
 9097 2737 03       		.byte	0x3
 9098 2738 7C030000 		.4byte	.LC49
 9099 273c 17       		.uleb128 0x17
 9100 273d 01       		.uleb128 0x1
 9101 273e 52       		.byte	0x52
 9102 273f 02       		.uleb128 0x2
 9103 2740 75       		.byte	0x75
 9104 2741 08       		.sleb128 8
 9105 2742 00       		.byte	0
 9106 2743 16       		.uleb128 0x16
 9107 2744 00010000 		.4byte	.LVL548
 9108 2748 66280000 		.4byte	0x2866
 9109 274c 17       		.uleb128 0x17
 9110 274d 01       		.uleb128 0x1
ARM GAS  C:\Users\Phuong\AppData\Local\Temp\ccaRXo0w.s 			page 182


 9111 274e 50       		.byte	0x50
 9112 274f 02       		.uleb128 0x2
 9113 2750 74       		.byte	0x74
 9114 2751 00       		.sleb128 0
 9115 2752 00       		.byte	0
 9116 2753 00       		.byte	0
 9117 2754 1F       		.uleb128 0x1f
 9118 2755 93000000 		.4byte	0x93
 9119 2759 64270000 		.4byte	0x2764
 9120 275d 20       		.uleb128 0x20
 9121 275e 7D000000 		.4byte	0x7d
 9122 2762 1E       		.byte	0x1e
 9123 2763 00       		.byte	0
 9124 2764 07       		.uleb128 0x7
 9125 2765 54270000 		.4byte	0x2754
 9126 2769 25       		.uleb128 0x25
 9127 276a 2F050000 		.4byte	.LASF107
 9128 276e 01       		.byte	0x1
 9129 276f 14       		.byte	0x14
 9130 2770 7B270000 		.4byte	0x277b
 9131 2774 06       		.uleb128 0x6
 9132 2775 03       		.byte	0x3
 9133 2776 7C030000 		.4byte	.LC49
 9134 277a 9F       		.byte	0x9f
 9135 277b 07       		.uleb128 0x7
 9136 277c 8D000000 		.4byte	0x8d
 9137 2780 25       		.uleb128 0x25
 9138 2781 BA000000 		.4byte	.LASF108
 9139 2785 01       		.byte	0x1
 9140 2786 15       		.byte	0x15
 9141 2787 7B270000 		.4byte	0x277b
 9142 278b 06       		.uleb128 0x6
 9143 278c 03       		.byte	0x3
 9144 278d 30030000 		.4byte	.LC45
 9145 2791 9F       		.byte	0x9f
 9146 2792 25       		.uleb128 0x25
 9147 2793 AC080000 		.4byte	.LASF109
 9148 2797 01       		.byte	0x1
 9149 2798 16       		.byte	0x16
 9150 2799 7B270000 		.4byte	0x277b
 9151 279d 06       		.uleb128 0x6
 9152 279e 03       		.byte	0x3
 9153 279f 54030000 		.4byte	.LC47
 9154 27a3 9F       		.byte	0x9f
 9155 27a4 2E       		.uleb128 0x2e
 9156 27a5 84090000 		.4byte	.LASF110
 9157 27a9 84090000 		.4byte	.LASF110
 9158 27ad 05       		.byte	0x5
 9159 27ae 31       		.byte	0x31
 9160 27af 2E       		.uleb128 0x2e
 9161 27b0 DF0A0000 		.4byte	.LASF111
 9162 27b4 DF0A0000 		.4byte	.LASF111
 9163 27b8 04       		.byte	0x4
 9164 27b9 9D       		.byte	0x9d
 9165 27ba 2E       		.uleb128 0x2e
 9166 27bb ED080000 		.4byte	.LASF112
 9167 27bf ED080000 		.4byte	.LASF112
ARM GAS  C:\Users\Phuong\AppData\Local\Temp\ccaRXo0w.s 			page 183


 9168 27c3 05       		.byte	0x5
 9169 27c4 2D       		.byte	0x2d
 9170 27c5 2E       		.uleb128 0x2e
 9171 27c6 7D040000 		.4byte	.LASF113
 9172 27ca 7D040000 		.4byte	.LASF113
 9173 27ce 08       		.byte	0x8
 9174 27cf 59       		.byte	0x59
 9175 27d0 2E       		.uleb128 0x2e
 9176 27d1 2C010000 		.4byte	.LASF114
 9177 27d5 2C010000 		.4byte	.LASF114
 9178 27d9 05       		.byte	0x5
 9179 27da 2B       		.byte	0x2b
 9180 27db 2E       		.uleb128 0x2e
 9181 27dc A9030000 		.4byte	.LASF115
 9182 27e0 A9030000 		.4byte	.LASF115
 9183 27e4 05       		.byte	0x5
 9184 27e5 2E       		.byte	0x2e
 9185 27e6 2E       		.uleb128 0x2e
 9186 27e7 23010000 		.4byte	.LASF116
 9187 27eb 23010000 		.4byte	.LASF116
 9188 27ef 09       		.byte	0x9
 9189 27f0 1C       		.byte	0x1c
 9190 27f1 2E       		.uleb128 0x2e
 9191 27f2 E4060000 		.4byte	.LASF117
 9192 27f6 E4060000 		.4byte	.LASF117
 9193 27fa 05       		.byte	0x5
 9194 27fb 2F       		.byte	0x2f
 9195 27fc 2E       		.uleb128 0x2e
 9196 27fd 93050000 		.4byte	.LASF118
 9197 2801 93050000 		.4byte	.LASF118
 9198 2805 09       		.byte	0x9
 9199 2806 39       		.byte	0x39
 9200 2807 2E       		.uleb128 0x2e
 9201 2808 39060000 		.4byte	.LASF119
 9202 280c 39060000 		.4byte	.LASF119
 9203 2810 05       		.byte	0x5
 9204 2811 30       		.byte	0x30
 9205 2812 2E       		.uleb128 0x2e
 9206 2813 D80A0000 		.4byte	.LASF120
 9207 2817 D80A0000 		.4byte	.LASF120
 9208 281b 0A       		.byte	0xa
 9209 281c 1C       		.byte	0x1c
 9210 281d 2E       		.uleb128 0x2e
 9211 281e 41020000 		.4byte	.LASF121
 9212 2822 41020000 		.4byte	.LASF121
 9213 2826 08       		.byte	0x8
 9214 2827 64       		.byte	0x64
 9215 2828 2F       		.uleb128 0x2f
 9216 2829 090A0000 		.4byte	.LASF124
 9217 282d 090A0000 		.4byte	.LASF124
 9218 2831 2E       		.uleb128 0x2e
 9219 2832 05090000 		.4byte	.LASF122
 9220 2836 05090000 		.4byte	.LASF122
 9221 283a 05       		.byte	0x5
 9222 283b 29       		.byte	0x29
 9223 283c 2E       		.uleb128 0x2e
 9224 283d CB060000 		.4byte	.LASF123
ARM GAS  C:\Users\Phuong\AppData\Local\Temp\ccaRXo0w.s 			page 184


 9225 2841 CB060000 		.4byte	.LASF123
 9226 2845 05       		.byte	0x5
 9227 2846 2A       		.byte	0x2a
 9228 2847 2F       		.uleb128 0x2f
 9229 2848 20060000 		.4byte	.LASF125
 9230 284c 20060000 		.4byte	.LASF125
 9231 2850 2E       		.uleb128 0x2e
 9232 2851 4C070000 		.4byte	.LASF126
 9233 2855 4C070000 		.4byte	.LASF126
 9234 2859 06       		.byte	0x6
 9235 285a 26       		.byte	0x26
 9236 285b 2E       		.uleb128 0x2e
 9237 285c D7090000 		.4byte	.LASF127
 9238 2860 D7090000 		.4byte	.LASF127
 9239 2864 06       		.byte	0x6
 9240 2865 28       		.byte	0x28
 9241 2866 2E       		.uleb128 0x2e
 9242 2867 7D0A0000 		.4byte	.LASF128
 9243 286b 7D0A0000 		.4byte	.LASF128
 9244 286f 06       		.byte	0x6
 9245 2870 2A       		.byte	0x2a
 9246 2871 00       		.byte	0
 9247              		.section	.debug_abbrev,"",%progbits
 9248              	.Ldebug_abbrev0:
 9249 0000 01       		.uleb128 0x1
 9250 0001 11       		.uleb128 0x11
 9251 0002 01       		.byte	0x1
 9252 0003 25       		.uleb128 0x25
 9253 0004 0E       		.uleb128 0xe
 9254 0005 13       		.uleb128 0x13
 9255 0006 0B       		.uleb128 0xb
 9256 0007 03       		.uleb128 0x3
 9257 0008 0E       		.uleb128 0xe
 9258 0009 1B       		.uleb128 0x1b
 9259 000a 0E       		.uleb128 0xe
 9260 000b 55       		.uleb128 0x55
 9261 000c 17       		.uleb128 0x17
 9262 000d 11       		.uleb128 0x11
 9263 000e 01       		.uleb128 0x1
 9264 000f 10       		.uleb128 0x10
 9265 0010 17       		.uleb128 0x17
 9266 0011 00       		.byte	0
 9267 0012 00       		.byte	0
 9268 0013 02       		.uleb128 0x2
 9269 0014 16       		.uleb128 0x16
 9270 0015 00       		.byte	0
 9271 0016 03       		.uleb128 0x3
 9272 0017 0E       		.uleb128 0xe
 9273 0018 3A       		.uleb128 0x3a
 9274 0019 0B       		.uleb128 0xb
 9275 001a 3B       		.uleb128 0x3b
 9276 001b 0B       		.uleb128 0xb
 9277 001c 49       		.uleb128 0x49
 9278 001d 13       		.uleb128 0x13
 9279 001e 00       		.byte	0
 9280 001f 00       		.byte	0
 9281 0020 03       		.uleb128 0x3
ARM GAS  C:\Users\Phuong\AppData\Local\Temp\ccaRXo0w.s 			page 185


 9282 0021 24       		.uleb128 0x24
 9283 0022 00       		.byte	0
 9284 0023 0B       		.uleb128 0xb
 9285 0024 0B       		.uleb128 0xb
 9286 0025 3E       		.uleb128 0x3e
 9287 0026 0B       		.uleb128 0xb
 9288 0027 03       		.uleb128 0x3
 9289 0028 0E       		.uleb128 0xe
 9290 0029 00       		.byte	0
 9291 002a 00       		.byte	0
 9292 002b 04       		.uleb128 0x4
 9293 002c 24       		.uleb128 0x24
 9294 002d 00       		.byte	0
 9295 002e 0B       		.uleb128 0xb
 9296 002f 0B       		.uleb128 0xb
 9297 0030 3E       		.uleb128 0x3e
 9298 0031 0B       		.uleb128 0xb
 9299 0032 03       		.uleb128 0x3
 9300 0033 08       		.uleb128 0x8
 9301 0034 00       		.byte	0
 9302 0035 00       		.byte	0
 9303 0036 05       		.uleb128 0x5
 9304 0037 0F       		.uleb128 0xf
 9305 0038 00       		.byte	0
 9306 0039 0B       		.uleb128 0xb
 9307 003a 0B       		.uleb128 0xb
 9308 003b 00       		.byte	0
 9309 003c 00       		.byte	0
 9310 003d 06       		.uleb128 0x6
 9311 003e 0F       		.uleb128 0xf
 9312 003f 00       		.byte	0
 9313 0040 0B       		.uleb128 0xb
 9314 0041 0B       		.uleb128 0xb
 9315 0042 49       		.uleb128 0x49
 9316 0043 13       		.uleb128 0x13
 9317 0044 00       		.byte	0
 9318 0045 00       		.byte	0
 9319 0046 07       		.uleb128 0x7
 9320 0047 26       		.uleb128 0x26
 9321 0048 00       		.byte	0
 9322 0049 49       		.uleb128 0x49
 9323 004a 13       		.uleb128 0x13
 9324 004b 00       		.byte	0
 9325 004c 00       		.byte	0
 9326 004d 08       		.uleb128 0x8
 9327 004e 26       		.uleb128 0x26
 9328 004f 00       		.byte	0
 9329 0050 00       		.byte	0
 9330 0051 00       		.byte	0
 9331 0052 09       		.uleb128 0x9
 9332 0053 04       		.uleb128 0x4
 9333 0054 01       		.byte	0x1
 9334 0055 03       		.uleb128 0x3
 9335 0056 0E       		.uleb128 0xe
 9336 0057 0B       		.uleb128 0xb
 9337 0058 0B       		.uleb128 0xb
 9338 0059 49       		.uleb128 0x49
ARM GAS  C:\Users\Phuong\AppData\Local\Temp\ccaRXo0w.s 			page 186


 9339 005a 13       		.uleb128 0x13
 9340 005b 3A       		.uleb128 0x3a
 9341 005c 0B       		.uleb128 0xb
 9342 005d 3B       		.uleb128 0x3b
 9343 005e 0B       		.uleb128 0xb
 9344 005f 01       		.uleb128 0x1
 9345 0060 13       		.uleb128 0x13
 9346 0061 00       		.byte	0
 9347 0062 00       		.byte	0
 9348 0063 0A       		.uleb128 0xa
 9349 0064 28       		.uleb128 0x28
 9350 0065 00       		.byte	0
 9351 0066 03       		.uleb128 0x3
 9352 0067 0E       		.uleb128 0xe
 9353 0068 1C       		.uleb128 0x1c
 9354 0069 0B       		.uleb128 0xb
 9355 006a 00       		.byte	0
 9356 006b 00       		.byte	0
 9357 006c 0B       		.uleb128 0xb
 9358 006d 15       		.uleb128 0x15
 9359 006e 01       		.byte	0x1
 9360 006f 27       		.uleb128 0x27
 9361 0070 19       		.uleb128 0x19
 9362 0071 01       		.uleb128 0x1
 9363 0072 13       		.uleb128 0x13
 9364 0073 00       		.byte	0
 9365 0074 00       		.byte	0
 9366 0075 0C       		.uleb128 0xc
 9367 0076 05       		.uleb128 0x5
 9368 0077 00       		.byte	0
 9369 0078 49       		.uleb128 0x49
 9370 0079 13       		.uleb128 0x13
 9371 007a 00       		.byte	0
 9372 007b 00       		.byte	0
 9373 007c 0D       		.uleb128 0xd
 9374 007d 18       		.uleb128 0x18
 9375 007e 00       		.byte	0
 9376 007f 00       		.byte	0
 9377 0080 00       		.byte	0
 9378 0081 0E       		.uleb128 0xe
 9379 0082 13       		.uleb128 0x13
 9380 0083 00       		.byte	0
 9381 0084 03       		.uleb128 0x3
 9382 0085 0E       		.uleb128 0xe
 9383 0086 3C       		.uleb128 0x3c
 9384 0087 19       		.uleb128 0x19
 9385 0088 00       		.byte	0
 9386 0089 00       		.byte	0
 9387 008a 0F       		.uleb128 0xf
 9388 008b 13       		.uleb128 0x13
 9389 008c 01       		.byte	0x1
 9390 008d 03       		.uleb128 0x3
 9391 008e 0E       		.uleb128 0xe
 9392 008f 0B       		.uleb128 0xb
 9393 0090 0B       		.uleb128 0xb
 9394 0091 3A       		.uleb128 0x3a
 9395 0092 0B       		.uleb128 0xb
ARM GAS  C:\Users\Phuong\AppData\Local\Temp\ccaRXo0w.s 			page 187


 9396 0093 3B       		.uleb128 0x3b
 9397 0094 0B       		.uleb128 0xb
 9398 0095 01       		.uleb128 0x1
 9399 0096 13       		.uleb128 0x13
 9400 0097 00       		.byte	0
 9401 0098 00       		.byte	0
 9402 0099 10       		.uleb128 0x10
 9403 009a 0D       		.uleb128 0xd
 9404 009b 00       		.byte	0
 9405 009c 03       		.uleb128 0x3
 9406 009d 0E       		.uleb128 0xe
 9407 009e 3A       		.uleb128 0x3a
 9408 009f 0B       		.uleb128 0xb
 9409 00a0 3B       		.uleb128 0x3b
 9410 00a1 0B       		.uleb128 0xb
 9411 00a2 49       		.uleb128 0x49
 9412 00a3 13       		.uleb128 0x13
 9413 00a4 38       		.uleb128 0x38
 9414 00a5 0B       		.uleb128 0xb
 9415 00a6 00       		.byte	0
 9416 00a7 00       		.byte	0
 9417 00a8 11       		.uleb128 0x11
 9418 00a9 2E       		.uleb128 0x2e
 9419 00aa 01       		.byte	0x1
 9420 00ab 03       		.uleb128 0x3
 9421 00ac 0E       		.uleb128 0xe
 9422 00ad 3A       		.uleb128 0x3a
 9423 00ae 0B       		.uleb128 0xb
 9424 00af 3B       		.uleb128 0x3b
 9425 00b0 0B       		.uleb128 0xb
 9426 00b1 27       		.uleb128 0x27
 9427 00b2 19       		.uleb128 0x19
 9428 00b3 11       		.uleb128 0x11
 9429 00b4 01       		.uleb128 0x1
 9430 00b5 12       		.uleb128 0x12
 9431 00b6 06       		.uleb128 0x6
 9432 00b7 40       		.uleb128 0x40
 9433 00b8 18       		.uleb128 0x18
 9434 00b9 9642     		.uleb128 0x2116
 9435 00bb 19       		.uleb128 0x19
 9436 00bc 01       		.uleb128 0x1
 9437 00bd 13       		.uleb128 0x13
 9438 00be 00       		.byte	0
 9439 00bf 00       		.byte	0
 9440 00c0 12       		.uleb128 0x12
 9441 00c1 05       		.uleb128 0x5
 9442 00c2 00       		.byte	0
 9443 00c3 03       		.uleb128 0x3
 9444 00c4 0E       		.uleb128 0xe
 9445 00c5 3A       		.uleb128 0x3a
 9446 00c6 0B       		.uleb128 0xb
 9447 00c7 3B       		.uleb128 0x3b
 9448 00c8 0B       		.uleb128 0xb
 9449 00c9 49       		.uleb128 0x49
 9450 00ca 13       		.uleb128 0x13
 9451 00cb 02       		.uleb128 0x2
 9452 00cc 17       		.uleb128 0x17
ARM GAS  C:\Users\Phuong\AppData\Local\Temp\ccaRXo0w.s 			page 188


 9453 00cd 00       		.byte	0
 9454 00ce 00       		.byte	0
 9455 00cf 13       		.uleb128 0x13
 9456 00d0 2E       		.uleb128 0x2e
 9457 00d1 01       		.byte	0x1
 9458 00d2 03       		.uleb128 0x3
 9459 00d3 0E       		.uleb128 0xe
 9460 00d4 3A       		.uleb128 0x3a
 9461 00d5 0B       		.uleb128 0xb
 9462 00d6 3B       		.uleb128 0x3b
 9463 00d7 0B       		.uleb128 0xb
 9464 00d8 27       		.uleb128 0x27
 9465 00d9 19       		.uleb128 0x19
 9466 00da 49       		.uleb128 0x49
 9467 00db 13       		.uleb128 0x13
 9468 00dc 11       		.uleb128 0x11
 9469 00dd 01       		.uleb128 0x1
 9470 00de 12       		.uleb128 0x12
 9471 00df 06       		.uleb128 0x6
 9472 00e0 40       		.uleb128 0x40
 9473 00e1 18       		.uleb128 0x18
 9474 00e2 9742     		.uleb128 0x2117
 9475 00e4 19       		.uleb128 0x19
 9476 00e5 01       		.uleb128 0x1
 9477 00e6 13       		.uleb128 0x13
 9478 00e7 00       		.byte	0
 9479 00e8 00       		.byte	0
 9480 00e9 14       		.uleb128 0x14
 9481 00ea 05       		.uleb128 0x5
 9482 00eb 00       		.byte	0
 9483 00ec 03       		.uleb128 0x3
 9484 00ed 0E       		.uleb128 0xe
 9485 00ee 3A       		.uleb128 0x3a
 9486 00ef 0B       		.uleb128 0xb
 9487 00f0 3B       		.uleb128 0x3b
 9488 00f1 0B       		.uleb128 0xb
 9489 00f2 49       		.uleb128 0x49
 9490 00f3 13       		.uleb128 0x13
 9491 00f4 02       		.uleb128 0x2
 9492 00f5 18       		.uleb128 0x18
 9493 00f6 00       		.byte	0
 9494 00f7 00       		.byte	0
 9495 00f8 15       		.uleb128 0x15
 9496 00f9 34       		.uleb128 0x34
 9497 00fa 00       		.byte	0
 9498 00fb 03       		.uleb128 0x3
 9499 00fc 0E       		.uleb128 0xe
 9500 00fd 3A       		.uleb128 0x3a
 9501 00fe 0B       		.uleb128 0xb
 9502 00ff 3B       		.uleb128 0x3b
 9503 0100 0B       		.uleb128 0xb
 9504 0101 49       		.uleb128 0x49
 9505 0102 13       		.uleb128 0x13
 9506 0103 02       		.uleb128 0x2
 9507 0104 17       		.uleb128 0x17
 9508 0105 00       		.byte	0
 9509 0106 00       		.byte	0
ARM GAS  C:\Users\Phuong\AppData\Local\Temp\ccaRXo0w.s 			page 189


 9510 0107 16       		.uleb128 0x16
 9511 0108 898201   		.uleb128 0x4109
 9512 010b 01       		.byte	0x1
 9513 010c 11       		.uleb128 0x11
 9514 010d 01       		.uleb128 0x1
 9515 010e 31       		.uleb128 0x31
 9516 010f 13       		.uleb128 0x13
 9517 0110 00       		.byte	0
 9518 0111 00       		.byte	0
 9519 0112 17       		.uleb128 0x17
 9520 0113 8A8201   		.uleb128 0x410a
 9521 0116 00       		.byte	0
 9522 0117 02       		.uleb128 0x2
 9523 0118 18       		.uleb128 0x18
 9524 0119 9142     		.uleb128 0x2111
 9525 011b 18       		.uleb128 0x18
 9526 011c 00       		.byte	0
 9527 011d 00       		.byte	0
 9528 011e 18       		.uleb128 0x18
 9529 011f 2E       		.uleb128 0x2e
 9530 0120 01       		.byte	0x1
 9531 0121 03       		.uleb128 0x3
 9532 0122 0E       		.uleb128 0xe
 9533 0123 3A       		.uleb128 0x3a
 9534 0124 0B       		.uleb128 0xb
 9535 0125 3B       		.uleb128 0x3b
 9536 0126 0B       		.uleb128 0xb
 9537 0127 27       		.uleb128 0x27
 9538 0128 19       		.uleb128 0x19
 9539 0129 11       		.uleb128 0x11
 9540 012a 01       		.uleb128 0x1
 9541 012b 12       		.uleb128 0x12
 9542 012c 06       		.uleb128 0x6
 9543 012d 40       		.uleb128 0x40
 9544 012e 18       		.uleb128 0x18
 9545 012f 9742     		.uleb128 0x2117
 9546 0131 19       		.uleb128 0x19
 9547 0132 01       		.uleb128 0x1
 9548 0133 13       		.uleb128 0x13
 9549 0134 00       		.byte	0
 9550 0135 00       		.byte	0
 9551 0136 19       		.uleb128 0x19
 9552 0137 34       		.uleb128 0x34
 9553 0138 00       		.byte	0
 9554 0139 03       		.uleb128 0x3
 9555 013a 0E       		.uleb128 0xe
 9556 013b 49       		.uleb128 0x49
 9557 013c 13       		.uleb128 0x13
 9558 013d 34       		.uleb128 0x34
 9559 013e 19       		.uleb128 0x19
 9560 013f 02       		.uleb128 0x2
 9561 0140 18       		.uleb128 0x18
 9562 0141 00       		.byte	0
 9563 0142 00       		.byte	0
 9564 0143 1A       		.uleb128 0x1a
 9565 0144 0B       		.uleb128 0xb
 9566 0145 01       		.byte	0x1
ARM GAS  C:\Users\Phuong\AppData\Local\Temp\ccaRXo0w.s 			page 190


 9567 0146 11       		.uleb128 0x11
 9568 0147 01       		.uleb128 0x1
 9569 0148 12       		.uleb128 0x12
 9570 0149 06       		.uleb128 0x6
 9571 014a 01       		.uleb128 0x1
 9572 014b 13       		.uleb128 0x13
 9573 014c 00       		.byte	0
 9574 014d 00       		.byte	0
 9575 014e 1B       		.uleb128 0x1b
 9576 014f 34       		.uleb128 0x34
 9577 0150 00       		.byte	0
 9578 0151 03       		.uleb128 0x3
 9579 0152 08       		.uleb128 0x8
 9580 0153 3A       		.uleb128 0x3a
 9581 0154 0B       		.uleb128 0xb
 9582 0155 3B       		.uleb128 0x3b
 9583 0156 0B       		.uleb128 0xb
 9584 0157 49       		.uleb128 0x49
 9585 0158 13       		.uleb128 0x13
 9586 0159 02       		.uleb128 0x2
 9587 015a 17       		.uleb128 0x17
 9588 015b 00       		.byte	0
 9589 015c 00       		.byte	0
 9590 015d 1C       		.uleb128 0x1c
 9591 015e 898201   		.uleb128 0x4109
 9592 0161 00       		.byte	0
 9593 0162 11       		.uleb128 0x11
 9594 0163 01       		.uleb128 0x1
 9595 0164 31       		.uleb128 0x31
 9596 0165 13       		.uleb128 0x13
 9597 0166 00       		.byte	0
 9598 0167 00       		.byte	0
 9599 0168 1D       		.uleb128 0x1d
 9600 0169 898201   		.uleb128 0x4109
 9601 016c 01       		.byte	0x1
 9602 016d 11       		.uleb128 0x11
 9603 016e 01       		.uleb128 0x1
 9604 016f 9342     		.uleb128 0x2113
 9605 0171 18       		.uleb128 0x18
 9606 0172 00       		.byte	0
 9607 0173 00       		.byte	0
 9608 0174 1E       		.uleb128 0x1e
 9609 0175 898201   		.uleb128 0x4109
 9610 0178 01       		.byte	0x1
 9611 0179 11       		.uleb128 0x11
 9612 017a 01       		.uleb128 0x1
 9613 017b 31       		.uleb128 0x31
 9614 017c 13       		.uleb128 0x13
 9615 017d 01       		.uleb128 0x1
 9616 017e 13       		.uleb128 0x13
 9617 017f 00       		.byte	0
 9618 0180 00       		.byte	0
 9619 0181 1F       		.uleb128 0x1f
 9620 0182 01       		.uleb128 0x1
 9621 0183 01       		.byte	0x1
 9622 0184 49       		.uleb128 0x49
 9623 0185 13       		.uleb128 0x13
ARM GAS  C:\Users\Phuong\AppData\Local\Temp\ccaRXo0w.s 			page 191


 9624 0186 01       		.uleb128 0x1
 9625 0187 13       		.uleb128 0x13
 9626 0188 00       		.byte	0
 9627 0189 00       		.byte	0
 9628 018a 20       		.uleb128 0x20
 9629 018b 21       		.uleb128 0x21
 9630 018c 00       		.byte	0
 9631 018d 49       		.uleb128 0x49
 9632 018e 13       		.uleb128 0x13
 9633 018f 2F       		.uleb128 0x2f
 9634 0190 0B       		.uleb128 0xb
 9635 0191 00       		.byte	0
 9636 0192 00       		.byte	0
 9637 0193 21       		.uleb128 0x21
 9638 0194 2E       		.uleb128 0x2e
 9639 0195 01       		.byte	0x1
 9640 0196 03       		.uleb128 0x3
 9641 0197 0E       		.uleb128 0xe
 9642 0198 3A       		.uleb128 0x3a
 9643 0199 0B       		.uleb128 0xb
 9644 019a 3B       		.uleb128 0x3b
 9645 019b 05       		.uleb128 0x5
 9646 019c 27       		.uleb128 0x27
 9647 019d 19       		.uleb128 0x19
 9648 019e 49       		.uleb128 0x49
 9649 019f 13       		.uleb128 0x13
 9650 01a0 11       		.uleb128 0x11
 9651 01a1 01       		.uleb128 0x1
 9652 01a2 12       		.uleb128 0x12
 9653 01a3 06       		.uleb128 0x6
 9654 01a4 40       		.uleb128 0x40
 9655 01a5 18       		.uleb128 0x18
 9656 01a6 9742     		.uleb128 0x2117
 9657 01a8 19       		.uleb128 0x19
 9658 01a9 01       		.uleb128 0x1
 9659 01aa 13       		.uleb128 0x13
 9660 01ab 00       		.byte	0
 9661 01ac 00       		.byte	0
 9662 01ad 22       		.uleb128 0x22
 9663 01ae 05       		.uleb128 0x5
 9664 01af 00       		.byte	0
 9665 01b0 03       		.uleb128 0x3
 9666 01b1 0E       		.uleb128 0xe
 9667 01b2 3A       		.uleb128 0x3a
 9668 01b3 0B       		.uleb128 0xb
 9669 01b4 3B       		.uleb128 0x3b
 9670 01b5 05       		.uleb128 0x5
 9671 01b6 49       		.uleb128 0x49
 9672 01b7 13       		.uleb128 0x13
 9673 01b8 02       		.uleb128 0x2
 9674 01b9 17       		.uleb128 0x17
 9675 01ba 00       		.byte	0
 9676 01bb 00       		.byte	0
 9677 01bc 23       		.uleb128 0x23
 9678 01bd 34       		.uleb128 0x34
 9679 01be 00       		.byte	0
 9680 01bf 03       		.uleb128 0x3
ARM GAS  C:\Users\Phuong\AppData\Local\Temp\ccaRXo0w.s 			page 192


 9681 01c0 0E       		.uleb128 0xe
 9682 01c1 3A       		.uleb128 0x3a
 9683 01c2 0B       		.uleb128 0xb
 9684 01c3 3B       		.uleb128 0x3b
 9685 01c4 05       		.uleb128 0x5
 9686 01c5 49       		.uleb128 0x49
 9687 01c6 13       		.uleb128 0x13
 9688 01c7 02       		.uleb128 0x2
 9689 01c8 17       		.uleb128 0x17
 9690 01c9 00       		.byte	0
 9691 01ca 00       		.byte	0
 9692 01cb 24       		.uleb128 0x24
 9693 01cc 34       		.uleb128 0x34
 9694 01cd 00       		.byte	0
 9695 01ce 03       		.uleb128 0x3
 9696 01cf 08       		.uleb128 0x8
 9697 01d0 3A       		.uleb128 0x3a
 9698 01d1 0B       		.uleb128 0xb
 9699 01d2 3B       		.uleb128 0x3b
 9700 01d3 05       		.uleb128 0x5
 9701 01d4 49       		.uleb128 0x49
 9702 01d5 13       		.uleb128 0x13
 9703 01d6 02       		.uleb128 0x2
 9704 01d7 17       		.uleb128 0x17
 9705 01d8 00       		.byte	0
 9706 01d9 00       		.byte	0
 9707 01da 25       		.uleb128 0x25
 9708 01db 34       		.uleb128 0x34
 9709 01dc 00       		.byte	0
 9710 01dd 03       		.uleb128 0x3
 9711 01de 0E       		.uleb128 0xe
 9712 01df 3A       		.uleb128 0x3a
 9713 01e0 0B       		.uleb128 0xb
 9714 01e1 3B       		.uleb128 0x3b
 9715 01e2 0B       		.uleb128 0xb
 9716 01e3 49       		.uleb128 0x49
 9717 01e4 13       		.uleb128 0x13
 9718 01e5 02       		.uleb128 0x2
 9719 01e6 18       		.uleb128 0x18
 9720 01e7 00       		.byte	0
 9721 01e8 00       		.byte	0
 9722 01e9 26       		.uleb128 0x26
 9723 01ea 898201   		.uleb128 0x4109
 9724 01ed 01       		.byte	0x1
 9725 01ee 11       		.uleb128 0x11
 9726 01ef 01       		.uleb128 0x1
 9727 01f0 9342     		.uleb128 0x2113
 9728 01f2 18       		.uleb128 0x18
 9729 01f3 01       		.uleb128 0x1
 9730 01f4 13       		.uleb128 0x13
 9731 01f5 00       		.byte	0
 9732 01f6 00       		.byte	0
 9733 01f7 27       		.uleb128 0x27
 9734 01f8 0B       		.uleb128 0xb
 9735 01f9 01       		.byte	0x1
 9736 01fa 55       		.uleb128 0x55
 9737 01fb 17       		.uleb128 0x17
ARM GAS  C:\Users\Phuong\AppData\Local\Temp\ccaRXo0w.s 			page 193


 9738 01fc 01       		.uleb128 0x1
 9739 01fd 13       		.uleb128 0x13
 9740 01fe 00       		.byte	0
 9741 01ff 00       		.byte	0
 9742 0200 28       		.uleb128 0x28
 9743 0201 0B       		.uleb128 0xb
 9744 0202 01       		.byte	0x1
 9745 0203 11       		.uleb128 0x11
 9746 0204 01       		.uleb128 0x1
 9747 0205 12       		.uleb128 0x12
 9748 0206 06       		.uleb128 0x6
 9749 0207 00       		.byte	0
 9750 0208 00       		.byte	0
 9751 0209 29       		.uleb128 0x29
 9752 020a 2E       		.uleb128 0x2e
 9753 020b 01       		.byte	0x1
 9754 020c 03       		.uleb128 0x3
 9755 020d 0E       		.uleb128 0xe
 9756 020e 3A       		.uleb128 0x3a
 9757 020f 0B       		.uleb128 0xb
 9758 0210 3B       		.uleb128 0x3b
 9759 0211 05       		.uleb128 0x5
 9760 0212 27       		.uleb128 0x27
 9761 0213 19       		.uleb128 0x19
 9762 0214 11       		.uleb128 0x11
 9763 0215 01       		.uleb128 0x1
 9764 0216 12       		.uleb128 0x12
 9765 0217 06       		.uleb128 0x6
 9766 0218 40       		.uleb128 0x40
 9767 0219 18       		.uleb128 0x18
 9768 021a 9742     		.uleb128 0x2117
 9769 021c 19       		.uleb128 0x19
 9770 021d 01       		.uleb128 0x1
 9771 021e 13       		.uleb128 0x13
 9772 021f 00       		.byte	0
 9773 0220 00       		.byte	0
 9774 0221 2A       		.uleb128 0x2a
 9775 0222 2E       		.uleb128 0x2e
 9776 0223 01       		.byte	0x1
 9777 0224 3F       		.uleb128 0x3f
 9778 0225 19       		.uleb128 0x19
 9779 0226 03       		.uleb128 0x3
 9780 0227 0E       		.uleb128 0xe
 9781 0228 3A       		.uleb128 0x3a
 9782 0229 0B       		.uleb128 0xb
 9783 022a 3B       		.uleb128 0x3b
 9784 022b 05       		.uleb128 0x5
 9785 022c 27       		.uleb128 0x27
 9786 022d 19       		.uleb128 0x19
 9787 022e 11       		.uleb128 0x11
 9788 022f 01       		.uleb128 0x1
 9789 0230 12       		.uleb128 0x12
 9790 0231 06       		.uleb128 0x6
 9791 0232 40       		.uleb128 0x40
 9792 0233 18       		.uleb128 0x18
 9793 0234 9742     		.uleb128 0x2117
 9794 0236 19       		.uleb128 0x19
ARM GAS  C:\Users\Phuong\AppData\Local\Temp\ccaRXo0w.s 			page 194


 9795 0237 01       		.uleb128 0x1
 9796 0238 13       		.uleb128 0x13
 9797 0239 00       		.byte	0
 9798 023a 00       		.byte	0
 9799 023b 2B       		.uleb128 0x2b
 9800 023c 2E       		.uleb128 0x2e
 9801 023d 01       		.byte	0x1
 9802 023e 3F       		.uleb128 0x3f
 9803 023f 19       		.uleb128 0x19
 9804 0240 03       		.uleb128 0x3
 9805 0241 0E       		.uleb128 0xe
 9806 0242 3A       		.uleb128 0x3a
 9807 0243 0B       		.uleb128 0xb
 9808 0244 3B       		.uleb128 0x3b
 9809 0245 05       		.uleb128 0x5
 9810 0246 27       		.uleb128 0x27
 9811 0247 19       		.uleb128 0x19
 9812 0248 49       		.uleb128 0x49
 9813 0249 13       		.uleb128 0x13
 9814 024a 11       		.uleb128 0x11
 9815 024b 01       		.uleb128 0x1
 9816 024c 12       		.uleb128 0x12
 9817 024d 06       		.uleb128 0x6
 9818 024e 40       		.uleb128 0x40
 9819 024f 18       		.uleb128 0x18
 9820 0250 9742     		.uleb128 0x2117
 9821 0252 19       		.uleb128 0x19
 9822 0253 01       		.uleb128 0x1
 9823 0254 13       		.uleb128 0x13
 9824 0255 00       		.byte	0
 9825 0256 00       		.byte	0
 9826 0257 2C       		.uleb128 0x2c
 9827 0258 0B       		.uleb128 0xb
 9828 0259 01       		.byte	0x1
 9829 025a 55       		.uleb128 0x55
 9830 025b 17       		.uleb128 0x17
 9831 025c 00       		.byte	0
 9832 025d 00       		.byte	0
 9833 025e 2D       		.uleb128 0x2d
 9834 025f 34       		.uleb128 0x34
 9835 0260 00       		.byte	0
 9836 0261 03       		.uleb128 0x3
 9837 0262 0E       		.uleb128 0xe
 9838 0263 3A       		.uleb128 0x3a
 9839 0264 0B       		.uleb128 0xb
 9840 0265 3B       		.uleb128 0x3b
 9841 0266 05       		.uleb128 0x5
 9842 0267 49       		.uleb128 0x49
 9843 0268 13       		.uleb128 0x13
 9844 0269 02       		.uleb128 0x2
 9845 026a 18       		.uleb128 0x18
 9846 026b 00       		.byte	0
 9847 026c 00       		.byte	0
 9848 026d 2E       		.uleb128 0x2e
 9849 026e 2E       		.uleb128 0x2e
 9850 026f 00       		.byte	0
 9851 0270 3F       		.uleb128 0x3f
ARM GAS  C:\Users\Phuong\AppData\Local\Temp\ccaRXo0w.s 			page 195


 9852 0271 19       		.uleb128 0x19
 9853 0272 3C       		.uleb128 0x3c
 9854 0273 19       		.uleb128 0x19
 9855 0274 6E       		.uleb128 0x6e
 9856 0275 0E       		.uleb128 0xe
 9857 0276 03       		.uleb128 0x3
 9858 0277 0E       		.uleb128 0xe
 9859 0278 3A       		.uleb128 0x3a
 9860 0279 0B       		.uleb128 0xb
 9861 027a 3B       		.uleb128 0x3b
 9862 027b 0B       		.uleb128 0xb
 9863 027c 00       		.byte	0
 9864 027d 00       		.byte	0
 9865 027e 2F       		.uleb128 0x2f
 9866 027f 2E       		.uleb128 0x2e
 9867 0280 00       		.byte	0
 9868 0281 3F       		.uleb128 0x3f
 9869 0282 19       		.uleb128 0x19
 9870 0283 3C       		.uleb128 0x3c
 9871 0284 19       		.uleb128 0x19
 9872 0285 6E       		.uleb128 0x6e
 9873 0286 0E       		.uleb128 0xe
 9874 0287 03       		.uleb128 0x3
 9875 0288 0E       		.uleb128 0xe
 9876 0289 00       		.byte	0
 9877 028a 00       		.byte	0
 9878 028b 00       		.byte	0
 9879              		.section	.debug_loc,"",%progbits
 9880              	.Ldebug_loc0:
 9881              	.LLST0:
 9882 0000 00000000 		.4byte	.LVL0
 9883 0004 12000000 		.4byte	.LVL2
 9884 0008 0100     		.2byte	0x1
 9885 000a 50       		.byte	0x50
 9886 000b 12000000 		.4byte	.LVL2
 9887 000f 16000000 		.4byte	.LFE2
 9888 0013 0400     		.2byte	0x4
 9889 0015 F3       		.byte	0xf3
 9890 0016 01       		.uleb128 0x1
 9891 0017 50       		.byte	0x50
 9892 0018 9F       		.byte	0x9f
 9893 0019 00000000 		.4byte	0
 9894 001d 00000000 		.4byte	0
 9895              	.LLST1:
 9896 0021 00000000 		.4byte	.LVL0
 9897 0025 0E000000 		.4byte	.LVL1
 9898 0029 0100     		.2byte	0x1
 9899 002b 51       		.byte	0x51
 9900 002c 0E000000 		.4byte	.LVL1
 9901 0030 13000000 		.4byte	.LVL3-1
 9902 0034 0100     		.2byte	0x1
 9903 0036 51       		.byte	0x51
 9904 0037 00000000 		.4byte	0
 9905 003b 00000000 		.4byte	0
 9906              	.LLST2:
 9907 003f 00000000 		.4byte	.LVL0
 9908 0043 13000000 		.4byte	.LVL3-1
ARM GAS  C:\Users\Phuong\AppData\Local\Temp\ccaRXo0w.s 			page 196


 9909 0047 0100     		.2byte	0x1
 9910 0049 52       		.byte	0x52
 9911 004a 13000000 		.4byte	.LVL3-1
 9912 004e 16000000 		.4byte	.LFE2
 9913 0052 0400     		.2byte	0x4
 9914 0054 F3       		.byte	0xf3
 9915 0055 01       		.uleb128 0x1
 9916 0056 52       		.byte	0x52
 9917 0057 9F       		.byte	0x9f
 9918 0058 00000000 		.4byte	0
 9919 005c 00000000 		.4byte	0
 9920              	.LLST3:
 9921 0060 00000000 		.4byte	.LVL4
 9922 0064 0E000000 		.4byte	.LVL6
 9923 0068 0100     		.2byte	0x1
 9924 006a 50       		.byte	0x50
 9925 006b 0E000000 		.4byte	.LVL6
 9926 006f 10000000 		.4byte	.LVL7
 9927 0073 0400     		.2byte	0x4
 9928 0075 F3       		.byte	0xf3
 9929 0076 01       		.uleb128 0x1
 9930 0077 50       		.byte	0x50
 9931 0078 9F       		.byte	0x9f
 9932 0079 10000000 		.4byte	.LVL7
 9933 007d 12000000 		.4byte	.LVL8
 9934 0081 0100     		.2byte	0x1
 9935 0083 50       		.byte	0x50
 9936 0084 12000000 		.4byte	.LVL8
 9937 0088 14000000 		.4byte	.LVL9
 9938 008c 0400     		.2byte	0x4
 9939 008e F3       		.byte	0xf3
 9940 008f 01       		.uleb128 0x1
 9941 0090 50       		.byte	0x50
 9942 0091 9F       		.byte	0x9f
 9943 0092 14000000 		.4byte	.LVL9
 9944 0096 16000000 		.4byte	.LVL10
 9945 009a 0100     		.2byte	0x1
 9946 009c 50       		.byte	0x50
 9947 009d 16000000 		.4byte	.LVL10
 9948 00a1 18000000 		.4byte	.LFE3
 9949 00a5 0400     		.2byte	0x4
 9950 00a7 F3       		.byte	0xf3
 9951 00a8 01       		.uleb128 0x1
 9952 00a9 50       		.byte	0x50
 9953 00aa 9F       		.byte	0x9f
 9954 00ab 00000000 		.4byte	0
 9955 00af 00000000 		.4byte	0
 9956              	.LLST4:
 9957 00b3 00000000 		.4byte	.LVL4
 9958 00b7 06000000 		.4byte	.LVL5
 9959 00bb 0100     		.2byte	0x1
 9960 00bd 52       		.byte	0x52
 9961 00be 06000000 		.4byte	.LVL5
 9962 00c2 10000000 		.4byte	.LVL7
 9963 00c6 0400     		.2byte	0x4
 9964 00c8 F3       		.byte	0xf3
 9965 00c9 01       		.uleb128 0x1
ARM GAS  C:\Users\Phuong\AppData\Local\Temp\ccaRXo0w.s 			page 197


 9966 00ca 52       		.byte	0x52
 9967 00cb 9F       		.byte	0x9f
 9968 00cc 10000000 		.4byte	.LVL7
 9969 00d0 14000000 		.4byte	.LVL9
 9970 00d4 0100     		.2byte	0x1
 9971 00d6 52       		.byte	0x52
 9972 00d7 14000000 		.4byte	.LVL9
 9973 00db 18000000 		.4byte	.LFE3
 9974 00df 0400     		.2byte	0x4
 9975 00e1 F3       		.byte	0xf3
 9976 00e2 01       		.uleb128 0x1
 9977 00e3 52       		.byte	0x52
 9978 00e4 9F       		.byte	0x9f
 9979 00e5 00000000 		.4byte	0
 9980 00e9 00000000 		.4byte	0
 9981              	.LLST5:
 9982 00ed 00000000 		.4byte	.LVL11
 9983 00f1 07000000 		.4byte	.LVL12-1
 9984 00f5 0100     		.2byte	0x1
 9985 00f7 50       		.byte	0x50
 9986 00f8 07000000 		.4byte	.LVL12-1
 9987 00fc 14000000 		.4byte	.LFE1
 9988 0100 0400     		.2byte	0x4
 9989 0102 F3       		.byte	0xf3
 9990 0103 01       		.uleb128 0x1
 9991 0104 50       		.byte	0x50
 9992 0105 9F       		.byte	0x9f
 9993 0106 00000000 		.4byte	0
 9994 010a 00000000 		.4byte	0
 9995              	.LLST6:
 9996 010e 00000000 		.4byte	.LVL11
 9997 0112 07000000 		.4byte	.LVL12-1
 9998 0116 0100     		.2byte	0x1
 9999 0118 51       		.byte	0x51
 10000 0119 07000000 		.4byte	.LVL12-1
 10001 011d 10000000 		.4byte	.LVL14
 10002 0121 0100     		.2byte	0x1
 10003 0123 54       		.byte	0x54
 10004 0124 10000000 		.4byte	.LVL14
 10005 0128 14000000 		.4byte	.LFE1
 10006 012c 0400     		.2byte	0x4
 10007 012e F3       		.byte	0xf3
 10008 012f 01       		.uleb128 0x1
 10009 0130 51       		.byte	0x51
 10010 0131 9F       		.byte	0x9f
 10011 0132 00000000 		.4byte	0
 10012 0136 00000000 		.4byte	0
 10013              	.LLST7:
 10014 013a 08000000 		.4byte	.LVL12
 10015 013e 0A000000 		.4byte	.LVL13
 10016 0142 0100     		.2byte	0x1
 10017 0144 50       		.byte	0x50
 10018 0145 00000000 		.4byte	0
 10019 0149 00000000 		.4byte	0
 10020              	.LLST8:
 10021 014d 08000000 		.4byte	.LVL12
 10022 0151 10000000 		.4byte	.LVL14
ARM GAS  C:\Users\Phuong\AppData\Local\Temp\ccaRXo0w.s 			page 198


 10023 0155 0100     		.2byte	0x1
 10024 0157 54       		.byte	0x54
 10025 0158 10000000 		.4byte	.LVL14
 10026 015c 14000000 		.4byte	.LFE1
 10027 0160 0400     		.2byte	0x4
 10028 0162 F3       		.byte	0xf3
 10029 0163 01       		.uleb128 0x1
 10030 0164 51       		.byte	0x51
 10031 0165 9F       		.byte	0x9f
 10032 0166 00000000 		.4byte	0
 10033 016a 00000000 		.4byte	0
 10034              	.LLST9:
 10035 016e 00000000 		.4byte	.LVL15
 10036 0172 0E000000 		.4byte	.LVL16
 10037 0176 0100     		.2byte	0x1
 10038 0178 50       		.byte	0x50
 10039 0179 0E000000 		.4byte	.LVL16
 10040 017d 4E000000 		.4byte	.LVL28
 10041 0181 0100     		.2byte	0x1
 10042 0183 55       		.byte	0x55
 10043 0184 4E000000 		.4byte	.LVL28
 10044 0188 5C000000 		.4byte	.LFE5
 10045 018c 0400     		.2byte	0x4
 10046 018e F3       		.byte	0xf3
 10047 018f 01       		.uleb128 0x1
 10048 0190 50       		.byte	0x50
 10049 0191 9F       		.byte	0x9f
 10050 0192 00000000 		.4byte	0
 10051 0196 00000000 		.4byte	0
 10052              	.LLST10:
 10053 019a 00000000 		.4byte	.LVL15
 10054 019e 11000000 		.4byte	.LVL17-1
 10055 01a2 0100     		.2byte	0x1
 10056 01a4 51       		.byte	0x51
 10057 01a5 11000000 		.4byte	.LVL17-1
 10058 01a9 26000000 		.4byte	.LVL22
 10059 01ad 0100     		.2byte	0x1
 10060 01af 56       		.byte	0x56
 10061 01b0 26000000 		.4byte	.LVL22
 10062 01b4 5C000000 		.4byte	.LFE5
 10063 01b8 0400     		.2byte	0x4
 10064 01ba F3       		.byte	0xf3
 10065 01bb 01       		.uleb128 0x1
 10066 01bc 51       		.byte	0x51
 10067 01bd 9F       		.byte	0x9f
 10068 01be 00000000 		.4byte	0
 10069 01c2 00000000 		.4byte	0
 10070              	.LLST11:
 10071 01c6 00000000 		.4byte	.LVL15
 10072 01ca 11000000 		.4byte	.LVL17-1
 10073 01ce 0100     		.2byte	0x1
 10074 01d0 52       		.byte	0x52
 10075 01d1 11000000 		.4byte	.LVL17-1
 10076 01d5 5C000000 		.4byte	.LFE5
 10077 01d9 0400     		.2byte	0x4
 10078 01db F3       		.byte	0xf3
 10079 01dc 01       		.uleb128 0x1
ARM GAS  C:\Users\Phuong\AppData\Local\Temp\ccaRXo0w.s 			page 199


 10080 01dd 52       		.byte	0x52
 10081 01de 9F       		.byte	0x9f
 10082 01df 00000000 		.4byte	0
 10083 01e3 00000000 		.4byte	0
 10084              	.LLST12:
 10085 01e7 00000000 		.4byte	.LVL15
 10086 01eb 11000000 		.4byte	.LVL17-1
 10087 01ef 0100     		.2byte	0x1
 10088 01f1 53       		.byte	0x53
 10089 01f2 11000000 		.4byte	.LVL17-1
 10090 01f6 4E000000 		.4byte	.LVL29
 10091 01fa 0100     		.2byte	0x1
 10092 01fc 57       		.byte	0x57
 10093 01fd 4E000000 		.4byte	.LVL29
 10094 0201 5C000000 		.4byte	.LFE5
 10095 0205 0400     		.2byte	0x4
 10096 0207 F3       		.byte	0xf3
 10097 0208 01       		.uleb128 0x1
 10098 0209 53       		.byte	0x53
 10099 020a 9F       		.byte	0x9f
 10100 020b 00000000 		.4byte	0
 10101 020f 00000000 		.4byte	0
 10102              	.LLST13:
 10103 0213 14000000 		.4byte	.LVL18
 10104 0217 18000000 		.4byte	.LVL19
 10105 021b 0100     		.2byte	0x1
 10106 021d 50       		.byte	0x50
 10107 021e 18000000 		.4byte	.LVL19
 10108 0222 4E000000 		.4byte	.LVL27
 10109 0226 0100     		.2byte	0x1
 10110 0228 54       		.byte	0x54
 10111 0229 00000000 		.4byte	0
 10112 022d 00000000 		.4byte	0
 10113              	.LLST14:
 10114 0231 26000000 		.4byte	.LVL22
 10115 0235 3A000000 		.4byte	.LVL23
 10116 0239 0100     		.2byte	0x1
 10117 023b 50       		.byte	0x50
 10118 023c 3A000000 		.4byte	.LVL23
 10119 0240 3C000000 		.4byte	.LVL24
 10120 0244 0100     		.2byte	0x1
 10121 0246 56       		.byte	0x56
 10122 0247 00000000 		.4byte	0
 10123 024b 00000000 		.4byte	0
 10124              	.LLST15:
 10125 024f 00000000 		.4byte	.LVL30
 10126 0253 0C000000 		.4byte	.LVL32
 10127 0257 0100     		.2byte	0x1
 10128 0259 50       		.byte	0x50
 10129 025a 0C000000 		.4byte	.LVL32
 10130 025e 56000000 		.4byte	.LVL46
 10131 0262 0100     		.2byte	0x1
 10132 0264 55       		.byte	0x55
 10133 0265 56000000 		.4byte	.LVL46
 10134 0269 84000000 		.4byte	.LVL51
 10135 026d 0400     		.2byte	0x4
 10136 026f F3       		.byte	0xf3
ARM GAS  C:\Users\Phuong\AppData\Local\Temp\ccaRXo0w.s 			page 200


 10137 0270 01       		.uleb128 0x1
 10138 0271 50       		.byte	0x50
 10139 0272 9F       		.byte	0x9f
 10140 0273 84000000 		.4byte	.LVL51
 10141 0277 9C000000 		.4byte	.LVL57
 10142 027b 0100     		.2byte	0x1
 10143 027d 55       		.byte	0x55
 10144 027e 9C000000 		.4byte	.LVL57
 10145 0282 B4000000 		.4byte	.LFE12
 10146 0286 0400     		.2byte	0x4
 10147 0288 F3       		.byte	0xf3
 10148 0289 01       		.uleb128 0x1
 10149 028a 50       		.byte	0x50
 10150 028b 9F       		.byte	0x9f
 10151 028c 00000000 		.4byte	0
 10152 0290 00000000 		.4byte	0
 10153              	.LLST16:
 10154 0294 00000000 		.4byte	.LVL30
 10155 0298 0C000000 		.4byte	.LVL32
 10156 029c 0100     		.2byte	0x1
 10157 029e 51       		.byte	0x51
 10158 029f 0C000000 		.4byte	.LVL32
 10159 02a3 A0000000 		.4byte	.LVL58
 10160 02a7 0100     		.2byte	0x1
 10161 02a9 56       		.byte	0x56
 10162 02aa A0000000 		.4byte	.LVL58
 10163 02ae B4000000 		.4byte	.LFE12
 10164 02b2 0400     		.2byte	0x4
 10165 02b4 F3       		.byte	0xf3
 10166 02b5 01       		.uleb128 0x1
 10167 02b6 51       		.byte	0x51
 10168 02b7 9F       		.byte	0x9f
 10169 02b8 00000000 		.4byte	0
 10170 02bc 00000000 		.4byte	0
 10171              	.LLST17:
 10172 02c0 08000000 		.4byte	.LVL31
 10173 02c4 0C000000 		.4byte	.LVL32
 10174 02c8 0200     		.2byte	0x2
 10175 02ca 30       		.byte	0x30
 10176 02cb 9F       		.byte	0x9f
 10177 02cc 0C000000 		.4byte	.LVL32
 10178 02d0 38000000 		.4byte	.LVL39
 10179 02d4 0100     		.2byte	0x1
 10180 02d6 57       		.byte	0x57
 10181 02d7 3C000000 		.4byte	.LVL40
 10182 02db 7E000000 		.4byte	.LVL50
 10183 02df 0100     		.2byte	0x1
 10184 02e1 57       		.byte	0x57
 10185 02e2 7E000000 		.4byte	.LVL50
 10186 02e6 84000000 		.4byte	.LVL51
 10187 02ea 0400     		.2byte	0x4
 10188 02ec 0A       		.byte	0xa
 10189 02ed 9601     		.2byte	0x196
 10190 02ef 9F       		.byte	0x9f
 10191 02f0 84000000 		.4byte	.LVL51
 10192 02f4 90000000 		.4byte	.LVL53
 10193 02f8 0100     		.2byte	0x1
ARM GAS  C:\Users\Phuong\AppData\Local\Temp\ccaRXo0w.s 			page 201


 10194 02fa 57       		.byte	0x57
 10195 02fb 92000000 		.4byte	.LVL54
 10196 02ff A0000000 		.4byte	.LVL59
 10197 0303 0100     		.2byte	0x1
 10198 0305 57       		.byte	0x57
 10199 0306 A0000000 		.4byte	.LVL59
 10200 030a B4000000 		.4byte	.LFE12
 10201 030e 0100     		.2byte	0x1
 10202 0310 50       		.byte	0x50
 10203 0311 00000000 		.4byte	0
 10204 0315 00000000 		.4byte	0
 10205              	.LLST18:
 10206 0319 0C000000 		.4byte	.LVL32
 10207 031d 10000000 		.4byte	.LVL33
 10208 0321 0100     		.2byte	0x1
 10209 0323 50       		.byte	0x50
 10210 0324 10000000 		.4byte	.LVL33
 10211 0328 1E000000 		.4byte	.LVL36
 10212 032c 0100     		.2byte	0x1
 10213 032e 54       		.byte	0x54
 10214 032f 3C000000 		.4byte	.LVL40
 10215 0333 44000000 		.4byte	.LVL42
 10216 0337 0100     		.2byte	0x1
 10217 0339 54       		.byte	0x54
 10218 033a 9A000000 		.4byte	.LVL56
 10219 033e 9C000000 		.4byte	.LVL57
 10220 0342 0100     		.2byte	0x1
 10221 0344 50       		.byte	0x50
 10222 0345 00000000 		.4byte	0
 10223 0349 00000000 		.4byte	0
 10224              	.LLST19:
 10225 034d 1E000000 		.4byte	.LVL36
 10226 0351 34000000 		.4byte	.LVL37
 10227 0355 0100     		.2byte	0x1
 10228 0357 50       		.byte	0x50
 10229 0358 34000000 		.4byte	.LVL37
 10230 035c 3C000000 		.4byte	.LVL40
 10231 0360 0100     		.2byte	0x1
 10232 0362 54       		.byte	0x54
 10233 0363 8E000000 		.4byte	.LVL52
 10234 0367 92000000 		.4byte	.LVL54
 10235 036b 0100     		.2byte	0x1
 10236 036d 50       		.byte	0x50
 10237 036e 00000000 		.4byte	0
 10238 0372 00000000 		.4byte	0
 10239              	.LLST20:
 10240 0376 44000000 		.4byte	.LVL42
 10241 037a 48000000 		.4byte	.LVL43
 10242 037e 0100     		.2byte	0x1
 10243 0380 50       		.byte	0x50
 10244 0381 48000000 		.4byte	.LVL43
 10245 0385 4B000000 		.4byte	.LVL44-1
 10246 0389 0100     		.2byte	0x1
 10247 038b 51       		.byte	0x51
 10248 038c 4B000000 		.4byte	.LVL44-1
 10249 0390 8E000000 		.4byte	.LVL52
 10250 0394 0100     		.2byte	0x1
ARM GAS  C:\Users\Phuong\AppData\Local\Temp\ccaRXo0w.s 			page 202


 10251 0396 54       		.byte	0x54
 10252 0397 00000000 		.4byte	0
 10253 039b 00000000 		.4byte	0
 10254              	.LLST21:
 10255 039f 56000000 		.4byte	.LVL46
 10256 03a3 6C000000 		.4byte	.LVL47
 10257 03a7 0100     		.2byte	0x1
 10258 03a9 50       		.byte	0x50
 10259 03aa 6C000000 		.4byte	.LVL47
 10260 03ae 84000000 		.4byte	.LVL51
 10261 03b2 0100     		.2byte	0x1
 10262 03b4 55       		.byte	0x55
 10263 03b5 00000000 		.4byte	0
 10264 03b9 00000000 		.4byte	0
 10265              	.LLST22:
 10266 03bd 00000000 		.4byte	.LVL60
 10267 03c1 0A000000 		.4byte	.LVL61
 10268 03c5 0100     		.2byte	0x1
 10269 03c7 50       		.byte	0x50
 10270 03c8 0A000000 		.4byte	.LVL61
 10271 03cc 74000000 		.4byte	.LVL81
 10272 03d0 0100     		.2byte	0x1
 10273 03d2 55       		.byte	0x55
 10274 03d3 74000000 		.4byte	.LVL81
 10275 03d7 88000000 		.4byte	.LFE4
 10276 03db 0400     		.2byte	0x4
 10277 03dd F3       		.byte	0xf3
 10278 03de 01       		.uleb128 0x1
 10279 03df 50       		.byte	0x50
 10280 03e0 9F       		.byte	0x9f
 10281 03e1 00000000 		.4byte	0
 10282 03e5 00000000 		.4byte	0
 10283              	.LLST23:
 10284 03e9 00000000 		.4byte	.LVL60
 10285 03ed 0D000000 		.4byte	.LVL62-1
 10286 03f1 0100     		.2byte	0x1
 10287 03f3 51       		.byte	0x51
 10288 03f4 0D000000 		.4byte	.LVL62-1
 10289 03f8 22000000 		.4byte	.LVL67
 10290 03fc 0100     		.2byte	0x1
 10291 03fe 54       		.byte	0x54
 10292 03ff 22000000 		.4byte	.LVL67
 10293 0403 3C000000 		.4byte	.LVL70
 10294 0407 0400     		.2byte	0x4
 10295 0409 F3       		.byte	0xf3
 10296 040a 01       		.uleb128 0x1
 10297 040b 51       		.byte	0x51
 10298 040c 9F       		.byte	0x9f
 10299 040d 3C000000 		.4byte	.LVL70
 10300 0411 4E000000 		.4byte	.LVL73
 10301 0415 0100     		.2byte	0x1
 10302 0417 54       		.byte	0x54
 10303 0418 4E000000 		.4byte	.LVL73
 10304 041c 6C000000 		.4byte	.LVL78
 10305 0420 0400     		.2byte	0x4
 10306 0422 F3       		.byte	0xf3
 10307 0423 01       		.uleb128 0x1
ARM GAS  C:\Users\Phuong\AppData\Local\Temp\ccaRXo0w.s 			page 203


 10308 0424 51       		.byte	0x51
 10309 0425 9F       		.byte	0x9f
 10310 0426 6C000000 		.4byte	.LVL78
 10311 042a 70000000 		.4byte	.LVL79
 10312 042e 0100     		.2byte	0x1
 10313 0430 54       		.byte	0x54
 10314 0431 70000000 		.4byte	.LVL79
 10315 0435 88000000 		.4byte	.LFE4
 10316 0439 0400     		.2byte	0x4
 10317 043b F3       		.byte	0xf3
 10318 043c 01       		.uleb128 0x1
 10319 043d 51       		.byte	0x51
 10320 043e 9F       		.byte	0x9f
 10321 043f 00000000 		.4byte	0
 10322 0443 00000000 		.4byte	0
 10323              	.LLST24:
 10324 0447 10000000 		.4byte	.LVL63
 10325 044b 14000000 		.4byte	.LVL64
 10326 044f 0100     		.2byte	0x1
 10327 0451 50       		.byte	0x50
 10328 0452 14000000 		.4byte	.LVL64
 10329 0456 74000000 		.4byte	.LVL82
 10330 045a 0100     		.2byte	0x1
 10331 045c 56       		.byte	0x56
 10332 045d 00000000 		.4byte	0
 10333 0461 00000000 		.4byte	0
 10334              	.LLST25:
 10335 0465 22000000 		.4byte	.LVL67
 10336 0469 36000000 		.4byte	.LVL68
 10337 046d 0100     		.2byte	0x1
 10338 046f 50       		.byte	0x50
 10339 0470 36000000 		.4byte	.LVL68
 10340 0474 3C000000 		.4byte	.LVL70
 10341 0478 0100     		.2byte	0x1
 10342 047a 54       		.byte	0x54
 10343 047b 68000000 		.4byte	.LVL76
 10344 047f 6A000000 		.4byte	.LVL77
 10345 0483 0100     		.2byte	0x1
 10346 0485 50       		.byte	0x50
 10347 0486 6A000000 		.4byte	.LVL77
 10348 048a 6C000000 		.4byte	.LVL78
 10349 048e 0100     		.2byte	0x1
 10350 0490 54       		.byte	0x54
 10351 0491 00000000 		.4byte	0
 10352 0495 00000000 		.4byte	0
 10353              	.LLST26:
 10354 0499 4E000000 		.4byte	.LVL73
 10355 049d 62000000 		.4byte	.LVL74
 10356 04a1 0100     		.2byte	0x1
 10357 04a3 50       		.byte	0x50
 10358 04a4 62000000 		.4byte	.LVL74
 10359 04a8 68000000 		.4byte	.LVL76
 10360 04ac 0100     		.2byte	0x1
 10361 04ae 54       		.byte	0x54
 10362 04af 70000000 		.4byte	.LVL79
 10363 04b3 72000000 		.4byte	.LVL80
 10364 04b7 0100     		.2byte	0x1
ARM GAS  C:\Users\Phuong\AppData\Local\Temp\ccaRXo0w.s 			page 204


 10365 04b9 50       		.byte	0x50
 10366 04ba 00000000 		.4byte	0
 10367 04be 00000000 		.4byte	0
 10368              	.LLST27:
 10369 04c2 00000000 		.4byte	.LVL83
 10370 04c6 08000000 		.4byte	.LVL84
 10371 04ca 0100     		.2byte	0x1
 10372 04cc 50       		.byte	0x50
 10373 04cd 08000000 		.4byte	.LVL84
 10374 04d1 1C010000 		.4byte	.LVL125
 10375 04d5 0100     		.2byte	0x1
 10376 04d7 56       		.byte	0x56
 10377 04d8 1C010000 		.4byte	.LVL125
 10378 04dc 3C010000 		.4byte	.LFE8
 10379 04e0 0400     		.2byte	0x4
 10380 04e2 F3       		.byte	0xf3
 10381 04e3 01       		.uleb128 0x1
 10382 04e4 50       		.byte	0x50
 10383 04e5 9F       		.byte	0x9f
 10384 04e6 00000000 		.4byte	0
 10385 04ea 00000000 		.4byte	0
 10386              	.LLST28:
 10387 04ee 08000000 		.4byte	.LVL84
 10388 04f2 0A000000 		.4byte	.LVL85
 10389 04f6 0100     		.2byte	0x1
 10390 04f8 50       		.byte	0x50
 10391 04f9 0A000000 		.4byte	.LVL85
 10392 04fd 44000000 		.4byte	.LVL96
 10393 0501 0100     		.2byte	0x1
 10394 0503 55       		.byte	0x55
 10395 0504 70000000 		.4byte	.LVL101
 10396 0508 82000000 		.4byte	.LVL104
 10397 050c 0100     		.2byte	0x1
 10398 050e 55       		.byte	0x55
 10399 050f B6000000 		.4byte	.LVL110
 10400 0513 C8000000 		.4byte	.LVL113
 10401 0517 0100     		.2byte	0x1
 10402 0519 55       		.byte	0x55
 10403 051a FC000000 		.4byte	.LVL119
 10404 051e 0E010000 		.4byte	.LVL121
 10405 0522 0100     		.2byte	0x1
 10406 0524 55       		.byte	0x55
 10407 0525 16010000 		.4byte	.LVL123
 10408 0529 1A010000 		.4byte	.LVL124
 10409 052d 0100     		.2byte	0x1
 10410 052f 50       		.byte	0x50
 10411 0530 00000000 		.4byte	0
 10412 0534 00000000 		.4byte	0
 10413              	.LLST29:
 10414 0538 10000000 		.4byte	.LVL87
 10415 053c 15000000 		.4byte	.LVL88-1
 10416 0540 0100     		.2byte	0x1
 10417 0542 50       		.byte	0x50
 10418 0543 15000000 		.4byte	.LVL88-1
 10419 0547 18000000 		.4byte	.LVL89
 10420 054b 0100     		.2byte	0x1
 10421 054d 54       		.byte	0x54
ARM GAS  C:\Users\Phuong\AppData\Local\Temp\ccaRXo0w.s 			page 205


 10422 054e 32000000 		.4byte	.LVL92
 10423 0552 36000000 		.4byte	.LVL93
 10424 0556 0100     		.2byte	0x1
 10425 0558 50       		.byte	0x50
 10426 0559 36000000 		.4byte	.LVL93
 10427 055d 0C010000 		.4byte	.LVL120
 10428 0561 0100     		.2byte	0x1
 10429 0563 54       		.byte	0x54
 10430 0564 00000000 		.4byte	0
 10431 0568 00000000 		.4byte	0
 10432              	.LLST30:
 10433 056c 18000000 		.4byte	.LVL89
 10434 0570 2E000000 		.4byte	.LVL90
 10435 0574 0100     		.2byte	0x1
 10436 0576 50       		.byte	0x50
 10437 0577 2E000000 		.4byte	.LVL90
 10438 057b 32000000 		.4byte	.LVL92
 10439 057f 0100     		.2byte	0x1
 10440 0581 54       		.byte	0x54
 10441 0582 00000000 		.4byte	0
 10442 0586 00000000 		.4byte	0
 10443              	.LLST31:
 10444 058a 44000000 		.4byte	.LVL96
 10445 058e 5C000000 		.4byte	.LVL97
 10446 0592 0100     		.2byte	0x1
 10447 0594 50       		.byte	0x50
 10448 0595 5C000000 		.4byte	.LVL97
 10449 0599 60000000 		.4byte	.LVL99
 10450 059d 0100     		.2byte	0x1
 10451 059f 55       		.byte	0x55
 10452 05a0 00000000 		.4byte	0
 10453 05a4 00000000 		.4byte	0
 10454              	.LLST32:
 10455 05a8 82000000 		.4byte	.LVL104
 10456 05ac 9C000000 		.4byte	.LVL105
 10457 05b0 0100     		.2byte	0x1
 10458 05b2 50       		.byte	0x50
 10459 05b3 9C000000 		.4byte	.LVL105
 10460 05b7 A0000000 		.4byte	.LVL107
 10461 05bb 0100     		.2byte	0x1
 10462 05bd 55       		.byte	0x55
 10463 05be 00000000 		.4byte	0
 10464 05c2 00000000 		.4byte	0
 10465              	.LLST33:
 10466 05c6 C8000000 		.4byte	.LVL113
 10467 05ca E2000000 		.4byte	.LVL114
 10468 05ce 0100     		.2byte	0x1
 10469 05d0 50       		.byte	0x50
 10470 05d1 E2000000 		.4byte	.LVL114
 10471 05d5 E6000000 		.4byte	.LVL116
 10472 05d9 0100     		.2byte	0x1
 10473 05db 55       		.byte	0x55
 10474 05dc 00000000 		.4byte	0
 10475 05e0 00000000 		.4byte	0
 10476              	.LLST34:
 10477 05e4 00000000 		.4byte	.LVL126
 10478 05e8 08000000 		.4byte	.LVL127
ARM GAS  C:\Users\Phuong\AppData\Local\Temp\ccaRXo0w.s 			page 206


 10479 05ec 0100     		.2byte	0x1
 10480 05ee 50       		.byte	0x50
 10481 05ef 08000000 		.4byte	.LVL127
 10482 05f3 90010000 		.4byte	.LVL197
 10483 05f7 0100     		.2byte	0x1
 10484 05f9 57       		.byte	0x57
 10485 05fa 90010000 		.4byte	.LVL197
 10486 05fe A4010000 		.4byte	.LFE7
 10487 0602 0400     		.2byte	0x4
 10488 0604 F3       		.byte	0xf3
 10489 0605 01       		.uleb128 0x1
 10490 0606 50       		.byte	0x50
 10491 0607 9F       		.byte	0x9f
 10492 0608 00000000 		.4byte	0
 10493 060c 00000000 		.4byte	0
 10494              	.LLST35:
 10495 0610 0E000000 		.4byte	.LVL129
 10496 0614 15000000 		.4byte	.LVL130-1
 10497 0618 0100     		.2byte	0x1
 10498 061a 50       		.byte	0x50
 10499 061b 15000000 		.4byte	.LVL130-1
 10500 061f 32000000 		.4byte	.LVL134
 10501 0623 0100     		.2byte	0x1
 10502 0625 55       		.byte	0x55
 10503 0626 32000000 		.4byte	.LVL134
 10504 062a 3A000000 		.4byte	.LVL135
 10505 062e 0100     		.2byte	0x1
 10506 0630 50       		.byte	0x50
 10507 0631 3A000000 		.4byte	.LVL135
 10508 0635 90010000 		.4byte	.LVL196
 10509 0639 0100     		.2byte	0x1
 10510 063b 55       		.byte	0x55
 10511 063c 00000000 		.4byte	0
 10512 0640 00000000 		.4byte	0
 10513              	.LLST36:
 10514 0644 18000000 		.4byte	.LVL131
 10515 0648 2E000000 		.4byte	.LVL132
 10516 064c 0100     		.2byte	0x1
 10517 064e 50       		.byte	0x50
 10518 064f 2E000000 		.4byte	.LVL132
 10519 0653 32000000 		.4byte	.LVL134
 10520 0657 0100     		.2byte	0x1
 10521 0659 54       		.byte	0x54
 10522 065a 00000000 		.4byte	0
 10523 065e 00000000 		.4byte	0
 10524              	.LLST37:
 10525 0662 40000000 		.4byte	.LVL137
 10526 0666 42000000 		.4byte	.LVL138
 10527 066a 0100     		.2byte	0x1
 10528 066c 50       		.byte	0x50
 10529 066d 42000000 		.4byte	.LVL138
 10530 0671 52000000 		.4byte	.LVL143
 10531 0675 0100     		.2byte	0x1
 10532 0677 54       		.byte	0x54
 10533 0678 52000000 		.4byte	.LVL143
 10534 067c 59000000 		.4byte	.LVL144-1
 10535 0680 0100     		.2byte	0x1
ARM GAS  C:\Users\Phuong\AppData\Local\Temp\ccaRXo0w.s 			page 207


 10536 0682 50       		.byte	0x50
 10537 0683 59000000 		.4byte	.LVL144-1
 10538 0687 74000000 		.4byte	.LVL148
 10539 068b 0200     		.2byte	0x2
 10540 068d 91       		.byte	0x91
 10541 068e 5C       		.sleb128 -36
 10542 068f 74000000 		.4byte	.LVL148
 10543 0693 78000000 		.4byte	.LVL149
 10544 0697 0100     		.2byte	0x1
 10545 0699 50       		.byte	0x50
 10546 069a 78000000 		.4byte	.LVL149
 10547 069e A4000000 		.4byte	.LVL154
 10548 06a2 0200     		.2byte	0x2
 10549 06a4 91       		.byte	0x91
 10550 06a5 5C       		.sleb128 -36
 10551 06a6 A4000000 		.4byte	.LVL154
 10552 06aa A8000000 		.4byte	.LVL155
 10553 06ae 0100     		.2byte	0x1
 10554 06b0 54       		.byte	0x54
 10555 06b1 B0000000 		.4byte	.LVL157
 10556 06b5 B2000000 		.4byte	.LVL158
 10557 06b9 0100     		.2byte	0x1
 10558 06bb 50       		.byte	0x50
 10559 06bc B2000000 		.4byte	.LVL158
 10560 06c0 C2000000 		.4byte	.LVL163
 10561 06c4 0100     		.2byte	0x1
 10562 06c6 54       		.byte	0x54
 10563 06c7 C2000000 		.4byte	.LVL163
 10564 06cb C9000000 		.4byte	.LVL164-1
 10565 06cf 0100     		.2byte	0x1
 10566 06d1 50       		.byte	0x50
 10567 06d2 C9000000 		.4byte	.LVL164-1
 10568 06d6 E4000000 		.4byte	.LVL168
 10569 06da 0200     		.2byte	0x2
 10570 06dc 91       		.byte	0x91
 10571 06dd 5C       		.sleb128 -36
 10572 06de E4000000 		.4byte	.LVL168
 10573 06e2 E8000000 		.4byte	.LVL169
 10574 06e6 0100     		.2byte	0x1
 10575 06e8 50       		.byte	0x50
 10576 06e9 E8000000 		.4byte	.LVL169
 10577 06ed 14010000 		.4byte	.LVL174
 10578 06f1 0200     		.2byte	0x2
 10579 06f3 91       		.byte	0x91
 10580 06f4 5C       		.sleb128 -36
 10581 06f5 14010000 		.4byte	.LVL174
 10582 06f9 18010000 		.4byte	.LVL175
 10583 06fd 0100     		.2byte	0x1
 10584 06ff 54       		.byte	0x54
 10585 0700 00000000 		.4byte	0
 10586 0704 00000000 		.4byte	0
 10587              	.LLST38:
 10588 0708 42000000 		.4byte	.LVL138
 10589 070c 5C000000 		.4byte	.LVL145
 10590 0710 0100     		.2byte	0x1
 10591 0712 54       		.byte	0x54
 10592 0713 74000000 		.4byte	.LVL148
ARM GAS  C:\Users\Phuong\AppData\Local\Temp\ccaRXo0w.s 			page 208


 10593 0717 A2000000 		.4byte	.LVL153
 10594 071b 0100     		.2byte	0x1
 10595 071d 54       		.byte	0x54
 10596 071e 00000000 		.4byte	0
 10597 0722 00000000 		.4byte	0
 10598              	.LLST39:
 10599 0726 4A000000 		.4byte	.LVL140
 10600 072a 4C000000 		.4byte	.LVL141
 10601 072e 0100     		.2byte	0x1
 10602 0730 50       		.byte	0x50
 10603 0731 4C000000 		.4byte	.LVL141
 10604 0735 A4000000 		.4byte	.LVL154
 10605 0739 0100     		.2byte	0x1
 10606 073b 56       		.byte	0x56
 10607 073c 00000000 		.4byte	0
 10608 0740 00000000 		.4byte	0
 10609              	.LLST40:
 10610 0744 5C000000 		.4byte	.LVL145
 10611 0748 70000000 		.4byte	.LVL146
 10612 074c 0100     		.2byte	0x1
 10613 074e 50       		.byte	0x50
 10614 074f 70000000 		.4byte	.LVL146
 10615 0753 74000000 		.4byte	.LVL148
 10616 0757 0100     		.2byte	0x1
 10617 0759 54       		.byte	0x54
 10618 075a 00000000 		.4byte	0
 10619 075e 00000000 		.4byte	0
 10620              	.LLST41:
 10621 0762 B2000000 		.4byte	.LVL158
 10622 0766 CC000000 		.4byte	.LVL165
 10623 076a 0100     		.2byte	0x1
 10624 076c 54       		.byte	0x54
 10625 076d E4000000 		.4byte	.LVL168
 10626 0771 12010000 		.4byte	.LVL173
 10627 0775 0100     		.2byte	0x1
 10628 0777 54       		.byte	0x54
 10629 0778 00000000 		.4byte	0
 10630 077c 00000000 		.4byte	0
 10631              	.LLST42:
 10632 0780 BA000000 		.4byte	.LVL160
 10633 0784 BC000000 		.4byte	.LVL161
 10634 0788 0100     		.2byte	0x1
 10635 078a 50       		.byte	0x50
 10636 078b BC000000 		.4byte	.LVL161
 10637 078f 14010000 		.4byte	.LVL174
 10638 0793 0100     		.2byte	0x1
 10639 0795 56       		.byte	0x56
 10640 0796 00000000 		.4byte	0
 10641 079a 00000000 		.4byte	0
 10642              	.LLST43:
 10643 079e CC000000 		.4byte	.LVL165
 10644 07a2 E0000000 		.4byte	.LVL166
 10645 07a6 0100     		.2byte	0x1
 10646 07a8 50       		.byte	0x50
 10647 07a9 E0000000 		.4byte	.LVL166
 10648 07ad E4000000 		.4byte	.LVL168
 10649 07b1 0100     		.2byte	0x1
ARM GAS  C:\Users\Phuong\AppData\Local\Temp\ccaRXo0w.s 			page 209


 10650 07b3 54       		.byte	0x54
 10651 07b4 00000000 		.4byte	0
 10652 07b8 00000000 		.4byte	0
 10653              	.LLST44:
 10654 07bc 26010000 		.4byte	.LVL177
 10655 07c0 28010000 		.4byte	.LVL178
 10656 07c4 0100     		.2byte	0x1
 10657 07c6 50       		.byte	0x50
 10658 07c7 28010000 		.4byte	.LVL178
 10659 07cb 38010000 		.4byte	.LVL183
 10660 07cf 0100     		.2byte	0x1
 10661 07d1 54       		.byte	0x54
 10662 07d2 38010000 		.4byte	.LVL183
 10663 07d6 3F010000 		.4byte	.LVL184-1
 10664 07da 0100     		.2byte	0x1
 10665 07dc 50       		.byte	0x50
 10666 07dd 3F010000 		.4byte	.LVL184-1
 10667 07e1 5A010000 		.4byte	.LVL188
 10668 07e5 0200     		.2byte	0x2
 10669 07e7 91       		.byte	0x91
 10670 07e8 5C       		.sleb128 -36
 10671 07e9 5A010000 		.4byte	.LVL188
 10672 07ed 5E010000 		.4byte	.LVL189
 10673 07f1 0100     		.2byte	0x1
 10674 07f3 50       		.byte	0x50
 10675 07f4 5E010000 		.4byte	.LVL189
 10676 07f8 8A010000 		.4byte	.LVL194
 10677 07fc 0200     		.2byte	0x2
 10678 07fe 91       		.byte	0x91
 10679 07ff 5C       		.sleb128 -36
 10680 0800 8A010000 		.4byte	.LVL194
 10681 0804 8E010000 		.4byte	.LVL195
 10682 0808 0100     		.2byte	0x1
 10683 080a 54       		.byte	0x54
 10684 080b 00000000 		.4byte	0
 10685 080f 00000000 		.4byte	0
 10686              	.LLST45:
 10687 0813 28010000 		.4byte	.LVL178
 10688 0817 42010000 		.4byte	.LVL185
 10689 081b 0100     		.2byte	0x1
 10690 081d 54       		.byte	0x54
 10691 081e 5A010000 		.4byte	.LVL188
 10692 0822 88010000 		.4byte	.LVL193
 10693 0826 0100     		.2byte	0x1
 10694 0828 54       		.byte	0x54
 10695 0829 00000000 		.4byte	0
 10696 082d 00000000 		.4byte	0
 10697              	.LLST46:
 10698 0831 30010000 		.4byte	.LVL180
 10699 0835 32010000 		.4byte	.LVL181
 10700 0839 0100     		.2byte	0x1
 10701 083b 50       		.byte	0x50
 10702 083c 32010000 		.4byte	.LVL181
 10703 0840 8A010000 		.4byte	.LVL194
 10704 0844 0100     		.2byte	0x1
 10705 0846 56       		.byte	0x56
 10706 0847 00000000 		.4byte	0
ARM GAS  C:\Users\Phuong\AppData\Local\Temp\ccaRXo0w.s 			page 210


 10707 084b 00000000 		.4byte	0
 10708              	.LLST47:
 10709 084f 42010000 		.4byte	.LVL185
 10710 0853 56010000 		.4byte	.LVL186
 10711 0857 0100     		.2byte	0x1
 10712 0859 50       		.byte	0x50
 10713 085a 56010000 		.4byte	.LVL186
 10714 085e 5A010000 		.4byte	.LVL188
 10715 0862 0100     		.2byte	0x1
 10716 0864 54       		.byte	0x54
 10717 0865 00000000 		.4byte	0
 10718 0869 00000000 		.4byte	0
 10719              	.LLST48:
 10720 086d 00000000 		.4byte	.LVL198
 10721 0871 17000000 		.4byte	.LVL199-1
 10722 0875 0100     		.2byte	0x1
 10723 0877 50       		.byte	0x50
 10724 0878 17000000 		.4byte	.LVL199-1
 10725 087c 36000000 		.4byte	.LVL203
 10726 0880 0100     		.2byte	0x1
 10727 0882 54       		.byte	0x54
 10728 0883 36000000 		.4byte	.LVL203
 10729 0887 3C000000 		.4byte	.LVL206
 10730 088b 0100     		.2byte	0x1
 10731 088d 50       		.byte	0x50
 10732 088e 3C000000 		.4byte	.LVL206
 10733 0892 4A000000 		.4byte	.LVL210
 10734 0896 0100     		.2byte	0x1
 10735 0898 54       		.byte	0x54
 10736 0899 4A000000 		.4byte	.LVL210
 10737 089d 64000000 		.4byte	.LVL213
 10738 08a1 0400     		.2byte	0x4
 10739 08a3 F3       		.byte	0xf3
 10740 08a4 01       		.uleb128 0x1
 10741 08a5 50       		.byte	0x50
 10742 08a6 9F       		.byte	0x9f
 10743 08a7 64000000 		.4byte	.LVL213
 10744 08ab 8E000000 		.4byte	.LVL219
 10745 08af 0100     		.2byte	0x1
 10746 08b1 54       		.byte	0x54
 10747 08b2 8E000000 		.4byte	.LVL219
 10748 08b6 A8000000 		.4byte	.LFE6
 10749 08ba 0400     		.2byte	0x4
 10750 08bc F3       		.byte	0xf3
 10751 08bd 01       		.uleb128 0x1
 10752 08be 50       		.byte	0x50
 10753 08bf 9F       		.byte	0x9f
 10754 08c0 00000000 		.4byte	0
 10755 08c4 00000000 		.4byte	0
 10756              	.LLST49:
 10757 08c8 00000000 		.4byte	.LVL198
 10758 08cc 17000000 		.4byte	.LVL199-1
 10759 08d0 0100     		.2byte	0x1
 10760 08d2 51       		.byte	0x51
 10761 08d3 17000000 		.4byte	.LVL199-1
 10762 08d7 36000000 		.4byte	.LVL203
 10763 08db 0100     		.2byte	0x1
ARM GAS  C:\Users\Phuong\AppData\Local\Temp\ccaRXo0w.s 			page 211


 10764 08dd 57       		.byte	0x57
 10765 08de 36000000 		.4byte	.LVL203
 10766 08e2 3A000000 		.4byte	.LVL205
 10767 08e6 0100     		.2byte	0x1
 10768 08e8 51       		.byte	0x51
 10769 08e9 3A000000 		.4byte	.LVL205
 10770 08ed 90000000 		.4byte	.LVL220
 10771 08f1 0100     		.2byte	0x1
 10772 08f3 57       		.byte	0x57
 10773 08f4 90000000 		.4byte	.LVL220
 10774 08f8 A8000000 		.4byte	.LFE6
 10775 08fc 0400     		.2byte	0x4
 10776 08fe F3       		.byte	0xf3
 10777 08ff 01       		.uleb128 0x1
 10778 0900 51       		.byte	0x51
 10779 0901 9F       		.byte	0x9f
 10780 0902 00000000 		.4byte	0
 10781 0906 00000000 		.4byte	0
 10782              	.LLST50:
 10783 090a 00000000 		.4byte	.LVL198
 10784 090e 17000000 		.4byte	.LVL199-1
 10785 0912 0100     		.2byte	0x1
 10786 0914 52       		.byte	0x52
 10787 0915 17000000 		.4byte	.LVL199-1
 10788 0919 36000000 		.4byte	.LVL203
 10789 091d 0400     		.2byte	0x4
 10790 091f F3       		.byte	0xf3
 10791 0920 01       		.uleb128 0x1
 10792 0921 52       		.byte	0x52
 10793 0922 9F       		.byte	0x9f
 10794 0923 36000000 		.4byte	.LVL203
 10795 0927 38000000 		.4byte	.LVL204
 10796 092b 0100     		.2byte	0x1
 10797 092d 52       		.byte	0x52
 10798 092e 38000000 		.4byte	.LVL204
 10799 0932 A8000000 		.4byte	.LFE6
 10800 0936 0400     		.2byte	0x4
 10801 0938 F3       		.byte	0xf3
 10802 0939 01       		.uleb128 0x1
 10803 093a 52       		.byte	0x52
 10804 093b 9F       		.byte	0x9f
 10805 093c 00000000 		.4byte	0
 10806 0940 00000000 		.4byte	0
 10807              	.LLST51:
 10808 0944 00000000 		.4byte	.LVL198
 10809 0948 17000000 		.4byte	.LVL199-1
 10810 094c 0100     		.2byte	0x1
 10811 094e 53       		.byte	0x53
 10812 094f 17000000 		.4byte	.LVL199-1
 10813 0953 36000000 		.4byte	.LVL203
 10814 0957 0200     		.2byte	0x2
 10815 0959 91       		.byte	0x91
 10816 095a 64       		.sleb128 -28
 10817 095b 36000000 		.4byte	.LVL203
 10818 095f 3F000000 		.4byte	.LVL207-1
 10819 0963 0100     		.2byte	0x1
 10820 0965 53       		.byte	0x53
ARM GAS  C:\Users\Phuong\AppData\Local\Temp\ccaRXo0w.s 			page 212


 10821 0966 3F000000 		.4byte	.LVL207-1
 10822 096a A8000000 		.4byte	.LFE6
 10823 096e 0200     		.2byte	0x2
 10824 0970 91       		.byte	0x91
 10825 0971 64       		.sleb128 -28
 10826 0972 00000000 		.4byte	0
 10827 0976 00000000 		.4byte	0
 10828              	.LLST52:
 10829 097a 1A000000 		.4byte	.LVL200
 10830 097e 32000000 		.4byte	.LVL201
 10831 0982 0100     		.2byte	0x1
 10832 0984 50       		.byte	0x50
 10833 0985 32000000 		.4byte	.LVL201
 10834 0989 36000000 		.4byte	.LVL203
 10835 098d 0100     		.2byte	0x1
 10836 098f 55       		.byte	0x55
 10837 0990 00000000 		.4byte	0
 10838 0994 00000000 		.4byte	0
 10839              	.LLST53:
 10840 0998 42000000 		.4byte	.LVL208
 10841 099c 47000000 		.4byte	.LVL209-1
 10842 09a0 0100     		.2byte	0x1
 10843 09a2 50       		.byte	0x50
 10844 09a3 47000000 		.4byte	.LVL209-1
 10845 09a7 64000000 		.4byte	.LVL213
 10846 09ab 0100     		.2byte	0x1
 10847 09ad 55       		.byte	0x55
 10848 09ae 64000000 		.4byte	.LVL213
 10849 09b2 67000000 		.4byte	.LVL214-1
 10850 09b6 0100     		.2byte	0x1
 10851 09b8 50       		.byte	0x50
 10852 09b9 67000000 		.4byte	.LVL214-1
 10853 09bd 8E000000 		.4byte	.LVL219
 10854 09c1 0100     		.2byte	0x1
 10855 09c3 55       		.byte	0x55
 10856 09c4 00000000 		.4byte	0
 10857 09c8 00000000 		.4byte	0
 10858              	.LLST54:
 10859 09cc 4A000000 		.4byte	.LVL210
 10860 09d0 60000000 		.4byte	.LVL211
 10861 09d4 0100     		.2byte	0x1
 10862 09d6 50       		.byte	0x50
 10863 09d7 60000000 		.4byte	.LVL211
 10864 09db 64000000 		.4byte	.LVL213
 10865 09df 0100     		.2byte	0x1
 10866 09e1 54       		.byte	0x54
 10867 09e2 00000000 		.4byte	0
 10868 09e6 00000000 		.4byte	0
 10869              	.LLST55:
 10870 09ea 6A000000 		.4byte	.LVL215
 10871 09ee 6E000000 		.4byte	.LVL216
 10872 09f2 0100     		.2byte	0x1
 10873 09f4 50       		.byte	0x50
 10874 09f5 6E000000 		.4byte	.LVL216
 10875 09f9 71000000 		.4byte	.LVL217-1
 10876 09fd 0100     		.2byte	0x1
 10877 09ff 51       		.byte	0x51
ARM GAS  C:\Users\Phuong\AppData\Local\Temp\ccaRXo0w.s 			page 213


 10878 0a00 00000000 		.4byte	0
 10879 0a04 00000000 		.4byte	0
 10880              	.LLST56:
 10881 0a08 00000000 		.4byte	.LVL221
 10882 0a0c 13000000 		.4byte	.LVL222-1
 10883 0a10 0100     		.2byte	0x1
 10884 0a12 50       		.byte	0x50
 10885 0a13 13000000 		.4byte	.LVL222-1
 10886 0a17 34000000 		.4byte	.LVL226
 10887 0a1b 0100     		.2byte	0x1
 10888 0a1d 54       		.byte	0x54
 10889 0a1e 34000000 		.4byte	.LVL226
 10890 0a22 38000000 		.4byte	.LVL228
 10891 0a26 0100     		.2byte	0x1
 10892 0a28 50       		.byte	0x50
 10893 0a29 38000000 		.4byte	.LVL228
 10894 0a2d 82000000 		.4byte	.LVL237
 10895 0a31 0100     		.2byte	0x1
 10896 0a33 54       		.byte	0x54
 10897 0a34 82000000 		.4byte	.LVL237
 10898 0a38 A0000000 		.4byte	.LFE10
 10899 0a3c 0400     		.2byte	0x4
 10900 0a3e F3       		.byte	0xf3
 10901 0a3f 01       		.uleb128 0x1
 10902 0a40 50       		.byte	0x50
 10903 0a41 9F       		.byte	0x9f
 10904 0a42 00000000 		.4byte	0
 10905 0a46 00000000 		.4byte	0
 10906              	.LLST57:
 10907 0a4a 00000000 		.4byte	.LVL221
 10908 0a4e 13000000 		.4byte	.LVL222-1
 10909 0a52 0100     		.2byte	0x1
 10910 0a54 51       		.byte	0x51
 10911 0a55 13000000 		.4byte	.LVL222-1
 10912 0a59 34000000 		.4byte	.LVL226
 10913 0a5d 0100     		.2byte	0x1
 10914 0a5f 55       		.byte	0x55
 10915 0a60 34000000 		.4byte	.LVL226
 10916 0a64 36000000 		.4byte	.LVL227
 10917 0a68 0100     		.2byte	0x1
 10918 0a6a 51       		.byte	0x51
 10919 0a6b 36000000 		.4byte	.LVL227
 10920 0a6f 66000000 		.4byte	.LVL234
 10921 0a73 0100     		.2byte	0x1
 10922 0a75 55       		.byte	0x55
 10923 0a76 66000000 		.4byte	.LVL234
 10924 0a7a A0000000 		.4byte	.LFE10
 10925 0a7e 0400     		.2byte	0x4
 10926 0a80 F3       		.byte	0xf3
 10927 0a81 01       		.uleb128 0x1
 10928 0a82 51       		.byte	0x51
 10929 0a83 9F       		.byte	0x9f
 10930 0a84 00000000 		.4byte	0
 10931 0a88 00000000 		.4byte	0
 10932              	.LLST58:
 10933 0a8c 16000000 		.4byte	.LVL223
 10934 0a90 30000000 		.4byte	.LVL224
ARM GAS  C:\Users\Phuong\AppData\Local\Temp\ccaRXo0w.s 			page 214


 10935 0a94 0100     		.2byte	0x1
 10936 0a96 50       		.byte	0x50
 10937 0a97 30000000 		.4byte	.LVL224
 10938 0a9b 34000000 		.4byte	.LVL226
 10939 0a9f 0100     		.2byte	0x1
 10940 0aa1 56       		.byte	0x56
 10941 0aa2 00000000 		.4byte	0
 10942 0aa6 00000000 		.4byte	0
 10943              	.LLST59:
 10944 0aaa 66000000 		.4byte	.LVL234
 10945 0aae 7E000000 		.4byte	.LVL235
 10946 0ab2 0100     		.2byte	0x1
 10947 0ab4 50       		.byte	0x50
 10948 0ab5 7E000000 		.4byte	.LVL235
 10949 0ab9 80000000 		.4byte	.LVL236
 10950 0abd 0100     		.2byte	0x1
 10951 0abf 55       		.byte	0x55
 10952 0ac0 00000000 		.4byte	0
 10953 0ac4 00000000 		.4byte	0
 10954              	.LLST60:
 10955 0ac8 00000000 		.4byte	.LVL238
 10956 0acc 13000000 		.4byte	.LVL239-1
 10957 0ad0 0100     		.2byte	0x1
 10958 0ad2 50       		.byte	0x50
 10959 0ad3 13000000 		.4byte	.LVL239-1
 10960 0ad7 36000000 		.4byte	.LVL244
 10961 0adb 0100     		.2byte	0x1
 10962 0add 54       		.byte	0x54
 10963 0ade 36000000 		.4byte	.LVL244
 10964 0ae2 3A000000 		.4byte	.LVL246
 10965 0ae6 0100     		.2byte	0x1
 10966 0ae8 50       		.byte	0x50
 10967 0ae9 3A000000 		.4byte	.LVL246
 10968 0aed BE000000 		.4byte	.LVL267
 10969 0af1 0100     		.2byte	0x1
 10970 0af3 54       		.byte	0x54
 10971 0af4 BE000000 		.4byte	.LVL267
 10972 0af8 E0000000 		.4byte	.LFE9
 10973 0afc 0400     		.2byte	0x4
 10974 0afe F3       		.byte	0xf3
 10975 0aff 01       		.uleb128 0x1
 10976 0b00 50       		.byte	0x50
 10977 0b01 9F       		.byte	0x9f
 10978 0b02 00000000 		.4byte	0
 10979 0b06 00000000 		.4byte	0
 10980              	.LLST61:
 10981 0b0a 00000000 		.4byte	.LVL238
 10982 0b0e 13000000 		.4byte	.LVL239-1
 10983 0b12 0100     		.2byte	0x1
 10984 0b14 51       		.byte	0x51
 10985 0b15 13000000 		.4byte	.LVL239-1
 10986 0b19 36000000 		.4byte	.LVL244
 10987 0b1d 0100     		.2byte	0x1
 10988 0b1f 56       		.byte	0x56
 10989 0b20 36000000 		.4byte	.LVL244
 10990 0b24 38000000 		.4byte	.LVL245
 10991 0b28 0100     		.2byte	0x1
ARM GAS  C:\Users\Phuong\AppData\Local\Temp\ccaRXo0w.s 			page 215


 10992 0b2a 51       		.byte	0x51
 10993 0b2b 38000000 		.4byte	.LVL245
 10994 0b2f 6A000000 		.4byte	.LVL253
 10995 0b33 0100     		.2byte	0x1
 10996 0b35 56       		.byte	0x56
 10997 0b36 6A000000 		.4byte	.LVL253
 10998 0b3a 86000000 		.4byte	.LVL256
 10999 0b3e 0400     		.2byte	0x4
 11000 0b40 F3       		.byte	0xf3
 11001 0b41 01       		.uleb128 0x1
 11002 0b42 51       		.byte	0x51
 11003 0b43 9F       		.byte	0x9f
 11004 0b44 86000000 		.4byte	.LVL256
 11005 0b48 BA000000 		.4byte	.LVL266
 11006 0b4c 0100     		.2byte	0x1
 11007 0b4e 56       		.byte	0x56
 11008 0b4f BA000000 		.4byte	.LVL266
 11009 0b53 E0000000 		.4byte	.LFE9
 11010 0b57 0400     		.2byte	0x4
 11011 0b59 F3       		.byte	0xf3
 11012 0b5a 01       		.uleb128 0x1
 11013 0b5b 51       		.byte	0x51
 11014 0b5c 9F       		.byte	0x9f
 11015 0b5d 00000000 		.4byte	0
 11016 0b61 00000000 		.4byte	0
 11017              	.LLST62:
 11018 0b65 62000000 		.4byte	.LVL251
 11019 0b69 67000000 		.4byte	.LVL252-1
 11020 0b6d 0100     		.2byte	0x1
 11021 0b6f 50       		.byte	0x50
 11022 0b70 67000000 		.4byte	.LVL252-1
 11023 0b74 86000000 		.4byte	.LVL256
 11024 0b78 0100     		.2byte	0x1
 11025 0b7a 55       		.byte	0x55
 11026 0b7b 86000000 		.4byte	.LVL256
 11027 0b7f 8D000000 		.4byte	.LVL257-1
 11028 0b83 0100     		.2byte	0x1
 11029 0b85 50       		.byte	0x50
 11030 0b86 8D000000 		.4byte	.LVL257-1
 11031 0b8a 90000000 		.4byte	.LVL258
 11032 0b8e 0100     		.2byte	0x1
 11033 0b90 55       		.byte	0x55
 11034 0b91 BA000000 		.4byte	.LVL266
 11035 0b95 BE000000 		.4byte	.LVL268
 11036 0b99 0100     		.2byte	0x1
 11037 0b9b 55       		.byte	0x55
 11038 0b9c BE000000 		.4byte	.LVL268
 11039 0ba0 E0000000 		.4byte	.LFE9
 11040 0ba4 0100     		.2byte	0x1
 11041 0ba6 50       		.byte	0x50
 11042 0ba7 00000000 		.4byte	0
 11043 0bab 00000000 		.4byte	0
 11044              	.LLST63:
 11045 0baf 16000000 		.4byte	.LVL240
 11046 0bb3 30000000 		.4byte	.LVL241
 11047 0bb7 0100     		.2byte	0x1
 11048 0bb9 50       		.byte	0x50
ARM GAS  C:\Users\Phuong\AppData\Local\Temp\ccaRXo0w.s 			page 216


 11049 0bba 30000000 		.4byte	.LVL241
 11050 0bbe 34000000 		.4byte	.LVL243
 11051 0bc2 0100     		.2byte	0x1
 11052 0bc4 55       		.byte	0x55
 11053 0bc5 B4000000 		.4byte	.LVL264
 11054 0bc9 B8000000 		.4byte	.LVL265
 11055 0bcd 0100     		.2byte	0x1
 11056 0bcf 50       		.byte	0x50
 11057 0bd0 00000000 		.4byte	0
 11058 0bd4 00000000 		.4byte	0
 11059              	.LLST64:
 11060 0bd8 6A000000 		.4byte	.LVL253
 11061 0bdc 82000000 		.4byte	.LVL254
 11062 0be0 0100     		.2byte	0x1
 11063 0be2 50       		.byte	0x50
 11064 0be3 82000000 		.4byte	.LVL254
 11065 0be7 86000000 		.4byte	.LVL256
 11066 0beb 0100     		.2byte	0x1
 11067 0bed 56       		.byte	0x56
 11068 0bee 00000000 		.4byte	0
 11069 0bf2 00000000 		.4byte	0
 11070              	.LLST65:
 11071 0bf6 96000000 		.4byte	.LVL260
 11072 0bfa AE000000 		.4byte	.LVL261
 11073 0bfe 0100     		.2byte	0x1
 11074 0c00 50       		.byte	0x50
 11075 0c01 AE000000 		.4byte	.LVL261
 11076 0c05 B2000000 		.4byte	.LVL263
 11077 0c09 0100     		.2byte	0x1
 11078 0c0b 55       		.byte	0x55
 11079 0c0c B8000000 		.4byte	.LVL265
 11080 0c10 BA000000 		.4byte	.LVL266
 11081 0c14 0100     		.2byte	0x1
 11082 0c16 50       		.byte	0x50
 11083 0c17 00000000 		.4byte	0
 11084 0c1b 00000000 		.4byte	0
 11085              	.LLST66:
 11086 0c1f 00000000 		.4byte	.LVL269
 11087 0c23 08000000 		.4byte	.LVL270
 11088 0c27 0100     		.2byte	0x1
 11089 0c29 50       		.byte	0x50
 11090 0c2a 08000000 		.4byte	.LVL270
 11091 0c2e 36000000 		.4byte	.LVL278
 11092 0c32 0100     		.2byte	0x1
 11093 0c34 54       		.byte	0x54
 11094 0c35 36000000 		.4byte	.LVL278
 11095 0c39 38000000 		.4byte	.LFE11
 11096 0c3d 0400     		.2byte	0x4
 11097 0c3f F3       		.byte	0xf3
 11098 0c40 01       		.uleb128 0x1
 11099 0c41 50       		.byte	0x50
 11100 0c42 9F       		.byte	0x9f
 11101 0c43 00000000 		.4byte	0
 11102 0c47 00000000 		.4byte	0
 11103              	.LLST67:
 11104 0c4b 08000000 		.4byte	.LVL270
 11105 0c4f 10000000 		.4byte	.LVL271
ARM GAS  C:\Users\Phuong\AppData\Local\Temp\ccaRXo0w.s 			page 217


 11106 0c53 0100     		.2byte	0x1
 11107 0c55 50       		.byte	0x50
 11108 0c56 10000000 		.4byte	.LVL271
 11109 0c5a 13000000 		.4byte	.LVL272-1
 11110 0c5e 0100     		.2byte	0x1
 11111 0c60 51       		.byte	0x51
 11112 0c61 1A000000 		.4byte	.LVL273
 11113 0c65 28000000 		.4byte	.LVL274
 11114 0c69 0100     		.2byte	0x1
 11115 0c6b 50       		.byte	0x50
 11116 0c6c 28000000 		.4byte	.LVL274
 11117 0c70 2B000000 		.4byte	.LVL275-1
 11118 0c74 0100     		.2byte	0x1
 11119 0c76 51       		.byte	0x51
 11120 0c77 32000000 		.4byte	.LVL276
 11121 0c7b 36000000 		.4byte	.LVL277
 11122 0c7f 0100     		.2byte	0x1
 11123 0c81 50       		.byte	0x50
 11124 0c82 00000000 		.4byte	0
 11125 0c86 00000000 		.4byte	0
 11126              	.LLST68:
 11127 0c8a 00000000 		.4byte	.LVL279
 11128 0c8e 0B000000 		.4byte	.LVL280-1
 11129 0c92 0100     		.2byte	0x1
 11130 0c94 50       		.byte	0x50
 11131 0c95 0B000000 		.4byte	.LVL280-1
 11132 0c99 2A000000 		.4byte	.LVL284
 11133 0c9d 0100     		.2byte	0x1
 11134 0c9f 55       		.byte	0x55
 11135 0ca0 2A000000 		.4byte	.LVL284
 11136 0ca4 2C000000 		.4byte	.LVL285
 11137 0ca8 0400     		.2byte	0x4
 11138 0caa 75       		.byte	0x75
 11139 0cab D37E     		.sleb128 -173
 11140 0cad 9F       		.byte	0x9f
 11141 0cae 2C000000 		.4byte	.LVL285
 11142 0cb2 2E000000 		.4byte	.LVL286
 11143 0cb6 0400     		.2byte	0x4
 11144 0cb8 75       		.byte	0x75
 11145 0cb9 D47C     		.sleb128 -428
 11146 0cbb 9F       		.byte	0x9f
 11147 0cbc 2E000000 		.4byte	.LVL286
 11148 0cc0 31000000 		.4byte	.LVL287-1
 11149 0cc4 0100     		.2byte	0x1
 11150 0cc6 50       		.byte	0x50
 11151 0cc7 31000000 		.4byte	.LVL287-1
 11152 0ccb 56000000 		.4byte	.LVL293
 11153 0ccf 0100     		.2byte	0x1
 11154 0cd1 55       		.byte	0x55
 11155 0cd2 56000000 		.4byte	.LVL293
 11156 0cd6 5A000000 		.4byte	.LVL294
 11157 0cda 0400     		.2byte	0x4
 11158 0cdc F3       		.byte	0xf3
 11159 0cdd 01       		.uleb128 0x1
 11160 0cde 50       		.byte	0x50
 11161 0cdf 9F       		.byte	0x9f
 11162 0ce0 5A000000 		.4byte	.LVL294
ARM GAS  C:\Users\Phuong\AppData\Local\Temp\ccaRXo0w.s 			page 218


 11163 0ce4 6C000000 		.4byte	.LVL298
 11164 0ce8 0100     		.2byte	0x1
 11165 0cea 55       		.byte	0x55
 11166 0ceb 6C000000 		.4byte	.LVL298
 11167 0cef 8A000000 		.4byte	.LVL302
 11168 0cf3 0400     		.2byte	0x4
 11169 0cf5 F3       		.byte	0xf3
 11170 0cf6 01       		.uleb128 0x1
 11171 0cf7 50       		.byte	0x50
 11172 0cf8 9F       		.byte	0x9f
 11173 0cf9 8A000000 		.4byte	.LVL302
 11174 0cfd 9C000000 		.4byte	.LVL305
 11175 0d01 0100     		.2byte	0x1
 11176 0d03 55       		.byte	0x55
 11177 0d04 9C000000 		.4byte	.LVL305
 11178 0d08 BA000000 		.4byte	.LVL309
 11179 0d0c 0400     		.2byte	0x4
 11180 0d0e F3       		.byte	0xf3
 11181 0d0f 01       		.uleb128 0x1
 11182 0d10 50       		.byte	0x50
 11183 0d11 9F       		.byte	0x9f
 11184 0d12 BA000000 		.4byte	.LVL309
 11185 0d16 CC000000 		.4byte	.LVL312
 11186 0d1a 0100     		.2byte	0x1
 11187 0d1c 55       		.byte	0x55
 11188 0d1d CC000000 		.4byte	.LVL312
 11189 0d21 F6000000 		.4byte	.LVL318
 11190 0d25 0400     		.2byte	0x4
 11191 0d27 F3       		.byte	0xf3
 11192 0d28 01       		.uleb128 0x1
 11193 0d29 50       		.byte	0x50
 11194 0d2a 9F       		.byte	0x9f
 11195 0d2b F6000000 		.4byte	.LVL318
 11196 0d2f F8000000 		.4byte	.LVL319
 11197 0d33 0100     		.2byte	0x1
 11198 0d35 55       		.byte	0x55
 11199 0d36 F8000000 		.4byte	.LVL319
 11200 0d3a 22010000 		.4byte	.LVL328
 11201 0d3e 0400     		.2byte	0x4
 11202 0d40 F3       		.byte	0xf3
 11203 0d41 01       		.uleb128 0x1
 11204 0d42 50       		.byte	0x50
 11205 0d43 9F       		.byte	0x9f
 11206 0d44 22010000 		.4byte	.LVL328
 11207 0d48 24010000 		.4byte	.LVL329
 11208 0d4c 0100     		.2byte	0x1
 11209 0d4e 55       		.byte	0x55
 11210 0d4f 24010000 		.4byte	.LVL329
 11211 0d53 28010000 		.4byte	.LVL330
 11212 0d57 0400     		.2byte	0x4
 11213 0d59 F3       		.byte	0xf3
 11214 0d5a 01       		.uleb128 0x1
 11215 0d5b 50       		.byte	0x50
 11216 0d5c 9F       		.byte	0x9f
 11217 0d5d 28010000 		.4byte	.LVL330
 11218 0d61 2A010000 		.4byte	.LVL331
 11219 0d65 0100     		.2byte	0x1
ARM GAS  C:\Users\Phuong\AppData\Local\Temp\ccaRXo0w.s 			page 219


 11220 0d67 55       		.byte	0x55
 11221 0d68 2A010000 		.4byte	.LVL331
 11222 0d6c 4C010000 		.4byte	.LFE13
 11223 0d70 0400     		.2byte	0x4
 11224 0d72 F3       		.byte	0xf3
 11225 0d73 01       		.uleb128 0x1
 11226 0d74 50       		.byte	0x50
 11227 0d75 9F       		.byte	0x9f
 11228 0d76 00000000 		.4byte	0
 11229 0d7a 00000000 		.4byte	0
 11230              	.LLST69:
 11231 0d7e FE000000 		.4byte	.LVL321
 11232 0d82 22010000 		.4byte	.LVL328
 11233 0d86 0100     		.2byte	0x1
 11234 0d88 55       		.byte	0x55
 11235 0d89 2C010000 		.4byte	.LVL332
 11236 0d8d 30010000 		.4byte	.LVL333
 11237 0d91 0100     		.2byte	0x1
 11238 0d93 55       		.byte	0x55
 11239 0d94 30010000 		.4byte	.LVL333
 11240 0d98 4C010000 		.4byte	.LFE13
 11241 0d9c 0100     		.2byte	0x1
 11242 0d9e 50       		.byte	0x50
 11243 0d9f 00000000 		.4byte	0
 11244 0da3 00000000 		.4byte	0
 11245              	.LLST70:
 11246 0da7 0E000000 		.4byte	.LVL281
 11247 0dab 26000000 		.4byte	.LVL282
 11248 0daf 0100     		.2byte	0x1
 11249 0db1 50       		.byte	0x50
 11250 0db2 26000000 		.4byte	.LVL282
 11251 0db6 2E000000 		.4byte	.LVL286
 11252 0dba 0100     		.2byte	0x1
 11253 0dbc 54       		.byte	0x54
 11254 0dbd 22010000 		.4byte	.LVL328
 11255 0dc1 28010000 		.4byte	.LVL330
 11256 0dc5 0100     		.2byte	0x1
 11257 0dc7 50       		.byte	0x50
 11258 0dc8 00000000 		.4byte	0
 11259 0dcc 00000000 		.4byte	0
 11260              	.LLST71:
 11261 0dd0 34000000 		.4byte	.LVL288
 11262 0dd4 39000000 		.4byte	.LVL289-1
 11263 0dd8 0100     		.2byte	0x1
 11264 0dda 50       		.byte	0x50
 11265 0ddb 39000000 		.4byte	.LVL289-1
 11266 0ddf 3C000000 		.4byte	.LVL290
 11267 0de3 0100     		.2byte	0x1
 11268 0de5 54       		.byte	0x54
 11269 0de6 5A000000 		.4byte	.LVL294
 11270 0dea 5E000000 		.4byte	.LVL295
 11271 0dee 0100     		.2byte	0x1
 11272 0df0 50       		.byte	0x50
 11273 0df1 5E000000 		.4byte	.LVL295
 11274 0df5 22010000 		.4byte	.LVL328
 11275 0df9 0100     		.2byte	0x1
 11276 0dfb 54       		.byte	0x54
ARM GAS  C:\Users\Phuong\AppData\Local\Temp\ccaRXo0w.s 			page 220


 11277 0dfc 00000000 		.4byte	0
 11278 0e00 00000000 		.4byte	0
 11279              	.LLST72:
 11280 0e04 3C000000 		.4byte	.LVL290
 11281 0e08 52000000 		.4byte	.LVL291
 11282 0e0c 0100     		.2byte	0x1
 11283 0e0e 50       		.byte	0x50
 11284 0e0f 52000000 		.4byte	.LVL291
 11285 0e13 5A000000 		.4byte	.LVL294
 11286 0e17 0100     		.2byte	0x1
 11287 0e19 54       		.byte	0x54
 11288 0e1a 28010000 		.4byte	.LVL330
 11289 0e1e 2C010000 		.4byte	.LVL332
 11290 0e22 0100     		.2byte	0x1
 11291 0e24 50       		.byte	0x50
 11292 0e25 00000000 		.4byte	0
 11293 0e29 00000000 		.4byte	0
 11294              	.LLST73:
 11295 0e2d 6C000000 		.4byte	.LVL298
 11296 0e31 82000000 		.4byte	.LVL299
 11297 0e35 0100     		.2byte	0x1
 11298 0e37 50       		.byte	0x50
 11299 0e38 82000000 		.4byte	.LVL299
 11300 0e3c 86000000 		.4byte	.LVL301
 11301 0e40 0100     		.2byte	0x1
 11302 0e42 55       		.byte	0x55
 11303 0e43 EA000000 		.4byte	.LVL316
 11304 0e47 F0000000 		.4byte	.LVL317
 11305 0e4b 0100     		.2byte	0x1
 11306 0e4d 50       		.byte	0x50
 11307 0e4e 00000000 		.4byte	0
 11308 0e52 00000000 		.4byte	0
 11309              	.LLST74:
 11310 0e56 9C000000 		.4byte	.LVL305
 11311 0e5a B2000000 		.4byte	.LVL306
 11312 0e5e 0100     		.2byte	0x1
 11313 0e60 50       		.byte	0x50
 11314 0e61 B2000000 		.4byte	.LVL306
 11315 0e65 B6000000 		.4byte	.LVL308
 11316 0e69 0100     		.2byte	0x1
 11317 0e6b 55       		.byte	0x55
 11318 0e6c F0000000 		.4byte	.LVL317
 11319 0e70 F6000000 		.4byte	.LVL318
 11320 0e74 0100     		.2byte	0x1
 11321 0e76 50       		.byte	0x50
 11322 0e77 00000000 		.4byte	0
 11323 0e7b 00000000 		.4byte	0
 11324              	.LLST75:
 11325 0e7f CC000000 		.4byte	.LVL312
 11326 0e83 E2000000 		.4byte	.LVL313
 11327 0e87 0100     		.2byte	0x1
 11328 0e89 50       		.byte	0x50
 11329 0e8a E2000000 		.4byte	.LVL313
 11330 0e8e E6000000 		.4byte	.LVL315
 11331 0e92 0100     		.2byte	0x1
 11332 0e94 55       		.byte	0x55
 11333 0e95 FA000000 		.4byte	.LVL320
ARM GAS  C:\Users\Phuong\AppData\Local\Temp\ccaRXo0w.s 			page 221


 11334 0e99 FE000000 		.4byte	.LVL321
 11335 0e9d 0100     		.2byte	0x1
 11336 0e9f 50       		.byte	0x50
 11337 0ea0 00000000 		.4byte	0
 11338 0ea4 00000000 		.4byte	0
 11339              	.LLST76:
 11340 0ea8 04010000 		.4byte	.LVL322
 11341 0eac 0C010000 		.4byte	.LVL323
 11342 0eb0 0100     		.2byte	0x1
 11343 0eb2 50       		.byte	0x50
 11344 0eb3 0C010000 		.4byte	.LVL323
 11345 0eb7 0F010000 		.4byte	.LVL324-1
 11346 0ebb 0100     		.2byte	0x1
 11347 0ebd 51       		.byte	0x51
 11348 0ebe 16010000 		.4byte	.LVL325
 11349 0ec2 1A010000 		.4byte	.LVL326
 11350 0ec6 0100     		.2byte	0x1
 11351 0ec8 50       		.byte	0x50
 11352 0ec9 00000000 		.4byte	0
 11353 0ecd 00000000 		.4byte	0
 11354              	.LLST77:
 11355 0ed1 00000000 		.4byte	.LVL334
 11356 0ed5 09000000 		.4byte	.LVL335-1
 11357 0ed9 0100     		.2byte	0x1
 11358 0edb 50       		.byte	0x50
 11359 0edc 09000000 		.4byte	.LVL335-1
 11360 0ee0 24000000 		.4byte	.LVL339
 11361 0ee4 0100     		.2byte	0x1
 11362 0ee6 54       		.byte	0x54
 11363 0ee7 24000000 		.4byte	.LVL339
 11364 0eeb 26000000 		.4byte	.LFE14
 11365 0eef 0400     		.2byte	0x4
 11366 0ef1 F3       		.byte	0xf3
 11367 0ef2 01       		.uleb128 0x1
 11368 0ef3 50       		.byte	0x50
 11369 0ef4 9F       		.byte	0x9f
 11370 0ef5 00000000 		.4byte	0
 11371 0ef9 00000000 		.4byte	0
 11372              	.LLST78:
 11373 0efd 00000000 		.4byte	.LVL340
 11374 0f01 0B000000 		.4byte	.LVL341-1
 11375 0f05 0100     		.2byte	0x1
 11376 0f07 50       		.byte	0x50
 11377 0f08 0B000000 		.4byte	.LVL341-1
 11378 0f0c 2A000000 		.4byte	.LVL346
 11379 0f10 0100     		.2byte	0x1
 11380 0f12 55       		.byte	0x55
 11381 0f13 2A000000 		.4byte	.LVL346
 11382 0f17 33000000 		.4byte	.LVL347-1
 11383 0f1b 0100     		.2byte	0x1
 11384 0f1d 50       		.byte	0x50
 11385 0f1e 33000000 		.4byte	.LVL347-1
 11386 0f22 50000000 		.4byte	.LVL352
 11387 0f26 0100     		.2byte	0x1
 11388 0f28 55       		.byte	0x55
 11389 0f29 50000000 		.4byte	.LVL352
 11390 0f2d 52000000 		.4byte	.LVL353
ARM GAS  C:\Users\Phuong\AppData\Local\Temp\ccaRXo0w.s 			page 222


 11391 0f31 0100     		.2byte	0x1
 11392 0f33 50       		.byte	0x50
 11393 0f34 52000000 		.4byte	.LVL353
 11394 0f38 60000000 		.4byte	.LVL357
 11395 0f3c 0100     		.2byte	0x1
 11396 0f3e 55       		.byte	0x55
 11397 0f3f 60000000 		.4byte	.LVL357
 11398 0f43 78000000 		.4byte	.LVL360
 11399 0f47 0400     		.2byte	0x4
 11400 0f49 F3       		.byte	0xf3
 11401 0f4a 01       		.uleb128 0x1
 11402 0f4b 50       		.byte	0x50
 11403 0f4c 9F       		.byte	0x9f
 11404 0f4d 78000000 		.4byte	.LVL360
 11405 0f51 90000000 		.4byte	.LVL364
 11406 0f55 0100     		.2byte	0x1
 11407 0f57 55       		.byte	0x55
 11408 0f58 90000000 		.4byte	.LVL364
 11409 0f5c B2000000 		.4byte	.LVL368
 11410 0f60 0400     		.2byte	0x4
 11411 0f62 F3       		.byte	0xf3
 11412 0f63 01       		.uleb128 0x1
 11413 0f64 50       		.byte	0x50
 11414 0f65 9F       		.byte	0x9f
 11415 0f66 B2000000 		.4byte	.LVL368
 11416 0f6a C2000000 		.4byte	.LVL371
 11417 0f6e 0100     		.2byte	0x1
 11418 0f70 55       		.byte	0x55
 11419 0f71 C2000000 		.4byte	.LVL371
 11420 0f75 E2000000 		.4byte	.LVL375
 11421 0f79 0400     		.2byte	0x4
 11422 0f7b F3       		.byte	0xf3
 11423 0f7c 01       		.uleb128 0x1
 11424 0f7d 50       		.byte	0x50
 11425 0f7e 9F       		.byte	0x9f
 11426 0f7f E2000000 		.4byte	.LVL375
 11427 0f83 FA000000 		.4byte	.LVL378
 11428 0f87 0100     		.2byte	0x1
 11429 0f89 55       		.byte	0x55
 11430 0f8a FA000000 		.4byte	.LVL378
 11431 0f8e 28010000 		.4byte	.LFE15
 11432 0f92 0400     		.2byte	0x4
 11433 0f94 F3       		.byte	0xf3
 11434 0f95 01       		.uleb128 0x1
 11435 0f96 50       		.byte	0x50
 11436 0f97 9F       		.byte	0x9f
 11437 0f98 00000000 		.4byte	0
 11438 0f9c 00000000 		.4byte	0
 11439              	.LLST79:
 11440 0fa0 58000000 		.4byte	.LVL355
 11441 0fa4 5D000000 		.4byte	.LVL356-1
 11442 0fa8 0100     		.2byte	0x1
 11443 0faa 50       		.byte	0x50
 11444 0fab 5D000000 		.4byte	.LVL356-1
 11445 0faf 78000000 		.4byte	.LVL360
 11446 0fb3 0100     		.2byte	0x1
 11447 0fb5 54       		.byte	0x54
ARM GAS  C:\Users\Phuong\AppData\Local\Temp\ccaRXo0w.s 			page 223


 11448 0fb6 78000000 		.4byte	.LVL360
 11449 0fba 7F000000 		.4byte	.LVL361-1
 11450 0fbe 0100     		.2byte	0x1
 11451 0fc0 50       		.byte	0x50
 11452 0fc1 7F000000 		.4byte	.LVL361-1
 11453 0fc5 AE000000 		.4byte	.LVL367
 11454 0fc9 0100     		.2byte	0x1
 11455 0fcb 54       		.byte	0x54
 11456 0fcc AE000000 		.4byte	.LVL367
 11457 0fd0 B2000000 		.4byte	.LVL368
 11458 0fd4 0200     		.2byte	0x2
 11459 0fd6 30       		.byte	0x30
 11460 0fd7 9F       		.byte	0x9f
 11461 0fd8 B2000000 		.4byte	.LVL368
 11462 0fdc DE000000 		.4byte	.LVL374
 11463 0fe0 0100     		.2byte	0x1
 11464 0fe2 54       		.byte	0x54
 11465 0fe3 DE000000 		.4byte	.LVL374
 11466 0fe7 E2000000 		.4byte	.LVL375
 11467 0feb 0200     		.2byte	0x2
 11468 0fed 30       		.byte	0x30
 11469 0fee 9F       		.byte	0x9f
 11470 0fef E2000000 		.4byte	.LVL375
 11471 0ff3 F4000000 		.4byte	.LVL376
 11472 0ff7 0100     		.2byte	0x1
 11473 0ff9 54       		.byte	0x54
 11474 0ffa FA000000 		.4byte	.LVL378
 11475 0ffe FE000000 		.4byte	.LVL379
 11476 1002 0100     		.2byte	0x1
 11477 1004 54       		.byte	0x54
 11478 1005 FE000000 		.4byte	.LVL379
 11479 1009 28010000 		.4byte	.LFE15
 11480 100d 0100     		.2byte	0x1
 11481 100f 50       		.byte	0x50
 11482 1010 00000000 		.4byte	0
 11483 1014 00000000 		.4byte	0
 11484              	.LLST80:
 11485 1018 0E000000 		.4byte	.LVL342
 11486 101c 24000000 		.4byte	.LVL343
 11487 1020 0100     		.2byte	0x1
 11488 1022 50       		.byte	0x50
 11489 1023 24000000 		.4byte	.LVL343
 11490 1027 28000000 		.4byte	.LVL345
 11491 102b 0100     		.2byte	0x1
 11492 102d 54       		.byte	0x54
 11493 102e F4000000 		.4byte	.LVL376
 11494 1032 F8000000 		.4byte	.LVL377
 11495 1036 0100     		.2byte	0x1
 11496 1038 50       		.byte	0x50
 11497 1039 00000000 		.4byte	0
 11498 103d 00000000 		.4byte	0
 11499              	.LLST81:
 11500 1041 36000000 		.4byte	.LVL348
 11501 1045 4A000000 		.4byte	.LVL349
 11502 1049 0100     		.2byte	0x1
 11503 104b 50       		.byte	0x50
 11504 104c 4A000000 		.4byte	.LVL349
ARM GAS  C:\Users\Phuong\AppData\Local\Temp\ccaRXo0w.s 			page 224


 11505 1050 4E000000 		.4byte	.LVL351
 11506 1054 0100     		.2byte	0x1
 11507 1056 54       		.byte	0x54
 11508 1057 F8000000 		.4byte	.LVL377
 11509 105b FA000000 		.4byte	.LVL378
 11510 105f 0100     		.2byte	0x1
 11511 1061 50       		.byte	0x50
 11512 1062 00000000 		.4byte	0
 11513 1066 00000000 		.4byte	0
 11514              	.LLST82:
 11515 106a 60000000 		.4byte	.LVL357
 11516 106e 74000000 		.4byte	.LVL358
 11517 1072 0100     		.2byte	0x1
 11518 1074 50       		.byte	0x50
 11519 1075 74000000 		.4byte	.LVL358
 11520 1079 78000000 		.4byte	.LVL360
 11521 107d 0100     		.2byte	0x1
 11522 107f 55       		.byte	0x55
 11523 1080 00000000 		.4byte	0
 11524 1084 00000000 		.4byte	0
 11525              	.LLST83:
 11526 1088 90000000 		.4byte	.LVL364
 11527 108c A6000000 		.4byte	.LVL365
 11528 1090 0100     		.2byte	0x1
 11529 1092 50       		.byte	0x50
 11530 1093 A6000000 		.4byte	.LVL365
 11531 1097 B2000000 		.4byte	.LVL368
 11532 109b 0100     		.2byte	0x1
 11533 109d 55       		.byte	0x55
 11534 109e 00000000 		.4byte	0
 11535 10a2 00000000 		.4byte	0
 11536              	.LLST84:
 11537 10a6 C2000000 		.4byte	.LVL371
 11538 10aa D6000000 		.4byte	.LVL372
 11539 10ae 0100     		.2byte	0x1
 11540 10b0 50       		.byte	0x50
 11541 10b1 D6000000 		.4byte	.LVL372
 11542 10b5 E2000000 		.4byte	.LVL375
 11543 10b9 0100     		.2byte	0x1
 11544 10bb 55       		.byte	0x55
 11545 10bc 00000000 		.4byte	0
 11546 10c0 00000000 		.4byte	0
 11547              	.LLST85:
 11548 10c4 00000000 		.4byte	.LVL380
 11549 10c8 17000000 		.4byte	.LVL381-1
 11550 10cc 0100     		.2byte	0x1
 11551 10ce 50       		.byte	0x50
 11552 10cf 17000000 		.4byte	.LVL381-1
 11553 10d3 3A000000 		.4byte	.LVL385
 11554 10d7 0100     		.2byte	0x1
 11555 10d9 55       		.byte	0x55
 11556 10da 3A000000 		.4byte	.LVL385
 11557 10de 3C000000 		.4byte	.LVL386
 11558 10e2 0100     		.2byte	0x1
 11559 10e4 50       		.byte	0x50
 11560 10e5 3C000000 		.4byte	.LVL386
 11561 10e9 80000000 		.4byte	.LVL397
ARM GAS  C:\Users\Phuong\AppData\Local\Temp\ccaRXo0w.s 			page 225


 11562 10ed 0100     		.2byte	0x1
 11563 10ef 55       		.byte	0x55
 11564 10f0 80000000 		.4byte	.LVL397
 11565 10f4 A0000000 		.4byte	.LVL401
 11566 10f8 0400     		.2byte	0x4
 11567 10fa F3       		.byte	0xf3
 11568 10fb 01       		.uleb128 0x1
 11569 10fc 50       		.byte	0x50
 11570 10fd 9F       		.byte	0x9f
 11571 10fe A0000000 		.4byte	.LVL401
 11572 1102 B2000000 		.4byte	.LVL404
 11573 1106 0100     		.2byte	0x1
 11574 1108 55       		.byte	0x55
 11575 1109 B2000000 		.4byte	.LVL404
 11576 110d D2000000 		.4byte	.LVL408
 11577 1111 0400     		.2byte	0x4
 11578 1113 F3       		.byte	0xf3
 11579 1114 01       		.uleb128 0x1
 11580 1115 50       		.byte	0x50
 11581 1116 9F       		.byte	0x9f
 11582 1117 D2000000 		.4byte	.LVL408
 11583 111b EC000000 		.4byte	.LVL414
 11584 111f 0100     		.2byte	0x1
 11585 1121 55       		.byte	0x55
 11586 1122 EC000000 		.4byte	.LVL414
 11587 1126 20010000 		.4byte	.LFE16
 11588 112a 0400     		.2byte	0x4
 11589 112c F3       		.byte	0xf3
 11590 112d 01       		.uleb128 0x1
 11591 112e 50       		.byte	0x50
 11592 112f 9F       		.byte	0x9f
 11593 1130 00000000 		.4byte	0
 11594 1134 00000000 		.4byte	0
 11595              	.LLST86:
 11596 1138 00000000 		.4byte	.LVL380
 11597 113c 17000000 		.4byte	.LVL381-1
 11598 1140 0100     		.2byte	0x1
 11599 1142 51       		.byte	0x51
 11600 1143 17000000 		.4byte	.LVL381-1
 11601 1147 3A000000 		.4byte	.LVL385
 11602 114b 0100     		.2byte	0x1
 11603 114d 56       		.byte	0x56
 11604 114e 3A000000 		.4byte	.LVL385
 11605 1152 3F000000 		.4byte	.LVL387-1
 11606 1156 0100     		.2byte	0x1
 11607 1158 51       		.byte	0x51
 11608 1159 3F000000 		.4byte	.LVL387-1
 11609 115d EE000000 		.4byte	.LVL415
 11610 1161 0100     		.2byte	0x1
 11611 1163 56       		.byte	0x56
 11612 1164 EE000000 		.4byte	.LVL415
 11613 1168 20010000 		.4byte	.LFE16
 11614 116c 0400     		.2byte	0x4
 11615 116e F3       		.byte	0xf3
 11616 116f 01       		.uleb128 0x1
 11617 1170 51       		.byte	0x51
 11618 1171 9F       		.byte	0x9f
ARM GAS  C:\Users\Phuong\AppData\Local\Temp\ccaRXo0w.s 			page 226


 11619 1172 00000000 		.4byte	0
 11620 1176 00000000 		.4byte	0
 11621              	.LLST87:
 11622 117a 00000000 		.4byte	.LVL380
 11623 117e 17000000 		.4byte	.LVL381-1
 11624 1182 0100     		.2byte	0x1
 11625 1184 52       		.byte	0x52
 11626 1185 17000000 		.4byte	.LVL381-1
 11627 1189 3A000000 		.4byte	.LVL385
 11628 118d 0100     		.2byte	0x1
 11629 118f 57       		.byte	0x57
 11630 1190 3A000000 		.4byte	.LVL385
 11631 1194 3F000000 		.4byte	.LVL387-1
 11632 1198 0100     		.2byte	0x1
 11633 119a 52       		.byte	0x52
 11634 119b 3F000000 		.4byte	.LVL387-1
 11635 119f EE000000 		.4byte	.LVL416
 11636 11a3 0100     		.2byte	0x1
 11637 11a5 57       		.byte	0x57
 11638 11a6 EE000000 		.4byte	.LVL416
 11639 11aa 20010000 		.4byte	.LFE16
 11640 11ae 0400     		.2byte	0x4
 11641 11b0 F3       		.byte	0xf3
 11642 11b1 01       		.uleb128 0x1
 11643 11b2 52       		.byte	0x52
 11644 11b3 9F       		.byte	0x9f
 11645 11b4 00000000 		.4byte	0
 11646 11b8 00000000 		.4byte	0
 11647              	.LLST88:
 11648 11bc 00000000 		.4byte	.LVL380
 11649 11c0 17000000 		.4byte	.LVL381-1
 11650 11c4 0100     		.2byte	0x1
 11651 11c6 53       		.byte	0x53
 11652 11c7 17000000 		.4byte	.LVL381-1
 11653 11cb 3A000000 		.4byte	.LVL385
 11654 11cf 0200     		.2byte	0x2
 11655 11d1 91       		.byte	0x91
 11656 11d2 64       		.sleb128 -28
 11657 11d3 3A000000 		.4byte	.LVL385
 11658 11d7 3F000000 		.4byte	.LVL387-1
 11659 11db 0100     		.2byte	0x1
 11660 11dd 53       		.byte	0x53
 11661 11de 3F000000 		.4byte	.LVL387-1
 11662 11e2 20010000 		.4byte	.LFE16
 11663 11e6 0200     		.2byte	0x2
 11664 11e8 91       		.byte	0x91
 11665 11e9 64       		.sleb128 -28
 11666 11ea 00000000 		.4byte	0
 11667 11ee 00000000 		.4byte	0
 11668              	.LLST89:
 11669 11f2 9C000000 		.4byte	.LVL400
 11670 11f6 A0000000 		.4byte	.LVL401
 11671 11fa 0400     		.2byte	0x4
 11672 11fc 0A       		.byte	0xa
 11673 11fd 5102     		.2byte	0x251
 11674 11ff 9F       		.byte	0x9f
 11675 1200 CE000000 		.4byte	.LVL407
ARM GAS  C:\Users\Phuong\AppData\Local\Temp\ccaRXo0w.s 			page 227


 11676 1204 D2000000 		.4byte	.LVL408
 11677 1208 0400     		.2byte	0x4
 11678 120a 0A       		.byte	0xa
 11679 120b 5A02     		.2byte	0x25a
 11680 120d 9F       		.byte	0x9f
 11681 120e E0000000 		.4byte	.LVL409
 11682 1212 E4000000 		.4byte	.LVL410
 11683 1216 0200     		.2byte	0x2
 11684 1218 30       		.byte	0x30
 11685 1219 9F       		.byte	0x9f
 11686 121a EC000000 		.4byte	.LVL414
 11687 121e 20010000 		.4byte	.LFE16
 11688 1222 0100     		.2byte	0x1
 11689 1224 50       		.byte	0x50
 11690 1225 00000000 		.4byte	0
 11691 1229 00000000 		.4byte	0
 11692              	.LLST90:
 11693 122d 1A000000 		.4byte	.LVL382
 11694 1231 34000000 		.4byte	.LVL383
 11695 1235 0100     		.2byte	0x1
 11696 1237 50       		.byte	0x50
 11697 1238 34000000 		.4byte	.LVL383
 11698 123c 3A000000 		.4byte	.LVL385
 11699 1240 0100     		.2byte	0x1
 11700 1242 54       		.byte	0x54
 11701 1243 E4000000 		.4byte	.LVL410
 11702 1247 E6000000 		.4byte	.LVL411
 11703 124b 0100     		.2byte	0x1
 11704 124d 50       		.byte	0x50
 11705 124e E6000000 		.4byte	.LVL411
 11706 1252 E8000000 		.4byte	.LVL412
 11707 1256 0100     		.2byte	0x1
 11708 1258 54       		.byte	0x54
 11709 1259 00000000 		.4byte	0
 11710 125d 00000000 		.4byte	0
 11711              	.LLST91:
 11712 1261 42000000 		.4byte	.LVL388
 11713 1265 47000000 		.4byte	.LVL389-1
 11714 1269 0100     		.2byte	0x1
 11715 126b 50       		.byte	0x50
 11716 126c 47000000 		.4byte	.LVL389-1
 11717 1270 4A000000 		.4byte	.LVL390
 11718 1274 0100     		.2byte	0x1
 11719 1276 54       		.byte	0x54
 11720 1277 66000000 		.4byte	.LVL393
 11721 127b 6D000000 		.4byte	.LVL394-1
 11722 127f 0100     		.2byte	0x1
 11723 1281 50       		.byte	0x50
 11724 1282 6D000000 		.4byte	.LVL394-1
 11725 1286 E4000000 		.4byte	.LVL410
 11726 128a 0100     		.2byte	0x1
 11727 128c 54       		.byte	0x54
 11728 128d 00000000 		.4byte	0
 11729 1291 00000000 		.4byte	0
 11730              	.LLST92:
 11731 1295 4A000000 		.4byte	.LVL390
 11732 1299 5E000000 		.4byte	.LVL391
ARM GAS  C:\Users\Phuong\AppData\Local\Temp\ccaRXo0w.s 			page 228


 11733 129d 0100     		.2byte	0x1
 11734 129f 50       		.byte	0x50
 11735 12a0 5E000000 		.4byte	.LVL391
 11736 12a4 66000000 		.4byte	.LVL393
 11737 12a8 0100     		.2byte	0x1
 11738 12aa 54       		.byte	0x54
 11739 12ab E8000000 		.4byte	.LVL412
 11740 12af EA000000 		.4byte	.LVL413
 11741 12b3 0100     		.2byte	0x1
 11742 12b5 50       		.byte	0x50
 11743 12b6 EA000000 		.4byte	.LVL413
 11744 12ba EC000000 		.4byte	.LVL414
 11745 12be 0100     		.2byte	0x1
 11746 12c0 54       		.byte	0x54
 11747 12c1 00000000 		.4byte	0
 11748 12c5 00000000 		.4byte	0
 11749              	.LLST93:
 11750 12c9 80000000 		.4byte	.LVL397
 11751 12cd 94000000 		.4byte	.LVL398
 11752 12d1 0100     		.2byte	0x1
 11753 12d3 50       		.byte	0x50
 11754 12d4 94000000 		.4byte	.LVL398
 11755 12d8 A0000000 		.4byte	.LVL401
 11756 12dc 0100     		.2byte	0x1
 11757 12de 55       		.byte	0x55
 11758 12df 00000000 		.4byte	0
 11759 12e3 00000000 		.4byte	0
 11760              	.LLST94:
 11761 12e7 B2000000 		.4byte	.LVL404
 11762 12eb C6000000 		.4byte	.LVL405
 11763 12ef 0100     		.2byte	0x1
 11764 12f1 50       		.byte	0x50
 11765 12f2 C6000000 		.4byte	.LVL405
 11766 12f6 D2000000 		.4byte	.LVL408
 11767 12fa 0100     		.2byte	0x1
 11768 12fc 55       		.byte	0x55
 11769 12fd 00000000 		.4byte	0
 11770 1301 00000000 		.4byte	0
 11771              	.LLST95:
 11772 1305 00000000 		.4byte	.LVL417
 11773 1309 13000000 		.4byte	.LVL418-1
 11774 130d 0100     		.2byte	0x1
 11775 130f 50       		.byte	0x50
 11776 1310 13000000 		.4byte	.LVL418-1
 11777 1314 36000000 		.4byte	.LVL422
 11778 1318 0100     		.2byte	0x1
 11779 131a 54       		.byte	0x54
 11780 131b 36000000 		.4byte	.LVL422
 11781 131f 38000000 		.4byte	.LVL423
 11782 1323 0100     		.2byte	0x1
 11783 1325 50       		.byte	0x50
 11784 1326 38000000 		.4byte	.LVL423
 11785 132a 60000000 		.4byte	.LVL430
 11786 132e 0100     		.2byte	0x1
 11787 1330 54       		.byte	0x54
 11788 1331 60000000 		.4byte	.LVL430
 11789 1335 74000000 		.4byte	.LFE17
ARM GAS  C:\Users\Phuong\AppData\Local\Temp\ccaRXo0w.s 			page 229


 11790 1339 0400     		.2byte	0x4
 11791 133b F3       		.byte	0xf3
 11792 133c 01       		.uleb128 0x1
 11793 133d 50       		.byte	0x50
 11794 133e 9F       		.byte	0x9f
 11795 133f 00000000 		.4byte	0
 11796 1343 00000000 		.4byte	0
 11797              	.LLST96:
 11798 1347 00000000 		.4byte	.LVL417
 11799 134b 13000000 		.4byte	.LVL418-1
 11800 134f 0100     		.2byte	0x1
 11801 1351 51       		.byte	0x51
 11802 1352 13000000 		.4byte	.LVL418-1
 11803 1356 36000000 		.4byte	.LVL422
 11804 135a 0100     		.2byte	0x1
 11805 135c 55       		.byte	0x55
 11806 135d 36000000 		.4byte	.LVL422
 11807 1361 3B000000 		.4byte	.LVL424-1
 11808 1365 0100     		.2byte	0x1
 11809 1367 51       		.byte	0x51
 11810 1368 3B000000 		.4byte	.LVL424-1
 11811 136c 60000000 		.4byte	.LVL431
 11812 1370 0100     		.2byte	0x1
 11813 1372 55       		.byte	0x55
 11814 1373 60000000 		.4byte	.LVL431
 11815 1377 74000000 		.4byte	.LFE17
 11816 137b 0400     		.2byte	0x4
 11817 137d F3       		.byte	0xf3
 11818 137e 01       		.uleb128 0x1
 11819 137f 51       		.byte	0x51
 11820 1380 9F       		.byte	0x9f
 11821 1381 00000000 		.4byte	0
 11822 1385 00000000 		.4byte	0
 11823              	.LLST97:
 11824 1389 56000000 		.4byte	.LVL426
 11825 138d 5A000000 		.4byte	.LVL427
 11826 1391 0200     		.2byte	0x2
 11827 1393 30       		.byte	0x30
 11828 1394 9F       		.byte	0x9f
 11829 1395 5E000000 		.4byte	.LVL429
 11830 1399 74000000 		.4byte	.LFE17
 11831 139d 0100     		.2byte	0x1
 11832 139f 50       		.byte	0x50
 11833 13a0 00000000 		.4byte	0
 11834 13a4 00000000 		.4byte	0
 11835              	.LLST98:
 11836 13a8 16000000 		.4byte	.LVL419
 11837 13ac 2E000000 		.4byte	.LVL420
 11838 13b0 0100     		.2byte	0x1
 11839 13b2 50       		.byte	0x50
 11840 13b3 2E000000 		.4byte	.LVL420
 11841 13b7 36000000 		.4byte	.LVL422
 11842 13bb 0100     		.2byte	0x1
 11843 13bd 56       		.byte	0x56
 11844 13be 5A000000 		.4byte	.LVL427
 11845 13c2 5C000000 		.4byte	.LVL428
 11846 13c6 0100     		.2byte	0x1
ARM GAS  C:\Users\Phuong\AppData\Local\Temp\ccaRXo0w.s 			page 230


 11847 13c8 50       		.byte	0x50
 11848 13c9 5C000000 		.4byte	.LVL428
 11849 13cd 5E000000 		.4byte	.LVL429
 11850 13d1 0100     		.2byte	0x1
 11851 13d3 56       		.byte	0x56
 11852 13d4 00000000 		.4byte	0
 11853 13d8 00000000 		.4byte	0
 11854              	.LLST99:
 11855 13dc 00000000 		.4byte	.LVL432
 11856 13e0 09000000 		.4byte	.LVL433-1
 11857 13e4 0100     		.2byte	0x1
 11858 13e6 50       		.byte	0x50
 11859 13e7 09000000 		.4byte	.LVL433-1
 11860 13eb 10000000 		.4byte	.LVL435
 11861 13ef 0100     		.2byte	0x1
 11862 13f1 54       		.byte	0x54
 11863 13f2 10000000 		.4byte	.LVL435
 11864 13f6 12000000 		.4byte	.LFE18
 11865 13fa 0400     		.2byte	0x4
 11866 13fc F3       		.byte	0xf3
 11867 13fd 01       		.uleb128 0x1
 11868 13fe 50       		.byte	0x50
 11869 13ff 9F       		.byte	0x9f
 11870 1400 00000000 		.4byte	0
 11871 1404 00000000 		.4byte	0
 11872              	.LLST100:
 11873 1408 00000000 		.4byte	.LVL436
 11874 140c 0B000000 		.4byte	.LVL437-1
 11875 1410 0100     		.2byte	0x1
 11876 1412 50       		.byte	0x50
 11877 1413 0B000000 		.4byte	.LVL437-1
 11878 1417 2A000000 		.4byte	.LVL441
 11879 141b 0400     		.2byte	0x4
 11880 141d F3       		.byte	0xf3
 11881 141e 01       		.uleb128 0x1
 11882 141f 50       		.byte	0x50
 11883 1420 9F       		.byte	0x9f
 11884 1421 2A000000 		.4byte	.LVL441
 11885 1425 2E000000 		.4byte	.LVL443
 11886 1429 0100     		.2byte	0x1
 11887 142b 50       		.byte	0x50
 11888 142c 2E000000 		.4byte	.LVL443
 11889 1430 48000000 		.4byte	.LFE19
 11890 1434 0400     		.2byte	0x4
 11891 1436 F3       		.byte	0xf3
 11892 1437 01       		.uleb128 0x1
 11893 1438 50       		.byte	0x50
 11894 1439 9F       		.byte	0x9f
 11895 143a 00000000 		.4byte	0
 11896 143e 00000000 		.4byte	0
 11897              	.LLST101:
 11898 1442 00000000 		.4byte	.LVL436
 11899 1446 0B000000 		.4byte	.LVL437-1
 11900 144a 0100     		.2byte	0x1
 11901 144c 51       		.byte	0x51
 11902 144d 0B000000 		.4byte	.LVL437-1
 11903 1451 2A000000 		.4byte	.LVL441
ARM GAS  C:\Users\Phuong\AppData\Local\Temp\ccaRXo0w.s 			page 231


 11904 1455 0400     		.2byte	0x4
 11905 1457 F3       		.byte	0xf3
 11906 1458 01       		.uleb128 0x1
 11907 1459 51       		.byte	0x51
 11908 145a 9F       		.byte	0x9f
 11909 145b 2A000000 		.4byte	.LVL441
 11910 145f 30000000 		.4byte	.LVL444
 11911 1463 0100     		.2byte	0x1
 11912 1465 51       		.byte	0x51
 11913 1466 30000000 		.4byte	.LVL444
 11914 146a 48000000 		.4byte	.LFE19
 11915 146e 0400     		.2byte	0x4
 11916 1470 F3       		.byte	0xf3
 11917 1471 01       		.uleb128 0x1
 11918 1472 51       		.byte	0x51
 11919 1473 9F       		.byte	0x9f
 11920 1474 00000000 		.4byte	0
 11921 1478 00000000 		.4byte	0
 11922              	.LLST102:
 11923 147c 2C000000 		.4byte	.LVL442
 11924 1480 30000000 		.4byte	.LVL444
 11925 1484 0200     		.2byte	0x2
 11926 1486 30       		.byte	0x30
 11927 1487 9F       		.byte	0x9f
 11928 1488 34000000 		.4byte	.LVL446
 11929 148c 48000000 		.4byte	.LFE19
 11930 1490 0100     		.2byte	0x1
 11931 1492 50       		.byte	0x50
 11932 1493 00000000 		.4byte	0
 11933 1497 00000000 		.4byte	0
 11934              	.LLST103:
 11935 149b 0E000000 		.4byte	.LVL438
 11936 149f 22000000 		.4byte	.LVL439
 11937 14a3 0100     		.2byte	0x1
 11938 14a5 50       		.byte	0x50
 11939 14a6 22000000 		.4byte	.LVL439
 11940 14aa 2A000000 		.4byte	.LVL441
 11941 14ae 0100     		.2byte	0x1
 11942 14b0 54       		.byte	0x54
 11943 14b1 30000000 		.4byte	.LVL444
 11944 14b5 32000000 		.4byte	.LVL445
 11945 14b9 0100     		.2byte	0x1
 11946 14bb 50       		.byte	0x50
 11947 14bc 32000000 		.4byte	.LVL445
 11948 14c0 34000000 		.4byte	.LVL446
 11949 14c4 0100     		.2byte	0x1
 11950 14c6 54       		.byte	0x54
 11951 14c7 00000000 		.4byte	0
 11952 14cb 00000000 		.4byte	0
 11953              	.LLST104:
 11954 14cf 00000000 		.4byte	.LVL447
 11955 14d3 0B000000 		.4byte	.LVL448-1
 11956 14d7 0100     		.2byte	0x1
 11957 14d9 50       		.byte	0x50
 11958 14da 0B000000 		.4byte	.LVL448-1
 11959 14de 2A000000 		.4byte	.LVL452
 11960 14e2 0400     		.2byte	0x4
ARM GAS  C:\Users\Phuong\AppData\Local\Temp\ccaRXo0w.s 			page 232


 11961 14e4 F3       		.byte	0xf3
 11962 14e5 01       		.uleb128 0x1
 11963 14e6 50       		.byte	0x50
 11964 14e7 9F       		.byte	0x9f
 11965 14e8 2A000000 		.4byte	.LVL452
 11966 14ec 2E000000 		.4byte	.LVL454
 11967 14f0 0100     		.2byte	0x1
 11968 14f2 50       		.byte	0x50
 11969 14f3 2E000000 		.4byte	.LVL454
 11970 14f7 48000000 		.4byte	.LFE20
 11971 14fb 0400     		.2byte	0x4
 11972 14fd F3       		.byte	0xf3
 11973 14fe 01       		.uleb128 0x1
 11974 14ff 50       		.byte	0x50
 11975 1500 9F       		.byte	0x9f
 11976 1501 00000000 		.4byte	0
 11977 1505 00000000 		.4byte	0
 11978              	.LLST105:
 11979 1509 00000000 		.4byte	.LVL447
 11980 150d 0B000000 		.4byte	.LVL448-1
 11981 1511 0100     		.2byte	0x1
 11982 1513 51       		.byte	0x51
 11983 1514 0B000000 		.4byte	.LVL448-1
 11984 1518 2A000000 		.4byte	.LVL452
 11985 151c 0400     		.2byte	0x4
 11986 151e F3       		.byte	0xf3
 11987 151f 01       		.uleb128 0x1
 11988 1520 51       		.byte	0x51
 11989 1521 9F       		.byte	0x9f
 11990 1522 2A000000 		.4byte	.LVL452
 11991 1526 30000000 		.4byte	.LVL455
 11992 152a 0100     		.2byte	0x1
 11993 152c 51       		.byte	0x51
 11994 152d 30000000 		.4byte	.LVL455
 11995 1531 48000000 		.4byte	.LFE20
 11996 1535 0400     		.2byte	0x4
 11997 1537 F3       		.byte	0xf3
 11998 1538 01       		.uleb128 0x1
 11999 1539 51       		.byte	0x51
 12000 153a 9F       		.byte	0x9f
 12001 153b 00000000 		.4byte	0
 12002 153f 00000000 		.4byte	0
 12003              	.LLST106:
 12004 1543 2C000000 		.4byte	.LVL453
 12005 1547 30000000 		.4byte	.LVL455
 12006 154b 0200     		.2byte	0x2
 12007 154d 30       		.byte	0x30
 12008 154e 9F       		.byte	0x9f
 12009 154f 32000000 		.4byte	.LVL456
 12010 1553 48000000 		.4byte	.LFE20
 12011 1557 0100     		.2byte	0x1
 12012 1559 50       		.byte	0x50
 12013 155a 00000000 		.4byte	0
 12014 155e 00000000 		.4byte	0
 12015              	.LLST107:
 12016 1562 0E000000 		.4byte	.LVL449
 12017 1566 24000000 		.4byte	.LVL450
ARM GAS  C:\Users\Phuong\AppData\Local\Temp\ccaRXo0w.s 			page 233


 12018 156a 0100     		.2byte	0x1
 12019 156c 50       		.byte	0x50
 12020 156d 24000000 		.4byte	.LVL450
 12021 1571 2A000000 		.4byte	.LVL452
 12022 1575 0100     		.2byte	0x1
 12023 1577 54       		.byte	0x54
 12024 1578 30000000 		.4byte	.LVL455
 12025 157c 32000000 		.4byte	.LVL456
 12026 1580 0100     		.2byte	0x1
 12027 1582 50       		.byte	0x50
 12028 1583 00000000 		.4byte	0
 12029 1587 00000000 		.4byte	0
 12030              	.LLST108:
 12031 158b 00000000 		.4byte	.LVL457
 12032 158f 0B000000 		.4byte	.LVL458-1
 12033 1593 0100     		.2byte	0x1
 12034 1595 50       		.byte	0x50
 12035 1596 0B000000 		.4byte	.LVL458-1
 12036 159a 28000000 		.4byte	.LVL462
 12037 159e 0400     		.2byte	0x4
 12038 15a0 F3       		.byte	0xf3
 12039 15a1 01       		.uleb128 0x1
 12040 15a2 50       		.byte	0x50
 12041 15a3 9F       		.byte	0x9f
 12042 15a4 28000000 		.4byte	.LVL462
 12043 15a8 2C000000 		.4byte	.LVL464
 12044 15ac 0100     		.2byte	0x1
 12045 15ae 50       		.byte	0x50
 12046 15af 2C000000 		.4byte	.LVL464
 12047 15b3 48000000 		.4byte	.LFE21
 12048 15b7 0400     		.2byte	0x4
 12049 15b9 F3       		.byte	0xf3
 12050 15ba 01       		.uleb128 0x1
 12051 15bb 50       		.byte	0x50
 12052 15bc 9F       		.byte	0x9f
 12053 15bd 00000000 		.4byte	0
 12054 15c1 00000000 		.4byte	0
 12055              	.LLST109:
 12056 15c5 00000000 		.4byte	.LVL457
 12057 15c9 0B000000 		.4byte	.LVL458-1
 12058 15cd 0100     		.2byte	0x1
 12059 15cf 51       		.byte	0x51
 12060 15d0 0B000000 		.4byte	.LVL458-1
 12061 15d4 28000000 		.4byte	.LVL462
 12062 15d8 0400     		.2byte	0x4
 12063 15da F3       		.byte	0xf3
 12064 15db 01       		.uleb128 0x1
 12065 15dc 51       		.byte	0x51
 12066 15dd 9F       		.byte	0x9f
 12067 15de 28000000 		.4byte	.LVL462
 12068 15e2 2E000000 		.4byte	.LVL465
 12069 15e6 0100     		.2byte	0x1
 12070 15e8 51       		.byte	0x51
 12071 15e9 2E000000 		.4byte	.LVL465
 12072 15ed 48000000 		.4byte	.LFE21
 12073 15f1 0400     		.2byte	0x4
 12074 15f3 F3       		.byte	0xf3
ARM GAS  C:\Users\Phuong\AppData\Local\Temp\ccaRXo0w.s 			page 234


 12075 15f4 01       		.uleb128 0x1
 12076 15f5 51       		.byte	0x51
 12077 15f6 9F       		.byte	0x9f
 12078 15f7 00000000 		.4byte	0
 12079 15fb 00000000 		.4byte	0
 12080              	.LLST110:
 12081 15ff 2A000000 		.4byte	.LVL463
 12082 1603 2E000000 		.4byte	.LVL465
 12083 1607 0200     		.2byte	0x2
 12084 1609 30       		.byte	0x30
 12085 160a 9F       		.byte	0x9f
 12086 160b 30000000 		.4byte	.LVL466
 12087 160f 48000000 		.4byte	.LFE21
 12088 1613 0100     		.2byte	0x1
 12089 1615 50       		.byte	0x50
 12090 1616 00000000 		.4byte	0
 12091 161a 00000000 		.4byte	0
 12092              	.LLST111:
 12093 161e 0E000000 		.4byte	.LVL459
 12094 1622 22000000 		.4byte	.LVL460
 12095 1626 0100     		.2byte	0x1
 12096 1628 50       		.byte	0x50
 12097 1629 22000000 		.4byte	.LVL460
 12098 162d 28000000 		.4byte	.LVL462
 12099 1631 0100     		.2byte	0x1
 12100 1633 54       		.byte	0x54
 12101 1634 2E000000 		.4byte	.LVL465
 12102 1638 30000000 		.4byte	.LVL466
 12103 163c 0100     		.2byte	0x1
 12104 163e 50       		.byte	0x50
 12105 163f 00000000 		.4byte	0
 12106 1643 00000000 		.4byte	0
 12107              	.LLST112:
 12108 1647 00000000 		.4byte	.LVL467
 12109 164b 19000000 		.4byte	.LVL468-1
 12110 164f 0100     		.2byte	0x1
 12111 1651 50       		.byte	0x50
 12112 1652 19000000 		.4byte	.LVL468-1
 12113 1656 3C000000 		.4byte	.LVL472
 12114 165a 0100     		.2byte	0x1
 12115 165c 55       		.byte	0x55
 12116 165d 3C000000 		.4byte	.LVL472
 12117 1661 3E000000 		.4byte	.LVL473
 12118 1665 0100     		.2byte	0x1
 12119 1667 50       		.byte	0x50
 12120 1668 3E000000 		.4byte	.LVL473
 12121 166c 58000000 		.4byte	.LVL477
 12122 1670 0100     		.2byte	0x1
 12123 1672 55       		.byte	0x55
 12124 1673 58000000 		.4byte	.LVL477
 12125 1677 76000000 		.4byte	.LVL480
 12126 167b 0400     		.2byte	0x4
 12127 167d F3       		.byte	0xf3
 12128 167e 01       		.uleb128 0x1
 12129 167f 50       		.byte	0x50
 12130 1680 9F       		.byte	0x9f
 12131 1681 76000000 		.4byte	.LVL480
ARM GAS  C:\Users\Phuong\AppData\Local\Temp\ccaRXo0w.s 			page 235


 12132 1685 94000000 		.4byte	.LVL484
 12133 1689 0100     		.2byte	0x1
 12134 168b 55       		.byte	0x55
 12135 168c 94000000 		.4byte	.LVL484
 12136 1690 B2000000 		.4byte	.LVL487
 12137 1694 0400     		.2byte	0x4
 12138 1696 F3       		.byte	0xf3
 12139 1697 01       		.uleb128 0x1
 12140 1698 50       		.byte	0x50
 12141 1699 9F       		.byte	0x9f
 12142 169a B2000000 		.4byte	.LVL487
 12143 169e D0000000 		.4byte	.LVL491
 12144 16a2 0100     		.2byte	0x1
 12145 16a4 55       		.byte	0x55
 12146 16a5 D0000000 		.4byte	.LVL491
 12147 16a9 EE000000 		.4byte	.LVL494
 12148 16ad 0400     		.2byte	0x4
 12149 16af F3       		.byte	0xf3
 12150 16b0 01       		.uleb128 0x1
 12151 16b1 50       		.byte	0x50
 12152 16b2 9F       		.byte	0x9f
 12153 16b3 EE000000 		.4byte	.LVL494
 12154 16b7 F4000000 		.4byte	.LVL496
 12155 16bb 0100     		.2byte	0x1
 12156 16bd 55       		.byte	0x55
 12157 16be F4000000 		.4byte	.LVL496
 12158 16c2 10010000 		.4byte	.LVL499
 12159 16c6 0400     		.2byte	0x4
 12160 16c8 F3       		.byte	0xf3
 12161 16c9 01       		.uleb128 0x1
 12162 16ca 50       		.byte	0x50
 12163 16cb 9F       		.byte	0x9f
 12164 16cc 10010000 		.4byte	.LVL499
 12165 16d0 18010000 		.4byte	.LVL502
 12166 16d4 0100     		.2byte	0x1
 12167 16d6 55       		.byte	0x55
 12168 16d7 18010000 		.4byte	.LVL502
 12169 16db 1C010000 		.4byte	.LVL504
 12170 16df 0400     		.2byte	0x4
 12171 16e1 F3       		.byte	0xf3
 12172 16e2 01       		.uleb128 0x1
 12173 16e3 50       		.byte	0x50
 12174 16e4 9F       		.byte	0x9f
 12175 16e5 1C010000 		.4byte	.LVL504
 12176 16e9 20010000 		.4byte	.LVL505
 12177 16ed 0100     		.2byte	0x1
 12178 16ef 55       		.byte	0x55
 12179 16f0 20010000 		.4byte	.LVL505
 12180 16f4 24010000 		.4byte	.LVL507
 12181 16f8 0400     		.2byte	0x4
 12182 16fa F3       		.byte	0xf3
 12183 16fb 01       		.uleb128 0x1
 12184 16fc 50       		.byte	0x50
 12185 16fd 9F       		.byte	0x9f
 12186 16fe 24010000 		.4byte	.LVL507
 12187 1702 28010000 		.4byte	.LVL508
 12188 1706 0100     		.2byte	0x1
ARM GAS  C:\Users\Phuong\AppData\Local\Temp\ccaRXo0w.s 			page 236


 12189 1708 55       		.byte	0x55
 12190 1709 28010000 		.4byte	.LVL508
 12191 170d 70010000 		.4byte	.LFE22
 12192 1711 0400     		.2byte	0x4
 12193 1713 F3       		.byte	0xf3
 12194 1714 01       		.uleb128 0x1
 12195 1715 50       		.byte	0x50
 12196 1716 9F       		.byte	0x9f
 12197 1717 00000000 		.4byte	0
 12198 171b 00000000 		.4byte	0
 12199              	.LLST113:
 12200 171f 00000000 		.4byte	.LVL467
 12201 1723 19000000 		.4byte	.LVL468-1
 12202 1727 0100     		.2byte	0x1
 12203 1729 51       		.byte	0x51
 12204 172a 19000000 		.4byte	.LVL468-1
 12205 172e 3C000000 		.4byte	.LVL472
 12206 1732 0100     		.2byte	0x1
 12207 1734 54       		.byte	0x54
 12208 1735 3C000000 		.4byte	.LVL472
 12209 1739 41000000 		.4byte	.LVL474-1
 12210 173d 0100     		.2byte	0x1
 12211 173f 51       		.byte	0x51
 12212 1740 41000000 		.4byte	.LVL474-1
 12213 1744 30010000 		.4byte	.LVL512
 12214 1748 0100     		.2byte	0x1
 12215 174a 54       		.byte	0x54
 12216 174b 30010000 		.4byte	.LVL512
 12217 174f 70010000 		.4byte	.LFE22
 12218 1753 0400     		.2byte	0x4
 12219 1755 F3       		.byte	0xf3
 12220 1756 01       		.uleb128 0x1
 12221 1757 51       		.byte	0x51
 12222 1758 9F       		.byte	0x9f
 12223 1759 00000000 		.4byte	0
 12224 175d 00000000 		.4byte	0
 12225              	.LLST114:
 12226 1761 00000000 		.4byte	.LVL467
 12227 1765 19000000 		.4byte	.LVL468-1
 12228 1769 0100     		.2byte	0x1
 12229 176b 52       		.byte	0x52
 12230 176c 19000000 		.4byte	.LVL468-1
 12231 1770 3C000000 		.4byte	.LVL472
 12232 1774 0100     		.2byte	0x1
 12233 1776 56       		.byte	0x56
 12234 1777 3C000000 		.4byte	.LVL472
 12235 177b 41000000 		.4byte	.LVL474-1
 12236 177f 0100     		.2byte	0x1
 12237 1781 52       		.byte	0x52
 12238 1782 41000000 		.4byte	.LVL474-1
 12239 1786 30010000 		.4byte	.LVL513
 12240 178a 0100     		.2byte	0x1
 12241 178c 56       		.byte	0x56
 12242 178d 30010000 		.4byte	.LVL513
 12243 1791 70010000 		.4byte	.LFE22
 12244 1795 0400     		.2byte	0x4
 12245 1797 F3       		.byte	0xf3
ARM GAS  C:\Users\Phuong\AppData\Local\Temp\ccaRXo0w.s 			page 237


 12246 1798 01       		.uleb128 0x1
 12247 1799 52       		.byte	0x52
 12248 179a 9F       		.byte	0x9f
 12249 179b 00000000 		.4byte	0
 12250 179f 00000000 		.4byte	0
 12251              	.LLST115:
 12252 17a3 1C000000 		.4byte	.LVL469
 12253 17a7 36000000 		.4byte	.LVL470
 12254 17ab 0100     		.2byte	0x1
 12255 17ad 50       		.byte	0x50
 12256 17ae 36000000 		.4byte	.LVL470
 12257 17b2 3C000000 		.4byte	.LVL472
 12258 17b6 0100     		.2byte	0x1
 12259 17b8 57       		.byte	0x57
 12260 17b9 10010000 		.4byte	.LVL499
 12261 17bd 12010000 		.4byte	.LVL500
 12262 17c1 0100     		.2byte	0x1
 12263 17c3 50       		.byte	0x50
 12264 17c4 12010000 		.4byte	.LVL500
 12265 17c8 14010000 		.4byte	.LVL501
 12266 17cc 0100     		.2byte	0x1
 12267 17ce 57       		.byte	0x57
 12268 17cf 00000000 		.4byte	0
 12269 17d3 00000000 		.4byte	0
 12270              	.LLST116:
 12271 17d7 58000000 		.4byte	.LVL477
 12272 17db 70000000 		.4byte	.LVL478
 12273 17df 0100     		.2byte	0x1
 12274 17e1 50       		.byte	0x50
 12275 17e2 70000000 		.4byte	.LVL478
 12276 17e6 76000000 		.4byte	.LVL480
 12277 17ea 0100     		.2byte	0x1
 12278 17ec 55       		.byte	0x55
 12279 17ed 18010000 		.4byte	.LVL502
 12280 17f1 1A010000 		.4byte	.LVL503
 12281 17f5 0100     		.2byte	0x1
 12282 17f7 50       		.byte	0x50
 12283 17f8 1A010000 		.4byte	.LVL503
 12284 17fc 1C010000 		.4byte	.LVL504
 12285 1800 0100     		.2byte	0x1
 12286 1802 55       		.byte	0x55
 12287 1803 00000000 		.4byte	0
 12288 1807 00000000 		.4byte	0
 12289              	.LLST117:
 12290 180b 94000000 		.4byte	.LVL484
 12291 180f AC000000 		.4byte	.LVL485
 12292 1813 0100     		.2byte	0x1
 12293 1815 50       		.byte	0x50
 12294 1816 AC000000 		.4byte	.LVL485
 12295 181a B2000000 		.4byte	.LVL487
 12296 181e 0100     		.2byte	0x1
 12297 1820 55       		.byte	0x55
 12298 1821 20010000 		.4byte	.LVL505
 12299 1825 22010000 		.4byte	.LVL506
 12300 1829 0100     		.2byte	0x1
 12301 182b 50       		.byte	0x50
 12302 182c 22010000 		.4byte	.LVL506
ARM GAS  C:\Users\Phuong\AppData\Local\Temp\ccaRXo0w.s 			page 238


 12303 1830 24010000 		.4byte	.LVL507
 12304 1834 0100     		.2byte	0x1
 12305 1836 55       		.byte	0x55
 12306 1837 00000000 		.4byte	0
 12307 183b 00000000 		.4byte	0
 12308              	.LLST118:
 12309 183f D0000000 		.4byte	.LVL491
 12310 1843 E8000000 		.4byte	.LVL492
 12311 1847 0100     		.2byte	0x1
 12312 1849 50       		.byte	0x50
 12313 184a E8000000 		.4byte	.LVL492
 12314 184e EE000000 		.4byte	.LVL494
 12315 1852 0100     		.2byte	0x1
 12316 1854 55       		.byte	0x55
 12317 1855 28010000 		.4byte	.LVL508
 12318 1859 2A010000 		.4byte	.LVL509
 12319 185d 0100     		.2byte	0x1
 12320 185f 50       		.byte	0x50
 12321 1860 2A010000 		.4byte	.LVL509
 12322 1864 2C010000 		.4byte	.LVL510
 12323 1868 0100     		.2byte	0x1
 12324 186a 55       		.byte	0x55
 12325 186b 00000000 		.4byte	0
 12326 186f 00000000 		.4byte	0
 12327              	.LLST119:
 12328 1873 F4000000 		.4byte	.LVL496
 12329 1877 0A010000 		.4byte	.LVL497
 12330 187b 0100     		.2byte	0x1
 12331 187d 50       		.byte	0x50
 12332 187e 0A010000 		.4byte	.LVL497
 12333 1882 10010000 		.4byte	.LVL499
 12334 1886 0100     		.2byte	0x1
 12335 1888 55       		.byte	0x55
 12336 1889 2C010000 		.4byte	.LVL510
 12337 188d 2E010000 		.4byte	.LVL511
 12338 1891 0100     		.2byte	0x1
 12339 1893 50       		.byte	0x50
 12340 1894 00000000 		.4byte	0
 12341 1898 00000000 		.4byte	0
 12342              	.LLST120:
 12343 189c 00000000 		.4byte	.LVL514
 12344 18a0 0B000000 		.4byte	.LVL515-1
 12345 18a4 0100     		.2byte	0x1
 12346 18a6 50       		.byte	0x50
 12347 18a7 0B000000 		.4byte	.LVL515-1
 12348 18ab 2A000000 		.4byte	.LVL520
 12349 18af 0100     		.2byte	0x1
 12350 18b1 55       		.byte	0x55
 12351 18b2 2A000000 		.4byte	.LVL520
 12352 18b6 30000000 		.4byte	.LVL521
 12353 18ba 0100     		.2byte	0x1
 12354 18bc 50       		.byte	0x50
 12355 18bd 30000000 		.4byte	.LVL521
 12356 18c1 3E000000 		.4byte	.LVL525
 12357 18c5 0100     		.2byte	0x1
 12358 18c7 55       		.byte	0x55
 12359 18c8 3E000000 		.4byte	.LVL525
ARM GAS  C:\Users\Phuong\AppData\Local\Temp\ccaRXo0w.s 			page 239


 12360 18cc 56000000 		.4byte	.LVL528
 12361 18d0 0400     		.2byte	0x4
 12362 18d2 F3       		.byte	0xf3
 12363 18d3 01       		.uleb128 0x1
 12364 18d4 50       		.byte	0x50
 12365 18d5 9F       		.byte	0x9f
 12366 18d6 56000000 		.4byte	.LVL528
 12367 18da 68000000 		.4byte	.LVL531
 12368 18de 0100     		.2byte	0x1
 12369 18e0 55       		.byte	0x55
 12370 18e1 68000000 		.4byte	.LVL531
 12371 18e5 8E000000 		.4byte	.LVL535
 12372 18e9 0400     		.2byte	0x4
 12373 18eb F3       		.byte	0xf3
 12374 18ec 01       		.uleb128 0x1
 12375 18ed 50       		.byte	0x50
 12376 18ee 9F       		.byte	0x9f
 12377 18ef 8E000000 		.4byte	.LVL535
 12378 18f3 A2000000 		.4byte	.LVL538
 12379 18f7 0100     		.2byte	0x1
 12380 18f9 55       		.byte	0x55
 12381 18fa A2000000 		.4byte	.LVL538
 12382 18fe C8000000 		.4byte	.LVL542
 12383 1902 0400     		.2byte	0x4
 12384 1904 F3       		.byte	0xf3
 12385 1905 01       		.uleb128 0x1
 12386 1906 50       		.byte	0x50
 12387 1907 9F       		.byte	0x9f
 12388 1908 C8000000 		.4byte	.LVL542
 12389 190c DE000000 		.4byte	.LVL545
 12390 1910 0100     		.2byte	0x1
 12391 1912 55       		.byte	0x55
 12392 1913 DE000000 		.4byte	.LVL545
 12393 1917 04010000 		.4byte	.LVL549
 12394 191b 0400     		.2byte	0x4
 12395 191d F3       		.byte	0xf3
 12396 191e 01       		.uleb128 0x1
 12397 191f 50       		.byte	0x50
 12398 1920 9F       		.byte	0x9f
 12399 1921 04010000 		.4byte	.LVL549
 12400 1925 06010000 		.4byte	.LVL550
 12401 1929 0100     		.2byte	0x1
 12402 192b 55       		.byte	0x55
 12403 192c 06010000 		.4byte	.LVL550
 12404 1930 3C010000 		.4byte	.LFE23
 12405 1934 0400     		.2byte	0x4
 12406 1936 F3       		.byte	0xf3
 12407 1937 01       		.uleb128 0x1
 12408 1938 50       		.byte	0x50
 12409 1939 9F       		.byte	0x9f
 12410 193a 00000000 		.4byte	0
 12411 193e 00000000 		.4byte	0
 12412              	.LLST121:
 12413 1942 36000000 		.4byte	.LVL523
 12414 1946 3B000000 		.4byte	.LVL524-1
 12415 194a 0100     		.2byte	0x1
 12416 194c 50       		.byte	0x50
ARM GAS  C:\Users\Phuong\AppData\Local\Temp\ccaRXo0w.s 			page 240


 12417 194d 3B000000 		.4byte	.LVL524-1
 12418 1951 56000000 		.4byte	.LVL528
 12419 1955 0100     		.2byte	0x1
 12420 1957 54       		.byte	0x54
 12421 1958 56000000 		.4byte	.LVL528
 12422 195c 5D000000 		.4byte	.LVL529-1
 12423 1960 0100     		.2byte	0x1
 12424 1962 50       		.byte	0x50
 12425 1963 5D000000 		.4byte	.LVL529-1
 12426 1967 8A000000 		.4byte	.LVL534
 12427 196b 0100     		.2byte	0x1
 12428 196d 54       		.byte	0x54
 12429 196e 8A000000 		.4byte	.LVL534
 12430 1972 8E000000 		.4byte	.LVL535
 12431 1976 0200     		.2byte	0x2
 12432 1978 30       		.byte	0x30
 12433 1979 9F       		.byte	0x9f
 12434 197a 8E000000 		.4byte	.LVL535
 12435 197e C4000000 		.4byte	.LVL541
 12436 1982 0100     		.2byte	0x1
 12437 1984 54       		.byte	0x54
 12438 1985 C4000000 		.4byte	.LVL541
 12439 1989 C8000000 		.4byte	.LVL542
 12440 198d 0200     		.2byte	0x2
 12441 198f 30       		.byte	0x30
 12442 1990 9F       		.byte	0x9f
 12443 1991 C8000000 		.4byte	.LVL542
 12444 1995 00010000 		.4byte	.LVL548
 12445 1999 0100     		.2byte	0x1
 12446 199b 54       		.byte	0x54
 12447 199c 00010000 		.4byte	.LVL548
 12448 19a0 04010000 		.4byte	.LVL549
 12449 19a4 0200     		.2byte	0x2
 12450 19a6 30       		.byte	0x30
 12451 19a7 9F       		.byte	0x9f
 12452 19a8 06010000 		.4byte	.LVL550
 12453 19ac 0A010000 		.4byte	.LVL551
 12454 19b0 0100     		.2byte	0x1
 12455 19b2 54       		.byte	0x54
 12456 19b3 0A010000 		.4byte	.LVL551
 12457 19b7 3C010000 		.4byte	.LFE23
 12458 19bb 0100     		.2byte	0x1
 12459 19bd 50       		.byte	0x50
 12460 19be 00000000 		.4byte	0
 12461 19c2 00000000 		.4byte	0
 12462              	.LLST122:
 12463 19c6 0E000000 		.4byte	.LVL516
 12464 19ca 24000000 		.4byte	.LVL517
 12465 19ce 0100     		.2byte	0x1
 12466 19d0 50       		.byte	0x50
 12467 19d1 24000000 		.4byte	.LVL517
 12468 19d5 28000000 		.4byte	.LVL519
 12469 19d9 0100     		.2byte	0x1
 12470 19db 54       		.byte	0x54
 12471 19dc 04010000 		.4byte	.LVL549
 12472 19e0 06010000 		.4byte	.LVL550
 12473 19e4 0100     		.2byte	0x1
ARM GAS  C:\Users\Phuong\AppData\Local\Temp\ccaRXo0w.s 			page 241


 12474 19e6 50       		.byte	0x50
 12475 19e7 00000000 		.4byte	0
 12476 19eb 00000000 		.4byte	0
 12477              	.LLST123:
 12478 19ef 3E000000 		.4byte	.LVL525
 12479 19f3 52000000 		.4byte	.LVL526
 12480 19f7 0100     		.2byte	0x1
 12481 19f9 50       		.byte	0x50
 12482 19fa 52000000 		.4byte	.LVL526
 12483 19fe 56000000 		.4byte	.LVL528
 12484 1a02 0100     		.2byte	0x1
 12485 1a04 55       		.byte	0x55
 12486 1a05 00000000 		.4byte	0
 12487 1a09 00000000 		.4byte	0
 12488              	.LLST124:
 12489 1a0d 68000000 		.4byte	.LVL531
 12490 1a11 82000000 		.4byte	.LVL532
 12491 1a15 0100     		.2byte	0x1
 12492 1a17 50       		.byte	0x50
 12493 1a18 82000000 		.4byte	.LVL532
 12494 1a1c 8E000000 		.4byte	.LVL535
 12495 1a20 0100     		.2byte	0x1
 12496 1a22 55       		.byte	0x55
 12497 1a23 00000000 		.4byte	0
 12498 1a27 00000000 		.4byte	0
 12499              	.LLST125:
 12500 1a2b A2000000 		.4byte	.LVL538
 12501 1a2f BC000000 		.4byte	.LVL539
 12502 1a33 0100     		.2byte	0x1
 12503 1a35 50       		.byte	0x50
 12504 1a36 BC000000 		.4byte	.LVL539
 12505 1a3a C8000000 		.4byte	.LVL542
 12506 1a3e 0100     		.2byte	0x1
 12507 1a40 55       		.byte	0x55
 12508 1a41 00000000 		.4byte	0
 12509 1a45 00000000 		.4byte	0
 12510              	.LLST126:
 12511 1a49 DE000000 		.4byte	.LVL545
 12512 1a4d F8000000 		.4byte	.LVL546
 12513 1a51 0100     		.2byte	0x1
 12514 1a53 50       		.byte	0x50
 12515 1a54 F8000000 		.4byte	.LVL546
 12516 1a58 04010000 		.4byte	.LVL549
 12517 1a5c 0100     		.2byte	0x1
 12518 1a5e 55       		.byte	0x55
 12519 1a5f 00000000 		.4byte	0
 12520 1a63 00000000 		.4byte	0
 12521              		.section	.debug_aranges,"",%progbits
 12522 0000 CC000000 		.4byte	0xcc
 12523 0004 0200     		.2byte	0x2
 12524 0006 00000000 		.4byte	.Ldebug_info0
 12525 000a 04       		.byte	0x4
 12526 000b 00       		.byte	0
 12527 000c 0000     		.2byte	0
 12528 000e 0000     		.2byte	0
 12529 0010 00000000 		.4byte	.LFB2
 12530 0014 16000000 		.4byte	.LFE2-.LFB2
ARM GAS  C:\Users\Phuong\AppData\Local\Temp\ccaRXo0w.s 			page 242


 12531 0018 00000000 		.4byte	.LFB3
 12532 001c 18000000 		.4byte	.LFE3-.LFB3
 12533 0020 00000000 		.4byte	.LFB1
 12534 0024 14000000 		.4byte	.LFE1-.LFB1
 12535 0028 00000000 		.4byte	.LFB5
 12536 002c 5C000000 		.4byte	.LFE5-.LFB5
 12537 0030 00000000 		.4byte	.LFB12
 12538 0034 B4000000 		.4byte	.LFE12-.LFB12
 12539 0038 00000000 		.4byte	.LFB4
 12540 003c 88000000 		.4byte	.LFE4-.LFB4
 12541 0040 00000000 		.4byte	.LFB8
 12542 0044 3C010000 		.4byte	.LFE8-.LFB8
 12543 0048 00000000 		.4byte	.LFB7
 12544 004c A4010000 		.4byte	.LFE7-.LFB7
 12545 0050 00000000 		.4byte	.LFB6
 12546 0054 A8000000 		.4byte	.LFE6-.LFB6
 12547 0058 00000000 		.4byte	.LFB10
 12548 005c A0000000 		.4byte	.LFE10-.LFB10
 12549 0060 00000000 		.4byte	.LFB9
 12550 0064 E0000000 		.4byte	.LFE9-.LFB9
 12551 0068 00000000 		.4byte	.LFB11
 12552 006c 38000000 		.4byte	.LFE11-.LFB11
 12553 0070 00000000 		.4byte	.LFB13
 12554 0074 4C010000 		.4byte	.LFE13-.LFB13
 12555 0078 00000000 		.4byte	.LFB14
 12556 007c 26000000 		.4byte	.LFE14-.LFB14
 12557 0080 00000000 		.4byte	.LFB15
 12558 0084 28010000 		.4byte	.LFE15-.LFB15
 12559 0088 00000000 		.4byte	.LFB16
 12560 008c 20010000 		.4byte	.LFE16-.LFB16
 12561 0090 00000000 		.4byte	.LFB17
 12562 0094 74000000 		.4byte	.LFE17-.LFB17
 12563 0098 00000000 		.4byte	.LFB18
 12564 009c 12000000 		.4byte	.LFE18-.LFB18
 12565 00a0 00000000 		.4byte	.LFB19
 12566 00a4 48000000 		.4byte	.LFE19-.LFB19
 12567 00a8 00000000 		.4byte	.LFB20
 12568 00ac 48000000 		.4byte	.LFE20-.LFB20
 12569 00b0 00000000 		.4byte	.LFB21
 12570 00b4 48000000 		.4byte	.LFE21-.LFB21
 12571 00b8 00000000 		.4byte	.LFB22
 12572 00bc 70010000 		.4byte	.LFE22-.LFB22
 12573 00c0 00000000 		.4byte	.LFB23
 12574 00c4 3C010000 		.4byte	.LFE23-.LFB23
 12575 00c8 00000000 		.4byte	0
 12576 00cc 00000000 		.4byte	0
 12577              		.section	.debug_ranges,"",%progbits
 12578              	.Ldebug_ranges0:
 12579 0000 38000000 		.4byte	.LBB14
 12580 0004 A2000000 		.4byte	.LBE14
 12581 0008 A4000000 		.4byte	.LBB19
 12582 000c 12010000 		.4byte	.LBE19
 12583 0010 14010000 		.4byte	.LBB20
 12584 0014 18010000 		.4byte	.LBE20
 12585 0018 00000000 		.4byte	0
 12586 001c 00000000 		.4byte	0
 12587 0020 1E010000 		.4byte	.LBB21
ARM GAS  C:\Users\Phuong\AppData\Local\Temp\ccaRXo0w.s 			page 243


 12588 0024 88010000 		.4byte	.LBE21
 12589 0028 8A010000 		.4byte	.LBB24
 12590 002c 8E010000 		.4byte	.LBE24
 12591 0030 00000000 		.4byte	0
 12592 0034 00000000 		.4byte	0
 12593 0038 2E000000 		.4byte	.LBB36
 12594 003c 22010000 		.4byte	.LBE36
 12595 0040 28010000 		.4byte	.LBB42
 12596 0044 2C010000 		.4byte	.LBE42
 12597 0048 00000000 		.4byte	0
 12598 004c 00000000 		.4byte	0
 12599 0050 3A000000 		.4byte	.LBB49
 12600 0054 E4000000 		.4byte	.LBE49
 12601 0058 E8000000 		.4byte	.LBB53
 12602 005c EC000000 		.4byte	.LBE53
 12603 0060 00000000 		.4byte	0
 12604 0064 00000000 		.4byte	0
 12605 0068 00000000 		.4byte	.LFB2
 12606 006c 16000000 		.4byte	.LFE2
 12607 0070 00000000 		.4byte	.LFB3
 12608 0074 18000000 		.4byte	.LFE3
 12609 0078 00000000 		.4byte	.LFB1
 12610 007c 14000000 		.4byte	.LFE1
 12611 0080 00000000 		.4byte	.LFB5
 12612 0084 5C000000 		.4byte	.LFE5
 12613 0088 00000000 		.4byte	.LFB12
 12614 008c B4000000 		.4byte	.LFE12
 12615 0090 00000000 		.4byte	.LFB4
 12616 0094 88000000 		.4byte	.LFE4
 12617 0098 00000000 		.4byte	.LFB8
 12618 009c 3C010000 		.4byte	.LFE8
 12619 00a0 00000000 		.4byte	.LFB7
 12620 00a4 A4010000 		.4byte	.LFE7
 12621 00a8 00000000 		.4byte	.LFB6
 12622 00ac A8000000 		.4byte	.LFE6
 12623 00b0 00000000 		.4byte	.LFB10
 12624 00b4 A0000000 		.4byte	.LFE10
 12625 00b8 00000000 		.4byte	.LFB9
 12626 00bc E0000000 		.4byte	.LFE9
 12627 00c0 00000000 		.4byte	.LFB11
 12628 00c4 38000000 		.4byte	.LFE11
 12629 00c8 00000000 		.4byte	.LFB13
 12630 00cc 4C010000 		.4byte	.LFE13
 12631 00d0 00000000 		.4byte	.LFB14
 12632 00d4 26000000 		.4byte	.LFE14
 12633 00d8 00000000 		.4byte	.LFB15
 12634 00dc 28010000 		.4byte	.LFE15
 12635 00e0 00000000 		.4byte	.LFB16
 12636 00e4 20010000 		.4byte	.LFE16
 12637 00e8 00000000 		.4byte	.LFB17
 12638 00ec 74000000 		.4byte	.LFE17
 12639 00f0 00000000 		.4byte	.LFB18
 12640 00f4 12000000 		.4byte	.LFE18
 12641 00f8 00000000 		.4byte	.LFB19
 12642 00fc 48000000 		.4byte	.LFE19
 12643 0100 00000000 		.4byte	.LFB20
 12644 0104 48000000 		.4byte	.LFE20
ARM GAS  C:\Users\Phuong\AppData\Local\Temp\ccaRXo0w.s 			page 244


 12645 0108 00000000 		.4byte	.LFB21
 12646 010c 48000000 		.4byte	.LFE21
 12647 0110 00000000 		.4byte	.LFB22
 12648 0114 70010000 		.4byte	.LFE22
 12649 0118 00000000 		.4byte	.LFB23
 12650 011c 3C010000 		.4byte	.LFE23
 12651 0120 00000000 		.4byte	0
 12652 0124 00000000 		.4byte	0
 12653              		.section	.debug_line,"",%progbits
 12654              	.Ldebug_line0:
 12655 0000 5D080000 		.section	.debug_str,"MS",%progbits,1
 12655      02009002 
 12655      00000201 
 12655      FB0E0D00 
 12655      01010101 
 12656              	.LASF97:
 12657 0000 6D657373 		.ascii	"message_queue_is_empty\000"
 12657      6167655F 
 12657      71756575 
 12657      655F6973 
 12657      5F656D70 
 12658              	.LASF34:
 12659 0017 4F505449 		.ascii	"OPTIONHANDLER_OK\000"
 12659      4F4E4841 
 12659      4E444C45 
 12659      525F4F4B 
 12659      00
 12660              	.LASF68:
 12661 0028 66696E64 		.ascii	"find_item_by_message_ptr\000"
 12661      5F697465 
 12661      6D5F6279 
 12661      5F6D6573 
 12661      73616765 
 12662              	.LASF52:
 12663 0041 4D455353 		.ascii	"MESSAGE_QUEUE_TAG\000"
 12663      4147455F 
 12663      51554555 
 12663      455F5441 
 12663      4700
 12664              	.LASF20:
 12665 0053 4C495354 		.ascii	"LIST_ITEM_HANDLE\000"
 12665      5F495445 
 12665      4D5F4841 
 12665      4E444C45 
 12665      00
 12666              	.LASF86:
 12667 0064 64657374 		.ascii	"destroyOption\000"
 12667      726F794F 
 12667      7074696F 
 12667      6E00
 12668              	.LASF56:
 12669 0072 6D657373 		.ascii	"message\000"
 12669      61676500 
 12670              	.LASF98:
 12671 007a 69735F65 		.ascii	"is_empty\000"
 12671      6D707479 
 12671      00
ARM GAS  C:\Users\Phuong\AppData\Local\Temp\ccaRXo0w.s 			page 245


 12672              	.LASF0:
 12673 0083 756E7369 		.ascii	"unsigned int\000"
 12673      676E6564 
 12673      20696E74 
 12673      00
 12674              	.LASF99:
 12675 0090 6D657373 		.ascii	"message_queue_do_work\000"
 12675      6167655F 
 12675      71756575 
 12675      655F646F 
 12675      5F776F72 
 12676              	.LASF104:
 12677 00a6 7365744F 		.ascii	"setOption\000"
 12677      7074696F 
 12677      6E00
 12678              	.LASF77:
 12679 00b0 66726F6D 		.ascii	"from_list\000"
 12679      5F6C6973 
 12679      7400
 12680              	.LASF108:
 12681 00ba 53415645 		.ascii	"SAVED_OPTION_MAX_ENQUEUE_TIME_SECS\000"
 12681      445F4F50 
 12681      54494F4E 
 12681      5F4D4158 
 12681      5F454E51 
 12682              	.LASF89:
 12683 00dd 636C6F6E 		.ascii	"cloneOption\000"
 12683      654F7074 
 12683      696F6E00 
 12684              	.LASF90:
 12685 00e9 74656D70 		.ascii	"temp_list\000"
 12685      5F6C6973 
 12685      7400
 12686              	.LASF44:
 12687 00f3 4D455353 		.ascii	"MESSAGE_QUEUE_ERROR\000"
 12687      4147455F 
 12687      51554555 
 12687      455F4552 
 12687      524F5200 
 12688              	.LASF28:
 12689 0107 6F6E5F70 		.ascii	"on_process_message_callback\000"
 12689      726F6365 
 12689      73735F6D 
 12689      65737361 
 12689      67655F63 
 12690              	.LASF116:
 12691 0123 6765745F 		.ascii	"get_time\000"
 12691      74696D65 
 12691      00
 12692              	.LASF114:
 12693 012c 73696E67 		.ascii	"singlylinkedlist_add\000"
 12693      6C796C69 
 12693      6E6B6564 
 12693      6C697374 
 12693      5F616464 
 12694              	.LASF106:
 12695 0141 6D657373 		.ascii	"message_queue_retrieve_options\000"
ARM GAS  C:\Users\Phuong\AppData\Local\Temp\ccaRXo0w.s 			page 246


 12695      6167655F 
 12695      71756575 
 12695      655F7265 
 12695      74726965 
 12696              	.LASF75:
 12697 0160 6C697374 		.ascii	"list\000"
 12697      00
 12698              	.LASF38:
 12699 0165 4F505449 		.ascii	"OPTIONHANDLER_HANDLE_DATA_TAG\000"
 12699      4F4E4841 
 12699      4E444C45 
 12699      525F4841 
 12699      4E444C45 
 12700              	.LASF53:
 12701 0183 4D455353 		.ascii	"MESSAGE_QUEUE_CONFIG_TAG\000"
 12701      4147455F 
 12701      51554555 
 12701      455F434F 
 12701      4E464947 
 12702              	.LASF62:
 12703 019c 4D455353 		.ascii	"MESSAGE_QUEUE_ITEM\000"
 12703      4147455F 
 12703      51554555 
 12703      455F4954 
 12703      454D00
 12704              	.LASF129:
 12705 01af 474E5520 		.ascii	"GNU C11 5.4.1 20160609 (release) [ARM/embedded-5-br"
 12705      43313120 
 12705      352E342E 
 12705      31203230 
 12705      31363036 
 12706 01e2 616E6368 		.ascii	"anch revision 237715] -mcpu=cortex-m0plus -mthumb -"
 12706      20726576 
 12706      6973696F 
 12706      6E203233 
 12706      37373135 
 12707 0215 67202D4F 		.ascii	"g -Og -ffunction-sections -ffat-lto-objects\000"
 12707      67202D66 
 12707      66756E63 
 12707      74696F6E 
 12707      2D736563 
 12708              	.LASF121:
 12709 0241 6D616C6C 		.ascii	"malloc\000"
 12709      6F6300
 12710              	.LASF96:
 12711 0248 6D657373 		.ascii	"message_queue_add\000"
 12711      6167655F 
 12711      71756575 
 12711      655F6164 
 12711      6400
 12712              	.LASF64:
 12713 025a 72657375 		.ascii	"result\000"
 12713      6C7400
 12714              	.LASF9:
 12715 0261 6C6F6E67 		.ascii	"long long unsigned int\000"
 12715      206C6F6E 
 12715      6720756E 
ARM GAS  C:\Users\Phuong\AppData\Local\Temp\ccaRXo0w.s 			page 247


 12715      7369676E 
 12715      65642069 
 12716              	.LASF65:
 12717 0278 72656173 		.ascii	"reason\000"
 12717      6F6E00
 12718              	.LASF50:
 12719 027f 50524F43 		.ascii	"PROCESS_MESSAGE_COMPLETED_CALLBACK\000"
 12719      4553535F 
 12719      4D455353 
 12719      4147455F 
 12719      434F4D50 
 12720              	.LASF102:
 12721 02a2 6D657373 		.ascii	"message_queue_set_max_message_processing_time_secs\000"
 12721      6167655F 
 12721      71756575 
 12721      655F7365 
 12721      745F6D61 
 12722              	.LASF88:
 12723 02d5 76616C75 		.ascii	"value\000"
 12723      6500
 12724              	.LASF131:
 12725 02db 433A5C55 		.ascii	"C:\\Users\\Phuong\\Documents\\PSoC Creator\\Dec0820"
 12725      73657273 
 12725      5C506875 
 12725      6F6E675C 
 12725      446F6375 
 12726 0309 31385C69 		.ascii	"18\\iot-sdk-iot-dev\\PSOC6_FreeRTOS+LwIP+MbedTLS_Az"
 12726      6F742D73 
 12726      646B2D69 
 12726      6F742D64 
 12726      65765C50 
 12727 033a 7572652D 		.ascii	"ure-IOT-Hub-Demo\\PSOC6_FreeRTOS+LwIP+MbedTLS_Azure"
 12727      494F542D 
 12727      4875622D 
 12727      44656D6F 
 12727      5C50534F 
 12728 036c 2D494F54 		.ascii	"-IOT-Hub-Demo.cydsn\000"
 12728      2D487562 
 12728      2D44656D 
 12728      6F2E6379 
 12728      64736E00 
 12729              	.LASF39:
 12730 0380 4D455353 		.ascii	"MESSAGE_QUEUE_HANDLE\000"
 12730      4147455F 
 12730      51554555 
 12730      455F4841 
 12730      4E444C45 
 12731              	.LASF83:
 12732 0395 63757272 		.ascii	"current_time\000"
 12732      656E745F 
 12732      74696D65 
 12732      00
 12733              	.LASF12:
 12734 03a2 73697A65 		.ascii	"size_t\000"
 12734      5F7400
 12735              	.LASF115:
 12736 03a9 73696E67 		.ascii	"singlylinkedlist_get_head_item\000"
ARM GAS  C:\Users\Phuong\AppData\Local\Temp\ccaRXo0w.s 			page 248


 12736      6C796C69 
 12736      6E6B6564 
 12736      6C697374 
 12736      5F676574 
 12737              	.LASF92:
 12738 03c8 6D657373 		.ascii	"message_queue_destroy\000"
 12738      6167655F 
 12738      71756575 
 12738      655F6465 
 12738      7374726F 
 12739              	.LASF24:
 12740 03de 4D455353 		.ascii	"MESSAGE_QUEUE\000"
 12740      4147455F 
 12740      51554555 
 12740      4500
 12741              	.LASF73:
 12742 03ec 66697265 		.ascii	"fire_message_callback\000"
 12742      5F6D6573 
 12742      73616765 
 12742      5F63616C 
 12742      6C626163 
 12743              	.LASF22:
 12744 0402 4C495354 		.ascii	"LIST_ITEM_INSTANCE_TAG\000"
 12744      5F495445 
 12744      4D5F494E 
 12744      5354414E 
 12744      43455F54 
 12745              	.LASF23:
 12746 0419 5F426F6F 		.ascii	"_Bool\000"
 12746      6C00
 12747              	.LASF130:
 12748 041f 536F7572 		.ascii	"Source\\azure_iot_sdk\\iothub_client\\src\\message_"
 12748      63655C61 
 12748      7A757265 
 12748      5F696F74 
 12748      5F73646B 
 12749 044e 71756575 		.ascii	"queue.c\000"
 12749      652E6300 
 12750              	.LASF66:
 12751 0456 6D657373 		.ascii	"message_queue\000"
 12751      6167655F 
 12751      71756575 
 12751      6500
 12752              	.LASF42:
 12753 0464 4D455353 		.ascii	"MESSAGE_QUEUE_RESULT_TAG\000"
 12753      4147455F 
 12753      51554555 
 12753      455F5245 
 12753      53554C54 
 12754              	.LASF113:
 12755 047d 66726565 		.ascii	"free\000"
 12755      00
 12756              	.LASF30:
 12757 0482 70656E64 		.ascii	"pending\000"
 12757      696E6700 
 12758              	.LASF57:
 12759 048a 6F6E5F6D 		.ascii	"on_message_processing_completed_callback\000"
ARM GAS  C:\Users\Phuong\AppData\Local\Temp\ccaRXo0w.s 			page 249


 12759      65737361 
 12759      67655F70 
 12759      726F6365 
 12759      7373696E 
 12760              	.LASF51:
 12761 04b3 50524F43 		.ascii	"PROCESS_MESSAGE_CALLBACK\000"
 12761      4553535F 
 12761      4D455353 
 12761      4147455F 
 12761      43414C4C 
 12762              	.LASF11:
 12763 04cc 63686172 		.ascii	"char\000"
 12763      00
 12764              	.LASF21:
 12765 04d1 53494E47 		.ascii	"SINGLYLINKEDLIST_INSTANCE_TAG\000"
 12765      4C594C49 
 12765      4E4B4544 
 12765      4C495354 
 12765      5F494E53 
 12766              	.LASF45:
 12767 04ef 4D455353 		.ascii	"MESSAGE_QUEUE_RETRYABLE_ERROR\000"
 12767      4147455F 
 12767      51554555 
 12767      455F5245 
 12767      54525941 
 12768              	.LASF103:
 12769 050d 6D657373 		.ascii	"message_queue_set_max_retry_count\000"
 12769      6167655F 
 12769      71756575 
 12769      655F7365 
 12769      745F6D61 
 12770              	.LASF107:
 12771 052f 53415645 		.ascii	"SAVED_OPTION_MAX_RETRY_COUNT\000"
 12771      445F4F50 
 12771      54494F4E 
 12771      5F4D4158 
 12771      5F524554 
 12772              	.LASF15:
 12773 054c 415A5F4C 		.ascii	"AZ_LOG_INFO\000"
 12773      4F475F49 
 12773      4E464F00 
 12774              	.LASF13:
 12775 0558 74696D65 		.ascii	"time_t\000"
 12775      5F7400
 12776              	.LASF58:
 12777 055f 75736572 		.ascii	"user_context\000"
 12777      5F636F6E 
 12777      74657874 
 12777      00
 12778              	.LASF93:
 12779 056c 6D657373 		.ascii	"message_queue_move_all_back_to_pending\000"
 12779      6167655F 
 12779      71756575 
 12779      655F6D6F 
 12779      76655F61 
 12780              	.LASF118:
 12781 0593 6765745F 		.ascii	"get_difftime\000"
ARM GAS  C:\Users\Phuong\AppData\Local\Temp\ccaRXo0w.s 			page 250


 12781      64696666 
 12781      74696D65 
 12781      00
 12782              	.LASF85:
 12783 05a0 6F6E5F70 		.ascii	"on_process_message_completed_callback\000"
 12783      726F6365 
 12783      73735F6D 
 12783      65737361 
 12783      67655F63 
 12784              	.LASF1:
 12785 05c6 6C6F6E67 		.ascii	"long long int\000"
 12785      206C6F6E 
 12785      6720696E 
 12785      7400
 12786              	.LASF60:
 12787 05d4 70726F63 		.ascii	"processing_start_time\000"
 12787      65737369 
 12787      6E675F73 
 12787      74617274 
 12787      5F74696D 
 12788              	.LASF35:
 12789 05ea 4F505449 		.ascii	"OPTIONHANDLER_ERROR\000"
 12789      4F4E4841 
 12789      4E444C45 
 12789      525F4552 
 12789      524F5200 
 12790              	.LASF48:
 12791 05fe 4D455353 		.ascii	"MESSAGE_QUEUE_RESULT\000"
 12791      4147455F 
 12791      51554555 
 12791      455F5245 
 12791      53554C54 
 12792              	.LASF17:
 12793 0613 4C4F475F 		.ascii	"LOG_CATEGORY\000"
 12793      43415445 
 12793      474F5259 
 12793      00
 12794              	.LASF125:
 12795 0620 6D656D73 		.ascii	"memset\000"
 12795      657400
 12796              	.LASF84:
 12797 0627 63757272 		.ascii	"current_list_item\000"
 12797      656E745F 
 12797      6C697374 
 12797      5F697465 
 12797      6D00
 12798              	.LASF119:
 12799 0639 73696E67 		.ascii	"singlylinkedlist_find\000"
 12799      6C796C69 
 12799      6E6B6564 
 12799      6C697374 
 12799      5F66696E 
 12800              	.LASF37:
 12801 064f 4F505449 		.ascii	"OPTIONHANDLER_HANDLE\000"
 12801      4F4E4841 
 12801      4E444C45 
 12801      525F4841 
ARM GAS  C:\Users\Phuong\AppData\Local\Temp\ccaRXo0w.s 			page 251


 12801      4E444C45 
 12802              	.LASF101:
 12803 0664 7365636F 		.ascii	"seconds\000"
 12803      6E647300 
 12804              	.LASF43:
 12805 066c 4D455353 		.ascii	"MESSAGE_QUEUE_SUCCESS\000"
 12805      4147455F 
 12805      51554555 
 12805      455F5355 
 12805      43434553 
 12806              	.LASF72:
 12807 0682 74617267 		.ascii	"target_item\000"
 12807      65745F69 
 12807      74656D00 
 12808              	.LASF49:
 12809 068e 4D455353 		.ascii	"MESSAGE_PROCESSING_COMPLETED_CALLBACK\000"
 12809      4147455F 
 12809      50524F43 
 12809      45535349 
 12809      4E475F43 
 12810              	.LASF55:
 12811 06b4 4D455353 		.ascii	"MESSAGE_QUEUE_ITEM_TAG\000"
 12811      4147455F 
 12811      51554555 
 12811      455F4954 
 12811      454D5F54 
 12812              	.LASF123:
 12813 06cb 73696E67 		.ascii	"singlylinkedlist_destroy\000"
 12813      6C796C69 
 12813      6E6B6564 
 12813      6C697374 
 12813      5F646573 
 12814              	.LASF117:
 12815 06e4 73696E67 		.ascii	"singlylinkedlist_get_next_item\000"
 12815      6C796C69 
 12815      6E6B6564 
 12815      6C697374 
 12815      5F676574 
 12816              	.LASF27:
 12817 0703 6D61785F 		.ascii	"max_retry_count\000"
 12817      72657472 
 12817      795F636F 
 12817      756E7400 
 12818              	.LASF2:
 12819 0713 6C6F6E67 		.ascii	"long double\000"
 12819      20646F75 
 12819      626C6500 
 12820              	.LASF14:
 12821 071f 415A5F4C 		.ascii	"AZ_LOG_ERROR\000"
 12821      4F475F45 
 12821      52524F52 
 12821      00
 12822              	.LASF33:
 12823 072c 4F505449 		.ascii	"OPTIONHANDLER_RESULT_TAG\000"
 12823      4F4E4841 
 12823      4E444C45 
 12823      525F5245 
ARM GAS  C:\Users\Phuong\AppData\Local\Temp\ccaRXo0w.s 			page 252


 12823      53554C54 
 12824              	.LASF95:
 12825 0745 636F6E66 		.ascii	"config\000"
 12825      696700
 12826              	.LASF126:
 12827 074c 4F707469 		.ascii	"OptionHandler_Create\000"
 12827      6F6E4861 
 12827      6E646C65 
 12827      725F4372 
 12827      65617465 
 12828              	.LASF46:
 12829 0761 4D455353 		.ascii	"MESSAGE_QUEUE_TIMEOUT\000"
 12829      4147455F 
 12829      51554555 
 12829      455F5449 
 12829      4D454F55 
 12830              	.LASF69:
 12831 0777 6C697374 		.ascii	"list_item\000"
 12831      5F697465 
 12831      6D00
 12832              	.LASF5:
 12833 0781 73686F72 		.ascii	"short int\000"
 12833      7420696E 
 12833      7400
 12834              	.LASF81:
 12835 078b 70726F63 		.ascii	"process_pending_messages\000"
 12835      6573735F 
 12835      70656E64 
 12835      696E675F 
 12835      6D657373 
 12836              	.LASF7:
 12837 07a4 6C6F6E67 		.ascii	"long int\000"
 12837      20696E74 
 12837      00
 12838              	.LASF91:
 12839 07ad 6D657373 		.ascii	"message_queue_remove_all\000"
 12839      6167655F 
 12839      71756575 
 12839      655F7265 
 12839      6D6F7665 
 12840              	.LASF59:
 12841 07c6 656E7175 		.ascii	"enqueue_time\000"
 12841      6575655F 
 12841      74696D65 
 12841      00
 12842              	.LASF82:
 12843 07d3 70726F63 		.ascii	"process_timeouts\000"
 12843      6573735F 
 12843      74696D65 
 12843      6F757473 
 12843      00
 12844              	.LASF19:
 12845 07e4 53494E47 		.ascii	"SINGLYLINKEDLIST_HANDLE\000"
 12845      4C594C49 
 12845      4E4B4544 
 12845      4C495354 
 12845      5F48414E 
ARM GAS  C:\Users\Phuong\AppData\Local\Temp\ccaRXo0w.s 			page 253


 12846              	.LASF26:
 12847 07fc 6D61785F 		.ascii	"max_message_processing_time_secs\000"
 12847      6D657373 
 12847      6167655F 
 12847      70726F63 
 12847      65737369 
 12848              	.LASF87:
 12849 081d 6E616D65 		.ascii	"name\000"
 12849      00
 12850              	.LASF18:
 12851 0822 4C4F4747 		.ascii	"LOGGER_LOG\000"
 12851      45525F4C 
 12851      4F4700
 12852              	.LASF10:
 12853 082d 73697A65 		.ascii	"sizetype\000"
 12853      74797065 
 12853      00
 12854              	.LASF8:
 12855 0836 6C6F6E67 		.ascii	"long unsigned int\000"
 12855      20756E73 
 12855      69676E65 
 12855      6420696E 
 12855      7400
 12856              	.LASF80:
 12857 0848 72657472 		.ascii	"retry_sending_message\000"
 12857      795F7365 
 12857      6E64696E 
 12857      675F6D65 
 12857      73736167 
 12858              	.LASF74:
 12859 085e 64657175 		.ascii	"dequeue_message_and_fire_callback\000"
 12859      6575655F 
 12859      6D657373 
 12859      6167655F 
 12859      616E645F 
 12860              	.LASF41:
 12861 0880 55534552 		.ascii	"USER_DEFINED_REASON\000"
 12861      5F444546 
 12861      494E4544 
 12861      5F524541 
 12861      534F4E00 
 12862              	.LASF47:
 12863 0894 4D455353 		.ascii	"MESSAGE_QUEUE_CANCELLED\000"
 12863      4147455F 
 12863      51554555 
 12863      455F4341 
 12863      4E43454C 
 12864              	.LASF109:
 12865 08ac 53415645 		.ascii	"SAVED_OPTION_MAX_PROCESSING_TIME_SECS\000"
 12865      445F4F50 
 12865      54494F4E 
 12865      5F4D4158 
 12865      5F50524F 
 12866              	.LASF71:
 12867 08d2 63757272 		.ascii	"current_item\000"
 12867      656E745F 
 12867      6974656D 
ARM GAS  C:\Users\Phuong\AppData\Local\Temp\ccaRXo0w.s 			page 254


 12867      00
 12868              	.LASF4:
 12869 08df 756E7369 		.ascii	"unsigned char\000"
 12869      676E6564 
 12869      20636861 
 12869      7200
 12870              	.LASF112:
 12871 08ed 73696E67 		.ascii	"singlylinkedlist_remove\000"
 12871      6C796C69 
 12871      6E6B6564 
 12871      6C697374 
 12871      5F72656D 
 12872              	.LASF122:
 12873 0905 73696E67 		.ascii	"singlylinkedlist_create\000"
 12873      6C796C69 
 12873      6E6B6564 
 12873      6C697374 
 12873      5F637265 
 12874              	.LASF32:
 12875 091d 4C4F475F 		.ascii	"LOG_CATEGORY_TAG\000"
 12875      43415445 
 12875      474F5259 
 12875      5F544147 
 12875      00
 12876              	.LASF94:
 12877 092e 6D657373 		.ascii	"message_queue_create\000"
 12877      6167655F 
 12877      71756575 
 12877      655F6372 
 12877      65617465 
 12878              	.LASF36:
 12879 0943 4F505449 		.ascii	"OPTIONHANDLER_INVALIDARG\000"
 12879      4F4E4841 
 12879      4E444C45 
 12879      525F494E 
 12879      56414C49 
 12880              	.LASF78:
 12881 095c 746F5F6C 		.ascii	"to_list\000"
 12881      69737400 
 12882              	.LASF16:
 12883 0964 415A5F4C 		.ascii	"AZ_LOG_TRACE\000"
 12883      4F475F54 
 12883      52414345 
 12883      00
 12884              	.LASF61:
 12885 0971 6E756D62 		.ascii	"number_of_attempts\000"
 12885      65725F6F 
 12885      665F6174 
 12885      74656D70 
 12885      747300
 12886              	.LASF110:
 12887 0984 73696E67 		.ascii	"singlylinkedlist_item_get_value\000"
 12887      6C796C69 
 12887      6E6B6564 
 12887      6C697374 
 12887      5F697465 
 12888              	.LASF63:
ARM GAS  C:\Users\Phuong\AppData\Local\Temp\ccaRXo0w.s 			page 255


 12889 09a4 6D715F69 		.ascii	"mq_item\000"
 12889      74656D00 
 12890              	.LASF3:
 12891 09ac 7369676E 		.ascii	"signed char\000"
 12891      65642063 
 12891      68617200 
 12892              	.LASF25:
 12893 09b8 6D61785F 		.ascii	"max_message_enqueued_time_secs\000"
 12893      6D657373 
 12893      6167655F 
 12893      656E7175 
 12893      65756564 
 12894              	.LASF127:
 12895 09d7 4F707469 		.ascii	"OptionHandler_AddOption\000"
 12895      6F6E4861 
 12895      6E646C65 
 12895      725F4164 
 12895      644F7074 
 12896              	.LASF6:
 12897 09ef 73686F72 		.ascii	"short unsigned int\000"
 12897      7420756E 
 12897      7369676E 
 12897      65642069 
 12897      6E7400
 12898              	.LASF105:
 12899 0a02 68616E64 		.ascii	"handle\000"
 12899      6C6500
 12900              	.LASF124:
 12901 0a09 6D656D63 		.ascii	"memcpy\000"
 12901      707900
 12902              	.LASF54:
 12903 0a10 4D455353 		.ascii	"MESSAGE_QUEUE_CONFIG\000"
 12903      4147455F 
 12903      51554555 
 12903      455F434F 
 12903      4E464947 
 12904              	.LASF100:
 12905 0a25 6D657373 		.ascii	"message_queue_set_max_message_enqueued_time_secs\000"
 12905      6167655F 
 12905      71756575 
 12905      655F7365 
 12905      745F6D61 
 12906              	.LASF79:
 12907 0a56 5F5F6675 		.ascii	"__func__\000"
 12907      6E635F5F 
 12907      00
 12908              	.LASF31:
 12909 0a5f 696E5F70 		.ascii	"in_progress\000"
 12909      726F6772 
 12909      65737300 
 12910              	.LASF40:
 12911 0a6b 4D515F4D 		.ascii	"MQ_MESSAGE_HANDLE\000"
 12911      45535341 
 12911      47455F48 
 12911      414E444C 
 12911      4500
 12912              	.LASF128:
ARM GAS  C:\Users\Phuong\AppData\Local\Temp\ccaRXo0w.s 			page 256


 12913 0a7d 4F707469 		.ascii	"OptionHandler_Destroy\000"
 12913      6F6E4861 
 12913      6E646C65 
 12913      725F4465 
 12913      7374726F 
 12914              	.LASF76:
 12915 0a93 6D6F7665 		.ascii	"move_messages_between_lists\000"
 12915      5F6D6573 
 12915      73616765 
 12915      735F6265 
 12915      74776565 
 12916              	.LASF70:
 12917 0aaf 6D617463 		.ascii	"match_context\000"
 12917      685F636F 
 12917      6E746578 
 12917      7400
 12918              	.LASF29:
 12919 0abd 6F6E5F70 		.ascii	"on_process_message_context\000"
 12919      726F6365 
 12919      73735F6D 
 12919      65737361 
 12919      67655F63 
 12920              	.LASF120:
 12921 0ad8 73747263 		.ascii	"strcmp\000"
 12921      6D7000
 12922              	.LASF111:
 12923 0adf 786C6F67 		.ascii	"xlogging_get_log_function\000"
 12923      67696E67 
 12923      5F676574 
 12923      5F6C6F67 
 12923      5F66756E 
 12924              	.LASF67:
 12925 0af9 73686F75 		.ascii	"should_retry_sending\000"
 12925      6C645F72 
 12925      65747279 
 12925      5F73656E 
 12925      64696E67 
 12926              		.ident	"GCC: (GNU Tools for ARM Embedded Processors) 5.4.1 20160609 (release) [ARM/embedded-5-bran
