ARM GAS  C:\Users\Phuong\AppData\Local\Temp\ccqGhR5Z.s 			page 1


   1              		.syntax unified
   2              		.cpu cortex-m0plus
   3              		.fpu softvfp
   4              		.eabi_attribute 20, 1
   5              		.eabi_attribute 21, 1
   6              		.eabi_attribute 23, 3
   7              		.eabi_attribute 24, 1
   8              		.eabi_attribute 25, 1
   9              		.eabi_attribute 26, 1
  10              		.eabi_attribute 30, 1
  11              		.eabi_attribute 34, 0
  12              		.eabi_attribute 18, 4
  13              		.thumb
  14              		.syntax unified
  15              		.file	"message_receiver.c"
  16              		.text
  17              	.Ltext0:
  18              		.cfi_sections	.debug_frame
  19              		.section	.text.set_message_receiver_state,"ax",%progbits
  20              		.align	2
  21              		.code	16
  22              		.thumb_func
  23              		.type	set_message_receiver_state, %function
  24              	set_message_receiver_state:
  25              	.LFB1:
  26              		.file 1 "Source\\azure_iot_sdk\\uamqp\\src\\message_receiver.c"
   1:Source\azure_iot_sdk\uamqp\src/message_receiver.c **** // Copyright (c) Microsoft. All rights reserved.
   2:Source\azure_iot_sdk\uamqp\src/message_receiver.c **** // Licensed under the MIT license. See LICENSE file in the project root for full license informatio
   3:Source\azure_iot_sdk\uamqp\src/message_receiver.c **** 
   4:Source\azure_iot_sdk\uamqp\src/message_receiver.c **** #include <stdlib.h>
   5:Source\azure_iot_sdk\uamqp\src/message_receiver.c **** 
   6:Source\azure_iot_sdk\uamqp\src/message_receiver.c **** #include "azure_c_shared_utility/optimize_size.h"
   7:Source\azure_iot_sdk\uamqp\src/message_receiver.c **** #include "azure_c_shared_utility/gballoc.h"
   8:Source\azure_iot_sdk\uamqp\src/message_receiver.c **** #include "azure_c_shared_utility/xlogging.h"
   9:Source\azure_iot_sdk\uamqp\src/message_receiver.c **** #include "azure_uamqp_c/link.h"
  10:Source\azure_iot_sdk\uamqp\src/message_receiver.c **** #include "azure_uamqp_c/amqp_definitions.h"
  11:Source\azure_iot_sdk\uamqp\src/message_receiver.c **** #include "azure_uamqp_c/message.h"
  12:Source\azure_iot_sdk\uamqp\src/message_receiver.c **** #include "azure_uamqp_c/message_receiver.h"
  13:Source\azure_iot_sdk\uamqp\src/message_receiver.c **** #include "azure_uamqp_c/amqpvalue.h"
  14:Source\azure_iot_sdk\uamqp\src/message_receiver.c **** 
  15:Source\azure_iot_sdk\uamqp\src/message_receiver.c **** typedef struct MESSAGE_RECEIVER_INSTANCE_TAG
  16:Source\azure_iot_sdk\uamqp\src/message_receiver.c **** {
  17:Source\azure_iot_sdk\uamqp\src/message_receiver.c ****     LINK_HANDLE link;
  18:Source\azure_iot_sdk\uamqp\src/message_receiver.c ****     ON_MESSAGE_RECEIVED on_message_received;
  19:Source\azure_iot_sdk\uamqp\src/message_receiver.c ****     ON_MESSAGE_RECEIVER_STATE_CHANGED on_message_receiver_state_changed;
  20:Source\azure_iot_sdk\uamqp\src/message_receiver.c ****     MESSAGE_RECEIVER_STATE message_receiver_state;
  21:Source\azure_iot_sdk\uamqp\src/message_receiver.c ****     const void* on_message_receiver_state_changed_context;
  22:Source\azure_iot_sdk\uamqp\src/message_receiver.c ****     const void* callback_context;
  23:Source\azure_iot_sdk\uamqp\src/message_receiver.c ****     MESSAGE_HANDLE decoded_message;
  24:Source\azure_iot_sdk\uamqp\src/message_receiver.c ****     bool decode_error;
  25:Source\azure_iot_sdk\uamqp\src/message_receiver.c **** } MESSAGE_RECEIVER_INSTANCE;
  26:Source\azure_iot_sdk\uamqp\src/message_receiver.c **** 
  27:Source\azure_iot_sdk\uamqp\src/message_receiver.c **** static void set_message_receiver_state(MESSAGE_RECEIVER_INSTANCE* message_receiver, MESSAGE_RECEIVE
  28:Source\azure_iot_sdk\uamqp\src/message_receiver.c **** {
  27              		.loc 1 28 0
  28              		.cfi_startproc
  29              		@ args = 0, pretend = 0, frame = 0
ARM GAS  C:\Users\Phuong\AppData\Local\Temp\ccqGhR5Z.s 			page 2


  30              		@ frame_needed = 0, uses_anonymous_args = 0
  31              	.LVL0:
  32 0000 10B5     		push	{r4, lr}
  33              		.cfi_def_cfa_offset 8
  34              		.cfi_offset 4, -8
  35              		.cfi_offset 14, -4
  29:Source\azure_iot_sdk\uamqp\src/message_receiver.c ****     MESSAGE_RECEIVER_STATE previous_state = message_receiver->message_receiver_state;
  36              		.loc 1 29 0
  37 0002 027B     		ldrb	r2, [r0, #12]
  38              	.LVL1:
  30:Source\azure_iot_sdk\uamqp\src/message_receiver.c ****     message_receiver->message_receiver_state = new_state;
  39              		.loc 1 30 0
  40 0004 0173     		strb	r1, [r0, #12]
  31:Source\azure_iot_sdk\uamqp\src/message_receiver.c ****     if (message_receiver->on_message_receiver_state_changed != NULL)
  41              		.loc 1 31 0
  42 0006 8368     		ldr	r3, [r0, #8]
  43 0008 002B     		cmp	r3, #0
  44 000a 01D0     		beq	.L1
  32:Source\azure_iot_sdk\uamqp\src/message_receiver.c ****     {
  33:Source\azure_iot_sdk\uamqp\src/message_receiver.c ****         message_receiver->on_message_receiver_state_changed(message_receiver->on_message_receiver_s
  45              		.loc 1 33 0
  46 000c 0069     		ldr	r0, [r0, #16]
  47              	.LVL2:
  48 000e 9847     		blx	r3
  49              	.LVL3:
  50              	.L1:
  34:Source\azure_iot_sdk\uamqp\src/message_receiver.c ****     }
  35:Source\azure_iot_sdk\uamqp\src/message_receiver.c **** }
  51              		.loc 1 35 0
  52              		@ sp needed
  53 0010 10BD     		pop	{r4, pc}
  54              		.cfi_endproc
  55              	.LFE1:
  56              		.size	set_message_receiver_state, .-set_message_receiver_state
  57 0012 C046     		.section	.text.on_link_state_changed,"ax",%progbits
  58              		.align	2
  59              		.code	16
  60              		.thumb_func
  61              		.type	on_link_state_changed, %function
  62              	on_link_state_changed:
  63              	.LFB4:
  36:Source\azure_iot_sdk\uamqp\src/message_receiver.c **** 
  37:Source\azure_iot_sdk\uamqp\src/message_receiver.c **** static void decode_message_value_callback(void* context, AMQP_VALUE decoded_value)
  38:Source\azure_iot_sdk\uamqp\src/message_receiver.c **** {
  39:Source\azure_iot_sdk\uamqp\src/message_receiver.c ****     MESSAGE_RECEIVER_INSTANCE* message_receiver = (MESSAGE_RECEIVER_INSTANCE*)context;
  40:Source\azure_iot_sdk\uamqp\src/message_receiver.c ****     MESSAGE_HANDLE decoded_message = message_receiver->decoded_message;
  41:Source\azure_iot_sdk\uamqp\src/message_receiver.c ****     AMQP_VALUE descriptor = amqpvalue_get_inplace_descriptor(decoded_value);
  42:Source\azure_iot_sdk\uamqp\src/message_receiver.c **** 
  43:Source\azure_iot_sdk\uamqp\src/message_receiver.c ****     if (is_application_properties_type_by_descriptor(descriptor))
  44:Source\azure_iot_sdk\uamqp\src/message_receiver.c ****     {
  45:Source\azure_iot_sdk\uamqp\src/message_receiver.c ****         if (message_set_application_properties(decoded_message, decoded_value) != 0)
  46:Source\azure_iot_sdk\uamqp\src/message_receiver.c ****         {
  47:Source\azure_iot_sdk\uamqp\src/message_receiver.c ****             LogError("Error setting application properties on received message");
  48:Source\azure_iot_sdk\uamqp\src/message_receiver.c ****             message_receiver->decode_error = true;
  49:Source\azure_iot_sdk\uamqp\src/message_receiver.c ****         }
  50:Source\azure_iot_sdk\uamqp\src/message_receiver.c ****     }
  51:Source\azure_iot_sdk\uamqp\src/message_receiver.c ****     else if (is_properties_type_by_descriptor(descriptor))
ARM GAS  C:\Users\Phuong\AppData\Local\Temp\ccqGhR5Z.s 			page 3


  52:Source\azure_iot_sdk\uamqp\src/message_receiver.c ****     {
  53:Source\azure_iot_sdk\uamqp\src/message_receiver.c ****         PROPERTIES_HANDLE properties;
  54:Source\azure_iot_sdk\uamqp\src/message_receiver.c ****         if (amqpvalue_get_properties(decoded_value, &properties) != 0)
  55:Source\azure_iot_sdk\uamqp\src/message_receiver.c ****         {
  56:Source\azure_iot_sdk\uamqp\src/message_receiver.c ****             LogError("Error getting message properties");
  57:Source\azure_iot_sdk\uamqp\src/message_receiver.c ****             message_receiver->decode_error = true;
  58:Source\azure_iot_sdk\uamqp\src/message_receiver.c ****         }
  59:Source\azure_iot_sdk\uamqp\src/message_receiver.c ****         else
  60:Source\azure_iot_sdk\uamqp\src/message_receiver.c ****         {
  61:Source\azure_iot_sdk\uamqp\src/message_receiver.c ****             if (message_set_properties(decoded_message, properties) != 0)
  62:Source\azure_iot_sdk\uamqp\src/message_receiver.c ****             {
  63:Source\azure_iot_sdk\uamqp\src/message_receiver.c ****                 LogError("Error setting message properties on received message");
  64:Source\azure_iot_sdk\uamqp\src/message_receiver.c ****                 message_receiver->decode_error = true;
  65:Source\azure_iot_sdk\uamqp\src/message_receiver.c ****             }
  66:Source\azure_iot_sdk\uamqp\src/message_receiver.c **** 
  67:Source\azure_iot_sdk\uamqp\src/message_receiver.c ****             properties_destroy(properties);
  68:Source\azure_iot_sdk\uamqp\src/message_receiver.c ****         }
  69:Source\azure_iot_sdk\uamqp\src/message_receiver.c ****     }
  70:Source\azure_iot_sdk\uamqp\src/message_receiver.c ****     else if (is_delivery_annotations_type_by_descriptor(descriptor))
  71:Source\azure_iot_sdk\uamqp\src/message_receiver.c ****     {
  72:Source\azure_iot_sdk\uamqp\src/message_receiver.c ****         annotations delivery_annotations = amqpvalue_get_inplace_described_value(decoded_value);
  73:Source\azure_iot_sdk\uamqp\src/message_receiver.c ****         if (delivery_annotations == NULL)
  74:Source\azure_iot_sdk\uamqp\src/message_receiver.c ****         {
  75:Source\azure_iot_sdk\uamqp\src/message_receiver.c ****             LogError("Error getting delivery annotations");
  76:Source\azure_iot_sdk\uamqp\src/message_receiver.c ****             message_receiver->decode_error = true;
  77:Source\azure_iot_sdk\uamqp\src/message_receiver.c ****         }
  78:Source\azure_iot_sdk\uamqp\src/message_receiver.c ****         else
  79:Source\azure_iot_sdk\uamqp\src/message_receiver.c ****         {
  80:Source\azure_iot_sdk\uamqp\src/message_receiver.c ****             if (message_set_delivery_annotations(decoded_message, delivery_annotations) != 0)
  81:Source\azure_iot_sdk\uamqp\src/message_receiver.c ****             {
  82:Source\azure_iot_sdk\uamqp\src/message_receiver.c ****                 LogError("Error setting delivery annotations on received message");
  83:Source\azure_iot_sdk\uamqp\src/message_receiver.c ****                 message_receiver->decode_error = true;
  84:Source\azure_iot_sdk\uamqp\src/message_receiver.c ****             }
  85:Source\azure_iot_sdk\uamqp\src/message_receiver.c ****         }
  86:Source\azure_iot_sdk\uamqp\src/message_receiver.c ****     }
  87:Source\azure_iot_sdk\uamqp\src/message_receiver.c ****     else if (is_message_annotations_type_by_descriptor(descriptor))
  88:Source\azure_iot_sdk\uamqp\src/message_receiver.c ****     {
  89:Source\azure_iot_sdk\uamqp\src/message_receiver.c ****         annotations message_annotations = amqpvalue_get_inplace_described_value(decoded_value);
  90:Source\azure_iot_sdk\uamqp\src/message_receiver.c ****         if (message_annotations == NULL)
  91:Source\azure_iot_sdk\uamqp\src/message_receiver.c ****         {
  92:Source\azure_iot_sdk\uamqp\src/message_receiver.c ****             LogError("Error getting message annotations");
  93:Source\azure_iot_sdk\uamqp\src/message_receiver.c ****             message_receiver->decode_error = true;
  94:Source\azure_iot_sdk\uamqp\src/message_receiver.c ****         }
  95:Source\azure_iot_sdk\uamqp\src/message_receiver.c ****         else
  96:Source\azure_iot_sdk\uamqp\src/message_receiver.c ****         {
  97:Source\azure_iot_sdk\uamqp\src/message_receiver.c ****             if (message_set_message_annotations(decoded_message, message_annotations) != 0)
  98:Source\azure_iot_sdk\uamqp\src/message_receiver.c ****             {
  99:Source\azure_iot_sdk\uamqp\src/message_receiver.c ****                 LogError("Error setting message annotations on received message");
 100:Source\azure_iot_sdk\uamqp\src/message_receiver.c ****                 message_receiver->decode_error = true;
 101:Source\azure_iot_sdk\uamqp\src/message_receiver.c ****             }
 102:Source\azure_iot_sdk\uamqp\src/message_receiver.c ****         }
 103:Source\azure_iot_sdk\uamqp\src/message_receiver.c ****     }
 104:Source\azure_iot_sdk\uamqp\src/message_receiver.c ****     else if (is_header_type_by_descriptor(descriptor))
 105:Source\azure_iot_sdk\uamqp\src/message_receiver.c ****     {
 106:Source\azure_iot_sdk\uamqp\src/message_receiver.c ****         HEADER_HANDLE header;
 107:Source\azure_iot_sdk\uamqp\src/message_receiver.c ****         if (amqpvalue_get_header(decoded_value, &header) != 0)
 108:Source\azure_iot_sdk\uamqp\src/message_receiver.c ****         {
ARM GAS  C:\Users\Phuong\AppData\Local\Temp\ccqGhR5Z.s 			page 4


 109:Source\azure_iot_sdk\uamqp\src/message_receiver.c ****             LogError("Error getting message header");
 110:Source\azure_iot_sdk\uamqp\src/message_receiver.c ****             message_receiver->decode_error = true;
 111:Source\azure_iot_sdk\uamqp\src/message_receiver.c ****         }
 112:Source\azure_iot_sdk\uamqp\src/message_receiver.c ****         else
 113:Source\azure_iot_sdk\uamqp\src/message_receiver.c ****         {
 114:Source\azure_iot_sdk\uamqp\src/message_receiver.c ****             if (message_set_header(decoded_message, header) != 0)
 115:Source\azure_iot_sdk\uamqp\src/message_receiver.c ****             {
 116:Source\azure_iot_sdk\uamqp\src/message_receiver.c ****                 LogError("Error setting message header on received message");
 117:Source\azure_iot_sdk\uamqp\src/message_receiver.c ****                 message_receiver->decode_error = true;
 118:Source\azure_iot_sdk\uamqp\src/message_receiver.c ****             }
 119:Source\azure_iot_sdk\uamqp\src/message_receiver.c **** 
 120:Source\azure_iot_sdk\uamqp\src/message_receiver.c ****             header_destroy(header);
 121:Source\azure_iot_sdk\uamqp\src/message_receiver.c ****         }
 122:Source\azure_iot_sdk\uamqp\src/message_receiver.c ****     }
 123:Source\azure_iot_sdk\uamqp\src/message_receiver.c ****     else if (is_footer_type_by_descriptor(descriptor))
 124:Source\azure_iot_sdk\uamqp\src/message_receiver.c ****     {
 125:Source\azure_iot_sdk\uamqp\src/message_receiver.c ****         annotations footer = amqpvalue_get_inplace_described_value(decoded_value);
 126:Source\azure_iot_sdk\uamqp\src/message_receiver.c ****         if (footer == NULL)
 127:Source\azure_iot_sdk\uamqp\src/message_receiver.c ****         {
 128:Source\azure_iot_sdk\uamqp\src/message_receiver.c ****             LogError("Error getting message footer");
 129:Source\azure_iot_sdk\uamqp\src/message_receiver.c ****             message_receiver->decode_error = true;
 130:Source\azure_iot_sdk\uamqp\src/message_receiver.c ****         }
 131:Source\azure_iot_sdk\uamqp\src/message_receiver.c ****         else
 132:Source\azure_iot_sdk\uamqp\src/message_receiver.c ****         {
 133:Source\azure_iot_sdk\uamqp\src/message_receiver.c ****             if (message_set_footer(decoded_message, footer) != 0)
 134:Source\azure_iot_sdk\uamqp\src/message_receiver.c ****             {
 135:Source\azure_iot_sdk\uamqp\src/message_receiver.c ****                 LogError("Error setting message footer on received message");
 136:Source\azure_iot_sdk\uamqp\src/message_receiver.c ****                 message_receiver->decode_error = true;
 137:Source\azure_iot_sdk\uamqp\src/message_receiver.c ****             }
 138:Source\azure_iot_sdk\uamqp\src/message_receiver.c ****         }
 139:Source\azure_iot_sdk\uamqp\src/message_receiver.c ****     }
 140:Source\azure_iot_sdk\uamqp\src/message_receiver.c ****     else if (is_amqp_value_type_by_descriptor(descriptor))
 141:Source\azure_iot_sdk\uamqp\src/message_receiver.c ****     {
 142:Source\azure_iot_sdk\uamqp\src/message_receiver.c ****         MESSAGE_BODY_TYPE body_type;
 143:Source\azure_iot_sdk\uamqp\src/message_receiver.c ****         if (message_get_body_type(decoded_message, &body_type) != 0)
 144:Source\azure_iot_sdk\uamqp\src/message_receiver.c ****         {
 145:Source\azure_iot_sdk\uamqp\src/message_receiver.c ****             LogError("Error getting message body type");
 146:Source\azure_iot_sdk\uamqp\src/message_receiver.c ****             message_receiver->decode_error = true;
 147:Source\azure_iot_sdk\uamqp\src/message_receiver.c ****         }
 148:Source\azure_iot_sdk\uamqp\src/message_receiver.c ****         else
 149:Source\azure_iot_sdk\uamqp\src/message_receiver.c ****         {
 150:Source\azure_iot_sdk\uamqp\src/message_receiver.c ****             if (body_type != MESSAGE_BODY_TYPE_NONE)
 151:Source\azure_iot_sdk\uamqp\src/message_receiver.c ****             {
 152:Source\azure_iot_sdk\uamqp\src/message_receiver.c ****                 LogError("Body already set on received message");
 153:Source\azure_iot_sdk\uamqp\src/message_receiver.c ****                 message_receiver->decode_error = true;
 154:Source\azure_iot_sdk\uamqp\src/message_receiver.c ****             }
 155:Source\azure_iot_sdk\uamqp\src/message_receiver.c ****             else
 156:Source\azure_iot_sdk\uamqp\src/message_receiver.c ****             {
 157:Source\azure_iot_sdk\uamqp\src/message_receiver.c ****                 AMQP_VALUE body_amqp_value = amqpvalue_get_inplace_described_value(decoded_value);
 158:Source\azure_iot_sdk\uamqp\src/message_receiver.c ****                 if (body_amqp_value == NULL)
 159:Source\azure_iot_sdk\uamqp\src/message_receiver.c ****                 {
 160:Source\azure_iot_sdk\uamqp\src/message_receiver.c ****                     LogError("Error getting body AMQP value");
 161:Source\azure_iot_sdk\uamqp\src/message_receiver.c ****                     message_receiver->decode_error = true;
 162:Source\azure_iot_sdk\uamqp\src/message_receiver.c ****                 }
 163:Source\azure_iot_sdk\uamqp\src/message_receiver.c ****                 else
 164:Source\azure_iot_sdk\uamqp\src/message_receiver.c ****                 {
 165:Source\azure_iot_sdk\uamqp\src/message_receiver.c ****                     if (message_set_body_amqp_value(decoded_message, body_amqp_value) != 0)
ARM GAS  C:\Users\Phuong\AppData\Local\Temp\ccqGhR5Z.s 			page 5


 166:Source\azure_iot_sdk\uamqp\src/message_receiver.c ****                     {
 167:Source\azure_iot_sdk\uamqp\src/message_receiver.c ****                         LogError("Error setting body AMQP value on received message");
 168:Source\azure_iot_sdk\uamqp\src/message_receiver.c ****                         message_receiver->decode_error = true;
 169:Source\azure_iot_sdk\uamqp\src/message_receiver.c ****                     }
 170:Source\azure_iot_sdk\uamqp\src/message_receiver.c ****                 }
 171:Source\azure_iot_sdk\uamqp\src/message_receiver.c ****             }
 172:Source\azure_iot_sdk\uamqp\src/message_receiver.c ****         }
 173:Source\azure_iot_sdk\uamqp\src/message_receiver.c ****     }
 174:Source\azure_iot_sdk\uamqp\src/message_receiver.c ****     else if (is_data_type_by_descriptor(descriptor))
 175:Source\azure_iot_sdk\uamqp\src/message_receiver.c ****     {
 176:Source\azure_iot_sdk\uamqp\src/message_receiver.c ****         MESSAGE_BODY_TYPE body_type;
 177:Source\azure_iot_sdk\uamqp\src/message_receiver.c ****         if (message_get_body_type(decoded_message, &body_type) != 0)
 178:Source\azure_iot_sdk\uamqp\src/message_receiver.c ****         {
 179:Source\azure_iot_sdk\uamqp\src/message_receiver.c ****             LogError("Error getting message body type");
 180:Source\azure_iot_sdk\uamqp\src/message_receiver.c ****             message_receiver->decode_error = true;
 181:Source\azure_iot_sdk\uamqp\src/message_receiver.c ****         }
 182:Source\azure_iot_sdk\uamqp\src/message_receiver.c ****         else
 183:Source\azure_iot_sdk\uamqp\src/message_receiver.c ****         {
 184:Source\azure_iot_sdk\uamqp\src/message_receiver.c ****             if ((body_type != MESSAGE_BODY_TYPE_NONE) &&
 185:Source\azure_iot_sdk\uamqp\src/message_receiver.c ****                 (body_type != MESSAGE_BODY_TYPE_DATA))
 186:Source\azure_iot_sdk\uamqp\src/message_receiver.c ****             {
 187:Source\azure_iot_sdk\uamqp\src/message_receiver.c ****                 LogError("Message body type already set to something different than AMQP DATA");
 188:Source\azure_iot_sdk\uamqp\src/message_receiver.c ****                 message_receiver->decode_error = true;
 189:Source\azure_iot_sdk\uamqp\src/message_receiver.c ****             }
 190:Source\azure_iot_sdk\uamqp\src/message_receiver.c ****             else
 191:Source\azure_iot_sdk\uamqp\src/message_receiver.c ****             {
 192:Source\azure_iot_sdk\uamqp\src/message_receiver.c ****                 AMQP_VALUE body_data_value = amqpvalue_get_inplace_described_value(decoded_value);
 193:Source\azure_iot_sdk\uamqp\src/message_receiver.c ****                 if (body_data_value == NULL)
 194:Source\azure_iot_sdk\uamqp\src/message_receiver.c ****                 {
 195:Source\azure_iot_sdk\uamqp\src/message_receiver.c ****                     LogError("Error getting body DATA value");
 196:Source\azure_iot_sdk\uamqp\src/message_receiver.c ****                     message_receiver->decode_error = true;
 197:Source\azure_iot_sdk\uamqp\src/message_receiver.c ****                 }
 198:Source\azure_iot_sdk\uamqp\src/message_receiver.c ****                 else
 199:Source\azure_iot_sdk\uamqp\src/message_receiver.c ****                 {
 200:Source\azure_iot_sdk\uamqp\src/message_receiver.c ****                     data data_value;
 201:Source\azure_iot_sdk\uamqp\src/message_receiver.c ****                     if (amqpvalue_get_data(body_data_value, &data_value) != 0)
 202:Source\azure_iot_sdk\uamqp\src/message_receiver.c ****                     {
 203:Source\azure_iot_sdk\uamqp\src/message_receiver.c ****                         LogError("Error getting body DATA AMQP value");
 204:Source\azure_iot_sdk\uamqp\src/message_receiver.c ****                         message_receiver->decode_error = true;
 205:Source\azure_iot_sdk\uamqp\src/message_receiver.c ****                     }
 206:Source\azure_iot_sdk\uamqp\src/message_receiver.c ****                     else
 207:Source\azure_iot_sdk\uamqp\src/message_receiver.c ****                     {
 208:Source\azure_iot_sdk\uamqp\src/message_receiver.c ****                         BINARY_DATA binary_data;
 209:Source\azure_iot_sdk\uamqp\src/message_receiver.c ****                         binary_data.bytes = (const unsigned char*)data_value.bytes;
 210:Source\azure_iot_sdk\uamqp\src/message_receiver.c ****                         binary_data.length = data_value.length;
 211:Source\azure_iot_sdk\uamqp\src/message_receiver.c ****                         if (message_add_body_amqp_data(decoded_message, binary_data) != 0)
 212:Source\azure_iot_sdk\uamqp\src/message_receiver.c ****                         {
 213:Source\azure_iot_sdk\uamqp\src/message_receiver.c ****                             LogError("Error adding body DATA to received message");
 214:Source\azure_iot_sdk\uamqp\src/message_receiver.c ****                             message_receiver->decode_error = true;
 215:Source\azure_iot_sdk\uamqp\src/message_receiver.c ****                         }
 216:Source\azure_iot_sdk\uamqp\src/message_receiver.c ****                     }
 217:Source\azure_iot_sdk\uamqp\src/message_receiver.c ****                 }
 218:Source\azure_iot_sdk\uamqp\src/message_receiver.c ****             }
 219:Source\azure_iot_sdk\uamqp\src/message_receiver.c ****         }
 220:Source\azure_iot_sdk\uamqp\src/message_receiver.c ****     }
 221:Source\azure_iot_sdk\uamqp\src/message_receiver.c **** }
 222:Source\azure_iot_sdk\uamqp\src/message_receiver.c **** 
ARM GAS  C:\Users\Phuong\AppData\Local\Temp\ccqGhR5Z.s 			page 6


 223:Source\azure_iot_sdk\uamqp\src/message_receiver.c **** static AMQP_VALUE on_transfer_received(void* context, TRANSFER_HANDLE transfer, uint32_t payload_si
 224:Source\azure_iot_sdk\uamqp\src/message_receiver.c **** {
 225:Source\azure_iot_sdk\uamqp\src/message_receiver.c ****     AMQP_VALUE result = NULL;
 226:Source\azure_iot_sdk\uamqp\src/message_receiver.c ****     MESSAGE_RECEIVER_INSTANCE* message_receiver = (MESSAGE_RECEIVER_INSTANCE*)context;
 227:Source\azure_iot_sdk\uamqp\src/message_receiver.c **** 
 228:Source\azure_iot_sdk\uamqp\src/message_receiver.c ****     (void)transfer;
 229:Source\azure_iot_sdk\uamqp\src/message_receiver.c ****     if (message_receiver->on_message_received != NULL)
 230:Source\azure_iot_sdk\uamqp\src/message_receiver.c ****     {
 231:Source\azure_iot_sdk\uamqp\src/message_receiver.c ****         MESSAGE_HANDLE message = message_create();
 232:Source\azure_iot_sdk\uamqp\src/message_receiver.c ****         if (message == NULL)
 233:Source\azure_iot_sdk\uamqp\src/message_receiver.c ****         {
 234:Source\azure_iot_sdk\uamqp\src/message_receiver.c ****             LogError("Cannot create message");
 235:Source\azure_iot_sdk\uamqp\src/message_receiver.c ****             set_message_receiver_state(message_receiver, MESSAGE_RECEIVER_STATE_ERROR);
 236:Source\azure_iot_sdk\uamqp\src/message_receiver.c ****         }
 237:Source\azure_iot_sdk\uamqp\src/message_receiver.c ****         else
 238:Source\azure_iot_sdk\uamqp\src/message_receiver.c ****         {
 239:Source\azure_iot_sdk\uamqp\src/message_receiver.c ****             AMQPVALUE_DECODER_HANDLE amqpvalue_decoder = amqpvalue_decoder_create(decode_message_va
 240:Source\azure_iot_sdk\uamqp\src/message_receiver.c ****             if (amqpvalue_decoder == NULL)
 241:Source\azure_iot_sdk\uamqp\src/message_receiver.c ****             {
 242:Source\azure_iot_sdk\uamqp\src/message_receiver.c ****                 LogError("Cannot create AMQP value decoder");
 243:Source\azure_iot_sdk\uamqp\src/message_receiver.c ****                 set_message_receiver_state(message_receiver, MESSAGE_RECEIVER_STATE_ERROR);
 244:Source\azure_iot_sdk\uamqp\src/message_receiver.c ****             }
 245:Source\azure_iot_sdk\uamqp\src/message_receiver.c ****             else
 246:Source\azure_iot_sdk\uamqp\src/message_receiver.c ****             {
 247:Source\azure_iot_sdk\uamqp\src/message_receiver.c ****                 message_receiver->decoded_message = message;
 248:Source\azure_iot_sdk\uamqp\src/message_receiver.c ****                 message_receiver->decode_error = false;
 249:Source\azure_iot_sdk\uamqp\src/message_receiver.c ****                 if (amqpvalue_decode_bytes(amqpvalue_decoder, payload_bytes, payload_size) != 0)
 250:Source\azure_iot_sdk\uamqp\src/message_receiver.c ****                 {
 251:Source\azure_iot_sdk\uamqp\src/message_receiver.c ****                     LogError("Cannot decode bytes");
 252:Source\azure_iot_sdk\uamqp\src/message_receiver.c ****                     set_message_receiver_state(message_receiver, MESSAGE_RECEIVER_STATE_ERROR);
 253:Source\azure_iot_sdk\uamqp\src/message_receiver.c ****                 }
 254:Source\azure_iot_sdk\uamqp\src/message_receiver.c ****                 else
 255:Source\azure_iot_sdk\uamqp\src/message_receiver.c ****                 {
 256:Source\azure_iot_sdk\uamqp\src/message_receiver.c ****                     if (message_receiver->decode_error)
 257:Source\azure_iot_sdk\uamqp\src/message_receiver.c ****                     {
 258:Source\azure_iot_sdk\uamqp\src/message_receiver.c ****                         LogError("Error decoding message");
 259:Source\azure_iot_sdk\uamqp\src/message_receiver.c ****                         set_message_receiver_state(message_receiver, MESSAGE_RECEIVER_STATE_ERROR);
 260:Source\azure_iot_sdk\uamqp\src/message_receiver.c ****                     }
 261:Source\azure_iot_sdk\uamqp\src/message_receiver.c ****                     else
 262:Source\azure_iot_sdk\uamqp\src/message_receiver.c ****                     {
 263:Source\azure_iot_sdk\uamqp\src/message_receiver.c ****                         result = message_receiver->on_message_received(message_receiver->callback_c
 264:Source\azure_iot_sdk\uamqp\src/message_receiver.c ****                     }
 265:Source\azure_iot_sdk\uamqp\src/message_receiver.c ****                 }
 266:Source\azure_iot_sdk\uamqp\src/message_receiver.c **** 
 267:Source\azure_iot_sdk\uamqp\src/message_receiver.c ****                 amqpvalue_decoder_destroy(amqpvalue_decoder);
 268:Source\azure_iot_sdk\uamqp\src/message_receiver.c ****             }
 269:Source\azure_iot_sdk\uamqp\src/message_receiver.c **** 
 270:Source\azure_iot_sdk\uamqp\src/message_receiver.c ****             message_destroy(message);
 271:Source\azure_iot_sdk\uamqp\src/message_receiver.c ****         }
 272:Source\azure_iot_sdk\uamqp\src/message_receiver.c ****     }
 273:Source\azure_iot_sdk\uamqp\src/message_receiver.c **** 
 274:Source\azure_iot_sdk\uamqp\src/message_receiver.c ****     return result;
 275:Source\azure_iot_sdk\uamqp\src/message_receiver.c **** }
 276:Source\azure_iot_sdk\uamqp\src/message_receiver.c **** 
 277:Source\azure_iot_sdk\uamqp\src/message_receiver.c **** static void on_link_state_changed(void* context, LINK_STATE new_link_state, LINK_STATE previous_lin
 278:Source\azure_iot_sdk\uamqp\src/message_receiver.c **** {
  64              		.loc 1 278 0
ARM GAS  C:\Users\Phuong\AppData\Local\Temp\ccqGhR5Z.s 			page 7


  65              		.cfi_startproc
  66              		@ args = 0, pretend = 0, frame = 0
  67              		@ frame_needed = 0, uses_anonymous_args = 0
  68              	.LVL4:
  69 0000 10B5     		push	{r4, lr}
  70              		.cfi_def_cfa_offset 8
  71              		.cfi_offset 4, -8
  72              		.cfi_offset 14, -4
  73              	.LVL5:
 279:Source\azure_iot_sdk\uamqp\src/message_receiver.c ****     MESSAGE_RECEIVER_INSTANCE* message_receiver = (MESSAGE_RECEIVER_INSTANCE*)context;
 280:Source\azure_iot_sdk\uamqp\src/message_receiver.c ****     (void)previous_link_state;
 281:Source\azure_iot_sdk\uamqp\src/message_receiver.c **** 
 282:Source\azure_iot_sdk\uamqp\src/message_receiver.c ****     switch (new_link_state)
  74              		.loc 1 282 0
  75 0002 0329     		cmp	r1, #3
  76 0004 04D0     		beq	.L5
  77 0006 0429     		cmp	r1, #4
  78 0008 18D0     		beq	.L6
  79 000a 0029     		cmp	r1, #0
  80 000c 1CD1     		bne	.L3
  81 000e 06E0     		b	.L7
  82              	.L5:
 283:Source\azure_iot_sdk\uamqp\src/message_receiver.c ****     {
 284:Source\azure_iot_sdk\uamqp\src/message_receiver.c ****     default:
 285:Source\azure_iot_sdk\uamqp\src/message_receiver.c ****         break;
 286:Source\azure_iot_sdk\uamqp\src/message_receiver.c **** 
 287:Source\azure_iot_sdk\uamqp\src/message_receiver.c ****     case LINK_STATE_ATTACHED:
 288:Source\azure_iot_sdk\uamqp\src/message_receiver.c ****         if (message_receiver->message_receiver_state == MESSAGE_RECEIVER_STATE_OPENING)
  83              		.loc 1 288 0
  84 0010 037B     		ldrb	r3, [r0, #12]
  85 0012 012B     		cmp	r3, #1
  86 0014 18D1     		bne	.L3
 289:Source\azure_iot_sdk\uamqp\src/message_receiver.c ****         {
 290:Source\azure_iot_sdk\uamqp\src/message_receiver.c ****             set_message_receiver_state(message_receiver, MESSAGE_RECEIVER_STATE_OPEN);
  87              		.loc 1 290 0
  88 0016 0221     		movs	r1, #2
  89              	.LVL6:
  90 0018 FFF7FEFF 		bl	set_message_receiver_state
  91              	.LVL7:
  92 001c 14E0     		b	.L3
  93              	.LVL8:
  94              	.L7:
 291:Source\azure_iot_sdk\uamqp\src/message_receiver.c ****         }
 292:Source\azure_iot_sdk\uamqp\src/message_receiver.c ****         break;
 293:Source\azure_iot_sdk\uamqp\src/message_receiver.c ****     case LINK_STATE_DETACHED:
 294:Source\azure_iot_sdk\uamqp\src/message_receiver.c ****         if ((message_receiver->message_receiver_state == MESSAGE_RECEIVER_STATE_OPEN) ||
  95              		.loc 1 294 0
  96 001e 027B     		ldrb	r2, [r0, #12]
  97              	.LVL9:
  98 0020 931E     		subs	r3, r2, #2
  99 0022 DBB2     		uxtb	r3, r3
 100 0024 012B     		cmp	r3, #1
 101 0026 03D8     		bhi	.L8
 295:Source\azure_iot_sdk\uamqp\src/message_receiver.c ****             (message_receiver->message_receiver_state == MESSAGE_RECEIVER_STATE_CLOSING))
 296:Source\azure_iot_sdk\uamqp\src/message_receiver.c ****         {
 297:Source\azure_iot_sdk\uamqp\src/message_receiver.c ****             /* User initiated transition, we should be good */
 298:Source\azure_iot_sdk\uamqp\src/message_receiver.c ****             set_message_receiver_state(message_receiver, MESSAGE_RECEIVER_STATE_IDLE);
ARM GAS  C:\Users\Phuong\AppData\Local\Temp\ccqGhR5Z.s 			page 8


 102              		.loc 1 298 0
 103 0028 0021     		movs	r1, #0
 104              	.LVL10:
 105 002a FFF7FEFF 		bl	set_message_receiver_state
 106              	.LVL11:
 107 002e 0BE0     		b	.L3
 108              	.LVL12:
 109              	.L8:
 299:Source\azure_iot_sdk\uamqp\src/message_receiver.c ****         }
 300:Source\azure_iot_sdk\uamqp\src/message_receiver.c ****         else if (message_receiver->message_receiver_state != MESSAGE_RECEIVER_STATE_IDLE)
 110              		.loc 1 300 0
 111 0030 002A     		cmp	r2, #0
 112 0032 09D0     		beq	.L3
 301:Source\azure_iot_sdk\uamqp\src/message_receiver.c ****         {
 302:Source\azure_iot_sdk\uamqp\src/message_receiver.c ****             /* Any other transition must be an error */
 303:Source\azure_iot_sdk\uamqp\src/message_receiver.c ****             set_message_receiver_state(message_receiver, MESSAGE_RECEIVER_STATE_ERROR);
 113              		.loc 1 303 0
 114 0034 0421     		movs	r1, #4
 115              	.LVL13:
 116 0036 FFF7FEFF 		bl	set_message_receiver_state
 117              	.LVL14:
 118 003a 05E0     		b	.L3
 119              	.LVL15:
 120              	.L6:
 304:Source\azure_iot_sdk\uamqp\src/message_receiver.c ****         }
 305:Source\azure_iot_sdk\uamqp\src/message_receiver.c ****         break;
 306:Source\azure_iot_sdk\uamqp\src/message_receiver.c ****     case LINK_STATE_ERROR:
 307:Source\azure_iot_sdk\uamqp\src/message_receiver.c ****         if (message_receiver->message_receiver_state != MESSAGE_RECEIVER_STATE_ERROR)
 121              		.loc 1 307 0
 122 003c 037B     		ldrb	r3, [r0, #12]
 123 003e 042B     		cmp	r3, #4
 124 0040 02D0     		beq	.L3
 308:Source\azure_iot_sdk\uamqp\src/message_receiver.c ****         {
 309:Source\azure_iot_sdk\uamqp\src/message_receiver.c ****             set_message_receiver_state(message_receiver, MESSAGE_RECEIVER_STATE_ERROR);
 125              		.loc 1 309 0
 126 0042 0421     		movs	r1, #4
 127              	.LVL16:
 128 0044 FFF7FEFF 		bl	set_message_receiver_state
 129              	.LVL17:
 130              	.L3:
 310:Source\azure_iot_sdk\uamqp\src/message_receiver.c ****         }
 311:Source\azure_iot_sdk\uamqp\src/message_receiver.c ****         break;
 312:Source\azure_iot_sdk\uamqp\src/message_receiver.c ****     }
 313:Source\azure_iot_sdk\uamqp\src/message_receiver.c **** }
 131              		.loc 1 313 0
 132              		@ sp needed
 133 0048 10BD     		pop	{r4, pc}
 134              		.cfi_endproc
 135              	.LFE4:
 136              		.size	on_link_state_changed, .-on_link_state_changed
 137 004a C046     		.section	.text.on_transfer_received,"ax",%progbits
 138              		.align	2
 139              		.code	16
 140              		.thumb_func
 141              		.type	on_transfer_received, %function
 142              	on_transfer_received:
 143              	.LFB3:
ARM GAS  C:\Users\Phuong\AppData\Local\Temp\ccqGhR5Z.s 			page 9


 224:Source\azure_iot_sdk\uamqp\src/message_receiver.c ****     AMQP_VALUE result = NULL;
 144              		.loc 1 224 0
 145              		.cfi_startproc
 146              		@ args = 0, pretend = 0, frame = 8
 147              		@ frame_needed = 0, uses_anonymous_args = 0
 148              	.LVL18:
 149 0000 F0B5     		push	{r4, r5, r6, r7, lr}
 150              		.cfi_def_cfa_offset 20
 151              		.cfi_offset 4, -20
 152              		.cfi_offset 5, -16
 153              		.cfi_offset 6, -12
 154              		.cfi_offset 7, -8
 155              		.cfi_offset 14, -4
 156 0002 85B0     		sub	sp, sp, #20
 157              		.cfi_def_cfa_offset 40
 158 0004 0400     		movs	r4, r0
 159 0006 0392     		str	r2, [sp, #12]
 160 0008 1E00     		movs	r6, r3
 161              	.LVL19:
 229:Source\azure_iot_sdk\uamqp\src/message_receiver.c ****     {
 162              		.loc 1 229 0
 163 000a 4368     		ldr	r3, [r0, #4]
 164              	.LVL20:
 165 000c 002B     		cmp	r3, #0
 166 000e 6ED0     		beq	.L21
 167              	.LBB2:
 231:Source\azure_iot_sdk\uamqp\src/message_receiver.c ****         if (message == NULL)
 168              		.loc 1 231 0
 169 0010 FFF7FEFF 		bl	message_create
 170              	.LVL21:
 171 0014 071E     		subs	r7, r0, #0
 172              	.LVL22:
 232:Source\azure_iot_sdk\uamqp\src/message_receiver.c ****         {
 173              		.loc 1 232 0
 174 0016 12D1     		bne	.L11
 175              	.LBB3:
 234:Source\azure_iot_sdk\uamqp\src/message_receiver.c ****             set_message_receiver_state(message_receiver, MESSAGE_RECEIVER_STATE_ERROR);
 176              		.loc 1 234 0 discriminator 3
 177 0018 FFF7FEFF 		bl	xlogging_get_log_function
 178              	.LVL23:
 179 001c 051E     		subs	r5, r0, #0
 180              	.LVL24:
 181 001e 08D0     		beq	.L12
 234:Source\azure_iot_sdk\uamqp\src/message_receiver.c ****             set_message_receiver_state(message_receiver, MESSAGE_RECEIVER_STATE_ERROR);
 182              		.loc 1 234 0 is_stmt 0 discriminator 4
 183 0020 354B     		ldr	r3, .L22
 184 0022 0193     		str	r3, [sp, #4]
 185 0024 0123     		movs	r3, #1
 186 0026 0093     		str	r3, [sp]
 187 0028 E933     		adds	r3, r3, #233
 188 002a 344A     		ldr	r2, .L22+4
 189 002c 3449     		ldr	r1, .L22+8
 190 002e 0020     		movs	r0, #0
 191              	.LVL25:
 192 0030 A847     		blx	r5
 193              	.LVL26:
 194              	.L12:
ARM GAS  C:\Users\Phuong\AppData\Local\Temp\ccqGhR5Z.s 			page 10


 195              	.LBE3:
 235:Source\azure_iot_sdk\uamqp\src/message_receiver.c ****         }
 196              		.loc 1 235 0 is_stmt 1
 197 0032 0421     		movs	r1, #4
 198 0034 2000     		movs	r0, r4
 199 0036 FFF7FEFF 		bl	set_message_receiver_state
 200              	.LVL27:
 201              	.LBE2:
 225:Source\azure_iot_sdk\uamqp\src/message_receiver.c ****     MESSAGE_RECEIVER_INSTANCE* message_receiver = (MESSAGE_RECEIVER_INSTANCE*)context;
 202              		.loc 1 225 0
 203 003a 0024     		movs	r4, #0
 204              	.LVL28:
 205              	.LBB11:
 206 003c 58E0     		b	.L10
 207              	.LVL29:
 208              	.L11:
 209              	.LBB4:
 239:Source\azure_iot_sdk\uamqp\src/message_receiver.c ****             if (amqpvalue_decoder == NULL)
 210              		.loc 1 239 0
 211 003e 2100     		movs	r1, r4
 212 0040 3048     		ldr	r0, .L22+12
 213              	.LVL30:
 214 0042 FFF7FEFF 		bl	amqpvalue_decoder_create
 215              	.LVL31:
 216 0046 051E     		subs	r5, r0, #0
 217              	.LVL32:
 240:Source\azure_iot_sdk\uamqp\src/message_receiver.c ****             {
 218              		.loc 1 240 0
 219 0048 12D1     		bne	.L13
 220              	.LBB5:
 242:Source\azure_iot_sdk\uamqp\src/message_receiver.c ****                 set_message_receiver_state(message_receiver, MESSAGE_RECEIVER_STATE_ERROR);
 221              		.loc 1 242 0 discriminator 3
 222 004a FFF7FEFF 		bl	xlogging_get_log_function
 223              	.LVL33:
 224 004e 051E     		subs	r5, r0, #0
 225              	.LVL34:
 226 0050 08D0     		beq	.L14
 242:Source\azure_iot_sdk\uamqp\src/message_receiver.c ****                 set_message_receiver_state(message_receiver, MESSAGE_RECEIVER_STATE_ERROR);
 227              		.loc 1 242 0 is_stmt 0 discriminator 4
 228 0052 2D4B     		ldr	r3, .L22+16
 229 0054 0193     		str	r3, [sp, #4]
 230 0056 0123     		movs	r3, #1
 231 0058 0093     		str	r3, [sp]
 232 005a F133     		adds	r3, r3, #241
 233 005c 274A     		ldr	r2, .L22+4
 234 005e 2849     		ldr	r1, .L22+8
 235 0060 0020     		movs	r0, #0
 236              	.LVL35:
 237 0062 A847     		blx	r5
 238              	.LVL36:
 239              	.L14:
 240              	.LBE5:
 243:Source\azure_iot_sdk\uamqp\src/message_receiver.c ****             }
 241              		.loc 1 243 0 is_stmt 1
 242 0064 0421     		movs	r1, #4
 243 0066 2000     		movs	r0, r4
 244 0068 FFF7FEFF 		bl	set_message_receiver_state
ARM GAS  C:\Users\Phuong\AppData\Local\Temp\ccqGhR5Z.s 			page 11


 245              	.LVL37:
 246              	.LBE4:
 247              	.LBE11:
 225:Source\azure_iot_sdk\uamqp\src/message_receiver.c ****     MESSAGE_RECEIVER_INSTANCE* message_receiver = (MESSAGE_RECEIVER_INSTANCE*)context;
 248              		.loc 1 225 0
 249 006c 0024     		movs	r4, #0
 250              	.LVL38:
 251              	.LBB12:
 252              	.LBB8:
 253 006e 3AE0     		b	.L15
 254              	.LVL39:
 255              	.L13:
 247:Source\azure_iot_sdk\uamqp\src/message_receiver.c ****                 message_receiver->decode_error = false;
 256              		.loc 1 247 0
 257 0070 A761     		str	r7, [r4, #24]
 248:Source\azure_iot_sdk\uamqp\src/message_receiver.c ****                 if (amqpvalue_decode_bytes(amqpvalue_decoder, payload_bytes, payload_size) != 0)
 258              		.loc 1 248 0
 259 0072 0023     		movs	r3, #0
 260 0074 2377     		strb	r3, [r4, #28]
 249:Source\azure_iot_sdk\uamqp\src/message_receiver.c ****                 {
 261              		.loc 1 249 0
 262 0076 039A     		ldr	r2, [sp, #12]
 263 0078 3100     		movs	r1, r6
 264 007a FFF7FEFF 		bl	amqpvalue_decode_bytes
 265              	.LVL40:
 266 007e 0028     		cmp	r0, #0
 267 0080 12D0     		beq	.L16
 268              	.LBB6:
 251:Source\azure_iot_sdk\uamqp\src/message_receiver.c ****                     set_message_receiver_state(message_receiver, MESSAGE_RECEIVER_STATE_ERROR);
 269              		.loc 1 251 0 discriminator 3
 270 0082 FFF7FEFF 		bl	xlogging_get_log_function
 271              	.LVL41:
 272 0086 061E     		subs	r6, r0, #0
 273              	.LVL42:
 274 0088 08D0     		beq	.L17
 251:Source\azure_iot_sdk\uamqp\src/message_receiver.c ****                     set_message_receiver_state(message_receiver, MESSAGE_RECEIVER_STATE_ERROR);
 275              		.loc 1 251 0 is_stmt 0 discriminator 4
 276 008a 204B     		ldr	r3, .L22+20
 277 008c 0193     		str	r3, [sp, #4]
 278 008e 0123     		movs	r3, #1
 279 0090 0093     		str	r3, [sp]
 280 0092 FA33     		adds	r3, r3, #250
 281 0094 194A     		ldr	r2, .L22+4
 282 0096 1A49     		ldr	r1, .L22+8
 283 0098 0020     		movs	r0, #0
 284              	.LVL43:
 285 009a B047     		blx	r6
 286              	.LVL44:
 287              	.L17:
 288              	.LBE6:
 252:Source\azure_iot_sdk\uamqp\src/message_receiver.c ****                 }
 289              		.loc 1 252 0 is_stmt 1
 290 009c 0421     		movs	r1, #4
 291 009e 2000     		movs	r0, r4
 292 00a0 FFF7FEFF 		bl	set_message_receiver_state
 293              	.LVL45:
 294              	.LBE8:
ARM GAS  C:\Users\Phuong\AppData\Local\Temp\ccqGhR5Z.s 			page 12


 295              	.LBE12:
 225:Source\azure_iot_sdk\uamqp\src/message_receiver.c ****     MESSAGE_RECEIVER_INSTANCE* message_receiver = (MESSAGE_RECEIVER_INSTANCE*)context;
 296              		.loc 1 225 0
 297 00a4 0024     		movs	r4, #0
 298              	.LVL46:
 299              	.LBB13:
 300              	.LBB9:
 301 00a6 1BE0     		b	.L18
 302              	.LVL47:
 303              	.L16:
 256:Source\azure_iot_sdk\uamqp\src/message_receiver.c ****                     {
 304              		.loc 1 256 0
 305 00a8 237F     		ldrb	r3, [r4, #28]
 306 00aa 002B     		cmp	r3, #0
 307 00ac 13D0     		beq	.L19
 308              	.LBB7:
 258:Source\azure_iot_sdk\uamqp\src/message_receiver.c ****                         set_message_receiver_state(message_receiver, MESSAGE_RECEIVER_STATE_ERROR);
 309              		.loc 1 258 0 discriminator 3
 310 00ae FFF7FEFF 		bl	xlogging_get_log_function
 311              	.LVL48:
 312 00b2 061E     		subs	r6, r0, #0
 313              	.LVL49:
 314 00b4 09D0     		beq	.L20
 258:Source\azure_iot_sdk\uamqp\src/message_receiver.c ****                         set_message_receiver_state(message_receiver, MESSAGE_RECEIVER_STATE_ERROR);
 315              		.loc 1 258 0 is_stmt 0 discriminator 4
 316 00b6 164B     		ldr	r3, .L22+24
 317 00b8 0193     		str	r3, [sp, #4]
 318 00ba 0123     		movs	r3, #1
 319 00bc 0093     		str	r3, [sp]
 320 00be 0233     		adds	r3, r3, #2
 321 00c0 FF33     		adds	r3, r3, #255
 322 00c2 0E4A     		ldr	r2, .L22+4
 323 00c4 0E49     		ldr	r1, .L22+8
 324 00c6 0020     		movs	r0, #0
 325              	.LVL50:
 326 00c8 B047     		blx	r6
 327              	.LVL51:
 328              	.L20:
 329              	.LBE7:
 259:Source\azure_iot_sdk\uamqp\src/message_receiver.c ****                     }
 330              		.loc 1 259 0 is_stmt 1
 331 00ca 0421     		movs	r1, #4
 332 00cc 2000     		movs	r0, r4
 333 00ce FFF7FEFF 		bl	set_message_receiver_state
 334              	.LVL52:
 335              	.LBE9:
 336              	.LBE13:
 225:Source\azure_iot_sdk\uamqp\src/message_receiver.c ****     MESSAGE_RECEIVER_INSTANCE* message_receiver = (MESSAGE_RECEIVER_INSTANCE*)context;
 337              		.loc 1 225 0
 338 00d2 0024     		movs	r4, #0
 339              	.LVL53:
 340              	.LBB14:
 341              	.LBB10:
 342 00d4 04E0     		b	.L18
 343              	.LVL54:
 344              	.L19:
 263:Source\azure_iot_sdk\uamqp\src/message_receiver.c ****                     }
ARM GAS  C:\Users\Phuong\AppData\Local\Temp\ccqGhR5Z.s 			page 13


 345              		.loc 1 263 0
 346 00d6 6368     		ldr	r3, [r4, #4]
 347 00d8 6069     		ldr	r0, [r4, #20]
 348 00da 3900     		movs	r1, r7
 349 00dc 9847     		blx	r3
 350              	.LVL55:
 351 00de 0400     		movs	r4, r0
 352              	.LVL56:
 353              	.L18:
 267:Source\azure_iot_sdk\uamqp\src/message_receiver.c ****             }
 354              		.loc 1 267 0
 355 00e0 2800     		movs	r0, r5
 356 00e2 FFF7FEFF 		bl	amqpvalue_decoder_destroy
 357              	.LVL57:
 358              	.L15:
 270:Source\azure_iot_sdk\uamqp\src/message_receiver.c ****         }
 359              		.loc 1 270 0
 360 00e6 3800     		movs	r0, r7
 361 00e8 FFF7FEFF 		bl	message_destroy
 362              	.LVL58:
 363 00ec 00E0     		b	.L10
 364              	.LVL59:
 365              	.L21:
 366              	.LBE10:
 367              	.LBE14:
 225:Source\azure_iot_sdk\uamqp\src/message_receiver.c ****     MESSAGE_RECEIVER_INSTANCE* message_receiver = (MESSAGE_RECEIVER_INSTANCE*)context;
 368              		.loc 1 225 0
 369 00ee 0024     		movs	r4, #0
 370              	.LVL60:
 371              	.L10:
 275:Source\azure_iot_sdk\uamqp\src/message_receiver.c **** 
 372              		.loc 1 275 0
 373 00f0 2000     		movs	r0, r4
 374 00f2 05B0     		add	sp, sp, #20
 375              		@ sp needed
 376              	.LVL61:
 377 00f4 F0BD     		pop	{r4, r5, r6, r7, pc}
 378              	.L23:
 379 00f6 C046     		.align	2
 380              	.L22:
 381 00f8 34000000 		.word	.LC3
 382 00fc 00000000 		.word	.LANCHOR0
 383 0100 00000000 		.word	.LC1
 384 0104 00000000 		.word	decode_message_value_callback
 385 0108 4C000000 		.word	.LC6
 386 010c 70000000 		.word	.LC8
 387 0110 84000000 		.word	.LC10
 388              		.cfi_endproc
 389              	.LFE3:
 390              		.size	on_transfer_received, .-on_transfer_received
 391              		.section	.text.decode_message_value_callback,"ax",%progbits
 392              		.align	2
 393              		.code	16
 394              		.thumb_func
 395              		.type	decode_message_value_callback, %function
 396              	decode_message_value_callback:
 397              	.LFB2:
ARM GAS  C:\Users\Phuong\AppData\Local\Temp\ccqGhR5Z.s 			page 14


  38:Source\azure_iot_sdk\uamqp\src/message_receiver.c ****     MESSAGE_RECEIVER_INSTANCE* message_receiver = (MESSAGE_RECEIVER_INSTANCE*)context;
 398              		.loc 1 38 0
 399              		.cfi_startproc
 400              		@ args = 0, pretend = 0, frame = 24
 401              		@ frame_needed = 0, uses_anonymous_args = 0
 402              	.LVL62:
 403 0000 F0B5     		push	{r4, r5, r6, r7, lr}
 404              		.cfi_def_cfa_offset 20
 405              		.cfi_offset 4, -20
 406              		.cfi_offset 5, -16
 407              		.cfi_offset 6, -12
 408              		.cfi_offset 7, -8
 409              		.cfi_offset 14, -4
 410 0002 89B0     		sub	sp, sp, #36
 411              		.cfi_def_cfa_offset 56
 412 0004 0600     		movs	r6, r0
 413 0006 0D00     		movs	r5, r1
 414              	.LVL63:
  40:Source\azure_iot_sdk\uamqp\src/message_receiver.c ****     AMQP_VALUE descriptor = amqpvalue_get_inplace_descriptor(decoded_value);
 415              		.loc 1 40 0
 416 0008 8769     		ldr	r7, [r0, #24]
 417              	.LVL64:
  41:Source\azure_iot_sdk\uamqp\src/message_receiver.c **** 
 418              		.loc 1 41 0
 419 000a 0800     		movs	r0, r1
 420              	.LVL65:
 421 000c FFF7FEFF 		bl	amqpvalue_get_inplace_descriptor
 422              	.LVL66:
 423 0010 0400     		movs	r4, r0
 424              	.LVL67:
  43:Source\azure_iot_sdk\uamqp\src/message_receiver.c ****     {
 425              		.loc 1 43 0
 426 0012 FFF7FEFF 		bl	is_application_properties_type_by_descriptor
 427              	.LVL68:
 428 0016 0028     		cmp	r0, #0
 429 0018 17D0     		beq	.L25
  45:Source\azure_iot_sdk\uamqp\src/message_receiver.c ****         {
 430              		.loc 1 45 0
 431 001a 2900     		movs	r1, r5
 432 001c 3800     		movs	r0, r7
 433 001e FFF7FEFF 		bl	message_set_application_properties
 434              	.LVL69:
 435 0022 0028     		cmp	r0, #0
 436 0024 00D1     		bne	.LCB468
 437 0026 10E2     		b	.L24	@long jump
 438              	.LCB468:
 439              	.LBB15:
  47:Source\azure_iot_sdk\uamqp\src/message_receiver.c ****             message_receiver->decode_error = true;
 440              		.loc 1 47 0 discriminator 3
 441 0028 FFF7FEFF 		bl	xlogging_get_log_function
 442              	.LVL70:
 443 002c 041E     		subs	r4, r0, #0
 444              	.LVL71:
 445 002e 09D0     		beq	.L27
  47:Source\azure_iot_sdk\uamqp\src/message_receiver.c ****             message_receiver->decode_error = true;
 446              		.loc 1 47 0 is_stmt 0 discriminator 4
 447 0030 C64B     		ldr	r3, .L73
ARM GAS  C:\Users\Phuong\AppData\Local\Temp\ccqGhR5Z.s 			page 15


 448 0032 0193     		str	r3, [sp, #4]
 449 0034 0123     		movs	r3, #1
 450 0036 0093     		str	r3, [sp]
 451 0038 2E33     		adds	r3, r3, #46
 452 003a C54A     		ldr	r2, .L73+4
 453 003c 1832     		adds	r2, r2, #24
 454 003e C549     		ldr	r1, .L73+8
 455 0040 0020     		movs	r0, #0
 456              	.LVL72:
 457 0042 A047     		blx	r4
 458              	.LVL73:
 459              	.L27:
 460              	.LBE15:
  48:Source\azure_iot_sdk\uamqp\src/message_receiver.c ****         }
 461              		.loc 1 48 0 is_stmt 1
 462 0044 0123     		movs	r3, #1
 463 0046 3377     		strb	r3, [r6, #28]
 464 0048 FFE1     		b	.L24
 465              	.LVL74:
 466              	.L25:
  51:Source\azure_iot_sdk\uamqp\src/message_receiver.c ****     {
 467              		.loc 1 51 0
 468 004a 2000     		movs	r0, r4
 469 004c FFF7FEFF 		bl	is_properties_type_by_descriptor
 470              	.LVL75:
 471 0050 0028     		cmp	r0, #0
 472 0052 30D0     		beq	.L28
 473              	.LBB16:
  54:Source\azure_iot_sdk\uamqp\src/message_receiver.c ****         {
 474              		.loc 1 54 0
 475 0054 06A9     		add	r1, sp, #24
 476 0056 2800     		movs	r0, r5
 477 0058 FFF7FEFF 		bl	amqpvalue_get_properties
 478              	.LVL76:
 479 005c 0028     		cmp	r0, #0
 480 005e 10D0     		beq	.L29
 481              	.LBB17:
  56:Source\azure_iot_sdk\uamqp\src/message_receiver.c ****             message_receiver->decode_error = true;
 482              		.loc 1 56 0 discriminator 3
 483 0060 FFF7FEFF 		bl	xlogging_get_log_function
 484              	.LVL77:
 485 0064 041E     		subs	r4, r0, #0
 486              	.LVL78:
 487 0066 09D0     		beq	.L30
  56:Source\azure_iot_sdk\uamqp\src/message_receiver.c ****             message_receiver->decode_error = true;
 488              		.loc 1 56 0 is_stmt 0 discriminator 4
 489 0068 BB4B     		ldr	r3, .L73+12
 490 006a 0193     		str	r3, [sp, #4]
 491 006c 0123     		movs	r3, #1
 492 006e 0093     		str	r3, [sp]
 493 0070 3733     		adds	r3, r3, #55
 494 0072 B74A     		ldr	r2, .L73+4
 495 0074 1832     		adds	r2, r2, #24
 496 0076 B749     		ldr	r1, .L73+8
 497 0078 0020     		movs	r0, #0
 498              	.LVL79:
 499 007a A047     		blx	r4
ARM GAS  C:\Users\Phuong\AppData\Local\Temp\ccqGhR5Z.s 			page 16


 500              	.LVL80:
 501              	.L30:
 502              	.LBE17:
  57:Source\azure_iot_sdk\uamqp\src/message_receiver.c ****         }
 503              		.loc 1 57 0 is_stmt 1
 504 007c 0123     		movs	r3, #1
 505 007e 3377     		strb	r3, [r6, #28]
 506 0080 E3E1     		b	.L24
 507              	.LVL81:
 508              	.L29:
  61:Source\azure_iot_sdk\uamqp\src/message_receiver.c ****             {
 509              		.loc 1 61 0
 510 0082 0699     		ldr	r1, [sp, #24]
 511 0084 3800     		movs	r0, r7
 512 0086 FFF7FEFF 		bl	message_set_properties
 513              	.LVL82:
 514 008a 0028     		cmp	r0, #0
 515 008c 0FD0     		beq	.L32
 516              	.LBB18:
  63:Source\azure_iot_sdk\uamqp\src/message_receiver.c ****                 message_receiver->decode_error = true;
 517              		.loc 1 63 0 discriminator 3
 518 008e FFF7FEFF 		bl	xlogging_get_log_function
 519              	.LVL83:
 520 0092 041E     		subs	r4, r0, #0
 521              	.LVL84:
 522 0094 09D0     		beq	.L33
  63:Source\azure_iot_sdk\uamqp\src/message_receiver.c ****                 message_receiver->decode_error = true;
 523              		.loc 1 63 0 is_stmt 0 discriminator 4
 524 0096 B14B     		ldr	r3, .L73+16
 525 0098 0193     		str	r3, [sp, #4]
 526 009a 0123     		movs	r3, #1
 527 009c 0093     		str	r3, [sp]
 528 009e 3E33     		adds	r3, r3, #62
 529 00a0 AB4A     		ldr	r2, .L73+4
 530 00a2 1832     		adds	r2, r2, #24
 531 00a4 AB49     		ldr	r1, .L73+8
 532 00a6 0020     		movs	r0, #0
 533              	.LVL85:
 534 00a8 A047     		blx	r4
 535              	.LVL86:
 536              	.L33:
 537              	.LBE18:
  64:Source\azure_iot_sdk\uamqp\src/message_receiver.c ****             }
 538              		.loc 1 64 0 is_stmt 1
 539 00aa 0123     		movs	r3, #1
 540 00ac 3377     		strb	r3, [r6, #28]
 541              	.LVL87:
 542              	.L32:
  67:Source\azure_iot_sdk\uamqp\src/message_receiver.c ****         }
 543              		.loc 1 67 0
 544 00ae 0698     		ldr	r0, [sp, #24]
 545 00b0 FFF7FEFF 		bl	properties_destroy
 546              	.LVL88:
 547 00b4 C9E1     		b	.L24
 548              	.LVL89:
 549              	.L28:
 550              	.LBE16:
ARM GAS  C:\Users\Phuong\AppData\Local\Temp\ccqGhR5Z.s 			page 17


  70:Source\azure_iot_sdk\uamqp\src/message_receiver.c ****     {
 551              		.loc 1 70 0
 552 00b6 2000     		movs	r0, r4
 553 00b8 FFF7FEFF 		bl	is_delivery_annotations_type_by_descriptor
 554              	.LVL90:
 555 00bc 0028     		cmp	r0, #0
 556 00be 2DD0     		beq	.L34
 557              	.LBB19:
  72:Source\azure_iot_sdk\uamqp\src/message_receiver.c ****         if (delivery_annotations == NULL)
 558              		.loc 1 72 0
 559 00c0 2800     		movs	r0, r5
 560 00c2 FFF7FEFF 		bl	amqpvalue_get_inplace_described_value
 561              	.LVL91:
  73:Source\azure_iot_sdk\uamqp\src/message_receiver.c ****         {
 562              		.loc 1 73 0
 563 00c6 0028     		cmp	r0, #0
 564 00c8 10D1     		bne	.L35
 565              	.LBB20:
  75:Source\azure_iot_sdk\uamqp\src/message_receiver.c ****             message_receiver->decode_error = true;
 566              		.loc 1 75 0 discriminator 3
 567 00ca FFF7FEFF 		bl	xlogging_get_log_function
 568              	.LVL92:
 569 00ce 041E     		subs	r4, r0, #0
 570              	.LVL93:
 571 00d0 09D0     		beq	.L36
  75:Source\azure_iot_sdk\uamqp\src/message_receiver.c ****             message_receiver->decode_error = true;
 572              		.loc 1 75 0 is_stmt 0 discriminator 4
 573 00d2 A34B     		ldr	r3, .L73+20
 574 00d4 0193     		str	r3, [sp, #4]
 575 00d6 0123     		movs	r3, #1
 576 00d8 0093     		str	r3, [sp]
 577 00da 4A33     		adds	r3, r3, #74
 578 00dc 9C4A     		ldr	r2, .L73+4
 579 00de 1832     		adds	r2, r2, #24
 580 00e0 9C49     		ldr	r1, .L73+8
 581 00e2 0020     		movs	r0, #0
 582              	.LVL94:
 583 00e4 A047     		blx	r4
 584              	.LVL95:
 585              	.L36:
 586              	.LBE20:
  76:Source\azure_iot_sdk\uamqp\src/message_receiver.c ****         }
 587              		.loc 1 76 0 is_stmt 1
 588 00e6 0123     		movs	r3, #1
 589 00e8 3377     		strb	r3, [r6, #28]
 590 00ea AEE1     		b	.L24
 591              	.LVL96:
 592              	.L35:
  80:Source\azure_iot_sdk\uamqp\src/message_receiver.c ****             {
 593              		.loc 1 80 0
 594 00ec 0100     		movs	r1, r0
 595 00ee 3800     		movs	r0, r7
 596              	.LVL97:
 597 00f0 FFF7FEFF 		bl	message_set_delivery_annotations
 598              	.LVL98:
 599 00f4 0028     		cmp	r0, #0
 600 00f6 00D1     		bne	.LCB648
ARM GAS  C:\Users\Phuong\AppData\Local\Temp\ccqGhR5Z.s 			page 18


 601 00f8 A7E1     		b	.L24	@long jump
 602              	.LCB648:
 603              	.LBB21:
  82:Source\azure_iot_sdk\uamqp\src/message_receiver.c ****                 message_receiver->decode_error = true;
 604              		.loc 1 82 0 discriminator 3
 605 00fa FFF7FEFF 		bl	xlogging_get_log_function
 606              	.LVL99:
 607 00fe 041E     		subs	r4, r0, #0
 608              	.LVL100:
 609 0100 09D0     		beq	.L37
  82:Source\azure_iot_sdk\uamqp\src/message_receiver.c ****                 message_receiver->decode_error = true;
 610              		.loc 1 82 0 is_stmt 0 discriminator 4
 611 0102 984B     		ldr	r3, .L73+24
 612 0104 0193     		str	r3, [sp, #4]
 613 0106 0123     		movs	r3, #1
 614 0108 0093     		str	r3, [sp]
 615 010a 5133     		adds	r3, r3, #81
 616 010c 904A     		ldr	r2, .L73+4
 617 010e 1832     		adds	r2, r2, #24
 618 0110 9049     		ldr	r1, .L73+8
 619 0112 0020     		movs	r0, #0
 620              	.LVL101:
 621 0114 A047     		blx	r4
 622              	.LVL102:
 623              	.L37:
 624              	.LBE21:
  83:Source\azure_iot_sdk\uamqp\src/message_receiver.c ****             }
 625              		.loc 1 83 0 is_stmt 1
 626 0116 0123     		movs	r3, #1
 627 0118 3377     		strb	r3, [r6, #28]
 628 011a 96E1     		b	.L24
 629              	.LVL103:
 630              	.L34:
 631              	.LBE19:
  87:Source\azure_iot_sdk\uamqp\src/message_receiver.c ****     {
 632              		.loc 1 87 0
 633 011c 2000     		movs	r0, r4
 634 011e FFF7FEFF 		bl	is_message_annotations_type_by_descriptor
 635              	.LVL104:
 636 0122 0028     		cmp	r0, #0
 637 0124 2DD0     		beq	.L38
 638              	.LBB22:
  89:Source\azure_iot_sdk\uamqp\src/message_receiver.c ****         if (message_annotations == NULL)
 639              		.loc 1 89 0
 640 0126 2800     		movs	r0, r5
 641 0128 FFF7FEFF 		bl	amqpvalue_get_inplace_described_value
 642              	.LVL105:
  90:Source\azure_iot_sdk\uamqp\src/message_receiver.c ****         {
 643              		.loc 1 90 0
 644 012c 0028     		cmp	r0, #0
 645 012e 10D1     		bne	.L39
 646              	.LBB23:
  92:Source\azure_iot_sdk\uamqp\src/message_receiver.c ****             message_receiver->decode_error = true;
 647              		.loc 1 92 0 discriminator 3
 648 0130 FFF7FEFF 		bl	xlogging_get_log_function
 649              	.LVL106:
 650 0134 041E     		subs	r4, r0, #0
ARM GAS  C:\Users\Phuong\AppData\Local\Temp\ccqGhR5Z.s 			page 19


 651              	.LVL107:
 652 0136 09D0     		beq	.L40
  92:Source\azure_iot_sdk\uamqp\src/message_receiver.c ****             message_receiver->decode_error = true;
 653              		.loc 1 92 0 is_stmt 0 discriminator 4
 654 0138 8B4B     		ldr	r3, .L73+28
 655 013a 0193     		str	r3, [sp, #4]
 656 013c 0123     		movs	r3, #1
 657 013e 0093     		str	r3, [sp]
 658 0140 5B33     		adds	r3, r3, #91
 659 0142 834A     		ldr	r2, .L73+4
 660 0144 1832     		adds	r2, r2, #24
 661 0146 8349     		ldr	r1, .L73+8
 662 0148 0020     		movs	r0, #0
 663              	.LVL108:
 664 014a A047     		blx	r4
 665              	.LVL109:
 666              	.L40:
 667              	.LBE23:
  93:Source\azure_iot_sdk\uamqp\src/message_receiver.c ****         }
 668              		.loc 1 93 0 is_stmt 1
 669 014c 0123     		movs	r3, #1
 670 014e 3377     		strb	r3, [r6, #28]
 671 0150 7BE1     		b	.L24
 672              	.LVL110:
 673              	.L39:
  97:Source\azure_iot_sdk\uamqp\src/message_receiver.c ****             {
 674              		.loc 1 97 0
 675 0152 0100     		movs	r1, r0
 676 0154 3800     		movs	r0, r7
 677              	.LVL111:
 678 0156 FFF7FEFF 		bl	message_set_message_annotations
 679              	.LVL112:
 680 015a 0028     		cmp	r0, #0
 681 015c 00D1     		bne	.LCB740
 682 015e 74E1     		b	.L24	@long jump
 683              	.LCB740:
 684              	.LBB24:
  99:Source\azure_iot_sdk\uamqp\src/message_receiver.c ****                 message_receiver->decode_error = true;
 685              		.loc 1 99 0 discriminator 3
 686 0160 FFF7FEFF 		bl	xlogging_get_log_function
 687              	.LVL113:
 688 0164 041E     		subs	r4, r0, #0
 689              	.LVL114:
 690 0166 09D0     		beq	.L41
  99:Source\azure_iot_sdk\uamqp\src/message_receiver.c ****                 message_receiver->decode_error = true;
 691              		.loc 1 99 0 is_stmt 0 discriminator 4
 692 0168 804B     		ldr	r3, .L73+32
 693 016a 0193     		str	r3, [sp, #4]
 694 016c 0123     		movs	r3, #1
 695 016e 0093     		str	r3, [sp]
 696 0170 6233     		adds	r3, r3, #98
 697 0172 774A     		ldr	r2, .L73+4
 698 0174 1832     		adds	r2, r2, #24
 699 0176 7749     		ldr	r1, .L73+8
 700 0178 0020     		movs	r0, #0
 701              	.LVL115:
 702 017a A047     		blx	r4
ARM GAS  C:\Users\Phuong\AppData\Local\Temp\ccqGhR5Z.s 			page 20


 703              	.LVL116:
 704              	.L41:
 705              	.LBE24:
 100:Source\azure_iot_sdk\uamqp\src/message_receiver.c ****             }
 706              		.loc 1 100 0 is_stmt 1
 707 017c 0123     		movs	r3, #1
 708 017e 3377     		strb	r3, [r6, #28]
 709 0180 63E1     		b	.L24
 710              	.LVL117:
 711              	.L38:
 712              	.LBE22:
 104:Source\azure_iot_sdk\uamqp\src/message_receiver.c ****     {
 713              		.loc 1 104 0
 714 0182 2000     		movs	r0, r4
 715 0184 FFF7FEFF 		bl	is_header_type_by_descriptor
 716              	.LVL118:
 717 0188 0028     		cmp	r0, #0
 718 018a 30D0     		beq	.L42
 719              	.LBB25:
 107:Source\azure_iot_sdk\uamqp\src/message_receiver.c ****         {
 720              		.loc 1 107 0
 721 018c 06A9     		add	r1, sp, #24
 722 018e 2800     		movs	r0, r5
 723 0190 FFF7FEFF 		bl	amqpvalue_get_header
 724              	.LVL119:
 725 0194 0028     		cmp	r0, #0
 726 0196 10D0     		beq	.L43
 727              	.LBB26:
 109:Source\azure_iot_sdk\uamqp\src/message_receiver.c ****             message_receiver->decode_error = true;
 728              		.loc 1 109 0 discriminator 3
 729 0198 FFF7FEFF 		bl	xlogging_get_log_function
 730              	.LVL120:
 731 019c 041E     		subs	r4, r0, #0
 732              	.LVL121:
 733 019e 09D0     		beq	.L44
 109:Source\azure_iot_sdk\uamqp\src/message_receiver.c ****             message_receiver->decode_error = true;
 734              		.loc 1 109 0 is_stmt 0 discriminator 4
 735 01a0 734B     		ldr	r3, .L73+36
 736 01a2 0193     		str	r3, [sp, #4]
 737 01a4 0123     		movs	r3, #1
 738 01a6 0093     		str	r3, [sp]
 739 01a8 6C33     		adds	r3, r3, #108
 740 01aa 694A     		ldr	r2, .L73+4
 741 01ac 1832     		adds	r2, r2, #24
 742 01ae 6949     		ldr	r1, .L73+8
 743 01b0 0020     		movs	r0, #0
 744              	.LVL122:
 745 01b2 A047     		blx	r4
 746              	.LVL123:
 747              	.L44:
 748              	.LBE26:
 110:Source\azure_iot_sdk\uamqp\src/message_receiver.c ****         }
 749              		.loc 1 110 0 is_stmt 1
 750 01b4 0123     		movs	r3, #1
 751 01b6 3377     		strb	r3, [r6, #28]
 752 01b8 47E1     		b	.L24
 753              	.LVL124:
ARM GAS  C:\Users\Phuong\AppData\Local\Temp\ccqGhR5Z.s 			page 21


 754              	.L43:
 114:Source\azure_iot_sdk\uamqp\src/message_receiver.c ****             {
 755              		.loc 1 114 0
 756 01ba 0699     		ldr	r1, [sp, #24]
 757 01bc 3800     		movs	r0, r7
 758 01be FFF7FEFF 		bl	message_set_header
 759              	.LVL125:
 760 01c2 0028     		cmp	r0, #0
 761 01c4 0FD0     		beq	.L46
 762              	.LBB27:
 116:Source\azure_iot_sdk\uamqp\src/message_receiver.c ****                 message_receiver->decode_error = true;
 763              		.loc 1 116 0 discriminator 3
 764 01c6 FFF7FEFF 		bl	xlogging_get_log_function
 765              	.LVL126:
 766 01ca 041E     		subs	r4, r0, #0
 767              	.LVL127:
 768 01cc 09D0     		beq	.L47
 116:Source\azure_iot_sdk\uamqp\src/message_receiver.c ****                 message_receiver->decode_error = true;
 769              		.loc 1 116 0 is_stmt 0 discriminator 4
 770 01ce 694B     		ldr	r3, .L73+40
 771 01d0 0193     		str	r3, [sp, #4]
 772 01d2 0123     		movs	r3, #1
 773 01d4 0093     		str	r3, [sp]
 774 01d6 7333     		adds	r3, r3, #115
 775 01d8 5D4A     		ldr	r2, .L73+4
 776 01da 1832     		adds	r2, r2, #24
 777 01dc 5D49     		ldr	r1, .L73+8
 778 01de 0020     		movs	r0, #0
 779              	.LVL128:
 780 01e0 A047     		blx	r4
 781              	.LVL129:
 782              	.L47:
 783              	.LBE27:
 117:Source\azure_iot_sdk\uamqp\src/message_receiver.c ****             }
 784              		.loc 1 117 0 is_stmt 1
 785 01e2 0123     		movs	r3, #1
 786 01e4 3377     		strb	r3, [r6, #28]
 787              	.LVL130:
 788              	.L46:
 120:Source\azure_iot_sdk\uamqp\src/message_receiver.c ****         }
 789              		.loc 1 120 0
 790 01e6 0698     		ldr	r0, [sp, #24]
 791 01e8 FFF7FEFF 		bl	header_destroy
 792              	.LVL131:
 793 01ec 2DE1     		b	.L24
 794              	.LVL132:
 795              	.L42:
 796              	.LBE25:
 123:Source\azure_iot_sdk\uamqp\src/message_receiver.c ****     {
 797              		.loc 1 123 0
 798 01ee 2000     		movs	r0, r4
 799 01f0 FFF7FEFF 		bl	is_footer_type_by_descriptor
 800              	.LVL133:
 801 01f4 0028     		cmp	r0, #0
 802 01f6 2DD0     		beq	.L48
 803              	.LBB28:
 125:Source\azure_iot_sdk\uamqp\src/message_receiver.c ****         if (footer == NULL)
ARM GAS  C:\Users\Phuong\AppData\Local\Temp\ccqGhR5Z.s 			page 22


 804              		.loc 1 125 0
 805 01f8 2800     		movs	r0, r5
 806 01fa FFF7FEFF 		bl	amqpvalue_get_inplace_described_value
 807              	.LVL134:
 126:Source\azure_iot_sdk\uamqp\src/message_receiver.c ****         {
 808              		.loc 1 126 0
 809 01fe 0028     		cmp	r0, #0
 810 0200 10D1     		bne	.L49
 811              	.LBB29:
 128:Source\azure_iot_sdk\uamqp\src/message_receiver.c ****             message_receiver->decode_error = true;
 812              		.loc 1 128 0 discriminator 3
 813 0202 FFF7FEFF 		bl	xlogging_get_log_function
 814              	.LVL135:
 815 0206 041E     		subs	r4, r0, #0
 816              	.LVL136:
 817 0208 09D0     		beq	.L50
 128:Source\azure_iot_sdk\uamqp\src/message_receiver.c ****             message_receiver->decode_error = true;
 818              		.loc 1 128 0 is_stmt 0 discriminator 4
 819 020a 5B4B     		ldr	r3, .L73+44
 820 020c 0193     		str	r3, [sp, #4]
 821 020e 0123     		movs	r3, #1
 822 0210 0093     		str	r3, [sp]
 823 0212 7F33     		adds	r3, r3, #127
 824 0214 4E4A     		ldr	r2, .L73+4
 825 0216 1832     		adds	r2, r2, #24
 826 0218 4E49     		ldr	r1, .L73+8
 827 021a 0020     		movs	r0, #0
 828              	.LVL137:
 829 021c A047     		blx	r4
 830              	.LVL138:
 831              	.L50:
 832              	.LBE29:
 129:Source\azure_iot_sdk\uamqp\src/message_receiver.c ****         }
 833              		.loc 1 129 0 is_stmt 1
 834 021e 0123     		movs	r3, #1
 835 0220 3377     		strb	r3, [r6, #28]
 836 0222 12E1     		b	.L24
 837              	.LVL139:
 838              	.L49:
 133:Source\azure_iot_sdk\uamqp\src/message_receiver.c ****             {
 839              		.loc 1 133 0
 840 0224 0100     		movs	r1, r0
 841 0226 3800     		movs	r0, r7
 842              	.LVL140:
 843 0228 FFF7FEFF 		bl	message_set_footer
 844              	.LVL141:
 845 022c 0028     		cmp	r0, #0
 846 022e 00D1     		bne	.LCB924
 847 0230 0BE1     		b	.L24	@long jump
 848              	.LCB924:
 849              	.LBB30:
 135:Source\azure_iot_sdk\uamqp\src/message_receiver.c ****                 message_receiver->decode_error = true;
 850              		.loc 1 135 0 discriminator 3
 851 0232 FFF7FEFF 		bl	xlogging_get_log_function
 852              	.LVL142:
 853 0236 041E     		subs	r4, r0, #0
 854              	.LVL143:
ARM GAS  C:\Users\Phuong\AppData\Local\Temp\ccqGhR5Z.s 			page 23


 855 0238 09D0     		beq	.L51
 135:Source\azure_iot_sdk\uamqp\src/message_receiver.c ****                 message_receiver->decode_error = true;
 856              		.loc 1 135 0 is_stmt 0 discriminator 4
 857 023a 504B     		ldr	r3, .L73+48
 858 023c 0193     		str	r3, [sp, #4]
 859 023e 0123     		movs	r3, #1
 860 0240 0093     		str	r3, [sp]
 861 0242 8633     		adds	r3, r3, #134
 862 0244 424A     		ldr	r2, .L73+4
 863 0246 1832     		adds	r2, r2, #24
 864 0248 4249     		ldr	r1, .L73+8
 865 024a 0020     		movs	r0, #0
 866              	.LVL144:
 867 024c A047     		blx	r4
 868              	.LVL145:
 869              	.L51:
 870              	.LBE30:
 136:Source\azure_iot_sdk\uamqp\src/message_receiver.c ****             }
 871              		.loc 1 136 0 is_stmt 1
 872 024e 0123     		movs	r3, #1
 873 0250 3377     		strb	r3, [r6, #28]
 874 0252 FAE0     		b	.L24
 875              	.LVL146:
 876              	.L48:
 877              	.LBE28:
 140:Source\azure_iot_sdk\uamqp\src/message_receiver.c ****     {
 878              		.loc 1 140 0
 879 0254 2000     		movs	r0, r4
 880 0256 FFF7FEFF 		bl	is_amqp_value_type_by_descriptor
 881              	.LVL147:
 882 025a 0028     		cmp	r0, #0
 883 025c 58D0     		beq	.L52
 884              	.LBB31:
 143:Source\azure_iot_sdk\uamqp\src/message_receiver.c ****         {
 885              		.loc 1 143 0
 886 025e 06A9     		add	r1, sp, #24
 887 0260 3800     		movs	r0, r7
 888 0262 FFF7FEFF 		bl	message_get_body_type
 889              	.LVL148:
 890 0266 0028     		cmp	r0, #0
 891 0268 10D0     		beq	.L53
 892              	.LBB32:
 145:Source\azure_iot_sdk\uamqp\src/message_receiver.c ****             message_receiver->decode_error = true;
 893              		.loc 1 145 0 discriminator 3
 894 026a FFF7FEFF 		bl	xlogging_get_log_function
 895              	.LVL149:
 896 026e 041E     		subs	r4, r0, #0
 897              	.LVL150:
 898 0270 09D0     		beq	.L54
 145:Source\azure_iot_sdk\uamqp\src/message_receiver.c ****             message_receiver->decode_error = true;
 899              		.loc 1 145 0 is_stmt 0 discriminator 4
 900 0272 434B     		ldr	r3, .L73+52
 901 0274 0193     		str	r3, [sp, #4]
 902 0276 0123     		movs	r3, #1
 903 0278 0093     		str	r3, [sp]
 904 027a 9033     		adds	r3, r3, #144
 905 027c 344A     		ldr	r2, .L73+4
ARM GAS  C:\Users\Phuong\AppData\Local\Temp\ccqGhR5Z.s 			page 24


 906 027e 1832     		adds	r2, r2, #24
 907 0280 3449     		ldr	r1, .L73+8
 908 0282 0020     		movs	r0, #0
 909              	.LVL151:
 910 0284 A047     		blx	r4
 911              	.LVL152:
 912              	.L54:
 913              	.LBE32:
 146:Source\azure_iot_sdk\uamqp\src/message_receiver.c ****         }
 914              		.loc 1 146 0 is_stmt 1
 915 0286 0123     		movs	r3, #1
 916 0288 3377     		strb	r3, [r6, #28]
 917 028a DEE0     		b	.L24
 918              	.LVL153:
 919              	.L53:
 150:Source\azure_iot_sdk\uamqp\src/message_receiver.c ****             {
 920              		.loc 1 150 0
 921 028c 06AB     		add	r3, sp, #24
 922 028e 1B78     		ldrb	r3, [r3]
 923 0290 002B     		cmp	r3, #0
 924 0292 10D0     		beq	.L56
 925              	.LBB33:
 152:Source\azure_iot_sdk\uamqp\src/message_receiver.c ****                 message_receiver->decode_error = true;
 926              		.loc 1 152 0 discriminator 3
 927 0294 FFF7FEFF 		bl	xlogging_get_log_function
 928              	.LVL154:
 929 0298 041E     		subs	r4, r0, #0
 930              	.LVL155:
 931 029a 09D0     		beq	.L57
 152:Source\azure_iot_sdk\uamqp\src/message_receiver.c ****                 message_receiver->decode_error = true;
 932              		.loc 1 152 0 is_stmt 0 discriminator 4
 933 029c 394B     		ldr	r3, .L73+56
 934 029e 0193     		str	r3, [sp, #4]
 935 02a0 0123     		movs	r3, #1
 936 02a2 0093     		str	r3, [sp]
 937 02a4 9733     		adds	r3, r3, #151
 938 02a6 2A4A     		ldr	r2, .L73+4
 939 02a8 1832     		adds	r2, r2, #24
 940 02aa 2A49     		ldr	r1, .L73+8
 941 02ac 0020     		movs	r0, #0
 942              	.LVL156:
 943 02ae A047     		blx	r4
 944              	.LVL157:
 945              	.L57:
 946              	.LBE33:
 153:Source\azure_iot_sdk\uamqp\src/message_receiver.c ****             }
 947              		.loc 1 153 0 is_stmt 1
 948 02b0 0123     		movs	r3, #1
 949 02b2 3377     		strb	r3, [r6, #28]
 950 02b4 C9E0     		b	.L24
 951              	.LVL158:
 952              	.L56:
 953              	.LBB34:
 157:Source\azure_iot_sdk\uamqp\src/message_receiver.c ****                 if (body_amqp_value == NULL)
 954              		.loc 1 157 0
 955 02b6 2800     		movs	r0, r5
 956 02b8 FFF7FEFF 		bl	amqpvalue_get_inplace_described_value
ARM GAS  C:\Users\Phuong\AppData\Local\Temp\ccqGhR5Z.s 			page 25


 957              	.LVL159:
 958 02bc 011E     		subs	r1, r0, #0
 959              	.LVL160:
 158:Source\azure_iot_sdk\uamqp\src/message_receiver.c ****                 {
 960              		.loc 1 158 0
 961 02be 10D1     		bne	.L58
 962              	.LBB35:
 160:Source\azure_iot_sdk\uamqp\src/message_receiver.c ****                     message_receiver->decode_error = true;
 963              		.loc 1 160 0 discriminator 3
 964 02c0 FFF7FEFF 		bl	xlogging_get_log_function
 965              	.LVL161:
 966 02c4 041E     		subs	r4, r0, #0
 967              	.LVL162:
 968 02c6 09D0     		beq	.L59
 160:Source\azure_iot_sdk\uamqp\src/message_receiver.c ****                     message_receiver->decode_error = true;
 969              		.loc 1 160 0 is_stmt 0 discriminator 4
 970 02c8 2F4B     		ldr	r3, .L73+60
 971 02ca 0193     		str	r3, [sp, #4]
 972 02cc 0123     		movs	r3, #1
 973 02ce 0093     		str	r3, [sp]
 974 02d0 9F33     		adds	r3, r3, #159
 975 02d2 1F4A     		ldr	r2, .L73+4
 976 02d4 1832     		adds	r2, r2, #24
 977 02d6 1F49     		ldr	r1, .L73+8
 978 02d8 0020     		movs	r0, #0
 979              	.LVL163:
 980 02da A047     		blx	r4
 981              	.LVL164:
 982              	.L59:
 983              	.LBE35:
 161:Source\azure_iot_sdk\uamqp\src/message_receiver.c ****                 }
 984              		.loc 1 161 0 is_stmt 1
 985 02dc 0123     		movs	r3, #1
 986 02de 3377     		strb	r3, [r6, #28]
 987 02e0 B3E0     		b	.L24
 988              	.LVL165:
 989              	.L58:
 165:Source\azure_iot_sdk\uamqp\src/message_receiver.c ****                     {
 990              		.loc 1 165 0
 991 02e2 3800     		movs	r0, r7
 992              	.LVL166:
 993 02e4 FFF7FEFF 		bl	message_set_body_amqp_value
 994              	.LVL167:
 995 02e8 0028     		cmp	r0, #0
 996 02ea 00D1     		bne	.LCB1093
 997 02ec ADE0     		b	.L24	@long jump
 998              	.LCB1093:
 999              	.LBB36:
 167:Source\azure_iot_sdk\uamqp\src/message_receiver.c ****                         message_receiver->decode_error = true;
 1000              		.loc 1 167 0 discriminator 3
 1001 02ee FFF7FEFF 		bl	xlogging_get_log_function
 1002              	.LVL168:
 1003 02f2 041E     		subs	r4, r0, #0
 1004              	.LVL169:
 1005 02f4 09D0     		beq	.L60
 167:Source\azure_iot_sdk\uamqp\src/message_receiver.c ****                         message_receiver->decode_error = true;
 1006              		.loc 1 167 0 is_stmt 0 discriminator 4
ARM GAS  C:\Users\Phuong\AppData\Local\Temp\ccqGhR5Z.s 			page 26


 1007 02f6 254B     		ldr	r3, .L73+64
 1008 02f8 0193     		str	r3, [sp, #4]
 1009 02fa 0123     		movs	r3, #1
 1010 02fc 0093     		str	r3, [sp]
 1011 02fe A633     		adds	r3, r3, #166
 1012 0300 134A     		ldr	r2, .L73+4
 1013 0302 1832     		adds	r2, r2, #24
 1014 0304 1349     		ldr	r1, .L73+8
 1015 0306 0020     		movs	r0, #0
 1016              	.LVL170:
 1017 0308 A047     		blx	r4
 1018              	.LVL171:
 1019              	.L60:
 1020              	.LBE36:
 168:Source\azure_iot_sdk\uamqp\src/message_receiver.c ****                     }
 1021              		.loc 1 168 0 is_stmt 1
 1022 030a 0123     		movs	r3, #1
 1023 030c 3377     		strb	r3, [r6, #28]
 1024 030e 9CE0     		b	.L24
 1025              	.LVL172:
 1026              	.L52:
 1027              	.LBE34:
 1028              	.LBE31:
 174:Source\azure_iot_sdk\uamqp\src/message_receiver.c ****     {
 1029              		.loc 1 174 0
 1030 0310 2000     		movs	r0, r4
 1031 0312 FFF7FEFF 		bl	is_data_type_by_descriptor
 1032              	.LVL173:
 1033 0316 0028     		cmp	r0, #0
 1034 0318 00D1     		bne	.LCB1136
 1035 031a 96E0     		b	.L24	@long jump
 1036              	.LCB1136:
 1037              	.LBB37:
 177:Source\azure_iot_sdk\uamqp\src/message_receiver.c ****         {
 1038              		.loc 1 177 0
 1039 031c 0F21     		movs	r1, #15
 1040 031e 6944     		add	r1, r1, sp
 1041 0320 3800     		movs	r0, r7
 1042 0322 FFF7FEFF 		bl	message_get_body_type
 1043              	.LVL174:
 1044 0326 0028     		cmp	r0, #0
 1045 0328 32D0     		beq	.L61
 1046              	.LBB38:
 179:Source\azure_iot_sdk\uamqp\src/message_receiver.c ****             message_receiver->decode_error = true;
 1047              		.loc 1 179 0 discriminator 3
 1048 032a FFF7FEFF 		bl	xlogging_get_log_function
 1049              	.LVL175:
 1050 032e 041E     		subs	r4, r0, #0
 1051              	.LVL176:
 1052 0330 09D0     		beq	.L62
 179:Source\azure_iot_sdk\uamqp\src/message_receiver.c ****             message_receiver->decode_error = true;
 1053              		.loc 1 179 0 is_stmt 0 discriminator 4
 1054 0332 134B     		ldr	r3, .L73+52
 1055 0334 0193     		str	r3, [sp, #4]
 1056 0336 0123     		movs	r3, #1
 1057 0338 0093     		str	r3, [sp]
 1058 033a B233     		adds	r3, r3, #178
ARM GAS  C:\Users\Phuong\AppData\Local\Temp\ccqGhR5Z.s 			page 27


 1059 033c 044A     		ldr	r2, .L73+4
 1060 033e 1832     		adds	r2, r2, #24
 1061 0340 0449     		ldr	r1, .L73+8
 1062 0342 0020     		movs	r0, #0
 1063              	.LVL177:
 1064 0344 A047     		blx	r4
 1065              	.LVL178:
 1066              	.L62:
 1067              	.LBE38:
 180:Source\azure_iot_sdk\uamqp\src/message_receiver.c ****         }
 1068              		.loc 1 180 0 is_stmt 1
 1069 0346 0123     		movs	r3, #1
 1070 0348 3377     		strb	r3, [r6, #28]
 1071 034a 7EE0     		b	.L24
 1072              	.L74:
 1073              		.align	2
 1074              	.L73:
 1075 034c 9C000000 		.word	.LC14
 1076 0350 00000000 		.word	.LANCHOR0
 1077 0354 00000000 		.word	.LC1
 1078 0358 D8000000 		.word	.LC16
 1079 035c FC000000 		.word	.LC18
 1080 0360 34010000 		.word	.LC20
 1081 0364 58010000 		.word	.LC22
 1082 0368 90010000 		.word	.LC24
 1083 036c B4010000 		.word	.LC26
 1084 0370 EC010000 		.word	.LC28
 1085 0374 0C020000 		.word	.LC30
 1086 0378 40020000 		.word	.LC32
 1087 037c 60020000 		.word	.LC34
 1088 0380 94020000 		.word	.LC36
 1089 0384 B4020000 		.word	.LC38
 1090 0388 DC020000 		.word	.LC40
 1091 038c FC020000 		.word	.LC42
 1092              	.LVL179:
 1093              	.L61:
 184:Source\azure_iot_sdk\uamqp\src/message_receiver.c ****                 (body_type != MESSAGE_BODY_TYPE_DATA))
 1094              		.loc 1 184 0
 1095 0390 0F23     		movs	r3, #15
 1096 0392 6B44     		add	r3, r3, sp
 1097 0394 1B78     		ldrb	r3, [r3]
 1098 0396 012B     		cmp	r3, #1
 1099 0398 10D9     		bls	.L64
 1100              	.LBB39:
 187:Source\azure_iot_sdk\uamqp\src/message_receiver.c ****                 message_receiver->decode_error = true;
 1101              		.loc 1 187 0 discriminator 3
 1102 039a FFF7FEFF 		bl	xlogging_get_log_function
 1103              	.LVL180:
 1104 039e 041E     		subs	r4, r0, #0
 1105              	.LVL181:
 1106 03a0 09D0     		beq	.L65
 187:Source\azure_iot_sdk\uamqp\src/message_receiver.c ****                 message_receiver->decode_error = true;
 1107              		.loc 1 187 0 is_stmt 0 discriminator 4
 1108 03a2 2B4B     		ldr	r3, .L75
 1109 03a4 0193     		str	r3, [sp, #4]
 1110 03a6 0123     		movs	r3, #1
 1111 03a8 0093     		str	r3, [sp]
ARM GAS  C:\Users\Phuong\AppData\Local\Temp\ccqGhR5Z.s 			page 28


 1112 03aa BA33     		adds	r3, r3, #186
 1113 03ac 294A     		ldr	r2, .L75+4
 1114 03ae 1832     		adds	r2, r2, #24
 1115 03b0 2949     		ldr	r1, .L75+8
 1116 03b2 0020     		movs	r0, #0
 1117              	.LVL182:
 1118 03b4 A047     		blx	r4
 1119              	.LVL183:
 1120              	.L65:
 1121              	.LBE39:
 188:Source\azure_iot_sdk\uamqp\src/message_receiver.c ****             }
 1122              		.loc 1 188 0 is_stmt 1
 1123 03b6 0123     		movs	r3, #1
 1124 03b8 3377     		strb	r3, [r6, #28]
 1125 03ba 46E0     		b	.L24
 1126              	.LVL184:
 1127              	.L64:
 1128              	.LBB40:
 192:Source\azure_iot_sdk\uamqp\src/message_receiver.c ****                 if (body_data_value == NULL)
 1129              		.loc 1 192 0
 1130 03bc 2800     		movs	r0, r5
 1131 03be FFF7FEFF 		bl	amqpvalue_get_inplace_described_value
 1132              	.LVL185:
 193:Source\azure_iot_sdk\uamqp\src/message_receiver.c ****                 {
 1133              		.loc 1 193 0
 1134 03c2 0028     		cmp	r0, #0
 1135 03c4 10D1     		bne	.L66
 1136              	.LBB41:
 195:Source\azure_iot_sdk\uamqp\src/message_receiver.c ****                     message_receiver->decode_error = true;
 1137              		.loc 1 195 0 discriminator 3
 1138 03c6 FFF7FEFF 		bl	xlogging_get_log_function
 1139              	.LVL186:
 1140 03ca 041E     		subs	r4, r0, #0
 1141              	.LVL187:
 1142 03cc 09D0     		beq	.L67
 195:Source\azure_iot_sdk\uamqp\src/message_receiver.c ****                     message_receiver->decode_error = true;
 1143              		.loc 1 195 0 is_stmt 0 discriminator 4
 1144 03ce 234B     		ldr	r3, .L75+12
 1145 03d0 0193     		str	r3, [sp, #4]
 1146 03d2 0123     		movs	r3, #1
 1147 03d4 0093     		str	r3, [sp]
 1148 03d6 C233     		adds	r3, r3, #194
 1149 03d8 1E4A     		ldr	r2, .L75+4
 1150 03da 1832     		adds	r2, r2, #24
 1151 03dc 1E49     		ldr	r1, .L75+8
 1152 03de 0020     		movs	r0, #0
 1153              	.LVL188:
 1154 03e0 A047     		blx	r4
 1155              	.LVL189:
 1156              	.L67:
 1157              	.LBE41:
 196:Source\azure_iot_sdk\uamqp\src/message_receiver.c ****                 }
 1158              		.loc 1 196 0 is_stmt 1
 1159 03e2 0123     		movs	r3, #1
 1160 03e4 3377     		strb	r3, [r6, #28]
 1161 03e6 30E0     		b	.L24
 1162              	.LVL190:
ARM GAS  C:\Users\Phuong\AppData\Local\Temp\ccqGhR5Z.s 			page 29


 1163              	.L66:
 1164              	.LBB42:
 201:Source\azure_iot_sdk\uamqp\src/message_receiver.c ****                     {
 1165              		.loc 1 201 0
 1166 03e8 04A9     		add	r1, sp, #16
 1167 03ea FFF7FEFF 		bl	amqpvalue_get_binary
 1168              	.LVL191:
 1169 03ee 0028     		cmp	r0, #0
 1170 03f0 10D0     		beq	.L68
 1171              	.LBB43:
 203:Source\azure_iot_sdk\uamqp\src/message_receiver.c ****                         message_receiver->decode_error = true;
 1172              		.loc 1 203 0 discriminator 3
 1173 03f2 FFF7FEFF 		bl	xlogging_get_log_function
 1174              	.LVL192:
 1175 03f6 041E     		subs	r4, r0, #0
 1176              	.LVL193:
 1177 03f8 09D0     		beq	.L69
 203:Source\azure_iot_sdk\uamqp\src/message_receiver.c ****                         message_receiver->decode_error = true;
 1178              		.loc 1 203 0 is_stmt 0 discriminator 4
 1179 03fa 194B     		ldr	r3, .L75+16
 1180 03fc 0193     		str	r3, [sp, #4]
 1181 03fe 0123     		movs	r3, #1
 1182 0400 0093     		str	r3, [sp]
 1183 0402 CA33     		adds	r3, r3, #202
 1184 0404 134A     		ldr	r2, .L75+4
 1185 0406 1832     		adds	r2, r2, #24
 1186 0408 1349     		ldr	r1, .L75+8
 1187 040a 0020     		movs	r0, #0
 1188              	.LVL194:
 1189 040c A047     		blx	r4
 1190              	.LVL195:
 1191              	.L69:
 1192              	.LBE43:
 204:Source\azure_iot_sdk\uamqp\src/message_receiver.c ****                     }
 1193              		.loc 1 204 0 is_stmt 1
 1194 040e 0123     		movs	r3, #1
 1195 0410 3377     		strb	r3, [r6, #28]
 1196 0412 1AE0     		b	.L24
 1197              	.LVL196:
 1198              	.L68:
 1199              	.LBB44:
 209:Source\azure_iot_sdk\uamqp\src/message_receiver.c ****                         binary_data.length = data_value.length;
 1200              		.loc 1 209 0
 1201 0414 049B     		ldr	r3, [sp, #16]
 1202 0416 0693     		str	r3, [sp, #24]
 210:Source\azure_iot_sdk\uamqp\src/message_receiver.c ****                         if (message_add_body_amqp_data(decoded_message, binary_data) != 0)
 1203              		.loc 1 210 0
 1204 0418 059B     		ldr	r3, [sp, #20]
 1205 041a 0793     		str	r3, [sp, #28]
 211:Source\azure_iot_sdk\uamqp\src/message_receiver.c ****                         {
 1206              		.loc 1 211 0
 1207 041c 0499     		ldr	r1, [sp, #16]
 1208 041e 1A00     		movs	r2, r3
 1209 0420 3800     		movs	r0, r7
 1210 0422 FFF7FEFF 		bl	message_add_body_amqp_data
 1211              	.LVL197:
 1212 0426 0028     		cmp	r0, #0
ARM GAS  C:\Users\Phuong\AppData\Local\Temp\ccqGhR5Z.s 			page 30


 1213 0428 0FD0     		beq	.L24
 1214              	.LBB45:
 213:Source\azure_iot_sdk\uamqp\src/message_receiver.c ****                             message_receiver->decode_error = true;
 1215              		.loc 1 213 0 discriminator 3
 1216 042a FFF7FEFF 		bl	xlogging_get_log_function
 1217              	.LVL198:
 1218 042e 041E     		subs	r4, r0, #0
 1219              	.LVL199:
 1220 0430 09D0     		beq	.L72
 213:Source\azure_iot_sdk\uamqp\src/message_receiver.c ****                             message_receiver->decode_error = true;
 1221              		.loc 1 213 0 is_stmt 0 discriminator 4
 1222 0432 0C4B     		ldr	r3, .L75+20
 1223 0434 0193     		str	r3, [sp, #4]
 1224 0436 0123     		movs	r3, #1
 1225 0438 0093     		str	r3, [sp]
 1226 043a D433     		adds	r3, r3, #212
 1227 043c 054A     		ldr	r2, .L75+4
 1228 043e 1832     		adds	r2, r2, #24
 1229 0440 0549     		ldr	r1, .L75+8
 1230 0442 0020     		movs	r0, #0
 1231              	.LVL200:
 1232 0444 A047     		blx	r4
 1233              	.LVL201:
 1234              	.L72:
 1235              	.LBE45:
 214:Source\azure_iot_sdk\uamqp\src/message_receiver.c ****                         }
 1236              		.loc 1 214 0 is_stmt 1
 1237 0446 0123     		movs	r3, #1
 1238 0448 3377     		strb	r3, [r6, #28]
 1239              	.LVL202:
 1240              	.L24:
 1241              	.LBE44:
 1242              	.LBE42:
 1243              	.LBE40:
 1244              	.LBE37:
 221:Source\azure_iot_sdk\uamqp\src/message_receiver.c **** 
 1245              		.loc 1 221 0
 1246 044a 09B0     		add	sp, sp, #36
 1247              		@ sp needed
 1248              	.LVL203:
 1249              	.LVL204:
 1250              	.LVL205:
 1251 044c F0BD     		pop	{r4, r5, r6, r7, pc}
 1252              	.L76:
 1253 044e C046     		.align	2
 1254              	.L75:
 1255 0450 30030000 		.word	.LC44
 1256 0454 00000000 		.word	.LANCHOR0
 1257 0458 00000000 		.word	.LC1
 1258 045c 74030000 		.word	.LC46
 1259 0460 94030000 		.word	.LC48
 1260 0464 B8030000 		.word	.LC50
 1261              		.cfi_endproc
 1262              	.LFE2:
 1263              		.size	decode_message_value_callback, .-decode_message_value_callback
 1264              		.section	.text.messagereceiver_create,"ax",%progbits
 1265              		.align	2
ARM GAS  C:\Users\Phuong\AppData\Local\Temp\ccqGhR5Z.s 			page 31


 1266              		.global	messagereceiver_create
 1267              		.code	16
 1268              		.thumb_func
 1269              		.type	messagereceiver_create, %function
 1270              	messagereceiver_create:
 1271              	.LFB5:
 314:Source\azure_iot_sdk\uamqp\src/message_receiver.c **** 
 315:Source\azure_iot_sdk\uamqp\src/message_receiver.c **** MESSAGE_RECEIVER_HANDLE messagereceiver_create(LINK_HANDLE link, ON_MESSAGE_RECEIVER_STATE_CHANGED 
 316:Source\azure_iot_sdk\uamqp\src/message_receiver.c **** {
 1272              		.loc 1 316 0
 1273              		.cfi_startproc
 1274              		@ args = 0, pretend = 0, frame = 0
 1275              		@ frame_needed = 0, uses_anonymous_args = 0
 1276              	.LVL206:
 1277 0000 F0B5     		push	{r4, r5, r6, r7, lr}
 1278              		.cfi_def_cfa_offset 20
 1279              		.cfi_offset 4, -20
 1280              		.cfi_offset 5, -16
 1281              		.cfi_offset 6, -12
 1282              		.cfi_offset 7, -8
 1283              		.cfi_offset 14, -4
 1284 0002 83B0     		sub	sp, sp, #12
 1285              		.cfi_def_cfa_offset 32
 1286 0004 0700     		movs	r7, r0
 1287 0006 0E00     		movs	r6, r1
 1288 0008 1500     		movs	r5, r2
 317:Source\azure_iot_sdk\uamqp\src/message_receiver.c ****     MESSAGE_RECEIVER_INSTANCE* message_receiver = (MESSAGE_RECEIVER_INSTANCE*)malloc(sizeof(MESSAGE
 1289              		.loc 1 317 0
 1290 000a 2020     		movs	r0, #32
 1291              	.LVL207:
 1292 000c FFF7FEFF 		bl	malloc
 1293              	.LVL208:
 1294 0010 041E     		subs	r4, r0, #0
 1295              	.LVL209:
 318:Source\azure_iot_sdk\uamqp\src/message_receiver.c ****     if (message_receiver == NULL)
 1296              		.loc 1 318 0
 1297 0012 0FD1     		bne	.L78
 1298              	.LBB46:
 319:Source\azure_iot_sdk\uamqp\src/message_receiver.c ****     {
 320:Source\azure_iot_sdk\uamqp\src/message_receiver.c ****         LogError("Error creating message receiver");
 1299              		.loc 1 320 0 discriminator 3
 1300 0014 FFF7FEFF 		bl	xlogging_get_log_function
 1301              	.LVL210:
 1302 0018 051E     		subs	r5, r0, #0
 1303              	.LVL211:
 1304 001a 10D0     		beq	.L79
 1305              		.loc 1 320 0 is_stmt 0 discriminator 4
 1306 001c 094B     		ldr	r3, .L80
 1307 001e 0193     		str	r3, [sp, #4]
 1308 0020 0123     		movs	r3, #1
 1309 0022 0093     		str	r3, [sp]
 1310 0024 4033     		adds	r3, r3, #64
 1311 0026 FF33     		adds	r3, r3, #255
 1312 0028 074A     		ldr	r2, .L80+4
 1313 002a 3832     		adds	r2, r2, #56
 1314 002c 0749     		ldr	r1, .L80+8
 1315 002e 0020     		movs	r0, #0
ARM GAS  C:\Users\Phuong\AppData\Local\Temp\ccqGhR5Z.s 			page 32


 1316              	.LVL212:
 1317 0030 A847     		blx	r5
 1318              	.LVL213:
 1319 0032 04E0     		b	.L79
 1320              	.LVL214:
 1321              	.L78:
 1322              	.LBE46:
 321:Source\azure_iot_sdk\uamqp\src/message_receiver.c ****     }
 322:Source\azure_iot_sdk\uamqp\src/message_receiver.c ****     else
 323:Source\azure_iot_sdk\uamqp\src/message_receiver.c ****     {
 324:Source\azure_iot_sdk\uamqp\src/message_receiver.c ****         message_receiver->link = link;
 1323              		.loc 1 324 0 is_stmt 1
 1324 0034 0760     		str	r7, [r0]
 325:Source\azure_iot_sdk\uamqp\src/message_receiver.c ****         message_receiver->on_message_receiver_state_changed = on_message_receiver_state_changed;
 1325              		.loc 1 325 0
 1326 0036 8660     		str	r6, [r0, #8]
 326:Source\azure_iot_sdk\uamqp\src/message_receiver.c ****         message_receiver->on_message_receiver_state_changed_context = context;
 1327              		.loc 1 326 0
 1328 0038 0561     		str	r5, [r0, #16]
 327:Source\azure_iot_sdk\uamqp\src/message_receiver.c ****         message_receiver->message_receiver_state = MESSAGE_RECEIVER_STATE_IDLE;
 1329              		.loc 1 327 0
 1330 003a 0023     		movs	r3, #0
 1331 003c 0373     		strb	r3, [r0, #12]
 1332              	.LVL215:
 1333              	.L79:
 328:Source\azure_iot_sdk\uamqp\src/message_receiver.c ****     }
 329:Source\azure_iot_sdk\uamqp\src/message_receiver.c **** 
 330:Source\azure_iot_sdk\uamqp\src/message_receiver.c ****     return message_receiver;
 331:Source\azure_iot_sdk\uamqp\src/message_receiver.c **** }
 1334              		.loc 1 331 0
 1335 003e 2000     		movs	r0, r4
 1336 0040 03B0     		add	sp, sp, #12
 1337              		@ sp needed
 1338              	.LVL216:
 1339              	.LVL217:
 1340              	.LVL218:
 1341 0042 F0BD     		pop	{r4, r5, r6, r7, pc}
 1342              	.L81:
 1343              		.align	2
 1344              	.L80:
 1345 0044 E4030000 		.word	.LC54
 1346 0048 00000000 		.word	.LANCHOR0
 1347 004c 00000000 		.word	.LC1
 1348              		.cfi_endproc
 1349              	.LFE5:
 1350              		.size	messagereceiver_create, .-messagereceiver_create
 1351              		.section	.text.messagereceiver_open,"ax",%progbits
 1352              		.align	2
 1353              		.global	messagereceiver_open
 1354              		.code	16
 1355              		.thumb_func
 1356              		.type	messagereceiver_open, %function
 1357              	messagereceiver_open:
 1358              	.LFB7:
 332:Source\azure_iot_sdk\uamqp\src/message_receiver.c **** 
 333:Source\azure_iot_sdk\uamqp\src/message_receiver.c **** void messagereceiver_destroy(MESSAGE_RECEIVER_HANDLE message_receiver)
 334:Source\azure_iot_sdk\uamqp\src/message_receiver.c **** {
ARM GAS  C:\Users\Phuong\AppData\Local\Temp\ccqGhR5Z.s 			page 33


 335:Source\azure_iot_sdk\uamqp\src/message_receiver.c ****     if (message_receiver == NULL)
 336:Source\azure_iot_sdk\uamqp\src/message_receiver.c ****     {
 337:Source\azure_iot_sdk\uamqp\src/message_receiver.c ****         LogError("NULL message_receiver");
 338:Source\azure_iot_sdk\uamqp\src/message_receiver.c ****     }
 339:Source\azure_iot_sdk\uamqp\src/message_receiver.c ****     else
 340:Source\azure_iot_sdk\uamqp\src/message_receiver.c ****     {
 341:Source\azure_iot_sdk\uamqp\src/message_receiver.c ****         (void)messagereceiver_close(message_receiver);
 342:Source\azure_iot_sdk\uamqp\src/message_receiver.c ****         free(message_receiver);
 343:Source\azure_iot_sdk\uamqp\src/message_receiver.c ****     }
 344:Source\azure_iot_sdk\uamqp\src/message_receiver.c **** }
 345:Source\azure_iot_sdk\uamqp\src/message_receiver.c **** 
 346:Source\azure_iot_sdk\uamqp\src/message_receiver.c **** int messagereceiver_open(MESSAGE_RECEIVER_HANDLE message_receiver, ON_MESSAGE_RECEIVED on_message_r
 347:Source\azure_iot_sdk\uamqp\src/message_receiver.c **** {
 1359              		.loc 1 347 0
 1360              		.cfi_startproc
 1361              		@ args = 0, pretend = 0, frame = 0
 1362              		@ frame_needed = 0, uses_anonymous_args = 0
 1363              	.LVL219:
 1364 0000 70B5     		push	{r4, r5, r6, lr}
 1365              		.cfi_def_cfa_offset 16
 1366              		.cfi_offset 4, -16
 1367              		.cfi_offset 5, -12
 1368              		.cfi_offset 6, -8
 1369              		.cfi_offset 14, -4
 1370 0002 82B0     		sub	sp, sp, #8
 1371              		.cfi_def_cfa_offset 24
 1372 0004 0400     		movs	r4, r0
 1373 0006 0E00     		movs	r6, r1
 1374 0008 1500     		movs	r5, r2
 348:Source\azure_iot_sdk\uamqp\src/message_receiver.c ****     int result;
 349:Source\azure_iot_sdk\uamqp\src/message_receiver.c **** 
 350:Source\azure_iot_sdk\uamqp\src/message_receiver.c ****     if (message_receiver == NULL)
 1375              		.loc 1 350 0
 1376 000a 0028     		cmp	r0, #0
 1377 000c 11D1     		bne	.L83
 1378              	.LBB47:
 351:Source\azure_iot_sdk\uamqp\src/message_receiver.c ****     {
 352:Source\azure_iot_sdk\uamqp\src/message_receiver.c ****         LogError("NULL message_receiver");
 1379              		.loc 1 352 0 discriminator 3
 1380 000e FFF7FEFF 		bl	xlogging_get_log_function
 1381              	.LVL220:
 1382 0012 041E     		subs	r4, r0, #0
 1383              	.LVL221:
 1384 0014 36D0     		beq	.L87
 1385              		.loc 1 352 0 is_stmt 0 discriminator 4
 1386 0016 1E4B     		ldr	r3, .L89
 1387 0018 0193     		str	r3, [sp, #4]
 1388 001a 0123     		movs	r3, #1
 1389 001c 0093     		str	r3, [sp]
 1390 001e 6033     		adds	r3, r3, #96
 1391 0020 FF33     		adds	r3, r3, #255
 1392 0022 1C4A     		ldr	r2, .L89+4
 1393 0024 5032     		adds	r2, r2, #80
 1394 0026 1C49     		ldr	r1, .L89+8
 1395 0028 0020     		movs	r0, #0
 1396              	.LVL222:
 1397 002a A047     		blx	r4
ARM GAS  C:\Users\Phuong\AppData\Local\Temp\ccqGhR5Z.s 			page 34


 1398              	.LVL223:
 1399              	.LBE47:
 353:Source\azure_iot_sdk\uamqp\src/message_receiver.c ****         result = __FAILURE__;
 1400              		.loc 1 353 0 is_stmt 1 discriminator 4
 1401 002c 6220     		movs	r0, #98
 1402 002e FF30     		adds	r0, r0, #255
 1403 0030 2CE0     		b	.L84
 1404              	.LVL224:
 1405              	.L83:
 354:Source\azure_iot_sdk\uamqp\src/message_receiver.c ****     }
 355:Source\azure_iot_sdk\uamqp\src/message_receiver.c ****     else
 356:Source\azure_iot_sdk\uamqp\src/message_receiver.c ****     {
 357:Source\azure_iot_sdk\uamqp\src/message_receiver.c ****         if (message_receiver->message_receiver_state == MESSAGE_RECEIVER_STATE_IDLE)
 1406              		.loc 1 357 0
 1407 0032 037B     		ldrb	r3, [r0, #12]
 1408 0034 002B     		cmp	r3, #0
 1409 0036 28D1     		bne	.L88
 358:Source\azure_iot_sdk\uamqp\src/message_receiver.c ****         {
 359:Source\azure_iot_sdk\uamqp\src/message_receiver.c ****             set_message_receiver_state(message_receiver, MESSAGE_RECEIVER_STATE_OPENING);
 1410              		.loc 1 359 0
 1411 0038 0121     		movs	r1, #1
 1412              	.LVL225:
 1413 003a FFF7FEFF 		bl	set_message_receiver_state
 1414              	.LVL226:
 360:Source\azure_iot_sdk\uamqp\src/message_receiver.c ****             if (link_attach(message_receiver->link, on_transfer_received, on_link_state_changed, NU
 1415              		.loc 1 360 0
 1416 003e 0094     		str	r4, [sp]
 1417 0040 0023     		movs	r3, #0
 1418 0042 164A     		ldr	r2, .L89+12
 1419 0044 1649     		ldr	r1, .L89+16
 1420 0046 2068     		ldr	r0, [r4]
 1421 0048 FFF7FEFF 		bl	link_attach
 1422              	.LVL227:
 1423 004c 0028     		cmp	r0, #0
 1424 004e 15D0     		beq	.L85
 1425              	.LBB48:
 361:Source\azure_iot_sdk\uamqp\src/message_receiver.c ****             {
 362:Source\azure_iot_sdk\uamqp\src/message_receiver.c ****                 LogError("Link attach failed");
 1426              		.loc 1 362 0 discriminator 3
 1427 0050 FFF7FEFF 		bl	xlogging_get_log_function
 1428              	.LVL228:
 1429 0054 051E     		subs	r5, r0, #0
 1430              	.LVL229:
 1431 0056 0AD0     		beq	.L86
 1432              		.loc 1 362 0 is_stmt 0 discriminator 4
 1433 0058 124B     		ldr	r3, .L89+20
 1434 005a 0193     		str	r3, [sp, #4]
 1435 005c 0123     		movs	r3, #1
 1436 005e 0093     		str	r3, [sp]
 1437 0060 6A33     		adds	r3, r3, #106
 1438 0062 FF33     		adds	r3, r3, #255
 1439 0064 0B4A     		ldr	r2, .L89+4
 1440 0066 5032     		adds	r2, r2, #80
 1441 0068 0B49     		ldr	r1, .L89+8
 1442 006a 0020     		movs	r0, #0
 1443              	.LVL230:
 1444 006c A847     		blx	r5
ARM GAS  C:\Users\Phuong\AppData\Local\Temp\ccqGhR5Z.s 			page 35


 1445              	.LVL231:
 1446              	.L86:
 1447              	.LBE48:
 363:Source\azure_iot_sdk\uamqp\src/message_receiver.c ****                 result = __FAILURE__;
 364:Source\azure_iot_sdk\uamqp\src/message_receiver.c ****                 set_message_receiver_state(message_receiver, MESSAGE_RECEIVER_STATE_ERROR);
 1448              		.loc 1 364 0 is_stmt 1
 1449 006e 0421     		movs	r1, #4
 1450 0070 2000     		movs	r0, r4
 1451 0072 FFF7FEFF 		bl	set_message_receiver_state
 1452              	.LVL232:
 363:Source\azure_iot_sdk\uamqp\src/message_receiver.c ****                 result = __FAILURE__;
 1453              		.loc 1 363 0
 1454 0076 6C20     		movs	r0, #108
 1455 0078 FF30     		adds	r0, r0, #255
 1456 007a 07E0     		b	.L84
 1457              	.LVL233:
 1458              	.L85:
 365:Source\azure_iot_sdk\uamqp\src/message_receiver.c ****             }
 366:Source\azure_iot_sdk\uamqp\src/message_receiver.c ****             else
 367:Source\azure_iot_sdk\uamqp\src/message_receiver.c ****             {
 368:Source\azure_iot_sdk\uamqp\src/message_receiver.c ****                 message_receiver->on_message_received = on_message_received;
 1459              		.loc 1 368 0
 1460 007c 6660     		str	r6, [r4, #4]
 369:Source\azure_iot_sdk\uamqp\src/message_receiver.c ****                 message_receiver->callback_context = callback_context;
 1461              		.loc 1 369 0
 1462 007e 6561     		str	r5, [r4, #20]
 1463              	.LVL234:
 370:Source\azure_iot_sdk\uamqp\src/message_receiver.c **** 
 371:Source\azure_iot_sdk\uamqp\src/message_receiver.c ****                 result = 0;
 1464              		.loc 1 371 0
 1465 0080 0020     		movs	r0, #0
 1466 0082 03E0     		b	.L84
 1467              	.LVL235:
 1468              	.L87:
 353:Source\azure_iot_sdk\uamqp\src/message_receiver.c ****     }
 1469              		.loc 1 353 0
 1470 0084 6220     		movs	r0, #98
 1471              	.LVL236:
 1472 0086 FF30     		adds	r0, r0, #255
 1473 0088 00E0     		b	.L84
 1474              	.LVL237:
 1475              	.L88:
 372:Source\azure_iot_sdk\uamqp\src/message_receiver.c ****             }
 373:Source\azure_iot_sdk\uamqp\src/message_receiver.c ****         }
 374:Source\azure_iot_sdk\uamqp\src/message_receiver.c ****         else
 375:Source\azure_iot_sdk\uamqp\src/message_receiver.c ****         {
 376:Source\azure_iot_sdk\uamqp\src/message_receiver.c ****             result = 0;
 1476              		.loc 1 376 0
 1477 008a 0020     		movs	r0, #0
 1478              	.LVL238:
 1479              	.L84:
 377:Source\azure_iot_sdk\uamqp\src/message_receiver.c ****         }
 378:Source\azure_iot_sdk\uamqp\src/message_receiver.c ****     }
 379:Source\azure_iot_sdk\uamqp\src/message_receiver.c **** 
 380:Source\azure_iot_sdk\uamqp\src/message_receiver.c ****     return result;
 381:Source\azure_iot_sdk\uamqp\src/message_receiver.c **** }
 1480              		.loc 1 381 0
ARM GAS  C:\Users\Phuong\AppData\Local\Temp\ccqGhR5Z.s 			page 36


 1481 008c 02B0     		add	sp, sp, #8
 1482              		@ sp needed
 1483              	.LVL239:
 1484 008e 70BD     		pop	{r4, r5, r6, pc}
 1485              	.L90:
 1486              		.align	2
 1487              	.L89:
 1488 0090 04040000 		.word	.LC58
 1489 0094 00000000 		.word	.LANCHOR0
 1490 0098 00000000 		.word	.LC1
 1491 009c 00000000 		.word	on_link_state_changed
 1492 00a0 00000000 		.word	on_transfer_received
 1493 00a4 1C040000 		.word	.LC62
 1494              		.cfi_endproc
 1495              	.LFE7:
 1496              		.size	messagereceiver_open, .-messagereceiver_open
 1497              		.section	.text.messagereceiver_close,"ax",%progbits
 1498              		.align	2
 1499              		.global	messagereceiver_close
 1500              		.code	16
 1501              		.thumb_func
 1502              		.type	messagereceiver_close, %function
 1503              	messagereceiver_close:
 1504              	.LFB8:
 382:Source\azure_iot_sdk\uamqp\src/message_receiver.c **** 
 383:Source\azure_iot_sdk\uamqp\src/message_receiver.c **** int messagereceiver_close(MESSAGE_RECEIVER_HANDLE message_receiver)
 384:Source\azure_iot_sdk\uamqp\src/message_receiver.c **** {
 1505              		.loc 1 384 0
 1506              		.cfi_startproc
 1507              		@ args = 0, pretend = 0, frame = 0
 1508              		@ frame_needed = 0, uses_anonymous_args = 0
 1509              	.LVL240:
 1510 0000 30B5     		push	{r4, r5, lr}
 1511              		.cfi_def_cfa_offset 12
 1512              		.cfi_offset 4, -12
 1513              		.cfi_offset 5, -8
 1514              		.cfi_offset 14, -4
 1515 0002 83B0     		sub	sp, sp, #12
 1516              		.cfi_def_cfa_offset 24
 1517 0004 041E     		subs	r4, r0, #0
 385:Source\azure_iot_sdk\uamqp\src/message_receiver.c ****     int result;
 386:Source\azure_iot_sdk\uamqp\src/message_receiver.c **** 
 387:Source\azure_iot_sdk\uamqp\src/message_receiver.c ****     if (message_receiver == NULL)
 1518              		.loc 1 387 0
 1519 0006 11D1     		bne	.L92
 1520              	.LBB49:
 388:Source\azure_iot_sdk\uamqp\src/message_receiver.c ****     {
 389:Source\azure_iot_sdk\uamqp\src/message_receiver.c ****         LogError("NULL message_receiver");
 1521              		.loc 1 389 0 discriminator 3
 1522 0008 FFF7FEFF 		bl	xlogging_get_log_function
 1523              	.LVL241:
 1524 000c 041E     		subs	r4, r0, #0
 1525              	.LVL242:
 1526 000e 34D0     		beq	.L95
 1527              		.loc 1 389 0 is_stmt 0 discriminator 4
 1528 0010 1E4B     		ldr	r3, .L98
 1529 0012 0193     		str	r3, [sp, #4]
ARM GAS  C:\Users\Phuong\AppData\Local\Temp\ccqGhR5Z.s 			page 37


 1530 0014 0123     		movs	r3, #1
 1531 0016 0093     		str	r3, [sp]
 1532 0018 8623     		movs	r3, #134
 1533 001a FF33     		adds	r3, r3, #255
 1534 001c 1C4A     		ldr	r2, .L98+4
 1535 001e 6832     		adds	r2, r2, #104
 1536 0020 1C49     		ldr	r1, .L98+8
 1537 0022 0020     		movs	r0, #0
 1538              	.LVL243:
 1539 0024 A047     		blx	r4
 1540              	.LVL244:
 1541              	.LBE49:
 390:Source\azure_iot_sdk\uamqp\src/message_receiver.c ****         result = __FAILURE__;
 1542              		.loc 1 390 0 is_stmt 1 discriminator 4
 1543 0026 C320     		movs	r0, #195
 1544 0028 4000     		lsls	r0, r0, #1
 1545 002a 2CE0     		b	.L93
 1546              	.LVL245:
 1547              	.L92:
 391:Source\azure_iot_sdk\uamqp\src/message_receiver.c ****     }
 392:Source\azure_iot_sdk\uamqp\src/message_receiver.c ****     else
 393:Source\azure_iot_sdk\uamqp\src/message_receiver.c ****     {
 394:Source\azure_iot_sdk\uamqp\src/message_receiver.c ****         if ((message_receiver->message_receiver_state == MESSAGE_RECEIVER_STATE_OPENING) ||
 1548              		.loc 1 394 0
 1549 002c 037B     		ldrb	r3, [r0, #12]
 1550 002e 013B     		subs	r3, r3, #1
 1551 0030 DBB2     		uxtb	r3, r3
 1552 0032 012B     		cmp	r3, #1
 1553 0034 24D8     		bhi	.L96
 395:Source\azure_iot_sdk\uamqp\src/message_receiver.c ****             (message_receiver->message_receiver_state == MESSAGE_RECEIVER_STATE_OPEN))
 396:Source\azure_iot_sdk\uamqp\src/message_receiver.c ****         {
 397:Source\azure_iot_sdk\uamqp\src/message_receiver.c ****             set_message_receiver_state(message_receiver, MESSAGE_RECEIVER_STATE_CLOSING);
 1554              		.loc 1 397 0
 1555 0036 0321     		movs	r1, #3
 1556 0038 FFF7FEFF 		bl	set_message_receiver_state
 1557              	.LVL246:
 398:Source\azure_iot_sdk\uamqp\src/message_receiver.c **** 
 399:Source\azure_iot_sdk\uamqp\src/message_receiver.c ****             if (link_detach(message_receiver->link, true, NULL, NULL, NULL) != 0)
 1558              		.loc 1 399 0
 1559 003c 0023     		movs	r3, #0
 1560 003e 0093     		str	r3, [sp]
 1561 0040 0022     		movs	r2, #0
 1562 0042 0121     		movs	r1, #1
 1563 0044 2068     		ldr	r0, [r4]
 1564 0046 FFF7FEFF 		bl	link_detach
 1565              	.LVL247:
 1566 004a 0028     		cmp	r0, #0
 1567 004c 1AD0     		beq	.L97
 1568              	.LBB50:
 400:Source\azure_iot_sdk\uamqp\src/message_receiver.c ****             {
 401:Source\azure_iot_sdk\uamqp\src/message_receiver.c ****                 LogError("link detach failed");
 1569              		.loc 1 401 0 discriminator 3
 1570 004e FFF7FEFF 		bl	xlogging_get_log_function
 1571              	.LVL248:
 1572 0052 051E     		subs	r5, r0, #0
 1573              	.LVL249:
 1574 0054 0AD0     		beq	.L94
ARM GAS  C:\Users\Phuong\AppData\Local\Temp\ccqGhR5Z.s 			page 38


 1575              		.loc 1 401 0 is_stmt 0 discriminator 4
 1576 0056 104B     		ldr	r3, .L98+12
 1577 0058 0193     		str	r3, [sp, #4]
 1578 005a 0123     		movs	r3, #1
 1579 005c 0093     		str	r3, [sp]
 1580 005e 9223     		movs	r3, #146
 1581 0060 FF33     		adds	r3, r3, #255
 1582 0062 0B4A     		ldr	r2, .L98+4
 1583 0064 6832     		adds	r2, r2, #104
 1584 0066 0B49     		ldr	r1, .L98+8
 1585 0068 0020     		movs	r0, #0
 1586              	.LVL250:
 1587 006a A847     		blx	r5
 1588              	.LVL251:
 1589              	.L94:
 1590              	.LBE50:
 402:Source\azure_iot_sdk\uamqp\src/message_receiver.c ****                 result = __FAILURE__;
 403:Source\azure_iot_sdk\uamqp\src/message_receiver.c ****                 set_message_receiver_state(message_receiver, MESSAGE_RECEIVER_STATE_ERROR);
 1591              		.loc 1 403 0 is_stmt 1
 1592 006c 0421     		movs	r1, #4
 1593 006e 2000     		movs	r0, r4
 1594 0070 FFF7FEFF 		bl	set_message_receiver_state
 1595              	.LVL252:
 402:Source\azure_iot_sdk\uamqp\src/message_receiver.c ****                 result = __FAILURE__;
 1596              		.loc 1 402 0
 1597 0074 C920     		movs	r0, #201
 1598 0076 4000     		lsls	r0, r0, #1
 1599 0078 05E0     		b	.L93
 1600              	.LVL253:
 1601              	.L95:
 390:Source\azure_iot_sdk\uamqp\src/message_receiver.c ****     }
 1602              		.loc 1 390 0
 1603 007a C320     		movs	r0, #195
 1604              	.LVL254:
 1605 007c 4000     		lsls	r0, r0, #1
 1606 007e 02E0     		b	.L93
 1607              	.LVL255:
 1608              	.L96:
 404:Source\azure_iot_sdk\uamqp\src/message_receiver.c ****             }
 405:Source\azure_iot_sdk\uamqp\src/message_receiver.c ****             else
 406:Source\azure_iot_sdk\uamqp\src/message_receiver.c ****             {
 407:Source\azure_iot_sdk\uamqp\src/message_receiver.c ****                 result = 0;
 408:Source\azure_iot_sdk\uamqp\src/message_receiver.c ****             }
 409:Source\azure_iot_sdk\uamqp\src/message_receiver.c ****         }
 410:Source\azure_iot_sdk\uamqp\src/message_receiver.c ****         else
 411:Source\azure_iot_sdk\uamqp\src/message_receiver.c ****         {
 412:Source\azure_iot_sdk\uamqp\src/message_receiver.c ****             result = 0;
 1609              		.loc 1 412 0
 1610 0080 0020     		movs	r0, #0
 1611              	.LVL256:
 1612 0082 00E0     		b	.L93
 1613              	.L97:
 407:Source\azure_iot_sdk\uamqp\src/message_receiver.c ****             }
 1614              		.loc 1 407 0
 1615 0084 0020     		movs	r0, #0
 1616              	.LVL257:
 1617              	.L93:
ARM GAS  C:\Users\Phuong\AppData\Local\Temp\ccqGhR5Z.s 			page 39


 413:Source\azure_iot_sdk\uamqp\src/message_receiver.c ****         }
 414:Source\azure_iot_sdk\uamqp\src/message_receiver.c ****     }
 415:Source\azure_iot_sdk\uamqp\src/message_receiver.c **** 
 416:Source\azure_iot_sdk\uamqp\src/message_receiver.c ****     return result;
 417:Source\azure_iot_sdk\uamqp\src/message_receiver.c **** }
 1618              		.loc 1 417 0
 1619 0086 03B0     		add	sp, sp, #12
 1620              		@ sp needed
 1621 0088 30BD     		pop	{r4, r5, pc}
 1622              	.L99:
 1623 008a C046     		.align	2
 1624              	.L98:
 1625 008c 04040000 		.word	.LC58
 1626 0090 00000000 		.word	.LANCHOR0
 1627 0094 00000000 		.word	.LC1
 1628 0098 30040000 		.word	.LC67
 1629              		.cfi_endproc
 1630              	.LFE8:
 1631              		.size	messagereceiver_close, .-messagereceiver_close
 1632              		.section	.text.messagereceiver_destroy,"ax",%progbits
 1633              		.align	2
 1634              		.global	messagereceiver_destroy
 1635              		.code	16
 1636              		.thumb_func
 1637              		.type	messagereceiver_destroy, %function
 1638              	messagereceiver_destroy:
 1639              	.LFB6:
 334:Source\azure_iot_sdk\uamqp\src/message_receiver.c ****     if (message_receiver == NULL)
 1640              		.loc 1 334 0
 1641              		.cfi_startproc
 1642              		@ args = 0, pretend = 0, frame = 0
 1643              		@ frame_needed = 0, uses_anonymous_args = 0
 1644              	.LVL258:
 1645 0000 10B5     		push	{r4, lr}
 1646              		.cfi_def_cfa_offset 8
 1647              		.cfi_offset 4, -8
 1648              		.cfi_offset 14, -4
 1649 0002 82B0     		sub	sp, sp, #8
 1650              		.cfi_def_cfa_offset 16
 1651 0004 041E     		subs	r4, r0, #0
 335:Source\azure_iot_sdk\uamqp\src/message_receiver.c ****     {
 1652              		.loc 1 335 0
 1653 0006 0ED1     		bne	.L101
 1654              	.LBB51:
 337:Source\azure_iot_sdk\uamqp\src/message_receiver.c ****     }
 1655              		.loc 1 337 0 discriminator 3
 1656 0008 FFF7FEFF 		bl	xlogging_get_log_function
 1657              	.LVL259:
 1658 000c 041E     		subs	r4, r0, #0
 1659              	.LVL260:
 1660 000e 0FD0     		beq	.L100
 337:Source\azure_iot_sdk\uamqp\src/message_receiver.c ****     }
 1661              		.loc 1 337 0 is_stmt 0 discriminator 4
 1662 0010 084B     		ldr	r3, .L103
 1663 0012 0193     		str	r3, [sp, #4]
 1664 0014 0123     		movs	r3, #1
 1665 0016 0093     		str	r3, [sp]
ARM GAS  C:\Users\Phuong\AppData\Local\Temp\ccqGhR5Z.s 			page 40


 1666 0018 5223     		movs	r3, #82
 1667 001a FF33     		adds	r3, r3, #255
 1668 001c 064A     		ldr	r2, .L103+4
 1669 001e 0749     		ldr	r1, .L103+8
 1670 0020 0020     		movs	r0, #0
 1671              	.LVL261:
 1672 0022 A047     		blx	r4
 1673              	.LVL262:
 1674 0024 04E0     		b	.L100
 1675              	.LVL263:
 1676              	.L101:
 1677              	.LBE51:
 341:Source\azure_iot_sdk\uamqp\src/message_receiver.c ****         free(message_receiver);
 1678              		.loc 1 341 0 is_stmt 1
 1679 0026 FFF7FEFF 		bl	messagereceiver_close
 1680              	.LVL264:
 342:Source\azure_iot_sdk\uamqp\src/message_receiver.c ****     }
 1681              		.loc 1 342 0
 1682 002a 2000     		movs	r0, r4
 1683 002c FFF7FEFF 		bl	free
 1684              	.LVL265:
 1685              	.L100:
 344:Source\azure_iot_sdk\uamqp\src/message_receiver.c **** 
 1686              		.loc 1 344 0
 1687 0030 02B0     		add	sp, sp, #8
 1688              		@ sp needed
 1689 0032 10BD     		pop	{r4, pc}
 1690              	.L104:
 1691              		.align	2
 1692              	.L103:
 1693 0034 04040000 		.word	.LC58
 1694 0038 80000000 		.word	.LANCHOR1
 1695 003c 00000000 		.word	.LC1
 1696              		.cfi_endproc
 1697              	.LFE6:
 1698              		.size	messagereceiver_destroy, .-messagereceiver_destroy
 1699              		.section	.text.messagereceiver_get_link_name,"ax",%progbits
 1700              		.align	2
 1701              		.global	messagereceiver_get_link_name
 1702              		.code	16
 1703              		.thumb_func
 1704              		.type	messagereceiver_get_link_name, %function
 1705              	messagereceiver_get_link_name:
 1706              	.LFB9:
 418:Source\azure_iot_sdk\uamqp\src/message_receiver.c **** 
 419:Source\azure_iot_sdk\uamqp\src/message_receiver.c **** int messagereceiver_get_link_name(MESSAGE_RECEIVER_HANDLE message_receiver, const char** link_name)
 420:Source\azure_iot_sdk\uamqp\src/message_receiver.c **** {
 1707              		.loc 1 420 0
 1708              		.cfi_startproc
 1709              		@ args = 0, pretend = 0, frame = 0
 1710              		@ frame_needed = 0, uses_anonymous_args = 0
 1711              	.LVL266:
 1712 0000 10B5     		push	{r4, lr}
 1713              		.cfi_def_cfa_offset 8
 1714              		.cfi_offset 4, -8
 1715              		.cfi_offset 14, -4
 1716 0002 82B0     		sub	sp, sp, #8
ARM GAS  C:\Users\Phuong\AppData\Local\Temp\ccqGhR5Z.s 			page 41


 1717              		.cfi_def_cfa_offset 16
 421:Source\azure_iot_sdk\uamqp\src/message_receiver.c ****     int result;
 422:Source\azure_iot_sdk\uamqp\src/message_receiver.c **** 
 423:Source\azure_iot_sdk\uamqp\src/message_receiver.c ****     if (message_receiver == NULL)
 1718              		.loc 1 423 0
 1719 0004 0028     		cmp	r0, #0
 1720 0006 11D1     		bne	.L106
 1721              	.LBB52:
 424:Source\azure_iot_sdk\uamqp\src/message_receiver.c ****     {
 425:Source\azure_iot_sdk\uamqp\src/message_receiver.c ****         LogError("NULL message_receiver");
 1722              		.loc 1 425 0 discriminator 3
 1723 0008 FFF7FEFF 		bl	xlogging_get_log_function
 1724              	.LVL267:
 1725 000c 041E     		subs	r4, r0, #0
 1726              	.LVL268:
 1727 000e 24D0     		beq	.L108
 1728              		.loc 1 425 0 is_stmt 0 discriminator 4
 1729 0010 164B     		ldr	r3, .L111
 1730 0012 0193     		str	r3, [sp, #4]
 1731 0014 0123     		movs	r3, #1
 1732 0016 0093     		str	r3, [sp]
 1733 0018 AA23     		movs	r3, #170
 1734 001a FF33     		adds	r3, r3, #255
 1735 001c 144A     		ldr	r2, .L111+4
 1736 001e 1832     		adds	r2, r2, #24
 1737 0020 1449     		ldr	r1, .L111+8
 1738 0022 0020     		movs	r0, #0
 1739              	.LVL269:
 1740 0024 A047     		blx	r4
 1741              	.LVL270:
 1742              	.LBE52:
 426:Source\azure_iot_sdk\uamqp\src/message_receiver.c ****         result = __FAILURE__;
 1743              		.loc 1 426 0 is_stmt 1 discriminator 4
 1744 0026 D520     		movs	r0, #213
 1745 0028 4000     		lsls	r0, r0, #1
 1746 002a 1DE0     		b	.L107
 1747              	.LVL271:
 1748              	.L106:
 427:Source\azure_iot_sdk\uamqp\src/message_receiver.c ****     }
 428:Source\azure_iot_sdk\uamqp\src/message_receiver.c ****     else
 429:Source\azure_iot_sdk\uamqp\src/message_receiver.c ****     {
 430:Source\azure_iot_sdk\uamqp\src/message_receiver.c ****         if (link_get_name(message_receiver->link, link_name) != 0)
 1749              		.loc 1 430 0
 1750 002c 0068     		ldr	r0, [r0]
 1751              	.LVL272:
 1752 002e FFF7FEFF 		bl	link_get_name
 1753              	.LVL273:
 1754 0032 0028     		cmp	r0, #0
 1755 0034 14D0     		beq	.L109
 1756              	.LBB53:
 431:Source\azure_iot_sdk\uamqp\src/message_receiver.c ****         {
 432:Source\azure_iot_sdk\uamqp\src/message_receiver.c ****             LogError("Getting link name failed");
 1757              		.loc 1 432 0 discriminator 3
 1758 0036 FFF7FEFF 		bl	xlogging_get_log_function
 1759              	.LVL274:
 1760 003a 041E     		subs	r4, r0, #0
 1761              	.LVL275:
ARM GAS  C:\Users\Phuong\AppData\Local\Temp\ccqGhR5Z.s 			page 42


 1762 003c 12D0     		beq	.L110
 1763              		.loc 1 432 0 is_stmt 0 discriminator 4
 1764 003e 0E4B     		ldr	r3, .L111+12
 1765 0040 0193     		str	r3, [sp, #4]
 1766 0042 0123     		movs	r3, #1
 1767 0044 0093     		str	r3, [sp]
 1768 0046 B033     		adds	r3, r3, #176
 1769 0048 FF33     		adds	r3, r3, #255
 1770 004a 094A     		ldr	r2, .L111+4
 1771 004c 1832     		adds	r2, r2, #24
 1772 004e 0949     		ldr	r1, .L111+8
 1773 0050 0020     		movs	r0, #0
 1774              	.LVL276:
 1775 0052 A047     		blx	r4
 1776              	.LVL277:
 1777              	.LBE53:
 433:Source\azure_iot_sdk\uamqp\src/message_receiver.c ****             result = __FAILURE__;
 1778              		.loc 1 433 0 is_stmt 1 discriminator 4
 1779 0054 B220     		movs	r0, #178
 1780 0056 FF30     		adds	r0, r0, #255
 1781 0058 06E0     		b	.L107
 1782              	.LVL278:
 1783              	.L108:
 426:Source\azure_iot_sdk\uamqp\src/message_receiver.c ****     }
 1784              		.loc 1 426 0
 1785 005a D520     		movs	r0, #213
 1786              	.LVL279:
 1787 005c 4000     		lsls	r0, r0, #1
 1788 005e 03E0     		b	.L107
 1789              	.LVL280:
 1790              	.L109:
 434:Source\azure_iot_sdk\uamqp\src/message_receiver.c ****         }
 435:Source\azure_iot_sdk\uamqp\src/message_receiver.c ****         else
 436:Source\azure_iot_sdk\uamqp\src/message_receiver.c ****         {
 437:Source\azure_iot_sdk\uamqp\src/message_receiver.c ****             result = 0;
 1791              		.loc 1 437 0
 1792 0060 0020     		movs	r0, #0
 1793 0062 01E0     		b	.L107
 1794              	.LVL281:
 1795              	.L110:
 433:Source\azure_iot_sdk\uamqp\src/message_receiver.c ****         }
 1796              		.loc 1 433 0
 1797 0064 B220     		movs	r0, #178
 1798              	.LVL282:
 1799 0066 FF30     		adds	r0, r0, #255
 1800              	.LVL283:
 1801              	.L107:
 438:Source\azure_iot_sdk\uamqp\src/message_receiver.c ****         }
 439:Source\azure_iot_sdk\uamqp\src/message_receiver.c ****     }
 440:Source\azure_iot_sdk\uamqp\src/message_receiver.c **** 
 441:Source\azure_iot_sdk\uamqp\src/message_receiver.c ****     return result;
 442:Source\azure_iot_sdk\uamqp\src/message_receiver.c **** }
 1802              		.loc 1 442 0
 1803 0068 02B0     		add	sp, sp, #8
 1804              		@ sp needed
 1805 006a 10BD     		pop	{r4, pc}
 1806              	.L112:
ARM GAS  C:\Users\Phuong\AppData\Local\Temp\ccqGhR5Z.s 			page 43


 1807              		.align	2
 1808              	.L111:
 1809 006c 04040000 		.word	.LC58
 1810 0070 80000000 		.word	.LANCHOR1
 1811 0074 00000000 		.word	.LC1
 1812 0078 44040000 		.word	.LC75
 1813              		.cfi_endproc
 1814              	.LFE9:
 1815              		.size	messagereceiver_get_link_name, .-messagereceiver_get_link_name
 1816              		.section	.text.messagereceiver_get_received_message_id,"ax",%progbits
 1817              		.align	2
 1818              		.global	messagereceiver_get_received_message_id
 1819              		.code	16
 1820              		.thumb_func
 1821              		.type	messagereceiver_get_received_message_id, %function
 1822              	messagereceiver_get_received_message_id:
 1823              	.LFB10:
 443:Source\azure_iot_sdk\uamqp\src/message_receiver.c **** 
 444:Source\azure_iot_sdk\uamqp\src/message_receiver.c **** int messagereceiver_get_received_message_id(MESSAGE_RECEIVER_HANDLE message_receiver, delivery_numb
 445:Source\azure_iot_sdk\uamqp\src/message_receiver.c **** {
 1824              		.loc 1 445 0
 1825              		.cfi_startproc
 1826              		@ args = 0, pretend = 0, frame = 0
 1827              		@ frame_needed = 0, uses_anonymous_args = 0
 1828              	.LVL284:
 1829 0000 10B5     		push	{r4, lr}
 1830              		.cfi_def_cfa_offset 8
 1831              		.cfi_offset 4, -8
 1832              		.cfi_offset 14, -4
 1833 0002 82B0     		sub	sp, sp, #8
 1834              		.cfi_def_cfa_offset 16
 446:Source\azure_iot_sdk\uamqp\src/message_receiver.c ****     int result;
 447:Source\azure_iot_sdk\uamqp\src/message_receiver.c **** 
 448:Source\azure_iot_sdk\uamqp\src/message_receiver.c ****     if (message_receiver == NULL)
 1835              		.loc 1 448 0
 1836 0004 0028     		cmp	r0, #0
 1837 0006 11D1     		bne	.L114
 1838              	.LBB54:
 449:Source\azure_iot_sdk\uamqp\src/message_receiver.c ****     {
 450:Source\azure_iot_sdk\uamqp\src/message_receiver.c ****         LogError("NULL message_receiver");
 1839              		.loc 1 450 0 discriminator 3
 1840 0008 FFF7FEFF 		bl	xlogging_get_log_function
 1841              	.LVL285:
 1842 000c 041E     		subs	r4, r0, #0
 1843              	.LVL286:
 1844 000e 24D0     		beq	.L116
 1845              		.loc 1 450 0 is_stmt 0 discriminator 4
 1846 0010 164B     		ldr	r3, .L119
 1847 0012 0193     		str	r3, [sp, #4]
 1848 0014 0123     		movs	r3, #1
 1849 0016 0093     		str	r3, [sp]
 1850 0018 C233     		adds	r3, r3, #194
 1851 001a FF33     		adds	r3, r3, #255
 1852 001c 144A     		ldr	r2, .L119+4
 1853 001e 3832     		adds	r2, r2, #56
 1854 0020 1449     		ldr	r1, .L119+8
 1855 0022 0020     		movs	r0, #0
ARM GAS  C:\Users\Phuong\AppData\Local\Temp\ccqGhR5Z.s 			page 44


 1856              	.LVL287:
 1857 0024 A047     		blx	r4
 1858              	.LVL288:
 1859              	.LBE54:
 451:Source\azure_iot_sdk\uamqp\src/message_receiver.c ****         result = __FAILURE__;
 1860              		.loc 1 451 0 is_stmt 1 discriminator 4
 1861 0026 C420     		movs	r0, #196
 1862 0028 FF30     		adds	r0, r0, #255
 1863 002a 1DE0     		b	.L115
 1864              	.LVL289:
 1865              	.L114:
 452:Source\azure_iot_sdk\uamqp\src/message_receiver.c ****     }
 453:Source\azure_iot_sdk\uamqp\src/message_receiver.c ****     else
 454:Source\azure_iot_sdk\uamqp\src/message_receiver.c ****     {
 455:Source\azure_iot_sdk\uamqp\src/message_receiver.c ****         if (link_get_received_message_id(message_receiver->link, message_id) != 0)
 1866              		.loc 1 455 0
 1867 002c 0068     		ldr	r0, [r0]
 1868              	.LVL290:
 1869 002e FFF7FEFF 		bl	link_get_received_message_id
 1870              	.LVL291:
 1871 0032 0028     		cmp	r0, #0
 1872 0034 14D0     		beq	.L117
 1873              	.LBB55:
 456:Source\azure_iot_sdk\uamqp\src/message_receiver.c ****         {
 457:Source\azure_iot_sdk\uamqp\src/message_receiver.c ****             LogError("Failed getting received message Id");
 1874              		.loc 1 457 0 discriminator 3
 1875 0036 FFF7FEFF 		bl	xlogging_get_log_function
 1876              	.LVL292:
 1877 003a 041E     		subs	r4, r0, #0
 1878              	.LVL293:
 1879 003c 12D0     		beq	.L118
 1880              		.loc 1 457 0 is_stmt 0 discriminator 4
 1881 003e 0E4B     		ldr	r3, .L119+12
 1882 0040 0193     		str	r3, [sp, #4]
 1883 0042 0123     		movs	r3, #1
 1884 0044 0093     		str	r3, [sp]
 1885 0046 CA23     		movs	r3, #202
 1886 0048 FF33     		adds	r3, r3, #255
 1887 004a 094A     		ldr	r2, .L119+4
 1888 004c 3832     		adds	r2, r2, #56
 1889 004e 0949     		ldr	r1, .L119+8
 1890 0050 0020     		movs	r0, #0
 1891              	.LVL294:
 1892 0052 A047     		blx	r4
 1893              	.LVL295:
 1894              	.LBE55:
 458:Source\azure_iot_sdk\uamqp\src/message_receiver.c ****             result = __FAILURE__;
 1895              		.loc 1 458 0 is_stmt 1 discriminator 4
 1896 0054 E520     		movs	r0, #229
 1897 0056 4000     		lsls	r0, r0, #1
 1898 0058 06E0     		b	.L115
 1899              	.LVL296:
 1900              	.L116:
 451:Source\azure_iot_sdk\uamqp\src/message_receiver.c ****     }
 1901              		.loc 1 451 0
 1902 005a C420     		movs	r0, #196
 1903              	.LVL297:
ARM GAS  C:\Users\Phuong\AppData\Local\Temp\ccqGhR5Z.s 			page 45


 1904 005c FF30     		adds	r0, r0, #255
 1905 005e 03E0     		b	.L115
 1906              	.LVL298:
 1907              	.L117:
 459:Source\azure_iot_sdk\uamqp\src/message_receiver.c ****         }
 460:Source\azure_iot_sdk\uamqp\src/message_receiver.c ****         else
 461:Source\azure_iot_sdk\uamqp\src/message_receiver.c ****         {
 462:Source\azure_iot_sdk\uamqp\src/message_receiver.c ****             result = 0;
 1908              		.loc 1 462 0
 1909 0060 0020     		movs	r0, #0
 1910 0062 01E0     		b	.L115
 1911              	.LVL299:
 1912              	.L118:
 458:Source\azure_iot_sdk\uamqp\src/message_receiver.c ****         }
 1913              		.loc 1 458 0
 1914 0064 E520     		movs	r0, #229
 1915              	.LVL300:
 1916 0066 4000     		lsls	r0, r0, #1
 1917              	.LVL301:
 1918              	.L115:
 463:Source\azure_iot_sdk\uamqp\src/message_receiver.c ****         }
 464:Source\azure_iot_sdk\uamqp\src/message_receiver.c ****     }
 465:Source\azure_iot_sdk\uamqp\src/message_receiver.c **** 
 466:Source\azure_iot_sdk\uamqp\src/message_receiver.c ****     return result;
 467:Source\azure_iot_sdk\uamqp\src/message_receiver.c **** }
 1919              		.loc 1 467 0
 1920 0068 02B0     		add	sp, sp, #8
 1921              		@ sp needed
 1922 006a 10BD     		pop	{r4, pc}
 1923              	.L120:
 1924              		.align	2
 1925              	.L119:
 1926 006c 04040000 		.word	.LC58
 1927 0070 80000000 		.word	.LANCHOR1
 1928 0074 00000000 		.word	.LC1
 1929 0078 60040000 		.word	.LC80
 1930              		.cfi_endproc
 1931              	.LFE10:
 1932              		.size	messagereceiver_get_received_message_id, .-messagereceiver_get_received_message_id
 1933              		.section	.text.messagereceiver_send_message_disposition,"ax",%progbits
 1934              		.align	2
 1935              		.global	messagereceiver_send_message_disposition
 1936              		.code	16
 1937              		.thumb_func
 1938              		.type	messagereceiver_send_message_disposition, %function
 1939              	messagereceiver_send_message_disposition:
 1940              	.LFB11:
 468:Source\azure_iot_sdk\uamqp\src/message_receiver.c **** 
 469:Source\azure_iot_sdk\uamqp\src/message_receiver.c **** int messagereceiver_send_message_disposition(MESSAGE_RECEIVER_HANDLE message_receiver, const char* 
 470:Source\azure_iot_sdk\uamqp\src/message_receiver.c **** {
 1941              		.loc 1 470 0
 1942              		.cfi_startproc
 1943              		@ args = 0, pretend = 0, frame = 8
 1944              		@ frame_needed = 0, uses_anonymous_args = 0
 1945              	.LVL302:
 1946 0000 F0B5     		push	{r4, r5, r6, r7, lr}
 1947              		.cfi_def_cfa_offset 20
ARM GAS  C:\Users\Phuong\AppData\Local\Temp\ccqGhR5Z.s 			page 46


 1948              		.cfi_offset 4, -20
 1949              		.cfi_offset 5, -16
 1950              		.cfi_offset 6, -12
 1951              		.cfi_offset 7, -8
 1952              		.cfi_offset 14, -4
 1953 0002 85B0     		sub	sp, sp, #20
 1954              		.cfi_def_cfa_offset 40
 1955 0004 0400     		movs	r4, r0
 1956 0006 0D00     		movs	r5, r1
 1957 0008 1600     		movs	r6, r2
 1958 000a 1F00     		movs	r7, r3
 471:Source\azure_iot_sdk\uamqp\src/message_receiver.c ****     int result;
 472:Source\azure_iot_sdk\uamqp\src/message_receiver.c **** 
 473:Source\azure_iot_sdk\uamqp\src/message_receiver.c ****     if (message_receiver == NULL)
 1959              		.loc 1 473 0
 1960 000c 0028     		cmp	r0, #0
 1961 000e 11D1     		bne	.L122
 1962              	.LBB56:
 474:Source\azure_iot_sdk\uamqp\src/message_receiver.c ****     {
 475:Source\azure_iot_sdk\uamqp\src/message_receiver.c ****         LogError("NULL message_receiver");
 1963              		.loc 1 475 0 discriminator 3
 1964 0010 FFF7FEFF 		bl	xlogging_get_log_function
 1965              	.LVL303:
 1966 0014 041E     		subs	r4, r0, #0
 1967              	.LVL304:
 1968 0016 76D0     		beq	.L128
 1969              		.loc 1 475 0 is_stmt 0 discriminator 4
 1970 0018 3E4B     		ldr	r3, .L134
 1971 001a 0193     		str	r3, [sp, #4]
 1972 001c 0123     		movs	r3, #1
 1973 001e 0093     		str	r3, [sp]
 1974 0020 DC23     		movs	r3, #220
 1975 0022 FF33     		adds	r3, r3, #255
 1976 0024 3C4A     		ldr	r2, .L134+4
 1977 0026 6032     		adds	r2, r2, #96
 1978 0028 3C49     		ldr	r1, .L134+8
 1979 002a 0020     		movs	r0, #0
 1980              	.LVL305:
 1981 002c A047     		blx	r4
 1982              	.LVL306:
 1983              	.LBE56:
 476:Source\azure_iot_sdk\uamqp\src/message_receiver.c ****         result = __FAILURE__;
 1984              		.loc 1 476 0 is_stmt 1 discriminator 4
 1985 002e EE20     		movs	r0, #238
 1986 0030 4000     		lsls	r0, r0, #1
 1987 0032 6DE0     		b	.L123
 1988              	.LVL307:
 1989              	.L122:
 477:Source\azure_iot_sdk\uamqp\src/message_receiver.c ****     }
 478:Source\azure_iot_sdk\uamqp\src/message_receiver.c ****     else
 479:Source\azure_iot_sdk\uamqp\src/message_receiver.c ****     {
 480:Source\azure_iot_sdk\uamqp\src/message_receiver.c ****         if (message_receiver->message_receiver_state != MESSAGE_RECEIVER_STATE_OPEN)
 1990              		.loc 1 480 0
 1991 0034 037B     		ldrb	r3, [r0, #12]
 1992              	.LVL308:
 1993 0036 022B     		cmp	r3, #2
 1994 0038 11D0     		beq	.L124
ARM GAS  C:\Users\Phuong\AppData\Local\Temp\ccqGhR5Z.s 			page 47


 1995              	.LBB57:
 481:Source\azure_iot_sdk\uamqp\src/message_receiver.c ****         {
 482:Source\azure_iot_sdk\uamqp\src/message_receiver.c ****             LogError("Message received not open");
 1996              		.loc 1 482 0 discriminator 3
 1997 003a FFF7FEFF 		bl	xlogging_get_log_function
 1998              	.LVL309:
 1999 003e 041E     		subs	r4, r0, #0
 2000              	.LVL310:
 2001 0040 64D0     		beq	.L129
 2002              		.loc 1 482 0 is_stmt 0 discriminator 4
 2003 0042 374B     		ldr	r3, .L134+12
 2004 0044 0193     		str	r3, [sp, #4]
 2005 0046 0123     		movs	r3, #1
 2006 0048 0093     		str	r3, [sp]
 2007 004a E233     		adds	r3, r3, #226
 2008 004c FF33     		adds	r3, r3, #255
 2009 004e 324A     		ldr	r2, .L134+4
 2010 0050 6032     		adds	r2, r2, #96
 2011 0052 3249     		ldr	r1, .L134+8
 2012 0054 0020     		movs	r0, #0
 2013              	.LVL311:
 2014 0056 A047     		blx	r4
 2015              	.LVL312:
 2016              	.LBE57:
 483:Source\azure_iot_sdk\uamqp\src/message_receiver.c ****             result = __FAILURE__;
 2017              		.loc 1 483 0 is_stmt 1 discriminator 4
 2018 0058 E420     		movs	r0, #228
 2019 005a FF30     		adds	r0, r0, #255
 2020 005c 58E0     		b	.L123
 2021              	.LVL313:
 2022              	.L124:
 2023              	.LBB58:
 484:Source\azure_iot_sdk\uamqp\src/message_receiver.c ****         }
 485:Source\azure_iot_sdk\uamqp\src/message_receiver.c ****         else
 486:Source\azure_iot_sdk\uamqp\src/message_receiver.c ****         {
 487:Source\azure_iot_sdk\uamqp\src/message_receiver.c ****             const char* my_name;
 488:Source\azure_iot_sdk\uamqp\src/message_receiver.c ****             if (link_get_name(message_receiver->link, &my_name) != 0)
 2024              		.loc 1 488 0
 2025 005e 03A9     		add	r1, sp, #12
 2026              	.LVL314:
 2027 0060 0068     		ldr	r0, [r0]
 2028              	.LVL315:
 2029 0062 FFF7FEFF 		bl	link_get_name
 2030              	.LVL316:
 2031 0066 0028     		cmp	r0, #0
 2032 0068 11D0     		beq	.L125
 2033              	.LBB59:
 489:Source\azure_iot_sdk\uamqp\src/message_receiver.c ****             {
 490:Source\azure_iot_sdk\uamqp\src/message_receiver.c ****                 LogError("Failed getting link name");
 2034              		.loc 1 490 0 discriminator 3
 2035 006a FFF7FEFF 		bl	xlogging_get_log_function
 2036              	.LVL317:
 2037 006e 041E     		subs	r4, r0, #0
 2038              	.LVL318:
 2039 0070 3ED0     		beq	.L130
 2040              		.loc 1 490 0 is_stmt 0 discriminator 4
 2041 0072 2C4B     		ldr	r3, .L134+16
ARM GAS  C:\Users\Phuong\AppData\Local\Temp\ccqGhR5Z.s 			page 48


 2042 0074 0193     		str	r3, [sp, #4]
 2043 0076 0123     		movs	r3, #1
 2044 0078 0093     		str	r3, [sp]
 2045 007a EA33     		adds	r3, r3, #234
 2046 007c FF33     		adds	r3, r3, #255
 2047 007e 264A     		ldr	r2, .L134+4
 2048 0080 6032     		adds	r2, r2, #96
 2049 0082 2649     		ldr	r1, .L134+8
 2050 0084 0020     		movs	r0, #0
 2051              	.LVL319:
 2052 0086 A047     		blx	r4
 2053              	.LVL320:
 2054              	.LBE59:
 491:Source\azure_iot_sdk\uamqp\src/message_receiver.c ****                 result = __FAILURE__;
 2055              		.loc 1 491 0 is_stmt 1 discriminator 4
 2056 0088 EC20     		movs	r0, #236
 2057 008a FF30     		adds	r0, r0, #255
 2058 008c 40E0     		b	.L123
 2059              	.LVL321:
 2060              	.L125:
 492:Source\azure_iot_sdk\uamqp\src/message_receiver.c ****             }
 493:Source\azure_iot_sdk\uamqp\src/message_receiver.c ****             else
 494:Source\azure_iot_sdk\uamqp\src/message_receiver.c ****             {
 495:Source\azure_iot_sdk\uamqp\src/message_receiver.c ****                 if (strcmp(link_name, my_name) != 0)
 2061              		.loc 1 495 0
 2062 008e 0399     		ldr	r1, [sp, #12]
 2063 0090 2800     		movs	r0, r5
 2064 0092 FFF7FEFF 		bl	strcmp
 2065              	.LVL322:
 2066 0096 0028     		cmp	r0, #0
 2067 0098 11D0     		beq	.L127
 2068              	.LBB60:
 496:Source\azure_iot_sdk\uamqp\src/message_receiver.c ****                 {
 497:Source\azure_iot_sdk\uamqp\src/message_receiver.c ****                     LogError("Link name does not match");
 2069              		.loc 1 497 0 discriminator 3
 2070 009a FFF7FEFF 		bl	xlogging_get_log_function
 2071              	.LVL323:
 2072 009e 041E     		subs	r4, r0, #0
 2073              	.LVL324:
 2074 00a0 29D0     		beq	.L131
 2075              		.loc 1 497 0 is_stmt 0 discriminator 4
 2076 00a2 214B     		ldr	r3, .L134+20
 2077 00a4 0193     		str	r3, [sp, #4]
 2078 00a6 0123     		movs	r3, #1
 2079 00a8 0093     		str	r3, [sp]
 2080 00aa F223     		movs	r3, #242
 2081 00ac FF33     		adds	r3, r3, #255
 2082 00ae 1A4A     		ldr	r2, .L134+4
 2083 00b0 6032     		adds	r2, r2, #96
 2084 00b2 1A49     		ldr	r1, .L134+8
 2085 00b4 0020     		movs	r0, #0
 2086              	.LVL325:
 2087 00b6 A047     		blx	r4
 2088              	.LVL326:
 2089              	.LBE60:
 498:Source\azure_iot_sdk\uamqp\src/message_receiver.c ****                     result = __FAILURE__;
 2090              		.loc 1 498 0 is_stmt 1 discriminator 4
ARM GAS  C:\Users\Phuong\AppData\Local\Temp\ccqGhR5Z.s 			page 49


 2091 00b8 F920     		movs	r0, #249
 2092 00ba 4000     		lsls	r0, r0, #1
 2093 00bc 28E0     		b	.L123
 2094              	.LVL327:
 2095              	.L127:
 499:Source\azure_iot_sdk\uamqp\src/message_receiver.c ****                 }
 500:Source\azure_iot_sdk\uamqp\src/message_receiver.c ****                 else
 501:Source\azure_iot_sdk\uamqp\src/message_receiver.c ****                 {
 502:Source\azure_iot_sdk\uamqp\src/message_receiver.c ****                     if (link_send_disposition(message_receiver->link, message_number, delivery_stat
 2096              		.loc 1 502 0
 2097 00be 2068     		ldr	r0, [r4]
 2098 00c0 3A00     		movs	r2, r7
 2099 00c2 3100     		movs	r1, r6
 2100 00c4 FFF7FEFF 		bl	link_send_disposition
 2101              	.LVL328:
 2102 00c8 0028     		cmp	r0, #0
 2103 00ca 17D0     		beq	.L132
 2104              	.LBB61:
 503:Source\azure_iot_sdk\uamqp\src/message_receiver.c ****                     {
 504:Source\azure_iot_sdk\uamqp\src/message_receiver.c ****                         LogError("Seding disposition failed");
 2105              		.loc 1 504 0 discriminator 3
 2106 00cc FFF7FEFF 		bl	xlogging_get_log_function
 2107              	.LVL329:
 2108 00d0 041E     		subs	r4, r0, #0
 2109              	.LVL330:
 2110 00d2 15D0     		beq	.L133
 2111              		.loc 1 504 0 is_stmt 0 discriminator 4
 2112 00d4 154B     		ldr	r3, .L134+24
 2113 00d6 0193     		str	r3, [sp, #4]
 2114 00d8 0123     		movs	r3, #1
 2115 00da 0093     		str	r3, [sp]
 2116 00dc F833     		adds	r3, r3, #248
 2117 00de FF33     		adds	r3, r3, #255
 2118 00e0 0D4A     		ldr	r2, .L134+4
 2119 00e2 6032     		adds	r2, r2, #96
 2120 00e4 0D49     		ldr	r1, .L134+8
 2121 00e6 0020     		movs	r0, #0
 2122              	.LVL331:
 2123 00e8 A047     		blx	r4
 2124              	.LVL332:
 2125              	.LBE61:
 505:Source\azure_iot_sdk\uamqp\src/message_receiver.c ****                         result = __FAILURE__;
 2126              		.loc 1 505 0 is_stmt 1 discriminator 4
 2127 00ea FA20     		movs	r0, #250
 2128 00ec FF30     		adds	r0, r0, #255
 2129 00ee 0FE0     		b	.L123
 2130              	.LVL333:
 2131              	.L130:
 491:Source\azure_iot_sdk\uamqp\src/message_receiver.c ****             }
 2132              		.loc 1 491 0
 2133 00f0 EC20     		movs	r0, #236
 2134              	.LVL334:
 2135 00f2 FF30     		adds	r0, r0, #255
 2136 00f4 0CE0     		b	.L123
 2137              	.LVL335:
 2138              	.L131:
 498:Source\azure_iot_sdk\uamqp\src/message_receiver.c ****                 }
ARM GAS  C:\Users\Phuong\AppData\Local\Temp\ccqGhR5Z.s 			page 50


 2139              		.loc 1 498 0
 2140 00f6 F920     		movs	r0, #249
 2141              	.LVL336:
 2142 00f8 4000     		lsls	r0, r0, #1
 2143 00fa 09E0     		b	.L123
 2144              	.LVL337:
 2145              	.L132:
 506:Source\azure_iot_sdk\uamqp\src/message_receiver.c ****                     }
 507:Source\azure_iot_sdk\uamqp\src/message_receiver.c ****                     else
 508:Source\azure_iot_sdk\uamqp\src/message_receiver.c ****                     {
 509:Source\azure_iot_sdk\uamqp\src/message_receiver.c ****                         result = 0;
 2146              		.loc 1 509 0
 2147 00fc 0020     		movs	r0, #0
 2148 00fe 07E0     		b	.L123
 2149              	.LVL338:
 2150              	.L133:
 505:Source\azure_iot_sdk\uamqp\src/message_receiver.c ****                     }
 2151              		.loc 1 505 0
 2152 0100 FA20     		movs	r0, #250
 2153              	.LVL339:
 2154 0102 FF30     		adds	r0, r0, #255
 2155              	.LVL340:
 2156 0104 04E0     		b	.L123
 2157              	.LVL341:
 2158              	.L128:
 2159              	.LBE58:
 476:Source\azure_iot_sdk\uamqp\src/message_receiver.c ****     }
 2160              		.loc 1 476 0
 2161 0106 EE20     		movs	r0, #238
 2162              	.LVL342:
 2163 0108 4000     		lsls	r0, r0, #1
 2164 010a 01E0     		b	.L123
 2165              	.LVL343:
 2166              	.L129:
 483:Source\azure_iot_sdk\uamqp\src/message_receiver.c ****         }
 2167              		.loc 1 483 0
 2168 010c E420     		movs	r0, #228
 2169              	.LVL344:
 2170 010e FF30     		adds	r0, r0, #255
 2171              	.LVL345:
 2172              	.L123:
 510:Source\azure_iot_sdk\uamqp\src/message_receiver.c ****                     }
 511:Source\azure_iot_sdk\uamqp\src/message_receiver.c ****                 }
 512:Source\azure_iot_sdk\uamqp\src/message_receiver.c ****             }
 513:Source\azure_iot_sdk\uamqp\src/message_receiver.c ****         }
 514:Source\azure_iot_sdk\uamqp\src/message_receiver.c ****     }
 515:Source\azure_iot_sdk\uamqp\src/message_receiver.c **** 
 516:Source\azure_iot_sdk\uamqp\src/message_receiver.c ****     return result;
 517:Source\azure_iot_sdk\uamqp\src/message_receiver.c **** }
 2173              		.loc 1 517 0
 2174 0110 05B0     		add	sp, sp, #20
 2175              		@ sp needed
 2176              	.LVL346:
 2177              	.LVL347:
 2178              	.LVL348:
 2179 0112 F0BD     		pop	{r4, r5, r6, r7, pc}
 2180              	.L135:
ARM GAS  C:\Users\Phuong\AppData\Local\Temp\ccqGhR5Z.s 			page 51


 2181              		.align	2
 2182              	.L134:
 2183 0114 04040000 		.word	.LC58
 2184 0118 80000000 		.word	.LANCHOR1
 2185 011c 00000000 		.word	.LC1
 2186 0120 84040000 		.word	.LC85
 2187 0124 A0040000 		.word	.LC87
 2188 0128 BC040000 		.word	.LC89
 2189 012c D8040000 		.word	.LC91
 2190              		.cfi_endproc
 2191              	.LFE11:
 2192              		.size	messagereceiver_send_message_disposition, .-messagereceiver_send_message_disposition
 2193              		.section	.text.messagereceiver_set_trace,"ax",%progbits
 2194              		.align	2
 2195              		.global	messagereceiver_set_trace
 2196              		.code	16
 2197              		.thumb_func
 2198              		.type	messagereceiver_set_trace, %function
 2199              	messagereceiver_set_trace:
 2200              	.LFB12:
 518:Source\azure_iot_sdk\uamqp\src/message_receiver.c **** 
 519:Source\azure_iot_sdk\uamqp\src/message_receiver.c **** void messagereceiver_set_trace(MESSAGE_RECEIVER_HANDLE message_receiver, bool trace_on)
 520:Source\azure_iot_sdk\uamqp\src/message_receiver.c **** {
 2201              		.loc 1 520 0
 2202              		.cfi_startproc
 2203              		@ args = 0, pretend = 0, frame = 0
 2204              		@ frame_needed = 0, uses_anonymous_args = 0
 2205              	.LVL349:
 2206 0000 10B5     		push	{r4, lr}
 2207              		.cfi_def_cfa_offset 8
 2208              		.cfi_offset 4, -8
 2209              		.cfi_offset 14, -4
 2210 0002 82B0     		sub	sp, sp, #8
 2211              		.cfi_def_cfa_offset 16
 521:Source\azure_iot_sdk\uamqp\src/message_receiver.c ****     if (message_receiver == NULL)
 2212              		.loc 1 521 0
 2213 0004 0028     		cmp	r0, #0
 2214 0006 0DD1     		bne	.L136
 2215              	.LBB62:
 522:Source\azure_iot_sdk\uamqp\src/message_receiver.c ****     {
 523:Source\azure_iot_sdk\uamqp\src/message_receiver.c ****         LogError("NULL message_receiver");
 2216              		.loc 1 523 0 discriminator 3
 2217 0008 FFF7FEFF 		bl	xlogging_get_log_function
 2218              	.LVL350:
 2219 000c 041E     		subs	r4, r0, #0
 2220              	.LVL351:
 2221 000e 09D0     		beq	.L136
 2222              		.loc 1 523 0 is_stmt 0 discriminator 4
 2223 0010 054B     		ldr	r3, .L138
 2224 0012 0193     		str	r3, [sp, #4]
 2225 0014 0123     		movs	r3, #1
 2226 0016 0093     		str	r3, [sp]
 2227 0018 044B     		ldr	r3, .L138+4
 2228 001a 054A     		ldr	r2, .L138+8
 2229 001c 0C32     		adds	r2, r2, #12
 2230 001e 0549     		ldr	r1, .L138+12
 2231 0020 0020     		movs	r0, #0
ARM GAS  C:\Users\Phuong\AppData\Local\Temp\ccqGhR5Z.s 			page 52


 2232              	.LVL352:
 2233 0022 A047     		blx	r4
 2234              	.LVL353:
 2235              	.L136:
 2236              	.LBE62:
 524:Source\azure_iot_sdk\uamqp\src/message_receiver.c ****     }
 525:Source\azure_iot_sdk\uamqp\src/message_receiver.c ****     else
 526:Source\azure_iot_sdk\uamqp\src/message_receiver.c ****     {
 527:Source\azure_iot_sdk\uamqp\src/message_receiver.c ****         /* No tracing is yet implemented for message receiver */
 528:Source\azure_iot_sdk\uamqp\src/message_receiver.c ****         (void)trace_on;
 529:Source\azure_iot_sdk\uamqp\src/message_receiver.c ****     }
 530:Source\azure_iot_sdk\uamqp\src/message_receiver.c **** }
 2237              		.loc 1 530 0 is_stmt 1
 2238 0024 02B0     		add	sp, sp, #8
 2239              		@ sp needed
 2240 0026 10BD     		pop	{r4, pc}
 2241              	.L139:
 2242              		.align	2
 2243              	.L138:
 2244 0028 04040000 		.word	.LC58
 2245 002c 0B020000 		.word	523
 2246 0030 00010000 		.word	.LANCHOR2
 2247 0034 00000000 		.word	.LC1
 2248              		.cfi_endproc
 2249              	.LFE12:
 2250              		.size	messagereceiver_set_trace, .-messagereceiver_set_trace
 2251              		.section	.rodata
 2252              		.align	2
 2253              		.set	.LANCHOR0,. + 0
 2254              		.set	.LANCHOR1,. + 128
 2255              		.set	.LANCHOR2,. + 256
 2256              		.type	__func__.8159, %object
 2257              		.size	__func__.8159, 21
 2258              	__func__.8159:
 2259 0000 6F6E5F74 		.ascii	"on_transfer_received\000"
 2259      72616E73 
 2259      6665725F 
 2259      72656365 
 2259      69766564 
 2260 0015 000000   		.space	3
 2261              		.type	__func__.8078, %object
 2262              		.size	__func__.8078, 30
 2263              	__func__.8078:
 2264 0018 6465636F 		.ascii	"decode_message_value_callback\000"
 2264      64655F6D 
 2264      65737361 
 2264      67655F76 
 2264      616C7565 
 2265 0036 0000     		.space	2
 2266              		.type	__func__.8190, %object
 2267              		.size	__func__.8190, 23
 2268              	__func__.8190:
 2269 0038 6D657373 		.ascii	"messagereceiver_create\000"
 2269      61676572 
 2269      65636569 
 2269      7665725F 
 2269      63726561 
ARM GAS  C:\Users\Phuong\AppData\Local\Temp\ccqGhR5Z.s 			page 53


 2270 004f 00       		.space	1
 2271              		.type	__func__.8207, %object
 2272              		.size	__func__.8207, 21
 2273              	__func__.8207:
 2274 0050 6D657373 		.ascii	"messagereceiver_open\000"
 2274      61676572 
 2274      65636569 
 2274      7665725F 
 2274      6F70656E 
 2275 0065 000000   		.space	3
 2276              		.type	__func__.8218, %object
 2277              		.size	__func__.8218, 22
 2278              	__func__.8218:
 2279 0068 6D657373 		.ascii	"messagereceiver_close\000"
 2279      61676572 
 2279      65636569 
 2279      7665725F 
 2279      636C6F73 
 2280 007e 0000     		.space	2
 2281              		.type	__func__.8197, %object
 2282              		.size	__func__.8197, 24
 2283              	__func__.8197:
 2284 0080 6D657373 		.ascii	"messagereceiver_destroy\000"
 2284      61676572 
 2284      65636569 
 2284      7665725F 
 2284      64657374 
 2285              		.type	__func__.8230, %object
 2286              		.size	__func__.8230, 30
 2287              	__func__.8230:
 2288 0098 6D657373 		.ascii	"messagereceiver_get_link_name\000"
 2288      61676572 
 2288      65636569 
 2288      7665725F 
 2288      6765745F 
 2289 00b6 0000     		.space	2
 2290              		.type	__func__.8242, %object
 2291              		.size	__func__.8242, 40
 2292              	__func__.8242:
 2293 00b8 6D657373 		.ascii	"messagereceiver_get_received_message_id\000"
 2293      61676572 
 2293      65636569 
 2293      7665725F 
 2293      6765745F 
 2294              		.type	__func__.8256, %object
 2295              		.size	__func__.8256, 41
 2296              	__func__.8256:
 2297 00e0 6D657373 		.ascii	"messagereceiver_send_message_disposition\000"
 2297      61676572 
 2297      65636569 
 2297      7665725F 
 2297      73656E64 
 2298 0109 000000   		.space	3
 2299              		.type	__func__.8277, %object
 2300              		.size	__func__.8277, 26
 2301              	__func__.8277:
 2302 010c 6D657373 		.ascii	"messagereceiver_set_trace\000"
ARM GAS  C:\Users\Phuong\AppData\Local\Temp\ccqGhR5Z.s 			page 54


 2302      61676572 
 2302      65636569 
 2302      7665725F 
 2302      7365745F 
 2303              		.section	.rodata.str1.4,"aMS",%progbits,1
 2304              		.align	2
 2305              	.LC1:
 2306 0000 536F7572 		.ascii	"Source\\azure_iot_sdk\\uamqp\\src\\message_receiver"
 2306      63655C61 
 2306      7A757265 
 2306      5F696F74 
 2306      5F73646B 
 2307 002f 2E6300   		.ascii	".c\000"
 2308 0032 0000     		.space	2
 2309              	.LC3:
 2310 0034 43616E6E 		.ascii	"Cannot create message\000"
 2310      6F742063 
 2310      72656174 
 2310      65206D65 
 2310      73736167 
 2311 004a 0000     		.space	2
 2312              	.LC6:
 2313 004c 43616E6E 		.ascii	"Cannot create AMQP value decoder\000"
 2313      6F742063 
 2313      72656174 
 2313      6520414D 
 2313      51502076 
 2314 006d 000000   		.space	3
 2315              	.LC8:
 2316 0070 43616E6E 		.ascii	"Cannot decode bytes\000"
 2316      6F742064 
 2316      65636F64 
 2316      65206279 
 2316      74657300 
 2317              	.LC10:
 2318 0084 4572726F 		.ascii	"Error decoding message\000"
 2318      72206465 
 2318      636F6469 
 2318      6E67206D 
 2318      65737361 
 2319 009b 00       		.space	1
 2320              	.LC14:
 2321 009c 4572726F 		.ascii	"Error setting application properties on received me"
 2321      72207365 
 2321      7474696E 
 2321      67206170 
 2321      706C6963 
 2322 00cf 73736167 		.ascii	"ssage\000"
 2322      6500
 2323 00d5 000000   		.space	3
 2324              	.LC16:
 2325 00d8 4572726F 		.ascii	"Error getting message properties\000"
 2325      72206765 
 2325      7474696E 
 2325      67206D65 
 2325      73736167 
 2326 00f9 000000   		.space	3
ARM GAS  C:\Users\Phuong\AppData\Local\Temp\ccqGhR5Z.s 			page 55


 2327              	.LC18:
 2328 00fc 4572726F 		.ascii	"Error setting message properties on received messag"
 2328      72207365 
 2328      7474696E 
 2328      67206D65 
 2328      73736167 
 2329 012f 6500     		.ascii	"e\000"
 2330 0131 000000   		.space	3
 2331              	.LC20:
 2332 0134 4572726F 		.ascii	"Error getting delivery annotations\000"
 2332      72206765 
 2332      7474696E 
 2332      67206465 
 2332      6C697665 
 2333 0157 00       		.space	1
 2334              	.LC22:
 2335 0158 4572726F 		.ascii	"Error setting delivery annotations on received mess"
 2335      72207365 
 2335      7474696E 
 2335      67206465 
 2335      6C697665 
 2336 018b 61676500 		.ascii	"age\000"
 2337 018f 00       		.space	1
 2338              	.LC24:
 2339 0190 4572726F 		.ascii	"Error getting message annotations\000"
 2339      72206765 
 2339      7474696E 
 2339      67206D65 
 2339      73736167 
 2340 01b2 0000     		.space	2
 2341              	.LC26:
 2342 01b4 4572726F 		.ascii	"Error setting message annotations on received messa"
 2342      72207365 
 2342      7474696E 
 2342      67206D65 
 2342      73736167 
 2343 01e7 676500   		.ascii	"ge\000"
 2344 01ea 0000     		.space	2
 2345              	.LC28:
 2346 01ec 4572726F 		.ascii	"Error getting message header\000"
 2346      72206765 
 2346      7474696E 
 2346      67206D65 
 2346      73736167 
 2347 0209 000000   		.space	3
 2348              	.LC30:
 2349 020c 4572726F 		.ascii	"Error setting message header on received message\000"
 2349      72207365 
 2349      7474696E 
 2349      67206D65 
 2349      73736167 
 2350 023d 000000   		.space	3
 2351              	.LC32:
 2352 0240 4572726F 		.ascii	"Error getting message footer\000"
 2352      72206765 
 2352      7474696E 
 2352      67206D65 
ARM GAS  C:\Users\Phuong\AppData\Local\Temp\ccqGhR5Z.s 			page 56


 2352      73736167 
 2353 025d 000000   		.space	3
 2354              	.LC34:
 2355 0260 4572726F 		.ascii	"Error setting message footer on received message\000"
 2355      72207365 
 2355      7474696E 
 2355      67206D65 
 2355      73736167 
 2356 0291 000000   		.space	3
 2357              	.LC36:
 2358 0294 4572726F 		.ascii	"Error getting message body type\000"
 2358      72206765 
 2358      7474696E 
 2358      67206D65 
 2358      73736167 
 2359              	.LC38:
 2360 02b4 426F6479 		.ascii	"Body already set on received message\000"
 2360      20616C72 
 2360      65616479 
 2360      20736574 
 2360      206F6E20 
 2361 02d9 000000   		.space	3
 2362              	.LC40:
 2363 02dc 4572726F 		.ascii	"Error getting body AMQP value\000"
 2363      72206765 
 2363      7474696E 
 2363      6720626F 
 2363      64792041 
 2364 02fa 0000     		.space	2
 2365              	.LC42:
 2366 02fc 4572726F 		.ascii	"Error setting body AMQP value on received message\000"
 2366      72207365 
 2366      7474696E 
 2366      6720626F 
 2366      64792041 
 2367 032e 0000     		.space	2
 2368              	.LC44:
 2369 0330 4D657373 		.ascii	"Message body type already set to something differen"
 2369      61676520 
 2369      626F6479 
 2369      20747970 
 2369      6520616C 
 2370 0363 74207468 		.ascii	"t than AMQP DATA\000"
 2370      616E2041 
 2370      4D515020 
 2370      44415441 
 2370      00
 2371              	.LC46:
 2372 0374 4572726F 		.ascii	"Error getting body DATA value\000"
 2372      72206765 
 2372      7474696E 
 2372      6720626F 
 2372      64792044 
 2373 0392 0000     		.space	2
 2374              	.LC48:
 2375 0394 4572726F 		.ascii	"Error getting body DATA AMQP value\000"
 2375      72206765 
ARM GAS  C:\Users\Phuong\AppData\Local\Temp\ccqGhR5Z.s 			page 57


 2375      7474696E 
 2375      6720626F 
 2375      64792044 
 2376 03b7 00       		.space	1
 2377              	.LC50:
 2378 03b8 4572726F 		.ascii	"Error adding body DATA to received message\000"
 2378      72206164 
 2378      64696E67 
 2378      20626F64 
 2378      79204441 
 2379 03e3 00       		.space	1
 2380              	.LC54:
 2381 03e4 4572726F 		.ascii	"Error creating message receiver\000"
 2381      72206372 
 2381      65617469 
 2381      6E67206D 
 2381      65737361 
 2382              	.LC58:
 2383 0404 4E554C4C 		.ascii	"NULL message_receiver\000"
 2383      206D6573 
 2383      73616765 
 2383      5F726563 
 2383      65697665 
 2384 041a 0000     		.space	2
 2385              	.LC62:
 2386 041c 4C696E6B 		.ascii	"Link attach failed\000"
 2386      20617474 
 2386      61636820 
 2386      6661696C 
 2386      656400
 2387 042f 00       		.space	1
 2388              	.LC67:
 2389 0430 6C696E6B 		.ascii	"link detach failed\000"
 2389      20646574 
 2389      61636820 
 2389      6661696C 
 2389      656400
 2390 0443 00       		.space	1
 2391              	.LC75:
 2392 0444 47657474 		.ascii	"Getting link name failed\000"
 2392      696E6720 
 2392      6C696E6B 
 2392      206E616D 
 2392      65206661 
 2393 045d 000000   		.space	3
 2394              	.LC80:
 2395 0460 4661696C 		.ascii	"Failed getting received message Id\000"
 2395      65642067 
 2395      65747469 
 2395      6E672072 
 2395      65636569 
 2396 0483 00       		.space	1
 2397              	.LC85:
 2398 0484 4D657373 		.ascii	"Message received not open\000"
 2398      61676520 
 2398      72656365 
 2398      69766564 
ARM GAS  C:\Users\Phuong\AppData\Local\Temp\ccqGhR5Z.s 			page 58


 2398      206E6F74 
 2399 049e 0000     		.space	2
 2400              	.LC87:
 2401 04a0 4661696C 		.ascii	"Failed getting link name\000"
 2401      65642067 
 2401      65747469 
 2401      6E67206C 
 2401      696E6B20 
 2402 04b9 000000   		.space	3
 2403              	.LC89:
 2404 04bc 4C696E6B 		.ascii	"Link name does not match\000"
 2404      206E616D 
 2404      6520646F 
 2404      6573206E 
 2404      6F74206D 
 2405 04d5 000000   		.space	3
 2406              	.LC91:
 2407 04d8 53656469 		.ascii	"Seding disposition failed\000"
 2407      6E672064 
 2407      6973706F 
 2407      73697469 
 2407      6F6E2066 
 2408              		.text
 2409              	.Letext0:
 2410              		.file 2 "c:\\program files (x86)\\cypress\\psoc creator\\4.2\\psoc creator\\import\\gnu\\arm\\5.4.
 2411              		.file 3 "c:\\program files (x86)\\cypress\\psoc creator\\4.2\\psoc creator\\import\\gnu\\arm\\5.4.
 2412              		.file 4 "c:\\program files (x86)\\cypress\\psoc creator\\4.2\\psoc creator\\import\\gnu\\arm\\5.4.
 2413              		.file 5 ".\\Source\\azure_iot_sdk\\c-utility\\inc/azure_c_shared_utility/xlogging.h"
 2414              		.file 6 ".\\Source\\azure_iot_sdk\\uamqp\\inc/azure_uamqp_c/amqpvalue.h"
 2415              		.file 7 ".\\Source\\azure_iot_sdk\\uamqp\\inc/azure_uamqp_c/amqp_definitions_sequence_no.h"
 2416              		.file 8 ".\\Source\\azure_iot_sdk\\uamqp\\inc/azure_uamqp_c/amqp_definitions_delivery_number.h"
 2417              		.file 9 ".\\Source\\azure_iot_sdk\\uamqp\\inc/azure_uamqp_c/amqp_definitions_transfer.h"
 2418              		.file 10 ".\\Source\\azure_iot_sdk\\uamqp\\inc/azure_uamqp_c/link.h"
 2419              		.file 11 ".\\Source\\azure_iot_sdk\\uamqp\\inc/azure_uamqp_c/amqp_definitions_annotations.h"
 2420              		.file 12 ".\\Source\\azure_iot_sdk\\uamqp\\inc/azure_uamqp_c/amqp_definitions_header.h"
 2421              		.file 13 ".\\Source\\azure_iot_sdk\\uamqp\\inc/azure_uamqp_c/amqp_definitions_data.h"
 2422              		.file 14 ".\\Source\\azure_iot_sdk\\uamqp\\inc/azure_uamqp_c/amqp_definitions_properties.h"
 2423              		.file 15 ".\\Source\\azure_iot_sdk\\uamqp\\inc/azure_uamqp_c/message.h"
 2424              		.file 16 ".\\Source\\azure_iot_sdk\\uamqp\\inc/azure_uamqp_c/message_receiver.h"
 2425              		.file 17 ".\\Source\\azure_iot_sdk\\uamqp\\inc/azure_uamqp_c/amqp_definitions_application_properti
 2426              		.file 18 ".\\Source\\azure_iot_sdk\\uamqp\\inc/azure_uamqp_c/amqp_definitions_delivery_annotations
 2427              		.file 19 ".\\Source\\azure_iot_sdk\\uamqp\\inc/azure_uamqp_c/amqp_definitions_message_annotations.
 2428              		.file 20 ".\\Source\\azure_iot_sdk\\uamqp\\inc/azure_uamqp_c/amqp_definitions_footer.h"
 2429              		.file 21 ".\\Source\\azure_iot_sdk\\uamqp\\inc/azure_uamqp_c/amqp_definitions_amqp_value.h"
 2430              		.file 22 "c:\\program files (x86)\\cypress\\psoc creator\\4.2\\psoc creator\\import\\gnu\\arm\\5.4
 2431              		.file 23 "c:\\program files (x86)\\cypress\\psoc creator\\4.2\\psoc creator\\import\\gnu\\arm\\5.4