ARM GAS  C:\Users\Phuong\AppData\Local\Temp\ccqGhR5Z.s 			page 1


   1              		.syntax unified
   2              		.cpu cortex-m0plus
   3              		.fpu softvfp
   4              		.eabi_attribute 20, 1
   5              		.eabi_attribute 21, 1
   6              		.eabi_attribute 23, 3
   7              		.eabi_attribute 24, 1
   8              		.eabi_attribute 25, 1
   9              		.eabi_attribute 26, 1
  10              		.eabi_attribute 30, 1
  11              		.eabi_attribute 34, 0
  12              		.eabi_attribute 18, 4
  13              		.thumb
  14              		.syntax unified
  15              		.file	"message_receiver.c"
  16              		.text
  17              	.Ltext0:
  18              		.cfi_sections	.debug_frame
  19              		.section	.text.set_message_receiver_state,"ax",%progbits
  20              		.align	2
  21              		.code	16
  22              		.thumb_func
  23              		.type	set_message_receiver_state, %function
  24              	set_message_receiver_state:
  25              	.LFB1:
  26              		.file 1 "Source\\azure_iot_sdk\\uamqp\\src\\message_receiver.c"
   1:Source\azure_iot_sdk\uamqp\src/message_receiver.c **** // Copyright (c) Microsoft. All rights reserved.
   2:Source\azure_iot_sdk\uamqp\src/message_receiver.c **** // Licensed under the MIT license. See LICENSE file in the project root for full license informatio
   3:Source\azure_iot_sdk\uamqp\src/message_receiver.c **** 
   4:Source\azure_iot_sdk\uamqp\src/message_receiver.c **** #include <stdlib.h>
   5:Source\azure_iot_sdk\uamqp\src/message_receiver.c **** 
   6:Source\azure_iot_sdk\uamqp\src/message_receiver.c **** #include "azure_c_shared_utility/optimize_size.h"
   7:Source\azure_iot_sdk\uamqp\src/message_receiver.c **** #include "azure_c_shared_utility/gballoc.h"
   8:Source\azure_iot_sdk\uamqp\src/message_receiver.c **** #include "azure_c_shared_utility/xlogging.h"
   9:Source\azure_iot_sdk\uamqp\src/message_receiver.c **** #include "azure_uamqp_c/link.h"
  10:Source\azure_iot_sdk\uamqp\src/message_receiver.c **** #include "azure_uamqp_c/amqp_definitions.h"
  11:Source\azure_iot_sdk\uamqp\src/message_receiver.c **** #include "azure_uamqp_c/message.h"
  12:Source\azure_iot_sdk\uamqp\src/message_receiver.c **** #include "azure_uamqp_c/message_receiver.h"
  13:Source\azure_iot_sdk\uamqp\src/message_receiver.c **** #include "azure_uamqp_c/amqpvalue.h"
  14:Source\azure_iot_sdk\uamqp\src/message_receiver.c **** 
  15:Source\azure_iot_sdk\uamqp\src/message_receiver.c **** typedef struct MESSAGE_RECEIVER_INSTANCE_TAG
  16:Source\azure_iot_sdk\uamqp\src/message_receiver.c **** {
  17:Source\azure_iot_sdk\uamqp\src/message_receiver.c ****     LINK_HANDLE link;
  18:Source\azure_iot_sdk\uamqp\src/message_receiver.c ****     ON_MESSAGE_RECEIVED on_message_received;
  19:Source\azure_iot_sdk\uamqp\src/message_receiver.c ****     ON_MESSAGE_RECEIVER_STATE_CHANGED on_message_receiver_state_changed;
  20:Source\azure_iot_sdk\uamqp\src/message_receiver.c ****     MESSAGE_RECEIVER_STATE message_receiver_state;
  21:Source\azure_iot_sdk\uamqp\src/message_receiver.c ****     const void* on_message_receiver_state_changed_context;
  22:Source\azure_iot_sdk\uamqp\src/message_receiver.c ****     const void* callback_context;
  23:Source\azure_iot_sdk\uamqp\src/message_receiver.c ****     MESSAGE_HANDLE decoded_message;
  24:Source\azure_iot_sdk\uamqp\src/message_receiver.c ****     bool decode_error;
  25:Source\azure_iot_sdk\uamqp\src/message_receiver.c **** } MESSAGE_RECEIVER_INSTANCE;
  26:Source\azure_iot_sdk\uamqp\src/message_receiver.c **** 
  27:Source\azure_iot_sdk\uamqp\src/message_receiver.c **** static void set_message_receiver_state(MESSAGE_RECEIVER_INSTANCE* message_receiver, MESSAGE_RECEIVE
  28:Source\azure_iot_sdk\uamqp\src/message_receiver.c **** {
  27              		.loc 1 28 0
  28              		.cfi_startproc
  29              		@ args = 0, pretend = 0, frame = 0
ARM GAS  C:\Users\Phuong\AppData\Local\Temp\ccqGhR5Z.s 			page 2


  30              		@ frame_needed = 0, uses_anonymous_args = 0
  31              	.LVL0:
  32 0000 10B5     		push	{r4, lr}
  33              		.cfi_def_cfa_offset 8
  34              		.cfi_offset 4, -8
  35              		.cfi_offset 14, -4
  29:Source\azure_iot_sdk\uamqp\src/message_receiver.c ****     MESSAGE_RECEIVER_STATE previous_state = message_receiver->message_receiver_state;
  36              		.loc 1 29 0
  37 0002 027B     		ldrb	r2, [r0, #12]
  38              	.LVL1:
  30:Source\azure_iot_sdk\uamqp\src/message_receiver.c ****     message_receiver->message_receiver_state = new_state;
  39              		.loc 1 30 0
  40 0004 0173     		strb	r1, [r0, #12]
  31:Source\azure_iot_sdk\uamqp\src/message_receiver.c ****     if (message_receiver->on_message_receiver_state_changed != NULL)
  41              		.loc 1 31 0
  42 0006 8368     		ldr	r3, [r0, #8]
  43 0008 002B     		cmp	r3, #0
  44 000a 01D0     		beq	.L1
  32:Source\azure_iot_sdk\uamqp\src/message_receiver.c ****     {
  33:Source\azure_iot_sdk\uamqp\src/message_receiver.c ****         message_receiver->on_message_receiver_state_changed(message_receiver->on_message_receiver_s
  45              		.loc 1 33 0
  46 000c 0069     		ldr	r0, [r0, #16]
  47              	.LVL2:
  48 000e 9847     		blx	r3
  49              	.LVL3:
  50              	.L1:
  34:Source\azure_iot_sdk\uamqp\src/message_receiver.c ****     }
  35:Source\azure_iot_sdk\uamqp\src/message_receiver.c **** }
  51              		.loc 1 35 0
  52              		@ sp needed
  53 0010 10BD     		pop	{r4, pc}
  54              		.cfi_endproc
  55              	.LFE1:
  56              		.size	set_message_receiver_state, .-set_message_receiver_state
  57 0012 C046     		.section	.text.on_link_state_changed,"ax",%progbits
  58              		.align	2
  59              		.code	16
  60              		.thumb_func
  61              		.type	on_link_state_changed, %function
  62              	on_link_state_changed:
  63              	.LFB4:
  36:Source\azure_iot_sdk\uamqp\src/message_receiver.c **** 
  37:Source\azure_iot_sdk\uamqp\src/message_receiver.c **** static void decode_message_value_callback(void* context, AMQP_VALUE decoded_value)
  38:Source\azure_iot_sdk\uamqp\src/message_receiver.c **** {
  39:Source\azure_iot_sdk\uamqp\src/message_receiver.c ****     MESSAGE_RECEIVER_INSTANCE* message_receiver = (MESSAGE_RECEIVER_INSTANCE*)context;
  40:Source\azure_iot_sdk\uamqp\src/message_receiver.c ****     MESSAGE_HANDLE decoded_message = message_receiver->decoded_message;
  41:Source\azure_iot_sdk\uamqp\src/message_receiver.c ****     AMQP_VALUE descriptor = amqpvalue_get_inplace_descriptor(decoded_value);
  42:Source\azure_iot_sdk\uamqp\src/message_receiver.c **** 
  43:Source\azure_iot_sdk\uamqp\src/message_receiver.c ****     if (is_application_properties_type_by_descriptor(descriptor))
  44:Source\azure_iot_sdk\uamqp\src/message_receiver.c ****     {
  45:Source\azure_iot_sdk\uamqp\src/message_receiver.c ****         if (message_set_application_properties(decoded_message, decoded_value) != 0)
  46:Source\azure_iot_sdk\uamqp\src/message_receiver.c ****         {
  47:Source\azure_iot_sdk\uamqp\src/message_receiver.c ****             LogError("Error setting application properties on received message");
  48:Source\azure_iot_sdk\uamqp\src/message_receiver.c ****             message_receiver->decode_error = true;
  49:Source\azure_iot_sdk\uamqp\src/message_receiver.c ****         }
  50:Source\azure_iot_sdk\uamqp\src/message_receiver.c ****     }
  51:Source\azure_iot_sdk\uamqp\src/message_receiver.c ****     else if (is_properties_type_by_descriptor(descriptor))
ARM GAS  C:\Users\Phuong\AppData\Local\Temp\ccqGhR5Z.s 			page 3


  52:Source\azure_iot_sdk\uamqp\src/message_receiver.c ****     {
  53:Source\azure_iot_sdk\uamqp\src/message_receiver.c ****         PROPERTIES_HANDLE properties;
  54:Source\azure_iot_sdk\uamqp\src/message_receiver.c ****         if (amqpvalue_get_properties(decoded_value, &properties) != 0)
  55:Source\azure_iot_sdk\uamqp\src/message_receiver.c ****         {
  56:Source\azure_iot_sdk\uamqp\src/message_receiver.c ****             LogError("Error getting message properties");
  57:Source\azure_iot_sdk\uamqp\src/message_receiver.c ****             message_receiver->decode_error = true;
  58:Source\azure_iot_sdk\uamqp\src/message_receiver.c ****         }
  59:Source\azure_iot_sdk\uamqp\src/message_receiver.c ****         else
  60:Source\azure_iot_sdk\uamqp\src/message_receiver.c ****         {
  61:Source\azure_iot_sdk\uamqp\src/message_receiver.c ****             if (message_set_properties(decoded_message, properties) != 0)
  62:Source\azure_iot_sdk\uamqp\src/message_receiver.c ****             {
  63:Source\azure_iot_sdk\uamqp\src/message_receiver.c ****                 LogError("Error setting message properties on received message");
  64:Source\azure_iot_sdk\uamqp\src/message_receiver.c ****                 message_receiver->decode_error = true;
  65:Source\azure_iot_sdk\uamqp\src/message_receiver.c ****             }
  66:Source\azure_iot_sdk\uamqp\src/message_receiver.c **** 
  67:Source\azure_iot_sdk\uamqp\src/message_receiver.c ****             properties_destroy(properties);
  68:Source\azure_iot_sdk\uamqp\src/message_receiver.c ****         }
  69:Source\azure_iot_sdk\uamqp\src/message_receiver.c ****     }
  70:Source\azure_iot_sdk\uamqp\src/message_receiver.c ****     else if (is_delivery_annotations_type_by_descriptor(descriptor))
  71:Source\azure_iot_sdk\uamqp\src/message_receiver.c ****     {
  72:Source\azure_iot_sdk\uamqp\src/message_receiver.c ****         annotations delivery_annotations = amqpvalue_get_inplace_described_value(decoded_value);
  73:Source\azure_iot_sdk\uamqp\src/message_receiver.c ****         if (delivery_annotations == NULL)
  74:Source\azure_iot_sdk\uamqp\src/message_receiver.c ****         {
  75:Source\azure_iot_sdk\uamqp\src/message_receiver.c ****             LogError("Error getting delivery annotations");
  76:Source\azure_iot_sdk\uamqp\src/message_receiver.c ****             message_receiver->decode_error = true;
  77:Source\azure_iot_sdk\uamqp\src/message_receiver.c ****         }
  78:Source\azure_iot_sdk\uamqp\src/message_receiver.c ****         else
  79:Source\azure_iot_sdk\uamqp\src/message_receiver.c ****         {
  80:Source\azure_iot_sdk\uamqp\src/message_receiver.c ****             if (message_set_delivery_annotations(decoded_message, delivery_annotations) != 0)
  81:Source\azure_iot_sdk\uamqp\src/message_receiver.c ****             {
  82:Source\azure_iot_sdk\uamqp\src/message_receiver.c ****                 LogError("Error setting delivery annotations on received message");
  83:Source\azure_iot_sdk\uamqp\src/message_receiver.c ****                 message_receiver->decode_error = true;
  84:Source\azure_iot_sdk\uamqp\src/message_receiver.c ****             }
  85:Source\azure_iot_sdk\uamqp\src/message_receiver.c ****         }
  86:Source\azure_iot_sdk\uamqp\src/message_receiver.c ****     }
  87:Source\azure_iot_sdk\uamqp\src/message_receiver.c ****     else if (is_message_annotations_type_by_descriptor(descriptor))
  88:Source\azure_iot_sdk\uamqp\src/message_receiver.c ****     {
  89:Source\azure_iot_sdk\uamqp\src/message_receiver.c ****         annotations message_annotations = amqpvalue_get_inplace_described_value(decoded_value);
  90:Source\azure_iot_sdk\uamqp\src/message_receiver.c ****         if (message_annotations == NULL)
  91:Source\azure_iot_sdk\uamqp\src/message_receiver.c ****         {
  92:Source\azure_iot_sdk\uamqp\src/message_receiver.c ****             LogError("Error getting message annotations");
  93:Source\azure_iot_sdk\uamqp\src/message_receiver.c ****             message_receiver->decode_error = true;
  94:Source\azure_iot_sdk\uamqp\src/message_receiver.c ****         }
  95:Source\azure_iot_sdk\uamqp\src/message_receiver.c ****         else
  96:Source\azure_iot_sdk\uamqp\src/message_receiver.c ****         {
  97:Source\azure_iot_sdk\uamqp\src/message_receiver.c ****             if (message_set_message_annotations(decoded_message, message_annotations) != 0)
  98:Source\azure_iot_sdk\uamqp\src/message_receiver.c ****             {
  99:Source\azure_iot_sdk\uamqp\src/message_receiver.c ****                 LogError("Error setting message annotations on received message");
 100:Source\azure_iot_sdk\uamqp\src/message_receiver.c ****                 message_receiver->decode_error = true;
 101:Source\azure_iot_sdk\uamqp\src/message_receiver.c ****             }
 102:Source\azure_iot_sdk\uamqp\src/message_receiver.c ****         }
 103:Source\azure_iot_sdk\uamqp\src/message_receiver.c ****     }
 104:Source\azure_iot_sdk\uamqp\src/message_receiver.c ****     else if (is_header_type_by_descriptor(descriptor))
 105:Source\azure_iot_sdk\uamqp\src/message_receiver.c ****     {
 106:Source\azure_iot_sdk\uamqp\src/message_receiver.c ****         HEADER_HANDLE header;
 107:Source\azure_iot_sdk\uamqp\src/message_receiver.c ****         if (amqpvalue_get_header(decoded_value, &header) != 0)
 108:Source\azure_iot_sdk\uamqp\src/message_receiver.c ****         {
ARM GAS  C:\Users\Phuong\AppData\Local\Temp\ccqGhR5Z.s 			page 4


 109:Source\azure_iot_sdk\uamqp\src/message_receiver.c ****             LogError("Error getting message header");
 110:Source\azure_iot_sdk\uamqp\src/message_receiver.c ****             message_receiver->decode_error = true;
 111:Source\azure_iot_sdk\uamqp\src/message_receiver.c ****         }
 112:Source\azure_iot_sdk\uamqp\src/message_receiver.c ****         else
 113:Source\azure_iot_sdk\uamqp\src/message_receiver.c ****         {
 114:Source\azure_iot_sdk\uamqp\src/message_receiver.c ****             if (message_set_header(decoded_message, header) != 0)
 115:Source\azure_iot_sdk\uamqp\src/message_receiver.c ****             {
 116:Source\azure_iot_sdk\uamqp\src/message_receiver.c ****                 LogError("Error setting message header on received message");
 117:Source\azure_iot_sdk\uamqp\src/message_receiver.c ****                 message_receiver->decode_error = true;
 118:Source\azure_iot_sdk\uamqp\src/message_receiver.c ****             }
 119:Source\azure_iot_sdk\uamqp\src/message_receiver.c **** 
 120:Source\azure_iot_sdk\uamqp\src/message_receiver.c ****             header_destroy(header);
 121:Source\azure_iot_sdk\uamqp\src/message_receiver.c ****         }
 122:Source\azure_iot_sdk\uamqp\src/message_receiver.c ****     }
 123:Source\azure_iot_sdk\uamqp\src/message_receiver.c ****     else if (is_footer_type_by_descriptor(descriptor))
 124:Source\azure_iot_sdk\uamqp\src/message_receiver.c ****     {
 125:Source\azure_iot_sdk\uamqp\src/message_receiver.c ****         annotations footer = amqpvalue_get_inplace_described_value(decoded_value);
 126:Source\azure_iot_sdk\uamqp\src/message_receiver.c ****         if (footer == NULL)
 127:Source\azure_iot_sdk\uamqp\src/message_receiver.c ****         {
 128:Source\azure_iot_sdk\uamqp\src/message_receiver.c ****             LogError("Error getting message footer");
 129:Source\azure_iot_sdk\uamqp\src/message_receiver.c ****             message_receiver->decode_error = true;
 130:Source\azure_iot_sdk\uamqp\src/message_receiver.c ****         }
 131:Source\azure_iot_sdk\uamqp\src/message_receiver.c ****         else
 132:Source\azure_iot_sdk\uamqp\src/message_receiver.c ****         {
 133:Source\azure_iot_sdk\uamqp\src/message_receiver.c ****             if (message_set_footer(decoded_message, footer) != 0)
 134:Source\azure_iot_sdk\uamqp\src/message_receiver.c ****             {
 135:Source\azure_iot_sdk\uamqp\src/message_receiver.c ****                 LogError("Error setting message footer on received message");
 136:Source\azure_iot_sdk\uamqp\src/message_receiver.c ****                 message_receiver->decode_error = true;
 137:Source\azure_iot_sdk\uamqp\src/message_receiver.c ****             }
 138:Source\azure_iot_sdk\uamqp\src/message_receiver.c ****         }
 139:Source\azure_iot_sdk\uamqp\src/message_receiver.c ****     }
 140:Source\azure_iot_sdk\uamqp\src/message_receiver.c ****     else if (is_amqp_value_type_by_descriptor(descriptor))
 141:Source\azure_iot_sdk\uamqp\src/message_receiver.c ****     {
 142:Source\azure_iot_sdk\uamqp\src/message_receiver.c ****         MESSAGE_BODY_TYPE body_type;
 143:Source\azure_iot_sdk\uamqp\src/message_receiver.c ****         if (message_get_body_type(decoded_message, &body_type) != 0)
 144:Source\azure_iot_sdk\uamqp\src/message_receiver.c ****         {
 145:Source\azure_iot_sdk\uamqp\src/message_receiver.c ****             LogError("Error getting message body type");
 146:Source\azure_iot_sdk\uamqp\src/message_receiver.c ****             message_receiver->decode_error = true;
 147:Source\azure_iot_sdk\uamqp\src/message_receiver.c ****         }
 148:Source\azure_iot_sdk\uamqp\src/message_receiver.c ****         else
 149:Source\azure_iot_sdk\uamqp\src/message_receiver.c ****         {
 150:Source\azure_iot_sdk\uamqp\src/message_receiver.c ****             if (body_type != MESSAGE_BODY_TYPE_NONE)
 151:Source\azure_iot_sdk\uamqp\src/message_receiver.c ****             {
 152:Source\azure_iot_sdk\uamqp\src/message_receiver.c ****                 LogError("Body already set on received message");
 153:Source\azure_iot_sdk\uamqp\src/message_receiver.c ****                 message_receiver->decode_error = true;
 154:Source\azure_iot_sdk\uamqp\src/message_receiver.c ****             }
 155:Source\azure_iot_sdk\uamqp\src/message_receiver.c ****             else
 156:Source\azure_iot_sdk\uamqp\src/message_receiver.c ****             {
 157:Source\azure_iot_sdk\uamqp\src/message_receiver.c ****                 AMQP_VALUE body_amqp_value = amqpvalue_get_inplace_described_value(decoded_value);
 158:Source\azure_iot_sdk\uamqp\src/message_receiver.c ****                 if (body_amqp_value == NULL)
 159:Source\azure_iot_sdk\uamqp\src/message_receiver.c ****                 {
 160:Source\azure_iot_sdk\uamqp\src/message_receiver.c ****                     LogError("Error getting body AMQP value");
 161:Source\azure_iot_sdk\uamqp\src/message_receiver.c ****                     message_receiver->decode_error = true;
 162:Source\azure_iot_sdk\uamqp\src/message_receiver.c ****                 }
 163:Source\azure_iot_sdk\uamqp\src/message_receiver.c ****                 else
 164:Source\azure_iot_sdk\uamqp\src/message_receiver.c ****                 {
 165:Source\azure_iot_sdk\uamqp\src/message_receiver.c ****                     if (message_set_body_amqp_value(decoded_message, body_amqp_value) != 0)
ARM GAS  C:\Users\Phuong\AppData\Local\Temp\ccqGhR5Z.s 			page 5


 166:Source\azure_iot_sdk\uamqp\src/message_receiver.c ****                     {
 167:Source\azure_iot_sdk\uamqp\src/message_receiver.c ****                         LogError("Error setting body AMQP value on received message");
 168:Source\azure_iot_sdk\uamqp\src/message_receiver.c ****                         message_receiver->decode_error = true;
 169:Source\azure_iot_sdk\uamqp\src/message_receiver.c ****                     }
 170:Source\azure_iot_sdk\uamqp\src/message_receiver.c ****                 }
 171:Source\azure_iot_sdk\uamqp\src/message_receiver.c ****             }
 172:Source\azure_iot_sdk\uamqp\src/message_receiver.c ****         }
 173:Source\azure_iot_sdk\uamqp\src/message_receiver.c ****     }
 174:Source\azure_iot_sdk\uamqp\src/message_receiver.c ****     else if (is_data_type_by_descriptor(descriptor))
 175:Source\azure_iot_sdk\uamqp\src/message_receiver.c ****     {
 176:Source\azure_iot_sdk\uamqp\src/message_receiver.c ****         MESSAGE_BODY_TYPE body_type;
 177:Source\azure_iot_sdk\uamqp\src/message_receiver.c ****         if (message_get_body_type(decoded_message, &body_type) != 0)
 178:Source\azure_iot_sdk\uamqp\src/message_receiver.c ****         {
 179:Source\azure_iot_sdk\uamqp\src/message_receiver.c ****             LogError("Error getting message body type");
 180:Source\azure_iot_sdk\uamqp\src/message_receiver.c ****             message_receiver->decode_error = true;
 181:Source\azure_iot_sdk\uamqp\src/message_receiver.c ****         }
 182:Source\azure_iot_sdk\uamqp\src/message_receiver.c ****         else
 183:Source\azure_iot_sdk\uamqp\src/message_receiver.c ****         {
 184:Source\azure_iot_sdk\uamqp\src/message_receiver.c ****             if ((body_type != MESSAGE_BODY_TYPE_NONE) &&
 185:Source\azure_iot_sdk\uamqp\src/message_receiver.c ****                 (body_type != MESSAGE_BODY_TYPE_DATA))
 186:Source\azure_iot_sdk\uamqp\src/message_receiver.c ****             {
 187:Source\azure_iot_sdk\uamqp\src/message_receiver.c ****                 LogError("Message body type already set to something different than AMQP DATA");
 188:Source\azure_iot_sdk\uamqp\src/message_receiver.c ****                 message_receiver->decode_error = true;
 189:Source\azure_iot_sdk\uamqp\src/message_receiver.c ****             }
 190:Source\azure_iot_sdk\uamqp\src/message_receiver.c ****             else
 191:Source\azure_iot_sdk\uamqp\src/message_receiver.c ****             {
 192:Source\azure_iot_sdk\uamqp\src/message_receiver.c ****                 AMQP_VALUE body_data_value = amqpvalue_get_inplace_described_value(decoded_value);
 193:Source\azure_iot_sdk\uamqp\src/message_receiver.c ****                 if (body_data_value == NULL)
 194:Source\azure_iot_sdk\uamqp\src/message_receiver.c ****                 {
 195:Source\azure_iot_sdk\uamqp\src/message_receiver.c ****                     LogError("Error getting body DATA value");
 196:Source\azure_iot_sdk\uamqp\src/message_receiver.c ****                     message_receiver->decode_error = true;
 197:Source\azure_iot_sdk\uamqp\src/message_receiver.c ****                 }
 198:Source\azure_iot_sdk\uamqp\src/message_receiver.c ****                 else
 199:Source\azure_iot_sdk\uamqp\src/message_receiver.c ****                 {
 200:Source\azure_iot_sdk\uamqp\src/message_receiver.c ****                     data data_value;
 201:Source\azure_iot_sdk\uamqp\src/message_receiver.c ****                     if (amqpvalue_get_data(body_data_value, &data_value) != 0)
 202:Source\azure_iot_sdk\uamqp\src/message_receiver.c ****                     {
 203:Source\azure_iot_sdk\uamqp\src/message_receiver.c ****                         LogError("Error getting body DATA AMQP value");
 204:Source\azure_iot_sdk\uamqp\src/message_receiver.c ****                         message_receiver->decode_error = true;
 205:Source\azure_iot_sdk\uamqp\src/message_receiver.c ****                     }
 206:Source\azure_iot_sdk\uamqp\src/message_receiver.c ****                     else
 207:Source\azure_iot_sdk\uamqp\src/message_receiver.c ****                     {
 208:Source\azure_iot_sdk\uamqp\src/message_receiver.c ****                         BINARY_DATA binary_data;
 209:Source\azure_iot_sdk\uamqp\src/message_receiver.c ****                         binary_data.bytes = (const unsigned char*)data_value.bytes;
 210:Source\azure_iot_sdk\uamqp\src/message_receiver.c ****                         binary_data.length = data_value.length;
 211:Source\azure_iot_sdk\uamqp\src/message_receiver.c ****                         if (message_add_body_amqp_data(decoded_message, binary_data) != 0)
 212:Source\azure_iot_sdk\uamqp\src/message_receiver.c ****                         {
 213:Source\azure_iot_sdk\uamqp\src/message_receiver.c ****                             LogError("Error adding body DATA to received message");
 214:Source\azure_iot_sdk\uamqp\src/message_receiver.c ****                             message_receiver->decode_error = true;
 215:Source\azure_iot_sdk\uamqp\src/message_receiver.c ****                         }
 216:Source\azure_iot_sdk\uamqp\src/message_receiver.c ****                     }
 217:Source\azure_iot_sdk\uamqp\src/message_receiver.c ****                 }
 218:Source\azure_iot_sdk\uamqp\src/message_receiver.c ****             }
 219:Source\azure_iot_sdk\uamqp\src/message_receiver.c ****         }
 220:Source\azure_iot_sdk\uamqp\src/message_receiver.c ****     }
 221:Source\azure_iot_sdk\uamqp\src/message_receiver.c **** }
 222:Source\azure_iot_sdk\uamqp\src/message_receiver.c **** 
ARM GAS  C:\Users\Phuong\AppData\Local\Temp\ccqGhR5Z.s 			page 6


 223:Source\azure_iot_sdk\uamqp\src/message_receiver.c **** static AMQP_VALUE on_transfer_received(void* context, TRANSFER_HANDLE transfer, uint32_t payload_si
 224:Source\azure_iot_sdk\uamqp\src/message_receiver.c **** {
 225:Source\azure_iot_sdk\uamqp\src/message_receiver.c ****     AMQP_VALUE result = NULL;
 226:Source\azure_iot_sdk\uamqp\src/message_receiver.c ****     MESSAGE_RECEIVER_INSTANCE* message_receiver = (MESSAGE_RECEIVER_INSTANCE*)context;
 227:Source\azure_iot_sdk\uamqp\src/message_receiver.c **** 
 228:Source\azure_iot_sdk\uamqp\src/message_receiver.c ****     (void)transfer;
 229:Source\azure_iot_sdk\uamqp\src/message_receiver.c ****     if (message_receiver->on_message_received != NULL)
 230:Source\azure_iot_sdk\uamqp\src/message_receiver.c ****     {
 231:Source\azure_iot_sdk\uamqp\src/message_receiver.c ****         MESSAGE_HANDLE message = message_create();
 232:Source\azure_iot_sdk\uamqp\src/message_receiver.c ****         if (message == NULL)
 233:Source\azure_iot_sdk\uamqp\src/message_receiver.c ****         {
 234:Source\azure_iot_sdk\uamqp\src/message_receiver.c ****             LogError("Cannot create message");
 235:Source\azure_iot_sdk\uamqp\src/message_receiver.c ****             set_message_receiver_state(message_receiver, MESSAGE_RECEIVER_STATE_ERROR);
 236:Source\azure_iot_sdk\uamqp\src/message_receiver.c ****         }
 237:Source\azure_iot_sdk\uamqp\src/message_receiver.c ****         else
 238:Source\azure_iot_sdk\uamqp\src/message_receiver.c ****         {
 239:Source\azure_iot_sdk\uamqp\src/message_receiver.c ****             AMQPVALUE_DECODER_HANDLE amqpvalue_decoder = amqpvalue_decoder_create(decode_message_va
 240:Source\azure_iot_sdk\uamqp\src/message_receiver.c ****             if (amqpvalue_decoder == NULL)
 241:Source\azure_iot_sdk\uamqp\src/message_receiver.c ****             {
 242:Source\azure_iot_sdk\uamqp\src/message_receiver.c ****                 LogError("Cannot create AMQP value decoder");
 243:Source\azure_iot_sdk\uamqp\src/message_receiver.c ****                 set_message_receiver_state(message_receiver, MESSAGE_RECEIVER_STATE_ERROR);
 244:Source\azure_iot_sdk\uamqp\src/message_receiver.c ****             }
 245:Source\azure_iot_sdk\uamqp\src/message_receiver.c ****             else
 246:Source\azure_iot_sdk\uamqp\src/message_receiver.c ****             {
 247:Source\azure_iot_sdk\uamqp\src/message_receiver.c ****                 message_receiver->decoded_message = message;
 248:Source\azure_iot_sdk\uamqp\src/message_receiver.c ****                 message_receiver->decode_error = false;
 249:Source\azure_iot_sdk\uamqp\src/message_receiver.c ****                 if (amqpvalue_decode_bytes(amqpvalue_decoder, payload_bytes, payload_size) != 0)
 250:Source\azure_iot_sdk\uamqp\src/message_receiver.c ****                 {
 251:Source\azure_iot_sdk\uamqp\src/message_receiver.c ****                     LogError("Cannot decode bytes");
 252:Source\azure_iot_sdk\uamqp\src/message_receiver.c ****                     set_message_receiver_state(message_receiver, MESSAGE_RECEIVER_STATE_ERROR);
 253:Source\azure_iot_sdk\uamqp\src/message_receiver.c ****                 }
 254:Source\azure_iot_sdk\uamqp\src/message_receiver.c ****                 else
 255:Source\azure_iot_sdk\uamqp\src/message_receiver.c ****                 {
 256:Source\azure_iot_sdk\uamqp\src/message_receiver.c ****                     if (message_receiver->decode_error)
 257:Source\azure_iot_sdk\uamqp\src/message_receiver.c ****                     {
 258:Source\azure_iot_sdk\uamqp\src/message_receiver.c ****                         LogError("Error decoding message");
 259:Source\azure_iot_sdk\uamqp\src/message_receiver.c ****                         set_message_receiver_state(message_receiver, MESSAGE_RECEIVER_STATE_ERROR);
 260:Source\azure_iot_sdk\uamqp\src/message_receiver.c ****                     }
 261:Source\azure_iot_sdk\uamqp\src/message_receiver.c ****                     else
 262:Source\azure_iot_sdk\uamqp\src/message_receiver.c ****                     {
 263:Source\azure_iot_sdk\uamqp\src/message_receiver.c ****                         result = message_receiver->on_message_received(message_receiver->callback_c
 264:Source\azure_iot_sdk\uamqp\src/message_receiver.c ****                     }
 265:Source\azure_iot_sdk\uamqp\src/message_receiver.c ****                 }
 266:Source\azure_iot_sdk\uamqp\src/message_receiver.c **** 
 267:Source\azure_iot_sdk\uamqp\src/message_receiver.c ****                 amqpvalue_decoder_destroy(amqpvalue_decoder);
 268:Source\azure_iot_sdk\uamqp\src/message_receiver.c ****             }
 269:Source\azure_iot_sdk\uamqp\src/message_receiver.c **** 
 270:Source\azure_iot_sdk\uamqp\src/message_receiver.c ****             message_destroy(message);
 271:Source\azure_iot_sdk\uamqp\src/message_receiver.c ****         }
 272:Source\azure_iot_sdk\uamqp\src/message_receiver.c ****     }
 273:Source\azure_iot_sdk\uamqp\src/message_receiver.c **** 
 274:Source\azure_iot_sdk\uamqp\src/message_receiver.c ****     return result;
 275:Source\azure_iot_sdk\uamqp\src/message_receiver.c **** }
 276:Source\azure_iot_sdk\uamqp\src/message_receiver.c **** 
 277:Source\azure_iot_sdk\uamqp\src/message_receiver.c **** static void on_link_state_changed(void* context, LINK_STATE new_link_state, LINK_STATE previous_lin
 278:Source\azure_iot_sdk\uamqp\src/message_receiver.c **** {
  64              		.loc 1 278 0
ARM GAS  C:\Users\Phuong\AppData\Local\Temp\ccqGhR5Z.s 			page 7


  65              		.cfi_startproc
  66              		@ args = 0, pretend = 0, frame = 0
  67              		@ frame_needed = 0, uses_anonymous_args = 0
  68              	.LVL4:
  69 0000 10B5     		push	{r4, lr}
  70              		.cfi_def_cfa_offset 8
  71              		.cfi_offset 4, -8
  72              		.cfi_offset 14, -4
  73              	.LVL5:
 279:Source\azure_iot_sdk\uamqp\src/message_receiver.c ****     MESSAGE_RECEIVER_INSTANCE* message_receiver = (MESSAGE_RECEIVER_INSTANCE*)context;
 280:Source\azure_iot_sdk\uamqp\src/message_receiver.c ****     (void)previous_link_state;
 281:Source\azure_iot_sdk\uamqp\src/message_receiver.c **** 
 282:Source\azure_iot_sdk\uamqp\src/message_receiver.c ****     switch (new_link_state)
  74              		.loc 1 282 0
  75 0002 0329     		cmp	r1, #3
  76 0004 04D0     		beq	.L5
  77 0006 0429     		cmp	r1, #4
  78 0008 18D0     		beq	.L6
  79 000a 0029     		cmp	r1, #0
  80 000c 1CD1     		bne	.L3
  81 000e 06E0     		b	.L7
  82              	.L5:
 283:Source\azure_iot_sdk\uamqp\src/message_receiver.c ****     {
 284:Source\azure_iot_sdk\uamqp\src/message_receiver.c ****     default:
 285:Source\azure_iot_sdk\uamqp\src/message_receiver.c ****         break;
 286:Source\azure_iot_sdk\uamqp\src/message_receiver.c **** 
 287:Source\azure_iot_sdk\uamqp\src/message_receiver.c ****     case LINK_STATE_ATTACHED:
 288:Source\azure_iot_sdk\uamqp\src/message_receiver.c ****         if (message_receiver->message_receiver_state == MESSAGE_RECEIVER_STATE_OPENING)
  83              		.loc 1 288 0
  84 0010 037B     		ldrb	r3, [r0, #12]
  85 0012 012B     		cmp	r3, #1
  86 0014 18D1     		bne	.L3
 289:Source\azure_iot_sdk\uamqp\src/message_receiver.c ****         {
 290:Source\azure_iot_sdk\uamqp\src/message_receiver.c ****             set_message_receiver_state(message_receiver, MESSAGE_RECEIVER_STATE_OPEN);
  87              		.loc 1 290 0
  88 0016 0221     		movs	r1, #2
  89              	.LVL6:
  90 0018 FFF7FEFF 		bl	set_message_receiver_state
  91              	.LVL7:
  92 001c 14E0     		b	.L3
  93              	.LVL8:
  94              	.L7:
 291:Source\azure_iot_sdk\uamqp\src/message_receiver.c ****         }
 292:Source\azure_iot_sdk\uamqp\src/message_receiver.c ****         break;
 293:Source\azure_iot_sdk\uamqp\src/message_receiver.c ****     case LINK_STATE_DETACHED:
 294:Source\azure_iot_sdk\uamqp\src/message_receiver.c ****         if ((message_receiver->message_receiver_state == MESSAGE_RECEIVER_STATE_OPEN) ||
  95              		.loc 1 294 0
  96 001e 027B     		ldrb	r2, [r0, #12]
  97              	.LVL9:
  98 0020 931E     		subs	r3, r2, #2
  99 0022 DBB2     		uxtb	r3, r3
 100 0024 012B     		cmp	r3, #1
 101 0026 03D8     		bhi	.L8
 295:Source\azure_iot_sdk\uamqp\src/message_receiver.c ****             (message_receiver->message_receiver_state == MESSAGE_RECEIVER_STATE_CLOSING))
 296:Source\azure_iot_sdk\uamqp\src/message_receiver.c ****         {
 297:Source\azure_iot_sdk\uamqp\src/message_receiver.c ****             /* User initiated transition, we should be good */
 298:Source\azure_iot_sdk\uamqp\src/message_receiver.c ****             set_message_receiver_state(message_receiver, MESSAGE_RECEIVER_STATE_IDLE);
ARM GAS  C:\Users\Phuong\AppData\Local\Temp\ccqGhR5Z.s 			page 8


 102              		.loc 1 298 0
 103 0028 0021     		movs	r1, #0
 104              	.LVL10:
 105 002a FFF7FEFF 		bl	set_message_receiver_state
 106              	.LVL11:
 107 002e 0BE0     		b	.L3
 108              	.LVL12:
 109              	.L8:
 299:Source\azure_iot_sdk\uamqp\src/message_receiver.c ****         }
 300:Source\azure_iot_sdk\uamqp\src/message_receiver.c ****         else if (message_receiver->message_receiver_state != MESSAGE_RECEIVER_STATE_IDLE)
 110              		.loc 1 300 0
 111 0030 002A     		cmp	r2, #0
 112 0032 09D0     		beq	.L3
 301:Source\azure_iot_sdk\uamqp\src/message_receiver.c ****         {
 302:Source\azure_iot_sdk\uamqp\src/message_receiver.c ****             /* Any other transition must be an error */
 303:Source\azure_iot_sdk\uamqp\src/message_receiver.c ****             set_message_receiver_state(message_receiver, MESSAGE_RECEIVER_STATE_ERROR);
 113              		.loc 1 303 0
 114 0034 0421     		movs	r1, #4
 115              	.LVL13:
 116 0036 FFF7FEFF 		bl	set_message_receiver_state
 117              	.LVL14:
 118 003a 05E0     		b	.L3
 119              	.LVL15:
 120              	.L6:
 304:Source\azure_iot_sdk\uamqp\src/message_receiver.c ****         }
 305:Source\azure_iot_sdk\uamqp\src/message_receiver.c ****         break;
 306:Source\azure_iot_sdk\uamqp\src/message_receiver.c ****     case LINK_STATE_ERROR:
 307:Source\azure_iot_sdk\uamqp\src/message_receiver.c ****         if (message_receiver->message_receiver_state != MESSAGE_RECEIVER_STATE_ERROR)
 121              		.loc 1 307 0
 122 003c 037B     		ldrb	r3, [r0, #12]
 123 003e 042B     		cmp	r3, #4
 124 0040 02D0     		beq	.L3
 308:Source\azure_iot_sdk\uamqp\src/message_receiver.c ****         {
 309:Source\azure_iot_sdk\uamqp\src/message_receiver.c ****             set_message_receiver_state(message_receiver, MESSAGE_RECEIVER_STATE_ERROR);
 125              		.loc 1 309 0
 126 0042 0421     		movs	r1, #4
 127              	.LVL16:
 128 0044 FFF7FEFF 		bl	set_message_receiver_state
 129              	.LVL17:
 130              	.L3:
 310:Source\azure_iot_sdk\uamqp\src/message_receiver.c ****         }
 311:Source\azure_iot_sdk\uamqp\src/message_receiver.c ****         break;
 312:Source\azure_iot_sdk\uamqp\src/message_receiver.c ****     }
 313:Source\azure_iot_sdk\uamqp\src/message_receiver.c **** }
 131              		.loc 1 313 0
 132              		@ sp needed
 133 0048 10BD     		pop	{r4, pc}
 134              		.cfi_endproc
 135              	.LFE4:
 136              		.size	on_link_state_changed, .-on_link_state_changed
 137 004a C046     		.section	.text.on_transfer_received,"ax",%progbits
 138              		.align	2
 139              		.code	16
 140              		.thumb_func
 141              		.type	on_transfer_received, %function
 142              	on_transfer_received:
 143              	.LFB3:
ARM GAS  C:\Users\Phuong\AppData\Local\Temp\ccqGhR5Z.s 			page 9


 224:Source\azure_iot_sdk\uamqp\src/message_receiver.c ****     AMQP_VALUE result = NULL;
 144              		.loc 1 224 0
 145              		.cfi_startproc
 146              		@ args = 0, pretend = 0, frame = 8
 147              		@ frame_needed = 0, uses_anonymous_args = 0
 148              	.LVL18:
 149 0000 F0B5     		push	{r4, r5, r6, r7, lr}
 150              		.cfi_def_cfa_offset 20
 151              		.cfi_offset 4, -20
 152              		.cfi_offset 5, -16
 153              		.cfi_offset 6, -12
 154              		.cfi_offset 7, -8
 155              		.cfi_offset 14, -4
 156 0002 85B0     		sub	sp, sp, #20
 157              		.cfi_def_cfa_offset 40
 158 0004 0400     		movs	r4, r0
 159 0006 0392     		str	r2, [sp, #12]
 160 0008 1E00     		movs	r6, r3
 161              	.LVL19:
 229:Source\azure_iot_sdk\uamqp\src/message_receiver.c ****     {
 162              		.loc 1 229 0
 163 000a 4368     		ldr	r3, [r0, #4]
 164              	.LVL20:
 165 000c 002B     		cmp	r3, #0
 166 000e 6ED0     		beq	.L21
 167              	.LBB2:
 231:Source\azure_iot_sdk\uamqp\src/message_receiver.c ****         if (message == NULL)
 168              		.loc 1 231 0
 169 0010 FFF7FEFF 		bl	message_create
 170              	.LVL21:
 171 0014 071E     		subs	r7, r0, #0
 172              	.LVL22:
 232:Source\azure_iot_sdk\uamqp\src/message_receiver.c ****         {
 173              		.loc 1 232 0
 174 0016 12D1     		bne	.L11
 175              	.LBB3:
 234:Source\azure_iot_sdk\uamqp\src/message_receiver.c ****             set_message_receiver_state(message_receiver, MESSAGE_RECEIVER_STATE_ERROR);
 176              		.loc 1 234 0 discriminator 3
 177 0018 FFF7FEFF 		bl	xlogging_get_log_function
 178              	.LVL23:
 179 001c 051E     		subs	r5, r0, #0
 180              	.LVL24:
 181 001e 08D0     		beq	.L12
 234:Source\azure_iot_sdk\uamqp\src/message_receiver.c ****             set_message_receiver_state(message_receiver, MESSAGE_RECEIVER_STATE_ERROR);
 182              		.loc 1 234 0 is_stmt 0 discriminator 4
 183 0020 354B     		ldr	r3, .L22
 184 0022 0193     		str	r3, [sp, #4]
 185 0024 0123     		movs	r3, #1
 186 0026 0093     		str	r3, [sp]
 187 0028 E933     		adds	r3, r3, #233
 188 002a 344A     		ldr	r2, .L22+4
 189 002c 3449     		ldr	r1, .L22+8
 190 002e 0020     		movs	r0, #0
 191              	.LVL25:
 192 0030 A847     		blx	r5
 193              	.LVL26:
 194              	.L12:
ARM GAS  C:\Users\Phuong\AppData\Local\Temp\ccqGhR5Z.s 			page 10


 195              	.LBE3:
 235:Source\azure_iot_sdk\uamqp\src/message_receiver.c ****         }
 196              		.loc 1 235 0 is_stmt 1
 197 0032 0421     		movs	r1, #4
 198 0034 2000     		movs	r0, r4
 199 0036 FFF7FEFF 		bl	set_message_receiver_state
 200              	.LVL27:
 201              	.LBE2:
 225:Source\azure_iot_sdk\uamqp\src/message_receiver.c ****     MESSAGE_RECEIVER_INSTANCE* message_receiver = (MESSAGE_RECEIVER_INSTANCE*)context;
 202              		.loc 1 225 0
 203 003a 0024     		movs	r4, #0
 204              	.LVL28:
 205              	.LBB11:
 206 003c 58E0     		b	.L10
 207              	.LVL29:
 208              	.L11:
 209              	.LBB4:
 239:Source\azure_iot_sdk\uamqp\src/message_receiver.c ****             if (amqpvalue_decoder == NULL)
 210              		.loc 1 239 0
 211 003e 2100     		movs	r1, r4
 212 0040 3048     		ldr	r0, .L22+12
 213              	.LVL30:
 214 0042 FFF7FEFF 		bl	amqpvalue_decoder_create
 215              	.LVL31:
 216 0046 051E     		subs	r5, r0, #0
 217              	.LVL32:
 240:Source\azure_iot_sdk\uamqp\src/message_receiver.c ****             {
 218              		.loc 1 240 0
 219 0048 12D1     		bne	.L13
 220              	.LBB5:
 242:Source\azure_iot_sdk\uamqp\src/message_receiver.c ****                 set_message_receiver_state(message_receiver, MESSAGE_RECEIVER_STATE_ERROR);
 221              		.loc 1 242 0 discriminator 3
 222 004a FFF7FEFF 		bl	xlogging_get_log_function
 223              	.LVL33:
 224 004e 051E     		subs	r5, r0, #0
 225              	.LVL34:
 226 0050 08D0     		beq	.L14
 242:Source\azure_iot_sdk\uamqp\src/message_receiver.c ****                 set_message_receiver_state(message_receiver, MESSAGE_RECEIVER_STATE_ERROR);
 227              		.loc 1 242 0 is_stmt 0 discriminator 4
 228 0052 2D4B     		ldr	r3, .L22+16
 229 0054 0193     		str	r3, [sp, #4]
 230 0056 0123     		movs	r3, #1
 231 0058 0093     		str	r3, [sp]
 232 005a F133     		adds	r3, r3, #241
 233 005c 274A     		ldr	r2, .L22+4
 234 005e 2849     		ldr	r1, .L22+8
 235 0060 0020     		movs	r0, #0
 236              	.LVL35:
 237 0062 A847     		blx	r5
 238              	.LVL36:
 239              	.L14:
 240              	.LBE5:
 243:Source\azure_iot_sdk\uamqp\src/message_receiver.c ****             }
 241              		.loc 1 243 0 is_stmt 1
 242 0064 0421     		movs	r1, #4
 243 0066 2000     		movs	r0, r4
 244 0068 FFF7FEFF 		bl	set_message_receiver_state
ARM GAS  C:\Users\Phuong\AppData\Local\Temp\ccqGhR5Z.s 			page 11


 245              	.LVL37:
 246              	.LBE4:
 247              	.LBE11:
 225:Source\azure_iot_sdk\uamqp\src/message_receiver.c ****     MESSAGE_RECEIVER_INSTANCE* message_receiver = (MESSAGE_RECEIVER_INSTANCE*)context;
 248              		.loc 1 225 0
 249 006c 0024     		movs	r4, #0
 250              	.LVL38:
 251              	.LBB12:
 252              	.LBB8:
 253 006e 3AE0     		b	.L15
 254              	.LVL39:
 255              	.L13:
 247:Source\azure_iot_sdk\uamqp\src/message_receiver.c ****                 message_receiver->decode_error = false;
 256              		.loc 1 247 0
 257 0070 A761     		str	r7, [r4, #24]
 248:Source\azure_iot_sdk\uamqp\src/message_receiver.c ****                 if (amqpvalue_decode_bytes(amqpvalue_decoder, payload_bytes, payload_size) != 0)
 258              		.loc 1 248 0
 259 0072 0023     		movs	r3, #0
 260 0074 2377     		strb	r3, [r4, #28]
 249:Source\azure_iot_sdk\uamqp\src/message_receiver.c ****                 {
 261              		.loc 1 249 0
 262 0076 039A     		ldr	r2, [sp, #12]
 263 0078 3100     		movs	r1, r6
 264 007a FFF7FEFF 		bl	amqpvalue_decode_bytes
 265              	.LVL40:
 266 007e 0028     		cmp	r0, #0
 267 0080 12D0     		beq	.L16
 268              	.LBB6:
 251:Source\azure_iot_sdk\uamqp\src/message_receiver.c ****                     set_message_receiver_state(message_receiver, MESSAGE_RECEIVER_STATE_ERROR);
 269              		.loc 1 251 0 discriminator 3
 270 0082 FFF7FEFF 		bl	xlogging_get_log_function
 271              	.LVL41:
 272 0086 061E     		subs	r6, r0, #0
 273              	.LVL42:
 274 0088 08D0     		beq	.L17
 251:Source\azure_iot_sdk\uamqp\src/message_receiver.c ****                     set_message_receiver_state(message_receiver, MESSAGE_RECEIVER_STATE_ERROR);
 275              		.loc 1 251 0 is_stmt 0 discriminator 4
 276 008a 204B     		ldr	r3, .L22+20
 277 008c 0193     		str	r3, [sp, #4]
 278 008e 0123     		movs	r3, #1
 279 0090 0093     		str	r3, [sp]
 280 0092 FA33     		adds	r3, r3, #250
 281 0094 194A     		ldr	r2, .L22+4
 282 0096 1A49     		ldr	r1, .L22+8
 283 0098 0020     		movs	r0, #0
 284              	.LVL43:
 285 009a B047     		blx	r6
 286              	.LVL44:
 287              	.L17:
 288              	.LBE6:
 252:Source\azure_iot_sdk\uamqp\src/message_receiver.c ****                 }
 289              		.loc 1 252 0 is_stmt 1
 290 009c 0421     		movs	r1, #4
 291 009e 2000     		movs	r0, r4
 292 00a0 FFF7FEFF 		bl	set_message_receiver_state
 293              	.LVL45:
 294              	.LBE8:
ARM GAS  C:\Users\Phuong\AppData\Local\Temp\ccqGhR5Z.s 			page 12


 295              	.LBE12:
 225:Source\azure_iot_sdk\uamqp\src/message_receiver.c ****     MESSAGE_RECEIVER_INSTANCE* message_receiver = (MESSAGE_RECEIVER_INSTANCE*)context;
 296              		.loc 1 225 0
 297 00a4 0024     		movs	r4, #0
 298              	.LVL46:
 299              	.LBB13:
 300              	.LBB9:
 301 00a6 1BE0     		b	.L18
 302              	.LVL47:
 303              	.L16:
 256:Source\azure_iot_sdk\uamqp\src/message_receiver.c ****                     {
 304              		.loc 1 256 0
 305 00a8 237F     		ldrb	r3, [r4, #28]
 306 00aa 002B     		cmp	r3, #0
 307 00ac 13D0     		beq	.L19
 308              	.LBB7:
 258:Source\azure_iot_sdk\uamqp\src/message_receiver.c ****                         set_message_receiver_state(message_receiver, MESSAGE_RECEIVER_STATE_ERROR);
 309              		.loc 1 258 0 discriminator 3
 310 00ae FFF7FEFF 		bl	xlogging_get_log_function
 311              	.LVL48:
 312 00b2 061E     		subs	r6, r0, #0
 313              	.LVL49:
 314 00b4 09D0     		beq	.L20
 258:Source\azure_iot_sdk\uamqp\src/message_receiver.c ****                         set_message_receiver_state(message_receiver, MESSAGE_RECEIVER_STATE_ERROR);
 315              		.loc 1 258 0 is_stmt 0 discriminator 4
 316 00b6 164B     		ldr	r3, .L22+24
 317 00b8 0193     		str	r3, [sp, #4]
 318 00ba 0123     		movs	r3, #1
 319 00bc 0093     		str	r3, [sp]
 320 00be 0233     		adds	r3, r3, #2
 321 00c0 FF33     		adds	r3, r3, #255
 322 00c2 0E4A     		ldr	r2, .L22+4
 323 00c4 0E49     		ldr	r1, .L22+8
 324 00c6 0020     		movs	r0, #0
 325              	.LVL50:
 326 00c8 B047     		blx	r6
 327              	.LVL51:
 328              	.L20:
 329              	.LBE7:
 259:Source\azure_iot_sdk\uamqp\src/message_receiver.c ****                     }
 330              		.loc 1 259 0 is_stmt 1
 331 00ca 0421     		movs	r1, #4
 332 00cc 2000     		movs	r0, r4
 333 00ce FFF7FEFF 		bl	set_message_receiver_state
 334              	.LVL52:
 335              	.LBE9:
 336              	.LBE13:
 225:Source\azure_iot_sdk\uamqp\src/message_receiver.c ****     MESSAGE_RECEIVER_INSTANCE* message_receiver = (MESSAGE_RECEIVER_INSTANCE*)context;
 337              		.loc 1 225 0
 338 00d2 0024     		movs	r4, #0
 339              	.LVL53:
 340              	.LBB14:
 341              	.LBB10:
 342 00d4 04E0     		b	.L18
 343              	.LVL54:
 344              	.L19:
 263:Source\azure_iot_sdk\uamqp\src/message_receiver.c ****                     }
ARM GAS  C:\Users\Phuong\AppData\Local\Temp\ccqGhR5Z.s 			page 13


 345              		.loc 1 263 0
 346 00d6 6368     		ldr	r3, [r4, #4]
 347 00d8 6069     		ldr	r0, [r4, #20]
 348 00da 3900     		movs	r1, r7
 349 00dc 9847     		blx	r3
 350              	.LVL55:
 351 00de 0400     		movs	r4, r0
 352              	.LVL56:
 353              	.L18:
 267:Source\azure_iot_sdk\uamqp\src/message_receiver.c ****             }
 354              		.loc 1 267 0
 355 00e0 2800     		movs	r0, r5
 356 00e2 FFF7FEFF 		bl	amqpvalue_decoder_destroy
 357              	.LVL57:
 358              	.L15:
 270:Source\azure_iot_sdk\uamqp\src/message_receiver.c ****         }
 359              		.loc 1 270 0
 360 00e6 3800     		movs	r0, r7
 361 00e8 FFF7FEFF 		bl	message_destroy
 362              	.LVL58:
 363 00ec 00E0     		b	.L10
 364              	.LVL59:
 365              	.L21:
 366              	.LBE10:
 367              	.LBE14:
 225:Source\azure_iot_sdk\uamqp\src/message_receiver.c ****     MESSAGE_RECEIVER_INSTANCE* message_receiver = (MESSAGE_RECEIVER_INSTANCE*)context;
 368              		.loc 1 225 0
 369 00ee 0024     		movs	r4, #0
 370              	.LVL60:
 371              	.L10:
 275:Source\azure_iot_sdk\uamqp\src/message_receiver.c **** 
 372              		.loc 1 275 0
 373 00f0 2000     		movs	r0, r4
 374 00f2 05B0     		add	sp, sp, #20
 375              		@ sp needed
 376              	.LVL61:
 377 00f4 F0BD     		pop	{r4, r5, r6, r7, pc}
 378              	.L23:
 379 00f6 C046     		.align	2
 380              	.L22:
 381 00f8 34000000 		.word	.LC3
 382 00fc 00000000 		.word	.LANCHOR0
 383 0100 00000000 		.word	.LC1
 384 0104 00000000 		.word	decode_message_value_callback
 385 0108 4C000000 		.word	.LC6
 386 010c 70000000 		.word	.LC8
 387 0110 84000000 		.word	.LC10
 388              		.cfi_endproc
 389              	.LFE3:
 390              		.size	on_transfer_received, .-on_transfer_received
 391              		.section	.text.decode_message_value_callback,"ax",%progbits
 392              		.align	2
 393              		.code	16
 394              		.thumb_func
 395              		.type	decode_message_value_callback, %function
 396              	decode_message_value_callback:
 397              	.LFB2:
ARM GAS  C:\Users\Phuong\AppData\Local\Temp\ccqGhR5Z.s 			page 14


  38:Source\azure_iot_sdk\uamqp\src/message_receiver.c ****     MESSAGE_RECEIVER_INSTANCE* message_receiver = (MESSAGE_RECEIVER_INSTANCE*)context;
 398              		.loc 1 38 0
 399              		.cfi_startproc
 400              		@ args = 0, pretend = 0, frame = 24
 401              		@ frame_needed = 0, uses_anonymous_args = 0
 402              	.LVL62:
 403 0000 F0B5     		push	{r4, r5, r6, r7, lr}
 404              		.cfi_def_cfa_offset 20
 405              		.cfi_offset 4, -20
 406              		.cfi_offset 5, -16
 407              		.cfi_offset 6, -12
 408              		.cfi_offset 7, -8
 409              		.cfi_offset 14, -4
 410 0002 89B0     		sub	sp, sp, #36
 411              		.cfi_def_cfa_offset 56
 412 0004 0600     		movs	r6, r0
 413 0006 0D00     		movs	r5, r1
 414              	.LVL63:
  40:Source\azure_iot_sdk\uamqp\src/message_receiver.c ****     AMQP_VALUE descriptor = amqpvalue_get_inplace_descriptor(decoded_value);
 415              		.loc 1 40 0
 416 0008 8769     		ldr	r7, [r0, #24]
 417              	.LVL64:
  41:Source\azure_iot_sdk\uamqp\src/message_receiver.c **** 
 418              		.loc 1 41 0
 419 000a 0800     		movs	r0, r1
 420              	.LVL65:
 421 000c FFF7FEFF 		bl	amqpvalue_get_inplace_descriptor
 422              	.LVL66:
 423 0010 0400     		movs	r4, r0
 424              	.LVL67:
  43:Source\azure_iot_sdk\uamqp\src/message_receiver.c ****     {
 425              		.loc 1 43 0
 426 0012 FFF7FEFF 		bl	is_application_properties_type_by_descriptor
 427              	.LVL68:
 428 0016 0028     		cmp	r0, #0
 429 0018 17D0     		beq	.L25
  45:Source\azure_iot_sdk\uamqp\src/message_receiver.c ****         {
 430              		.loc 1 45 0
 431 001a 2900     		movs	r1, r5
 432 001c 3800     		movs	r0, r7
 433 001e FFF7FEFF 		bl	message_set_application_properties
 434              	.LVL69:
 435 0022 0028     		cmp	r0, #0
 436 0024 00D1     		bne	.LCB468
 437 0026 10E2     		b	.L24	@long jump
 438              	.LCB468:
 439              	.LBB15:
  47:Source\azure_iot_sdk\uamqp\src/message_receiver.c ****             message_receiver->decode_error = true;
 440              		.loc 1 47 0 discriminator 3
 441 0028 FFF7FEFF 		bl	xlogging_get_log_function
 442              	.LVL70:
 443 002c 041E     		subs	r4, r0, #0
 444              	.LVL71:
 445 002e 09D0     		beq	.L27
  47:Source\azure_iot_sdk\uamqp\src/message_receiver.c ****             message_receiver->decode_error = true;
 446              		.loc 1 47 0 is_stmt 0 discriminator 4
 447 0030 C64B     		ldr	r3, .L73
ARM GAS  C:\Users\Phuong\AppData\Local\Temp\ccqGhR5Z.s 			page 15


 448 0032 0193     		str	r3, [sp, #4]
 449 0034 0123     		movs	r3, #1
 450 0036 0093     		str	r3, [sp]
 451 0038 2E33     		adds	r3, r3, #46
 452 003a C54A     		ldr	r2, .L73+4
 453 003c 1832     		adds	r2, r2, #24
 454 003e C549     		ldr	r1, .L73+8
 455 0040 0020     		movs	r0, #0
 456              	.LVL72:
 457 0042 A047     		blx	r4
 458              	.LVL73:
 459              	.L27:
 460              	.LBE15:
  48:Source\azure_iot_sdk\uamqp\src/message_receiver.c ****         }
 461              		.loc 1 48 0 is_stmt 1
 462 0044 0123     		movs	r3, #1
 463 0046 3377     		strb	r3, [r6, #28]
 464 0048 FFE1     		b	.L24
 465              	.LVL74:
 466              	.L25:
  51:Source\azure_iot_sdk\uamqp\src/message_receiver.c ****     {
 467              		.loc 1 51 0
 468 004a 2000     		movs	r0, r4
 469 004c FFF7FEFF 		bl	is_properties_type_by_descriptor
 470              	.LVL75:
 471 0050 0028     		cmp	r0, #0
 472 0052 30D0     		beq	.L28
 473              	.LBB16:
  54:Source\azure_iot_sdk\uamqp\src/message_receiver.c ****         {
 474              		.loc 1 54 0
 475 0054 06A9     		add	r1, sp, #24
 476 0056 2800     		movs	r0, r5
 477 0058 FFF7FEFF 		bl	amqpvalue_get_properties
 478              	.LVL76:
 479 005c 0028     		cmp	r0, #0
 480 005e 10D0     		beq	.L29
 481              	.LBB17:
  56:Source\azure_iot_sdk\uamqp\src/message_receiver.c ****             message_receiver->decode_error = true;
 482              		.loc 1 56 0 discriminator 3
 483 0060 FFF7FEFF 		bl	xlogging_get_log_function
 484              	.LVL77:
 485 0064 041E     		subs	r4, r0, #0
 486              	.LVL78:
 487 0066 09D0     		beq	.L30
  56:Source\azure_iot_sdk\uamqp\src/message_receiver.c ****             message_receiver->decode_error = true;
 488              		.loc 1 56 0 is_stmt 0 discriminator 4
 489 0068 BB4B     		ldr	r3, .L73+12
 490 006a 0193     		str	r3, [sp, #4]
 491 006c 0123     		movs	r3, #1
 492 006e 0093     		str	r3, [sp]
 493 0070 3733     		adds	r3, r3, #55
 494 0072 B74A     		ldr	r2, .L73+4
 495 0074 1832     		adds	r2, r2, #24
 496 0076 B749     		ldr	r1, .L73+8
 497 0078 0020     		movs	r0, #0
 498              	.LVL79:
 499 007a A047     		blx	r4
ARM GAS  C:\Users\Phuong\AppData\Local\Temp\ccqGhR5Z.s 			page 16


 500              	.LVL80:
 501              	.L30:
 502              	.LBE17:
  57:Source\azure_iot_sdk\uamqp\src/message_receiver.c ****         }
 503              		.loc 1 57 0 is_stmt 1
 504 007c 0123     		movs	r3, #1
 505 007e 3377     		strb	r3, [r6, #28]
 506 0080 E3E1     		b	.L24
 507              	.LVL81:
 508              	.L29:
  61:Source\azure_iot_sdk\uamqp\src/message_receiver.c ****             {
 509              		.loc 1 61 0
 510 0082 0699     		ldr	r1, [sp, #24]
 511 0084 3800     		movs	r0, r7
 512 0086 FFF7FEFF 		bl	message_set_properties
 513              	.LVL82:
 514 008a 0028     		cmp	r0, #0
 515 008c 0FD0     		beq	.L32
 516              	.LBB18:
  63:Source\azure_iot_sdk\uamqp\src/message_receiver.c ****                 message_receiver->decode_error = true;
 517              		.loc 1 63 0 discriminator 3
 518 008e FFF7FEFF 		bl	xlogging_get_log_function
 519              	.LVL83:
 520 0092 041E     		subs	r4, r0, #0
 521              	.LVL84:
 522 0094 09D0     		beq	.L33
  63:Source\azure_iot_sdk\uamqp\src/message_receiver.c ****                 message_receiver->decode_error = true;
 523              		.loc 1 63 0 is_stmt 0 discriminator 4
 524 0096 B14B     		ldr	r3, .L73+16
 525 0098 0193     		str	r3, [sp, #4]
 526 009a 0123     		movs	r3, #1
 527 009c 0093     		str	r3, [sp]
 528 009e 3E33     		adds	r3, r3, #62
 529 00a0 AB4A     		ldr	r2, .L73+4
 530 00a2 1832     		adds	r2, r2, #24
 531 00a4 AB49     		ldr	r1, .L73+8
 532 00a6 0020     		movs	r0, #0
 533              	.LVL85:
 534 00a8 A047     		blx	r4
 535              	.LVL86:
 536              	.L33:
 537              	.LBE18:
  64:Source\azure_iot_sdk\uamqp\src/message_receiver.c ****             }
 538              		.loc 1 64 0 is_stmt 1
 539 00aa 0123     		movs	r3, #1
 540 00ac 3377     		strb	r3, [r6, #28]
 541              	.LVL87:
 542              	.L32:
  67:Source\azure_iot_sdk\uamqp\src/message_receiver.c ****         }
 543              		.loc 1 67 0
 544 00ae 0698     		ldr	r0, [sp, #24]
 545 00b0 FFF7FEFF 		bl	properties_destroy
 546              	.LVL88:
 547 00b4 C9E1     		b	.L24
 548              	.LVL89:
 549              	.L28:
 550              	.LBE16:
ARM GAS  C:\Users\Phuong\AppData\Local\Temp\ccqGhR5Z.s 			page 17


  70:Source\azure_iot_sdk\uamqp\src/message_receiver.c ****     {
 551              		.loc 1 70 0
 552 00b6 2000     		movs	r0, r4
 553 00b8 FFF7FEFF 		bl	is_delivery_annotations_type_by_descriptor
 554              	.LVL90:
 555 00bc 0028     		cmp	r0, #0
 556 00be 2DD0     		beq	.L34
 557              	.LBB19:
  72:Source\azure_iot_sdk\uamqp\src/message_receiver.c ****         if (delivery_annotations == NULL)
 558              		.loc 1 72 0
 559 00c0 2800     		movs	r0, r5
 560 00c2 FFF7FEFF 		bl	amqpvalue_get_inplace_described_value
 561              	.LVL91:
  73:Source\azure_iot_sdk\uamqp\src/message_receiver.c ****         {
 562              		.loc 1 73 0
 563 00c6 0028     		cmp	r0, #0
 564 00c8 10D1     		bne	.L35
 565              	.LBB20:
  75:Source\azure_iot_sdk\uamqp\src/message_receiver.c ****             message_receiver->decode_error = true;
 566              		.loc 1 75 0 discriminator 3
 567 00ca FFF7FEFF 		bl	xlogging_get_log_function
 568              	.LVL92:
 569 00ce 041E     		subs	r4, r0, #0
 570              	.LVL93:
 571 00d0 09D0     		beq	.L36
  75:Source\azure_iot_sdk\uamqp\src/message_receiver.c ****             message_receiver->decode_error = true;
 572              		.loc 1 75 0 is_stmt 0 discriminator 4
 573 00d2 A34B     		ldr	r3, .L73+20
 574 00d4 0193     		str	r3, [sp, #4]
 575 00d6 0123     		movs	r3, #1
 576 00d8 0093     		str	r3, [sp]
 577 00da 4A33     		adds	r3, r3, #74
 578 00dc 9C4A     		ldr	r2, .L73+4
 579 00de 1832     		adds	r2, r2, #24
 580 00e0 9C49     		ldr	r1, .L73+8
 581 00e2 0020     		movs	r0, #0
 582              	.LVL94:
 583 00e4 A047     		blx	r4
 584              	.LVL95:
 585              	.L36:
 586              	.LBE20:
  76:Source\azure_iot_sdk\uamqp\src/message_receiver.c ****         }
 587              		.loc 1 76 0 is_stmt 1
 588 00e6 0123     		movs	r3, #1
 589 00e8 3377     		strb	r3, [r6, #28]
 590 00ea AEE1     		b	.L24
 591              	.LVL96:
 592              	.L35:
  80:Source\azure_iot_sdk\uamqp\src/message_receiver.c ****             {
 593              		.loc 1 80 0
 594 00ec 0100     		movs	r1, r0
 595 00ee 3800     		movs	r0, r7
 596              	.LVL97:
 597 00f0 FFF7FEFF 		bl	message_set_delivery_annotations
 598              	.LVL98:
 599 00f4 0028     		cmp	r0, #0
 600 00f6 00D1     		bne	.LCB648
ARM GAS  C:\Users\Phuong\AppData\Local\Temp\ccqGhR5Z.s 			page 18


 601 00f8 A7E1     		b	.L24	@long jump
 602              	.LCB648:
 603              	.LBB21:
  82:Source\azure_iot_sdk\uamqp\src/message_receiver.c ****                 message_receiver->decode_error = true;
 604              		.loc 1 82 0 discriminator 3
 605 00fa FFF7FEFF 		bl	xlogging_get_log_function
 606              	.LVL99:
 607 00fe 041E     		subs	r4, r0, #0
 608              	.LVL100:
 609 0100 09D0     		beq	.L37
  82:Source\azure_iot_sdk\uamqp\src/message_receiver.c ****                 message_receiver->decode_error = true;
 610              		.loc 1 82 0 is_stmt 0 discriminator 4
 611 0102 984B     		ldr	r3, .L73+24
 612 0104 0193     		str	r3, [sp, #4]
 613 0106 0123     		movs	r3, #1
 614 0108 0093     		str	r3, [sp]
 615 010a 5133     		adds	r3, r3, #81
 616 010c 904A     		ldr	r2, .L73+4
 617 010e 1832     		adds	r2, r2, #24
 618 0110 9049     		ldr	r1, .L73+8
 619 0112 0020     		movs	r0, #0
 620              	.LVL101:
 621 0114 A047     		blx	r4
 622              	.LVL102:
 623              	.L37:
 624              	.LBE21:
  83:Source\azure_iot_sdk\uamqp\src/message_receiver.c ****             }
 625              		.loc 1 83 0 is_stmt 1
 626 0116 0123     		movs	r3, #1
 627 0118 3377     		strb	r3, [r6, #28]
 628 011a 96E1     		b	.L24
 629              	.LVL103:
 630              	.L34:
 631              	.LBE19:
  87:Source\azure_iot_sdk\uamqp\src/message_receiver.c ****     {
 632              		.loc 1 87 0
 633 011c 2000     		movs	r0, r4
 634 011e FFF7FEFF 		bl	is_message_annotations_type_by_descriptor
 635              	.LVL104:
 636 0122 0028     		cmp	r0, #0
 637 0124 2DD0     		beq	.L38
 638              	.LBB22:
  89:Source\azure_iot_sdk\uamqp\src/message_receiver.c ****         if (message_annotations == NULL)
 639              		.loc 1 89 0
 640 0126 2800     		movs	r0, r5
 641 0128 FFF7FEFF 		bl	amqpvalue_get_inplace_described_value
 642              	.LVL105:
  90:Source\azure_iot_sdk\uamqp\src/message_receiver.c ****         {
 643              		.loc 1 90 0
 644 012c 0028     		cmp	r0, #0
 645 012e 10D1     		bne	.L39
 646              	.LBB23:
  92:Source\azure_iot_sdk\uamqp\src/message_receiver.c ****             message_receiver->decode_error = true;
 647              		.loc 1 92 0 discriminator 3
 648 0130 FFF7FEFF 		bl	xlogging_get_log_function
 649              	.LVL106:
 650 0134 041E     		subs	r4, r0, #0
ARM GAS  C:\Users\Phuong\AppData\Local\Temp\ccqGhR5Z.s 			page 19


 651              	.LVL107:
 652 0136 09D0     		beq	.L40
  92:Source\azure_iot_sdk\uamqp\src/message_receiver.c ****             message_receiver->decode_error = true;
 653              		.loc 1 92 0 is_stmt 0 discriminator 4
 654 0138 8B4B     		ldr	r3, .L73+28
 655 013a 0193     		str	r3, [sp, #4]
 656 013c 0123     		movs	r3, #1
 657 013e 0093     		str	r3, [sp]
 658 0140 5B33     		adds	r3, r3, #91
 659 0142 834A     		ldr	r2, .L73+4
 660 0144 1832     		adds	r2, r2, #24
 661 0146 8349     		ldr	r1, .L73+8
 662 0148 0020     		movs	r0, #0
 663              	.LVL108:
 664 014a A047     		blx	r4
 665              	.LVL109:
 666              	.L40:
 667              	.LBE23:
  93:Source\azure_iot_sdk\uamqp\src/message_receiver.c ****         }
 668              		.loc 1 93 0 is_stmt 1
 669 014c 0123     		movs	r3, #1
 670 014e 3377     		strb	r3, [r6, #28]
 671 0150 7BE1     		b	.L24
 672              	.LVL110:
 673              	.L39:
  97:Source\azure_iot_sdk\uamqp\src/message_receiver.c ****             {
 674              		.loc 1 97 0
 675 0152 0100     		movs	r1, r0
 676 0154 3800     		movs	r0, r7
 677              	.LVL111:
 678 0156 FFF7FEFF 		bl	message_set_message_annotations
 679              	.LVL112:
 680 015a 0028     		cmp	r0, #0
 681 015c 00D1     		bne	.LCB740
 682 015e 74E1     		b	.L24	@long jump
 683              	.LCB740:
 684              	.LBB24:
  99:Source\azure_iot_sdk\uamqp\src/message_receiver.c ****                 message_receiver->decode_error = true;
 685              		.loc 1 99 0 discriminator 3
 686 0160 FFF7FEFF 		bl	xlogging_get_log_function
 687              	.LVL113:
 688 0164 041E     		subs	r4, r0, #0
 689              	.LVL114:
 690 0166 09D0     		beq	.L41
  99:Source\azure_iot_sdk\uamqp\src/message_receiver.c ****                 message_receiver->decode_error = true;
 691              		.loc 1 99 0 is_stmt 0 discriminator 4
 692 0168 804B     		ldr	r3, .L73+32
 693 016a 0193     		str	r3, [sp, #4]
 694 016c 0123     		movs	r3, #1
 695 016e 0093     		str	r3, [sp]
 696 0170 6233     		adds	r3, r3, #98
 697 0172 774A     		ldr	r2, .L73+4
 698 0174 1832     		adds	r2, r2, #24
 699 0176 7749     		ldr	r1, .L73+8
 700 0178 0020     		movs	r0, #0
 701              	.LVL115:
 702 017a A047     		blx	r4
ARM GAS  C:\Users\Phuong\AppData\Local\Temp\ccqGhR5Z.s 			page 20


 703              	.LVL116:
 704              	.L41:
 705              	.LBE24:
 100:Source\azure_iot_sdk\uamqp\src/message_receiver.c ****             }
 706              		.loc 1 100 0 is_stmt 1
 707 017c 0123     		movs	r3, #1
 708 017e 3377     		strb	r3, [r6, #28]
 709 0180 63E1     		b	.L24
 710              	.LVL117:
 711              	.L38:
 712              	.LBE22:
 104:Source\azure_iot_sdk\uamqp\src/message_receiver.c ****     {
 713              		.loc 1 104 0
 714 0182 2000     		movs	r0, r4
 715 0184 FFF7FEFF 		bl	is_header_type_by_descriptor
 716              	.LVL118:
 717 0188 0028     		cmp	r0, #0
 718 018a 30D0     		beq	.L42
 719              	.LBB25:
 107:Source\azure_iot_sdk\uamqp\src/message_receiver.c ****         {
 720              		.loc 1 107 0
 721 018c 06A9     		add	r1, sp, #24
 722 018e 2800     		movs	r0, r5
 723 0190 FFF7FEFF 		bl	amqpvalue_get_header
 724              	.LVL119:
 725 0194 0028     		cmp	r0, #0
 726 0196 10D0     		beq	.L43
 727              	.LBB26:
 109:Source\azure_iot_sdk\uamqp\src/message_receiver.c ****             message_receiver->decode_error = true;
 728              		.loc 1 109 0 discriminator 3
 729 0198 FFF7FEFF 		bl	xlogging_get_log_function
 730              	.LVL120:
 731 019c 041E     		subs	r4, r0, #0
 732              	.LVL121:
 733 019e 09D0     		beq	.L44
 109:Source\azure_iot_sdk\uamqp\src/message_receiver.c ****             message_receiver->decode_error = true;
 734              		.loc 1 109 0 is_stmt 0 discriminator 4
 735 01a0 734B     		ldr	r3, .L73+36
 736 01a2 0193     		str	r3, [sp, #4]
 737 01a4 0123     		movs	r3, #1
 738 01a6 0093     		str	r3, [sp]
 739 01a8 6C33     		adds	r3, r3, #108
 740 01aa 694A     		ldr	r2, .L73+4
 741 01ac 1832     		adds	r2, r2, #24
 742 01ae 6949     		ldr	r1, .L73+8
 743 01b0 0020     		movs	r0, #0
 744              	.LVL122:
 745 01b2 A047     		blx	r4
 746              	.LVL123:
 747              	.L44:
 748              	.LBE26:
 110:Source\azure_iot_sdk\uamqp\src/message_receiver.c ****         }
 749              		.loc 1 110 0 is_stmt 1
 750 01b4 0123     		movs	r3, #1
 751 01b6 3377     		strb	r3, [r6, #28]
 752 01b8 47E1     		b	.L24
 753              	.LVL124:
ARM GAS  C:\Users\Phuong\AppData\Local\Temp\ccqGhR5Z.s 			page 21


 754              	.L43:
 114:Source\azure_iot_sdk\uamqp\src/message_receiver.c ****             {
 755              		.loc 1 114 0
 756 01ba 0699     		ldr	r1, [sp, #24]
 757 01bc 3800     		movs	r0, r7
 758 01be FFF7FEFF 		bl	message_set_header
 759              	.LVL125:
 760 01c2 0028     		cmp	r0, #0
 761 01c4 0FD0     		beq	.L46
 762              	.LBB27:
 116:Source\azure_iot_sdk\uamqp\src/message_receiver.c ****                 message_receiver->decode_error = true;
 763              		.loc 1 116 0 discriminator 3
 764 01c6 FFF7FEFF 		bl	xlogging_get_log_function
 765              	.LVL126:
 766 01ca 041E     		subs	r4, r0, #0
 767              	.LVL127:
 768 01cc 09D0     		beq	.L47
 116:Source\azure_iot_sdk\uamqp\src/message_receiver.c ****                 message_receiver->decode_error = true;
 769              		.loc 1 116 0 is_stmt 0 discriminator 4
 770 01ce 694B     		ldr	r3, .L73+40
 771 01d0 0193     		str	r3, [sp, #4]
 772 01d2 0123     		movs	r3, #1
 773 01d4 0093     		str	r3, [sp]
 774 01d6 7333     		adds	r3, r3, #115
 775 01d8 5D4A     		ldr	r2, .L73+4
 776 01da 1832     		adds	r2, r2, #24
 777 01dc 5D49     		ldr	r1, .L73+8
 778 01de 0020     		movs	r0, #0
 779              	.LVL128:
 780 01e0 A047     		blx	r4
 781              	.LVL129:
 782              	.L47:
 783              	.LBE27:
 117:Source\azure_iot_sdk\uamqp\src/message_receiver.c ****             }
 784              		.loc 1 117 0 is_stmt 1
 785 01e2 0123     		movs	r3, #1
 786 01e4 3377     		strb	r3, [r6, #28]
 787              	.LVL130:
 788              	.L46:
 120:Source\azure_iot_sdk\uamqp\src/message_receiver.c ****         }
 789              		.loc 1 120 0
 790 01e6 0698     		ldr	r0, [sp, #24]
 791 01e8 FFF7FEFF 		bl	header_destroy
 792              	.LVL131:
 793 01ec 2DE1     		b	.L24
 794              	.LVL132:
 795              	.L42:
 796              	.LBE25:
 123:Source\azure_iot_sdk\uamqp\src/message_receiver.c ****     {
 797              		.loc 1 123 0
 798 01ee 2000     		movs	r0, r4
 799 01f0 FFF7FEFF 		bl	is_footer_type_by_descriptor
 800              	.LVL133:
 801 01f4 0028     		cmp	r0, #0
 802 01f6 2DD0     		beq	.L48
 803              	.LBB28:
 125:Source\azure_iot_sdk\uamqp\src/message_receiver.c ****         if (footer == NULL)
ARM GAS  C:\Users\Phuong\AppData\Local\Temp\ccqGhR5Z.s 			page 22


 804              		.loc 1 125 0
 805 01f8 2800     		movs	r0, r5
 806 01fa FFF7FEFF 		bl	amqpvalue_get_inplace_described_value
 807              	.LVL134:
 126:Source\azure_iot_sdk\uamqp\src/message_receiver.c ****         {
 808              		.loc 1 126 0
 809 01fe 0028     		cmp	r0, #0
 810 0200 10D1     		bne	.L49
 811              	.LBB29:
 128:Source\azure_iot_sdk\uamqp\src/message_receiver.c ****             message_receiver->decode_error = true;
 812              		.loc 1 128 0 discriminator 3
 813 0202 FFF7FEFF 		bl	xlogging_get_log_function
 814              	.LVL135:
 815 0206 041E     		subs	r4, r0, #0
 816              	.LVL136:
 817 0208 09D0     		beq	.L50
 128:Source\azure_iot_sdk\uamqp\src/message_receiver.c ****             message_receiver->decode_error = true;
 818              		.loc 1 128 0 is_stmt 0 discriminator 4
 819 020a 5B4B     		ldr	r3, .L73+44
 820 020c 0193     		str	r3, [sp, #4]
 821 020e 0123     		movs	r3, #1
 822 0210 0093     		str	r3, [sp]
 823 0212 7F33     		adds	r3, r3, #127
 824 0214 4E4A     		ldr	r2, .L73+4
 825 0216 1832     		adds	r2, r2, #24
 826 0218 4E49     		ldr	r1, .L73+8
 827 021a 0020     		movs	r0, #0
 828              	.LVL137:
 829 021c A047     		blx	r4
 830              	.LVL138:
 831              	.L50:
 832              	.LBE29:
 129:Source\azure_iot_sdk\uamqp\src/message_receiver.c ****         }
 833              		.loc 1 129 0 is_stmt 1
 834 021e 0123     		movs	r3, #1
 835 0220 3377     		strb	r3, [r6, #28]
 836 0222 12E1     		b	.L24
 837              	.LVL139:
 838              	.L49:
 133:Source\azure_iot_sdk\uamqp\src/message_receiver.c ****             {
 839              		.loc 1 133 0
 840 0224 0100     		movs	r1, r0
 841 0226 3800     		movs	r0, r7
 842              	.LVL140:
 843 0228 FFF7FEFF 		bl	message_set_footer
 844              	.LVL141:
 845 022c 0028     		cmp	r0, #0
 846 022e 00D1     		bne	.LCB924
 847 0230 0BE1     		b	.L24	@long jump
 848              	.LCB924:
 849              	.LBB30:
 135:Source\azure_iot_sdk\uamqp\src/message_receiver.c ****                 message_receiver->decode_error = true;
 850              		.loc 1 135 0 discriminator 3
 851 0232 FFF7FEFF 		bl	xlogging_get_log_function
 852              	.LVL142:
 853 0236 041E     		subs	r4, r0, #0
 854              	.LVL143:
ARM GAS  C:\Users\Phuong\AppData\Local\Temp\ccqGhR5Z.s 			page 23


 855 0238 09D0     		beq	.L51
 135:Source\azure_iot_sdk\uamqp\src/message_receiver.c ****                 message_receiver->decode_error = true;
 856              		.loc 1 135 0 is_stmt 0 discriminator 4
 857 023a 504B     		ldr	r3, .L73+48
 858 023c 0193     		str	r3, [sp, #4]
 859 023e 0123     		movs	r3, #1
 860 0240 0093     		str	r3, [sp]
 861 0242 8633     		adds	r3, r3, #134
 862 0244 424A     		ldr	r2, .L73+4
 863 0246 1832     		adds	r2, r2, #24
 864 0248 4249     		ldr	r1, .L73+8
 865 024a 0020     		movs	r0, #0
 866              	.LVL144:
 867 024c A047     		blx	r4
 868              	.LVL145:
 869              	.L51:
 870              	.LBE30:
 136:Source\azure_iot_sdk\uamqp\src/message_receiver.c ****             }
 871              		.loc 1 136 0 is_stmt 1
 872 024e 0123     		movs	r3, #1
 873 0250 3377     		strb	r3, [r6, #28]
 874 0252 FAE0     		b	.L24
 875              	.LVL146:
 876              	.L48:
 877              	.LBE28:
 140:Source\azure_iot_sdk\uamqp\src/message_receiver.c ****     {
 878              		.loc 1 140 0
 879 0254 2000     		movs	r0, r4
 880 0256 FFF7FEFF 		bl	is_amqp_value_type_by_descriptor
 881              	.LVL147:
 882 025a 0028     		cmp	r0, #0
 883 025c 58D0     		beq	.L52
 884              	.LBB31:
 143:Source\azure_iot_sdk\uamqp\src/message_receiver.c ****         {
 885              		.loc 1 143 0
 886 025e 06A9     		add	r1, sp, #24
 887 0260 3800     		movs	r0, r7
 888 0262 FFF7FEFF 		bl	message_get_body_type
 889              	.LVL148:
 890 0266 0028     		cmp	r0, #0
 891 0268 10D0     		beq	.L53
 892              	.LBB32:
 145:Source\azure_iot_sdk\uamqp\src/message_receiver.c ****             message_receiver->decode_error = true;
 893              		.loc 1 145 0 discriminator 3
 894 026a FFF7FEFF 		bl	xlogging_get_log_function
 895              	.LVL149:
 896 026e 041E     		subs	r4, r0, #0
 897              	.LVL150:
 898 0270 09D0     		beq	.L54
 145:Source\azure_iot_sdk\uamqp\src/message_receiver.c ****             message_receiver->decode_error = true;
 899              		.loc 1 145 0 is_stmt 0 discriminator 4
 900 0272 434B     		ldr	r3, .L73+52
 901 0274 0193     		str	r3, [sp, #4]
 902 0276 0123     		movs	r3, #1
 903 0278 0093     		str	r3, [sp]
 904 027a 9033     		adds	r3, r3, #144
 905 027c 344A     		ldr	r2, .L73+4
ARM GAS  C:\Users\Phuong\AppData\Local\Temp\ccqGhR5Z.s 			page 24


 906 027e 1832     		adds	r2, r2, #24
 907 0280 3449     		ldr	r1, .L73+8
 908 0282 0020     		movs	r0, #0
 909              	.LVL151:
 910 0284 A047     		blx	r4
 911              	.LVL152:
 912              	.L54:
 913              	.LBE32:
 146:Source\azure_iot_sdk\uamqp\src/message_receiver.c ****         }
 914              		.loc 1 146 0 is_stmt 1
 915 0286 0123     		movs	r3, #1
 916 0288 3377     		strb	r3, [r6, #28]
 917 028a DEE0     		b	.L24
 918              	.LVL153:
 919              	.L53:
 150:Source\azure_iot_sdk\uamqp\src/message_receiver.c ****             {
 920              		.loc 1 150 0
 921 028c 06AB     		add	r3, sp, #24
 922 028e 1B78     		ldrb	r3, [r3]
 923 0290 002B     		cmp	r3, #0
 924 0292 10D0     		beq	.L56
 925              	.LBB33:
 152:Source\azure_iot_sdk\uamqp\src/message_receiver.c ****                 message_receiver->decode_error = true;
 926              		.loc 1 152 0 discriminator 3
 927 0294 FFF7FEFF 		bl	xlogging_get_log_function
 928              	.LVL154:
 929 0298 041E     		subs	r4, r0, #0
 930              	.LVL155:
 931 029a 09D0     		beq	.L57
 152:Source\azure_iot_sdk\uamqp\src/message_receiver.c ****                 message_receiver->decode_error = true;
 932              		.loc 1 152 0 is_stmt 0 discriminator 4
 933 029c 394B     		ldr	r3, .L73+56
 934 029e 0193     		str	r3, [sp, #4]
 935 02a0 0123     		movs	r3, #1
 936 02a2 0093     		str	r3, [sp]
 937 02a4 9733     		adds	r3, r3, #151
 938 02a6 2A4A     		ldr	r2, .L73+4
 939 02a8 1832     		adds	r2, r2, #24
 940 02aa 2A49     		ldr	r1, .L73+8
 941 02ac 0020     		movs	r0, #0
 942              	.LVL156:
 943 02ae A047     		blx	r4
 944              	.LVL157:
 945              	.L57:
 946              	.LBE33:
 153:Source\azure_iot_sdk\uamqp\src/message_receiver.c ****             }
 947              		.loc 1 153 0 is_stmt 1
 948 02b0 0123     		movs	r3, #1
 949 02b2 3377     		strb	r3, [r6, #28]
 950 02b4 C9E0     		b	.L24
 951              	.LVL158:
 952              	.L56:
 953              	.LBB34:
 157:Source\azure_iot_sdk\uamqp\src/message_receiver.c ****                 if (body_amqp_value == NULL)
 954              		.loc 1 157 0
 955 02b6 2800     		movs	r0, r5
 956 02b8 FFF7FEFF 		bl	amqpvalue_get_inplace_described_value
ARM GAS  C:\Users\Phuong\AppData\Local\Temp\ccqGhR5Z.s 			page 25


 957              	.LVL159:
 958 02bc 011E     		subs	r1, r0, #0
 959              	.LVL160:
 158:Source\azure_iot_sdk\uamqp\src/message_receiver.c ****                 {
 960              		.loc 1 158 0
 961 02be 10D1     		bne	.L58
 962              	.LBB35:
 160:Source\azure_iot_sdk\uamqp\src/message_receiver.c ****                     message_receiver->decode_error = true;
 963              		.loc 1 160 0 discriminator 3
 964 02c0 FFF7FEFF 		bl	xlogging_get_log_function
 965              	.LVL161:
 966 02c4 041E     		subs	r4, r0, #0
 967              	.LVL162:
 968 02c6 09D0     		beq	.L59
 160:Source\azure_iot_sdk\uamqp\src/message_receiver.c ****                     message_receiver->decode_error = true;
 969              		.loc 1 160 0 is_stmt 0 discriminator 4
 970 02c8 2F4B     		ldr	r3, .L73+60
 971 02ca 0193     		str	r3, [sp, #4]
 972 02cc 0123     		movs	r3, #1
 973 02ce 0093     		str	r3, [sp]
 974 02d0 9F33     		adds	r3, r3, #159
 975 02d2 1F4A     		ldr	r2, .L73+4
 976 02d4 1832     		adds	r2, r2, #24
 977 02d6 1F49     		ldr	r1, .L73+8
 978 02d8 0020     		movs	r0, #0
 979              	.LVL163:
 980 02da A047     		blx	r4
 981              	.LVL164:
 982              	.L59:
 983              	.LBE35:
 161:Source\azure_iot_sdk\uamqp\src/message_receiver.c ****                 }
 984              		.loc 1 161 0 is_stmt 1
 985 02dc 0123     		movs	r3, #1
 986 02de 3377     		strb	r3, [r6, #28]
 987 02e0 B3E0     		b	.L24
 988              	.LVL165:
 989              	.L58:
 165:Source\azure_iot_sdk\uamqp\src/message_receiver.c ****                     {
 990              		.loc 1 165 0
 991 02e2 3800     		movs	r0, r7
 992              	.LVL166:
 993 02e4 FFF7FEFF 		bl	message_set_body_amqp_value
 994              	.LVL167:
 995 02e8 0028     		cmp	r0, #0
 996 02ea 00D1     		bne	.LCB1093
 997 02ec ADE0     		b	.L24	@long jump
 998              	.LCB1093:
 999              	.LBB36:
 167:Source\azure_iot_sdk\uamqp\src/message_receiver.c ****                         message_receiver->decode_error = true;
 1000              		.loc 1 167 0 discriminator 3
 1001 02ee FFF7FEFF 		bl	xlogging_get_log_function
 1002              	.LVL168:
 1003 02f2 041E     		subs	r4, r0, #0
 1004              	.LVL169:
 1005 02f4 09D0     		beq	.L60
 167:Source\azure_iot_sdk\uamqp\src/message_receiver.c ****                         message_receiver->decode_error = true;
 1006              		.loc 1 167 0 is_stmt 0 discriminator 4
ARM GAS  C:\Users\Phuong\AppData\Local\Temp\ccqGhR5Z.s 			page 26


 1007 02f6 254B     		ldr	r3, .L73+64
 1008 02f8 0193     		str	r3, [sp, #4]
 1009 02fa 0123     		movs	r3, #1
 1010 02fc 0093     		str	r3, [sp]
 1011 02fe A633     		adds	r3, r3, #166
 1012 0300 134A     		ldr	r2, .L73+4
 1013 0302 1832     		adds	r2, r2, #24
 1014 0304 1349     		ldr	r1, .L73+8
 1015 0306 0020     		movs	r0, #0
 1016              	.LVL170:
 1017 0308 A047     		blx	r4
 1018              	.LVL171:
 1019              	.L60:
 1020              	.LBE36:
 168:Source\azure_iot_sdk\uamqp\src/message_receiver.c ****                     }
 1021              		.loc 1 168 0 is_stmt 1
 1022 030a 0123     		movs	r3, #1
 1023 030c 3377     		strb	r3, [r6, #28]
 1024 030e 9CE0     		b	.L24
 1025              	.LVL172:
 1026              	.L52:
 1027              	.LBE34:
 1028              	.LBE31:
 174:Source\azure_iot_sdk\uamqp\src/message_receiver.c ****     {
 1029              		.loc 1 174 0
 1030 0310 2000     		movs	r0, r4
 1031 0312 FFF7FEFF 		bl	is_data_type_by_descriptor
 1032              	.LVL173:
 1033 0316 0028     		cmp	r0, #0
 1034 0318 00D1     		bne	.LCB1136
 1035 031a 96E0     		b	.L24	@long jump
 1036              	.LCB1136:
 1037              	.LBB37:
 177:Source\azure_iot_sdk\uamqp\src/message_receiver.c ****         {
 1038              		.loc 1 177 0
 1039 031c 0F21     		movs	r1, #15
 1040 031e 6944     		add	r1, r1, sp
 1041 0320 3800     		movs	r0, r7
 1042 0322 FFF7FEFF 		bl	message_get_body_type
 1043              	.LVL174:
 1044 0326 0028     		cmp	r0, #0
 1045 0328 32D0     		beq	.L61
 1046              	.LBB38:
 179:Source\azure_iot_sdk\uamqp\src/message_receiver.c ****             message_receiver->decode_error = true;
 1047              		.loc 1 179 0 discriminator 3
 1048 032a FFF7FEFF 		bl	xlogging_get_log_function
 1049              	.LVL175:
 1050 032e 041E     		subs	r4, r0, #0
 1051              	.LVL176:
 1052 0330 09D0     		beq	.L62
 179:Source\azure_iot_sdk\uamqp\src/message_receiver.c ****             message_receiver->decode_error = true;
 1053              		.loc 1 179 0 is_stmt 0 discriminator 4
 1054 0332 134B     		ldr	r3, .L73+52
 1055 0334 0193     		str	r3, [sp, #4]
 1056 0336 0123     		movs	r3, #1
 1057 0338 0093     		str	r3, [sp]
 1058 033a B233     		adds	r3, r3, #178
ARM GAS  C:\Users\Phuong\AppData\Local\Temp\ccqGhR5Z.s 			page 27


 1059 033c 044A     		ldr	r2, .L73+4
 1060 033e 1832     		adds	r2, r2, #24
 1061 0340 0449     		ldr	r1, .L73+8
 1062 0342 0020     		movs	r0, #0
 1063              	.LVL177:
 1064 0344 A047     		blx	r4
 1065              	.LVL178:
 1066              	.L62:
 1067              	.LBE38:
 180:Source\azure_iot_sdk\uamqp\src/message_receiver.c ****         }
 1068              		.loc 1 180 0 is_stmt 1
 1069 0346 0123     		movs	r3, #1
 1070 0348 3377     		strb	r3, [r6, #28]
 1071 034a 7EE0     		b	.L24
 1072              	.L74:
 1073              		.align	2
 1074              	.L73:
 1075 034c 9C000000 		.word	.LC14
 1076 0350 00000000 		.word	.LANCHOR0
 1077 0354 00000000 		.word	.LC1
 1078 0358 D8000000 		.word	.LC16
 1079 035c FC000000 		.word	.LC18
 1080 0360 34010000 		.word	.LC20
 1081 0364 58010000 		.word	.LC22
 1082 0368 90010000 		.word	.LC24
 1083 036c B4010000 		.word	.LC26
 1084 0370 EC010000 		.word	.LC28
 1085 0374 0C020000 		.word	.LC30
 1086 0378 40020000 		.word	.LC32
 1087 037c 60020000 		.word	.LC34
 1088 0380 94020000 		.word	.LC36
 1089 0384 B4020000 		.word	.LC38
 1090 0388 DC020000 		.word	.LC40
 1091 038c FC020000 		.word	.LC42
 1092              	.LVL179:
 1093              	.L61:
 184:Source\azure_iot_sdk\uamqp\src/message_receiver.c ****                 (body_type != MESSAGE_BODY_TYPE_DATA))
 1094              		.loc 1 184 0
 1095 0390 0F23     		movs	r3, #15
 1096 0392 6B44     		add	r3, r3, sp
 1097 0394 1B78     		ldrb	r3, [r3]
 1098 0396 012B     		cmp	r3, #1
 1099 0398 10D9     		bls	.L64
 1100              	.LBB39:
 187:Source\azure_iot_sdk\uamqp\src/message_receiver.c ****                 message_receiver->decode_error = true;
 1101              		.loc 1 187 0 discriminator 3
 1102 039a FFF7FEFF 		bl	xlogging_get_log_function
 1103              	.LVL180:
 1104 039e 041E     		subs	r4, r0, #0
 1105              	.LVL181:
 1106 03a0 09D0     		beq	.L65
 187:Source\azure_iot_sdk\uamqp\src/message_receiver.c ****                 message_receiver->decode_error = true;
 1107              		.loc 1 187 0 is_stmt 0 discriminator 4
 1108 03a2 2B4B     		ldr	r3, .L75
 1109 03a4 0193     		str	r3, [sp, #4]
 1110 03a6 0123     		movs	r3, #1
 1111 03a8 0093     		str	r3, [sp]
ARM GAS  C:\Users\Phuong\AppData\Local\Temp\ccqGhR5Z.s 			page 28


 1112 03aa BA33     		adds	r3, r3, #186
 1113 03ac 294A     		ldr	r2, .L75+4
 1114 03ae 1832     		adds	r2, r2, #24
 1115 03b0 2949     		ldr	r1, .L75+8
 1116 03b2 0020     		movs	r0, #0
 1117              	.LVL182:
 1118 03b4 A047     		blx	r4
 1119              	.LVL183:
 1120              	.L65:
 1121              	.LBE39:
 188:Source\azure_iot_sdk\uamqp\src/message_receiver.c ****             }
 1122              		.loc 1 188 0 is_stmt 1
 1123 03b6 0123     		movs	r3, #1
 1124 03b8 3377     		strb	r3, [r6, #28]
 1125 03ba 46E0     		b	.L24
 1126              	.LVL184:
 1127              	.L64:
 1128              	.LBB40:
 192:Source\azure_iot_sdk\uamqp\src/message_receiver.c ****                 if (body_data_value == NULL)
 1129              		.loc 1 192 0
 1130 03bc 2800     		movs	r0, r5
 1131 03be FFF7FEFF 		bl	amqpvalue_get_inplace_described_value
 1132              	.LVL185:
 193:Source\azure_iot_sdk\uamqp\src/message_receiver.c ****                 {
 1133              		.loc 1 193 0
 1134 03c2 0028     		cmp	r0, #0
 1135 03c4 10D1     		bne	.L66
 1136              	.LBB41:
 195:Source\azure_iot_sdk\uamqp\src/message_receiver.c ****                     message_receiver->decode_error = true;
 1137              		.loc 1 195 0 discriminator 3
 1138 03c6 FFF7FEFF 		bl	xlogging_get_log_function
 1139              	.LVL186:
 1140 03ca 041E     		subs	r4, r0, #0
 1141              	.LVL187:
 1142 03cc 09D0     		beq	.L67
 195:Source\azure_iot_sdk\uamqp\src/message_receiver.c ****                     message_receiver->decode_error = true;
 1143              		.loc 1 195 0 is_stmt 0 discriminator 4
 1144 03ce 234B     		ldr	r3, .L75+12
 1145 03d0 0193     		str	r3, [sp, #4]
 1146 03d2 0123     		movs	r3, #1
 1147 03d4 0093     		str	r3, [sp]
 1148 03d6 C233     		adds	r3, r3, #194
 1149 03d8 1E4A     		ldr	r2, .L75+4
 1150 03da 1832     		adds	r2, r2, #24
 1151 03dc 1E49     		ldr	r1, .L75+8
 1152 03de 0020     		movs	r0, #0
 1153              	.LVL188:
 1154 03e0 A047     		blx	r4
 1155              	.LVL189:
 1156              	.L67:
 1157              	.LBE41:
 196:Source\azure_iot_sdk\uamqp\src/message_receiver.c ****                 }
 1158              		.loc 1 196 0 is_stmt 1
 1159 03e2 0123     		movs	r3, #1
 1160 03e4 3377     		strb	r3, [r6, #28]
 1161 03e6 30E0     		b	.L24
 1162              	.LVL190:
ARM GAS  C:\Users\Phuong\AppData\Local\Temp\ccqGhR5Z.s 			page 29


 1163              	.L66:
 1164              	.LBB42:
 201:Source\azure_iot_sdk\uamqp\src/message_receiver.c ****                     {
 1165              		.loc 1 201 0
 1166 03e8 04A9     		add	r1, sp, #16
 1167 03ea FFF7FEFF 		bl	amqpvalue_get_binary
 1168              	.LVL191:
 1169 03ee 0028     		cmp	r0, #0
 1170 03f0 10D0     		beq	.L68
 1171              	.LBB43:
 203:Source\azure_iot_sdk\uamqp\src/message_receiver.c ****                         message_receiver->decode_error = true;
 1172              		.loc 1 203 0 discriminator 3
 1173 03f2 FFF7FEFF 		bl	xlogging_get_log_function
 1174              	.LVL192:
 1175 03f6 041E     		subs	r4, r0, #0
 1176              	.LVL193:
 1177 03f8 09D0     		beq	.L69
 203:Source\azure_iot_sdk\uamqp\src/message_receiver.c ****                         message_receiver->decode_error = true;
 1178              		.loc 1 203 0 is_stmt 0 discriminator 4
 1179 03fa 194B     		ldr	r3, .L75+16
 1180 03fc 0193     		str	r3, [sp, #4]
 1181 03fe 0123     		movs	r3, #1
 1182 0400 0093     		str	r3, [sp]
 1183 0402 CA33     		adds	r3, r3, #202
 1184 0404 134A     		ldr	r2, .L75+4
 1185 0406 1832     		adds	r2, r2, #24
 1186 0408 1349     		ldr	r1, .L75+8
 1187 040a 0020     		movs	r0, #0
 1188              	.LVL194:
 1189 040c A047     		blx	r4
 1190              	.LVL195:
 1191              	.L69:
 1192              	.LBE43:
 204:Source\azure_iot_sdk\uamqp\src/message_receiver.c ****                     }
 1193              		.loc 1 204 0 is_stmt 1
 1194 040e 0123     		movs	r3, #1
 1195 0410 3377     		strb	r3, [r6, #28]
 1196 0412 1AE0     		b	.L24
 1197              	.LVL196:
 1198              	.L68:
 1199              	.LBB44:
 209:Source\azure_iot_sdk\uamqp\src/message_receiver.c ****                         binary_data.length = data_value.length;
 1200              		.loc 1 209 0
 1201 0414 049B     		ldr	r3, [sp, #16]
 1202 0416 0693     		str	r3, [sp, #24]
 210:Source\azure_iot_sdk\uamqp\src/message_receiver.c ****                         if (message_add_body_amqp_data(decoded_message, binary_data) != 0)
 1203              		.loc 1 210 0
 1204 0418 059B     		ldr	r3, [sp, #20]
 1205 041a 0793     		str	r3, [sp, #28]
 211:Source\azure_iot_sdk\uamqp\src/message_receiver.c ****                         {
 1206              		.loc 1 211 0
 1207 041c 0499     		ldr	r1, [sp, #16]
 1208 041e 1A00     		movs	r2, r3
 1209 0420 3800     		movs	r0, r7
 1210 0422 FFF7FEFF 		bl	message_add_body_amqp_data
 1211              	.LVL197:
 1212 0426 0028     		cmp	r0, #0
ARM GAS  C:\Users\Phuong\AppData\Local\Temp\ccqGhR5Z.s 			page 30


 1213 0428 0FD0     		beq	.L24
 1214              	.LBB45:
 213:Source\azure_iot_sdk\uamqp\src/message_receiver.c ****                             message_receiver->decode_error = true;
 1215              		.loc 1 213 0 discriminator 3
 1216 042a FFF7FEFF 		bl	xlogging_get_log_function
 1217              	.LVL198:
 1218 042e 041E     		subs	r4, r0, #0
 1219              	.LVL199:
 1220 0430 09D0     		beq	.L72
 213:Source\azure_iot_sdk\uamqp\src/message_receiver.c ****                             message_receiver->decode_error = true;
 1221              		.loc 1 213 0 is_stmt 0 discriminator 4
 1222 0432 0C4B     		ldr	r3, .L75+20
 1223 0434 0193     		str	r3, [sp, #4]
 1224 0436 0123     		movs	r3, #1
 1225 0438 0093     		str	r3, [sp]
 1226 043a D433     		adds	r3, r3, #212
 1227 043c 054A     		ldr	r2, .L75+4
 1228 043e 1832     		adds	r2, r2, #24
 1229 0440 0549     		ldr	r1, .L75+8
 1230 0442 0020     		movs	r0, #0
 1231              	.LVL200:
 1232 0444 A047     		blx	r4
 1233              	.LVL201:
 1234              	.L72:
 1235              	.LBE45:
 214:Source\azure_iot_sdk\uamqp\src/message_receiver.c ****                         }
 1236              		.loc 1 214 0 is_stmt 1
 1237 0446 0123     		movs	r3, #1
 1238 0448 3377     		strb	r3, [r6, #28]
 1239              	.LVL202:
 1240              	.L24:
 1241              	.LBE44:
 1242              	.LBE42:
 1243              	.LBE40:
 1244              	.LBE37:
 221:Source\azure_iot_sdk\uamqp\src/message_receiver.c **** 
 1245              		.loc 1 221 0
 1246 044a 09B0     		add	sp, sp, #36
 1247              		@ sp needed
 1248              	.LVL203:
 1249              	.LVL204:
 1250              	.LVL205:
 1251 044c F0BD     		pop	{r4, r5, r6, r7, pc}
 1252              	.L76:
 1253 044e C046     		.align	2
 1254              	.L75:
 1255 0450 30030000 		.word	.LC44
 1256 0454 00000000 		.word	.LANCHOR0
 1257 0458 00000000 		.word	.LC1
 1258 045c 74030000 		.word	.LC46
 1259 0460 94030000 		.word	.LC48
 1260 0464 B8030000 		.word	.LC50
 1261              		.cfi_endproc
 1262              	.LFE2:
 1263              		.size	decode_message_value_callback, .-decode_message_value_callback
 1264              		.section	.text.messagereceiver_create,"ax",%progbits
 1265              		.align	2
ARM GAS  C:\Users\Phuong\AppData\Local\Temp\ccqGhR5Z.s 			page 31


 1266              		.global	messagereceiver_create
 1267              		.code	16
 1268              		.thumb_func
 1269              		.type	messagereceiver_create, %function
 1270              	messagereceiver_create:
 1271              	.LFB5:
 314:Source\azure_iot_sdk\uamqp\src/message_receiver.c **** 
 315:Source\azure_iot_sdk\uamqp\src/message_receiver.c **** MESSAGE_RECEIVER_HANDLE messagereceiver_create(LINK_HANDLE link, ON_MESSAGE_RECEIVER_STATE_CHANGED 
 316:Source\azure_iot_sdk\uamqp\src/message_receiver.c **** {
 1272              		.loc 1 316 0
 1273              		.cfi_startproc
 1274              		@ args = 0, pretend = 0, frame = 0
 1275              		@ frame_needed = 0, uses_anonymous_args = 0
 1276              	.LVL206:
 1277 0000 F0B5     		push	{r4, r5, r6, r7, lr}
 1278              		.cfi_def_cfa_offset 20
 1279              		.cfi_offset 4, -20
 1280              		.cfi_offset 5, -16
 1281              		.cfi_offset 6, -12
 1282              		.cfi_offset 7, -8
 1283              		.cfi_offset 14, -4
 1284 0002 83B0     		sub	sp, sp, #12
 1285              		.cfi_def_cfa_offset 32
 1286 0004 0700     		movs	r7, r0
 1287 0006 0E00     		movs	r6, r1
 1288 0008 1500     		movs	r5, r2
 317:Source\azure_iot_sdk\uamqp\src/message_receiver.c ****     MESSAGE_RECEIVER_INSTANCE* message_receiver = (MESSAGE_RECEIVER_INSTANCE*)malloc(sizeof(MESSAGE
 1289              		.loc 1 317 0
 1290 000a 2020     		movs	r0, #32
 1291              	.LVL207:
 1292 000c FFF7FEFF 		bl	malloc
 1293              	.LVL208:
 1294 0010 041E     		subs	r4, r0, #0
 1295              	.LVL209:
 318:Source\azure_iot_sdk\uamqp\src/message_receiver.c ****     if (message_receiver == NULL)
 1296              		.loc 1 318 0
 1297 0012 0FD1     		bne	.L78
 1298              	.LBB46:
 319:Source\azure_iot_sdk\uamqp\src/message_receiver.c ****     {
 320:Source\azure_iot_sdk\uamqp\src/message_receiver.c ****         LogError("Error creating message receiver");
 1299              		.loc 1 320 0 discriminator 3
 1300 0014 FFF7FEFF 		bl	xlogging_get_log_function
 1301              	.LVL210:
 1302 0018 051E     		subs	r5, r0, #0
 1303              	.LVL211:
 1304 001a 10D0     		beq	.L79
 1305              		.loc 1 320 0 is_stmt 0 discriminator 4
 1306 001c 094B     		ldr	r3, .L80
 1307 001e 0193     		str	r3, [sp, #4]
 1308 0020 0123     		movs	r3, #1
 1309 0022 0093     		str	r3, [sp]
 1310 0024 4033     		adds	r3, r3, #64
 1311 0026 FF33     		adds	r3, r3, #255
 1312 0028 074A     		ldr	r2, .L80+4
 1313 002a 3832     		adds	r2, r2, #56
 1314 002c 0749     		ldr	r1, .L80+8
 1315 002e 0020     		movs	r0, #0
ARM GAS  C:\Users\Phuong\AppData\Local\Temp\ccqGhR5Z.s 			page 32


 1316              	.LVL212:
 1317 0030 A847     		blx	r5
 1318              	.LVL213:
 1319 0032 04E0     		b	.L79
 1320              	.LVL214:
 1321              	.L78:
 1322              	.LBE46:
 321:Source\azure_iot_sdk\uamqp\src/message_receiver.c ****     }
 322:Source\azure_iot_sdk\uamqp\src/message_receiver.c ****     else
 323:Source\azure_iot_sdk\uamqp\src/message_receiver.c ****     {
 324:Source\azure_iot_sdk\uamqp\src/message_receiver.c ****         message_receiver->link = link;
 1323              		.loc 1 324 0 is_stmt 1
 1324 0034 0760     		str	r7, [r0]
 325:Source\azure_iot_sdk\uamqp\src/message_receiver.c ****         message_receiver->on_message_receiver_state_changed = on_message_receiver_state_changed;
 1325              		.loc 1 325 0
 1326 0036 8660     		str	r6, [r0, #8]
 326:Source\azure_iot_sdk\uamqp\src/message_receiver.c ****         message_receiver->on_message_receiver_state_changed_context = context;
 1327              		.loc 1 326 0
 1328 0038 0561     		str	r5, [r0, #16]
 327:Source\azure_iot_sdk\uamqp\src/message_receiver.c ****         message_receiver->message_receiver_state = MESSAGE_RECEIVER_STATE_IDLE;
 1329              		.loc 1 327 0
 1330 003a 0023     		movs	r3, #0
 1331 003c 0373     		strb	r3, [r0, #12]
 1332              	.LVL215:
 1333              	.L79:
 328:Source\azure_iot_sdk\uamqp\src/message_receiver.c ****     }
 329:Source\azure_iot_sdk\uamqp\src/message_receiver.c **** 
 330:Source\azure_iot_sdk\uamqp\src/message_receiver.c ****     return message_receiver;
 331:Source\azure_iot_sdk\uamqp\src/message_receiver.c **** }
 1334              		.loc 1 331 0
 1335 003e 2000     		movs	r0, r4
 1336 0040 03B0     		add	sp, sp, #12
 1337              		@ sp needed
 1338              	.LVL216:
 1339              	.LVL217:
 1340              	.LVL218:
 1341 0042 F0BD     		pop	{r4, r5, r6, r7, pc}
 1342              	.L81:
 1343              		.align	2
 1344              	.L80:
 1345 0044 E4030000 		.word	.LC54
 1346 0048 00000000 		.word	.LANCHOR0
 1347 004c 00000000 		.word	.LC1
 1348              		.cfi_endproc
 1349              	.LFE5:
 1350              		.size	messagereceiver_create, .-messagereceiver_create
 1351              		.section	.text.messagereceiver_open,"ax",%progbits
 1352              		.align	2
 1353              		.global	messagereceiver_open
 1354              		.code	16
 1355              		.thumb_func
 1356              		.type	messagereceiver_open, %function
 1357              	messagereceiver_open:
 1358              	.LFB7:
 332:Source\azure_iot_sdk\uamqp\src/message_receiver.c **** 
 333:Source\azure_iot_sdk\uamqp\src/message_receiver.c **** void messagereceiver_destroy(MESSAGE_RECEIVER_HANDLE message_receiver)
 334:Source\azure_iot_sdk\uamqp\src/message_receiver.c **** {
ARM GAS  C:\Users\Phuong\AppData\Local\Temp\ccqGhR5Z.s 			page 33


 335:Source\azure_iot_sdk\uamqp\src/message_receiver.c ****     if (message_receiver == NULL)
 336:Source\azure_iot_sdk\uamqp\src/message_receiver.c ****     {
 337:Source\azure_iot_sdk\uamqp\src/message_receiver.c ****         LogError("NULL message_receiver");
 338:Source\azure_iot_sdk\uamqp\src/message_receiver.c ****     }
 339:Source\azure_iot_sdk\uamqp\src/message_receiver.c ****     else
 340:Source\azure_iot_sdk\uamqp\src/message_receiver.c ****     {
 341:Source\azure_iot_sdk\uamqp\src/message_receiver.c ****         (void)messagereceiver_close(message_receiver);
 342:Source\azure_iot_sdk\uamqp\src/message_receiver.c ****         free(message_receiver);
 343:Source\azure_iot_sdk\uamqp\src/message_receiver.c ****     }
 344:Source\azure_iot_sdk\uamqp\src/message_receiver.c **** }
 345:Source\azure_iot_sdk\uamqp\src/message_receiver.c **** 
 346:Source\azure_iot_sdk\uamqp\src/message_receiver.c **** int messagereceiver_open(MESSAGE_RECEIVER_HANDLE message_receiver, ON_MESSAGE_RECEIVED on_message_r
 347:Source\azure_iot_sdk\uamqp\src/message_receiver.c **** {
 1359              		.loc 1 347 0
 1360              		.cfi_startproc
 1361              		@ args = 0, pretend = 0, frame = 0
 1362              		@ frame_needed = 0, uses_anonymous_args = 0
 1363              	.LVL219:
 1364 0000 70B5     		push	{r4, r5, r6, lr}
 1365              		.cfi_def_cfa_offset 16
 1366              		.cfi_offset 4, -16
 1367              		.cfi_offset 5, -12
 1368              		.cfi_offset 6, -8
 1369              		.cfi_offset 14, -4
 1370 0002 82B0     		sub	sp, sp, #8
 1371              		.cfi_def_cfa_offset 24
 1372 0004 0400     		movs	r4, r0
 1373 0006 0E00     		movs	r6, r1
 1374 0008 1500     		movs	r5, r2
 348:Source\azure_iot_sdk\uamqp\src/message_receiver.c ****     int result;
 349:Source\azure_iot_sdk\uamqp\src/message_receiver.c **** 
 350:Source\azure_iot_sdk\uamqp\src/message_receiver.c ****     if (message_receiver == NULL)
 1375              		.loc 1 350 0
 1376 000a 0028     		cmp	r0, #0
 1377 000c 11D1     		bne	.L83
 1378              	.LBB47:
 351:Source\azure_iot_sdk\uamqp\src/message_receiver.c ****     {
 352:Source\azure_iot_sdk\uamqp\src/message_receiver.c ****         LogError("NULL message_receiver");
 1379              		.loc 1 352 0 discriminator 3
 1380 000e FFF7FEFF 		bl	xlogging_get_log_function
 1381              	.LVL220:
 1382 0012 041E     		subs	r4, r0, #0
 1383              	.LVL221:
 1384 0014 36D0     		beq	.L87
 1385              		.loc 1 352 0 is_stmt 0 discriminator 4
 1386 0016 1E4B     		ldr	r3, .L89
 1387 0018 0193     		str	r3, [sp, #4]
 1388 001a 0123     		movs	r3, #1
 1389 001c 0093     		str	r3, [sp]
 1390 001e 6033     		adds	r3, r3, #96
 1391 0020 FF33     		adds	r3, r3, #255
 1392 0022 1C4A     		ldr	r2, .L89+4
 1393 0024 5032     		adds	r2, r2, #80
 1394 0026 1C49     		ldr	r1, .L89+8
 1395 0028 0020     		movs	r0, #0
 1396              	.LVL222:
 1397 002a A047     		blx	r4
ARM GAS  C:\Users\Phuong\AppData\Local\Temp\ccqGhR5Z.s 			page 34


 1398              	.LVL223:
 1399              	.LBE47:
 353:Source\azure_iot_sdk\uamqp\src/message_receiver.c ****         result = __FAILURE__;
 1400              		.loc 1 353 0 is_stmt 1 discriminator 4
 1401 002c 6220     		movs	r0, #98
 1402 002e FF30     		adds	r0, r0, #255
 1403 0030 2CE0     		b	.L84
 1404              	.LVL224:
 1405              	.L83:
 354:Source\azure_iot_sdk\uamqp\src/message_receiver.c ****     }
 355:Source\azure_iot_sdk\uamqp\src/message_receiver.c ****     else
 356:Source\azure_iot_sdk\uamqp\src/message_receiver.c ****     {
 357:Source\azure_iot_sdk\uamqp\src/message_receiver.c ****         if (message_receiver->message_receiver_state == MESSAGE_RECEIVER_STATE_IDLE)
 1406              		.loc 1 357 0
 1407 0032 037B     		ldrb	r3, [r0, #12]
 1408 0034 002B     		cmp	r3, #0
 1409 0036 28D1     		bne	.L88
 358:Source\azure_iot_sdk\uamqp\src/message_receiver.c ****         {
 359:Source\azure_iot_sdk\uamqp\src/message_receiver.c ****             set_message_receiver_state(message_receiver, MESSAGE_RECEIVER_STATE_OPENING);
 1410              		.loc 1 359 0
 1411 0038 0121     		movs	r1, #1
 1412              	.LVL225:
 1413 003a FFF7FEFF 		bl	set_message_receiver_state
 1414              	.LVL226:
 360:Source\azure_iot_sdk\uamqp\src/message_receiver.c ****             if (link_attach(message_receiver->link, on_transfer_received, on_link_state_changed, NU
 1415              		.loc 1 360 0
 1416 003e 0094     		str	r4, [sp]
 1417 0040 0023     		movs	r3, #0
 1418 0042 164A     		ldr	r2, .L89+12
 1419 0044 1649     		ldr	r1, .L89+16
 1420 0046 2068     		ldr	r0, [r4]
 1421 0048 FFF7FEFF 		bl	link_attach
 1422              	.LVL227:
 1423 004c 0028     		cmp	r0, #0
 1424 004e 15D0     		beq	.L85
 1425              	.LBB48:
 361:Source\azure_iot_sdk\uamqp\src/message_receiver.c ****             {
 362:Source\azure_iot_sdk\uamqp\src/message_receiver.c ****                 LogError("Link attach failed");
 1426              		.loc 1 362 0 discriminator 3
 1427 0050 FFF7FEFF 		bl	xlogging_get_log_function
 1428              	.LVL228:
 1429 0054 051E     		subs	r5, r0, #0
 1430              	.LVL229:
 1431 0056 0AD0     		beq	.L86
 1432              		.loc 1 362 0 is_stmt 0 discriminator 4
 1433 0058 124B     		ldr	r3, .L89+20
 1434 005a 0193     		str	r3, [sp, #4]
 1435 005c 0123     		movs	r3, #1
 1436 005e 0093     		str	r3, [sp]
 1437 0060 6A33     		adds	r3, r3, #106
 1438 0062 FF33     		adds	r3, r3, #255
 1439 0064 0B4A     		ldr	r2, .L89+4
 1440 0066 5032     		adds	r2, r2, #80
 1441 0068 0B49     		ldr	r1, .L89+8
 1442 006a 0020     		movs	r0, #0
 1443              	.LVL230:
 1444 006c A847     		blx	r5
ARM GAS  C:\Users\Phuong\AppData\Local\Temp\ccqGhR5Z.s 			page 35


 1445              	.LVL231:
 1446              	.L86:
 1447              	.LBE48:
 363:Source\azure_iot_sdk\uamqp\src/message_receiver.c ****                 result = __FAILURE__;
 364:Source\azure_iot_sdk\uamqp\src/message_receiver.c ****                 set_message_receiver_state(message_receiver, MESSAGE_RECEIVER_STATE_ERROR);
 1448              		.loc 1 364 0 is_stmt 1
 1449 006e 0421     		movs	r1, #4
 1450 0070 2000     		movs	r0, r4
 1451 0072 FFF7FEFF 		bl	set_message_receiver_state
 1452              	.LVL232:
 363:Source\azure_iot_sdk\uamqp\src/message_receiver.c ****                 result = __FAILURE__;
 1453              		.loc 1 363 0
 1454 0076 6C20     		movs	r0, #108
 1455 0078 FF30     		adds	r0, r0, #255
 1456 007a 07E0     		b	.L84
 1457              	.LVL233:
 1458              	.L85:
 365:Source\azure_iot_sdk\uamqp\src/message_receiver.c ****             }
 366:Source\azure_iot_sdk\uamqp\src/message_receiver.c ****             else
 367:Source\azure_iot_sdk\uamqp\src/message_receiver.c ****             {
 368:Source\azure_iot_sdk\uamqp\src/message_receiver.c ****                 message_receiver->on_message_received = on_message_received;
 1459              		.loc 1 368 0
 1460 007c 6660     		str	r6, [r4, #4]
 369:Source\azure_iot_sdk\uamqp\src/message_receiver.c ****                 message_receiver->callback_context = callback_context;
 1461              		.loc 1 369 0
 1462 007e 6561     		str	r5, [r4, #20]
 1463              	.LVL234:
 370:Source\azure_iot_sdk\uamqp\src/message_receiver.c **** 
 371:Source\azure_iot_sdk\uamqp\src/message_receiver.c ****                 result = 0;
 1464              		.loc 1 371 0
 1465 0080 0020     		movs	r0, #0
 1466 0082 03E0     		b	.L84
 1467              	.LVL235:
 1468              	.L87:
 353:Source\azure_iot_sdk\uamqp\src/message_receiver.c ****     }
 1469              		.loc 1 353 0
 1470 0084 6220     		movs	r0, #98
 1471              	.LVL236:
 1472 0086 FF30     		adds	r0, r0, #255
 1473 0088 00E0     		b	.L84
 1474              	.LVL237:
 1475              	.L88:
 372:Source\azure_iot_sdk\uamqp\src/message_receiver.c ****             }
 373:Source\azure_iot_sdk\uamqp\src/message_receiver.c ****         }
 374:Source\azure_iot_sdk\uamqp\src/message_receiver.c ****         else
 375:Source\azure_iot_sdk\uamqp\src/message_receiver.c ****         {
 376:Source\azure_iot_sdk\uamqp\src/message_receiver.c ****             result = 0;
 1476              		.loc 1 376 0
 1477 008a 0020     		movs	r0, #0
 1478              	.LVL238:
 1479              	.L84:
 377:Source\azure_iot_sdk\uamqp\src/message_receiver.c ****         }
 378:Source\azure_iot_sdk\uamqp\src/message_receiver.c ****     }
 379:Source\azure_iot_sdk\uamqp\src/message_receiver.c **** 
 380:Source\azure_iot_sdk\uamqp\src/message_receiver.c ****     return result;
 381:Source\azure_iot_sdk\uamqp\src/message_receiver.c **** }
 1480              		.loc 1 381 0
ARM GAS  C:\Users\Phuong\AppData\Local\Temp\ccqGhR5Z.s 			page 36


 1481 008c 02B0     		add	sp, sp, #8
 1482              		@ sp needed
 1483              	.LVL239:
 1484 008e 70BD     		pop	{r4, r5, r6, pc}
 1485              	.L90:
 1486              		.align	2
 1487              	.L89:
 1488 0090 04040000 		.word	.LC58
 1489 0094 00000000 		.word	.LANCHOR0
 1490 0098 00000000 		.word	.LC1
 1491 009c 00000000 		.word	on_link_state_changed
 1492 00a0 00000000 		.word	on_transfer_received
 1493 00a4 1C040000 		.word	.LC62
 1494              		.cfi_endproc
 1495              	.LFE7:
 1496              		.size	messagereceiver_open, .-messagereceiver_open
 1497              		.section	.text.messagereceiver_close,"ax",%progbits
 1498              		.align	2
 1499              		.global	messagereceiver_close
 1500              		.code	16
 1501              		.thumb_func
 1502              		.type	messagereceiver_close, %function
 1503              	messagereceiver_close:
 1504              	.LFB8:
 382:Source\azure_iot_sdk\uamqp\src/message_receiver.c **** 
 383:Source\azure_iot_sdk\uamqp\src/message_receiver.c **** int messagereceiver_close(MESSAGE_RECEIVER_HANDLE message_receiver)
 384:Source\azure_iot_sdk\uamqp\src/message_receiver.c **** {
 1505              		.loc 1 384 0
 1506              		.cfi_startproc
 1507              		@ args = 0, pretend = 0, frame = 0
 1508              		@ frame_needed = 0, uses_anonymous_args = 0
 1509              	.LVL240:
 1510 0000 30B5     		push	{r4, r5, lr}
 1511              		.cfi_def_cfa_offset 12
 1512              		.cfi_offset 4, -12
 1513              		.cfi_offset 5, -8
 1514              		.cfi_offset 14, -4
 1515 0002 83B0     		sub	sp, sp, #12
 1516              		.cfi_def_cfa_offset 24
 1517 0004 041E     		subs	r4, r0, #0
 385:Source\azure_iot_sdk\uamqp\src/message_receiver.c ****     int result;
 386:Source\azure_iot_sdk\uamqp\src/message_receiver.c **** 
 387:Source\azure_iot_sdk\uamqp\src/message_receiver.c ****     if (message_receiver == NULL)
 1518              		.loc 1 387 0
 1519 0006 11D1     		bne	.L92
 1520              	.LBB49:
 388:Source\azure_iot_sdk\uamqp\src/message_receiver.c ****     {
 389:Source\azure_iot_sdk\uamqp\src/message_receiver.c ****         LogError("NULL message_receiver");
 1521              		.loc 1 389 0 discriminator 3
 1522 0008 FFF7FEFF 		bl	xlogging_get_log_function
 1523              	.LVL241:
 1524 000c 041E     		subs	r4, r0, #0
 1525              	.LVL242:
 1526 000e 34D0     		beq	.L95
 1527              		.loc 1 389 0 is_stmt 0 discriminator 4
 1528 0010 1E4B     		ldr	r3, .L98
 1529 0012 0193     		str	r3, [sp, #4]
ARM GAS  C:\Users\Phuong\AppData\Local\Temp\ccqGhR5Z.s 			page 37


 1530 0014 0123     		movs	r3, #1
 1531 0016 0093     		str	r3, [sp]
 1532 0018 8623     		movs	r3, #134
 1533 001a FF33     		adds	r3, r3, #255
 1534 001c 1C4A     		ldr	r2, .L98+4
 1535 001e 6832     		adds	r2, r2, #104
 1536 0020 1C49     		ldr	r1, .L98+8
 1537 0022 0020     		movs	r0, #0
 1538              	.LVL243:
 1539 0024 A047     		blx	r4
 1540              	.LVL244:
 1541              	.LBE49:
 390:Source\azure_iot_sdk\uamqp\src/message_receiver.c ****         result = __FAILURE__;
 1542              		.loc 1 390 0 is_stmt 1 discriminator 4
 1543 0026 C320     		movs	r0, #195
 1544 0028 4000     		lsls	r0, r0, #1
 1545 002a 2CE0     		b	.L93
 1546              	.LVL245:
 1547              	.L92:
 391:Source\azure_iot_sdk\uamqp\src/message_receiver.c ****     }
 392:Source\azure_iot_sdk\uamqp\src/message_receiver.c ****     else
 393:Source\azure_iot_sdk\uamqp\src/message_receiver.c ****     {
 394:Source\azure_iot_sdk\uamqp\src/message_receiver.c ****         if ((message_receiver->message_receiver_state == MESSAGE_RECEIVER_STATE_OPENING) ||
 1548              		.loc 1 394 0
 1549 002c 037B     		ldrb	r3, [r0, #12]
 1550 002e 013B     		subs	r3, r3, #1
 1551 0030 DBB2     		uxtb	r3, r3
 1552 0032 012B     		cmp	r3, #1
 1553 0034 24D8     		bhi	.L96
 395:Source\azure_iot_sdk\uamqp\src/message_receiver.c ****             (message_receiver->message_receiver_state == MESSAGE_RECEIVER_STATE_OPEN))
 396:Source\azure_iot_sdk\uamqp\src/message_receiver.c ****         {
 397:Source\azure_iot_sdk\uamqp\src/message_receiver.c ****             set_message_receiver_state(message_receiver, MESSAGE_RECEIVER_STATE_CLOSING);
 1554              		.loc 1 397 0
 1555 0036 0321     		movs	r1, #3
 1556 0038 FFF7FEFF 		bl	set_message_receiver_state
 1557              	.LVL246:
 398:Source\azure_iot_sdk\uamqp\src/message_receiver.c **** 
 399:Source\azure_iot_sdk\uamqp\src/message_receiver.c ****             if (link_detach(message_receiver->link, true, NULL, NULL, NULL) != 0)
 1558              		.loc 1 399 0
 1559 003c 0023     		movs	r3, #0
 1560 003e 0093     		str	r3, [sp]
 1561 0040 0022     		movs	r2, #0
 1562 0042 0121     		movs	r1, #1
 1563 0044 2068     		ldr	r0, [r4]
 1564 0046 FFF7FEFF 		bl	link_detach
 1565              	.LVL247:
 1566 004a 0028     		cmp	r0, #0
 1567 004c 1AD0     		beq	.L97
 1568              	.LBB50:
 400:Source\azure_iot_sdk\uamqp\src/message_receiver.c ****             {
 401:Source\azure_iot_sdk\uamqp\src/message_receiver.c ****                 LogError("link detach failed");
 1569              		.loc 1 401 0 discriminator 3
 1570 004e FFF7FEFF 		bl	xlogging_get_log_function
 1571              	.LVL248:
 1572 0052 051E     		subs	r5, r0, #0
 1573              	.LVL249:
 1574 0054 0AD0     		beq	.L94
ARM GAS  C:\Users\Phuong\AppData\Local\Temp\ccqGhR5Z.s 			page 38


 1575              		.loc 1 401 0 is_stmt 0 discriminator 4
 1576 0056 104B     		ldr	r3, .L98+12
 1577 0058 0193     		str	r3, [sp, #4]
 1578 005a 0123     		movs	r3, #1
 1579 005c 0093     		str	r3, [sp]
 1580 005e 9223     		movs	r3, #146
 1581 0060 FF33     		adds	r3, r3, #255
 1582 0062 0B4A     		ldr	r2, .L98+4
 1583 0064 6832     		adds	r2, r2, #104
 1584 0066 0B49     		ldr	r1, .L98+8
 1585 0068 0020     		movs	r0, #0
 1586              	.LVL250:
 1587 006a A847     		blx	r5
 1588              	.LVL251:
 1589              	.L94:
 1590              	.LBE50:
 402:Source\azure_iot_sdk\uamqp\src/message_receiver.c ****                 result = __FAILURE__;
 403:Source\azure_iot_sdk\uamqp\src/message_receiver.c ****                 set_message_receiver_state(message_receiver, MESSAGE_RECEIVER_STATE_ERROR);
 1591              		.loc 1 403 0 is_stmt 1
 1592 006c 0421     		movs	r1, #4
 1593 006e 2000     		movs	r0, r4
 1594 0070 FFF7FEFF 		bl	set_message_receiver_state
 1595              	.LVL252:
 402:Source\azure_iot_sdk\uamqp\src/message_receiver.c ****                 result = __FAILURE__;
 1596              		.loc 1 402 0
 1597 0074 C920     		movs	r0, #201
 1598 0076 4000     		lsls	r0, r0, #1
 1599 0078 05E0     		b	.L93
 1600              	.LVL253:
 1601              	.L95:
 390:Source\azure_iot_sdk\uamqp\src/message_receiver.c ****     }
 1602              		.loc 1 390 0
 1603 007a C320     		movs	r0, #195
 1604              	.LVL254:
 1605 007c 4000     		lsls	r0, r0, #1
 1606 007e 02E0     		b	.L93
 1607              	.LVL255:
 1608              	.L96:
 404:Source\azure_iot_sdk\uamqp\src/message_receiver.c ****             }
 405:Source\azure_iot_sdk\uamqp\src/message_receiver.c ****             else
 406:Source\azure_iot_sdk\uamqp\src/message_receiver.c ****             {
 407:Source\azure_iot_sdk\uamqp\src/message_receiver.c ****                 result = 0;
 408:Source\azure_iot_sdk\uamqp\src/message_receiver.c ****             }
 409:Source\azure_iot_sdk\uamqp\src/message_receiver.c ****         }
 410:Source\azure_iot_sdk\uamqp\src/message_receiver.c ****         else
 411:Source\azure_iot_sdk\uamqp\src/message_receiver.c ****         {
 412:Source\azure_iot_sdk\uamqp\src/message_receiver.c ****             result = 0;
 1609              		.loc 1 412 0
 1610 0080 0020     		movs	r0, #0
 1611              	.LVL256:
 1612 0082 00E0     		b	.L93
 1613              	.L97:
 407:Source\azure_iot_sdk\uamqp\src/message_receiver.c ****             }
 1614              		.loc 1 407 0
 1615 0084 0020     		movs	r0, #0
 1616              	.LVL257:
 1617              	.L93:
ARM GAS  C:\Users\Phuong\AppData\Local\Temp\ccqGhR5Z.s 			page 39


 413:Source\azure_iot_sdk\uamqp\src/message_receiver.c ****         }
 414:Source\azure_iot_sdk\uamqp\src/message_receiver.c ****     }
 415:Source\azure_iot_sdk\uamqp\src/message_receiver.c **** 
 416:Source\azure_iot_sdk\uamqp\src/message_receiver.c ****     return result;
 417:Source\azure_iot_sdk\uamqp\src/message_receiver.c **** }
 1618              		.loc 1 417 0
 1619 0086 03B0     		add	sp, sp, #12
 1620              		@ sp needed
 1621 0088 30BD     		pop	{r4, r5, pc}
 1622              	.L99:
 1623 008a C046     		.align	2
 1624              	.L98:
 1625 008c 04040000 		.word	.LC58
 1626 0090 00000000 		.word	.LANCHOR0
 1627 0094 00000000 		.word	.LC1
 1628 0098 30040000 		.word	.LC67
 1629              		.cfi_endproc
 1630              	.LFE8:
 1631              		.size	messagereceiver_close, .-messagereceiver_close
 1632              		.section	.text.messagereceiver_destroy,"ax",%progbits
 1633              		.align	2
 1634              		.global	messagereceiver_destroy
 1635              		.code	16
 1636              		.thumb_func
 1637              		.type	messagereceiver_destroy, %function
 1638              	messagereceiver_destroy:
 1639              	.LFB6:
 334:Source\azure_iot_sdk\uamqp\src/message_receiver.c ****     if (message_receiver == NULL)
 1640              		.loc 1 334 0
 1641              		.cfi_startproc
 1642              		@ args = 0, pretend = 0, frame = 0
 1643              		@ frame_needed = 0, uses_anonymous_args = 0
 1644              	.LVL258:
 1645 0000 10B5     		push	{r4, lr}
 1646              		.cfi_def_cfa_offset 8
 1647              		.cfi_offset 4, -8
 1648              		.cfi_offset 14, -4
 1649 0002 82B0     		sub	sp, sp, #8
 1650              		.cfi_def_cfa_offset 16
 1651 0004 041E     		subs	r4, r0, #0
 335:Source\azure_iot_sdk\uamqp\src/message_receiver.c ****     {
 1652              		.loc 1 335 0
 1653 0006 0ED1     		bne	.L101
 1654              	.LBB51:
 337:Source\azure_iot_sdk\uamqp\src/message_receiver.c ****     }
 1655              		.loc 1 337 0 discriminator 3
 1656 0008 FFF7FEFF 		bl	xlogging_get_log_function
 1657              	.LVL259:
 1658 000c 041E     		subs	r4, r0, #0
 1659              	.LVL260:
 1660 000e 0FD0     		beq	.L100
 337:Source\azure_iot_sdk\uamqp\src/message_receiver.c ****     }
 1661              		.loc 1 337 0 is_stmt 0 discriminator 4
 1662 0010 084B     		ldr	r3, .L103
 1663 0012 0193     		str	r3, [sp, #4]
 1664 0014 0123     		movs	r3, #1
 1665 0016 0093     		str	r3, [sp]
ARM GAS  C:\Users\Phuong\AppData\Local\Temp\ccqGhR5Z.s 			page 40


 1666 0018 5223     		movs	r3, #82
 1667 001a FF33     		adds	r3, r3, #255
 1668 001c 064A     		ldr	r2, .L103+4
 1669 001e 0749     		ldr	r1, .L103+8
 1670 0020 0020     		movs	r0, #0
 1671              	.LVL261:
 1672 0022 A047     		blx	r4
 1673              	.LVL262:
 1674 0024 04E0     		b	.L100
 1675              	.LVL263:
 1676              	.L101:
 1677              	.LBE51:
 341:Source\azure_iot_sdk\uamqp\src/message_receiver.c ****         free(message_receiver);
 1678              		.loc 1 341 0 is_stmt 1
 1679 0026 FFF7FEFF 		bl	messagereceiver_close
 1680              	.LVL264:
 342:Source\azure_iot_sdk\uamqp\src/message_receiver.c ****     }
 1681              		.loc 1 342 0
 1682 002a 2000     		movs	r0, r4
 1683 002c FFF7FEFF 		bl	free
 1684              	.LVL265:
 1685              	.L100:
 344:Source\azure_iot_sdk\uamqp\src/message_receiver.c **** 
 1686              		.loc 1 344 0
 1687 0030 02B0     		add	sp, sp, #8
 1688              		@ sp needed
 1689 0032 10BD     		pop	{r4, pc}
 1690              	.L104:
 1691              		.align	2
 1692              	.L103:
 1693 0034 04040000 		.word	.LC58
 1694 0038 80000000 		.word	.LANCHOR1
 1695 003c 00000000 		.word	.LC1
 1696              		.cfi_endproc
 1697              	.LFE6:
 1698              		.size	messagereceiver_destroy, .-messagereceiver_destroy
 1699              		.section	.text.messagereceiver_get_link_name,"ax",%progbits
 1700              		.align	2
 1701              		.global	messagereceiver_get_link_name
 1702              		.code	16
 1703              		.thumb_func
 1704              		.type	messagereceiver_get_link_name, %function
 1705              	messagereceiver_get_link_name:
 1706              	.LFB9:
 418:Source\azure_iot_sdk\uamqp\src/message_receiver.c **** 
 419:Source\azure_iot_sdk\uamqp\src/message_receiver.c **** int messagereceiver_get_link_name(MESSAGE_RECEIVER_HANDLE message_receiver, const char** link_name)
 420:Source\azure_iot_sdk\uamqp\src/message_receiver.c **** {
 1707              		.loc 1 420 0
 1708              		.cfi_startproc
 1709              		@ args = 0, pretend = 0, frame = 0
 1710              		@ frame_needed = 0, uses_anonymous_args = 0
 1711              	.LVL266:
 1712 0000 10B5     		push	{r4, lr}
 1713              		.cfi_def_cfa_offset 8
 1714              		.cfi_offset 4, -8
 1715              		.cfi_offset 14, -4
 1716 0002 82B0     		sub	sp, sp, #8
ARM GAS  C:\Users\Phuong\AppData\Local\Temp\ccqGhR5Z.s 			page 41


 1717              		.cfi_def_cfa_offset 16
 421:Source\azure_iot_sdk\uamqp\src/message_receiver.c ****     int result;
 422:Source\azure_iot_sdk\uamqp\src/message_receiver.c **** 
 423:Source\azure_iot_sdk\uamqp\src/message_receiver.c ****     if (message_receiver == NULL)
 1718              		.loc 1 423 0
 1719 0004 0028     		cmp	r0, #0
 1720 0006 11D1     		bne	.L106
 1721              	.LBB52:
 424:Source\azure_iot_sdk\uamqp\src/message_receiver.c ****     {
 425:Source\azure_iot_sdk\uamqp\src/message_receiver.c ****         LogError("NULL message_receiver");
 1722              		.loc 1 425 0 discriminator 3
 1723 0008 FFF7FEFF 		bl	xlogging_get_log_function
 1724              	.LVL267:
 1725 000c 041E     		subs	r4, r0, #0
 1726              	.LVL268:
 1727 000e 24D0     		beq	.L108
 1728              		.loc 1 425 0 is_stmt 0 discriminator 4
 1729 0010 164B     		ldr	r3, .L111
 1730 0012 0193     		str	r3, [sp, #4]
 1731 0014 0123     		movs	r3, #1
 1732 0016 0093     		str	r3, [sp]
 1733 0018 AA23     		movs	r3, #170
 1734 001a FF33     		adds	r3, r3, #255
 1735 001c 144A     		ldr	r2, .L111+4
 1736 001e 1832     		adds	r2, r2, #24
 1737 0020 1449     		ldr	r1, .L111+8
 1738 0022 0020     		movs	r0, #0
 1739              	.LVL269:
 1740 0024 A047     		blx	r4
 1741              	.LVL270:
 1742              	.LBE52:
 426:Source\azure_iot_sdk\uamqp\src/message_receiver.c ****         result = __FAILURE__;
 1743              		.loc 1 426 0 is_stmt 1 discriminator 4
 1744 0026 D520     		movs	r0, #213
 1745 0028 4000     		lsls	r0, r0, #1
 1746 002a 1DE0     		b	.L107
 1747              	.LVL271:
 1748              	.L106:
 427:Source\azure_iot_sdk\uamqp\src/message_receiver.c ****     }
 428:Source\azure_iot_sdk\uamqp\src/message_receiver.c ****     else
 429:Source\azure_iot_sdk\uamqp\src/message_receiver.c ****     {
 430:Source\azure_iot_sdk\uamqp\src/message_receiver.c ****         if (link_get_name(message_receiver->link, link_name) != 0)
 1749              		.loc 1 430 0
 1750 002c 0068     		ldr	r0, [r0]
 1751              	.LVL272:
 1752 002e FFF7FEFF 		bl	link_get_name
 1753              	.LVL273:
 1754 0032 0028     		cmp	r0, #0
 1755 0034 14D0     		beq	.L109
 1756              	.LBB53:
 431:Source\azure_iot_sdk\uamqp\src/message_receiver.c ****         {
 432:Source\azure_iot_sdk\uamqp\src/message_receiver.c ****             LogError("Getting link name failed");
 1757              		.loc 1 432 0 discriminator 3
 1758 0036 FFF7FEFF 		bl	xlogging_get_log_function
 1759              	.LVL274:
 1760 003a 041E     		subs	r4, r0, #0
 1761              	.LVL275:
ARM GAS  C:\Users\Phuong\AppData\Local\Temp\ccqGhR5Z.s 			page 42


 1762 003c 12D0     		beq	.L110
 1763              		.loc 1 432 0 is_stmt 0 discriminator 4
 1764 003e 0E4B     		ldr	r3, .L111+12
 1765 0040 0193     		str	r3, [sp, #4]
 1766 0042 0123     		movs	r3, #1
 1767 0044 0093     		str	r3, [sp]
 1768 0046 B033     		adds	r3, r3, #176
 1769 0048 FF33     		adds	r3, r3, #255
 1770 004a 094A     		ldr	r2, .L111+4
 1771 004c 1832     		adds	r2, r2, #24
 1772 004e 0949     		ldr	r1, .L111+8
 1773 0050 0020     		movs	r0, #0
 1774              	.LVL276:
 1775 0052 A047     		blx	r4
 1776              	.LVL277:
 1777              	.LBE53:
 433:Source\azure_iot_sdk\uamqp\src/message_receiver.c ****             result = __FAILURE__;
 1778              		.loc 1 433 0 is_stmt 1 discriminator 4
 1779 0054 B220     		movs	r0, #178
 1780 0056 FF30     		adds	r0, r0, #255
 1781 0058 06E0     		b	.L107
 1782              	.LVL278:
 1783              	.L108:
 426:Source\azure_iot_sdk\uamqp\src/message_receiver.c ****     }
 1784              		.loc 1 426 0
 1785 005a D520     		movs	r0, #213
 1786              	.LVL279:
 1787 005c 4000     		lsls	r0, r0, #1
 1788 005e 03E0     		b	.L107
 1789              	.LVL280:
 1790              	.L109:
 434:Source\azure_iot_sdk\uamqp\src/message_receiver.c ****         }
 435:Source\azure_iot_sdk\uamqp\src/message_receiver.c ****         else
 436:Source\azure_iot_sdk\uamqp\src/message_receiver.c ****         {
 437:Source\azure_iot_sdk\uamqp\src/message_receiver.c ****             result = 0;
 1791              		.loc 1 437 0
 1792 0060 0020     		movs	r0, #0
 1793 0062 01E0     		b	.L107
 1794              	.LVL281:
 1795              	.L110:
 433:Source\azure_iot_sdk\uamqp\src/message_receiver.c ****         }
 1796              		.loc 1 433 0
 1797 0064 B220     		movs	r0, #178
 1798              	.LVL282:
 1799 0066 FF30     		adds	r0, r0, #255
 1800              	.LVL283:
 1801              	.L107:
 438:Source\azure_iot_sdk\uamqp\src/message_receiver.c ****         }
 439:Source\azure_iot_sdk\uamqp\src/message_receiver.c ****     }
 440:Source\azure_iot_sdk\uamqp\src/message_receiver.c **** 
 441:Source\azure_iot_sdk\uamqp\src/message_receiver.c ****     return result;
 442:Source\azure_iot_sdk\uamqp\src/message_receiver.c **** }
 1802              		.loc 1 442 0
 1803 0068 02B0     		add	sp, sp, #8
 1804              		@ sp needed
 1805 006a 10BD     		pop	{r4, pc}
 1806              	.L112:
ARM GAS  C:\Users\Phuong\AppData\Local\Temp\ccqGhR5Z.s 			page 43


 1807              		.align	2
 1808              	.L111:
 1809 006c 04040000 		.word	.LC58
 1810 0070 80000000 		.word	.LANCHOR1
 1811 0074 00000000 		.word	.LC1
 1812 0078 44040000 		.word	.LC75
 1813              		.cfi_endproc
 1814              	.LFE9:
 1815              		.size	messagereceiver_get_link_name, .-messagereceiver_get_link_name
 1816              		.section	.text.messagereceiver_get_received_message_id,"ax",%progbits
 1817              		.align	2
 1818              		.global	messagereceiver_get_received_message_id
 1819              		.code	16
 1820              		.thumb_func
 1821              		.type	messagereceiver_get_received_message_id, %function
 1822              	messagereceiver_get_received_message_id:
 1823              	.LFB10:
 443:Source\azure_iot_sdk\uamqp\src/message_receiver.c **** 
 444:Source\azure_iot_sdk\uamqp\src/message_receiver.c **** int messagereceiver_get_received_message_id(MESSAGE_RECEIVER_HANDLE message_receiver, delivery_numb
 445:Source\azure_iot_sdk\uamqp\src/message_receiver.c **** {
 1824              		.loc 1 445 0
 1825              		.cfi_startproc
 1826              		@ args = 0, pretend = 0, frame = 0
 1827              		@ frame_needed = 0, uses_anonymous_args = 0
 1828              	.LVL284:
 1829 0000 10B5     		push	{r4, lr}
 1830              		.cfi_def_cfa_offset 8
 1831              		.cfi_offset 4, -8
 1832              		.cfi_offset 14, -4
 1833 0002 82B0     		sub	sp, sp, #8
 1834              		.cfi_def_cfa_offset 16
 446:Source\azure_iot_sdk\uamqp\src/message_receiver.c ****     int result;
 447:Source\azure_iot_sdk\uamqp\src/message_receiver.c **** 
 448:Source\azure_iot_sdk\uamqp\src/message_receiver.c ****     if (message_receiver == NULL)
 1835              		.loc 1 448 0
 1836 0004 0028     		cmp	r0, #0
 1837 0006 11D1     		bne	.L114
 1838              	.LBB54:
 449:Source\azure_iot_sdk\uamqp\src/message_receiver.c ****     {
 450:Source\azure_iot_sdk\uamqp\src/message_receiver.c ****         LogError("NULL message_receiver");
 1839              		.loc 1 450 0 discriminator 3
 1840 0008 FFF7FEFF 		bl	xlogging_get_log_function
 1841              	.LVL285:
 1842 000c 041E     		subs	r4, r0, #0
 1843              	.LVL286:
 1844 000e 24D0     		beq	.L116
 1845              		.loc 1 450 0 is_stmt 0 discriminator 4
 1846 0010 164B     		ldr	r3, .L119
 1847 0012 0193     		str	r3, [sp, #4]
 1848 0014 0123     		movs	r3, #1
 1849 0016 0093     		str	r3, [sp]
 1850 0018 C233     		adds	r3, r3, #194
 1851 001a FF33     		adds	r3, r3, #255
 1852 001c 144A     		ldr	r2, .L119+4
 1853 001e 3832     		adds	r2, r2, #56
 1854 0020 1449     		ldr	r1, .L119+8
 1855 0022 0020     		movs	r0, #0
ARM GAS  C:\Users\Phuong\AppData\Local\Temp\ccqGhR5Z.s 			page 44


 1856              	.LVL287:
 1857 0024 A047     		blx	r4
 1858              	.LVL288:
 1859              	.LBE54:
 451:Source\azure_iot_sdk\uamqp\src/message_receiver.c ****         result = __FAILURE__;
 1860              		.loc 1 451 0 is_stmt 1 discriminator 4
 1861 0026 C420     		movs	r0, #196
 1862 0028 FF30     		adds	r0, r0, #255
 1863 002a 1DE0     		b	.L115
 1864              	.LVL289:
 1865              	.L114:
 452:Source\azure_iot_sdk\uamqp\src/message_receiver.c ****     }
 453:Source\azure_iot_sdk\uamqp\src/message_receiver.c ****     else
 454:Source\azure_iot_sdk\uamqp\src/message_receiver.c ****     {
 455:Source\azure_iot_sdk\uamqp\src/message_receiver.c ****         if (link_get_received_message_id(message_receiver->link, message_id) != 0)
 1866              		.loc 1 455 0
 1867 002c 0068     		ldr	r0, [r0]
 1868              	.LVL290:
 1869 002e FFF7FEFF 		bl	link_get_received_message_id
 1870              	.LVL291:
 1871 0032 0028     		cmp	r0, #0
 1872 0034 14D0     		beq	.L117
 1873              	.LBB55:
 456:Source\azure_iot_sdk\uamqp\src/message_receiver.c ****         {
 457:Source\azure_iot_sdk\uamqp\src/message_receiver.c ****             LogError("Failed getting received message Id");
 1874              		.loc 1 457 0 discriminator 3
 1875 0036 FFF7FEFF 		bl	xlogging_get_log_function
 1876              	.LVL292:
 1877 003a 041E     		subs	r4, r0, #0
 1878              	.LVL293:
 1879 003c 12D0     		beq	.L118
 1880              		.loc 1 457 0 is_stmt 0 discriminator 4
 1881 003e 0E4B     		ldr	r3, .L119+12
 1882 0040 0193     		str	r3, [sp, #4]
 1883 0042 0123     		movs	r3, #1
 1884 0044 0093     		str	r3, [sp]
 1885 0046 CA23     		movs	r3, #202
 1886 0048 FF33     		adds	r3, r3, #255
 1887 004a 094A     		ldr	r2, .L119+4
 1888 004c 3832     		adds	r2, r2, #56
 1889 004e 0949     		ldr	r1, .L119+8
 1890 0050 0020     		movs	r0, #0
 1891              	.LVL294:
 1892 0052 A047     		blx	r4
 1893              	.LVL295:
 1894              	.LBE55:
 458:Source\azure_iot_sdk\uamqp\src/message_receiver.c ****             result = __FAILURE__;
 1895              		.loc 1 458 0 is_stmt 1 discriminator 4
 1896 0054 E520     		movs	r0, #229
 1897 0056 4000     		lsls	r0, r0, #1
 1898 0058 06E0     		b	.L115
 1899              	.LVL296:
 1900              	.L116:
 451:Source\azure_iot_sdk\uamqp\src/message_receiver.c ****     }
 1901              		.loc 1 451 0
 1902 005a C420     		movs	r0, #196
 1903              	.LVL297:
ARM GAS  C:\Users\Phuong\AppData\Local\Temp\ccqGhR5Z.s 			page 45


 1904 005c FF30     		adds	r0, r0, #255
 1905 005e 03E0     		b	.L115
 1906              	.LVL298:
 1907              	.L117:
 459:Source\azure_iot_sdk\uamqp\src/message_receiver.c ****         }
 460:Source\azure_iot_sdk\uamqp\src/message_receiver.c ****         else
 461:Source\azure_iot_sdk\uamqp\src/message_receiver.c ****         {
 462:Source\azure_iot_sdk\uamqp\src/message_receiver.c ****             result = 0;
 1908              		.loc 1 462 0
 1909 0060 0020     		movs	r0, #0
 1910 0062 01E0     		b	.L115
 1911              	.LVL299:
 1912              	.L118:
 458:Source\azure_iot_sdk\uamqp\src/message_receiver.c ****         }
 1913              		.loc 1 458 0
 1914 0064 E520     		movs	r0, #229
 1915              	.LVL300:
 1916 0066 4000     		lsls	r0, r0, #1
 1917              	.LVL301:
 1918              	.L115:
 463:Source\azure_iot_sdk\uamqp\src/message_receiver.c ****         }
 464:Source\azure_iot_sdk\uamqp\src/message_receiver.c ****     }
 465:Source\azure_iot_sdk\uamqp\src/message_receiver.c **** 
 466:Source\azure_iot_sdk\uamqp\src/message_receiver.c ****     return result;
 467:Source\azure_iot_sdk\uamqp\src/message_receiver.c **** }
 1919              		.loc 1 467 0
 1920 0068 02B0     		add	sp, sp, #8
 1921              		@ sp needed
 1922 006a 10BD     		pop	{r4, pc}
 1923              	.L120:
 1924              		.align	2
 1925              	.L119:
 1926 006c 04040000 		.word	.LC58
 1927 0070 80000000 		.word	.LANCHOR1
 1928 0074 00000000 		.word	.LC1
 1929 0078 60040000 		.word	.LC80
 1930              		.cfi_endproc
 1931              	.LFE10:
 1932              		.size	messagereceiver_get_received_message_id, .-messagereceiver_get_received_message_id
 1933              		.section	.text.messagereceiver_send_message_disposition,"ax",%progbits
 1934              		.align	2
 1935              		.global	messagereceiver_send_message_disposition
 1936              		.code	16
 1937              		.thumb_func
 1938              		.type	messagereceiver_send_message_disposition, %function
 1939              	messagereceiver_send_message_disposition:
 1940              	.LFB11:
 468:Source\azure_iot_sdk\uamqp\src/message_receiver.c **** 
 469:Source\azure_iot_sdk\uamqp\src/message_receiver.c **** int messagereceiver_send_message_disposition(MESSAGE_RECEIVER_HANDLE message_receiver, const char* 
 470:Source\azure_iot_sdk\uamqp\src/message_receiver.c **** {
 1941              		.loc 1 470 0
 1942              		.cfi_startproc
 1943              		@ args = 0, pretend = 0, frame = 8
 1944              		@ frame_needed = 0, uses_anonymous_args = 0
 1945              	.LVL302:
 1946 0000 F0B5     		push	{r4, r5, r6, r7, lr}
 1947              		.cfi_def_cfa_offset 20
ARM GAS  C:\Users\Phuong\AppData\Local\Temp\ccqGhR5Z.s 			page 46


 1948              		.cfi_offset 4, -20
 1949              		.cfi_offset 5, -16
 1950              		.cfi_offset 6, -12
 1951              		.cfi_offset 7, -8
 1952              		.cfi_offset 14, -4
 1953 0002 85B0     		sub	sp, sp, #20
 1954              		.cfi_def_cfa_offset 40
 1955 0004 0400     		movs	r4, r0
 1956 0006 0D00     		movs	r5, r1
 1957 0008 1600     		movs	r6, r2
 1958 000a 1F00     		movs	r7, r3
 471:Source\azure_iot_sdk\uamqp\src/message_receiver.c ****     int result;
 472:Source\azure_iot_sdk\uamqp\src/message_receiver.c **** 
 473:Source\azure_iot_sdk\uamqp\src/message_receiver.c ****     if (message_receiver == NULL)
 1959              		.loc 1 473 0
 1960 000c 0028     		cmp	r0, #0
 1961 000e 11D1     		bne	.L122
 1962              	.LBB56:
 474:Source\azure_iot_sdk\uamqp\src/message_receiver.c ****     {
 475:Source\azure_iot_sdk\uamqp\src/message_receiver.c ****         LogError("NULL message_receiver");
 1963              		.loc 1 475 0 discriminator 3
 1964 0010 FFF7FEFF 		bl	xlogging_get_log_function
 1965              	.LVL303:
 1966 0014 041E     		subs	r4, r0, #0
 1967              	.LVL304:
 1968 0016 76D0     		beq	.L128
 1969              		.loc 1 475 0 is_stmt 0 discriminator 4
 1970 0018 3E4B     		ldr	r3, .L134
 1971 001a 0193     		str	r3, [sp, #4]
 1972 001c 0123     		movs	r3, #1
 1973 001e 0093     		str	r3, [sp]
 1974 0020 DC23     		movs	r3, #220
 1975 0022 FF33     		adds	r3, r3, #255
 1976 0024 3C4A     		ldr	r2, .L134+4
 1977 0026 6032     		adds	r2, r2, #96
 1978 0028 3C49     		ldr	r1, .L134+8
 1979 002a 0020     		movs	r0, #0
 1980              	.LVL305:
 1981 002c A047     		blx	r4
 1982              	.LVL306:
 1983              	.LBE56:
 476:Source\azure_iot_sdk\uamqp\src/message_receiver.c ****         result = __FAILURE__;
 1984              		.loc 1 476 0 is_stmt 1 discriminator 4
 1985 002e EE20     		movs	r0, #238
 1986 0030 4000     		lsls	r0, r0, #1
 1987 0032 6DE0     		b	.L123
 1988              	.LVL307:
 1989              	.L122:
 477:Source\azure_iot_sdk\uamqp\src/message_receiver.c ****     }
 478:Source\azure_iot_sdk\uamqp\src/message_receiver.c ****     else
 479:Source\azure_iot_sdk\uamqp\src/message_receiver.c ****     {
 480:Source\azure_iot_sdk\uamqp\src/message_receiver.c ****         if (message_receiver->message_receiver_state != MESSAGE_RECEIVER_STATE_OPEN)
 1990              		.loc 1 480 0
 1991 0034 037B     		ldrb	r3, [r0, #12]
 1992              	.LVL308:
 1993 0036 022B     		cmp	r3, #2
 1994 0038 11D0     		beq	.L124
ARM GAS  C:\Users\Phuong\AppData\Local\Temp\ccqGhR5Z.s 			page 47


 1995              	.LBB57:
 481:Source\azure_iot_sdk\uamqp\src/message_receiver.c ****         {
 482:Source\azure_iot_sdk\uamqp\src/message_receiver.c ****             LogError("Message received not open");
 1996              		.loc 1 482 0 discriminator 3
 1997 003a FFF7FEFF 		bl	xlogging_get_log_function
 1998              	.LVL309:
 1999 003e 041E     		subs	r4, r0, #0
 2000              	.LVL310:
 2001 0040 64D0     		beq	.L129
 2002              		.loc 1 482 0 is_stmt 0 discriminator 4
 2003 0042 374B     		ldr	r3, .L134+12
 2004 0044 0193     		str	r3, [sp, #4]
 2005 0046 0123     		movs	r3, #1
 2006 0048 0093     		str	r3, [sp]
 2007 004a E233     		adds	r3, r3, #226
 2008 004c FF33     		adds	r3, r3, #255
 2009 004e 324A     		ldr	r2, .L134+4
 2010 0050 6032     		adds	r2, r2, #96
 2011 0052 3249     		ldr	r1, .L134+8
 2012 0054 0020     		movs	r0, #0
 2013              	.LVL311:
 2014 0056 A047     		blx	r4
 2015              	.LVL312:
 2016              	.LBE57:
 483:Source\azure_iot_sdk\uamqp\src/message_receiver.c ****             result = __FAILURE__;
 2017              		.loc 1 483 0 is_stmt 1 discriminator 4
 2018 0058 E420     		movs	r0, #228
 2019 005a FF30     		adds	r0, r0, #255
 2020 005c 58E0     		b	.L123
 2021              	.LVL313:
 2022              	.L124:
 2023              	.LBB58:
 484:Source\azure_iot_sdk\uamqp\src/message_receiver.c ****         }
 485:Source\azure_iot_sdk\uamqp\src/message_receiver.c ****         else
 486:Source\azure_iot_sdk\uamqp\src/message_receiver.c ****         {
 487:Source\azure_iot_sdk\uamqp\src/message_receiver.c ****             const char* my_name;
 488:Source\azure_iot_sdk\uamqp\src/message_receiver.c ****             if (link_get_name(message_receiver->link, &my_name) != 0)
 2024              		.loc 1 488 0
 2025 005e 03A9     		add	r1, sp, #12
 2026              	.LVL314:
 2027 0060 0068     		ldr	r0, [r0]
 2028              	.LVL315:
 2029 0062 FFF7FEFF 		bl	link_get_name
 2030              	.LVL316:
 2031 0066 0028     		cmp	r0, #0
 2032 0068 11D0     		beq	.L125
 2033              	.LBB59:
 489:Source\azure_iot_sdk\uamqp\src/message_receiver.c ****             {
 490:Source\azure_iot_sdk\uamqp\src/message_receiver.c ****                 LogError("Failed getting link name");
 2034              		.loc 1 490 0 discriminator 3
 2035 006a FFF7FEFF 		bl	xlogging_get_log_function
 2036              	.LVL317:
 2037 006e 041E     		subs	r4, r0, #0
 2038              	.LVL318:
 2039 0070 3ED0     		beq	.L130
 2040              		.loc 1 490 0 is_stmt 0 discriminator 4
 2041 0072 2C4B     		ldr	r3, .L134+16
ARM GAS  C:\Users\Phuong\AppData\Local\Temp\ccqGhR5Z.s 			page 48


 2042 0074 0193     		str	r3, [sp, #4]
 2043 0076 0123     		movs	r3, #1
 2044 0078 0093     		str	r3, [sp]
 2045 007a EA33     		adds	r3, r3, #234
 2046 007c FF33     		adds	r3, r3, #255
 2047 007e 264A     		ldr	r2, .L134+4
 2048 0080 6032     		adds	r2, r2, #96
 2049 0082 2649     		ldr	r1, .L134+8
 2050 0084 0020     		movs	r0, #0
 2051              	.LVL319:
 2052 0086 A047     		blx	r4
 2053              	.LVL320:
 2054              	.LBE59:
 491:Source\azure_iot_sdk\uamqp\src/message_receiver.c ****                 result = __FAILURE__;
 2055              		.loc 1 491 0 is_stmt 1 discriminator 4
 2056 0088 EC20     		movs	r0, #236
 2057 008a FF30     		adds	r0, r0, #255
 2058 008c 40E0     		b	.L123
 2059              	.LVL321:
 2060              	.L125:
 492:Source\azure_iot_sdk\uamqp\src/message_receiver.c ****             }
 493:Source\azure_iot_sdk\uamqp\src/message_receiver.c ****             else
 494:Source\azure_iot_sdk\uamqp\src/message_receiver.c ****             {
 495:Source\azure_iot_sdk\uamqp\src/message_receiver.c ****                 if (strcmp(link_name, my_name) != 0)
 2061              		.loc 1 495 0
 2062 008e 0399     		ldr	r1, [sp, #12]
 2063 0090 2800     		movs	r0, r5
 2064 0092 FFF7FEFF 		bl	strcmp
 2065              	.LVL322:
 2066 0096 0028     		cmp	r0, #0
 2067 0098 11D0     		beq	.L127
 2068              	.LBB60:
 496:Source\azure_iot_sdk\uamqp\src/message_receiver.c ****                 {
 497:Source\azure_iot_sdk\uamqp\src/message_receiver.c ****                     LogError("Link name does not match");
 2069              		.loc 1 497 0 discriminator 3
 2070 009a FFF7FEFF 		bl	xlogging_get_log_function
 2071              	.LVL323:
 2072 009e 041E     		subs	r4, r0, #0
 2073              	.LVL324:
 2074 00a0 29D0     		beq	.L131
 2075              		.loc 1 497 0 is_stmt 0 discriminator 4
 2076 00a2 214B     		ldr	r3, .L134+20
 2077 00a4 0193     		str	r3, [sp, #4]
 2078 00a6 0123     		movs	r3, #1
 2079 00a8 0093     		str	r3, [sp]
 2080 00aa F223     		movs	r3, #242
 2081 00ac FF33     		adds	r3, r3, #255
 2082 00ae 1A4A     		ldr	r2, .L134+4
 2083 00b0 6032     		adds	r2, r2, #96
 2084 00b2 1A49     		ldr	r1, .L134+8
 2085 00b4 0020     		movs	r0, #0
 2086              	.LVL325:
 2087 00b6 A047     		blx	r4
 2088              	.LVL326:
 2089              	.LBE60:
 498:Source\azure_iot_sdk\uamqp\src/message_receiver.c ****                     result = __FAILURE__;
 2090              		.loc 1 498 0 is_stmt 1 discriminator 4
ARM GAS  C:\Users\Phuong\AppData\Local\Temp\ccqGhR5Z.s 			page 49


 2091 00b8 F920     		movs	r0, #249
 2092 00ba 4000     		lsls	r0, r0, #1
 2093 00bc 28E0     		b	.L123
 2094              	.LVL327:
 2095              	.L127:
 499:Source\azure_iot_sdk\uamqp\src/message_receiver.c ****                 }
 500:Source\azure_iot_sdk\uamqp\src/message_receiver.c ****                 else
 501:Source\azure_iot_sdk\uamqp\src/message_receiver.c ****                 {
 502:Source\azure_iot_sdk\uamqp\src/message_receiver.c ****                     if (link_send_disposition(message_receiver->link, message_number, delivery_stat
 2096              		.loc 1 502 0
 2097 00be 2068     		ldr	r0, [r4]
 2098 00c0 3A00     		movs	r2, r7
 2099 00c2 3100     		movs	r1, r6
 2100 00c4 FFF7FEFF 		bl	link_send_disposition
 2101              	.LVL328:
 2102 00c8 0028     		cmp	r0, #0
 2103 00ca 17D0     		beq	.L132
 2104              	.LBB61:
 503:Source\azure_iot_sdk\uamqp\src/message_receiver.c ****                     {
 504:Source\azure_iot_sdk\uamqp\src/message_receiver.c ****                         LogError("Seding disposition failed");
 2105              		.loc 1 504 0 discriminator 3
 2106 00cc FFF7FEFF 		bl	xlogging_get_log_function
 2107              	.LVL329:
 2108 00d0 041E     		subs	r4, r0, #0
 2109              	.LVL330:
 2110 00d2 15D0     		beq	.L133
 2111              		.loc 1 504 0 is_stmt 0 discriminator 4
 2112 00d4 154B     		ldr	r3, .L134+24
 2113 00d6 0193     		str	r3, [sp, #4]
 2114 00d8 0123     		movs	r3, #1
 2115 00da 0093     		str	r3, [sp]
 2116 00dc F833     		adds	r3, r3, #248
 2117 00de FF33     		adds	r3, r3, #255
 2118 00e0 0D4A     		ldr	r2, .L134+4
 2119 00e2 6032     		adds	r2, r2, #96
 2120 00e4 0D49     		ldr	r1, .L134+8
 2121 00e6 0020     		movs	r0, #0
 2122              	.LVL331:
 2123 00e8 A047     		blx	r4
 2124              	.LVL332:
 2125              	.LBE61:
 505:Source\azure_iot_sdk\uamqp\src/message_receiver.c ****                         result = __FAILURE__;
 2126              		.loc 1 505 0 is_stmt 1 discriminator 4
 2127 00ea FA20     		movs	r0, #250
 2128 00ec FF30     		adds	r0, r0, #255
 2129 00ee 0FE0     		b	.L123
 2130              	.LVL333:
 2131              	.L130:
 491:Source\azure_iot_sdk\uamqp\src/message_receiver.c ****             }
 2132              		.loc 1 491 0
 2133 00f0 EC20     		movs	r0, #236
 2134              	.LVL334:
 2135 00f2 FF30     		adds	r0, r0, #255
 2136 00f4 0CE0     		b	.L123
 2137              	.LVL335:
 2138              	.L131:
 498:Source\azure_iot_sdk\uamqp\src/message_receiver.c ****                 }
ARM GAS  C:\Users\Phuong\AppData\Local\Temp\ccqGhR5Z.s 			page 50


 2139              		.loc 1 498 0
 2140 00f6 F920     		movs	r0, #249
 2141              	.LVL336:
 2142 00f8 4000     		lsls	r0, r0, #1
 2143 00fa 09E0     		b	.L123
 2144              	.LVL337:
 2145              	.L132:
 506:Source\azure_iot_sdk\uamqp\src/message_receiver.c ****                     }
 507:Source\azure_iot_sdk\uamqp\src/message_receiver.c ****                     else
 508:Source\azure_iot_sdk\uamqp\src/message_receiver.c ****                     {
 509:Source\azure_iot_sdk\uamqp\src/message_receiver.c ****                         result = 0;
 2146              		.loc 1 509 0
 2147 00fc 0020     		movs	r0, #0
 2148 00fe 07E0     		b	.L123
 2149              	.LVL338:
 2150              	.L133:
 505:Source\azure_iot_sdk\uamqp\src/message_receiver.c ****                     }
 2151              		.loc 1 505 0
 2152 0100 FA20     		movs	r0, #250
 2153              	.LVL339:
 2154 0102 FF30     		adds	r0, r0, #255
 2155              	.LVL340:
 2156 0104 04E0     		b	.L123
 2157              	.LVL341:
 2158              	.L128:
 2159              	.LBE58:
 476:Source\azure_iot_sdk\uamqp\src/message_receiver.c ****     }
 2160              		.loc 1 476 0
 2161 0106 EE20     		movs	r0, #238
 2162              	.LVL342:
 2163 0108 4000     		lsls	r0, r0, #1
 2164 010a 01E0     		b	.L123
 2165              	.LVL343:
 2166              	.L129:
 483:Source\azure_iot_sdk\uamqp\src/message_receiver.c ****         }
 2167              		.loc 1 483 0
 2168 010c E420     		movs	r0, #228
 2169              	.LVL344:
 2170 010e FF30     		adds	r0, r0, #255
 2171              	.LVL345:
 2172              	.L123:
 510:Source\azure_iot_sdk\uamqp\src/message_receiver.c ****                     }
 511:Source\azure_iot_sdk\uamqp\src/message_receiver.c ****                 }
 512:Source\azure_iot_sdk\uamqp\src/message_receiver.c ****             }
 513:Source\azure_iot_sdk\uamqp\src/message_receiver.c ****         }
 514:Source\azure_iot_sdk\uamqp\src/message_receiver.c ****     }
 515:Source\azure_iot_sdk\uamqp\src/message_receiver.c **** 
 516:Source\azure_iot_sdk\uamqp\src/message_receiver.c ****     return result;
 517:Source\azure_iot_sdk\uamqp\src/message_receiver.c **** }
 2173              		.loc 1 517 0
 2174 0110 05B0     		add	sp, sp, #20
 2175              		@ sp needed
 2176              	.LVL346:
 2177              	.LVL347:
 2178              	.LVL348:
 2179 0112 F0BD     		pop	{r4, r5, r6, r7, pc}
 2180              	.L135:
ARM GAS  C:\Users\Phuong\AppData\Local\Temp\ccqGhR5Z.s 			page 51


 2181              		.align	2
 2182              	.L134:
 2183 0114 04040000 		.word	.LC58
 2184 0118 80000000 		.word	.LANCHOR1
 2185 011c 00000000 		.word	.LC1
 2186 0120 84040000 		.word	.LC85
 2187 0124 A0040000 		.word	.LC87
 2188 0128 BC040000 		.word	.LC89
 2189 012c D8040000 		.word	.LC91
 2190              		.cfi_endproc
 2191              	.LFE11:
 2192              		.size	messagereceiver_send_message_disposition, .-messagereceiver_send_message_disposition
 2193              		.section	.text.messagereceiver_set_trace,"ax",%progbits
 2194              		.align	2
 2195              		.global	messagereceiver_set_trace
 2196              		.code	16
 2197              		.thumb_func
 2198              		.type	messagereceiver_set_trace, %function
 2199              	messagereceiver_set_trace:
 2200              	.LFB12:
 518:Source\azure_iot_sdk\uamqp\src/message_receiver.c **** 
 519:Source\azure_iot_sdk\uamqp\src/message_receiver.c **** void messagereceiver_set_trace(MESSAGE_RECEIVER_HANDLE message_receiver, bool trace_on)
 520:Source\azure_iot_sdk\uamqp\src/message_receiver.c **** {
 2201              		.loc 1 520 0
 2202              		.cfi_startproc
 2203              		@ args = 0, pretend = 0, frame = 0
 2204              		@ frame_needed = 0, uses_anonymous_args = 0
 2205              	.LVL349:
 2206 0000 10B5     		push	{r4, lr}
 2207              		.cfi_def_cfa_offset 8
 2208              		.cfi_offset 4, -8
 2209              		.cfi_offset 14, -4
 2210 0002 82B0     		sub	sp, sp, #8
 2211              		.cfi_def_cfa_offset 16
 521:Source\azure_iot_sdk\uamqp\src/message_receiver.c ****     if (message_receiver == NULL)
 2212              		.loc 1 521 0
 2213 0004 0028     		cmp	r0, #0
 2214 0006 0DD1     		bne	.L136
 2215              	.LBB62:
 522:Source\azure_iot_sdk\uamqp\src/message_receiver.c ****     {
 523:Source\azure_iot_sdk\uamqp\src/message_receiver.c ****         LogError("NULL message_receiver");
 2216              		.loc 1 523 0 discriminator 3
 2217 0008 FFF7FEFF 		bl	xlogging_get_log_function
 2218              	.LVL350:
 2219 000c 041E     		subs	r4, r0, #0
 2220              	.LVL351:
 2221 000e 09D0     		beq	.L136
 2222              		.loc 1 523 0 is_stmt 0 discriminator 4
 2223 0010 054B     		ldr	r3, .L138
 2224 0012 0193     		str	r3, [sp, #4]
 2225 0014 0123     		movs	r3, #1
 2226 0016 0093     		str	r3, [sp]
 2227 0018 044B     		ldr	r3, .L138+4
 2228 001a 054A     		ldr	r2, .L138+8
 2229 001c 0C32     		adds	r2, r2, #12
 2230 001e 0549     		ldr	r1, .L138+12
 2231 0020 0020     		movs	r0, #0
ARM GAS  C:\Users\Phuong\AppData\Local\Temp\ccqGhR5Z.s 			page 52


 2232              	.LVL352:
 2233 0022 A047     		blx	r4
 2234              	.LVL353:
 2235              	.L136:
 2236              	.LBE62:
 524:Source\azure_iot_sdk\uamqp\src/message_receiver.c ****     }
 525:Source\azure_iot_sdk\uamqp\src/message_receiver.c ****     else
 526:Source\azure_iot_sdk\uamqp\src/message_receiver.c ****     {
 527:Source\azure_iot_sdk\uamqp\src/message_receiver.c ****         /* No tracing is yet implemented for message receiver */
 528:Source\azure_iot_sdk\uamqp\src/message_receiver.c ****         (void)trace_on;
 529:Source\azure_iot_sdk\uamqp\src/message_receiver.c ****     }
 530:Source\azure_iot_sdk\uamqp\src/message_receiver.c **** }
 2237              		.loc 1 530 0 is_stmt 1
 2238 0024 02B0     		add	sp, sp, #8
 2239              		@ sp needed
 2240 0026 10BD     		pop	{r4, pc}
 2241              	.L139:
 2242              		.align	2
 2243              	.L138:
 2244 0028 04040000 		.word	.LC58
 2245 002c 0B020000 		.word	523
 2246 0030 00010000 		.word	.LANCHOR2
 2247 0034 00000000 		.word	.LC1
 2248              		.cfi_endproc
 2249              	.LFE12:
 2250              		.size	messagereceiver_set_trace, .-messagereceiver_set_trace
 2251              		.section	.rodata
 2252              		.align	2
 2253              		.set	.LANCHOR0,. + 0
 2254              		.set	.LANCHOR1,. + 128
 2255              		.set	.LANCHOR2,. + 256
 2256              		.type	__func__.8159, %object
 2257              		.size	__func__.8159, 21
 2258              	__func__.8159:
 2259 0000 6F6E5F74 		.ascii	"on_transfer_received\000"
 2259      72616E73 
 2259      6665725F 
 2259      72656365 
 2259      69766564 
 2260 0015 000000   		.space	3
 2261              		.type	__func__.8078, %object
 2262              		.size	__func__.8078, 30
 2263              	__func__.8078:
 2264 0018 6465636F 		.ascii	"decode_message_value_callback\000"
 2264      64655F6D 
 2264      65737361 
 2264      67655F76 
 2264      616C7565 
 2265 0036 0000     		.space	2
 2266              		.type	__func__.8190, %object
 2267              		.size	__func__.8190, 23
 2268              	__func__.8190:
 2269 0038 6D657373 		.ascii	"messagereceiver_create\000"
 2269      61676572 
 2269      65636569 
 2269      7665725F 
 2269      63726561 
ARM GAS  C:\Users\Phuong\AppData\Local\Temp\ccqGhR5Z.s 			page 53


 2270 004f 00       		.space	1
 2271              		.type	__func__.8207, %object
 2272              		.size	__func__.8207, 21
 2273              	__func__.8207:
 2274 0050 6D657373 		.ascii	"messagereceiver_open\000"
 2274      61676572 
 2274      65636569 
 2274      7665725F 
 2274      6F70656E 
 2275 0065 000000   		.space	3
 2276              		.type	__func__.8218, %object
 2277              		.size	__func__.8218, 22
 2278              	__func__.8218:
 2279 0068 6D657373 		.ascii	"messagereceiver_close\000"
 2279      61676572 
 2279      65636569 
 2279      7665725F 
 2279      636C6F73 
 2280 007e 0000     		.space	2
 2281              		.type	__func__.8197, %object
 2282              		.size	__func__.8197, 24
 2283              	__func__.8197:
 2284 0080 6D657373 		.ascii	"messagereceiver_destroy\000"
 2284      61676572 
 2284      65636569 
 2284      7665725F 
 2284      64657374 
 2285              		.type	__func__.8230, %object
 2286              		.size	__func__.8230, 30
 2287              	__func__.8230:
 2288 0098 6D657373 		.ascii	"messagereceiver_get_link_name\000"
 2288      61676572 
 2288      65636569 
 2288      7665725F 
 2288      6765745F 
 2289 00b6 0000     		.space	2
 2290              		.type	__func__.8242, %object
 2291              		.size	__func__.8242, 40
 2292              	__func__.8242:
 2293 00b8 6D657373 		.ascii	"messagereceiver_get_received_message_id\000"
 2293      61676572 
 2293      65636569 
 2293      7665725F 
 2293      6765745F 
 2294              		.type	__func__.8256, %object
 2295              		.size	__func__.8256, 41
 2296              	__func__.8256:
 2297 00e0 6D657373 		.ascii	"messagereceiver_send_message_disposition\000"
 2297      61676572 
 2297      65636569 
 2297      7665725F 
 2297      73656E64 
 2298 0109 000000   		.space	3
 2299              		.type	__func__.8277, %object
 2300              		.size	__func__.8277, 26
 2301              	__func__.8277:
 2302 010c 6D657373 		.ascii	"messagereceiver_set_trace\000"
ARM GAS  C:\Users\Phuong\AppData\Local\Temp\ccqGhR5Z.s 			page 54


 2302      61676572 
 2302      65636569 
 2302      7665725F 
 2302      7365745F 
 2303              		.section	.rodata.str1.4,"aMS",%progbits,1
 2304              		.align	2
 2305              	.LC1:
 2306 0000 536F7572 		.ascii	"Source\\azure_iot_sdk\\uamqp\\src\\message_receiver"
 2306      63655C61 
 2306      7A757265 
 2306      5F696F74 
 2306      5F73646B 
 2307 002f 2E6300   		.ascii	".c\000"
 2308 0032 0000     		.space	2
 2309              	.LC3:
 2310 0034 43616E6E 		.ascii	"Cannot create message\000"
 2310      6F742063 
 2310      72656174 
 2310      65206D65 
 2310      73736167 
 2311 004a 0000     		.space	2
 2312              	.LC6:
 2313 004c 43616E6E 		.ascii	"Cannot create AMQP value decoder\000"
 2313      6F742063 
 2313      72656174 
 2313      6520414D 
 2313      51502076 
 2314 006d 000000   		.space	3
 2315              	.LC8:
 2316 0070 43616E6E 		.ascii	"Cannot decode bytes\000"
 2316      6F742064 
 2316      65636F64 
 2316      65206279 
 2316      74657300 
 2317              	.LC10:
 2318 0084 4572726F 		.ascii	"Error decoding message\000"
 2318      72206465 
 2318      636F6469 
 2318      6E67206D 
 2318      65737361 
 2319 009b 00       		.space	1
 2320              	.LC14:
 2321 009c 4572726F 		.ascii	"Error setting application properties on received me"
 2321      72207365 
 2321      7474696E 
 2321      67206170 
 2321      706C6963 
 2322 00cf 73736167 		.ascii	"ssage\000"
 2322      6500
 2323 00d5 000000   		.space	3
 2324              	.LC16:
 2325 00d8 4572726F 		.ascii	"Error getting message properties\000"
 2325      72206765 
 2325      7474696E 
 2325      67206D65 
 2325      73736167 
 2326 00f9 000000   		.space	3
ARM GAS  C:\Users\Phuong\AppData\Local\Temp\ccqGhR5Z.s 			page 55


 2327              	.LC18:
 2328 00fc 4572726F 		.ascii	"Error setting message properties on received messag"
 2328      72207365 
 2328      7474696E 
 2328      67206D65 
 2328      73736167 
 2329 012f 6500     		.ascii	"e\000"
 2330 0131 000000   		.space	3
 2331              	.LC20:
 2332 0134 4572726F 		.ascii	"Error getting delivery annotations\000"
 2332      72206765 
 2332      7474696E 
 2332      67206465 
 2332      6C697665 
 2333 0157 00       		.space	1
 2334              	.LC22:
 2335 0158 4572726F 		.ascii	"Error setting delivery annotations on received mess"
 2335      72207365 
 2335      7474696E 
 2335      67206465 
 2335      6C697665 
 2336 018b 61676500 		.ascii	"age\000"
 2337 018f 00       		.space	1
 2338              	.LC24:
 2339 0190 4572726F 		.ascii	"Error getting message annotations\000"
 2339      72206765 
 2339      7474696E 
 2339      67206D65 
 2339      73736167 
 2340 01b2 0000     		.space	2
 2341              	.LC26:
 2342 01b4 4572726F 		.ascii	"Error setting message annotations on received messa"
 2342      72207365 
 2342      7474696E 
 2342      67206D65 
 2342      73736167 
 2343 01e7 676500   		.ascii	"ge\000"
 2344 01ea 0000     		.space	2
 2345              	.LC28:
 2346 01ec 4572726F 		.ascii	"Error getting message header\000"
 2346      72206765 
 2346      7474696E 
 2346      67206D65 
 2346      73736167 
 2347 0209 000000   		.space	3
 2348              	.LC30:
 2349 020c 4572726F 		.ascii	"Error setting message header on received message\000"
 2349      72207365 
 2349      7474696E 
 2349      67206D65 
 2349      73736167 
 2350 023d 000000   		.space	3
 2351              	.LC32:
 2352 0240 4572726F 		.ascii	"Error getting message footer\000"
 2352      72206765 
 2352      7474696E 
 2352      67206D65 
ARM GAS  C:\Users\Phuong\AppData\Local\Temp\ccqGhR5Z.s 			page 56


 2352      73736167 
 2353 025d 000000   		.space	3
 2354              	.LC34:
 2355 0260 4572726F 		.ascii	"Error setting message footer on received message\000"
 2355      72207365 
 2355      7474696E 
 2355      67206D65 
 2355      73736167 
 2356 0291 000000   		.space	3
 2357              	.LC36:
 2358 0294 4572726F 		.ascii	"Error getting message body type\000"
 2358      72206765 
 2358      7474696E 
 2358      67206D65 
 2358      73736167 
 2359              	.LC38:
 2360 02b4 426F6479 		.ascii	"Body already set on received message\000"
 2360      20616C72 
 2360      65616479 
 2360      20736574 
 2360      206F6E20 
 2361 02d9 000000   		.space	3
 2362              	.LC40:
 2363 02dc 4572726F 		.ascii	"Error getting body AMQP value\000"
 2363      72206765 
 2363      7474696E 
 2363      6720626F 
 2363      64792041 
 2364 02fa 0000     		.space	2
 2365              	.LC42:
 2366 02fc 4572726F 		.ascii	"Error setting body AMQP value on received message\000"
 2366      72207365 
 2366      7474696E 
 2366      6720626F 
 2366      64792041 
 2367 032e 0000     		.space	2
 2368              	.LC44:
 2369 0330 4D657373 		.ascii	"Message body type already set to something differen"
 2369      61676520 
 2369      626F6479 
 2369      20747970 
 2369      6520616C 
 2370 0363 74207468 		.ascii	"t than AMQP DATA\000"
 2370      616E2041 
 2370      4D515020 
 2370      44415441 
 2370      00
 2371              	.LC46:
 2372 0374 4572726F 		.ascii	"Error getting body DATA value\000"
 2372      72206765 
 2372      7474696E 
 2372      6720626F 
 2372      64792044 
 2373 0392 0000     		.space	2
 2374              	.LC48:
 2375 0394 4572726F 		.ascii	"Error getting body DATA AMQP value\000"
 2375      72206765 
ARM GAS  C:\Users\Phuong\AppData\Local\Temp\ccqGhR5Z.s 			page 57


 2375      7474696E 
 2375      6720626F 
 2375      64792044 
 2376 03b7 00       		.space	1
 2377              	.LC50:
 2378 03b8 4572726F 		.ascii	"Error adding body DATA to received message\000"
 2378      72206164 
 2378      64696E67 
 2378      20626F64 
 2378      79204441 
 2379 03e3 00       		.space	1
 2380              	.LC54:
 2381 03e4 4572726F 		.ascii	"Error creating message receiver\000"
 2381      72206372 
 2381      65617469 
 2381      6E67206D 
 2381      65737361 
 2382              	.LC58:
 2383 0404 4E554C4C 		.ascii	"NULL message_receiver\000"
 2383      206D6573 
 2383      73616765 
 2383      5F726563 
 2383      65697665 
 2384 041a 0000     		.space	2
 2385              	.LC62:
 2386 041c 4C696E6B 		.ascii	"Link attach failed\000"
 2386      20617474 
 2386      61636820 
 2386      6661696C 
 2386      656400
 2387 042f 00       		.space	1
 2388              	.LC67:
 2389 0430 6C696E6B 		.ascii	"link detach failed\000"
 2389      20646574 
 2389      61636820 
 2389      6661696C 
 2389      656400
 2390 0443 00       		.space	1
 2391              	.LC75:
 2392 0444 47657474 		.ascii	"Getting link name failed\000"
 2392      696E6720 
 2392      6C696E6B 
 2392      206E616D 
 2392      65206661 
 2393 045d 000000   		.space	3
 2394              	.LC80:
 2395 0460 4661696C 		.ascii	"Failed getting received message Id\000"
 2395      65642067 
 2395      65747469 
 2395      6E672072 
 2395      65636569 
 2396 0483 00       		.space	1
 2397              	.LC85:
 2398 0484 4D657373 		.ascii	"Message received not open\000"
 2398      61676520 
 2398      72656365 
 2398      69766564 
ARM GAS  C:\Users\Phuong\AppData\Local\Temp\ccqGhR5Z.s 			page 58


 2398      206E6F74 
 2399 049e 0000     		.space	2
 2400              	.LC87:
 2401 04a0 4661696C 		.ascii	"Failed getting link name\000"
 2401      65642067 
 2401      65747469 
 2401      6E67206C 
 2401      696E6B20 
 2402 04b9 000000   		.space	3
 2403              	.LC89:
 2404 04bc 4C696E6B 		.ascii	"Link name does not match\000"
 2404      206E616D 
 2404      6520646F 
 2404      6573206E 
 2404      6F74206D 
 2405 04d5 000000   		.space	3
 2406              	.LC91:
 2407 04d8 53656469 		.ascii	"Seding disposition failed\000"
 2407      6E672064 
 2407      6973706F 
 2407      73697469 
 2407      6F6E2066 
 2408              		.text
 2409              	.Letext0:
 2410              		.file 2 "c:\\program files (x86)\\cypress\\psoc creator\\4.2\\psoc creator\\import\\gnu\\arm\\5.4.
 2411              		.file 3 "c:\\program files (x86)\\cypress\\psoc creator\\4.2\\psoc creator\\import\\gnu\\arm\\5.4.
 2412              		.file 4 "c:\\program files (x86)\\cypress\\psoc creator\\4.2\\psoc creator\\import\\gnu\\arm\\5.4.
 2413              		.file 5 ".\\Source\\azure_iot_sdk\\c-utility\\inc/azure_c_shared_utility/xlogging.h"
 2414              		.file 6 ".\\Source\\azure_iot_sdk\\uamqp\\inc/azure_uamqp_c/amqpvalue.h"
 2415              		.file 7 ".\\Source\\azure_iot_sdk\\uamqp\\inc/azure_uamqp_c/amqp_definitions_sequence_no.h"
 2416              		.file 8 ".\\Source\\azure_iot_sdk\\uamqp\\inc/azure_uamqp_c/amqp_definitions_delivery_number.h"
 2417              		.file 9 ".\\Source\\azure_iot_sdk\\uamqp\\inc/azure_uamqp_c/amqp_definitions_transfer.h"
 2418              		.file 10 ".\\Source\\azure_iot_sdk\\uamqp\\inc/azure_uamqp_c/link.h"
 2419              		.file 11 ".\\Source\\azure_iot_sdk\\uamqp\\inc/azure_uamqp_c/amqp_definitions_annotations.h"
 2420              		.file 12 ".\\Source\\azure_iot_sdk\\uamqp\\inc/azure_uamqp_c/amqp_definitions_header.h"
 2421              		.file 13 ".\\Source\\azure_iot_sdk\\uamqp\\inc/azure_uamqp_c/amqp_definitions_data.h"
 2422              		.file 14 ".\\Source\\azure_iot_sdk\\uamqp\\inc/azure_uamqp_c/amqp_definitions_properties.h"
 2423              		.file 15 ".\\Source\\azure_iot_sdk\\uamqp\\inc/azure_uamqp_c/message.h"
 2424              		.file 16 ".\\Source\\azure_iot_sdk\\uamqp\\inc/azure_uamqp_c/message_receiver.h"
 2425              		.file 17 ".\\Source\\azure_iot_sdk\\uamqp\\inc/azure_uamqp_c/amqp_definitions_application_properti
 2426              		.file 18 ".\\Source\\azure_iot_sdk\\uamqp\\inc/azure_uamqp_c/amqp_definitions_delivery_annotations
 2427              		.file 19 ".\\Source\\azure_iot_sdk\\uamqp\\inc/azure_uamqp_c/amqp_definitions_message_annotations.
 2428              		.file 20 ".\\Source\\azure_iot_sdk\\uamqp\\inc/azure_uamqp_c/amqp_definitions_footer.h"
 2429              		.file 21 ".\\Source\\azure_iot_sdk\\uamqp\\inc/azure_uamqp_c/amqp_definitions_amqp_value.h"
 2430              		.file 22 "c:\\program files (x86)\\cypress\\psoc creator\\4.2\\psoc creator\\import\\gnu\\arm\\5.4
 2431              		.file 23 "c:\\program files (x86)\\cypress\\psoc creator\\4.2\\psoc creator\\import\\gnu\\arm\\5.4
 2432              		.section	.debug_info,"",%progbits
 2433              	.Ldebug_info0:
 2434 0000 A91E0000 		.4byte	0x1ea9
 2435 0004 0400     		.2byte	0x4
 2436 0006 00000000 		.4byte	.Ldebug_abbrev0
 2437 000a 04       		.byte	0x4
 2438 000b 01       		.uleb128 0x1
 2439 000c A3020000 		.4byte	.LASF159
 2440 0010 0C       		.byte	0xc
 2441 0011 20080000 		.4byte	.LASF160
 2442 0015 04040000 		.4byte	.LASF161
ARM GAS  C:\Users\Phuong\AppData\Local\Temp\ccqGhR5Z.s 			page 59


 2443 0019 58000000 		.4byte	.Ldebug_ranges0+0x58
 2444 001d 00000000 		.4byte	0
 2445 0021 00000000 		.4byte	.Ldebug_line0
 2446 0025 02       		.uleb128 0x2
 2447 0026 E5040000 		.4byte	.LASF8
 2448 002a 02       		.byte	0x2
 2449 002b D8       		.byte	0xd8
 2450 002c 30000000 		.4byte	0x30
 2451 0030 03       		.uleb128 0x3
 2452 0031 04       		.byte	0x4
 2453 0032 07       		.byte	0x7
 2454 0033 A9000000 		.4byte	.LASF0
 2455 0037 04       		.uleb128 0x4
 2456 0038 04       		.byte	0x4
 2457 0039 05       		.byte	0x5
 2458 003a 696E7400 		.ascii	"int\000"
 2459 003e 03       		.uleb128 0x3
 2460 003f 08       		.byte	0x8
 2461 0040 05       		.byte	0x5
 2462 0041 28070000 		.4byte	.LASF1
 2463 0045 03       		.uleb128 0x3
 2464 0046 08       		.byte	0x8
 2465 0047 04       		.byte	0x4
 2466 0048 4C090000 		.4byte	.LASF2
 2467 004c 03       		.uleb128 0x3
 2468 004d 01       		.byte	0x1
 2469 004e 06       		.byte	0x6
 2470 004f 780C0000 		.4byte	.LASF3
 2471 0053 03       		.uleb128 0x3
 2472 0054 01       		.byte	0x1
 2473 0055 08       		.byte	0x8
 2474 0056 C80B0000 		.4byte	.LASF4
 2475 005a 03       		.uleb128 0x3
 2476 005b 02       		.byte	0x2
 2477 005c 05       		.byte	0x5
 2478 005d ED090000 		.4byte	.LASF5
 2479 0061 03       		.uleb128 0x3
 2480 0062 02       		.byte	0x2
 2481 0063 07       		.byte	0x7
 2482 0064 AE0C0000 		.4byte	.LASF6
 2483 0068 03       		.uleb128 0x3
 2484 0069 04       		.byte	0x4
 2485 006a 05       		.byte	0x5
 2486 006b 3E0A0000 		.4byte	.LASF7
 2487 006f 02       		.uleb128 0x2
 2488 0070 D60B0000 		.4byte	.LASF9
 2489 0074 03       		.byte	0x3
 2490 0075 41       		.byte	0x41
 2491 0076 7A000000 		.4byte	0x7a
 2492 007a 03       		.uleb128 0x3
 2493 007b 04       		.byte	0x4
 2494 007c 07       		.byte	0x7
 2495 007d 2B0B0000 		.4byte	.LASF10
 2496 0081 03       		.uleb128 0x3
 2497 0082 08       		.byte	0x8
 2498 0083 07       		.byte	0x7
 2499 0084 AB030000 		.4byte	.LASF11
ARM GAS  C:\Users\Phuong\AppData\Local\Temp\ccqGhR5Z.s 			page 60


 2500 0088 03       		.uleb128 0x3
 2501 0089 04       		.byte	0x4
 2502 008a 07       		.byte	0x7
 2503 008b 220B0000 		.4byte	.LASF12
 2504 008f 05       		.uleb128 0x5
 2505 0090 04       		.byte	0x4
 2506 0091 03       		.uleb128 0x3
 2507 0092 01       		.byte	0x1
 2508 0093 08       		.byte	0x8
 2509 0094 17060000 		.4byte	.LASF13
 2510 0098 06       		.uleb128 0x6
 2511 0099 04       		.byte	0x4
 2512 009a 9E000000 		.4byte	0x9e
 2513 009e 07       		.uleb128 0x7
 2514 009f 91000000 		.4byte	0x91
 2515 00a3 06       		.uleb128 0x6
 2516 00a4 04       		.byte	0x4
 2517 00a5 A9000000 		.4byte	0xa9
 2518 00a9 08       		.uleb128 0x8
 2519 00aa 02       		.uleb128 0x2
 2520 00ab 5D020000 		.4byte	.LASF14
 2521 00af 04       		.byte	0x4
 2522 00b0 30       		.byte	0x30
 2523 00b1 6F000000 		.4byte	0x6f
 2524 00b5 09       		.uleb128 0x9
 2525 00b6 F20B0000 		.4byte	.LASF34
 2526 00ba 01       		.byte	0x1
 2527 00bb 53000000 		.4byte	0x53
 2528 00bf 05       		.byte	0x5
 2529 00c0 22       		.byte	0x22
 2530 00c1 D8000000 		.4byte	0xd8
 2531 00c5 0A       		.uleb128 0xa
 2532 00c6 A3090000 		.4byte	.LASF15
 2533 00ca 00       		.byte	0
 2534 00cb 0A       		.uleb128 0xa
 2535 00cc 5C060000 		.4byte	.LASF16
 2536 00d0 01       		.byte	0x1
 2537 00d1 0A       		.uleb128 0xa
 2538 00d2 290C0000 		.4byte	.LASF17
 2539 00d6 02       		.byte	0x2
 2540 00d7 00       		.byte	0
 2541 00d8 02       		.uleb128 0x2
 2542 00d9 B8070000 		.4byte	.LASF18
 2543 00dd 05       		.byte	0x5
 2544 00de 27       		.byte	0x27
 2545 00df B5000000 		.4byte	0xb5
 2546 00e3 02       		.uleb128 0x2
 2547 00e4 040B0000 		.4byte	.LASF19
 2548 00e8 05       		.byte	0x5
 2549 00e9 2F       		.byte	0x2f
 2550 00ea EE000000 		.4byte	0xee
 2551 00ee 06       		.uleb128 0x6
 2552 00ef 04       		.byte	0x4
 2553 00f0 F4000000 		.4byte	0xf4
 2554 00f4 0B       		.uleb128 0xb
 2555 00f5 19010000 		.4byte	0x119
 2556 00f9 0C       		.uleb128 0xc
ARM GAS  C:\Users\Phuong\AppData\Local\Temp\ccqGhR5Z.s 			page 61


 2557 00fa D8000000 		.4byte	0xd8
 2558 00fe 0C       		.uleb128 0xc
 2559 00ff 98000000 		.4byte	0x98
 2560 0103 0C       		.uleb128 0xc
 2561 0104 98000000 		.4byte	0x98
 2562 0108 0C       		.uleb128 0xc
 2563 0109 37000000 		.4byte	0x37
 2564 010d 0C       		.uleb128 0xc
 2565 010e 30000000 		.4byte	0x30
 2566 0112 0C       		.uleb128 0xc
 2567 0113 98000000 		.4byte	0x98
 2568 0117 0D       		.uleb128 0xd
 2569 0118 00       		.byte	0
 2570 0119 02       		.uleb128 0x2
 2571 011a B0090000 		.4byte	.LASF20
 2572 011e 06       		.byte	0x6
 2573 011f 15       		.byte	0x15
 2574 0120 24010000 		.4byte	0x124
 2575 0124 06       		.uleb128 0x6
 2576 0125 04       		.byte	0x4
 2577 0126 2A010000 		.4byte	0x12a
 2578 012a 0E       		.uleb128 0xe
 2579 012b 35030000 		.4byte	.LASF25
 2580 012f 0F       		.uleb128 0xf
 2581 0130 6A090000 		.4byte	.LASF56
 2582 0134 08       		.byte	0x8
 2583 0135 06       		.byte	0x6
 2584 0136 19       		.byte	0x19
 2585 0137 54010000 		.4byte	0x154
 2586 013b 10       		.uleb128 0x10
 2587 013c 6F050000 		.4byte	.LASF21
 2588 0140 06       		.byte	0x6
 2589 0141 1B       		.byte	0x1b
 2590 0142 A3000000 		.4byte	0xa3
 2591 0146 00       		.byte	0
 2592 0147 10       		.uleb128 0x10
 2593 0148 500A0000 		.4byte	.LASF22
 2594 014c 06       		.byte	0x6
 2595 014d 1C       		.byte	0x1c
 2596 014e AA000000 		.4byte	0xaa
 2597 0152 04       		.byte	0x4
 2598 0153 00       		.byte	0
 2599 0154 02       		.uleb128 0x2
 2600 0155 32020000 		.4byte	.LASF23
 2601 0159 06       		.byte	0x6
 2602 015a 1D       		.byte	0x1d
 2603 015b 2F010000 		.4byte	0x12f
 2604 015f 06       		.uleb128 0x6
 2605 0160 04       		.byte	0x4
 2606 0161 65010000 		.4byte	0x165
 2607 0165 07       		.uleb128 0x7
 2608 0166 53000000 		.4byte	0x53
 2609 016a 02       		.uleb128 0x2
 2610 016b 3F0D0000 		.4byte	.LASF24
 2611 016f 06       		.byte	0x6
 2612 0170 61       		.byte	0x61
 2613 0171 75010000 		.4byte	0x175
ARM GAS  C:\Users\Phuong\AppData\Local\Temp\ccqGhR5Z.s 			page 62


 2614 0175 06       		.uleb128 0x6
 2615 0176 04       		.byte	0x4
 2616 0177 7B010000 		.4byte	0x17b
 2617 017b 0E       		.uleb128 0xe
 2618 017c 2F050000 		.4byte	.LASF26
 2619 0180 03       		.uleb128 0x3
 2620 0181 01       		.byte	0x1
 2621 0182 02       		.byte	0x2
 2622 0183 29050000 		.4byte	.LASF27
 2623 0187 02       		.uleb128 0x2
 2624 0188 4B060000 		.4byte	.LASF28
 2625 018c 07       		.byte	0x7
 2626 018d 19       		.byte	0x19
 2627 018e AA000000 		.4byte	0xaa
 2628 0192 02       		.uleb128 0x2
 2629 0193 360C0000 		.4byte	.LASF29
 2630 0197 08       		.byte	0x8
 2631 0198 19       		.byte	0x19
 2632 0199 87010000 		.4byte	0x187
 2633 019d 02       		.uleb128 0x2
 2634 019e 460C0000 		.4byte	.LASF30
 2635 01a2 09       		.byte	0x9
 2636 01a3 18       		.byte	0x18
 2637 01a4 A8010000 		.4byte	0x1a8
 2638 01a8 06       		.uleb128 0x6
 2639 01a9 04       		.byte	0x4
 2640 01aa AE010000 		.4byte	0x1ae
 2641 01ae 0E       		.uleb128 0xe
 2642 01af 1C060000 		.4byte	.LASF31
 2643 01b3 02       		.uleb128 0x2
 2644 01b4 B0080000 		.4byte	.LASF32
 2645 01b8 0A       		.byte	0xa
 2646 01b9 17       		.byte	0x17
 2647 01ba BE010000 		.4byte	0x1be
 2648 01be 06       		.uleb128 0x6
 2649 01bf 04       		.byte	0x4
 2650 01c0 C4010000 		.4byte	0x1c4
 2651 01c4 0E       		.uleb128 0xe
 2652 01c5 560C0000 		.4byte	.LASF33
 2653 01c9 09       		.uleb128 0x9
 2654 01ca 1A0C0000 		.4byte	.LASF35
 2655 01ce 01       		.byte	0x1
 2656 01cf 53000000 		.4byte	0x53
 2657 01d3 0A       		.byte	0xa
 2658 01d4 20       		.byte	0x20
 2659 01d5 F8010000 		.4byte	0x1f8
 2660 01d9 0A       		.uleb128 0xa
 2661 01da 570A0000 		.4byte	.LASF36
 2662 01de 00       		.byte	0
 2663 01df 0A       		.uleb128 0xa
 2664 01e0 190A0000 		.4byte	.LASF37
 2665 01e4 01       		.byte	0x1
 2666 01e5 0A       		.uleb128 0xa
 2667 01e6 E70C0000 		.4byte	.LASF38
 2668 01ea 02       		.byte	0x2
 2669 01eb 0A       		.uleb128 0xa
 2670 01ec 50000000 		.4byte	.LASF39
ARM GAS  C:\Users\Phuong\AppData\Local\Temp\ccqGhR5Z.s 			page 63


 2671 01f0 03       		.byte	0x3
 2672 01f1 0A       		.uleb128 0xa
 2673 01f2 B8050000 		.4byte	.LASF40
 2674 01f6 04       		.byte	0x4
 2675 01f7 00       		.byte	0
 2676 01f8 02       		.uleb128 0x2
 2677 01f9 030C0000 		.4byte	.LASF41
 2678 01fd 0A       		.byte	0xa
 2679 01fe 20       		.byte	0x20
 2680 01ff C9010000 		.4byte	0x1c9
 2681 0203 02       		.uleb128 0x2
 2682 0204 E60B0000 		.4byte	.LASF42
 2683 0208 0B       		.byte	0xb
 2684 0209 19       		.byte	0x19
 2685 020a 19010000 		.4byte	0x119
 2686 020e 02       		.uleb128 0x2
 2687 020f F7090000 		.4byte	.LASF43
 2688 0213 0C       		.byte	0xc
 2689 0214 18       		.byte	0x18
 2690 0215 19020000 		.4byte	0x219
 2691 0219 06       		.uleb128 0x6
 2692 021a 04       		.byte	0x4
 2693 021b 1F020000 		.4byte	0x21f
 2694 021f 0E       		.uleb128 0xe
 2695 0220 100D0000 		.4byte	.LASF44
 2696 0224 02       		.uleb128 0x2
 2697 0225 57060000 		.4byte	.LASF45
 2698 0229 0D       		.byte	0xd
 2699 022a 19       		.byte	0x19
 2700 022b 54010000 		.4byte	0x154
 2701 022f 02       		.uleb128 0x2
 2702 0230 58090000 		.4byte	.LASF46
 2703 0234 0E       		.byte	0xe
 2704 0235 18       		.byte	0x18
 2705 0236 3A020000 		.4byte	0x23a
 2706 023a 06       		.uleb128 0x6
 2707 023b 04       		.byte	0x4
 2708 023c 40020000 		.4byte	0x240
 2709 0240 0E       		.uleb128 0xe
 2710 0241 ED070000 		.4byte	.LASF47
 2711 0245 09       		.uleb128 0x9
 2712 0246 04020000 		.4byte	.LASF48
 2713 024a 01       		.byte	0x1
 2714 024b 53000000 		.4byte	0x53
 2715 024f 0F       		.byte	0xf
 2716 0250 22       		.byte	0x22
 2717 0251 6E020000 		.4byte	0x26e
 2718 0255 0A       		.uleb128 0xa
 2719 0256 8B010000 		.4byte	.LASF49
 2720 025a 00       		.byte	0
 2721 025b 0A       		.uleb128 0xa
 2722 025c 66020000 		.4byte	.LASF50
 2723 0260 01       		.byte	0x1
 2724 0261 0A       		.uleb128 0xa
 2725 0262 A3060000 		.4byte	.LASF51
 2726 0266 02       		.byte	0x2
 2727 0267 0A       		.uleb128 0xa
ARM GAS  C:\Users\Phuong\AppData\Local\Temp\ccqGhR5Z.s 			page 64


 2728 0268 580D0000 		.4byte	.LASF52
 2729 026c 03       		.byte	0x3
 2730 026d 00       		.byte	0
 2731 026e 02       		.uleb128 0x2
 2732 026f C10C0000 		.4byte	.LASF53
 2733 0273 0F       		.byte	0xf
 2734 0274 22       		.byte	0x22
 2735 0275 45020000 		.4byte	0x245
 2736 0279 02       		.uleb128 0x2
 2737 027a C7090000 		.4byte	.LASF54
 2738 027e 0F       		.byte	0xf
 2739 027f 24       		.byte	0x24
 2740 0280 84020000 		.4byte	0x284
 2741 0284 06       		.uleb128 0x6
 2742 0285 04       		.byte	0x4
 2743 0286 8A020000 		.4byte	0x28a
 2744 028a 0E       		.uleb128 0xe
 2745 028b C00A0000 		.4byte	.LASF55
 2746 028f 0F       		.uleb128 0xf
 2747 0290 680C0000 		.4byte	.LASF57
 2748 0294 08       		.byte	0x8
 2749 0295 0F       		.byte	0xf
 2750 0296 25       		.byte	0x25
 2751 0297 B4020000 		.4byte	0x2b4
 2752 029b 10       		.uleb128 0x10
 2753 029c 6F050000 		.4byte	.LASF21
 2754 02a0 0F       		.byte	0xf
 2755 02a1 27       		.byte	0x27
 2756 02a2 5F010000 		.4byte	0x15f
 2757 02a6 00       		.byte	0
 2758 02a7 10       		.uleb128 0x10
 2759 02a8 500A0000 		.4byte	.LASF22
 2760 02ac 0F       		.byte	0xf
 2761 02ad 28       		.byte	0x28
 2762 02ae 25000000 		.4byte	0x25
 2763 02b2 04       		.byte	0x4
 2764 02b3 00       		.byte	0
 2765 02b4 02       		.uleb128 0x2
 2766 02b5 0E0C0000 		.4byte	.LASF58
 2767 02b9 0F       		.byte	0xf
 2768 02ba 29       		.byte	0x29
 2769 02bb 8F020000 		.4byte	0x28f
 2770 02bf 09       		.uleb128 0x9
 2771 02c0 4C010000 		.4byte	.LASF59
 2772 02c4 01       		.byte	0x1
 2773 02c5 53000000 		.4byte	0x53
 2774 02c9 10       		.byte	0x10
 2775 02ca 1A       		.byte	0x1a
 2776 02cb EE020000 		.4byte	0x2ee
 2777 02cf 0A       		.uleb128 0xa
 2778 02d0 34000000 		.4byte	.LASF60
 2779 02d4 00       		.byte	0
 2780 02d5 0A       		.uleb128 0xa
 2781 02d6 D8060000 		.4byte	.LASF61
 2782 02da 01       		.byte	0x1
 2783 02db 0A       		.uleb128 0xa
 2784 02dc 3D0B0000 		.4byte	.LASF62
ARM GAS  C:\Users\Phuong\AppData\Local\Temp\ccqGhR5Z.s 			page 65


 2785 02e0 02       		.byte	0x2
 2786 02e1 0A       		.uleb128 0xa
 2787 02e2 3E020000 		.4byte	.LASF63
 2788 02e6 03       		.byte	0x3
 2789 02e7 0A       		.uleb128 0xa
 2790 02e8 A30A0000 		.4byte	.LASF64
 2791 02ec 04       		.byte	0x4
 2792 02ed 00       		.byte	0
 2793 02ee 02       		.uleb128 0x2
 2794 02ef 52080000 		.4byte	.LASF65
 2795 02f3 10       		.byte	0x10
 2796 02f4 1A       		.byte	0x1a
 2797 02f5 BF020000 		.4byte	0x2bf
 2798 02f9 02       		.uleb128 0x2
 2799 02fa 7A090000 		.4byte	.LASF66
 2800 02fe 10       		.byte	0x10
 2801 02ff 1C       		.byte	0x1c
 2802 0300 04030000 		.4byte	0x304
 2803 0304 06       		.uleb128 0x6
 2804 0305 04       		.byte	0x4
 2805 0306 0A030000 		.4byte	0x30a
 2806 030a 0F       		.uleb128 0xf
 2807 030b C7040000 		.4byte	.LASF67
 2808 030f 20       		.byte	0x20
 2809 0310 01       		.byte	0x1
 2810 0311 0F       		.byte	0xf
 2811 0312 77030000 		.4byte	0x377
 2812 0316 10       		.uleb128 0x10
 2813 0317 E10B0000 		.4byte	.LASF68
 2814 031b 01       		.byte	0x1
 2815 031c 11       		.byte	0x11
 2816 031d B3010000 		.4byte	0x1b3
 2817 0321 00       		.byte	0
 2818 0322 10       		.uleb128 0x10
 2819 0323 0D010000 		.4byte	.LASF69
 2820 0327 01       		.byte	0x1
 2821 0328 12       		.byte	0x12
 2822 0329 77030000 		.4byte	0x377
 2823 032d 04       		.byte	0x4
 2824 032e 10       		.uleb128 0x10
 2825 032f 89030000 		.4byte	.LASF70
 2826 0333 01       		.byte	0x1
 2827 0334 13       		.byte	0x13
 2828 0335 9C030000 		.4byte	0x39c
 2829 0339 08       		.byte	0x8
 2830 033a 10       		.uleb128 0x10
 2831 033b C9050000 		.4byte	.LASF71
 2832 033f 01       		.byte	0x1
 2833 0340 14       		.byte	0x14
 2834 0341 EE020000 		.4byte	0x2ee
 2835 0345 0C       		.byte	0xc
 2836 0346 10       		.uleb128 0x10
 2837 0347 840C0000 		.4byte	.LASF72
 2838 034b 01       		.byte	0x1
 2839 034c 15       		.byte	0x15
 2840 034d A3000000 		.4byte	0xa3
 2841 0351 10       		.byte	0x10
ARM GAS  C:\Users\Phuong\AppData\Local\Temp\ccqGhR5Z.s 			page 66


 2842 0352 10       		.uleb128 0x10
 2843 0353 92090000 		.4byte	.LASF73
 2844 0357 01       		.byte	0x1
 2845 0358 16       		.byte	0x16
 2846 0359 A3000000 		.4byte	0xa3
 2847 035d 14       		.byte	0x14
 2848 035e 10       		.uleb128 0x10
 2849 035f F7060000 		.4byte	.LASF74
 2850 0363 01       		.byte	0x1
 2851 0364 17       		.byte	0x17
 2852 0365 79020000 		.4byte	0x279
 2853 0369 18       		.byte	0x18
 2854 036a 10       		.uleb128 0x10
 2855 036b EA050000 		.4byte	.LASF75
 2856 036f 01       		.byte	0x1
 2857 0370 18       		.byte	0x18
 2858 0371 80010000 		.4byte	0x180
 2859 0375 1C       		.byte	0x1c
 2860 0376 00       		.byte	0
 2861 0377 02       		.uleb128 0x2
 2862 0378 050A0000 		.4byte	.LASF76
 2863 037c 10       		.byte	0x10
 2864 037d 1D       		.byte	0x1d
 2865 037e 82030000 		.4byte	0x382
 2866 0382 06       		.uleb128 0x6
 2867 0383 04       		.byte	0x4
 2868 0384 88030000 		.4byte	0x388
 2869 0388 11       		.uleb128 0x11
 2870 0389 19010000 		.4byte	0x119
 2871 038d 9C030000 		.4byte	0x39c
 2872 0391 0C       		.uleb128 0xc
 2873 0392 A3000000 		.4byte	0xa3
 2874 0396 0C       		.uleb128 0xc
 2875 0397 79020000 		.4byte	0x279
 2876 039b 00       		.byte	0
 2877 039c 02       		.uleb128 0x2
 2878 039d 810A0000 		.4byte	.LASF77
 2879 03a1 10       		.byte	0x10
 2880 03a2 1E       		.byte	0x1e
 2881 03a3 A7030000 		.4byte	0x3a7
 2882 03a7 06       		.uleb128 0x6
 2883 03a8 04       		.byte	0x4
 2884 03a9 AD030000 		.4byte	0x3ad
 2885 03ad 0B       		.uleb128 0xb
 2886 03ae C2030000 		.4byte	0x3c2
 2887 03b2 0C       		.uleb128 0xc
 2888 03b3 A3000000 		.4byte	0xa3
 2889 03b7 0C       		.uleb128 0xc
 2890 03b8 EE020000 		.4byte	0x2ee
 2891 03bc 0C       		.uleb128 0xc
 2892 03bd EE020000 		.4byte	0x2ee
 2893 03c1 00       		.byte	0
 2894 03c2 02       		.uleb128 0x2
 2895 03c3 BE060000 		.4byte	.LASF78
 2896 03c7 01       		.byte	0x1
 2897 03c8 19       		.byte	0x19
 2898 03c9 0A030000 		.4byte	0x30a
ARM GAS  C:\Users\Phuong\AppData\Local\Temp\ccqGhR5Z.s 			page 67


 2899 03cd 12       		.uleb128 0x12
 2900 03ce 05080000 		.4byte	.LASF81
 2901 03d2 01       		.byte	0x1
 2902 03d3 1B       		.byte	0x1b
 2903 03d4 00000000 		.4byte	.LFB1
 2904 03d8 12000000 		.4byte	.LFE1-.LFB1
 2905 03dc 01       		.uleb128 0x1
 2906 03dd 9C       		.byte	0x9c
 2907 03de 10040000 		.4byte	0x410
 2908 03e2 13       		.uleb128 0x13
 2909 03e3 960B0000 		.4byte	.LASF79
 2910 03e7 01       		.byte	0x1
 2911 03e8 1B       		.byte	0x1b
 2912 03e9 10040000 		.4byte	0x410
 2913 03ed 00000000 		.4byte	.LLST0
 2914 03f1 13       		.uleb128 0x13
 2915 03f2 67010000 		.4byte	.LASF80
 2916 03f6 01       		.byte	0x1
 2917 03f7 1B       		.byte	0x1b
 2918 03f8 EE020000 		.4byte	0x2ee
 2919 03fc 21000000 		.4byte	.LLST1
 2920 0400 14       		.uleb128 0x14
 2921 0401 A9070000 		.4byte	.LASF86
 2922 0405 01       		.byte	0x1
 2923 0406 1D       		.byte	0x1d
 2924 0407 EE020000 		.4byte	0x2ee
 2925 040b 42000000 		.4byte	.LLST2
 2926 040f 00       		.byte	0
 2927 0410 06       		.uleb128 0x6
 2928 0411 04       		.byte	0x4
 2929 0412 C2030000 		.4byte	0x3c2
 2930 0416 15       		.uleb128 0x15
 2931 0417 9A080000 		.4byte	.LASF82
 2932 041b 01       		.byte	0x1
 2933 041c 1501     		.2byte	0x115
 2934 041e 00000000 		.4byte	.LFB4
 2935 0422 4A000000 		.4byte	.LFE4-.LFB4
 2936 0426 01       		.uleb128 0x1
 2937 0427 9C       		.byte	0x9c
 2938 0428 CA040000 		.4byte	0x4ca
 2939 042c 16       		.uleb128 0x16
 2940 042d 92070000 		.4byte	.LASF83
 2941 0431 01       		.byte	0x1
 2942 0432 1501     		.2byte	0x115
 2943 0434 8F000000 		.4byte	0x8f
 2944 0438 55000000 		.4byte	.LLST3
 2945 043c 16       		.uleb128 0x16
 2946 043d 36070000 		.4byte	.LASF84
 2947 0441 01       		.byte	0x1
 2948 0442 1501     		.2byte	0x115
 2949 0444 F8010000 		.4byte	0x1f8
 2950 0448 C1000000 		.4byte	.LLST4
 2951 044c 16       		.uleb128 0x16
 2952 044d 45070000 		.4byte	.LASF85
 2953 0451 01       		.byte	0x1
 2954 0452 1501     		.2byte	0x115
 2955 0454 F8010000 		.4byte	0x1f8
ARM GAS  C:\Users\Phuong\AppData\Local\Temp\ccqGhR5Z.s 			page 68


 2956 0458 2D010000 		.4byte	.LLST5
 2957 045c 17       		.uleb128 0x17
 2958 045d 960B0000 		.4byte	.LASF79
 2959 0461 01       		.byte	0x1
 2960 0462 1701     		.2byte	0x117
 2961 0464 10040000 		.4byte	0x410
 2962 0468 80010000 		.4byte	.LLST6
 2963 046c 18       		.uleb128 0x18
 2964 046d 1C000000 		.4byte	.LVL7
 2965 0471 CD030000 		.4byte	0x3cd
 2966 0475 86040000 		.4byte	0x486
 2967 0479 19       		.uleb128 0x19
 2968 047a 01       		.uleb128 0x1
 2969 047b 50       		.byte	0x50
 2970 047c 03       		.uleb128 0x3
 2971 047d F3       		.byte	0xf3
 2972 047e 01       		.uleb128 0x1
 2973 047f 50       		.byte	0x50
 2974 0480 19       		.uleb128 0x19
 2975 0481 01       		.uleb128 0x1
 2976 0482 51       		.byte	0x51
 2977 0483 01       		.uleb128 0x1
 2978 0484 32       		.byte	0x32
 2979 0485 00       		.byte	0
 2980 0486 18       		.uleb128 0x18
 2981 0487 2E000000 		.4byte	.LVL11
 2982 048b CD030000 		.4byte	0x3cd
 2983 048f A0040000 		.4byte	0x4a0
 2984 0493 19       		.uleb128 0x19
 2985 0494 01       		.uleb128 0x1
 2986 0495 50       		.byte	0x50
 2987 0496 03       		.uleb128 0x3
 2988 0497 F3       		.byte	0xf3
 2989 0498 01       		.uleb128 0x1
 2990 0499 50       		.byte	0x50
 2991 049a 19       		.uleb128 0x19
 2992 049b 01       		.uleb128 0x1
 2993 049c 51       		.byte	0x51
 2994 049d 01       		.uleb128 0x1
 2995 049e 30       		.byte	0x30
 2996 049f 00       		.byte	0
 2997 04a0 18       		.uleb128 0x18
 2998 04a1 3A000000 		.4byte	.LVL14
 2999 04a5 CD030000 		.4byte	0x3cd
 3000 04a9 B3040000 		.4byte	0x4b3
 3001 04ad 19       		.uleb128 0x19
 3002 04ae 01       		.uleb128 0x1
 3003 04af 51       		.byte	0x51
 3004 04b0 01       		.uleb128 0x1
 3005 04b1 34       		.byte	0x34
 3006 04b2 00       		.byte	0
 3007 04b3 1A       		.uleb128 0x1a
 3008 04b4 48000000 		.4byte	.LVL17
 3009 04b8 CD030000 		.4byte	0x3cd
 3010 04bc 19       		.uleb128 0x19
 3011 04bd 01       		.uleb128 0x1
 3012 04be 50       		.byte	0x50
ARM GAS  C:\Users\Phuong\AppData\Local\Temp\ccqGhR5Z.s 			page 69


 3013 04bf 03       		.uleb128 0x3
 3014 04c0 F3       		.byte	0xf3
 3015 04c1 01       		.uleb128 0x1
 3016 04c2 50       		.byte	0x50
 3017 04c3 19       		.uleb128 0x19
 3018 04c4 01       		.uleb128 0x1
 3019 04c5 51       		.byte	0x51
 3020 04c6 01       		.uleb128 0x1
 3021 04c7 34       		.byte	0x34
 3022 04c8 00       		.byte	0
 3023 04c9 00       		.byte	0
 3024 04ca 1B       		.uleb128 0x1b
 3025 04cb 8E060000 		.4byte	.LASF162
 3026 04cf 01       		.byte	0x1
 3027 04d0 DF       		.byte	0xdf
 3028 04d1 19010000 		.4byte	0x119
 3029 04d5 00000000 		.4byte	.LFB3
 3030 04d9 14010000 		.4byte	.LFE3-.LFB3
 3031 04dd 01       		.uleb128 0x1
 3032 04de 9C       		.byte	0x9c
 3033 04df BA070000 		.4byte	0x7ba
 3034 04e3 13       		.uleb128 0x13
 3035 04e4 92070000 		.4byte	.LASF83
 3036 04e8 01       		.byte	0x1
 3037 04e9 DF       		.byte	0xdf
 3038 04ea 8F000000 		.4byte	0x8f
 3039 04ee EC010000 		.4byte	.LLST7
 3040 04f2 13       		.uleb128 0x13
 3041 04f3 64000000 		.4byte	.LASF87
 3042 04f7 01       		.byte	0x1
 3043 04f8 DF       		.byte	0xdf
 3044 04f9 9D010000 		.4byte	0x19d
 3045 04fd 95020000 		.4byte	.LLST8
 3046 0501 13       		.uleb128 0x13
 3047 0502 71030000 		.4byte	.LASF88
 3048 0506 01       		.byte	0x1
 3049 0507 DF       		.byte	0xdf
 3050 0508 AA000000 		.4byte	0xaa
 3051 050c CF020000 		.4byte	.LLST9
 3052 0510 13       		.uleb128 0x13
 3053 0511 FF000000 		.4byte	.LASF89
 3054 0515 01       		.byte	0x1
 3055 0516 DF       		.byte	0xdf
 3056 0517 5F010000 		.4byte	0x15f
 3057 051b 05030000 		.4byte	.LLST10
 3058 051f 14       		.uleb128 0x14
 3059 0520 9C020000 		.4byte	.LASF90
 3060 0524 01       		.byte	0x1
 3061 0525 E1       		.byte	0xe1
 3062 0526 19010000 		.4byte	0x119
 3063 052a 7C030000 		.4byte	.LLST11
 3064 052e 14       		.uleb128 0x14
 3065 052f 960B0000 		.4byte	.LASF79
 3066 0533 01       		.byte	0x1
 3067 0534 E2       		.byte	0xe2
 3068 0535 10040000 		.4byte	0x410
 3069 0539 BD030000 		.4byte	.LLST12
ARM GAS  C:\Users\Phuong\AppData\Local\Temp\ccqGhR5Z.s 			page 70


 3070 053d 1C       		.uleb128 0x1c
 3071 053e DE0C0000 		.4byte	.LASF96
 3072 0542 CA070000 		.4byte	0x7ca
 3073 0546 05       		.uleb128 0x5
 3074 0547 03       		.byte	0x3
 3075 0548 00000000 		.4byte	__func__.8159
 3076 054c 1D       		.uleb128 0x1d
 3077 054d 00000000 		.4byte	.Ldebug_ranges0+0
 3078 0551 14       		.uleb128 0x14
 3079 0552 7D020000 		.4byte	.LASF91
 3080 0556 01       		.byte	0x1
 3081 0557 E7       		.byte	0xe7
 3082 0558 79020000 		.4byte	0x279
 3083 055c 66040000 		.4byte	.LLST13
 3084 0560 1E       		.uleb128 0x1e
 3085 0561 18000000 		.4byte	.LBB3
 3086 0565 1A000000 		.4byte	.LBE3-.LBB3
 3087 0569 BA050000 		.4byte	0x5ba
 3088 056d 1F       		.uleb128 0x1f
 3089 056e 6C00     		.ascii	"l\000"
 3090 0570 01       		.byte	0x1
 3091 0571 EA       		.byte	0xea
 3092 0572 E3000000 		.4byte	0xe3
 3093 0576 9A040000 		.4byte	.LLST14
 3094 057a 20       		.uleb128 0x20
 3095 057b 1C000000 		.4byte	.LVL23
 3096 057f 0A1D0000 		.4byte	0x1d0a
 3097 0583 21       		.uleb128 0x21
 3098 0584 32000000 		.4byte	.LVL26
 3099 0588 02       		.uleb128 0x2
 3100 0589 75       		.byte	0x75
 3101 058a 00       		.sleb128 0
 3102 058b 19       		.uleb128 0x19
 3103 058c 01       		.uleb128 0x1
 3104 058d 50       		.byte	0x50
 3105 058e 01       		.uleb128 0x1
 3106 058f 30       		.byte	0x30
 3107 0590 19       		.uleb128 0x19
 3108 0591 01       		.uleb128 0x1
 3109 0592 51       		.byte	0x51
 3110 0593 05       		.uleb128 0x5
 3111 0594 03       		.byte	0x3
 3112 0595 00000000 		.4byte	.LC1
 3113 0599 19       		.uleb128 0x19
 3114 059a 01       		.uleb128 0x1
 3115 059b 52       		.byte	0x52
 3116 059c 05       		.uleb128 0x5
 3117 059d 03       		.byte	0x3
 3118 059e 00000000 		.4byte	.LANCHOR0
 3119 05a2 19       		.uleb128 0x19
 3120 05a3 01       		.uleb128 0x1
 3121 05a4 53       		.byte	0x53
 3122 05a5 02       		.uleb128 0x2
 3123 05a6 08       		.byte	0x8
 3124 05a7 EA       		.byte	0xea
 3125 05a8 19       		.uleb128 0x19
 3126 05a9 02       		.uleb128 0x2
ARM GAS  C:\Users\Phuong\AppData\Local\Temp\ccqGhR5Z.s 			page 71


 3127 05aa 7D       		.byte	0x7d
 3128 05ab 00       		.sleb128 0
 3129 05ac 01       		.uleb128 0x1
 3130 05ad 31       		.byte	0x31
 3131 05ae 19       		.uleb128 0x19
 3132 05af 02       		.uleb128 0x2
 3133 05b0 7D       		.byte	0x7d
 3134 05b1 04       		.sleb128 4
 3135 05b2 05       		.uleb128 0x5
 3136 05b3 03       		.byte	0x3
 3137 05b4 34000000 		.4byte	.LC3
 3138 05b8 00       		.byte	0
 3139 05b9 00       		.byte	0
 3140 05ba 22       		.uleb128 0x22
 3141 05bb 30000000 		.4byte	.Ldebug_ranges0+0x30
 3142 05bf 9A070000 		.4byte	0x79a
 3143 05c3 14       		.uleb128 0x14
 3144 05c4 ED000000 		.4byte	.LASF92
 3145 05c8 01       		.byte	0x1
 3146 05c9 EF       		.byte	0xef
 3147 05ca 6A010000 		.4byte	0x16a
 3148 05ce B8040000 		.4byte	.LLST15
 3149 05d2 1E       		.uleb128 0x1e
 3150 05d3 4A000000 		.4byte	.LBB5
 3151 05d7 1A000000 		.4byte	.LBE5-.LBB5
 3152 05db 2C060000 		.4byte	0x62c
 3153 05df 1F       		.uleb128 0x1f
 3154 05e0 6C00     		.ascii	"l\000"
 3155 05e2 01       		.byte	0x1
 3156 05e3 F2       		.byte	0xf2
 3157 05e4 E3000000 		.4byte	0xe3
 3158 05e8 EC040000 		.4byte	.LLST16
 3159 05ec 20       		.uleb128 0x20
 3160 05ed 4E000000 		.4byte	.LVL33
 3161 05f1 0A1D0000 		.4byte	0x1d0a
 3162 05f5 21       		.uleb128 0x21
 3163 05f6 64000000 		.4byte	.LVL36
 3164 05fa 02       		.uleb128 0x2
 3165 05fb 75       		.byte	0x75
 3166 05fc 00       		.sleb128 0
 3167 05fd 19       		.uleb128 0x19
 3168 05fe 01       		.uleb128 0x1
 3169 05ff 50       		.byte	0x50
 3170 0600 01       		.uleb128 0x1
 3171 0601 30       		.byte	0x30
 3172 0602 19       		.uleb128 0x19
 3173 0603 01       		.uleb128 0x1
 3174 0604 51       		.byte	0x51
 3175 0605 05       		.uleb128 0x5
 3176 0606 03       		.byte	0x3
 3177 0607 00000000 		.4byte	.LC1
 3178 060b 19       		.uleb128 0x19
 3179 060c 01       		.uleb128 0x1
 3180 060d 52       		.byte	0x52
 3181 060e 05       		.uleb128 0x5
 3182 060f 03       		.byte	0x3
 3183 0610 00000000 		.4byte	.LANCHOR0
ARM GAS  C:\Users\Phuong\AppData\Local\Temp\ccqGhR5Z.s 			page 72


 3184 0614 19       		.uleb128 0x19
 3185 0615 01       		.uleb128 0x1
 3186 0616 53       		.byte	0x53
 3187 0617 02       		.uleb128 0x2
 3188 0618 08       		.byte	0x8
 3189 0619 F2       		.byte	0xf2
 3190 061a 19       		.uleb128 0x19
 3191 061b 02       		.uleb128 0x2
 3192 061c 7D       		.byte	0x7d
 3193 061d 00       		.sleb128 0
 3194 061e 01       		.uleb128 0x1
 3195 061f 31       		.byte	0x31
 3196 0620 19       		.uleb128 0x19
 3197 0621 02       		.uleb128 0x2
 3198 0622 7D       		.byte	0x7d
 3199 0623 04       		.sleb128 4
 3200 0624 05       		.uleb128 0x5
 3201 0625 03       		.byte	0x3
 3202 0626 4C000000 		.4byte	.LC6
 3203 062a 00       		.byte	0
 3204 062b 00       		.byte	0
 3205 062c 1E       		.uleb128 0x1e
 3206 062d 82000000 		.4byte	.LBB6
 3207 0631 1A000000 		.4byte	.LBE6-.LBB6
 3208 0635 86060000 		.4byte	0x686
 3209 0639 1F       		.uleb128 0x1f
 3210 063a 6C00     		.ascii	"l\000"
 3211 063c 01       		.byte	0x1
 3212 063d FB       		.byte	0xfb
 3213 063e E3000000 		.4byte	0xe3
 3214 0642 0A050000 		.4byte	.LLST17
 3215 0646 20       		.uleb128 0x20
 3216 0647 86000000 		.4byte	.LVL41
 3217 064b 0A1D0000 		.4byte	0x1d0a
 3218 064f 21       		.uleb128 0x21
 3219 0650 9C000000 		.4byte	.LVL44
 3220 0654 02       		.uleb128 0x2
 3221 0655 76       		.byte	0x76
 3222 0656 00       		.sleb128 0
 3223 0657 19       		.uleb128 0x19
 3224 0658 01       		.uleb128 0x1
 3225 0659 50       		.byte	0x50
 3226 065a 01       		.uleb128 0x1
 3227 065b 30       		.byte	0x30
 3228 065c 19       		.uleb128 0x19
 3229 065d 01       		.uleb128 0x1
 3230 065e 51       		.byte	0x51
 3231 065f 05       		.uleb128 0x5
 3232 0660 03       		.byte	0x3
 3233 0661 00000000 		.4byte	.LC1
 3234 0665 19       		.uleb128 0x19
 3235 0666 01       		.uleb128 0x1
 3236 0667 52       		.byte	0x52
 3237 0668 05       		.uleb128 0x5
 3238 0669 03       		.byte	0x3
 3239 066a 00000000 		.4byte	.LANCHOR0
 3240 066e 19       		.uleb128 0x19
ARM GAS  C:\Users\Phuong\AppData\Local\Temp\ccqGhR5Z.s 			page 73


 3241 066f 01       		.uleb128 0x1
 3242 0670 53       		.byte	0x53
 3243 0671 02       		.uleb128 0x2
 3244 0672 08       		.byte	0x8
 3245 0673 FB       		.byte	0xfb
 3246 0674 19       		.uleb128 0x19
 3247 0675 02       		.uleb128 0x2
 3248 0676 7D       		.byte	0x7d
 3249 0677 00       		.sleb128 0
 3250 0678 01       		.uleb128 0x1
 3251 0679 31       		.byte	0x31
 3252 067a 19       		.uleb128 0x19
 3253 067b 02       		.uleb128 0x2
 3254 067c 7D       		.byte	0x7d
 3255 067d 04       		.sleb128 4
 3256 067e 05       		.uleb128 0x5
 3257 067f 03       		.byte	0x3
 3258 0680 70000000 		.4byte	.LC8
 3259 0684 00       		.byte	0
 3260 0685 00       		.byte	0
 3261 0686 1E       		.uleb128 0x1e
 3262 0687 AE000000 		.4byte	.LBB7
 3263 068b 1C000000 		.4byte	.LBE7-.LBB7
 3264 068f E2060000 		.4byte	0x6e2
 3265 0693 23       		.uleb128 0x23
 3266 0694 6C00     		.ascii	"l\000"
 3267 0696 01       		.byte	0x1
 3268 0697 0201     		.2byte	0x102
 3269 0699 E3000000 		.4byte	0xe3
 3270 069d 28050000 		.4byte	.LLST18
 3271 06a1 20       		.uleb128 0x20
 3272 06a2 B2000000 		.4byte	.LVL48
 3273 06a6 0A1D0000 		.4byte	0x1d0a
 3274 06aa 21       		.uleb128 0x21
 3275 06ab CA000000 		.4byte	.LVL51
 3276 06af 02       		.uleb128 0x2
 3277 06b0 76       		.byte	0x76
 3278 06b1 00       		.sleb128 0
 3279 06b2 19       		.uleb128 0x19
 3280 06b3 01       		.uleb128 0x1
 3281 06b4 50       		.byte	0x50
 3282 06b5 01       		.uleb128 0x1
 3283 06b6 30       		.byte	0x30
 3284 06b7 19       		.uleb128 0x19
 3285 06b8 01       		.uleb128 0x1
 3286 06b9 51       		.byte	0x51
 3287 06ba 05       		.uleb128 0x5
 3288 06bb 03       		.byte	0x3
 3289 06bc 00000000 		.4byte	.LC1
 3290 06c0 19       		.uleb128 0x19
 3291 06c1 01       		.uleb128 0x1
 3292 06c2 52       		.byte	0x52
 3293 06c3 05       		.uleb128 0x5
 3294 06c4 03       		.byte	0x3
 3295 06c5 00000000 		.4byte	.LANCHOR0
 3296 06c9 19       		.uleb128 0x19
 3297 06ca 01       		.uleb128 0x1
ARM GAS  C:\Users\Phuong\AppData\Local\Temp\ccqGhR5Z.s 			page 74


 3298 06cb 53       		.byte	0x53
 3299 06cc 03       		.uleb128 0x3
 3300 06cd 0A       		.byte	0xa
 3301 06ce 0201     		.2byte	0x102
 3302 06d0 19       		.uleb128 0x19
 3303 06d1 02       		.uleb128 0x2
 3304 06d2 7D       		.byte	0x7d
 3305 06d3 00       		.sleb128 0
 3306 06d4 01       		.uleb128 0x1
 3307 06d5 31       		.byte	0x31
 3308 06d6 19       		.uleb128 0x19
 3309 06d7 02       		.uleb128 0x2
 3310 06d8 7D       		.byte	0x7d
 3311 06d9 04       		.sleb128 4
 3312 06da 05       		.uleb128 0x5
 3313 06db 03       		.byte	0x3
 3314 06dc 84000000 		.4byte	.LC10
 3315 06e0 00       		.byte	0
 3316 06e1 00       		.byte	0
 3317 06e2 18       		.uleb128 0x18
 3318 06e3 46000000 		.4byte	.LVL31
 3319 06e7 151D0000 		.4byte	0x1d15
 3320 06eb FF060000 		.4byte	0x6ff
 3321 06ef 19       		.uleb128 0x19
 3322 06f0 01       		.uleb128 0x1
 3323 06f1 50       		.byte	0x50
 3324 06f2 05       		.uleb128 0x5
 3325 06f3 03       		.byte	0x3
 3326 06f4 00000000 		.4byte	decode_message_value_callback
 3327 06f8 19       		.uleb128 0x19
 3328 06f9 01       		.uleb128 0x1
 3329 06fa 51       		.byte	0x51
 3330 06fb 02       		.uleb128 0x2
 3331 06fc 74       		.byte	0x74
 3332 06fd 00       		.sleb128 0
 3333 06fe 00       		.byte	0
 3334 06ff 18       		.uleb128 0x18
 3335 0700 6C000000 		.4byte	.LVL37
 3336 0704 CD030000 		.4byte	0x3cd
 3337 0708 18070000 		.4byte	0x718
 3338 070c 19       		.uleb128 0x19
 3339 070d 01       		.uleb128 0x1
 3340 070e 50       		.byte	0x50
 3341 070f 02       		.uleb128 0x2
 3342 0710 74       		.byte	0x74
 3343 0711 00       		.sleb128 0
 3344 0712 19       		.uleb128 0x19
 3345 0713 01       		.uleb128 0x1
 3346 0714 51       		.byte	0x51
 3347 0715 01       		.uleb128 0x1
 3348 0716 34       		.byte	0x34
 3349 0717 00       		.byte	0
 3350 0718 18       		.uleb128 0x18
 3351 0719 7E000000 		.4byte	.LVL40
 3352 071d 201D0000 		.4byte	0x1d20
 3353 0721 33070000 		.4byte	0x733
 3354 0725 19       		.uleb128 0x19
ARM GAS  C:\Users\Phuong\AppData\Local\Temp\ccqGhR5Z.s 			page 75


 3355 0726 01       		.uleb128 0x1
 3356 0727 51       		.byte	0x51
 3357 0728 02       		.uleb128 0x2
 3358 0729 76       		.byte	0x76
 3359 072a 00       		.sleb128 0
 3360 072b 19       		.uleb128 0x19
 3361 072c 01       		.uleb128 0x1
 3362 072d 52       		.byte	0x52
 3363 072e 03       		.uleb128 0x3
 3364 072f 91       		.byte	0x91
 3365 0730 64       		.sleb128 -28
 3366 0731 06       		.byte	0x6
 3367 0732 00       		.byte	0
 3368 0733 18       		.uleb128 0x18
 3369 0734 A4000000 		.4byte	.LVL45
 3370 0738 CD030000 		.4byte	0x3cd
 3371 073c 4C070000 		.4byte	0x74c
 3372 0740 19       		.uleb128 0x19
 3373 0741 01       		.uleb128 0x1
 3374 0742 50       		.byte	0x50
 3375 0743 02       		.uleb128 0x2
 3376 0744 74       		.byte	0x74
 3377 0745 00       		.sleb128 0
 3378 0746 19       		.uleb128 0x19
 3379 0747 01       		.uleb128 0x1
 3380 0748 51       		.byte	0x51
 3381 0749 01       		.uleb128 0x1
 3382 074a 34       		.byte	0x34
 3383 074b 00       		.byte	0
 3384 074c 18       		.uleb128 0x18
 3385 074d D2000000 		.4byte	.LVL52
 3386 0751 CD030000 		.4byte	0x3cd
 3387 0755 65070000 		.4byte	0x765
 3388 0759 19       		.uleb128 0x19
 3389 075a 01       		.uleb128 0x1
 3390 075b 50       		.byte	0x50
 3391 075c 02       		.uleb128 0x2
 3392 075d 74       		.byte	0x74
 3393 075e 00       		.sleb128 0
 3394 075f 19       		.uleb128 0x19
 3395 0760 01       		.uleb128 0x1
 3396 0761 51       		.byte	0x51
 3397 0762 01       		.uleb128 0x1
 3398 0763 34       		.byte	0x34
 3399 0764 00       		.byte	0
 3400 0765 24       		.uleb128 0x24
 3401 0766 DE000000 		.4byte	.LVL55
 3402 076a 75070000 		.4byte	0x775
 3403 076e 19       		.uleb128 0x19
 3404 076f 01       		.uleb128 0x1
 3405 0770 51       		.byte	0x51
 3406 0771 02       		.uleb128 0x2
 3407 0772 77       		.byte	0x77
 3408 0773 00       		.sleb128 0
 3409 0774 00       		.byte	0
 3410 0775 18       		.uleb128 0x18
 3411 0776 E6000000 		.4byte	.LVL57
ARM GAS  C:\Users\Phuong\AppData\Local\Temp\ccqGhR5Z.s 			page 76


 3412 077a 2B1D0000 		.4byte	0x1d2b
 3413 077e 89070000 		.4byte	0x789
 3414 0782 19       		.uleb128 0x19
 3415 0783 01       		.uleb128 0x1
 3416 0784 50       		.byte	0x50
 3417 0785 02       		.uleb128 0x2
 3418 0786 75       		.byte	0x75
 3419 0787 00       		.sleb128 0
 3420 0788 00       		.byte	0
 3421 0789 1A       		.uleb128 0x1a
 3422 078a EC000000 		.4byte	.LVL58
 3423 078e 361D0000 		.4byte	0x1d36
 3424 0792 19       		.uleb128 0x19
 3425 0793 01       		.uleb128 0x1
 3426 0794 50       		.byte	0x50
 3427 0795 02       		.uleb128 0x2
 3428 0796 77       		.byte	0x77
 3429 0797 00       		.sleb128 0
 3430 0798 00       		.byte	0
 3431 0799 00       		.byte	0
 3432 079a 20       		.uleb128 0x20
 3433 079b 14000000 		.4byte	.LVL21
 3434 079f 411D0000 		.4byte	0x1d41
 3435 07a3 1A       		.uleb128 0x1a
 3436 07a4 3A000000 		.4byte	.LVL27
 3437 07a8 CD030000 		.4byte	0x3cd
 3438 07ac 19       		.uleb128 0x19
 3439 07ad 01       		.uleb128 0x1
 3440 07ae 50       		.byte	0x50
 3441 07af 02       		.uleb128 0x2
 3442 07b0 74       		.byte	0x74
 3443 07b1 00       		.sleb128 0
 3444 07b2 19       		.uleb128 0x19
 3445 07b3 01       		.uleb128 0x1
 3446 07b4 51       		.byte	0x51
 3447 07b5 01       		.uleb128 0x1
 3448 07b6 34       		.byte	0x34
 3449 07b7 00       		.byte	0
 3450 07b8 00       		.byte	0
 3451 07b9 00       		.byte	0
 3452 07ba 25       		.uleb128 0x25
 3453 07bb 9E000000 		.4byte	0x9e
 3454 07bf CA070000 		.4byte	0x7ca
 3455 07c3 26       		.uleb128 0x26
 3456 07c4 88000000 		.4byte	0x88
 3457 07c8 14       		.byte	0x14
 3458 07c9 00       		.byte	0
 3459 07ca 07       		.uleb128 0x7
 3460 07cb BA070000 		.4byte	0x7ba
 3461 07cf 27       		.uleb128 0x27
 3462 07d0 00000000 		.4byte	.LASF93
 3463 07d4 01       		.byte	0x1
 3464 07d5 25       		.byte	0x25
 3465 07d6 00000000 		.4byte	.LFB2
 3466 07da 68040000 		.4byte	.LFE2-.LFB2
 3467 07de 01       		.uleb128 0x1
 3468 07df 9C       		.byte	0x9c
ARM GAS  C:\Users\Phuong\AppData\Local\Temp\ccqGhR5Z.s 			page 77


 3469 07e0 A4120000 		.4byte	0x12a4
 3470 07e4 13       		.uleb128 0x13
 3471 07e5 92070000 		.4byte	.LASF83
 3472 07e9 01       		.byte	0x1
 3473 07ea 25       		.byte	0x25
 3474 07eb 8F000000 		.4byte	0x8f
 3475 07ef 46050000 		.4byte	.LLST19
 3476 07f3 13       		.uleb128 0x13
 3477 07f4 59070000 		.4byte	.LASF94
 3478 07f8 01       		.byte	0x1
 3479 07f9 25       		.byte	0x25
 3480 07fa 19010000 		.4byte	0x119
 3481 07fe 72050000 		.4byte	.LLST20
 3482 0802 14       		.uleb128 0x14
 3483 0803 960B0000 		.4byte	.LASF79
 3484 0807 01       		.byte	0x1
 3485 0808 27       		.byte	0x27
 3486 0809 10040000 		.4byte	0x410
 3487 080d 9E050000 		.4byte	.LLST21
 3488 0811 14       		.uleb128 0x14
 3489 0812 F7060000 		.4byte	.LASF74
 3490 0816 01       		.byte	0x1
 3491 0817 28       		.byte	0x28
 3492 0818 79020000 		.4byte	0x279
 3493 081c CA050000 		.4byte	.LLST22
 3494 0820 14       		.uleb128 0x14
 3495 0821 9D050000 		.4byte	.LASF95
 3496 0825 01       		.byte	0x1
 3497 0826 29       		.byte	0x29
 3498 0827 19010000 		.4byte	0x119
 3499 082b DD050000 		.4byte	.LLST23
 3500 082f 1C       		.uleb128 0x1c
 3501 0830 DE0C0000 		.4byte	.LASF96
 3502 0834 B4120000 		.4byte	0x12b4
 3503 0838 05       		.uleb128 0x5
 3504 0839 03       		.byte	0x3
 3505 083a 18000000 		.4byte	__func__.8078
 3506 083e 1E       		.uleb128 0x1e
 3507 083f 28000000 		.4byte	.LBB15
 3508 0843 1C000000 		.4byte	.LBE15-.LBB15
 3509 0847 98080000 		.4byte	0x898
 3510 084b 1F       		.uleb128 0x1f
 3511 084c 6C00     		.ascii	"l\000"
 3512 084e 01       		.byte	0x1
 3513 084f 2F       		.byte	0x2f
 3514 0850 E3000000 		.4byte	0xe3
 3515 0854 CC060000 		.4byte	.LLST24
 3516 0858 20       		.uleb128 0x20
 3517 0859 2C000000 		.4byte	.LVL70
 3518 085d 0A1D0000 		.4byte	0x1d0a
 3519 0861 21       		.uleb128 0x21
 3520 0862 44000000 		.4byte	.LVL73
 3521 0866 02       		.uleb128 0x2
 3522 0867 74       		.byte	0x74
 3523 0868 00       		.sleb128 0
 3524 0869 19       		.uleb128 0x19
 3525 086a 01       		.uleb128 0x1
ARM GAS  C:\Users\Phuong\AppData\Local\Temp\ccqGhR5Z.s 			page 78


 3526 086b 50       		.byte	0x50
 3527 086c 01       		.uleb128 0x1
 3528 086d 30       		.byte	0x30
 3529 086e 19       		.uleb128 0x19
 3530 086f 01       		.uleb128 0x1
 3531 0870 51       		.byte	0x51
 3532 0871 05       		.uleb128 0x5
 3533 0872 03       		.byte	0x3
 3534 0873 00000000 		.4byte	.LC1
 3535 0877 19       		.uleb128 0x19
 3536 0878 01       		.uleb128 0x1
 3537 0879 52       		.byte	0x52
 3538 087a 05       		.uleb128 0x5
 3539 087b 03       		.byte	0x3
 3540 087c 18000000 		.4byte	.LANCHOR0+24
 3541 0880 19       		.uleb128 0x19
 3542 0881 01       		.uleb128 0x1
 3543 0882 53       		.byte	0x53
 3544 0883 02       		.uleb128 0x2
 3545 0884 08       		.byte	0x8
 3546 0885 2F       		.byte	0x2f
 3547 0886 19       		.uleb128 0x19
 3548 0887 02       		.uleb128 0x2
 3549 0888 7D       		.byte	0x7d
 3550 0889 00       		.sleb128 0
 3551 088a 01       		.uleb128 0x1
 3552 088b 31       		.byte	0x31
 3553 088c 19       		.uleb128 0x19
 3554 088d 02       		.uleb128 0x2
 3555 088e 7D       		.byte	0x7d
 3556 088f 04       		.sleb128 4
 3557 0890 05       		.uleb128 0x5
 3558 0891 03       		.byte	0x3
 3559 0892 9C000000 		.4byte	.LC14
 3560 0896 00       		.byte	0
 3561 0897 00       		.byte	0
 3562 0898 1E       		.uleb128 0x1e
 3563 0899 54000000 		.4byte	.LBB16
 3564 089d 62000000 		.4byte	.LBE16-.LBB16
 3565 08a1 9F090000 		.4byte	0x99f
 3566 08a5 28       		.uleb128 0x28
 3567 08a6 D30C0000 		.4byte	.LASF97
 3568 08aa 01       		.byte	0x1
 3569 08ab 35       		.byte	0x35
 3570 08ac 2F020000 		.4byte	0x22f
 3571 08b0 02       		.uleb128 0x2
 3572 08b1 91       		.byte	0x91
 3573 08b2 60       		.sleb128 -32
 3574 08b3 1E       		.uleb128 0x1e
 3575 08b4 60000000 		.4byte	.LBB17
 3576 08b8 1C000000 		.4byte	.LBE17-.LBB17
 3577 08bc 0D090000 		.4byte	0x90d
 3578 08c0 1F       		.uleb128 0x1f
 3579 08c1 6C00     		.ascii	"l\000"
 3580 08c3 01       		.byte	0x1
 3581 08c4 38       		.byte	0x38
 3582 08c5 E3000000 		.4byte	0xe3
ARM GAS  C:\Users\Phuong\AppData\Local\Temp\ccqGhR5Z.s 			page 79


 3583 08c9 EA060000 		.4byte	.LLST25
 3584 08cd 20       		.uleb128 0x20
 3585 08ce 64000000 		.4byte	.LVL77
 3586 08d2 0A1D0000 		.4byte	0x1d0a
 3587 08d6 21       		.uleb128 0x21
 3588 08d7 7C000000 		.4byte	.LVL80
 3589 08db 02       		.uleb128 0x2
 3590 08dc 74       		.byte	0x74
 3591 08dd 00       		.sleb128 0
 3592 08de 19       		.uleb128 0x19
 3593 08df 01       		.uleb128 0x1
 3594 08e0 50       		.byte	0x50
 3595 08e1 01       		.uleb128 0x1
 3596 08e2 30       		.byte	0x30
 3597 08e3 19       		.uleb128 0x19
 3598 08e4 01       		.uleb128 0x1
 3599 08e5 51       		.byte	0x51
 3600 08e6 05       		.uleb128 0x5
 3601 08e7 03       		.byte	0x3
 3602 08e8 00000000 		.4byte	.LC1
 3603 08ec 19       		.uleb128 0x19
 3604 08ed 01       		.uleb128 0x1
 3605 08ee 52       		.byte	0x52
 3606 08ef 05       		.uleb128 0x5
 3607 08f0 03       		.byte	0x3
 3608 08f1 18000000 		.4byte	.LANCHOR0+24
 3609 08f5 19       		.uleb128 0x19
 3610 08f6 01       		.uleb128 0x1
 3611 08f7 53       		.byte	0x53
 3612 08f8 02       		.uleb128 0x2
 3613 08f9 08       		.byte	0x8
 3614 08fa 38       		.byte	0x38
 3615 08fb 19       		.uleb128 0x19
 3616 08fc 02       		.uleb128 0x2
 3617 08fd 7D       		.byte	0x7d
 3618 08fe 00       		.sleb128 0
 3619 08ff 01       		.uleb128 0x1
 3620 0900 31       		.byte	0x31
 3621 0901 19       		.uleb128 0x19
 3622 0902 02       		.uleb128 0x2
 3623 0903 7D       		.byte	0x7d
 3624 0904 04       		.sleb128 4
 3625 0905 05       		.uleb128 0x5
 3626 0906 03       		.byte	0x3
 3627 0907 D8000000 		.4byte	.LC16
 3628 090b 00       		.byte	0
 3629 090c 00       		.byte	0
 3630 090d 1E       		.uleb128 0x1e
 3631 090e 8E000000 		.4byte	.LBB18
 3632 0912 1C000000 		.4byte	.LBE18-.LBB18
 3633 0916 67090000 		.4byte	0x967
 3634 091a 1F       		.uleb128 0x1f
 3635 091b 6C00     		.ascii	"l\000"
 3636 091d 01       		.byte	0x1
 3637 091e 3F       		.byte	0x3f
 3638 091f E3000000 		.4byte	0xe3
 3639 0923 08070000 		.4byte	.LLST26
ARM GAS  C:\Users\Phuong\AppData\Local\Temp\ccqGhR5Z.s 			page 80


 3640 0927 20       		.uleb128 0x20
 3641 0928 92000000 		.4byte	.LVL83
 3642 092c 0A1D0000 		.4byte	0x1d0a
 3643 0930 21       		.uleb128 0x21
 3644 0931 AA000000 		.4byte	.LVL86
 3645 0935 02       		.uleb128 0x2
 3646 0936 74       		.byte	0x74
 3647 0937 00       		.sleb128 0
 3648 0938 19       		.uleb128 0x19
 3649 0939 01       		.uleb128 0x1
 3650 093a 50       		.byte	0x50
 3651 093b 01       		.uleb128 0x1
 3652 093c 30       		.byte	0x30
 3653 093d 19       		.uleb128 0x19
 3654 093e 01       		.uleb128 0x1
 3655 093f 51       		.byte	0x51
 3656 0940 05       		.uleb128 0x5
 3657 0941 03       		.byte	0x3
 3658 0942 00000000 		.4byte	.LC1
 3659 0946 19       		.uleb128 0x19
 3660 0947 01       		.uleb128 0x1
 3661 0948 52       		.byte	0x52
 3662 0949 05       		.uleb128 0x5
 3663 094a 03       		.byte	0x3
 3664 094b 18000000 		.4byte	.LANCHOR0+24
 3665 094f 19       		.uleb128 0x19
 3666 0950 01       		.uleb128 0x1
 3667 0951 53       		.byte	0x53
 3668 0952 02       		.uleb128 0x2
 3669 0953 08       		.byte	0x8
 3670 0954 3F       		.byte	0x3f
 3671 0955 19       		.uleb128 0x19
 3672 0956 02       		.uleb128 0x2
 3673 0957 7D       		.byte	0x7d
 3674 0958 00       		.sleb128 0
 3675 0959 01       		.uleb128 0x1
 3676 095a 31       		.byte	0x31
 3677 095b 19       		.uleb128 0x19
 3678 095c 02       		.uleb128 0x2
 3679 095d 7D       		.byte	0x7d
 3680 095e 04       		.sleb128 4
 3681 095f 05       		.uleb128 0x5
 3682 0960 03       		.byte	0x3
 3683 0961 FC000000 		.4byte	.LC18
 3684 0965 00       		.byte	0
 3685 0966 00       		.byte	0
 3686 0967 18       		.uleb128 0x18
 3687 0968 5C000000 		.4byte	.LVL76
 3688 096c 4C1D0000 		.4byte	0x1d4c
 3689 0970 81090000 		.4byte	0x981
 3690 0974 19       		.uleb128 0x19
 3691 0975 01       		.uleb128 0x1
 3692 0976 50       		.byte	0x50
 3693 0977 02       		.uleb128 0x2
 3694 0978 75       		.byte	0x75
 3695 0979 00       		.sleb128 0
 3696 097a 19       		.uleb128 0x19
ARM GAS  C:\Users\Phuong\AppData\Local\Temp\ccqGhR5Z.s 			page 81


 3697 097b 01       		.uleb128 0x1
 3698 097c 51       		.byte	0x51
 3699 097d 02       		.uleb128 0x2
 3700 097e 91       		.byte	0x91
 3701 097f 60       		.sleb128 -32
 3702 0980 00       		.byte	0
 3703 0981 18       		.uleb128 0x18
 3704 0982 8A000000 		.4byte	.LVL82
 3705 0986 571D0000 		.4byte	0x1d57
 3706 098a 95090000 		.4byte	0x995
 3707 098e 19       		.uleb128 0x19
 3708 098f 01       		.uleb128 0x1
 3709 0990 50       		.byte	0x50
 3710 0991 02       		.uleb128 0x2
 3711 0992 77       		.byte	0x77
 3712 0993 00       		.sleb128 0
 3713 0994 00       		.byte	0
 3714 0995 20       		.uleb128 0x20
 3715 0996 B4000000 		.4byte	.LVL88
 3716 099a 621D0000 		.4byte	0x1d62
 3717 099e 00       		.byte	0
 3718 099f 1E       		.uleb128 0x1e
 3719 09a0 C0000000 		.4byte	.LBB19
 3720 09a4 5C000000 		.4byte	.LBE19-.LBB19
 3721 09a8 940A0000 		.4byte	0xa94
 3722 09ac 14       		.uleb128 0x14
 3723 09ad 67070000 		.4byte	.LASF98
 3724 09b1 01       		.byte	0x1
 3725 09b2 48       		.byte	0x48
 3726 09b3 03020000 		.4byte	0x203
 3727 09b7 26070000 		.4byte	.LLST27
 3728 09bb 1E       		.uleb128 0x1e
 3729 09bc CA000000 		.4byte	.LBB20
 3730 09c0 1C000000 		.4byte	.LBE20-.LBB20
 3731 09c4 150A0000 		.4byte	0xa15
 3732 09c8 1F       		.uleb128 0x1f
 3733 09c9 6C00     		.ascii	"l\000"
 3734 09cb 01       		.byte	0x1
 3735 09cc 4B       		.byte	0x4b
 3736 09cd E3000000 		.4byte	0xe3
 3737 09d1 4F070000 		.4byte	.LLST28
 3738 09d5 20       		.uleb128 0x20
 3739 09d6 CE000000 		.4byte	.LVL92
 3740 09da 0A1D0000 		.4byte	0x1d0a
 3741 09de 21       		.uleb128 0x21
 3742 09df E6000000 		.4byte	.LVL95
 3743 09e3 02       		.uleb128 0x2
 3744 09e4 74       		.byte	0x74
 3745 09e5 00       		.sleb128 0
 3746 09e6 19       		.uleb128 0x19
 3747 09e7 01       		.uleb128 0x1
 3748 09e8 50       		.byte	0x50
 3749 09e9 01       		.uleb128 0x1
 3750 09ea 30       		.byte	0x30
 3751 09eb 19       		.uleb128 0x19
 3752 09ec 01       		.uleb128 0x1
 3753 09ed 51       		.byte	0x51
ARM GAS  C:\Users\Phuong\AppData\Local\Temp\ccqGhR5Z.s 			page 82


 3754 09ee 05       		.uleb128 0x5
 3755 09ef 03       		.byte	0x3
 3756 09f0 00000000 		.4byte	.LC1
 3757 09f4 19       		.uleb128 0x19
 3758 09f5 01       		.uleb128 0x1
 3759 09f6 52       		.byte	0x52
 3760 09f7 05       		.uleb128 0x5
 3761 09f8 03       		.byte	0x3
 3762 09f9 18000000 		.4byte	.LANCHOR0+24
 3763 09fd 19       		.uleb128 0x19
 3764 09fe 01       		.uleb128 0x1
 3765 09ff 53       		.byte	0x53
 3766 0a00 02       		.uleb128 0x2
 3767 0a01 08       		.byte	0x8
 3768 0a02 4B       		.byte	0x4b
 3769 0a03 19       		.uleb128 0x19
 3770 0a04 02       		.uleb128 0x2
 3771 0a05 7D       		.byte	0x7d
 3772 0a06 00       		.sleb128 0
 3773 0a07 01       		.uleb128 0x1
 3774 0a08 31       		.byte	0x31
 3775 0a09 19       		.uleb128 0x19
 3776 0a0a 02       		.uleb128 0x2
 3777 0a0b 7D       		.byte	0x7d
 3778 0a0c 04       		.sleb128 4
 3779 0a0d 05       		.uleb128 0x5
 3780 0a0e 03       		.byte	0x3
 3781 0a0f 34010000 		.4byte	.LC20
 3782 0a13 00       		.byte	0
 3783 0a14 00       		.byte	0
 3784 0a15 1E       		.uleb128 0x1e
 3785 0a16 FA000000 		.4byte	.LBB21
 3786 0a1a 1C000000 		.4byte	.LBE21-.LBB21
 3787 0a1e 6F0A0000 		.4byte	0xa6f
 3788 0a22 1F       		.uleb128 0x1f
 3789 0a23 6C00     		.ascii	"l\000"
 3790 0a25 01       		.byte	0x1
 3791 0a26 52       		.byte	0x52
 3792 0a27 E3000000 		.4byte	0xe3
 3793 0a2b 6D070000 		.4byte	.LLST29
 3794 0a2f 20       		.uleb128 0x20
 3795 0a30 FE000000 		.4byte	.LVL99
 3796 0a34 0A1D0000 		.4byte	0x1d0a
 3797 0a38 21       		.uleb128 0x21
 3798 0a39 16010000 		.4byte	.LVL102
 3799 0a3d 02       		.uleb128 0x2
 3800 0a3e 74       		.byte	0x74
 3801 0a3f 00       		.sleb128 0
 3802 0a40 19       		.uleb128 0x19
 3803 0a41 01       		.uleb128 0x1
 3804 0a42 50       		.byte	0x50
 3805 0a43 01       		.uleb128 0x1
 3806 0a44 30       		.byte	0x30
 3807 0a45 19       		.uleb128 0x19
 3808 0a46 01       		.uleb128 0x1
 3809 0a47 51       		.byte	0x51
 3810 0a48 05       		.uleb128 0x5
ARM GAS  C:\Users\Phuong\AppData\Local\Temp\ccqGhR5Z.s 			page 83


 3811 0a49 03       		.byte	0x3
 3812 0a4a 00000000 		.4byte	.LC1
 3813 0a4e 19       		.uleb128 0x19
 3814 0a4f 01       		.uleb128 0x1
 3815 0a50 52       		.byte	0x52
 3816 0a51 05       		.uleb128 0x5
 3817 0a52 03       		.byte	0x3
 3818 0a53 18000000 		.4byte	.LANCHOR0+24
 3819 0a57 19       		.uleb128 0x19
 3820 0a58 01       		.uleb128 0x1
 3821 0a59 53       		.byte	0x53
 3822 0a5a 02       		.uleb128 0x2
 3823 0a5b 08       		.byte	0x8
 3824 0a5c 52       		.byte	0x52
 3825 0a5d 19       		.uleb128 0x19
 3826 0a5e 02       		.uleb128 0x2
 3827 0a5f 7D       		.byte	0x7d
 3828 0a60 00       		.sleb128 0
 3829 0a61 01       		.uleb128 0x1
 3830 0a62 31       		.byte	0x31
 3831 0a63 19       		.uleb128 0x19
 3832 0a64 02       		.uleb128 0x2
 3833 0a65 7D       		.byte	0x7d
 3834 0a66 04       		.sleb128 4
 3835 0a67 05       		.uleb128 0x5
 3836 0a68 03       		.byte	0x3
 3837 0a69 58010000 		.4byte	.LC22
 3838 0a6d 00       		.byte	0
 3839 0a6e 00       		.byte	0
 3840 0a6f 18       		.uleb128 0x18
 3841 0a70 C6000000 		.4byte	.LVL91
 3842 0a74 6D1D0000 		.4byte	0x1d6d
 3843 0a78 830A0000 		.4byte	0xa83
 3844 0a7c 19       		.uleb128 0x19
 3845 0a7d 01       		.uleb128 0x1
 3846 0a7e 50       		.byte	0x50
 3847 0a7f 02       		.uleb128 0x2
 3848 0a80 75       		.byte	0x75
 3849 0a81 00       		.sleb128 0
 3850 0a82 00       		.byte	0
 3851 0a83 1A       		.uleb128 0x1a
 3852 0a84 F4000000 		.4byte	.LVL98
 3853 0a88 781D0000 		.4byte	0x1d78
 3854 0a8c 19       		.uleb128 0x19
 3855 0a8d 01       		.uleb128 0x1
 3856 0a8e 50       		.byte	0x50
 3857 0a8f 02       		.uleb128 0x2
 3858 0a90 77       		.byte	0x77
 3859 0a91 00       		.sleb128 0
 3860 0a92 00       		.byte	0
 3861 0a93 00       		.byte	0
 3862 0a94 1E       		.uleb128 0x1e
 3863 0a95 26010000 		.4byte	.LBB22
 3864 0a99 5C000000 		.4byte	.LBE22-.LBB22
 3865 0a9d 890B0000 		.4byte	0xb89
 3866 0aa1 14       		.uleb128 0x14
 3867 0aa2 14090000 		.4byte	.LASF99
ARM GAS  C:\Users\Phuong\AppData\Local\Temp\ccqGhR5Z.s 			page 84


 3868 0aa6 01       		.byte	0x1
 3869 0aa7 59       		.byte	0x59
 3870 0aa8 03020000 		.4byte	0x203
 3871 0aac 8B070000 		.4byte	.LLST30
 3872 0ab0 1E       		.uleb128 0x1e
 3873 0ab1 30010000 		.4byte	.LBB23
 3874 0ab5 1C000000 		.4byte	.LBE23-.LBB23
 3875 0ab9 0A0B0000 		.4byte	0xb0a
 3876 0abd 1F       		.uleb128 0x1f
 3877 0abe 6C00     		.ascii	"l\000"
 3878 0ac0 01       		.byte	0x1
 3879 0ac1 5C       		.byte	0x5c
 3880 0ac2 E3000000 		.4byte	0xe3
 3881 0ac6 B4070000 		.4byte	.LLST31
 3882 0aca 20       		.uleb128 0x20
 3883 0acb 34010000 		.4byte	.LVL106
 3884 0acf 0A1D0000 		.4byte	0x1d0a
 3885 0ad3 21       		.uleb128 0x21
 3886 0ad4 4C010000 		.4byte	.LVL109
 3887 0ad8 02       		.uleb128 0x2
 3888 0ad9 74       		.byte	0x74
 3889 0ada 00       		.sleb128 0
 3890 0adb 19       		.uleb128 0x19
 3891 0adc 01       		.uleb128 0x1
 3892 0add 50       		.byte	0x50
 3893 0ade 01       		.uleb128 0x1
 3894 0adf 30       		.byte	0x30
 3895 0ae0 19       		.uleb128 0x19
 3896 0ae1 01       		.uleb128 0x1
 3897 0ae2 51       		.byte	0x51
 3898 0ae3 05       		.uleb128 0x5
 3899 0ae4 03       		.byte	0x3
 3900 0ae5 00000000 		.4byte	.LC1
 3901 0ae9 19       		.uleb128 0x19
 3902 0aea 01       		.uleb128 0x1
 3903 0aeb 52       		.byte	0x52
 3904 0aec 05       		.uleb128 0x5
 3905 0aed 03       		.byte	0x3
 3906 0aee 18000000 		.4byte	.LANCHOR0+24
 3907 0af2 19       		.uleb128 0x19
 3908 0af3 01       		.uleb128 0x1
 3909 0af4 53       		.byte	0x53
 3910 0af5 02       		.uleb128 0x2
 3911 0af6 08       		.byte	0x8
 3912 0af7 5C       		.byte	0x5c
 3913 0af8 19       		.uleb128 0x19
 3914 0af9 02       		.uleb128 0x2
 3915 0afa 7D       		.byte	0x7d
 3916 0afb 00       		.sleb128 0
 3917 0afc 01       		.uleb128 0x1
 3918 0afd 31       		.byte	0x31
 3919 0afe 19       		.uleb128 0x19
 3920 0aff 02       		.uleb128 0x2
 3921 0b00 7D       		.byte	0x7d
 3922 0b01 04       		.sleb128 4
 3923 0b02 05       		.uleb128 0x5
 3924 0b03 03       		.byte	0x3
ARM GAS  C:\Users\Phuong\AppData\Local\Temp\ccqGhR5Z.s 			page 85


 3925 0b04 90010000 		.4byte	.LC24
 3926 0b08 00       		.byte	0
 3927 0b09 00       		.byte	0
 3928 0b0a 1E       		.uleb128 0x1e
 3929 0b0b 60010000 		.4byte	.LBB24
 3930 0b0f 1C000000 		.4byte	.LBE24-.LBB24
 3931 0b13 640B0000 		.4byte	0xb64
 3932 0b17 1F       		.uleb128 0x1f
 3933 0b18 6C00     		.ascii	"l\000"
 3934 0b1a 01       		.byte	0x1
 3935 0b1b 63       		.byte	0x63
 3936 0b1c E3000000 		.4byte	0xe3
 3937 0b20 D2070000 		.4byte	.LLST32
 3938 0b24 20       		.uleb128 0x20
 3939 0b25 64010000 		.4byte	.LVL113
 3940 0b29 0A1D0000 		.4byte	0x1d0a
 3941 0b2d 21       		.uleb128 0x21
 3942 0b2e 7C010000 		.4byte	.LVL116
 3943 0b32 02       		.uleb128 0x2
 3944 0b33 74       		.byte	0x74
 3945 0b34 00       		.sleb128 0
 3946 0b35 19       		.uleb128 0x19
 3947 0b36 01       		.uleb128 0x1
 3948 0b37 50       		.byte	0x50
 3949 0b38 01       		.uleb128 0x1
 3950 0b39 30       		.byte	0x30
 3951 0b3a 19       		.uleb128 0x19
 3952 0b3b 01       		.uleb128 0x1
 3953 0b3c 51       		.byte	0x51
 3954 0b3d 05       		.uleb128 0x5
 3955 0b3e 03       		.byte	0x3
 3956 0b3f 00000000 		.4byte	.LC1
 3957 0b43 19       		.uleb128 0x19
 3958 0b44 01       		.uleb128 0x1
 3959 0b45 52       		.byte	0x52
 3960 0b46 05       		.uleb128 0x5
 3961 0b47 03       		.byte	0x3
 3962 0b48 18000000 		.4byte	.LANCHOR0+24
 3963 0b4c 19       		.uleb128 0x19
 3964 0b4d 01       		.uleb128 0x1
 3965 0b4e 53       		.byte	0x53
 3966 0b4f 02       		.uleb128 0x2
 3967 0b50 08       		.byte	0x8
 3968 0b51 63       		.byte	0x63
 3969 0b52 19       		.uleb128 0x19
 3970 0b53 02       		.uleb128 0x2
 3971 0b54 7D       		.byte	0x7d
 3972 0b55 00       		.sleb128 0
 3973 0b56 01       		.uleb128 0x1
 3974 0b57 31       		.byte	0x31
 3975 0b58 19       		.uleb128 0x19
 3976 0b59 02       		.uleb128 0x2
 3977 0b5a 7D       		.byte	0x7d
 3978 0b5b 04       		.sleb128 4
 3979 0b5c 05       		.uleb128 0x5
 3980 0b5d 03       		.byte	0x3
 3981 0b5e B4010000 		.4byte	.LC26
ARM GAS  C:\Users\Phuong\AppData\Local\Temp\ccqGhR5Z.s 			page 86


 3982 0b62 00       		.byte	0
 3983 0b63 00       		.byte	0
 3984 0b64 18       		.uleb128 0x18
 3985 0b65 2C010000 		.4byte	.LVL105
 3986 0b69 6D1D0000 		.4byte	0x1d6d
 3987 0b6d 780B0000 		.4byte	0xb78
 3988 0b71 19       		.uleb128 0x19
 3989 0b72 01       		.uleb128 0x1
 3990 0b73 50       		.byte	0x50
 3991 0b74 02       		.uleb128 0x2
 3992 0b75 75       		.byte	0x75
 3993 0b76 00       		.sleb128 0
 3994 0b77 00       		.byte	0
 3995 0b78 1A       		.uleb128 0x1a
 3996 0b79 5A010000 		.4byte	.LVL112
 3997 0b7d 831D0000 		.4byte	0x1d83
 3998 0b81 19       		.uleb128 0x19
 3999 0b82 01       		.uleb128 0x1
 4000 0b83 50       		.byte	0x50
 4001 0b84 02       		.uleb128 0x2
 4002 0b85 77       		.byte	0x77
 4003 0b86 00       		.sleb128 0
 4004 0b87 00       		.byte	0
 4005 0b88 00       		.byte	0
 4006 0b89 1E       		.uleb128 0x1e
 4007 0b8a 8C010000 		.4byte	.LBB25
 4008 0b8e 62000000 		.4byte	.LBE25-.LBB25
 4009 0b92 900C0000 		.4byte	0xc90
 4010 0b96 28       		.uleb128 0x28
 4011 0b97 BC080000 		.4byte	.LASF100
 4012 0b9b 01       		.byte	0x1
 4013 0b9c 6A       		.byte	0x6a
 4014 0b9d 0E020000 		.4byte	0x20e
 4015 0ba1 02       		.uleb128 0x2
 4016 0ba2 91       		.byte	0x91
 4017 0ba3 60       		.sleb128 -32
 4018 0ba4 1E       		.uleb128 0x1e
 4019 0ba5 98010000 		.4byte	.LBB26
 4020 0ba9 1C000000 		.4byte	.LBE26-.LBB26
 4021 0bad FE0B0000 		.4byte	0xbfe
 4022 0bb1 1F       		.uleb128 0x1f
 4023 0bb2 6C00     		.ascii	"l\000"
 4024 0bb4 01       		.byte	0x1
 4025 0bb5 6D       		.byte	0x6d
 4026 0bb6 E3000000 		.4byte	0xe3
 4027 0bba F0070000 		.4byte	.LLST33
 4028 0bbe 20       		.uleb128 0x20
 4029 0bbf 9C010000 		.4byte	.LVL120
 4030 0bc3 0A1D0000 		.4byte	0x1d0a
 4031 0bc7 21       		.uleb128 0x21
 4032 0bc8 B4010000 		.4byte	.LVL123
 4033 0bcc 02       		.uleb128 0x2
 4034 0bcd 74       		.byte	0x74
 4035 0bce 00       		.sleb128 0
 4036 0bcf 19       		.uleb128 0x19
 4037 0bd0 01       		.uleb128 0x1
 4038 0bd1 50       		.byte	0x50
ARM GAS  C:\Users\Phuong\AppData\Local\Temp\ccqGhR5Z.s 			page 87


 4039 0bd2 01       		.uleb128 0x1
 4040 0bd3 30       		.byte	0x30
 4041 0bd4 19       		.uleb128 0x19
 4042 0bd5 01       		.uleb128 0x1
 4043 0bd6 51       		.byte	0x51
 4044 0bd7 05       		.uleb128 0x5
 4045 0bd8 03       		.byte	0x3
 4046 0bd9 00000000 		.4byte	.LC1
 4047 0bdd 19       		.uleb128 0x19
 4048 0bde 01       		.uleb128 0x1
 4049 0bdf 52       		.byte	0x52
 4050 0be0 05       		.uleb128 0x5
 4051 0be1 03       		.byte	0x3
 4052 0be2 18000000 		.4byte	.LANCHOR0+24
 4053 0be6 19       		.uleb128 0x19
 4054 0be7 01       		.uleb128 0x1
 4055 0be8 53       		.byte	0x53
 4056 0be9 02       		.uleb128 0x2
 4057 0bea 08       		.byte	0x8
 4058 0beb 6D       		.byte	0x6d
 4059 0bec 19       		.uleb128 0x19
 4060 0bed 02       		.uleb128 0x2
 4061 0bee 7D       		.byte	0x7d
 4062 0bef 00       		.sleb128 0
 4063 0bf0 01       		.uleb128 0x1
 4064 0bf1 31       		.byte	0x31
 4065 0bf2 19       		.uleb128 0x19
 4066 0bf3 02       		.uleb128 0x2
 4067 0bf4 7D       		.byte	0x7d
 4068 0bf5 04       		.sleb128 4
 4069 0bf6 05       		.uleb128 0x5
 4070 0bf7 03       		.byte	0x3
 4071 0bf8 EC010000 		.4byte	.LC28
 4072 0bfc 00       		.byte	0
 4073 0bfd 00       		.byte	0
 4074 0bfe 1E       		.uleb128 0x1e
 4075 0bff C6010000 		.4byte	.LBB27
 4076 0c03 1C000000 		.4byte	.LBE27-.LBB27
 4077 0c07 580C0000 		.4byte	0xc58
 4078 0c0b 1F       		.uleb128 0x1f
 4079 0c0c 6C00     		.ascii	"l\000"
 4080 0c0e 01       		.byte	0x1
 4081 0c0f 74       		.byte	0x74
 4082 0c10 E3000000 		.4byte	0xe3
 4083 0c14 0E080000 		.4byte	.LLST34
 4084 0c18 20       		.uleb128 0x20
 4085 0c19 CA010000 		.4byte	.LVL126
 4086 0c1d 0A1D0000 		.4byte	0x1d0a
 4087 0c21 21       		.uleb128 0x21
 4088 0c22 E2010000 		.4byte	.LVL129
 4089 0c26 02       		.uleb128 0x2
 4090 0c27 74       		.byte	0x74
 4091 0c28 00       		.sleb128 0
 4092 0c29 19       		.uleb128 0x19
 4093 0c2a 01       		.uleb128 0x1
 4094 0c2b 50       		.byte	0x50
 4095 0c2c 01       		.uleb128 0x1
ARM GAS  C:\Users\Phuong\AppData\Local\Temp\ccqGhR5Z.s 			page 88


 4096 0c2d 30       		.byte	0x30
 4097 0c2e 19       		.uleb128 0x19
 4098 0c2f 01       		.uleb128 0x1
 4099 0c30 51       		.byte	0x51
 4100 0c31 05       		.uleb128 0x5
 4101 0c32 03       		.byte	0x3
 4102 0c33 00000000 		.4byte	.LC1
 4103 0c37 19       		.uleb128 0x19
 4104 0c38 01       		.uleb128 0x1
 4105 0c39 52       		.byte	0x52
 4106 0c3a 05       		.uleb128 0x5
 4107 0c3b 03       		.byte	0x3
 4108 0c3c 18000000 		.4byte	.LANCHOR0+24
 4109 0c40 19       		.uleb128 0x19
 4110 0c41 01       		.uleb128 0x1
 4111 0c42 53       		.byte	0x53
 4112 0c43 02       		.uleb128 0x2
 4113 0c44 08       		.byte	0x8
 4114 0c45 74       		.byte	0x74
 4115 0c46 19       		.uleb128 0x19
 4116 0c47 02       		.uleb128 0x2
 4117 0c48 7D       		.byte	0x7d
 4118 0c49 00       		.sleb128 0
 4119 0c4a 01       		.uleb128 0x1
 4120 0c4b 31       		.byte	0x31
 4121 0c4c 19       		.uleb128 0x19
 4122 0c4d 02       		.uleb128 0x2
 4123 0c4e 7D       		.byte	0x7d
 4124 0c4f 04       		.sleb128 4
 4125 0c50 05       		.uleb128 0x5
 4126 0c51 03       		.byte	0x3
 4127 0c52 0C020000 		.4byte	.LC30
 4128 0c56 00       		.byte	0
 4129 0c57 00       		.byte	0
 4130 0c58 18       		.uleb128 0x18
 4131 0c59 94010000 		.4byte	.LVL119
 4132 0c5d 8E1D0000 		.4byte	0x1d8e
 4133 0c61 720C0000 		.4byte	0xc72
 4134 0c65 19       		.uleb128 0x19
 4135 0c66 01       		.uleb128 0x1
 4136 0c67 50       		.byte	0x50
 4137 0c68 02       		.uleb128 0x2
 4138 0c69 75       		.byte	0x75
 4139 0c6a 00       		.sleb128 0
 4140 0c6b 19       		.uleb128 0x19
 4141 0c6c 01       		.uleb128 0x1
 4142 0c6d 51       		.byte	0x51
 4143 0c6e 02       		.uleb128 0x2
 4144 0c6f 91       		.byte	0x91
 4145 0c70 60       		.sleb128 -32
 4146 0c71 00       		.byte	0
 4147 0c72 18       		.uleb128 0x18
 4148 0c73 C2010000 		.4byte	.LVL125
 4149 0c77 991D0000 		.4byte	0x1d99
 4150 0c7b 860C0000 		.4byte	0xc86
 4151 0c7f 19       		.uleb128 0x19
 4152 0c80 01       		.uleb128 0x1
ARM GAS  C:\Users\Phuong\AppData\Local\Temp\ccqGhR5Z.s 			page 89


 4153 0c81 50       		.byte	0x50
 4154 0c82 02       		.uleb128 0x2
 4155 0c83 77       		.byte	0x77
 4156 0c84 00       		.sleb128 0
 4157 0c85 00       		.byte	0
 4158 0c86 20       		.uleb128 0x20
 4159 0c87 EC010000 		.4byte	.LVL131
 4160 0c8b A41D0000 		.4byte	0x1da4
 4161 0c8f 00       		.byte	0
 4162 0c90 1E       		.uleb128 0x1e
 4163 0c91 F8010000 		.4byte	.LBB28
 4164 0c95 5C000000 		.4byte	.LBE28-.LBB28
 4165 0c99 850D0000 		.4byte	0xd85
 4166 0c9d 14       		.uleb128 0x14
 4167 0c9e 51050000 		.4byte	.LASF101
 4168 0ca2 01       		.byte	0x1
 4169 0ca3 7D       		.byte	0x7d
 4170 0ca4 03020000 		.4byte	0x203
 4171 0ca8 2C080000 		.4byte	.LLST35
 4172 0cac 1E       		.uleb128 0x1e
 4173 0cad 02020000 		.4byte	.LBB29
 4174 0cb1 1C000000 		.4byte	.LBE29-.LBB29
 4175 0cb5 060D0000 		.4byte	0xd06
 4176 0cb9 1F       		.uleb128 0x1f
 4177 0cba 6C00     		.ascii	"l\000"
 4178 0cbc 01       		.byte	0x1
 4179 0cbd 80       		.byte	0x80
 4180 0cbe E3000000 		.4byte	0xe3
 4181 0cc2 55080000 		.4byte	.LLST36
 4182 0cc6 20       		.uleb128 0x20
 4183 0cc7 06020000 		.4byte	.LVL135
 4184 0ccb 0A1D0000 		.4byte	0x1d0a
 4185 0ccf 21       		.uleb128 0x21
 4186 0cd0 1E020000 		.4byte	.LVL138
 4187 0cd4 02       		.uleb128 0x2
 4188 0cd5 74       		.byte	0x74
 4189 0cd6 00       		.sleb128 0
 4190 0cd7 19       		.uleb128 0x19
 4191 0cd8 01       		.uleb128 0x1
 4192 0cd9 50       		.byte	0x50
 4193 0cda 01       		.uleb128 0x1
 4194 0cdb 30       		.byte	0x30
 4195 0cdc 19       		.uleb128 0x19
 4196 0cdd 01       		.uleb128 0x1
 4197 0cde 51       		.byte	0x51
 4198 0cdf 05       		.uleb128 0x5
 4199 0ce0 03       		.byte	0x3
 4200 0ce1 00000000 		.4byte	.LC1
 4201 0ce5 19       		.uleb128 0x19
 4202 0ce6 01       		.uleb128 0x1
 4203 0ce7 52       		.byte	0x52
 4204 0ce8 05       		.uleb128 0x5
 4205 0ce9 03       		.byte	0x3
 4206 0cea 18000000 		.4byte	.LANCHOR0+24
 4207 0cee 19       		.uleb128 0x19
 4208 0cef 01       		.uleb128 0x1
 4209 0cf0 53       		.byte	0x53
ARM GAS  C:\Users\Phuong\AppData\Local\Temp\ccqGhR5Z.s 			page 90


 4210 0cf1 02       		.uleb128 0x2
 4211 0cf2 08       		.byte	0x8
 4212 0cf3 80       		.byte	0x80
 4213 0cf4 19       		.uleb128 0x19
 4214 0cf5 02       		.uleb128 0x2
 4215 0cf6 7D       		.byte	0x7d
 4216 0cf7 00       		.sleb128 0
 4217 0cf8 01       		.uleb128 0x1
 4218 0cf9 31       		.byte	0x31
 4219 0cfa 19       		.uleb128 0x19
 4220 0cfb 02       		.uleb128 0x2
 4221 0cfc 7D       		.byte	0x7d
 4222 0cfd 04       		.sleb128 4
 4223 0cfe 05       		.uleb128 0x5
 4224 0cff 03       		.byte	0x3
 4225 0d00 40020000 		.4byte	.LC32
 4226 0d04 00       		.byte	0
 4227 0d05 00       		.byte	0
 4228 0d06 1E       		.uleb128 0x1e
 4229 0d07 32020000 		.4byte	.LBB30
 4230 0d0b 1C000000 		.4byte	.LBE30-.LBB30
 4231 0d0f 600D0000 		.4byte	0xd60
 4232 0d13 1F       		.uleb128 0x1f
 4233 0d14 6C00     		.ascii	"l\000"
 4234 0d16 01       		.byte	0x1
 4235 0d17 87       		.byte	0x87
 4236 0d18 E3000000 		.4byte	0xe3
 4237 0d1c 73080000 		.4byte	.LLST37
 4238 0d20 20       		.uleb128 0x20
 4239 0d21 36020000 		.4byte	.LVL142
 4240 0d25 0A1D0000 		.4byte	0x1d0a
 4241 0d29 21       		.uleb128 0x21
 4242 0d2a 4E020000 		.4byte	.LVL145
 4243 0d2e 02       		.uleb128 0x2
 4244 0d2f 74       		.byte	0x74
 4245 0d30 00       		.sleb128 0
 4246 0d31 19       		.uleb128 0x19
 4247 0d32 01       		.uleb128 0x1
 4248 0d33 50       		.byte	0x50
 4249 0d34 01       		.uleb128 0x1
 4250 0d35 30       		.byte	0x30
 4251 0d36 19       		.uleb128 0x19
 4252 0d37 01       		.uleb128 0x1
 4253 0d38 51       		.byte	0x51
 4254 0d39 05       		.uleb128 0x5
 4255 0d3a 03       		.byte	0x3
 4256 0d3b 00000000 		.4byte	.LC1
 4257 0d3f 19       		.uleb128 0x19
 4258 0d40 01       		.uleb128 0x1
 4259 0d41 52       		.byte	0x52
 4260 0d42 05       		.uleb128 0x5
 4261 0d43 03       		.byte	0x3
 4262 0d44 18000000 		.4byte	.LANCHOR0+24
 4263 0d48 19       		.uleb128 0x19
 4264 0d49 01       		.uleb128 0x1
 4265 0d4a 53       		.byte	0x53
 4266 0d4b 02       		.uleb128 0x2
ARM GAS  C:\Users\Phuong\AppData\Local\Temp\ccqGhR5Z.s 			page 91


 4267 0d4c 08       		.byte	0x8
 4268 0d4d 87       		.byte	0x87
 4269 0d4e 19       		.uleb128 0x19
 4270 0d4f 02       		.uleb128 0x2
 4271 0d50 7D       		.byte	0x7d
 4272 0d51 00       		.sleb128 0
 4273 0d52 01       		.uleb128 0x1
 4274 0d53 31       		.byte	0x31
 4275 0d54 19       		.uleb128 0x19
 4276 0d55 02       		.uleb128 0x2
 4277 0d56 7D       		.byte	0x7d
 4278 0d57 04       		.sleb128 4
 4279 0d58 05       		.uleb128 0x5
 4280 0d59 03       		.byte	0x3
 4281 0d5a 60020000 		.4byte	.LC34
 4282 0d5e 00       		.byte	0
 4283 0d5f 00       		.byte	0
 4284 0d60 18       		.uleb128 0x18
 4285 0d61 FE010000 		.4byte	.LVL134
 4286 0d65 6D1D0000 		.4byte	0x1d6d
 4287 0d69 740D0000 		.4byte	0xd74
 4288 0d6d 19       		.uleb128 0x19
 4289 0d6e 01       		.uleb128 0x1
 4290 0d6f 50       		.byte	0x50
 4291 0d70 02       		.uleb128 0x2
 4292 0d71 75       		.byte	0x75
 4293 0d72 00       		.sleb128 0
 4294 0d73 00       		.byte	0
 4295 0d74 1A       		.uleb128 0x1a
 4296 0d75 2C020000 		.4byte	.LVL141
 4297 0d79 AF1D0000 		.4byte	0x1daf
 4298 0d7d 19       		.uleb128 0x19
 4299 0d7e 01       		.uleb128 0x1
 4300 0d7f 50       		.byte	0x50
 4301 0d80 02       		.uleb128 0x2
 4302 0d81 77       		.byte	0x77
 4303 0d82 00       		.sleb128 0
 4304 0d83 00       		.byte	0
 4305 0d84 00       		.byte	0
 4306 0d85 1E       		.uleb128 0x1e
 4307 0d86 5E020000 		.4byte	.LBB31
 4308 0d8a B2000000 		.4byte	.LBE31-.LBB31
 4309 0d8e 600F0000 		.4byte	0xf60
 4310 0d92 28       		.uleb128 0x28
 4311 0d93 770A0000 		.4byte	.LASF102
 4312 0d97 01       		.byte	0x1
 4313 0d98 8E       		.byte	0x8e
 4314 0d99 6E020000 		.4byte	0x26e
 4315 0d9d 02       		.uleb128 0x2
 4316 0d9e 91       		.byte	0x91
 4317 0d9f 60       		.sleb128 -32
 4318 0da0 1E       		.uleb128 0x1e
 4319 0da1 6A020000 		.4byte	.LBB32
 4320 0da5 1C000000 		.4byte	.LBE32-.LBB32
 4321 0da9 FA0D0000 		.4byte	0xdfa
 4322 0dad 1F       		.uleb128 0x1f
 4323 0dae 6C00     		.ascii	"l\000"
ARM GAS  C:\Users\Phuong\AppData\Local\Temp\ccqGhR5Z.s 			page 92


 4324 0db0 01       		.byte	0x1
 4325 0db1 91       		.byte	0x91
 4326 0db2 E3000000 		.4byte	0xe3
 4327 0db6 91080000 		.4byte	.LLST38
 4328 0dba 20       		.uleb128 0x20
 4329 0dbb 6E020000 		.4byte	.LVL149
 4330 0dbf 0A1D0000 		.4byte	0x1d0a
 4331 0dc3 21       		.uleb128 0x21
 4332 0dc4 86020000 		.4byte	.LVL152
 4333 0dc8 02       		.uleb128 0x2
 4334 0dc9 74       		.byte	0x74
 4335 0dca 00       		.sleb128 0
 4336 0dcb 19       		.uleb128 0x19
 4337 0dcc 01       		.uleb128 0x1
 4338 0dcd 50       		.byte	0x50
 4339 0dce 01       		.uleb128 0x1
 4340 0dcf 30       		.byte	0x30
 4341 0dd0 19       		.uleb128 0x19
 4342 0dd1 01       		.uleb128 0x1
 4343 0dd2 51       		.byte	0x51
 4344 0dd3 05       		.uleb128 0x5
 4345 0dd4 03       		.byte	0x3
 4346 0dd5 00000000 		.4byte	.LC1
 4347 0dd9 19       		.uleb128 0x19
 4348 0dda 01       		.uleb128 0x1
 4349 0ddb 52       		.byte	0x52
 4350 0ddc 05       		.uleb128 0x5
 4351 0ddd 03       		.byte	0x3
 4352 0dde 18000000 		.4byte	.LANCHOR0+24
 4353 0de2 19       		.uleb128 0x19
 4354 0de3 01       		.uleb128 0x1
 4355 0de4 53       		.byte	0x53
 4356 0de5 02       		.uleb128 0x2
 4357 0de6 08       		.byte	0x8
 4358 0de7 91       		.byte	0x91
 4359 0de8 19       		.uleb128 0x19
 4360 0de9 02       		.uleb128 0x2
 4361 0dea 7D       		.byte	0x7d
 4362 0deb 00       		.sleb128 0
 4363 0dec 01       		.uleb128 0x1
 4364 0ded 31       		.byte	0x31
 4365 0dee 19       		.uleb128 0x19
 4366 0def 02       		.uleb128 0x2
 4367 0df0 7D       		.byte	0x7d
 4368 0df1 04       		.sleb128 4
 4369 0df2 05       		.uleb128 0x5
 4370 0df3 03       		.byte	0x3
 4371 0df4 94020000 		.4byte	.LC36
 4372 0df8 00       		.byte	0
 4373 0df9 00       		.byte	0
 4374 0dfa 1E       		.uleb128 0x1e
 4375 0dfb 94020000 		.4byte	.LBB33
 4376 0dff 1C000000 		.4byte	.LBE33-.LBB33
 4377 0e03 540E0000 		.4byte	0xe54
 4378 0e07 1F       		.uleb128 0x1f
 4379 0e08 6C00     		.ascii	"l\000"
 4380 0e0a 01       		.byte	0x1
ARM GAS  C:\Users\Phuong\AppData\Local\Temp\ccqGhR5Z.s 			page 93


 4381 0e0b 98       		.byte	0x98
 4382 0e0c E3000000 		.4byte	0xe3
 4383 0e10 AF080000 		.4byte	.LLST39
 4384 0e14 20       		.uleb128 0x20
 4385 0e15 98020000 		.4byte	.LVL154
 4386 0e19 0A1D0000 		.4byte	0x1d0a
 4387 0e1d 21       		.uleb128 0x21
 4388 0e1e B0020000 		.4byte	.LVL157
 4389 0e22 02       		.uleb128 0x2
 4390 0e23 74       		.byte	0x74
 4391 0e24 00       		.sleb128 0
 4392 0e25 19       		.uleb128 0x19
 4393 0e26 01       		.uleb128 0x1
 4394 0e27 50       		.byte	0x50
 4395 0e28 01       		.uleb128 0x1
 4396 0e29 30       		.byte	0x30
 4397 0e2a 19       		.uleb128 0x19
 4398 0e2b 01       		.uleb128 0x1
 4399 0e2c 51       		.byte	0x51
 4400 0e2d 05       		.uleb128 0x5
 4401 0e2e 03       		.byte	0x3
 4402 0e2f 00000000 		.4byte	.LC1
 4403 0e33 19       		.uleb128 0x19
 4404 0e34 01       		.uleb128 0x1
 4405 0e35 52       		.byte	0x52
 4406 0e36 05       		.uleb128 0x5
 4407 0e37 03       		.byte	0x3
 4408 0e38 18000000 		.4byte	.LANCHOR0+24
 4409 0e3c 19       		.uleb128 0x19
 4410 0e3d 01       		.uleb128 0x1
 4411 0e3e 53       		.byte	0x53
 4412 0e3f 02       		.uleb128 0x2
 4413 0e40 08       		.byte	0x8
 4414 0e41 98       		.byte	0x98
 4415 0e42 19       		.uleb128 0x19
 4416 0e43 02       		.uleb128 0x2
 4417 0e44 7D       		.byte	0x7d
 4418 0e45 00       		.sleb128 0
 4419 0e46 01       		.uleb128 0x1
 4420 0e47 31       		.byte	0x31
 4421 0e48 19       		.uleb128 0x19
 4422 0e49 02       		.uleb128 0x2
 4423 0e4a 7D       		.byte	0x7d
 4424 0e4b 04       		.sleb128 4
 4425 0e4c 05       		.uleb128 0x5
 4426 0e4d 03       		.byte	0x3
 4427 0e4e B4020000 		.4byte	.LC38
 4428 0e52 00       		.byte	0
 4429 0e53 00       		.byte	0
 4430 0e54 1E       		.uleb128 0x1e
 4431 0e55 B6020000 		.4byte	.LBB34
 4432 0e59 5A000000 		.4byte	.LBE34-.LBB34
 4433 0e5d 490F0000 		.4byte	0xf49
 4434 0e61 14       		.uleb128 0x14
 4435 0e62 EC040000 		.4byte	.LASF103
 4436 0e66 01       		.byte	0x1
 4437 0e67 9D       		.byte	0x9d
ARM GAS  C:\Users\Phuong\AppData\Local\Temp\ccqGhR5Z.s 			page 94


 4438 0e68 19010000 		.4byte	0x119
 4439 0e6c CD080000 		.4byte	.LLST40
 4440 0e70 1E       		.uleb128 0x1e
 4441 0e71 C0020000 		.4byte	.LBB35
 4442 0e75 1C000000 		.4byte	.LBE35-.LBB35
 4443 0e79 CA0E0000 		.4byte	0xeca
 4444 0e7d 1F       		.uleb128 0x1f
 4445 0e7e 6C00     		.ascii	"l\000"
 4446 0e80 01       		.byte	0x1
 4447 0e81 A0       		.byte	0xa0
 4448 0e82 E3000000 		.4byte	0xe3
 4449 0e86 F6080000 		.4byte	.LLST41
 4450 0e8a 20       		.uleb128 0x20
 4451 0e8b C4020000 		.4byte	.LVL161
 4452 0e8f 0A1D0000 		.4byte	0x1d0a
 4453 0e93 21       		.uleb128 0x21
 4454 0e94 DC020000 		.4byte	.LVL164
 4455 0e98 02       		.uleb128 0x2
 4456 0e99 74       		.byte	0x74
 4457 0e9a 00       		.sleb128 0
 4458 0e9b 19       		.uleb128 0x19
 4459 0e9c 01       		.uleb128 0x1
 4460 0e9d 50       		.byte	0x50
 4461 0e9e 01       		.uleb128 0x1
 4462 0e9f 30       		.byte	0x30
 4463 0ea0 19       		.uleb128 0x19
 4464 0ea1 01       		.uleb128 0x1
 4465 0ea2 51       		.byte	0x51
 4466 0ea3 05       		.uleb128 0x5
 4467 0ea4 03       		.byte	0x3
 4468 0ea5 00000000 		.4byte	.LC1
 4469 0ea9 19       		.uleb128 0x19
 4470 0eaa 01       		.uleb128 0x1
 4471 0eab 52       		.byte	0x52
 4472 0eac 05       		.uleb128 0x5
 4473 0ead 03       		.byte	0x3
 4474 0eae 18000000 		.4byte	.LANCHOR0+24
 4475 0eb2 19       		.uleb128 0x19
 4476 0eb3 01       		.uleb128 0x1
 4477 0eb4 53       		.byte	0x53
 4478 0eb5 02       		.uleb128 0x2
 4479 0eb6 08       		.byte	0x8
 4480 0eb7 A0       		.byte	0xa0
 4481 0eb8 19       		.uleb128 0x19
 4482 0eb9 02       		.uleb128 0x2
 4483 0eba 7D       		.byte	0x7d
 4484 0ebb 00       		.sleb128 0
 4485 0ebc 01       		.uleb128 0x1
 4486 0ebd 31       		.byte	0x31
 4487 0ebe 19       		.uleb128 0x19
 4488 0ebf 02       		.uleb128 0x2
 4489 0ec0 7D       		.byte	0x7d
 4490 0ec1 04       		.sleb128 4
 4491 0ec2 05       		.uleb128 0x5
 4492 0ec3 03       		.byte	0x3
 4493 0ec4 DC020000 		.4byte	.LC40
 4494 0ec8 00       		.byte	0
ARM GAS  C:\Users\Phuong\AppData\Local\Temp\ccqGhR5Z.s 			page 95


 4495 0ec9 00       		.byte	0
 4496 0eca 1E       		.uleb128 0x1e
 4497 0ecb EE020000 		.4byte	.LBB36
 4498 0ecf 1C000000 		.4byte	.LBE36-.LBB36
 4499 0ed3 240F0000 		.4byte	0xf24
 4500 0ed7 1F       		.uleb128 0x1f
 4501 0ed8 6C00     		.ascii	"l\000"
 4502 0eda 01       		.byte	0x1
 4503 0edb A7       		.byte	0xa7
 4504 0edc E3000000 		.4byte	0xe3
 4505 0ee0 14090000 		.4byte	.LLST42
 4506 0ee4 20       		.uleb128 0x20
 4507 0ee5 F2020000 		.4byte	.LVL168
 4508 0ee9 0A1D0000 		.4byte	0x1d0a
 4509 0eed 21       		.uleb128 0x21
 4510 0eee 0A030000 		.4byte	.LVL171
 4511 0ef2 02       		.uleb128 0x2
 4512 0ef3 74       		.byte	0x74
 4513 0ef4 00       		.sleb128 0
 4514 0ef5 19       		.uleb128 0x19
 4515 0ef6 01       		.uleb128 0x1
 4516 0ef7 50       		.byte	0x50
 4517 0ef8 01       		.uleb128 0x1
 4518 0ef9 30       		.byte	0x30
 4519 0efa 19       		.uleb128 0x19
 4520 0efb 01       		.uleb128 0x1
 4521 0efc 51       		.byte	0x51
 4522 0efd 05       		.uleb128 0x5
 4523 0efe 03       		.byte	0x3
 4524 0eff 00000000 		.4byte	.LC1
 4525 0f03 19       		.uleb128 0x19
 4526 0f04 01       		.uleb128 0x1
 4527 0f05 52       		.byte	0x52
 4528 0f06 05       		.uleb128 0x5
 4529 0f07 03       		.byte	0x3
 4530 0f08 18000000 		.4byte	.LANCHOR0+24
 4531 0f0c 19       		.uleb128 0x19
 4532 0f0d 01       		.uleb128 0x1
 4533 0f0e 53       		.byte	0x53
 4534 0f0f 02       		.uleb128 0x2
 4535 0f10 08       		.byte	0x8
 4536 0f11 A7       		.byte	0xa7
 4537 0f12 19       		.uleb128 0x19
 4538 0f13 02       		.uleb128 0x2
 4539 0f14 7D       		.byte	0x7d
 4540 0f15 00       		.sleb128 0
 4541 0f16 01       		.uleb128 0x1
 4542 0f17 31       		.byte	0x31
 4543 0f18 19       		.uleb128 0x19
 4544 0f19 02       		.uleb128 0x2
 4545 0f1a 7D       		.byte	0x7d
 4546 0f1b 04       		.sleb128 4
 4547 0f1c 05       		.uleb128 0x5
 4548 0f1d 03       		.byte	0x3
 4549 0f1e FC020000 		.4byte	.LC42
 4550 0f22 00       		.byte	0
 4551 0f23 00       		.byte	0
ARM GAS  C:\Users\Phuong\AppData\Local\Temp\ccqGhR5Z.s 			page 96


 4552 0f24 18       		.uleb128 0x18
 4553 0f25 BC020000 		.4byte	.LVL159
 4554 0f29 6D1D0000 		.4byte	0x1d6d
 4555 0f2d 380F0000 		.4byte	0xf38
 4556 0f31 19       		.uleb128 0x19
 4557 0f32 01       		.uleb128 0x1
 4558 0f33 50       		.byte	0x50
 4559 0f34 02       		.uleb128 0x2
 4560 0f35 75       		.byte	0x75
 4561 0f36 00       		.sleb128 0
 4562 0f37 00       		.byte	0
 4563 0f38 1A       		.uleb128 0x1a
 4564 0f39 E8020000 		.4byte	.LVL167
 4565 0f3d BA1D0000 		.4byte	0x1dba
 4566 0f41 19       		.uleb128 0x19
 4567 0f42 01       		.uleb128 0x1
 4568 0f43 50       		.byte	0x50
 4569 0f44 02       		.uleb128 0x2
 4570 0f45 77       		.byte	0x77
 4571 0f46 00       		.sleb128 0
 4572 0f47 00       		.byte	0
 4573 0f48 00       		.byte	0
 4574 0f49 1A       		.uleb128 0x1a
 4575 0f4a 66020000 		.4byte	.LVL148
 4576 0f4e C51D0000 		.4byte	0x1dc5
 4577 0f52 19       		.uleb128 0x19
 4578 0f53 01       		.uleb128 0x1
 4579 0f54 50       		.byte	0x50
 4580 0f55 02       		.uleb128 0x2
 4581 0f56 77       		.byte	0x77
 4582 0f57 00       		.sleb128 0
 4583 0f58 19       		.uleb128 0x19
 4584 0f59 01       		.uleb128 0x1
 4585 0f5a 51       		.byte	0x51
 4586 0f5b 02       		.uleb128 0x2
 4587 0f5c 91       		.byte	0x91
 4588 0f5d 60       		.sleb128 -32
 4589 0f5e 00       		.byte	0
 4590 0f5f 00       		.byte	0
 4591 0f60 1E       		.uleb128 0x1e
 4592 0f61 1C030000 		.4byte	.LBB37
 4593 0f65 2E010000 		.4byte	.LBE37-.LBB37
 4594 0f69 D9110000 		.4byte	0x11d9
 4595 0f6d 28       		.uleb128 0x28
 4596 0f6e 770A0000 		.4byte	.LASF102
 4597 0f72 01       		.byte	0x1
 4598 0f73 B0       		.byte	0xb0
 4599 0f74 6E020000 		.4byte	0x26e
 4600 0f78 02       		.uleb128 0x2
 4601 0f79 91       		.byte	0x91
 4602 0f7a 57       		.sleb128 -41
 4603 0f7b 1E       		.uleb128 0x1e
 4604 0f7c 2A030000 		.4byte	.LBB38
 4605 0f80 1C000000 		.4byte	.LBE38-.LBB38
 4606 0f84 D50F0000 		.4byte	0xfd5
 4607 0f88 1F       		.uleb128 0x1f
 4608 0f89 6C00     		.ascii	"l\000"
ARM GAS  C:\Users\Phuong\AppData\Local\Temp\ccqGhR5Z.s 			page 97


 4609 0f8b 01       		.byte	0x1
 4610 0f8c B3       		.byte	0xb3
 4611 0f8d E3000000 		.4byte	0xe3
 4612 0f91 32090000 		.4byte	.LLST43
 4613 0f95 20       		.uleb128 0x20
 4614 0f96 2E030000 		.4byte	.LVL175
 4615 0f9a 0A1D0000 		.4byte	0x1d0a
 4616 0f9e 21       		.uleb128 0x21
 4617 0f9f 46030000 		.4byte	.LVL178
 4618 0fa3 02       		.uleb128 0x2
 4619 0fa4 74       		.byte	0x74
 4620 0fa5 00       		.sleb128 0
 4621 0fa6 19       		.uleb128 0x19
 4622 0fa7 01       		.uleb128 0x1
 4623 0fa8 50       		.byte	0x50
 4624 0fa9 01       		.uleb128 0x1
 4625 0faa 30       		.byte	0x30
 4626 0fab 19       		.uleb128 0x19
 4627 0fac 01       		.uleb128 0x1
 4628 0fad 51       		.byte	0x51
 4629 0fae 05       		.uleb128 0x5
 4630 0faf 03       		.byte	0x3
 4631 0fb0 00000000 		.4byte	.LC1
 4632 0fb4 19       		.uleb128 0x19
 4633 0fb5 01       		.uleb128 0x1
 4634 0fb6 52       		.byte	0x52
 4635 0fb7 05       		.uleb128 0x5
 4636 0fb8 03       		.byte	0x3
 4637 0fb9 18000000 		.4byte	.LANCHOR0+24
 4638 0fbd 19       		.uleb128 0x19
 4639 0fbe 01       		.uleb128 0x1
 4640 0fbf 53       		.byte	0x53
 4641 0fc0 02       		.uleb128 0x2
 4642 0fc1 08       		.byte	0x8
 4643 0fc2 B3       		.byte	0xb3
 4644 0fc3 19       		.uleb128 0x19
 4645 0fc4 02       		.uleb128 0x2
 4646 0fc5 7D       		.byte	0x7d
 4647 0fc6 00       		.sleb128 0
 4648 0fc7 01       		.uleb128 0x1
 4649 0fc8 31       		.byte	0x31
 4650 0fc9 19       		.uleb128 0x19
 4651 0fca 02       		.uleb128 0x2
 4652 0fcb 7D       		.byte	0x7d
 4653 0fcc 04       		.sleb128 4
 4654 0fcd 05       		.uleb128 0x5
 4655 0fce 03       		.byte	0x3
 4656 0fcf 94020000 		.4byte	.LC36
 4657 0fd3 00       		.byte	0
 4658 0fd4 00       		.byte	0
 4659 0fd5 1E       		.uleb128 0x1e
 4660 0fd6 9A030000 		.4byte	.LBB39
 4661 0fda 1C000000 		.4byte	.LBE39-.LBB39
 4662 0fde 2F100000 		.4byte	0x102f
 4663 0fe2 1F       		.uleb128 0x1f
 4664 0fe3 6C00     		.ascii	"l\000"
 4665 0fe5 01       		.byte	0x1
ARM GAS  C:\Users\Phuong\AppData\Local\Temp\ccqGhR5Z.s 			page 98


 4666 0fe6 BB       		.byte	0xbb
 4667 0fe7 E3000000 		.4byte	0xe3
 4668 0feb 50090000 		.4byte	.LLST44
 4669 0fef 20       		.uleb128 0x20
 4670 0ff0 9E030000 		.4byte	.LVL180
 4671 0ff4 0A1D0000 		.4byte	0x1d0a
 4672 0ff8 21       		.uleb128 0x21
 4673 0ff9 B6030000 		.4byte	.LVL183
 4674 0ffd 02       		.uleb128 0x2
 4675 0ffe 74       		.byte	0x74
 4676 0fff 00       		.sleb128 0
 4677 1000 19       		.uleb128 0x19
 4678 1001 01       		.uleb128 0x1
 4679 1002 50       		.byte	0x50
 4680 1003 01       		.uleb128 0x1
 4681 1004 30       		.byte	0x30
 4682 1005 19       		.uleb128 0x19
 4683 1006 01       		.uleb128 0x1
 4684 1007 51       		.byte	0x51
 4685 1008 05       		.uleb128 0x5
 4686 1009 03       		.byte	0x3
 4687 100a 00000000 		.4byte	.LC1
 4688 100e 19       		.uleb128 0x19
 4689 100f 01       		.uleb128 0x1
 4690 1010 52       		.byte	0x52
 4691 1011 05       		.uleb128 0x5
 4692 1012 03       		.byte	0x3
 4693 1013 18000000 		.4byte	.LANCHOR0+24
 4694 1017 19       		.uleb128 0x19
 4695 1018 01       		.uleb128 0x1
 4696 1019 53       		.byte	0x53
 4697 101a 02       		.uleb128 0x2
 4698 101b 08       		.byte	0x8
 4699 101c BB       		.byte	0xbb
 4700 101d 19       		.uleb128 0x19
 4701 101e 02       		.uleb128 0x2
 4702 101f 7D       		.byte	0x7d
 4703 1020 00       		.sleb128 0
 4704 1021 01       		.uleb128 0x1
 4705 1022 31       		.byte	0x31
 4706 1023 19       		.uleb128 0x19
 4707 1024 02       		.uleb128 0x2
 4708 1025 7D       		.byte	0x7d
 4709 1026 04       		.sleb128 4
 4710 1027 05       		.uleb128 0x5
 4711 1028 03       		.byte	0x3
 4712 1029 30030000 		.4byte	.LC44
 4713 102d 00       		.byte	0
 4714 102e 00       		.byte	0
 4715 102f 1E       		.uleb128 0x1e
 4716 1030 BC030000 		.4byte	.LBB40
 4717 1034 8E000000 		.4byte	.LBE40-.LBB40
 4718 1038 C2110000 		.4byte	0x11c2
 4719 103c 14       		.uleb128 0x14
 4720 103d FC040000 		.4byte	.LASF104
 4721 1041 01       		.byte	0x1
 4722 1042 C0       		.byte	0xc0
ARM GAS  C:\Users\Phuong\AppData\Local\Temp\ccqGhR5Z.s 			page 99


 4723 1043 19010000 		.4byte	0x119
 4724 1047 6E090000 		.4byte	.LLST45
 4725 104b 1E       		.uleb128 0x1e
 4726 104c C6030000 		.4byte	.LBB41
 4727 1050 1C000000 		.4byte	.LBE41-.LBB41
 4728 1054 A5100000 		.4byte	0x10a5
 4729 1058 1F       		.uleb128 0x1f
 4730 1059 6C00     		.ascii	"l\000"
 4731 105b 01       		.byte	0x1
 4732 105c C3       		.byte	0xc3
 4733 105d E3000000 		.4byte	0xe3
 4734 1061 8C090000 		.4byte	.LLST46
 4735 1065 20       		.uleb128 0x20
 4736 1066 CA030000 		.4byte	.LVL186
 4737 106a 0A1D0000 		.4byte	0x1d0a
 4738 106e 21       		.uleb128 0x21
 4739 106f E2030000 		.4byte	.LVL189
 4740 1073 02       		.uleb128 0x2
 4741 1074 74       		.byte	0x74
 4742 1075 00       		.sleb128 0
 4743 1076 19       		.uleb128 0x19
 4744 1077 01       		.uleb128 0x1
 4745 1078 50       		.byte	0x50
 4746 1079 01       		.uleb128 0x1
 4747 107a 30       		.byte	0x30
 4748 107b 19       		.uleb128 0x19
 4749 107c 01       		.uleb128 0x1
 4750 107d 51       		.byte	0x51
 4751 107e 05       		.uleb128 0x5
 4752 107f 03       		.byte	0x3
 4753 1080 00000000 		.4byte	.LC1
 4754 1084 19       		.uleb128 0x19
 4755 1085 01       		.uleb128 0x1
 4756 1086 52       		.byte	0x52
 4757 1087 05       		.uleb128 0x5
 4758 1088 03       		.byte	0x3
 4759 1089 18000000 		.4byte	.LANCHOR0+24
 4760 108d 19       		.uleb128 0x19
 4761 108e 01       		.uleb128 0x1
 4762 108f 53       		.byte	0x53
 4763 1090 02       		.uleb128 0x2
 4764 1091 08       		.byte	0x8
 4765 1092 C3       		.byte	0xc3
 4766 1093 19       		.uleb128 0x19
 4767 1094 02       		.uleb128 0x2
 4768 1095 7D       		.byte	0x7d
 4769 1096 00       		.sleb128 0
 4770 1097 01       		.uleb128 0x1
 4771 1098 31       		.byte	0x31
 4772 1099 19       		.uleb128 0x19
 4773 109a 02       		.uleb128 0x2
 4774 109b 7D       		.byte	0x7d
 4775 109c 04       		.sleb128 4
 4776 109d 05       		.uleb128 0x5
 4777 109e 03       		.byte	0x3
 4778 109f 74030000 		.4byte	.LC46
 4779 10a3 00       		.byte	0
ARM GAS  C:\Users\Phuong\AppData\Local\Temp\ccqGhR5Z.s 			page 100


 4780 10a4 00       		.byte	0
 4781 10a5 1E       		.uleb128 0x1e
 4782 10a6 E8030000 		.4byte	.LBB42
 4783 10aa 62000000 		.4byte	.LBE42-.LBB42
 4784 10ae B1110000 		.4byte	0x11b1
 4785 10b2 28       		.uleb128 0x28
 4786 10b3 700D0000 		.4byte	.LASF105
 4787 10b7 01       		.byte	0x1
 4788 10b8 C8       		.byte	0xc8
 4789 10b9 24020000 		.4byte	0x224
 4790 10bd 02       		.uleb128 0x2
 4791 10be 91       		.byte	0x91
 4792 10bf 58       		.sleb128 -40
 4793 10c0 1E       		.uleb128 0x1e
 4794 10c1 F2030000 		.4byte	.LBB43
 4795 10c5 1C000000 		.4byte	.LBE43-.LBB43
 4796 10c9 1A110000 		.4byte	0x111a
 4797 10cd 1F       		.uleb128 0x1f
 4798 10ce 6C00     		.ascii	"l\000"
 4799 10d0 01       		.byte	0x1
 4800 10d1 CB       		.byte	0xcb
 4801 10d2 E3000000 		.4byte	0xe3
 4802 10d6 AA090000 		.4byte	.LLST47
 4803 10da 20       		.uleb128 0x20
 4804 10db F6030000 		.4byte	.LVL192
 4805 10df 0A1D0000 		.4byte	0x1d0a
 4806 10e3 21       		.uleb128 0x21
 4807 10e4 0E040000 		.4byte	.LVL195
 4808 10e8 02       		.uleb128 0x2
 4809 10e9 74       		.byte	0x74
 4810 10ea 00       		.sleb128 0
 4811 10eb 19       		.uleb128 0x19
 4812 10ec 01       		.uleb128 0x1
 4813 10ed 50       		.byte	0x50
 4814 10ee 01       		.uleb128 0x1
 4815 10ef 30       		.byte	0x30
 4816 10f0 19       		.uleb128 0x19
 4817 10f1 01       		.uleb128 0x1
 4818 10f2 51       		.byte	0x51
 4819 10f3 05       		.uleb128 0x5
 4820 10f4 03       		.byte	0x3
 4821 10f5 00000000 		.4byte	.LC1
 4822 10f9 19       		.uleb128 0x19
 4823 10fa 01       		.uleb128 0x1
 4824 10fb 52       		.byte	0x52
 4825 10fc 05       		.uleb128 0x5
 4826 10fd 03       		.byte	0x3
 4827 10fe 18000000 		.4byte	.LANCHOR0+24
 4828 1102 19       		.uleb128 0x19
 4829 1103 01       		.uleb128 0x1
 4830 1104 53       		.byte	0x53
 4831 1105 02       		.uleb128 0x2
 4832 1106 08       		.byte	0x8
 4833 1107 CB       		.byte	0xcb
 4834 1108 19       		.uleb128 0x19
 4835 1109 02       		.uleb128 0x2
 4836 110a 7D       		.byte	0x7d
ARM GAS  C:\Users\Phuong\AppData\Local\Temp\ccqGhR5Z.s 			page 101


 4837 110b 00       		.sleb128 0
 4838 110c 01       		.uleb128 0x1
 4839 110d 31       		.byte	0x31
 4840 110e 19       		.uleb128 0x19
 4841 110f 02       		.uleb128 0x2
 4842 1110 7D       		.byte	0x7d
 4843 1111 04       		.sleb128 4
 4844 1112 05       		.uleb128 0x5
 4845 1113 03       		.byte	0x3
 4846 1114 94030000 		.4byte	.LC48
 4847 1118 00       		.byte	0
 4848 1119 00       		.byte	0
 4849 111a 1E       		.uleb128 0x1e
 4850 111b 14040000 		.4byte	.LBB44
 4851 111f 36000000 		.4byte	.LBE44-.LBB44
 4852 1123 A0110000 		.4byte	0x11a0
 4853 1127 28       		.uleb128 0x28
 4854 1128 71010000 		.4byte	.LASF106
 4855 112c 01       		.byte	0x1
 4856 112d D0       		.byte	0xd0
 4857 112e B4020000 		.4byte	0x2b4
 4858 1132 02       		.uleb128 0x2
 4859 1133 91       		.byte	0x91
 4860 1134 60       		.sleb128 -32
 4861 1135 1E       		.uleb128 0x1e
 4862 1136 2A040000 		.4byte	.LBB45
 4863 113a 1C000000 		.4byte	.LBE45-.LBB45
 4864 113e 8F110000 		.4byte	0x118f
 4865 1142 1F       		.uleb128 0x1f
 4866 1143 6C00     		.ascii	"l\000"
 4867 1145 01       		.byte	0x1
 4868 1146 D5       		.byte	0xd5
 4869 1147 E3000000 		.4byte	0xe3
 4870 114b C8090000 		.4byte	.LLST48
 4871 114f 20       		.uleb128 0x20
 4872 1150 2E040000 		.4byte	.LVL198
 4873 1154 0A1D0000 		.4byte	0x1d0a
 4874 1158 21       		.uleb128 0x21
 4875 1159 46040000 		.4byte	.LVL201
 4876 115d 02       		.uleb128 0x2
 4877 115e 74       		.byte	0x74
 4878 115f 00       		.sleb128 0
 4879 1160 19       		.uleb128 0x19
 4880 1161 01       		.uleb128 0x1
 4881 1162 50       		.byte	0x50
 4882 1163 01       		.uleb128 0x1
 4883 1164 30       		.byte	0x30
 4884 1165 19       		.uleb128 0x19
 4885 1166 01       		.uleb128 0x1
 4886 1167 51       		.byte	0x51
 4887 1168 05       		.uleb128 0x5
 4888 1169 03       		.byte	0x3
 4889 116a 00000000 		.4byte	.LC1
 4890 116e 19       		.uleb128 0x19
 4891 116f 01       		.uleb128 0x1
 4892 1170 52       		.byte	0x52
 4893 1171 05       		.uleb128 0x5
ARM GAS  C:\Users\Phuong\AppData\Local\Temp\ccqGhR5Z.s 			page 102


 4894 1172 03       		.byte	0x3
 4895 1173 18000000 		.4byte	.LANCHOR0+24
 4896 1177 19       		.uleb128 0x19
 4897 1178 01       		.uleb128 0x1
 4898 1179 53       		.byte	0x53
 4899 117a 02       		.uleb128 0x2
 4900 117b 08       		.byte	0x8
 4901 117c D5       		.byte	0xd5
 4902 117d 19       		.uleb128 0x19
 4903 117e 02       		.uleb128 0x2
 4904 117f 7D       		.byte	0x7d
 4905 1180 00       		.sleb128 0
 4906 1181 01       		.uleb128 0x1
 4907 1182 31       		.byte	0x31
 4908 1183 19       		.uleb128 0x19
 4909 1184 02       		.uleb128 0x2
 4910 1185 7D       		.byte	0x7d
 4911 1186 04       		.sleb128 4
 4912 1187 05       		.uleb128 0x5
 4913 1188 03       		.byte	0x3
 4914 1189 B8030000 		.4byte	.LC50
 4915 118d 00       		.byte	0
 4916 118e 00       		.byte	0
 4917 118f 1A       		.uleb128 0x1a
 4918 1190 26040000 		.4byte	.LVL197
 4919 1194 D01D0000 		.4byte	0x1dd0
 4920 1198 19       		.uleb128 0x19
 4921 1199 01       		.uleb128 0x1
 4922 119a 50       		.byte	0x50
 4923 119b 02       		.uleb128 0x2
 4924 119c 77       		.byte	0x77
 4925 119d 00       		.sleb128 0
 4926 119e 00       		.byte	0
 4927 119f 00       		.byte	0
 4928 11a0 1A       		.uleb128 0x1a
 4929 11a1 EE030000 		.4byte	.LVL191
 4930 11a5 DB1D0000 		.4byte	0x1ddb
 4931 11a9 19       		.uleb128 0x19
 4932 11aa 01       		.uleb128 0x1
 4933 11ab 51       		.byte	0x51
 4934 11ac 02       		.uleb128 0x2
 4935 11ad 91       		.byte	0x91
 4936 11ae 58       		.sleb128 -40
 4937 11af 00       		.byte	0
 4938 11b0 00       		.byte	0
 4939 11b1 1A       		.uleb128 0x1a
 4940 11b2 C2030000 		.4byte	.LVL185
 4941 11b6 6D1D0000 		.4byte	0x1d6d
 4942 11ba 19       		.uleb128 0x19
 4943 11bb 01       		.uleb128 0x1
 4944 11bc 50       		.byte	0x50
 4945 11bd 02       		.uleb128 0x2
 4946 11be 75       		.byte	0x75
 4947 11bf 00       		.sleb128 0
 4948 11c0 00       		.byte	0
 4949 11c1 00       		.byte	0
 4950 11c2 1A       		.uleb128 0x1a
ARM GAS  C:\Users\Phuong\AppData\Local\Temp\ccqGhR5Z.s 			page 103


 4951 11c3 26030000 		.4byte	.LVL174
 4952 11c7 C51D0000 		.4byte	0x1dc5
 4953 11cb 19       		.uleb128 0x19
 4954 11cc 01       		.uleb128 0x1
 4955 11cd 50       		.byte	0x50
 4956 11ce 02       		.uleb128 0x2
 4957 11cf 77       		.byte	0x77
 4958 11d0 00       		.sleb128 0
 4959 11d1 19       		.uleb128 0x19
 4960 11d2 01       		.uleb128 0x1
 4961 11d3 51       		.byte	0x51
 4962 11d4 02       		.uleb128 0x2
 4963 11d5 91       		.byte	0x91
 4964 11d6 57       		.sleb128 -41
 4965 11d7 00       		.byte	0
 4966 11d8 00       		.byte	0
 4967 11d9 18       		.uleb128 0x18
 4968 11da 10000000 		.4byte	.LVL66
 4969 11de E61D0000 		.4byte	0x1de6
 4970 11e2 ED110000 		.4byte	0x11ed
 4971 11e6 19       		.uleb128 0x19
 4972 11e7 01       		.uleb128 0x1
 4973 11e8 50       		.byte	0x50
 4974 11e9 02       		.uleb128 0x2
 4975 11ea 75       		.byte	0x75
 4976 11eb 00       		.sleb128 0
 4977 11ec 00       		.byte	0
 4978 11ed 18       		.uleb128 0x18
 4979 11ee 16000000 		.4byte	.LVL68
 4980 11f2 F11D0000 		.4byte	0x1df1
 4981 11f6 01120000 		.4byte	0x1201
 4982 11fa 19       		.uleb128 0x19
 4983 11fb 01       		.uleb128 0x1
 4984 11fc 50       		.byte	0x50
 4985 11fd 02       		.uleb128 0x2
 4986 11fe 74       		.byte	0x74
 4987 11ff 00       		.sleb128 0
 4988 1200 00       		.byte	0
 4989 1201 18       		.uleb128 0x18
 4990 1202 22000000 		.4byte	.LVL69
 4991 1206 FC1D0000 		.4byte	0x1dfc
 4992 120a 1B120000 		.4byte	0x121b
 4993 120e 19       		.uleb128 0x19
 4994 120f 01       		.uleb128 0x1
 4995 1210 50       		.byte	0x50
 4996 1211 02       		.uleb128 0x2
 4997 1212 77       		.byte	0x77
 4998 1213 00       		.sleb128 0
 4999 1214 19       		.uleb128 0x19
 5000 1215 01       		.uleb128 0x1
 5001 1216 51       		.byte	0x51
 5002 1217 02       		.uleb128 0x2
 5003 1218 75       		.byte	0x75
 5004 1219 00       		.sleb128 0
 5005 121a 00       		.byte	0
 5006 121b 18       		.uleb128 0x18
 5007 121c 50000000 		.4byte	.LVL75
ARM GAS  C:\Users\Phuong\AppData\Local\Temp\ccqGhR5Z.s 			page 104


 5008 1220 071E0000 		.4byte	0x1e07
 5009 1224 2F120000 		.4byte	0x122f
 5010 1228 19       		.uleb128 0x19
 5011 1229 01       		.uleb128 0x1
 5012 122a 50       		.byte	0x50
 5013 122b 02       		.uleb128 0x2
 5014 122c 74       		.byte	0x74
 5015 122d 00       		.sleb128 0
 5016 122e 00       		.byte	0
 5017 122f 18       		.uleb128 0x18
 5018 1230 BC000000 		.4byte	.LVL90
 5019 1234 121E0000 		.4byte	0x1e12
 5020 1238 43120000 		.4byte	0x1243
 5021 123c 19       		.uleb128 0x19
 5022 123d 01       		.uleb128 0x1
 5023 123e 50       		.byte	0x50
 5024 123f 02       		.uleb128 0x2
 5025 1240 74       		.byte	0x74
 5026 1241 00       		.sleb128 0
 5027 1242 00       		.byte	0
 5028 1243 18       		.uleb128 0x18
 5029 1244 22010000 		.4byte	.LVL104
 5030 1248 1D1E0000 		.4byte	0x1e1d
 5031 124c 57120000 		.4byte	0x1257
 5032 1250 19       		.uleb128 0x19
 5033 1251 01       		.uleb128 0x1
 5034 1252 50       		.byte	0x50
 5035 1253 02       		.uleb128 0x2
 5036 1254 74       		.byte	0x74
 5037 1255 00       		.sleb128 0
 5038 1256 00       		.byte	0
 5039 1257 18       		.uleb128 0x18
 5040 1258 88010000 		.4byte	.LVL118
 5041 125c 281E0000 		.4byte	0x1e28
 5042 1260 6B120000 		.4byte	0x126b
 5043 1264 19       		.uleb128 0x19
 5044 1265 01       		.uleb128 0x1
 5045 1266 50       		.byte	0x50
 5046 1267 02       		.uleb128 0x2
 5047 1268 74       		.byte	0x74
 5048 1269 00       		.sleb128 0
 5049 126a 00       		.byte	0
 5050 126b 18       		.uleb128 0x18
 5051 126c F4010000 		.4byte	.LVL133
 5052 1270 331E0000 		.4byte	0x1e33
 5053 1274 7F120000 		.4byte	0x127f
 5054 1278 19       		.uleb128 0x19
 5055 1279 01       		.uleb128 0x1
 5056 127a 50       		.byte	0x50
 5057 127b 02       		.uleb128 0x2
 5058 127c 74       		.byte	0x74
 5059 127d 00       		.sleb128 0
 5060 127e 00       		.byte	0
 5061 127f 18       		.uleb128 0x18
 5062 1280 5A020000 		.4byte	.LVL147
 5063 1284 3E1E0000 		.4byte	0x1e3e
 5064 1288 93120000 		.4byte	0x1293
ARM GAS  C:\Users\Phuong\AppData\Local\Temp\ccqGhR5Z.s 			page 105


 5065 128c 19       		.uleb128 0x19
 5066 128d 01       		.uleb128 0x1
 5067 128e 50       		.byte	0x50
 5068 128f 02       		.uleb128 0x2
 5069 1290 74       		.byte	0x74
 5070 1291 00       		.sleb128 0
 5071 1292 00       		.byte	0
 5072 1293 1A       		.uleb128 0x1a
 5073 1294 16030000 		.4byte	.LVL173
 5074 1298 491E0000 		.4byte	0x1e49
 5075 129c 19       		.uleb128 0x19
 5076 129d 01       		.uleb128 0x1
 5077 129e 50       		.byte	0x50
 5078 129f 02       		.uleb128 0x2
 5079 12a0 74       		.byte	0x74
 5080 12a1 00       		.sleb128 0
 5081 12a2 00       		.byte	0
 5082 12a3 00       		.byte	0
 5083 12a4 25       		.uleb128 0x25
 5084 12a5 9E000000 		.4byte	0x9e
 5085 12a9 B4120000 		.4byte	0x12b4
 5086 12ad 26       		.uleb128 0x26
 5087 12ae 88000000 		.4byte	0x88
 5088 12b2 1D       		.byte	0x1d
 5089 12b3 00       		.byte	0
 5090 12b4 07       		.uleb128 0x7
 5091 12b5 A4120000 		.4byte	0x12a4
 5092 12b9 29       		.uleb128 0x29
 5093 12ba 58050000 		.4byte	.LASF107
 5094 12be 01       		.byte	0x1
 5095 12bf 3B01     		.2byte	0x13b
 5096 12c1 F9020000 		.4byte	0x2f9
 5097 12c5 00000000 		.4byte	.LFB5
 5098 12c9 50000000 		.4byte	.LFE5-.LFB5
 5099 12cd 01       		.uleb128 0x1
 5100 12ce 9C       		.byte	0x9c
 5101 12cf 8F130000 		.4byte	0x138f
 5102 12d3 16       		.uleb128 0x16
 5103 12d4 E10B0000 		.4byte	.LASF68
 5104 12d8 01       		.byte	0x1
 5105 12d9 3B01     		.2byte	0x13b
 5106 12db B3010000 		.4byte	0x1b3
 5107 12df E6090000 		.4byte	.LLST49
 5108 12e3 16       		.uleb128 0x16
 5109 12e4 89030000 		.4byte	.LASF70
 5110 12e8 01       		.byte	0x1
 5111 12e9 3B01     		.2byte	0x13b
 5112 12eb 9C030000 		.4byte	0x39c
 5113 12ef 120A0000 		.4byte	.LLST50
 5114 12f3 16       		.uleb128 0x16
 5115 12f4 92070000 		.4byte	.LASF83
 5116 12f8 01       		.byte	0x1
 5117 12f9 3B01     		.2byte	0x13b
 5118 12fb 8F000000 		.4byte	0x8f
 5119 12ff 3E0A0000 		.4byte	.LLST51
 5120 1303 17       		.uleb128 0x17
 5121 1304 960B0000 		.4byte	.LASF79
ARM GAS  C:\Users\Phuong\AppData\Local\Temp\ccqGhR5Z.s 			page 106


 5122 1308 01       		.byte	0x1
 5123 1309 3D01     		.2byte	0x13d
 5124 130b 10040000 		.4byte	0x410
 5125 130f 830A0000 		.4byte	.LLST52
 5126 1313 1C       		.uleb128 0x1c
 5127 1314 DE0C0000 		.4byte	.LASF96
 5128 1318 9F130000 		.4byte	0x139f
 5129 131c 05       		.uleb128 0x5
 5130 131d 03       		.byte	0x3
 5131 131e 38000000 		.4byte	__func__.8190
 5132 1322 1E       		.uleb128 0x1e
 5133 1323 14000000 		.4byte	.LBB46
 5134 1327 20000000 		.4byte	.LBE46-.LBB46
 5135 132b 7E130000 		.4byte	0x137e
 5136 132f 23       		.uleb128 0x23
 5137 1330 6C00     		.ascii	"l\000"
 5138 1332 01       		.byte	0x1
 5139 1333 4001     		.2byte	0x140
 5140 1335 E3000000 		.4byte	0xe3
 5141 1339 C20A0000 		.4byte	.LLST53
 5142 133d 20       		.uleb128 0x20
 5143 133e 18000000 		.4byte	.LVL210
 5144 1342 0A1D0000 		.4byte	0x1d0a
 5145 1346 21       		.uleb128 0x21
 5146 1347 32000000 		.4byte	.LVL213
 5147 134b 02       		.uleb128 0x2
 5148 134c 75       		.byte	0x75
 5149 134d 00       		.sleb128 0
 5150 134e 19       		.uleb128 0x19
 5151 134f 01       		.uleb128 0x1
 5152 1350 50       		.byte	0x50
 5153 1351 01       		.uleb128 0x1
 5154 1352 30       		.byte	0x30
 5155 1353 19       		.uleb128 0x19
 5156 1354 01       		.uleb128 0x1
 5157 1355 51       		.byte	0x51
 5158 1356 05       		.uleb128 0x5
 5159 1357 03       		.byte	0x3
 5160 1358 00000000 		.4byte	.LC1
 5161 135c 19       		.uleb128 0x19
 5162 135d 01       		.uleb128 0x1
 5163 135e 52       		.byte	0x52
 5164 135f 05       		.uleb128 0x5
 5165 1360 03       		.byte	0x3
 5166 1361 38000000 		.4byte	.LANCHOR0+56
 5167 1365 19       		.uleb128 0x19
 5168 1366 01       		.uleb128 0x1
 5169 1367 53       		.byte	0x53
 5170 1368 03       		.uleb128 0x3
 5171 1369 0A       		.byte	0xa
 5172 136a 4001     		.2byte	0x140
 5173 136c 19       		.uleb128 0x19
 5174 136d 02       		.uleb128 0x2
 5175 136e 7D       		.byte	0x7d
 5176 136f 00       		.sleb128 0
 5177 1370 01       		.uleb128 0x1
 5178 1371 31       		.byte	0x31
ARM GAS  C:\Users\Phuong\AppData\Local\Temp\ccqGhR5Z.s 			page 107


 5179 1372 19       		.uleb128 0x19
 5180 1373 02       		.uleb128 0x2
 5181 1374 7D       		.byte	0x7d
 5182 1375 04       		.sleb128 4
 5183 1376 05       		.uleb128 0x5
 5184 1377 03       		.byte	0x3
 5185 1378 E4030000 		.4byte	.LC54
 5186 137c 00       		.byte	0
 5187 137d 00       		.byte	0
 5188 137e 1A       		.uleb128 0x1a
 5189 137f 10000000 		.4byte	.LVL208
 5190 1383 541E0000 		.4byte	0x1e54
 5191 1387 19       		.uleb128 0x19
 5192 1388 01       		.uleb128 0x1
 5193 1389 50       		.byte	0x50
 5194 138a 02       		.uleb128 0x2
 5195 138b 08       		.byte	0x8
 5196 138c 20       		.byte	0x20
 5197 138d 00       		.byte	0
 5198 138e 00       		.byte	0
 5199 138f 25       		.uleb128 0x25
 5200 1390 9E000000 		.4byte	0x9e
 5201 1394 9F130000 		.4byte	0x139f
 5202 1398 26       		.uleb128 0x26
 5203 1399 88000000 		.4byte	0x88
 5204 139d 16       		.byte	0x16
 5205 139e 00       		.byte	0
 5206 139f 07       		.uleb128 0x7
 5207 13a0 8F130000 		.4byte	0x138f
 5208 13a4 29       		.uleb128 0x29
 5209 13a5 37090000 		.4byte	.LASF108
 5210 13a9 01       		.byte	0x1
 5211 13aa 5A01     		.2byte	0x15a
 5212 13ac 37000000 		.4byte	0x37
 5213 13b0 00000000 		.4byte	.LFB7
 5214 13b4 A8000000 		.4byte	.LFE7-.LFB7
 5215 13b8 01       		.uleb128 0x1
 5216 13b9 9C       		.byte	0x9c
 5217 13ba 20150000 		.4byte	0x1520
 5218 13be 16       		.uleb128 0x16
 5219 13bf 960B0000 		.4byte	.LASF79
 5220 13c3 01       		.byte	0x1
 5221 13c4 5A01     		.2byte	0x15a
 5222 13c6 F9020000 		.4byte	0x2f9
 5223 13ca E00A0000 		.4byte	.LLST54
 5224 13ce 16       		.uleb128 0x16
 5225 13cf 0D010000 		.4byte	.LASF69
 5226 13d3 01       		.byte	0x1
 5227 13d4 5A01     		.2byte	0x15a
 5228 13d6 77030000 		.4byte	0x377
 5229 13da 490B0000 		.4byte	.LLST55
 5230 13de 16       		.uleb128 0x16
 5231 13df 92090000 		.4byte	.LASF73
 5232 13e3 01       		.byte	0x1
 5233 13e4 5A01     		.2byte	0x15a
 5234 13e6 8F000000 		.4byte	0x8f
 5235 13ea A10B0000 		.4byte	.LLST56
ARM GAS  C:\Users\Phuong\AppData\Local\Temp\ccqGhR5Z.s 			page 108


 5236 13ee 17       		.uleb128 0x17
 5237 13ef 9C020000 		.4byte	.LASF90
 5238 13f3 01       		.byte	0x1
 5239 13f4 5C01     		.2byte	0x15c
 5240 13f6 37000000 		.4byte	0x37
 5241 13fa 070C0000 		.4byte	.LLST57
 5242 13fe 1C       		.uleb128 0x1c
 5243 13ff DE0C0000 		.4byte	.LASF96
 5244 1403 20150000 		.4byte	0x1520
 5245 1407 05       		.uleb128 0x5
 5246 1408 03       		.byte	0x3
 5247 1409 50000000 		.4byte	__func__.8207
 5248 140d 1E       		.uleb128 0x1e
 5249 140e 0E000000 		.4byte	.LBB47
 5250 1412 1E000000 		.4byte	.LBE47-.LBB47
 5251 1416 69140000 		.4byte	0x1469
 5252 141a 23       		.uleb128 0x23
 5253 141b 6C00     		.ascii	"l\000"
 5254 141d 01       		.byte	0x1
 5255 141e 6001     		.2byte	0x160
 5256 1420 E3000000 		.4byte	0xe3
 5257 1424 340C0000 		.4byte	.LLST58
 5258 1428 20       		.uleb128 0x20
 5259 1429 12000000 		.4byte	.LVL220
 5260 142d 0A1D0000 		.4byte	0x1d0a
 5261 1431 21       		.uleb128 0x21
 5262 1432 2C000000 		.4byte	.LVL223
 5263 1436 02       		.uleb128 0x2
 5264 1437 74       		.byte	0x74
 5265 1438 00       		.sleb128 0
 5266 1439 19       		.uleb128 0x19
 5267 143a 01       		.uleb128 0x1
 5268 143b 50       		.byte	0x50
 5269 143c 01       		.uleb128 0x1
 5270 143d 30       		.byte	0x30
 5271 143e 19       		.uleb128 0x19
 5272 143f 01       		.uleb128 0x1
 5273 1440 51       		.byte	0x51
 5274 1441 05       		.uleb128 0x5
 5275 1442 03       		.byte	0x3
 5276 1443 00000000 		.4byte	.LC1
 5277 1447 19       		.uleb128 0x19
 5278 1448 01       		.uleb128 0x1
 5279 1449 52       		.byte	0x52
 5280 144a 05       		.uleb128 0x5
 5281 144b 03       		.byte	0x3
 5282 144c 50000000 		.4byte	.LANCHOR0+80
 5283 1450 19       		.uleb128 0x19
 5284 1451 01       		.uleb128 0x1
 5285 1452 53       		.byte	0x53
 5286 1453 03       		.uleb128 0x3
 5287 1454 0A       		.byte	0xa
 5288 1455 6001     		.2byte	0x160
 5289 1457 19       		.uleb128 0x19
 5290 1458 02       		.uleb128 0x2
 5291 1459 7D       		.byte	0x7d
 5292 145a 00       		.sleb128 0
ARM GAS  C:\Users\Phuong\AppData\Local\Temp\ccqGhR5Z.s 			page 109


 5293 145b 01       		.uleb128 0x1
 5294 145c 31       		.byte	0x31
 5295 145d 19       		.uleb128 0x19
 5296 145e 02       		.uleb128 0x2
 5297 145f 7D       		.byte	0x7d
 5298 1460 04       		.sleb128 4
 5299 1461 05       		.uleb128 0x5
 5300 1462 03       		.byte	0x3
 5301 1463 04040000 		.4byte	.LC58
 5302 1467 00       		.byte	0
 5303 1468 00       		.byte	0
 5304 1469 1E       		.uleb128 0x1e
 5305 146a 50000000 		.4byte	.LBB48
 5306 146e 1E000000 		.4byte	.LBE48-.LBB48
 5307 1472 C5140000 		.4byte	0x14c5
 5308 1476 23       		.uleb128 0x23
 5309 1477 6C00     		.ascii	"l\000"
 5310 1479 01       		.byte	0x1
 5311 147a 6A01     		.2byte	0x16a
 5312 147c E3000000 		.4byte	0xe3
 5313 1480 680C0000 		.4byte	.LLST59
 5314 1484 20       		.uleb128 0x20
 5315 1485 54000000 		.4byte	.LVL228
 5316 1489 0A1D0000 		.4byte	0x1d0a
 5317 148d 21       		.uleb128 0x21
 5318 148e 6E000000 		.4byte	.LVL231
 5319 1492 02       		.uleb128 0x2
 5320 1493 75       		.byte	0x75
 5321 1494 00       		.sleb128 0
 5322 1495 19       		.uleb128 0x19
 5323 1496 01       		.uleb128 0x1
 5324 1497 50       		.byte	0x50
 5325 1498 01       		.uleb128 0x1
 5326 1499 30       		.byte	0x30
 5327 149a 19       		.uleb128 0x19
 5328 149b 01       		.uleb128 0x1
 5329 149c 51       		.byte	0x51
 5330 149d 05       		.uleb128 0x5
 5331 149e 03       		.byte	0x3
 5332 149f 00000000 		.4byte	.LC1
 5333 14a3 19       		.uleb128 0x19
 5334 14a4 01       		.uleb128 0x1
 5335 14a5 52       		.byte	0x52
 5336 14a6 05       		.uleb128 0x5
 5337 14a7 03       		.byte	0x3
 5338 14a8 50000000 		.4byte	.LANCHOR0+80
 5339 14ac 19       		.uleb128 0x19
 5340 14ad 01       		.uleb128 0x1
 5341 14ae 53       		.byte	0x53
 5342 14af 03       		.uleb128 0x3
 5343 14b0 0A       		.byte	0xa
 5344 14b1 6A01     		.2byte	0x16a
 5345 14b3 19       		.uleb128 0x19
 5346 14b4 02       		.uleb128 0x2
 5347 14b5 7D       		.byte	0x7d
 5348 14b6 00       		.sleb128 0
 5349 14b7 01       		.uleb128 0x1
ARM GAS  C:\Users\Phuong\AppData\Local\Temp\ccqGhR5Z.s 			page 110


 5350 14b8 31       		.byte	0x31
 5351 14b9 19       		.uleb128 0x19
 5352 14ba 02       		.uleb128 0x2
 5353 14bb 7D       		.byte	0x7d
 5354 14bc 04       		.sleb128 4
 5355 14bd 05       		.uleb128 0x5
 5356 14be 03       		.byte	0x3
 5357 14bf 1C040000 		.4byte	.LC62
 5358 14c3 00       		.byte	0
 5359 14c4 00       		.byte	0
 5360 14c5 18       		.uleb128 0x18
 5361 14c6 3E000000 		.4byte	.LVL226
 5362 14ca CD030000 		.4byte	0x3cd
 5363 14ce DE140000 		.4byte	0x14de
 5364 14d2 19       		.uleb128 0x19
 5365 14d3 01       		.uleb128 0x1
 5366 14d4 50       		.byte	0x50
 5367 14d5 02       		.uleb128 0x2
 5368 14d6 74       		.byte	0x74
 5369 14d7 00       		.sleb128 0
 5370 14d8 19       		.uleb128 0x19
 5371 14d9 01       		.uleb128 0x1
 5372 14da 51       		.byte	0x51
 5373 14db 01       		.uleb128 0x1
 5374 14dc 31       		.byte	0x31
 5375 14dd 00       		.byte	0
 5376 14de 18       		.uleb128 0x18
 5377 14df 4C000000 		.4byte	.LVL227
 5378 14e3 5F1E0000 		.4byte	0x1e5f
 5379 14e7 0A150000 		.4byte	0x150a
 5380 14eb 19       		.uleb128 0x19
 5381 14ec 01       		.uleb128 0x1
 5382 14ed 51       		.byte	0x51
 5383 14ee 05       		.uleb128 0x5
 5384 14ef 03       		.byte	0x3
 5385 14f0 00000000 		.4byte	on_transfer_received
 5386 14f4 19       		.uleb128 0x19
 5387 14f5 01       		.uleb128 0x1
 5388 14f6 52       		.byte	0x52
 5389 14f7 05       		.uleb128 0x5
 5390 14f8 03       		.byte	0x3
 5391 14f9 00000000 		.4byte	on_link_state_changed
 5392 14fd 19       		.uleb128 0x19
 5393 14fe 01       		.uleb128 0x1
 5394 14ff 53       		.byte	0x53
 5395 1500 01       		.uleb128 0x1
 5396 1501 30       		.byte	0x30
 5397 1502 19       		.uleb128 0x19
 5398 1503 02       		.uleb128 0x2
 5399 1504 7D       		.byte	0x7d
 5400 1505 00       		.sleb128 0
 5401 1506 02       		.uleb128 0x2
 5402 1507 74       		.byte	0x74
 5403 1508 00       		.sleb128 0
 5404 1509 00       		.byte	0
 5405 150a 1A       		.uleb128 0x1a
 5406 150b 76000000 		.4byte	.LVL232
ARM GAS  C:\Users\Phuong\AppData\Local\Temp\ccqGhR5Z.s 			page 111


 5407 150f CD030000 		.4byte	0x3cd
 5408 1513 19       		.uleb128 0x19
 5409 1514 01       		.uleb128 0x1
 5410 1515 50       		.byte	0x50
 5411 1516 02       		.uleb128 0x2
 5412 1517 74       		.byte	0x74
 5413 1518 00       		.sleb128 0
 5414 1519 19       		.uleb128 0x19
 5415 151a 01       		.uleb128 0x1
 5416 151b 51       		.byte	0x51
 5417 151c 01       		.uleb128 0x1
 5418 151d 34       		.byte	0x34
 5419 151e 00       		.byte	0
 5420 151f 00       		.byte	0
 5421 1520 07       		.uleb128 0x7
 5422 1521 BA070000 		.4byte	0x7ba
 5423 1525 29       		.uleb128 0x29
 5424 1526 C2030000 		.4byte	.LASF109
 5425 152a 01       		.byte	0x1
 5426 152b 7F01     		.2byte	0x17f
 5427 152d 37000000 		.4byte	0x37
 5428 1531 00000000 		.4byte	.LFB8
 5429 1535 9C000000 		.4byte	.LFE8-.LFB8
 5430 1539 01       		.uleb128 0x1
 5431 153a 9C       		.byte	0x9c
 5432 153b 78160000 		.4byte	0x1678
 5433 153f 16       		.uleb128 0x16
 5434 1540 960B0000 		.4byte	.LASF79
 5435 1544 01       		.byte	0x1
 5436 1545 7F01     		.2byte	0x17f
 5437 1547 F9020000 		.4byte	0x2f9
 5438 154b 860C0000 		.4byte	.LLST60
 5439 154f 17       		.uleb128 0x17
 5440 1550 9C020000 		.4byte	.LASF90
 5441 1554 01       		.byte	0x1
 5442 1555 8101     		.2byte	0x181
 5443 1557 37000000 		.4byte	0x37
 5444 155b FA0C0000 		.4byte	.LLST61
 5445 155f 1C       		.uleb128 0x1c
 5446 1560 DE0C0000 		.4byte	.LASF96
 5447 1564 88160000 		.4byte	0x1688
 5448 1568 05       		.uleb128 0x5
 5449 1569 03       		.byte	0x3
 5450 156a 68000000 		.4byte	__func__.8218
 5451 156e 1E       		.uleb128 0x1e
 5452 156f 08000000 		.4byte	.LBB49
 5453 1573 1E000000 		.4byte	.LBE49-.LBB49
 5454 1577 CA150000 		.4byte	0x15ca
 5455 157b 23       		.uleb128 0x23
 5456 157c 6C00     		.ascii	"l\000"
 5457 157e 01       		.byte	0x1
 5458 157f 8501     		.2byte	0x185
 5459 1581 E3000000 		.4byte	0xe3
 5460 1585 1B0D0000 		.4byte	.LLST62
 5461 1589 20       		.uleb128 0x20
 5462 158a 0C000000 		.4byte	.LVL241
 5463 158e 0A1D0000 		.4byte	0x1d0a
ARM GAS  C:\Users\Phuong\AppData\Local\Temp\ccqGhR5Z.s 			page 112


 5464 1592 21       		.uleb128 0x21
 5465 1593 26000000 		.4byte	.LVL244
 5466 1597 02       		.uleb128 0x2
 5467 1598 74       		.byte	0x74
 5468 1599 00       		.sleb128 0
 5469 159a 19       		.uleb128 0x19
 5470 159b 01       		.uleb128 0x1
 5471 159c 50       		.byte	0x50
 5472 159d 01       		.uleb128 0x1
 5473 159e 30       		.byte	0x30
 5474 159f 19       		.uleb128 0x19
 5475 15a0 01       		.uleb128 0x1
 5476 15a1 51       		.byte	0x51
 5477 15a2 05       		.uleb128 0x5
 5478 15a3 03       		.byte	0x3
 5479 15a4 00000000 		.4byte	.LC1
 5480 15a8 19       		.uleb128 0x19
 5481 15a9 01       		.uleb128 0x1
 5482 15aa 52       		.byte	0x52
 5483 15ab 05       		.uleb128 0x5
 5484 15ac 03       		.byte	0x3
 5485 15ad 68000000 		.4byte	.LANCHOR0+104
 5486 15b1 19       		.uleb128 0x19
 5487 15b2 01       		.uleb128 0x1
 5488 15b3 53       		.byte	0x53
 5489 15b4 03       		.uleb128 0x3
 5490 15b5 0A       		.byte	0xa
 5491 15b6 8501     		.2byte	0x185
 5492 15b8 19       		.uleb128 0x19
 5493 15b9 02       		.uleb128 0x2
 5494 15ba 7D       		.byte	0x7d
 5495 15bb 00       		.sleb128 0
 5496 15bc 01       		.uleb128 0x1
 5497 15bd 31       		.byte	0x31
 5498 15be 19       		.uleb128 0x19
 5499 15bf 02       		.uleb128 0x2
 5500 15c0 7D       		.byte	0x7d
 5501 15c1 04       		.sleb128 4
 5502 15c2 05       		.uleb128 0x5
 5503 15c3 03       		.byte	0x3
 5504 15c4 04040000 		.4byte	.LC58
 5505 15c8 00       		.byte	0
 5506 15c9 00       		.byte	0
 5507 15ca 1E       		.uleb128 0x1e
 5508 15cb 4E000000 		.4byte	.LBB50
 5509 15cf 1E000000 		.4byte	.LBE50-.LBB50
 5510 15d3 26160000 		.4byte	0x1626
 5511 15d7 23       		.uleb128 0x23
 5512 15d8 6C00     		.ascii	"l\000"
 5513 15da 01       		.byte	0x1
 5514 15db 9101     		.2byte	0x191
 5515 15dd E3000000 		.4byte	0xe3
 5516 15e1 4F0D0000 		.4byte	.LLST63
 5517 15e5 20       		.uleb128 0x20
 5518 15e6 52000000 		.4byte	.LVL248
 5519 15ea 0A1D0000 		.4byte	0x1d0a
 5520 15ee 21       		.uleb128 0x21
ARM GAS  C:\Users\Phuong\AppData\Local\Temp\ccqGhR5Z.s 			page 113


 5521 15ef 6C000000 		.4byte	.LVL251
 5522 15f3 02       		.uleb128 0x2
 5523 15f4 75       		.byte	0x75
 5524 15f5 00       		.sleb128 0
 5525 15f6 19       		.uleb128 0x19
 5526 15f7 01       		.uleb128 0x1
 5527 15f8 50       		.byte	0x50
 5528 15f9 01       		.uleb128 0x1
 5529 15fa 30       		.byte	0x30
 5530 15fb 19       		.uleb128 0x19
 5531 15fc 01       		.uleb128 0x1
 5532 15fd 51       		.byte	0x51
 5533 15fe 05       		.uleb128 0x5
 5534 15ff 03       		.byte	0x3
 5535 1600 00000000 		.4byte	.LC1
 5536 1604 19       		.uleb128 0x19
 5537 1605 01       		.uleb128 0x1
 5538 1606 52       		.byte	0x52
 5539 1607 05       		.uleb128 0x5
 5540 1608 03       		.byte	0x3
 5541 1609 68000000 		.4byte	.LANCHOR0+104
 5542 160d 19       		.uleb128 0x19
 5543 160e 01       		.uleb128 0x1
 5544 160f 53       		.byte	0x53
 5545 1610 03       		.uleb128 0x3
 5546 1611 0A       		.byte	0xa
 5547 1612 9101     		.2byte	0x191
 5548 1614 19       		.uleb128 0x19
 5549 1615 02       		.uleb128 0x2
 5550 1616 7D       		.byte	0x7d
 5551 1617 00       		.sleb128 0
 5552 1618 01       		.uleb128 0x1
 5553 1619 31       		.byte	0x31
 5554 161a 19       		.uleb128 0x19
 5555 161b 02       		.uleb128 0x2
 5556 161c 7D       		.byte	0x7d
 5557 161d 04       		.sleb128 4
 5558 161e 05       		.uleb128 0x5
 5559 161f 03       		.byte	0x3
 5560 1620 30040000 		.4byte	.LC67
 5561 1624 00       		.byte	0
 5562 1625 00       		.byte	0
 5563 1626 18       		.uleb128 0x18
 5564 1627 3C000000 		.4byte	.LVL246
 5565 162b CD030000 		.4byte	0x3cd
 5566 162f 3F160000 		.4byte	0x163f
 5567 1633 19       		.uleb128 0x19
 5568 1634 01       		.uleb128 0x1
 5569 1635 50       		.byte	0x50
 5570 1636 02       		.uleb128 0x2
 5571 1637 74       		.byte	0x74
 5572 1638 00       		.sleb128 0
 5573 1639 19       		.uleb128 0x19
 5574 163a 01       		.uleb128 0x1
 5575 163b 51       		.byte	0x51
 5576 163c 01       		.uleb128 0x1
 5577 163d 33       		.byte	0x33
ARM GAS  C:\Users\Phuong\AppData\Local\Temp\ccqGhR5Z.s 			page 114


 5578 163e 00       		.byte	0
 5579 163f 18       		.uleb128 0x18
 5580 1640 4A000000 		.4byte	.LVL247
 5581 1644 6A1E0000 		.4byte	0x1e6a
 5582 1648 62160000 		.4byte	0x1662
 5583 164c 19       		.uleb128 0x19
 5584 164d 01       		.uleb128 0x1
 5585 164e 51       		.byte	0x51
 5586 164f 01       		.uleb128 0x1
 5587 1650 31       		.byte	0x31
 5588 1651 19       		.uleb128 0x19
 5589 1652 01       		.uleb128 0x1
 5590 1653 52       		.byte	0x52
 5591 1654 01       		.uleb128 0x1
 5592 1655 30       		.byte	0x30
 5593 1656 19       		.uleb128 0x19
 5594 1657 01       		.uleb128 0x1
 5595 1658 53       		.byte	0x53
 5596 1659 01       		.uleb128 0x1
 5597 165a 30       		.byte	0x30
 5598 165b 19       		.uleb128 0x19
 5599 165c 02       		.uleb128 0x2
 5600 165d 7D       		.byte	0x7d
 5601 165e 00       		.sleb128 0
 5602 165f 01       		.uleb128 0x1
 5603 1660 30       		.byte	0x30
 5604 1661 00       		.byte	0
 5605 1662 1A       		.uleb128 0x1a
 5606 1663 74000000 		.4byte	.LVL252
 5607 1667 CD030000 		.4byte	0x3cd
 5608 166b 19       		.uleb128 0x19
 5609 166c 01       		.uleb128 0x1
 5610 166d 50       		.byte	0x50
 5611 166e 02       		.uleb128 0x2
 5612 166f 74       		.byte	0x74
 5613 1670 00       		.sleb128 0
 5614 1671 19       		.uleb128 0x19
 5615 1672 01       		.uleb128 0x1
 5616 1673 51       		.byte	0x51
 5617 1674 01       		.uleb128 0x1
 5618 1675 34       		.byte	0x34
 5619 1676 00       		.byte	0
 5620 1677 00       		.byte	0
 5621 1678 25       		.uleb128 0x25
 5622 1679 9E000000 		.4byte	0x9e
 5623 167d 88160000 		.4byte	0x1688
 5624 1681 26       		.uleb128 0x26
 5625 1682 88000000 		.4byte	0x88
 5626 1686 15       		.byte	0x15
 5627 1687 00       		.byte	0
 5628 1688 07       		.uleb128 0x7
 5629 1689 78160000 		.4byte	0x1678
 5630 168d 2A       		.uleb128 0x2a
 5631 168e 1A020000 		.4byte	.LASF118
 5632 1692 01       		.byte	0x1
 5633 1693 4D01     		.2byte	0x14d
 5634 1695 00000000 		.4byte	.LFB6
ARM GAS  C:\Users\Phuong\AppData\Local\Temp\ccqGhR5Z.s 			page 115


 5635 1699 40000000 		.4byte	.LFE6-.LFB6
 5636 169d 01       		.uleb128 0x1
 5637 169e 9C       		.byte	0x9c
 5638 169f 38170000 		.4byte	0x1738
 5639 16a3 16       		.uleb128 0x16
 5640 16a4 960B0000 		.4byte	.LASF79
 5641 16a8 01       		.byte	0x1
 5642 16a9 4D01     		.2byte	0x14d
 5643 16ab F9020000 		.4byte	0x2f9
 5644 16af 6D0D0000 		.4byte	.LLST64
 5645 16b3 1C       		.uleb128 0x1c
 5646 16b4 DE0C0000 		.4byte	.LASF96
 5647 16b8 48170000 		.4byte	0x1748
 5648 16bc 05       		.uleb128 0x5
 5649 16bd 03       		.byte	0x3
 5650 16be 80000000 		.4byte	__func__.8197
 5651 16c2 1E       		.uleb128 0x1e
 5652 16c3 08000000 		.4byte	.LBB51
 5653 16c7 1E000000 		.4byte	.LBE51-.LBB51
 5654 16cb 1E170000 		.4byte	0x171e
 5655 16cf 23       		.uleb128 0x23
 5656 16d0 6C00     		.ascii	"l\000"
 5657 16d2 01       		.byte	0x1
 5658 16d3 5101     		.2byte	0x151
 5659 16d5 E3000000 		.4byte	0xe3
 5660 16d9 BD0D0000 		.4byte	.LLST65
 5661 16dd 20       		.uleb128 0x20
 5662 16de 0C000000 		.4byte	.LVL259
 5663 16e2 0A1D0000 		.4byte	0x1d0a
 5664 16e6 21       		.uleb128 0x21
 5665 16e7 24000000 		.4byte	.LVL262
 5666 16eb 02       		.uleb128 0x2
 5667 16ec 74       		.byte	0x74
 5668 16ed 00       		.sleb128 0
 5669 16ee 19       		.uleb128 0x19
 5670 16ef 01       		.uleb128 0x1
 5671 16f0 50       		.byte	0x50
 5672 16f1 01       		.uleb128 0x1
 5673 16f2 30       		.byte	0x30
 5674 16f3 19       		.uleb128 0x19
 5675 16f4 01       		.uleb128 0x1
 5676 16f5 51       		.byte	0x51
 5677 16f6 05       		.uleb128 0x5
 5678 16f7 03       		.byte	0x3
 5679 16f8 00000000 		.4byte	.LC1
 5680 16fc 19       		.uleb128 0x19
 5681 16fd 01       		.uleb128 0x1
 5682 16fe 52       		.byte	0x52
 5683 16ff 05       		.uleb128 0x5
 5684 1700 03       		.byte	0x3
 5685 1701 80000000 		.4byte	.LANCHOR1
 5686 1705 19       		.uleb128 0x19
 5687 1706 01       		.uleb128 0x1
 5688 1707 53       		.byte	0x53
 5689 1708 03       		.uleb128 0x3
 5690 1709 0A       		.byte	0xa
 5691 170a 5101     		.2byte	0x151
ARM GAS  C:\Users\Phuong\AppData\Local\Temp\ccqGhR5Z.s 			page 116


 5692 170c 19       		.uleb128 0x19
 5693 170d 02       		.uleb128 0x2
 5694 170e 7D       		.byte	0x7d
 5695 170f 00       		.sleb128 0
 5696 1710 01       		.uleb128 0x1
 5697 1711 31       		.byte	0x31
 5698 1712 19       		.uleb128 0x19
 5699 1713 02       		.uleb128 0x2
 5700 1714 7D       		.byte	0x7d
 5701 1715 04       		.sleb128 4
 5702 1716 05       		.uleb128 0x5
 5703 1717 03       		.byte	0x3
 5704 1718 04040000 		.4byte	.LC58
 5705 171c 00       		.byte	0
 5706 171d 00       		.byte	0
 5707 171e 20       		.uleb128 0x20
 5708 171f 2A000000 		.4byte	.LVL264
 5709 1723 25150000 		.4byte	0x1525
 5710 1727 1A       		.uleb128 0x1a
 5711 1728 30000000 		.4byte	.LVL265
 5712 172c 751E0000 		.4byte	0x1e75
 5713 1730 19       		.uleb128 0x19
 5714 1731 01       		.uleb128 0x1
 5715 1732 50       		.byte	0x50
 5716 1733 02       		.uleb128 0x2
 5717 1734 74       		.byte	0x74
 5718 1735 00       		.sleb128 0
 5719 1736 00       		.byte	0
 5720 1737 00       		.byte	0
 5721 1738 25       		.uleb128 0x25
 5722 1739 9E000000 		.4byte	0x9e
 5723 173d 48170000 		.4byte	0x1748
 5724 1741 26       		.uleb128 0x26
 5725 1742 88000000 		.4byte	0x88
 5726 1746 17       		.byte	0x17
 5727 1747 00       		.byte	0
 5728 1748 07       		.uleb128 0x7
 5729 1749 38170000 		.4byte	0x1738
 5730 174d 29       		.uleb128 0x29
 5731 174e A9040000 		.4byte	.LASF110
 5732 1752 01       		.byte	0x1
 5733 1753 A301     		.2byte	0x1a3
 5734 1755 37000000 		.4byte	0x37
 5735 1759 00000000 		.4byte	.LFB9
 5736 175d 7C000000 		.4byte	.LFE9-.LFB9
 5737 1761 01       		.uleb128 0x1
 5738 1762 9C       		.byte	0x9c
 5739 1763 66180000 		.4byte	0x1866
 5740 1767 16       		.uleb128 0x16
 5741 1768 960B0000 		.4byte	.LASF79
 5742 176c 01       		.byte	0x1
 5743 176d A301     		.2byte	0x1a3
 5744 176f F9020000 		.4byte	0x2f9
 5745 1773 DB0D0000 		.4byte	.LLST66
 5746 1777 16       		.uleb128 0x16
 5747 1778 E0050000 		.4byte	.LASF111
 5748 177c 01       		.byte	0x1
ARM GAS  C:\Users\Phuong\AppData\Local\Temp\ccqGhR5Z.s 			page 117


 5749 177d A301     		.2byte	0x1a3
 5750 177f 66180000 		.4byte	0x1866
 5751 1783 150E0000 		.4byte	.LLST67
 5752 1787 2B       		.uleb128 0x2b
 5753 1788 9C020000 		.4byte	.LASF90
 5754 178c 01       		.byte	0x1
 5755 178d A501     		.2byte	0x1a5
 5756 178f 37000000 		.4byte	0x37
 5757 1793 01       		.uleb128 0x1
 5758 1794 50       		.byte	0x50
 5759 1795 1C       		.uleb128 0x1c
 5760 1796 DE0C0000 		.4byte	.LASF96
 5761 179a 6C180000 		.4byte	0x186c
 5762 179e 05       		.uleb128 0x5
 5763 179f 03       		.byte	0x3
 5764 17a0 98000000 		.4byte	__func__.8230
 5765 17a4 1E       		.uleb128 0x1e
 5766 17a5 08000000 		.4byte	.LBB52
 5767 17a9 1E000000 		.4byte	.LBE52-.LBB52
 5768 17ad 00180000 		.4byte	0x1800
 5769 17b1 23       		.uleb128 0x23
 5770 17b2 6C00     		.ascii	"l\000"
 5771 17b4 01       		.byte	0x1
 5772 17b5 A901     		.2byte	0x1a9
 5773 17b7 E3000000 		.4byte	0xe3
 5774 17bb 4F0E0000 		.4byte	.LLST68
 5775 17bf 20       		.uleb128 0x20
 5776 17c0 0C000000 		.4byte	.LVL267
 5777 17c4 0A1D0000 		.4byte	0x1d0a
 5778 17c8 21       		.uleb128 0x21
 5779 17c9 26000000 		.4byte	.LVL270
 5780 17cd 02       		.uleb128 0x2
 5781 17ce 74       		.byte	0x74
 5782 17cf 00       		.sleb128 0
 5783 17d0 19       		.uleb128 0x19
 5784 17d1 01       		.uleb128 0x1
 5785 17d2 50       		.byte	0x50
 5786 17d3 01       		.uleb128 0x1
 5787 17d4 30       		.byte	0x30
 5788 17d5 19       		.uleb128 0x19
 5789 17d6 01       		.uleb128 0x1
 5790 17d7 51       		.byte	0x51
 5791 17d8 05       		.uleb128 0x5
 5792 17d9 03       		.byte	0x3
 5793 17da 00000000 		.4byte	.LC1
 5794 17de 19       		.uleb128 0x19
 5795 17df 01       		.uleb128 0x1
 5796 17e0 52       		.byte	0x52
 5797 17e1 05       		.uleb128 0x5
 5798 17e2 03       		.byte	0x3
 5799 17e3 98000000 		.4byte	.LANCHOR1+24
 5800 17e7 19       		.uleb128 0x19
 5801 17e8 01       		.uleb128 0x1
 5802 17e9 53       		.byte	0x53
 5803 17ea 03       		.uleb128 0x3
 5804 17eb 0A       		.byte	0xa
 5805 17ec A901     		.2byte	0x1a9
ARM GAS  C:\Users\Phuong\AppData\Local\Temp\ccqGhR5Z.s 			page 118


 5806 17ee 19       		.uleb128 0x19
 5807 17ef 02       		.uleb128 0x2
 5808 17f0 7D       		.byte	0x7d
 5809 17f1 00       		.sleb128 0
 5810 17f2 01       		.uleb128 0x1
 5811 17f3 31       		.byte	0x31
 5812 17f4 19       		.uleb128 0x19
 5813 17f5 02       		.uleb128 0x2
 5814 17f6 7D       		.byte	0x7d
 5815 17f7 04       		.sleb128 4
 5816 17f8 05       		.uleb128 0x5
 5817 17f9 03       		.byte	0x3
 5818 17fa 04040000 		.4byte	.LC58
 5819 17fe 00       		.byte	0
 5820 17ff 00       		.byte	0
 5821 1800 1E       		.uleb128 0x1e
 5822 1801 36000000 		.4byte	.LBB53
 5823 1805 1E000000 		.4byte	.LBE53-.LBB53
 5824 1809 5C180000 		.4byte	0x185c
 5825 180d 23       		.uleb128 0x23
 5826 180e 6C00     		.ascii	"l\000"
 5827 1810 01       		.byte	0x1
 5828 1811 B001     		.2byte	0x1b0
 5829 1813 E3000000 		.4byte	0xe3
 5830 1817 830E0000 		.4byte	.LLST69
 5831 181b 20       		.uleb128 0x20
 5832 181c 3A000000 		.4byte	.LVL274
 5833 1820 0A1D0000 		.4byte	0x1d0a
 5834 1824 21       		.uleb128 0x21
 5835 1825 54000000 		.4byte	.LVL277
 5836 1829 02       		.uleb128 0x2
 5837 182a 74       		.byte	0x74
 5838 182b 00       		.sleb128 0
 5839 182c 19       		.uleb128 0x19
 5840 182d 01       		.uleb128 0x1
 5841 182e 50       		.byte	0x50
 5842 182f 01       		.uleb128 0x1
 5843 1830 30       		.byte	0x30
 5844 1831 19       		.uleb128 0x19
 5845 1832 01       		.uleb128 0x1
 5846 1833 51       		.byte	0x51
 5847 1834 05       		.uleb128 0x5
 5848 1835 03       		.byte	0x3
 5849 1836 00000000 		.4byte	.LC1
 5850 183a 19       		.uleb128 0x19
 5851 183b 01       		.uleb128 0x1
 5852 183c 52       		.byte	0x52
 5853 183d 05       		.uleb128 0x5
 5854 183e 03       		.byte	0x3
 5855 183f 98000000 		.4byte	.LANCHOR1+24
 5856 1843 19       		.uleb128 0x19
 5857 1844 01       		.uleb128 0x1
 5858 1845 53       		.byte	0x53
 5859 1846 03       		.uleb128 0x3
 5860 1847 0A       		.byte	0xa
 5861 1848 B001     		.2byte	0x1b0
 5862 184a 19       		.uleb128 0x19
ARM GAS  C:\Users\Phuong\AppData\Local\Temp\ccqGhR5Z.s 			page 119


 5863 184b 02       		.uleb128 0x2
 5864 184c 7D       		.byte	0x7d
 5865 184d 00       		.sleb128 0
 5866 184e 01       		.uleb128 0x1
 5867 184f 31       		.byte	0x31
 5868 1850 19       		.uleb128 0x19
 5869 1851 02       		.uleb128 0x2
 5870 1852 7D       		.byte	0x7d
 5871 1853 04       		.sleb128 4
 5872 1854 05       		.uleb128 0x5
 5873 1855 03       		.byte	0x3
 5874 1856 44040000 		.4byte	.LC75
 5875 185a 00       		.byte	0
 5876 185b 00       		.byte	0
 5877 185c 20       		.uleb128 0x20
 5878 185d 32000000 		.4byte	.LVL273
 5879 1861 801E0000 		.4byte	0x1e80
 5880 1865 00       		.byte	0
 5881 1866 06       		.uleb128 0x6
 5882 1867 04       		.byte	0x4
 5883 1868 98000000 		.4byte	0x98
 5884 186c 07       		.uleb128 0x7
 5885 186d A4120000 		.4byte	0x12a4
 5886 1871 29       		.uleb128 0x29
 5887 1872 C5070000 		.4byte	.LASF112
 5888 1876 01       		.byte	0x1
 5889 1877 BC01     		.2byte	0x1bc
 5890 1879 37000000 		.4byte	0x37
 5891 187d 00000000 		.4byte	.LFB10
 5892 1881 7C000000 		.4byte	.LFE10-.LFB10
 5893 1885 01       		.uleb128 0x1
 5894 1886 9C       		.byte	0x9c
 5895 1887 8A190000 		.4byte	0x198a
 5896 188b 16       		.uleb128 0x16
 5897 188c 960B0000 		.4byte	.LASF79
 5898 1890 01       		.byte	0x1
 5899 1891 BC01     		.2byte	0x1bc
 5900 1893 F9020000 		.4byte	0x2f9
 5901 1897 B70E0000 		.4byte	.LLST70
 5902 189b 16       		.uleb128 0x16
 5903 189c 7E030000 		.4byte	.LASF113
 5904 18a0 01       		.byte	0x1
 5905 18a1 BC01     		.2byte	0x1bc
 5906 18a3 8A190000 		.4byte	0x198a
 5907 18a7 F10E0000 		.4byte	.LLST71
 5908 18ab 2B       		.uleb128 0x2b
 5909 18ac 9C020000 		.4byte	.LASF90
 5910 18b0 01       		.byte	0x1
 5911 18b1 BE01     		.2byte	0x1be
 5912 18b3 37000000 		.4byte	0x37
 5913 18b7 01       		.uleb128 0x1
 5914 18b8 50       		.byte	0x50
 5915 18b9 1C       		.uleb128 0x1c
 5916 18ba DE0C0000 		.4byte	.LASF96
 5917 18be A0190000 		.4byte	0x19a0
 5918 18c2 05       		.uleb128 0x5
 5919 18c3 03       		.byte	0x3
ARM GAS  C:\Users\Phuong\AppData\Local\Temp\ccqGhR5Z.s 			page 120


 5920 18c4 B8000000 		.4byte	__func__.8242
 5921 18c8 1E       		.uleb128 0x1e
 5922 18c9 08000000 		.4byte	.LBB54
 5923 18cd 1E000000 		.4byte	.LBE54-.LBB54
 5924 18d1 24190000 		.4byte	0x1924
 5925 18d5 23       		.uleb128 0x23
 5926 18d6 6C00     		.ascii	"l\000"
 5927 18d8 01       		.byte	0x1
 5928 18d9 C201     		.2byte	0x1c2
 5929 18db E3000000 		.4byte	0xe3
 5930 18df 2B0F0000 		.4byte	.LLST72
 5931 18e3 20       		.uleb128 0x20
 5932 18e4 0C000000 		.4byte	.LVL285
 5933 18e8 0A1D0000 		.4byte	0x1d0a
 5934 18ec 21       		.uleb128 0x21
 5935 18ed 26000000 		.4byte	.LVL288
 5936 18f1 02       		.uleb128 0x2
 5937 18f2 74       		.byte	0x74
 5938 18f3 00       		.sleb128 0
 5939 18f4 19       		.uleb128 0x19
 5940 18f5 01       		.uleb128 0x1
 5941 18f6 50       		.byte	0x50
 5942 18f7 01       		.uleb128 0x1
 5943 18f8 30       		.byte	0x30
 5944 18f9 19       		.uleb128 0x19
 5945 18fa 01       		.uleb128 0x1
 5946 18fb 51       		.byte	0x51
 5947 18fc 05       		.uleb128 0x5
 5948 18fd 03       		.byte	0x3
 5949 18fe 00000000 		.4byte	.LC1
 5950 1902 19       		.uleb128 0x19
 5951 1903 01       		.uleb128 0x1
 5952 1904 52       		.byte	0x52
 5953 1905 05       		.uleb128 0x5
 5954 1906 03       		.byte	0x3
 5955 1907 B8000000 		.4byte	.LANCHOR1+56
 5956 190b 19       		.uleb128 0x19
 5957 190c 01       		.uleb128 0x1
 5958 190d 53       		.byte	0x53
 5959 190e 03       		.uleb128 0x3
 5960 190f 0A       		.byte	0xa
 5961 1910 C201     		.2byte	0x1c2
 5962 1912 19       		.uleb128 0x19
 5963 1913 02       		.uleb128 0x2
 5964 1914 7D       		.byte	0x7d
 5965 1915 00       		.sleb128 0
 5966 1916 01       		.uleb128 0x1
 5967 1917 31       		.byte	0x31
 5968 1918 19       		.uleb128 0x19
 5969 1919 02       		.uleb128 0x2
 5970 191a 7D       		.byte	0x7d
 5971 191b 04       		.sleb128 4
 5972 191c 05       		.uleb128 0x5
 5973 191d 03       		.byte	0x3
 5974 191e 04040000 		.4byte	.LC58
 5975 1922 00       		.byte	0
 5976 1923 00       		.byte	0
ARM GAS  C:\Users\Phuong\AppData\Local\Temp\ccqGhR5Z.s 			page 121


 5977 1924 1E       		.uleb128 0x1e
 5978 1925 36000000 		.4byte	.LBB55
 5979 1929 1E000000 		.4byte	.LBE55-.LBB55
 5980 192d 80190000 		.4byte	0x1980
 5981 1931 23       		.uleb128 0x23
 5982 1932 6C00     		.ascii	"l\000"
 5983 1934 01       		.byte	0x1
 5984 1935 C901     		.2byte	0x1c9
 5985 1937 E3000000 		.4byte	0xe3
 5986 193b 5F0F0000 		.4byte	.LLST73
 5987 193f 20       		.uleb128 0x20
 5988 1940 3A000000 		.4byte	.LVL292
 5989 1944 0A1D0000 		.4byte	0x1d0a
 5990 1948 21       		.uleb128 0x21
 5991 1949 54000000 		.4byte	.LVL295
 5992 194d 02       		.uleb128 0x2
 5993 194e 74       		.byte	0x74
 5994 194f 00       		.sleb128 0
 5995 1950 19       		.uleb128 0x19
 5996 1951 01       		.uleb128 0x1
 5997 1952 50       		.byte	0x50
 5998 1953 01       		.uleb128 0x1
 5999 1954 30       		.byte	0x30
 6000 1955 19       		.uleb128 0x19
 6001 1956 01       		.uleb128 0x1
 6002 1957 51       		.byte	0x51
 6003 1958 05       		.uleb128 0x5
 6004 1959 03       		.byte	0x3
 6005 195a 00000000 		.4byte	.LC1
 6006 195e 19       		.uleb128 0x19
 6007 195f 01       		.uleb128 0x1
 6008 1960 52       		.byte	0x52
 6009 1961 05       		.uleb128 0x5
 6010 1962 03       		.byte	0x3
 6011 1963 B8000000 		.4byte	.LANCHOR1+56
 6012 1967 19       		.uleb128 0x19
 6013 1968 01       		.uleb128 0x1
 6014 1969 53       		.byte	0x53
 6015 196a 03       		.uleb128 0x3
 6016 196b 0A       		.byte	0xa
 6017 196c C901     		.2byte	0x1c9
 6018 196e 19       		.uleb128 0x19
 6019 196f 02       		.uleb128 0x2
 6020 1970 7D       		.byte	0x7d
 6021 1971 00       		.sleb128 0
 6022 1972 01       		.uleb128 0x1
 6023 1973 31       		.byte	0x31
 6024 1974 19       		.uleb128 0x19
 6025 1975 02       		.uleb128 0x2
 6026 1976 7D       		.byte	0x7d
 6027 1977 04       		.sleb128 4
 6028 1978 05       		.uleb128 0x5
 6029 1979 03       		.byte	0x3
 6030 197a 60040000 		.4byte	.LC80
 6031 197e 00       		.byte	0
 6032 197f 00       		.byte	0
 6033 1980 20       		.uleb128 0x20
ARM GAS  C:\Users\Phuong\AppData\Local\Temp\ccqGhR5Z.s 			page 122


 6034 1981 32000000 		.4byte	.LVL291
 6035 1985 8B1E0000 		.4byte	0x1e8b
 6036 1989 00       		.byte	0
 6037 198a 06       		.uleb128 0x6
 6038 198b 04       		.byte	0x4
 6039 198c 92010000 		.4byte	0x192
 6040 1990 25       		.uleb128 0x25
 6041 1991 9E000000 		.4byte	0x9e
 6042 1995 A0190000 		.4byte	0x19a0
 6043 1999 26       		.uleb128 0x26
 6044 199a 88000000 		.4byte	0x88
 6045 199e 27       		.byte	0x27
 6046 199f 00       		.byte	0
 6047 19a0 07       		.uleb128 0x7
 6048 19a1 90190000 		.4byte	0x1990
 6049 19a5 29       		.uleb128 0x29
 6050 19a6 71080000 		.4byte	.LASF114
 6051 19aa 01       		.byte	0x1
 6052 19ab D501     		.2byte	0x1d5
 6053 19ad 37000000 		.4byte	0x37
 6054 19b1 00000000 		.4byte	.LFB11
 6055 19b5 30010000 		.4byte	.LFE11-.LFB11
 6056 19b9 01       		.uleb128 0x1
 6057 19ba 9C       		.byte	0x9c
 6058 19bb 421C0000 		.4byte	0x1c42
 6059 19bf 16       		.uleb128 0x16
 6060 19c0 960B0000 		.4byte	.LASF79
 6061 19c4 01       		.byte	0x1
 6062 19c5 D501     		.2byte	0x1d5
 6063 19c7 F9020000 		.4byte	0x2f9
 6064 19cb 930F0000 		.4byte	.LLST74
 6065 19cf 16       		.uleb128 0x16
 6066 19d0 E0050000 		.4byte	.LASF111
 6067 19d4 01       		.byte	0x1
 6068 19d5 D501     		.2byte	0x1d5
 6069 19d7 98000000 		.4byte	0x98
 6070 19db 52100000 		.4byte	.LLST75
 6071 19df 16       		.uleb128 0x16
 6072 19e0 D8030000 		.4byte	.LASF115
 6073 19e4 01       		.byte	0x1
 6074 19e5 D501     		.2byte	0x1d5
 6075 19e7 92010000 		.4byte	0x192
 6076 19eb AA100000 		.4byte	.LLST76
 6077 19ef 16       		.uleb128 0x16
 6078 19f0 9A070000 		.4byte	.LASF116
 6079 19f4 01       		.byte	0x1
 6080 19f5 D501     		.2byte	0x1d5
 6081 19f7 19010000 		.4byte	0x119
 6082 19fb 02110000 		.4byte	.LLST77
 6083 19ff 17       		.uleb128 0x17
 6084 1a00 9C020000 		.4byte	.LASF90
 6085 1a04 01       		.byte	0x1
 6086 1a05 D701     		.2byte	0x1d7
 6087 1a07 37000000 		.4byte	0x37
 6088 1a0b 44110000 		.4byte	.LLST78
 6089 1a0f 1C       		.uleb128 0x1c
 6090 1a10 DE0C0000 		.4byte	.LASF96
ARM GAS  C:\Users\Phuong\AppData\Local\Temp\ccqGhR5Z.s 			page 123


 6091 1a14 521C0000 		.4byte	0x1c52
 6092 1a18 05       		.uleb128 0x5
 6093 1a19 03       		.byte	0x3
 6094 1a1a E0000000 		.4byte	__func__.8256
 6095 1a1e 1E       		.uleb128 0x1e
 6096 1a1f 10000000 		.4byte	.LBB56
 6097 1a23 1E000000 		.4byte	.LBE56-.LBB56
 6098 1a27 7A1A0000 		.4byte	0x1a7a
 6099 1a2b 23       		.uleb128 0x23
 6100 1a2c 6C00     		.ascii	"l\000"
 6101 1a2e 01       		.byte	0x1
 6102 1a2f DB01     		.2byte	0x1db
 6103 1a31 E3000000 		.4byte	0xe3
 6104 1a35 65110000 		.4byte	.LLST79
 6105 1a39 20       		.uleb128 0x20
 6106 1a3a 14000000 		.4byte	.LVL303
 6107 1a3e 0A1D0000 		.4byte	0x1d0a
 6108 1a42 21       		.uleb128 0x21
 6109 1a43 2E000000 		.4byte	.LVL306
 6110 1a47 02       		.uleb128 0x2
 6111 1a48 74       		.byte	0x74
 6112 1a49 00       		.sleb128 0
 6113 1a4a 19       		.uleb128 0x19
 6114 1a4b 01       		.uleb128 0x1
 6115 1a4c 50       		.byte	0x50
 6116 1a4d 01       		.uleb128 0x1
 6117 1a4e 30       		.byte	0x30
 6118 1a4f 19       		.uleb128 0x19
 6119 1a50 01       		.uleb128 0x1
 6120 1a51 51       		.byte	0x51
 6121 1a52 05       		.uleb128 0x5
 6122 1a53 03       		.byte	0x3
 6123 1a54 00000000 		.4byte	.LC1
 6124 1a58 19       		.uleb128 0x19
 6125 1a59 01       		.uleb128 0x1
 6126 1a5a 52       		.byte	0x52
 6127 1a5b 05       		.uleb128 0x5
 6128 1a5c 03       		.byte	0x3
 6129 1a5d E0000000 		.4byte	.LANCHOR1+96
 6130 1a61 19       		.uleb128 0x19
 6131 1a62 01       		.uleb128 0x1
 6132 1a63 53       		.byte	0x53
 6133 1a64 03       		.uleb128 0x3
 6134 1a65 0A       		.byte	0xa
 6135 1a66 DB01     		.2byte	0x1db
 6136 1a68 19       		.uleb128 0x19
 6137 1a69 02       		.uleb128 0x2
 6138 1a6a 7D       		.byte	0x7d
 6139 1a6b 00       		.sleb128 0
 6140 1a6c 01       		.uleb128 0x1
 6141 1a6d 31       		.byte	0x31
 6142 1a6e 19       		.uleb128 0x19
 6143 1a6f 02       		.uleb128 0x2
 6144 1a70 7D       		.byte	0x7d
 6145 1a71 04       		.sleb128 4
 6146 1a72 05       		.uleb128 0x5
 6147 1a73 03       		.byte	0x3
ARM GAS  C:\Users\Phuong\AppData\Local\Temp\ccqGhR5Z.s 			page 124


 6148 1a74 04040000 		.4byte	.LC58
 6149 1a78 00       		.byte	0
 6150 1a79 00       		.byte	0
 6151 1a7a 1E       		.uleb128 0x1e
 6152 1a7b 3A000000 		.4byte	.LBB57
 6153 1a7f 1E000000 		.4byte	.LBE57-.LBB57
 6154 1a83 D61A0000 		.4byte	0x1ad6
 6155 1a87 23       		.uleb128 0x23
 6156 1a88 6C00     		.ascii	"l\000"
 6157 1a8a 01       		.byte	0x1
 6158 1a8b E201     		.2byte	0x1e2
 6159 1a8d E3000000 		.4byte	0xe3
 6160 1a91 99110000 		.4byte	.LLST80
 6161 1a95 20       		.uleb128 0x20
 6162 1a96 3E000000 		.4byte	.LVL309
 6163 1a9a 0A1D0000 		.4byte	0x1d0a
 6164 1a9e 21       		.uleb128 0x21
 6165 1a9f 58000000 		.4byte	.LVL312
 6166 1aa3 02       		.uleb128 0x2
 6167 1aa4 74       		.byte	0x74
 6168 1aa5 00       		.sleb128 0
 6169 1aa6 19       		.uleb128 0x19
 6170 1aa7 01       		.uleb128 0x1
 6171 1aa8 50       		.byte	0x50
 6172 1aa9 01       		.uleb128 0x1
 6173 1aaa 30       		.byte	0x30
 6174 1aab 19       		.uleb128 0x19
 6175 1aac 01       		.uleb128 0x1
 6176 1aad 51       		.byte	0x51
 6177 1aae 05       		.uleb128 0x5
 6178 1aaf 03       		.byte	0x3
 6179 1ab0 00000000 		.4byte	.LC1
 6180 1ab4 19       		.uleb128 0x19
 6181 1ab5 01       		.uleb128 0x1
 6182 1ab6 52       		.byte	0x52
 6183 1ab7 05       		.uleb128 0x5
 6184 1ab8 03       		.byte	0x3
 6185 1ab9 E0000000 		.4byte	.LANCHOR1+96
 6186 1abd 19       		.uleb128 0x19
 6187 1abe 01       		.uleb128 0x1
 6188 1abf 53       		.byte	0x53
 6189 1ac0 03       		.uleb128 0x3
 6190 1ac1 0A       		.byte	0xa
 6191 1ac2 E201     		.2byte	0x1e2
 6192 1ac4 19       		.uleb128 0x19
 6193 1ac5 02       		.uleb128 0x2
 6194 1ac6 7D       		.byte	0x7d
 6195 1ac7 00       		.sleb128 0
 6196 1ac8 01       		.uleb128 0x1
 6197 1ac9 31       		.byte	0x31
 6198 1aca 19       		.uleb128 0x19
 6199 1acb 02       		.uleb128 0x2
 6200 1acc 7D       		.byte	0x7d
 6201 1acd 04       		.sleb128 4
 6202 1ace 05       		.uleb128 0x5
 6203 1acf 03       		.byte	0x3
 6204 1ad0 84040000 		.4byte	.LC85
ARM GAS  C:\Users\Phuong\AppData\Local\Temp\ccqGhR5Z.s 			page 125


 6205 1ad4 00       		.byte	0
 6206 1ad5 00       		.byte	0
 6207 1ad6 2C       		.uleb128 0x2c
 6208 1ad7 5E000000 		.4byte	.LBB58
 6209 1adb A8000000 		.4byte	.LBE58-.LBB58
 6210 1adf 2B       		.uleb128 0x2b
 6211 1ae0 69080000 		.4byte	.LASF117
 6212 1ae4 01       		.byte	0x1
 6213 1ae5 E701     		.2byte	0x1e7
 6214 1ae7 98000000 		.4byte	0x98
 6215 1aeb 02       		.uleb128 0x2
 6216 1aec 91       		.byte	0x91
 6217 1aed 64       		.sleb128 -28
 6218 1aee 1E       		.uleb128 0x1e
 6219 1aef 6A000000 		.4byte	.LBB59
 6220 1af3 1E000000 		.4byte	.LBE59-.LBB59
 6221 1af7 4A1B0000 		.4byte	0x1b4a
 6222 1afb 23       		.uleb128 0x23
 6223 1afc 6C00     		.ascii	"l\000"
 6224 1afe 01       		.byte	0x1
 6225 1aff EA01     		.2byte	0x1ea
 6226 1b01 E3000000 		.4byte	0xe3
 6227 1b05 CD110000 		.4byte	.LLST81
 6228 1b09 20       		.uleb128 0x20
 6229 1b0a 6E000000 		.4byte	.LVL317
 6230 1b0e 0A1D0000 		.4byte	0x1d0a
 6231 1b12 21       		.uleb128 0x21
 6232 1b13 88000000 		.4byte	.LVL320
 6233 1b17 02       		.uleb128 0x2
 6234 1b18 74       		.byte	0x74
 6235 1b19 00       		.sleb128 0
 6236 1b1a 19       		.uleb128 0x19
 6237 1b1b 01       		.uleb128 0x1
 6238 1b1c 50       		.byte	0x50
 6239 1b1d 01       		.uleb128 0x1
 6240 1b1e 30       		.byte	0x30
 6241 1b1f 19       		.uleb128 0x19
 6242 1b20 01       		.uleb128 0x1
 6243 1b21 51       		.byte	0x51
 6244 1b22 05       		.uleb128 0x5
 6245 1b23 03       		.byte	0x3
 6246 1b24 00000000 		.4byte	.LC1
 6247 1b28 19       		.uleb128 0x19
 6248 1b29 01       		.uleb128 0x1
 6249 1b2a 52       		.byte	0x52
 6250 1b2b 05       		.uleb128 0x5
 6251 1b2c 03       		.byte	0x3
 6252 1b2d E0000000 		.4byte	.LANCHOR1+96
 6253 1b31 19       		.uleb128 0x19
 6254 1b32 01       		.uleb128 0x1
 6255 1b33 53       		.byte	0x53
 6256 1b34 03       		.uleb128 0x3
 6257 1b35 0A       		.byte	0xa
 6258 1b36 EA01     		.2byte	0x1ea
 6259 1b38 19       		.uleb128 0x19
 6260 1b39 02       		.uleb128 0x2
 6261 1b3a 7D       		.byte	0x7d
ARM GAS  C:\Users\Phuong\AppData\Local\Temp\ccqGhR5Z.s 			page 126


 6262 1b3b 00       		.sleb128 0
 6263 1b3c 01       		.uleb128 0x1
 6264 1b3d 31       		.byte	0x31
 6265 1b3e 19       		.uleb128 0x19
 6266 1b3f 02       		.uleb128 0x2
 6267 1b40 7D       		.byte	0x7d
 6268 1b41 04       		.sleb128 4
 6269 1b42 05       		.uleb128 0x5
 6270 1b43 03       		.byte	0x3
 6271 1b44 A0040000 		.4byte	.LC87
 6272 1b48 00       		.byte	0
 6273 1b49 00       		.byte	0
 6274 1b4a 1E       		.uleb128 0x1e
 6275 1b4b 9A000000 		.4byte	.LBB60
 6276 1b4f 1E000000 		.4byte	.LBE60-.LBB60
 6277 1b53 A61B0000 		.4byte	0x1ba6
 6278 1b57 23       		.uleb128 0x23
 6279 1b58 6C00     		.ascii	"l\000"
 6280 1b5a 01       		.byte	0x1
 6281 1b5b F101     		.2byte	0x1f1
 6282 1b5d E3000000 		.4byte	0xe3
 6283 1b61 01120000 		.4byte	.LLST82
 6284 1b65 20       		.uleb128 0x20
 6285 1b66 9E000000 		.4byte	.LVL323
 6286 1b6a 0A1D0000 		.4byte	0x1d0a
 6287 1b6e 21       		.uleb128 0x21
 6288 1b6f B8000000 		.4byte	.LVL326
 6289 1b73 02       		.uleb128 0x2
 6290 1b74 74       		.byte	0x74
 6291 1b75 00       		.sleb128 0
 6292 1b76 19       		.uleb128 0x19
 6293 1b77 01       		.uleb128 0x1
 6294 1b78 50       		.byte	0x50
 6295 1b79 01       		.uleb128 0x1
 6296 1b7a 30       		.byte	0x30
 6297 1b7b 19       		.uleb128 0x19
 6298 1b7c 01       		.uleb128 0x1
 6299 1b7d 51       		.byte	0x51
 6300 1b7e 05       		.uleb128 0x5
 6301 1b7f 03       		.byte	0x3
 6302 1b80 00000000 		.4byte	.LC1
 6303 1b84 19       		.uleb128 0x19
 6304 1b85 01       		.uleb128 0x1
 6305 1b86 52       		.byte	0x52
 6306 1b87 05       		.uleb128 0x5
 6307 1b88 03       		.byte	0x3
 6308 1b89 E0000000 		.4byte	.LANCHOR1+96
 6309 1b8d 19       		.uleb128 0x19
 6310 1b8e 01       		.uleb128 0x1
 6311 1b8f 53       		.byte	0x53
 6312 1b90 03       		.uleb128 0x3
 6313 1b91 0A       		.byte	0xa
 6314 1b92 F101     		.2byte	0x1f1
 6315 1b94 19       		.uleb128 0x19
 6316 1b95 02       		.uleb128 0x2
 6317 1b96 7D       		.byte	0x7d
 6318 1b97 00       		.sleb128 0
ARM GAS  C:\Users\Phuong\AppData\Local\Temp\ccqGhR5Z.s 			page 127


 6319 1b98 01       		.uleb128 0x1
 6320 1b99 31       		.byte	0x31
 6321 1b9a 19       		.uleb128 0x19
 6322 1b9b 02       		.uleb128 0x2
 6323 1b9c 7D       		.byte	0x7d
 6324 1b9d 04       		.sleb128 4
 6325 1b9e 05       		.uleb128 0x5
 6326 1b9f 03       		.byte	0x3
 6327 1ba0 BC040000 		.4byte	.LC89
 6328 1ba4 00       		.byte	0
 6329 1ba5 00       		.byte	0
 6330 1ba6 1E       		.uleb128 0x1e
 6331 1ba7 CC000000 		.4byte	.LBB61
 6332 1bab 1E000000 		.4byte	.LBE61-.LBB61
 6333 1baf 021C0000 		.4byte	0x1c02
 6334 1bb3 23       		.uleb128 0x23
 6335 1bb4 6C00     		.ascii	"l\000"
 6336 1bb6 01       		.byte	0x1
 6337 1bb7 F801     		.2byte	0x1f8
 6338 1bb9 E3000000 		.4byte	0xe3
 6339 1bbd 35120000 		.4byte	.LLST83
 6340 1bc1 20       		.uleb128 0x20
 6341 1bc2 D0000000 		.4byte	.LVL329
 6342 1bc6 0A1D0000 		.4byte	0x1d0a
 6343 1bca 21       		.uleb128 0x21
 6344 1bcb EA000000 		.4byte	.LVL332
 6345 1bcf 02       		.uleb128 0x2
 6346 1bd0 74       		.byte	0x74
 6347 1bd1 00       		.sleb128 0
 6348 1bd2 19       		.uleb128 0x19
 6349 1bd3 01       		.uleb128 0x1
 6350 1bd4 50       		.byte	0x50
 6351 1bd5 01       		.uleb128 0x1
 6352 1bd6 30       		.byte	0x30
 6353 1bd7 19       		.uleb128 0x19
 6354 1bd8 01       		.uleb128 0x1
 6355 1bd9 51       		.byte	0x51
 6356 1bda 05       		.uleb128 0x5
 6357 1bdb 03       		.byte	0x3
 6358 1bdc 00000000 		.4byte	.LC1
 6359 1be0 19       		.uleb128 0x19
 6360 1be1 01       		.uleb128 0x1
 6361 1be2 52       		.byte	0x52
 6362 1be3 05       		.uleb128 0x5
 6363 1be4 03       		.byte	0x3
 6364 1be5 E0000000 		.4byte	.LANCHOR1+96
 6365 1be9 19       		.uleb128 0x19
 6366 1bea 01       		.uleb128 0x1
 6367 1beb 53       		.byte	0x53
 6368 1bec 03       		.uleb128 0x3
 6369 1bed 0A       		.byte	0xa
 6370 1bee F801     		.2byte	0x1f8
 6371 1bf0 19       		.uleb128 0x19
 6372 1bf1 02       		.uleb128 0x2
 6373 1bf2 7D       		.byte	0x7d
 6374 1bf3 00       		.sleb128 0
 6375 1bf4 01       		.uleb128 0x1
ARM GAS  C:\Users\Phuong\AppData\Local\Temp\ccqGhR5Z.s 			page 128


 6376 1bf5 31       		.byte	0x31
 6377 1bf6 19       		.uleb128 0x19
 6378 1bf7 02       		.uleb128 0x2
 6379 1bf8 7D       		.byte	0x7d
 6380 1bf9 04       		.sleb128 4
 6381 1bfa 05       		.uleb128 0x5
 6382 1bfb 03       		.byte	0x3
 6383 1bfc D8040000 		.4byte	.LC91
 6384 1c00 00       		.byte	0
 6385 1c01 00       		.byte	0
 6386 1c02 18       		.uleb128 0x18
 6387 1c03 66000000 		.4byte	.LVL316
 6388 1c07 801E0000 		.4byte	0x1e80
 6389 1c0b 161C0000 		.4byte	0x1c16
 6390 1c0f 19       		.uleb128 0x19
 6391 1c10 01       		.uleb128 0x1
 6392 1c11 51       		.byte	0x51
 6393 1c12 02       		.uleb128 0x2
 6394 1c13 91       		.byte	0x91
 6395 1c14 64       		.sleb128 -28
 6396 1c15 00       		.byte	0
 6397 1c16 18       		.uleb128 0x18
 6398 1c17 96000000 		.4byte	.LVL322
 6399 1c1b 961E0000 		.4byte	0x1e96
 6400 1c1f 2A1C0000 		.4byte	0x1c2a
 6401 1c23 19       		.uleb128 0x19
 6402 1c24 01       		.uleb128 0x1
 6403 1c25 50       		.byte	0x50
 6404 1c26 02       		.uleb128 0x2
 6405 1c27 75       		.byte	0x75
 6406 1c28 00       		.sleb128 0
 6407 1c29 00       		.byte	0
 6408 1c2a 1A       		.uleb128 0x1a
 6409 1c2b C8000000 		.4byte	.LVL328
 6410 1c2f A11E0000 		.4byte	0x1ea1
 6411 1c33 19       		.uleb128 0x19
 6412 1c34 01       		.uleb128 0x1
 6413 1c35 51       		.byte	0x51
 6414 1c36 02       		.uleb128 0x2
 6415 1c37 76       		.byte	0x76
 6416 1c38 00       		.sleb128 0
 6417 1c39 19       		.uleb128 0x19
 6418 1c3a 01       		.uleb128 0x1
 6419 1c3b 52       		.byte	0x52
 6420 1c3c 02       		.uleb128 0x2
 6421 1c3d 77       		.byte	0x77
 6422 1c3e 00       		.sleb128 0
 6423 1c3f 00       		.byte	0
 6424 1c40 00       		.byte	0
 6425 1c41 00       		.byte	0
 6426 1c42 25       		.uleb128 0x25
 6427 1c43 9E000000 		.4byte	0x9e
 6428 1c47 521C0000 		.4byte	0x1c52
 6429 1c4b 26       		.uleb128 0x26
 6430 1c4c 88000000 		.4byte	0x88
 6431 1c50 28       		.byte	0x28
 6432 1c51 00       		.byte	0
ARM GAS  C:\Users\Phuong\AppData\Local\Temp\ccqGhR5Z.s 			page 129


 6433 1c52 07       		.uleb128 0x7
 6434 1c53 421C0000 		.4byte	0x1c42
 6435 1c57 2A       		.uleb128 0x2a
 6436 1c58 B6000000 		.4byte	.LASF119
 6437 1c5c 01       		.byte	0x1
 6438 1c5d 0702     		.2byte	0x207
 6439 1c5f 00000000 		.4byte	.LFB12
 6440 1c63 38000000 		.4byte	.LFE12-.LFB12
 6441 1c67 01       		.uleb128 0x1
 6442 1c68 9C       		.byte	0x9c
 6443 1c69 F51C0000 		.4byte	0x1cf5
 6444 1c6d 16       		.uleb128 0x16
 6445 1c6e 960B0000 		.4byte	.LASF79
 6446 1c72 01       		.byte	0x1
 6447 1c73 0702     		.2byte	0x207
 6448 1c75 F9020000 		.4byte	0x2f9
 6449 1c79 69120000 		.4byte	.LLST84
 6450 1c7d 16       		.uleb128 0x16
 6451 1c7e 470A0000 		.4byte	.LASF120
 6452 1c82 01       		.byte	0x1
 6453 1c83 0702     		.2byte	0x207
 6454 1c85 80010000 		.4byte	0x180
 6455 1c89 8A120000 		.4byte	.LLST85
 6456 1c8d 1C       		.uleb128 0x1c
 6457 1c8e DE0C0000 		.4byte	.LASF96
 6458 1c92 051D0000 		.4byte	0x1d05
 6459 1c96 05       		.uleb128 0x5
 6460 1c97 03       		.byte	0x3
 6461 1c98 0C010000 		.4byte	__func__.8277
 6462 1c9c 2C       		.uleb128 0x2c
 6463 1c9d 08000000 		.4byte	.LBB62
 6464 1ca1 1C000000 		.4byte	.LBE62-.LBB62
 6465 1ca5 23       		.uleb128 0x23
 6466 1ca6 6C00     		.ascii	"l\000"
 6467 1ca8 01       		.byte	0x1
 6468 1ca9 0B02     		.2byte	0x20b
 6469 1cab E3000000 		.4byte	0xe3
 6470 1caf AB120000 		.4byte	.LLST86
 6471 1cb3 20       		.uleb128 0x20
 6472 1cb4 0C000000 		.4byte	.LVL350
 6473 1cb8 0A1D0000 		.4byte	0x1d0a
 6474 1cbc 21       		.uleb128 0x21
 6475 1cbd 24000000 		.4byte	.LVL353
 6476 1cc1 02       		.uleb128 0x2
 6477 1cc2 74       		.byte	0x74
 6478 1cc3 00       		.sleb128 0
 6479 1cc4 19       		.uleb128 0x19
 6480 1cc5 01       		.uleb128 0x1
 6481 1cc6 50       		.byte	0x50
 6482 1cc7 01       		.uleb128 0x1
 6483 1cc8 30       		.byte	0x30
 6484 1cc9 19       		.uleb128 0x19
 6485 1cca 01       		.uleb128 0x1
 6486 1ccb 51       		.byte	0x51
 6487 1ccc 05       		.uleb128 0x5
 6488 1ccd 03       		.byte	0x3
 6489 1cce 00000000 		.4byte	.LC1
ARM GAS  C:\Users\Phuong\AppData\Local\Temp\ccqGhR5Z.s 			page 130


 6490 1cd2 19       		.uleb128 0x19
 6491 1cd3 01       		.uleb128 0x1
 6492 1cd4 52       		.byte	0x52
 6493 1cd5 05       		.uleb128 0x5
 6494 1cd6 03       		.byte	0x3
 6495 1cd7 0C010000 		.4byte	.LANCHOR2+12
 6496 1cdb 19       		.uleb128 0x19
 6497 1cdc 01       		.uleb128 0x1
 6498 1cdd 53       		.byte	0x53
 6499 1cde 03       		.uleb128 0x3
 6500 1cdf 0A       		.byte	0xa
 6501 1ce0 0B02     		.2byte	0x20b
 6502 1ce2 19       		.uleb128 0x19
 6503 1ce3 02       		.uleb128 0x2
 6504 1ce4 7D       		.byte	0x7d
 6505 1ce5 00       		.sleb128 0
 6506 1ce6 01       		.uleb128 0x1
 6507 1ce7 31       		.byte	0x31
 6508 1ce8 19       		.uleb128 0x19
 6509 1ce9 02       		.uleb128 0x2
 6510 1cea 7D       		.byte	0x7d
 6511 1ceb 04       		.sleb128 4
 6512 1cec 05       		.uleb128 0x5
 6513 1ced 03       		.byte	0x3
 6514 1cee 04040000 		.4byte	.LC58
 6515 1cf2 00       		.byte	0
 6516 1cf3 00       		.byte	0
 6517 1cf4 00       		.byte	0
 6518 1cf5 25       		.uleb128 0x25
 6519 1cf6 9E000000 		.4byte	0x9e
 6520 1cfa 051D0000 		.4byte	0x1d05
 6521 1cfe 26       		.uleb128 0x26
 6522 1cff 88000000 		.4byte	0x88
 6523 1d03 19       		.byte	0x19
 6524 1d04 00       		.byte	0
 6525 1d05 07       		.uleb128 0x7
 6526 1d06 F51C0000 		.4byte	0x1cf5
 6527 1d0a 2D       		.uleb128 0x2d
 6528 1d0b CE010000 		.4byte	.LASF121
 6529 1d0f CE010000 		.4byte	.LASF121
 6530 1d13 05       		.byte	0x5
 6531 1d14 9D       		.byte	0x9d
 6532 1d15 2D       		.uleb128 0x2d
 6533 1d16 32060000 		.4byte	.LASF122
 6534 1d1a 32060000 		.4byte	.LASF122
 6535 1d1e 06       		.byte	0x6
 6536 1d1f 64       		.byte	0x64
 6537 1d20 2D       		.uleb128 0x2d
 6538 1d21 85020000 		.4byte	.LASF123
 6539 1d25 85020000 		.4byte	.LASF123
 6540 1d29 06       		.byte	0x6
 6541 1d2a 66       		.byte	0x66
 6542 1d2b 2D       		.uleb128 0x2d
 6543 1d2c EA0A0000 		.4byte	.LASF124
 6544 1d30 EA0A0000 		.4byte	.LASF124
 6545 1d34 06       		.byte	0x6
 6546 1d35 65       		.byte	0x65
ARM GAS  C:\Users\Phuong\AppData\Local\Temp\ccqGhR5Z.s 			page 131


 6547 1d36 2D       		.uleb128 0x2d
 6548 1d37 A8050000 		.4byte	.LASF125
 6549 1d3b A8050000 		.4byte	.LASF125
 6550 1d3f 0F       		.byte	0xf
 6551 1d40 2D       		.byte	0x2d
 6552 1d41 2D       		.uleb128 0x2d
 6553 1d42 C3080000 		.4byte	.LASF126
 6554 1d46 C3080000 		.4byte	.LASF126
 6555 1d4a 0F       		.byte	0xf
 6556 1d4b 2B       		.byte	0x2b
 6557 1d4c 2D       		.uleb128 0x2d
 6558 1d4d B5010000 		.4byte	.LASF127
 6559 1d51 B5010000 		.4byte	.LASF127
 6560 1d55 0E       		.byte	0xe
 6561 1d56 1E       		.byte	0x1e
 6562 1d57 2D       		.uleb128 0x2d
 6563 1d58 D6090000 		.4byte	.LASF128
 6564 1d5c D6090000 		.4byte	.LASF128
 6565 1d60 0F       		.byte	0xf
 6566 1d61 34       		.byte	0x34
 6567 1d62 2D       		.uleb128 0x2d
 6568 1d63 0F0B0000 		.4byte	.LASF129
 6569 1d67 0F0B0000 		.4byte	.LASF129
 6570 1d6b 0E       		.byte	0xe
 6571 1d6c 1C       		.byte	0x1c
 6572 1d6d 2D       		.uleb128 0x2d
 6573 1d6e 68060000 		.4byte	.LASF130
 6574 1d72 68060000 		.4byte	.LASF130
 6575 1d76 06       		.byte	0x6
 6576 1d77 6A       		.byte	0x6a
 6577 1d78 2D       		.uleb128 0x2d
 6578 1d79 A70B0000 		.4byte	.LASF131
 6579 1d7d A70B0000 		.4byte	.LASF131
 6580 1d81 0F       		.byte	0xf
 6581 1d82 30       		.byte	0x30
 6582 1d83 2D       		.uleb128 0x2d
 6583 1d84 F7050000 		.4byte	.LASF132
 6584 1d88 F7050000 		.4byte	.LASF132
 6585 1d8c 0F       		.byte	0xf
 6586 1d8d 32       		.byte	0x32
 6587 1d8e 2D       		.uleb128 0x2d
 6588 1d8f D2080000 		.4byte	.LASF133
 6589 1d93 D2080000 		.4byte	.LASF133
 6590 1d97 0C       		.byte	0xc
 6591 1d98 1E       		.byte	0x1e
 6592 1d99 2D       		.uleb128 0x2d
 6593 1d9a A2010000 		.4byte	.LASF134
 6594 1d9e A2010000 		.4byte	.LASF134
 6595 1da2 0F       		.byte	0xf
 6596 1da3 2E       		.byte	0x2e
 6597 1da4 2D       		.uleb128 0x2d
 6598 1da5 28090000 		.4byte	.LASF135
 6599 1da9 28090000 		.4byte	.LASF135
 6600 1dad 0C       		.byte	0xc
 6601 1dae 1C       		.byte	0x1c
 6602 1daf 2D       		.uleb128 0x2d
 6603 1db0 830B0000 		.4byte	.LASF136
ARM GAS  C:\Users\Phuong\AppData\Local\Temp\ccqGhR5Z.s 			page 132


 6604 1db4 830B0000 		.4byte	.LASF136
 6605 1db8 0F       		.byte	0xf
 6606 1db9 38       		.byte	0x38
 6607 1dba 2D       		.uleb128 0x2d
 6608 1dbb E8010000 		.4byte	.LASF137
 6609 1dbf E8010000 		.4byte	.LASF137
 6610 1dc3 0F       		.byte	0xf
 6611 1dc4 3D       		.byte	0x3d
 6612 1dc5 2D       		.uleb128 0x2d
 6613 1dc6 1E000000 		.4byte	.LASF138
 6614 1dca 1E000000 		.4byte	.LASF138
 6615 1dce 0F       		.byte	0xf
 6616 1dcf 42       		.byte	0x42
 6617 1dd0 2D       		.uleb128 0x2d
 6618 1dd1 6D000000 		.4byte	.LASF139
 6619 1dd5 6D000000 		.4byte	.LASF139
 6620 1dd9 0F       		.byte	0xf
 6621 1dda 3A       		.byte	0x3a
 6622 1ddb 2D       		.uleb128 0x2d
 6623 1ddc D50A0000 		.4byte	.LASF140
 6624 1de0 D50A0000 		.4byte	.LASF140
 6625 1de4 06       		.byte	0x6
 6626 1de5 3E       		.byte	0x3e
 6627 1de6 2D       		.uleb128 0x2d
 6628 1de7 50030000 		.4byte	.LASF141
 6629 1deb 50030000 		.4byte	.LASF141
 6630 1def 06       		.byte	0x6
 6631 1df0 69       		.byte	0x69
 6632 1df1 2D       		.uleb128 0x2d
 6633 1df2 E7080000 		.4byte	.LASF142
 6634 1df6 E7080000 		.4byte	.LASF142
 6635 1dfa 11       		.byte	0x11
 6636 1dfb 1F       		.byte	0x1f
 6637 1dfc 2D       		.uleb128 0x2d
 6638 1dfd 7A050000 		.4byte	.LASF143
 6639 1e01 7A050000 		.4byte	.LASF143
 6640 1e05 0F       		.byte	0xf
 6641 1e06 36       		.byte	0x36
 6642 1e07 2D       		.uleb128 0x2d
 6643 1e08 07070000 		.4byte	.LASF144
 6644 1e0c 07070000 		.4byte	.LASF144
 6645 1e10 0E       		.byte	0xe
 6646 1e11 1D       		.byte	0x1d
 6647 1e12 2D       		.uleb128 0x2d
 6648 1e13 21010000 		.4byte	.LASF145
 6649 1e17 21010000 		.4byte	.LASF145
 6650 1e1b 12       		.byte	0x12
 6651 1e1c 1D       		.byte	0x1d
 6652 1e1d 2D       		.uleb128 0x2d
 6653 1e1e 590B0000 		.4byte	.LASF146
 6654 1e22 590B0000 		.4byte	.LASF146
 6655 1e26 13       		.byte	0x13
 6656 1e27 1D       		.byte	0x1d
 6657 1e28 2D       		.uleb128 0x2d
 6658 1e29 0C050000 		.4byte	.LASF147
 6659 1e2d 0C050000 		.4byte	.LASF147
 6660 1e31 0C       		.byte	0xc
ARM GAS  C:\Users\Phuong\AppData\Local\Temp\ccqGhR5Z.s 			page 133


 6661 1e32 1D       		.byte	0x1d
 6662 1e33 2D       		.uleb128 0x2d
 6663 1e34 D0000000 		.4byte	.LASF148
 6664 1e38 D0000000 		.4byte	.LASF148
 6665 1e3c 14       		.byte	0x14
 6666 1e3d 1D       		.byte	0x1d
 6667 1e3e 2D       		.uleb128 0x2d
 6668 1e3f 88000000 		.4byte	.LASF149
 6669 1e43 88000000 		.4byte	.LASF149
 6670 1e47 15       		.byte	0x15
 6671 1e48 1F       		.byte	0x1f
 6672 1e49 2D       		.uleb128 0x2d
 6673 1e4a 240D0000 		.4byte	.LASF150
 6674 1e4e 240D0000 		.4byte	.LASF150
 6675 1e52 0D       		.byte	0xd
 6676 1e53 1D       		.byte	0x1d
 6677 1e54 2D       		.uleb128 0x2d
 6678 1e55 49030000 		.4byte	.LASF151
 6679 1e59 49030000 		.4byte	.LASF151
 6680 1e5d 16       		.byte	0x16
 6681 1e5e 64       		.byte	0x64
 6682 1e5f 2D       		.uleb128 0x2d
 6683 1e60 BB090000 		.4byte	.LASF152
 6684 1e64 BB090000 		.4byte	.LASF152
 6685 1e68 0A       		.byte	0xa
 6686 1e69 4A       		.byte	0x4a
 6687 1e6a 2D       		.uleb128 0x2d
 6688 1e6b 6B0A0000 		.4byte	.LASF153
 6689 1e6f 6B0A0000 		.4byte	.LASF153
 6690 1e73 0A       		.byte	0xa
 6691 1e74 4B       		.byte	0x4b
 6692 1e75 2D       		.uleb128 0x2d
 6693 1e76 75050000 		.4byte	.LASF154
 6694 1e7a 75050000 		.4byte	.LASF154
 6695 1e7e 16       		.byte	0x16
 6696 1e7f 59       		.byte	0x59
 6697 1e80 2D       		.uleb128 0x2d
 6698 1e81 7D010000 		.4byte	.LASF155
 6699 1e85 7D010000 		.4byte	.LASF155
 6700 1e89 0A       		.byte	0xa
 6701 1e8a 47       		.byte	0x47
 6702 1e8b 2D       		.uleb128 0x2d
 6703 1e8c E7030000 		.4byte	.LASF156
 6704 1e90 E7030000 		.4byte	.LASF156
 6705 1e94 0A       		.byte	0xa
 6706 1e95 48       		.byte	0x48
 6707 1e96 2D       		.uleb128 0x2d
 6708 1e97 7B0D0000 		.4byte	.LASF157
 6709 1e9b 7B0D0000 		.4byte	.LASF157
 6710 1e9f 17       		.byte	0x17
 6711 1ea0 1C       		.byte	0x1c
 6712 1ea1 2D       		.uleb128 0x2d
 6713 1ea2 7C070000 		.4byte	.LASF158
 6714 1ea6 7C070000 		.4byte	.LASF158
 6715 1eaa 0A       		.byte	0xa
 6716 1eab 49       		.byte	0x49
 6717 1eac 00       		.byte	0
ARM GAS  C:\Users\Phuong\AppData\Local\Temp\ccqGhR5Z.s 			page 134


 6718              		.section	.debug_abbrev,"",%progbits
 6719              	.Ldebug_abbrev0:
 6720 0000 01       		.uleb128 0x1
 6721 0001 11       		.uleb128 0x11
 6722 0002 01       		.byte	0x1
 6723 0003 25       		.uleb128 0x25
 6724 0004 0E       		.uleb128 0xe
 6725 0005 13       		.uleb128 0x13
 6726 0006 0B       		.uleb128 0xb
 6727 0007 03       		.uleb128 0x3
 6728 0008 0E       		.uleb128 0xe
 6729 0009 1B       		.uleb128 0x1b
 6730 000a 0E       		.uleb128 0xe
 6731 000b 55       		.uleb128 0x55
 6732 000c 17       		.uleb128 0x17
 6733 000d 11       		.uleb128 0x11
 6734 000e 01       		.uleb128 0x1
 6735 000f 10       		.uleb128 0x10
 6736 0010 17       		.uleb128 0x17
 6737 0011 00       		.byte	0
 6738 0012 00       		.byte	0
 6739 0013 02       		.uleb128 0x2
 6740 0014 16       		.uleb128 0x16
 6741 0015 00       		.byte	0
 6742 0016 03       		.uleb128 0x3
 6743 0017 0E       		.uleb128 0xe
 6744 0018 3A       		.uleb128 0x3a
 6745 0019 0B       		.uleb128 0xb
 6746 001a 3B       		.uleb128 0x3b
 6747 001b 0B       		.uleb128 0xb
 6748 001c 49       		.uleb128 0x49
 6749 001d 13       		.uleb128 0x13
 6750 001e 00       		.byte	0
 6751 001f 00       		.byte	0
 6752 0020 03       		.uleb128 0x3
 6753 0021 24       		.uleb128 0x24
 6754 0022 00       		.byte	0
 6755 0023 0B       		.uleb128 0xb
 6756 0024 0B       		.uleb128 0xb
 6757 0025 3E       		.uleb128 0x3e
 6758 0026 0B       		.uleb128 0xb
 6759 0027 03       		.uleb128 0x3
 6760 0028 0E       		.uleb128 0xe
 6761 0029 00       		.byte	0
 6762 002a 00       		.byte	0
 6763 002b 04       		.uleb128 0x4
 6764 002c 24       		.uleb128 0x24
 6765 002d 00       		.byte	0
 6766 002e 0B       		.uleb128 0xb
 6767 002f 0B       		.uleb128 0xb
 6768 0030 3E       		.uleb128 0x3e
 6769 0031 0B       		.uleb128 0xb
 6770 0032 03       		.uleb128 0x3
 6771 0033 08       		.uleb128 0x8
 6772 0034 00       		.byte	0
 6773 0035 00       		.byte	0
 6774 0036 05       		.uleb128 0x5
ARM GAS  C:\Users\Phuong\AppData\Local\Temp\ccqGhR5Z.s 			page 135


 6775 0037 0F       		.uleb128 0xf
 6776 0038 00       		.byte	0
 6777 0039 0B       		.uleb128 0xb
 6778 003a 0B       		.uleb128 0xb
 6779 003b 00       		.byte	0
 6780 003c 00       		.byte	0
 6781 003d 06       		.uleb128 0x6
 6782 003e 0F       		.uleb128 0xf
 6783 003f 00       		.byte	0
 6784 0040 0B       		.uleb128 0xb
 6785 0041 0B       		.uleb128 0xb
 6786 0042 49       		.uleb128 0x49
 6787 0043 13       		.uleb128 0x13
 6788 0044 00       		.byte	0
 6789 0045 00       		.byte	0
 6790 0046 07       		.uleb128 0x7
 6791 0047 26       		.uleb128 0x26
 6792 0048 00       		.byte	0
 6793 0049 49       		.uleb128 0x49
 6794 004a 13       		.uleb128 0x13
 6795 004b 00       		.byte	0
 6796 004c 00       		.byte	0
 6797 004d 08       		.uleb128 0x8
 6798 004e 26       		.uleb128 0x26
 6799 004f 00       		.byte	0
 6800 0050 00       		.byte	0
 6801 0051 00       		.byte	0
 6802 0052 09       		.uleb128 0x9
 6803 0053 04       		.uleb128 0x4
 6804 0054 01       		.byte	0x1
 6805 0055 03       		.uleb128 0x3
 6806 0056 0E       		.uleb128 0xe
 6807 0057 0B       		.uleb128 0xb
 6808 0058 0B       		.uleb128 0xb
 6809 0059 49       		.uleb128 0x49
 6810 005a 13       		.uleb128 0x13
 6811 005b 3A       		.uleb128 0x3a
 6812 005c 0B       		.uleb128 0xb
 6813 005d 3B       		.uleb128 0x3b
 6814 005e 0B       		.uleb128 0xb
 6815 005f 01       		.uleb128 0x1
 6816 0060 13       		.uleb128 0x13
 6817 0061 00       		.byte	0
 6818 0062 00       		.byte	0
 6819 0063 0A       		.uleb128 0xa
 6820 0064 28       		.uleb128 0x28
 6821 0065 00       		.byte	0
 6822 0066 03       		.uleb128 0x3
 6823 0067 0E       		.uleb128 0xe
 6824 0068 1C       		.uleb128 0x1c
 6825 0069 0B       		.uleb128 0xb
 6826 006a 00       		.byte	0
 6827 006b 00       		.byte	0
 6828 006c 0B       		.uleb128 0xb
 6829 006d 15       		.uleb128 0x15
 6830 006e 01       		.byte	0x1
 6831 006f 27       		.uleb128 0x27
ARM GAS  C:\Users\Phuong\AppData\Local\Temp\ccqGhR5Z.s 			page 136


 6832 0070 19       		.uleb128 0x19
 6833 0071 01       		.uleb128 0x1
 6834 0072 13       		.uleb128 0x13
 6835 0073 00       		.byte	0
 6836 0074 00       		.byte	0
 6837 0075 0C       		.uleb128 0xc
 6838 0076 05       		.uleb128 0x5
 6839 0077 00       		.byte	0
 6840 0078 49       		.uleb128 0x49
 6841 0079 13       		.uleb128 0x13
 6842 007a 00       		.byte	0
 6843 007b 00       		.byte	0
 6844 007c 0D       		.uleb128 0xd
 6845 007d 18       		.uleb128 0x18
 6846 007e 00       		.byte	0
 6847 007f 00       		.byte	0
 6848 0080 00       		.byte	0
 6849 0081 0E       		.uleb128 0xe
 6850 0082 13       		.uleb128 0x13
 6851 0083 00       		.byte	0
 6852 0084 03       		.uleb128 0x3
 6853 0085 0E       		.uleb128 0xe
 6854 0086 3C       		.uleb128 0x3c
 6855 0087 19       		.uleb128 0x19
 6856 0088 00       		.byte	0
 6857 0089 00       		.byte	0
 6858 008a 0F       		.uleb128 0xf
 6859 008b 13       		.uleb128 0x13
 6860 008c 01       		.byte	0x1
 6861 008d 03       		.uleb128 0x3
 6862 008e 0E       		.uleb128 0xe
 6863 008f 0B       		.uleb128 0xb
 6864 0090 0B       		.uleb128 0xb
 6865 0091 3A       		.uleb128 0x3a
 6866 0092 0B       		.uleb128 0xb
 6867 0093 3B       		.uleb128 0x3b
 6868 0094 0B       		.uleb128 0xb
 6869 0095 01       		.uleb128 0x1
 6870 0096 13       		.uleb128 0x13
 6871 0097 00       		.byte	0
 6872 0098 00       		.byte	0
 6873 0099 10       		.uleb128 0x10
 6874 009a 0D       		.uleb128 0xd
 6875 009b 00       		.byte	0
 6876 009c 03       		.uleb128 0x3
 6877 009d 0E       		.uleb128 0xe
 6878 009e 3A       		.uleb128 0x3a
 6879 009f 0B       		.uleb128 0xb
 6880 00a0 3B       		.uleb128 0x3b
 6881 00a1 0B       		.uleb128 0xb
 6882 00a2 49       		.uleb128 0x49
 6883 00a3 13       		.uleb128 0x13
 6884 00a4 38       		.uleb128 0x38
 6885 00a5 0B       		.uleb128 0xb
 6886 00a6 00       		.byte	0
 6887 00a7 00       		.byte	0
 6888 00a8 11       		.uleb128 0x11
ARM GAS  C:\Users\Phuong\AppData\Local\Temp\ccqGhR5Z.s 			page 137


 6889 00a9 15       		.uleb128 0x15
 6890 00aa 01       		.byte	0x1
 6891 00ab 27       		.uleb128 0x27
 6892 00ac 19       		.uleb128 0x19
 6893 00ad 49       		.uleb128 0x49
 6894 00ae 13       		.uleb128 0x13
 6895 00af 01       		.uleb128 0x1
 6896 00b0 13       		.uleb128 0x13
 6897 00b1 00       		.byte	0
 6898 00b2 00       		.byte	0
 6899 00b3 12       		.uleb128 0x12
 6900 00b4 2E       		.uleb128 0x2e
 6901 00b5 01       		.byte	0x1
 6902 00b6 03       		.uleb128 0x3
 6903 00b7 0E       		.uleb128 0xe
 6904 00b8 3A       		.uleb128 0x3a
 6905 00b9 0B       		.uleb128 0xb
 6906 00ba 3B       		.uleb128 0x3b
 6907 00bb 0B       		.uleb128 0xb
 6908 00bc 27       		.uleb128 0x27
 6909 00bd 19       		.uleb128 0x19
 6910 00be 11       		.uleb128 0x11
 6911 00bf 01       		.uleb128 0x1
 6912 00c0 12       		.uleb128 0x12
 6913 00c1 06       		.uleb128 0x6
 6914 00c2 40       		.uleb128 0x40
 6915 00c3 18       		.uleb128 0x18
 6916 00c4 9642     		.uleb128 0x2116
 6917 00c6 19       		.uleb128 0x19
 6918 00c7 01       		.uleb128 0x1
 6919 00c8 13       		.uleb128 0x13
 6920 00c9 00       		.byte	0
 6921 00ca 00       		.byte	0
 6922 00cb 13       		.uleb128 0x13
 6923 00cc 05       		.uleb128 0x5
 6924 00cd 00       		.byte	0
 6925 00ce 03       		.uleb128 0x3
 6926 00cf 0E       		.uleb128 0xe
 6927 00d0 3A       		.uleb128 0x3a
 6928 00d1 0B       		.uleb128 0xb
 6929 00d2 3B       		.uleb128 0x3b
 6930 00d3 0B       		.uleb128 0xb
 6931 00d4 49       		.uleb128 0x49
 6932 00d5 13       		.uleb128 0x13
 6933 00d6 02       		.uleb128 0x2
 6934 00d7 17       		.uleb128 0x17
 6935 00d8 00       		.byte	0
 6936 00d9 00       		.byte	0
 6937 00da 14       		.uleb128 0x14
 6938 00db 34       		.uleb128 0x34
 6939 00dc 00       		.byte	0
 6940 00dd 03       		.uleb128 0x3
 6941 00de 0E       		.uleb128 0xe
 6942 00df 3A       		.uleb128 0x3a
 6943 00e0 0B       		.uleb128 0xb
 6944 00e1 3B       		.uleb128 0x3b
 6945 00e2 0B       		.uleb128 0xb
ARM GAS  C:\Users\Phuong\AppData\Local\Temp\ccqGhR5Z.s 			page 138


 6946 00e3 49       		.uleb128 0x49
 6947 00e4 13       		.uleb128 0x13
 6948 00e5 02       		.uleb128 0x2
 6949 00e6 17       		.uleb128 0x17
 6950 00e7 00       		.byte	0
 6951 00e8 00       		.byte	0
 6952 00e9 15       		.uleb128 0x15
 6953 00ea 2E       		.uleb128 0x2e
 6954 00eb 01       		.byte	0x1
 6955 00ec 03       		.uleb128 0x3
 6956 00ed 0E       		.uleb128 0xe
 6957 00ee 3A       		.uleb128 0x3a
 6958 00ef 0B       		.uleb128 0xb
 6959 00f0 3B       		.uleb128 0x3b
 6960 00f1 05       		.uleb128 0x5
 6961 00f2 27       		.uleb128 0x27
 6962 00f3 19       		.uleb128 0x19
 6963 00f4 11       		.uleb128 0x11
 6964 00f5 01       		.uleb128 0x1
 6965 00f6 12       		.uleb128 0x12
 6966 00f7 06       		.uleb128 0x6
 6967 00f8 40       		.uleb128 0x40
 6968 00f9 18       		.uleb128 0x18
 6969 00fa 9742     		.uleb128 0x2117
 6970 00fc 19       		.uleb128 0x19
 6971 00fd 01       		.uleb128 0x1
 6972 00fe 13       		.uleb128 0x13
 6973 00ff 00       		.byte	0
 6974 0100 00       		.byte	0
 6975 0101 16       		.uleb128 0x16
 6976 0102 05       		.uleb128 0x5
 6977 0103 00       		.byte	0
 6978 0104 03       		.uleb128 0x3
 6979 0105 0E       		.uleb128 0xe
 6980 0106 3A       		.uleb128 0x3a
 6981 0107 0B       		.uleb128 0xb
 6982 0108 3B       		.uleb128 0x3b
 6983 0109 05       		.uleb128 0x5
 6984 010a 49       		.uleb128 0x49
 6985 010b 13       		.uleb128 0x13
 6986 010c 02       		.uleb128 0x2
 6987 010d 17       		.uleb128 0x17
 6988 010e 00       		.byte	0
 6989 010f 00       		.byte	0
 6990 0110 17       		.uleb128 0x17
 6991 0111 34       		.uleb128 0x34
 6992 0112 00       		.byte	0
 6993 0113 03       		.uleb128 0x3
 6994 0114 0E       		.uleb128 0xe
 6995 0115 3A       		.uleb128 0x3a
 6996 0116 0B       		.uleb128 0xb
 6997 0117 3B       		.uleb128 0x3b
 6998 0118 05       		.uleb128 0x5
 6999 0119 49       		.uleb128 0x49
 7000 011a 13       		.uleb128 0x13
 7001 011b 02       		.uleb128 0x2
 7002 011c 17       		.uleb128 0x17
ARM GAS  C:\Users\Phuong\AppData\Local\Temp\ccqGhR5Z.s 			page 139


 7003 011d 00       		.byte	0
 7004 011e 00       		.byte	0
 7005 011f 18       		.uleb128 0x18
 7006 0120 898201   		.uleb128 0x4109
 7007 0123 01       		.byte	0x1
 7008 0124 11       		.uleb128 0x11
 7009 0125 01       		.uleb128 0x1
 7010 0126 31       		.uleb128 0x31
 7011 0127 13       		.uleb128 0x13
 7012 0128 01       		.uleb128 0x1
 7013 0129 13       		.uleb128 0x13
 7014 012a 00       		.byte	0
 7015 012b 00       		.byte	0
 7016 012c 19       		.uleb128 0x19
 7017 012d 8A8201   		.uleb128 0x410a
 7018 0130 00       		.byte	0
 7019 0131 02       		.uleb128 0x2
 7020 0132 18       		.uleb128 0x18
 7021 0133 9142     		.uleb128 0x2111
 7022 0135 18       		.uleb128 0x18
 7023 0136 00       		.byte	0
 7024 0137 00       		.byte	0
 7025 0138 1A       		.uleb128 0x1a
 7026 0139 898201   		.uleb128 0x4109
 7027 013c 01       		.byte	0x1
 7028 013d 11       		.uleb128 0x11
 7029 013e 01       		.uleb128 0x1
 7030 013f 31       		.uleb128 0x31
 7031 0140 13       		.uleb128 0x13
 7032 0141 00       		.byte	0
 7033 0142 00       		.byte	0
 7034 0143 1B       		.uleb128 0x1b
 7035 0144 2E       		.uleb128 0x2e
 7036 0145 01       		.byte	0x1
 7037 0146 03       		.uleb128 0x3
 7038 0147 0E       		.uleb128 0xe
 7039 0148 3A       		.uleb128 0x3a
 7040 0149 0B       		.uleb128 0xb
 7041 014a 3B       		.uleb128 0x3b
 7042 014b 0B       		.uleb128 0xb
 7043 014c 27       		.uleb128 0x27
 7044 014d 19       		.uleb128 0x19
 7045 014e 49       		.uleb128 0x49
 7046 014f 13       		.uleb128 0x13
 7047 0150 11       		.uleb128 0x11
 7048 0151 01       		.uleb128 0x1
 7049 0152 12       		.uleb128 0x12
 7050 0153 06       		.uleb128 0x6
 7051 0154 40       		.uleb128 0x40
 7052 0155 18       		.uleb128 0x18
 7053 0156 9742     		.uleb128 0x2117
 7054 0158 19       		.uleb128 0x19
 7055 0159 01       		.uleb128 0x1
 7056 015a 13       		.uleb128 0x13
 7057 015b 00       		.byte	0
 7058 015c 00       		.byte	0
 7059 015d 1C       		.uleb128 0x1c
ARM GAS  C:\Users\Phuong\AppData\Local\Temp\ccqGhR5Z.s 			page 140


 7060 015e 34       		.uleb128 0x34
 7061 015f 00       		.byte	0
 7062 0160 03       		.uleb128 0x3
 7063 0161 0E       		.uleb128 0xe
 7064 0162 49       		.uleb128 0x49
 7065 0163 13       		.uleb128 0x13
 7066 0164 34       		.uleb128 0x34
 7067 0165 19       		.uleb128 0x19
 7068 0166 02       		.uleb128 0x2
 7069 0167 18       		.uleb128 0x18
 7070 0168 00       		.byte	0
 7071 0169 00       		.byte	0
 7072 016a 1D       		.uleb128 0x1d
 7073 016b 0B       		.uleb128 0xb
 7074 016c 01       		.byte	0x1
 7075 016d 55       		.uleb128 0x55
 7076 016e 17       		.uleb128 0x17
 7077 016f 00       		.byte	0
 7078 0170 00       		.byte	0
 7079 0171 1E       		.uleb128 0x1e
 7080 0172 0B       		.uleb128 0xb
 7081 0173 01       		.byte	0x1
 7082 0174 11       		.uleb128 0x11
 7083 0175 01       		.uleb128 0x1
 7084 0176 12       		.uleb128 0x12
 7085 0177 06       		.uleb128 0x6
 7086 0178 01       		.uleb128 0x1
 7087 0179 13       		.uleb128 0x13
 7088 017a 00       		.byte	0
 7089 017b 00       		.byte	0
 7090 017c 1F       		.uleb128 0x1f
 7091 017d 34       		.uleb128 0x34
 7092 017e 00       		.byte	0
 7093 017f 03       		.uleb128 0x3
 7094 0180 08       		.uleb128 0x8
 7095 0181 3A       		.uleb128 0x3a
 7096 0182 0B       		.uleb128 0xb
 7097 0183 3B       		.uleb128 0x3b
 7098 0184 0B       		.uleb128 0xb
 7099 0185 49       		.uleb128 0x49
 7100 0186 13       		.uleb128 0x13
 7101 0187 02       		.uleb128 0x2
 7102 0188 17       		.uleb128 0x17
 7103 0189 00       		.byte	0
 7104 018a 00       		.byte	0
 7105 018b 20       		.uleb128 0x20
 7106 018c 898201   		.uleb128 0x4109
 7107 018f 00       		.byte	0
 7108 0190 11       		.uleb128 0x11
 7109 0191 01       		.uleb128 0x1
 7110 0192 31       		.uleb128 0x31
 7111 0193 13       		.uleb128 0x13
 7112 0194 00       		.byte	0
 7113 0195 00       		.byte	0
 7114 0196 21       		.uleb128 0x21
 7115 0197 898201   		.uleb128 0x4109
 7116 019a 01       		.byte	0x1
ARM GAS  C:\Users\Phuong\AppData\Local\Temp\ccqGhR5Z.s 			page 141


 7117 019b 11       		.uleb128 0x11
 7118 019c 01       		.uleb128 0x1
 7119 019d 9342     		.uleb128 0x2113
 7120 019f 18       		.uleb128 0x18
 7121 01a0 00       		.byte	0
 7122 01a1 00       		.byte	0
 7123 01a2 22       		.uleb128 0x22
 7124 01a3 0B       		.uleb128 0xb
 7125 01a4 01       		.byte	0x1
 7126 01a5 55       		.uleb128 0x55
 7127 01a6 17       		.uleb128 0x17
 7128 01a7 01       		.uleb128 0x1
 7129 01a8 13       		.uleb128 0x13
 7130 01a9 00       		.byte	0
 7131 01aa 00       		.byte	0
 7132 01ab 23       		.uleb128 0x23
 7133 01ac 34       		.uleb128 0x34
 7134 01ad 00       		.byte	0
 7135 01ae 03       		.uleb128 0x3
 7136 01af 08       		.uleb128 0x8
 7137 01b0 3A       		.uleb128 0x3a
 7138 01b1 0B       		.uleb128 0xb
 7139 01b2 3B       		.uleb128 0x3b
 7140 01b3 05       		.uleb128 0x5
 7141 01b4 49       		.uleb128 0x49
 7142 01b5 13       		.uleb128 0x13
 7143 01b6 02       		.uleb128 0x2
 7144 01b7 17       		.uleb128 0x17
 7145 01b8 00       		.byte	0
 7146 01b9 00       		.byte	0
 7147 01ba 24       		.uleb128 0x24
 7148 01bb 898201   		.uleb128 0x4109
 7149 01be 01       		.byte	0x1
 7150 01bf 11       		.uleb128 0x11
 7151 01c0 01       		.uleb128 0x1
 7152 01c1 01       		.uleb128 0x1
 7153 01c2 13       		.uleb128 0x13
 7154 01c3 00       		.byte	0
 7155 01c4 00       		.byte	0
 7156 01c5 25       		.uleb128 0x25
 7157 01c6 01       		.uleb128 0x1
 7158 01c7 01       		.byte	0x1
 7159 01c8 49       		.uleb128 0x49
 7160 01c9 13       		.uleb128 0x13
 7161 01ca 01       		.uleb128 0x1
 7162 01cb 13       		.uleb128 0x13
 7163 01cc 00       		.byte	0
 7164 01cd 00       		.byte	0
 7165 01ce 26       		.uleb128 0x26
 7166 01cf 21       		.uleb128 0x21
 7167 01d0 00       		.byte	0
 7168 01d1 49       		.uleb128 0x49
 7169 01d2 13       		.uleb128 0x13
 7170 01d3 2F       		.uleb128 0x2f
 7171 01d4 0B       		.uleb128 0xb
 7172 01d5 00       		.byte	0
 7173 01d6 00       		.byte	0
ARM GAS  C:\Users\Phuong\AppData\Local\Temp\ccqGhR5Z.s 			page 142


 7174 01d7 27       		.uleb128 0x27
 7175 01d8 2E       		.uleb128 0x2e
 7176 01d9 01       		.byte	0x1
 7177 01da 03       		.uleb128 0x3
 7178 01db 0E       		.uleb128 0xe
 7179 01dc 3A       		.uleb128 0x3a
 7180 01dd 0B       		.uleb128 0xb
 7181 01de 3B       		.uleb128 0x3b
 7182 01df 0B       		.uleb128 0xb
 7183 01e0 27       		.uleb128 0x27
 7184 01e1 19       		.uleb128 0x19
 7185 01e2 11       		.uleb128 0x11
 7186 01e3 01       		.uleb128 0x1
 7187 01e4 12       		.uleb128 0x12
 7188 01e5 06       		.uleb128 0x6
 7189 01e6 40       		.uleb128 0x40
 7190 01e7 18       		.uleb128 0x18
 7191 01e8 9742     		.uleb128 0x2117
 7192 01ea 19       		.uleb128 0x19
 7193 01eb 01       		.uleb128 0x1
 7194 01ec 13       		.uleb128 0x13
 7195 01ed 00       		.byte	0
 7196 01ee 00       		.byte	0
 7197 01ef 28       		.uleb128 0x28
 7198 01f0 34       		.uleb128 0x34
 7199 01f1 00       		.byte	0
 7200 01f2 03       		.uleb128 0x3
 7201 01f3 0E       		.uleb128 0xe
 7202 01f4 3A       		.uleb128 0x3a
 7203 01f5 0B       		.uleb128 0xb
 7204 01f6 3B       		.uleb128 0x3b
 7205 01f7 0B       		.uleb128 0xb
 7206 01f8 49       		.uleb128 0x49
 7207 01f9 13       		.uleb128 0x13
 7208 01fa 02       		.uleb128 0x2
 7209 01fb 18       		.uleb128 0x18
 7210 01fc 00       		.byte	0
 7211 01fd 00       		.byte	0
 7212 01fe 29       		.uleb128 0x29
 7213 01ff 2E       		.uleb128 0x2e
 7214 0200 01       		.byte	0x1
 7215 0201 3F       		.uleb128 0x3f
 7216 0202 19       		.uleb128 0x19
 7217 0203 03       		.uleb128 0x3
 7218 0204 0E       		.uleb128 0xe
 7219 0205 3A       		.uleb128 0x3a
 7220 0206 0B       		.uleb128 0xb
 7221 0207 3B       		.uleb128 0x3b
 7222 0208 05       		.uleb128 0x5
 7223 0209 27       		.uleb128 0x27
 7224 020a 19       		.uleb128 0x19
 7225 020b 49       		.uleb128 0x49
 7226 020c 13       		.uleb128 0x13
 7227 020d 11       		.uleb128 0x11
 7228 020e 01       		.uleb128 0x1
 7229 020f 12       		.uleb128 0x12
 7230 0210 06       		.uleb128 0x6
ARM GAS  C:\Users\Phuong\AppData\Local\Temp\ccqGhR5Z.s 			page 143


 7231 0211 40       		.uleb128 0x40
 7232 0212 18       		.uleb128 0x18
 7233 0213 9742     		.uleb128 0x2117
 7234 0215 19       		.uleb128 0x19
 7235 0216 01       		.uleb128 0x1
 7236 0217 13       		.uleb128 0x13
 7237 0218 00       		.byte	0
 7238 0219 00       		.byte	0
 7239 021a 2A       		.uleb128 0x2a
 7240 021b 2E       		.uleb128 0x2e
 7241 021c 01       		.byte	0x1
 7242 021d 3F       		.uleb128 0x3f
 7243 021e 19       		.uleb128 0x19
 7244 021f 03       		.uleb128 0x3
 7245 0220 0E       		.uleb128 0xe
 7246 0221 3A       		.uleb128 0x3a
 7247 0222 0B       		.uleb128 0xb
 7248 0223 3B       		.uleb128 0x3b
 7249 0224 05       		.uleb128 0x5
 7250 0225 27       		.uleb128 0x27
 7251 0226 19       		.uleb128 0x19
 7252 0227 11       		.uleb128 0x11
 7253 0228 01       		.uleb128 0x1
 7254 0229 12       		.uleb128 0x12
 7255 022a 06       		.uleb128 0x6
 7256 022b 40       		.uleb128 0x40
 7257 022c 18       		.uleb128 0x18
 7258 022d 9742     		.uleb128 0x2117
 7259 022f 19       		.uleb128 0x19
 7260 0230 01       		.uleb128 0x1
 7261 0231 13       		.uleb128 0x13
 7262 0232 00       		.byte	0
 7263 0233 00       		.byte	0
 7264 0234 2B       		.uleb128 0x2b
 7265 0235 34       		.uleb128 0x34
 7266 0236 00       		.byte	0
 7267 0237 03       		.uleb128 0x3
 7268 0238 0E       		.uleb128 0xe
 7269 0239 3A       		.uleb128 0x3a
 7270 023a 0B       		.uleb128 0xb
 7271 023b 3B       		.uleb128 0x3b
 7272 023c 05       		.uleb128 0x5
 7273 023d 49       		.uleb128 0x49
 7274 023e 13       		.uleb128 0x13
 7275 023f 02       		.uleb128 0x2
 7276 0240 18       		.uleb128 0x18
 7277 0241 00       		.byte	0
 7278 0242 00       		.byte	0
 7279 0243 2C       		.uleb128 0x2c
 7280 0244 0B       		.uleb128 0xb
 7281 0245 01       		.byte	0x1
 7282 0246 11       		.uleb128 0x11
 7283 0247 01       		.uleb128 0x1
 7284 0248 12       		.uleb128 0x12
 7285 0249 06       		.uleb128 0x6
 7286 024a 00       		.byte	0
 7287 024b 00       		.byte	0
ARM GAS  C:\Users\Phuong\AppData\Local\Temp\ccqGhR5Z.s 			page 144


 7288 024c 2D       		.uleb128 0x2d
 7289 024d 2E       		.uleb128 0x2e
 7290 024e 00       		.byte	0
 7291 024f 3F       		.uleb128 0x3f
 7292 0250 19       		.uleb128 0x19
 7293 0251 3C       		.uleb128 0x3c
 7294 0252 19       		.uleb128 0x19
 7295 0253 6E       		.uleb128 0x6e
 7296 0254 0E       		.uleb128 0xe
 7297 0255 03       		.uleb128 0x3
 7298 0256 0E       		.uleb128 0xe
 7299 0257 3A       		.uleb128 0x3a
 7300 0258 0B       		.uleb128 0xb
 7301 0259 3B       		.uleb128 0x3b
 7302 025a 0B       		.uleb128 0xb
 7303 025b 00       		.byte	0
 7304 025c 00       		.byte	0
 7305 025d 00       		.byte	0
 7306              		.section	.debug_loc,"",%progbits
 7307              	.Ldebug_loc0:
 7308              	.LLST0:
 7309 0000 00000000 		.4byte	.LVL0
 7310 0004 0E000000 		.4byte	.LVL2
 7311 0008 0100     		.2byte	0x1
 7312 000a 50       		.byte	0x50
 7313 000b 0E000000 		.4byte	.LVL2
 7314 000f 12000000 		.4byte	.LFE1
 7315 0013 0400     		.2byte	0x4
 7316 0015 F3       		.byte	0xf3
 7317 0016 01       		.uleb128 0x1
 7318 0017 50       		.byte	0x50
 7319 0018 9F       		.byte	0x9f
 7320 0019 00000000 		.4byte	0
 7321 001d 00000000 		.4byte	0
 7322              	.LLST1:
 7323 0021 00000000 		.4byte	.LVL0
 7324 0025 0F000000 		.4byte	.LVL3-1
 7325 0029 0100     		.2byte	0x1
 7326 002b 51       		.byte	0x51
 7327 002c 0F000000 		.4byte	.LVL3-1
 7328 0030 12000000 		.4byte	.LFE1
 7329 0034 0400     		.2byte	0x4
 7330 0036 F3       		.byte	0xf3
 7331 0037 01       		.uleb128 0x1
 7332 0038 51       		.byte	0x51
 7333 0039 9F       		.byte	0x9f
 7334 003a 00000000 		.4byte	0
 7335 003e 00000000 		.4byte	0
 7336              	.LLST2:
 7337 0042 04000000 		.4byte	.LVL1
 7338 0046 0F000000 		.4byte	.LVL3-1
 7339 004a 0100     		.2byte	0x1
 7340 004c 52       		.byte	0x52
 7341 004d 00000000 		.4byte	0
 7342 0051 00000000 		.4byte	0
 7343              	.LLST3:
 7344 0055 00000000 		.4byte	.LVL4
ARM GAS  C:\Users\Phuong\AppData\Local\Temp\ccqGhR5Z.s 			page 145


 7345 0059 1B000000 		.4byte	.LVL7-1
 7346 005d 0100     		.2byte	0x1
 7347 005f 50       		.byte	0x50
 7348 0060 1B000000 		.4byte	.LVL7-1
 7349 0064 1E000000 		.4byte	.LVL8
 7350 0068 0400     		.2byte	0x4
 7351 006a F3       		.byte	0xf3
 7352 006b 01       		.uleb128 0x1
 7353 006c 50       		.byte	0x50
 7354 006d 9F       		.byte	0x9f
 7355 006e 1E000000 		.4byte	.LVL8
 7356 0072 2D000000 		.4byte	.LVL11-1
 7357 0076 0100     		.2byte	0x1
 7358 0078 50       		.byte	0x50
 7359 0079 2D000000 		.4byte	.LVL11-1
 7360 007d 30000000 		.4byte	.LVL12
 7361 0081 0400     		.2byte	0x4
 7362 0083 F3       		.byte	0xf3
 7363 0084 01       		.uleb128 0x1
 7364 0085 50       		.byte	0x50
 7365 0086 9F       		.byte	0x9f
 7366 0087 30000000 		.4byte	.LVL12
 7367 008b 39000000 		.4byte	.LVL14-1
 7368 008f 0100     		.2byte	0x1
 7369 0091 50       		.byte	0x50
 7370 0092 39000000 		.4byte	.LVL14-1
 7371 0096 3C000000 		.4byte	.LVL15
 7372 009a 0400     		.2byte	0x4
 7373 009c F3       		.byte	0xf3
 7374 009d 01       		.uleb128 0x1
 7375 009e 50       		.byte	0x50
 7376 009f 9F       		.byte	0x9f
 7377 00a0 3C000000 		.4byte	.LVL15
 7378 00a4 47000000 		.4byte	.LVL17-1
 7379 00a8 0100     		.2byte	0x1
 7380 00aa 50       		.byte	0x50
 7381 00ab 47000000 		.4byte	.LVL17-1
 7382 00af 4A000000 		.4byte	.LFE4
 7383 00b3 0400     		.2byte	0x4
 7384 00b5 F3       		.byte	0xf3
 7385 00b6 01       		.uleb128 0x1
 7386 00b7 50       		.byte	0x50
 7387 00b8 9F       		.byte	0x9f
 7388 00b9 00000000 		.4byte	0
 7389 00bd 00000000 		.4byte	0
 7390              	.LLST4:
 7391 00c1 00000000 		.4byte	.LVL4
 7392 00c5 18000000 		.4byte	.LVL6
 7393 00c9 0100     		.2byte	0x1
 7394 00cb 51       		.byte	0x51
 7395 00cc 18000000 		.4byte	.LVL6
 7396 00d0 1E000000 		.4byte	.LVL8
 7397 00d4 0400     		.2byte	0x4
 7398 00d6 F3       		.byte	0xf3
 7399 00d7 01       		.uleb128 0x1
 7400 00d8 51       		.byte	0x51
 7401 00d9 9F       		.byte	0x9f
ARM GAS  C:\Users\Phuong\AppData\Local\Temp\ccqGhR5Z.s 			page 146


 7402 00da 1E000000 		.4byte	.LVL8
 7403 00de 2A000000 		.4byte	.LVL10
 7404 00e2 0100     		.2byte	0x1
 7405 00e4 51       		.byte	0x51
 7406 00e5 2A000000 		.4byte	.LVL10
 7407 00e9 30000000 		.4byte	.LVL12
 7408 00ed 0400     		.2byte	0x4
 7409 00ef F3       		.byte	0xf3
 7410 00f0 01       		.uleb128 0x1
 7411 00f1 51       		.byte	0x51
 7412 00f2 9F       		.byte	0x9f
 7413 00f3 30000000 		.4byte	.LVL12
 7414 00f7 36000000 		.4byte	.LVL13
 7415 00fb 0100     		.2byte	0x1
 7416 00fd 51       		.byte	0x51
 7417 00fe 36000000 		.4byte	.LVL13
 7418 0102 3C000000 		.4byte	.LVL15
 7419 0106 0400     		.2byte	0x4
 7420 0108 F3       		.byte	0xf3
 7421 0109 01       		.uleb128 0x1
 7422 010a 51       		.byte	0x51
 7423 010b 9F       		.byte	0x9f
 7424 010c 3C000000 		.4byte	.LVL15
 7425 0110 44000000 		.4byte	.LVL16
 7426 0114 0100     		.2byte	0x1
 7427 0116 51       		.byte	0x51
 7428 0117 44000000 		.4byte	.LVL16
 7429 011b 4A000000 		.4byte	.LFE4
 7430 011f 0400     		.2byte	0x4
 7431 0121 F3       		.byte	0xf3
 7432 0122 01       		.uleb128 0x1
 7433 0123 51       		.byte	0x51
 7434 0124 9F       		.byte	0x9f
 7435 0125 00000000 		.4byte	0
 7436 0129 00000000 		.4byte	0
 7437              	.LLST5:
 7438 012d 00000000 		.4byte	.LVL4
 7439 0131 1B000000 		.4byte	.LVL7-1
 7440 0135 0100     		.2byte	0x1
 7441 0137 52       		.byte	0x52
 7442 0138 1B000000 		.4byte	.LVL7-1
 7443 013c 1E000000 		.4byte	.LVL8
 7444 0140 0400     		.2byte	0x4
 7445 0142 F3       		.byte	0xf3
 7446 0143 01       		.uleb128 0x1
 7447 0144 52       		.byte	0x52
 7448 0145 9F       		.byte	0x9f
 7449 0146 1E000000 		.4byte	.LVL8
 7450 014a 20000000 		.4byte	.LVL9
 7451 014e 0100     		.2byte	0x1
 7452 0150 52       		.byte	0x52
 7453 0151 20000000 		.4byte	.LVL9
 7454 0155 3C000000 		.4byte	.LVL15
 7455 0159 0400     		.2byte	0x4
 7456 015b F3       		.byte	0xf3
 7457 015c 01       		.uleb128 0x1
 7458 015d 52       		.byte	0x52
ARM GAS  C:\Users\Phuong\AppData\Local\Temp\ccqGhR5Z.s 			page 147


 7459 015e 9F       		.byte	0x9f
 7460 015f 3C000000 		.4byte	.LVL15
 7461 0163 47000000 		.4byte	.LVL17-1
 7462 0167 0100     		.2byte	0x1
 7463 0169 52       		.byte	0x52
 7464 016a 47000000 		.4byte	.LVL17-1
 7465 016e 4A000000 		.4byte	.LFE4
 7466 0172 0400     		.2byte	0x4
 7467 0174 F3       		.byte	0xf3
 7468 0175 01       		.uleb128 0x1
 7469 0176 52       		.byte	0x52
 7470 0177 9F       		.byte	0x9f
 7471 0178 00000000 		.4byte	0
 7472 017c 00000000 		.4byte	0
 7473              	.LLST6:
 7474 0180 02000000 		.4byte	.LVL5
 7475 0184 1B000000 		.4byte	.LVL7-1
 7476 0188 0100     		.2byte	0x1
 7477 018a 50       		.byte	0x50
 7478 018b 1B000000 		.4byte	.LVL7-1
 7479 018f 1E000000 		.4byte	.LVL8
 7480 0193 0400     		.2byte	0x4
 7481 0195 F3       		.byte	0xf3
 7482 0196 01       		.uleb128 0x1
 7483 0197 50       		.byte	0x50
 7484 0198 9F       		.byte	0x9f
 7485 0199 1E000000 		.4byte	.LVL8
 7486 019d 2D000000 		.4byte	.LVL11-1
 7487 01a1 0100     		.2byte	0x1
 7488 01a3 50       		.byte	0x50
 7489 01a4 2D000000 		.4byte	.LVL11-1
 7490 01a8 30000000 		.4byte	.LVL12
 7491 01ac 0400     		.2byte	0x4
 7492 01ae F3       		.byte	0xf3
 7493 01af 01       		.uleb128 0x1
 7494 01b0 50       		.byte	0x50
 7495 01b1 9F       		.byte	0x9f
 7496 01b2 30000000 		.4byte	.LVL12
 7497 01b6 39000000 		.4byte	.LVL14-1
 7498 01ba 0100     		.2byte	0x1
 7499 01bc 50       		.byte	0x50
 7500 01bd 39000000 		.4byte	.LVL14-1
 7501 01c1 3C000000 		.4byte	.LVL15
 7502 01c5 0400     		.2byte	0x4
 7503 01c7 F3       		.byte	0xf3
 7504 01c8 01       		.uleb128 0x1
 7505 01c9 50       		.byte	0x50
 7506 01ca 9F       		.byte	0x9f
 7507 01cb 3C000000 		.4byte	.LVL15
 7508 01cf 47000000 		.4byte	.LVL17-1
 7509 01d3 0100     		.2byte	0x1
 7510 01d5 50       		.byte	0x50
 7511 01d6 47000000 		.4byte	.LVL17-1
 7512 01da 4A000000 		.4byte	.LFE4
 7513 01de 0400     		.2byte	0x4
 7514 01e0 F3       		.byte	0xf3
 7515 01e1 01       		.uleb128 0x1
ARM GAS  C:\Users\Phuong\AppData\Local\Temp\ccqGhR5Z.s 			page 148


 7516 01e2 50       		.byte	0x50
 7517 01e3 9F       		.byte	0x9f
 7518 01e4 00000000 		.4byte	0
 7519 01e8 00000000 		.4byte	0
 7520              	.LLST7:
 7521 01ec 00000000 		.4byte	.LVL18
 7522 01f0 13000000 		.4byte	.LVL21-1
 7523 01f4 0100     		.2byte	0x1
 7524 01f6 50       		.byte	0x50
 7525 01f7 13000000 		.4byte	.LVL21-1
 7526 01fb 3C000000 		.4byte	.LVL28
 7527 01ff 0100     		.2byte	0x1
 7528 0201 54       		.byte	0x54
 7529 0202 3C000000 		.4byte	.LVL28
 7530 0206 3E000000 		.4byte	.LVL29
 7531 020a 0400     		.2byte	0x4
 7532 020c F3       		.byte	0xf3
 7533 020d 01       		.uleb128 0x1
 7534 020e 50       		.byte	0x50
 7535 020f 9F       		.byte	0x9f
 7536 0210 3E000000 		.4byte	.LVL29
 7537 0214 6E000000 		.4byte	.LVL38
 7538 0218 0100     		.2byte	0x1
 7539 021a 54       		.byte	0x54
 7540 021b 6E000000 		.4byte	.LVL38
 7541 021f 70000000 		.4byte	.LVL39
 7542 0223 0400     		.2byte	0x4
 7543 0225 F3       		.byte	0xf3
 7544 0226 01       		.uleb128 0x1
 7545 0227 50       		.byte	0x50
 7546 0228 9F       		.byte	0x9f
 7547 0229 70000000 		.4byte	.LVL39
 7548 022d A6000000 		.4byte	.LVL46
 7549 0231 0100     		.2byte	0x1
 7550 0233 54       		.byte	0x54
 7551 0234 A6000000 		.4byte	.LVL46
 7552 0238 A8000000 		.4byte	.LVL47
 7553 023c 0400     		.2byte	0x4
 7554 023e F3       		.byte	0xf3
 7555 023f 01       		.uleb128 0x1
 7556 0240 50       		.byte	0x50
 7557 0241 9F       		.byte	0x9f
 7558 0242 A8000000 		.4byte	.LVL47
 7559 0246 D4000000 		.4byte	.LVL53
 7560 024a 0100     		.2byte	0x1
 7561 024c 54       		.byte	0x54
 7562 024d D4000000 		.4byte	.LVL53
 7563 0251 D6000000 		.4byte	.LVL54
 7564 0255 0400     		.2byte	0x4
 7565 0257 F3       		.byte	0xf3
 7566 0258 01       		.uleb128 0x1
 7567 0259 50       		.byte	0x50
 7568 025a 9F       		.byte	0x9f
 7569 025b D6000000 		.4byte	.LVL54
 7570 025f E0000000 		.4byte	.LVL56
 7571 0263 0100     		.2byte	0x1
 7572 0265 54       		.byte	0x54
ARM GAS  C:\Users\Phuong\AppData\Local\Temp\ccqGhR5Z.s 			page 149


 7573 0266 E0000000 		.4byte	.LVL56
 7574 026a EE000000 		.4byte	.LVL59
 7575 026e 0400     		.2byte	0x4
 7576 0270 F3       		.byte	0xf3
 7577 0271 01       		.uleb128 0x1
 7578 0272 50       		.byte	0x50
 7579 0273 9F       		.byte	0x9f
 7580 0274 EE000000 		.4byte	.LVL59
 7581 0278 F0000000 		.4byte	.LVL60
 7582 027c 0100     		.2byte	0x1
 7583 027e 50       		.byte	0x50
 7584 027f F0000000 		.4byte	.LVL60
 7585 0283 14010000 		.4byte	.LFE3
 7586 0287 0400     		.2byte	0x4
 7587 0289 F3       		.byte	0xf3
 7588 028a 01       		.uleb128 0x1
 7589 028b 50       		.byte	0x50
 7590 028c 9F       		.byte	0x9f
 7591 028d 00000000 		.4byte	0
 7592 0291 00000000 		.4byte	0
 7593              	.LLST8:
 7594 0295 00000000 		.4byte	.LVL18
 7595 0299 13000000 		.4byte	.LVL21-1
 7596 029d 0100     		.2byte	0x1
 7597 029f 51       		.byte	0x51
 7598 02a0 13000000 		.4byte	.LVL21-1
 7599 02a4 EE000000 		.4byte	.LVL59
 7600 02a8 0400     		.2byte	0x4
 7601 02aa F3       		.byte	0xf3
 7602 02ab 01       		.uleb128 0x1
 7603 02ac 51       		.byte	0x51
 7604 02ad 9F       		.byte	0x9f
 7605 02ae EE000000 		.4byte	.LVL59
 7606 02b2 F0000000 		.4byte	.LVL60
 7607 02b6 0100     		.2byte	0x1
 7608 02b8 51       		.byte	0x51
 7609 02b9 F0000000 		.4byte	.LVL60
 7610 02bd 14010000 		.4byte	.LFE3
 7611 02c1 0400     		.2byte	0x4
 7612 02c3 F3       		.byte	0xf3
 7613 02c4 01       		.uleb128 0x1
 7614 02c5 51       		.byte	0x51
 7615 02c6 9F       		.byte	0x9f
 7616 02c7 00000000 		.4byte	0
 7617 02cb 00000000 		.4byte	0
 7618              	.LLST9:
 7619 02cf 00000000 		.4byte	.LVL18
 7620 02d3 13000000 		.4byte	.LVL21-1
 7621 02d7 0100     		.2byte	0x1
 7622 02d9 52       		.byte	0x52
 7623 02da 13000000 		.4byte	.LVL21-1
 7624 02de EE000000 		.4byte	.LVL59
 7625 02e2 0200     		.2byte	0x2
 7626 02e4 91       		.byte	0x91
 7627 02e5 64       		.sleb128 -28
 7628 02e6 EE000000 		.4byte	.LVL59
 7629 02ea F0000000 		.4byte	.LVL60
ARM GAS  C:\Users\Phuong\AppData\Local\Temp\ccqGhR5Z.s 			page 150


 7630 02ee 0100     		.2byte	0x1
 7631 02f0 52       		.byte	0x52
 7632 02f1 F0000000 		.4byte	.LVL60
 7633 02f5 14010000 		.4byte	.LFE3
 7634 02f9 0200     		.2byte	0x2
 7635 02fb 91       		.byte	0x91
 7636 02fc 64       		.sleb128 -28
 7637 02fd 00000000 		.4byte	0
 7638 0301 00000000 		.4byte	0
 7639              	.LLST10:
 7640 0305 00000000 		.4byte	.LVL18
 7641 0309 0C000000 		.4byte	.LVL20
 7642 030d 0100     		.2byte	0x1
 7643 030f 53       		.byte	0x53
 7644 0310 0C000000 		.4byte	.LVL20
 7645 0314 88000000 		.4byte	.LVL42
 7646 0318 0100     		.2byte	0x1
 7647 031a 56       		.byte	0x56
 7648 031b 88000000 		.4byte	.LVL42
 7649 031f A8000000 		.4byte	.LVL47
 7650 0323 0400     		.2byte	0x4
 7651 0325 F3       		.byte	0xf3
 7652 0326 01       		.uleb128 0x1
 7653 0327 53       		.byte	0x53
 7654 0328 9F       		.byte	0x9f
 7655 0329 A8000000 		.4byte	.LVL47
 7656 032d B4000000 		.4byte	.LVL49
 7657 0331 0100     		.2byte	0x1
 7658 0333 56       		.byte	0x56
 7659 0334 B4000000 		.4byte	.LVL49
 7660 0338 D6000000 		.4byte	.LVL54
 7661 033c 0400     		.2byte	0x4
 7662 033e F3       		.byte	0xf3
 7663 033f 01       		.uleb128 0x1
 7664 0340 53       		.byte	0x53
 7665 0341 9F       		.byte	0x9f
 7666 0342 D6000000 		.4byte	.LVL54
 7667 0346 E0000000 		.4byte	.LVL56
 7668 034a 0100     		.2byte	0x1
 7669 034c 56       		.byte	0x56
 7670 034d E0000000 		.4byte	.LVL56
 7671 0351 EE000000 		.4byte	.LVL59
 7672 0355 0400     		.2byte	0x4
 7673 0357 F3       		.byte	0xf3
 7674 0358 01       		.uleb128 0x1
 7675 0359 53       		.byte	0x53
 7676 035a 9F       		.byte	0x9f
 7677 035b EE000000 		.4byte	.LVL59
 7678 035f F0000000 		.4byte	.LVL60
 7679 0363 0100     		.2byte	0x1
 7680 0365 56       		.byte	0x56
 7681 0366 F0000000 		.4byte	.LVL60
 7682 036a 14010000 		.4byte	.LFE3
 7683 036e 0400     		.2byte	0x4
 7684 0370 F3       		.byte	0xf3
 7685 0371 01       		.uleb128 0x1
 7686 0372 53       		.byte	0x53
ARM GAS  C:\Users\Phuong\AppData\Local\Temp\ccqGhR5Z.s 			page 151


 7687 0373 9F       		.byte	0x9f
 7688 0374 00000000 		.4byte	0
 7689 0378 00000000 		.4byte	0
 7690              	.LLST11:
 7691 037c 0A000000 		.4byte	.LVL19
 7692 0380 E0000000 		.4byte	.LVL56
 7693 0384 0200     		.2byte	0x2
 7694 0386 30       		.byte	0x30
 7695 0387 9F       		.byte	0x9f
 7696 0388 E0000000 		.4byte	.LVL56
 7697 038c EE000000 		.4byte	.LVL59
 7698 0390 0100     		.2byte	0x1
 7699 0392 54       		.byte	0x54
 7700 0393 EE000000 		.4byte	.LVL59
 7701 0397 F0000000 		.4byte	.LVL60
 7702 039b 0200     		.2byte	0x2
 7703 039d 30       		.byte	0x30
 7704 039e 9F       		.byte	0x9f
 7705 039f F0000000 		.4byte	.LVL60
 7706 03a3 F4000000 		.4byte	.LVL61
 7707 03a7 0100     		.2byte	0x1
 7708 03a9 54       		.byte	0x54
 7709 03aa F4000000 		.4byte	.LVL61
 7710 03ae 14010000 		.4byte	.LFE3
 7711 03b2 0100     		.2byte	0x1
 7712 03b4 50       		.byte	0x50
 7713 03b5 00000000 		.4byte	0
 7714 03b9 00000000 		.4byte	0
 7715              	.LLST12:
 7716 03bd 0A000000 		.4byte	.LVL19
 7717 03c1 13000000 		.4byte	.LVL21-1
 7718 03c5 0100     		.2byte	0x1
 7719 03c7 50       		.byte	0x50
 7720 03c8 13000000 		.4byte	.LVL21-1
 7721 03cc 3C000000 		.4byte	.LVL28
 7722 03d0 0100     		.2byte	0x1
 7723 03d2 54       		.byte	0x54
 7724 03d3 3C000000 		.4byte	.LVL28
 7725 03d7 3E000000 		.4byte	.LVL29
 7726 03db 0400     		.2byte	0x4
 7727 03dd F3       		.byte	0xf3
 7728 03de 01       		.uleb128 0x1
 7729 03df 50       		.byte	0x50
 7730 03e0 9F       		.byte	0x9f
 7731 03e1 3E000000 		.4byte	.LVL29
 7732 03e5 6E000000 		.4byte	.LVL38
 7733 03e9 0100     		.2byte	0x1
 7734 03eb 54       		.byte	0x54
 7735 03ec 6E000000 		.4byte	.LVL38
 7736 03f0 70000000 		.4byte	.LVL39
 7737 03f4 0400     		.2byte	0x4
 7738 03f6 F3       		.byte	0xf3
 7739 03f7 01       		.uleb128 0x1
 7740 03f8 50       		.byte	0x50
 7741 03f9 9F       		.byte	0x9f
 7742 03fa 70000000 		.4byte	.LVL39
 7743 03fe A6000000 		.4byte	.LVL46
ARM GAS  C:\Users\Phuong\AppData\Local\Temp\ccqGhR5Z.s 			page 152


 7744 0402 0100     		.2byte	0x1
 7745 0404 54       		.byte	0x54
 7746 0405 A6000000 		.4byte	.LVL46
 7747 0409 A8000000 		.4byte	.LVL47
 7748 040d 0400     		.2byte	0x4
 7749 040f F3       		.byte	0xf3
 7750 0410 01       		.uleb128 0x1
 7751 0411 50       		.byte	0x50
 7752 0412 9F       		.byte	0x9f
 7753 0413 A8000000 		.4byte	.LVL47
 7754 0417 D4000000 		.4byte	.LVL53
 7755 041b 0100     		.2byte	0x1
 7756 041d 54       		.byte	0x54
 7757 041e D4000000 		.4byte	.LVL53
 7758 0422 D6000000 		.4byte	.LVL54
 7759 0426 0400     		.2byte	0x4
 7760 0428 F3       		.byte	0xf3
 7761 0429 01       		.uleb128 0x1
 7762 042a 50       		.byte	0x50
 7763 042b 9F       		.byte	0x9f
 7764 042c D6000000 		.4byte	.LVL54
 7765 0430 E0000000 		.4byte	.LVL56
 7766 0434 0100     		.2byte	0x1
 7767 0436 54       		.byte	0x54
 7768 0437 E0000000 		.4byte	.LVL56
 7769 043b EE000000 		.4byte	.LVL59
 7770 043f 0400     		.2byte	0x4
 7771 0441 F3       		.byte	0xf3
 7772 0442 01       		.uleb128 0x1
 7773 0443 50       		.byte	0x50
 7774 0444 9F       		.byte	0x9f
 7775 0445 EE000000 		.4byte	.LVL59
 7776 0449 F0000000 		.4byte	.LVL60
 7777 044d 0100     		.2byte	0x1
 7778 044f 50       		.byte	0x50
 7779 0450 F0000000 		.4byte	.LVL60
 7780 0454 14010000 		.4byte	.LFE3
 7781 0458 0400     		.2byte	0x4
 7782 045a F3       		.byte	0xf3
 7783 045b 01       		.uleb128 0x1
 7784 045c 50       		.byte	0x50
 7785 045d 9F       		.byte	0x9f
 7786 045e 00000000 		.4byte	0
 7787 0462 00000000 		.4byte	0
 7788              	.LLST13:
 7789 0466 16000000 		.4byte	.LVL22
 7790 046a 1B000000 		.4byte	.LVL23-1
 7791 046e 0100     		.2byte	0x1
 7792 0470 50       		.byte	0x50
 7793 0471 1B000000 		.4byte	.LVL23-1
 7794 0475 3E000000 		.4byte	.LVL29
 7795 0479 0100     		.2byte	0x1
 7796 047b 57       		.byte	0x57
 7797 047c 3E000000 		.4byte	.LVL29
 7798 0480 42000000 		.4byte	.LVL30
 7799 0484 0100     		.2byte	0x1
 7800 0486 50       		.byte	0x50
ARM GAS  C:\Users\Phuong\AppData\Local\Temp\ccqGhR5Z.s 			page 153


 7801 0487 42000000 		.4byte	.LVL30
 7802 048b EE000000 		.4byte	.LVL59
 7803 048f 0100     		.2byte	0x1
 7804 0491 57       		.byte	0x57
 7805 0492 00000000 		.4byte	0
 7806 0496 00000000 		.4byte	0
 7807              	.LLST14:
 7808 049a 1E000000 		.4byte	.LVL24
 7809 049e 30000000 		.4byte	.LVL25
 7810 04a2 0100     		.2byte	0x1
 7811 04a4 50       		.byte	0x50
 7812 04a5 30000000 		.4byte	.LVL25
 7813 04a9 3E000000 		.4byte	.LVL29
 7814 04ad 0100     		.2byte	0x1
 7815 04af 55       		.byte	0x55
 7816 04b0 00000000 		.4byte	0
 7817 04b4 00000000 		.4byte	0
 7818              	.LLST15:
 7819 04b8 48000000 		.4byte	.LVL32
 7820 04bc 4D000000 		.4byte	.LVL33-1
 7821 04c0 0100     		.2byte	0x1
 7822 04c2 50       		.byte	0x50
 7823 04c3 4D000000 		.4byte	.LVL33-1
 7824 04c7 50000000 		.4byte	.LVL34
 7825 04cb 0100     		.2byte	0x1
 7826 04cd 55       		.byte	0x55
 7827 04ce 70000000 		.4byte	.LVL39
 7828 04d2 7D000000 		.4byte	.LVL40-1
 7829 04d6 0100     		.2byte	0x1
 7830 04d8 50       		.byte	0x50
 7831 04d9 7D000000 		.4byte	.LVL40-1
 7832 04dd E6000000 		.4byte	.LVL57
 7833 04e1 0100     		.2byte	0x1
 7834 04e3 55       		.byte	0x55
 7835 04e4 00000000 		.4byte	0
 7836 04e8 00000000 		.4byte	0
 7837              	.LLST16:
 7838 04ec 50000000 		.4byte	.LVL34
 7839 04f0 62000000 		.4byte	.LVL35
 7840 04f4 0100     		.2byte	0x1
 7841 04f6 50       		.byte	0x50
 7842 04f7 62000000 		.4byte	.LVL35
 7843 04fb 70000000 		.4byte	.LVL39
 7844 04ff 0100     		.2byte	0x1
 7845 0501 55       		.byte	0x55
 7846 0502 00000000 		.4byte	0
 7847 0506 00000000 		.4byte	0
 7848              	.LLST17:
 7849 050a 88000000 		.4byte	.LVL42
 7850 050e 9A000000 		.4byte	.LVL43
 7851 0512 0100     		.2byte	0x1
 7852 0514 50       		.byte	0x50
 7853 0515 9A000000 		.4byte	.LVL43
 7854 0519 A8000000 		.4byte	.LVL47
 7855 051d 0100     		.2byte	0x1
 7856 051f 56       		.byte	0x56
 7857 0520 00000000 		.4byte	0
ARM GAS  C:\Users\Phuong\AppData\Local\Temp\ccqGhR5Z.s 			page 154


 7858 0524 00000000 		.4byte	0
 7859              	.LLST18:
 7860 0528 B4000000 		.4byte	.LVL49
 7861 052c C8000000 		.4byte	.LVL50
 7862 0530 0100     		.2byte	0x1
 7863 0532 50       		.byte	0x50
 7864 0533 C8000000 		.4byte	.LVL50
 7865 0537 D6000000 		.4byte	.LVL54
 7866 053b 0100     		.2byte	0x1
 7867 053d 56       		.byte	0x56
 7868 053e 00000000 		.4byte	0
 7869 0542 00000000 		.4byte	0
 7870              	.LLST19:
 7871 0546 00000000 		.4byte	.LVL62
 7872 054a 0C000000 		.4byte	.LVL65
 7873 054e 0100     		.2byte	0x1
 7874 0550 50       		.byte	0x50
 7875 0551 0C000000 		.4byte	.LVL65
 7876 0555 4C040000 		.4byte	.LVL204
 7877 0559 0100     		.2byte	0x1
 7878 055b 56       		.byte	0x56
 7879 055c 4C040000 		.4byte	.LVL204
 7880 0560 68040000 		.4byte	.LFE2
 7881 0564 0400     		.2byte	0x4
 7882 0566 F3       		.byte	0xf3
 7883 0567 01       		.uleb128 0x1
 7884 0568 50       		.byte	0x50
 7885 0569 9F       		.byte	0x9f
 7886 056a 00000000 		.4byte	0
 7887 056e 00000000 		.4byte	0
 7888              	.LLST20:
 7889 0572 00000000 		.4byte	.LVL62
 7890 0576 0F000000 		.4byte	.LVL66-1
 7891 057a 0100     		.2byte	0x1
 7892 057c 51       		.byte	0x51
 7893 057d 0F000000 		.4byte	.LVL66-1
 7894 0581 4C040000 		.4byte	.LVL203
 7895 0585 0100     		.2byte	0x1
 7896 0587 55       		.byte	0x55
 7897 0588 4C040000 		.4byte	.LVL203
 7898 058c 68040000 		.4byte	.LFE2
 7899 0590 0400     		.2byte	0x4
 7900 0592 F3       		.byte	0xf3
 7901 0593 01       		.uleb128 0x1
 7902 0594 51       		.byte	0x51
 7903 0595 9F       		.byte	0x9f
 7904 0596 00000000 		.4byte	0
 7905 059a 00000000 		.4byte	0
 7906              	.LLST21:
 7907 059e 08000000 		.4byte	.LVL63
 7908 05a2 0C000000 		.4byte	.LVL65
 7909 05a6 0100     		.2byte	0x1
 7910 05a8 50       		.byte	0x50
 7911 05a9 0C000000 		.4byte	.LVL65
 7912 05ad 4C040000 		.4byte	.LVL204
 7913 05b1 0100     		.2byte	0x1
 7914 05b3 56       		.byte	0x56
ARM GAS  C:\Users\Phuong\AppData\Local\Temp\ccqGhR5Z.s 			page 155


 7915 05b4 4C040000 		.4byte	.LVL204
 7916 05b8 68040000 		.4byte	.LFE2
 7917 05bc 0400     		.2byte	0x4
 7918 05be F3       		.byte	0xf3
 7919 05bf 01       		.uleb128 0x1
 7920 05c0 50       		.byte	0x50
 7921 05c1 9F       		.byte	0x9f
 7922 05c2 00000000 		.4byte	0
 7923 05c6 00000000 		.4byte	0
 7924              	.LLST22:
 7925 05ca 0A000000 		.4byte	.LVL64
 7926 05ce 4C040000 		.4byte	.LVL205
 7927 05d2 0100     		.2byte	0x1
 7928 05d4 57       		.byte	0x57
 7929 05d5 00000000 		.4byte	0
 7930 05d9 00000000 		.4byte	0
 7931              	.LLST23:
 7932 05dd 12000000 		.4byte	.LVL67
 7933 05e1 15000000 		.4byte	.LVL68-1
 7934 05e5 0100     		.2byte	0x1
 7935 05e7 50       		.byte	0x50
 7936 05e8 15000000 		.4byte	.LVL68-1
 7937 05ec 2E000000 		.4byte	.LVL71
 7938 05f0 0100     		.2byte	0x1
 7939 05f2 54       		.byte	0x54
 7940 05f3 4A000000 		.4byte	.LVL74
 7941 05f7 66000000 		.4byte	.LVL78
 7942 05fb 0100     		.2byte	0x1
 7943 05fd 54       		.byte	0x54
 7944 05fe 82000000 		.4byte	.LVL81
 7945 0602 94000000 		.4byte	.LVL84
 7946 0606 0100     		.2byte	0x1
 7947 0608 54       		.byte	0x54
 7948 0609 B6000000 		.4byte	.LVL89
 7949 060d D0000000 		.4byte	.LVL93
 7950 0611 0100     		.2byte	0x1
 7951 0613 54       		.byte	0x54
 7952 0614 EC000000 		.4byte	.LVL96
 7953 0618 00010000 		.4byte	.LVL100
 7954 061c 0100     		.2byte	0x1
 7955 061e 54       		.byte	0x54
 7956 061f 1C010000 		.4byte	.LVL103
 7957 0623 36010000 		.4byte	.LVL107
 7958 0627 0100     		.2byte	0x1
 7959 0629 54       		.byte	0x54
 7960 062a 52010000 		.4byte	.LVL110
 7961 062e 66010000 		.4byte	.LVL114
 7962 0632 0100     		.2byte	0x1
 7963 0634 54       		.byte	0x54
 7964 0635 82010000 		.4byte	.LVL117
 7965 0639 9E010000 		.4byte	.LVL121
 7966 063d 0100     		.2byte	0x1
 7967 063f 54       		.byte	0x54
 7968 0640 BA010000 		.4byte	.LVL124
 7969 0644 CC010000 		.4byte	.LVL127
 7970 0648 0100     		.2byte	0x1
 7971 064a 54       		.byte	0x54
ARM GAS  C:\Users\Phuong\AppData\Local\Temp\ccqGhR5Z.s 			page 156


 7972 064b EE010000 		.4byte	.LVL132
 7973 064f 08020000 		.4byte	.LVL136
 7974 0653 0100     		.2byte	0x1
 7975 0655 54       		.byte	0x54
 7976 0656 24020000 		.4byte	.LVL139
 7977 065a 38020000 		.4byte	.LVL143
 7978 065e 0100     		.2byte	0x1
 7979 0660 54       		.byte	0x54
 7980 0661 54020000 		.4byte	.LVL146
 7981 0665 70020000 		.4byte	.LVL150
 7982 0669 0100     		.2byte	0x1
 7983 066b 54       		.byte	0x54
 7984 066c 8C020000 		.4byte	.LVL153
 7985 0670 9A020000 		.4byte	.LVL155
 7986 0674 0100     		.2byte	0x1
 7987 0676 54       		.byte	0x54
 7988 0677 B6020000 		.4byte	.LVL158
 7989 067b C6020000 		.4byte	.LVL162
 7990 067f 0100     		.2byte	0x1
 7991 0681 54       		.byte	0x54
 7992 0682 E2020000 		.4byte	.LVL165
 7993 0686 F4020000 		.4byte	.LVL169
 7994 068a 0100     		.2byte	0x1
 7995 068c 54       		.byte	0x54
 7996 068d 10030000 		.4byte	.LVL172
 7997 0691 30030000 		.4byte	.LVL176
 7998 0695 0100     		.2byte	0x1
 7999 0697 54       		.byte	0x54
 8000 0698 90030000 		.4byte	.LVL179
 8001 069c A0030000 		.4byte	.LVL181
 8002 06a0 0100     		.2byte	0x1
 8003 06a2 54       		.byte	0x54
 8004 06a3 BC030000 		.4byte	.LVL184
 8005 06a7 CC030000 		.4byte	.LVL187
 8006 06ab 0100     		.2byte	0x1
 8007 06ad 54       		.byte	0x54
 8008 06ae E8030000 		.4byte	.LVL190
 8009 06b2 F8030000 		.4byte	.LVL193
 8010 06b6 0100     		.2byte	0x1
 8011 06b8 54       		.byte	0x54
 8012 06b9 14040000 		.4byte	.LVL196
 8013 06bd 30040000 		.4byte	.LVL199
 8014 06c1 0100     		.2byte	0x1
 8015 06c3 54       		.byte	0x54
 8016 06c4 00000000 		.4byte	0
 8017 06c8 00000000 		.4byte	0
 8018              	.LLST24:
 8019 06cc 2E000000 		.4byte	.LVL71
 8020 06d0 42000000 		.4byte	.LVL72
 8021 06d4 0100     		.2byte	0x1
 8022 06d6 50       		.byte	0x50
 8023 06d7 42000000 		.4byte	.LVL72
 8024 06db 4A000000 		.4byte	.LVL74
 8025 06df 0100     		.2byte	0x1
 8026 06e1 54       		.byte	0x54
 8027 06e2 00000000 		.4byte	0
 8028 06e6 00000000 		.4byte	0
ARM GAS  C:\Users\Phuong\AppData\Local\Temp\ccqGhR5Z.s 			page 157


 8029              	.LLST25:
 8030 06ea 66000000 		.4byte	.LVL78
 8031 06ee 7A000000 		.4byte	.LVL79
 8032 06f2 0100     		.2byte	0x1
 8033 06f4 50       		.byte	0x50
 8034 06f5 7A000000 		.4byte	.LVL79
 8035 06f9 82000000 		.4byte	.LVL81
 8036 06fd 0100     		.2byte	0x1
 8037 06ff 54       		.byte	0x54
 8038 0700 00000000 		.4byte	0
 8039 0704 00000000 		.4byte	0
 8040              	.LLST26:
 8041 0708 94000000 		.4byte	.LVL84
 8042 070c A8000000 		.4byte	.LVL85
 8043 0710 0100     		.2byte	0x1
 8044 0712 50       		.byte	0x50
 8045 0713 A8000000 		.4byte	.LVL85
 8046 0717 AE000000 		.4byte	.LVL87
 8047 071b 0100     		.2byte	0x1
 8048 071d 54       		.byte	0x54
 8049 071e 00000000 		.4byte	0
 8050 0722 00000000 		.4byte	0
 8051              	.LLST27:
 8052 0726 C6000000 		.4byte	.LVL91
 8053 072a CD000000 		.4byte	.LVL92-1
 8054 072e 0100     		.2byte	0x1
 8055 0730 50       		.byte	0x50
 8056 0731 EC000000 		.4byte	.LVL96
 8057 0735 F0000000 		.4byte	.LVL97
 8058 0739 0100     		.2byte	0x1
 8059 073b 50       		.byte	0x50
 8060 073c F0000000 		.4byte	.LVL97
 8061 0740 F3000000 		.4byte	.LVL98-1
 8062 0744 0100     		.2byte	0x1
 8063 0746 51       		.byte	0x51
 8064 0747 00000000 		.4byte	0
 8065 074b 00000000 		.4byte	0
 8066              	.LLST28:
 8067 074f D0000000 		.4byte	.LVL93
 8068 0753 E4000000 		.4byte	.LVL94
 8069 0757 0100     		.2byte	0x1
 8070 0759 50       		.byte	0x50
 8071 075a E4000000 		.4byte	.LVL94
 8072 075e EC000000 		.4byte	.LVL96
 8073 0762 0100     		.2byte	0x1
 8074 0764 54       		.byte	0x54
 8075 0765 00000000 		.4byte	0
 8076 0769 00000000 		.4byte	0
 8077              	.LLST29:
 8078 076d 00010000 		.4byte	.LVL100
 8079 0771 14010000 		.4byte	.LVL101
 8080 0775 0100     		.2byte	0x1
 8081 0777 50       		.byte	0x50
 8082 0778 14010000 		.4byte	.LVL101
 8083 077c 1C010000 		.4byte	.LVL103
 8084 0780 0100     		.2byte	0x1
 8085 0782 54       		.byte	0x54
ARM GAS  C:\Users\Phuong\AppData\Local\Temp\ccqGhR5Z.s 			page 158


 8086 0783 00000000 		.4byte	0
 8087 0787 00000000 		.4byte	0
 8088              	.LLST30:
 8089 078b 2C010000 		.4byte	.LVL105
 8090 078f 33010000 		.4byte	.LVL106-1
 8091 0793 0100     		.2byte	0x1
 8092 0795 50       		.byte	0x50
 8093 0796 52010000 		.4byte	.LVL110
 8094 079a 56010000 		.4byte	.LVL111
 8095 079e 0100     		.2byte	0x1
 8096 07a0 50       		.byte	0x50
 8097 07a1 56010000 		.4byte	.LVL111
 8098 07a5 59010000 		.4byte	.LVL112-1
 8099 07a9 0100     		.2byte	0x1
 8100 07ab 51       		.byte	0x51
 8101 07ac 00000000 		.4byte	0
 8102 07b0 00000000 		.4byte	0
 8103              	.LLST31:
 8104 07b4 36010000 		.4byte	.LVL107
 8105 07b8 4A010000 		.4byte	.LVL108
 8106 07bc 0100     		.2byte	0x1
 8107 07be 50       		.byte	0x50
 8108 07bf 4A010000 		.4byte	.LVL108
 8109 07c3 52010000 		.4byte	.LVL110
 8110 07c7 0100     		.2byte	0x1
 8111 07c9 54       		.byte	0x54
 8112 07ca 00000000 		.4byte	0
 8113 07ce 00000000 		.4byte	0
 8114              	.LLST32:
 8115 07d2 66010000 		.4byte	.LVL114
 8116 07d6 7A010000 		.4byte	.LVL115
 8117 07da 0100     		.2byte	0x1
 8118 07dc 50       		.byte	0x50
 8119 07dd 7A010000 		.4byte	.LVL115
 8120 07e1 82010000 		.4byte	.LVL117
 8121 07e5 0100     		.2byte	0x1
 8122 07e7 54       		.byte	0x54
 8123 07e8 00000000 		.4byte	0
 8124 07ec 00000000 		.4byte	0
 8125              	.LLST33:
 8126 07f0 9E010000 		.4byte	.LVL121
 8127 07f4 B2010000 		.4byte	.LVL122
 8128 07f8 0100     		.2byte	0x1
 8129 07fa 50       		.byte	0x50
 8130 07fb B2010000 		.4byte	.LVL122
 8131 07ff BA010000 		.4byte	.LVL124
 8132 0803 0100     		.2byte	0x1
 8133 0805 54       		.byte	0x54
 8134 0806 00000000 		.4byte	0
 8135 080a 00000000 		.4byte	0
 8136              	.LLST34:
 8137 080e CC010000 		.4byte	.LVL127
 8138 0812 E0010000 		.4byte	.LVL128
 8139 0816 0100     		.2byte	0x1
 8140 0818 50       		.byte	0x50
 8141 0819 E0010000 		.4byte	.LVL128
 8142 081d E6010000 		.4byte	.LVL130
ARM GAS  C:\Users\Phuong\AppData\Local\Temp\ccqGhR5Z.s 			page 159


 8143 0821 0100     		.2byte	0x1
 8144 0823 54       		.byte	0x54
 8145 0824 00000000 		.4byte	0
 8146 0828 00000000 		.4byte	0
 8147              	.LLST35:
 8148 082c FE010000 		.4byte	.LVL134
 8149 0830 05020000 		.4byte	.LVL135-1
 8150 0834 0100     		.2byte	0x1
 8151 0836 50       		.byte	0x50
 8152 0837 24020000 		.4byte	.LVL139
 8153 083b 28020000 		.4byte	.LVL140
 8154 083f 0100     		.2byte	0x1
 8155 0841 50       		.byte	0x50
 8156 0842 28020000 		.4byte	.LVL140
 8157 0846 2B020000 		.4byte	.LVL141-1
 8158 084a 0100     		.2byte	0x1
 8159 084c 51       		.byte	0x51
 8160 084d 00000000 		.4byte	0
 8161 0851 00000000 		.4byte	0
 8162              	.LLST36:
 8163 0855 08020000 		.4byte	.LVL136
 8164 0859 1C020000 		.4byte	.LVL137
 8165 085d 0100     		.2byte	0x1
 8166 085f 50       		.byte	0x50
 8167 0860 1C020000 		.4byte	.LVL137
 8168 0864 24020000 		.4byte	.LVL139
 8169 0868 0100     		.2byte	0x1
 8170 086a 54       		.byte	0x54
 8171 086b 00000000 		.4byte	0
 8172 086f 00000000 		.4byte	0
 8173              	.LLST37:
 8174 0873 38020000 		.4byte	.LVL143
 8175 0877 4C020000 		.4byte	.LVL144
 8176 087b 0100     		.2byte	0x1
 8177 087d 50       		.byte	0x50
 8178 087e 4C020000 		.4byte	.LVL144
 8179 0882 54020000 		.4byte	.LVL146
 8180 0886 0100     		.2byte	0x1
 8181 0888 54       		.byte	0x54
 8182 0889 00000000 		.4byte	0
 8183 088d 00000000 		.4byte	0
 8184              	.LLST38:
 8185 0891 70020000 		.4byte	.LVL150
 8186 0895 84020000 		.4byte	.LVL151
 8187 0899 0100     		.2byte	0x1
 8188 089b 50       		.byte	0x50
 8189 089c 84020000 		.4byte	.LVL151
 8190 08a0 8C020000 		.4byte	.LVL153
 8191 08a4 0100     		.2byte	0x1
 8192 08a6 54       		.byte	0x54
 8193 08a7 00000000 		.4byte	0
 8194 08ab 00000000 		.4byte	0
 8195              	.LLST39:
 8196 08af 9A020000 		.4byte	.LVL155
 8197 08b3 AE020000 		.4byte	.LVL156
 8198 08b7 0100     		.2byte	0x1
 8199 08b9 50       		.byte	0x50
ARM GAS  C:\Users\Phuong\AppData\Local\Temp\ccqGhR5Z.s 			page 160


 8200 08ba AE020000 		.4byte	.LVL156
 8201 08be B6020000 		.4byte	.LVL158
 8202 08c2 0100     		.2byte	0x1
 8203 08c4 54       		.byte	0x54
 8204 08c5 00000000 		.4byte	0
 8205 08c9 00000000 		.4byte	0
 8206              	.LLST40:
 8207 08cd BE020000 		.4byte	.LVL160
 8208 08d1 C3020000 		.4byte	.LVL161-1
 8209 08d5 0100     		.2byte	0x1
 8210 08d7 50       		.byte	0x50
 8211 08d8 E2020000 		.4byte	.LVL165
 8212 08dc E4020000 		.4byte	.LVL166
 8213 08e0 0100     		.2byte	0x1
 8214 08e2 50       		.byte	0x50
 8215 08e3 E4020000 		.4byte	.LVL166
 8216 08e7 E7020000 		.4byte	.LVL167-1
 8217 08eb 0100     		.2byte	0x1
 8218 08ed 51       		.byte	0x51
 8219 08ee 00000000 		.4byte	0
 8220 08f2 00000000 		.4byte	0
 8221              	.LLST41:
 8222 08f6 C6020000 		.4byte	.LVL162
 8223 08fa DA020000 		.4byte	.LVL163
 8224 08fe 0100     		.2byte	0x1
 8225 0900 50       		.byte	0x50
 8226 0901 DA020000 		.4byte	.LVL163
 8227 0905 E2020000 		.4byte	.LVL165
 8228 0909 0100     		.2byte	0x1
 8229 090b 54       		.byte	0x54
 8230 090c 00000000 		.4byte	0
 8231 0910 00000000 		.4byte	0
 8232              	.LLST42:
 8233 0914 F4020000 		.4byte	.LVL169
 8234 0918 08030000 		.4byte	.LVL170
 8235 091c 0100     		.2byte	0x1
 8236 091e 50       		.byte	0x50
 8237 091f 08030000 		.4byte	.LVL170
 8238 0923 10030000 		.4byte	.LVL172
 8239 0927 0100     		.2byte	0x1
 8240 0929 54       		.byte	0x54
 8241 092a 00000000 		.4byte	0
 8242 092e 00000000 		.4byte	0
 8243              	.LLST43:
 8244 0932 30030000 		.4byte	.LVL176
 8245 0936 44030000 		.4byte	.LVL177
 8246 093a 0100     		.2byte	0x1
 8247 093c 50       		.byte	0x50
 8248 093d 44030000 		.4byte	.LVL177
 8249 0941 90030000 		.4byte	.LVL179
 8250 0945 0100     		.2byte	0x1
 8251 0947 54       		.byte	0x54
 8252 0948 00000000 		.4byte	0
 8253 094c 00000000 		.4byte	0
 8254              	.LLST44:
 8255 0950 A0030000 		.4byte	.LVL181
 8256 0954 B4030000 		.4byte	.LVL182
ARM GAS  C:\Users\Phuong\AppData\Local\Temp\ccqGhR5Z.s 			page 161


 8257 0958 0100     		.2byte	0x1
 8258 095a 50       		.byte	0x50
 8259 095b B4030000 		.4byte	.LVL182
 8260 095f BC030000 		.4byte	.LVL184
 8261 0963 0100     		.2byte	0x1
 8262 0965 54       		.byte	0x54
 8263 0966 00000000 		.4byte	0
 8264 096a 00000000 		.4byte	0
 8265              	.LLST45:
 8266 096e C2030000 		.4byte	.LVL185
 8267 0972 C9030000 		.4byte	.LVL186-1
 8268 0976 0100     		.2byte	0x1
 8269 0978 50       		.byte	0x50
 8270 0979 E8030000 		.4byte	.LVL190
 8271 097d ED030000 		.4byte	.LVL191-1
 8272 0981 0100     		.2byte	0x1
 8273 0983 50       		.byte	0x50
 8274 0984 00000000 		.4byte	0
 8275 0988 00000000 		.4byte	0
 8276              	.LLST46:
 8277 098c CC030000 		.4byte	.LVL187
 8278 0990 E0030000 		.4byte	.LVL188
 8279 0994 0100     		.2byte	0x1
 8280 0996 50       		.byte	0x50
 8281 0997 E0030000 		.4byte	.LVL188
 8282 099b E8030000 		.4byte	.LVL190
 8283 099f 0100     		.2byte	0x1
 8284 09a1 54       		.byte	0x54
 8285 09a2 00000000 		.4byte	0
 8286 09a6 00000000 		.4byte	0
 8287              	.LLST47:
 8288 09aa F8030000 		.4byte	.LVL193
 8289 09ae 0C040000 		.4byte	.LVL194
 8290 09b2 0100     		.2byte	0x1
 8291 09b4 50       		.byte	0x50
 8292 09b5 0C040000 		.4byte	.LVL194
 8293 09b9 14040000 		.4byte	.LVL196
 8294 09bd 0100     		.2byte	0x1
 8295 09bf 54       		.byte	0x54
 8296 09c0 00000000 		.4byte	0
 8297 09c4 00000000 		.4byte	0
 8298              	.LLST48:
 8299 09c8 30040000 		.4byte	.LVL199
 8300 09cc 44040000 		.4byte	.LVL200
 8301 09d0 0100     		.2byte	0x1
 8302 09d2 50       		.byte	0x50
 8303 09d3 44040000 		.4byte	.LVL200
 8304 09d7 4A040000 		.4byte	.LVL202
 8305 09db 0100     		.2byte	0x1
 8306 09dd 54       		.byte	0x54
 8307 09de 00000000 		.4byte	0
 8308 09e2 00000000 		.4byte	0
 8309              	.LLST49:
 8310 09e6 00000000 		.4byte	.LVL206
 8311 09ea 0C000000 		.4byte	.LVL207
 8312 09ee 0100     		.2byte	0x1
 8313 09f0 50       		.byte	0x50
ARM GAS  C:\Users\Phuong\AppData\Local\Temp\ccqGhR5Z.s 			page 162


 8314 09f1 0C000000 		.4byte	.LVL207
 8315 09f5 42000000 		.4byte	.LVL218
 8316 09f9 0100     		.2byte	0x1
 8317 09fb 57       		.byte	0x57
 8318 09fc 42000000 		.4byte	.LVL218
 8319 0a00 50000000 		.4byte	.LFE5
 8320 0a04 0400     		.2byte	0x4
 8321 0a06 F3       		.byte	0xf3
 8322 0a07 01       		.uleb128 0x1
 8323 0a08 50       		.byte	0x50
 8324 0a09 9F       		.byte	0x9f
 8325 0a0a 00000000 		.4byte	0
 8326 0a0e 00000000 		.4byte	0
 8327              	.LLST50:
 8328 0a12 00000000 		.4byte	.LVL206
 8329 0a16 0F000000 		.4byte	.LVL208-1
 8330 0a1a 0100     		.2byte	0x1
 8331 0a1c 51       		.byte	0x51
 8332 0a1d 0F000000 		.4byte	.LVL208-1
 8333 0a21 42000000 		.4byte	.LVL217
 8334 0a25 0100     		.2byte	0x1
 8335 0a27 56       		.byte	0x56
 8336 0a28 42000000 		.4byte	.LVL217
 8337 0a2c 50000000 		.4byte	.LFE5
 8338 0a30 0400     		.2byte	0x4
 8339 0a32 F3       		.byte	0xf3
 8340 0a33 01       		.uleb128 0x1
 8341 0a34 51       		.byte	0x51
 8342 0a35 9F       		.byte	0x9f
 8343 0a36 00000000 		.4byte	0
 8344 0a3a 00000000 		.4byte	0
 8345              	.LLST51:
 8346 0a3e 00000000 		.4byte	.LVL206
 8347 0a42 0F000000 		.4byte	.LVL208-1
 8348 0a46 0100     		.2byte	0x1
 8349 0a48 52       		.byte	0x52
 8350 0a49 0F000000 		.4byte	.LVL208-1
 8351 0a4d 1A000000 		.4byte	.LVL211
 8352 0a51 0100     		.2byte	0x1
 8353 0a53 55       		.byte	0x55
 8354 0a54 1A000000 		.4byte	.LVL211
 8355 0a58 34000000 		.4byte	.LVL214
 8356 0a5c 0400     		.2byte	0x4
 8357 0a5e F3       		.byte	0xf3
 8358 0a5f 01       		.uleb128 0x1
 8359 0a60 52       		.byte	0x52
 8360 0a61 9F       		.byte	0x9f
 8361 0a62 34000000 		.4byte	.LVL214
 8362 0a66 3E000000 		.4byte	.LVL215
 8363 0a6a 0100     		.2byte	0x1
 8364 0a6c 55       		.byte	0x55
 8365 0a6d 3E000000 		.4byte	.LVL215
 8366 0a71 50000000 		.4byte	.LFE5
 8367 0a75 0400     		.2byte	0x4
 8368 0a77 F3       		.byte	0xf3
 8369 0a78 01       		.uleb128 0x1
 8370 0a79 52       		.byte	0x52
ARM GAS  C:\Users\Phuong\AppData\Local\Temp\ccqGhR5Z.s 			page 163


 8371 0a7a 9F       		.byte	0x9f
 8372 0a7b 00000000 		.4byte	0
 8373 0a7f 00000000 		.4byte	0
 8374              	.LLST52:
 8375 0a83 12000000 		.4byte	.LVL209
 8376 0a87 17000000 		.4byte	.LVL210-1
 8377 0a8b 0100     		.2byte	0x1
 8378 0a8d 50       		.byte	0x50
 8379 0a8e 17000000 		.4byte	.LVL210-1
 8380 0a92 34000000 		.4byte	.LVL214
 8381 0a96 0100     		.2byte	0x1
 8382 0a98 54       		.byte	0x54
 8383 0a99 34000000 		.4byte	.LVL214
 8384 0a9d 3E000000 		.4byte	.LVL215
 8385 0aa1 0100     		.2byte	0x1
 8386 0aa3 50       		.byte	0x50
 8387 0aa4 3E000000 		.4byte	.LVL215
 8388 0aa8 42000000 		.4byte	.LVL216
 8389 0aac 0100     		.2byte	0x1
 8390 0aae 54       		.byte	0x54
 8391 0aaf 42000000 		.4byte	.LVL216
 8392 0ab3 50000000 		.4byte	.LFE5
 8393 0ab7 0100     		.2byte	0x1
 8394 0ab9 50       		.byte	0x50
 8395 0aba 00000000 		.4byte	0
 8396 0abe 00000000 		.4byte	0
 8397              	.LLST53:
 8398 0ac2 1A000000 		.4byte	.LVL211
 8399 0ac6 30000000 		.4byte	.LVL212
 8400 0aca 0100     		.2byte	0x1
 8401 0acc 50       		.byte	0x50
 8402 0acd 30000000 		.4byte	.LVL212
 8403 0ad1 34000000 		.4byte	.LVL214
 8404 0ad5 0100     		.2byte	0x1
 8405 0ad7 55       		.byte	0x55
 8406 0ad8 00000000 		.4byte	0
 8407 0adc 00000000 		.4byte	0
 8408              	.LLST54:
 8409 0ae0 00000000 		.4byte	.LVL219
 8410 0ae4 11000000 		.4byte	.LVL220-1
 8411 0ae8 0100     		.2byte	0x1
 8412 0aea 50       		.byte	0x50
 8413 0aeb 11000000 		.4byte	.LVL220-1
 8414 0aef 14000000 		.4byte	.LVL221
 8415 0af3 0100     		.2byte	0x1
 8416 0af5 54       		.byte	0x54
 8417 0af6 14000000 		.4byte	.LVL221
 8418 0afa 32000000 		.4byte	.LVL224
 8419 0afe 0400     		.2byte	0x4
 8420 0b00 F3       		.byte	0xf3
 8421 0b01 01       		.uleb128 0x1
 8422 0b02 50       		.byte	0x50
 8423 0b03 9F       		.byte	0x9f
 8424 0b04 32000000 		.4byte	.LVL224
 8425 0b08 3D000000 		.4byte	.LVL226-1
 8426 0b0c 0100     		.2byte	0x1
 8427 0b0e 50       		.byte	0x50
ARM GAS  C:\Users\Phuong\AppData\Local\Temp\ccqGhR5Z.s 			page 164


 8428 0b0f 3D000000 		.4byte	.LVL226-1
 8429 0b13 84000000 		.4byte	.LVL235
 8430 0b17 0100     		.2byte	0x1
 8431 0b19 54       		.byte	0x54
 8432 0b1a 84000000 		.4byte	.LVL235
 8433 0b1e 8A000000 		.4byte	.LVL237
 8434 0b22 0400     		.2byte	0x4
 8435 0b24 F3       		.byte	0xf3
 8436 0b25 01       		.uleb128 0x1
 8437 0b26 50       		.byte	0x50
 8438 0b27 9F       		.byte	0x9f
 8439 0b28 8A000000 		.4byte	.LVL237
 8440 0b2c 8C000000 		.4byte	.LVL238
 8441 0b30 0100     		.2byte	0x1
 8442 0b32 50       		.byte	0x50
 8443 0b33 8C000000 		.4byte	.LVL238
 8444 0b37 A8000000 		.4byte	.LFE7
 8445 0b3b 0400     		.2byte	0x4
 8446 0b3d F3       		.byte	0xf3
 8447 0b3e 01       		.uleb128 0x1
 8448 0b3f 50       		.byte	0x50
 8449 0b40 9F       		.byte	0x9f
 8450 0b41 00000000 		.4byte	0
 8451 0b45 00000000 		.4byte	0
 8452              	.LLST55:
 8453 0b49 00000000 		.4byte	.LVL219
 8454 0b4d 11000000 		.4byte	.LVL220-1
 8455 0b51 0100     		.2byte	0x1
 8456 0b53 51       		.byte	0x51
 8457 0b54 11000000 		.4byte	.LVL220-1
 8458 0b58 32000000 		.4byte	.LVL224
 8459 0b5c 0100     		.2byte	0x1
 8460 0b5e 56       		.byte	0x56
 8461 0b5f 32000000 		.4byte	.LVL224
 8462 0b63 3A000000 		.4byte	.LVL225
 8463 0b67 0100     		.2byte	0x1
 8464 0b69 51       		.byte	0x51
 8465 0b6a 3A000000 		.4byte	.LVL225
 8466 0b6e 8A000000 		.4byte	.LVL237
 8467 0b72 0100     		.2byte	0x1
 8468 0b74 56       		.byte	0x56
 8469 0b75 8A000000 		.4byte	.LVL237
 8470 0b79 8C000000 		.4byte	.LVL238
 8471 0b7d 0100     		.2byte	0x1
 8472 0b7f 51       		.byte	0x51
 8473 0b80 8C000000 		.4byte	.LVL238
 8474 0b84 8E000000 		.4byte	.LVL239
 8475 0b88 0100     		.2byte	0x1
 8476 0b8a 56       		.byte	0x56
 8477 0b8b 8E000000 		.4byte	.LVL239
 8478 0b8f A8000000 		.4byte	.LFE7
 8479 0b93 0400     		.2byte	0x4
 8480 0b95 F3       		.byte	0xf3
 8481 0b96 01       		.uleb128 0x1
 8482 0b97 51       		.byte	0x51
 8483 0b98 9F       		.byte	0x9f
 8484 0b99 00000000 		.4byte	0
ARM GAS  C:\Users\Phuong\AppData\Local\Temp\ccqGhR5Z.s 			page 165


 8485 0b9d 00000000 		.4byte	0
 8486              	.LLST56:
 8487 0ba1 00000000 		.4byte	.LVL219
 8488 0ba5 11000000 		.4byte	.LVL220-1
 8489 0ba9 0100     		.2byte	0x1
 8490 0bab 52       		.byte	0x52
 8491 0bac 11000000 		.4byte	.LVL220-1
 8492 0bb0 32000000 		.4byte	.LVL224
 8493 0bb4 0100     		.2byte	0x1
 8494 0bb6 55       		.byte	0x55
 8495 0bb7 32000000 		.4byte	.LVL224
 8496 0bbb 3D000000 		.4byte	.LVL226-1
 8497 0bbf 0100     		.2byte	0x1
 8498 0bc1 52       		.byte	0x52
 8499 0bc2 3D000000 		.4byte	.LVL226-1
 8500 0bc6 56000000 		.4byte	.LVL229
 8501 0bca 0100     		.2byte	0x1
 8502 0bcc 55       		.byte	0x55
 8503 0bcd 56000000 		.4byte	.LVL229
 8504 0bd1 7C000000 		.4byte	.LVL233
 8505 0bd5 0400     		.2byte	0x4
 8506 0bd7 F3       		.byte	0xf3
 8507 0bd8 01       		.uleb128 0x1
 8508 0bd9 52       		.byte	0x52
 8509 0bda 9F       		.byte	0x9f
 8510 0bdb 7C000000 		.4byte	.LVL233
 8511 0bdf 8A000000 		.4byte	.LVL237
 8512 0be3 0100     		.2byte	0x1
 8513 0be5 55       		.byte	0x55
 8514 0be6 8A000000 		.4byte	.LVL237
 8515 0bea 8C000000 		.4byte	.LVL238
 8516 0bee 0100     		.2byte	0x1
 8517 0bf0 52       		.byte	0x52
 8518 0bf1 8C000000 		.4byte	.LVL238
 8519 0bf5 A8000000 		.4byte	.LFE7
 8520 0bf9 0400     		.2byte	0x4
 8521 0bfb F3       		.byte	0xf3
 8522 0bfc 01       		.uleb128 0x1
 8523 0bfd 52       		.byte	0x52
 8524 0bfe 9F       		.byte	0x9f
 8525 0bff 00000000 		.4byte	0
 8526 0c03 00000000 		.4byte	0
 8527              	.LLST57:
 8528 0c07 6E000000 		.4byte	.LVL231
 8529 0c0b 7C000000 		.4byte	.LVL233
 8530 0c0f 0400     		.2byte	0x4
 8531 0c11 0A       		.byte	0xa
 8532 0c12 6B01     		.2byte	0x16b
 8533 0c14 9F       		.byte	0x9f
 8534 0c15 80000000 		.4byte	.LVL234
 8535 0c19 84000000 		.4byte	.LVL235
 8536 0c1d 0200     		.2byte	0x2
 8537 0c1f 30       		.byte	0x30
 8538 0c20 9F       		.byte	0x9f
 8539 0c21 8C000000 		.4byte	.LVL238
 8540 0c25 A8000000 		.4byte	.LFE7
 8541 0c29 0100     		.2byte	0x1
ARM GAS  C:\Users\Phuong\AppData\Local\Temp\ccqGhR5Z.s 			page 166


 8542 0c2b 50       		.byte	0x50
 8543 0c2c 00000000 		.4byte	0
 8544 0c30 00000000 		.4byte	0
 8545              	.LLST58:
 8546 0c34 14000000 		.4byte	.LVL221
 8547 0c38 2A000000 		.4byte	.LVL222
 8548 0c3c 0100     		.2byte	0x1
 8549 0c3e 50       		.byte	0x50
 8550 0c3f 2A000000 		.4byte	.LVL222
 8551 0c43 32000000 		.4byte	.LVL224
 8552 0c47 0100     		.2byte	0x1
 8553 0c49 54       		.byte	0x54
 8554 0c4a 84000000 		.4byte	.LVL235
 8555 0c4e 86000000 		.4byte	.LVL236
 8556 0c52 0100     		.2byte	0x1
 8557 0c54 50       		.byte	0x50
 8558 0c55 86000000 		.4byte	.LVL236
 8559 0c59 8A000000 		.4byte	.LVL237
 8560 0c5d 0100     		.2byte	0x1
 8561 0c5f 54       		.byte	0x54
 8562 0c60 00000000 		.4byte	0
 8563 0c64 00000000 		.4byte	0
 8564              	.LLST59:
 8565 0c68 56000000 		.4byte	.LVL229
 8566 0c6c 6C000000 		.4byte	.LVL230
 8567 0c70 0100     		.2byte	0x1
 8568 0c72 50       		.byte	0x50
 8569 0c73 6C000000 		.4byte	.LVL230
 8570 0c77 7C000000 		.4byte	.LVL233
 8571 0c7b 0100     		.2byte	0x1
 8572 0c7d 55       		.byte	0x55
 8573 0c7e 00000000 		.4byte	0
 8574 0c82 00000000 		.4byte	0
 8575              	.LLST60:
 8576 0c86 00000000 		.4byte	.LVL240
 8577 0c8a 0B000000 		.4byte	.LVL241-1
 8578 0c8e 0100     		.2byte	0x1
 8579 0c90 50       		.byte	0x50
 8580 0c91 0B000000 		.4byte	.LVL241-1
 8581 0c95 0E000000 		.4byte	.LVL242
 8582 0c99 0100     		.2byte	0x1
 8583 0c9b 54       		.byte	0x54
 8584 0c9c 0E000000 		.4byte	.LVL242
 8585 0ca0 2C000000 		.4byte	.LVL245
 8586 0ca4 0400     		.2byte	0x4
 8587 0ca6 F3       		.byte	0xf3
 8588 0ca7 01       		.uleb128 0x1
 8589 0ca8 50       		.byte	0x50
 8590 0ca9 9F       		.byte	0x9f
 8591 0caa 2C000000 		.4byte	.LVL245
 8592 0cae 3B000000 		.4byte	.LVL246-1
 8593 0cb2 0100     		.2byte	0x1
 8594 0cb4 50       		.byte	0x50
 8595 0cb5 3B000000 		.4byte	.LVL246-1
 8596 0cb9 7A000000 		.4byte	.LVL253
 8597 0cbd 0100     		.2byte	0x1
 8598 0cbf 54       		.byte	0x54
ARM GAS  C:\Users\Phuong\AppData\Local\Temp\ccqGhR5Z.s 			page 167


 8599 0cc0 7A000000 		.4byte	.LVL253
 8600 0cc4 80000000 		.4byte	.LVL255
 8601 0cc8 0400     		.2byte	0x4
 8602 0cca F3       		.byte	0xf3
 8603 0ccb 01       		.uleb128 0x1
 8604 0ccc 50       		.byte	0x50
 8605 0ccd 9F       		.byte	0x9f
 8606 0cce 80000000 		.4byte	.LVL255
 8607 0cd2 82000000 		.4byte	.LVL256
 8608 0cd6 0100     		.2byte	0x1
 8609 0cd8 50       		.byte	0x50
 8610 0cd9 82000000 		.4byte	.LVL256
 8611 0cdd 86000000 		.4byte	.LVL257
 8612 0ce1 0100     		.2byte	0x1
 8613 0ce3 54       		.byte	0x54
 8614 0ce4 86000000 		.4byte	.LVL257
 8615 0ce8 9C000000 		.4byte	.LFE8
 8616 0cec 0400     		.2byte	0x4
 8617 0cee F3       		.byte	0xf3
 8618 0cef 01       		.uleb128 0x1
 8619 0cf0 50       		.byte	0x50
 8620 0cf1 9F       		.byte	0x9f
 8621 0cf2 00000000 		.4byte	0
 8622 0cf6 00000000 		.4byte	0
 8623              	.LLST61:
 8624 0cfa 6C000000 		.4byte	.LVL251
 8625 0cfe 7A000000 		.4byte	.LVL253
 8626 0d02 0400     		.2byte	0x4
 8627 0d04 0A       		.byte	0xa
 8628 0d05 9201     		.2byte	0x192
 8629 0d07 9F       		.byte	0x9f
 8630 0d08 86000000 		.4byte	.LVL257
 8631 0d0c 9C000000 		.4byte	.LFE8
 8632 0d10 0100     		.2byte	0x1
 8633 0d12 50       		.byte	0x50
 8634 0d13 00000000 		.4byte	0
 8635 0d17 00000000 		.4byte	0
 8636              	.LLST62:
 8637 0d1b 0E000000 		.4byte	.LVL242
 8638 0d1f 24000000 		.4byte	.LVL243
 8639 0d23 0100     		.2byte	0x1
 8640 0d25 50       		.byte	0x50
 8641 0d26 24000000 		.4byte	.LVL243
 8642 0d2a 2C000000 		.4byte	.LVL245
 8643 0d2e 0100     		.2byte	0x1
 8644 0d30 54       		.byte	0x54
 8645 0d31 7A000000 		.4byte	.LVL253
 8646 0d35 7C000000 		.4byte	.LVL254
 8647 0d39 0100     		.2byte	0x1
 8648 0d3b 50       		.byte	0x50
 8649 0d3c 7C000000 		.4byte	.LVL254
 8650 0d40 80000000 		.4byte	.LVL255
 8651 0d44 0100     		.2byte	0x1
 8652 0d46 54       		.byte	0x54
 8653 0d47 00000000 		.4byte	0
 8654 0d4b 00000000 		.4byte	0
 8655              	.LLST63:
ARM GAS  C:\Users\Phuong\AppData\Local\Temp\ccqGhR5Z.s 			page 168


 8656 0d4f 54000000 		.4byte	.LVL249
 8657 0d53 6A000000 		.4byte	.LVL250
 8658 0d57 0100     		.2byte	0x1
 8659 0d59 50       		.byte	0x50
 8660 0d5a 6A000000 		.4byte	.LVL250
 8661 0d5e 7A000000 		.4byte	.LVL253
 8662 0d62 0100     		.2byte	0x1
 8663 0d64 55       		.byte	0x55
 8664 0d65 00000000 		.4byte	0
 8665 0d69 00000000 		.4byte	0
 8666              	.LLST64:
 8667 0d6d 00000000 		.4byte	.LVL258
 8668 0d71 0B000000 		.4byte	.LVL259-1
 8669 0d75 0100     		.2byte	0x1
 8670 0d77 50       		.byte	0x50
 8671 0d78 0B000000 		.4byte	.LVL259-1
 8672 0d7c 0E000000 		.4byte	.LVL260
 8673 0d80 0100     		.2byte	0x1
 8674 0d82 54       		.byte	0x54
 8675 0d83 0E000000 		.4byte	.LVL260
 8676 0d87 26000000 		.4byte	.LVL263
 8677 0d8b 0400     		.2byte	0x4
 8678 0d8d F3       		.byte	0xf3
 8679 0d8e 01       		.uleb128 0x1
 8680 0d8f 50       		.byte	0x50
 8681 0d90 9F       		.byte	0x9f
 8682 0d91 26000000 		.4byte	.LVL263
 8683 0d95 29000000 		.4byte	.LVL264-1
 8684 0d99 0100     		.2byte	0x1
 8685 0d9b 50       		.byte	0x50
 8686 0d9c 29000000 		.4byte	.LVL264-1
 8687 0da0 30000000 		.4byte	.LVL265
 8688 0da4 0100     		.2byte	0x1
 8689 0da6 54       		.byte	0x54
 8690 0da7 30000000 		.4byte	.LVL265
 8691 0dab 40000000 		.4byte	.LFE6
 8692 0daf 0400     		.2byte	0x4
 8693 0db1 F3       		.byte	0xf3
 8694 0db2 01       		.uleb128 0x1
 8695 0db3 50       		.byte	0x50
 8696 0db4 9F       		.byte	0x9f
 8697 0db5 00000000 		.4byte	0
 8698 0db9 00000000 		.4byte	0
 8699              	.LLST65:
 8700 0dbd 0E000000 		.4byte	.LVL260
 8701 0dc1 22000000 		.4byte	.LVL261
 8702 0dc5 0100     		.2byte	0x1
 8703 0dc7 50       		.byte	0x50
 8704 0dc8 22000000 		.4byte	.LVL261
 8705 0dcc 26000000 		.4byte	.LVL263
 8706 0dd0 0100     		.2byte	0x1
 8707 0dd2 54       		.byte	0x54
 8708 0dd3 00000000 		.4byte	0
 8709 0dd7 00000000 		.4byte	0
 8710              	.LLST66:
 8711 0ddb 00000000 		.4byte	.LVL266
 8712 0ddf 0B000000 		.4byte	.LVL267-1
ARM GAS  C:\Users\Phuong\AppData\Local\Temp\ccqGhR5Z.s 			page 169


 8713 0de3 0100     		.2byte	0x1
 8714 0de5 50       		.byte	0x50
 8715 0de6 0B000000 		.4byte	.LVL267-1
 8716 0dea 2C000000 		.4byte	.LVL271
 8717 0dee 0400     		.2byte	0x4
 8718 0df0 F3       		.byte	0xf3
 8719 0df1 01       		.uleb128 0x1
 8720 0df2 50       		.byte	0x50
 8721 0df3 9F       		.byte	0x9f
 8722 0df4 2C000000 		.4byte	.LVL271
 8723 0df8 2E000000 		.4byte	.LVL272
 8724 0dfc 0100     		.2byte	0x1
 8725 0dfe 50       		.byte	0x50
 8726 0dff 2E000000 		.4byte	.LVL272
 8727 0e03 7C000000 		.4byte	.LFE9
 8728 0e07 0400     		.2byte	0x4
 8729 0e09 F3       		.byte	0xf3
 8730 0e0a 01       		.uleb128 0x1
 8731 0e0b 50       		.byte	0x50
 8732 0e0c 9F       		.byte	0x9f
 8733 0e0d 00000000 		.4byte	0
 8734 0e11 00000000 		.4byte	0
 8735              	.LLST67:
 8736 0e15 00000000 		.4byte	.LVL266
 8737 0e19 0B000000 		.4byte	.LVL267-1
 8738 0e1d 0100     		.2byte	0x1
 8739 0e1f 51       		.byte	0x51
 8740 0e20 0B000000 		.4byte	.LVL267-1
 8741 0e24 2C000000 		.4byte	.LVL271
 8742 0e28 0400     		.2byte	0x4
 8743 0e2a F3       		.byte	0xf3
 8744 0e2b 01       		.uleb128 0x1
 8745 0e2c 51       		.byte	0x51
 8746 0e2d 9F       		.byte	0x9f
 8747 0e2e 2C000000 		.4byte	.LVL271
 8748 0e32 31000000 		.4byte	.LVL273-1
 8749 0e36 0100     		.2byte	0x1
 8750 0e38 51       		.byte	0x51
 8751 0e39 31000000 		.4byte	.LVL273-1
 8752 0e3d 7C000000 		.4byte	.LFE9
 8753 0e41 0400     		.2byte	0x4
 8754 0e43 F3       		.byte	0xf3
 8755 0e44 01       		.uleb128 0x1
 8756 0e45 51       		.byte	0x51
 8757 0e46 9F       		.byte	0x9f
 8758 0e47 00000000 		.4byte	0
 8759 0e4b 00000000 		.4byte	0
 8760              	.LLST68:
 8761 0e4f 0E000000 		.4byte	.LVL268
 8762 0e53 24000000 		.4byte	.LVL269
 8763 0e57 0100     		.2byte	0x1
 8764 0e59 50       		.byte	0x50
 8765 0e5a 24000000 		.4byte	.LVL269
 8766 0e5e 2C000000 		.4byte	.LVL271
 8767 0e62 0100     		.2byte	0x1
 8768 0e64 54       		.byte	0x54
 8769 0e65 5A000000 		.4byte	.LVL278
ARM GAS  C:\Users\Phuong\AppData\Local\Temp\ccqGhR5Z.s 			page 170


 8770 0e69 5C000000 		.4byte	.LVL279
 8771 0e6d 0100     		.2byte	0x1
 8772 0e6f 50       		.byte	0x50
 8773 0e70 5C000000 		.4byte	.LVL279
 8774 0e74 60000000 		.4byte	.LVL280
 8775 0e78 0100     		.2byte	0x1
 8776 0e7a 54       		.byte	0x54
 8777 0e7b 00000000 		.4byte	0
 8778 0e7f 00000000 		.4byte	0
 8779              	.LLST69:
 8780 0e83 3C000000 		.4byte	.LVL275
 8781 0e87 52000000 		.4byte	.LVL276
 8782 0e8b 0100     		.2byte	0x1
 8783 0e8d 50       		.byte	0x50
 8784 0e8e 52000000 		.4byte	.LVL276
 8785 0e92 5A000000 		.4byte	.LVL278
 8786 0e96 0100     		.2byte	0x1
 8787 0e98 54       		.byte	0x54
 8788 0e99 64000000 		.4byte	.LVL281
 8789 0e9d 66000000 		.4byte	.LVL282
 8790 0ea1 0100     		.2byte	0x1
 8791 0ea3 50       		.byte	0x50
 8792 0ea4 66000000 		.4byte	.LVL282
 8793 0ea8 68000000 		.4byte	.LVL283
 8794 0eac 0100     		.2byte	0x1
 8795 0eae 54       		.byte	0x54
 8796 0eaf 00000000 		.4byte	0
 8797 0eb3 00000000 		.4byte	0
 8798              	.LLST70:
 8799 0eb7 00000000 		.4byte	.LVL284
 8800 0ebb 0B000000 		.4byte	.LVL285-1
 8801 0ebf 0100     		.2byte	0x1
 8802 0ec1 50       		.byte	0x50
 8803 0ec2 0B000000 		.4byte	.LVL285-1
 8804 0ec6 2C000000 		.4byte	.LVL289
 8805 0eca 0400     		.2byte	0x4
 8806 0ecc F3       		.byte	0xf3
 8807 0ecd 01       		.uleb128 0x1
 8808 0ece 50       		.byte	0x50
 8809 0ecf 9F       		.byte	0x9f
 8810 0ed0 2C000000 		.4byte	.LVL289
 8811 0ed4 2E000000 		.4byte	.LVL290
 8812 0ed8 0100     		.2byte	0x1
 8813 0eda 50       		.byte	0x50
 8814 0edb 2E000000 		.4byte	.LVL290
 8815 0edf 7C000000 		.4byte	.LFE10
 8816 0ee3 0400     		.2byte	0x4
 8817 0ee5 F3       		.byte	0xf3
 8818 0ee6 01       		.uleb128 0x1
 8819 0ee7 50       		.byte	0x50
 8820 0ee8 9F       		.byte	0x9f
 8821 0ee9 00000000 		.4byte	0
 8822 0eed 00000000 		.4byte	0
 8823              	.LLST71:
 8824 0ef1 00000000 		.4byte	.LVL284
 8825 0ef5 0B000000 		.4byte	.LVL285-1
 8826 0ef9 0100     		.2byte	0x1
ARM GAS  C:\Users\Phuong\AppData\Local\Temp\ccqGhR5Z.s 			page 171


 8827 0efb 51       		.byte	0x51
 8828 0efc 0B000000 		.4byte	.LVL285-1
 8829 0f00 2C000000 		.4byte	.LVL289
 8830 0f04 0400     		.2byte	0x4
 8831 0f06 F3       		.byte	0xf3
 8832 0f07 01       		.uleb128 0x1
 8833 0f08 51       		.byte	0x51
 8834 0f09 9F       		.byte	0x9f
 8835 0f0a 2C000000 		.4byte	.LVL289
 8836 0f0e 31000000 		.4byte	.LVL291-1
 8837 0f12 0100     		.2byte	0x1
 8838 0f14 51       		.byte	0x51
 8839 0f15 31000000 		.4byte	.LVL291-1
 8840 0f19 7C000000 		.4byte	.LFE10
 8841 0f1d 0400     		.2byte	0x4
 8842 0f1f F3       		.byte	0xf3
 8843 0f20 01       		.uleb128 0x1
 8844 0f21 51       		.byte	0x51
 8845 0f22 9F       		.byte	0x9f
 8846 0f23 00000000 		.4byte	0
 8847 0f27 00000000 		.4byte	0
 8848              	.LLST72:
 8849 0f2b 0E000000 		.4byte	.LVL286
 8850 0f2f 24000000 		.4byte	.LVL287
 8851 0f33 0100     		.2byte	0x1
 8852 0f35 50       		.byte	0x50
 8853 0f36 24000000 		.4byte	.LVL287
 8854 0f3a 2C000000 		.4byte	.LVL289
 8855 0f3e 0100     		.2byte	0x1
 8856 0f40 54       		.byte	0x54
 8857 0f41 5A000000 		.4byte	.LVL296
 8858 0f45 5C000000 		.4byte	.LVL297
 8859 0f49 0100     		.2byte	0x1
 8860 0f4b 50       		.byte	0x50
 8861 0f4c 5C000000 		.4byte	.LVL297
 8862 0f50 60000000 		.4byte	.LVL298
 8863 0f54 0100     		.2byte	0x1
 8864 0f56 54       		.byte	0x54
 8865 0f57 00000000 		.4byte	0
 8866 0f5b 00000000 		.4byte	0
 8867              	.LLST73:
 8868 0f5f 3C000000 		.4byte	.LVL293
 8869 0f63 52000000 		.4byte	.LVL294
 8870 0f67 0100     		.2byte	0x1
 8871 0f69 50       		.byte	0x50
 8872 0f6a 52000000 		.4byte	.LVL294
 8873 0f6e 5A000000 		.4byte	.LVL296
 8874 0f72 0100     		.2byte	0x1
 8875 0f74 54       		.byte	0x54
 8876 0f75 64000000 		.4byte	.LVL299
 8877 0f79 66000000 		.4byte	.LVL300
 8878 0f7d 0100     		.2byte	0x1
 8879 0f7f 50       		.byte	0x50
 8880 0f80 66000000 		.4byte	.LVL300
 8881 0f84 68000000 		.4byte	.LVL301
 8882 0f88 0100     		.2byte	0x1
 8883 0f8a 54       		.byte	0x54
ARM GAS  C:\Users\Phuong\AppData\Local\Temp\ccqGhR5Z.s 			page 172


 8884 0f8b 00000000 		.4byte	0
 8885 0f8f 00000000 		.4byte	0
 8886              	.LLST74:
 8887 0f93 00000000 		.4byte	.LVL302
 8888 0f97 13000000 		.4byte	.LVL303-1
 8889 0f9b 0100     		.2byte	0x1
 8890 0f9d 50       		.byte	0x50
 8891 0f9e 13000000 		.4byte	.LVL303-1
 8892 0fa2 16000000 		.4byte	.LVL304
 8893 0fa6 0100     		.2byte	0x1
 8894 0fa8 54       		.byte	0x54
 8895 0fa9 16000000 		.4byte	.LVL304
 8896 0fad 34000000 		.4byte	.LVL307
 8897 0fb1 0400     		.2byte	0x4
 8898 0fb3 F3       		.byte	0xf3
 8899 0fb4 01       		.uleb128 0x1
 8900 0fb5 50       		.byte	0x50
 8901 0fb6 9F       		.byte	0x9f
 8902 0fb7 34000000 		.4byte	.LVL307
 8903 0fbb 3D000000 		.4byte	.LVL309-1
 8904 0fbf 0100     		.2byte	0x1
 8905 0fc1 50       		.byte	0x50
 8906 0fc2 3D000000 		.4byte	.LVL309-1
 8907 0fc6 40000000 		.4byte	.LVL310
 8908 0fca 0100     		.2byte	0x1
 8909 0fcc 54       		.byte	0x54
 8910 0fcd 40000000 		.4byte	.LVL310
 8911 0fd1 5E000000 		.4byte	.LVL313
 8912 0fd5 0400     		.2byte	0x4
 8913 0fd7 F3       		.byte	0xf3
 8914 0fd8 01       		.uleb128 0x1
 8915 0fd9 50       		.byte	0x50
 8916 0fda 9F       		.byte	0x9f
 8917 0fdb 5E000000 		.4byte	.LVL313
 8918 0fdf 62000000 		.4byte	.LVL315
 8919 0fe3 0100     		.2byte	0x1
 8920 0fe5 50       		.byte	0x50
 8921 0fe6 62000000 		.4byte	.LVL315
 8922 0fea 70000000 		.4byte	.LVL318
 8923 0fee 0100     		.2byte	0x1
 8924 0ff0 54       		.byte	0x54
 8925 0ff1 70000000 		.4byte	.LVL318
 8926 0ff5 8E000000 		.4byte	.LVL321
 8927 0ff9 0400     		.2byte	0x4
 8928 0ffb F3       		.byte	0xf3
 8929 0ffc 01       		.uleb128 0x1
 8930 0ffd 50       		.byte	0x50
 8931 0ffe 9F       		.byte	0x9f
 8932 0fff 8E000000 		.4byte	.LVL321
 8933 1003 A0000000 		.4byte	.LVL324
 8934 1007 0100     		.2byte	0x1
 8935 1009 54       		.byte	0x54
 8936 100a A0000000 		.4byte	.LVL324
 8937 100e BE000000 		.4byte	.LVL327
 8938 1012 0400     		.2byte	0x4
 8939 1014 F3       		.byte	0xf3
 8940 1015 01       		.uleb128 0x1
ARM GAS  C:\Users\Phuong\AppData\Local\Temp\ccqGhR5Z.s 			page 173


 8941 1016 50       		.byte	0x50
 8942 1017 9F       		.byte	0x9f
 8943 1018 BE000000 		.4byte	.LVL327
 8944 101c D2000000 		.4byte	.LVL330
 8945 1020 0100     		.2byte	0x1
 8946 1022 54       		.byte	0x54
 8947 1023 D2000000 		.4byte	.LVL330
 8948 1027 FC000000 		.4byte	.LVL337
 8949 102b 0400     		.2byte	0x4
 8950 102d F3       		.byte	0xf3
 8951 102e 01       		.uleb128 0x1
 8952 102f 50       		.byte	0x50
 8953 1030 9F       		.byte	0x9f
 8954 1031 FC000000 		.4byte	.LVL337
 8955 1035 00010000 		.4byte	.LVL338
 8956 1039 0100     		.2byte	0x1
 8957 103b 54       		.byte	0x54
 8958 103c 00010000 		.4byte	.LVL338
 8959 1040 30010000 		.4byte	.LFE11
 8960 1044 0400     		.2byte	0x4
 8961 1046 F3       		.byte	0xf3
 8962 1047 01       		.uleb128 0x1
 8963 1048 50       		.byte	0x50
 8964 1049 9F       		.byte	0x9f
 8965 104a 00000000 		.4byte	0
 8966 104e 00000000 		.4byte	0
 8967              	.LLST75:
 8968 1052 00000000 		.4byte	.LVL302
 8969 1056 13000000 		.4byte	.LVL303-1
 8970 105a 0100     		.2byte	0x1
 8971 105c 51       		.byte	0x51
 8972 105d 13000000 		.4byte	.LVL303-1
 8973 1061 34000000 		.4byte	.LVL307
 8974 1065 0100     		.2byte	0x1
 8975 1067 55       		.byte	0x55
 8976 1068 34000000 		.4byte	.LVL307
 8977 106c 3D000000 		.4byte	.LVL309-1
 8978 1070 0100     		.2byte	0x1
 8979 1072 51       		.byte	0x51
 8980 1073 3D000000 		.4byte	.LVL309-1
 8981 1077 5E000000 		.4byte	.LVL313
 8982 107b 0100     		.2byte	0x1
 8983 107d 55       		.byte	0x55
 8984 107e 5E000000 		.4byte	.LVL313
 8985 1082 60000000 		.4byte	.LVL314
 8986 1086 0100     		.2byte	0x1
 8987 1088 51       		.byte	0x51
 8988 1089 60000000 		.4byte	.LVL314
 8989 108d 12010000 		.4byte	.LVL346
 8990 1091 0100     		.2byte	0x1
 8991 1093 55       		.byte	0x55
 8992 1094 12010000 		.4byte	.LVL346
 8993 1098 30010000 		.4byte	.LFE11
 8994 109c 0400     		.2byte	0x4
 8995 109e F3       		.byte	0xf3
 8996 109f 01       		.uleb128 0x1
 8997 10a0 51       		.byte	0x51
ARM GAS  C:\Users\Phuong\AppData\Local\Temp\ccqGhR5Z.s 			page 174


 8998 10a1 9F       		.byte	0x9f
 8999 10a2 00000000 		.4byte	0
 9000 10a6 00000000 		.4byte	0
 9001              	.LLST76:
 9002 10aa 00000000 		.4byte	.LVL302
 9003 10ae 13000000 		.4byte	.LVL303-1
 9004 10b2 0100     		.2byte	0x1
 9005 10b4 52       		.byte	0x52
 9006 10b5 13000000 		.4byte	.LVL303-1
 9007 10b9 34000000 		.4byte	.LVL307
 9008 10bd 0100     		.2byte	0x1
 9009 10bf 56       		.byte	0x56
 9010 10c0 34000000 		.4byte	.LVL307
 9011 10c4 3D000000 		.4byte	.LVL309-1
 9012 10c8 0100     		.2byte	0x1
 9013 10ca 52       		.byte	0x52
 9014 10cb 3D000000 		.4byte	.LVL309-1
 9015 10cf 5E000000 		.4byte	.LVL313
 9016 10d3 0100     		.2byte	0x1
 9017 10d5 56       		.byte	0x56
 9018 10d6 5E000000 		.4byte	.LVL313
 9019 10da 65000000 		.4byte	.LVL316-1
 9020 10de 0100     		.2byte	0x1
 9021 10e0 52       		.byte	0x52
 9022 10e1 65000000 		.4byte	.LVL316-1
 9023 10e5 12010000 		.4byte	.LVL347
 9024 10e9 0100     		.2byte	0x1
 9025 10eb 56       		.byte	0x56
 9026 10ec 12010000 		.4byte	.LVL347
 9027 10f0 30010000 		.4byte	.LFE11
 9028 10f4 0400     		.2byte	0x4
 9029 10f6 F3       		.byte	0xf3
 9030 10f7 01       		.uleb128 0x1
 9031 10f8 52       		.byte	0x52
 9032 10f9 9F       		.byte	0x9f
 9033 10fa 00000000 		.4byte	0
 9034 10fe 00000000 		.4byte	0
 9035              	.LLST77:
 9036 1102 00000000 		.4byte	.LVL302
 9037 1106 13000000 		.4byte	.LVL303-1
 9038 110a 0100     		.2byte	0x1
 9039 110c 53       		.byte	0x53
 9040 110d 13000000 		.4byte	.LVL303-1
 9041 1111 34000000 		.4byte	.LVL307
 9042 1115 0100     		.2byte	0x1
 9043 1117 57       		.byte	0x57
 9044 1118 34000000 		.4byte	.LVL307
 9045 111c 36000000 		.4byte	.LVL308
 9046 1120 0100     		.2byte	0x1
 9047 1122 53       		.byte	0x53
 9048 1123 36000000 		.4byte	.LVL308
 9049 1127 12010000 		.4byte	.LVL348
 9050 112b 0100     		.2byte	0x1
 9051 112d 57       		.byte	0x57
 9052 112e 12010000 		.4byte	.LVL348
 9053 1132 30010000 		.4byte	.LFE11
 9054 1136 0400     		.2byte	0x4
ARM GAS  C:\Users\Phuong\AppData\Local\Temp\ccqGhR5Z.s 			page 175


 9055 1138 F3       		.byte	0xf3
 9056 1139 01       		.uleb128 0x1
 9057 113a 53       		.byte	0x53
 9058 113b 9F       		.byte	0x9f
 9059 113c 00000000 		.4byte	0
 9060 1140 00000000 		.4byte	0
 9061              	.LLST78:
 9062 1144 04010000 		.4byte	.LVL340
 9063 1148 06010000 		.4byte	.LVL341
 9064 114c 0400     		.2byte	0x4
 9065 114e 0A       		.byte	0xa
 9066 114f F901     		.2byte	0x1f9
 9067 1151 9F       		.byte	0x9f
 9068 1152 10010000 		.4byte	.LVL345
 9069 1156 30010000 		.4byte	.LFE11
 9070 115a 0100     		.2byte	0x1
 9071 115c 50       		.byte	0x50
 9072 115d 00000000 		.4byte	0
 9073 1161 00000000 		.4byte	0
 9074              	.LLST79:
 9075 1165 16000000 		.4byte	.LVL304
 9076 1169 2C000000 		.4byte	.LVL305
 9077 116d 0100     		.2byte	0x1
 9078 116f 50       		.byte	0x50
 9079 1170 2C000000 		.4byte	.LVL305
 9080 1174 34000000 		.4byte	.LVL307
 9081 1178 0100     		.2byte	0x1
 9082 117a 54       		.byte	0x54
 9083 117b 06010000 		.4byte	.LVL341
 9084 117f 08010000 		.4byte	.LVL342
 9085 1183 0100     		.2byte	0x1
 9086 1185 50       		.byte	0x50
 9087 1186 08010000 		.4byte	.LVL342
 9088 118a 0C010000 		.4byte	.LVL343
 9089 118e 0100     		.2byte	0x1
 9090 1190 54       		.byte	0x54
 9091 1191 00000000 		.4byte	0
 9092 1195 00000000 		.4byte	0
 9093              	.LLST80:
 9094 1199 40000000 		.4byte	.LVL310
 9095 119d 56000000 		.4byte	.LVL311
 9096 11a1 0100     		.2byte	0x1
 9097 11a3 50       		.byte	0x50
 9098 11a4 56000000 		.4byte	.LVL311
 9099 11a8 5E000000 		.4byte	.LVL313
 9100 11ac 0100     		.2byte	0x1
 9101 11ae 54       		.byte	0x54
 9102 11af 0C010000 		.4byte	.LVL343
 9103 11b3 0E010000 		.4byte	.LVL344
 9104 11b7 0100     		.2byte	0x1
 9105 11b9 50       		.byte	0x50
 9106 11ba 0E010000 		.4byte	.LVL344
 9107 11be 10010000 		.4byte	.LVL345
 9108 11c2 0100     		.2byte	0x1
 9109 11c4 54       		.byte	0x54
 9110 11c5 00000000 		.4byte	0
 9111 11c9 00000000 		.4byte	0
ARM GAS  C:\Users\Phuong\AppData\Local\Temp\ccqGhR5Z.s 			page 176


 9112              	.LLST81:
 9113 11cd 70000000 		.4byte	.LVL318
 9114 11d1 86000000 		.4byte	.LVL319
 9115 11d5 0100     		.2byte	0x1
 9116 11d7 50       		.byte	0x50
 9117 11d8 86000000 		.4byte	.LVL319
 9118 11dc 8E000000 		.4byte	.LVL321
 9119 11e0 0100     		.2byte	0x1
 9120 11e2 54       		.byte	0x54
 9121 11e3 F0000000 		.4byte	.LVL333
 9122 11e7 F2000000 		.4byte	.LVL334
 9123 11eb 0100     		.2byte	0x1
 9124 11ed 50       		.byte	0x50
 9125 11ee F2000000 		.4byte	.LVL334
 9126 11f2 F6000000 		.4byte	.LVL335
 9127 11f6 0100     		.2byte	0x1
 9128 11f8 54       		.byte	0x54
 9129 11f9 00000000 		.4byte	0
 9130 11fd 00000000 		.4byte	0
 9131              	.LLST82:
 9132 1201 A0000000 		.4byte	.LVL324
 9133 1205 B6000000 		.4byte	.LVL325
 9134 1209 0100     		.2byte	0x1
 9135 120b 50       		.byte	0x50
 9136 120c B6000000 		.4byte	.LVL325
 9137 1210 BE000000 		.4byte	.LVL327
 9138 1214 0100     		.2byte	0x1
 9139 1216 54       		.byte	0x54
 9140 1217 F6000000 		.4byte	.LVL335
 9141 121b F8000000 		.4byte	.LVL336
 9142 121f 0100     		.2byte	0x1
 9143 1221 50       		.byte	0x50
 9144 1222 F8000000 		.4byte	.LVL336
 9145 1226 FC000000 		.4byte	.LVL337
 9146 122a 0100     		.2byte	0x1
 9147 122c 54       		.byte	0x54
 9148 122d 00000000 		.4byte	0
 9149 1231 00000000 		.4byte	0
 9150              	.LLST83:
 9151 1235 D2000000 		.4byte	.LVL330
 9152 1239 E8000000 		.4byte	.LVL331
 9153 123d 0100     		.2byte	0x1
 9154 123f 50       		.byte	0x50
 9155 1240 E8000000 		.4byte	.LVL331
 9156 1244 F0000000 		.4byte	.LVL333
 9157 1248 0100     		.2byte	0x1
 9158 124a 54       		.byte	0x54
 9159 124b 00010000 		.4byte	.LVL338
 9160 124f 02010000 		.4byte	.LVL339
 9161 1253 0100     		.2byte	0x1
 9162 1255 50       		.byte	0x50
 9163 1256 02010000 		.4byte	.LVL339
 9164 125a 06010000 		.4byte	.LVL341
 9165 125e 0100     		.2byte	0x1
 9166 1260 54       		.byte	0x54
 9167 1261 00000000 		.4byte	0
 9168 1265 00000000 		.4byte	0
ARM GAS  C:\Users\Phuong\AppData\Local\Temp\ccqGhR5Z.s 			page 177


 9169              	.LLST84:
 9170 1269 00000000 		.4byte	.LVL349
 9171 126d 0B000000 		.4byte	.LVL350-1
 9172 1271 0100     		.2byte	0x1
 9173 1273 50       		.byte	0x50
 9174 1274 0B000000 		.4byte	.LVL350-1
 9175 1278 38000000 		.4byte	.LFE12
 9176 127c 0400     		.2byte	0x4
 9177 127e F3       		.byte	0xf3
 9178 127f 01       		.uleb128 0x1
 9179 1280 50       		.byte	0x50
 9180 1281 9F       		.byte	0x9f
 9181 1282 00000000 		.4byte	0
 9182 1286 00000000 		.4byte	0
 9183              	.LLST85:
 9184 128a 00000000 		.4byte	.LVL349
 9185 128e 0B000000 		.4byte	.LVL350-1
 9186 1292 0100     		.2byte	0x1
 9187 1294 51       		.byte	0x51
 9188 1295 0B000000 		.4byte	.LVL350-1
 9189 1299 38000000 		.4byte	.LFE12
 9190 129d 0400     		.2byte	0x4
 9191 129f F3       		.byte	0xf3
 9192 12a0 01       		.uleb128 0x1
 9193 12a1 51       		.byte	0x51
 9194 12a2 9F       		.byte	0x9f
 9195 12a3 00000000 		.4byte	0
 9196 12a7 00000000 		.4byte	0
 9197              	.LLST86:
 9198 12ab 0E000000 		.4byte	.LVL351
 9199 12af 22000000 		.4byte	.LVL352
 9200 12b3 0100     		.2byte	0x1
 9201 12b5 50       		.byte	0x50
 9202 12b6 22000000 		.4byte	.LVL352
 9203 12ba 24000000 		.4byte	.LVL353
 9204 12be 0100     		.2byte	0x1
 9205 12c0 54       		.byte	0x54
 9206 12c1 00000000 		.4byte	0
 9207 12c5 00000000 		.4byte	0
 9208              		.section	.debug_aranges,"",%progbits
 9209 0000 74000000 		.4byte	0x74
 9210 0004 0200     		.2byte	0x2
 9211 0006 00000000 		.4byte	.Ldebug_info0
 9212 000a 04       		.byte	0x4
 9213 000b 00       		.byte	0
 9214 000c 0000     		.2byte	0
 9215 000e 0000     		.2byte	0
 9216 0010 00000000 		.4byte	.LFB1
 9217 0014 12000000 		.4byte	.LFE1-.LFB1
 9218 0018 00000000 		.4byte	.LFB4
 9219 001c 4A000000 		.4byte	.LFE4-.LFB4
 9220 0020 00000000 		.4byte	.LFB3
 9221 0024 14010000 		.4byte	.LFE3-.LFB3
 9222 0028 00000000 		.4byte	.LFB2
 9223 002c 68040000 		.4byte	.LFE2-.LFB2
 9224 0030 00000000 		.4byte	.LFB5
 9225 0034 50000000 		.4byte	.LFE5-.LFB5
ARM GAS  C:\Users\Phuong\AppData\Local\Temp\ccqGhR5Z.s 			page 178


 9226 0038 00000000 		.4byte	.LFB7
 9227 003c A8000000 		.4byte	.LFE7-.LFB7
 9228 0040 00000000 		.4byte	.LFB8
 9229 0044 9C000000 		.4byte	.LFE8-.LFB8
 9230 0048 00000000 		.4byte	.LFB6
 9231 004c 40000000 		.4byte	.LFE6-.LFB6
 9232 0050 00000000 		.4byte	.LFB9
 9233 0054 7C000000 		.4byte	.LFE9-.LFB9
 9234 0058 00000000 		.4byte	.LFB10
 9235 005c 7C000000 		.4byte	.LFE10-.LFB10
 9236 0060 00000000 		.4byte	.LFB11
 9237 0064 30010000 		.4byte	.LFE11-.LFB11
 9238 0068 00000000 		.4byte	.LFB12
 9239 006c 38000000 		.4byte	.LFE12-.LFB12
 9240 0070 00000000 		.4byte	0
 9241 0074 00000000 		.4byte	0
 9242              		.section	.debug_ranges,"",%progbits
 9243              	.Ldebug_ranges0:
 9244 0000 10000000 		.4byte	.LBB2
 9245 0004 3A000000 		.4byte	.LBE2
 9246 0008 3C000000 		.4byte	.LBB11
 9247 000c 6C000000 		.4byte	.LBE11
 9248 0010 6E000000 		.4byte	.LBB12
 9249 0014 A4000000 		.4byte	.LBE12
 9250 0018 A6000000 		.4byte	.LBB13
 9251 001c D2000000 		.4byte	.LBE13
 9252 0020 D4000000 		.4byte	.LBB14
 9253 0024 EE000000 		.4byte	.LBE14
 9254 0028 00000000 		.4byte	0
 9255 002c 00000000 		.4byte	0
 9256 0030 3E000000 		.4byte	.LBB4
 9257 0034 6C000000 		.4byte	.LBE4
 9258 0038 6E000000 		.4byte	.LBB8
 9259 003c A4000000 		.4byte	.LBE8
 9260 0040 A6000000 		.4byte	.LBB9
 9261 0044 D2000000 		.4byte	.LBE9
 9262 0048 D4000000 		.4byte	.LBB10
 9263 004c EE000000 		.4byte	.LBE10
 9264 0050 00000000 		.4byte	0
 9265 0054 00000000 		.4byte	0
 9266 0058 00000000 		.4byte	.LFB1
 9267 005c 12000000 		.4byte	.LFE1
 9268 0060 00000000 		.4byte	.LFB4
 9269 0064 4A000000 		.4byte	.LFE4
 9270 0068 00000000 		.4byte	.LFB3
 9271 006c 14010000 		.4byte	.LFE3
 9272 0070 00000000 		.4byte	.LFB2
 9273 0074 68040000 		.4byte	.LFE2
 9274 0078 00000000 		.4byte	.LFB5
 9275 007c 50000000 		.4byte	.LFE5
 9276 0080 00000000 		.4byte	.LFB7
 9277 0084 A8000000 		.4byte	.LFE7
 9278 0088 00000000 		.4byte	.LFB8
 9279 008c 9C000000 		.4byte	.LFE8
 9280 0090 00000000 		.4byte	.LFB6
 9281 0094 40000000 		.4byte	.LFE6
 9282 0098 00000000 		.4byte	.LFB9
ARM GAS  C:\Users\Phuong\AppData\Local\Temp\ccqGhR5Z.s 			page 179


 9283 009c 7C000000 		.4byte	.LFE9
 9284 00a0 00000000 		.4byte	.LFB10
 9285 00a4 7C000000 		.4byte	.LFE10
 9286 00a8 00000000 		.4byte	.LFB11
 9287 00ac 30010000 		.4byte	.LFE11
 9288 00b0 00000000 		.4byte	.LFB12
 9289 00b4 38000000 		.4byte	.LFE12
 9290 00b8 00000000 		.4byte	0
 9291 00bc 00000000 		.4byte	0
 9292              		.section	.debug_line,"",%progbits
 9293              	.Ldebug_line0:
 9294 0000 49080000 		.section	.debug_str,"MS",%progbits,1
 9294      02009E04 
 9294      00000201 
 9294      FB0E0D00 
 9294      01010101 
 9295              	.LASF93:
 9296 0000 6465636F 		.ascii	"decode_message_value_callback\000"
 9296      64655F6D 
 9296      65737361 
 9296      67655F76 
 9296      616C7565 
 9297              	.LASF138:
 9298 001e 6D657373 		.ascii	"message_get_body_type\000"
 9298      6167655F 
 9298      6765745F 
 9298      626F6479 
 9298      5F747970 
 9299              	.LASF60:
 9300 0034 4D455353 		.ascii	"MESSAGE_RECEIVER_STATE_IDLE\000"
 9300      4147455F 
 9300      52454345 
 9300      49564552 
 9300      5F535441 
 9301              	.LASF39:
 9302 0050 4C494E4B 		.ascii	"LINK_STATE_ATTACHED\000"
 9302      5F535441 
 9302      54455F41 
 9302      54544143 
 9302      48454400 
 9303              	.LASF87:
 9304 0064 7472616E 		.ascii	"transfer\000"
 9304      73666572 
 9304      00
 9305              	.LASF139:
 9306 006d 6D657373 		.ascii	"message_add_body_amqp_data\000"
 9306      6167655F 
 9306      6164645F 
 9306      626F6479 
 9306      5F616D71 
 9307              	.LASF149:
 9308 0088 69735F61 		.ascii	"is_amqp_value_type_by_descriptor\000"
 9308      6D71705F 
 9308      76616C75 
 9308      655F7479 
 9308      70655F62 
 9309              	.LASF0:
ARM GAS  C:\Users\Phuong\AppData\Local\Temp\ccqGhR5Z.s 			page 180


 9310 00a9 756E7369 		.ascii	"unsigned int\000"
 9310      676E6564 
 9310      20696E74 
 9310      00
 9311              	.LASF119:
 9312 00b6 6D657373 		.ascii	"messagereceiver_set_trace\000"
 9312      61676572 
 9312      65636569 
 9312      7665725F 
 9312      7365745F 
 9313              	.LASF148:
 9314 00d0 69735F66 		.ascii	"is_footer_type_by_descriptor\000"
 9314      6F6F7465 
 9314      725F7479 
 9314      70655F62 
 9314      795F6465 
 9315              	.LASF92:
 9316 00ed 616D7170 		.ascii	"amqpvalue_decoder\000"
 9316      76616C75 
 9316      655F6465 
 9316      636F6465 
 9316      7200
 9317              	.LASF89:
 9318 00ff 7061796C 		.ascii	"payload_bytes\000"
 9318      6F61645F 
 9318      62797465 
 9318      7300
 9319              	.LASF69:
 9320 010d 6F6E5F6D 		.ascii	"on_message_received\000"
 9320      65737361 
 9320      67655F72 
 9320      65636569 
 9320      76656400 
 9321              	.LASF145:
 9322 0121 69735F64 		.ascii	"is_delivery_annotations_type_by_descriptor\000"
 9322      656C6976 
 9322      6572795F 
 9322      616E6E6F 
 9322      74617469 
 9323              	.LASF59:
 9324 014c 4D455353 		.ascii	"MESSAGE_RECEIVER_STATE_TAG\000"
 9324      4147455F 
 9324      52454345 
 9324      49564552 
 9324      5F535441 
 9325              	.LASF80:
 9326 0167 6E65775F 		.ascii	"new_state\000"
 9326      73746174 
 9326      6500
 9327              	.LASF106:
 9328 0171 62696E61 		.ascii	"binary_data\000"
 9328      72795F64 
 9328      61746100 
 9329              	.LASF155:
 9330 017d 6C696E6B 		.ascii	"link_get_name\000"
 9330      5F676574 
 9330      5F6E616D 
ARM GAS  C:\Users\Phuong\AppData\Local\Temp\ccqGhR5Z.s 			page 181


 9330      6500
 9331              	.LASF49:
 9332 018b 4D455353 		.ascii	"MESSAGE_BODY_TYPE_NONE\000"
 9332      4147455F 
 9332      424F4459 
 9332      5F545950 
 9332      455F4E4F 
 9333              	.LASF134:
 9334 01a2 6D657373 		.ascii	"message_set_header\000"
 9334      6167655F 
 9334      7365745F 
 9334      68656164 
 9334      657200
 9335              	.LASF127:
 9336 01b5 616D7170 		.ascii	"amqpvalue_get_properties\000"
 9336      76616C75 
 9336      655F6765 
 9336      745F7072 
 9336      6F706572 
 9337              	.LASF121:
 9338 01ce 786C6F67 		.ascii	"xlogging_get_log_function\000"
 9338      67696E67 
 9338      5F676574 
 9338      5F6C6F67 
 9338      5F66756E 
 9339              	.LASF137:
 9340 01e8 6D657373 		.ascii	"message_set_body_amqp_value\000"
 9340      6167655F 
 9340      7365745F 
 9340      626F6479 
 9340      5F616D71 
 9341              	.LASF48:
 9342 0204 4D455353 		.ascii	"MESSAGE_BODY_TYPE_TAG\000"
 9342      4147455F 
 9342      424F4459 
 9342      5F545950 
 9342      455F5441 
 9343              	.LASF118:
 9344 021a 6D657373 		.ascii	"messagereceiver_destroy\000"
 9344      61676572 
 9344      65636569 
 9344      7665725F 
 9344      64657374 
 9345              	.LASF23:
 9346 0232 616D7170 		.ascii	"amqp_binary\000"
 9346      5F62696E 
 9346      61727900 
 9347              	.LASF63:
 9348 023e 4D455353 		.ascii	"MESSAGE_RECEIVER_STATE_CLOSING\000"
 9348      4147455F 
 9348      52454345 
 9348      49564552 
 9348      5F535441 
 9349              	.LASF14:
 9350 025d 75696E74 		.ascii	"uint32_t\000"
 9350      33325F74 
 9350      00
ARM GAS  C:\Users\Phuong\AppData\Local\Temp\ccqGhR5Z.s 			page 182


 9351              	.LASF50:
 9352 0266 4D455353 		.ascii	"MESSAGE_BODY_TYPE_DATA\000"
 9352      4147455F 
 9352      424F4459 
 9352      5F545950 
 9352      455F4441 
 9353              	.LASF91:
 9354 027d 6D657373 		.ascii	"message\000"
 9354      61676500 
 9355              	.LASF123:
 9356 0285 616D7170 		.ascii	"amqpvalue_decode_bytes\000"
 9356      76616C75 
 9356      655F6465 
 9356      636F6465 
 9356      5F627974 
 9357              	.LASF90:
 9358 029c 72657375 		.ascii	"result\000"
 9358      6C7400
 9359              	.LASF159:
 9360 02a3 474E5520 		.ascii	"GNU C11 5.4.1 20160609 (release) [ARM/embedded-5-br"
 9360      43313120 
 9360      352E342E 
 9360      31203230 
 9360      31363036 
 9361 02d6 616E6368 		.ascii	"anch revision 237715] -mcpu=cortex-m0plus -mthumb -"
 9361      20726576 
 9361      6973696F 
 9361      6E203233 
 9361      37373135 
 9362 0309 67202D4F 		.ascii	"g -Og -ffunction-sections -ffat-lto-objects\000"
 9362      67202D66 
 9362      66756E63 
 9362      74696F6E 
 9362      2D736563 
 9363              	.LASF25:
 9364 0335 414D5150 		.ascii	"AMQP_VALUE_DATA_TAG\000"
 9364      5F56414C 
 9364      55455F44 
 9364      4154415F 
 9364      54414700 
 9365              	.LASF151:
 9366 0349 6D616C6C 		.ascii	"malloc\000"
 9366      6F6300
 9367              	.LASF141:
 9368 0350 616D7170 		.ascii	"amqpvalue_get_inplace_descriptor\000"
 9368      76616C75 
 9368      655F6765 
 9368      745F696E 
 9368      706C6163 
 9369              	.LASF88:
 9370 0371 7061796C 		.ascii	"payload_size\000"
 9370      6F61645F 
 9370      73697A65 
 9370      00
 9371              	.LASF113:
 9372 037e 6D657373 		.ascii	"message_id\000"
 9372      6167655F 
ARM GAS  C:\Users\Phuong\AppData\Local\Temp\ccqGhR5Z.s 			page 183


 9372      696400
 9373              	.LASF70:
 9374 0389 6F6E5F6D 		.ascii	"on_message_receiver_state_changed\000"
 9374      65737361 
 9374      67655F72 
 9374      65636569 
 9374      7665725F 
 9375              	.LASF11:
 9376 03ab 6C6F6E67 		.ascii	"long long unsigned int\000"
 9376      206C6F6E 
 9376      6720756E 
 9376      7369676E 
 9376      65642069 
 9377              	.LASF109:
 9378 03c2 6D657373 		.ascii	"messagereceiver_close\000"
 9378      61676572 
 9378      65636569 
 9378      7665725F 
 9378      636C6F73 
 9379              	.LASF115:
 9380 03d8 6D657373 		.ascii	"message_number\000"
 9380      6167655F 
 9380      6E756D62 
 9380      657200
 9381              	.LASF156:
 9382 03e7 6C696E6B 		.ascii	"link_get_received_message_id\000"
 9382      5F676574 
 9382      5F726563 
 9382      65697665 
 9382      645F6D65 
 9383              	.LASF161:
 9384 0404 433A5C55 		.ascii	"C:\\Users\\Phuong\\Documents\\PSoC Creator\\Dec0820"
 9384      73657273 
 9384      5C506875 
 9384      6F6E675C 
 9384      446F6375 
 9385 0432 31385C69 		.ascii	"18\\iot-sdk-iot-dev\\PSOC6_FreeRTOS+LwIP+MbedTLS_Az"
 9385      6F742D73 
 9385      646B2D69 
 9385      6F742D64 
 9385      65765C50 
 9386 0463 7572652D 		.ascii	"ure-IOT-Hub-Demo\\PSOC6_FreeRTOS+LwIP+MbedTLS_Azure"
 9386      494F542D 
 9386      4875622D 
 9386      44656D6F 
 9386      5C50534F 
 9387 0495 2D494F54 		.ascii	"-IOT-Hub-Demo.cydsn\000"
 9387      2D487562 
 9387      2D44656D 
 9387      6F2E6379 
 9387      64736E00 
 9388              	.LASF110:
 9389 04a9 6D657373 		.ascii	"messagereceiver_get_link_name\000"
 9389      61676572 
 9389      65636569 
 9389      7665725F 
 9389      6765745F 
ARM GAS  C:\Users\Phuong\AppData\Local\Temp\ccqGhR5Z.s 			page 184


 9390              	.LASF67:
 9391 04c7 4D455353 		.ascii	"MESSAGE_RECEIVER_INSTANCE_TAG\000"
 9391      4147455F 
 9391      52454345 
 9391      49564552 
 9391      5F494E53 
 9392              	.LASF8:
 9393 04e5 73697A65 		.ascii	"size_t\000"
 9393      5F7400
 9394              	.LASF103:
 9395 04ec 626F6479 		.ascii	"body_amqp_value\000"
 9395      5F616D71 
 9395      705F7661 
 9395      6C756500 
 9396              	.LASF104:
 9397 04fc 626F6479 		.ascii	"body_data_value\000"
 9397      5F646174 
 9397      615F7661 
 9397      6C756500 
 9398              	.LASF147:
 9399 050c 69735F68 		.ascii	"is_header_type_by_descriptor\000"
 9399      65616465 
 9399      725F7479 
 9399      70655F62 
 9399      795F6465 
 9400              	.LASF27:
 9401 0529 5F426F6F 		.ascii	"_Bool\000"
 9401      6C00
 9402              	.LASF26:
 9403 052f 414D5150 		.ascii	"AMQPVALUE_DECODER_HANDLE_DATA_TAG\000"
 9403      56414C55 
 9403      455F4445 
 9403      434F4445 
 9403      525F4841 
 9404              	.LASF101:
 9405 0551 666F6F74 		.ascii	"footer\000"
 9405      657200
 9406              	.LASF107:
 9407 0558 6D657373 		.ascii	"messagereceiver_create\000"
 9407      61676572 
 9407      65636569 
 9407      7665725F 
 9407      63726561 
 9408              	.LASF21:
 9409 056f 62797465 		.ascii	"bytes\000"
 9409      7300
 9410              	.LASF154:
 9411 0575 66726565 		.ascii	"free\000"
 9411      00
 9412              	.LASF143:
 9413 057a 6D657373 		.ascii	"message_set_application_properties\000"
 9413      6167655F 
 9413      7365745F 
 9413      6170706C 
 9413      69636174 
 9414              	.LASF95:
 9415 059d 64657363 		.ascii	"descriptor\000"
ARM GAS  C:\Users\Phuong\AppData\Local\Temp\ccqGhR5Z.s 			page 185


 9415      72697074 
 9415      6F7200
 9416              	.LASF125:
 9417 05a8 6D657373 		.ascii	"message_destroy\000"
 9417      6167655F 
 9417      64657374 
 9417      726F7900 
 9418              	.LASF40:
 9419 05b8 4C494E4B 		.ascii	"LINK_STATE_ERROR\000"
 9419      5F535441 
 9419      54455F45 
 9419      52524F52 
 9419      00
 9420              	.LASF71:
 9421 05c9 6D657373 		.ascii	"message_receiver_state\000"
 9421      6167655F 
 9421      72656365 
 9421      69766572 
 9421      5F737461 
 9422              	.LASF111:
 9423 05e0 6C696E6B 		.ascii	"link_name\000"
 9423      5F6E616D 
 9423      6500
 9424              	.LASF75:
 9425 05ea 6465636F 		.ascii	"decode_error\000"
 9425      64655F65 
 9425      72726F72 
 9425      00
 9426              	.LASF132:
 9427 05f7 6D657373 		.ascii	"message_set_message_annotations\000"
 9427      6167655F 
 9427      7365745F 
 9427      6D657373 
 9427      6167655F 
 9428              	.LASF13:
 9429 0617 63686172 		.ascii	"char\000"
 9429      00
 9430              	.LASF31:
 9431 061c 5452414E 		.ascii	"TRANSFER_INSTANCE_TAG\000"
 9431      53464552 
 9431      5F494E53 
 9431      54414E43 
 9431      455F5441 
 9432              	.LASF122:
 9433 0632 616D7170 		.ascii	"amqpvalue_decoder_create\000"
 9433      76616C75 
 9433      655F6465 
 9433      636F6465 
 9433      725F6372 
 9434              	.LASF28:
 9435 064b 73657175 		.ascii	"sequence_no\000"
 9435      656E6365 
 9435      5F6E6F00 
 9436              	.LASF45:
 9437 0657 64617461 		.ascii	"data\000"
 9437      00
 9438              	.LASF16:
ARM GAS  C:\Users\Phuong\AppData\Local\Temp\ccqGhR5Z.s 			page 186


 9439 065c 415A5F4C 		.ascii	"AZ_LOG_INFO\000"
 9439      4F475F49 
 9439      4E464F00 
 9440              	.LASF130:
 9441 0668 616D7170 		.ascii	"amqpvalue_get_inplace_described_value\000"
 9441      76616C75 
 9441      655F6765 
 9441      745F696E 
 9441      706C6163 
 9442              	.LASF162:
 9443 068e 6F6E5F74 		.ascii	"on_transfer_received\000"
 9443      72616E73 
 9443      6665725F 
 9443      72656365 
 9443      69766564 
 9444              	.LASF51:
 9445 06a3 4D455353 		.ascii	"MESSAGE_BODY_TYPE_SEQUENCE\000"
 9445      4147455F 
 9445      424F4459 
 9445      5F545950 
 9445      455F5345 
 9446              	.LASF78:
 9447 06be 4D455353 		.ascii	"MESSAGE_RECEIVER_INSTANCE\000"
 9447      4147455F 
 9447      52454345 
 9447      49564552 
 9447      5F494E53 
 9448              	.LASF61:
 9449 06d8 4D455353 		.ascii	"MESSAGE_RECEIVER_STATE_OPENING\000"
 9449      4147455F 
 9449      52454345 
 9449      49564552 
 9449      5F535441 
 9450              	.LASF74:
 9451 06f7 6465636F 		.ascii	"decoded_message\000"
 9451      6465645F 
 9451      6D657373 
 9451      61676500 
 9452              	.LASF144:
 9453 0707 69735F70 		.ascii	"is_properties_type_by_descriptor\000"
 9453      726F7065 
 9453      72746965 
 9453      735F7479 
 9453      70655F62 
 9454              	.LASF1:
 9455 0728 6C6F6E67 		.ascii	"long long int\000"
 9455      206C6F6E 
 9455      6720696E 
 9455      7400
 9456              	.LASF84:
 9457 0736 6E65775F 		.ascii	"new_link_state\000"
 9457      6C696E6B 
 9457      5F737461 
 9457      746500
 9458              	.LASF85:
 9459 0745 70726576 		.ascii	"previous_link_state\000"
 9459      696F7573 
ARM GAS  C:\Users\Phuong\AppData\Local\Temp\ccqGhR5Z.s 			page 187


 9459      5F6C696E 
 9459      6B5F7374 
 9459      61746500 
 9460              	.LASF94:
 9461 0759 6465636F 		.ascii	"decoded_value\000"
 9461      6465645F 
 9461      76616C75 
 9461      6500
 9462              	.LASF98:
 9463 0767 64656C69 		.ascii	"delivery_annotations\000"
 9463      76657279 
 9463      5F616E6E 
 9463      6F746174 
 9463      696F6E73 
 9464              	.LASF158:
 9465 077c 6C696E6B 		.ascii	"link_send_disposition\000"
 9465      5F73656E 
 9465      645F6469 
 9465      73706F73 
 9465      6974696F 
 9466              	.LASF83:
 9467 0792 636F6E74 		.ascii	"context\000"
 9467      65787400 
 9468              	.LASF116:
 9469 079a 64656C69 		.ascii	"delivery_state\000"
 9469      76657279 
 9469      5F737461 
 9469      746500
 9470              	.LASF86:
 9471 07a9 70726576 		.ascii	"previous_state\000"
 9471      696F7573 
 9471      5F737461 
 9471      746500
 9472              	.LASF18:
 9473 07b8 4C4F475F 		.ascii	"LOG_CATEGORY\000"
 9473      43415445 
 9473      474F5259 
 9473      00
 9474              	.LASF112:
 9475 07c5 6D657373 		.ascii	"messagereceiver_get_received_message_id\000"
 9475      61676572 
 9475      65636569 
 9475      7665725F 
 9475      6765745F 
 9476              	.LASF47:
 9477 07ed 50524F50 		.ascii	"PROPERTIES_INSTANCE_TAG\000"
 9477      45525449 
 9477      45535F49 
 9477      4E535441 
 9477      4E43455F 
 9478              	.LASF81:
 9479 0805 7365745F 		.ascii	"set_message_receiver_state\000"
 9479      6D657373 
 9479      6167655F 
 9479      72656365 
 9479      69766572 
 9480              	.LASF160:
ARM GAS  C:\Users\Phuong\AppData\Local\Temp\ccqGhR5Z.s 			page 188


 9481 0820 536F7572 		.ascii	"Source\\azure_iot_sdk\\uamqp\\src\\message_receiver"
 9481      63655C61 
 9481      7A757265 
 9481      5F696F74 
 9481      5F73646B 
 9482 084f 2E6300   		.ascii	".c\000"
 9483              	.LASF65:
 9484 0852 4D455353 		.ascii	"MESSAGE_RECEIVER_STATE\000"
 9484      4147455F 
 9484      52454345 
 9484      49564552 
 9484      5F535441 
 9485              	.LASF117:
 9486 0869 6D795F6E 		.ascii	"my_name\000"
 9486      616D6500 
 9487              	.LASF114:
 9488 0871 6D657373 		.ascii	"messagereceiver_send_message_disposition\000"
 9488      61676572 
 9488      65636569 
 9488      7665725F 
 9488      73656E64 
 9489              	.LASF82:
 9490 089a 6F6E5F6C 		.ascii	"on_link_state_changed\000"
 9490      696E6B5F 
 9490      73746174 
 9490      655F6368 
 9490      616E6765 
 9491              	.LASF32:
 9492 08b0 4C494E4B 		.ascii	"LINK_HANDLE\000"
 9492      5F48414E 
 9492      444C4500 
 9493              	.LASF100:
 9494 08bc 68656164 		.ascii	"header\000"
 9494      657200
 9495              	.LASF126:
 9496 08c3 6D657373 		.ascii	"message_create\000"
 9496      6167655F 
 9496      63726561 
 9496      746500
 9497              	.LASF133:
 9498 08d2 616D7170 		.ascii	"amqpvalue_get_header\000"
 9498      76616C75 
 9498      655F6765 
 9498      745F6865 
 9498      61646572 
 9499              	.LASF142:
 9500 08e7 69735F61 		.ascii	"is_application_properties_type_by_descriptor\000"
 9500      70706C69 
 9500      63617469 
 9500      6F6E5F70 
 9500      726F7065 
 9501              	.LASF99:
 9502 0914 6D657373 		.ascii	"message_annotations\000"
 9502      6167655F 
 9502      616E6E6F 
 9502      74617469 
 9502      6F6E7300 
ARM GAS  C:\Users\Phuong\AppData\Local\Temp\ccqGhR5Z.s 			page 189


 9503              	.LASF135:
 9504 0928 68656164 		.ascii	"header_destroy\000"
 9504      65725F64 
 9504      65737472 
 9504      6F7900
 9505              	.LASF108:
 9506 0937 6D657373 		.ascii	"messagereceiver_open\000"
 9506      61676572 
 9506      65636569 
 9506      7665725F 
 9506      6F70656E 
 9507              	.LASF2:
 9508 094c 6C6F6E67 		.ascii	"long double\000"
 9508      20646F75 
 9508      626C6500 
 9509              	.LASF46:
 9510 0958 50524F50 		.ascii	"PROPERTIES_HANDLE\000"
 9510      45525449 
 9510      45535F48 
 9510      414E444C 
 9510      4500
 9511              	.LASF56:
 9512 096a 616D7170 		.ascii	"amqp_binary_TAG\000"
 9512      5F62696E 
 9512      6172795F 
 9512      54414700 
 9513              	.LASF66:
 9514 097a 4D455353 		.ascii	"MESSAGE_RECEIVER_HANDLE\000"
 9514      4147455F 
 9514      52454345 
 9514      49564552 
 9514      5F48414E 
 9515              	.LASF73:
 9516 0992 63616C6C 		.ascii	"callback_context\000"
 9516      6261636B 
 9516      5F636F6E 
 9516      74657874 
 9516      00
 9517              	.LASF15:
 9518 09a3 415A5F4C 		.ascii	"AZ_LOG_ERROR\000"
 9518      4F475F45 
 9518      52524F52 
 9518      00
 9519              	.LASF20:
 9520 09b0 414D5150 		.ascii	"AMQP_VALUE\000"
 9520      5F56414C 
 9520      554500
 9521              	.LASF152:
 9522 09bb 6C696E6B 		.ascii	"link_attach\000"
 9522      5F617474 
 9522      61636800 
 9523              	.LASF54:
 9524 09c7 4D455353 		.ascii	"MESSAGE_HANDLE\000"
 9524      4147455F 
 9524      48414E44 
 9524      4C4500
 9525              	.LASF128:
ARM GAS  C:\Users\Phuong\AppData\Local\Temp\ccqGhR5Z.s 			page 190


 9526 09d6 6D657373 		.ascii	"message_set_properties\000"
 9526      6167655F 
 9526      7365745F 
 9526      70726F70 
 9526      65727469 
 9527              	.LASF5:
 9528 09ed 73686F72 		.ascii	"short int\000"
 9528      7420696E 
 9528      7400
 9529              	.LASF43:
 9530 09f7 48454144 		.ascii	"HEADER_HANDLE\000"
 9530      45525F48 
 9530      414E444C 
 9530      4500
 9531              	.LASF76:
 9532 0a05 4F4E5F4D 		.ascii	"ON_MESSAGE_RECEIVED\000"
 9532      45535341 
 9532      47455F52 
 9532      45434549 
 9532      56454400 
 9533              	.LASF37:
 9534 0a19 4C494E4B 		.ascii	"LINK_STATE_HALF_ATTACHED_ATTACH_SENT\000"
 9534      5F535441 
 9534      54455F48 
 9534      414C465F 
 9534      41545441 
 9535              	.LASF7:
 9536 0a3e 6C6F6E67 		.ascii	"long int\000"
 9536      20696E74 
 9536      00
 9537              	.LASF120:
 9538 0a47 74726163 		.ascii	"trace_on\000"
 9538      655F6F6E 
 9538      00
 9539              	.LASF22:
 9540 0a50 6C656E67 		.ascii	"length\000"
 9540      746800
 9541              	.LASF36:
 9542 0a57 4C494E4B 		.ascii	"LINK_STATE_DETACHED\000"
 9542      5F535441 
 9542      54455F44 
 9542      45544143 
 9542      48454400 
 9543              	.LASF153:
 9544 0a6b 6C696E6B 		.ascii	"link_detach\000"
 9544      5F646574 
 9544      61636800 
 9545              	.LASF102:
 9546 0a77 626F6479 		.ascii	"body_type\000"
 9546      5F747970 
 9546      6500
 9547              	.LASF77:
 9548 0a81 4F4E5F4D 		.ascii	"ON_MESSAGE_RECEIVER_STATE_CHANGED\000"
 9548      45535341 
 9548      47455F52 
 9548      45434549 
 9548      5645525F 
ARM GAS  C:\Users\Phuong\AppData\Local\Temp\ccqGhR5Z.s 			page 191


 9549              	.LASF64:
 9550 0aa3 4D455353 		.ascii	"MESSAGE_RECEIVER_STATE_ERROR\000"
 9550      4147455F 
 9550      52454345 
 9550      49564552 
 9550      5F535441 
 9551              	.LASF55:
 9552 0ac0 4D455353 		.ascii	"MESSAGE_INSTANCE_TAG\000"
 9552      4147455F 
 9552      494E5354 
 9552      414E4345 
 9552      5F544147 
 9553              	.LASF140:
 9554 0ad5 616D7170 		.ascii	"amqpvalue_get_binary\000"
 9554      76616C75 
 9554      655F6765 
 9554      745F6269 
 9554      6E617279 
 9555              	.LASF124:
 9556 0aea 616D7170 		.ascii	"amqpvalue_decoder_destroy\000"
 9556      76616C75 
 9556      655F6465 
 9556      636F6465 
 9556      725F6465 
 9557              	.LASF19:
 9558 0b04 4C4F4747 		.ascii	"LOGGER_LOG\000"
 9558      45525F4C 
 9558      4F4700
 9559              	.LASF129:
 9560 0b0f 70726F70 		.ascii	"properties_destroy\000"
 9560      65727469 
 9560      65735F64 
 9560      65737472 
 9560      6F7900
 9561              	.LASF12:
 9562 0b22 73697A65 		.ascii	"sizetype\000"
 9562      74797065 
 9562      00
 9563              	.LASF10:
 9564 0b2b 6C6F6E67 		.ascii	"long unsigned int\000"
 9564      20756E73 
 9564      69676E65 
 9564      6420696E 
 9564      7400
 9565              	.LASF62:
 9566 0b3d 4D455353 		.ascii	"MESSAGE_RECEIVER_STATE_OPEN\000"
 9566      4147455F 
 9566      52454345 
 9566      49564552 
 9566      5F535441 
 9567              	.LASF146:
 9568 0b59 69735F6D 		.ascii	"is_message_annotations_type_by_descriptor\000"
 9568      65737361 
 9568      67655F61 
 9568      6E6E6F74 
 9568      6174696F 
 9569              	.LASF136:
ARM GAS  C:\Users\Phuong\AppData\Local\Temp\ccqGhR5Z.s 			page 192


 9570 0b83 6D657373 		.ascii	"message_set_footer\000"
 9570      6167655F 
 9570      7365745F 
 9570      666F6F74 
 9570      657200
 9571              	.LASF79:
 9572 0b96 6D657373 		.ascii	"message_receiver\000"
 9572      6167655F 
 9572      72656365 
 9572      69766572 
 9572      00
 9573              	.LASF131:
 9574 0ba7 6D657373 		.ascii	"message_set_delivery_annotations\000"
 9574      6167655F 
 9574      7365745F 
 9574      64656C69 
 9574      76657279 
 9575              	.LASF4:
 9576 0bc8 756E7369 		.ascii	"unsigned char\000"
 9576      676E6564 
 9576      20636861 
 9576      7200
 9577              	.LASF9:
 9578 0bd6 5F5F7569 		.ascii	"__uint32_t\000"
 9578      6E743332 
 9578      5F7400
 9579              	.LASF68:
 9580 0be1 6C696E6B 		.ascii	"link\000"
 9580      00
 9581              	.LASF42:
 9582 0be6 616E6E6F 		.ascii	"annotations\000"
 9582      74617469 
 9582      6F6E7300 
 9583              	.LASF34:
 9584 0bf2 4C4F475F 		.ascii	"LOG_CATEGORY_TAG\000"
 9584      43415445 
 9584      474F5259 
 9584      5F544147 
 9584      00
 9585              	.LASF41:
 9586 0c03 4C494E4B 		.ascii	"LINK_STATE\000"
 9586      5F535441 
 9586      544500
 9587              	.LASF58:
 9588 0c0e 42494E41 		.ascii	"BINARY_DATA\000"
 9588      52595F44 
 9588      41544100 
 9589              	.LASF35:
 9590 0c1a 4C494E4B 		.ascii	"LINK_STATE_TAG\000"
 9590      5F535441 
 9590      54455F54 
 9590      414700
 9591              	.LASF17:
 9592 0c29 415A5F4C 		.ascii	"AZ_LOG_TRACE\000"
 9592      4F475F54 
 9592      52414345 
 9592      00
ARM GAS  C:\Users\Phuong\AppData\Local\Temp\ccqGhR5Z.s 			page 193


 9593              	.LASF29:
 9594 0c36 64656C69 		.ascii	"delivery_number\000"
 9594      76657279 
 9594      5F6E756D 
 9594      62657200 
 9595              	.LASF30:
 9596 0c46 5452414E 		.ascii	"TRANSFER_HANDLE\000"
 9596      53464552 
 9596      5F48414E 
 9596      444C4500 
 9597              	.LASF33:
 9598 0c56 4C494E4B 		.ascii	"LINK_INSTANCE_TAG\000"
 9598      5F494E53 
 9598      54414E43 
 9598      455F5441 
 9598      4700
 9599              	.LASF57:
 9600 0c68 42494E41 		.ascii	"BINARY_DATA_TAG\000"
 9600      52595F44 
 9600      4154415F 
 9600      54414700 
 9601              	.LASF3:
 9602 0c78 7369676E 		.ascii	"signed char\000"
 9602      65642063 
 9602      68617200 
 9603              	.LASF72:
 9604 0c84 6F6E5F6D 		.ascii	"on_message_receiver_state_changed_context\000"
 9604      65737361 
 9604      67655F72 
 9604      65636569 
 9604      7665725F 
 9605              	.LASF6:
 9606 0cae 73686F72 		.ascii	"short unsigned int\000"
 9606      7420756E 
 9606      7369676E 
 9606      65642069 
 9606      6E7400
 9607              	.LASF53:
 9608 0cc1 4D455353 		.ascii	"MESSAGE_BODY_TYPE\000"
 9608      4147455F 
 9608      424F4459 
 9608      5F545950 
 9608      4500
 9609              	.LASF97:
 9610 0cd3 70726F70 		.ascii	"properties\000"
 9610      65727469 
 9610      657300
 9611              	.LASF96:
 9612 0cde 5F5F6675 		.ascii	"__func__\000"
 9612      6E635F5F 
 9612      00
 9613              	.LASF38:
 9614 0ce7 4C494E4B 		.ascii	"LINK_STATE_HALF_ATTACHED_ATTACH_RECEIVED\000"
 9614      5F535441 
 9614      54455F48 
 9614      414C465F 
 9614      41545441 
ARM GAS  C:\Users\Phuong\AppData\Local\Temp\ccqGhR5Z.s 			page 194


 9615              	.LASF44:
 9616 0d10 48454144 		.ascii	"HEADER_INSTANCE_TAG\000"
 9616      45525F49 
 9616      4E535441 
 9616      4E43455F 
 9616      54414700 
 9617              	.LASF150:
 9618 0d24 69735F64 		.ascii	"is_data_type_by_descriptor\000"
 9618      6174615F 
 9618      74797065 
 9618      5F62795F 
 9618      64657363 
 9619              	.LASF24:
 9620 0d3f 414D5150 		.ascii	"AMQPVALUE_DECODER_HANDLE\000"
 9620      56414C55 
 9620      455F4445 
 9620      434F4445 
 9620      525F4841 
 9621              	.LASF52:
 9622 0d58 4D455353 		.ascii	"MESSAGE_BODY_TYPE_VALUE\000"
 9622      4147455F 
 9622      424F4459 
 9622      5F545950 
 9622      455F5641 
 9623              	.LASF105:
 9624 0d70 64617461 		.ascii	"data_value\000"
 9624      5F76616C 
 9624      756500
 9625              	.LASF157:
 9626 0d7b 73747263 		.ascii	"strcmp\000"
 9626      6D7000
 9627              		.ident	"GCC: (GNU Tools for ARM Embedded Processors) 5.4.1 20160609 (release) [ARM/embedded-5-bran
