ARM GAS  C:\Users\Phuong\AppData\Local\Temp\ccaRXo0w.s 			page 1


   1              		.syntax unified
   2              		.cpu cortex-m0plus
   3              		.fpu softvfp
   4              		.eabi_attribute 20, 1
   5              		.eabi_attribute 21, 1
   6              		.eabi_attribute 23, 3
   7              		.eabi_attribute 24, 1
   8              		.eabi_attribute 25, 1
   9              		.eabi_attribute 26, 1
  10              		.eabi_attribute 30, 1
  11              		.eabi_attribute 34, 0
  12              		.eabi_attribute 18, 4
  13              		.thumb
  14              		.syntax unified
  15              		.file	"message_queue.c"
  16              		.text
  17              	.Ltext0:
  18              		.cfi_sections	.debug_frame
  19              		.section	.text.fire_message_callback,"ax",%progbits
  20              		.align	2
  21              		.code	16
  22              		.thumb_func
  23              		.type	fire_message_callback, %function
  24              	fire_message_callback:
  25              	.LFB2:
  26              		.file 1 "Source\\azure_iot_sdk\\iothub_client\\src\\message_queue.c"
   1:Source\azure_iot_sdk\iothub_client\src/message_queue.c **** // Copyright (c) Microsoft. All rights reserved.
   2:Source\azure_iot_sdk\iothub_client\src/message_queue.c **** // Licensed under the MIT license. See LICENSE file in the project root for full license informatio
   3:Source\azure_iot_sdk\iothub_client\src/message_queue.c **** 
   4:Source\azure_iot_sdk\iothub_client\src/message_queue.c **** #include <stdlib.h>
   5:Source\azure_iot_sdk\iothub_client\src/message_queue.c **** #include <stdbool.h>
   6:Source\azure_iot_sdk\iothub_client\src/message_queue.c **** #include "azure_c_shared_utility/optimize_size.h"
   7:Source\azure_iot_sdk\iothub_client\src/message_queue.c **** #include "azure_c_shared_utility/crt_abstractions.h"
   8:Source\azure_iot_sdk\iothub_client\src/message_queue.c **** #include "azure_c_shared_utility/gballoc.h"
   9:Source\azure_iot_sdk\iothub_client\src/message_queue.c **** #include "azure_c_shared_utility/agenttime.h"
  10:Source\azure_iot_sdk\iothub_client\src/message_queue.c **** #include "azure_c_shared_utility/xlogging.h"
  11:Source\azure_iot_sdk\iothub_client\src/message_queue.c **** #include "azure_c_shared_utility/singlylinkedlist.h"
  12:Source\azure_iot_sdk\iothub_client\src/message_queue.c **** 
  13:Source\azure_iot_sdk\iothub_client\src/message_queue.c **** typedef struct MESSAGE_QUEUE_TAG MESSAGE_QUEUE;
  14:Source\azure_iot_sdk\iothub_client\src/message_queue.c **** 
  15:Source\azure_iot_sdk\iothub_client\src/message_queue.c **** #include "internal/message_queue.h"
  16:Source\azure_iot_sdk\iothub_client\src/message_queue.c **** 
  17:Source\azure_iot_sdk\iothub_client\src/message_queue.c **** #define RESULT_OK 0
  18:Source\azure_iot_sdk\iothub_client\src/message_queue.c **** #define INDEFINITE_TIME ((time_t)(-1))
  19:Source\azure_iot_sdk\iothub_client\src/message_queue.c **** 
  20:Source\azure_iot_sdk\iothub_client\src/message_queue.c **** static const char* SAVED_OPTION_MAX_RETRY_COUNT = "SAVED_OPTION_MAX_RETRY_COUNT";
  21:Source\azure_iot_sdk\iothub_client\src/message_queue.c **** static const char* SAVED_OPTION_MAX_ENQUEUE_TIME_SECS = "SAVED_OPTION_MAX_ENQUEUE_TIME_SECS";
  22:Source\azure_iot_sdk\iothub_client\src/message_queue.c **** static const char* SAVED_OPTION_MAX_PROCESSING_TIME_SECS = "SAVED_OPTION_MAX_PROCESSING_TIME_SECS";
  23:Source\azure_iot_sdk\iothub_client\src/message_queue.c **** 
  24:Source\azure_iot_sdk\iothub_client\src/message_queue.c **** 
  25:Source\azure_iot_sdk\iothub_client\src/message_queue.c **** struct MESSAGE_QUEUE_TAG
  26:Source\azure_iot_sdk\iothub_client\src/message_queue.c **** {
  27:Source\azure_iot_sdk\iothub_client\src/message_queue.c ****     size_t max_message_enqueued_time_secs;
  28:Source\azure_iot_sdk\iothub_client\src/message_queue.c ****     size_t max_message_processing_time_secs;
  29:Source\azure_iot_sdk\iothub_client\src/message_queue.c ****     size_t max_retry_count;
  30:Source\azure_iot_sdk\iothub_client\src/message_queue.c **** 
  31:Source\azure_iot_sdk\iothub_client\src/message_queue.c ****     PROCESS_MESSAGE_CALLBACK on_process_message_callback;
ARM GAS  C:\Users\Phuong\AppData\Local\Temp\ccaRXo0w.s 			page 2


  32:Source\azure_iot_sdk\iothub_client\src/message_queue.c ****     void* on_process_message_context;
  33:Source\azure_iot_sdk\iothub_client\src/message_queue.c **** 
  34:Source\azure_iot_sdk\iothub_client\src/message_queue.c ****     SINGLYLINKEDLIST_HANDLE pending;
  35:Source\azure_iot_sdk\iothub_client\src/message_queue.c ****     SINGLYLINKEDLIST_HANDLE in_progress;
  36:Source\azure_iot_sdk\iothub_client\src/message_queue.c **** };
  37:Source\azure_iot_sdk\iothub_client\src/message_queue.c **** 
  38:Source\azure_iot_sdk\iothub_client\src/message_queue.c **** typedef struct MESSAGE_QUEUE_ITEM_TAG
  39:Source\azure_iot_sdk\iothub_client\src/message_queue.c **** {
  40:Source\azure_iot_sdk\iothub_client\src/message_queue.c ****     MQ_MESSAGE_HANDLE message;
  41:Source\azure_iot_sdk\iothub_client\src/message_queue.c ****     MESSAGE_PROCESSING_COMPLETED_CALLBACK on_message_processing_completed_callback;
  42:Source\azure_iot_sdk\iothub_client\src/message_queue.c ****     void* user_context;
  43:Source\azure_iot_sdk\iothub_client\src/message_queue.c ****     time_t enqueue_time;
  44:Source\azure_iot_sdk\iothub_client\src/message_queue.c ****     time_t processing_start_time;
  45:Source\azure_iot_sdk\iothub_client\src/message_queue.c ****     size_t number_of_attempts;
  46:Source\azure_iot_sdk\iothub_client\src/message_queue.c **** } MESSAGE_QUEUE_ITEM;
  47:Source\azure_iot_sdk\iothub_client\src/message_queue.c **** 
  48:Source\azure_iot_sdk\iothub_client\src/message_queue.c **** 
  49:Source\azure_iot_sdk\iothub_client\src/message_queue.c **** 
  50:Source\azure_iot_sdk\iothub_client\src/message_queue.c **** // ---------- Helper Functions ---------- //
  51:Source\azure_iot_sdk\iothub_client\src/message_queue.c **** 
  52:Source\azure_iot_sdk\iothub_client\src/message_queue.c **** static bool find_item_by_message_ptr(LIST_ITEM_HANDLE list_item, const void* match_context)
  53:Source\azure_iot_sdk\iothub_client\src/message_queue.c **** {
  54:Source\azure_iot_sdk\iothub_client\src/message_queue.c ****     MESSAGE_QUEUE_ITEM* current_item = (MESSAGE_QUEUE_ITEM*)singlylinkedlist_item_get_value(list_it
  55:Source\azure_iot_sdk\iothub_client\src/message_queue.c ****     MQ_MESSAGE_HANDLE* target_item = (MQ_MESSAGE_HANDLE*)match_context;
  56:Source\azure_iot_sdk\iothub_client\src/message_queue.c **** 
  57:Source\azure_iot_sdk\iothub_client\src/message_queue.c ****     return (current_item->message == target_item);
  58:Source\azure_iot_sdk\iothub_client\src/message_queue.c **** }
  59:Source\azure_iot_sdk\iothub_client\src/message_queue.c **** 
  60:Source\azure_iot_sdk\iothub_client\src/message_queue.c **** static void fire_message_callback(MESSAGE_QUEUE_ITEM* mq_item, MESSAGE_QUEUE_RESULT result, void* r
  61:Source\azure_iot_sdk\iothub_client\src/message_queue.c **** {
  27              		.loc 1 61 0
  28              		.cfi_startproc
  29              		@ args = 0, pretend = 0, frame = 0
  30              		@ frame_needed = 0, uses_anonymous_args = 0
  31              	.LVL0:
  32 0000 10B5     		push	{r4, lr}
  33              		.cfi_def_cfa_offset 8
  34              		.cfi_offset 4, -8
  35              		.cfi_offset 14, -4
  62:Source\azure_iot_sdk\iothub_client\src/message_queue.c ****     if (mq_item->on_message_processing_completed_callback != NULL)
  36              		.loc 1 62 0
  37 0002 4468     		ldr	r4, [r0, #4]
  38 0004 002C     		cmp	r4, #0
  39 0006 05D0     		beq	.L1
  63:Source\azure_iot_sdk\iothub_client\src/message_queue.c ****     {
  64:Source\azure_iot_sdk\iothub_client\src/message_queue.c ****         if (result == MESSAGE_QUEUE_RETRYABLE_ERROR)
  40              		.loc 1 64 0
  41 0008 0229     		cmp	r1, #2
  42 000a 00D1     		bne	.L3
  65:Source\azure_iot_sdk\iothub_client\src/message_queue.c ****         {
  66:Source\azure_iot_sdk\iothub_client\src/message_queue.c ****             result = MESSAGE_QUEUE_ERROR;
  43              		.loc 1 66 0
  44 000c 0139     		subs	r1, r1, #1
  45              	.LVL1:
  46              	.L3:
  67:Source\azure_iot_sdk\iothub_client\src/message_queue.c ****         }
  68:Source\azure_iot_sdk\iothub_client\src/message_queue.c **** 
ARM GAS  C:\Users\Phuong\AppData\Local\Temp\ccaRXo0w.s 			page 3


  69:Source\azure_iot_sdk\iothub_client\src/message_queue.c ****         mq_item->on_message_processing_completed_callback(mq_item->message, result, reason, mq_item
  47              		.loc 1 69 0
  48 000e 8368     		ldr	r3, [r0, #8]
  49 0010 0068     		ldr	r0, [r0]
  50              	.LVL2:
  51 0012 A047     		blx	r4
  52              	.LVL3:
  53              	.L1:
  70:Source\azure_iot_sdk\iothub_client\src/message_queue.c ****     }
  71:Source\azure_iot_sdk\iothub_client\src/message_queue.c **** }
  54              		.loc 1 71 0
  55              		@ sp needed
  56 0014 10BD     		pop	{r4, pc}
  57              		.cfi_endproc
  58              	.LFE2:
  59              		.size	fire_message_callback, .-fire_message_callback
  60 0016 C046     		.section	.text.should_retry_sending,"ax",%progbits
  61              		.align	2
  62              		.code	16
  63              		.thumb_func
  64              		.type	should_retry_sending, %function
  65              	should_retry_sending:
  66              	.LFB3:
  72:Source\azure_iot_sdk\iothub_client\src/message_queue.c **** 
  73:Source\azure_iot_sdk\iothub_client\src/message_queue.c **** static bool should_retry_sending(MESSAGE_QUEUE_HANDLE message_queue, MESSAGE_QUEUE_ITEM* mq_item, M
  74:Source\azure_iot_sdk\iothub_client\src/message_queue.c **** {
  67              		.loc 1 74 0
  68              		.cfi_startproc
  69              		@ args = 0, pretend = 0, frame = 0
  70              		@ frame_needed = 0, uses_anonymous_args = 0
  71              		@ link register save eliminated.
  72              	.LVL4:
  75:Source\azure_iot_sdk\iothub_client\src/message_queue.c ****     return (result == MESSAGE_QUEUE_RETRYABLE_ERROR && mq_item->number_of_attempts <= message_queue
  73              		.loc 1 75 0
  74 0000 022A     		cmp	r2, #2
  75 0002 05D1     		bne	.L7
  76              		.loc 1 75 0 is_stmt 0 discriminator 1
  77 0004 4A69     		ldr	r2, [r1, #20]
  78              	.LVL5:
  79 0006 8368     		ldr	r3, [r0, #8]
  80 0008 9A42     		cmp	r2, r3
  81 000a 03D9     		bls	.L8
  82              		.loc 1 75 0
  83 000c 0020     		movs	r0, #0
  84              	.LVL6:
  85 000e 02E0     		b	.L6
  86              	.LVL7:
  87              	.L7:
  88 0010 0020     		movs	r0, #0
  89              	.LVL8:
  90 0012 00E0     		b	.L6
  91              	.LVL9:
  92              	.L8:
  93 0014 0120     		movs	r0, #1
  94              	.LVL10:
  95              	.L6:
  76:Source\azure_iot_sdk\iothub_client\src/message_queue.c **** }
ARM GAS  C:\Users\Phuong\AppData\Local\Temp\ccaRXo0w.s 			page 4


  96              		.loc 1 76 0 is_stmt 1 discriminator 6
  97              		@ sp needed
  98 0016 7047     		bx	lr
  99              		.cfi_endproc
 100              	.LFE3:
 101              		.size	should_retry_sending, .-should_retry_sending
 102              		.section	.text.find_item_by_message_ptr,"ax",%progbits
 103              		.align	2
 104              		.code	16
 105              		.thumb_func
 106              		.type	find_item_by_message_ptr, %function
 107              	find_item_by_message_ptr:
 108              	.LFB1:
  53:Source\azure_iot_sdk\iothub_client\src/message_queue.c ****     MESSAGE_QUEUE_ITEM* current_item = (MESSAGE_QUEUE_ITEM*)singlylinkedlist_item_get_value(list_it
 109              		.loc 1 53 0
 110              		.cfi_startproc
 111              		@ args = 0, pretend = 0, frame = 0
 112              		@ frame_needed = 0, uses_anonymous_args = 0
 113              	.LVL11:
 114 0000 10B5     		push	{r4, lr}
 115              		.cfi_def_cfa_offset 8
 116              		.cfi_offset 4, -8
 117              		.cfi_offset 14, -4
 118 0002 0C00     		movs	r4, r1
  54:Source\azure_iot_sdk\iothub_client\src/message_queue.c ****     MQ_MESSAGE_HANDLE* target_item = (MQ_MESSAGE_HANDLE*)match_context;
 119              		.loc 1 54 0
 120 0004 FFF7FEFF 		bl	singlylinkedlist_item_get_value
 121              	.LVL12:
  57:Source\azure_iot_sdk\iothub_client\src/message_queue.c **** }
 122              		.loc 1 57 0
 123 0008 0068     		ldr	r0, [r0]
 124              	.LVL13:
 125 000a 201A     		subs	r0, r4, r0
 126 000c 4442     		rsbs	r4, r0, #0
 127 000e 6041     		adcs	r0, r0, r4
 128              	.LVL14:
 129 0010 C0B2     		uxtb	r0, r0
  58:Source\azure_iot_sdk\iothub_client\src/message_queue.c **** 
 130              		.loc 1 58 0
 131              		@ sp needed
 132 0012 10BD     		pop	{r4, pc}
 133              		.cfi_endproc
 134              	.LFE1:
 135              		.size	find_item_by_message_ptr, .-find_item_by_message_ptr
 136              		.section	.text.dequeue_message_and_fire_callback,"ax",%progbits
 137              		.align	2
 138              		.code	16
 139              		.thumb_func
 140              		.type	dequeue_message_and_fire_callback, %function
 141              	dequeue_message_and_fire_callback:
 142              	.LFB5:
  77:Source\azure_iot_sdk\iothub_client\src/message_queue.c **** 
  78:Source\azure_iot_sdk\iothub_client\src/message_queue.c **** static int retry_sending_message(MESSAGE_QUEUE_HANDLE message_queue, LIST_ITEM_HANDLE list_item)
  79:Source\azure_iot_sdk\iothub_client\src/message_queue.c **** {
  80:Source\azure_iot_sdk\iothub_client\src/message_queue.c ****     int result;
  81:Source\azure_iot_sdk\iothub_client\src/message_queue.c ****     MESSAGE_QUEUE_ITEM* mq_item;
  82:Source\azure_iot_sdk\iothub_client\src/message_queue.c **** 
ARM GAS  C:\Users\Phuong\AppData\Local\Temp\ccaRXo0w.s 			page 5


  83:Source\azure_iot_sdk\iothub_client\src/message_queue.c ****     mq_item = (MESSAGE_QUEUE_ITEM*)singlylinkedlist_item_get_value(list_item);
  84:Source\azure_iot_sdk\iothub_client\src/message_queue.c **** 
  85:Source\azure_iot_sdk\iothub_client\src/message_queue.c ****     if (singlylinkedlist_remove(message_queue->in_progress, list_item))
  86:Source\azure_iot_sdk\iothub_client\src/message_queue.c ****     {
  87:Source\azure_iot_sdk\iothub_client\src/message_queue.c ****         LogError("Failed removing message from in-progress list");
  88:Source\azure_iot_sdk\iothub_client\src/message_queue.c ****         result = __FAILURE__;
  89:Source\azure_iot_sdk\iothub_client\src/message_queue.c ****     }
  90:Source\azure_iot_sdk\iothub_client\src/message_queue.c ****     else if (singlylinkedlist_add(message_queue->pending, (const void*)mq_item) == NULL)
  91:Source\azure_iot_sdk\iothub_client\src/message_queue.c ****     {
  92:Source\azure_iot_sdk\iothub_client\src/message_queue.c ****         LogError("Failed moving message back to pending list");
  93:Source\azure_iot_sdk\iothub_client\src/message_queue.c ****         result = __FAILURE__;
  94:Source\azure_iot_sdk\iothub_client\src/message_queue.c ****     }
  95:Source\azure_iot_sdk\iothub_client\src/message_queue.c ****     else
  96:Source\azure_iot_sdk\iothub_client\src/message_queue.c ****     {
  97:Source\azure_iot_sdk\iothub_client\src/message_queue.c ****         result = RESULT_OK;
  98:Source\azure_iot_sdk\iothub_client\src/message_queue.c ****     }
  99:Source\azure_iot_sdk\iothub_client\src/message_queue.c **** 
 100:Source\azure_iot_sdk\iothub_client\src/message_queue.c ****     return result;
 101:Source\azure_iot_sdk\iothub_client\src/message_queue.c **** }
 102:Source\azure_iot_sdk\iothub_client\src/message_queue.c **** 
 103:Source\azure_iot_sdk\iothub_client\src/message_queue.c **** static void dequeue_message_and_fire_callback(SINGLYLINKEDLIST_HANDLE list, LIST_ITEM_HANDLE list_i
 104:Source\azure_iot_sdk\iothub_client\src/message_queue.c **** {
 143              		.loc 1 104 0
 144              		.cfi_startproc
 145              		@ args = 0, pretend = 0, frame = 8
 146              		@ frame_needed = 0, uses_anonymous_args = 0
 147              	.LVL15:
 148 0000 F0B5     		push	{r4, r5, r6, r7, lr}
 149              		.cfi_def_cfa_offset 20
 150              		.cfi_offset 4, -20
 151              		.cfi_offset 5, -16
 152              		.cfi_offset 6, -12
 153              		.cfi_offset 7, -8
 154              		.cfi_offset 14, -4
 155 0002 87B0     		sub	sp, sp, #28
 156              		.cfi_def_cfa_offset 48
 157 0004 0500     		movs	r5, r0
 158 0006 0E00     		movs	r6, r1
 159 0008 0592     		str	r2, [sp, #20]
 160 000a 1F00     		movs	r7, r3
 105:Source\azure_iot_sdk\iothub_client\src/message_queue.c ****     MESSAGE_QUEUE_ITEM* mq_item = (MESSAGE_QUEUE_ITEM*)singlylinkedlist_item_get_value(list_item);
 161              		.loc 1 105 0
 162 000c 0800     		movs	r0, r1
 163              	.LVL16:
 164 000e FFF7FEFF 		bl	singlylinkedlist_item_get_value
 165              	.LVL17:
 166 0012 0400     		movs	r4, r0
 167              	.LVL18:
 106:Source\azure_iot_sdk\iothub_client\src/message_queue.c **** 
 107:Source\azure_iot_sdk\iothub_client\src/message_queue.c ****     // Codes_SRS_MESSAGE_QUEUE_09_045: [If `message` is present in `message_queue->in_progress`, it
 108:Source\azure_iot_sdk\iothub_client\src/message_queue.c ****     if (singlylinkedlist_remove(list, list_item))
 168              		.loc 1 108 0
 169 0014 3100     		movs	r1, r6
 170 0016 2800     		movs	r0, r5
 171              	.LVL19:
 172 0018 FFF7FEFF 		bl	singlylinkedlist_remove
 173              	.LVL20:
ARM GAS  C:\Users\Phuong\AppData\Local\Temp\ccaRXo0w.s 			page 6


 174 001c 0028     		cmp	r0, #0
 175 001e 0DD0     		beq	.L11
 176              	.LBB2:
 109:Source\azure_iot_sdk\iothub_client\src/message_queue.c ****     {
 110:Source\azure_iot_sdk\iothub_client\src/message_queue.c ****         LogError("failed removing message from list (%p)", list);
 177              		.loc 1 110 0 discriminator 3
 178 0020 FFF7FEFF 		bl	xlogging_get_log_function
 179              	.LVL21:
 180 0024 061E     		subs	r6, r0, #0
 181              	.LVL22:
 182 0026 09D0     		beq	.L11
 183              		.loc 1 110 0 is_stmt 0 discriminator 4
 184 0028 0295     		str	r5, [sp, #8]
 185 002a 094B     		ldr	r3, .L12
 186 002c 0193     		str	r3, [sp, #4]
 187 002e 0123     		movs	r3, #1
 188 0030 0093     		str	r3, [sp]
 189 0032 6D33     		adds	r3, r3, #109
 190 0034 074A     		ldr	r2, .L12+4
 191 0036 0849     		ldr	r1, .L12+8
 192 0038 0020     		movs	r0, #0
 193              	.LVL23:
 194 003a B047     		blx	r6
 195              	.LVL24:
 196              	.L11:
 197              	.LBE2:
 111:Source\azure_iot_sdk\iothub_client\src/message_queue.c ****     }
 112:Source\azure_iot_sdk\iothub_client\src/message_queue.c **** 
 113:Source\azure_iot_sdk\iothub_client\src/message_queue.c ****     // Codes_SRS_MESSAGE_QUEUE_09_049: [Otherwise `mq_item->on_message_processing_completed_callbac
 114:Source\azure_iot_sdk\iothub_client\src/message_queue.c ****     fire_message_callback(mq_item, result, reason);
 198              		.loc 1 114 0 is_stmt 1
 199 003c 3A00     		movs	r2, r7
 200 003e 0599     		ldr	r1, [sp, #20]
 201 0040 2000     		movs	r0, r4
 202 0042 FFF7FEFF 		bl	fire_message_callback
 203              	.LVL25:
 115:Source\azure_iot_sdk\iothub_client\src/message_queue.c **** 
 116:Source\azure_iot_sdk\iothub_client\src/message_queue.c ****     // Codes_SRS_MESSAGE_QUEUE_09_050: [The `mq_item` related to `message` shall be freed]
 117:Source\azure_iot_sdk\iothub_client\src/message_queue.c ****     free(mq_item);
 204              		.loc 1 117 0
 205 0046 2000     		movs	r0, r4
 206 0048 FFF7FEFF 		bl	free
 207              	.LVL26:
 118:Source\azure_iot_sdk\iothub_client\src/message_queue.c **** }
 208              		.loc 1 118 0
 209 004c 07B0     		add	sp, sp, #28
 210              		@ sp needed
 211              	.LVL27:
 212              	.LVL28:
 213              	.LVL29:
 214 004e F0BD     		pop	{r4, r5, r6, r7, pc}
 215              	.L13:
 216              		.align	2
 217              	.L12:
 218 0050 38000000 		.word	.LC3
 219 0054 00000000 		.word	.LANCHOR0
 220 0058 00000000 		.word	.LC1
ARM GAS  C:\Users\Phuong\AppData\Local\Temp\ccaRXo0w.s 			page 7


 221              		.cfi_endproc
 222              	.LFE5:
 223              		.size	dequeue_message_and_fire_callback, .-dequeue_message_and_fire_callback
 224              		.section	.text.move_messages_between_lists,"ax",%progbits
 225              		.align	2
 226              		.code	16
 227              		.thumb_func
 228              		.type	move_messages_between_lists, %function
 229              	move_messages_between_lists:
 230              	.LFB12:
 119:Source\azure_iot_sdk\iothub_client\src/message_queue.c **** 
 120:Source\azure_iot_sdk\iothub_client\src/message_queue.c **** static void on_process_message_completed_callback(MESSAGE_QUEUE_HANDLE message_queue, MQ_MESSAGE_HA
 121:Source\azure_iot_sdk\iothub_client\src/message_queue.c **** {
 122:Source\azure_iot_sdk\iothub_client\src/message_queue.c ****     // Codes_SRS_MESSAGE_QUEUE_09_069: [If `message` or `message_queue` are NULL, on_message_proces
 123:Source\azure_iot_sdk\iothub_client\src/message_queue.c ****     if (message == NULL || message_queue == NULL)
 124:Source\azure_iot_sdk\iothub_client\src/message_queue.c ****     {
 125:Source\azure_iot_sdk\iothub_client\src/message_queue.c ****         LogError("on_process_message_completed_callback invoked with NULL arguments (message=%p, me
 126:Source\azure_iot_sdk\iothub_client\src/message_queue.c ****     }
 127:Source\azure_iot_sdk\iothub_client\src/message_queue.c ****     else
 128:Source\azure_iot_sdk\iothub_client\src/message_queue.c ****     {
 129:Source\azure_iot_sdk\iothub_client\src/message_queue.c ****         LIST_ITEM_HANDLE list_item;
 130:Source\azure_iot_sdk\iothub_client\src/message_queue.c **** 
 131:Source\azure_iot_sdk\iothub_client\src/message_queue.c ****         if ((list_item = singlylinkedlist_find(message_queue->in_progress, find_item_by_message_ptr
 132:Source\azure_iot_sdk\iothub_client\src/message_queue.c ****         {
 133:Source\azure_iot_sdk\iothub_client\src/message_queue.c ****             // Codes_SRS_MESSAGE_QUEUE_09_044: [If `message` is not present in `message_queue->in_p
 134:Source\azure_iot_sdk\iothub_client\src/message_queue.c ****             LogError("on_process_message_completed_callback invoked for a message not in the in-pro
 135:Source\azure_iot_sdk\iothub_client\src/message_queue.c ****         }
 136:Source\azure_iot_sdk\iothub_client\src/message_queue.c ****         else
 137:Source\azure_iot_sdk\iothub_client\src/message_queue.c ****         {
 138:Source\azure_iot_sdk\iothub_client\src/message_queue.c ****             MESSAGE_QUEUE_ITEM* mq_item = (MESSAGE_QUEUE_ITEM*)singlylinkedlist_item_get_value(list
 139:Source\azure_iot_sdk\iothub_client\src/message_queue.c **** 
 140:Source\azure_iot_sdk\iothub_client\src/message_queue.c ****             // Codes_SRS_MESSAGE_QUEUE_09_047: [If `result` is MESSAGE_QUEUE_RETRYABLE_ERROR and `m
 141:Source\azure_iot_sdk\iothub_client\src/message_queue.c ****             // Codes_SRS_MESSAGE_QUEUE_09_048: [If `result` is MESSAGE_QUEUE_RETRYABLE_ERROR and `m
 142:Source\azure_iot_sdk\iothub_client\src/message_queue.c ****             if (!should_retry_sending(message_queue, mq_item, result) || retry_sending_message(mess
 143:Source\azure_iot_sdk\iothub_client\src/message_queue.c ****             {
 144:Source\azure_iot_sdk\iothub_client\src/message_queue.c ****                 dequeue_message_and_fire_callback(message_queue->in_progress, list_item, result, re
 145:Source\azure_iot_sdk\iothub_client\src/message_queue.c ****             }
 146:Source\azure_iot_sdk\iothub_client\src/message_queue.c ****         }
 147:Source\azure_iot_sdk\iothub_client\src/message_queue.c ****     }
 148:Source\azure_iot_sdk\iothub_client\src/message_queue.c **** }
 149:Source\azure_iot_sdk\iothub_client\src/message_queue.c **** 
 150:Source\azure_iot_sdk\iothub_client\src/message_queue.c **** static void process_timeouts(MESSAGE_QUEUE_HANDLE message_queue)
 151:Source\azure_iot_sdk\iothub_client\src/message_queue.c **** {
 152:Source\azure_iot_sdk\iothub_client\src/message_queue.c ****     time_t current_time;
 153:Source\azure_iot_sdk\iothub_client\src/message_queue.c **** 
 154:Source\azure_iot_sdk\iothub_client\src/message_queue.c ****     if ((current_time = get_time(NULL)) == INDEFINITE_TIME)
 155:Source\azure_iot_sdk\iothub_client\src/message_queue.c ****     {
 156:Source\azure_iot_sdk\iothub_client\src/message_queue.c ****         LogError("failed processing timeouts (get_time failed)");
 157:Source\azure_iot_sdk\iothub_client\src/message_queue.c ****     }
 158:Source\azure_iot_sdk\iothub_client\src/message_queue.c ****     else
 159:Source\azure_iot_sdk\iothub_client\src/message_queue.c ****     {
 160:Source\azure_iot_sdk\iothub_client\src/message_queue.c ****         // Codes_SRS_MESSAGE_QUEUE_09_035: [If `message_queue->max_message_enqueued_time_secs` is g
 161:Source\azure_iot_sdk\iothub_client\src/message_queue.c ****         if (message_queue->max_message_enqueued_time_secs > 0)
 162:Source\azure_iot_sdk\iothub_client\src/message_queue.c ****         {
 163:Source\azure_iot_sdk\iothub_client\src/message_queue.c ****             LIST_ITEM_HANDLE list_item = singlylinkedlist_get_head_item(message_queue->pending);
 164:Source\azure_iot_sdk\iothub_client\src/message_queue.c **** 
 165:Source\azure_iot_sdk\iothub_client\src/message_queue.c ****             while (list_item != NULL)
ARM GAS  C:\Users\Phuong\AppData\Local\Temp\ccaRXo0w.s 			page 8


 166:Source\azure_iot_sdk\iothub_client\src/message_queue.c ****             {
 167:Source\azure_iot_sdk\iothub_client\src/message_queue.c ****                 LIST_ITEM_HANDLE current_list_item = list_item;
 168:Source\azure_iot_sdk\iothub_client\src/message_queue.c ****                 MESSAGE_QUEUE_ITEM* mq_item = (MESSAGE_QUEUE_ITEM*)singlylinkedlist_item_get_value(
 169:Source\azure_iot_sdk\iothub_client\src/message_queue.c **** 
 170:Source\azure_iot_sdk\iothub_client\src/message_queue.c ****                 list_item = singlylinkedlist_get_next_item(list_item);
 171:Source\azure_iot_sdk\iothub_client\src/message_queue.c **** 
 172:Source\azure_iot_sdk\iothub_client\src/message_queue.c ****                 if (mq_item == NULL)
 173:Source\azure_iot_sdk\iothub_client\src/message_queue.c ****                 {
 174:Source\azure_iot_sdk\iothub_client\src/message_queue.c ****                     LogError("failed processing timeouts (unexpected NULL pointer to MESSAGE_QUEUE_
 175:Source\azure_iot_sdk\iothub_client\src/message_queue.c ****                 }
 176:Source\azure_iot_sdk\iothub_client\src/message_queue.c ****                 else if (get_difftime(current_time, mq_item->enqueue_time) >= message_queue->max_me
 177:Source\azure_iot_sdk\iothub_client\src/message_queue.c ****                 {
 178:Source\azure_iot_sdk\iothub_client\src/message_queue.c ****                     // Codes_SRS_MESSAGE_QUEUE_09_036: [If any items are in `message_queue` lists f
 179:Source\azure_iot_sdk\iothub_client\src/message_queue.c ****                     dequeue_message_and_fire_callback(message_queue->pending, current_list_item, ME
 180:Source\azure_iot_sdk\iothub_client\src/message_queue.c ****                 }
 181:Source\azure_iot_sdk\iothub_client\src/message_queue.c ****                 else
 182:Source\azure_iot_sdk\iothub_client\src/message_queue.c ****                 {
 183:Source\azure_iot_sdk\iothub_client\src/message_queue.c ****                     // The pending list order is already based on enqueue time, so if one message i
 184:Source\azure_iot_sdk\iothub_client\src/message_queue.c ****                     break;
 185:Source\azure_iot_sdk\iothub_client\src/message_queue.c ****                 }
 186:Source\azure_iot_sdk\iothub_client\src/message_queue.c ****             }
 187:Source\azure_iot_sdk\iothub_client\src/message_queue.c **** 
 188:Source\azure_iot_sdk\iothub_client\src/message_queue.c ****             list_item = singlylinkedlist_get_head_item(message_queue->in_progress);
 189:Source\azure_iot_sdk\iothub_client\src/message_queue.c **** 
 190:Source\azure_iot_sdk\iothub_client\src/message_queue.c ****             while (list_item != NULL)
 191:Source\azure_iot_sdk\iothub_client\src/message_queue.c ****             {
 192:Source\azure_iot_sdk\iothub_client\src/message_queue.c ****                 LIST_ITEM_HANDLE current_list_item = list_item;
 193:Source\azure_iot_sdk\iothub_client\src/message_queue.c ****                 MESSAGE_QUEUE_ITEM* mq_item = (MESSAGE_QUEUE_ITEM*)singlylinkedlist_item_get_value(
 194:Source\azure_iot_sdk\iothub_client\src/message_queue.c **** 
 195:Source\azure_iot_sdk\iothub_client\src/message_queue.c ****                 list_item = singlylinkedlist_get_next_item(list_item);
 196:Source\azure_iot_sdk\iothub_client\src/message_queue.c **** 
 197:Source\azure_iot_sdk\iothub_client\src/message_queue.c ****                 if (mq_item == NULL)
 198:Source\azure_iot_sdk\iothub_client\src/message_queue.c ****                 {
 199:Source\azure_iot_sdk\iothub_client\src/message_queue.c ****                     LogError("failed processing timeouts (unexpected NULL pointer to MESSAGE_QUEUE_
 200:Source\azure_iot_sdk\iothub_client\src/message_queue.c ****                 }
 201:Source\azure_iot_sdk\iothub_client\src/message_queue.c ****                 else if (get_difftime(current_time, mq_item->enqueue_time) >= message_queue->max_me
 202:Source\azure_iot_sdk\iothub_client\src/message_queue.c ****                 {
 203:Source\azure_iot_sdk\iothub_client\src/message_queue.c ****                     // Codes_SRS_MESSAGE_QUEUE_09_038: [If any items are in `message_queue->in_prog
 204:Source\azure_iot_sdk\iothub_client\src/message_queue.c ****                     dequeue_message_and_fire_callback(message_queue->in_progress, current_list_item
 205:Source\azure_iot_sdk\iothub_client\src/message_queue.c ****                 }
 206:Source\azure_iot_sdk\iothub_client\src/message_queue.c ****             }
 207:Source\azure_iot_sdk\iothub_client\src/message_queue.c ****         }
 208:Source\azure_iot_sdk\iothub_client\src/message_queue.c **** 
 209:Source\azure_iot_sdk\iothub_client\src/message_queue.c ****         // Codes_SRS_MESSAGE_QUEUE_09_037: [If `message_queue->max_message_processing_time_secs` is
 210:Source\azure_iot_sdk\iothub_client\src/message_queue.c ****         if (message_queue->max_message_processing_time_secs > 0)
 211:Source\azure_iot_sdk\iothub_client\src/message_queue.c ****         {
 212:Source\azure_iot_sdk\iothub_client\src/message_queue.c ****             LIST_ITEM_HANDLE list_item = singlylinkedlist_get_head_item(message_queue->in_progress)
 213:Source\azure_iot_sdk\iothub_client\src/message_queue.c **** 
 214:Source\azure_iot_sdk\iothub_client\src/message_queue.c ****             while (list_item != NULL)
 215:Source\azure_iot_sdk\iothub_client\src/message_queue.c ****             {
 216:Source\azure_iot_sdk\iothub_client\src/message_queue.c ****                 LIST_ITEM_HANDLE current_list_item = list_item;
 217:Source\azure_iot_sdk\iothub_client\src/message_queue.c ****                 MESSAGE_QUEUE_ITEM* mq_item = (MESSAGE_QUEUE_ITEM*)singlylinkedlist_item_get_value(
 218:Source\azure_iot_sdk\iothub_client\src/message_queue.c **** 
 219:Source\azure_iot_sdk\iothub_client\src/message_queue.c ****                 list_item = singlylinkedlist_get_next_item(list_item);
 220:Source\azure_iot_sdk\iothub_client\src/message_queue.c **** 
 221:Source\azure_iot_sdk\iothub_client\src/message_queue.c ****                 if (mq_item == NULL)
 222:Source\azure_iot_sdk\iothub_client\src/message_queue.c ****                 {
ARM GAS  C:\Users\Phuong\AppData\Local\Temp\ccaRXo0w.s 			page 9


 223:Source\azure_iot_sdk\iothub_client\src/message_queue.c ****                     LogError("failed processing timeouts (unexpected NULL pointer to MESSAGE_QUEUE_
 224:Source\azure_iot_sdk\iothub_client\src/message_queue.c ****                 }
 225:Source\azure_iot_sdk\iothub_client\src/message_queue.c ****                 else if (get_difftime(current_time, mq_item->processing_start_time) >= message_queu
 226:Source\azure_iot_sdk\iothub_client\src/message_queue.c ****                 {
 227:Source\azure_iot_sdk\iothub_client\src/message_queue.c ****                     dequeue_message_and_fire_callback(message_queue->in_progress, current_list_item
 228:Source\azure_iot_sdk\iothub_client\src/message_queue.c ****                 }
 229:Source\azure_iot_sdk\iothub_client\src/message_queue.c ****                 else
 230:Source\azure_iot_sdk\iothub_client\src/message_queue.c ****                 {
 231:Source\azure_iot_sdk\iothub_client\src/message_queue.c ****                     // The in-progress list order is already based on start-processing time, so if 
 232:Source\azure_iot_sdk\iothub_client\src/message_queue.c ****                     break;
 233:Source\azure_iot_sdk\iothub_client\src/message_queue.c ****                 }
 234:Source\azure_iot_sdk\iothub_client\src/message_queue.c ****             }
 235:Source\azure_iot_sdk\iothub_client\src/message_queue.c ****         }
 236:Source\azure_iot_sdk\iothub_client\src/message_queue.c ****     }
 237:Source\azure_iot_sdk\iothub_client\src/message_queue.c **** }
 238:Source\azure_iot_sdk\iothub_client\src/message_queue.c **** 
 239:Source\azure_iot_sdk\iothub_client\src/message_queue.c **** static void process_pending_messages(MESSAGE_QUEUE_HANDLE message_queue)
 240:Source\azure_iot_sdk\iothub_client\src/message_queue.c **** {
 241:Source\azure_iot_sdk\iothub_client\src/message_queue.c ****     LIST_ITEM_HANDLE list_item;
 242:Source\azure_iot_sdk\iothub_client\src/message_queue.c **** 
 243:Source\azure_iot_sdk\iothub_client\src/message_queue.c ****     while ((list_item = singlylinkedlist_get_head_item(message_queue->pending)) != NULL)
 244:Source\azure_iot_sdk\iothub_client\src/message_queue.c ****     {
 245:Source\azure_iot_sdk\iothub_client\src/message_queue.c ****         MESSAGE_QUEUE_ITEM* mq_item = (MESSAGE_QUEUE_ITEM*)singlylinkedlist_item_get_value(list_ite
 246:Source\azure_iot_sdk\iothub_client\src/message_queue.c **** 
 247:Source\azure_iot_sdk\iothub_client\src/message_queue.c ****         if (mq_item == NULL)
 248:Source\azure_iot_sdk\iothub_client\src/message_queue.c ****         {
 249:Source\azure_iot_sdk\iothub_client\src/message_queue.c ****             LogError("internal error, failed to retrieve list node value");
 250:Source\azure_iot_sdk\iothub_client\src/message_queue.c ****             break;
 251:Source\azure_iot_sdk\iothub_client\src/message_queue.c ****         }
 252:Source\azure_iot_sdk\iothub_client\src/message_queue.c ****         else if (singlylinkedlist_remove(message_queue->pending, list_item) != 0)
 253:Source\azure_iot_sdk\iothub_client\src/message_queue.c ****         {
 254:Source\azure_iot_sdk\iothub_client\src/message_queue.c ****             LogError("failed moving message out of pending list (%p)", mq_item->message);
 255:Source\azure_iot_sdk\iothub_client\src/message_queue.c **** 
 256:Source\azure_iot_sdk\iothub_client\src/message_queue.c ****             // Codes_SRS_MESSAGE_QUEUE_09_042: [If any failures occur, `mq_item->on_message_process
 257:Source\azure_iot_sdk\iothub_client\src/message_queue.c ****             if (mq_item->on_message_processing_completed_callback != NULL)
 258:Source\azure_iot_sdk\iothub_client\src/message_queue.c ****             {
 259:Source\azure_iot_sdk\iothub_client\src/message_queue.c ****                 mq_item->on_message_processing_completed_callback(mq_item->message, MESSAGE_QUEUE_E
 260:Source\azure_iot_sdk\iothub_client\src/message_queue.c ****             }
 261:Source\azure_iot_sdk\iothub_client\src/message_queue.c **** 
 262:Source\azure_iot_sdk\iothub_client\src/message_queue.c ****             // Not freeing since this would cause a memory A/V on the next call.
 263:Source\azure_iot_sdk\iothub_client\src/message_queue.c **** 
 264:Source\azure_iot_sdk\iothub_client\src/message_queue.c ****             break; // Trying to avoid an infinite loop
 265:Source\azure_iot_sdk\iothub_client\src/message_queue.c ****         }
 266:Source\azure_iot_sdk\iothub_client\src/message_queue.c ****         // Codes_SRS_MESSAGE_QUEUE_09_040: [`mq_item->processing_start_time` shall be set using get
 267:Source\azure_iot_sdk\iothub_client\src/message_queue.c ****         else if ((mq_item->processing_start_time = get_time(NULL)) == INDEFINITE_TIME)
 268:Source\azure_iot_sdk\iothub_client\src/message_queue.c ****         {
 269:Source\azure_iot_sdk\iothub_client\src/message_queue.c ****             // Codes_SRS_MESSAGE_QUEUE_09_041: [If get_time() fails, `mq_item` shall be removed fro
 270:Source\azure_iot_sdk\iothub_client\src/message_queue.c ****             LogError("failed setting message processing_start_time (%p)", mq_item->message);
 271:Source\azure_iot_sdk\iothub_client\src/message_queue.c **** 
 272:Source\azure_iot_sdk\iothub_client\src/message_queue.c ****             // Codes_SRS_MESSAGE_QUEUE_09_042: [If any failures occur, `mq_item->on_message_process
 273:Source\azure_iot_sdk\iothub_client\src/message_queue.c ****             if (mq_item->on_message_processing_completed_callback != NULL)
 274:Source\azure_iot_sdk\iothub_client\src/message_queue.c ****             {
 275:Source\azure_iot_sdk\iothub_client\src/message_queue.c ****                 mq_item->on_message_processing_completed_callback(mq_item->message, MESSAGE_QUEUE_E
 276:Source\azure_iot_sdk\iothub_client\src/message_queue.c ****             }
 277:Source\azure_iot_sdk\iothub_client\src/message_queue.c **** 
 278:Source\azure_iot_sdk\iothub_client\src/message_queue.c ****             free(mq_item);
 279:Source\azure_iot_sdk\iothub_client\src/message_queue.c ****         }
ARM GAS  C:\Users\Phuong\AppData\Local\Temp\ccaRXo0w.s 			page 10


 280:Source\azure_iot_sdk\iothub_client\src/message_queue.c ****         // Codes_SRS_MESSAGE_QUEUE_09_039: [Each `mq_item` in `message_queue->pending` shall be mov
 281:Source\azure_iot_sdk\iothub_client\src/message_queue.c ****         else if (singlylinkedlist_add(message_queue->in_progress, (const void*)mq_item) == NULL)
 282:Source\azure_iot_sdk\iothub_client\src/message_queue.c ****         {
 283:Source\azure_iot_sdk\iothub_client\src/message_queue.c ****             LogError("failed moving message to in-progress list (%p)", mq_item->message);
 284:Source\azure_iot_sdk\iothub_client\src/message_queue.c **** 
 285:Source\azure_iot_sdk\iothub_client\src/message_queue.c ****             // Codes_SRS_MESSAGE_QUEUE_09_042: [If any failures occur, `mq_item->on_message_process
 286:Source\azure_iot_sdk\iothub_client\src/message_queue.c ****             if (mq_item->on_message_processing_completed_callback != NULL)
 287:Source\azure_iot_sdk\iothub_client\src/message_queue.c ****             {
 288:Source\azure_iot_sdk\iothub_client\src/message_queue.c ****                 mq_item->on_message_processing_completed_callback(mq_item->message, MESSAGE_QUEUE_E
 289:Source\azure_iot_sdk\iothub_client\src/message_queue.c ****             }
 290:Source\azure_iot_sdk\iothub_client\src/message_queue.c **** 
 291:Source\azure_iot_sdk\iothub_client\src/message_queue.c ****             free(mq_item);
 292:Source\azure_iot_sdk\iothub_client\src/message_queue.c ****         }
 293:Source\azure_iot_sdk\iothub_client\src/message_queue.c ****         else
 294:Source\azure_iot_sdk\iothub_client\src/message_queue.c ****         {
 295:Source\azure_iot_sdk\iothub_client\src/message_queue.c ****             mq_item->number_of_attempts++;
 296:Source\azure_iot_sdk\iothub_client\src/message_queue.c **** 
 297:Source\azure_iot_sdk\iothub_client\src/message_queue.c ****             // Codes_SRS_MESSAGE_QUEUE_09_043: [If no failures occur, `message_queue->on_process_me
 298:Source\azure_iot_sdk\iothub_client\src/message_queue.c ****             message_queue->on_process_message_callback(message_queue, mq_item->message, on_process_
 299:Source\azure_iot_sdk\iothub_client\src/message_queue.c ****         }
 300:Source\azure_iot_sdk\iothub_client\src/message_queue.c ****     }
 301:Source\azure_iot_sdk\iothub_client\src/message_queue.c **** }
 302:Source\azure_iot_sdk\iothub_client\src/message_queue.c **** 
 303:Source\azure_iot_sdk\iothub_client\src/message_queue.c **** static void* cloneOption(const char* name, const void* value)
 304:Source\azure_iot_sdk\iothub_client\src/message_queue.c **** {
 305:Source\azure_iot_sdk\iothub_client\src/message_queue.c ****     void* result;
 306:Source\azure_iot_sdk\iothub_client\src/message_queue.c **** 
 307:Source\azure_iot_sdk\iothub_client\src/message_queue.c ****     if (name == NULL || value == NULL)
 308:Source\azure_iot_sdk\iothub_client\src/message_queue.c ****     {
 309:Source\azure_iot_sdk\iothub_client\src/message_queue.c ****         LogError("invalid argument (name=%p, value=%p)", name, value);
 310:Source\azure_iot_sdk\iothub_client\src/message_queue.c ****         result = NULL;
 311:Source\azure_iot_sdk\iothub_client\src/message_queue.c ****     }
 312:Source\azure_iot_sdk\iothub_client\src/message_queue.c ****     else if (strcmp(SAVED_OPTION_MAX_ENQUEUE_TIME_SECS, name) == 0 ||
 313:Source\azure_iot_sdk\iothub_client\src/message_queue.c ****         strcmp(SAVED_OPTION_MAX_PROCESSING_TIME_SECS, name) == 0 ||
 314:Source\azure_iot_sdk\iothub_client\src/message_queue.c ****         strcmp(SAVED_OPTION_MAX_RETRY_COUNT, name) == 0)
 315:Source\azure_iot_sdk\iothub_client\src/message_queue.c ****     {
 316:Source\azure_iot_sdk\iothub_client\src/message_queue.c ****         if ((result = malloc(sizeof(size_t))) == NULL)
 317:Source\azure_iot_sdk\iothub_client\src/message_queue.c ****         {
 318:Source\azure_iot_sdk\iothub_client\src/message_queue.c ****             LogError("failed cloning option %s (malloc failed)", name);
 319:Source\azure_iot_sdk\iothub_client\src/message_queue.c ****         }
 320:Source\azure_iot_sdk\iothub_client\src/message_queue.c ****         else
 321:Source\azure_iot_sdk\iothub_client\src/message_queue.c ****         {
 322:Source\azure_iot_sdk\iothub_client\src/message_queue.c ****             memcpy(result, value, sizeof(size_t));
 323:Source\azure_iot_sdk\iothub_client\src/message_queue.c ****         }
 324:Source\azure_iot_sdk\iothub_client\src/message_queue.c ****     }
 325:Source\azure_iot_sdk\iothub_client\src/message_queue.c ****     else
 326:Source\azure_iot_sdk\iothub_client\src/message_queue.c ****     {
 327:Source\azure_iot_sdk\iothub_client\src/message_queue.c ****         LogError("option %s is invalid", name);
 328:Source\azure_iot_sdk\iothub_client\src/message_queue.c ****         result = NULL;
 329:Source\azure_iot_sdk\iothub_client\src/message_queue.c ****     }
 330:Source\azure_iot_sdk\iothub_client\src/message_queue.c **** 
 331:Source\azure_iot_sdk\iothub_client\src/message_queue.c ****     return result;
 332:Source\azure_iot_sdk\iothub_client\src/message_queue.c **** }
 333:Source\azure_iot_sdk\iothub_client\src/message_queue.c **** 
 334:Source\azure_iot_sdk\iothub_client\src/message_queue.c **** static void destroyOption(const char* name, const void* value)
 335:Source\azure_iot_sdk\iothub_client\src/message_queue.c **** {
 336:Source\azure_iot_sdk\iothub_client\src/message_queue.c ****     if (name == NULL || value == NULL)
ARM GAS  C:\Users\Phuong\AppData\Local\Temp\ccaRXo0w.s 			page 11


 337:Source\azure_iot_sdk\iothub_client\src/message_queue.c ****     {
 338:Source\azure_iot_sdk\iothub_client\src/message_queue.c ****         LogError("invalid argument (name=%p, value=%p)", name, value);
 339:Source\azure_iot_sdk\iothub_client\src/message_queue.c ****     }
 340:Source\azure_iot_sdk\iothub_client\src/message_queue.c ****     else if (strcmp(SAVED_OPTION_MAX_ENQUEUE_TIME_SECS, name) == 0 ||
 341:Source\azure_iot_sdk\iothub_client\src/message_queue.c ****         strcmp(SAVED_OPTION_MAX_PROCESSING_TIME_SECS, name) == 0 ||
 342:Source\azure_iot_sdk\iothub_client\src/message_queue.c ****         strcmp(SAVED_OPTION_MAX_RETRY_COUNT, name) == 0)
 343:Source\azure_iot_sdk\iothub_client\src/message_queue.c ****     {
 344:Source\azure_iot_sdk\iothub_client\src/message_queue.c ****         free((void*)value);
 345:Source\azure_iot_sdk\iothub_client\src/message_queue.c ****     }
 346:Source\azure_iot_sdk\iothub_client\src/message_queue.c ****     else
 347:Source\azure_iot_sdk\iothub_client\src/message_queue.c ****     {
 348:Source\azure_iot_sdk\iothub_client\src/message_queue.c ****         LogError("option %s is invalid", name);
 349:Source\azure_iot_sdk\iothub_client\src/message_queue.c ****     }
 350:Source\azure_iot_sdk\iothub_client\src/message_queue.c **** }
 351:Source\azure_iot_sdk\iothub_client\src/message_queue.c **** 
 352:Source\azure_iot_sdk\iothub_client\src/message_queue.c **** 
 353:Source\azure_iot_sdk\iothub_client\src/message_queue.c **** 
 354:Source\azure_iot_sdk\iothub_client\src/message_queue.c **** // ---------- Public APIs ---------- //
 355:Source\azure_iot_sdk\iothub_client\src/message_queue.c **** 
 356:Source\azure_iot_sdk\iothub_client\src/message_queue.c **** void message_queue_remove_all(MESSAGE_QUEUE_HANDLE message_queue)
 357:Source\azure_iot_sdk\iothub_client\src/message_queue.c **** {
 358:Source\azure_iot_sdk\iothub_client\src/message_queue.c ****     // Codes_SRS_MESSAGE_QUEUE_09_026: [If `message_queue` is NULL, message_queue_retrieve_options 
 359:Source\azure_iot_sdk\iothub_client\src/message_queue.c ****     if (message_queue != NULL)
 360:Source\azure_iot_sdk\iothub_client\src/message_queue.c ****     {
 361:Source\azure_iot_sdk\iothub_client\src/message_queue.c ****         LIST_ITEM_HANDLE list_item;
 362:Source\azure_iot_sdk\iothub_client\src/message_queue.c **** 
 363:Source\azure_iot_sdk\iothub_client\src/message_queue.c ****         // Codes_SRS_MESSAGE_QUEUE_09_027: [Each `mq_item` in `message_queue->pending` and `message
 364:Source\azure_iot_sdk\iothub_client\src/message_queue.c ****         while ((list_item = singlylinkedlist_get_head_item(message_queue->in_progress)) != NULL)
 365:Source\azure_iot_sdk\iothub_client\src/message_queue.c ****         {
 366:Source\azure_iot_sdk\iothub_client\src/message_queue.c ****             // Codes_SRS_MESSAGE_QUEUE_09_028: [`message_queue->on_message_processing_completed_cal
 367:Source\azure_iot_sdk\iothub_client\src/message_queue.c ****             // Codes_SRS_MESSAGE_QUEUE_09_029: [Each `mq_item` shall be freed]
 368:Source\azure_iot_sdk\iothub_client\src/message_queue.c ****             dequeue_message_and_fire_callback(message_queue->in_progress, list_item, MESSAGE_QUEUE_
 369:Source\azure_iot_sdk\iothub_client\src/message_queue.c ****         }
 370:Source\azure_iot_sdk\iothub_client\src/message_queue.c **** 
 371:Source\azure_iot_sdk\iothub_client\src/message_queue.c ****         while ((list_item = singlylinkedlist_get_head_item(message_queue->pending)) != NULL)
 372:Source\azure_iot_sdk\iothub_client\src/message_queue.c ****         {
 373:Source\azure_iot_sdk\iothub_client\src/message_queue.c ****             // Codes_SRS_MESSAGE_QUEUE_09_028: [`message_queue->on_message_processing_completed_cal
 374:Source\azure_iot_sdk\iothub_client\src/message_queue.c ****             // Codes_SRS_MESSAGE_QUEUE_09_029: [Each `mq_item` shall be freed]
 375:Source\azure_iot_sdk\iothub_client\src/message_queue.c ****             dequeue_message_and_fire_callback(message_queue->pending, list_item, MESSAGE_QUEUE_CANC
 376:Source\azure_iot_sdk\iothub_client\src/message_queue.c ****         }
 377:Source\azure_iot_sdk\iothub_client\src/message_queue.c ****     }
 378:Source\azure_iot_sdk\iothub_client\src/message_queue.c **** }
 379:Source\azure_iot_sdk\iothub_client\src/message_queue.c **** 
 380:Source\azure_iot_sdk\iothub_client\src/message_queue.c **** static int move_messages_between_lists(SINGLYLINKEDLIST_HANDLE from_list, SINGLYLINKEDLIST_HANDLE t
 381:Source\azure_iot_sdk\iothub_client\src/message_queue.c **** {
 231              		.loc 1 381 0
 232              		.cfi_startproc
 233              		@ args = 0, pretend = 0, frame = 0
 234              		@ frame_needed = 0, uses_anonymous_args = 0
 235              	.LVL30:
 236 0000 F0B5     		push	{r4, r5, r6, r7, lr}
 237              		.cfi_def_cfa_offset 20
 238              		.cfi_offset 4, -20
 239              		.cfi_offset 5, -16
 240              		.cfi_offset 6, -12
 241              		.cfi_offset 7, -8
 242              		.cfi_offset 14, -4
ARM GAS  C:\Users\Phuong\AppData\Local\Temp\ccaRXo0w.s 			page 12


 243 0002 83B0     		sub	sp, sp, #12
 244              		.cfi_def_cfa_offset 32
 245 0004 0500     		movs	r5, r0
 246 0006 0E00     		movs	r6, r1
 247              	.LVL31:
 382:Source\azure_iot_sdk\iothub_client\src/message_queue.c ****     int result;
 383:Source\azure_iot_sdk\iothub_client\src/message_queue.c ****     LIST_ITEM_HANDLE list_item;
 384:Source\azure_iot_sdk\iothub_client\src/message_queue.c **** 
 385:Source\azure_iot_sdk\iothub_client\src/message_queue.c ****     result = RESULT_OK;
 248              		.loc 1 385 0
 249 0008 0027     		movs	r7, #0
 386:Source\azure_iot_sdk\iothub_client\src/message_queue.c **** 
 387:Source\azure_iot_sdk\iothub_client\src/message_queue.c ****     while ((list_item = singlylinkedlist_get_head_item(from_list)) != NULL)
 250              		.loc 1 387 0
 251 000a 42E0     		b	.L15
 252              	.LVL32:
 253              	.L21:
 388:Source\azure_iot_sdk\iothub_client\src/message_queue.c ****     {
 389:Source\azure_iot_sdk\iothub_client\src/message_queue.c ****         if (singlylinkedlist_remove(from_list, list_item) != 0)
 254              		.loc 1 389 0
 255 000c 2100     		movs	r1, r4
 256 000e 2800     		movs	r0, r5
 257              	.LVL33:
 258 0010 FFF7FEFF 		bl	singlylinkedlist_remove
 259              	.LVL34:
 260 0014 0028     		cmp	r0, #0
 261 0016 11D0     		beq	.L16
 262              	.LBB3:
 390:Source\azure_iot_sdk\iothub_client\src/message_queue.c ****         {
 391:Source\azure_iot_sdk\iothub_client\src/message_queue.c ****             LogError("failed removing message from list");
 263              		.loc 1 391 0 discriminator 3
 264 0018 FFF7FEFF 		bl	xlogging_get_log_function
 265              	.LVL35:
 266 001c 041E     		subs	r4, r0, #0
 267              	.LVL36:
 268 001e 36D0     		beq	.L22
 269              		.loc 1 391 0 is_stmt 0 discriminator 4
 270 0020 204B     		ldr	r3, .L23
 271 0022 0193     		str	r3, [sp, #4]
 272 0024 0123     		movs	r3, #1
 273 0026 0093     		str	r3, [sp]
 274 0028 8823     		movs	r3, #136
 275 002a FF33     		adds	r3, r3, #255
 276 002c 1E4A     		ldr	r2, .L23+4
 277 002e 2432     		adds	r2, r2, #36
 278 0030 1E49     		ldr	r1, .L23+8
 279 0032 0020     		movs	r0, #0
 280              	.LVL37:
 281 0034 A047     		blx	r4
 282              	.LVL38:
 283              	.LBE3:
 392:Source\azure_iot_sdk\iothub_client\src/message_queue.c ****             result = __FAILURE__;
 284              		.loc 1 392 0 is_stmt 1 discriminator 4
 285 0036 C427     		movs	r7, #196
 286              	.LVL39:
 287 0038 7F00     		lsls	r7, r7, #1
 288 003a 2AE0     		b	.L15
ARM GAS  C:\Users\Phuong\AppData\Local\Temp\ccaRXo0w.s 			page 13


 289              	.LVL40:
 290              	.L16:
 291              	.LBB4:
 393:Source\azure_iot_sdk\iothub_client\src/message_queue.c ****         }
 394:Source\azure_iot_sdk\iothub_client\src/message_queue.c ****         else
 395:Source\azure_iot_sdk\iothub_client\src/message_queue.c ****         {
 396:Source\azure_iot_sdk\iothub_client\src/message_queue.c ****             MESSAGE_QUEUE_ITEM* mq_item = (MESSAGE_QUEUE_ITEM*)singlylinkedlist_item_get_value(list
 292              		.loc 1 396 0
 293 003c 2000     		movs	r0, r4
 294 003e FFF7FEFF 		bl	singlylinkedlist_item_get_value
 295              	.LVL41:
 296 0042 0400     		movs	r4, r0
 297              	.LVL42:
 397:Source\azure_iot_sdk\iothub_client\src/message_queue.c **** 
 398:Source\azure_iot_sdk\iothub_client\src/message_queue.c ****             if (singlylinkedlist_add(to_list, (const void*)mq_item) != 0)
 298              		.loc 1 398 0
 299 0044 0100     		movs	r1, r0
 300 0046 3000     		movs	r0, r6
 301              	.LVL43:
 302 0048 FFF7FEFF 		bl	singlylinkedlist_add
 303              	.LVL44:
 304 004c 0028     		cmp	r0, #0
 305 004e 19D0     		beq	.L18
 306              	.LBB5:
 399:Source\azure_iot_sdk\iothub_client\src/message_queue.c ****             {
 400:Source\azure_iot_sdk\iothub_client\src/message_queue.c ****                 LogError("failed moving message to list");
 307              		.loc 1 400 0 discriminator 3
 308 0050 FFF7FEFF 		bl	xlogging_get_log_function
 309              	.LVL45:
 310 0054 051E     		subs	r5, r0, #0
 311              	.LVL46:
 312 0056 0AD0     		beq	.L19
 313              		.loc 1 400 0 is_stmt 0 discriminator 4
 314 0058 154B     		ldr	r3, .L23+12
 315 005a 0193     		str	r3, [sp, #4]
 316 005c 0123     		movs	r3, #1
 317 005e 0093     		str	r3, [sp]
 318 0060 9033     		adds	r3, r3, #144
 319 0062 FF33     		adds	r3, r3, #255
 320 0064 104A     		ldr	r2, .L23+4
 321 0066 2432     		adds	r2, r2, #36
 322 0068 1049     		ldr	r1, .L23+8
 323 006a 0020     		movs	r0, #0
 324              	.LVL47:
 325 006c A847     		blx	r5
 326              	.LVL48:
 327              	.L19:
 328              	.LBE5:
 401:Source\azure_iot_sdk\iothub_client\src/message_queue.c **** 
 402:Source\azure_iot_sdk\iothub_client\src/message_queue.c ****                 fire_message_callback(mq_item, MESSAGE_QUEUE_CANCELLED, NULL);
 329              		.loc 1 402 0 is_stmt 1
 330 006e 0022     		movs	r2, #0
 331 0070 0421     		movs	r1, #4
 332 0072 2000     		movs	r0, r4
 333 0074 FFF7FEFF 		bl	fire_message_callback
 334              	.LVL49:
 403:Source\azure_iot_sdk\iothub_client\src/message_queue.c **** 
ARM GAS  C:\Users\Phuong\AppData\Local\Temp\ccaRXo0w.s 			page 14


 404:Source\azure_iot_sdk\iothub_client\src/message_queue.c ****                 free(mq_item);
 335              		.loc 1 404 0
 336 0078 2000     		movs	r0, r4
 337 007a FFF7FEFF 		bl	free
 338              	.LVL50:
 405:Source\azure_iot_sdk\iothub_client\src/message_queue.c **** 
 406:Source\azure_iot_sdk\iothub_client\src/message_queue.c ****                 result = __FAILURE__;
 339              		.loc 1 406 0
 340 007e CB27     		movs	r7, #203
 341 0080 7F00     		lsls	r7, r7, #1
 407:Source\azure_iot_sdk\iothub_client\src/message_queue.c **** 
 408:Source\azure_iot_sdk\iothub_client\src/message_queue.c ****                 break;
 342              		.loc 1 408 0
 343 0082 0BE0     		b	.L20
 344              	.LVL51:
 345              	.L18:
 409:Source\azure_iot_sdk\iothub_client\src/message_queue.c ****             }
 410:Source\azure_iot_sdk\iothub_client\src/message_queue.c ****             else
 411:Source\azure_iot_sdk\iothub_client\src/message_queue.c ****             {
 412:Source\azure_iot_sdk\iothub_client\src/message_queue.c ****                 mq_item->number_of_attempts = 0;
 346              		.loc 1 412 0
 347 0084 0023     		movs	r3, #0
 348 0086 6361     		str	r3, [r4, #20]
 413:Source\azure_iot_sdk\iothub_client\src/message_queue.c ****                 mq_item->processing_start_time = INDEFINITE_TIME;
 349              		.loc 1 413 0
 350 0088 013B     		subs	r3, r3, #1
 351 008a 2361     		str	r3, [r4, #16]
 352 008c 01E0     		b	.L15
 353              	.LVL52:
 354              	.L22:
 355              	.LBE4:
 392:Source\azure_iot_sdk\iothub_client\src/message_queue.c ****         }
 356              		.loc 1 392 0
 357 008e C427     		movs	r7, #196
 358              	.LVL53:
 359 0090 7F00     		lsls	r7, r7, #1
 360              	.LVL54:
 361              	.L15:
 387:Source\azure_iot_sdk\iothub_client\src/message_queue.c ****     {
 362              		.loc 1 387 0
 363 0092 2800     		movs	r0, r5
 364 0094 FFF7FEFF 		bl	singlylinkedlist_get_head_item
 365              	.LVL55:
 366 0098 041E     		subs	r4, r0, #0
 367              	.LVL56:
 368 009a B7D1     		bne	.L21
 369              	.LVL57:
 370              	.L20:
 414:Source\azure_iot_sdk\iothub_client\src/message_queue.c ****             }
 415:Source\azure_iot_sdk\iothub_client\src/message_queue.c ****         }
 416:Source\azure_iot_sdk\iothub_client\src/message_queue.c ****     }
 417:Source\azure_iot_sdk\iothub_client\src/message_queue.c **** 
 418:Source\azure_iot_sdk\iothub_client\src/message_queue.c ****     return result;
 419:Source\azure_iot_sdk\iothub_client\src/message_queue.c **** }
 371              		.loc 1 419 0
 372 009c 3800     		movs	r0, r7
 373 009e 03B0     		add	sp, sp, #12
ARM GAS  C:\Users\Phuong\AppData\Local\Temp\ccaRXo0w.s 			page 15


 374              		@ sp needed
 375              	.LVL58:
 376              	.LVL59:
 377 00a0 F0BD     		pop	{r4, r5, r6, r7, pc}
 378              	.L24:
 379 00a2 C046     		.align	2
 380              	.L23:
 381 00a4 60000000 		.word	.LC7
 382 00a8 00000000 		.word	.LANCHOR0
 383 00ac 00000000 		.word	.LC1
 384 00b0 84000000 		.word	.LC9
 385              		.cfi_endproc
 386              	.LFE12:
 387              		.size	move_messages_between_lists, .-move_messages_between_lists
 388              		.section	.text.retry_sending_message,"ax",%progbits
 389              		.align	2
 390              		.code	16
 391              		.thumb_func
 392              		.type	retry_sending_message, %function
 393              	retry_sending_message:
 394              	.LFB4:
  79:Source\azure_iot_sdk\iothub_client\src/message_queue.c ****     int result;
 395              		.loc 1 79 0
 396              		.cfi_startproc
 397              		@ args = 0, pretend = 0, frame = 0
 398              		@ frame_needed = 0, uses_anonymous_args = 0
 399              	.LVL60:
 400 0000 70B5     		push	{r4, r5, r6, lr}
 401              		.cfi_def_cfa_offset 16
 402              		.cfi_offset 4, -16
 403              		.cfi_offset 5, -12
 404              		.cfi_offset 6, -8
 405              		.cfi_offset 14, -4
 406 0002 82B0     		sub	sp, sp, #8
 407              		.cfi_def_cfa_offset 24
 408 0004 0500     		movs	r5, r0
 409 0006 0C00     		movs	r4, r1
  83:Source\azure_iot_sdk\iothub_client\src/message_queue.c **** 
 410              		.loc 1 83 0
 411 0008 0800     		movs	r0, r1
 412              	.LVL61:
 413 000a FFF7FEFF 		bl	singlylinkedlist_item_get_value
 414              	.LVL62:
 415 000e 0600     		movs	r6, r0
 416              	.LVL63:
  85:Source\azure_iot_sdk\iothub_client\src/message_queue.c ****     {
 417              		.loc 1 85 0
 418 0010 2100     		movs	r1, r4
 419 0012 A869     		ldr	r0, [r5, #24]
 420              	.LVL64:
 421 0014 FFF7FEFF 		bl	singlylinkedlist_remove
 422              	.LVL65:
 423 0018 0028     		cmp	r0, #0
 424 001a 0FD0     		beq	.L26
 425              	.LBB6:
  87:Source\azure_iot_sdk\iothub_client\src/message_queue.c ****         result = __FAILURE__;
 426              		.loc 1 87 0 discriminator 3
ARM GAS  C:\Users\Phuong\AppData\Local\Temp\ccaRXo0w.s 			page 16


 427 001c FFF7FEFF 		bl	xlogging_get_log_function
 428              	.LVL66:
 429 0020 041E     		subs	r4, r0, #0
 430              	.LVL67:
 431 0022 21D0     		beq	.L28
  87:Source\azure_iot_sdk\iothub_client\src/message_queue.c ****         result = __FAILURE__;
 432              		.loc 1 87 0 is_stmt 0 discriminator 4
 433 0024 144B     		ldr	r3, .L31
 434 0026 0193     		str	r3, [sp, #4]
 435 0028 0123     		movs	r3, #1
 436 002a 0093     		str	r3, [sp]
 437 002c 5633     		adds	r3, r3, #86
 438 002e 134A     		ldr	r2, .L31+4
 439 0030 4032     		adds	r2, r2, #64
 440 0032 1349     		ldr	r1, .L31+8
 441 0034 0020     		movs	r0, #0
 442              	.LVL68:
 443 0036 A047     		blx	r4
 444              	.LVL69:
 445              	.LBE6:
  88:Source\azure_iot_sdk\iothub_client\src/message_queue.c ****     }
 446              		.loc 1 88 0 is_stmt 1 discriminator 4
 447 0038 5820     		movs	r0, #88
 448 003a 1AE0     		b	.L27
 449              	.LVL70:
 450              	.L26:
  90:Source\azure_iot_sdk\iothub_client\src/message_queue.c ****     {
 451              		.loc 1 90 0
 452 003c 6869     		ldr	r0, [r5, #20]
 453 003e 3100     		movs	r1, r6
 454 0040 FFF7FEFF 		bl	singlylinkedlist_add
 455              	.LVL71:
 456 0044 0028     		cmp	r0, #0
 457 0046 11D1     		bne	.L29
 458              	.LBB7:
  92:Source\azure_iot_sdk\iothub_client\src/message_queue.c ****         result = __FAILURE__;
 459              		.loc 1 92 0 discriminator 3
 460 0048 FFF7FEFF 		bl	xlogging_get_log_function
 461              	.LVL72:
 462 004c 041E     		subs	r4, r0, #0
 463              	.LVL73:
 464 004e 0FD0     		beq	.L30
  92:Source\azure_iot_sdk\iothub_client\src/message_queue.c ****         result = __FAILURE__;
 465              		.loc 1 92 0 is_stmt 0 discriminator 4
 466 0050 0C4B     		ldr	r3, .L31+12
 467 0052 0193     		str	r3, [sp, #4]
 468 0054 0123     		movs	r3, #1
 469 0056 0093     		str	r3, [sp]
 470 0058 5B33     		adds	r3, r3, #91
 471 005a 084A     		ldr	r2, .L31+4
 472 005c 4032     		adds	r2, r2, #64
 473 005e 0849     		ldr	r1, .L31+8
 474 0060 0020     		movs	r0, #0
 475              	.LVL74:
 476 0062 A047     		blx	r4
 477              	.LVL75:
 478              	.LBE7:
ARM GAS  C:\Users\Phuong\AppData\Local\Temp\ccaRXo0w.s 			page 17


  93:Source\azure_iot_sdk\iothub_client\src/message_queue.c ****     }
 479              		.loc 1 93 0 is_stmt 1 discriminator 4
 480 0064 5D20     		movs	r0, #93
 481 0066 04E0     		b	.L27
 482              	.LVL76:
 483              	.L28:
  88:Source\azure_iot_sdk\iothub_client\src/message_queue.c ****     }
 484              		.loc 1 88 0
 485 0068 5820     		movs	r0, #88
 486              	.LVL77:
 487 006a 02E0     		b	.L27
 488              	.LVL78:
 489              	.L29:
  97:Source\azure_iot_sdk\iothub_client\src/message_queue.c ****     }
 490              		.loc 1 97 0
 491 006c 0020     		movs	r0, #0
 492 006e 00E0     		b	.L27
 493              	.LVL79:
 494              	.L30:
  93:Source\azure_iot_sdk\iothub_client\src/message_queue.c ****     }
 495              		.loc 1 93 0
 496 0070 5D20     		movs	r0, #93
 497              	.LVL80:
 498              	.L27:
 101:Source\azure_iot_sdk\iothub_client\src/message_queue.c **** 
 499              		.loc 1 101 0
 500 0072 02B0     		add	sp, sp, #8
 501              		@ sp needed
 502              	.LVL81:
 503              	.LVL82:
 504 0074 70BD     		pop	{r4, r5, r6, pc}
 505              	.L32:
 506 0076 C046     		.align	2
 507              	.L31:
 508 0078 A4000000 		.word	.LC13
 509 007c 00000000 		.word	.LANCHOR0
 510 0080 00000000 		.word	.LC1
 511 0084 D4000000 		.word	.LC15
 512              		.cfi_endproc
 513              	.LFE4:
 514              		.size	retry_sending_message, .-retry_sending_message
 515              		.section	.text.process_pending_messages,"ax",%progbits
 516              		.align	2
 517              		.code	16
 518              		.thumb_func
 519              		.type	process_pending_messages, %function
 520              	process_pending_messages:
 521              	.LFB8:
 240:Source\azure_iot_sdk\iothub_client\src/message_queue.c ****     LIST_ITEM_HANDLE list_item;
 522              		.loc 1 240 0
 523              		.cfi_startproc
 524              		@ args = 0, pretend = 0, frame = 0
 525              		@ frame_needed = 0, uses_anonymous_args = 0
 526              	.LVL83:
 527 0000 70B5     		push	{r4, r5, r6, lr}
 528              		.cfi_def_cfa_offset 16
 529              		.cfi_offset 4, -16
ARM GAS  C:\Users\Phuong\AppData\Local\Temp\ccaRXo0w.s 			page 18


 530              		.cfi_offset 5, -12
 531              		.cfi_offset 6, -8
 532              		.cfi_offset 14, -4
 533 0002 84B0     		sub	sp, sp, #16
 534              		.cfi_def_cfa_offset 32
 535 0004 0600     		movs	r6, r0
 243:Source\azure_iot_sdk\iothub_client\src/message_queue.c ****     {
 536              		.loc 1 243 0
 537 0006 82E0     		b	.L34
 538              	.LVL84:
 539              	.L46:
 540              	.LBB8:
 245:Source\azure_iot_sdk\iothub_client\src/message_queue.c **** 
 541              		.loc 1 245 0
 542 0008 2800     		movs	r0, r5
 543              	.LVL85:
 544 000a FFF7FEFF 		bl	singlylinkedlist_item_get_value
 545              	.LVL86:
 546 000e 041E     		subs	r4, r0, #0
 547              	.LVL87:
 247:Source\azure_iot_sdk\iothub_client\src/message_queue.c ****         {
 548              		.loc 1 247 0
 549 0010 0FD1     		bne	.L35
 550              	.LBB9:
 249:Source\azure_iot_sdk\iothub_client\src/message_queue.c ****             break;
 551              		.loc 1 249 0 discriminator 3
 552 0012 FFF7FEFF 		bl	xlogging_get_log_function
 553              	.LVL88:
 554 0016 041E     		subs	r4, r0, #0
 555              	.LVL89:
 556 0018 00D1     		bne	.LCB569
 557 001a 7EE0     		b	.L33	@long jump
 558              	.LCB569:
 249:Source\azure_iot_sdk\iothub_client\src/message_queue.c ****             break;
 559              		.loc 1 249 0 is_stmt 0 discriminator 4
 560 001c 404B     		ldr	r3, .L47
 561 001e 0193     		str	r3, [sp, #4]
 562 0020 0123     		movs	r3, #1
 563 0022 0093     		str	r3, [sp]
 564 0024 F833     		adds	r3, r3, #248
 565 0026 3F4A     		ldr	r2, .L47+4
 566 0028 5832     		adds	r2, r2, #88
 567 002a 3F49     		ldr	r1, .L47+8
 568 002c 0020     		movs	r0, #0
 569              	.LVL90:
 570 002e A047     		blx	r4
 571              	.LVL91:
 572 0030 73E0     		b	.L33
 573              	.LVL92:
 574              	.L35:
 575              	.LBE9:
 252:Source\azure_iot_sdk\iothub_client\src/message_queue.c ****         {
 576              		.loc 1 252 0 is_stmt 1
 577 0032 2900     		movs	r1, r5
 578 0034 7069     		ldr	r0, [r6, #20]
 579              	.LVL93:
 580 0036 FFF7FEFF 		bl	singlylinkedlist_remove
ARM GAS  C:\Users\Phuong\AppData\Local\Temp\ccaRXo0w.s 			page 19


 581              	.LVL94:
 582 003a 0028     		cmp	r0, #0
 583 003c 18D0     		beq	.L37
 584              	.LBB10:
 254:Source\azure_iot_sdk\iothub_client\src/message_queue.c **** 
 585              		.loc 1 254 0 discriminator 3
 586 003e FFF7FEFF 		bl	xlogging_get_log_function
 587              	.LVL95:
 588 0042 051E     		subs	r5, r0, #0
 589              	.LVL96:
 590 0044 0BD0     		beq	.L38
 254:Source\azure_iot_sdk\iothub_client\src/message_queue.c **** 
 591              		.loc 1 254 0 is_stmt 0 discriminator 4
 592 0046 2368     		ldr	r3, [r4]
 593 0048 0293     		str	r3, [sp, #8]
 594 004a 384B     		ldr	r3, .L47+12
 595 004c 0193     		str	r3, [sp, #4]
 596 004e 0123     		movs	r3, #1
 597 0050 0093     		str	r3, [sp]
 598 0052 FD33     		adds	r3, r3, #253
 599 0054 334A     		ldr	r2, .L47+4
 600 0056 5832     		adds	r2, r2, #88
 601 0058 3349     		ldr	r1, .L47+8
 602 005a 0020     		movs	r0, #0
 603              	.LVL97:
 604 005c A847     		blx	r5
 605              	.LVL98:
 606              	.L38:
 607              	.LBE10:
 257:Source\azure_iot_sdk\iothub_client\src/message_queue.c ****             {
 608              		.loc 1 257 0 is_stmt 1
 609 005e 6568     		ldr	r5, [r4, #4]
 610              	.LVL99:
 611 0060 002D     		cmp	r5, #0
 612 0062 5AD0     		beq	.L33
 259:Source\azure_iot_sdk\iothub_client\src/message_queue.c ****             }
 613              		.loc 1 259 0
 614 0064 A368     		ldr	r3, [r4, #8]
 615 0066 2068     		ldr	r0, [r4]
 616 0068 0022     		movs	r2, #0
 617 006a 0121     		movs	r1, #1
 618 006c A847     		blx	r5
 619              	.LVL100:
 620 006e 54E0     		b	.L33
 621              	.LVL101:
 622              	.L37:
 267:Source\azure_iot_sdk\iothub_client\src/message_queue.c ****         {
 623              		.loc 1 267 0
 624 0070 0020     		movs	r0, #0
 625 0072 FFF7FEFF 		bl	get_time
 626              	.LVL102:
 627 0076 2061     		str	r0, [r4, #16]
 628 0078 431C     		adds	r3, r0, #1
 629 007a 1CD1     		bne	.L39
 630              	.LBB11:
 270:Source\azure_iot_sdk\iothub_client\src/message_queue.c **** 
 631              		.loc 1 270 0 discriminator 3
ARM GAS  C:\Users\Phuong\AppData\Local\Temp\ccaRXo0w.s 			page 20


 632 007c FFF7FEFF 		bl	xlogging_get_log_function
 633              	.LVL103:
 634 0080 051E     		subs	r5, r0, #0
 635              	.LVL104:
 636 0082 0CD0     		beq	.L40
 270:Source\azure_iot_sdk\iothub_client\src/message_queue.c **** 
 637              		.loc 1 270 0 is_stmt 0 discriminator 4
 638 0084 2368     		ldr	r3, [r4]
 639 0086 0293     		str	r3, [sp, #8]
 640 0088 294B     		ldr	r3, .L47+16
 641 008a 0193     		str	r3, [sp, #4]
 642 008c 0123     		movs	r3, #1
 643 008e 0093     		str	r3, [sp]
 644 0090 0E33     		adds	r3, r3, #14
 645 0092 FF33     		adds	r3, r3, #255
 646 0094 234A     		ldr	r2, .L47+4
 647 0096 5832     		adds	r2, r2, #88
 648 0098 2349     		ldr	r1, .L47+8
 649 009a 0020     		movs	r0, #0
 650              	.LVL105:
 651 009c A847     		blx	r5
 652              	.LVL106:
 653              	.L40:
 654              	.LBE11:
 273:Source\azure_iot_sdk\iothub_client\src/message_queue.c ****             {
 655              		.loc 1 273 0 is_stmt 1
 656 009e 6568     		ldr	r5, [r4, #4]
 657              	.LVL107:
 658 00a0 002D     		cmp	r5, #0
 659 00a2 04D0     		beq	.L41
 275:Source\azure_iot_sdk\iothub_client\src/message_queue.c ****             }
 660              		.loc 1 275 0
 661 00a4 A368     		ldr	r3, [r4, #8]
 662 00a6 0022     		movs	r2, #0
 663 00a8 0121     		movs	r1, #1
 664 00aa 2068     		ldr	r0, [r4]
 665 00ac A847     		blx	r5
 666              	.LVL108:
 667              	.L41:
 278:Source\azure_iot_sdk\iothub_client\src/message_queue.c ****         }
 668              		.loc 1 278 0
 669 00ae 2000     		movs	r0, r4
 670 00b0 FFF7FEFF 		bl	free
 671              	.LVL109:
 672 00b4 2BE0     		b	.L34
 673              	.LVL110:
 674              	.L39:
 281:Source\azure_iot_sdk\iothub_client\src/message_queue.c ****         {
 675              		.loc 1 281 0
 676 00b6 2100     		movs	r1, r4
 677 00b8 B069     		ldr	r0, [r6, #24]
 678 00ba FFF7FEFF 		bl	singlylinkedlist_add
 679              	.LVL111:
 680 00be 0028     		cmp	r0, #0
 681 00c0 1CD1     		bne	.L43
 682              	.LBB12:
 283:Source\azure_iot_sdk\iothub_client\src/message_queue.c **** 
ARM GAS  C:\Users\Phuong\AppData\Local\Temp\ccaRXo0w.s 			page 21


 683              		.loc 1 283 0 discriminator 3
 684 00c2 FFF7FEFF 		bl	xlogging_get_log_function
 685              	.LVL112:
 686 00c6 051E     		subs	r5, r0, #0
 687              	.LVL113:
 688 00c8 0CD0     		beq	.L44
 283:Source\azure_iot_sdk\iothub_client\src/message_queue.c **** 
 689              		.loc 1 283 0 is_stmt 0 discriminator 4
 690 00ca 2368     		ldr	r3, [r4]
 691 00cc 0293     		str	r3, [sp, #8]
 692 00ce 194B     		ldr	r3, .L47+20
 693 00d0 0193     		str	r3, [sp, #4]
 694 00d2 0123     		movs	r3, #1
 695 00d4 0093     		str	r3, [sp]
 696 00d6 1C23     		movs	r3, #28
 697 00d8 FF33     		adds	r3, r3, #255
 698 00da 124A     		ldr	r2, .L47+4
 699 00dc 5832     		adds	r2, r2, #88
 700 00de 1249     		ldr	r1, .L47+8
 701 00e0 0020     		movs	r0, #0
 702              	.LVL114:
 703 00e2 A847     		blx	r5
 704              	.LVL115:
 705              	.L44:
 706              	.LBE12:
 286:Source\azure_iot_sdk\iothub_client\src/message_queue.c ****             {
 707              		.loc 1 286 0 is_stmt 1
 708 00e4 6568     		ldr	r5, [r4, #4]
 709              	.LVL116:
 710 00e6 002D     		cmp	r5, #0
 711 00e8 04D0     		beq	.L45
 288:Source\azure_iot_sdk\iothub_client\src/message_queue.c ****             }
 712              		.loc 1 288 0
 713 00ea A368     		ldr	r3, [r4, #8]
 714 00ec 0022     		movs	r2, #0
 715 00ee 0121     		movs	r1, #1
 716 00f0 2068     		ldr	r0, [r4]
 717 00f2 A847     		blx	r5
 718              	.LVL117:
 719              	.L45:
 291:Source\azure_iot_sdk\iothub_client\src/message_queue.c ****         }
 720              		.loc 1 291 0
 721 00f4 2000     		movs	r0, r4
 722 00f6 FFF7FEFF 		bl	free
 723              	.LVL118:
 724 00fa 08E0     		b	.L34
 725              	.LVL119:
 726              	.L43:
 295:Source\azure_iot_sdk\iothub_client\src/message_queue.c **** 
 727              		.loc 1 295 0
 728 00fc 6369     		ldr	r3, [r4, #20]
 729 00fe 0133     		adds	r3, r3, #1
 730 0100 6361     		str	r3, [r4, #20]
 298:Source\azure_iot_sdk\iothub_client\src/message_queue.c ****         }
 731              		.loc 1 298 0
 732 0102 A368     		ldr	r3, [r4, #8]
 733 0104 2168     		ldr	r1, [r4]
ARM GAS  C:\Users\Phuong\AppData\Local\Temp\ccaRXo0w.s 			page 22


 734 0106 0C4A     		ldr	r2, .L47+24
 735 0108 3000     		movs	r0, r6
 736 010a F468     		ldr	r4, [r6, #12]
 737              	.LVL120:
 738 010c A047     		blx	r4
 739              	.LVL121:
 740              	.L34:
 741              	.LBE8:
 243:Source\azure_iot_sdk\iothub_client\src/message_queue.c ****     {
 742              		.loc 1 243 0
 743 010e 7069     		ldr	r0, [r6, #20]
 744 0110 FFF7FEFF 		bl	singlylinkedlist_get_head_item
 745              	.LVL122:
 746 0114 051E     		subs	r5, r0, #0
 747              	.LVL123:
 748 0116 00D0     		beq	.LCB785
 749 0118 76E7     		b	.L46	@long jump
 750              	.LCB785:
 751              	.LVL124:
 752              	.L33:
 301:Source\azure_iot_sdk\iothub_client\src/message_queue.c **** 
 753              		.loc 1 301 0
 754 011a 04B0     		add	sp, sp, #16
 755              		@ sp needed
 756              	.LVL125:
 757 011c 70BD     		pop	{r4, r5, r6, pc}
 758              	.L48:
 759 011e C046     		.align	2
 760              	.L47:
 761 0120 00010000 		.word	.LC19
 762 0124 00000000 		.word	.LANCHOR0
 763 0128 00000000 		.word	.LC1
 764 012c 34010000 		.word	.LC21
 765 0130 64010000 		.word	.LC23
 766 0134 98010000 		.word	.LC25
 767 0138 00000000 		.word	on_process_message_completed_callback
 768              		.cfi_endproc
 769              	.LFE8:
 770              		.size	process_pending_messages, .-process_pending_messages
 771              		.global	__aeabi_ui2d
 772              		.global	__aeabi_dcmpge
 773              		.section	.text.process_timeouts,"ax",%progbits
 774              		.align	2
 775              		.code	16
 776              		.thumb_func
 777              		.type	process_timeouts, %function
 778              	process_timeouts:
 779              	.LFB7:
 151:Source\azure_iot_sdk\iothub_client\src/message_queue.c ****     time_t current_time;
 780              		.loc 1 151 0
 781              		.cfi_startproc
 782              		@ args = 0, pretend = 0, frame = 16
 783              		@ frame_needed = 0, uses_anonymous_args = 0
 784              	.LVL126:
 785 0000 F0B5     		push	{r4, r5, r6, r7, lr}
 786              		.cfi_def_cfa_offset 20
 787              		.cfi_offset 4, -20
ARM GAS  C:\Users\Phuong\AppData\Local\Temp\ccaRXo0w.s 			page 23


 788              		.cfi_offset 5, -16
 789              		.cfi_offset 6, -12
 790              		.cfi_offset 7, -8
 791              		.cfi_offset 14, -4
 792 0002 87B0     		sub	sp, sp, #28
 793              		.cfi_def_cfa_offset 48
 794 0004 0700     		movs	r7, r0
 154:Source\azure_iot_sdk\iothub_client\src/message_queue.c ****     {
 795              		.loc 1 154 0
 796 0006 0020     		movs	r0, #0
 797              	.LVL127:
 798 0008 FFF7FEFF 		bl	get_time
 799              	.LVL128:
 800 000c 0500     		movs	r5, r0
 801              	.LVL129:
 802 000e 431C     		adds	r3, r0, #1
 803 0010 0FD1     		bne	.L50
 804              	.LBB13:
 156:Source\azure_iot_sdk\iothub_client\src/message_queue.c ****     }
 805              		.loc 1 156 0 discriminator 3
 806 0012 FFF7FEFF 		bl	xlogging_get_log_function
 807              	.LVL130:
 808 0016 041E     		subs	r4, r0, #0
 809              	.LVL131:
 810 0018 00D1     		bne	.LCB841
 811 001a B8E0     		b	.L49	@long jump
 812              	.LCB841:
 156:Source\azure_iot_sdk\iothub_client\src/message_queue.c ****     }
 813              		.loc 1 156 0 is_stmt 0 discriminator 4
 814 001c 5D4B     		ldr	r3, .L72
 815 001e 0193     		str	r3, [sp, #4]
 816 0020 0123     		movs	r3, #1
 817 0022 0093     		str	r3, [sp]
 818 0024 9B33     		adds	r3, r3, #155
 819 0026 5C4A     		ldr	r2, .L72+4
 820 0028 7432     		adds	r2, r2, #116
 821 002a 5C49     		ldr	r1, .L72+8
 822 002c 0020     		movs	r0, #0
 823              	.LVL132:
 824 002e A047     		blx	r4
 825              	.LVL133:
 826 0030 ADE0     		b	.L49
 827              	.LVL134:
 828              	.L50:
 829              	.LBE13:
 161:Source\azure_iot_sdk\iothub_client\src/message_queue.c ****         {
 830              		.loc 1 161 0 is_stmt 1
 831 0032 3B68     		ldr	r3, [r7]
 832 0034 002B     		cmp	r3, #0
 833 0036 6FD0     		beq	.L52
 834              	.LBB14:
 163:Source\azure_iot_sdk\iothub_client\src/message_queue.c **** 
 835              		.loc 1 163 0
 836 0038 7869     		ldr	r0, [r7, #20]
 837              	.LVL135:
 838 003a FFF7FEFF 		bl	singlylinkedlist_get_head_item
 839              	.LVL136:
ARM GAS  C:\Users\Phuong\AppData\Local\Temp\ccaRXo0w.s 			page 24


 840 003e 0400     		movs	r4, r0
 841              	.LVL137:
 165:Source\azure_iot_sdk\iothub_client\src/message_queue.c ****             {
 842              		.loc 1 165 0
 843 0040 30E0     		b	.L53
 844              	.LVL138:
 845              	.L58:
 846              	.LBB15:
 168:Source\azure_iot_sdk\iothub_client\src/message_queue.c **** 
 847              		.loc 1 168 0
 848 0042 2000     		movs	r0, r4
 849 0044 FFF7FEFF 		bl	singlylinkedlist_item_get_value
 850              	.LVL139:
 851 0048 0600     		movs	r6, r0
 852              	.LVL140:
 170:Source\azure_iot_sdk\iothub_client\src/message_queue.c **** 
 853              		.loc 1 170 0
 854 004a 2000     		movs	r0, r4
 855              	.LVL141:
 856 004c FFF7FEFF 		bl	singlylinkedlist_get_next_item
 857              	.LVL142:
 858 0050 0390     		str	r0, [sp, #12]
 859              	.LVL143:
 172:Source\azure_iot_sdk\iothub_client\src/message_queue.c ****                 {
 860              		.loc 1 172 0
 861 0052 002E     		cmp	r6, #0
 862 0054 0ED1     		bne	.L54
 863              	.LBB16:
 174:Source\azure_iot_sdk\iothub_client\src/message_queue.c ****                 }
 864              		.loc 1 174 0 discriminator 3
 865 0056 FFF7FEFF 		bl	xlogging_get_log_function
 866              	.LVL144:
 867 005a 041E     		subs	r4, r0, #0
 868              	.LVL145:
 869 005c 21D0     		beq	.L55
 174:Source\azure_iot_sdk\iothub_client\src/message_queue.c ****                 }
 870              		.loc 1 174 0 is_stmt 0 discriminator 4
 871 005e 504B     		ldr	r3, .L72+12
 872 0060 0193     		str	r3, [sp, #4]
 873 0062 0123     		movs	r3, #1
 874 0064 0093     		str	r3, [sp]
 875 0066 AD33     		adds	r3, r3, #173
 876 0068 4B4A     		ldr	r2, .L72+4
 877 006a 7432     		adds	r2, r2, #116
 878 006c 4B49     		ldr	r1, .L72+8
 879 006e 0020     		movs	r0, #0
 880              	.LVL146:
 881 0070 A047     		blx	r4
 882              	.LVL147:
 883 0072 16E0     		b	.L55
 884              	.LVL148:
 885              	.L54:
 886              	.LBE16:
 176:Source\azure_iot_sdk\iothub_client\src/message_queue.c ****                 {
 887              		.loc 1 176 0 is_stmt 1
 888 0074 F168     		ldr	r1, [r6, #12]
 889 0076 2800     		movs	r0, r5
ARM GAS  C:\Users\Phuong\AppData\Local\Temp\ccaRXo0w.s 			page 25


 890              	.LVL149:
 891 0078 FFF7FEFF 		bl	get_difftime
 892              	.LVL150:
 893 007c 0490     		str	r0, [sp, #16]
 894 007e 0591     		str	r1, [sp, #20]
 895 0080 3868     		ldr	r0, [r7]
 896 0082 FFF7FEFF 		bl	__aeabi_ui2d
 897              	.LVL151:
 898 0086 0200     		movs	r2, r0
 899 0088 0B00     		movs	r3, r1
 900 008a 0498     		ldr	r0, [sp, #16]
 901 008c 0599     		ldr	r1, [sp, #20]
 902 008e FFF7FEFF 		bl	__aeabi_dcmpge
 903              	.LVL152:
 904 0092 0028     		cmp	r0, #0
 905 0094 08D0     		beq	.L56
 179:Source\azure_iot_sdk\iothub_client\src/message_queue.c ****                 }
 906              		.loc 1 179 0
 907 0096 0023     		movs	r3, #0
 908 0098 0322     		movs	r2, #3
 909 009a 2100     		movs	r1, r4
 910 009c 7869     		ldr	r0, [r7, #20]
 911 009e FFF7FEFF 		bl	dequeue_message_and_fire_callback
 912              	.LVL153:
 913              	.L55:
 914              	.LBE15:
 915              	.LBE14:
 151:Source\azure_iot_sdk\iothub_client\src/message_queue.c ****     time_t current_time;
 916              		.loc 1 151 0
 917 00a2 039C     		ldr	r4, [sp, #12]
 918              	.LVL154:
 919              	.L53:
 920              	.LBB19:
 165:Source\azure_iot_sdk\iothub_client\src/message_queue.c ****             {
 921              		.loc 1 165 0
 922 00a4 002C     		cmp	r4, #0
 923 00a6 CCD1     		bne	.L58
 924              	.LVL155:
 925              	.L56:
 188:Source\azure_iot_sdk\iothub_client\src/message_queue.c **** 
 926              		.loc 1 188 0
 927 00a8 B869     		ldr	r0, [r7, #24]
 928 00aa FFF7FEFF 		bl	singlylinkedlist_get_head_item
 929              	.LVL156:
 930 00ae 0400     		movs	r4, r0
 931              	.LVL157:
 190:Source\azure_iot_sdk\iothub_client\src/message_queue.c ****             {
 932              		.loc 1 190 0
 933 00b0 30E0     		b	.L59
 934              	.LVL158:
 935              	.L63:
 936              	.LBB17:
 193:Source\azure_iot_sdk\iothub_client\src/message_queue.c **** 
 937              		.loc 1 193 0
 938 00b2 2000     		movs	r0, r4
 939 00b4 FFF7FEFF 		bl	singlylinkedlist_item_get_value
 940              	.LVL159:
ARM GAS  C:\Users\Phuong\AppData\Local\Temp\ccaRXo0w.s 			page 26


 941 00b8 0600     		movs	r6, r0
 942              	.LVL160:
 195:Source\azure_iot_sdk\iothub_client\src/message_queue.c **** 
 943              		.loc 1 195 0
 944 00ba 2000     		movs	r0, r4
 945              	.LVL161:
 946 00bc FFF7FEFF 		bl	singlylinkedlist_get_next_item
 947              	.LVL162:
 948 00c0 0390     		str	r0, [sp, #12]
 949              	.LVL163:
 197:Source\azure_iot_sdk\iothub_client\src/message_queue.c ****                 {
 950              		.loc 1 197 0
 951 00c2 002E     		cmp	r6, #0
 952 00c4 0ED1     		bne	.L60
 953              	.LBB18:
 199:Source\azure_iot_sdk\iothub_client\src/message_queue.c ****                 }
 954              		.loc 1 199 0 discriminator 3
 955 00c6 FFF7FEFF 		bl	xlogging_get_log_function
 956              	.LVL164:
 957 00ca 041E     		subs	r4, r0, #0
 958              	.LVL165:
 959 00cc 21D0     		beq	.L61
 199:Source\azure_iot_sdk\iothub_client\src/message_queue.c ****                 }
 960              		.loc 1 199 0 is_stmt 0 discriminator 4
 961 00ce 344B     		ldr	r3, .L72+12
 962 00d0 0193     		str	r3, [sp, #4]
 963 00d2 0123     		movs	r3, #1
 964 00d4 0093     		str	r3, [sp]
 965 00d6 C633     		adds	r3, r3, #198
 966 00d8 2F4A     		ldr	r2, .L72+4
 967 00da 7432     		adds	r2, r2, #116
 968 00dc 2F49     		ldr	r1, .L72+8
 969 00de 0020     		movs	r0, #0
 970              	.LVL166:
 971 00e0 A047     		blx	r4
 972              	.LVL167:
 973 00e2 16E0     		b	.L61
 974              	.LVL168:
 975              	.L60:
 976              	.LBE18:
 201:Source\azure_iot_sdk\iothub_client\src/message_queue.c ****                 {
 977              		.loc 1 201 0 is_stmt 1
 978 00e4 F168     		ldr	r1, [r6, #12]
 979 00e6 2800     		movs	r0, r5
 980              	.LVL169:
 981 00e8 FFF7FEFF 		bl	get_difftime
 982              	.LVL170:
 983 00ec 0490     		str	r0, [sp, #16]
 984 00ee 0591     		str	r1, [sp, #20]
 985 00f0 3868     		ldr	r0, [r7]
 986 00f2 FFF7FEFF 		bl	__aeabi_ui2d
 987              	.LVL171:
 988 00f6 0200     		movs	r2, r0
 989 00f8 0B00     		movs	r3, r1
 990 00fa 0498     		ldr	r0, [sp, #16]
 991 00fc 0599     		ldr	r1, [sp, #20]
 992 00fe FFF7FEFF 		bl	__aeabi_dcmpge
ARM GAS  C:\Users\Phuong\AppData\Local\Temp\ccaRXo0w.s 			page 27


 993              	.LVL172:
 994 0102 0028     		cmp	r0, #0
 995 0104 05D0     		beq	.L61
 204:Source\azure_iot_sdk\iothub_client\src/message_queue.c ****                 }
 996              		.loc 1 204 0
 997 0106 0023     		movs	r3, #0
 998 0108 0322     		movs	r2, #3
 999 010a 2100     		movs	r1, r4
 1000 010c B869     		ldr	r0, [r7, #24]
 1001 010e FFF7FEFF 		bl	dequeue_message_and_fire_callback
 1002              	.LVL173:
 1003              	.L61:
 1004              	.LBE17:
 1005              	.LBE19:
 151:Source\azure_iot_sdk\iothub_client\src/message_queue.c ****     time_t current_time;
 1006              		.loc 1 151 0
 1007 0112 039C     		ldr	r4, [sp, #12]
 1008              	.LVL174:
 1009              	.L59:
 1010              	.LBB20:
 190:Source\azure_iot_sdk\iothub_client\src/message_queue.c ****             {
 1011              		.loc 1 190 0
 1012 0114 002C     		cmp	r4, #0
 1013 0116 CCD1     		bne	.L63
 1014              	.LVL175:
 1015              	.L52:
 1016              	.LBE20:
 210:Source\azure_iot_sdk\iothub_client\src/message_queue.c ****         {
 1017              		.loc 1 210 0
 1018 0118 7B68     		ldr	r3, [r7, #4]
 1019 011a 002B     		cmp	r3, #0
 1020 011c 37D0     		beq	.L49
 1021              	.LBB21:
 212:Source\azure_iot_sdk\iothub_client\src/message_queue.c **** 
 1022              		.loc 1 212 0
 1023 011e B869     		ldr	r0, [r7, #24]
 1024 0120 FFF7FEFF 		bl	singlylinkedlist_get_head_item
 1025              	.LVL176:
 1026 0124 0400     		movs	r4, r0
 1027              	.LVL177:
 214:Source\azure_iot_sdk\iothub_client\src/message_queue.c ****             {
 1028              		.loc 1 214 0
 1029 0126 30E0     		b	.L64
 1030              	.LVL178:
 1031              	.L68:
 1032              	.LBB22:
 217:Source\azure_iot_sdk\iothub_client\src/message_queue.c **** 
 1033              		.loc 1 217 0
 1034 0128 2000     		movs	r0, r4
 1035 012a FFF7FEFF 		bl	singlylinkedlist_item_get_value
 1036              	.LVL179:
 1037 012e 0600     		movs	r6, r0
 1038              	.LVL180:
 219:Source\azure_iot_sdk\iothub_client\src/message_queue.c **** 
 1039              		.loc 1 219 0
 1040 0130 2000     		movs	r0, r4
 1041              	.LVL181:
ARM GAS  C:\Users\Phuong\AppData\Local\Temp\ccaRXo0w.s 			page 28


 1042 0132 FFF7FEFF 		bl	singlylinkedlist_get_next_item
 1043              	.LVL182:
 1044 0136 0390     		str	r0, [sp, #12]
 1045              	.LVL183:
 221:Source\azure_iot_sdk\iothub_client\src/message_queue.c ****                 {
 1046              		.loc 1 221 0
 1047 0138 002E     		cmp	r6, #0
 1048 013a 0ED1     		bne	.L65
 1049              	.LBB23:
 223:Source\azure_iot_sdk\iothub_client\src/message_queue.c ****                 }
 1050              		.loc 1 223 0 discriminator 3
 1051 013c FFF7FEFF 		bl	xlogging_get_log_function
 1052              	.LVL184:
 1053 0140 041E     		subs	r4, r0, #0
 1054              	.LVL185:
 1055 0142 21D0     		beq	.L66
 223:Source\azure_iot_sdk\iothub_client\src/message_queue.c ****                 }
 1056              		.loc 1 223 0 is_stmt 0 discriminator 4
 1057 0144 164B     		ldr	r3, .L72+12
 1058 0146 0193     		str	r3, [sp, #4]
 1059 0148 0123     		movs	r3, #1
 1060 014a 0093     		str	r3, [sp]
 1061 014c DE33     		adds	r3, r3, #222
 1062 014e 124A     		ldr	r2, .L72+4
 1063 0150 7432     		adds	r2, r2, #116
 1064 0152 1249     		ldr	r1, .L72+8
 1065 0154 0020     		movs	r0, #0
 1066              	.LVL186:
 1067 0156 A047     		blx	r4
 1068              	.LVL187:
 1069 0158 16E0     		b	.L66
 1070              	.LVL188:
 1071              	.L65:
 1072              	.LBE23:
 225:Source\azure_iot_sdk\iothub_client\src/message_queue.c ****                 {
 1073              		.loc 1 225 0 is_stmt 1
 1074 015a 3169     		ldr	r1, [r6, #16]
 1075 015c 2800     		movs	r0, r5
 1076              	.LVL189:
 1077 015e FFF7FEFF 		bl	get_difftime
 1078              	.LVL190:
 1079 0162 0490     		str	r0, [sp, #16]
 1080 0164 0591     		str	r1, [sp, #20]
 1081 0166 7868     		ldr	r0, [r7, #4]
 1082 0168 FFF7FEFF 		bl	__aeabi_ui2d
 1083              	.LVL191:
 1084 016c 0200     		movs	r2, r0
 1085 016e 0B00     		movs	r3, r1
 1086 0170 0498     		ldr	r0, [sp, #16]
 1087 0172 0599     		ldr	r1, [sp, #20]
 1088 0174 FFF7FEFF 		bl	__aeabi_dcmpge
 1089              	.LVL192:
 1090 0178 0028     		cmp	r0, #0
 1091 017a 08D0     		beq	.L49
 227:Source\azure_iot_sdk\iothub_client\src/message_queue.c ****                 }
 1092              		.loc 1 227 0
 1093 017c 0023     		movs	r3, #0
ARM GAS  C:\Users\Phuong\AppData\Local\Temp\ccaRXo0w.s 			page 29


 1094 017e 0322     		movs	r2, #3
 1095 0180 2100     		movs	r1, r4
 1096 0182 B869     		ldr	r0, [r7, #24]
 1097 0184 FFF7FEFF 		bl	dequeue_message_and_fire_callback
 1098              	.LVL193:
 1099              	.L66:
 1100              	.LBE22:
 1101              	.LBE21:
 151:Source\azure_iot_sdk\iothub_client\src/message_queue.c ****     time_t current_time;
 1102              		.loc 1 151 0
 1103 0188 039C     		ldr	r4, [sp, #12]
 1104              	.LVL194:
 1105              	.L64:
 1106              	.LBB24:
 214:Source\azure_iot_sdk\iothub_client\src/message_queue.c ****             {
 1107              		.loc 1 214 0
 1108 018a 002C     		cmp	r4, #0
 1109 018c CCD1     		bne	.L68
 1110              	.LVL195:
 1111              	.L49:
 1112              	.LBE24:
 237:Source\azure_iot_sdk\iothub_client\src/message_queue.c **** 
 1113              		.loc 1 237 0
 1114 018e 07B0     		add	sp, sp, #28
 1115              		@ sp needed
 1116              	.LVL196:
 1117              	.LVL197:
 1118 0190 F0BD     		pop	{r4, r5, r6, r7, pc}
 1119              	.L73:
 1120 0192 C046     		.align	2
 1121              	.L72:
 1122 0194 C8010000 		.word	.LC30
 1123 0198 00000000 		.word	.LANCHOR0
 1124 019c 00000000 		.word	.LC1
 1125 01a0 F8010000 		.word	.LC32
 1126              		.cfi_endproc
 1127              	.LFE7:
 1128              		.size	process_timeouts, .-process_timeouts
 1129              		.section	.text.on_process_message_completed_callback,"ax",%progbits
 1130              		.align	2
 1131              		.code	16
 1132              		.thumb_func
 1133              		.type	on_process_message_completed_callback, %function
 1134              	on_process_message_completed_callback:
 1135              	.LFB6:
 121:Source\azure_iot_sdk\iothub_client\src/message_queue.c ****     // Codes_SRS_MESSAGE_QUEUE_09_069: [If `message` or `message_queue` are NULL, on_message_proces
 1136              		.loc 1 121 0
 1137              		.cfi_startproc
 1138              		@ args = 0, pretend = 0, frame = 8
 1139              		@ frame_needed = 0, uses_anonymous_args = 0
 1140              	.LVL198:
 1141 0000 F0B5     		push	{r4, r5, r6, r7, lr}
 1142              		.cfi_def_cfa_offset 20
 1143              		.cfi_offset 4, -20
 1144              		.cfi_offset 5, -16
 1145              		.cfi_offset 6, -12
 1146              		.cfi_offset 7, -8
ARM GAS  C:\Users\Phuong\AppData\Local\Temp\ccaRXo0w.s 			page 30


 1147              		.cfi_offset 14, -4
 1148 0002 87B0     		sub	sp, sp, #28
 1149              		.cfi_def_cfa_offset 48
 1150 0004 0400     		movs	r4, r0
 1151 0006 0F00     		movs	r7, r1
 1152 0008 1600     		movs	r6, r2
 1153 000a 0593     		str	r3, [sp, #20]
 123:Source\azure_iot_sdk\iothub_client\src/message_queue.c ****     {
 1154              		.loc 1 123 0
 1155 000c 0029     		cmp	r1, #0
 1156 000e 01D0     		beq	.L75
 123:Source\azure_iot_sdk\iothub_client\src/message_queue.c ****     {
 1157              		.loc 1 123 0 is_stmt 0 discriminator 1
 1158 0010 0028     		cmp	r0, #0
 1159 0012 10D1     		bne	.L76
 1160              	.L75:
 1161              	.LBB25:
 125:Source\azure_iot_sdk\iothub_client\src/message_queue.c ****     }
 1162              		.loc 1 125 0 is_stmt 1 discriminator 3
 1163 0014 FFF7FEFF 		bl	xlogging_get_log_function
 1164              	.LVL199:
 1165 0018 051E     		subs	r5, r0, #0
 1166              	.LVL200:
 1167 001a 38D0     		beq	.L74
 125:Source\azure_iot_sdk\iothub_client\src/message_queue.c ****     }
 1168              		.loc 1 125 0 is_stmt 0 discriminator 4
 1169 001c 0394     		str	r4, [sp, #12]
 1170 001e 0297     		str	r7, [sp, #8]
 1171 0020 1C4B     		ldr	r3, .L80
 1172 0022 0193     		str	r3, [sp, #4]
 1173 0024 0123     		movs	r3, #1
 1174 0026 0093     		str	r3, [sp]
 1175 0028 7C33     		adds	r3, r3, #124
 1176 002a 1B4A     		ldr	r2, .L80+4
 1177 002c 0832     		adds	r2, r2, #8
 1178 002e 1B49     		ldr	r1, .L80+8
 1179 0030 0020     		movs	r0, #0
 1180              	.LVL201:
 1181 0032 A847     		blx	r5
 1182              	.LVL202:
 1183 0034 2BE0     		b	.L74
 1184              	.LVL203:
 1185              	.L76:
 1186              	.LBE25:
 1187              	.LBB26:
 131:Source\azure_iot_sdk\iothub_client\src/message_queue.c ****         {
 1188              		.loc 1 131 0 is_stmt 1
 1189 0036 0A00     		movs	r2, r1
 1190              	.LVL204:
 1191 0038 1949     		ldr	r1, .L80+12
 1192              	.LVL205:
 1193 003a 8069     		ldr	r0, [r0, #24]
 1194              	.LVL206:
 1195 003c FFF7FEFF 		bl	singlylinkedlist_find
 1196              	.LVL207:
 1197 0040 051E     		subs	r5, r0, #0
 1198              	.LVL208:
ARM GAS  C:\Users\Phuong\AppData\Local\Temp\ccaRXo0w.s 			page 31


 1199 0042 0FD1     		bne	.L78
 1200              	.LBB27:
 134:Source\azure_iot_sdk\iothub_client\src/message_queue.c ****         }
 1201              		.loc 1 134 0 discriminator 3
 1202 0044 FFF7FEFF 		bl	xlogging_get_log_function
 1203              	.LVL209:
 1204 0048 041E     		subs	r4, r0, #0
 1205              	.LVL210:
 1206 004a 20D0     		beq	.L74
 134:Source\azure_iot_sdk\iothub_client\src/message_queue.c ****         }
 1207              		.loc 1 134 0 is_stmt 0 discriminator 4
 1208 004c 0297     		str	r7, [sp, #8]
 1209 004e 154B     		ldr	r3, .L80+16
 1210 0050 0193     		str	r3, [sp, #4]
 1211 0052 0123     		movs	r3, #1
 1212 0054 0093     		str	r3, [sp]
 1213 0056 8533     		adds	r3, r3, #133
 1214 0058 0F4A     		ldr	r2, .L80+4
 1215 005a 0832     		adds	r2, r2, #8
 1216 005c 0F49     		ldr	r1, .L80+8
 1217 005e 0020     		movs	r0, #0
 1218              	.LVL211:
 1219 0060 A047     		blx	r4
 1220              	.LVL212:
 1221 0062 14E0     		b	.L74
 1222              	.LVL213:
 1223              	.L78:
 1224              	.LBE27:
 1225              	.LBB28:
 138:Source\azure_iot_sdk\iothub_client\src/message_queue.c **** 
 1226              		.loc 1 138 0 is_stmt 1
 1227 0064 FFF7FEFF 		bl	singlylinkedlist_item_get_value
 1228              	.LVL214:
 1229 0068 0100     		movs	r1, r0
 1230              	.LVL215:
 142:Source\azure_iot_sdk\iothub_client\src/message_queue.c ****             {
 1231              		.loc 1 142 0
 1232 006a 3200     		movs	r2, r6
 1233 006c 2000     		movs	r0, r4
 1234              	.LVL216:
 1235 006e FFF7FEFF 		bl	should_retry_sending
 1236              	.LVL217:
 1237 0072 0028     		cmp	r0, #0
 1238 0074 05D0     		beq	.L79
 142:Source\azure_iot_sdk\iothub_client\src/message_queue.c ****             {
 1239              		.loc 1 142 0 is_stmt 0 discriminator 1
 1240 0076 2900     		movs	r1, r5
 1241 0078 2000     		movs	r0, r4
 1242 007a FFF7FEFF 		bl	retry_sending_message
 1243              	.LVL218:
 1244 007e 0028     		cmp	r0, #0
 1245 0080 05D0     		beq	.L74
 1246              	.L79:
 144:Source\azure_iot_sdk\iothub_client\src/message_queue.c ****             }
 1247              		.loc 1 144 0 is_stmt 1
 1248 0082 A069     		ldr	r0, [r4, #24]
 1249 0084 059B     		ldr	r3, [sp, #20]
ARM GAS  C:\Users\Phuong\AppData\Local\Temp\ccaRXo0w.s 			page 32


 1250 0086 3200     		movs	r2, r6
 1251 0088 2900     		movs	r1, r5
 1252 008a FFF7FEFF 		bl	dequeue_message_and_fire_callback
 1253              	.LVL219:
 1254              	.L74:
 1255              	.LBE28:
 1256              	.LBE26:
 148:Source\azure_iot_sdk\iothub_client\src/message_queue.c **** 
 1257              		.loc 1 148 0
 1258 008e 07B0     		add	sp, sp, #28
 1259              		@ sp needed
 1260              	.LVL220:
 1261 0090 F0BD     		pop	{r4, r5, r6, r7, pc}
 1262              	.L81:
 1263 0092 C046     		.align	2
 1264              	.L80:
 1265 0094 44020000 		.word	.LC36
 1266 0098 80000000 		.word	.LANCHOR1
 1267 009c 00000000 		.word	.LC1
 1268 00a0 00000000 		.word	find_item_by_message_ptr
 1269 00a4 A8020000 		.word	.LC39
 1270              		.cfi_endproc
 1271              	.LFE6:
 1272              		.size	on_process_message_completed_callback, .-on_process_message_completed_callback
 1273              		.section	.text.destroyOption,"ax",%progbits
 1274              		.align	2
 1275              		.code	16
 1276              		.thumb_func
 1277              		.type	destroyOption, %function
 1278              	destroyOption:
 1279              	.LFB10:
 335:Source\azure_iot_sdk\iothub_client\src/message_queue.c ****     if (name == NULL || value == NULL)
 1280              		.loc 1 335 0
 1281              		.cfi_startproc
 1282              		@ args = 0, pretend = 0, frame = 0
 1283              		@ frame_needed = 0, uses_anonymous_args = 0
 1284              	.LVL221:
 1285 0000 70B5     		push	{r4, r5, r6, lr}
 1286              		.cfi_def_cfa_offset 16
 1287              		.cfi_offset 4, -16
 1288              		.cfi_offset 5, -12
 1289              		.cfi_offset 6, -8
 1290              		.cfi_offset 14, -4
 1291 0002 84B0     		sub	sp, sp, #16
 1292              		.cfi_def_cfa_offset 32
 1293 0004 0400     		movs	r4, r0
 1294 0006 0D00     		movs	r5, r1
 336:Source\azure_iot_sdk\iothub_client\src/message_queue.c ****     {
 1295              		.loc 1 336 0
 1296 0008 0028     		cmp	r0, #0
 1297 000a 01D0     		beq	.L83
 336:Source\azure_iot_sdk\iothub_client\src/message_queue.c ****     {
 1298              		.loc 1 336 0 is_stmt 0 discriminator 1
 1299 000c 0029     		cmp	r1, #0
 1300 000e 11D1     		bne	.L84
 1301              	.L83:
 1302              	.LBB29:
ARM GAS  C:\Users\Phuong\AppData\Local\Temp\ccaRXo0w.s 			page 33


 338:Source\azure_iot_sdk\iothub_client\src/message_queue.c ****     }
 1303              		.loc 1 338 0 is_stmt 1 discriminator 3
 1304 0010 FFF7FEFF 		bl	xlogging_get_log_function
 1305              	.LVL222:
 1306 0014 061E     		subs	r6, r0, #0
 1307              	.LVL223:
 1308 0016 33D0     		beq	.L82
 338:Source\azure_iot_sdk\iothub_client\src/message_queue.c ****     }
 1309              		.loc 1 338 0 is_stmt 0 discriminator 4
 1310 0018 0395     		str	r5, [sp, #12]
 1311 001a 0294     		str	r4, [sp, #8]
 1312 001c 194B     		ldr	r3, .L88
 1313 001e 0193     		str	r3, [sp, #4]
 1314 0020 0123     		movs	r3, #1
 1315 0022 0093     		str	r3, [sp]
 1316 0024 5233     		adds	r3, r3, #82
 1317 0026 FF33     		adds	r3, r3, #255
 1318 0028 174A     		ldr	r2, .L88+4
 1319 002a 3032     		adds	r2, r2, #48
 1320 002c 1749     		ldr	r1, .L88+8
 1321 002e 0020     		movs	r0, #0
 1322              	.LVL224:
 1323 0030 B047     		blx	r6
 1324              	.LVL225:
 1325 0032 25E0     		b	.L82
 1326              	.LVL226:
 1327              	.L84:
 1328              	.LBE29:
 340:Source\azure_iot_sdk\iothub_client\src/message_queue.c ****         strcmp(SAVED_OPTION_MAX_PROCESSING_TIME_SECS, name) == 0 ||
 1329              		.loc 1 340 0 is_stmt 1
 1330 0034 0100     		movs	r1, r0
 1331              	.LVL227:
 1332 0036 1648     		ldr	r0, .L88+12
 1333              	.LVL228:
 1334 0038 FFF7FEFF 		bl	strcmp
 1335              	.LVL229:
 1336 003c 0028     		cmp	r0, #0
 1337 003e 0BD0     		beq	.L86
 341:Source\azure_iot_sdk\iothub_client\src/message_queue.c ****         strcmp(SAVED_OPTION_MAX_RETRY_COUNT, name) == 0)
 1338              		.loc 1 341 0 discriminator 1
 1339 0040 2100     		movs	r1, r4
 1340 0042 1448     		ldr	r0, .L88+16
 1341 0044 FFF7FEFF 		bl	strcmp
 1342              	.LVL230:
 340:Source\azure_iot_sdk\iothub_client\src/message_queue.c ****         strcmp(SAVED_OPTION_MAX_PROCESSING_TIME_SECS, name) == 0 ||
 1343              		.loc 1 340 0 discriminator 1
 1344 0048 0028     		cmp	r0, #0
 1345 004a 05D0     		beq	.L86
 342:Source\azure_iot_sdk\iothub_client\src/message_queue.c ****     {
 1346              		.loc 1 342 0
 1347 004c 2100     		movs	r1, r4
 1348 004e 1248     		ldr	r0, .L88+20
 1349 0050 FFF7FEFF 		bl	strcmp
 1350              	.LVL231:
 341:Source\azure_iot_sdk\iothub_client\src/message_queue.c ****         strcmp(SAVED_OPTION_MAX_RETRY_COUNT, name) == 0)
 1351              		.loc 1 341 0
 1352 0054 0028     		cmp	r0, #0
ARM GAS  C:\Users\Phuong\AppData\Local\Temp\ccaRXo0w.s 			page 34


 1353 0056 03D1     		bne	.L87
 1354              	.L86:
 344:Source\azure_iot_sdk\iothub_client\src/message_queue.c ****     }
 1355              		.loc 1 344 0
 1356 0058 2800     		movs	r0, r5
 1357 005a FFF7FEFF 		bl	free
 1358              	.LVL232:
 1359 005e 0FE0     		b	.L82
 1360              	.L87:
 1361              	.LBB30:
 348:Source\azure_iot_sdk\iothub_client\src/message_queue.c ****     }
 1362              		.loc 1 348 0 discriminator 3
 1363 0060 FFF7FEFF 		bl	xlogging_get_log_function
 1364              	.LVL233:
 1365 0064 051E     		subs	r5, r0, #0
 1366              	.LVL234:
 1367 0066 0BD0     		beq	.L82
 348:Source\azure_iot_sdk\iothub_client\src/message_queue.c ****     }
 1368              		.loc 1 348 0 is_stmt 0 discriminator 4
 1369 0068 0294     		str	r4, [sp, #8]
 1370 006a 0C4B     		ldr	r3, .L88+24
 1371 006c 0193     		str	r3, [sp, #4]
 1372 006e 0123     		movs	r3, #1
 1373 0070 0093     		str	r3, [sp]
 1374 0072 5C33     		adds	r3, r3, #92
 1375 0074 FF33     		adds	r3, r3, #255
 1376 0076 044A     		ldr	r2, .L88+4
 1377 0078 3032     		adds	r2, r2, #48
 1378 007a 0449     		ldr	r1, .L88+8
 1379 007c 0020     		movs	r0, #0
 1380              	.LVL235:
 1381 007e A847     		blx	r5
 1382              	.LVL236:
 1383              	.L82:
 1384              	.LBE30:
 350:Source\azure_iot_sdk\iothub_client\src/message_queue.c **** 
 1385              		.loc 1 350 0 is_stmt 1
 1386 0080 04B0     		add	sp, sp, #16
 1387              		@ sp needed
 1388              	.LVL237:
 1389 0082 70BD     		pop	{r4, r5, r6, pc}
 1390              	.L89:
 1391              		.align	2
 1392              	.L88:
 1393 0084 08030000 		.word	.LC43
 1394 0088 80000000 		.word	.LANCHOR1
 1395 008c 00000000 		.word	.LC1
 1396 0090 30030000 		.word	.LC45
 1397 0094 54030000 		.word	.LC47
 1398 0098 7C030000 		.word	.LC49
 1399 009c 9C030000 		.word	.LC51
 1400              		.cfi_endproc
 1401              	.LFE10:
 1402              		.size	destroyOption, .-destroyOption
 1403              		.section	.text.cloneOption,"ax",%progbits
 1404              		.align	2
 1405              		.code	16
ARM GAS  C:\Users\Phuong\AppData\Local\Temp\ccaRXo0w.s 			page 35


 1406              		.thumb_func
 1407              		.type	cloneOption, %function
 1408              	cloneOption:
 1409              	.LFB9:
 304:Source\azure_iot_sdk\iothub_client\src/message_queue.c ****     void* result;
 1410              		.loc 1 304 0
 1411              		.cfi_startproc
 1412              		@ args = 0, pretend = 0, frame = 0
 1413              		@ frame_needed = 0, uses_anonymous_args = 0
 1414              	.LVL238:
 1415 0000 70B5     		push	{r4, r5, r6, lr}
 1416              		.cfi_def_cfa_offset 16
 1417              		.cfi_offset 4, -16
 1418              		.cfi_offset 5, -12
 1419              		.cfi_offset 6, -8
 1420              		.cfi_offset 14, -4
 1421 0002 84B0     		sub	sp, sp, #16
 1422              		.cfi_def_cfa_offset 32
 1423 0004 0400     		movs	r4, r0
 1424 0006 0E00     		movs	r6, r1
 307:Source\azure_iot_sdk\iothub_client\src/message_queue.c ****     {
 1425              		.loc 1 307 0
 1426 0008 0028     		cmp	r0, #0
 1427 000a 01D0     		beq	.L91
 307:Source\azure_iot_sdk\iothub_client\src/message_queue.c ****     {
 1428              		.loc 1 307 0 is_stmt 0 discriminator 1
 1429 000c 0029     		cmp	r1, #0
 1430 000e 12D1     		bne	.L92
 1431              	.L91:
 1432              	.LBB31:
 309:Source\azure_iot_sdk\iothub_client\src/message_queue.c ****         result = NULL;
 1433              		.loc 1 309 0 is_stmt 1 discriminator 3
 1434 0010 FFF7FEFF 		bl	xlogging_get_log_function
 1435              	.LVL239:
 1436 0014 051E     		subs	r5, r0, #0
 1437              	.LVL240:
 1438 0016 4DD0     		beq	.L97
 309:Source\azure_iot_sdk\iothub_client\src/message_queue.c ****         result = NULL;
 1439              		.loc 1 309 0 is_stmt 0 discriminator 4
 1440 0018 0396     		str	r6, [sp, #12]
 1441 001a 0294     		str	r4, [sp, #8]
 1442 001c 284B     		ldr	r3, .L99
 1443 001e 0193     		str	r3, [sp, #4]
 1444 0020 0123     		movs	r3, #1
 1445 0022 0093     		str	r3, [sp]
 1446 0024 3623     		movs	r3, #54
 1447 0026 FF33     		adds	r3, r3, #255
 1448 0028 264A     		ldr	r2, .L99+4
 1449 002a 4032     		adds	r2, r2, #64
 1450 002c 2649     		ldr	r1, .L99+8
 1451 002e 0020     		movs	r0, #0
 1452              	.LVL241:
 1453 0030 A847     		blx	r5
 1454              	.LVL242:
 1455              	.LBE31:
 310:Source\azure_iot_sdk\iothub_client\src/message_queue.c ****     }
 1456              		.loc 1 310 0 is_stmt 1 discriminator 4
ARM GAS  C:\Users\Phuong\AppData\Local\Temp\ccaRXo0w.s 			page 36


 1457 0032 0025     		movs	r5, #0
 1458              	.LVL243:
 1459 0034 41E0     		b	.L93
 1460              	.LVL244:
 1461              	.L92:
 312:Source\azure_iot_sdk\iothub_client\src/message_queue.c ****         strcmp(SAVED_OPTION_MAX_PROCESSING_TIME_SECS, name) == 0 ||
 1462              		.loc 1 312 0
 1463 0036 0100     		movs	r1, r0
 1464              	.LVL245:
 1465 0038 2448     		ldr	r0, .L99+12
 1466              	.LVL246:
 1467 003a FFF7FEFF 		bl	strcmp
 1468              	.LVL247:
 1469 003e 0028     		cmp	r0, #0
 1470 0040 0BD0     		beq	.L94
 313:Source\azure_iot_sdk\iothub_client\src/message_queue.c ****         strcmp(SAVED_OPTION_MAX_RETRY_COUNT, name) == 0)
 1471              		.loc 1 313 0 discriminator 1
 1472 0042 2100     		movs	r1, r4
 1473 0044 2248     		ldr	r0, .L99+16
 1474 0046 FFF7FEFF 		bl	strcmp
 1475              	.LVL248:
 312:Source\azure_iot_sdk\iothub_client\src/message_queue.c ****         strcmp(SAVED_OPTION_MAX_PROCESSING_TIME_SECS, name) == 0 ||
 1476              		.loc 1 312 0 discriminator 1
 1477 004a 0028     		cmp	r0, #0
 1478 004c 05D0     		beq	.L94
 314:Source\azure_iot_sdk\iothub_client\src/message_queue.c ****     {
 1479              		.loc 1 314 0
 1480 004e 2100     		movs	r1, r4
 1481 0050 2048     		ldr	r0, .L99+20
 1482 0052 FFF7FEFF 		bl	strcmp
 1483              	.LVL249:
 313:Source\azure_iot_sdk\iothub_client\src/message_queue.c ****         strcmp(SAVED_OPTION_MAX_RETRY_COUNT, name) == 0)
 1484              		.loc 1 313 0
 1485 0056 0028     		cmp	r0, #0
 1486 0058 1AD1     		bne	.L95
 1487              	.L94:
 316:Source\azure_iot_sdk\iothub_client\src/message_queue.c ****         {
 1488              		.loc 1 316 0
 1489 005a 0420     		movs	r0, #4
 1490 005c FFF7FEFF 		bl	malloc
 1491              	.LVL250:
 1492 0060 051E     		subs	r5, r0, #0
 1493              	.LVL251:
 1494 0062 10D1     		bne	.L96
 1495              	.LBB32:
 318:Source\azure_iot_sdk\iothub_client\src/message_queue.c ****         }
 1496              		.loc 1 318 0 discriminator 3
 1497 0064 FFF7FEFF 		bl	xlogging_get_log_function
 1498              	.LVL252:
 1499 0068 061E     		subs	r6, r0, #0
 1500              	.LVL253:
 1501 006a 26D0     		beq	.L93
 318:Source\azure_iot_sdk\iothub_client\src/message_queue.c ****         }
 1502              		.loc 1 318 0 is_stmt 0 discriminator 4
 1503 006c 0294     		str	r4, [sp, #8]
 1504 006e 1A4B     		ldr	r3, .L99+24
 1505 0070 0193     		str	r3, [sp, #4]
ARM GAS  C:\Users\Phuong\AppData\Local\Temp\ccaRXo0w.s 			page 37


 1506 0072 0123     		movs	r3, #1
 1507 0074 0093     		str	r3, [sp]
 1508 0076 3E33     		adds	r3, r3, #62
 1509 0078 FF33     		adds	r3, r3, #255
 1510 007a 124A     		ldr	r2, .L99+4
 1511 007c 4032     		adds	r2, r2, #64
 1512 007e 1249     		ldr	r1, .L99+8
 1513 0080 0020     		movs	r0, #0
 1514              	.LVL254:
 1515 0082 B047     		blx	r6
 1516              	.LVL255:
 1517 0084 19E0     		b	.L93
 1518              	.LVL256:
 1519              	.L96:
 1520              	.LBE32:
 322:Source\azure_iot_sdk\iothub_client\src/message_queue.c ****         }
 1521              		.loc 1 322 0 is_stmt 1
 1522 0086 0422     		movs	r2, #4
 1523 0088 3100     		movs	r1, r6
 1524 008a FFF7FEFF 		bl	memcpy
 1525              	.LVL257:
 1526 008e 14E0     		b	.L93
 1527              	.LVL258:
 1528              	.L95:
 1529              	.LBB33:
 327:Source\azure_iot_sdk\iothub_client\src/message_queue.c ****         result = NULL;
 1530              		.loc 1 327 0 discriminator 3
 1531 0090 FFF7FEFF 		bl	xlogging_get_log_function
 1532              	.LVL259:
 1533 0094 051E     		subs	r5, r0, #0
 1534              	.LVL260:
 1535 0096 0FD0     		beq	.L98
 327:Source\azure_iot_sdk\iothub_client\src/message_queue.c ****         result = NULL;
 1536              		.loc 1 327 0 is_stmt 0 discriminator 4
 1537 0098 0294     		str	r4, [sp, #8]
 1538 009a 104B     		ldr	r3, .L99+28
 1539 009c 0193     		str	r3, [sp, #4]
 1540 009e 0123     		movs	r3, #1
 1541 00a0 0093     		str	r3, [sp]
 1542 00a2 4823     		movs	r3, #72
 1543 00a4 FF33     		adds	r3, r3, #255
 1544 00a6 074A     		ldr	r2, .L99+4
 1545 00a8 4032     		adds	r2, r2, #64
 1546 00aa 0749     		ldr	r1, .L99+8
 1547 00ac 0020     		movs	r0, #0
 1548              	.LVL261:
 1549 00ae A847     		blx	r5
 1550              	.LVL262:
 1551              	.LBE33:
 328:Source\azure_iot_sdk\iothub_client\src/message_queue.c ****     }
 1552              		.loc 1 328 0 is_stmt 1 discriminator 4
 1553 00b0 0025     		movs	r5, #0
 1554              	.LVL263:
 1555 00b2 02E0     		b	.L93
 1556              	.LVL264:
 1557              	.L97:
 310:Source\azure_iot_sdk\iothub_client\src/message_queue.c ****     }
ARM GAS  C:\Users\Phuong\AppData\Local\Temp\ccaRXo0w.s 			page 38


 1558              		.loc 1 310 0
 1559 00b4 0025     		movs	r5, #0
 1560 00b6 00E0     		b	.L93
 1561              	.LVL265:
 1562              	.L98:
 328:Source\azure_iot_sdk\iothub_client\src/message_queue.c ****     }
 1563              		.loc 1 328 0
 1564 00b8 0025     		movs	r5, #0
 1565              	.LVL266:
 1566              	.L93:
 332:Source\azure_iot_sdk\iothub_client\src/message_queue.c **** 
 1567              		.loc 1 332 0
 1568 00ba 2800     		movs	r0, r5
 1569 00bc 04B0     		add	sp, sp, #16
 1570              		@ sp needed
 1571              	.LVL267:
 1572              	.LVL268:
 1573 00be 70BD     		pop	{r4, r5, r6, pc}
 1574              	.L100:
 1575              		.align	2
 1576              	.L99:
 1577 00c0 08030000 		.word	.LC43
 1578 00c4 80000000 		.word	.LANCHOR1
 1579 00c8 00000000 		.word	.LC1
 1580 00cc 30030000 		.word	.LC45
 1581 00d0 54030000 		.word	.LC47
 1582 00d4 7C030000 		.word	.LC49
 1583 00d8 B4030000 		.word	.LC59
 1584 00dc 9C030000 		.word	.LC51
 1585              		.cfi_endproc
 1586              	.LFE9:
 1587              		.size	cloneOption, .-cloneOption
 1588              		.section	.text.message_queue_remove_all,"ax",%progbits
 1589              		.align	2
 1590              		.global	message_queue_remove_all
 1591              		.code	16
 1592              		.thumb_func
 1593              		.type	message_queue_remove_all, %function
 1594              	message_queue_remove_all:
 1595              	.LFB11:
 357:Source\azure_iot_sdk\iothub_client\src/message_queue.c ****     // Codes_SRS_MESSAGE_QUEUE_09_026: [If `message_queue` is NULL, message_queue_retrieve_options 
 1596              		.loc 1 357 0
 1597              		.cfi_startproc
 1598              		@ args = 0, pretend = 0, frame = 0
 1599              		@ frame_needed = 0, uses_anonymous_args = 0
 1600              	.LVL269:
 1601 0000 10B5     		push	{r4, lr}
 1602              		.cfi_def_cfa_offset 8
 1603              		.cfi_offset 4, -8
 1604              		.cfi_offset 14, -4
 1605 0002 041E     		subs	r4, r0, #0
 359:Source\azure_iot_sdk\iothub_client\src/message_queue.c ****     {
 1606              		.loc 1 359 0
 1607 0004 06D1     		bne	.L102
 1608              	.LBB34:
 1609 0006 16E0     		b	.L101
 1610              	.LVL270:
ARM GAS  C:\Users\Phuong\AppData\Local\Temp\ccaRXo0w.s 			page 39


 1611              	.L104:
 368:Source\azure_iot_sdk\iothub_client\src/message_queue.c ****         }
 1612              		.loc 1 368 0
 1613 0008 0023     		movs	r3, #0
 1614 000a 0422     		movs	r2, #4
 1615 000c 0100     		movs	r1, r0
 1616 000e A069     		ldr	r0, [r4, #24]
 1617              	.LVL271:
 1618 0010 FFF7FEFF 		bl	dequeue_message_and_fire_callback
 1619              	.LVL272:
 1620              	.L102:
 364:Source\azure_iot_sdk\iothub_client\src/message_queue.c ****         {
 1621              		.loc 1 364 0
 1622 0014 A069     		ldr	r0, [r4, #24]
 1623 0016 FFF7FEFF 		bl	singlylinkedlist_get_head_item
 1624              	.LVL273:
 1625 001a 0028     		cmp	r0, #0
 1626 001c F4D1     		bne	.L104
 1627 001e 05E0     		b	.L105
 1628              	.L106:
 375:Source\azure_iot_sdk\iothub_client\src/message_queue.c ****         }
 1629              		.loc 1 375 0
 1630 0020 0023     		movs	r3, #0
 1631 0022 0422     		movs	r2, #4
 1632 0024 0100     		movs	r1, r0
 1633 0026 6069     		ldr	r0, [r4, #20]
 1634              	.LVL274:
 1635 0028 FFF7FEFF 		bl	dequeue_message_and_fire_callback
 1636              	.LVL275:
 1637              	.L105:
 371:Source\azure_iot_sdk\iothub_client\src/message_queue.c ****         {
 1638              		.loc 1 371 0
 1639 002c 6069     		ldr	r0, [r4, #20]
 1640 002e FFF7FEFF 		bl	singlylinkedlist_get_head_item
 1641              	.LVL276:
 1642 0032 0028     		cmp	r0, #0
 1643 0034 F4D1     		bne	.L106
 1644              	.LVL277:
 1645              	.L101:
 1646              	.LBE34:
 378:Source\azure_iot_sdk\iothub_client\src/message_queue.c **** 
 1647              		.loc 1 378 0
 1648              		@ sp needed
 1649              	.LVL278:
 1650 0036 10BD     		pop	{r4, pc}
 1651              		.cfi_endproc
 1652              	.LFE11:
 1653              		.size	message_queue_remove_all, .-message_queue_remove_all
 1654              		.section	.text.message_queue_move_all_back_to_pending,"ax",%progbits
 1655              		.align	2
 1656              		.global	message_queue_move_all_back_to_pending
 1657              		.code	16
 1658              		.thumb_func
 1659              		.type	message_queue_move_all_back_to_pending, %function
 1660              	message_queue_move_all_back_to_pending:
 1661              	.LFB13:
 420:Source\azure_iot_sdk\iothub_client\src/message_queue.c **** 
ARM GAS  C:\Users\Phuong\AppData\Local\Temp\ccaRXo0w.s 			page 40


 421:Source\azure_iot_sdk\iothub_client\src/message_queue.c **** int message_queue_move_all_back_to_pending(MESSAGE_QUEUE_HANDLE message_queue)
 422:Source\azure_iot_sdk\iothub_client\src/message_queue.c **** {
 1662              		.loc 1 422 0
 1663              		.cfi_startproc
 1664              		@ args = 0, pretend = 0, frame = 0
 1665              		@ frame_needed = 0, uses_anonymous_args = 0
 1666              	.LVL279:
 1667 0000 30B5     		push	{r4, r5, lr}
 1668              		.cfi_def_cfa_offset 12
 1669              		.cfi_offset 4, -12
 1670              		.cfi_offset 5, -8
 1671              		.cfi_offset 14, -4
 1672 0002 83B0     		sub	sp, sp, #12
 1673              		.cfi_def_cfa_offset 24
 1674 0004 051E     		subs	r5, r0, #0
 423:Source\azure_iot_sdk\iothub_client\src/message_queue.c ****     int result;
 424:Source\azure_iot_sdk\iothub_client\src/message_queue.c **** 
 425:Source\azure_iot_sdk\iothub_client\src/message_queue.c ****     if (message_queue == NULL)
 1675              		.loc 1 425 0
 1676 0006 12D1     		bne	.L108
 1677              	.LBB35:
 426:Source\azure_iot_sdk\iothub_client\src/message_queue.c ****     {
 427:Source\azure_iot_sdk\iothub_client\src/message_queue.c ****         LogError("invalid argument (message_queue is NULL)");
 1678              		.loc 1 427 0 discriminator 3
 1679 0008 FFF7FEFF 		bl	xlogging_get_log_function
 1680              	.LVL280:
 1681 000c 041E     		subs	r4, r0, #0
 1682              	.LVL281:
 1683 000e 00D1     		bne	.LCB1799
 1684 0010 87E0     		b	.L117	@long jump
 1685              	.LCB1799:
 1686              		.loc 1 427 0 is_stmt 0 discriminator 4
 1687 0012 484B     		ldr	r3, .L123
 1688 0014 0193     		str	r3, [sp, #4]
 1689 0016 0123     		movs	r3, #1
 1690 0018 0093     		str	r3, [sp]
 1691 001a AC23     		movs	r3, #172
 1692 001c FF33     		adds	r3, r3, #255
 1693 001e 464A     		ldr	r2, .L123+4
 1694 0020 4C32     		adds	r2, r2, #76
 1695 0022 4649     		ldr	r1, .L123+8
 1696 0024 0020     		movs	r0, #0
 1697              	.LVL282:
 1698 0026 A047     		blx	r4
 1699              	.LVL283:
 1700              	.LBE35:
 428:Source\azure_iot_sdk\iothub_client\src/message_queue.c ****         result = __FAILURE__;
 1701              		.loc 1 428 0 is_stmt 1 discriminator 4
 1702 0028 AD35     		adds	r5, r5, #173
 1703              	.LVL284:
 1704 002a FF35     		adds	r5, r5, #255
 1705              	.LVL285:
 1706 002c 7EE0     		b	.L109
 1707              	.LVL286:
 1708              	.L108:
 1709              	.LBB36:
 429:Source\azure_iot_sdk\iothub_client\src/message_queue.c ****     }
ARM GAS  C:\Users\Phuong\AppData\Local\Temp\ccaRXo0w.s 			page 41


 430:Source\azure_iot_sdk\iothub_client\src/message_queue.c ****     else
 431:Source\azure_iot_sdk\iothub_client\src/message_queue.c ****     {
 432:Source\azure_iot_sdk\iothub_client\src/message_queue.c ****         SINGLYLINKEDLIST_HANDLE temp_list;
 433:Source\azure_iot_sdk\iothub_client\src/message_queue.c **** 
 434:Source\azure_iot_sdk\iothub_client\src/message_queue.c ****         if ((temp_list = singlylinkedlist_create()) == NULL)
 1710              		.loc 1 434 0
 1711 002e FFF7FEFF 		bl	singlylinkedlist_create
 1712              	.LVL287:
 1713 0032 041E     		subs	r4, r0, #0
 1714              	.LVL288:
 1715 0034 11D1     		bne	.L110
 1716              	.LBB37:
 435:Source\azure_iot_sdk\iothub_client\src/message_queue.c ****         {
 436:Source\azure_iot_sdk\iothub_client\src/message_queue.c ****             LogError("failed creating temporary list");
 1717              		.loc 1 436 0 discriminator 3
 1718 0036 FFF7FEFF 		bl	xlogging_get_log_function
 1719              	.LVL289:
 1720 003a 041E     		subs	r4, r0, #0
 1721              	.LVL290:
 1722 003c 74D0     		beq	.L118
 1723              		.loc 1 436 0 is_stmt 0 discriminator 4
 1724 003e 404B     		ldr	r3, .L123+12
 1725 0040 0193     		str	r3, [sp, #4]
 1726 0042 0123     		movs	r3, #1
 1727 0044 0093     		str	r3, [sp]
 1728 0046 B433     		adds	r3, r3, #180
 1729 0048 FF33     		adds	r3, r3, #255
 1730 004a 3B4A     		ldr	r2, .L123+4
 1731 004c 4C32     		adds	r2, r2, #76
 1732 004e 3B49     		ldr	r1, .L123+8
 1733 0050 0020     		movs	r0, #0
 1734              	.LVL291:
 1735 0052 A047     		blx	r4
 1736              	.LVL292:
 1737              	.LBE37:
 437:Source\azure_iot_sdk\iothub_client\src/message_queue.c ****             result = __FAILURE__;
 1738              		.loc 1 437 0 is_stmt 1 discriminator 4
 1739 0054 B625     		movs	r5, #182
 1740              	.LVL293:
 1741 0056 FF35     		adds	r5, r5, #255
 1742 0058 68E0     		b	.L109
 1743              	.LVL294:
 1744              	.L110:
 438:Source\azure_iot_sdk\iothub_client\src/message_queue.c ****         }
 439:Source\azure_iot_sdk\iothub_client\src/message_queue.c ****         else
 440:Source\azure_iot_sdk\iothub_client\src/message_queue.c ****         {
 441:Source\azure_iot_sdk\iothub_client\src/message_queue.c ****             if (move_messages_between_lists(message_queue->in_progress, temp_list) != 0)
 1745              		.loc 1 441 0
 1746 005a 0100     		movs	r1, r0
 1747 005c A869     		ldr	r0, [r5, #24]
 1748              	.LVL295:
 1749 005e FFF7FEFF 		bl	move_messages_between_lists
 1750              	.LVL296:
 1751 0062 0028     		cmp	r0, #0
 1752 0064 11D0     		beq	.L111
 1753              	.LBB38:
 442:Source\azure_iot_sdk\iothub_client\src/message_queue.c ****             {
ARM GAS  C:\Users\Phuong\AppData\Local\Temp\ccaRXo0w.s 			page 42


 443:Source\azure_iot_sdk\iothub_client\src/message_queue.c ****                 LogError("failed moving in-progress message to temporary list");
 1754              		.loc 1 443 0 discriminator 3
 1755 0066 FFF7FEFF 		bl	xlogging_get_log_function
 1756              	.LVL297:
 1757 006a 051E     		subs	r5, r0, #0
 1758              	.LVL298:
 1759 006c 3DD0     		beq	.L119
 1760              		.loc 1 443 0 is_stmt 0 discriminator 4
 1761 006e 354B     		ldr	r3, .L123+16
 1762 0070 0193     		str	r3, [sp, #4]
 1763 0072 0123     		movs	r3, #1
 1764 0074 0093     		str	r3, [sp]
 1765 0076 BC23     		movs	r3, #188
 1766 0078 FF33     		adds	r3, r3, #255
 1767 007a 2F4A     		ldr	r2, .L123+4
 1768 007c 4C32     		adds	r2, r2, #76
 1769 007e 2F49     		ldr	r1, .L123+8
 1770 0080 0020     		movs	r0, #0
 1771              	.LVL299:
 1772 0082 A847     		blx	r5
 1773              	.LVL300:
 1774              	.LBE38:
 444:Source\azure_iot_sdk\iothub_client\src/message_queue.c ****                 result = __FAILURE__;
 1775              		.loc 1 444 0 is_stmt 1 discriminator 4
 1776 0084 DE25     		movs	r5, #222
 1777              	.LVL301:
 1778 0086 6D00     		lsls	r5, r5, #1
 1779 0088 39E0     		b	.L112
 1780              	.LVL302:
 1781              	.L111:
 445:Source\azure_iot_sdk\iothub_client\src/message_queue.c ****             }
 446:Source\azure_iot_sdk\iothub_client\src/message_queue.c ****             else if (move_messages_between_lists(message_queue->pending, temp_list) != 0)
 1782              		.loc 1 446 0
 1783 008a 2100     		movs	r1, r4
 1784 008c 6869     		ldr	r0, [r5, #20]
 1785 008e FFF7FEFF 		bl	move_messages_between_lists
 1786              	.LVL303:
 1787 0092 0028     		cmp	r0, #0
 1788 0094 11D0     		beq	.L113
 1789              	.LBB39:
 447:Source\azure_iot_sdk\iothub_client\src/message_queue.c ****             {
 448:Source\azure_iot_sdk\iothub_client\src/message_queue.c ****                 LogError("failed moving pending message to temporary list");
 1790              		.loc 1 448 0 discriminator 3
 1791 0096 FFF7FEFF 		bl	xlogging_get_log_function
 1792              	.LVL304:
 1793 009a 051E     		subs	r5, r0, #0
 1794              	.LVL305:
 1795 009c 28D0     		beq	.L120
 1796              		.loc 1 448 0 is_stmt 0 discriminator 4
 1797 009e 2A4B     		ldr	r3, .L123+20
 1798 00a0 0193     		str	r3, [sp, #4]
 1799 00a2 0123     		movs	r3, #1
 1800 00a4 0093     		str	r3, [sp]
 1801 00a6 C033     		adds	r3, r3, #192
 1802 00a8 FF33     		adds	r3, r3, #255
 1803 00aa 234A     		ldr	r2, .L123+4
 1804 00ac 4C32     		adds	r2, r2, #76
ARM GAS  C:\Users\Phuong\AppData\Local\Temp\ccaRXo0w.s 			page 43


 1805 00ae 2349     		ldr	r1, .L123+8
 1806 00b0 0020     		movs	r0, #0
 1807              	.LVL306:
 1808 00b2 A847     		blx	r5
 1809              	.LVL307:
 1810              	.LBE39:
 449:Source\azure_iot_sdk\iothub_client\src/message_queue.c ****                 result = __FAILURE__;
 1811              		.loc 1 449 0 is_stmt 1 discriminator 4
 1812 00b4 C225     		movs	r5, #194
 1813              	.LVL308:
 1814 00b6 FF35     		adds	r5, r5, #255
 1815 00b8 21E0     		b	.L112
 1816              	.LVL309:
 1817              	.L113:
 450:Source\azure_iot_sdk\iothub_client\src/message_queue.c ****             }
 451:Source\azure_iot_sdk\iothub_client\src/message_queue.c ****             else if (move_messages_between_lists(temp_list, message_queue->pending) != 0)
 1818              		.loc 1 451 0
 1819 00ba 6969     		ldr	r1, [r5, #20]
 1820 00bc 2000     		movs	r0, r4
 1821 00be FFF7FEFF 		bl	move_messages_between_lists
 1822              	.LVL310:
 1823 00c2 0028     		cmp	r0, #0
 1824 00c4 17D0     		beq	.L121
 1825              	.LBB40:
 452:Source\azure_iot_sdk\iothub_client\src/message_queue.c ****             {
 453:Source\azure_iot_sdk\iothub_client\src/message_queue.c ****                 LogError("failed moving pending message to temporary list");
 1826              		.loc 1 453 0 discriminator 3
 1827 00c6 FFF7FEFF 		bl	xlogging_get_log_function
 1828              	.LVL311:
 1829 00ca 051E     		subs	r5, r0, #0
 1830              	.LVL312:
 1831 00cc 15D0     		beq	.L122
 1832              		.loc 1 453 0 is_stmt 0 discriminator 4
 1833 00ce 1E4B     		ldr	r3, .L123+20
 1834 00d0 0193     		str	r3, [sp, #4]
 1835 00d2 0123     		movs	r3, #1
 1836 00d4 0093     		str	r3, [sp]
 1837 00d6 C623     		movs	r3, #198
 1838 00d8 FF33     		adds	r3, r3, #255
 1839 00da 174A     		ldr	r2, .L123+4
 1840 00dc 4C32     		adds	r2, r2, #76
 1841 00de 1749     		ldr	r1, .L123+8
 1842 00e0 0020     		movs	r0, #0
 1843              	.LVL313:
 1844 00e2 A847     		blx	r5
 1845              	.LVL314:
 1846              	.LBE40:
 454:Source\azure_iot_sdk\iothub_client\src/message_queue.c ****                 result = __FAILURE__;
 1847              		.loc 1 454 0 is_stmt 1 discriminator 4
 1848 00e4 E325     		movs	r5, #227
 1849              	.LVL315:
 1850 00e6 6D00     		lsls	r5, r5, #1
 1851 00e8 09E0     		b	.L112
 1852              	.LVL316:
 1853              	.L119:
 444:Source\azure_iot_sdk\iothub_client\src/message_queue.c ****             }
 1854              		.loc 1 444 0
ARM GAS  C:\Users\Phuong\AppData\Local\Temp\ccaRXo0w.s 			page 44


 1855 00ea DE25     		movs	r5, #222
 1856 00ec 6D00     		lsls	r5, r5, #1
 1857 00ee 06E0     		b	.L112
 1858              	.LVL317:
 1859              	.L120:
 449:Source\azure_iot_sdk\iothub_client\src/message_queue.c ****             }
 1860              		.loc 1 449 0
 1861 00f0 C225     		movs	r5, #194
 1862 00f2 FF35     		adds	r5, r5, #255
 1863 00f4 03E0     		b	.L112
 1864              	.LVL318:
 1865              	.L121:
 455:Source\azure_iot_sdk\iothub_client\src/message_queue.c ****             }
 456:Source\azure_iot_sdk\iothub_client\src/message_queue.c ****             else
 457:Source\azure_iot_sdk\iothub_client\src/message_queue.c ****             {
 458:Source\azure_iot_sdk\iothub_client\src/message_queue.c ****                 result = RESULT_OK;
 1866              		.loc 1 458 0
 1867 00f6 0025     		movs	r5, #0
 1868              	.LVL319:
 1869 00f8 01E0     		b	.L112
 1870              	.LVL320:
 1871              	.L122:
 454:Source\azure_iot_sdk\iothub_client\src/message_queue.c ****             }
 1872              		.loc 1 454 0
 1873 00fa E325     		movs	r5, #227
 1874 00fc 6D00     		lsls	r5, r5, #1
 1875              	.LVL321:
 1876              	.L112:
 459:Source\azure_iot_sdk\iothub_client\src/message_queue.c ****             }
 460:Source\azure_iot_sdk\iothub_client\src/message_queue.c **** 
 461:Source\azure_iot_sdk\iothub_client\src/message_queue.c ****             if (result != RESULT_OK)
 1877              		.loc 1 461 0
 1878 00fe 002D     		cmp	r5, #0
 1879 0100 06D1     		bne	.L114
 1880              	.LBB41:
 1881 0102 0AE0     		b	.L115
 1882              	.LVL322:
 1883              	.L116:
 462:Source\azure_iot_sdk\iothub_client\src/message_queue.c ****             {
 463:Source\azure_iot_sdk\iothub_client\src/message_queue.c ****                 LIST_ITEM_HANDLE list_item;
 464:Source\azure_iot_sdk\iothub_client\src/message_queue.c **** 
 465:Source\azure_iot_sdk\iothub_client\src/message_queue.c ****                 while ((list_item = singlylinkedlist_get_head_item(temp_list)) != NULL)
 466:Source\azure_iot_sdk\iothub_client\src/message_queue.c ****                 {
 467:Source\azure_iot_sdk\iothub_client\src/message_queue.c ****                     dequeue_message_and_fire_callback(temp_list, list_item, MESSAGE_QUEUE_CANCELLED
 1884              		.loc 1 467 0
 1885 0104 0023     		movs	r3, #0
 1886 0106 0422     		movs	r2, #4
 1887 0108 0100     		movs	r1, r0
 1888 010a 2000     		movs	r0, r4
 1889              	.LVL323:
 1890 010c FFF7FEFF 		bl	dequeue_message_and_fire_callback
 1891              	.LVL324:
 1892              	.L114:
 465:Source\azure_iot_sdk\iothub_client\src/message_queue.c ****                 {
 1893              		.loc 1 465 0
 1894 0110 2000     		movs	r0, r4
 1895 0112 FFF7FEFF 		bl	singlylinkedlist_get_head_item
ARM GAS  C:\Users\Phuong\AppData\Local\Temp\ccaRXo0w.s 			page 45


 1896              	.LVL325:
 1897 0116 0028     		cmp	r0, #0
 1898 0118 F4D1     		bne	.L116
 1899              	.LVL326:
 1900              	.L115:
 1901              	.LBE41:
 468:Source\azure_iot_sdk\iothub_client\src/message_queue.c ****                 }
 469:Source\azure_iot_sdk\iothub_client\src/message_queue.c ****             }
 470:Source\azure_iot_sdk\iothub_client\src/message_queue.c **** 
 471:Source\azure_iot_sdk\iothub_client\src/message_queue.c ****             singlylinkedlist_destroy(temp_list);
 1902              		.loc 1 471 0
 1903 011a 2000     		movs	r0, r4
 1904 011c FFF7FEFF 		bl	singlylinkedlist_destroy
 1905              	.LVL327:
 1906 0120 04E0     		b	.L109
 1907              	.LVL328:
 1908              	.L117:
 1909              	.LBE36:
 428:Source\azure_iot_sdk\iothub_client\src/message_queue.c ****     }
 1910              		.loc 1 428 0
 1911 0122 D625     		movs	r5, #214
 1912              	.LVL329:
 1913 0124 6D00     		lsls	r5, r5, #1
 1914 0126 01E0     		b	.L109
 1915              	.LVL330:
 1916              	.L118:
 1917              	.LBB42:
 437:Source\azure_iot_sdk\iothub_client\src/message_queue.c ****         }
 1918              		.loc 1 437 0
 1919 0128 B625     		movs	r5, #182
 1920              	.LVL331:
 1921 012a FF35     		adds	r5, r5, #255
 1922              	.LVL332:
 1923              	.L109:
 1924              	.LBE42:
 472:Source\azure_iot_sdk\iothub_client\src/message_queue.c ****         }
 473:Source\azure_iot_sdk\iothub_client\src/message_queue.c ****     }
 474:Source\azure_iot_sdk\iothub_client\src/message_queue.c **** 
 475:Source\azure_iot_sdk\iothub_client\src/message_queue.c ****     return result;
 476:Source\azure_iot_sdk\iothub_client\src/message_queue.c **** }
 1925              		.loc 1 476 0
 1926 012c 2800     		movs	r0, r5
 1927 012e 03B0     		add	sp, sp, #12
 1928              		@ sp needed
 1929              	.LVL333:
 1930 0130 30BD     		pop	{r4, r5, pc}
 1931              	.L124:
 1932 0132 C046     		.align	2
 1933              	.L123:
 1934 0134 E0030000 		.word	.LC64
 1935 0138 80000000 		.word	.LANCHOR1
 1936 013c 00000000 		.word	.LC1
 1937 0140 0C040000 		.word	.LC66
 1938 0144 2C040000 		.word	.LC68
 1939 0148 60040000 		.word	.LC70
 1940              		.cfi_endproc
 1941              	.LFE13:
ARM GAS  C:\Users\Phuong\AppData\Local\Temp\ccaRXo0w.s 			page 46


 1942              		.size	message_queue_move_all_back_to_pending, .-message_queue_move_all_back_to_pending
 1943              		.section	.text.message_queue_destroy,"ax",%progbits
 1944              		.align	2
 1945              		.global	message_queue_destroy
 1946              		.code	16
 1947              		.thumb_func
 1948              		.type	message_queue_destroy, %function
 1949              	message_queue_destroy:
 1950              	.LFB14:
 477:Source\azure_iot_sdk\iothub_client\src/message_queue.c **** 
 478:Source\azure_iot_sdk\iothub_client\src/message_queue.c **** void message_queue_destroy(MESSAGE_QUEUE_HANDLE message_queue)
 479:Source\azure_iot_sdk\iothub_client\src/message_queue.c **** {
 1951              		.loc 1 479 0
 1952              		.cfi_startproc
 1953              		@ args = 0, pretend = 0, frame = 0
 1954              		@ frame_needed = 0, uses_anonymous_args = 0
 1955              	.LVL334:
 1956 0000 10B5     		push	{r4, lr}
 1957              		.cfi_def_cfa_offset 8
 1958              		.cfi_offset 4, -8
 1959              		.cfi_offset 14, -4
 1960 0002 041E     		subs	r4, r0, #0
 480:Source\azure_iot_sdk\iothub_client\src/message_queue.c ****     // Codes_SRS_MESSAGE_QUEUE_09_013: [If `message_queue` is NULL, message_queue_destroy shall ret
 481:Source\azure_iot_sdk\iothub_client\src/message_queue.c ****     if (message_queue != NULL)
 1961              		.loc 1 481 0
 1962 0004 0ED0     		beq	.L125
 482:Source\azure_iot_sdk\iothub_client\src/message_queue.c ****     {
 483:Source\azure_iot_sdk\iothub_client\src/message_queue.c ****         // Codes_SRS_MESSAGE_QUEUE_09_014: [message_queue_destroy shall invoke message_queue_remove
 484:Source\azure_iot_sdk\iothub_client\src/message_queue.c ****         message_queue_remove_all(message_queue);
 1963              		.loc 1 484 0
 1964 0006 FFF7FEFF 		bl	message_queue_remove_all
 1965              	.LVL335:
 485:Source\azure_iot_sdk\iothub_client\src/message_queue.c **** 
 486:Source\azure_iot_sdk\iothub_client\src/message_queue.c ****         // Codes_SRS_MESSAGE_QUEUE_09_015: [message_queue_destroy shall free all memory allocated a
 487:Source\azure_iot_sdk\iothub_client\src/message_queue.c ****         if (message_queue->pending != NULL)
 1966              		.loc 1 487 0
 1967 000a 6069     		ldr	r0, [r4, #20]
 1968 000c 0028     		cmp	r0, #0
 1969 000e 01D0     		beq	.L127
 488:Source\azure_iot_sdk\iothub_client\src/message_queue.c ****         {
 489:Source\azure_iot_sdk\iothub_client\src/message_queue.c ****             singlylinkedlist_destroy(message_queue->pending);
 1970              		.loc 1 489 0
 1971 0010 FFF7FEFF 		bl	singlylinkedlist_destroy
 1972              	.LVL336:
 1973              	.L127:
 490:Source\azure_iot_sdk\iothub_client\src/message_queue.c ****         }
 491:Source\azure_iot_sdk\iothub_client\src/message_queue.c **** 
 492:Source\azure_iot_sdk\iothub_client\src/message_queue.c ****         if (message_queue->in_progress != NULL)
 1974              		.loc 1 492 0
 1975 0014 A069     		ldr	r0, [r4, #24]
 1976 0016 0028     		cmp	r0, #0
 1977 0018 01D0     		beq	.L128
 493:Source\azure_iot_sdk\iothub_client\src/message_queue.c ****         {
 494:Source\azure_iot_sdk\iothub_client\src/message_queue.c ****             singlylinkedlist_destroy(message_queue->in_progress);
 1978              		.loc 1 494 0
 1979 001a FFF7FEFF 		bl	singlylinkedlist_destroy
 1980              	.LVL337:
ARM GAS  C:\Users\Phuong\AppData\Local\Temp\ccaRXo0w.s 			page 47


 1981              	.L128:
 495:Source\azure_iot_sdk\iothub_client\src/message_queue.c ****         }
 496:Source\azure_iot_sdk\iothub_client\src/message_queue.c **** 
 497:Source\azure_iot_sdk\iothub_client\src/message_queue.c ****         free(message_queue);
 1982              		.loc 1 497 0
 1983 001e 2000     		movs	r0, r4
 1984 0020 FFF7FEFF 		bl	free
 1985              	.LVL338:
 1986              	.L125:
 498:Source\azure_iot_sdk\iothub_client\src/message_queue.c ****     }
 499:Source\azure_iot_sdk\iothub_client\src/message_queue.c **** }
 1987              		.loc 1 499 0
 1988              		@ sp needed
 1989              	.LVL339:
 1990 0024 10BD     		pop	{r4, pc}
 1991              		.cfi_endproc
 1992              	.LFE14:
 1993              		.size	message_queue_destroy, .-message_queue_destroy
 1994 0026 C046     		.section	.text.message_queue_create,"ax",%progbits
 1995              		.align	2
 1996              		.global	message_queue_create
 1997              		.code	16
 1998              		.thumb_func
 1999              		.type	message_queue_create, %function
 2000              	message_queue_create:
 2001              	.LFB15:
 500:Source\azure_iot_sdk\iothub_client\src/message_queue.c **** 
 501:Source\azure_iot_sdk\iothub_client\src/message_queue.c **** MESSAGE_QUEUE_HANDLE message_queue_create(MESSAGE_QUEUE_CONFIG* config)
 502:Source\azure_iot_sdk\iothub_client\src/message_queue.c **** {
 2002              		.loc 1 502 0
 2003              		.cfi_startproc
 2004              		@ args = 0, pretend = 0, frame = 0
 2005              		@ frame_needed = 0, uses_anonymous_args = 0
 2006              	.LVL340:
 2007 0000 30B5     		push	{r4, r5, lr}
 2008              		.cfi_def_cfa_offset 12
 2009              		.cfi_offset 4, -12
 2010              		.cfi_offset 5, -8
 2011              		.cfi_offset 14, -4
 2012 0002 83B0     		sub	sp, sp, #12
 2013              		.cfi_def_cfa_offset 24
 2014 0004 051E     		subs	r5, r0, #0
 503:Source\azure_iot_sdk\iothub_client\src/message_queue.c ****     MESSAGE_QUEUE* result;
 504:Source\azure_iot_sdk\iothub_client\src/message_queue.c **** 
 505:Source\azure_iot_sdk\iothub_client\src/message_queue.c ****     // Codes_SRS_MESSAGE_QUEUE_09_001: [If `config` is NULL, message_queue_create shall fail and re
 506:Source\azure_iot_sdk\iothub_client\src/message_queue.c ****     if (config == NULL)
 2015              		.loc 1 506 0
 2016 0006 10D1     		bne	.L130
 2017              	.LBB43:
 507:Source\azure_iot_sdk\iothub_client\src/message_queue.c ****     {
 508:Source\azure_iot_sdk\iothub_client\src/message_queue.c ****         LogError("invalid configuration (NULL)");
 2018              		.loc 1 508 0 discriminator 3
 2019 0008 FFF7FEFF 		bl	xlogging_get_log_function
 2020              	.LVL341:
 2021 000c 041E     		subs	r4, r0, #0
 2022              	.LVL342:
 2023 000e 71D0     		beq	.L138
ARM GAS  C:\Users\Phuong\AppData\Local\Temp\ccaRXo0w.s 			page 48


 2024              		.loc 1 508 0 is_stmt 0 discriminator 4
 2025 0010 3B4B     		ldr	r3, .L140
 2026 0012 0193     		str	r3, [sp, #4]
 2027 0014 0123     		movs	r3, #1
 2028 0016 0093     		str	r3, [sp]
 2029 0018 FC33     		adds	r3, r3, #252
 2030 001a FF33     		adds	r3, r3, #255
 2031 001c 394A     		ldr	r2, .L140+4
 2032 001e 7432     		adds	r2, r2, #116
 2033 0020 3949     		ldr	r1, .L140+8
 2034 0022 0020     		movs	r0, #0
 2035              	.LVL343:
 2036 0024 A047     		blx	r4
 2037              	.LVL344:
 2038              	.LBE43:
 509:Source\azure_iot_sdk\iothub_client\src/message_queue.c ****         result = NULL;
 2039              		.loc 1 509 0 is_stmt 1 discriminator 4
 2040 0026 0024     		movs	r4, #0
 2041              	.LVL345:
 2042 0028 67E0     		b	.L131
 2043              	.LVL346:
 2044              	.L130:
 510:Source\azure_iot_sdk\iothub_client\src/message_queue.c ****     }
 511:Source\azure_iot_sdk\iothub_client\src/message_queue.c ****     // Codes_SRS_MESSAGE_QUEUE_09_002: [If `config->on_process_message_callback` is NULL, message_q
 512:Source\azure_iot_sdk\iothub_client\src/message_queue.c ****     else if (config->on_process_message_callback == NULL)
 2045              		.loc 1 512 0
 2046 002a 0368     		ldr	r3, [r0]
 2047 002c 002B     		cmp	r3, #0
 2048 002e 0FD1     		bne	.L132
 2049              	.LBB44:
 513:Source\azure_iot_sdk\iothub_client\src/message_queue.c ****     {
 514:Source\azure_iot_sdk\iothub_client\src/message_queue.c ****         LogError("invalid configuration (on_process_message_callback is NULL)");
 2050              		.loc 1 514 0 discriminator 3
 2051 0030 FFF7FEFF 		bl	xlogging_get_log_function
 2052              	.LVL347:
 2053 0034 041E     		subs	r4, r0, #0
 2054              	.LVL348:
 2055 0036 5FD0     		beq	.L139
 2056              		.loc 1 514 0 is_stmt 0 discriminator 4
 2057 0038 344B     		ldr	r3, .L140+12
 2058 003a 0193     		str	r3, [sp, #4]
 2059 003c 0123     		movs	r3, #1
 2060 003e 0093     		str	r3, [sp]
 2061 0040 334B     		ldr	r3, .L140+16
 2062 0042 304A     		ldr	r2, .L140+4
 2063 0044 7432     		adds	r2, r2, #116
 2064 0046 3049     		ldr	r1, .L140+8
 2065 0048 0020     		movs	r0, #0
 2066              	.LVL349:
 2067 004a A047     		blx	r4
 2068              	.LVL350:
 2069              	.LBE44:
 515:Source\azure_iot_sdk\iothub_client\src/message_queue.c ****         result = NULL;
 2070              		.loc 1 515 0 is_stmt 1 discriminator 4
 2071 004c 0024     		movs	r4, #0
 2072              	.LVL351:
 2073 004e 54E0     		b	.L131
ARM GAS  C:\Users\Phuong\AppData\Local\Temp\ccaRXo0w.s 			page 49


 2074              	.LVL352:
 2075              	.L132:
 516:Source\azure_iot_sdk\iothub_client\src/message_queue.c ****     }
 517:Source\azure_iot_sdk\iothub_client\src/message_queue.c ****     // Codes_SRS_MESSAGE_QUEUE_09_004: [Memory shall be allocated for the MESSAGE_QUEUE data struct
 518:Source\azure_iot_sdk\iothub_client\src/message_queue.c ****     else if ((result = (MESSAGE_QUEUE*)malloc(sizeof(MESSAGE_QUEUE))) == NULL)
 2076              		.loc 1 518 0
 2077 0050 1C20     		movs	r0, #28
 2078              	.LVL353:
 2079 0052 FFF7FEFF 		bl	malloc
 2080              	.LVL354:
 2081 0056 041E     		subs	r4, r0, #0
 2082              	.LVL355:
 2083 0058 0ED1     		bne	.L133
 2084              	.LBB45:
 519:Source\azure_iot_sdk\iothub_client\src/message_queue.c ****     {
 520:Source\azure_iot_sdk\iothub_client\src/message_queue.c ****         // Codes_SRS_MESSAGE_QUEUE_09_005: [If `instance` cannot be allocated, message_queue_create
 521:Source\azure_iot_sdk\iothub_client\src/message_queue.c ****         LogError("failed allocating MESSAGE_QUEUE");
 2085              		.loc 1 521 0 discriminator 3
 2086 005a FFF7FEFF 		bl	xlogging_get_log_function
 2087              	.LVL356:
 2088 005e 051E     		subs	r5, r0, #0
 2089              	.LVL357:
 2090 0060 4BD0     		beq	.L131
 2091              		.loc 1 521 0 is_stmt 0 discriminator 4
 2092 0062 2C4B     		ldr	r3, .L140+20
 2093 0064 0193     		str	r3, [sp, #4]
 2094 0066 0123     		movs	r3, #1
 2095 0068 0093     		str	r3, [sp]
 2096 006a 2B4B     		ldr	r3, .L140+24
 2097 006c 254A     		ldr	r2, .L140+4
 2098 006e 7432     		adds	r2, r2, #116
 2099 0070 2549     		ldr	r1, .L140+8
 2100 0072 0020     		movs	r0, #0
 2101              	.LVL358:
 2102 0074 A847     		blx	r5
 2103              	.LVL359:
 2104 0076 40E0     		b	.L131
 2105              	.LVL360:
 2106              	.L133:
 2107              	.LBE45:
 522:Source\azure_iot_sdk\iothub_client\src/message_queue.c ****         result = NULL;
 523:Source\azure_iot_sdk\iothub_client\src/message_queue.c ****     }
 524:Source\azure_iot_sdk\iothub_client\src/message_queue.c ****     else
 525:Source\azure_iot_sdk\iothub_client\src/message_queue.c ****     {
 526:Source\azure_iot_sdk\iothub_client\src/message_queue.c ****         memset(result, 0, sizeof(MESSAGE_QUEUE));
 2108              		.loc 1 526 0 is_stmt 1
 2109 0078 1C22     		movs	r2, #28
 2110 007a 0021     		movs	r1, #0
 2111 007c FFF7FEFF 		bl	memset
 2112              	.LVL361:
 527:Source\azure_iot_sdk\iothub_client\src/message_queue.c **** 
 528:Source\azure_iot_sdk\iothub_client\src/message_queue.c ****         // Codes_SRS_MESSAGE_QUEUE_09_006: [`message_queue->pending` shall be set using singlylinke
 529:Source\azure_iot_sdk\iothub_client\src/message_queue.c ****         if ((result->pending = singlylinkedlist_create()) == NULL)
 2113              		.loc 1 529 0
 2114 0080 FFF7FEFF 		bl	singlylinkedlist_create
 2115              	.LVL362:
 2116 0084 6061     		str	r0, [r4, #20]
ARM GAS  C:\Users\Phuong\AppData\Local\Temp\ccaRXo0w.s 			page 50


 2117 0086 0028     		cmp	r0, #0
 2118 0088 13D1     		bne	.L134
 2119              	.LBB46:
 530:Source\azure_iot_sdk\iothub_client\src/message_queue.c ****         {
 531:Source\azure_iot_sdk\iothub_client\src/message_queue.c ****             // Codes_SRS_MESSAGE_QUEUE_09_007: [If singlylinkedlist_create fails, message_queue_cre
 532:Source\azure_iot_sdk\iothub_client\src/message_queue.c ****             LogError("failed allocating MESSAGE_QUEUE pending list");
 2120              		.loc 1 532 0 discriminator 3
 2121 008a FFF7FEFF 		bl	xlogging_get_log_function
 2122              	.LVL363:
 2123 008e 051E     		subs	r5, r0, #0
 2124              	.LVL364:
 2125 0090 0AD0     		beq	.L135
 2126              		.loc 1 532 0 is_stmt 0 discriminator 4
 2127 0092 224B     		ldr	r3, .L140+28
 2128 0094 0193     		str	r3, [sp, #4]
 2129 0096 0123     		movs	r3, #1
 2130 0098 0093     		str	r3, [sp]
 2131 009a 8523     		movs	r3, #133
 2132 009c 9B00     		lsls	r3, r3, #2
 2133 009e 194A     		ldr	r2, .L140+4
 2134 00a0 7432     		adds	r2, r2, #116
 2135 00a2 1949     		ldr	r1, .L140+8
 2136 00a4 0020     		movs	r0, #0
 2137              	.LVL365:
 2138 00a6 A847     		blx	r5
 2139              	.LVL366:
 2140              	.L135:
 2141              	.LBE46:
 533:Source\azure_iot_sdk\iothub_client\src/message_queue.c ****             // Codes_SRS_MESSAGE_QUEUE_09_011: [If any failures occur, message_queue_create shall r
 534:Source\azure_iot_sdk\iothub_client\src/message_queue.c ****             message_queue_destroy(result);
 2142              		.loc 1 534 0 is_stmt 1
 2143 00a8 2000     		movs	r0, r4
 2144 00aa FFF7FEFF 		bl	message_queue_destroy
 2145              	.LVL367:
 535:Source\azure_iot_sdk\iothub_client\src/message_queue.c ****             result = NULL;
 2146              		.loc 1 535 0
 2147 00ae 0024     		movs	r4, #0
 2148 00b0 23E0     		b	.L131
 2149              	.LVL368:
 2150              	.L134:
 536:Source\azure_iot_sdk\iothub_client\src/message_queue.c ****         }
 537:Source\azure_iot_sdk\iothub_client\src/message_queue.c ****         // Codes_SRS_MESSAGE_QUEUE_09_008: [`message_queue->in_progress` shall be set using singlyl
 538:Source\azure_iot_sdk\iothub_client\src/message_queue.c ****         else if ((result->in_progress = singlylinkedlist_create()) == NULL)
 2151              		.loc 1 538 0
 2152 00b2 FFF7FEFF 		bl	singlylinkedlist_create
 2153              	.LVL369:
 2154 00b6 A061     		str	r0, [r4, #24]
 2155 00b8 0028     		cmp	r0, #0
 2156 00ba 12D1     		bne	.L136
 2157              	.LBB47:
 539:Source\azure_iot_sdk\iothub_client\src/message_queue.c ****         {
 540:Source\azure_iot_sdk\iothub_client\src/message_queue.c ****             // Codes_SRS_MESSAGE_QUEUE_09_009: [If singlylinkedlist_create fails, message_queue_cre
 541:Source\azure_iot_sdk\iothub_client\src/message_queue.c ****             LogError("failed allocating MESSAGE_QUEUE in-progress list");
 2158              		.loc 1 541 0 discriminator 3
 2159 00bc FFF7FEFF 		bl	xlogging_get_log_function
 2160              	.LVL370:
 2161 00c0 051E     		subs	r5, r0, #0
ARM GAS  C:\Users\Phuong\AppData\Local\Temp\ccaRXo0w.s 			page 51


 2162              	.LVL371:
 2163 00c2 09D0     		beq	.L137
 2164              		.loc 1 541 0 is_stmt 0 discriminator 4
 2165 00c4 164B     		ldr	r3, .L140+32
 2166 00c6 0193     		str	r3, [sp, #4]
 2167 00c8 0123     		movs	r3, #1
 2168 00ca 0093     		str	r3, [sp]
 2169 00cc 154B     		ldr	r3, .L140+36
 2170 00ce 0D4A     		ldr	r2, .L140+4
 2171 00d0 7432     		adds	r2, r2, #116
 2172 00d2 0D49     		ldr	r1, .L140+8
 2173 00d4 0020     		movs	r0, #0
 2174              	.LVL372:
 2175 00d6 A847     		blx	r5
 2176              	.LVL373:
 2177              	.L137:
 2178              	.LBE47:
 542:Source\azure_iot_sdk\iothub_client\src/message_queue.c ****             // Codes_SRS_MESSAGE_QUEUE_09_011: [If any failures occur, message_queue_create shall r
 543:Source\azure_iot_sdk\iothub_client\src/message_queue.c ****             message_queue_destroy(result);
 2179              		.loc 1 543 0 is_stmt 1
 2180 00d8 2000     		movs	r0, r4
 2181 00da FFF7FEFF 		bl	message_queue_destroy
 2182              	.LVL374:
 544:Source\azure_iot_sdk\iothub_client\src/message_queue.c ****             result = NULL;
 2183              		.loc 1 544 0
 2184 00de 0024     		movs	r4, #0
 2185 00e0 0BE0     		b	.L131
 2186              	.LVL375:
 2187              	.L136:
 545:Source\azure_iot_sdk\iothub_client\src/message_queue.c ****         }
 546:Source\azure_iot_sdk\iothub_client\src/message_queue.c ****         else
 547:Source\azure_iot_sdk\iothub_client\src/message_queue.c ****         {
 548:Source\azure_iot_sdk\iothub_client\src/message_queue.c ****             // Codes_SRS_MESSAGE_QUEUE_09_010: [All arguments in `config` shall be saved into `mess
 549:Source\azure_iot_sdk\iothub_client\src/message_queue.c ****             // Codes_SRS_MESSAGE_QUEUE_09_012: [If no failures occur, message_queue_create shall re
 550:Source\azure_iot_sdk\iothub_client\src/message_queue.c **** 
 551:Source\azure_iot_sdk\iothub_client\src/message_queue.c ****             result->max_message_enqueued_time_secs = config->max_message_enqueued_time_secs;
 2188              		.loc 1 551 0
 2189 00e2 6B68     		ldr	r3, [r5, #4]
 2190 00e4 2360     		str	r3, [r4]
 552:Source\azure_iot_sdk\iothub_client\src/message_queue.c ****             result->max_message_processing_time_secs = config->max_message_processing_time_secs;
 2191              		.loc 1 552 0
 2192 00e6 AB68     		ldr	r3, [r5, #8]
 2193 00e8 6360     		str	r3, [r4, #4]
 553:Source\azure_iot_sdk\iothub_client\src/message_queue.c ****             result->max_retry_count = config->max_retry_count;
 2194              		.loc 1 553 0
 2195 00ea EB68     		ldr	r3, [r5, #12]
 2196 00ec A360     		str	r3, [r4, #8]
 554:Source\azure_iot_sdk\iothub_client\src/message_queue.c ****             result->on_process_message_callback = config->on_process_message_callback;
 2197              		.loc 1 554 0
 2198 00ee 2B68     		ldr	r3, [r5]
 2199 00f0 E360     		str	r3, [r4, #12]
 2200 00f2 02E0     		b	.L131
 2201              	.LVL376:
 2202              	.L138:
 509:Source\azure_iot_sdk\iothub_client\src/message_queue.c ****     }
 2203              		.loc 1 509 0
 2204 00f4 0024     		movs	r4, #0
ARM GAS  C:\Users\Phuong\AppData\Local\Temp\ccaRXo0w.s 			page 52


 2205 00f6 00E0     		b	.L131
 2206              	.LVL377:
 2207              	.L139:
 515:Source\azure_iot_sdk\iothub_client\src/message_queue.c ****     }
 2208              		.loc 1 515 0
 2209 00f8 0024     		movs	r4, #0
 2210              	.LVL378:
 2211              	.L131:
 555:Source\azure_iot_sdk\iothub_client\src/message_queue.c ****         }
 556:Source\azure_iot_sdk\iothub_client\src/message_queue.c ****     }
 557:Source\azure_iot_sdk\iothub_client\src/message_queue.c **** 
 558:Source\azure_iot_sdk\iothub_client\src/message_queue.c ****     return result;
 559:Source\azure_iot_sdk\iothub_client\src/message_queue.c **** }
 2212              		.loc 1 559 0
 2213 00fa 2000     		movs	r0, r4
 2214 00fc 03B0     		add	sp, sp, #12
 2215              		@ sp needed
 2216              	.LVL379:
 2217 00fe 30BD     		pop	{r4, r5, pc}
 2218              	.L141:
 2219              		.align	2
 2220              	.L140:
 2221 0100 90040000 		.word	.LC74
 2222 0104 80000000 		.word	.LANCHOR1
 2223 0108 00000000 		.word	.LC1
 2224 010c B0040000 		.word	.LC76
 2225 0110 02020000 		.word	514
 2226 0114 EC040000 		.word	.LC78
 2227 0118 09020000 		.word	521
 2228 011c 0C050000 		.word	.LC80
 2229 0120 3C050000 		.word	.LC82
 2230 0124 1D020000 		.word	541
 2231              		.cfi_endproc
 2232              	.LFE15:
 2233              		.size	message_queue_create, .-message_queue_create
 2234              		.section	.text.message_queue_add,"ax",%progbits
 2235              		.align	2
 2236              		.global	message_queue_add
 2237              		.code	16
 2238              		.thumb_func
 2239              		.type	message_queue_add, %function
 2240              	message_queue_add:
 2241              	.LFB16:
 560:Source\azure_iot_sdk\iothub_client\src/message_queue.c **** 
 561:Source\azure_iot_sdk\iothub_client\src/message_queue.c **** int message_queue_add(MESSAGE_QUEUE_HANDLE message_queue, MQ_MESSAGE_HANDLE message, MESSAGE_PROCES
 562:Source\azure_iot_sdk\iothub_client\src/message_queue.c **** {
 2242              		.loc 1 562 0
 2243              		.cfi_startproc
 2244              		@ args = 0, pretend = 0, frame = 8
 2245              		@ frame_needed = 0, uses_anonymous_args = 0
 2246              	.LVL380:
 2247 0000 F0B5     		push	{r4, r5, r6, r7, lr}
 2248              		.cfi_def_cfa_offset 20
 2249              		.cfi_offset 4, -20
 2250              		.cfi_offset 5, -16
 2251              		.cfi_offset 6, -12
 2252              		.cfi_offset 7, -8
ARM GAS  C:\Users\Phuong\AppData\Local\Temp\ccaRXo0w.s 			page 53


 2253              		.cfi_offset 14, -4
 2254 0002 87B0     		sub	sp, sp, #28
 2255              		.cfi_def_cfa_offset 48
 2256 0004 0500     		movs	r5, r0
 2257 0006 0E00     		movs	r6, r1
 2258 0008 1700     		movs	r7, r2
 2259 000a 0593     		str	r3, [sp, #20]
 563:Source\azure_iot_sdk\iothub_client\src/message_queue.c ****     int result;
 564:Source\azure_iot_sdk\iothub_client\src/message_queue.c **** 
 565:Source\azure_iot_sdk\iothub_client\src/message_queue.c ****     // Codes_SRS_MESSAGE_QUEUE_09_016: [If `message_queue` or `message` are NULL, message_queue_add
 566:Source\azure_iot_sdk\iothub_client\src/message_queue.c ****     if (message_queue == NULL || message == NULL)
 2260              		.loc 1 566 0
 2261 000c 0028     		cmp	r0, #0
 2262 000e 01D0     		beq	.L143
 2263              		.loc 1 566 0 is_stmt 0 discriminator 1
 2264 0010 0029     		cmp	r1, #0
 2265 0012 12D1     		bne	.L144
 2266              	.L143:
 2267              	.LBB48:
 567:Source\azure_iot_sdk\iothub_client\src/message_queue.c ****     {
 568:Source\azure_iot_sdk\iothub_client\src/message_queue.c ****         LogError("invalid argument (message_queue=%p, message=%p)", message_queue, message);
 2268              		.loc 1 568 0 is_stmt 1 discriminator 3
 2269 0014 FFF7FEFF 		bl	xlogging_get_log_function
 2270              	.LVL381:
 2271 0018 041E     		subs	r4, r0, #0
 2272              	.LVL382:
 2273 001a 63D0     		beq	.L151
 2274              		.loc 1 568 0 is_stmt 0 discriminator 4
 2275 001c 0396     		str	r6, [sp, #12]
 2276 001e 0295     		str	r5, [sp, #8]
 2277 0020 334B     		ldr	r3, .L153
 2278 0022 0193     		str	r3, [sp, #4]
 2279 0024 0123     		movs	r3, #1
 2280 0026 0093     		str	r3, [sp]
 2281 0028 8E23     		movs	r3, #142
 2282 002a 9B00     		lsls	r3, r3, #2
 2283 002c 314A     		ldr	r2, .L153+4
 2284 002e 0C32     		adds	r2, r2, #12
 2285 0030 3149     		ldr	r1, .L153+8
 2286 0032 0020     		movs	r0, #0
 2287              	.LVL383:
 2288 0034 A047     		blx	r4
 2289              	.LVL384:
 2290              	.LBE48:
 569:Source\azure_iot_sdk\iothub_client\src/message_queue.c ****         result = __FAILURE__;
 2291              		.loc 1 569 0 is_stmt 1 discriminator 4
 2292 0036 3148     		ldr	r0, .L153+12
 2293 0038 58E0     		b	.L145
 2294              	.LVL385:
 2295              	.L144:
 2296              	.LBB49:
 570:Source\azure_iot_sdk\iothub_client\src/message_queue.c ****     }
 571:Source\azure_iot_sdk\iothub_client\src/message_queue.c ****     else
 572:Source\azure_iot_sdk\iothub_client\src/message_queue.c ****     {
 573:Source\azure_iot_sdk\iothub_client\src/message_queue.c ****         MESSAGE_QUEUE_ITEM* mq_item;
 574:Source\azure_iot_sdk\iothub_client\src/message_queue.c **** 
 575:Source\azure_iot_sdk\iothub_client\src/message_queue.c ****         // Codes_SRS_MESSAGE_QUEUE_09_017: [message_queue_add shall allocate a structure (aka `mq_i
ARM GAS  C:\Users\Phuong\AppData\Local\Temp\ccaRXo0w.s 			page 54


 576:Source\azure_iot_sdk\iothub_client\src/message_queue.c ****         if ((mq_item = (MESSAGE_QUEUE_ITEM*)malloc(sizeof(MESSAGE_QUEUE_ITEM))) == NULL)
 2297              		.loc 1 576 0
 2298 003a 1820     		movs	r0, #24
 2299              	.LVL386:
 2300 003c FFF7FEFF 		bl	malloc
 2301              	.LVL387:
 2302 0040 041E     		subs	r4, r0, #0
 2303              	.LVL388:
 2304 0042 10D1     		bne	.L146
 2305              	.LBB50:
 577:Source\azure_iot_sdk\iothub_client\src/message_queue.c ****         {
 578:Source\azure_iot_sdk\iothub_client\src/message_queue.c ****             // Codes_SRS_MESSAGE_QUEUE_09_018: [If `mq_item` cannot be allocated, message_queue_add
 579:Source\azure_iot_sdk\iothub_client\src/message_queue.c ****             LogError("failed creating container for message");
 2306              		.loc 1 579 0 discriminator 3
 2307 0044 FFF7FEFF 		bl	xlogging_get_log_function
 2308              	.LVL389:
 2309 0048 041E     		subs	r4, r0, #0
 2310              	.LVL390:
 2311 004a 4DD0     		beq	.L152
 2312              		.loc 1 579 0 is_stmt 0 discriminator 4
 2313 004c 2C4B     		ldr	r3, .L153+16
 2314 004e 0193     		str	r3, [sp, #4]
 2315 0050 0123     		movs	r3, #1
 2316 0052 0093     		str	r3, [sp]
 2317 0054 2B4B     		ldr	r3, .L153+20
 2318 0056 274A     		ldr	r2, .L153+4
 2319 0058 0C32     		adds	r2, r2, #12
 2320 005a 2749     		ldr	r1, .L153+8
 2321 005c 0020     		movs	r0, #0
 2322              	.LVL391:
 2323 005e A047     		blx	r4
 2324              	.LVL392:
 2325              	.LBE50:
 580:Source\azure_iot_sdk\iothub_client\src/message_queue.c ****             result = __FAILURE__;
 2326              		.loc 1 580 0 is_stmt 1 discriminator 4
 2327 0060 9120     		movs	r0, #145
 2328 0062 8000     		lsls	r0, r0, #2
 2329 0064 42E0     		b	.L145
 2330              	.LVL393:
 2331              	.L146:
 581:Source\azure_iot_sdk\iothub_client\src/message_queue.c ****         }
 582:Source\azure_iot_sdk\iothub_client\src/message_queue.c ****         else
 583:Source\azure_iot_sdk\iothub_client\src/message_queue.c ****         {
 584:Source\azure_iot_sdk\iothub_client\src/message_queue.c ****             memset(mq_item, 0, sizeof(MESSAGE_QUEUE_ITEM));
 2332              		.loc 1 584 0
 2333 0066 1822     		movs	r2, #24
 2334 0068 0021     		movs	r1, #0
 2335 006a FFF7FEFF 		bl	memset
 2336              	.LVL394:
 585:Source\azure_iot_sdk\iothub_client\src/message_queue.c **** 
 586:Source\azure_iot_sdk\iothub_client\src/message_queue.c ****             // Codes_SRS_MESSAGE_QUEUE_09_019: [`mq_item->enqueue_time` shall be set using get_time
 587:Source\azure_iot_sdk\iothub_client\src/message_queue.c ****             if ((mq_item->enqueue_time = get_time(NULL)) == INDEFINITE_TIME)
 2337              		.loc 1 587 0
 2338 006e 0020     		movs	r0, #0
 2339 0070 FFF7FEFF 		bl	get_time
 2340              	.LVL395:
 2341 0074 E060     		str	r0, [r4, #12]
ARM GAS  C:\Users\Phuong\AppData\Local\Temp\ccaRXo0w.s 			page 55


 2342 0076 431C     		adds	r3, r0, #1
 2343 0078 12D1     		bne	.L147
 2344              	.LBB51:
 588:Source\azure_iot_sdk\iothub_client\src/message_queue.c ****             {
 589:Source\azure_iot_sdk\iothub_client\src/message_queue.c ****                 // Codes_SRS_MESSAGE_QUEUE_09_020: [If get_time fails, message_queue_add shall fail
 590:Source\azure_iot_sdk\iothub_client\src/message_queue.c ****                 LogError("failed setting message enqueue time");
 2345              		.loc 1 590 0 discriminator 3
 2346 007a FFF7FEFF 		bl	xlogging_get_log_function
 2347              	.LVL396:
 2348 007e 051E     		subs	r5, r0, #0
 2349              	.LVL397:
 2350 0080 09D0     		beq	.L148
 2351              		.loc 1 590 0 is_stmt 0 discriminator 4
 2352 0082 214B     		ldr	r3, .L153+24
 2353 0084 0193     		str	r3, [sp, #4]
 2354 0086 0123     		movs	r3, #1
 2355 0088 0093     		str	r3, [sp]
 2356 008a 204B     		ldr	r3, .L153+28
 2357 008c 194A     		ldr	r2, .L153+4
 2358 008e 0C32     		adds	r2, r2, #12
 2359 0090 1949     		ldr	r1, .L153+8
 2360 0092 0020     		movs	r0, #0
 2361              	.LVL398:
 2362 0094 A847     		blx	r5
 2363              	.LVL399:
 2364              	.L148:
 2365              	.LBE51:
 591:Source\azure_iot_sdk\iothub_client\src/message_queue.c ****                 // Codes_SRS_MESSAGE_QUEUE_09_024: [If any failures occur, message_queue_add shall 
 592:Source\azure_iot_sdk\iothub_client\src/message_queue.c ****                 free(mq_item);
 2366              		.loc 1 592 0 is_stmt 1
 2367 0096 2000     		movs	r0, r4
 2368 0098 FFF7FEFF 		bl	free
 2369              	.LVL400:
 593:Source\azure_iot_sdk\iothub_client\src/message_queue.c ****                 result = __FAILURE__;
 2370              		.loc 1 593 0
 2371 009c 1C48     		ldr	r0, .L153+32
 2372 009e 25E0     		b	.L145
 2373              	.LVL401:
 2374              	.L147:
 594:Source\azure_iot_sdk\iothub_client\src/message_queue.c ****             }
 595:Source\azure_iot_sdk\iothub_client\src/message_queue.c ****             // Codes_SRS_MESSAGE_QUEUE_09_021: [`mq_item` shall be added to `message_queue->pending
 596:Source\azure_iot_sdk\iothub_client\src/message_queue.c ****             else if (singlylinkedlist_add(message_queue->pending, (const void*)mq_item) == NULL)
 2375              		.loc 1 596 0
 2376 00a0 6869     		ldr	r0, [r5, #20]
 2377 00a2 2100     		movs	r1, r4
 2378 00a4 FFF7FEFF 		bl	singlylinkedlist_add
 2379              	.LVL402:
 2380 00a8 0028     		cmp	r0, #0
 2381 00aa 12D1     		bne	.L149
 2382              	.LBB52:
 597:Source\azure_iot_sdk\iothub_client\src/message_queue.c ****             {
 598:Source\azure_iot_sdk\iothub_client\src/message_queue.c ****                 // Codes_SRS_MESSAGE_QUEUE_09_022: [`mq_item` fails to be added to `message_queue->
 599:Source\azure_iot_sdk\iothub_client\src/message_queue.c ****                 LogError("failed enqueing message");
 2383              		.loc 1 599 0 discriminator 3
 2384 00ac FFF7FEFF 		bl	xlogging_get_log_function
 2385              	.LVL403:
 2386 00b0 051E     		subs	r5, r0, #0
ARM GAS  C:\Users\Phuong\AppData\Local\Temp\ccaRXo0w.s 			page 56


 2387              	.LVL404:
 2388 00b2 09D0     		beq	.L150
 2389              		.loc 1 599 0 is_stmt 0 discriminator 4
 2390 00b4 174B     		ldr	r3, .L153+36
 2391 00b6 0193     		str	r3, [sp, #4]
 2392 00b8 0123     		movs	r3, #1
 2393 00ba 0093     		str	r3, [sp]
 2394 00bc 164B     		ldr	r3, .L153+40
 2395 00be 0D4A     		ldr	r2, .L153+4
 2396 00c0 0C32     		adds	r2, r2, #12
 2397 00c2 0D49     		ldr	r1, .L153+8
 2398 00c4 0020     		movs	r0, #0
 2399              	.LVL405:
 2400 00c6 A847     		blx	r5
 2401              	.LVL406:
 2402              	.L150:
 2403              	.LBE52:
 600:Source\azure_iot_sdk\iothub_client\src/message_queue.c ****                 // Codes_SRS_MESSAGE_QUEUE_09_024: [If any failures occur, message_queue_add shall 
 601:Source\azure_iot_sdk\iothub_client\src/message_queue.c ****                 free(mq_item);
 2404              		.loc 1 601 0 is_stmt 1
 2405 00c8 2000     		movs	r0, r4
 2406 00ca FFF7FEFF 		bl	free
 2407              	.LVL407:
 602:Source\azure_iot_sdk\iothub_client\src/message_queue.c ****                 result = __FAILURE__;
 2408              		.loc 1 602 0
 2409 00ce 1348     		ldr	r0, .L153+44
 2410 00d0 0CE0     		b	.L145
 2411              	.LVL408:
 2412              	.L149:
 603:Source\azure_iot_sdk\iothub_client\src/message_queue.c ****             }
 604:Source\azure_iot_sdk\iothub_client\src/message_queue.c ****             else
 605:Source\azure_iot_sdk\iothub_client\src/message_queue.c ****             {
 606:Source\azure_iot_sdk\iothub_client\src/message_queue.c ****                 // Codes_SRS_MESSAGE_QUEUE_09_023: [`message` shall be saved into `mq_item->message
 607:Source\azure_iot_sdk\iothub_client\src/message_queue.c ****                 mq_item->message = message;
 2413              		.loc 1 607 0
 2414 00d2 2660     		str	r6, [r4]
 608:Source\azure_iot_sdk\iothub_client\src/message_queue.c ****                 mq_item->on_message_processing_completed_callback = on_message_processing_completed
 2415              		.loc 1 608 0
 2416 00d4 6760     		str	r7, [r4, #4]
 609:Source\azure_iot_sdk\iothub_client\src/message_queue.c ****                 mq_item->user_context = user_context;
 2417              		.loc 1 609 0
 2418 00d6 059B     		ldr	r3, [sp, #20]
 2419 00d8 A360     		str	r3, [r4, #8]
 610:Source\azure_iot_sdk\iothub_client\src/message_queue.c ****                 mq_item->processing_start_time = INDEFINITE_TIME;
 2420              		.loc 1 610 0
 2421 00da 0123     		movs	r3, #1
 2422 00dc 5B42     		rsbs	r3, r3, #0
 2423 00de 2361     		str	r3, [r4, #16]
 2424              	.LVL409:
 611:Source\azure_iot_sdk\iothub_client\src/message_queue.c ****                 // Codes_SRS_MESSAGE_QUEUE_09_025: [If no failures occur, message_queue_add shall r
 612:Source\azure_iot_sdk\iothub_client\src/message_queue.c ****                 result = RESULT_OK;
 2425              		.loc 1 612 0
 2426 00e0 0020     		movs	r0, #0
 2427 00e2 03E0     		b	.L145
 2428              	.LVL410:
 2429              	.L151:
 2430              	.LBE49:
ARM GAS  C:\Users\Phuong\AppData\Local\Temp\ccaRXo0w.s 			page 57


 569:Source\azure_iot_sdk\iothub_client\src/message_queue.c ****     }
 2431              		.loc 1 569 0
 2432 00e4 0548     		ldr	r0, .L153+12
 2433              	.LVL411:
 2434 00e6 01E0     		b	.L145
 2435              	.LVL412:
 2436              	.L152:
 2437              	.LBB53:
 580:Source\azure_iot_sdk\iothub_client\src/message_queue.c ****         }
 2438              		.loc 1 580 0
 2439 00e8 9120     		movs	r0, #145
 2440              	.LVL413:
 2441 00ea 8000     		lsls	r0, r0, #2
 2442              	.LVL414:
 2443              	.L145:
 2444              	.LBE53:
 613:Source\azure_iot_sdk\iothub_client\src/message_queue.c ****             }
 614:Source\azure_iot_sdk\iothub_client\src/message_queue.c ****         }
 615:Source\azure_iot_sdk\iothub_client\src/message_queue.c ****     }
 616:Source\azure_iot_sdk\iothub_client\src/message_queue.c **** 
 617:Source\azure_iot_sdk\iothub_client\src/message_queue.c ****     return result;
 618:Source\azure_iot_sdk\iothub_client\src/message_queue.c **** }
 2445              		.loc 1 618 0
 2446 00ec 07B0     		add	sp, sp, #28
 2447              		@ sp needed
 2448              	.LVL415:
 2449              	.LVL416:
 2450 00ee F0BD     		pop	{r4, r5, r6, r7, pc}
 2451              	.L154:
 2452              		.align	2
 2453              	.L153:
 2454 00f0 70050000 		.word	.LC86
 2455 00f4 00010000 		.word	.LANCHOR2
 2456 00f8 00000000 		.word	.LC1
 2457 00fc 39020000 		.word	569
 2458 0100 A0050000 		.word	.LC88
 2459 0104 43020000 		.word	579
 2460 0108 C8050000 		.word	.LC90
 2461 010c 4E020000 		.word	590
 2462 0110 51020000 		.word	593
 2463 0114 EC050000 		.word	.LC92
 2464 0118 57020000 		.word	599
 2465 011c 5A020000 		.word	602
 2466              		.cfi_endproc
 2467              	.LFE16:
 2468              		.size	message_queue_add, .-message_queue_add
 2469              		.section	.text.message_queue_is_empty,"ax",%progbits
 2470              		.align	2
 2471              		.global	message_queue_is_empty
 2472              		.code	16
 2473              		.thumb_func
 2474              		.type	message_queue_is_empty, %function
 2475              	message_queue_is_empty:
 2476              	.LFB17:
 619:Source\azure_iot_sdk\iothub_client\src/message_queue.c **** 
 620:Source\azure_iot_sdk\iothub_client\src/message_queue.c **** int message_queue_is_empty(MESSAGE_QUEUE_HANDLE message_queue, bool* is_empty)
 621:Source\azure_iot_sdk\iothub_client\src/message_queue.c **** {
ARM GAS  C:\Users\Phuong\AppData\Local\Temp\ccaRXo0w.s 			page 58


 2477              		.loc 1 621 0
 2478              		.cfi_startproc
 2479              		@ args = 0, pretend = 0, frame = 0
 2480              		@ frame_needed = 0, uses_anonymous_args = 0
 2481              	.LVL417:
 2482 0000 70B5     		push	{r4, r5, r6, lr}
 2483              		.cfi_def_cfa_offset 16
 2484              		.cfi_offset 4, -16
 2485              		.cfi_offset 5, -12
 2486              		.cfi_offset 6, -8
 2487              		.cfi_offset 14, -4
 2488 0002 84B0     		sub	sp, sp, #16
 2489              		.cfi_def_cfa_offset 32
 2490 0004 0400     		movs	r4, r0
 2491 0006 0D00     		movs	r5, r1
 622:Source\azure_iot_sdk\iothub_client\src/message_queue.c ****     int result;
 623:Source\azure_iot_sdk\iothub_client\src/message_queue.c **** 
 624:Source\azure_iot_sdk\iothub_client\src/message_queue.c ****     // Codes_SRS_MESSAGE_QUEUE_09_030: [If `message_queue` or `is_empty` are NULL, message_queue_is
 625:Source\azure_iot_sdk\iothub_client\src/message_queue.c ****     if (message_queue == NULL || is_empty == NULL)
 2492              		.loc 1 625 0
 2493 0008 0028     		cmp	r0, #0
 2494 000a 01D0     		beq	.L156
 2495              		.loc 1 625 0 is_stmt 0 discriminator 1
 2496 000c 0029     		cmp	r1, #0
 2497 000e 12D1     		bne	.L157
 2498              	.L156:
 2499              	.LBB54:
 626:Source\azure_iot_sdk\iothub_client\src/message_queue.c ****     {
 627:Source\azure_iot_sdk\iothub_client\src/message_queue.c ****         LogError("invalid argument (message_queue=%p, is_empty=%p)", message_queue, is_empty);
 2500              		.loc 1 627 0 is_stmt 1 discriminator 3
 2501 0010 FFF7FEFF 		bl	xlogging_get_log_function
 2502              	.LVL418:
 2503 0014 061E     		subs	r6, r0, #0
 2504              	.LVL419:
 2505 0016 20D0     		beq	.L160
 2506              		.loc 1 627 0 is_stmt 0 discriminator 4
 2507 0018 0395     		str	r5, [sp, #12]
 2508 001a 0294     		str	r4, [sp, #8]
 2509 001c 114B     		ldr	r3, .L163
 2510 001e 0193     		str	r3, [sp, #4]
 2511 0020 0123     		movs	r3, #1
 2512 0022 0093     		str	r3, [sp]
 2513 0024 104B     		ldr	r3, .L163+4
 2514 0026 114A     		ldr	r2, .L163+8
 2515 0028 2032     		adds	r2, r2, #32
 2516 002a 1149     		ldr	r1, .L163+12
 2517 002c 0020     		movs	r0, #0
 2518              	.LVL420:
 2519 002e B047     		blx	r6
 2520              	.LVL421:
 2521              	.LBE54:
 628:Source\azure_iot_sdk\iothub_client\src/message_queue.c ****         result = __FAILURE__;
 2522              		.loc 1 628 0 is_stmt 1 discriminator 4
 2523 0030 9D20     		movs	r0, #157
 2524 0032 8000     		lsls	r0, r0, #2
 2525 0034 13E0     		b	.L158
 2526              	.LVL422:
ARM GAS  C:\Users\Phuong\AppData\Local\Temp\ccaRXo0w.s 			page 59


 2527              	.L157:
 629:Source\azure_iot_sdk\iothub_client\src/message_queue.c ****     }
 630:Source\azure_iot_sdk\iothub_client\src/message_queue.c ****     else
 631:Source\azure_iot_sdk\iothub_client\src/message_queue.c ****     {
 632:Source\azure_iot_sdk\iothub_client\src/message_queue.c ****         // Codes_SRS_MESSAGE_QUEUE_09_031: [If `message_queue->pending` and `message_queue->in_prog
 633:Source\azure_iot_sdk\iothub_client\src/message_queue.c ****         // Codes_SRS_MESSAGE_QUEUE_09_032: [Otherwise `is_empty` shall be set to false]
 634:Source\azure_iot_sdk\iothub_client\src/message_queue.c ****         *is_empty = (singlylinkedlist_get_head_item(message_queue->pending) == NULL && singlylinked
 2528              		.loc 1 634 0
 2529 0036 4069     		ldr	r0, [r0, #20]
 2530              	.LVL423:
 2531 0038 FFF7FEFF 		bl	singlylinkedlist_get_head_item
 2532              	.LVL424:
 2533 003c 0028     		cmp	r0, #0
 2534 003e 06D1     		bne	.L161
 2535              		.loc 1 634 0 is_stmt 0 discriminator 1
 2536 0040 A069     		ldr	r0, [r4, #24]
 2537 0042 FFF7FEFF 		bl	singlylinkedlist_get_head_item
 2538              	.LVL425:
 2539 0046 0028     		cmp	r0, #0
 2540 0048 03D1     		bne	.L162
 2541              		.loc 1 634 0
 2542 004a 0123     		movs	r3, #1
 2543 004c 02E0     		b	.L159
 2544              	.L161:
 2545 004e 0023     		movs	r3, #0
 2546 0050 00E0     		b	.L159
 2547              	.L162:
 2548 0052 0023     		movs	r3, #0
 2549              	.L159:
 2550              		.loc 1 634 0 discriminator 6
 2551 0054 2B70     		strb	r3, [r5]
 2552              	.LVL426:
 635:Source\azure_iot_sdk\iothub_client\src/message_queue.c ****         // Codes_SRS_MESSAGE_QUEUE_09_033: [If no failures occur, message_queue_is_empty shall retu
 636:Source\azure_iot_sdk\iothub_client\src/message_queue.c ****         result = RESULT_OK;
 2553              		.loc 1 636 0 is_stmt 1 discriminator 6
 2554 0056 0020     		movs	r0, #0
 2555 0058 01E0     		b	.L158
 2556              	.LVL427:
 2557              	.L160:
 628:Source\azure_iot_sdk\iothub_client\src/message_queue.c ****     }
 2558              		.loc 1 628 0
 2559 005a 9D20     		movs	r0, #157
 2560              	.LVL428:
 2561 005c 8000     		lsls	r0, r0, #2
 2562              	.LVL429:
 2563              	.L158:
 637:Source\azure_iot_sdk\iothub_client\src/message_queue.c ****     }
 638:Source\azure_iot_sdk\iothub_client\src/message_queue.c **** 
 639:Source\azure_iot_sdk\iothub_client\src/message_queue.c ****     return result;
 640:Source\azure_iot_sdk\iothub_client\src/message_queue.c **** }
 2564              		.loc 1 640 0
 2565 005e 04B0     		add	sp, sp, #16
 2566              		@ sp needed
 2567              	.LVL430:
 2568              	.LVL431:
 2569 0060 70BD     		pop	{r4, r5, r6, pc}
 2570              	.L164:
ARM GAS  C:\Users\Phuong\AppData\Local\Temp\ccaRXo0w.s 			page 60


 2571 0062 C046     		.align	2
 2572              	.L163:
 2573 0064 04060000 		.word	.LC96
 2574 0068 73020000 		.word	627
 2575 006c 00010000 		.word	.LANCHOR2
 2576 0070 00000000 		.word	.LC1
 2577              		.cfi_endproc
 2578              	.LFE17:
 2579              		.size	message_queue_is_empty, .-message_queue_is_empty
 2580              		.section	.text.message_queue_do_work,"ax",%progbits
 2581              		.align	2
 2582              		.global	message_queue_do_work
 2583              		.code	16
 2584              		.thumb_func
 2585              		.type	message_queue_do_work, %function
 2586              	message_queue_do_work:
 2587              	.LFB18:
 641:Source\azure_iot_sdk\iothub_client\src/message_queue.c **** 
 642:Source\azure_iot_sdk\iothub_client\src/message_queue.c **** void message_queue_do_work(MESSAGE_QUEUE_HANDLE message_queue)
 643:Source\azure_iot_sdk\iothub_client\src/message_queue.c **** {
 2588              		.loc 1 643 0
 2589              		.cfi_startproc
 2590              		@ args = 0, pretend = 0, frame = 0
 2591              		@ frame_needed = 0, uses_anonymous_args = 0
 2592              	.LVL432:
 2593 0000 10B5     		push	{r4, lr}
 2594              		.cfi_def_cfa_offset 8
 2595              		.cfi_offset 4, -8
 2596              		.cfi_offset 14, -4
 2597 0002 041E     		subs	r4, r0, #0
 644:Source\azure_iot_sdk\iothub_client\src/message_queue.c ****     // Codes_SRS_MESSAGE_QUEUE_09_034: [If `message_queue` is NULL, message_queue_do_work shall ret
 645:Source\azure_iot_sdk\iothub_client\src/message_queue.c ****     if (message_queue != NULL)
 2598              		.loc 1 645 0
 2599 0004 04D0     		beq	.L165
 646:Source\azure_iot_sdk\iothub_client\src/message_queue.c ****     {
 647:Source\azure_iot_sdk\iothub_client\src/message_queue.c ****         process_timeouts(message_queue);
 2600              		.loc 1 647 0
 2601 0006 FFF7FEFF 		bl	process_timeouts
 2602              	.LVL433:
 648:Source\azure_iot_sdk\iothub_client\src/message_queue.c ****         process_pending_messages(message_queue);
 2603              		.loc 1 648 0
 2604 000a 2000     		movs	r0, r4
 2605 000c FFF7FEFF 		bl	process_pending_messages
 2606              	.LVL434:
 2607              	.L165:
 649:Source\azure_iot_sdk\iothub_client\src/message_queue.c ****     }
 650:Source\azure_iot_sdk\iothub_client\src/message_queue.c **** }
 2608              		.loc 1 650 0
 2609              		@ sp needed
 2610              	.LVL435:
 2611 0010 10BD     		pop	{r4, pc}
 2612              		.cfi_endproc
 2613              	.LFE18:
 2614              		.size	message_queue_do_work, .-message_queue_do_work
 2615 0012 C046     		.section	.text.message_queue_set_max_message_enqueued_time_secs,"ax",%progbits
 2616              		.align	2
 2617              		.global	message_queue_set_max_message_enqueued_time_secs
ARM GAS  C:\Users\Phuong\AppData\Local\Temp\ccaRXo0w.s 			page 61


 2618              		.code	16
 2619              		.thumb_func
 2620              		.type	message_queue_set_max_message_enqueued_time_secs, %function
 2621              	message_queue_set_max_message_enqueued_time_secs:
 2622              	.LFB19:
 651:Source\azure_iot_sdk\iothub_client\src/message_queue.c **** 
 652:Source\azure_iot_sdk\iothub_client\src/message_queue.c **** int message_queue_set_max_message_enqueued_time_secs(MESSAGE_QUEUE_HANDLE message_queue, size_t sec
 653:Source\azure_iot_sdk\iothub_client\src/message_queue.c **** {
 2623              		.loc 1 653 0
 2624              		.cfi_startproc
 2625              		@ args = 0, pretend = 0, frame = 0
 2626              		@ frame_needed = 0, uses_anonymous_args = 0
 2627              	.LVL436:
 2628 0000 10B5     		push	{r4, lr}
 2629              		.cfi_def_cfa_offset 8
 2630              		.cfi_offset 4, -8
 2631              		.cfi_offset 14, -4
 2632 0002 82B0     		sub	sp, sp, #8
 2633              		.cfi_def_cfa_offset 16
 654:Source\azure_iot_sdk\iothub_client\src/message_queue.c ****     int result;
 655:Source\azure_iot_sdk\iothub_client\src/message_queue.c **** 
 656:Source\azure_iot_sdk\iothub_client\src/message_queue.c ****     // Codes_SRS_MESSAGE_QUEUE_09_051: [If `message_queue` is NULL, message_queue_set_max_message_e
 657:Source\azure_iot_sdk\iothub_client\src/message_queue.c ****     if (message_queue == NULL)
 2634              		.loc 1 657 0
 2635 0004 0028     		cmp	r0, #0
 2636 0006 10D1     		bne	.L168
 2637              	.LBB55:
 658:Source\azure_iot_sdk\iothub_client\src/message_queue.c ****     {
 659:Source\azure_iot_sdk\iothub_client\src/message_queue.c ****         LogError("invalid argument (message_queue is NULL)");
 2638              		.loc 1 659 0 discriminator 3
 2639 0008 FFF7FEFF 		bl	xlogging_get_log_function
 2640              	.LVL437:
 2641 000c 041E     		subs	r4, r0, #0
 2642              	.LVL438:
 2643 000e 0FD0     		beq	.L170
 2644              		.loc 1 659 0 is_stmt 0 discriminator 4
 2645 0010 094B     		ldr	r3, .L171
 2646 0012 0193     		str	r3, [sp, #4]
 2647 0014 0123     		movs	r3, #1
 2648 0016 0093     		str	r3, [sp]
 2649 0018 084B     		ldr	r3, .L171+4
 2650 001a 094A     		ldr	r2, .L171+8
 2651 001c 3832     		adds	r2, r2, #56
 2652 001e 0949     		ldr	r1, .L171+12
 2653 0020 0020     		movs	r0, #0
 2654              	.LVL439:
 2655 0022 A047     		blx	r4
 2656              	.LVL440:
 2657              	.LBE55:
 660:Source\azure_iot_sdk\iothub_client\src/message_queue.c ****         result = __FAILURE__;
 2658              		.loc 1 660 0 is_stmt 1 discriminator 4
 2659 0024 A520     		movs	r0, #165
 2660 0026 8000     		lsls	r0, r0, #2
 2661 0028 04E0     		b	.L169
 2662              	.LVL441:
 2663              	.L168:
 661:Source\azure_iot_sdk\iothub_client\src/message_queue.c ****     }
ARM GAS  C:\Users\Phuong\AppData\Local\Temp\ccaRXo0w.s 			page 62


 662:Source\azure_iot_sdk\iothub_client\src/message_queue.c ****     else
 663:Source\azure_iot_sdk\iothub_client\src/message_queue.c ****     {
 664:Source\azure_iot_sdk\iothub_client\src/message_queue.c ****         // Codes_SRS_MESSAGE_QUEUE_09_053: [`seconds` shall be saved into `message_queue->max_messa
 665:Source\azure_iot_sdk\iothub_client\src/message_queue.c ****         message_queue->max_message_enqueued_time_secs = seconds;
 2664              		.loc 1 665 0
 2665 002a 0160     		str	r1, [r0]
 2666              	.LVL442:
 666:Source\azure_iot_sdk\iothub_client\src/message_queue.c ****         // Codes_SRS_MESSAGE_QUEUE_09_054: [If no failures occur, message_queue_set_max_message_enq
 667:Source\azure_iot_sdk\iothub_client\src/message_queue.c ****         result = RESULT_OK;
 2667              		.loc 1 667 0
 2668 002c 0020     		movs	r0, #0
 2669              	.LVL443:
 2670 002e 01E0     		b	.L169
 2671              	.LVL444:
 2672              	.L170:
 660:Source\azure_iot_sdk\iothub_client\src/message_queue.c ****     }
 2673              		.loc 1 660 0
 2674 0030 A520     		movs	r0, #165
 2675              	.LVL445:
 2676 0032 8000     		lsls	r0, r0, #2
 2677              	.LVL446:
 2678              	.L169:
 668:Source\azure_iot_sdk\iothub_client\src/message_queue.c ****     }
 669:Source\azure_iot_sdk\iothub_client\src/message_queue.c **** 
 670:Source\azure_iot_sdk\iothub_client\src/message_queue.c ****     return result;
 671:Source\azure_iot_sdk\iothub_client\src/message_queue.c **** }
 2679              		.loc 1 671 0
 2680 0034 02B0     		add	sp, sp, #8
 2681              		@ sp needed
 2682 0036 10BD     		pop	{r4, pc}
 2683              	.L172:
 2684              		.align	2
 2685              	.L171:
 2686 0038 E0030000 		.word	.LC64
 2687 003c 93020000 		.word	659
 2688 0040 00010000 		.word	.LANCHOR2
 2689 0044 00000000 		.word	.LC1
 2690              		.cfi_endproc
 2691              	.LFE19:
 2692              		.size	message_queue_set_max_message_enqueued_time_secs, .-message_queue_set_max_message_enqueued_t
 2693              		.section	.text.message_queue_set_max_message_processing_time_secs,"ax",%progbits
 2694              		.align	2
 2695              		.global	message_queue_set_max_message_processing_time_secs
 2696              		.code	16
 2697              		.thumb_func
 2698              		.type	message_queue_set_max_message_processing_time_secs, %function
 2699              	message_queue_set_max_message_processing_time_secs:
 2700              	.LFB20:
 672:Source\azure_iot_sdk\iothub_client\src/message_queue.c **** 
 673:Source\azure_iot_sdk\iothub_client\src/message_queue.c **** int message_queue_set_max_message_processing_time_secs(MESSAGE_QUEUE_HANDLE message_queue, size_t s
 674:Source\azure_iot_sdk\iothub_client\src/message_queue.c **** {
 2701              		.loc 1 674 0
 2702              		.cfi_startproc
 2703              		@ args = 0, pretend = 0, frame = 0
 2704              		@ frame_needed = 0, uses_anonymous_args = 0
 2705              	.LVL447:
 2706 0000 10B5     		push	{r4, lr}
ARM GAS  C:\Users\Phuong\AppData\Local\Temp\ccaRXo0w.s 			page 63


 2707              		.cfi_def_cfa_offset 8
 2708              		.cfi_offset 4, -8
 2709              		.cfi_offset 14, -4
 2710 0002 82B0     		sub	sp, sp, #8
 2711              		.cfi_def_cfa_offset 16
 675:Source\azure_iot_sdk\iothub_client\src/message_queue.c ****     int result;
 676:Source\azure_iot_sdk\iothub_client\src/message_queue.c **** 
 677:Source\azure_iot_sdk\iothub_client\src/message_queue.c ****     // Codes_SRS_MESSAGE_QUEUE_09_055: [If `message_queue` is NULL, message_queue_set_max_message_p
 678:Source\azure_iot_sdk\iothub_client\src/message_queue.c ****     if (message_queue == NULL)
 2712              		.loc 1 678 0
 2713 0004 0028     		cmp	r0, #0
 2714 0006 10D1     		bne	.L174
 2715              	.LBB56:
 679:Source\azure_iot_sdk\iothub_client\src/message_queue.c ****     {
 680:Source\azure_iot_sdk\iothub_client\src/message_queue.c ****         LogError("invalid argument (message_queue is NULL)");
 2716              		.loc 1 680 0 discriminator 3
 2717 0008 FFF7FEFF 		bl	xlogging_get_log_function
 2718              	.LVL448:
 2719 000c 041E     		subs	r4, r0, #0
 2720              	.LVL449:
 2721 000e 0FD0     		beq	.L176
 2722              		.loc 1 680 0 is_stmt 0 discriminator 4
 2723 0010 094B     		ldr	r3, .L177
 2724 0012 0193     		str	r3, [sp, #4]
 2725 0014 0123     		movs	r3, #1
 2726 0016 0093     		str	r3, [sp]
 2727 0018 AA23     		movs	r3, #170
 2728 001a 9B00     		lsls	r3, r3, #2
 2729 001c 074A     		ldr	r2, .L177+4
 2730 001e 6C32     		adds	r2, r2, #108
 2731 0020 0749     		ldr	r1, .L177+8
 2732 0022 0020     		movs	r0, #0
 2733              	.LVL450:
 2734 0024 A047     		blx	r4
 2735              	.LVL451:
 2736              	.LBE56:
 681:Source\azure_iot_sdk\iothub_client\src/message_queue.c ****         result = __FAILURE__;
 2737              		.loc 1 681 0 is_stmt 1 discriminator 4
 2738 0026 0748     		ldr	r0, .L177+12
 2739 0028 03E0     		b	.L175
 2740              	.LVL452:
 2741              	.L174:
 682:Source\azure_iot_sdk\iothub_client\src/message_queue.c ****     }
 683:Source\azure_iot_sdk\iothub_client\src/message_queue.c ****     else
 684:Source\azure_iot_sdk\iothub_client\src/message_queue.c ****     {
 685:Source\azure_iot_sdk\iothub_client\src/message_queue.c ****         // Codes_SRS_MESSAGE_QUEUE_09_057: [`seconds` shall be saved into `message_queue->max_messa
 686:Source\azure_iot_sdk\iothub_client\src/message_queue.c ****         message_queue->max_message_processing_time_secs = seconds;
 2742              		.loc 1 686 0
 2743 002a 4160     		str	r1, [r0, #4]
 2744              	.LVL453:
 687:Source\azure_iot_sdk\iothub_client\src/message_queue.c ****         // Codes_SRS_MESSAGE_QUEUE_09_058: [If no failures occur, message_queue_set_max_message_pro
 688:Source\azure_iot_sdk\iothub_client\src/message_queue.c ****         result = RESULT_OK;
 2745              		.loc 1 688 0
 2746 002c 0020     		movs	r0, #0
 2747              	.LVL454:
 2748 002e 00E0     		b	.L175
 2749              	.LVL455:
ARM GAS  C:\Users\Phuong\AppData\Local\Temp\ccaRXo0w.s 			page 64


 2750              	.L176:
 681:Source\azure_iot_sdk\iothub_client\src/message_queue.c ****     }
 2751              		.loc 1 681 0
 2752 0030 0448     		ldr	r0, .L177+12
 2753              	.LVL456:
 2754              	.L175:
 689:Source\azure_iot_sdk\iothub_client\src/message_queue.c ****     }
 690:Source\azure_iot_sdk\iothub_client\src/message_queue.c **** 
 691:Source\azure_iot_sdk\iothub_client\src/message_queue.c ****     return result;
 692:Source\azure_iot_sdk\iothub_client\src/message_queue.c **** }
 2755              		.loc 1 692 0
 2756 0032 02B0     		add	sp, sp, #8
 2757              		@ sp needed
 2758 0034 10BD     		pop	{r4, pc}
 2759              	.L178:
 2760 0036 C046     		.align	2
 2761              	.L177:
 2762 0038 E0030000 		.word	.LC64
 2763 003c 00010000 		.word	.LANCHOR2
 2764 0040 00000000 		.word	.LC1
 2765 0044 A9020000 		.word	681
 2766              		.cfi_endproc
 2767              	.LFE20:
 2768              		.size	message_queue_set_max_message_processing_time_secs, .-message_queue_set_max_message_processi
 2769              		.section	.text.message_queue_set_max_retry_count,"ax",%progbits
 2770              		.align	2
 2771              		.global	message_queue_set_max_retry_count
 2772              		.code	16
 2773              		.thumb_func
 2774              		.type	message_queue_set_max_retry_count, %function
 2775              	message_queue_set_max_retry_count:
 2776              	.LFB21:
 693:Source\azure_iot_sdk\iothub_client\src/message_queue.c **** 
 694:Source\azure_iot_sdk\iothub_client\src/message_queue.c **** int message_queue_set_max_retry_count(MESSAGE_QUEUE_HANDLE message_queue, size_t max_retry_count)
 695:Source\azure_iot_sdk\iothub_client\src/message_queue.c **** {
 2777              		.loc 1 695 0
 2778              		.cfi_startproc
 2779              		@ args = 0, pretend = 0, frame = 0
 2780              		@ frame_needed = 0, uses_anonymous_args = 0
 2781              	.LVL457:
 2782 0000 10B5     		push	{r4, lr}
 2783              		.cfi_def_cfa_offset 8
 2784              		.cfi_offset 4, -8
 2785              		.cfi_offset 14, -4
 2786 0002 82B0     		sub	sp, sp, #8
 2787              		.cfi_def_cfa_offset 16
 696:Source\azure_iot_sdk\iothub_client\src/message_queue.c ****     int result;
 697:Source\azure_iot_sdk\iothub_client\src/message_queue.c **** 
 698:Source\azure_iot_sdk\iothub_client\src/message_queue.c ****     // Codes_SRS_MESSAGE_QUEUE_09_059: [If `message_queue` is NULL, message_queue_set_max_retry_cou
 699:Source\azure_iot_sdk\iothub_client\src/message_queue.c ****     if (message_queue == NULL)
 2788              		.loc 1 699 0
 2789 0004 0028     		cmp	r0, #0
 2790 0006 0FD1     		bne	.L180
 2791              	.LBB57:
 700:Source\azure_iot_sdk\iothub_client\src/message_queue.c ****     {
 701:Source\azure_iot_sdk\iothub_client\src/message_queue.c ****         LogError("invalid argument (message_queue is NULL)");
 2792              		.loc 1 701 0 discriminator 3
ARM GAS  C:\Users\Phuong\AppData\Local\Temp\ccaRXo0w.s 			page 65


 2793 0008 FFF7FEFF 		bl	xlogging_get_log_function
 2794              	.LVL458:
 2795 000c 041E     		subs	r4, r0, #0
 2796              	.LVL459:
 2797 000e 0ED0     		beq	.L182
 2798              		.loc 1 701 0 is_stmt 0 discriminator 4
 2799 0010 084B     		ldr	r3, .L183
 2800 0012 0193     		str	r3, [sp, #4]
 2801 0014 0123     		movs	r3, #1
 2802 0016 0093     		str	r3, [sp]
 2803 0018 074B     		ldr	r3, .L183+4
 2804 001a 084A     		ldr	r2, .L183+8
 2805 001c 2032     		adds	r2, r2, #32
 2806 001e 0849     		ldr	r1, .L183+12
 2807 0020 0020     		movs	r0, #0
 2808              	.LVL460:
 2809 0022 A047     		blx	r4
 2810              	.LVL461:
 2811              	.LBE57:
 702:Source\azure_iot_sdk\iothub_client\src/message_queue.c ****         result = __FAILURE__;
 2812              		.loc 1 702 0 is_stmt 1 discriminator 4
 2813 0024 0748     		ldr	r0, .L183+16
 2814 0026 03E0     		b	.L181
 2815              	.LVL462:
 2816              	.L180:
 703:Source\azure_iot_sdk\iothub_client\src/message_queue.c ****     }
 704:Source\azure_iot_sdk\iothub_client\src/message_queue.c ****     else
 705:Source\azure_iot_sdk\iothub_client\src/message_queue.c ****     {
 706:Source\azure_iot_sdk\iothub_client\src/message_queue.c ****         // Codes_SRS_MESSAGE_QUEUE_09_061: [If no failures occur, message_queue_set_max_retry_count
 707:Source\azure_iot_sdk\iothub_client\src/message_queue.c ****         message_queue->max_retry_count = max_retry_count;
 2817              		.loc 1 707 0
 2818 0028 8160     		str	r1, [r0, #8]
 2819              	.LVL463:
 708:Source\azure_iot_sdk\iothub_client\src/message_queue.c ****         // Codes_SRS_MESSAGE_QUEUE_09_060: [`max_retry_count` shall be saved into `message_queue->m
 709:Source\azure_iot_sdk\iothub_client\src/message_queue.c ****         result = RESULT_OK;
 2820              		.loc 1 709 0
 2821 002a 0020     		movs	r0, #0
 2822              	.LVL464:
 2823 002c 00E0     		b	.L181
 2824              	.LVL465:
 2825              	.L182:
 702:Source\azure_iot_sdk\iothub_client\src/message_queue.c ****     }
 2826              		.loc 1 702 0
 2827 002e 0548     		ldr	r0, .L183+16
 2828              	.LVL466:
 2829              	.L181:
 710:Source\azure_iot_sdk\iothub_client\src/message_queue.c ****     }
 711:Source\azure_iot_sdk\iothub_client\src/message_queue.c **** 
 712:Source\azure_iot_sdk\iothub_client\src/message_queue.c ****     return result;
 713:Source\azure_iot_sdk\iothub_client\src/message_queue.c **** }
 2830              		.loc 1 713 0
 2831 0030 02B0     		add	sp, sp, #8
 2832              		@ sp needed
 2833 0032 10BD     		pop	{r4, pc}
 2834              	.L184:
 2835              		.align	2
 2836              	.L183:
ARM GAS  C:\Users\Phuong\AppData\Local\Temp\ccaRXo0w.s 			page 66


 2837 0034 E0030000 		.word	.LC64
 2838 0038 BD020000 		.word	701
 2839 003c 80010000 		.word	.LANCHOR3
 2840 0040 00000000 		.word	.LC1
 2841 0044 BE020000 		.word	702
 2842              		.cfi_endproc
 2843              	.LFE21:
 2844              		.size	message_queue_set_max_retry_count, .-message_queue_set_max_retry_count
 2845              		.section	.text.setOption,"ax",%progbits
 2846              		.align	2
 2847              		.code	16
 2848              		.thumb_func
 2849              		.type	setOption, %function
 2850              	setOption:
 2851              	.LFB22:
 714:Source\azure_iot_sdk\iothub_client\src/message_queue.c **** 
 715:Source\azure_iot_sdk\iothub_client\src/message_queue.c **** static int setOption(void* handle, const char* name, const void* value)
 716:Source\azure_iot_sdk\iothub_client\src/message_queue.c **** {
 2852              		.loc 1 716 0
 2853              		.cfi_startproc
 2854              		@ args = 0, pretend = 0, frame = 0
 2855              		@ frame_needed = 0, uses_anonymous_args = 0
 2856              	.LVL467:
 2857 0000 F0B5     		push	{r4, r5, r6, r7, lr}
 2858              		.cfi_def_cfa_offset 20
 2859              		.cfi_offset 4, -20
 2860              		.cfi_offset 5, -16
 2861              		.cfi_offset 6, -12
 2862              		.cfi_offset 7, -8
 2863              		.cfi_offset 14, -4
 2864 0002 87B0     		sub	sp, sp, #28
 2865              		.cfi_def_cfa_offset 48
 2866 0004 0500     		movs	r5, r0
 2867 0006 0C00     		movs	r4, r1
 2868 0008 1600     		movs	r6, r2
 717:Source\azure_iot_sdk\iothub_client\src/message_queue.c ****     int result;
 718:Source\azure_iot_sdk\iothub_client\src/message_queue.c **** 
 719:Source\azure_iot_sdk\iothub_client\src/message_queue.c ****     if (handle == NULL || name == NULL || value == NULL)
 2869              		.loc 1 719 0
 2870 000a 0028     		cmp	r0, #0
 2871 000c 03D0     		beq	.L186
 2872              		.loc 1 719 0 is_stmt 0 discriminator 1
 2873 000e 0029     		cmp	r1, #0
 2874 0010 01D0     		beq	.L186
 2875              		.loc 1 719 0 discriminator 2
 2876 0012 002A     		cmp	r2, #0
 2877 0014 12D1     		bne	.L187
 2878              	.L186:
 2879              	.LBB58:
 720:Source\azure_iot_sdk\iothub_client\src/message_queue.c ****     {
 721:Source\azure_iot_sdk\iothub_client\src/message_queue.c ****         LogError("invalid argument (handle=%p, name=%p, value=%p)", handle, name, value);
 2880              		.loc 1 721 0 is_stmt 1 discriminator 3
 2881 0016 FFF7FEFF 		bl	xlogging_get_log_function
 2882              	.LVL468:
 2883 001a 071E     		subs	r7, r0, #0
 2884              	.LVL469:
 2885 001c 78D0     		beq	.L192
ARM GAS  C:\Users\Phuong\AppData\Local\Temp\ccaRXo0w.s 			page 67


 2886              		.loc 1 721 0 is_stmt 0 discriminator 4
 2887 001e 0496     		str	r6, [sp, #16]
 2888 0020 0394     		str	r4, [sp, #12]
 2889 0022 0295     		str	r5, [sp, #8]
 2890 0024 434B     		ldr	r3, .L200
 2891 0026 0193     		str	r3, [sp, #4]
 2892 0028 0123     		movs	r3, #1
 2893 002a 0093     		str	r3, [sp]
 2894 002c 424B     		ldr	r3, .L200+4
 2895 002e 434A     		ldr	r2, .L200+8
 2896 0030 4432     		adds	r2, r2, #68
 2897 0032 4349     		ldr	r1, .L200+12
 2898 0034 0020     		movs	r0, #0
 2899              	.LVL470:
 2900 0036 B847     		blx	r7
 2901              	.LVL471:
 2902              	.LBE58:
 722:Source\azure_iot_sdk\iothub_client\src/message_queue.c ****         result = __FAILURE__;
 2903              		.loc 1 722 0 is_stmt 1 discriminator 4
 2904 0038 4248     		ldr	r0, .L200+16
 2905 003a 78E0     		b	.L188
 2906              	.LVL472:
 2907              	.L187:
 723:Source\azure_iot_sdk\iothub_client\src/message_queue.c ****     }
 724:Source\azure_iot_sdk\iothub_client\src/message_queue.c ****     else if (strcmp(SAVED_OPTION_MAX_ENQUEUE_TIME_SECS, name) == 0)
 2908              		.loc 1 724 0
 2909 003c 4248     		ldr	r0, .L200+20
 2910              	.LVL473:
 2911 003e FFF7FEFF 		bl	strcmp
 2912              	.LVL474:
 2913 0042 0028     		cmp	r0, #0
 2914 0044 17D1     		bne	.L189
 725:Source\azure_iot_sdk\iothub_client\src/message_queue.c ****     {
 726:Source\azure_iot_sdk\iothub_client\src/message_queue.c ****         if (message_queue_set_max_message_enqueued_time_secs((MESSAGE_QUEUE_HANDLE)handle, *(size_t
 2915              		.loc 1 726 0
 2916 0046 3168     		ldr	r1, [r6]
 2917 0048 2800     		movs	r0, r5
 2918 004a FFF7FEFF 		bl	message_queue_set_max_message_enqueued_time_secs
 2919              	.LVL475:
 2920 004e 0028     		cmp	r0, #0
 2921 0050 60D0     		beq	.L193
 2922              	.LBB59:
 727:Source\azure_iot_sdk\iothub_client\src/message_queue.c ****         {
 728:Source\azure_iot_sdk\iothub_client\src/message_queue.c ****             LogError("failed setting option %s", name);
 2923              		.loc 1 728 0 discriminator 3
 2924 0052 FFF7FEFF 		bl	xlogging_get_log_function
 2925              	.LVL476:
 2926 0056 051E     		subs	r5, r0, #0
 2927              	.LVL477:
 2928 0058 5ED0     		beq	.L194
 2929              		.loc 1 728 0 is_stmt 0 discriminator 4
 2930 005a 0294     		str	r4, [sp, #8]
 2931 005c 3B4B     		ldr	r3, .L200+24
 2932 005e 0193     		str	r3, [sp, #4]
 2933 0060 0123     		movs	r3, #1
 2934 0062 0093     		str	r3, [sp]
 2935 0064 B623     		movs	r3, #182
ARM GAS  C:\Users\Phuong\AppData\Local\Temp\ccaRXo0w.s 			page 68


 2936 0066 9B00     		lsls	r3, r3, #2
 2937 0068 344A     		ldr	r2, .L200+8
 2938 006a 4432     		adds	r2, r2, #68
 2939 006c 3449     		ldr	r1, .L200+12
 2940 006e 0020     		movs	r0, #0
 2941              	.LVL478:
 2942 0070 A847     		blx	r5
 2943              	.LVL479:
 2944              	.LBE59:
 729:Source\azure_iot_sdk\iothub_client\src/message_queue.c ****             result = __FAILURE__;
 2945              		.loc 1 729 0 is_stmt 1 discriminator 4
 2946 0072 3748     		ldr	r0, .L200+28
 2947 0074 5BE0     		b	.L188
 2948              	.LVL480:
 2949              	.L189:
 730:Source\azure_iot_sdk\iothub_client\src/message_queue.c ****         }
 731:Source\azure_iot_sdk\iothub_client\src/message_queue.c ****         else
 732:Source\azure_iot_sdk\iothub_client\src/message_queue.c ****         {
 733:Source\azure_iot_sdk\iothub_client\src/message_queue.c ****             result = RESULT_OK;
 734:Source\azure_iot_sdk\iothub_client\src/message_queue.c ****         }
 735:Source\azure_iot_sdk\iothub_client\src/message_queue.c ****     }
 736:Source\azure_iot_sdk\iothub_client\src/message_queue.c ****     else if (strcmp(SAVED_OPTION_MAX_PROCESSING_TIME_SECS, name) == 0)
 2950              		.loc 1 736 0
 2951 0076 2100     		movs	r1, r4
 2952 0078 3648     		ldr	r0, .L200+32
 2953 007a FFF7FEFF 		bl	strcmp
 2954              	.LVL481:
 2955 007e 0028     		cmp	r0, #0
 2956 0080 17D1     		bne	.L190
 737:Source\azure_iot_sdk\iothub_client\src/message_queue.c ****     {
 738:Source\azure_iot_sdk\iothub_client\src/message_queue.c ****         if (message_queue_set_max_message_processing_time_secs((MESSAGE_QUEUE_HANDLE)handle, *(size
 2957              		.loc 1 738 0
 2958 0082 3168     		ldr	r1, [r6]
 2959 0084 2800     		movs	r0, r5
 2960 0086 FFF7FEFF 		bl	message_queue_set_max_message_processing_time_secs
 2961              	.LVL482:
 2962 008a 0028     		cmp	r0, #0
 2963 008c 46D0     		beq	.L195
 2964              	.LBB60:
 739:Source\azure_iot_sdk\iothub_client\src/message_queue.c ****         {
 740:Source\azure_iot_sdk\iothub_client\src/message_queue.c ****             LogError("failed setting option %s", name);
 2965              		.loc 1 740 0 discriminator 3
 2966 008e FFF7FEFF 		bl	xlogging_get_log_function
 2967              	.LVL483:
 2968 0092 051E     		subs	r5, r0, #0
 2969              	.LVL484:
 2970 0094 44D0     		beq	.L196
 2971              		.loc 1 740 0 is_stmt 0 discriminator 4
 2972 0096 0294     		str	r4, [sp, #8]
 2973 0098 2C4B     		ldr	r3, .L200+24
 2974 009a 0193     		str	r3, [sp, #4]
 2975 009c 0123     		movs	r3, #1
 2976 009e 0093     		str	r3, [sp]
 2977 00a0 B923     		movs	r3, #185
 2978 00a2 9B00     		lsls	r3, r3, #2
 2979 00a4 254A     		ldr	r2, .L200+8
 2980 00a6 4432     		adds	r2, r2, #68
ARM GAS  C:\Users\Phuong\AppData\Local\Temp\ccaRXo0w.s 			page 69


 2981 00a8 2549     		ldr	r1, .L200+12
 2982 00aa 0020     		movs	r0, #0
 2983              	.LVL485:
 2984 00ac A847     		blx	r5
 2985              	.LVL486:
 2986              	.LBE60:
 741:Source\azure_iot_sdk\iothub_client\src/message_queue.c ****             result = __FAILURE__;
 2987              		.loc 1 741 0 is_stmt 1 discriminator 4
 2988 00ae 2A48     		ldr	r0, .L200+36
 2989 00b0 3DE0     		b	.L188
 2990              	.LVL487:
 2991              	.L190:
 742:Source\azure_iot_sdk\iothub_client\src/message_queue.c ****         }
 743:Source\azure_iot_sdk\iothub_client\src/message_queue.c ****         else
 744:Source\azure_iot_sdk\iothub_client\src/message_queue.c ****         {
 745:Source\azure_iot_sdk\iothub_client\src/message_queue.c ****             result = RESULT_OK;
 746:Source\azure_iot_sdk\iothub_client\src/message_queue.c ****         }
 747:Source\azure_iot_sdk\iothub_client\src/message_queue.c ****     }
 748:Source\azure_iot_sdk\iothub_client\src/message_queue.c ****     else if (strcmp(SAVED_OPTION_MAX_RETRY_COUNT, name) == 0)
 2992              		.loc 1 748 0
 2993 00b2 2100     		movs	r1, r4
 2994 00b4 2948     		ldr	r0, .L200+40
 2995 00b6 FFF7FEFF 		bl	strcmp
 2996              	.LVL488:
 2997 00ba 0028     		cmp	r0, #0
 2998 00bc 17D1     		bne	.L191
 749:Source\azure_iot_sdk\iothub_client\src/message_queue.c ****     {
 750:Source\azure_iot_sdk\iothub_client\src/message_queue.c ****         if (message_queue_set_max_retry_count((MESSAGE_QUEUE_HANDLE)handle, *(size_t*)value) != RES
 2999              		.loc 1 750 0
 3000 00be 3168     		ldr	r1, [r6]
 3001 00c0 2800     		movs	r0, r5
 3002 00c2 FFF7FEFF 		bl	message_queue_set_max_retry_count
 3003              	.LVL489:
 3004 00c6 0028     		cmp	r0, #0
 3005 00c8 2CD0     		beq	.L197
 3006              	.LBB61:
 751:Source\azure_iot_sdk\iothub_client\src/message_queue.c ****         {
 752:Source\azure_iot_sdk\iothub_client\src/message_queue.c ****             LogError("failed setting option %s", name);
 3007              		.loc 1 752 0 discriminator 3
 3008 00ca FFF7FEFF 		bl	xlogging_get_log_function
 3009              	.LVL490:
 3010 00ce 051E     		subs	r5, r0, #0
 3011              	.LVL491:
 3012 00d0 2AD0     		beq	.L198
 3013              		.loc 1 752 0 is_stmt 0 discriminator 4
 3014 00d2 0294     		str	r4, [sp, #8]
 3015 00d4 1D4B     		ldr	r3, .L200+24
 3016 00d6 0193     		str	r3, [sp, #4]
 3017 00d8 0123     		movs	r3, #1
 3018 00da 0093     		str	r3, [sp]
 3019 00dc BC23     		movs	r3, #188
 3020 00de 9B00     		lsls	r3, r3, #2
 3021 00e0 164A     		ldr	r2, .L200+8
 3022 00e2 4432     		adds	r2, r2, #68
 3023 00e4 1649     		ldr	r1, .L200+12
 3024 00e6 0020     		movs	r0, #0
 3025              	.LVL492:
ARM GAS  C:\Users\Phuong\AppData\Local\Temp\ccaRXo0w.s 			page 70


 3026 00e8 A847     		blx	r5
 3027              	.LVL493:
 3028              	.LBE61:
 753:Source\azure_iot_sdk\iothub_client\src/message_queue.c ****             result = __FAILURE__;
 3029              		.loc 1 753 0 is_stmt 1 discriminator 4
 3030 00ea 1D48     		ldr	r0, .L200+44
 3031 00ec 1FE0     		b	.L188
 3032              	.LVL494:
 3033              	.L191:
 3034              	.LBB62:
 754:Source\azure_iot_sdk\iothub_client\src/message_queue.c ****         }
 755:Source\azure_iot_sdk\iothub_client\src/message_queue.c ****         else
 756:Source\azure_iot_sdk\iothub_client\src/message_queue.c ****         {
 757:Source\azure_iot_sdk\iothub_client\src/message_queue.c ****             result = RESULT_OK;
 758:Source\azure_iot_sdk\iothub_client\src/message_queue.c ****         }
 759:Source\azure_iot_sdk\iothub_client\src/message_queue.c ****     }
 760:Source\azure_iot_sdk\iothub_client\src/message_queue.c ****     else
 761:Source\azure_iot_sdk\iothub_client\src/message_queue.c ****     {
 762:Source\azure_iot_sdk\iothub_client\src/message_queue.c ****         LogError("option %s is invalid", name);
 3035              		.loc 1 762 0 discriminator 3
 3036 00ee FFF7FEFF 		bl	xlogging_get_log_function
 3037              	.LVL495:
 3038 00f2 051E     		subs	r5, r0, #0
 3039              	.LVL496:
 3040 00f4 1AD0     		beq	.L199
 3041              		.loc 1 762 0 is_stmt 0 discriminator 4
 3042 00f6 0294     		str	r4, [sp, #8]
 3043 00f8 1A4B     		ldr	r3, .L200+48
 3044 00fa 0193     		str	r3, [sp, #4]
 3045 00fc 0123     		movs	r3, #1
 3046 00fe 0093     		str	r3, [sp]
 3047 0100 194B     		ldr	r3, .L200+52
 3048 0102 0E4A     		ldr	r2, .L200+8
 3049 0104 4432     		adds	r2, r2, #68
 3050 0106 0E49     		ldr	r1, .L200+12
 3051 0108 0020     		movs	r0, #0
 3052              	.LVL497:
 3053 010a A847     		blx	r5
 3054              	.LVL498:
 3055              	.LBE62:
 763:Source\azure_iot_sdk\iothub_client\src/message_queue.c ****         result = __FAILURE__;
 3056              		.loc 1 763 0 is_stmt 1 discriminator 4
 3057 010c 1748     		ldr	r0, .L200+56
 3058 010e 0EE0     		b	.L188
 3059              	.LVL499:
 3060              	.L192:
 722:Source\azure_iot_sdk\iothub_client\src/message_queue.c ****     }
 3061              		.loc 1 722 0
 3062 0110 0C48     		ldr	r0, .L200+16
 3063              	.LVL500:
 3064 0112 0CE0     		b	.L188
 3065              	.LVL501:
 3066              	.L193:
 733:Source\azure_iot_sdk\iothub_client\src/message_queue.c ****         }
 3067              		.loc 1 733 0
 3068 0114 0020     		movs	r0, #0
 3069 0116 0AE0     		b	.L188
ARM GAS  C:\Users\Phuong\AppData\Local\Temp\ccaRXo0w.s 			page 71


 3070              	.LVL502:
 3071              	.L194:
 729:Source\azure_iot_sdk\iothub_client\src/message_queue.c ****         }
 3072              		.loc 1 729 0
 3073 0118 0D48     		ldr	r0, .L200+28
 3074              	.LVL503:
 3075 011a 08E0     		b	.L188
 3076              	.LVL504:
 3077              	.L195:
 745:Source\azure_iot_sdk\iothub_client\src/message_queue.c ****         }
 3078              		.loc 1 745 0
 3079 011c 0020     		movs	r0, #0
 3080 011e 06E0     		b	.L188
 3081              	.LVL505:
 3082              	.L196:
 741:Source\azure_iot_sdk\iothub_client\src/message_queue.c ****         }
 3083              		.loc 1 741 0
 3084 0120 0D48     		ldr	r0, .L200+36
 3085              	.LVL506:
 3086 0122 04E0     		b	.L188
 3087              	.LVL507:
 3088              	.L197:
 757:Source\azure_iot_sdk\iothub_client\src/message_queue.c ****         }
 3089              		.loc 1 757 0
 3090 0124 0020     		movs	r0, #0
 3091 0126 02E0     		b	.L188
 3092              	.LVL508:
 3093              	.L198:
 753:Source\azure_iot_sdk\iothub_client\src/message_queue.c ****         }
 3094              		.loc 1 753 0
 3095 0128 0D48     		ldr	r0, .L200+44
 3096              	.LVL509:
 3097 012a 00E0     		b	.L188
 3098              	.LVL510:
 3099              	.L199:
 3100              		.loc 1 763 0
 3101 012c 0F48     		ldr	r0, .L200+56
 3102              	.LVL511:
 3103              	.L188:
 764:Source\azure_iot_sdk\iothub_client\src/message_queue.c ****     }
 765:Source\azure_iot_sdk\iothub_client\src/message_queue.c **** 
 766:Source\azure_iot_sdk\iothub_client\src/message_queue.c ****     return result;
 767:Source\azure_iot_sdk\iothub_client\src/message_queue.c **** }
 3104              		.loc 1 767 0
 3105 012e 07B0     		add	sp, sp, #28
 3106              		@ sp needed
 3107              	.LVL512:
 3108              	.LVL513:
 3109 0130 F0BD     		pop	{r4, r5, r6, r7, pc}
 3110              	.L201:
 3111 0132 C046     		.align	2
 3112              	.L200:
 3113 0134 38060000 		.word	.LC109
 3114 0138 D1020000 		.word	721
 3115 013c 80010000 		.word	.LANCHOR3
 3116 0140 00000000 		.word	.LC1
 3117 0144 D2020000 		.word	722
ARM GAS  C:\Users\Phuong\AppData\Local\Temp\ccaRXo0w.s 			page 72


 3118 0148 30030000 		.word	.LC45
 3119 014c 68060000 		.word	.LC112
 3120 0150 D9020000 		.word	729
 3121 0154 54030000 		.word	.LC47
 3122 0158 E5020000 		.word	741
 3123 015c 7C030000 		.word	.LC49
 3124 0160 F1020000 		.word	753
 3125 0164 9C030000 		.word	.LC51
 3126 0168 FA020000 		.word	762
 3127 016c FB020000 		.word	763
 3128              		.cfi_endproc
 3129              	.LFE22:
 3130              		.size	setOption, .-setOption
 3131              		.section	.text.message_queue_retrieve_options,"ax",%progbits
 3132              		.align	2
 3133              		.global	message_queue_retrieve_options
 3134              		.code	16
 3135              		.thumb_func
 3136              		.type	message_queue_retrieve_options, %function
 3137              	message_queue_retrieve_options:
 3138              	.LFB23:
 768:Source\azure_iot_sdk\iothub_client\src/message_queue.c **** 
 769:Source\azure_iot_sdk\iothub_client\src/message_queue.c **** OPTIONHANDLER_HANDLE message_queue_retrieve_options(MESSAGE_QUEUE_HANDLE message_queue)
 770:Source\azure_iot_sdk\iothub_client\src/message_queue.c **** {
 3139              		.loc 1 770 0
 3140              		.cfi_startproc
 3141              		@ args = 0, pretend = 0, frame = 0
 3142              		@ frame_needed = 0, uses_anonymous_args = 0
 3143              	.LVL514:
 3144 0000 30B5     		push	{r4, r5, lr}
 3145              		.cfi_def_cfa_offset 12
 3146              		.cfi_offset 4, -12
 3147              		.cfi_offset 5, -8
 3148              		.cfi_offset 14, -4
 3149 0002 85B0     		sub	sp, sp, #20
 3150              		.cfi_def_cfa_offset 32
 3151 0004 051E     		subs	r5, r0, #0
 771:Source\azure_iot_sdk\iothub_client\src/message_queue.c ****     OPTIONHANDLER_HANDLE result;
 772:Source\azure_iot_sdk\iothub_client\src/message_queue.c **** 
 773:Source\azure_iot_sdk\iothub_client\src/message_queue.c ****     // Codes_SRS_MESSAGE_QUEUE_09_062: [If `message_queue` is NULL, message_queue_retrieve_options 
 774:Source\azure_iot_sdk\iothub_client\src/message_queue.c ****     if (message_queue == NULL)
 3152              		.loc 1 774 0
 3153 0006 10D1     		bne	.L203
 3154              	.LBB63:
 775:Source\azure_iot_sdk\iothub_client\src/message_queue.c ****     {
 776:Source\azure_iot_sdk\iothub_client\src/message_queue.c ****         LogError("invalid argument (message_queue is NULL)");
 3155              		.loc 1 776 0 discriminator 3
 3156 0008 FFF7FEFF 		bl	xlogging_get_log_function
 3157              	.LVL515:
 3158 000c 041E     		subs	r4, r0, #0
 3159              	.LVL516:
 3160 000e 79D0     		beq	.L211
 3161              		.loc 1 776 0 is_stmt 0 discriminator 4
 3162 0010 3E4B     		ldr	r3, .L212
 3163 0012 0193     		str	r3, [sp, #4]
 3164 0014 0123     		movs	r3, #1
 3165 0016 0093     		str	r3, [sp]
ARM GAS  C:\Users\Phuong\AppData\Local\Temp\ccaRXo0w.s 			page 73


 3166 0018 C223     		movs	r3, #194
 3167 001a 9B00     		lsls	r3, r3, #2
 3168 001c 3C4A     		ldr	r2, .L212+4
 3169 001e 5032     		adds	r2, r2, #80
 3170 0020 3C49     		ldr	r1, .L212+8
 3171 0022 0020     		movs	r0, #0
 3172              	.LVL517:
 3173 0024 A047     		blx	r4
 3174              	.LVL518:
 3175              	.LBE63:
 777:Source\azure_iot_sdk\iothub_client\src/message_queue.c ****         result = NULL;
 3176              		.loc 1 777 0 is_stmt 1 discriminator 4
 3177 0026 0024     		movs	r4, #0
 3178              	.LVL519:
 3179 0028 6DE0     		b	.L204
 3180              	.LVL520:
 3181              	.L203:
 778:Source\azure_iot_sdk\iothub_client\src/message_queue.c ****     }
 779:Source\azure_iot_sdk\iothub_client\src/message_queue.c ****     // Codes_SRS_MESSAGE_QUEUE_09_063: [An OPTIONHANDLER_HANDLE instance shall be created using Opt
 780:Source\azure_iot_sdk\iothub_client\src/message_queue.c ****     else if ((result = OptionHandler_Create(cloneOption, destroyOption, setOption)) == NULL)
 3182              		.loc 1 780 0
 3183 002a 3B4A     		ldr	r2, .L212+12
 3184 002c 3B49     		ldr	r1, .L212+16
 3185 002e 3C48     		ldr	r0, .L212+20
 3186              	.LVL521:
 3187 0030 FFF7FEFF 		bl	OptionHandler_Create
 3188              	.LVL522:
 3189 0034 041E     		subs	r4, r0, #0
 3190              	.LVL523:
 3191 0036 0ED1     		bne	.L205
 3192              	.LBB64:
 781:Source\azure_iot_sdk\iothub_client\src/message_queue.c ****     {
 782:Source\azure_iot_sdk\iothub_client\src/message_queue.c ****         // Codes_SRS_MESSAGE_QUEUE_09_064: [If an OPTIONHANDLER_HANDLE instance fails to be created
 783:Source\azure_iot_sdk\iothub_client\src/message_queue.c ****         LogError("failed creating OPTIONHANDLER_HANDLE");
 3193              		.loc 1 783 0 discriminator 3
 3194 0038 FFF7FEFF 		bl	xlogging_get_log_function
 3195              	.LVL524:
 3196 003c 051E     		subs	r5, r0, #0
 3197              	.LVL525:
 3198 003e 62D0     		beq	.L204
 3199              		.loc 1 783 0 is_stmt 0 discriminator 4
 3200 0040 384B     		ldr	r3, .L212+24
 3201 0042 0193     		str	r3, [sp, #4]
 3202 0044 0123     		movs	r3, #1
 3203 0046 0093     		str	r3, [sp]
 3204 0048 374B     		ldr	r3, .L212+28
 3205 004a 314A     		ldr	r2, .L212+4
 3206 004c 5032     		adds	r2, r2, #80
 3207 004e 3149     		ldr	r1, .L212+8
 3208 0050 0020     		movs	r0, #0
 3209              	.LVL526:
 3210 0052 A847     		blx	r5
 3211              	.LVL527:
 3212 0054 57E0     		b	.L204
 3213              	.LVL528:
 3214              	.L205:
 3215              	.LBE64:
ARM GAS  C:\Users\Phuong\AppData\Local\Temp\ccaRXo0w.s 			page 74


 784:Source\azure_iot_sdk\iothub_client\src/message_queue.c ****     }
 785:Source\azure_iot_sdk\iothub_client\src/message_queue.c ****     // Codes_SRS_MESSAGE_QUEUE_09_065: [Each option of `instance` shall be added to the OPTIONHANDL
 786:Source\azure_iot_sdk\iothub_client\src/message_queue.c ****     else if (OptionHandler_AddOption(result, SAVED_OPTION_MAX_ENQUEUE_TIME_SECS, &message_queue->ma
 3216              		.loc 1 786 0 is_stmt 1
 3217 0056 2A00     		movs	r2, r5
 3218 0058 3449     		ldr	r1, .L212+32
 3219 005a FFF7FEFF 		bl	OptionHandler_AddOption
 3220              	.LVL529:
 3221 005e 0028     		cmp	r0, #0
 3222 0060 15D0     		beq	.L206
 3223              	.LBB65:
 787:Source\azure_iot_sdk\iothub_client\src/message_queue.c ****     {
 788:Source\azure_iot_sdk\iothub_client\src/message_queue.c ****         LogError("failed retrieving options (failed adding %s)", SAVED_OPTION_MAX_ENQUEUE_TIME_SECS
 3224              		.loc 1 788 0 discriminator 3
 3225 0062 FFF7FEFF 		bl	xlogging_get_log_function
 3226              	.LVL530:
 3227 0066 051E     		subs	r5, r0, #0
 3228              	.LVL531:
 3229 0068 0CD0     		beq	.L207
 3230              		.loc 1 788 0 is_stmt 0 discriminator 4
 3231 006a 304B     		ldr	r3, .L212+32
 3232 006c 0293     		str	r3, [sp, #8]
 3233 006e 304B     		ldr	r3, .L212+36
 3234 0070 0193     		str	r3, [sp, #4]
 3235 0072 0123     		movs	r3, #1
 3236 0074 0093     		str	r3, [sp]
 3237 0076 C523     		movs	r3, #197
 3238 0078 9B00     		lsls	r3, r3, #2
 3239 007a 254A     		ldr	r2, .L212+4
 3240 007c 5032     		adds	r2, r2, #80
 3241 007e 2549     		ldr	r1, .L212+8
 3242 0080 0020     		movs	r0, #0
 3243              	.LVL532:
 3244 0082 A847     		blx	r5
 3245              	.LVL533:
 3246              	.L207:
 3247              	.LBE65:
 789:Source\azure_iot_sdk\iothub_client\src/message_queue.c ****         // Codes_SRS_MESSAGE_QUEUE_09_067: [If message_queue_retrieve_options fails, any allocated 
 790:Source\azure_iot_sdk\iothub_client\src/message_queue.c ****         OptionHandler_Destroy(result);
 3248              		.loc 1 790 0 is_stmt 1
 3249 0084 2000     		movs	r0, r4
 3250 0086 FFF7FEFF 		bl	OptionHandler_Destroy
 3251              	.LVL534:
 791:Source\azure_iot_sdk\iothub_client\src/message_queue.c ****         // Codes_SRS_MESSAGE_QUEUE_09_066: [If OptionHandler_AddOption fails, message_queue_retriev
 792:Source\azure_iot_sdk\iothub_client\src/message_queue.c ****         result = NULL;
 3252              		.loc 1 792 0
 3253 008a 0024     		movs	r4, #0
 3254 008c 3BE0     		b	.L204
 3255              	.LVL535:
 3256              	.L206:
 793:Source\azure_iot_sdk\iothub_client\src/message_queue.c ****     }
 794:Source\azure_iot_sdk\iothub_client\src/message_queue.c ****     else if (OptionHandler_AddOption(result, SAVED_OPTION_MAX_PROCESSING_TIME_SECS, &message_queue-
 3257              		.loc 1 794 0
 3258 008e 2A1D     		adds	r2, r5, #4
 3259 0090 2849     		ldr	r1, .L212+40
 3260 0092 2000     		movs	r0, r4
 3261 0094 FFF7FEFF 		bl	OptionHandler_AddOption
ARM GAS  C:\Users\Phuong\AppData\Local\Temp\ccaRXo0w.s 			page 75


 3262              	.LVL536:
 3263 0098 0028     		cmp	r0, #0
 3264 009a 15D0     		beq	.L208
 3265              	.LBB66:
 795:Source\azure_iot_sdk\iothub_client\src/message_queue.c ****     {
 796:Source\azure_iot_sdk\iothub_client\src/message_queue.c ****         LogError("failed retrieving options (failed adding %s)", SAVED_OPTION_MAX_PROCESSING_TIME_S
 3266              		.loc 1 796 0 discriminator 3
 3267 009c FFF7FEFF 		bl	xlogging_get_log_function
 3268              	.LVL537:
 3269 00a0 051E     		subs	r5, r0, #0
 3270              	.LVL538:
 3271 00a2 0CD0     		beq	.L209
 3272              		.loc 1 796 0 is_stmt 0 discriminator 4
 3273 00a4 234B     		ldr	r3, .L212+40
 3274 00a6 0293     		str	r3, [sp, #8]
 3275 00a8 214B     		ldr	r3, .L212+36
 3276 00aa 0193     		str	r3, [sp, #4]
 3277 00ac 0123     		movs	r3, #1
 3278 00ae 0093     		str	r3, [sp]
 3279 00b0 C723     		movs	r3, #199
 3280 00b2 9B00     		lsls	r3, r3, #2
 3281 00b4 164A     		ldr	r2, .L212+4
 3282 00b6 5032     		adds	r2, r2, #80
 3283 00b8 1649     		ldr	r1, .L212+8
 3284 00ba 0020     		movs	r0, #0
 3285              	.LVL539:
 3286 00bc A847     		blx	r5
 3287              	.LVL540:
 3288              	.L209:
 3289              	.LBE66:
 797:Source\azure_iot_sdk\iothub_client\src/message_queue.c ****         // Codes_SRS_MESSAGE_QUEUE_09_067: [If message_queue_retrieve_options fails, any allocated 
 798:Source\azure_iot_sdk\iothub_client\src/message_queue.c ****         OptionHandler_Destroy(result);
 3290              		.loc 1 798 0 is_stmt 1
 3291 00be 2000     		movs	r0, r4
 3292 00c0 FFF7FEFF 		bl	OptionHandler_Destroy
 3293              	.LVL541:
 799:Source\azure_iot_sdk\iothub_client\src/message_queue.c ****         // Codes_SRS_MESSAGE_QUEUE_09_066: [If OptionHandler_AddOption fails, message_queue_retriev
 800:Source\azure_iot_sdk\iothub_client\src/message_queue.c ****         result = NULL;
 3294              		.loc 1 800 0
 3295 00c4 0024     		movs	r4, #0
 3296 00c6 1EE0     		b	.L204
 3297              	.LVL542:
 3298              	.L208:
 801:Source\azure_iot_sdk\iothub_client\src/message_queue.c ****     }
 802:Source\azure_iot_sdk\iothub_client\src/message_queue.c ****     else if (OptionHandler_AddOption(result, SAVED_OPTION_MAX_RETRY_COUNT, &message_queue->max_retr
 3299              		.loc 1 802 0
 3300 00c8 2A00     		movs	r2, r5
 3301 00ca 0832     		adds	r2, r2, #8
 3302 00cc 1A49     		ldr	r1, .L212+44
 3303 00ce 2000     		movs	r0, r4
 3304 00d0 FFF7FEFF 		bl	OptionHandler_AddOption
 3305              	.LVL543:
 3306 00d4 0028     		cmp	r0, #0
 3307 00d6 16D0     		beq	.L204
 3308              	.LBB67:
 803:Source\azure_iot_sdk\iothub_client\src/message_queue.c ****     {
 804:Source\azure_iot_sdk\iothub_client\src/message_queue.c ****         LogError("failed retrieving options (failed adding %s)", SAVED_OPTION_MAX_PROCESSING_TIME_S
ARM GAS  C:\Users\Phuong\AppData\Local\Temp\ccaRXo0w.s 			page 76


 3309              		.loc 1 804 0 discriminator 3
 3310 00d8 FFF7FEFF 		bl	xlogging_get_log_function
 3311              	.LVL544:
 3312 00dc 051E     		subs	r5, r0, #0
 3313              	.LVL545:
 3314 00de 0CD0     		beq	.L210
 3315              		.loc 1 804 0 is_stmt 0 discriminator 4
 3316 00e0 144B     		ldr	r3, .L212+40
 3317 00e2 0293     		str	r3, [sp, #8]
 3318 00e4 124B     		ldr	r3, .L212+36
 3319 00e6 0193     		str	r3, [sp, #4]
 3320 00e8 0123     		movs	r3, #1
 3321 00ea 0093     		str	r3, [sp]
 3322 00ec C923     		movs	r3, #201
 3323 00ee 9B00     		lsls	r3, r3, #2
 3324 00f0 074A     		ldr	r2, .L212+4
 3325 00f2 5032     		adds	r2, r2, #80
 3326 00f4 0749     		ldr	r1, .L212+8
 3327 00f6 0020     		movs	r0, #0
 3328              	.LVL546:
 3329 00f8 A847     		blx	r5
 3330              	.LVL547:
 3331              	.L210:
 3332              	.LBE67:
 805:Source\azure_iot_sdk\iothub_client\src/message_queue.c ****         // Codes_SRS_MESSAGE_QUEUE_09_067: [If message_queue_retrieve_options fails, any allocated 
 806:Source\azure_iot_sdk\iothub_client\src/message_queue.c ****         OptionHandler_Destroy(result);
 3333              		.loc 1 806 0 is_stmt 1
 3334 00fa 2000     		movs	r0, r4
 3335 00fc FFF7FEFF 		bl	OptionHandler_Destroy
 3336              	.LVL548:
 807:Source\azure_iot_sdk\iothub_client\src/message_queue.c ****         // Codes_SRS_MESSAGE_QUEUE_09_066: [If OptionHandler_AddOption fails, message_queue_retriev
 808:Source\azure_iot_sdk\iothub_client\src/message_queue.c ****         result = NULL;
 3337              		.loc 1 808 0
 3338 0100 0024     		movs	r4, #0
 3339 0102 00E0     		b	.L204
 3340              	.LVL549:
 3341              	.L211:
 777:Source\azure_iot_sdk\iothub_client\src/message_queue.c ****     }
 3342              		.loc 1 777 0
 3343 0104 0024     		movs	r4, #0
 3344              	.LVL550:
 3345              	.L204:
 809:Source\azure_iot_sdk\iothub_client\src/message_queue.c ****     }
 810:Source\azure_iot_sdk\iothub_client\src/message_queue.c **** 
 811:Source\azure_iot_sdk\iothub_client\src/message_queue.c ****     // Codes_SRS_MESSAGE_QUEUE_09_068: [If no failures occur, message_queue_retrieve_options shall 
 812:Source\azure_iot_sdk\iothub_client\src/message_queue.c ****     return result;
 813:Source\azure_iot_sdk\iothub_client\src/message_queue.c **** }
 3346              		.loc 1 813 0
 3347 0106 2000     		movs	r0, r4
 3348 0108 05B0     		add	sp, sp, #20
 3349              		@ sp needed
 3350              	.LVL551:
 3351 010a 30BD     		pop	{r4, r5, pc}
 3352              	.L213:
 3353              		.align	2
 3354              	.L212:
 3355 010c E0030000 		.word	.LC64
ARM GAS  C:\Users\Phuong\AppData\Local\Temp\ccaRXo0w.s 			page 77


 3356 0110 80010000 		.word	.LANCHOR3
 3357 0114 00000000 		.word	.LC1
 3358 0118 00000000 		.word	setOption
 3359 011c 00000000 		.word	destroyOption
 3360 0120 00000000 		.word	cloneOption
 3361 0124 84060000 		.word	.LC123
 3362 0128 0F030000 		.word	783
 3363 012c 30030000 		.word	.LC45
 3364 0130 AC060000 		.word	.LC126
 3365 0134 54030000 		.word	.LC47
 3366 0138 7C030000 		.word	.LC49
 3367              		.cfi_endproc
 3368              	.LFE23:
 3369              		.size	message_queue_retrieve_options, .-message_queue_retrieve_options
 3370              		.section	.rodata
 3371              		.align	2
 3372              		.set	.LANCHOR0,. + 0
 3373              		.set	.LANCHOR1,. + 128
 3374              		.set	.LANCHOR2,. + 256
 3375              		.set	.LANCHOR3,. + 384
 3376              		.type	__func__.6082, %object
 3377              		.size	__func__.6082, 34
 3378              	__func__.6082:
 3379 0000 64657175 		.ascii	"dequeue_message_and_fire_callback\000"
 3379      6575655F 
 3379      6D657373 
 3379      6167655F 
 3379      616E645F 
 3380 0022 0000     		.space	2
 3381              		.type	__func__.6198, %object
 3382              		.size	__func__.6198, 28
 3383              	__func__.6198:
 3384 0024 6D6F7665 		.ascii	"move_messages_between_lists\000"
 3384      5F6D6573 
 3384      73616765 
 3384      735F6265 
 3384      74776565 
 3385              		.type	__func__.6068, %object
 3386              		.size	__func__.6068, 22
 3387              	__func__.6068:
 3388 0040 72657472 		.ascii	"retry_sending_message\000"
 3388      795F7365 
 3388      6E64696E 
 3388      675F6D65 
 3388      73736167 
 3389 0056 0000     		.space	2
 3390              		.type	__func__.6140, %object
 3391              		.size	__func__.6140, 25
 3392              	__func__.6140:
 3393 0058 70726F63 		.ascii	"process_pending_messages\000"
 3393      6573735F 
 3393      70656E64 
 3393      696E675F 
 3393      6D657373 
 3394 0071 000000   		.space	3
 3395              		.type	__func__.6105, %object
 3396              		.size	__func__.6105, 17
ARM GAS  C:\Users\Phuong\AppData\Local\Temp\ccaRXo0w.s 			page 78


 3397              	__func__.6105:
 3398 0074 70726F63 		.ascii	"process_timeouts\000"
 3398      6573735F 
 3398      74696D65 
 3398      6F757473 
 3398      00
 3399 0085 000000   		.space	3
 3400              		.type	__func__.6092, %object
 3401              		.size	__func__.6092, 38
 3402              	__func__.6092:
 3403 0088 6F6E5F70 		.ascii	"on_process_message_completed_callback\000"
 3403      726F6365 
 3403      73735F6D 
 3403      65737361 
 3403      67655F63 
 3404 00ae 0000     		.space	2
 3405              		.type	__func__.6175, %object
 3406              		.size	__func__.6175, 14
 3407              	__func__.6175:
 3408 00b0 64657374 		.ascii	"destroyOption\000"
 3408      726F794F 
 3408      7074696F 
 3408      6E00
 3409 00be 0000     		.space	2
 3410              		.type	__func__.6161, %object
 3411              		.size	__func__.6161, 12
 3412              	__func__.6161:
 3413 00c0 636C6F6E 		.ascii	"cloneOption\000"
 3413      654F7074 
 3413      696F6E00 
 3414              		.type	__func__.6213, %object
 3415              		.size	__func__.6213, 39
 3416              	__func__.6213:
 3417 00cc 6D657373 		.ascii	"message_queue_move_all_back_to_pending\000"
 3417      6167655F 
 3417      71756575 
 3417      655F6D6F 
 3417      76655F61 
 3418 00f3 00       		.space	1
 3419              		.type	__func__.6241, %object
 3420              		.size	__func__.6241, 21
 3421              	__func__.6241:
 3422 00f4 6D657373 		.ascii	"message_queue_create\000"
 3422      6167655F 
 3422      71756575 
 3422      655F6372 
 3422      65617465 
 3423 0109 000000   		.space	3
 3424              		.type	__func__.6264, %object
 3425              		.size	__func__.6264, 18
 3426              	__func__.6264:
 3427 010c 6D657373 		.ascii	"message_queue_add\000"
 3427      6167655F 
 3427      71756575 
 3427      655F6164 
 3427      6400
 3428 011e 0000     		.space	2
ARM GAS  C:\Users\Phuong\AppData\Local\Temp\ccaRXo0w.s 			page 79


 3429              		.type	__func__.6283, %object
 3430              		.size	__func__.6283, 23
 3431              	__func__.6283:
 3432 0120 6D657373 		.ascii	"message_queue_is_empty\000"
 3432      6167655F 
 3432      71756575 
 3432      655F6973 
 3432      5F656D70 
 3433 0137 00       		.space	1
 3434              		.type	__func__.6295, %object
 3435              		.size	__func__.6295, 49
 3436              	__func__.6295:
 3437 0138 6D657373 		.ascii	"message_queue_set_max_message_enqueued_time_secs\000"
 3437      6167655F 
 3437      71756575 
 3437      655F7365 
 3437      745F6D61 
 3438 0169 000000   		.space	3
 3439              		.type	__func__.6304, %object
 3440              		.size	__func__.6304, 51
 3441              	__func__.6304:
 3442 016c 6D657373 		.ascii	"message_queue_set_max_message_processing_time_secs\000"
 3442      6167655F 
 3442      71756575 
 3442      655F7365 
 3442      745F6D61 
 3443 019f 00       		.space	1
 3444              		.type	__func__.6313, %object
 3445              		.size	__func__.6313, 34
 3446              	__func__.6313:
 3447 01a0 6D657373 		.ascii	"message_queue_set_max_retry_count\000"
 3447      6167655F 
 3447      71756575 
 3447      655F7365 
 3447      745F6D61 
 3448 01c2 0000     		.space	2
 3449              		.type	__func__.6323, %object
 3450              		.size	__func__.6323, 10
 3451              	__func__.6323:
 3452 01c4 7365744F 		.ascii	"setOption\000"
 3452      7074696F 
 3452      6E00
 3453 01ce 0000     		.space	2
 3454              		.type	__func__.6343, %object
 3455              		.size	__func__.6343, 31
 3456              	__func__.6343:
 3457 01d0 6D657373 		.ascii	"message_queue_retrieve_options\000"
 3457      6167655F 
 3457      71756575 
 3457      655F7265 
 3457      74726965 
 3458              		.section	.rodata.str1.4,"aMS",%progbits,1
 3459              		.align	2
 3460              	.LC1:
 3461 0000 536F7572 		.ascii	"Source\\azure_iot_sdk\\iothub_client\\src\\message_"
 3461      63655C61 
 3461      7A757265 
ARM GAS  C:\Users\Phuong\AppData\Local\Temp\ccaRXo0w.s 			page 80


 3461      5F696F74 
 3461      5F73646B 
 3462 002f 71756575 		.ascii	"queue.c\000"
 3462      652E6300 
 3463 0037 00       		.space	1
 3464              	.LC3:
 3465 0038 6661696C 		.ascii	"failed removing message from list (%p)\000"
 3465      65642072 
 3465      656D6F76 
 3465      696E6720 
 3465      6D657373 
 3466 005f 00       		.space	1
 3467              	.LC7:
 3468 0060 6661696C 		.ascii	"failed removing message from list\000"
 3468      65642072 
 3468      656D6F76 
 3468      696E6720 
 3468      6D657373 
 3469 0082 0000     		.space	2
 3470              	.LC9:
 3471 0084 6661696C 		.ascii	"failed moving message to list\000"
 3471      6564206D 
 3471      6F76696E 
 3471      67206D65 
 3471      73736167 
 3472 00a2 0000     		.space	2
 3473              	.LC13:
 3474 00a4 4661696C 		.ascii	"Failed removing message from in-progress list\000"
 3474      65642072 
 3474      656D6F76 
 3474      696E6720 
 3474      6D657373 
 3475 00d2 0000     		.space	2
 3476              	.LC15:
 3477 00d4 4661696C 		.ascii	"Failed moving message back to pending list\000"
 3477      6564206D 
 3477      6F76696E 
 3477      67206D65 
 3477      73736167 
 3478 00ff 00       		.space	1
 3479              	.LC19:
 3480 0100 696E7465 		.ascii	"internal error, failed to retrieve list node value\000"
 3480      726E616C 
 3480      20657272 
 3480      6F722C20 
 3480      6661696C 
 3481 0133 00       		.space	1
 3482              	.LC21:
 3483 0134 6661696C 		.ascii	"failed moving message out of pending list (%p)\000"
 3483      6564206D 
 3483      6F76696E 
 3483      67206D65 
 3483      73736167 
 3484 0163 00       		.space	1
 3485              	.LC23:
 3486 0164 6661696C 		.ascii	"failed setting message processing_start_time (%p)\000"
 3486      65642073 
ARM GAS  C:\Users\Phuong\AppData\Local\Temp\ccaRXo0w.s 			page 81


 3486      65747469 
 3486      6E67206D 
 3486      65737361 
 3487 0196 0000     		.space	2
 3488              	.LC25:
 3489 0198 6661696C 		.ascii	"failed moving message to in-progress list (%p)\000"
 3489      6564206D 
 3489      6F76696E 
 3489      67206D65 
 3489      73736167 
 3490 01c7 00       		.space	1
 3491              	.LC30:
 3492 01c8 6661696C 		.ascii	"failed processing timeouts (get_time failed)\000"
 3492      65642070 
 3492      726F6365 
 3492      7373696E 
 3492      67207469 
 3493 01f5 000000   		.space	3
 3494              	.LC32:
 3495 01f8 6661696C 		.ascii	"failed processing timeouts (unexpected NULL pointer"
 3495      65642070 
 3495      726F6365 
 3495      7373696E 
 3495      67207469 
 3496 022b 20746F20 		.ascii	" to MESSAGE_QUEUE_ITEM)\000"
 3496      4D455353 
 3496      4147455F 
 3496      51554555 
 3496      455F4954 
 3497 0243 00       		.space	1
 3498              	.LC36:
 3499 0244 6F6E5F70 		.ascii	"on_process_message_completed_callback invoked with "
 3499      726F6365 
 3499      73735F6D 
 3499      65737361 
 3499      67655F63 
 3500 0277 4E554C4C 		.ascii	"NULL arguments (message=%p, message_queue=%p)\000"
 3500      20617267 
 3500      756D656E 
 3500      74732028 
 3500      6D657373 
 3501 02a5 000000   		.space	3
 3502              	.LC39:
 3503 02a8 6F6E5F70 		.ascii	"on_process_message_completed_callback invoked for a"
 3503      726F6365 
 3503      73735F6D 
 3503      65737361 
 3503      67655F63 
 3504 02db 206D6573 		.ascii	" message not in the in-progress list (%p)\000"
 3504      73616765 
 3504      206E6F74 
 3504      20696E20 
 3504      74686520 
 3505 0305 000000   		.space	3
 3506              	.LC43:
 3507 0308 696E7661 		.ascii	"invalid argument (name=%p, value=%p)\000"
 3507      6C696420 
ARM GAS  C:\Users\Phuong\AppData\Local\Temp\ccaRXo0w.s 			page 82


 3507      61726775 
 3507      6D656E74 
 3507      20286E61 
 3508 032d 000000   		.space	3
 3509              	.LC45:
 3510 0330 53415645 		.ascii	"SAVED_OPTION_MAX_ENQUEUE_TIME_SECS\000"
 3510      445F4F50 
 3510      54494F4E 
 3510      5F4D4158 
 3510      5F454E51 
 3511 0353 00       		.space	1
 3512              	.LC47:
 3513 0354 53415645 		.ascii	"SAVED_OPTION_MAX_PROCESSING_TIME_SECS\000"
 3513      445F4F50 
 3513      54494F4E 
 3513      5F4D4158 
 3513      5F50524F 
 3514 037a 0000     		.space	2
 3515              	.LC49:
 3516 037c 53415645 		.ascii	"SAVED_OPTION_MAX_RETRY_COUNT\000"
 3516      445F4F50 
 3516      54494F4E 
 3516      5F4D4158 
 3516      5F524554 
 3517 0399 000000   		.space	3
 3518              	.LC51:
 3519 039c 6F707469 		.ascii	"option %s is invalid\000"
 3519      6F6E2025 
 3519      73206973 
 3519      20696E76 
 3519      616C6964 
 3520 03b1 000000   		.space	3
 3521              	.LC59:
 3522 03b4 6661696C 		.ascii	"failed cloning option %s (malloc failed)\000"
 3522      65642063 
 3522      6C6F6E69 
 3522      6E67206F 
 3522      7074696F 
 3523 03dd 000000   		.space	3
 3524              	.LC64:
 3525 03e0 696E7661 		.ascii	"invalid argument (message_queue is NULL)\000"
 3525      6C696420 
 3525      61726775 
 3525      6D656E74 
 3525      20286D65 
 3526 0409 000000   		.space	3
 3527              	.LC66:
 3528 040c 6661696C 		.ascii	"failed creating temporary list\000"
 3528      65642063 
 3528      72656174 
 3528      696E6720 
 3528      74656D70 
 3529 042b 00       		.space	1
 3530              	.LC68:
 3531 042c 6661696C 		.ascii	"failed moving in-progress message to temporary list"
 3531      6564206D 
 3531      6F76696E 
ARM GAS  C:\Users\Phuong\AppData\Local\Temp\ccaRXo0w.s 			page 83


 3531      6720696E 
 3531      2D70726F 
 3532 045f 00       		.ascii	"\000"
 3533              	.LC70:
 3534 0460 6661696C 		.ascii	"failed moving pending message to temporary list\000"
 3534      6564206D 
 3534      6F76696E 
 3534      67207065 
 3534      6E64696E 
 3535              	.LC74:
 3536 0490 696E7661 		.ascii	"invalid configuration (NULL)\000"
 3536      6C696420 
 3536      636F6E66 
 3536      69677572 
 3536      6174696F 
 3537 04ad 000000   		.space	3
 3538              	.LC76:
 3539 04b0 696E7661 		.ascii	"invalid configuration (on_process_message_callback "
 3539      6C696420 
 3539      636F6E66 
 3539      69677572 
 3539      6174696F 
 3540 04e3 6973204E 		.ascii	"is NULL)\000"
 3540      554C4C29 
 3540      00
 3541              	.LC78:
 3542 04ec 6661696C 		.ascii	"failed allocating MESSAGE_QUEUE\000"
 3542      65642061 
 3542      6C6C6F63 
 3542      6174696E 
 3542      67204D45 
 3543              	.LC80:
 3544 050c 6661696C 		.ascii	"failed allocating MESSAGE_QUEUE pending list\000"
 3544      65642061 
 3544      6C6C6F63 
 3544      6174696E 
 3544      67204D45 
 3545 0539 000000   		.space	3
 3546              	.LC82:
 3547 053c 6661696C 		.ascii	"failed allocating MESSAGE_QUEUE in-progress list\000"
 3547      65642061 
 3547      6C6C6F63 
 3547      6174696E 
 3547      67204D45 
 3548 056d 000000   		.space	3
 3549              	.LC86:
 3550 0570 696E7661 		.ascii	"invalid argument (message_queue=%p, message=%p)\000"
 3550      6C696420 
 3550      61726775 
 3550      6D656E74 
 3550      20286D65 
 3551              	.LC88:
 3552 05a0 6661696C 		.ascii	"failed creating container for message\000"
 3552      65642063 
 3552      72656174 
 3552      696E6720 
 3552      636F6E74 
ARM GAS  C:\Users\Phuong\AppData\Local\Temp\ccaRXo0w.s 			page 84


 3553 05c6 0000     		.space	2
 3554              	.LC90:
 3555 05c8 6661696C 		.ascii	"failed setting message enqueue time\000"
 3555      65642073 
 3555      65747469 
 3555      6E67206D 
 3555      65737361 
 3556              	.LC92:
 3557 05ec 6661696C 		.ascii	"failed enqueing message\000"
 3557      65642065 
 3557      6E717565 
 3557      696E6720 
 3557      6D657373 
 3558              	.LC96:
 3559 0604 696E7661 		.ascii	"invalid argument (message_queue=%p, is_empty=%p)\000"
 3559      6C696420 
 3559      61726775 
 3559      6D656E74 
 3559      20286D65 
 3560 0635 000000   		.space	3
 3561              	.LC109:
 3562 0638 696E7661 		.ascii	"invalid argument (handle=%p, name=%p, value=%p)\000"
 3562      6C696420 
 3562      61726775 
 3562      6D656E74 
 3562      20286861 
 3563              	.LC112:
 3564 0668 6661696C 		.ascii	"failed setting option %s\000"
 3564      65642073 
 3564      65747469 
 3564      6E67206F 
 3564      7074696F 
 3565 0681 000000   		.space	3
 3566              	.LC123:
 3567 0684 6661696C 		.ascii	"failed creating OPTIONHANDLER_HANDLE\000"
 3567      65642063 
 3567      72656174 
 3567      696E6720 
 3567      4F505449 
 3568 06a9 000000   		.space	3
 3569              	.LC126:
 3570 06ac 6661696C 		.ascii	"failed retrieving options (failed adding %s)\000"
 3570      65642072 
 3570      65747269 
 3570      6576696E 
 3570      67206F70 
 3571              		.text
 3572              	.Letext0:
 3573              		.file 2 "c:\\program files (x86)\\cypress\\psoc creator\\4.2\\psoc creator\\import\\gnu\\arm\\5.4.
 3574              		.file 3 "c:\\program files (x86)\\cypress\\psoc creator\\4.2\\psoc creator\\import\\gnu\\arm\\5.4.
 3575              		.file 4 ".\\Source\\azure_iot_sdk\\c-utility\\inc/azure_c_shared_utility/xlogging.h"
 3576              		.file 5 ".\\Source\\azure_iot_sdk\\c-utility\\inc/azure_c_shared_utility/singlylinkedlist.h"
 3577              		.file 6 ".\\Source\\azure_iot_sdk\\c-utility\\inc/azure_c_shared_utility/optionhandler.h"
 3578              		.file 7 ".\\Source\\azure_iot_sdk\\iothub_client\\inc/internal/message_queue.h"
 3579              		.file 8 "c:\\program files (x86)\\cypress\\psoc creator\\4.2\\psoc creator\\import\\gnu\\arm\\5.4.
 3580              		.file 9 ".\\Source\\azure_iot_sdk\\c-utility\\inc/azure_c_shared_utility/agenttime.h"
 3581              		.file 10 "c:\\program files (x86)\\cypress\\psoc creator\\4.2\\psoc creator\\import\\gnu\\arm\\5.4
ARM GAS  C:\Users\Phuong\AppData\Local\Temp\ccaRXo0w.s 			page 85

