ARM GAS  C:\Users\Phuong\AppData\Local\Temp\ccAr19Md.s 			page 1


   1              		.syntax unified
   2              		.cpu cortex-m0plus
   3              		.fpu softvfp
   4              		.eabi_attribute 20, 1
   5              		.eabi_attribute 21, 1
   6              		.eabi_attribute 23, 3
   7              		.eabi_attribute 24, 1
   8              		.eabi_attribute 25, 1
   9              		.eabi_attribute 26, 1
  10              		.eabi_attribute 30, 1
  11              		.eabi_attribute 34, 0
  12              		.eabi_attribute 18, 4
  13              		.thumb
  14              		.syntax unified
  15              		.file	"netbuf.c"
  16              		.text
  17              	.Ltext0:
  18              		.cfi_sections	.debug_frame
  19              		.section	.text.netbuf_new,"ax",%progbits
  20              		.align	2
  21              		.global	netbuf_new
  22              		.code	16
  23              		.thumb_func
  24              		.type	netbuf_new, %function
  25              	netbuf_new:
  26              	.LFB53:
  27              		.file 1 "Source\\LwIP\\src\\api\\netbuf.c"
   1:Source\LwIP\src\api/netbuf.c **** /**
   2:Source\LwIP\src\api/netbuf.c ****  * @file
   3:Source\LwIP\src\api/netbuf.c ****  * Network buffer management
   4:Source\LwIP\src\api/netbuf.c ****  *
   5:Source\LwIP\src\api/netbuf.c ****  * @defgroup netbuf Network buffers
   6:Source\LwIP\src\api/netbuf.c ****  * @ingroup netconn
   7:Source\LwIP\src\api/netbuf.c ****  * Network buffer descriptor for @ref netconn. Based on @ref pbuf internally
   8:Source\LwIP\src\api/netbuf.c ****  * to avoid copying data around.\n
   9:Source\LwIP\src\api/netbuf.c ****  * Buffers must not be shared accross multiple threads, all functions except
  10:Source\LwIP\src\api/netbuf.c ****  * netbuf_new() and netbuf_delete() are not thread-safe.
  11:Source\LwIP\src\api/netbuf.c ****  */
  12:Source\LwIP\src\api/netbuf.c **** 
  13:Source\LwIP\src\api/netbuf.c **** /*
  14:Source\LwIP\src\api/netbuf.c ****  * Copyright (c) 2001-2004 Swedish Institute of Computer Science.
  15:Source\LwIP\src\api/netbuf.c ****  * All rights reserved.
  16:Source\LwIP\src\api/netbuf.c ****  *
  17:Source\LwIP\src\api/netbuf.c ****  * Redistribution and use in source and binary forms, with or without modification,
  18:Source\LwIP\src\api/netbuf.c ****  * are permitted provided that the following conditions are met:
  19:Source\LwIP\src\api/netbuf.c ****  *
  20:Source\LwIP\src\api/netbuf.c ****  * 1. Redistributions of source code must retain the above copyright notice,
  21:Source\LwIP\src\api/netbuf.c ****  *    this list of conditions and the following disclaimer.
  22:Source\LwIP\src\api/netbuf.c ****  * 2. Redistributions in binary form must reproduce the above copyright notice,
  23:Source\LwIP\src\api/netbuf.c ****  *    this list of conditions and the following disclaimer in the documentation
  24:Source\LwIP\src\api/netbuf.c ****  *    and/or other materials provided with the distribution.
  25:Source\LwIP\src\api/netbuf.c ****  * 3. The name of the author may not be used to endorse or promote products
  26:Source\LwIP\src\api/netbuf.c ****  *    derived from this software without specific prior written permission.
  27:Source\LwIP\src\api/netbuf.c ****  *
  28:Source\LwIP\src\api/netbuf.c ****  * THIS SOFTWARE IS PROVIDED BY THE AUTHOR ``AS IS'' AND ANY EXPRESS OR IMPLIED
  29:Source\LwIP\src\api/netbuf.c ****  * WARRANTIES, INCLUDING, BUT NOT LIMITED TO, THE IMPLIED WARRANTIES OF
  30:Source\LwIP\src\api/netbuf.c ****  * MERCHANTABILITY AND FITNESS FOR A PARTICULAR PURPOSE ARE DISCLAIMED. IN NO EVENT
ARM GAS  C:\Users\Phuong\AppData\Local\Temp\ccAr19Md.s 			page 2


  31:Source\LwIP\src\api/netbuf.c ****  * SHALL THE AUTHOR BE LIABLE FOR ANY DIRECT, INDIRECT, INCIDENTAL, SPECIAL,
  32:Source\LwIP\src\api/netbuf.c ****  * EXEMPLARY, OR CONSEQUENTIAL DAMAGES (INCLUDING, BUT NOT LIMITED TO, PROCUREMENT
  33:Source\LwIP\src\api/netbuf.c ****  * OF SUBSTITUTE GOODS OR SERVICES; LOSS OF USE, DATA, OR PROFITS; OR BUSINESS
  34:Source\LwIP\src\api/netbuf.c ****  * INTERRUPTION) HOWEVER CAUSED AND ON ANY THEORY OF LIABILITY, WHETHER IN
  35:Source\LwIP\src\api/netbuf.c ****  * CONTRACT, STRICT LIABILITY, OR TORT (INCLUDING NEGLIGENCE OR OTHERWISE) ARISING
  36:Source\LwIP\src\api/netbuf.c ****  * IN ANY WAY OUT OF THE USE OF THIS SOFTWARE, EVEN IF ADVISED OF THE POSSIBILITY
  37:Source\LwIP\src\api/netbuf.c ****  * OF SUCH DAMAGE.
  38:Source\LwIP\src\api/netbuf.c ****  *
  39:Source\LwIP\src\api/netbuf.c ****  * This file is part of the lwIP TCP/IP stack.
  40:Source\LwIP\src\api/netbuf.c ****  *
  41:Source\LwIP\src\api/netbuf.c ****  * Author: Adam Dunkels <adam@sics.se>
  42:Source\LwIP\src\api/netbuf.c ****  *
  43:Source\LwIP\src\api/netbuf.c ****  */
  44:Source\LwIP\src\api/netbuf.c **** 
  45:Source\LwIP\src\api/netbuf.c **** #include "lwip/opt.h"
  46:Source\LwIP\src\api/netbuf.c **** 
  47:Source\LwIP\src\api/netbuf.c **** #if LWIP_NETCONN /* don't build if not configured for use in lwipopts.h */
  48:Source\LwIP\src\api/netbuf.c **** 
  49:Source\LwIP\src\api/netbuf.c **** #include "lwip/netbuf.h"
  50:Source\LwIP\src\api/netbuf.c **** #include "lwip/memp.h"
  51:Source\LwIP\src\api/netbuf.c **** 
  52:Source\LwIP\src\api/netbuf.c **** #include <string.h>
  53:Source\LwIP\src\api/netbuf.c **** 
  54:Source\LwIP\src\api/netbuf.c **** /**
  55:Source\LwIP\src\api/netbuf.c ****  * @ingroup netbuf
  56:Source\LwIP\src\api/netbuf.c ****  * Create (allocate) and initialize a new netbuf.
  57:Source\LwIP\src\api/netbuf.c ****  * The netbuf doesn't yet contain a packet buffer!
  58:Source\LwIP\src\api/netbuf.c ****  *
  59:Source\LwIP\src\api/netbuf.c ****  * @return a pointer to a new netbuf
  60:Source\LwIP\src\api/netbuf.c ****  *         NULL on lack of memory
  61:Source\LwIP\src\api/netbuf.c ****  */
  62:Source\LwIP\src\api/netbuf.c **** struct
  63:Source\LwIP\src\api/netbuf.c **** netbuf *netbuf_new(void)
  64:Source\LwIP\src\api/netbuf.c **** {
  28              		.loc 1 64 0
  29              		.cfi_startproc
  30              		@ args = 0, pretend = 0, frame = 0
  31              		@ frame_needed = 0, uses_anonymous_args = 0
  32 0000 10B5     		push	{r4, lr}
  33              		.cfi_def_cfa_offset 8
  34              		.cfi_offset 4, -8
  35              		.cfi_offset 14, -4
  65:Source\LwIP\src\api/netbuf.c ****   struct netbuf *buf;
  66:Source\LwIP\src\api/netbuf.c **** 
  67:Source\LwIP\src\api/netbuf.c ****   buf = (struct netbuf *)memp_malloc(MEMP_NETBUF);
  36              		.loc 1 67 0
  37 0002 4322     		movs	r2, #67
  38 0004 0549     		ldr	r1, .L3
  39 0006 0620     		movs	r0, #6
  40 0008 FFF7FEFF 		bl	memp_malloc_fn
  41              	.LVL0:
  42 000c 041E     		subs	r4, r0, #0
  43              	.LVL1:
  68:Source\LwIP\src\api/netbuf.c ****   if (buf != NULL) {
  44              		.loc 1 68 0
  45 000e 03D0     		beq	.L2
  69:Source\LwIP\src\api/netbuf.c ****     memset(buf, 0, sizeof(struct netbuf));
ARM GAS  C:\Users\Phuong\AppData\Local\Temp\ccAr19Md.s 			page 3


  46              		.loc 1 69 0
  47 0010 1022     		movs	r2, #16
  48 0012 0021     		movs	r1, #0
  49 0014 FFF7FEFF 		bl	memset
  50              	.LVL2:
  51              	.L2:
  70:Source\LwIP\src\api/netbuf.c ****   }
  71:Source\LwIP\src\api/netbuf.c ****   return buf;
  72:Source\LwIP\src\api/netbuf.c **** }
  52              		.loc 1 72 0
  53 0018 2000     		movs	r0, r4
  54              		@ sp needed
  55              	.LVL3:
  56 001a 10BD     		pop	{r4, pc}
  57              	.L4:
  58              		.align	2
  59              	.L3:
  60 001c 00000000 		.word	.LC0
  61              		.cfi_endproc
  62              	.LFE53:
  63              		.size	netbuf_new, .-netbuf_new
  64              		.section	.text.netbuf_delete,"ax",%progbits
  65              		.align	2
  66              		.global	netbuf_delete
  67              		.code	16
  68              		.thumb_func
  69              		.type	netbuf_delete, %function
  70              	netbuf_delete:
  71              	.LFB54:
  73:Source\LwIP\src\api/netbuf.c **** 
  74:Source\LwIP\src\api/netbuf.c **** /**
  75:Source\LwIP\src\api/netbuf.c ****  * @ingroup netbuf
  76:Source\LwIP\src\api/netbuf.c ****  * Deallocate a netbuf allocated by netbuf_new().
  77:Source\LwIP\src\api/netbuf.c ****  *
  78:Source\LwIP\src\api/netbuf.c ****  * @param buf pointer to a netbuf allocated by netbuf_new()
  79:Source\LwIP\src\api/netbuf.c ****  */
  80:Source\LwIP\src\api/netbuf.c **** void
  81:Source\LwIP\src\api/netbuf.c **** netbuf_delete(struct netbuf *buf)
  82:Source\LwIP\src\api/netbuf.c **** {
  72              		.loc 1 82 0
  73              		.cfi_startproc
  74              		@ args = 0, pretend = 0, frame = 0
  75              		@ frame_needed = 0, uses_anonymous_args = 0
  76              	.LVL4:
  77 0000 10B5     		push	{r4, lr}
  78              		.cfi_def_cfa_offset 8
  79              		.cfi_offset 4, -8
  80              		.cfi_offset 14, -4
  81 0002 041E     		subs	r4, r0, #0
  83:Source\LwIP\src\api/netbuf.c ****   if (buf != NULL) {
  82              		.loc 1 83 0
  83 0004 0BD0     		beq	.L5
  84:Source\LwIP\src\api/netbuf.c ****     if (buf->p != NULL) {
  84              		.loc 1 84 0
  85 0006 0068     		ldr	r0, [r0]
  86              	.LVL5:
  87 0008 0028     		cmp	r0, #0
ARM GAS  C:\Users\Phuong\AppData\Local\Temp\ccAr19Md.s 			page 4


  88 000a 04D0     		beq	.L7
  85:Source\LwIP\src\api/netbuf.c ****       pbuf_free(buf->p);
  89              		.loc 1 85 0
  90 000c FFF7FEFF 		bl	pbuf_free
  91              	.LVL6:
  86:Source\LwIP\src\api/netbuf.c ****       buf->p = buf->ptr = NULL;
  92              		.loc 1 86 0
  93 0010 0023     		movs	r3, #0
  94 0012 6360     		str	r3, [r4, #4]
  95 0014 2360     		str	r3, [r4]
  96              	.L7:
  87:Source\LwIP\src\api/netbuf.c ****     }
  88:Source\LwIP\src\api/netbuf.c ****     memp_free(MEMP_NETBUF, buf);
  97              		.loc 1 88 0
  98 0016 2100     		movs	r1, r4
  99 0018 0620     		movs	r0, #6
 100 001a FFF7FEFF 		bl	memp_free
 101              	.LVL7:
 102              	.L5:
  89:Source\LwIP\src\api/netbuf.c ****   }
  90:Source\LwIP\src\api/netbuf.c **** }
 103              		.loc 1 90 0
 104              		@ sp needed
 105              	.LVL8:
 106 001e 10BD     		pop	{r4, pc}
 107              		.cfi_endproc
 108              	.LFE54:
 109              		.size	netbuf_delete, .-netbuf_delete
 110              		.section	.text.netbuf_alloc,"ax",%progbits
 111              		.align	2
 112              		.global	netbuf_alloc
 113              		.code	16
 114              		.thumb_func
 115              		.type	netbuf_alloc, %function
 116              	netbuf_alloc:
 117              	.LFB55:
  91:Source\LwIP\src\api/netbuf.c **** 
  92:Source\LwIP\src\api/netbuf.c **** /**
  93:Source\LwIP\src\api/netbuf.c ****  * @ingroup netbuf
  94:Source\LwIP\src\api/netbuf.c ****  * Allocate memory for a packet buffer for a given netbuf.
  95:Source\LwIP\src\api/netbuf.c ****  *
  96:Source\LwIP\src\api/netbuf.c ****  * @param buf the netbuf for which to allocate a packet buffer
  97:Source\LwIP\src\api/netbuf.c ****  * @param size the size of the packet buffer to allocate
  98:Source\LwIP\src\api/netbuf.c ****  * @return pointer to the allocated memory
  99:Source\LwIP\src\api/netbuf.c ****  *         NULL if no memory could be allocated
 100:Source\LwIP\src\api/netbuf.c ****  */
 101:Source\LwIP\src\api/netbuf.c **** void *
 102:Source\LwIP\src\api/netbuf.c **** netbuf_alloc(struct netbuf *buf, u16_t size)
 103:Source\LwIP\src\api/netbuf.c **** {
 118              		.loc 1 103 0
 119              		.cfi_startproc
 120              		@ args = 0, pretend = 0, frame = 0
 121              		@ frame_needed = 0, uses_anonymous_args = 0
 122              	.LVL9:
 123 0000 70B5     		push	{r4, r5, r6, lr}
 124              		.cfi_def_cfa_offset 16
 125              		.cfi_offset 4, -16
ARM GAS  C:\Users\Phuong\AppData\Local\Temp\ccAr19Md.s 			page 5


 126              		.cfi_offset 5, -12
 127              		.cfi_offset 6, -8
 128              		.cfi_offset 14, -4
 129 0002 0400     		movs	r4, r0
 130 0004 0D00     		movs	r5, r1
 104:Source\LwIP\src\api/netbuf.c ****   LWIP_ERROR("netbuf_alloc: invalid buf", (buf != NULL), return NULL;);
 131              		.loc 1 104 0
 132 0006 0028     		cmp	r0, #0
 133 0008 0FD0     		beq	.L11
 105:Source\LwIP\src\api/netbuf.c **** 
 106:Source\LwIP\src\api/netbuf.c ****   /* Deallocate any previously allocated memory. */
 107:Source\LwIP\src\api/netbuf.c ****   if (buf->p != NULL) {
 134              		.loc 1 107 0
 135 000a 0068     		ldr	r0, [r0]
 136              	.LVL10:
 137 000c 0028     		cmp	r0, #0
 138 000e 01D0     		beq	.L10
 108:Source\LwIP\src\api/netbuf.c ****     pbuf_free(buf->p);
 139              		.loc 1 108 0
 140 0010 FFF7FEFF 		bl	pbuf_free
 141              	.LVL11:
 142              	.L10:
 109:Source\LwIP\src\api/netbuf.c ****   }
 110:Source\LwIP\src\api/netbuf.c ****   buf->p = pbuf_alloc(PBUF_TRANSPORT, size, PBUF_RAM);
 143              		.loc 1 110 0
 144 0014 0022     		movs	r2, #0
 145 0016 2900     		movs	r1, r5
 146 0018 0020     		movs	r0, #0
 147 001a FFF7FEFF 		bl	pbuf_alloc
 148              	.LVL12:
 149 001e 2060     		str	r0, [r4]
 111:Source\LwIP\src\api/netbuf.c ****   if (buf->p == NULL) {
 150              		.loc 1 111 0
 151 0020 0028     		cmp	r0, #0
 152 0022 04D0     		beq	.L12
 112:Source\LwIP\src\api/netbuf.c ****      return NULL;
 113:Source\LwIP\src\api/netbuf.c ****   }
 114:Source\LwIP\src\api/netbuf.c ****   LWIP_ASSERT("check that first pbuf can hold size",
 115:Source\LwIP\src\api/netbuf.c ****              (buf->p->len >= size));
 116:Source\LwIP\src\api/netbuf.c ****   buf->ptr = buf->p;
 153              		.loc 1 116 0
 154 0024 6060     		str	r0, [r4, #4]
 117:Source\LwIP\src\api/netbuf.c ****   return buf->p->payload;
 155              		.loc 1 117 0
 156 0026 4068     		ldr	r0, [r0, #4]
 157 0028 02E0     		b	.L9
 158              	.LVL13:
 159              	.L11:
 104:Source\LwIP\src\api/netbuf.c **** 
 160              		.loc 1 104 0
 161 002a 0020     		movs	r0, #0
 162              	.LVL14:
 163 002c 00E0     		b	.L9
 164              	.LVL15:
 165              	.L12:
 112:Source\LwIP\src\api/netbuf.c ****      return NULL;
 166              		.loc 1 112 0
ARM GAS  C:\Users\Phuong\AppData\Local\Temp\ccAr19Md.s 			page 6


 167 002e 0020     		movs	r0, #0
 168              	.L9:
 118:Source\LwIP\src\api/netbuf.c **** }
 169              		.loc 1 118 0
 170              		@ sp needed
 171              	.LVL16:
 172 0030 70BD     		pop	{r4, r5, r6, pc}
 173              		.cfi_endproc
 174              	.LFE55:
 175              		.size	netbuf_alloc, .-netbuf_alloc
 176 0032 C046     		.section	.text.netbuf_free,"ax",%progbits
 177              		.align	2
 178              		.global	netbuf_free
 179              		.code	16
 180              		.thumb_func
 181              		.type	netbuf_free, %function
 182              	netbuf_free:
 183              	.LFB56:
 119:Source\LwIP\src\api/netbuf.c **** 
 120:Source\LwIP\src\api/netbuf.c **** /**
 121:Source\LwIP\src\api/netbuf.c ****  * @ingroup netbuf
 122:Source\LwIP\src\api/netbuf.c ****  * Free the packet buffer included in a netbuf
 123:Source\LwIP\src\api/netbuf.c ****  *
 124:Source\LwIP\src\api/netbuf.c ****  * @param buf pointer to the netbuf which contains the packet buffer to free
 125:Source\LwIP\src\api/netbuf.c ****  */
 126:Source\LwIP\src\api/netbuf.c **** void
 127:Source\LwIP\src\api/netbuf.c **** netbuf_free(struct netbuf *buf)
 128:Source\LwIP\src\api/netbuf.c **** {
 184              		.loc 1 128 0
 185              		.cfi_startproc
 186              		@ args = 0, pretend = 0, frame = 0
 187              		@ frame_needed = 0, uses_anonymous_args = 0
 188              	.LVL17:
 189 0000 10B5     		push	{r4, lr}
 190              		.cfi_def_cfa_offset 8
 191              		.cfi_offset 4, -8
 192              		.cfi_offset 14, -4
 193 0002 041E     		subs	r4, r0, #0
 129:Source\LwIP\src\api/netbuf.c ****   LWIP_ERROR("netbuf_free: invalid buf", (buf != NULL), return;);
 194              		.loc 1 129 0
 195 0004 07D0     		beq	.L13
 130:Source\LwIP\src\api/netbuf.c ****   if (buf->p != NULL) {
 196              		.loc 1 130 0
 197 0006 0068     		ldr	r0, [r0]
 198              	.LVL18:
 199 0008 0028     		cmp	r0, #0
 200 000a 01D0     		beq	.L15
 131:Source\LwIP\src\api/netbuf.c ****     pbuf_free(buf->p);
 201              		.loc 1 131 0
 202 000c FFF7FEFF 		bl	pbuf_free
 203              	.LVL19:
 204              	.L15:
 132:Source\LwIP\src\api/netbuf.c ****   }
 133:Source\LwIP\src\api/netbuf.c ****   buf->p = buf->ptr = NULL;
 205              		.loc 1 133 0
 206 0010 0023     		movs	r3, #0
 207 0012 6360     		str	r3, [r4, #4]
ARM GAS  C:\Users\Phuong\AppData\Local\Temp\ccAr19Md.s 			page 7


 208 0014 2360     		str	r3, [r4]
 209              	.L13:
 134:Source\LwIP\src\api/netbuf.c **** }
 210              		.loc 1 134 0
 211              		@ sp needed
 212              	.LVL20:
 213 0016 10BD     		pop	{r4, pc}
 214              		.cfi_endproc
 215              	.LFE56:
 216              		.size	netbuf_free, .-netbuf_free
 217              		.section	.text.netbuf_ref,"ax",%progbits
 218              		.align	2
 219              		.global	netbuf_ref
 220              		.code	16
 221              		.thumb_func
 222              		.type	netbuf_ref, %function
 223              	netbuf_ref:
 224              	.LFB57:
 135:Source\LwIP\src\api/netbuf.c **** 
 136:Source\LwIP\src\api/netbuf.c **** /**
 137:Source\LwIP\src\api/netbuf.c ****  * @ingroup netbuf
 138:Source\LwIP\src\api/netbuf.c ****  * Let a netbuf reference existing (non-volatile) data.
 139:Source\LwIP\src\api/netbuf.c ****  *
 140:Source\LwIP\src\api/netbuf.c ****  * @param buf netbuf which should reference the data
 141:Source\LwIP\src\api/netbuf.c ****  * @param dataptr pointer to the data to reference
 142:Source\LwIP\src\api/netbuf.c ****  * @param size size of the data
 143:Source\LwIP\src\api/netbuf.c ****  * @return ERR_OK if data is referenced
 144:Source\LwIP\src\api/netbuf.c ****  *         ERR_MEM if data couldn't be referenced due to lack of memory
 145:Source\LwIP\src\api/netbuf.c ****  */
 146:Source\LwIP\src\api/netbuf.c **** err_t
 147:Source\LwIP\src\api/netbuf.c **** netbuf_ref(struct netbuf *buf, const void *dataptr, u16_t size)
 148:Source\LwIP\src\api/netbuf.c **** {
 225              		.loc 1 148 0
 226              		.cfi_startproc
 227              		@ args = 0, pretend = 0, frame = 0
 228              		@ frame_needed = 0, uses_anonymous_args = 0
 229              	.LVL21:
 230 0000 70B5     		push	{r4, r5, r6, lr}
 231              		.cfi_def_cfa_offset 16
 232              		.cfi_offset 4, -16
 233              		.cfi_offset 5, -12
 234              		.cfi_offset 6, -8
 235              		.cfi_offset 14, -4
 236 0002 0400     		movs	r4, r0
 237 0004 0E00     		movs	r6, r1
 238 0006 1500     		movs	r5, r2
 149:Source\LwIP\src\api/netbuf.c ****   LWIP_ERROR("netbuf_ref: invalid buf", (buf != NULL), return ERR_ARG;);
 239              		.loc 1 149 0
 240 0008 0028     		cmp	r0, #0
 241 000a 18D0     		beq	.L20
 150:Source\LwIP\src\api/netbuf.c ****   if (buf->p != NULL) {
 242              		.loc 1 150 0
 243 000c 0068     		ldr	r0, [r0]
 244              	.LVL22:
 245 000e 0028     		cmp	r0, #0
 246 0010 01D0     		beq	.L18
 151:Source\LwIP\src\api/netbuf.c ****     pbuf_free(buf->p);
ARM GAS  C:\Users\Phuong\AppData\Local\Temp\ccAr19Md.s 			page 8


 247              		.loc 1 151 0
 248 0012 FFF7FEFF 		bl	pbuf_free
 249              	.LVL23:
 250              	.L18:
 152:Source\LwIP\src\api/netbuf.c ****   }
 153:Source\LwIP\src\api/netbuf.c ****   buf->p = pbuf_alloc(PBUF_TRANSPORT, 0, PBUF_REF);
 251              		.loc 1 153 0
 252 0016 0222     		movs	r2, #2
 253 0018 0021     		movs	r1, #0
 254 001a 0020     		movs	r0, #0
 255 001c FFF7FEFF 		bl	pbuf_alloc
 256              	.LVL24:
 257 0020 2060     		str	r0, [r4]
 154:Source\LwIP\src\api/netbuf.c ****   if (buf->p == NULL) {
 258              		.loc 1 154 0
 259 0022 0028     		cmp	r0, #0
 260 0024 03D1     		bne	.L19
 155:Source\LwIP\src\api/netbuf.c ****     buf->ptr = NULL;
 261              		.loc 1 155 0
 262 0026 0023     		movs	r3, #0
 263 0028 6360     		str	r3, [r4, #4]
 156:Source\LwIP\src\api/netbuf.c ****     return ERR_MEM;
 264              		.loc 1 156 0
 265 002a 0138     		subs	r0, r0, #1
 266 002c 09E0     		b	.L17
 267              	.L19:
 157:Source\LwIP\src\api/netbuf.c ****   }
 158:Source\LwIP\src\api/netbuf.c ****   ((struct pbuf_rom*)buf->p)->payload = dataptr;
 268              		.loc 1 158 0
 269 002e 4660     		str	r6, [r0, #4]
 159:Source\LwIP\src\api/netbuf.c ****   buf->p->len = buf->p->tot_len = size;
 270              		.loc 1 159 0
 271 0030 2368     		ldr	r3, [r4]
 272 0032 1D81     		strh	r5, [r3, #8]
 273 0034 5D81     		strh	r5, [r3, #10]
 160:Source\LwIP\src\api/netbuf.c ****   buf->ptr = buf->p;
 274              		.loc 1 160 0
 275 0036 2368     		ldr	r3, [r4]
 276 0038 6360     		str	r3, [r4, #4]
 161:Source\LwIP\src\api/netbuf.c ****   return ERR_OK;
 277              		.loc 1 161 0
 278 003a 0020     		movs	r0, #0
 279 003c 01E0     		b	.L17
 280              	.LVL25:
 281              	.L20:
 149:Source\LwIP\src\api/netbuf.c ****   if (buf->p != NULL) {
 282              		.loc 1 149 0
 283 003e 1020     		movs	r0, #16
 284              	.LVL26:
 285 0040 4042     		rsbs	r0, r0, #0
 286              	.LVL27:
 287              	.L17:
 162:Source\LwIP\src\api/netbuf.c **** }
 288              		.loc 1 162 0
 289              		@ sp needed
 290              	.LVL28:
 291              	.LVL29:
ARM GAS  C:\Users\Phuong\AppData\Local\Temp\ccAr19Md.s 			page 9


 292 0042 70BD     		pop	{r4, r5, r6, pc}
 293              		.cfi_endproc
 294              	.LFE57:
 295              		.size	netbuf_ref, .-netbuf_ref
 296              		.section	.text.netbuf_chain,"ax",%progbits
 297              		.align	2
 298              		.global	netbuf_chain
 299              		.code	16
 300              		.thumb_func
 301              		.type	netbuf_chain, %function
 302              	netbuf_chain:
 303              	.LFB58:
 163:Source\LwIP\src\api/netbuf.c **** 
 164:Source\LwIP\src\api/netbuf.c **** /**
 165:Source\LwIP\src\api/netbuf.c ****  * @ingroup netbuf
 166:Source\LwIP\src\api/netbuf.c ****  * Chain one netbuf to another (@see pbuf_chain)
 167:Source\LwIP\src\api/netbuf.c ****  *
 168:Source\LwIP\src\api/netbuf.c ****  * @param head the first netbuf
 169:Source\LwIP\src\api/netbuf.c ****  * @param tail netbuf to chain after head, freed by this function, may not be reference after retur
 170:Source\LwIP\src\api/netbuf.c ****  */
 171:Source\LwIP\src\api/netbuf.c **** void
 172:Source\LwIP\src\api/netbuf.c **** netbuf_chain(struct netbuf *head, struct netbuf *tail)
 173:Source\LwIP\src\api/netbuf.c **** {
 304              		.loc 1 173 0
 305              		.cfi_startproc
 306              		@ args = 0, pretend = 0, frame = 0
 307              		@ frame_needed = 0, uses_anonymous_args = 0
 308              	.LVL30:
 309 0000 70B5     		push	{r4, r5, r6, lr}
 310              		.cfi_def_cfa_offset 16
 311              		.cfi_offset 4, -16
 312              		.cfi_offset 5, -12
 313              		.cfi_offset 6, -8
 314              		.cfi_offset 14, -4
 315 0002 0400     		movs	r4, r0
 316 0004 0D00     		movs	r5, r1
 174:Source\LwIP\src\api/netbuf.c ****   LWIP_ERROR("netbuf_chain: invalid head", (head != NULL), return;);
 317              		.loc 1 174 0
 318 0006 0028     		cmp	r0, #0
 319 0008 0BD0     		beq	.L21
 175:Source\LwIP\src\api/netbuf.c ****   LWIP_ERROR("netbuf_chain: invalid tail", (tail != NULL), return;);
 320              		.loc 1 175 0
 321 000a 0029     		cmp	r1, #0
 322 000c 09D0     		beq	.L21
 176:Source\LwIP\src\api/netbuf.c ****   pbuf_cat(head->p, tail->p);
 323              		.loc 1 176 0
 324 000e 0968     		ldr	r1, [r1]
 325              	.LVL31:
 326 0010 0068     		ldr	r0, [r0]
 327              	.LVL32:
 328 0012 FFF7FEFF 		bl	pbuf_cat
 329              	.LVL33:
 177:Source\LwIP\src\api/netbuf.c ****   head->ptr = head->p;
 330              		.loc 1 177 0
 331 0016 2368     		ldr	r3, [r4]
 332 0018 6360     		str	r3, [r4, #4]
 178:Source\LwIP\src\api/netbuf.c ****   memp_free(MEMP_NETBUF, tail);
ARM GAS  C:\Users\Phuong\AppData\Local\Temp\ccAr19Md.s 			page 10


 333              		.loc 1 178 0
 334 001a 2900     		movs	r1, r5
 335 001c 0620     		movs	r0, #6
 336 001e FFF7FEFF 		bl	memp_free
 337              	.LVL34:
 338              	.L21:
 179:Source\LwIP\src\api/netbuf.c **** }
 339              		.loc 1 179 0
 340              		@ sp needed
 341              	.LVL35:
 342              	.LVL36:
 343 0022 70BD     		pop	{r4, r5, r6, pc}
 344              		.cfi_endproc
 345              	.LFE58:
 346              		.size	netbuf_chain, .-netbuf_chain
 347              		.section	.text.netbuf_data,"ax",%progbits
 348              		.align	2
 349              		.global	netbuf_data
 350              		.code	16
 351              		.thumb_func
 352              		.type	netbuf_data, %function
 353              	netbuf_data:
 354              	.LFB59:
 180:Source\LwIP\src\api/netbuf.c **** 
 181:Source\LwIP\src\api/netbuf.c **** /**
 182:Source\LwIP\src\api/netbuf.c ****  * @ingroup netbuf
 183:Source\LwIP\src\api/netbuf.c ****  * Get the data pointer and length of the data inside a netbuf.
 184:Source\LwIP\src\api/netbuf.c ****  *
 185:Source\LwIP\src\api/netbuf.c ****  * @param buf netbuf to get the data from
 186:Source\LwIP\src\api/netbuf.c ****  * @param dataptr pointer to a void pointer where to store the data pointer
 187:Source\LwIP\src\api/netbuf.c ****  * @param len pointer to an u16_t where the length of the data is stored
 188:Source\LwIP\src\api/netbuf.c ****  * @return ERR_OK if the information was retrieved,
 189:Source\LwIP\src\api/netbuf.c ****  *         ERR_BUF on error.
 190:Source\LwIP\src\api/netbuf.c ****  */
 191:Source\LwIP\src\api/netbuf.c **** err_t
 192:Source\LwIP\src\api/netbuf.c **** netbuf_data(struct netbuf *buf, void **dataptr, u16_t *len)
 193:Source\LwIP\src\api/netbuf.c **** {
 355              		.loc 1 193 0
 356              		.cfi_startproc
 357              		@ args = 0, pretend = 0, frame = 0
 358              		@ frame_needed = 0, uses_anonymous_args = 0
 359              		@ link register save eliminated.
 360              	.LVL37:
 194:Source\LwIP\src\api/netbuf.c ****   LWIP_ERROR("netbuf_data: invalid buf", (buf != NULL), return ERR_ARG;);
 361              		.loc 1 194 0
 362 0000 0028     		cmp	r0, #0
 363 0002 0DD0     		beq	.L25
 195:Source\LwIP\src\api/netbuf.c ****   LWIP_ERROR("netbuf_data: invalid dataptr", (dataptr != NULL), return ERR_ARG;);
 364              		.loc 1 195 0
 365 0004 0029     		cmp	r1, #0
 366 0006 0ED0     		beq	.L26
 196:Source\LwIP\src\api/netbuf.c ****   LWIP_ERROR("netbuf_data: invalid len", (len != NULL), return ERR_ARG;);
 367              		.loc 1 196 0
 368 0008 002A     		cmp	r2, #0
 369 000a 0FD0     		beq	.L27
 197:Source\LwIP\src\api/netbuf.c **** 
 198:Source\LwIP\src\api/netbuf.c ****   if (buf->ptr == NULL) {
ARM GAS  C:\Users\Phuong\AppData\Local\Temp\ccAr19Md.s 			page 11


 370              		.loc 1 198 0
 371 000c 4368     		ldr	r3, [r0, #4]
 372 000e 002B     		cmp	r3, #0
 373 0010 0FD0     		beq	.L28
 199:Source\LwIP\src\api/netbuf.c ****     return ERR_BUF;
 200:Source\LwIP\src\api/netbuf.c ****   }
 201:Source\LwIP\src\api/netbuf.c ****   *dataptr = buf->ptr->payload;
 374              		.loc 1 201 0
 375 0012 5B68     		ldr	r3, [r3, #4]
 376 0014 0B60     		str	r3, [r1]
 202:Source\LwIP\src\api/netbuf.c ****   *len = buf->ptr->len;
 377              		.loc 1 202 0
 378 0016 4368     		ldr	r3, [r0, #4]
 379 0018 5B89     		ldrh	r3, [r3, #10]
 380 001a 1380     		strh	r3, [r2]
 203:Source\LwIP\src\api/netbuf.c ****   return ERR_OK;
 381              		.loc 1 203 0
 382 001c 0020     		movs	r0, #0
 383              	.LVL38:
 384 001e 0AE0     		b	.L24
 385              	.LVL39:
 386              	.L25:
 194:Source\LwIP\src\api/netbuf.c ****   LWIP_ERROR("netbuf_data: invalid dataptr", (dataptr != NULL), return ERR_ARG;);
 387              		.loc 1 194 0
 388 0020 1020     		movs	r0, #16
 389              	.LVL40:
 390 0022 4042     		rsbs	r0, r0, #0
 391 0024 07E0     		b	.L24
 392              	.LVL41:
 393              	.L26:
 195:Source\LwIP\src\api/netbuf.c ****   LWIP_ERROR("netbuf_data: invalid len", (len != NULL), return ERR_ARG;);
 394              		.loc 1 195 0
 395 0026 1020     		movs	r0, #16
 396              	.LVL42:
 397 0028 4042     		rsbs	r0, r0, #0
 398 002a 04E0     		b	.L24
 399              	.LVL43:
 400              	.L27:
 196:Source\LwIP\src\api/netbuf.c **** 
 401              		.loc 1 196 0
 402 002c 1020     		movs	r0, #16
 403              	.LVL44:
 404 002e 4042     		rsbs	r0, r0, #0
 405 0030 01E0     		b	.L24
 406              	.LVL45:
 407              	.L28:
 199:Source\LwIP\src\api/netbuf.c ****   }
 408              		.loc 1 199 0
 409 0032 0220     		movs	r0, #2
 410              	.LVL46:
 411 0034 4042     		rsbs	r0, r0, #0
 412              	.L24:
 204:Source\LwIP\src\api/netbuf.c **** }
 413              		.loc 1 204 0
 414              		@ sp needed
 415 0036 7047     		bx	lr
 416              		.cfi_endproc
ARM GAS  C:\Users\Phuong\AppData\Local\Temp\ccAr19Md.s 			page 12


 417              	.LFE59:
 418              		.size	netbuf_data, .-netbuf_data
 419              		.section	.text.netbuf_next,"ax",%progbits
 420              		.align	2
 421              		.global	netbuf_next
 422              		.code	16
 423              		.thumb_func
 424              		.type	netbuf_next, %function
 425              	netbuf_next:
 426              	.LFB60:
 205:Source\LwIP\src\api/netbuf.c **** 
 206:Source\LwIP\src\api/netbuf.c **** /**
 207:Source\LwIP\src\api/netbuf.c ****  * @ingroup netbuf
 208:Source\LwIP\src\api/netbuf.c ****  * Move the current data pointer of a packet buffer contained in a netbuf
 209:Source\LwIP\src\api/netbuf.c ****  * to the next part.
 210:Source\LwIP\src\api/netbuf.c ****  * The packet buffer itself is not modified.
 211:Source\LwIP\src\api/netbuf.c ****  *
 212:Source\LwIP\src\api/netbuf.c ****  * @param buf the netbuf to modify
 213:Source\LwIP\src\api/netbuf.c ****  * @return -1 if there is no next part
 214:Source\LwIP\src\api/netbuf.c ****  *         1  if moved to the next part but now there is no next part
 215:Source\LwIP\src\api/netbuf.c ****  *         0  if moved to the next part and there are still more parts
 216:Source\LwIP\src\api/netbuf.c ****  */
 217:Source\LwIP\src\api/netbuf.c **** s8_t
 218:Source\LwIP\src\api/netbuf.c **** netbuf_next(struct netbuf *buf)
 219:Source\LwIP\src\api/netbuf.c **** {
 427              		.loc 1 219 0
 428              		.cfi_startproc
 429              		@ args = 0, pretend = 0, frame = 0
 430              		@ frame_needed = 0, uses_anonymous_args = 0
 431              		@ link register save eliminated.
 432              	.LVL47:
 220:Source\LwIP\src\api/netbuf.c ****   LWIP_ERROR("netbuf_next: invalid buf", (buf != NULL), return -1;);
 433              		.loc 1 220 0
 434 0000 0028     		cmp	r0, #0
 435 0002 09D0     		beq	.L31
 221:Source\LwIP\src\api/netbuf.c ****   if (buf->ptr->next == NULL) {
 436              		.loc 1 221 0
 437 0004 4368     		ldr	r3, [r0, #4]
 438 0006 1B68     		ldr	r3, [r3]
 439 0008 002B     		cmp	r3, #0
 440 000a 08D0     		beq	.L32
 222:Source\LwIP\src\api/netbuf.c ****     return -1;
 223:Source\LwIP\src\api/netbuf.c ****   }
 224:Source\LwIP\src\api/netbuf.c ****   buf->ptr = buf->ptr->next;
 441              		.loc 1 224 0
 442 000c 4360     		str	r3, [r0, #4]
 225:Source\LwIP\src\api/netbuf.c ****   if (buf->ptr->next == NULL) {
 443              		.loc 1 225 0
 444 000e 1B68     		ldr	r3, [r3]
 445 0010 002B     		cmp	r3, #0
 446 0012 07D1     		bne	.L33
 226:Source\LwIP\src\api/netbuf.c ****     return 1;
 447              		.loc 1 226 0
 448 0014 0120     		movs	r0, #1
 449              	.LVL48:
 450 0016 06E0     		b	.L30
 451              	.LVL49:
ARM GAS  C:\Users\Phuong\AppData\Local\Temp\ccAr19Md.s 			page 13


 452              	.L31:
 220:Source\LwIP\src\api/netbuf.c ****   if (buf->ptr->next == NULL) {
 453              		.loc 1 220 0
 454 0018 0120     		movs	r0, #1
 455              	.LVL50:
 456 001a 4042     		rsbs	r0, r0, #0
 457 001c 03E0     		b	.L30
 458              	.LVL51:
 459              	.L32:
 222:Source\LwIP\src\api/netbuf.c ****   }
 460              		.loc 1 222 0
 461 001e 0120     		movs	r0, #1
 462              	.LVL52:
 463 0020 4042     		rsbs	r0, r0, #0
 464 0022 00E0     		b	.L30
 465              	.LVL53:
 466              	.L33:
 227:Source\LwIP\src\api/netbuf.c ****   }
 228:Source\LwIP\src\api/netbuf.c ****   return 0;
 467              		.loc 1 228 0
 468 0024 0020     		movs	r0, #0
 469              	.LVL54:
 470              	.L30:
 229:Source\LwIP\src\api/netbuf.c **** }
 471              		.loc 1 229 0
 472              		@ sp needed
 473 0026 7047     		bx	lr
 474              		.cfi_endproc
 475              	.LFE60:
 476              		.size	netbuf_next, .-netbuf_next
 477              		.section	.text.netbuf_first,"ax",%progbits
 478              		.align	2
 479              		.global	netbuf_first
 480              		.code	16
 481              		.thumb_func
 482              		.type	netbuf_first, %function
 483              	netbuf_first:
 484              	.LFB61:
 230:Source\LwIP\src\api/netbuf.c **** 
 231:Source\LwIP\src\api/netbuf.c **** /**
 232:Source\LwIP\src\api/netbuf.c ****  * @ingroup netbuf
 233:Source\LwIP\src\api/netbuf.c ****  * Move the current data pointer of a packet buffer contained in a netbuf
 234:Source\LwIP\src\api/netbuf.c ****  * to the beginning of the packet.
 235:Source\LwIP\src\api/netbuf.c ****  * The packet buffer itself is not modified.
 236:Source\LwIP\src\api/netbuf.c ****  *
 237:Source\LwIP\src\api/netbuf.c ****  * @param buf the netbuf to modify
 238:Source\LwIP\src\api/netbuf.c ****  */
 239:Source\LwIP\src\api/netbuf.c **** void
 240:Source\LwIP\src\api/netbuf.c **** netbuf_first(struct netbuf *buf)
 241:Source\LwIP\src\api/netbuf.c **** {
 485              		.loc 1 241 0
 486              		.cfi_startproc
 487              		@ args = 0, pretend = 0, frame = 0
 488              		@ frame_needed = 0, uses_anonymous_args = 0
 489              		@ link register save eliminated.
 490              	.LVL55:
 242:Source\LwIP\src\api/netbuf.c ****   LWIP_ERROR("netbuf_first: invalid buf", (buf != NULL), return;);
ARM GAS  C:\Users\Phuong\AppData\Local\Temp\ccAr19Md.s 			page 14


 491              		.loc 1 242 0
 492 0000 0028     		cmp	r0, #0
 493 0002 01D0     		beq	.L34
 243:Source\LwIP\src\api/netbuf.c ****   buf->ptr = buf->p;
 494              		.loc 1 243 0
 495 0004 0368     		ldr	r3, [r0]
 496 0006 4360     		str	r3, [r0, #4]
 497              	.L34:
 244:Source\LwIP\src\api/netbuf.c **** }
 498              		.loc 1 244 0
 499              		@ sp needed
 500 0008 7047     		bx	lr
 501              		.cfi_endproc
 502              	.LFE61:
 503              		.size	netbuf_first, .-netbuf_first
 504 000a C046     		.section	.rodata.str1.4,"aMS",%progbits,1
 505              		.align	2
 506              	.LC0:
 507 0000 536F7572 		.ascii	"Source\\LwIP\\src\\api\\netbuf.c\000"
 507      63655C4C 
 507      7749505C 
 507      7372635C 
 507      6170695C 
 508              		.text
 509              	.Letext0:
 510              		.file 2 ".\\Source\\LwIP\\src\\include/arch/cc.h"
 511              		.file 3 ".\\Source\\LwIP\\src\\include/lwip/err.h"
 512              		.file 4 ".\\Source\\LwIP\\src\\include/lwip/pbuf.h"
 513              		.file 5 ".\\Source\\LwIP\\src\\include/lwip/ip4_addr.h"
 514              		.file 6 ".\\Source\\LwIP\\src\\include/lwip/ip_addr.h"
 515              		.file 7 ".\\Source\\LwIP\\src\\include/lwip/netbuf.h"
 516              		.file 8 ".\\Source\\LwIP\\src\\include/lwip/memp.h"