ARM GAS  C:\Users\Phuong\AppData\Local\Temp\ccRnZO7j.s 			page 1


   1              		.syntax unified
   2              		.cpu cortex-m0plus
   3              		.fpu softvfp
   4              		.eabi_attribute 20, 1
   5              		.eabi_attribute 21, 1
   6              		.eabi_attribute 23, 3
   7              		.eabi_attribute 24, 1
   8              		.eabi_attribute 25, 1
   9              		.eabi_attribute 26, 1
  10              		.eabi_attribute 30, 1
  11              		.eabi_attribute 34, 0
  12              		.eabi_attribute 18, 4
  13              		.thumb
  14              		.syntax unified
  15              		.file	"netdb.c"
  16              		.text
  17              	.Ltext0:
  18              		.cfi_sections	.debug_frame
  19              		.section	.text.lwip_gethostbyname,"ax",%progbits
  20              		.align	2
  21              		.global	lwip_gethostbyname
  22              		.code	16
  23              		.thumb_func
  24              		.type	lwip_gethostbyname, %function
  25              	lwip_gethostbyname:
  26              	.LFB53:
  27              		.file 1 "Source\\LwIP\\src\\api\\netdb.c"
   1:Source\LwIP\src\api/netdb.c **** /**
   2:Source\LwIP\src\api/netdb.c ****  * @file
   3:Source\LwIP\src\api/netdb.c ****  * API functions for name resolving
   4:Source\LwIP\src\api/netdb.c ****  *
   5:Source\LwIP\src\api/netdb.c ****  * @defgroup netdbapi NETDB API
   6:Source\LwIP\src\api/netdb.c ****  * @ingroup socket
   7:Source\LwIP\src\api/netdb.c ****  */
   8:Source\LwIP\src\api/netdb.c **** 
   9:Source\LwIP\src\api/netdb.c **** /*
  10:Source\LwIP\src\api/netdb.c ****  * Redistribution and use in source and binary forms, with or without modification,
  11:Source\LwIP\src\api/netdb.c ****  * are permitted provided that the following conditions are met:
  12:Source\LwIP\src\api/netdb.c ****  *
  13:Source\LwIP\src\api/netdb.c ****  * 1. Redistributions of source code must retain the above copyright notice,
  14:Source\LwIP\src\api/netdb.c ****  *    this list of conditions and the following disclaimer.
  15:Source\LwIP\src\api/netdb.c ****  * 2. Redistributions in binary form must reproduce the above copyright notice,
  16:Source\LwIP\src\api/netdb.c ****  *    this list of conditions and the following disclaimer in the documentation
  17:Source\LwIP\src\api/netdb.c ****  *    and/or other materials provided with the distribution.
  18:Source\LwIP\src\api/netdb.c ****  * 3. The name of the author may not be used to endorse or promote products
  19:Source\LwIP\src\api/netdb.c ****  *    derived from this software without specific prior written permission.
  20:Source\LwIP\src\api/netdb.c ****  *
  21:Source\LwIP\src\api/netdb.c ****  * THIS SOFTWARE IS PROVIDED BY THE AUTHOR ``AS IS'' AND ANY EXPRESS OR IMPLIED
  22:Source\LwIP\src\api/netdb.c ****  * WARRANTIES, INCLUDING, BUT NOT LIMITED TO, THE IMPLIED WARRANTIES OF
  23:Source\LwIP\src\api/netdb.c ****  * MERCHANTABILITY AND FITNESS FOR A PARTICULAR PURPOSE ARE DISCLAIMED. IN NO EVENT
  24:Source\LwIP\src\api/netdb.c ****  * SHALL THE AUTHOR BE LIABLE FOR ANY DIRECT, INDIRECT, INCIDENTAL, SPECIAL,
  25:Source\LwIP\src\api/netdb.c ****  * EXEMPLARY, OR CONSEQUENTIAL DAMAGES (INCLUDING, BUT NOT LIMITED TO, PROCUREMENT
  26:Source\LwIP\src\api/netdb.c ****  * OF SUBSTITUTE GOODS OR SERVICES; LOSS OF USE, DATA, OR PROFITS; OR BUSINESS
  27:Source\LwIP\src\api/netdb.c ****  * INTERRUPTION) HOWEVER CAUSED AND ON ANY THEORY OF LIABILITY, WHETHER IN
  28:Source\LwIP\src\api/netdb.c ****  * CONTRACT, STRICT LIABILITY, OR TORT (INCLUDING NEGLIGENCE OR OTHERWISE) ARISING
  29:Source\LwIP\src\api/netdb.c ****  * IN ANY WAY OUT OF THE USE OF THIS SOFTWARE, EVEN IF ADVISED OF THE POSSIBILITY
  30:Source\LwIP\src\api/netdb.c ****  * OF SUCH DAMAGE.
ARM GAS  C:\Users\Phuong\AppData\Local\Temp\ccRnZO7j.s 			page 2


  31:Source\LwIP\src\api/netdb.c ****  *
  32:Source\LwIP\src\api/netdb.c ****  * This file is part of the lwIP TCP/IP stack.
  33:Source\LwIP\src\api/netdb.c ****  *
  34:Source\LwIP\src\api/netdb.c ****  * Author: Simon Goldschmidt
  35:Source\LwIP\src\api/netdb.c ****  *
  36:Source\LwIP\src\api/netdb.c ****  */
  37:Source\LwIP\src\api/netdb.c **** 
  38:Source\LwIP\src\api/netdb.c **** #include "lwip/netdb.h"
  39:Source\LwIP\src\api/netdb.c **** 
  40:Source\LwIP\src\api/netdb.c **** #if LWIP_DNS && LWIP_SOCKET
  41:Source\LwIP\src\api/netdb.c **** 
  42:Source\LwIP\src\api/netdb.c **** #include "lwip/err.h"
  43:Source\LwIP\src\api/netdb.c **** #include "lwip/mem.h"
  44:Source\LwIP\src\api/netdb.c **** #include "lwip/memp.h"
  45:Source\LwIP\src\api/netdb.c **** #include "lwip/ip_addr.h"
  46:Source\LwIP\src\api/netdb.c **** #include "lwip/api.h"
  47:Source\LwIP\src\api/netdb.c **** #include "lwip/dns.h"
  48:Source\LwIP\src\api/netdb.c **** 
  49:Source\LwIP\src\api/netdb.c **** #include <string.h> /* memset */
  50:Source\LwIP\src\api/netdb.c **** #include <stdlib.h> /* atoi */
  51:Source\LwIP\src\api/netdb.c **** 
  52:Source\LwIP\src\api/netdb.c **** /** helper struct for gethostbyname_r to access the char* buffer */
  53:Source\LwIP\src\api/netdb.c **** struct gethostbyname_r_helper {
  54:Source\LwIP\src\api/netdb.c ****   ip_addr_t *addr_list[2];
  55:Source\LwIP\src\api/netdb.c ****   ip_addr_t addr;
  56:Source\LwIP\src\api/netdb.c ****   char *aliases;
  57:Source\LwIP\src\api/netdb.c **** };
  58:Source\LwIP\src\api/netdb.c **** 
  59:Source\LwIP\src\api/netdb.c **** /** h_errno is exported in netdb.h for access by applications. */
  60:Source\LwIP\src\api/netdb.c **** #if LWIP_DNS_API_DECLARE_H_ERRNO
  61:Source\LwIP\src\api/netdb.c **** int h_errno;
  62:Source\LwIP\src\api/netdb.c **** #endif /* LWIP_DNS_API_DECLARE_H_ERRNO */
  63:Source\LwIP\src\api/netdb.c **** 
  64:Source\LwIP\src\api/netdb.c **** /** define "hostent" variables storage: 0 if we use a static (but unprotected)
  65:Source\LwIP\src\api/netdb.c ****  * set of variables for lwip_gethostbyname, 1 if we use a local storage */
  66:Source\LwIP\src\api/netdb.c **** #ifndef LWIP_DNS_API_HOSTENT_STORAGE
  67:Source\LwIP\src\api/netdb.c **** #define LWIP_DNS_API_HOSTENT_STORAGE 0
  68:Source\LwIP\src\api/netdb.c **** #endif
  69:Source\LwIP\src\api/netdb.c **** 
  70:Source\LwIP\src\api/netdb.c **** /** define "hostent" variables storage */
  71:Source\LwIP\src\api/netdb.c **** #if LWIP_DNS_API_HOSTENT_STORAGE
  72:Source\LwIP\src\api/netdb.c **** #define HOSTENT_STORAGE
  73:Source\LwIP\src\api/netdb.c **** #else
  74:Source\LwIP\src\api/netdb.c **** #define HOSTENT_STORAGE static
  75:Source\LwIP\src\api/netdb.c **** #endif /* LWIP_DNS_API_STATIC_HOSTENT */
  76:Source\LwIP\src\api/netdb.c **** 
  77:Source\LwIP\src\api/netdb.c **** /**
  78:Source\LwIP\src\api/netdb.c ****  * Returns an entry containing addresses of address family AF_INET
  79:Source\LwIP\src\api/netdb.c ****  * for the host with name name.
  80:Source\LwIP\src\api/netdb.c ****  * Due to dns_gethostbyname limitations, only one address is returned.
  81:Source\LwIP\src\api/netdb.c ****  *
  82:Source\LwIP\src\api/netdb.c ****  * @param name the hostname to resolve
  83:Source\LwIP\src\api/netdb.c ****  * @return an entry containing addresses of address family AF_INET
  84:Source\LwIP\src\api/netdb.c ****  *         for the host with name name
  85:Source\LwIP\src\api/netdb.c ****  */
  86:Source\LwIP\src\api/netdb.c **** struct hostent*
  87:Source\LwIP\src\api/netdb.c **** lwip_gethostbyname(const char *name)
ARM GAS  C:\Users\Phuong\AppData\Local\Temp\ccRnZO7j.s 			page 3


  88:Source\LwIP\src\api/netdb.c **** {
  28              		.loc 1 88 0
  29              		.cfi_startproc
  30              		@ args = 0, pretend = 0, frame = 8
  31              		@ frame_needed = 0, uses_anonymous_args = 0
  32              	.LVL0:
  33 0000 F0B5     		push	{r4, r5, r6, r7, lr}
  34              		.cfi_def_cfa_offset 20
  35              		.cfi_offset 4, -20
  36              		.cfi_offset 5, -16
  37              		.cfi_offset 6, -12
  38              		.cfi_offset 7, -8
  39              		.cfi_offset 14, -4
  40 0002 83B0     		sub	sp, sp, #12
  41              		.cfi_def_cfa_offset 32
  42 0004 0600     		movs	r6, r0
  89:Source\LwIP\src\api/netdb.c ****   err_t err;
  90:Source\LwIP\src\api/netdb.c ****   ip_addr_t addr;
  91:Source\LwIP\src\api/netdb.c **** 
  92:Source\LwIP\src\api/netdb.c ****   /* buffer variables for lwip_gethostbyname() */
  93:Source\LwIP\src\api/netdb.c ****   HOSTENT_STORAGE struct hostent s_hostent;
  94:Source\LwIP\src\api/netdb.c ****   HOSTENT_STORAGE char *s_aliases;
  95:Source\LwIP\src\api/netdb.c ****   HOSTENT_STORAGE ip_addr_t s_hostent_addr;
  96:Source\LwIP\src\api/netdb.c ****   HOSTENT_STORAGE ip_addr_t *s_phostent_addr[2];
  97:Source\LwIP\src\api/netdb.c ****   HOSTENT_STORAGE char s_hostname[DNS_MAX_NAME_LENGTH + 1];
  98:Source\LwIP\src\api/netdb.c **** 
  99:Source\LwIP\src\api/netdb.c ****   /* query host IP address */
 100:Source\LwIP\src\api/netdb.c ****   err = netconn_gethostbyname(name, &addr);
  43              		.loc 1 100 0
  44 0006 01A9     		add	r1, sp, #4
  45 0008 FFF7FEFF 		bl	netconn_gethostbyname
  46              	.LVL1:
 101:Source\LwIP\src\api/netdb.c ****   if (err != ERR_OK) {
  47              		.loc 1 101 0
  48 000c 0028     		cmp	r0, #0
  49 000e 04D0     		beq	.L2
 102:Source\LwIP\src\api/netdb.c ****     LWIP_DEBUGF(DNS_DEBUG, ("lwip_gethostbyname(%s) failed, err=%d\n", name, err));
 103:Source\LwIP\src\api/netdb.c ****     h_errno = HOST_NOT_FOUND;
  50              		.loc 1 103 0
  51 0010 D222     		movs	r2, #210
  52 0012 134B     		ldr	r3, .L4
  53 0014 1A60     		str	r2, [r3]
 104:Source\LwIP\src\api/netdb.c ****     return NULL;
  54              		.loc 1 104 0
  55 0016 0020     		movs	r0, #0
  56              	.LVL2:
  57 0018 20E0     		b	.L3
  58              	.LVL3:
  59              	.L2:
 105:Source\LwIP\src\api/netdb.c ****   }
 106:Source\LwIP\src\api/netdb.c **** 
 107:Source\LwIP\src\api/netdb.c ****   /* fill hostent */
 108:Source\LwIP\src\api/netdb.c ****   s_hostent_addr = addr;
  60              		.loc 1 108 0
  61 001a 124C     		ldr	r4, .L4+4
  62 001c 019B     		ldr	r3, [sp, #4]
  63 001e 6361     		str	r3, [r4, #20]
ARM GAS  C:\Users\Phuong\AppData\Local\Temp\ccRnZO7j.s 			page 4


 109:Source\LwIP\src\api/netdb.c ****   s_phostent_addr[0] = &s_hostent_addr;
  64              		.loc 1 109 0
  65 0020 2300     		movs	r3, r4
  66 0022 1433     		adds	r3, r3, #20
  67 0024 A361     		str	r3, [r4, #24]
 110:Source\LwIP\src\api/netdb.c ****   s_phostent_addr[1] = NULL;
  68              		.loc 1 110 0
  69 0026 0025     		movs	r5, #0
  70 0028 E561     		str	r5, [r4, #28]
 111:Source\LwIP\src\api/netdb.c ****   strncpy(s_hostname, name, DNS_MAX_NAME_LENGTH);
  71              		.loc 1 111 0
  72 002a 2700     		movs	r7, r4
  73 002c 2037     		adds	r7, r7, #32
  74 002e 8022     		movs	r2, #128
  75 0030 5200     		lsls	r2, r2, #1
  76 0032 3100     		movs	r1, r6
  77 0034 3800     		movs	r0, r7
  78              	.LVL4:
  79 0036 FFF7FEFF 		bl	strncpy
  80              	.LVL5:
 112:Source\LwIP\src\api/netdb.c ****   s_hostname[DNS_MAX_NAME_LENGTH] = 0;
  81              		.loc 1 112 0
  82 003a 2300     		movs	r3, r4
  83 003c 2133     		adds	r3, r3, #33
  84 003e FF33     		adds	r3, r3, #255
  85 0040 1D70     		strb	r5, [r3]
 113:Source\LwIP\src\api/netdb.c ****   s_hostent.h_name = s_hostname;
  86              		.loc 1 113 0
  87 0042 2760     		str	r7, [r4]
 114:Source\LwIP\src\api/netdb.c ****   s_aliases = NULL;
  88              		.loc 1 114 0
  89 0044 084B     		ldr	r3, .L4+8
  90 0046 5D62     		str	r5, [r3, #36]
 115:Source\LwIP\src\api/netdb.c ****   s_hostent.h_aliases = &s_aliases;
  91              		.loc 1 115 0
  92 0048 2433     		adds	r3, r3, #36
  93 004a 6360     		str	r3, [r4, #4]
 116:Source\LwIP\src\api/netdb.c ****   s_hostent.h_addrtype = AF_INET;
  94              		.loc 1 116 0
  95 004c 0223     		movs	r3, #2
  96 004e A360     		str	r3, [r4, #8]
 117:Source\LwIP\src\api/netdb.c ****   s_hostent.h_length = sizeof(ip_addr_t);
  97              		.loc 1 117 0
  98 0050 0233     		adds	r3, r3, #2
  99 0052 E360     		str	r3, [r4, #12]
 118:Source\LwIP\src\api/netdb.c ****   s_hostent.h_addr_list = (char**)&s_phostent_addr;
 100              		.loc 1 118 0
 101 0054 2300     		movs	r3, r4
 102 0056 1833     		adds	r3, r3, #24
 103 0058 2361     		str	r3, [r4, #16]
 119:Source\LwIP\src\api/netdb.c **** 
 120:Source\LwIP\src\api/netdb.c **** #if DNS_DEBUG
 121:Source\LwIP\src\api/netdb.c ****   /* dump hostent */
 122:Source\LwIP\src\api/netdb.c ****   LWIP_DEBUGF(DNS_DEBUG, ("hostent.h_name           == %s\n", s_hostent.h_name));
 123:Source\LwIP\src\api/netdb.c ****   LWIP_DEBUGF(DNS_DEBUG, ("hostent.h_aliases        == %p\n", (void*)s_hostent.h_aliases));
 124:Source\LwIP\src\api/netdb.c ****   /* h_aliases are always empty */
 125:Source\LwIP\src\api/netdb.c ****   LWIP_DEBUGF(DNS_DEBUG, ("hostent.h_addrtype       == %d\n", s_hostent.h_addrtype));
ARM GAS  C:\Users\Phuong\AppData\Local\Temp\ccRnZO7j.s 			page 5


 126:Source\LwIP\src\api/netdb.c ****   LWIP_DEBUGF(DNS_DEBUG, ("hostent.h_length         == %d\n", s_hostent.h_length));
 127:Source\LwIP\src\api/netdb.c ****   LWIP_DEBUGF(DNS_DEBUG, ("hostent.h_addr_list      == %p\n", (void*)s_hostent.h_addr_list));
 128:Source\LwIP\src\api/netdb.c ****   if (s_hostent.h_addr_list != NULL) {
 129:Source\LwIP\src\api/netdb.c ****     u8_t idx;
 130:Source\LwIP\src\api/netdb.c ****     for (idx=0; s_hostent.h_addr_list[idx]; idx++) {
 131:Source\LwIP\src\api/netdb.c ****       LWIP_DEBUGF(DNS_DEBUG, ("hostent.h_addr_list[%i]   == %p\n", idx, s_hostent.h_addr_list[idx])
 132:Source\LwIP\src\api/netdb.c ****       LWIP_DEBUGF(DNS_DEBUG, ("hostent.h_addr_list[%i]-> == %s\n", idx, ipaddr_ntoa((ip_addr_t*)s_h
 133:Source\LwIP\src\api/netdb.c ****     }
 134:Source\LwIP\src\api/netdb.c ****   }
 135:Source\LwIP\src\api/netdb.c **** #endif /* DNS_DEBUG */
 136:Source\LwIP\src\api/netdb.c **** 
 137:Source\LwIP\src\api/netdb.c **** #if LWIP_DNS_API_HOSTENT_STORAGE
 138:Source\LwIP\src\api/netdb.c ****   /* this function should return the "per-thread" hostent after copy from s_hostent */
 139:Source\LwIP\src\api/netdb.c ****   return sys_thread_hostent(&s_hostent);
 140:Source\LwIP\src\api/netdb.c **** #else
 141:Source\LwIP\src\api/netdb.c ****   return &s_hostent;
 104              		.loc 1 141 0
 105 005a 2000     		movs	r0, r4
 106              	.L3:
 142:Source\LwIP\src\api/netdb.c **** #endif /* LWIP_DNS_API_HOSTENT_STORAGE */
 143:Source\LwIP\src\api/netdb.c **** }
 107              		.loc 1 143 0
 108 005c 03B0     		add	sp, sp, #12
 109              		@ sp needed
 110              	.LVL6:
 111 005e F0BD     		pop	{r4, r5, r6, r7, pc}
 112              	.L5:
 113              		.align	2
 114              	.L4:
 115 0060 00000000 		.word	h_errno
 116 0064 00000000 		.word	.LANCHOR0
 117 0068 00010000 		.word	.LANCHOR1
 118              		.cfi_endproc
 119              	.LFE53:
 120              		.size	lwip_gethostbyname, .-lwip_gethostbyname
 121              		.section	.text.lwip_gethostbyname_r,"ax",%progbits
 122              		.align	2
 123              		.global	lwip_gethostbyname_r
 124              		.code	16
 125              		.thumb_func
 126              		.type	lwip_gethostbyname_r, %function
 127              	lwip_gethostbyname_r:
 128              	.LFB54:
 144:Source\LwIP\src\api/netdb.c **** 
 145:Source\LwIP\src\api/netdb.c **** /**
 146:Source\LwIP\src\api/netdb.c ****  * Thread-safe variant of lwip_gethostbyname: instead of using a static
 147:Source\LwIP\src\api/netdb.c ****  * buffer, this function takes buffer and errno pointers as arguments
 148:Source\LwIP\src\api/netdb.c ****  * and uses these for the result.
 149:Source\LwIP\src\api/netdb.c ****  *
 150:Source\LwIP\src\api/netdb.c ****  * @param name the hostname to resolve
 151:Source\LwIP\src\api/netdb.c ****  * @param ret pre-allocated struct where to store the result
 152:Source\LwIP\src\api/netdb.c ****  * @param buf pre-allocated buffer where to store additional data
 153:Source\LwIP\src\api/netdb.c ****  * @param buflen the size of buf
 154:Source\LwIP\src\api/netdb.c ****  * @param result pointer to a hostent pointer that is set to ret on success
 155:Source\LwIP\src\api/netdb.c ****  *               and set to zero on error
 156:Source\LwIP\src\api/netdb.c ****  * @param h_errnop pointer to an int where to store errors (instead of modifying
 157:Source\LwIP\src\api/netdb.c ****  *                 the global h_errno)
ARM GAS  C:\Users\Phuong\AppData\Local\Temp\ccRnZO7j.s 			page 6


 158:Source\LwIP\src\api/netdb.c ****  * @return 0 on success, non-zero on error, additional error information
 159:Source\LwIP\src\api/netdb.c ****  *         is stored in *h_errnop instead of h_errno to be thread-safe
 160:Source\LwIP\src\api/netdb.c ****  */
 161:Source\LwIP\src\api/netdb.c **** int
 162:Source\LwIP\src\api/netdb.c **** lwip_gethostbyname_r(const char *name, struct hostent *ret, char *buf,
 163:Source\LwIP\src\api/netdb.c ****                 size_t buflen, struct hostent **result, int *h_errnop)
 164:Source\LwIP\src\api/netdb.c **** {
 129              		.loc 1 164 0
 130              		.cfi_startproc
 131              		@ args = 8, pretend = 0, frame = 16
 132              		@ frame_needed = 0, uses_anonymous_args = 0
 133              	.LVL7:
 134 0000 F0B5     		push	{r4, r5, r6, r7, lr}
 135              		.cfi_def_cfa_offset 20
 136              		.cfi_offset 4, -20
 137              		.cfi_offset 5, -16
 138              		.cfi_offset 6, -12
 139              		.cfi_offset 7, -8
 140              		.cfi_offset 14, -4
 141 0002 5746     		mov	r7, r10
 142 0004 4E46     		mov	r6, r9
 143 0006 C0B4     		push	{r6, r7}
 144              		.cfi_def_cfa_offset 28
 145              		.cfi_offset 9, -28
 146              		.cfi_offset 10, -24
 147 0008 85B0     		sub	sp, sp, #20
 148              		.cfi_def_cfa_offset 48
 149 000a 0190     		str	r0, [sp, #4]
 150 000c 0E00     		movs	r6, r1
 151 000e 1400     		movs	r4, r2
 152 0010 9946     		mov	r9, r3
 153 0012 0C9D     		ldr	r5, [sp, #48]
 165:Source\LwIP\src\api/netdb.c ****   err_t err;
 166:Source\LwIP\src\api/netdb.c ****   struct gethostbyname_r_helper *h;
 167:Source\LwIP\src\api/netdb.c ****   char *hostname;
 168:Source\LwIP\src\api/netdb.c ****   size_t namelen;
 169:Source\LwIP\src\api/netdb.c ****   int lh_errno;
 170:Source\LwIP\src\api/netdb.c **** 
 171:Source\LwIP\src\api/netdb.c ****   if (h_errnop == NULL) {
 154              		.loc 1 171 0
 155 0014 0D9B     		ldr	r3, [sp, #52]
 156              	.LVL8:
 157 0016 002B     		cmp	r3, #0
 158 0018 01D1     		bne	.L7
 172:Source\LwIP\src\api/netdb.c ****     /* ensure h_errnop is never NULL */
 173:Source\LwIP\src\api/netdb.c ****     h_errnop = &lh_errno;
 159              		.loc 1 173 0
 160 001a 03AB     		add	r3, sp, #12
 161 001c 0D93     		str	r3, [sp, #52]
 162              	.LVL9:
 163              	.L7:
 174:Source\LwIP\src\api/netdb.c ****   }
 175:Source\LwIP\src\api/netdb.c **** 
 176:Source\LwIP\src\api/netdb.c ****   if (result == NULL) {
 164              		.loc 1 176 0
 165 001e 002D     		cmp	r5, #0
 166 0020 05D1     		bne	.L8
ARM GAS  C:\Users\Phuong\AppData\Local\Temp\ccRnZO7j.s 			page 7


 177:Source\LwIP\src\api/netdb.c ****     /* not all arguments given */
 178:Source\LwIP\src\api/netdb.c ****     *h_errnop = EINVAL;
 167              		.loc 1 178 0
 168 0022 1623     		movs	r3, #22
 169 0024 0D9A     		ldr	r2, [sp, #52]
 170              	.LVL10:
 171 0026 1360     		str	r3, [r2]
 179:Source\LwIP\src\api/netdb.c ****     return -1;
 172              		.loc 1 179 0
 173 0028 0120     		movs	r0, #1
 174              	.LVL11:
 175 002a 4042     		rsbs	r0, r0, #0
 176 002c 4AE0     		b	.L9
 177              	.LVL12:
 178              	.L8:
 180:Source\LwIP\src\api/netdb.c ****   }
 181:Source\LwIP\src\api/netdb.c ****   /* first thing to do: set *result to nothing */
 182:Source\LwIP\src\api/netdb.c ****   *result = NULL;
 179              		.loc 1 182 0
 180 002e 0023     		movs	r3, #0
 181 0030 2B60     		str	r3, [r5]
 183:Source\LwIP\src\api/netdb.c ****   if ((name == NULL) || (ret == NULL) || (buf == NULL)) {
 182              		.loc 1 183 0
 183 0032 019B     		ldr	r3, [sp, #4]
 184 0034 002B     		cmp	r3, #0
 185 0036 03D0     		beq	.L10
 186              		.loc 1 183 0 is_stmt 0 discriminator 1
 187 0038 002E     		cmp	r6, #0
 188 003a 01D0     		beq	.L10
 189              		.loc 1 183 0 discriminator 2
 190 003c 002C     		cmp	r4, #0
 191 003e 05D1     		bne	.L11
 192              	.L10:
 184:Source\LwIP\src\api/netdb.c ****     /* not all arguments given */
 185:Source\LwIP\src\api/netdb.c ****     *h_errnop = EINVAL;
 193              		.loc 1 185 0 is_stmt 1
 194 0040 1623     		movs	r3, #22
 195 0042 0D9A     		ldr	r2, [sp, #52]
 196              	.LVL13:
 197 0044 1360     		str	r3, [r2]
 186:Source\LwIP\src\api/netdb.c ****     return -1;
 198              		.loc 1 186 0
 199 0046 0120     		movs	r0, #1
 200              	.LVL14:
 201 0048 4042     		rsbs	r0, r0, #0
 202 004a 3BE0     		b	.L9
 203              	.LVL15:
 204              	.L11:
 187:Source\LwIP\src\api/netdb.c ****   }
 188:Source\LwIP\src\api/netdb.c **** 
 189:Source\LwIP\src\api/netdb.c ****   namelen = strlen(name);
 205              		.loc 1 189 0
 206 004c 0198     		ldr	r0, [sp, #4]
 207              	.LVL16:
 208 004e FFF7FEFF 		bl	strlen
 209              	.LVL17:
 210 0052 0700     		movs	r7, r0
ARM GAS  C:\Users\Phuong\AppData\Local\Temp\ccRnZO7j.s 			page 8


 211              	.LVL18:
 190:Source\LwIP\src\api/netdb.c ****   if (buflen < (sizeof(struct gethostbyname_r_helper) + namelen + 1 + (MEM_ALIGNMENT - 1))) {
 212              		.loc 1 190 0
 213 0054 0300     		movs	r3, r0
 214 0056 1433     		adds	r3, r3, #20
 215 0058 4B45     		cmp	r3, r9
 216 005a 05D9     		bls	.L12
 191:Source\LwIP\src\api/netdb.c ****     /* buf can't hold the data needed + a copy of name */
 192:Source\LwIP\src\api/netdb.c ****     *h_errnop = ERANGE;
 217              		.loc 1 192 0
 218 005c 2223     		movs	r3, #34
 219 005e 0D9A     		ldr	r2, [sp, #52]
 220 0060 1360     		str	r3, [r2]
 193:Source\LwIP\src\api/netdb.c ****     return -1;
 221              		.loc 1 193 0
 222 0062 0120     		movs	r0, #1
 223              	.LVL19:
 224 0064 4042     		rsbs	r0, r0, #0
 225 0066 2DE0     		b	.L9
 226              	.LVL20:
 227              	.L12:
 194:Source\LwIP\src\api/netdb.c ****   }
 195:Source\LwIP\src\api/netdb.c **** 
 196:Source\LwIP\src\api/netdb.c ****   h = (struct gethostbyname_r_helper*)LWIP_MEM_ALIGN(buf);
 228              		.loc 1 196 0
 229 0068 0334     		adds	r4, r4, #3
 230              	.LVL21:
 231 006a 0323     		movs	r3, #3
 232 006c 9C43     		bics	r4, r3
 233              	.LVL22:
 197:Source\LwIP\src\api/netdb.c ****   hostname = ((char*)h) + sizeof(struct gethostbyname_r_helper);
 234              		.loc 1 197 0
 235 006e 0D33     		adds	r3, r3, #13
 236 0070 9946     		mov	r9, r3
 237              	.LVL23:
 238 0072 A144     		add	r9, r9, r4
 239              	.LVL24:
 198:Source\LwIP\src\api/netdb.c **** 
 199:Source\LwIP\src\api/netdb.c ****   /* query host IP address */
 200:Source\LwIP\src\api/netdb.c ****   err = netconn_gethostbyname(name, &h->addr);
 240              		.loc 1 200 0
 241 0074 083B     		subs	r3, r3, #8
 242 0076 9A46     		mov	r10, r3
 243 0078 A244     		add	r10, r10, r4
 244 007a 5146     		mov	r1, r10
 245 007c 0198     		ldr	r0, [sp, #4]
 246              	.LVL25:
 247 007e FFF7FEFF 		bl	netconn_gethostbyname
 248              	.LVL26:
 201:Source\LwIP\src\api/netdb.c ****   if (err != ERR_OK) {
 249              		.loc 1 201 0
 250 0082 0028     		cmp	r0, #0
 251 0084 05D0     		beq	.L13
 202:Source\LwIP\src\api/netdb.c ****     LWIP_DEBUGF(DNS_DEBUG, ("lwip_gethostbyname(%s) failed, err=%d\n", name, err));
 203:Source\LwIP\src\api/netdb.c ****     *h_errnop = HOST_NOT_FOUND;
 252              		.loc 1 203 0
 253 0086 D223     		movs	r3, #210
ARM GAS  C:\Users\Phuong\AppData\Local\Temp\ccRnZO7j.s 			page 9


 254 0088 0D9A     		ldr	r2, [sp, #52]
 255 008a 1360     		str	r3, [r2]
 204:Source\LwIP\src\api/netdb.c ****     return -1;
 256              		.loc 1 204 0
 257 008c 0120     		movs	r0, #1
 258              	.LVL27:
 259 008e 4042     		rsbs	r0, r0, #0
 260 0090 18E0     		b	.L9
 261              	.LVL28:
 262              	.L13:
 205:Source\LwIP\src\api/netdb.c ****   }
 206:Source\LwIP\src\api/netdb.c **** 
 207:Source\LwIP\src\api/netdb.c ****   /* copy the hostname into buf */
 208:Source\LwIP\src\api/netdb.c ****   MEMCPY(hostname, name, namelen);
 263              		.loc 1 208 0
 264 0092 3A00     		movs	r2, r7
 265 0094 0199     		ldr	r1, [sp, #4]
 266 0096 4846     		mov	r0, r9
 267              	.LVL29:
 268 0098 FFF7FEFF 		bl	memcpy
 269              	.LVL30:
 209:Source\LwIP\src\api/netdb.c ****   hostname[namelen] = 0;
 270              		.loc 1 209 0
 271 009c 3800     		movs	r0, r7
 272 009e 4844     		add	r0, r0, r9
 273 00a0 0023     		movs	r3, #0
 274 00a2 0370     		strb	r3, [r0]
 210:Source\LwIP\src\api/netdb.c **** 
 211:Source\LwIP\src\api/netdb.c ****   /* fill hostent */
 212:Source\LwIP\src\api/netdb.c ****   h->addr_list[0] = &h->addr;
 275              		.loc 1 212 0
 276 00a4 5246     		mov	r2, r10
 277 00a6 2260     		str	r2, [r4]
 213:Source\LwIP\src\api/netdb.c ****   h->addr_list[1] = NULL;
 278              		.loc 1 213 0
 279 00a8 6360     		str	r3, [r4, #4]
 214:Source\LwIP\src\api/netdb.c ****   h->aliases = NULL;
 280              		.loc 1 214 0
 281 00aa E360     		str	r3, [r4, #12]
 215:Source\LwIP\src\api/netdb.c ****   ret->h_name = hostname;
 282              		.loc 1 215 0
 283 00ac 4B46     		mov	r3, r9
 284 00ae 3360     		str	r3, [r6]
 216:Source\LwIP\src\api/netdb.c ****   ret->h_aliases = &h->aliases;
 285              		.loc 1 216 0
 286 00b0 2300     		movs	r3, r4
 287 00b2 0C33     		adds	r3, r3, #12
 288 00b4 7360     		str	r3, [r6, #4]
 217:Source\LwIP\src\api/netdb.c ****   ret->h_addrtype = AF_INET;
 289              		.loc 1 217 0
 290 00b6 0223     		movs	r3, #2
 291 00b8 B360     		str	r3, [r6, #8]
 218:Source\LwIP\src\api/netdb.c ****   ret->h_length = sizeof(ip_addr_t);
 292              		.loc 1 218 0
 293 00ba 0233     		adds	r3, r3, #2
 294 00bc F360     		str	r3, [r6, #12]
 219:Source\LwIP\src\api/netdb.c ****   ret->h_addr_list = (char**)&h->addr_list;
ARM GAS  C:\Users\Phuong\AppData\Local\Temp\ccRnZO7j.s 			page 10


 295              		.loc 1 219 0
 296 00be 3461     		str	r4, [r6, #16]
 220:Source\LwIP\src\api/netdb.c **** 
 221:Source\LwIP\src\api/netdb.c ****   /* set result != NULL */
 222:Source\LwIP\src\api/netdb.c ****   *result = ret;
 297              		.loc 1 222 0
 298 00c0 2E60     		str	r6, [r5]
 223:Source\LwIP\src\api/netdb.c **** 
 224:Source\LwIP\src\api/netdb.c ****   /* return success */
 225:Source\LwIP\src\api/netdb.c ****   return 0;
 299              		.loc 1 225 0
 300 00c2 0020     		movs	r0, #0
 301              	.LVL31:
 302              	.L9:
 226:Source\LwIP\src\api/netdb.c **** }
 303              		.loc 1 226 0
 304 00c4 05B0     		add	sp, sp, #20
 305              		@ sp needed
 306              	.LVL32:
 307 00c6 0CBC     		pop	{r2, r3}
 308 00c8 9146     		mov	r9, r2
 309 00ca 9A46     		mov	r10, r3
 310 00cc F0BD     		pop	{r4, r5, r6, r7, pc}
 311              		.cfi_endproc
 312              	.LFE54:
 313              		.size	lwip_gethostbyname_r, .-lwip_gethostbyname_r
 314 00ce C046     		.section	.text.lwip_freeaddrinfo,"ax",%progbits
 315              		.align	2
 316              		.global	lwip_freeaddrinfo
 317              		.code	16
 318              		.thumb_func
 319              		.type	lwip_freeaddrinfo, %function
 320              	lwip_freeaddrinfo:
 321              	.LFB55:
 227:Source\LwIP\src\api/netdb.c **** 
 228:Source\LwIP\src\api/netdb.c **** /**
 229:Source\LwIP\src\api/netdb.c ****  * Frees one or more addrinfo structures returned by getaddrinfo(), along with
 230:Source\LwIP\src\api/netdb.c ****  * any additional storage associated with those structures. If the ai_next field
 231:Source\LwIP\src\api/netdb.c ****  * of the structure is not null, the entire list of structures is freed.
 232:Source\LwIP\src\api/netdb.c ****  *
 233:Source\LwIP\src\api/netdb.c ****  * @param ai struct addrinfo to free
 234:Source\LwIP\src\api/netdb.c ****  */
 235:Source\LwIP\src\api/netdb.c **** void
 236:Source\LwIP\src\api/netdb.c **** lwip_freeaddrinfo(struct addrinfo *ai)
 237:Source\LwIP\src\api/netdb.c **** {
 322              		.loc 1 237 0
 323              		.cfi_startproc
 324              		@ args = 0, pretend = 0, frame = 0
 325              		@ frame_needed = 0, uses_anonymous_args = 0
 326              	.LVL33:
 327 0000 10B5     		push	{r4, lr}
 328              		.cfi_def_cfa_offset 8
 329              		.cfi_offset 4, -8
 330              		.cfi_offset 14, -4
 331 0002 0100     		movs	r1, r0
 238:Source\LwIP\src\api/netdb.c ****   struct addrinfo *next;
 239:Source\LwIP\src\api/netdb.c **** 
ARM GAS  C:\Users\Phuong\AppData\Local\Temp\ccRnZO7j.s 			page 11


 240:Source\LwIP\src\api/netdb.c ****   while (ai != NULL) {
 332              		.loc 1 240 0
 333 0004 04E0     		b	.L16
 334              	.LVL34:
 335              	.L17:
 241:Source\LwIP\src\api/netdb.c ****     next = ai->ai_next;
 336              		.loc 1 241 0
 337 0006 CC69     		ldr	r4, [r1, #28]
 338              	.LVL35:
 242:Source\LwIP\src\api/netdb.c ****     memp_free(MEMP_NETDB, ai);
 339              		.loc 1 242 0
 340 0008 0D20     		movs	r0, #13
 341 000a FFF7FEFF 		bl	memp_free
 342              	.LVL36:
 243:Source\LwIP\src\api/netdb.c ****     ai = next;
 343              		.loc 1 243 0
 344 000e 2100     		movs	r1, r4
 345              	.LVL37:
 346              	.L16:
 240:Source\LwIP\src\api/netdb.c ****     next = ai->ai_next;
 347              		.loc 1 240 0
 348 0010 0029     		cmp	r1, #0
 349 0012 F8D1     		bne	.L17
 244:Source\LwIP\src\api/netdb.c ****   }
 245:Source\LwIP\src\api/netdb.c **** }
 350              		.loc 1 245 0
 351              		@ sp needed
 352 0014 10BD     		pop	{r4, pc}
 353              		.cfi_endproc
 354              	.LFE55:
 355              		.size	lwip_freeaddrinfo, .-lwip_freeaddrinfo
 356 0016 C046     		.section	.text.lwip_getaddrinfo,"ax",%progbits
 357              		.align	2
 358              		.global	lwip_getaddrinfo
 359              		.code	16
 360              		.thumb_func
 361              		.type	lwip_getaddrinfo, %function
 362              	lwip_getaddrinfo:
 363              	.LFB56:
 246:Source\LwIP\src\api/netdb.c **** 
 247:Source\LwIP\src\api/netdb.c **** /**
 248:Source\LwIP\src\api/netdb.c ****  * Translates the name of a service location (for example, a host name) and/or
 249:Source\LwIP\src\api/netdb.c ****  * a service name and returns a set of socket addresses and associated
 250:Source\LwIP\src\api/netdb.c ****  * information to be used in creating a socket with which to address the
 251:Source\LwIP\src\api/netdb.c ****  * specified service.
 252:Source\LwIP\src\api/netdb.c ****  * Memory for the result is allocated internally and must be freed by calling
 253:Source\LwIP\src\api/netdb.c ****  * lwip_freeaddrinfo()!
 254:Source\LwIP\src\api/netdb.c ****  *
 255:Source\LwIP\src\api/netdb.c ****  * Due to a limitation in dns_gethostbyname, only the first address of a
 256:Source\LwIP\src\api/netdb.c ****  * host is returned.
 257:Source\LwIP\src\api/netdb.c ****  * Also, service names are not supported (only port numbers)!
 258:Source\LwIP\src\api/netdb.c ****  *
 259:Source\LwIP\src\api/netdb.c ****  * @param nodename descriptive name or address string of the host
 260:Source\LwIP\src\api/netdb.c ****  *                 (may be NULL -> local address)
 261:Source\LwIP\src\api/netdb.c ****  * @param servname port number as string of NULL
 262:Source\LwIP\src\api/netdb.c ****  * @param hints structure containing input values that set socktype and protocol
 263:Source\LwIP\src\api/netdb.c ****  * @param res pointer to a pointer where to store the result (set to NULL on failure)
ARM GAS  C:\Users\Phuong\AppData\Local\Temp\ccRnZO7j.s 			page 12


 264:Source\LwIP\src\api/netdb.c ****  * @return 0 on success, non-zero on failure
 265:Source\LwIP\src\api/netdb.c ****  *
 266:Source\LwIP\src\api/netdb.c ****  * @todo: implement AI_V4MAPPED, AI_ADDRCONFIG
 267:Source\LwIP\src\api/netdb.c ****  */
 268:Source\LwIP\src\api/netdb.c **** int
 269:Source\LwIP\src\api/netdb.c **** lwip_getaddrinfo(const char *nodename, const char *servname,
 270:Source\LwIP\src\api/netdb.c ****        const struct addrinfo *hints, struct addrinfo **res)
 271:Source\LwIP\src\api/netdb.c **** {
 364              		.loc 1 271 0
 365              		.cfi_startproc
 366              		@ args = 0, pretend = 0, frame = 8
 367              		@ frame_needed = 0, uses_anonymous_args = 0
 368              	.LVL38:
 369 0000 F0B5     		push	{r4, r5, r6, r7, lr}
 370              		.cfi_def_cfa_offset 20
 371              		.cfi_offset 4, -20
 372              		.cfi_offset 5, -16
 373              		.cfi_offset 6, -12
 374              		.cfi_offset 7, -8
 375              		.cfi_offset 14, -4
 376 0002 5F46     		mov	r7, fp
 377 0004 5646     		mov	r6, r10
 378 0006 4D46     		mov	r5, r9
 379 0008 4446     		mov	r4, r8
 380 000a F0B4     		push	{r4, r5, r6, r7}
 381              		.cfi_def_cfa_offset 36
 382              		.cfi_offset 8, -36
 383              		.cfi_offset 9, -32
 384              		.cfi_offset 10, -28
 385              		.cfi_offset 11, -24
 386 000c 83B0     		sub	sp, sp, #12
 387              		.cfi_def_cfa_offset 48
 388 000e 0600     		movs	r6, r0
 389 0010 1400     		movs	r4, r2
 390 0012 1D1E     		subs	r5, r3, #0
 391              	.LVL39:
 272:Source\LwIP\src\api/netdb.c ****   err_t err;
 273:Source\LwIP\src\api/netdb.c ****   ip_addr_t addr;
 274:Source\LwIP\src\api/netdb.c ****   struct addrinfo *ai;
 275:Source\LwIP\src\api/netdb.c ****   struct sockaddr_storage *sa = NULL;
 276:Source\LwIP\src\api/netdb.c ****   int port_nr = 0;
 277:Source\LwIP\src\api/netdb.c ****   size_t total_size;
 278:Source\LwIP\src\api/netdb.c ****   size_t namelen = 0;
 279:Source\LwIP\src\api/netdb.c ****   int ai_family;
 280:Source\LwIP\src\api/netdb.c **** 
 281:Source\LwIP\src\api/netdb.c ****   if (res == NULL) {
 392              		.loc 1 281 0
 393 0014 00D1     		bne	.LCB347
 394 0016 8CE0     		b	.L30	@long jump
 395              	.LCB347:
 282:Source\LwIP\src\api/netdb.c ****     return EAI_FAIL;
 283:Source\LwIP\src\api/netdb.c ****   }
 284:Source\LwIP\src\api/netdb.c ****   *res = NULL;
 396              		.loc 1 284 0
 397 0018 0023     		movs	r3, #0
 398              	.LVL40:
 399 001a 2B60     		str	r3, [r5]
ARM GAS  C:\Users\Phuong\AppData\Local\Temp\ccRnZO7j.s 			page 13


 285:Source\LwIP\src\api/netdb.c ****   if ((nodename == NULL) && (servname == NULL)) {
 400              		.loc 1 285 0
 401 001c 0028     		cmp	r0, #0
 402 001e 02D1     		bne	.L20
 403              		.loc 1 285 0 is_stmt 0 discriminator 1
 404 0020 0029     		cmp	r1, #0
 405 0022 00D1     		bne	.LCB354
 406 0024 87E0     		b	.L31	@long jump
 407              	.LCB354:
 408              	.L20:
 286:Source\LwIP\src\api/netdb.c ****     return EAI_NONAME;
 287:Source\LwIP\src\api/netdb.c ****   }
 288:Source\LwIP\src\api/netdb.c **** 
 289:Source\LwIP\src\api/netdb.c ****   if (hints != NULL) {
 409              		.loc 1 289 0 is_stmt 1
 410 0026 002C     		cmp	r4, #0
 411 0028 05D0     		beq	.L21
 290:Source\LwIP\src\api/netdb.c ****     ai_family = hints->ai_family;
 412              		.loc 1 290 0
 413 002a 6368     		ldr	r3, [r4, #4]
 414              	.LVL41:
 291:Source\LwIP\src\api/netdb.c ****     if ((ai_family != AF_UNSPEC)
 415              		.loc 1 291 0
 416 002c 002B     		cmp	r3, #0
 417 002e 02D0     		beq	.L21
 292:Source\LwIP\src\api/netdb.c **** #if LWIP_IPV4
 293:Source\LwIP\src\api/netdb.c ****       && (ai_family != AF_INET)
 418              		.loc 1 293 0
 419 0030 022B     		cmp	r3, #2
 420 0032 00D0     		beq	.LCB363
 421 0034 81E0     		b	.L32	@long jump
 422              	.LCB363:
 423              	.LVL42:
 424              	.L21:
 294:Source\LwIP\src\api/netdb.c **** #endif /* LWIP_IPV4 */
 295:Source\LwIP\src\api/netdb.c **** #if LWIP_IPV6
 296:Source\LwIP\src\api/netdb.c ****       && (ai_family != AF_INET6)
 297:Source\LwIP\src\api/netdb.c **** #endif /* LWIP_IPV6 */
 298:Source\LwIP\src\api/netdb.c ****       ) {
 299:Source\LwIP\src\api/netdb.c ****       return EAI_FAMILY;
 300:Source\LwIP\src\api/netdb.c ****     }
 301:Source\LwIP\src\api/netdb.c ****   } else {
 302:Source\LwIP\src\api/netdb.c ****     ai_family = AF_UNSPEC;
 303:Source\LwIP\src\api/netdb.c ****   }
 304:Source\LwIP\src\api/netdb.c **** 
 305:Source\LwIP\src\api/netdb.c ****   if (servname != NULL) {
 425              		.loc 1 305 0
 426 0036 0029     		cmp	r1, #0
 427 0038 08D0     		beq	.L33
 306:Source\LwIP\src\api/netdb.c ****     /* service name specified: convert to port number
 307:Source\LwIP\src\api/netdb.c ****      * @todo?: currently, only ASCII integers (port numbers) are supported (AI_NUMERICSERV)! */
 308:Source\LwIP\src\api/netdb.c ****     port_nr = atoi(servname);
 428              		.loc 1 308 0
 429 003a 0800     		movs	r0, r1
 430              	.LVL43:
 431 003c FFF7FEFF 		bl	atoi
 432              	.LVL44:
ARM GAS  C:\Users\Phuong\AppData\Local\Temp\ccRnZO7j.s 			page 14


 433 0040 0700     		movs	r7, r0
 434              	.LVL45:
 309:Source\LwIP\src\api/netdb.c ****     if ((port_nr <= 0) || (port_nr > 0xffff)) {
 435              		.loc 1 309 0
 436 0042 421E     		subs	r2, r0, #1
 437 0044 464B     		ldr	r3, .L40
 438 0046 9A42     		cmp	r2, r3
 439 0048 79D8     		bhi	.L34
 440 004a 00E0     		b	.L22
 441              	.LVL46:
 442              	.L33:
 276:Source\LwIP\src\api/netdb.c ****   size_t total_size;
 443              		.loc 1 276 0
 444 004c 0027     		movs	r7, #0
 445              	.LVL47:
 446              	.L22:
 310:Source\LwIP\src\api/netdb.c ****       return EAI_SERVICE;
 311:Source\LwIP\src\api/netdb.c ****     }
 312:Source\LwIP\src\api/netdb.c ****   }
 313:Source\LwIP\src\api/netdb.c **** 
 314:Source\LwIP\src\api/netdb.c ****   if (nodename != NULL) {
 447              		.loc 1 314 0
 448 004e 002E     		cmp	r6, #0
 449 0050 12D0     		beq	.L23
 315:Source\LwIP\src\api/netdb.c ****     /* service location specified, try to resolve */
 316:Source\LwIP\src\api/netdb.c ****     if ((hints != NULL) && (hints->ai_flags & AI_NUMERICHOST)) {
 450              		.loc 1 316 0
 451 0052 002C     		cmp	r4, #0
 452 0054 09D0     		beq	.L24
 453              		.loc 1 316 0 is_stmt 0 discriminator 1
 454 0056 2368     		ldr	r3, [r4]
 455 0058 5B07     		lsls	r3, r3, #29
 456 005a 06D5     		bpl	.L24
 317:Source\LwIP\src\api/netdb.c ****       /* no DNS lookup, just parse for an address string */
 318:Source\LwIP\src\api/netdb.c ****       if (!ipaddr_aton(nodename, &addr)) {
 457              		.loc 1 318 0 is_stmt 1
 458 005c 01A9     		add	r1, sp, #4
 459 005e 3000     		movs	r0, r6
 460 0060 FFF7FEFF 		bl	ip4addr_aton
 461              	.LVL48:
 462 0064 0028     		cmp	r0, #0
 463 0066 6CD0     		beq	.L35
 464 0068 10E0     		b	.L25
 465              	.L24:
 319:Source\LwIP\src\api/netdb.c ****         return EAI_NONAME;
 320:Source\LwIP\src\api/netdb.c ****       }
 321:Source\LwIP\src\api/netdb.c **** #if LWIP_IPV4 && LWIP_IPV6
 322:Source\LwIP\src\api/netdb.c ****       if ((IP_IS_V6_VAL(addr) && ai_family == AF_INET) ||
 323:Source\LwIP\src\api/netdb.c ****           (IP_IS_V4_VAL(addr) && ai_family == AF_INET6)) {
 324:Source\LwIP\src\api/netdb.c ****         return EAI_NONAME;
 325:Source\LwIP\src\api/netdb.c ****       }
 326:Source\LwIP\src\api/netdb.c **** #endif /* LWIP_IPV4 && LWIP_IPV6 */
 327:Source\LwIP\src\api/netdb.c ****     } else {
 328:Source\LwIP\src\api/netdb.c **** #if LWIP_IPV4 && LWIP_IPV6
 329:Source\LwIP\src\api/netdb.c ****       /* AF_UNSPEC: prefer IPv4 */
 330:Source\LwIP\src\api/netdb.c ****       u8_t type = NETCONN_DNS_IPV4_IPV6;
 331:Source\LwIP\src\api/netdb.c ****       if (ai_family == AF_INET) {
ARM GAS  C:\Users\Phuong\AppData\Local\Temp\ccRnZO7j.s 			page 15


 332:Source\LwIP\src\api/netdb.c ****         type = NETCONN_DNS_IPV4;
 333:Source\LwIP\src\api/netdb.c ****       } else if (ai_family == AF_INET6) {
 334:Source\LwIP\src\api/netdb.c ****         type = NETCONN_DNS_IPV6;
 335:Source\LwIP\src\api/netdb.c ****       }
 336:Source\LwIP\src\api/netdb.c **** #endif /* LWIP_IPV4 && LWIP_IPV6 */
 337:Source\LwIP\src\api/netdb.c ****       err = netconn_gethostbyname_addrtype(nodename, &addr, type);
 466              		.loc 1 337 0
 467 006a 01A9     		add	r1, sp, #4
 468 006c 3000     		movs	r0, r6
 469 006e FFF7FEFF 		bl	netconn_gethostbyname
 470              	.LVL49:
 338:Source\LwIP\src\api/netdb.c ****       if (err != ERR_OK) {
 471              		.loc 1 338 0
 472 0072 0028     		cmp	r0, #0
 473 0074 67D1     		bne	.L36
 474 0076 09E0     		b	.L25
 475              	.LVL50:
 476              	.L23:
 339:Source\LwIP\src\api/netdb.c ****         return EAI_FAIL;
 340:Source\LwIP\src\api/netdb.c ****       }
 341:Source\LwIP\src\api/netdb.c ****     }
 342:Source\LwIP\src\api/netdb.c ****   } else {
 343:Source\LwIP\src\api/netdb.c ****     /* service location specified, use loopback address */
 344:Source\LwIP\src\api/netdb.c ****     if ((hints != NULL) && (hints->ai_flags & AI_PASSIVE)) {
 477              		.loc 1 344 0
 478 0078 002C     		cmp	r4, #0
 479 007a 05D0     		beq	.L26
 480              		.loc 1 344 0 is_stmt 0 discriminator 1
 481 007c 2368     		ldr	r3, [r4]
 482 007e DB07     		lsls	r3, r3, #31
 483 0080 02D5     		bpl	.L26
 345:Source\LwIP\src\api/netdb.c ****       ip_addr_set_any(ai_family == AF_INET6, &addr);
 484              		.loc 1 345 0 is_stmt 1
 485 0082 0023     		movs	r3, #0
 486 0084 0193     		str	r3, [sp, #4]
 487 0086 01E0     		b	.L25
 488              	.L26:
 346:Source\LwIP\src\api/netdb.c ****     } else {
 347:Source\LwIP\src\api/netdb.c ****       ip_addr_set_loopback(ai_family == AF_INET6, &addr);
 489              		.loc 1 347 0
 490 0088 364B     		ldr	r3, .L40+4
 491 008a 0193     		str	r3, [sp, #4]
 492              	.L25:
 493              	.LVL51:
 348:Source\LwIP\src\api/netdb.c ****     }
 349:Source\LwIP\src\api/netdb.c ****   }
 350:Source\LwIP\src\api/netdb.c **** 
 351:Source\LwIP\src\api/netdb.c ****   total_size = sizeof(struct addrinfo) + sizeof(struct sockaddr_storage);
 352:Source\LwIP\src\api/netdb.c ****   if (nodename != NULL) {
 494              		.loc 1 352 0
 495 008c 002E     		cmp	r6, #0
 496 008e 0BD0     		beq	.L37
 353:Source\LwIP\src\api/netdb.c ****     namelen = strlen(nodename);
 497              		.loc 1 353 0
 498 0090 3000     		movs	r0, r6
 499 0092 FFF7FEFF 		bl	strlen
 500              	.LVL52:
ARM GAS  C:\Users\Phuong\AppData\Local\Temp\ccRnZO7j.s 			page 16


 501 0096 8146     		mov	r9, r0
 502              	.LVL53:
 354:Source\LwIP\src\api/netdb.c ****     if (namelen > DNS_MAX_NAME_LENGTH) {
 503              		.loc 1 354 0
 504 0098 8023     		movs	r3, #128
 505 009a 5B00     		lsls	r3, r3, #1
 506 009c 9842     		cmp	r0, r3
 507 009e 54D8     		bhi	.L38
 355:Source\LwIP\src\api/netdb.c ****       /* invalid name length */
 356:Source\LwIP\src\api/netdb.c ****       return EAI_FAIL;
 357:Source\LwIP\src\api/netdb.c ****     }
 358:Source\LwIP\src\api/netdb.c ****     LWIP_ASSERT("namelen is too long", total_size + namelen + 1 > total_size);
 359:Source\LwIP\src\api/netdb.c ****     total_size += namelen + 1;
 508              		.loc 1 359 0
 509 00a0 CF3B     		subs	r3, r3, #207
 510 00a2 9A46     		mov	r10, r3
 511 00a4 8244     		add	r10, r10, r0
 512              	.LVL54:
 513 00a6 03E0     		b	.L27
 514              	.LVL55:
 515              	.L37:
 278:Source\LwIP\src\api/netdb.c ****   int ai_family;
 516              		.loc 1 278 0
 517 00a8 0023     		movs	r3, #0
 518 00aa 9946     		mov	r9, r3
 351:Source\LwIP\src\api/netdb.c ****   if (nodename != NULL) {
 519              		.loc 1 351 0
 520 00ac 3033     		adds	r3, r3, #48
 521 00ae 9A46     		mov	r10, r3
 522              	.LVL56:
 523              	.L27:
 360:Source\LwIP\src\api/netdb.c ****   }
 361:Source\LwIP\src\api/netdb.c ****   /* If this fails, please report to lwip-devel! :-) */
 362:Source\LwIP\src\api/netdb.c ****   LWIP_ASSERT("total_size <= NETDB_ELEM_SIZE: please report this!",
 363:Source\LwIP\src\api/netdb.c ****     total_size <= NETDB_ELEM_SIZE);
 364:Source\LwIP\src\api/netdb.c ****   ai = (struct addrinfo *)memp_malloc(MEMP_NETDB);
 524              		.loc 1 364 0
 525 00b0 B622     		movs	r2, #182
 526 00b2 5200     		lsls	r2, r2, #1
 527 00b4 2C49     		ldr	r1, .L40+8
 528 00b6 0D20     		movs	r0, #13
 529 00b8 FFF7FEFF 		bl	memp_malloc_fn
 530              	.LVL57:
 531 00bc 8046     		mov	r8, r0
 532              	.LVL58:
 365:Source\LwIP\src\api/netdb.c ****   if (ai == NULL) {
 533              		.loc 1 365 0
 534 00be 0028     		cmp	r0, #0
 535 00c0 45D0     		beq	.L39
 366:Source\LwIP\src\api/netdb.c ****     return EAI_MEMORY;
 367:Source\LwIP\src\api/netdb.c ****   }
 368:Source\LwIP\src\api/netdb.c ****   memset(ai, 0, total_size);
 536              		.loc 1 368 0
 537 00c2 5246     		mov	r2, r10
 538 00c4 0021     		movs	r1, #0
 539 00c6 FFF7FEFF 		bl	memset
 540              	.LVL59:
ARM GAS  C:\Users\Phuong\AppData\Local\Temp\ccRnZO7j.s 			page 17


 369:Source\LwIP\src\api/netdb.c ****   /* cast through void* to get rid of alignment warnings */
 370:Source\LwIP\src\api/netdb.c ****   sa = (struct sockaddr_storage *)(void*)((u8_t*)ai + sizeof(struct addrinfo));
 541              		.loc 1 370 0
 542 00ca 2023     		movs	r3, #32
 543 00cc 4344     		add	r3, r3, r8
 544 00ce 9A46     		mov	r10, r3
 545              	.LVL60:
 546              	.LBB2:
 371:Source\LwIP\src\api/netdb.c ****   if (IP_IS_V6_VAL(addr)) {
 372:Source\LwIP\src\api/netdb.c **** #if LWIP_IPV6
 373:Source\LwIP\src\api/netdb.c ****     struct sockaddr_in6 *sa6 = (struct sockaddr_in6*)sa;
 374:Source\LwIP\src\api/netdb.c ****     /* set up sockaddr */
 375:Source\LwIP\src\api/netdb.c ****     inet6_addr_from_ip6addr(&sa6->sin6_addr, ip_2_ip6(&addr));
 376:Source\LwIP\src\api/netdb.c ****     sa6->sin6_family = AF_INET6;
 377:Source\LwIP\src\api/netdb.c ****     sa6->sin6_len = sizeof(struct sockaddr_in6);
 378:Source\LwIP\src\api/netdb.c ****     sa6->sin6_port = lwip_htons((u16_t)port_nr);
 379:Source\LwIP\src\api/netdb.c ****     ai->ai_family = AF_INET6;
 380:Source\LwIP\src\api/netdb.c **** #endif /* LWIP_IPV6 */
 381:Source\LwIP\src\api/netdb.c ****   } else {
 382:Source\LwIP\src\api/netdb.c **** #if LWIP_IPV4
 383:Source\LwIP\src\api/netdb.c ****     struct sockaddr_in *sa4 = (struct sockaddr_in*)sa;
 384:Source\LwIP\src\api/netdb.c ****     /* set up sockaddr */
 385:Source\LwIP\src\api/netdb.c ****     inet_addr_from_ip4addr(&sa4->sin_addr, ip_2_ip4(&addr));
 547              		.loc 1 385 0
 548 00d0 4346     		mov	r3, r8
 549              	.LVL61:
 550 00d2 019A     		ldr	r2, [sp, #4]
 551 00d4 5A62     		str	r2, [r3, #36]
 386:Source\LwIP\src\api/netdb.c ****     sa4->sin_family = AF_INET;
 552              		.loc 1 386 0
 553 00d6 0223     		movs	r3, #2
 554 00d8 9B46     		mov	fp, r3
 555 00da 5346     		mov	r3, r10
 556 00dc 5A46     		mov	r2, fp
 557 00de 5A70     		strb	r2, [r3, #1]
 387:Source\LwIP\src\api/netdb.c ****     sa4->sin_len = sizeof(struct sockaddr_in);
 558              		.loc 1 387 0
 559 00e0 1022     		movs	r2, #16
 560 00e2 2023     		movs	r3, #32
 561 00e4 4146     		mov	r1, r8
 562 00e6 CA54     		strb	r2, [r1, r3]
 388:Source\LwIP\src\api/netdb.c ****     sa4->sin_port = lwip_htons((u16_t)port_nr);
 563              		.loc 1 388 0
 564 00e8 B8B2     		uxth	r0, r7
 565 00ea FFF7FEFF 		bl	lwip_htons
 566              	.LVL62:
 567 00ee 4346     		mov	r3, r8
 568 00f0 5884     		strh	r0, [r3, #34]
 389:Source\LwIP\src\api/netdb.c ****     ai->ai_family = AF_INET;
 569              		.loc 1 389 0
 570 00f2 5A46     		mov	r2, fp
 571 00f4 5A60     		str	r2, [r3, #4]
 572              	.LBE2:
 390:Source\LwIP\src\api/netdb.c **** #endif /* LWIP_IPV4 */
 391:Source\LwIP\src\api/netdb.c ****   }
 392:Source\LwIP\src\api/netdb.c **** 
 393:Source\LwIP\src\api/netdb.c ****   /* set up addrinfo */
ARM GAS  C:\Users\Phuong\AppData\Local\Temp\ccRnZO7j.s 			page 18


 394:Source\LwIP\src\api/netdb.c ****   if (hints != NULL) {
 573              		.loc 1 394 0
 574 00f6 002C     		cmp	r4, #0
 575 00f8 03D0     		beq	.L28
 395:Source\LwIP\src\api/netdb.c ****     /* copy socktype & protocol from hints if specified */
 396:Source\LwIP\src\api/netdb.c ****     ai->ai_socktype = hints->ai_socktype;
 576              		.loc 1 396 0
 577 00fa A268     		ldr	r2, [r4, #8]
 578 00fc 9A60     		str	r2, [r3, #8]
 397:Source\LwIP\src\api/netdb.c ****     ai->ai_protocol = hints->ai_protocol;
 579              		.loc 1 397 0
 580 00fe E268     		ldr	r2, [r4, #12]
 581 0100 DA60     		str	r2, [r3, #12]
 582              	.L28:
 398:Source\LwIP\src\api/netdb.c ****   }
 399:Source\LwIP\src\api/netdb.c ****   if (nodename != NULL) {
 583              		.loc 1 399 0
 584 0102 002E     		cmp	r6, #0
 585 0104 0CD0     		beq	.L29
 400:Source\LwIP\src\api/netdb.c ****     /* copy nodename to canonname if specified */
 401:Source\LwIP\src\api/netdb.c ****     ai->ai_canonname = ((char*)ai + sizeof(struct addrinfo) + sizeof(struct sockaddr_storage));
 586              		.loc 1 401 0
 587 0106 4446     		mov	r4, r8
 588              	.LVL63:
 589 0108 3034     		adds	r4, r4, #48
 590 010a 4346     		mov	r3, r8
 591 010c 9C61     		str	r4, [r3, #24]
 402:Source\LwIP\src\api/netdb.c ****     MEMCPY(ai->ai_canonname, nodename, namelen);
 592              		.loc 1 402 0
 593 010e 4A46     		mov	r2, r9
 594 0110 3100     		movs	r1, r6
 595 0112 2000     		movs	r0, r4
 596 0114 FFF7FEFF 		bl	memcpy
 597              	.LVL64:
 403:Source\LwIP\src\api/netdb.c ****     ai->ai_canonname[namelen] = 0;
 598              		.loc 1 403 0
 599 0118 2000     		movs	r0, r4
 600 011a 4844     		add	r0, r0, r9
 601 011c 0023     		movs	r3, #0
 602 011e 0370     		strb	r3, [r0]
 603              	.L29:
 404:Source\LwIP\src\api/netdb.c ****   }
 405:Source\LwIP\src\api/netdb.c ****   ai->ai_addrlen = sizeof(struct sockaddr_storage);
 604              		.loc 1 405 0
 605 0120 1023     		movs	r3, #16
 606 0122 4246     		mov	r2, r8
 607 0124 1361     		str	r3, [r2, #16]
 406:Source\LwIP\src\api/netdb.c ****   ai->ai_addr = (struct sockaddr*)sa;
 608              		.loc 1 406 0
 609 0126 4346     		mov	r3, r8
 610 0128 5246     		mov	r2, r10
 611 012a 5A61     		str	r2, [r3, #20]
 407:Source\LwIP\src\api/netdb.c **** 
 408:Source\LwIP\src\api/netdb.c ****   *res = ai;
 612              		.loc 1 408 0
 613 012c 2B60     		str	r3, [r5]
 409:Source\LwIP\src\api/netdb.c **** 
ARM GAS  C:\Users\Phuong\AppData\Local\Temp\ccRnZO7j.s 			page 19


 410:Source\LwIP\src\api/netdb.c ****   return 0;
 614              		.loc 1 410 0
 615 012e 0020     		movs	r0, #0
 616 0130 0EE0     		b	.L19
 617              	.LVL65:
 618              	.L30:
 282:Source\LwIP\src\api/netdb.c ****   }
 619              		.loc 1 282 0
 620 0132 CA20     		movs	r0, #202
 621              	.LVL66:
 622 0134 0CE0     		b	.L19
 623              	.LVL67:
 624              	.L31:
 286:Source\LwIP\src\api/netdb.c ****   }
 625              		.loc 1 286 0
 626 0136 C820     		movs	r0, #200
 627              	.LVL68:
 628 0138 0AE0     		b	.L19
 629              	.LVL69:
 630              	.L32:
 299:Source\LwIP\src\api/netdb.c ****     }
 631              		.loc 1 299 0
 632 013a CC20     		movs	r0, #204
 633              	.LVL70:
 634 013c 08E0     		b	.L19
 635              	.LVL71:
 636              	.L34:
 310:Source\LwIP\src\api/netdb.c ****     }
 637              		.loc 1 310 0
 638 013e C920     		movs	r0, #201
 639              	.LVL72:
 640 0140 06E0     		b	.L19
 641              	.L35:
 319:Source\LwIP\src\api/netdb.c ****       }
 642              		.loc 1 319 0
 643 0142 C820     		movs	r0, #200
 644 0144 04E0     		b	.L19
 645              	.LVL73:
 646              	.L36:
 339:Source\LwIP\src\api/netdb.c ****       }
 647              		.loc 1 339 0
 648 0146 CA20     		movs	r0, #202
 649              	.LVL74:
 650 0148 02E0     		b	.L19
 651              	.LVL75:
 652              	.L38:
 356:Source\LwIP\src\api/netdb.c ****     }
 653              		.loc 1 356 0
 654 014a CA20     		movs	r0, #202
 655              	.LVL76:
 656 014c 00E0     		b	.L19
 657              	.LVL77:
 658              	.L39:
 366:Source\LwIP\src\api/netdb.c ****   }
 659              		.loc 1 366 0
 660 014e CB20     		movs	r0, #203
 661              	.LVL78:
ARM GAS  C:\Users\Phuong\AppData\Local\Temp\ccRnZO7j.s 			page 20


 662              	.L19:
 411:Source\LwIP\src\api/netdb.c **** }
 663              		.loc 1 411 0
 664 0150 03B0     		add	sp, sp, #12
 665              		@ sp needed
 666              	.LVL79:
 667              	.LVL80:
 668 0152 3CBC     		pop	{r2, r3, r4, r5}
 669 0154 9046     		mov	r8, r2
 670 0156 9946     		mov	r9, r3
 671 0158 A246     		mov	r10, r4
 672 015a AB46     		mov	fp, r5
 673 015c F0BD     		pop	{r4, r5, r6, r7, pc}
 674              	.L41:
 675 015e C046     		.align	2
 676              	.L40:
 677 0160 FEFF0000 		.word	65534
 678 0164 7F000001 		.word	16777343
 679 0168 00000000 		.word	.LC7
 680              		.cfi_endproc
 681              	.LFE56:
 682              		.size	lwip_getaddrinfo, .-lwip_getaddrinfo
 683              		.comm	h_errno,4,4
 684              		.section	.rodata.str1.4,"aMS",%progbits,1
 685              		.align	2
 686              	.LC7:
 687 0000 536F7572 		.ascii	"Source\\LwIP\\src\\api\\netdb.c\000"
 687      63655C4C 
 687      7749505C 
 687      7372635C 
 687      6170695C 
 688              		.bss
 689              		.align	2
 690              		.set	.LANCHOR0,. + 0
 691              		.set	.LANCHOR1,. + 256
 692              		.type	s_hostent.12348, %object
 693              		.size	s_hostent.12348, 20
 694              	s_hostent.12348:
 695 0000 00000000 		.space	20
 695      00000000 
 695      00000000 
 695      00000000 
 695      00000000 
 696              		.type	s_hostent_addr.12350, %object
 697              		.size	s_hostent_addr.12350, 4
 698              	s_hostent_addr.12350:
 699 0014 00000000 		.space	4
 700              		.type	s_phostent_addr.12351, %object
 701              		.size	s_phostent_addr.12351, 8
 702              	s_phostent_addr.12351:
 703 0018 00000000 		.space	8
 703      00000000 
 704              		.type	s_hostname.12352, %object
 705              		.size	s_hostname.12352, 257
 706              	s_hostname.12352:
 707 0020 00000000 		.space	257
 707      00000000 
ARM GAS  C:\Users\Phuong\AppData\Local\Temp\ccRnZO7j.s 			page 21


 707      00000000 
 707      00000000 
 707      00000000 
 708 0121 000000   		.space	3
 709              		.type	s_aliases.12349, %object
 710              		.size	s_aliases.12349, 4
 711              	s_aliases.12349:
 712 0124 00000000 		.space	4
 713              		.text
 714              	.Letext0:
 715              		.file 2 "c:\\program files (x86)\\cypress\\psoc creator\\4.2\\psoc creator\\import\\gnu\\arm\\5.4.
 716              		.file 3 "c:\\program files (x86)\\cypress\\psoc creator\\4.2\\psoc creator\\import\\gnu\\arm\\5.4.
 717              		.file 4 "c:\\program files (x86)\\cypress\\psoc creator\\4.2\\psoc creator\\import\\gnu\\arm\\5.4.
 718              		.file 5 "c:\\program files (x86)\\cypress\\psoc creator\\4.2\\psoc creator\\import\\gnu\\arm\\5.4.
 719              		.file 6 ".\\Source\\LwIP\\src\\include/arch/cc.h"
 720              		.file 7 ".\\Source\\LwIP\\src\\include/lwip/arch.h"
 721              		.file 8 ".\\Source\\LwIP\\src\\include/lwip/ip4_addr.h"
 722              		.file 9 ".\\Source\\LwIP\\src\\include/lwip/ip_addr.h"
 723              		.file 10 ".\\Source\\LwIP\\src\\include/lwip/inet.h"
 724              		.file 11 ".\\Source\\LwIP\\src\\include/lwip/err.h"
 725              		.file 12 ".\\Source\\LwIP\\src\\include/lwip/sockets.h"
 726              		.file 13 ".\\Source\\LwIP\\src\\include/lwip/netdb.h"
 727              		.file 14 ".\\Source\\LwIP\\src\\include/lwip/memp.h"
 728              		.file 15 ".\\Source\\LwIP\\src\\include/lwip/api.h"
 729              		.file 16 "c:\\program files (x86)\\cypress\\psoc creator\\4.2\\psoc creator\\import\\gnu\\arm\\5.4
 730              		.file 17 ".\\Source\\LwIP\\src\\include/lwip/def.h"
 731              		.file 18 "c:\\program files (x86)\\cypress\\psoc creator\\4.2\\psoc creator\\import\\gnu\\arm\\5.4