ARM GAS  C:\Users\Phuong\AppData\Local\Temp\ccjifsDG.s 			page 1


   1              		.syntax unified
   2              		.cpu cortex-m0plus
   3              		.fpu softvfp
   4              		.eabi_attribute 20, 1
   5              		.eabi_attribute 21, 1
   6              		.eabi_attribute 23, 3
   7              		.eabi_attribute 24, 1
   8              		.eabi_attribute 25, 1
   9              		.eabi_attribute 26, 1
  10              		.eabi_attribute 30, 1
  11              		.eabi_attribute 34, 0
  12              		.eabi_attribute 18, 4
  13              		.thumb
  14              		.syntax unified
  15              		.file	"netifapi.c"
  16              		.text
  17              	.Ltext0:
  18              		.cfi_sections	.debug_frame
  19              		.section	.text.netifapi_do_netif_common,"ax",%progbits
  20              		.align	2
  21              		.code	16
  22              		.thumb_func
  23              		.type	netifapi_do_netif_common, %function
  24              	netifapi_do_netif_common:
  25              	.LFB55:
  26              		.file 1 "Source\\LwIP\\src\\api\\netifapi.c"
   1:Source\LwIP\src\api/netifapi.c **** /**
   2:Source\LwIP\src\api/netifapi.c ****  * @file
   3:Source\LwIP\src\api/netifapi.c ****  * Network Interface Sequential API module
   4:Source\LwIP\src\api/netifapi.c ****  *
   5:Source\LwIP\src\api/netifapi.c ****  * @defgroup netifapi NETIF API
   6:Source\LwIP\src\api/netifapi.c ****  * @ingroup sequential_api
   7:Source\LwIP\src\api/netifapi.c ****  * Thread-safe functions to be called from non-TCPIP threads
   8:Source\LwIP\src\api/netifapi.c ****  * 
   9:Source\LwIP\src\api/netifapi.c ****  * @defgroup netifapi_netif NETIF related
  10:Source\LwIP\src\api/netifapi.c ****  * @ingroup netifapi
  11:Source\LwIP\src\api/netifapi.c ****  * To be called from non-TCPIP threads 
  12:Source\LwIP\src\api/netifapi.c ****  */
  13:Source\LwIP\src\api/netifapi.c **** 
  14:Source\LwIP\src\api/netifapi.c **** /*
  15:Source\LwIP\src\api/netifapi.c ****  * Redistribution and use in source and binary forms, with or without modification,
  16:Source\LwIP\src\api/netifapi.c ****  * are permitted provided that the following conditions are met:
  17:Source\LwIP\src\api/netifapi.c ****  *
  18:Source\LwIP\src\api/netifapi.c ****  * 1. Redistributions of source code must retain the above copyright notice,
  19:Source\LwIP\src\api/netifapi.c ****  *    this list of conditions and the following disclaimer.
  20:Source\LwIP\src\api/netifapi.c ****  * 2. Redistributions in binary form must reproduce the above copyright notice,
  21:Source\LwIP\src\api/netifapi.c ****  *    this list of conditions and the following disclaimer in the documentation
  22:Source\LwIP\src\api/netifapi.c ****  *    and/or other materials provided with the distribution.
  23:Source\LwIP\src\api/netifapi.c ****  * 3. The name of the author may not be used to endorse or promote products
  24:Source\LwIP\src\api/netifapi.c ****  *    derived from this software without specific prior written permission.
  25:Source\LwIP\src\api/netifapi.c ****  *
  26:Source\LwIP\src\api/netifapi.c ****  * THIS SOFTWARE IS PROVIDED BY THE AUTHOR ``AS IS'' AND ANY EXPRESS OR IMPLIED
  27:Source\LwIP\src\api/netifapi.c ****  * WARRANTIES, INCLUDING, BUT NOT LIMITED TO, THE IMPLIED WARRANTIES OF
  28:Source\LwIP\src\api/netifapi.c ****  * MERCHANTABILITY AND FITNESS FOR A PARTICULAR PURPOSE ARE DISCLAIMED. IN NO EVENT
  29:Source\LwIP\src\api/netifapi.c ****  * SHALL THE AUTHOR BE LIABLE FOR ANY DIRECT, INDIRECT, INCIDENTAL, SPECIAL,
  30:Source\LwIP\src\api/netifapi.c ****  * EXEMPLARY, OR CONSEQUENTIAL DAMAGES (INCLUDING, BUT NOT LIMITED TO, PROCUREMENT
  31:Source\LwIP\src\api/netifapi.c ****  * OF SUBSTITUTE GOODS OR SERVICES; LOSS OF USE, DATA, OR PROFITS; OR BUSINESS
ARM GAS  C:\Users\Phuong\AppData\Local\Temp\ccjifsDG.s 			page 2


  32:Source\LwIP\src\api/netifapi.c ****  * INTERRUPTION) HOWEVER CAUSED AND ON ANY THEORY OF LIABILITY, WHETHER IN
  33:Source\LwIP\src\api/netifapi.c ****  * CONTRACT, STRICT LIABILITY, OR TORT (INCLUDING NEGLIGENCE OR OTHERWISE) ARISING
  34:Source\LwIP\src\api/netifapi.c ****  * IN ANY WAY OUT OF THE USE OF THIS SOFTWARE, EVEN IF ADVISED OF THE POSSIBILITY
  35:Source\LwIP\src\api/netifapi.c ****  * OF SUCH DAMAGE.
  36:Source\LwIP\src\api/netifapi.c ****  *
  37:Source\LwIP\src\api/netifapi.c ****  * This file is part of the lwIP TCP/IP stack.
  38:Source\LwIP\src\api/netifapi.c ****  *
  39:Source\LwIP\src\api/netifapi.c ****  */
  40:Source\LwIP\src\api/netifapi.c **** 
  41:Source\LwIP\src\api/netifapi.c **** #include "lwip/opt.h"
  42:Source\LwIP\src\api/netifapi.c **** 
  43:Source\LwIP\src\api/netifapi.c **** #if LWIP_NETIF_API /* don't build if not configured for use in lwipopts.h */
  44:Source\LwIP\src\api/netifapi.c **** 
  45:Source\LwIP\src\api/netifapi.c **** #include "lwip/netifapi.h"
  46:Source\LwIP\src\api/netifapi.c **** #include "lwip/memp.h"
  47:Source\LwIP\src\api/netifapi.c **** #include "lwip/priv/tcpip_priv.h"
  48:Source\LwIP\src\api/netifapi.c **** 
  49:Source\LwIP\src\api/netifapi.c **** #define NETIFAPI_VAR_REF(name)      API_VAR_REF(name)
  50:Source\LwIP\src\api/netifapi.c **** #define NETIFAPI_VAR_DECLARE(name)  API_VAR_DECLARE(struct netifapi_msg, name)
  51:Source\LwIP\src\api/netifapi.c **** #define NETIFAPI_VAR_ALLOC(name)    API_VAR_ALLOC(struct netifapi_msg, MEMP_NETIFAPI_MSG, name, ERR
  52:Source\LwIP\src\api/netifapi.c **** #define NETIFAPI_VAR_FREE(name)     API_VAR_FREE(MEMP_NETIFAPI_MSG, name)
  53:Source\LwIP\src\api/netifapi.c **** 
  54:Source\LwIP\src\api/netifapi.c **** /**
  55:Source\LwIP\src\api/netifapi.c ****  * Call netif_add() inside the tcpip_thread context.
  56:Source\LwIP\src\api/netifapi.c ****  */
  57:Source\LwIP\src\api/netifapi.c **** static err_t
  58:Source\LwIP\src\api/netifapi.c **** netifapi_do_netif_add(struct tcpip_api_call_data *m)
  59:Source\LwIP\src\api/netifapi.c **** {
  60:Source\LwIP\src\api/netifapi.c ****   /* cast through void* to silence alignment warnings. 
  61:Source\LwIP\src\api/netifapi.c ****    * We know it works because the structs have been instantiated as struct netifapi_msg */
  62:Source\LwIP\src\api/netifapi.c ****   struct netifapi_msg *msg = (struct netifapi_msg*)(void*)m;
  63:Source\LwIP\src\api/netifapi.c ****   
  64:Source\LwIP\src\api/netifapi.c ****   if (!netif_add( msg->netif,
  65:Source\LwIP\src\api/netifapi.c **** #if LWIP_IPV4
  66:Source\LwIP\src\api/netifapi.c ****                   API_EXPR_REF(msg->msg.add.ipaddr),
  67:Source\LwIP\src\api/netifapi.c ****                   API_EXPR_REF(msg->msg.add.netmask),
  68:Source\LwIP\src\api/netifapi.c ****                   API_EXPR_REF(msg->msg.add.gw),
  69:Source\LwIP\src\api/netifapi.c **** #endif /* LWIP_IPV4 */
  70:Source\LwIP\src\api/netifapi.c ****                   msg->msg.add.state,
  71:Source\LwIP\src\api/netifapi.c ****                   msg->msg.add.init,
  72:Source\LwIP\src\api/netifapi.c ****                   msg->msg.add.input)) {
  73:Source\LwIP\src\api/netifapi.c ****     return ERR_IF;
  74:Source\LwIP\src\api/netifapi.c ****   } else {
  75:Source\LwIP\src\api/netifapi.c ****     return ERR_OK;
  76:Source\LwIP\src\api/netifapi.c ****   }
  77:Source\LwIP\src\api/netifapi.c **** }
  78:Source\LwIP\src\api/netifapi.c **** 
  79:Source\LwIP\src\api/netifapi.c **** #if LWIP_IPV4
  80:Source\LwIP\src\api/netifapi.c **** /**
  81:Source\LwIP\src\api/netifapi.c ****  * Call netif_set_addr() inside the tcpip_thread context.
  82:Source\LwIP\src\api/netifapi.c ****  */
  83:Source\LwIP\src\api/netifapi.c **** static err_t
  84:Source\LwIP\src\api/netifapi.c **** netifapi_do_netif_set_addr(struct tcpip_api_call_data *m)
  85:Source\LwIP\src\api/netifapi.c **** {
  86:Source\LwIP\src\api/netifapi.c ****   /* cast through void* to silence alignment warnings. 
  87:Source\LwIP\src\api/netifapi.c ****    * We know it works because the structs have been instantiated as struct netifapi_msg */
  88:Source\LwIP\src\api/netifapi.c ****   struct netifapi_msg *msg = (struct netifapi_msg*)(void*)m;
ARM GAS  C:\Users\Phuong\AppData\Local\Temp\ccjifsDG.s 			page 3


  89:Source\LwIP\src\api/netifapi.c **** 
  90:Source\LwIP\src\api/netifapi.c ****   netif_set_addr( msg->netif,
  91:Source\LwIP\src\api/netifapi.c ****                   API_EXPR_REF(msg->msg.add.ipaddr),
  92:Source\LwIP\src\api/netifapi.c ****                   API_EXPR_REF(msg->msg.add.netmask),
  93:Source\LwIP\src\api/netifapi.c ****                   API_EXPR_REF(msg->msg.add.gw));
  94:Source\LwIP\src\api/netifapi.c ****   return ERR_OK;
  95:Source\LwIP\src\api/netifapi.c **** }
  96:Source\LwIP\src\api/netifapi.c **** #endif /* LWIP_IPV4 */
  97:Source\LwIP\src\api/netifapi.c **** 
  98:Source\LwIP\src\api/netifapi.c **** /**
  99:Source\LwIP\src\api/netifapi.c ****  * Call the "errtfunc" (or the "voidfunc" if "errtfunc" is NULL) inside the
 100:Source\LwIP\src\api/netifapi.c ****  * tcpip_thread context.
 101:Source\LwIP\src\api/netifapi.c ****  */
 102:Source\LwIP\src\api/netifapi.c **** static err_t
 103:Source\LwIP\src\api/netifapi.c **** netifapi_do_netif_common(struct tcpip_api_call_data *m)
 104:Source\LwIP\src\api/netifapi.c **** {
  27              		.loc 1 104 0
  28              		.cfi_startproc
  29              		@ args = 0, pretend = 0, frame = 0
  30              		@ frame_needed = 0, uses_anonymous_args = 0
  31              	.LVL0:
  32 0000 10B5     		push	{r4, lr}
  33              		.cfi_def_cfa_offset 8
  34              		.cfi_offset 4, -8
  35              		.cfi_offset 14, -4
  36              	.LVL1:
 105:Source\LwIP\src\api/netifapi.c ****   /* cast through void* to silence alignment warnings. 
 106:Source\LwIP\src\api/netifapi.c ****    * We know it works because the structs have been instantiated as struct netifapi_msg */
 107:Source\LwIP\src\api/netifapi.c ****   struct netifapi_msg *msg = (struct netifapi_msg*)(void*)m;
 108:Source\LwIP\src\api/netifapi.c **** 
 109:Source\LwIP\src\api/netifapi.c ****   if (msg->msg.common.errtfunc != NULL) {
  37              		.loc 1 109 0
  38 0002 0369     		ldr	r3, [r0, #16]
  39 0004 002B     		cmp	r3, #0
  40 0006 02D0     		beq	.L2
 110:Source\LwIP\src\api/netifapi.c ****     return msg->msg.common.errtfunc(msg->netif);
  41              		.loc 1 110 0
  42 0008 8068     		ldr	r0, [r0, #8]
  43              	.LVL2:
  44 000a 9847     		blx	r3
  45              	.LVL3:
  46 000c 03E0     		b	.L3
  47              	.LVL4:
  48              	.L2:
 111:Source\LwIP\src\api/netifapi.c ****   } else {
 112:Source\LwIP\src\api/netifapi.c ****     msg->msg.common.voidfunc(msg->netif);
  49              		.loc 1 112 0
  50 000e C368     		ldr	r3, [r0, #12]
  51 0010 8068     		ldr	r0, [r0, #8]
  52              	.LVL5:
  53 0012 9847     		blx	r3
  54              	.LVL6:
 113:Source\LwIP\src\api/netifapi.c ****     return ERR_OK;
  55              		.loc 1 113 0
  56 0014 0020     		movs	r0, #0
  57              	.L3:
 114:Source\LwIP\src\api/netifapi.c ****   }
ARM GAS  C:\Users\Phuong\AppData\Local\Temp\ccjifsDG.s 			page 4


 115:Source\LwIP\src\api/netifapi.c **** }
  58              		.loc 1 115 0
  59              		@ sp needed
  60 0016 10BD     		pop	{r4, pc}
  61              		.cfi_endproc
  62              	.LFE55:
  63              		.size	netifapi_do_netif_common, .-netifapi_do_netif_common
  64              		.section	.text.netifapi_do_netif_add,"ax",%progbits
  65              		.align	2
  66              		.code	16
  67              		.thumb_func
  68              		.type	netifapi_do_netif_add, %function
  69              	netifapi_do_netif_add:
  70              	.LFB53:
  59:Source\LwIP\src\api/netifapi.c ****   /* cast through void* to silence alignment warnings. 
  71              		.loc 1 59 0
  72              		.cfi_startproc
  73              		@ args = 0, pretend = 0, frame = 0
  74              		@ frame_needed = 0, uses_anonymous_args = 0
  75              	.LVL7:
  76 0000 30B5     		push	{r4, r5, lr}
  77              		.cfi_def_cfa_offset 12
  78              		.cfi_offset 4, -12
  79              		.cfi_offset 5, -8
  80              		.cfi_offset 14, -4
  81 0002 85B0     		sub	sp, sp, #20
  82              		.cfi_def_cfa_offset 32
  83              	.LVL8:
  64:Source\LwIP\src\api/netifapi.c **** #if LWIP_IPV4
  84              		.loc 1 64 0
  85 0004 4369     		ldr	r3, [r0, #20]
  86 0006 0269     		ldr	r2, [r0, #16]
  87 0008 C168     		ldr	r1, [r0, #12]
  88 000a 8468     		ldr	r4, [r0, #8]
  89 000c 056A     		ldr	r5, [r0, #32]
  90 000e 0295     		str	r5, [sp, #8]
  91 0010 C569     		ldr	r5, [r0, #28]
  92 0012 0195     		str	r5, [sp, #4]
  93 0014 8069     		ldr	r0, [r0, #24]
  94              	.LVL9:
  95 0016 0090     		str	r0, [sp]
  96 0018 2000     		movs	r0, r4
  97 001a FFF7FEFF 		bl	netif_add
  98              	.LVL10:
  99 001e 0028     		cmp	r0, #0
 100 0020 01D1     		bne	.L6
  73:Source\LwIP\src\api/netifapi.c ****   } else {
 101              		.loc 1 73 0
 102 0022 0C38     		subs	r0, r0, #12
 103 0024 00E0     		b	.L5
 104              	.L6:
  75:Source\LwIP\src\api/netifapi.c ****   }
 105              		.loc 1 75 0
 106 0026 0020     		movs	r0, #0
 107              	.L5:
  77:Source\LwIP\src\api/netifapi.c **** 
 108              		.loc 1 77 0
ARM GAS  C:\Users\Phuong\AppData\Local\Temp\ccjifsDG.s 			page 5


 109 0028 05B0     		add	sp, sp, #20
 110              		@ sp needed
 111 002a 30BD     		pop	{r4, r5, pc}
 112              		.cfi_endproc
 113              	.LFE53:
 114              		.size	netifapi_do_netif_add, .-netifapi_do_netif_add
 115              		.section	.text.netifapi_do_netif_set_addr,"ax",%progbits
 116              		.align	2
 117              		.code	16
 118              		.thumb_func
 119              		.type	netifapi_do_netif_set_addr, %function
 120              	netifapi_do_netif_set_addr:
 121              	.LFB54:
  85:Source\LwIP\src\api/netifapi.c ****   /* cast through void* to silence alignment warnings. 
 122              		.loc 1 85 0
 123              		.cfi_startproc
 124              		@ args = 0, pretend = 0, frame = 0
 125              		@ frame_needed = 0, uses_anonymous_args = 0
 126              	.LVL11:
 127 0000 10B5     		push	{r4, lr}
 128              		.cfi_def_cfa_offset 8
 129              		.cfi_offset 4, -8
 130              		.cfi_offset 14, -4
 131              	.LVL12:
  90:Source\LwIP\src\api/netifapi.c ****                   API_EXPR_REF(msg->msg.add.ipaddr),
 132              		.loc 1 90 0
 133 0002 4369     		ldr	r3, [r0, #20]
 134 0004 0269     		ldr	r2, [r0, #16]
 135 0006 C168     		ldr	r1, [r0, #12]
 136 0008 8068     		ldr	r0, [r0, #8]
 137              	.LVL13:
 138 000a FFF7FEFF 		bl	netif_set_addr
 139              	.LVL14:
  95:Source\LwIP\src\api/netifapi.c **** #endif /* LWIP_IPV4 */
 140              		.loc 1 95 0
 141 000e 0020     		movs	r0, #0
 142              		@ sp needed
 143 0010 10BD     		pop	{r4, pc}
 144              		.cfi_endproc
 145              	.LFE54:
 146              		.size	netifapi_do_netif_set_addr, .-netifapi_do_netif_set_addr
 147 0012 C046     		.section	.text.netifapi_netif_add,"ax",%progbits
 148              		.align	2
 149              		.global	netifapi_netif_add
 150              		.code	16
 151              		.thumb_func
 152              		.type	netifapi_netif_add, %function
 153              	netifapi_netif_add:
 154              	.LFB56:
 116:Source\LwIP\src\api/netifapi.c **** 
 117:Source\LwIP\src\api/netifapi.c **** /**
 118:Source\LwIP\src\api/netifapi.c ****  * @ingroup netifapi_netif
 119:Source\LwIP\src\api/netifapi.c ****  * Call netif_add() in a thread-safe way by running that function inside the
 120:Source\LwIP\src\api/netifapi.c ****  * tcpip_thread context.
 121:Source\LwIP\src\api/netifapi.c ****  *
 122:Source\LwIP\src\api/netifapi.c ****  * @note for params @see netif_add()
 123:Source\LwIP\src\api/netifapi.c ****  */
ARM GAS  C:\Users\Phuong\AppData\Local\Temp\ccjifsDG.s 			page 6


 124:Source\LwIP\src\api/netifapi.c **** err_t
 125:Source\LwIP\src\api/netifapi.c **** netifapi_netif_add(struct netif *netif,
 126:Source\LwIP\src\api/netifapi.c **** #if LWIP_IPV4
 127:Source\LwIP\src\api/netifapi.c ****                    const ip4_addr_t *ipaddr, const ip4_addr_t *netmask, const ip4_addr_t *gw,
 128:Source\LwIP\src\api/netifapi.c **** #endif /* LWIP_IPV4 */
 129:Source\LwIP\src\api/netifapi.c ****                    void *state, netif_init_fn init, netif_input_fn input)
 130:Source\LwIP\src\api/netifapi.c **** {
 155              		.loc 1 130 0
 156              		.cfi_startproc
 157              		@ args = 12, pretend = 0, frame = 40
 158              		@ frame_needed = 0, uses_anonymous_args = 0
 159              	.LVL15:
 160 0000 00B5     		push	{lr}
 161              		.cfi_def_cfa_offset 4
 162              		.cfi_offset 14, -4
 163 0002 8BB0     		sub	sp, sp, #44
 164              		.cfi_def_cfa_offset 48
 131:Source\LwIP\src\api/netifapi.c ****   err_t err;
 132:Source\LwIP\src\api/netifapi.c ****   NETIFAPI_VAR_DECLARE(msg);
 133:Source\LwIP\src\api/netifapi.c ****   NETIFAPI_VAR_ALLOC(msg);
 134:Source\LwIP\src\api/netifapi.c **** 
 135:Source\LwIP\src\api/netifapi.c **** #if LWIP_IPV4
 136:Source\LwIP\src\api/netifapi.c ****   if (ipaddr == NULL) {
 165              		.loc 1 136 0
 166 0004 0029     		cmp	r1, #0
 167 0006 00D1     		bne	.L9
 137:Source\LwIP\src\api/netifapi.c ****     ipaddr = IP4_ADDR_ANY4;
 168              		.loc 1 137 0
 169 0008 0B49     		ldr	r1, .L15
 170              	.LVL16:
 171              	.L9:
 138:Source\LwIP\src\api/netifapi.c ****   }
 139:Source\LwIP\src\api/netifapi.c ****   if (netmask == NULL) {
 172              		.loc 1 139 0
 173 000a 002A     		cmp	r2, #0
 174 000c 00D1     		bne	.L10
 140:Source\LwIP\src\api/netifapi.c ****     netmask = IP4_ADDR_ANY4;
 175              		.loc 1 140 0
 176 000e 0A4A     		ldr	r2, .L15
 177              	.LVL17:
 178              	.L10:
 141:Source\LwIP\src\api/netifapi.c ****   }
 142:Source\LwIP\src\api/netifapi.c ****   if (gw == NULL) {
 179              		.loc 1 142 0
 180 0010 002B     		cmp	r3, #0
 181 0012 00D1     		bne	.L11
 143:Source\LwIP\src\api/netifapi.c ****     gw = IP4_ADDR_ANY4;
 182              		.loc 1 143 0
 183 0014 084B     		ldr	r3, .L15
 184              	.LVL18:
 185              	.L11:
 144:Source\LwIP\src\api/netifapi.c ****   }
 145:Source\LwIP\src\api/netifapi.c **** #endif /* LWIP_IPV4 */
 146:Source\LwIP\src\api/netifapi.c **** 
 147:Source\LwIP\src\api/netifapi.c ****   NETIFAPI_VAR_REF(msg).netif = netif;
 186              		.loc 1 147 0
 187 0016 0390     		str	r0, [sp, #12]
ARM GAS  C:\Users\Phuong\AppData\Local\Temp\ccjifsDG.s 			page 7


 148:Source\LwIP\src\api/netifapi.c **** #if LWIP_IPV4
 149:Source\LwIP\src\api/netifapi.c ****   NETIFAPI_VAR_REF(msg).msg.add.ipaddr  = NETIFAPI_VAR_REF(ipaddr);
 188              		.loc 1 149 0
 189 0018 0491     		str	r1, [sp, #16]
 150:Source\LwIP\src\api/netifapi.c ****   NETIFAPI_VAR_REF(msg).msg.add.netmask = NETIFAPI_VAR_REF(netmask);
 190              		.loc 1 150 0
 191 001a 0592     		str	r2, [sp, #20]
 151:Source\LwIP\src\api/netifapi.c ****   NETIFAPI_VAR_REF(msg).msg.add.gw      = NETIFAPI_VAR_REF(gw);
 192              		.loc 1 151 0
 193 001c 0693     		str	r3, [sp, #24]
 152:Source\LwIP\src\api/netifapi.c **** #endif /* LWIP_IPV4 */
 153:Source\LwIP\src\api/netifapi.c ****   NETIFAPI_VAR_REF(msg).msg.add.state   = state;
 194              		.loc 1 153 0
 195 001e 0C9B     		ldr	r3, [sp, #48]
 196              	.LVL19:
 197 0020 0793     		str	r3, [sp, #28]
 154:Source\LwIP\src\api/netifapi.c ****   NETIFAPI_VAR_REF(msg).msg.add.init    = init;
 198              		.loc 1 154 0
 199 0022 0D9B     		ldr	r3, [sp, #52]
 200 0024 0893     		str	r3, [sp, #32]
 155:Source\LwIP\src\api/netifapi.c ****   NETIFAPI_VAR_REF(msg).msg.add.input   = input;
 201              		.loc 1 155 0
 202 0026 0E9B     		ldr	r3, [sp, #56]
 203 0028 0993     		str	r3, [sp, #36]
 156:Source\LwIP\src\api/netifapi.c ****   err = tcpip_api_call(netifapi_do_netif_add, &API_VAR_REF(msg).call);
 204              		.loc 1 156 0
 205 002a 01A9     		add	r1, sp, #4
 206              	.LVL20:
 207 002c 0348     		ldr	r0, .L15+4
 208              	.LVL21:
 209 002e FFF7FEFF 		bl	tcpip_api_call
 210              	.LVL22:
 157:Source\LwIP\src\api/netifapi.c ****   NETIFAPI_VAR_FREE(msg);
 158:Source\LwIP\src\api/netifapi.c ****   return err;
 159:Source\LwIP\src\api/netifapi.c **** }
 211              		.loc 1 159 0
 212 0032 0BB0     		add	sp, sp, #44
 213              		@ sp needed
 214 0034 00BD     		pop	{pc}
 215              	.L16:
 216 0036 C046     		.align	2
 217              	.L15:
 218 0038 00000000 		.word	ip_addr_any
 219 003c 00000000 		.word	netifapi_do_netif_add
 220              		.cfi_endproc
 221              	.LFE56:
 222              		.size	netifapi_netif_add, .-netifapi_netif_add
 223              		.section	.text.netifapi_netif_set_addr,"ax",%progbits
 224              		.align	2
 225              		.global	netifapi_netif_set_addr
 226              		.code	16
 227              		.thumb_func
 228              		.type	netifapi_netif_set_addr, %function
 229              	netifapi_netif_set_addr:
 230              	.LFB57:
 160:Source\LwIP\src\api/netifapi.c **** 
 161:Source\LwIP\src\api/netifapi.c **** #if LWIP_IPV4
ARM GAS  C:\Users\Phuong\AppData\Local\Temp\ccjifsDG.s 			page 8


 162:Source\LwIP\src\api/netifapi.c **** /**
 163:Source\LwIP\src\api/netifapi.c ****  * @ingroup netifapi_netif
 164:Source\LwIP\src\api/netifapi.c ****  * Call netif_set_addr() in a thread-safe way by running that function inside the
 165:Source\LwIP\src\api/netifapi.c ****  * tcpip_thread context.
 166:Source\LwIP\src\api/netifapi.c ****  *
 167:Source\LwIP\src\api/netifapi.c ****  * @note for params @see netif_set_addr()
 168:Source\LwIP\src\api/netifapi.c ****  */
 169:Source\LwIP\src\api/netifapi.c **** err_t
 170:Source\LwIP\src\api/netifapi.c **** netifapi_netif_set_addr(struct netif *netif,
 171:Source\LwIP\src\api/netifapi.c ****                         const ip4_addr_t *ipaddr,
 172:Source\LwIP\src\api/netifapi.c ****                         const ip4_addr_t *netmask,
 173:Source\LwIP\src\api/netifapi.c ****                         const ip4_addr_t *gw)
 174:Source\LwIP\src\api/netifapi.c **** {
 231              		.loc 1 174 0
 232              		.cfi_startproc
 233              		@ args = 0, pretend = 0, frame = 40
 234              		@ frame_needed = 0, uses_anonymous_args = 0
 235              	.LVL23:
 236 0000 00B5     		push	{lr}
 237              		.cfi_def_cfa_offset 4
 238              		.cfi_offset 14, -4
 239 0002 8BB0     		sub	sp, sp, #44
 240              		.cfi_def_cfa_offset 48
 175:Source\LwIP\src\api/netifapi.c ****   err_t err;
 176:Source\LwIP\src\api/netifapi.c ****   NETIFAPI_VAR_DECLARE(msg);
 177:Source\LwIP\src\api/netifapi.c ****   NETIFAPI_VAR_ALLOC(msg);
 178:Source\LwIP\src\api/netifapi.c **** 
 179:Source\LwIP\src\api/netifapi.c ****   if (ipaddr == NULL) {
 241              		.loc 1 179 0
 242 0004 0029     		cmp	r1, #0
 243 0006 00D1     		bne	.L18
 180:Source\LwIP\src\api/netifapi.c ****     ipaddr = IP4_ADDR_ANY4;
 244              		.loc 1 180 0
 245 0008 0849     		ldr	r1, .L24
 246              	.LVL24:
 247              	.L18:
 181:Source\LwIP\src\api/netifapi.c ****   }
 182:Source\LwIP\src\api/netifapi.c ****   if (netmask == NULL) {
 248              		.loc 1 182 0
 249 000a 002A     		cmp	r2, #0
 250 000c 00D1     		bne	.L19
 183:Source\LwIP\src\api/netifapi.c ****     netmask = IP4_ADDR_ANY4;
 251              		.loc 1 183 0
 252 000e 074A     		ldr	r2, .L24
 253              	.LVL25:
 254              	.L19:
 184:Source\LwIP\src\api/netifapi.c ****   }
 185:Source\LwIP\src\api/netifapi.c ****   if (gw == NULL) {
 255              		.loc 1 185 0
 256 0010 002B     		cmp	r3, #0
 257 0012 00D1     		bne	.L20
 186:Source\LwIP\src\api/netifapi.c ****     gw = IP4_ADDR_ANY4;
 258              		.loc 1 186 0
 259 0014 054B     		ldr	r3, .L24
 260              	.LVL26:
 261              	.L20:
 187:Source\LwIP\src\api/netifapi.c ****   }
ARM GAS  C:\Users\Phuong\AppData\Local\Temp\ccjifsDG.s 			page 9


 188:Source\LwIP\src\api/netifapi.c **** 
 189:Source\LwIP\src\api/netifapi.c ****   NETIFAPI_VAR_REF(msg).netif = netif;
 262              		.loc 1 189 0
 263 0016 0390     		str	r0, [sp, #12]
 190:Source\LwIP\src\api/netifapi.c ****   NETIFAPI_VAR_REF(msg).msg.add.ipaddr  = NETIFAPI_VAR_REF(ipaddr);
 264              		.loc 1 190 0
 265 0018 0491     		str	r1, [sp, #16]
 191:Source\LwIP\src\api/netifapi.c ****   NETIFAPI_VAR_REF(msg).msg.add.netmask = NETIFAPI_VAR_REF(netmask);
 266              		.loc 1 191 0
 267 001a 0592     		str	r2, [sp, #20]
 192:Source\LwIP\src\api/netifapi.c ****   NETIFAPI_VAR_REF(msg).msg.add.gw      = NETIFAPI_VAR_REF(gw);
 268              		.loc 1 192 0
 269 001c 0693     		str	r3, [sp, #24]
 193:Source\LwIP\src\api/netifapi.c ****   err = tcpip_api_call(netifapi_do_netif_set_addr, &API_VAR_REF(msg).call);
 270              		.loc 1 193 0
 271 001e 01A9     		add	r1, sp, #4
 272              	.LVL27:
 273 0020 0348     		ldr	r0, .L24+4
 274              	.LVL28:
 275 0022 FFF7FEFF 		bl	tcpip_api_call
 276              	.LVL29:
 194:Source\LwIP\src\api/netifapi.c ****   NETIFAPI_VAR_FREE(msg);
 195:Source\LwIP\src\api/netifapi.c ****   return err;
 196:Source\LwIP\src\api/netifapi.c **** }
 277              		.loc 1 196 0
 278 0026 0BB0     		add	sp, sp, #44
 279              		@ sp needed
 280 0028 00BD     		pop	{pc}
 281              	.L25:
 282 002a C046     		.align	2
 283              	.L24:
 284 002c 00000000 		.word	ip_addr_any
 285 0030 00000000 		.word	netifapi_do_netif_set_addr
 286              		.cfi_endproc
 287              	.LFE57:
 288              		.size	netifapi_netif_set_addr, .-netifapi_netif_set_addr
 289              		.section	.text.netifapi_netif_common,"ax",%progbits
 290              		.align	2
 291              		.global	netifapi_netif_common
 292              		.code	16
 293              		.thumb_func
 294              		.type	netifapi_netif_common, %function
 295              	netifapi_netif_common:
 296              	.LFB58:
 197:Source\LwIP\src\api/netifapi.c **** #endif /* LWIP_IPV4 */
 198:Source\LwIP\src\api/netifapi.c **** 
 199:Source\LwIP\src\api/netifapi.c **** /**
 200:Source\LwIP\src\api/netifapi.c ****  * call the "errtfunc" (or the "voidfunc" if "errtfunc" is NULL) in a thread-safe
 201:Source\LwIP\src\api/netifapi.c ****  * way by running that function inside the tcpip_thread context.
 202:Source\LwIP\src\api/netifapi.c ****  *
 203:Source\LwIP\src\api/netifapi.c ****  * @note use only for functions where there is only "netif" parameter.
 204:Source\LwIP\src\api/netifapi.c ****  */
 205:Source\LwIP\src\api/netifapi.c **** err_t
 206:Source\LwIP\src\api/netifapi.c **** netifapi_netif_common(struct netif *netif, netifapi_void_fn voidfunc,
 207:Source\LwIP\src\api/netifapi.c ****                        netifapi_errt_fn errtfunc)
 208:Source\LwIP\src\api/netifapi.c **** {
 297              		.loc 1 208 0
ARM GAS  C:\Users\Phuong\AppData\Local\Temp\ccjifsDG.s 			page 10


 298              		.cfi_startproc
 299              		@ args = 0, pretend = 0, frame = 40
 300              		@ frame_needed = 0, uses_anonymous_args = 0
 301              	.LVL30:
 302 0000 00B5     		push	{lr}
 303              		.cfi_def_cfa_offset 4
 304              		.cfi_offset 14, -4
 305 0002 8BB0     		sub	sp, sp, #44
 306              		.cfi_def_cfa_offset 48
 209:Source\LwIP\src\api/netifapi.c ****   err_t err;
 210:Source\LwIP\src\api/netifapi.c ****   NETIFAPI_VAR_DECLARE(msg);
 211:Source\LwIP\src\api/netifapi.c ****   NETIFAPI_VAR_ALLOC(msg);
 212:Source\LwIP\src\api/netifapi.c **** 
 213:Source\LwIP\src\api/netifapi.c ****   NETIFAPI_VAR_REF(msg).netif = netif;
 307              		.loc 1 213 0
 308 0004 0390     		str	r0, [sp, #12]
 214:Source\LwIP\src\api/netifapi.c ****   NETIFAPI_VAR_REF(msg).msg.common.voidfunc = voidfunc;
 309              		.loc 1 214 0
 310 0006 0491     		str	r1, [sp, #16]
 215:Source\LwIP\src\api/netifapi.c ****   NETIFAPI_VAR_REF(msg).msg.common.errtfunc = errtfunc;
 311              		.loc 1 215 0
 312 0008 0592     		str	r2, [sp, #20]
 216:Source\LwIP\src\api/netifapi.c ****   err = tcpip_api_call(netifapi_do_netif_common, &API_VAR_REF(msg).call);
 313              		.loc 1 216 0
 314 000a 01A9     		add	r1, sp, #4
 315              	.LVL31:
 316 000c 0248     		ldr	r0, .L27
 317              	.LVL32:
 318 000e FFF7FEFF 		bl	tcpip_api_call
 319              	.LVL33:
 217:Source\LwIP\src\api/netifapi.c ****   NETIFAPI_VAR_FREE(msg);
 218:Source\LwIP\src\api/netifapi.c ****   return err;
 219:Source\LwIP\src\api/netifapi.c **** }
 320              		.loc 1 219 0
 321 0012 0BB0     		add	sp, sp, #44
 322              		@ sp needed
 323 0014 00BD     		pop	{pc}
 324              	.L28:
 325 0016 C046     		.align	2
 326              	.L27:
 327 0018 00000000 		.word	netifapi_do_netif_common
 328              		.cfi_endproc
 329              	.LFE58:
 330              		.size	netifapi_netif_common, .-netifapi_netif_common
 331              		.text
 332              	.Letext0:
 333              		.file 2 ".\\Source\\FreeRTOS\\10.0.1\\Source\\include/queue.h"
 334              		.file 3 ".\\Source\\FreeRTOS\\10.0.1\\Source\\include/semphr.h"
 335              		.file 4 ".\\Source\\LwIP\\src\\include/arch/sys_arch.h"
 336              		.file 5 ".\\Source\\LwIP\\src\\include/arch/cc.h"
 337              		.file 6 ".\\Source\\LwIP\\src\\include/lwip/err.h"
 338              		.file 7 ".\\Source\\LwIP\\src\\include/lwip/ip4_addr.h"
 339              		.file 8 ".\\Source\\LwIP\\src\\include/lwip/ip_addr.h"
 340              		.file 9 ".\\Source\\LwIP\\src\\include/lwip/pbuf.h"
 341              		.file 10 ".\\Source\\LwIP\\src\\include/lwip/netif.h"
 342              		.file 11 ".\\Source\\LwIP\\src\\include/lwip/priv/tcpip_priv.h"
 343              		.file 12 ".\\Source\\LwIP\\src\\include/lwip/netifapi.h"
ARM GAS  C:\Users\Phuong\AppData\Local\Temp\ccjifsDG.s 			page 11

