ARM GAS  C:\Users\Phuong\AppData\Local\Temp\ccH1i8MP.s 			page 1


   1              		.syntax unified
   2              		.cpu cortex-m0plus
   3              		.fpu softvfp
   4              		.eabi_attribute 20, 1
   5              		.eabi_attribute 21, 1
   6              		.eabi_attribute 23, 3
   7              		.eabi_attribute 24, 1
   8              		.eabi_attribute 25, 1
   9              		.eabi_attribute 26, 1
  10              		.eabi_attribute 30, 1
  11              		.eabi_attribute 34, 0
  12              		.eabi_attribute 18, 4
  13              		.thumb
  14              		.syntax unified
  15              		.file	"netif.c"
  16              		.text
  17              	.Ltext0:
  18              		.cfi_sections	.debug_frame
  19              		.section	.text.netif_issue_reports,"ax",%progbits
  20              		.align	2
  21              		.code	16
  22              		.thumb_func
  23              		.type	netif_issue_reports, %function
  24              	netif_issue_reports:
  25              	.LFB64:
  26              		.file 1 "Source\\LwIP\\src\\core\\netif.c"
   1:Source\LwIP\src\core/netif.c **** /**
   2:Source\LwIP\src\core/netif.c ****  * @file
   3:Source\LwIP\src\core/netif.c ****  * lwIP network interface abstraction
   4:Source\LwIP\src\core/netif.c ****  * 
   5:Source\LwIP\src\core/netif.c ****  * @defgroup netif Network interface (NETIF)
   6:Source\LwIP\src\core/netif.c ****  * @ingroup callbackstyle_api
   7:Source\LwIP\src\core/netif.c ****  * 
   8:Source\LwIP\src\core/netif.c ****  * @defgroup netif_ip4 IPv4 address handling
   9:Source\LwIP\src\core/netif.c ****  * @ingroup netif
  10:Source\LwIP\src\core/netif.c ****  * 
  11:Source\LwIP\src\core/netif.c ****  * @defgroup netif_ip6 IPv6 address handling
  12:Source\LwIP\src\core/netif.c ****  * @ingroup netif
  13:Source\LwIP\src\core/netif.c ****  * 
  14:Source\LwIP\src\core/netif.c ****  * @defgroup netif_cd Client data handling
  15:Source\LwIP\src\core/netif.c ****  * Store data (void*) on a netif for application usage.
  16:Source\LwIP\src\core/netif.c ****  * @see @ref LWIP_NUM_NETIF_CLIENT_DATA
  17:Source\LwIP\src\core/netif.c ****  * @ingroup netif
  18:Source\LwIP\src\core/netif.c ****  */
  19:Source\LwIP\src\core/netif.c **** 
  20:Source\LwIP\src\core/netif.c **** /*
  21:Source\LwIP\src\core/netif.c ****  * Copyright (c) 2001-2004 Swedish Institute of Computer Science.
  22:Source\LwIP\src\core/netif.c ****  * All rights reserved.
  23:Source\LwIP\src\core/netif.c ****  *
  24:Source\LwIP\src\core/netif.c ****  * Redistribution and use in source and binary forms, with or without modification,
  25:Source\LwIP\src\core/netif.c ****  * are permitted provided that the following conditions are met:
  26:Source\LwIP\src\core/netif.c ****  *
  27:Source\LwIP\src\core/netif.c ****  * 1. Redistributions of source code must retain the above copyright notice,
  28:Source\LwIP\src\core/netif.c ****  *    this list of conditions and the following disclaimer.
  29:Source\LwIP\src\core/netif.c ****  * 2. Redistributions in binary form must reproduce the above copyright notice,
  30:Source\LwIP\src\core/netif.c ****  *    this list of conditions and the following disclaimer in the documentation
  31:Source\LwIP\src\core/netif.c ****  *    and/or other materials provided with the distribution.
ARM GAS  C:\Users\Phuong\AppData\Local\Temp\ccH1i8MP.s 			page 2


  32:Source\LwIP\src\core/netif.c ****  * 3. The name of the author may not be used to endorse or promote products
  33:Source\LwIP\src\core/netif.c ****  *    derived from this software without specific prior written permission.
  34:Source\LwIP\src\core/netif.c ****  *
  35:Source\LwIP\src\core/netif.c ****  * THIS SOFTWARE IS PROVIDED BY THE AUTHOR ``AS IS'' AND ANY EXPRESS OR IMPLIED
  36:Source\LwIP\src\core/netif.c ****  * WARRANTIES, INCLUDING, BUT NOT LIMITED TO, THE IMPLIED WARRANTIES OF
  37:Source\LwIP\src\core/netif.c ****  * MERCHANTABILITY AND FITNESS FOR A PARTICULAR PURPOSE ARE DISCLAIMED. IN NO EVENT
  38:Source\LwIP\src\core/netif.c ****  * SHALL THE AUTHOR BE LIABLE FOR ANY DIRECT, INDIRECT, INCIDENTAL, SPECIAL,
  39:Source\LwIP\src\core/netif.c ****  * EXEMPLARY, OR CONSEQUENTIAL DAMAGES (INCLUDING, BUT NOT LIMITED TO, PROCUREMENT
  40:Source\LwIP\src\core/netif.c ****  * OF SUBSTITUTE GOODS OR SERVICES; LOSS OF USE, DATA, OR PROFITS; OR BUSINESS
  41:Source\LwIP\src\core/netif.c ****  * INTERRUPTION) HOWEVER CAUSED AND ON ANY THEORY OF LIABILITY, WHETHER IN
  42:Source\LwIP\src\core/netif.c ****  * CONTRACT, STRICT LIABILITY, OR TORT (INCLUDING NEGLIGENCE OR OTHERWISE) ARISING
  43:Source\LwIP\src\core/netif.c ****  * IN ANY WAY OUT OF THE USE OF THIS SOFTWARE, EVEN IF ADVISED OF THE POSSIBILITY
  44:Source\LwIP\src\core/netif.c ****  * OF SUCH DAMAGE.
  45:Source\LwIP\src\core/netif.c ****  *
  46:Source\LwIP\src\core/netif.c ****  * This file is part of the lwIP TCP/IP stack.
  47:Source\LwIP\src\core/netif.c ****  *
  48:Source\LwIP\src\core/netif.c ****  * Author: Adam Dunkels <adam@sics.se>
  49:Source\LwIP\src\core/netif.c ****  */
  50:Source\LwIP\src\core/netif.c **** 
  51:Source\LwIP\src\core/netif.c **** #include "lwip/opt.h"
  52:Source\LwIP\src\core/netif.c **** 
  53:Source\LwIP\src\core/netif.c **** #include <string.h>
  54:Source\LwIP\src\core/netif.c **** 
  55:Source\LwIP\src\core/netif.c **** #include "lwip/def.h"
  56:Source\LwIP\src\core/netif.c **** #include "lwip/ip_addr.h"
  57:Source\LwIP\src\core/netif.c **** #include "lwip/ip6_addr.h"
  58:Source\LwIP\src\core/netif.c **** #include "lwip/netif.h"
  59:Source\LwIP\src\core/netif.c **** #include "lwip/priv/tcp_priv.h"
  60:Source\LwIP\src\core/netif.c **** #include "lwip/udp.h"
  61:Source\LwIP\src\core/netif.c **** #include "lwip/raw.h"
  62:Source\LwIP\src\core/netif.c **** #include "lwip/snmp.h"
  63:Source\LwIP\src\core/netif.c **** #include "lwip/igmp.h"
  64:Source\LwIP\src\core/netif.c **** #include "lwip/etharp.h"
  65:Source\LwIP\src\core/netif.c **** #include "lwip/stats.h"
  66:Source\LwIP\src\core/netif.c **** #include "lwip/sys.h"
  67:Source\LwIP\src\core/netif.c **** #include "lwip/ip.h"
  68:Source\LwIP\src\core/netif.c **** #if ENABLE_LOOPBACK
  69:Source\LwIP\src\core/netif.c **** #if LWIP_NETIF_LOOPBACK_MULTITHREADING
  70:Source\LwIP\src\core/netif.c **** #include "lwip/tcpip.h"
  71:Source\LwIP\src\core/netif.c **** #endif /* LWIP_NETIF_LOOPBACK_MULTITHREADING */
  72:Source\LwIP\src\core/netif.c **** #endif /* ENABLE_LOOPBACK */
  73:Source\LwIP\src\core/netif.c **** 
  74:Source\LwIP\src\core/netif.c **** #include "netif/ethernet.h"
  75:Source\LwIP\src\core/netif.c **** 
  76:Source\LwIP\src\core/netif.c **** #if LWIP_AUTOIP
  77:Source\LwIP\src\core/netif.c **** #include "lwip/autoip.h"
  78:Source\LwIP\src\core/netif.c **** #endif /* LWIP_AUTOIP */
  79:Source\LwIP\src\core/netif.c **** #if LWIP_DHCP
  80:Source\LwIP\src\core/netif.c **** #include "lwip/dhcp.h"
  81:Source\LwIP\src\core/netif.c **** #endif /* LWIP_DHCP */
  82:Source\LwIP\src\core/netif.c **** #if LWIP_IPV6_DHCP6
  83:Source\LwIP\src\core/netif.c **** #include "lwip/dhcp6.h"
  84:Source\LwIP\src\core/netif.c **** #endif /* LWIP_IPV6_DHCP6 */
  85:Source\LwIP\src\core/netif.c **** #if LWIP_IPV6_MLD
  86:Source\LwIP\src\core/netif.c **** #include "lwip/mld6.h"
  87:Source\LwIP\src\core/netif.c **** #endif /* LWIP_IPV6_MLD */
  88:Source\LwIP\src\core/netif.c **** #if LWIP_IPV6
ARM GAS  C:\Users\Phuong\AppData\Local\Temp\ccH1i8MP.s 			page 3


  89:Source\LwIP\src\core/netif.c **** #include "lwip/nd6.h"
  90:Source\LwIP\src\core/netif.c **** #endif
  91:Source\LwIP\src\core/netif.c **** 
  92:Source\LwIP\src\core/netif.c **** #if LWIP_NETIF_STATUS_CALLBACK
  93:Source\LwIP\src\core/netif.c **** #define NETIF_STATUS_CALLBACK(n) do{ if (n->status_callback) { (n->status_callback)(n); }}while(0)
  94:Source\LwIP\src\core/netif.c **** #else
  95:Source\LwIP\src\core/netif.c **** #define NETIF_STATUS_CALLBACK(n)
  96:Source\LwIP\src\core/netif.c **** #endif /* LWIP_NETIF_STATUS_CALLBACK */
  97:Source\LwIP\src\core/netif.c **** 
  98:Source\LwIP\src\core/netif.c **** #if LWIP_NETIF_LINK_CALLBACK
  99:Source\LwIP\src\core/netif.c **** #define NETIF_LINK_CALLBACK(n) do{ if (n->link_callback) { (n->link_callback)(n); }}while(0)
 100:Source\LwIP\src\core/netif.c **** #else
 101:Source\LwIP\src\core/netif.c **** #define NETIF_LINK_CALLBACK(n)
 102:Source\LwIP\src\core/netif.c **** #endif /* LWIP_NETIF_LINK_CALLBACK */
 103:Source\LwIP\src\core/netif.c **** 
 104:Source\LwIP\src\core/netif.c **** struct netif *netif_list;
 105:Source\LwIP\src\core/netif.c **** struct netif *netif_default;
 106:Source\LwIP\src\core/netif.c **** 
 107:Source\LwIP\src\core/netif.c **** static u8_t netif_num;
 108:Source\LwIP\src\core/netif.c **** 
 109:Source\LwIP\src\core/netif.c **** #if LWIP_NUM_NETIF_CLIENT_DATA > 0
 110:Source\LwIP\src\core/netif.c **** static u8_t netif_client_id;
 111:Source\LwIP\src\core/netif.c **** #endif
 112:Source\LwIP\src\core/netif.c **** 
 113:Source\LwIP\src\core/netif.c **** #define NETIF_REPORT_TYPE_IPV4  0x01
 114:Source\LwIP\src\core/netif.c **** #define NETIF_REPORT_TYPE_IPV6  0x02
 115:Source\LwIP\src\core/netif.c **** static void netif_issue_reports(struct netif* netif, u8_t report_type);
 116:Source\LwIP\src\core/netif.c **** 
 117:Source\LwIP\src\core/netif.c **** #if LWIP_IPV6
 118:Source\LwIP\src\core/netif.c **** static err_t netif_null_output_ip6(struct netif *netif, struct pbuf *p, const ip6_addr_t *ipaddr);
 119:Source\LwIP\src\core/netif.c **** #endif /* LWIP_IPV6 */
 120:Source\LwIP\src\core/netif.c **** 
 121:Source\LwIP\src\core/netif.c **** #if LWIP_HAVE_LOOPIF
 122:Source\LwIP\src\core/netif.c **** #if LWIP_IPV4
 123:Source\LwIP\src\core/netif.c **** static err_t netif_loop_output_ipv4(struct netif *netif, struct pbuf *p, const ip4_addr_t* addr);
 124:Source\LwIP\src\core/netif.c **** #endif
 125:Source\LwIP\src\core/netif.c **** #if LWIP_IPV6
 126:Source\LwIP\src\core/netif.c **** static err_t netif_loop_output_ipv6(struct netif *netif, struct pbuf *p, const ip6_addr_t* addr);
 127:Source\LwIP\src\core/netif.c **** #endif
 128:Source\LwIP\src\core/netif.c **** 
 129:Source\LwIP\src\core/netif.c **** 
 130:Source\LwIP\src\core/netif.c **** static struct netif loop_netif;
 131:Source\LwIP\src\core/netif.c **** 
 132:Source\LwIP\src\core/netif.c **** /**
 133:Source\LwIP\src\core/netif.c ****  * Initialize a lwip network interface structure for a loopback interface
 134:Source\LwIP\src\core/netif.c ****  *
 135:Source\LwIP\src\core/netif.c ****  * @param netif the lwip network interface structure for this loopif
 136:Source\LwIP\src\core/netif.c ****  * @return ERR_OK if the loopif is initialized
 137:Source\LwIP\src\core/netif.c ****  *         ERR_MEM if private data couldn't be allocated
 138:Source\LwIP\src\core/netif.c ****  */
 139:Source\LwIP\src\core/netif.c **** static err_t
 140:Source\LwIP\src\core/netif.c **** netif_loopif_init(struct netif *netif)
 141:Source\LwIP\src\core/netif.c **** {
 142:Source\LwIP\src\core/netif.c ****   /* initialize the snmp variables and counters inside the struct netif
 143:Source\LwIP\src\core/netif.c ****    * ifSpeed: no assumption can be made!
 144:Source\LwIP\src\core/netif.c ****    */
 145:Source\LwIP\src\core/netif.c ****   MIB2_INIT_NETIF(netif, snmp_ifType_softwareLoopback, 0);
ARM GAS  C:\Users\Phuong\AppData\Local\Temp\ccH1i8MP.s 			page 4


 146:Source\LwIP\src\core/netif.c **** 
 147:Source\LwIP\src\core/netif.c ****   netif->name[0] = 'l';
 148:Source\LwIP\src\core/netif.c ****   netif->name[1] = 'o';
 149:Source\LwIP\src\core/netif.c **** #if LWIP_IPV4
 150:Source\LwIP\src\core/netif.c ****   netif->output = netif_loop_output_ipv4;
 151:Source\LwIP\src\core/netif.c **** #endif
 152:Source\LwIP\src\core/netif.c **** #if LWIP_IPV6
 153:Source\LwIP\src\core/netif.c ****   netif->output_ip6 = netif_loop_output_ipv6;
 154:Source\LwIP\src\core/netif.c **** #endif
 155:Source\LwIP\src\core/netif.c **** #if LWIP_LOOPIF_MULTICAST
 156:Source\LwIP\src\core/netif.c ****   netif->flags |= NETIF_FLAG_IGMP;
 157:Source\LwIP\src\core/netif.c **** #endif
 158:Source\LwIP\src\core/netif.c ****   return ERR_OK;
 159:Source\LwIP\src\core/netif.c **** }
 160:Source\LwIP\src\core/netif.c **** #endif /* LWIP_HAVE_LOOPIF */
 161:Source\LwIP\src\core/netif.c **** 
 162:Source\LwIP\src\core/netif.c **** void
 163:Source\LwIP\src\core/netif.c **** netif_init(void)
 164:Source\LwIP\src\core/netif.c **** {
 165:Source\LwIP\src\core/netif.c **** #if LWIP_HAVE_LOOPIF
 166:Source\LwIP\src\core/netif.c **** #if LWIP_IPV4
 167:Source\LwIP\src\core/netif.c **** #define LOOPIF_ADDRINIT &loop_ipaddr, &loop_netmask, &loop_gw,
 168:Source\LwIP\src\core/netif.c ****   ip4_addr_t loop_ipaddr, loop_netmask, loop_gw;
 169:Source\LwIP\src\core/netif.c ****   IP4_ADDR(&loop_gw, 127,0,0,1);
 170:Source\LwIP\src\core/netif.c ****   IP4_ADDR(&loop_ipaddr, 127,0,0,1);
 171:Source\LwIP\src\core/netif.c ****   IP4_ADDR(&loop_netmask, 255,0,0,0);
 172:Source\LwIP\src\core/netif.c **** #else /* LWIP_IPV4 */
 173:Source\LwIP\src\core/netif.c **** #define LOOPIF_ADDRINIT
 174:Source\LwIP\src\core/netif.c **** #endif /* LWIP_IPV4 */
 175:Source\LwIP\src\core/netif.c **** 
 176:Source\LwIP\src\core/netif.c **** #if NO_SYS
 177:Source\LwIP\src\core/netif.c ****   netif_add(&loop_netif, LOOPIF_ADDRINIT NULL, netif_loopif_init, ip_input);
 178:Source\LwIP\src\core/netif.c **** #else  /* NO_SYS */
 179:Source\LwIP\src\core/netif.c ****   netif_add(&loop_netif, LOOPIF_ADDRINIT NULL, netif_loopif_init, tcpip_input);
 180:Source\LwIP\src\core/netif.c **** #endif /* NO_SYS */
 181:Source\LwIP\src\core/netif.c **** 
 182:Source\LwIP\src\core/netif.c **** #if LWIP_IPV6
 183:Source\LwIP\src\core/netif.c ****   IP_ADDR6_HOST(loop_netif.ip6_addr, 0, 0, 0, 0x00000001UL);
 184:Source\LwIP\src\core/netif.c ****   loop_netif.ip6_addr_state[0] = IP6_ADDR_VALID;
 185:Source\LwIP\src\core/netif.c **** #endif /* LWIP_IPV6 */
 186:Source\LwIP\src\core/netif.c **** 
 187:Source\LwIP\src\core/netif.c ****   netif_set_link_up(&loop_netif);
 188:Source\LwIP\src\core/netif.c ****   netif_set_up(&loop_netif);
 189:Source\LwIP\src\core/netif.c **** 
 190:Source\LwIP\src\core/netif.c **** #endif /* LWIP_HAVE_LOOPIF */
 191:Source\LwIP\src\core/netif.c **** }
 192:Source\LwIP\src\core/netif.c **** 
 193:Source\LwIP\src\core/netif.c **** /**
 194:Source\LwIP\src\core/netif.c ****  * @ingroup lwip_nosys
 195:Source\LwIP\src\core/netif.c ****  * Forwards a received packet for input processing with
 196:Source\LwIP\src\core/netif.c ****  * ethernet_input() or ip_input() depending on netif flags.
 197:Source\LwIP\src\core/netif.c ****  * Don't call directly, pass to netif_add() and call
 198:Source\LwIP\src\core/netif.c ****  * netif->input().
 199:Source\LwIP\src\core/netif.c ****  * Only works if the netif driver correctly sets 
 200:Source\LwIP\src\core/netif.c ****  * NETIF_FLAG_ETHARP and/or NETIF_FLAG_ETHERNET flag!
 201:Source\LwIP\src\core/netif.c ****  */
 202:Source\LwIP\src\core/netif.c **** err_t
ARM GAS  C:\Users\Phuong\AppData\Local\Temp\ccH1i8MP.s 			page 5


 203:Source\LwIP\src\core/netif.c **** netif_input(struct pbuf *p, struct netif *inp)
 204:Source\LwIP\src\core/netif.c **** {
 205:Source\LwIP\src\core/netif.c **** #if LWIP_ETHERNET
 206:Source\LwIP\src\core/netif.c ****   if (inp->flags & (NETIF_FLAG_ETHARP | NETIF_FLAG_ETHERNET)) {
 207:Source\LwIP\src\core/netif.c ****     return ethernet_input(p, inp);
 208:Source\LwIP\src\core/netif.c ****   } else
 209:Source\LwIP\src\core/netif.c **** #endif /* LWIP_ETHERNET */
 210:Source\LwIP\src\core/netif.c ****   return ip_input(p, inp);
 211:Source\LwIP\src\core/netif.c **** }
 212:Source\LwIP\src\core/netif.c **** 
 213:Source\LwIP\src\core/netif.c **** /**
 214:Source\LwIP\src\core/netif.c ****  * @ingroup netif
 215:Source\LwIP\src\core/netif.c ****  * Add a network interface to the list of lwIP netifs.
 216:Source\LwIP\src\core/netif.c ****  *
 217:Source\LwIP\src\core/netif.c ****  * @param netif a pre-allocated netif structure
 218:Source\LwIP\src\core/netif.c ****  * @param ipaddr IP address for the new netif
 219:Source\LwIP\src\core/netif.c ****  * @param netmask network mask for the new netif
 220:Source\LwIP\src\core/netif.c ****  * @param gw default gateway IP address for the new netif
 221:Source\LwIP\src\core/netif.c ****  * @param state opaque data passed to the new netif
 222:Source\LwIP\src\core/netif.c ****  * @param init callback function that initializes the interface
 223:Source\LwIP\src\core/netif.c ****  * @param input callback function that is called to pass
 224:Source\LwIP\src\core/netif.c ****  * ingress packets up in the protocol layer stack.\n
 225:Source\LwIP\src\core/netif.c ****  * It is recommended to use a function that passes the input directly
 226:Source\LwIP\src\core/netif.c ****  * to the stack (netif_input(), NO_SYS=1 mode) or via sending a
 227:Source\LwIP\src\core/netif.c ****  * message to TCPIP thread (tcpip_input(), NO_SYS=0 mode).\n
 228:Source\LwIP\src\core/netif.c ****  * These functions use netif flags NETIF_FLAG_ETHARP and NETIF_FLAG_ETHERNET
 229:Source\LwIP\src\core/netif.c ****  * to decide whether to forward to ethernet_input() or ip_input().
 230:Source\LwIP\src\core/netif.c ****  * In other words, the functions only work when the netif
 231:Source\LwIP\src\core/netif.c ****  * driver is implemented correctly!\n
 232:Source\LwIP\src\core/netif.c ****  * Most members of struct netif should be be initialized by the 
 233:Source\LwIP\src\core/netif.c ****  * netif init function = netif driver (init parameter of this function).\n
 234:Source\LwIP\src\core/netif.c ****  * IPv6: Don't forget to call netif_create_ip6_linklocal_address() after
 235:Source\LwIP\src\core/netif.c ****  * setting the MAC address in struct netif.hwaddr
 236:Source\LwIP\src\core/netif.c ****  * (IPv6 requires a link-local address).
 237:Source\LwIP\src\core/netif.c ****  * 
 238:Source\LwIP\src\core/netif.c ****  * @return netif, or NULL if failed.
 239:Source\LwIP\src\core/netif.c ****  */
 240:Source\LwIP\src\core/netif.c **** struct netif *
 241:Source\LwIP\src\core/netif.c **** netif_add(struct netif *netif,
 242:Source\LwIP\src\core/netif.c **** #if LWIP_IPV4
 243:Source\LwIP\src\core/netif.c ****           const ip4_addr_t *ipaddr, const ip4_addr_t *netmask, const ip4_addr_t *gw,
 244:Source\LwIP\src\core/netif.c **** #endif /* LWIP_IPV4 */
 245:Source\LwIP\src\core/netif.c ****           void *state, netif_init_fn init, netif_input_fn input)
 246:Source\LwIP\src\core/netif.c **** {
 247:Source\LwIP\src\core/netif.c **** #if LWIP_IPV6
 248:Source\LwIP\src\core/netif.c ****   s8_t i;
 249:Source\LwIP\src\core/netif.c **** #endif
 250:Source\LwIP\src\core/netif.c **** 
 251:Source\LwIP\src\core/netif.c ****   LWIP_ASSERT("No init function given", init != NULL);
 252:Source\LwIP\src\core/netif.c **** 
 253:Source\LwIP\src\core/netif.c ****   /* reset new interface configuration state */
 254:Source\LwIP\src\core/netif.c **** #if LWIP_IPV4
 255:Source\LwIP\src\core/netif.c ****   ip_addr_set_zero_ip4(&netif->ip_addr);
 256:Source\LwIP\src\core/netif.c ****   ip_addr_set_zero_ip4(&netif->netmask);
 257:Source\LwIP\src\core/netif.c ****   ip_addr_set_zero_ip4(&netif->gw);
 258:Source\LwIP\src\core/netif.c **** #endif /* LWIP_IPV4 */
 259:Source\LwIP\src\core/netif.c **** #if LWIP_IPV6
ARM GAS  C:\Users\Phuong\AppData\Local\Temp\ccH1i8MP.s 			page 6


 260:Source\LwIP\src\core/netif.c ****   for (i = 0; i < LWIP_IPV6_NUM_ADDRESSES; i++) {
 261:Source\LwIP\src\core/netif.c ****     ip_addr_set_zero_ip6(&netif->ip6_addr[i]);
 262:Source\LwIP\src\core/netif.c ****     netif->ip6_addr_state[i] = IP6_ADDR_INVALID;
 263:Source\LwIP\src\core/netif.c ****   }
 264:Source\LwIP\src\core/netif.c ****   netif->output_ip6 = netif_null_output_ip6;
 265:Source\LwIP\src\core/netif.c **** #endif /* LWIP_IPV6 */
 266:Source\LwIP\src\core/netif.c ****   NETIF_SET_CHECKSUM_CTRL(netif, NETIF_CHECKSUM_ENABLE_ALL);
 267:Source\LwIP\src\core/netif.c ****   netif->flags = 0;
 268:Source\LwIP\src\core/netif.c **** #ifdef netif_get_client_data
 269:Source\LwIP\src\core/netif.c ****   memset(netif->client_data, 0, sizeof(netif->client_data));
 270:Source\LwIP\src\core/netif.c **** #endif /* LWIP_NUM_NETIF_CLIENT_DATA */
 271:Source\LwIP\src\core/netif.c **** #if LWIP_IPV6_AUTOCONFIG
 272:Source\LwIP\src\core/netif.c ****   /* IPv6 address autoconfiguration not enabled by default */
 273:Source\LwIP\src\core/netif.c ****   netif->ip6_autoconfig_enabled = 0;
 274:Source\LwIP\src\core/netif.c **** #endif /* LWIP_IPV6_AUTOCONFIG */
 275:Source\LwIP\src\core/netif.c **** #if LWIP_IPV6_SEND_ROUTER_SOLICIT
 276:Source\LwIP\src\core/netif.c ****   netif->rs_count = LWIP_ND6_MAX_MULTICAST_SOLICIT;
 277:Source\LwIP\src\core/netif.c **** #endif /* LWIP_IPV6_SEND_ROUTER_SOLICIT */
 278:Source\LwIP\src\core/netif.c **** #if LWIP_NETIF_STATUS_CALLBACK
 279:Source\LwIP\src\core/netif.c ****   netif->status_callback = NULL;
 280:Source\LwIP\src\core/netif.c **** #endif /* LWIP_NETIF_STATUS_CALLBACK */
 281:Source\LwIP\src\core/netif.c **** #if LWIP_NETIF_LINK_CALLBACK
 282:Source\LwIP\src\core/netif.c ****   netif->link_callback = NULL;
 283:Source\LwIP\src\core/netif.c **** #endif /* LWIP_NETIF_LINK_CALLBACK */
 284:Source\LwIP\src\core/netif.c **** #if LWIP_IGMP
 285:Source\LwIP\src\core/netif.c ****   netif->igmp_mac_filter = NULL;
 286:Source\LwIP\src\core/netif.c **** #endif /* LWIP_IGMP */
 287:Source\LwIP\src\core/netif.c **** #if LWIP_IPV6 && LWIP_IPV6_MLD
 288:Source\LwIP\src\core/netif.c ****   netif->mld_mac_filter = NULL;
 289:Source\LwIP\src\core/netif.c **** #endif /* LWIP_IPV6 && LWIP_IPV6_MLD */
 290:Source\LwIP\src\core/netif.c **** #if ENABLE_LOOPBACK
 291:Source\LwIP\src\core/netif.c ****   netif->loop_first = NULL;
 292:Source\LwIP\src\core/netif.c ****   netif->loop_last = NULL;
 293:Source\LwIP\src\core/netif.c **** #endif /* ENABLE_LOOPBACK */
 294:Source\LwIP\src\core/netif.c **** 
 295:Source\LwIP\src\core/netif.c ****   /* remember netif specific state information data */
 296:Source\LwIP\src\core/netif.c ****   netif->state = state;
 297:Source\LwIP\src\core/netif.c ****   netif->num = netif_num++;
 298:Source\LwIP\src\core/netif.c ****   netif->input = input;
 299:Source\LwIP\src\core/netif.c **** 
 300:Source\LwIP\src\core/netif.c ****   NETIF_SET_HWADDRHINT(netif, NULL);
 301:Source\LwIP\src\core/netif.c **** #if ENABLE_LOOPBACK && LWIP_LOOPBACK_MAX_PBUFS
 302:Source\LwIP\src\core/netif.c ****   netif->loop_cnt_current = 0;
 303:Source\LwIP\src\core/netif.c **** #endif /* ENABLE_LOOPBACK && LWIP_LOOPBACK_MAX_PBUFS */
 304:Source\LwIP\src\core/netif.c **** 
 305:Source\LwIP\src\core/netif.c **** #if LWIP_IPV4
 306:Source\LwIP\src\core/netif.c ****   netif_set_addr(netif, ipaddr, netmask, gw);
 307:Source\LwIP\src\core/netif.c **** #endif /* LWIP_IPV4 */
 308:Source\LwIP\src\core/netif.c **** 
 309:Source\LwIP\src\core/netif.c ****   /* call user specified initialization function for netif */
 310:Source\LwIP\src\core/netif.c ****   if (init(netif) != ERR_OK) {
 311:Source\LwIP\src\core/netif.c ****     return NULL;
 312:Source\LwIP\src\core/netif.c ****   }
 313:Source\LwIP\src\core/netif.c **** 
 314:Source\LwIP\src\core/netif.c ****   /* add this netif to the list */
 315:Source\LwIP\src\core/netif.c ****   netif->next = netif_list;
 316:Source\LwIP\src\core/netif.c ****   netif_list = netif;
ARM GAS  C:\Users\Phuong\AppData\Local\Temp\ccH1i8MP.s 			page 7


 317:Source\LwIP\src\core/netif.c ****   mib2_netif_added(netif);
 318:Source\LwIP\src\core/netif.c **** 
 319:Source\LwIP\src\core/netif.c **** #if LWIP_IGMP
 320:Source\LwIP\src\core/netif.c ****   /* start IGMP processing */
 321:Source\LwIP\src\core/netif.c ****   if (netif->flags & NETIF_FLAG_IGMP) {
 322:Source\LwIP\src\core/netif.c ****     igmp_start(netif);
 323:Source\LwIP\src\core/netif.c ****   }
 324:Source\LwIP\src\core/netif.c **** #endif /* LWIP_IGMP */
 325:Source\LwIP\src\core/netif.c **** 
 326:Source\LwIP\src\core/netif.c ****   LWIP_DEBUGF(NETIF_DEBUG, ("netif: added interface %c%c IP",
 327:Source\LwIP\src\core/netif.c ****     netif->name[0], netif->name[1]));
 328:Source\LwIP\src\core/netif.c **** #if LWIP_IPV4
 329:Source\LwIP\src\core/netif.c ****   LWIP_DEBUGF(NETIF_DEBUG, (" addr "));
 330:Source\LwIP\src\core/netif.c ****   ip4_addr_debug_print(NETIF_DEBUG, ipaddr);
 331:Source\LwIP\src\core/netif.c ****   LWIP_DEBUGF(NETIF_DEBUG, (" netmask "));
 332:Source\LwIP\src\core/netif.c ****   ip4_addr_debug_print(NETIF_DEBUG, netmask);
 333:Source\LwIP\src\core/netif.c ****   LWIP_DEBUGF(NETIF_DEBUG, (" gw "));
 334:Source\LwIP\src\core/netif.c ****   ip4_addr_debug_print(NETIF_DEBUG, gw);
 335:Source\LwIP\src\core/netif.c **** #endif /* LWIP_IPV4 */
 336:Source\LwIP\src\core/netif.c ****   LWIP_DEBUGF(NETIF_DEBUG, ("\n"));
 337:Source\LwIP\src\core/netif.c ****   return netif;
 338:Source\LwIP\src\core/netif.c **** }
 339:Source\LwIP\src\core/netif.c **** 
 340:Source\LwIP\src\core/netif.c **** #if LWIP_IPV4
 341:Source\LwIP\src\core/netif.c **** /**
 342:Source\LwIP\src\core/netif.c ****  * @ingroup netif_ip4
 343:Source\LwIP\src\core/netif.c ****  * Change IP address configuration for a network interface (including netmask
 344:Source\LwIP\src\core/netif.c ****  * and default gateway).
 345:Source\LwIP\src\core/netif.c ****  *
 346:Source\LwIP\src\core/netif.c ****  * @param netif the network interface to change
 347:Source\LwIP\src\core/netif.c ****  * @param ipaddr the new IP address
 348:Source\LwIP\src\core/netif.c ****  * @param netmask the new netmask
 349:Source\LwIP\src\core/netif.c ****  * @param gw the new default gateway
 350:Source\LwIP\src\core/netif.c ****  */
 351:Source\LwIP\src\core/netif.c **** void
 352:Source\LwIP\src\core/netif.c **** netif_set_addr(struct netif *netif, const ip4_addr_t *ipaddr, const ip4_addr_t *netmask,
 353:Source\LwIP\src\core/netif.c ****     const ip4_addr_t *gw)
 354:Source\LwIP\src\core/netif.c **** {
 355:Source\LwIP\src\core/netif.c ****   if (ip4_addr_isany(ipaddr)) {
 356:Source\LwIP\src\core/netif.c ****     /* when removing an address, we have to remove it *before* changing netmask/gw
 357:Source\LwIP\src\core/netif.c ****        to ensure that tcp RST segment can be sent correctly */
 358:Source\LwIP\src\core/netif.c ****     netif_set_ipaddr(netif, ipaddr);
 359:Source\LwIP\src\core/netif.c ****     netif_set_netmask(netif, netmask);
 360:Source\LwIP\src\core/netif.c ****     netif_set_gw(netif, gw);
 361:Source\LwIP\src\core/netif.c ****   } else {
 362:Source\LwIP\src\core/netif.c ****     netif_set_netmask(netif, netmask);
 363:Source\LwIP\src\core/netif.c ****     netif_set_gw(netif, gw);
 364:Source\LwIP\src\core/netif.c ****     /* set ipaddr last to ensure netmask/gw have been set when status callback is called */
 365:Source\LwIP\src\core/netif.c ****     netif_set_ipaddr(netif, ipaddr);
 366:Source\LwIP\src\core/netif.c ****   }
 367:Source\LwIP\src\core/netif.c **** }
 368:Source\LwIP\src\core/netif.c **** #endif /* LWIP_IPV4*/
 369:Source\LwIP\src\core/netif.c **** 
 370:Source\LwIP\src\core/netif.c **** /**
 371:Source\LwIP\src\core/netif.c ****  * @ingroup netif
 372:Source\LwIP\src\core/netif.c ****  * Remove a network interface from the list of lwIP netifs.
 373:Source\LwIP\src\core/netif.c ****  *
ARM GAS  C:\Users\Phuong\AppData\Local\Temp\ccH1i8MP.s 			page 8


 374:Source\LwIP\src\core/netif.c ****  * @param netif the network interface to remove
 375:Source\LwIP\src\core/netif.c ****  */
 376:Source\LwIP\src\core/netif.c **** void
 377:Source\LwIP\src\core/netif.c **** netif_remove(struct netif *netif)
 378:Source\LwIP\src\core/netif.c **** {
 379:Source\LwIP\src\core/netif.c **** #if LWIP_IPV6
 380:Source\LwIP\src\core/netif.c ****   int i;
 381:Source\LwIP\src\core/netif.c **** #endif
 382:Source\LwIP\src\core/netif.c **** 
 383:Source\LwIP\src\core/netif.c ****   if (netif == NULL) {
 384:Source\LwIP\src\core/netif.c ****     return;
 385:Source\LwIP\src\core/netif.c ****   }
 386:Source\LwIP\src\core/netif.c **** 
 387:Source\LwIP\src\core/netif.c **** #if LWIP_IPV4
 388:Source\LwIP\src\core/netif.c ****   if (!ip4_addr_isany_val(*netif_ip4_addr(netif))) {
 389:Source\LwIP\src\core/netif.c **** #if LWIP_TCP
 390:Source\LwIP\src\core/netif.c ****     tcp_netif_ip_addr_changed(netif_ip_addr4(netif), NULL);
 391:Source\LwIP\src\core/netif.c **** #endif /* LWIP_TCP */
 392:Source\LwIP\src\core/netif.c **** #if LWIP_UDP
 393:Source\LwIP\src\core/netif.c ****     udp_netif_ip_addr_changed(netif_ip_addr4(netif), NULL);
 394:Source\LwIP\src\core/netif.c **** #endif /* LWIP_UDP */
 395:Source\LwIP\src\core/netif.c **** #if LWIP_RAW
 396:Source\LwIP\src\core/netif.c ****     raw_netif_ip_addr_changed(netif_ip_addr4(netif), NULL);
 397:Source\LwIP\src\core/netif.c **** #endif /* LWIP_RAW */
 398:Source\LwIP\src\core/netif.c ****   }
 399:Source\LwIP\src\core/netif.c **** 
 400:Source\LwIP\src\core/netif.c **** #if LWIP_IGMP
 401:Source\LwIP\src\core/netif.c ****   /* stop IGMP processing */
 402:Source\LwIP\src\core/netif.c ****   if (netif->flags & NETIF_FLAG_IGMP) {
 403:Source\LwIP\src\core/netif.c ****     igmp_stop(netif);
 404:Source\LwIP\src\core/netif.c ****   }
 405:Source\LwIP\src\core/netif.c **** #endif /* LWIP_IGMP */
 406:Source\LwIP\src\core/netif.c **** #endif /* LWIP_IPV4*/
 407:Source\LwIP\src\core/netif.c **** 
 408:Source\LwIP\src\core/netif.c **** #if LWIP_IPV6
 409:Source\LwIP\src\core/netif.c ****   for (i = 0; i < LWIP_IPV6_NUM_ADDRESSES; i++) {
 410:Source\LwIP\src\core/netif.c ****     if (ip6_addr_isvalid(netif_ip6_addr_state(netif, i))) {
 411:Source\LwIP\src\core/netif.c **** #if LWIP_TCP
 412:Source\LwIP\src\core/netif.c ****       tcp_netif_ip_addr_changed(netif_ip_addr6(netif, i), NULL);
 413:Source\LwIP\src\core/netif.c **** #endif /* LWIP_TCP */
 414:Source\LwIP\src\core/netif.c **** #if LWIP_UDP
 415:Source\LwIP\src\core/netif.c ****       udp_netif_ip_addr_changed(netif_ip_addr6(netif, i), NULL);
 416:Source\LwIP\src\core/netif.c **** #endif /* LWIP_UDP */
 417:Source\LwIP\src\core/netif.c **** #if LWIP_RAW
 418:Source\LwIP\src\core/netif.c ****       raw_netif_ip_addr_changed(netif_ip_addr6(netif, i), NULL);
 419:Source\LwIP\src\core/netif.c **** #endif /* LWIP_RAW */
 420:Source\LwIP\src\core/netif.c ****     }
 421:Source\LwIP\src\core/netif.c ****   }
 422:Source\LwIP\src\core/netif.c **** #if LWIP_IPV6_MLD
 423:Source\LwIP\src\core/netif.c ****   /* stop MLD processing */
 424:Source\LwIP\src\core/netif.c ****   mld6_stop(netif);
 425:Source\LwIP\src\core/netif.c **** #endif /* LWIP_IPV6_MLD */
 426:Source\LwIP\src\core/netif.c **** #endif /* LWIP_IPV6 */
 427:Source\LwIP\src\core/netif.c ****   if (netif_is_up(netif)) {
 428:Source\LwIP\src\core/netif.c ****     /* set netif down before removing (call callback function) */
 429:Source\LwIP\src\core/netif.c ****     netif_set_down(netif);
 430:Source\LwIP\src\core/netif.c ****   }
ARM GAS  C:\Users\Phuong\AppData\Local\Temp\ccH1i8MP.s 			page 9


 431:Source\LwIP\src\core/netif.c **** 
 432:Source\LwIP\src\core/netif.c ****   mib2_remove_ip4(netif);
 433:Source\LwIP\src\core/netif.c **** 
 434:Source\LwIP\src\core/netif.c ****   /* this netif is default? */
 435:Source\LwIP\src\core/netif.c ****   if (netif_default == netif) {
 436:Source\LwIP\src\core/netif.c ****     /* reset default netif */
 437:Source\LwIP\src\core/netif.c ****     netif_set_default(NULL);
 438:Source\LwIP\src\core/netif.c ****   }
 439:Source\LwIP\src\core/netif.c ****   /*  is it the first netif? */
 440:Source\LwIP\src\core/netif.c ****   if (netif_list == netif) {
 441:Source\LwIP\src\core/netif.c ****     netif_list = netif->next;
 442:Source\LwIP\src\core/netif.c ****   } else {
 443:Source\LwIP\src\core/netif.c ****     /*  look for netif further down the list */
 444:Source\LwIP\src\core/netif.c ****     struct netif * tmp_netif;
 445:Source\LwIP\src\core/netif.c ****     for (tmp_netif = netif_list; tmp_netif != NULL; tmp_netif = tmp_netif->next) {
 446:Source\LwIP\src\core/netif.c ****       if (tmp_netif->next == netif) {
 447:Source\LwIP\src\core/netif.c ****         tmp_netif->next = netif->next;
 448:Source\LwIP\src\core/netif.c ****         break;
 449:Source\LwIP\src\core/netif.c ****       }
 450:Source\LwIP\src\core/netif.c ****     }
 451:Source\LwIP\src\core/netif.c ****     if (tmp_netif == NULL) {
 452:Source\LwIP\src\core/netif.c ****       return; /* netif is not on the list */
 453:Source\LwIP\src\core/netif.c ****     }
 454:Source\LwIP\src\core/netif.c ****   }
 455:Source\LwIP\src\core/netif.c ****   mib2_netif_removed(netif);
 456:Source\LwIP\src\core/netif.c **** #if LWIP_NETIF_REMOVE_CALLBACK
 457:Source\LwIP\src\core/netif.c ****   if (netif->remove_callback) {
 458:Source\LwIP\src\core/netif.c ****     netif->remove_callback(netif);
 459:Source\LwIP\src\core/netif.c ****   }
 460:Source\LwIP\src\core/netif.c **** #endif /* LWIP_NETIF_REMOVE_CALLBACK */
 461:Source\LwIP\src\core/netif.c ****   LWIP_DEBUGF( NETIF_DEBUG, ("netif_remove: removed netif\n") );
 462:Source\LwIP\src\core/netif.c **** }
 463:Source\LwIP\src\core/netif.c **** 
 464:Source\LwIP\src\core/netif.c **** /**
 465:Source\LwIP\src\core/netif.c ****  * @ingroup netif
 466:Source\LwIP\src\core/netif.c ****  * Find a network interface by searching for its name
 467:Source\LwIP\src\core/netif.c ****  *
 468:Source\LwIP\src\core/netif.c ****  * @param name the name of the netif (like netif->name) plus concatenated number
 469:Source\LwIP\src\core/netif.c ****  * in ascii representation (e.g. 'en0')
 470:Source\LwIP\src\core/netif.c ****  */
 471:Source\LwIP\src\core/netif.c **** struct netif *
 472:Source\LwIP\src\core/netif.c **** netif_find(const char *name)
 473:Source\LwIP\src\core/netif.c **** {
 474:Source\LwIP\src\core/netif.c ****   struct netif *netif;
 475:Source\LwIP\src\core/netif.c ****   u8_t num;
 476:Source\LwIP\src\core/netif.c **** 
 477:Source\LwIP\src\core/netif.c ****   if (name == NULL) {
 478:Source\LwIP\src\core/netif.c ****     return NULL;
 479:Source\LwIP\src\core/netif.c ****   }
 480:Source\LwIP\src\core/netif.c **** 
 481:Source\LwIP\src\core/netif.c ****   num = (u8_t)(name[2] - '0');
 482:Source\LwIP\src\core/netif.c **** 
 483:Source\LwIP\src\core/netif.c ****   for (netif = netif_list; netif != NULL; netif = netif->next) {
 484:Source\LwIP\src\core/netif.c ****     if (num == netif->num &&
 485:Source\LwIP\src\core/netif.c ****        name[0] == netif->name[0] &&
 486:Source\LwIP\src\core/netif.c ****        name[1] == netif->name[1]) {
 487:Source\LwIP\src\core/netif.c ****       LWIP_DEBUGF(NETIF_DEBUG, ("netif_find: found %c%c\n", name[0], name[1]));
ARM GAS  C:\Users\Phuong\AppData\Local\Temp\ccH1i8MP.s 			page 10


 488:Source\LwIP\src\core/netif.c ****       return netif;
 489:Source\LwIP\src\core/netif.c ****     }
 490:Source\LwIP\src\core/netif.c ****   }
 491:Source\LwIP\src\core/netif.c ****   LWIP_DEBUGF(NETIF_DEBUG, ("netif_find: didn't find %c%c\n", name[0], name[1]));
 492:Source\LwIP\src\core/netif.c ****   return NULL;
 493:Source\LwIP\src\core/netif.c **** }
 494:Source\LwIP\src\core/netif.c **** 
 495:Source\LwIP\src\core/netif.c **** #if LWIP_IPV4
 496:Source\LwIP\src\core/netif.c **** /**
 497:Source\LwIP\src\core/netif.c ****  * @ingroup netif_ip4
 498:Source\LwIP\src\core/netif.c ****  * Change the IP address of a network interface
 499:Source\LwIP\src\core/netif.c ****  *
 500:Source\LwIP\src\core/netif.c ****  * @param netif the network interface to change
 501:Source\LwIP\src\core/netif.c ****  * @param ipaddr the new IP address
 502:Source\LwIP\src\core/netif.c ****  *
 503:Source\LwIP\src\core/netif.c ****  * @note call netif_set_addr() if you also want to change netmask and
 504:Source\LwIP\src\core/netif.c ****  * default gateway
 505:Source\LwIP\src\core/netif.c ****  */
 506:Source\LwIP\src\core/netif.c **** void
 507:Source\LwIP\src\core/netif.c **** netif_set_ipaddr(struct netif *netif, const ip4_addr_t *ipaddr)
 508:Source\LwIP\src\core/netif.c **** {
 509:Source\LwIP\src\core/netif.c ****   ip_addr_t new_addr;
 510:Source\LwIP\src\core/netif.c ****   *ip_2_ip4(&new_addr) = (ipaddr ? *ipaddr : *IP4_ADDR_ANY4);
 511:Source\LwIP\src\core/netif.c ****   IP_SET_TYPE_VAL(new_addr, IPADDR_TYPE_V4);
 512:Source\LwIP\src\core/netif.c **** 
 513:Source\LwIP\src\core/netif.c ****   /* address is actually being changed? */
 514:Source\LwIP\src\core/netif.c ****   if (ip4_addr_cmp(ip_2_ip4(&new_addr), netif_ip4_addr(netif)) == 0) {
 515:Source\LwIP\src\core/netif.c ****     LWIP_DEBUGF(NETIF_DEBUG | LWIP_DBG_STATE, ("netif_set_ipaddr: netif address being changed\n"));
 516:Source\LwIP\src\core/netif.c **** #if LWIP_TCP
 517:Source\LwIP\src\core/netif.c ****     tcp_netif_ip_addr_changed(netif_ip_addr4(netif), &new_addr);
 518:Source\LwIP\src\core/netif.c **** #endif /* LWIP_TCP */
 519:Source\LwIP\src\core/netif.c **** #if LWIP_UDP
 520:Source\LwIP\src\core/netif.c ****     udp_netif_ip_addr_changed(netif_ip_addr4(netif), &new_addr);
 521:Source\LwIP\src\core/netif.c **** #endif /* LWIP_UDP */
 522:Source\LwIP\src\core/netif.c **** #if LWIP_RAW
 523:Source\LwIP\src\core/netif.c ****     raw_netif_ip_addr_changed(netif_ip_addr4(netif), &new_addr);
 524:Source\LwIP\src\core/netif.c **** #endif /* LWIP_RAW */
 525:Source\LwIP\src\core/netif.c **** 
 526:Source\LwIP\src\core/netif.c ****     mib2_remove_ip4(netif);
 527:Source\LwIP\src\core/netif.c ****     mib2_remove_route_ip4(0, netif);
 528:Source\LwIP\src\core/netif.c ****     /* set new IP address to netif */
 529:Source\LwIP\src\core/netif.c ****     ip4_addr_set(ip_2_ip4(&netif->ip_addr), ipaddr);
 530:Source\LwIP\src\core/netif.c ****     IP_SET_TYPE_VAL(netif->ip_addr, IPADDR_TYPE_V4);
 531:Source\LwIP\src\core/netif.c ****     mib2_add_ip4(netif);
 532:Source\LwIP\src\core/netif.c ****     mib2_add_route_ip4(0, netif);
 533:Source\LwIP\src\core/netif.c **** 
 534:Source\LwIP\src\core/netif.c ****     netif_issue_reports(netif, NETIF_REPORT_TYPE_IPV4);
 535:Source\LwIP\src\core/netif.c **** 
 536:Source\LwIP\src\core/netif.c ****     NETIF_STATUS_CALLBACK(netif);
 537:Source\LwIP\src\core/netif.c ****   }
 538:Source\LwIP\src\core/netif.c **** 
 539:Source\LwIP\src\core/netif.c ****   LWIP_DEBUGF(NETIF_DEBUG | LWIP_DBG_TRACE | LWIP_DBG_STATE, ("netif: IP address of interface %c%c 
 540:Source\LwIP\src\core/netif.c ****     netif->name[0], netif->name[1],
 541:Source\LwIP\src\core/netif.c ****     ip4_addr1_16(netif_ip4_addr(netif)),
 542:Source\LwIP\src\core/netif.c ****     ip4_addr2_16(netif_ip4_addr(netif)),
 543:Source\LwIP\src\core/netif.c ****     ip4_addr3_16(netif_ip4_addr(netif)),
 544:Source\LwIP\src\core/netif.c ****     ip4_addr4_16(netif_ip4_addr(netif))));
ARM GAS  C:\Users\Phuong\AppData\Local\Temp\ccH1i8MP.s 			page 11


 545:Source\LwIP\src\core/netif.c **** }
 546:Source\LwIP\src\core/netif.c **** 
 547:Source\LwIP\src\core/netif.c **** /**
 548:Source\LwIP\src\core/netif.c ****  * @ingroup netif_ip4
 549:Source\LwIP\src\core/netif.c ****  * Change the default gateway for a network interface
 550:Source\LwIP\src\core/netif.c ****  *
 551:Source\LwIP\src\core/netif.c ****  * @param netif the network interface to change
 552:Source\LwIP\src\core/netif.c ****  * @param gw the new default gateway
 553:Source\LwIP\src\core/netif.c ****  *
 554:Source\LwIP\src\core/netif.c ****  * @note call netif_set_addr() if you also want to change ip address and netmask
 555:Source\LwIP\src\core/netif.c ****  */
 556:Source\LwIP\src\core/netif.c **** void
 557:Source\LwIP\src\core/netif.c **** netif_set_gw(struct netif *netif, const ip4_addr_t *gw)
 558:Source\LwIP\src\core/netif.c **** {
 559:Source\LwIP\src\core/netif.c ****   ip4_addr_set(ip_2_ip4(&netif->gw), gw);
 560:Source\LwIP\src\core/netif.c ****   IP_SET_TYPE_VAL(netif->gw, IPADDR_TYPE_V4);
 561:Source\LwIP\src\core/netif.c ****   LWIP_DEBUGF(NETIF_DEBUG | LWIP_DBG_TRACE | LWIP_DBG_STATE, ("netif: GW address of interface %c%c 
 562:Source\LwIP\src\core/netif.c ****     netif->name[0], netif->name[1],
 563:Source\LwIP\src\core/netif.c ****     ip4_addr1_16(netif_ip4_gw(netif)),
 564:Source\LwIP\src\core/netif.c ****     ip4_addr2_16(netif_ip4_gw(netif)),
 565:Source\LwIP\src\core/netif.c ****     ip4_addr3_16(netif_ip4_gw(netif)),
 566:Source\LwIP\src\core/netif.c ****     ip4_addr4_16(netif_ip4_gw(netif))));
 567:Source\LwIP\src\core/netif.c **** }
 568:Source\LwIP\src\core/netif.c **** 
 569:Source\LwIP\src\core/netif.c **** /**
 570:Source\LwIP\src\core/netif.c ****  * @ingroup netif_ip4
 571:Source\LwIP\src\core/netif.c ****  * Change the netmask of a network interface
 572:Source\LwIP\src\core/netif.c ****  *
 573:Source\LwIP\src\core/netif.c ****  * @param netif the network interface to change
 574:Source\LwIP\src\core/netif.c ****  * @param netmask the new netmask
 575:Source\LwIP\src\core/netif.c ****  *
 576:Source\LwIP\src\core/netif.c ****  * @note call netif_set_addr() if you also want to change ip address and
 577:Source\LwIP\src\core/netif.c ****  * default gateway
 578:Source\LwIP\src\core/netif.c ****  */
 579:Source\LwIP\src\core/netif.c **** void
 580:Source\LwIP\src\core/netif.c **** netif_set_netmask(struct netif *netif, const ip4_addr_t *netmask)
 581:Source\LwIP\src\core/netif.c **** {
 582:Source\LwIP\src\core/netif.c ****   mib2_remove_route_ip4(0, netif);
 583:Source\LwIP\src\core/netif.c ****   /* set new netmask to netif */
 584:Source\LwIP\src\core/netif.c ****   ip4_addr_set(ip_2_ip4(&netif->netmask), netmask);
 585:Source\LwIP\src\core/netif.c ****   IP_SET_TYPE_VAL(netif->netmask, IPADDR_TYPE_V4);
 586:Source\LwIP\src\core/netif.c ****   mib2_add_route_ip4(0, netif);
 587:Source\LwIP\src\core/netif.c ****   LWIP_DEBUGF(NETIF_DEBUG | LWIP_DBG_TRACE | LWIP_DBG_STATE, ("netif: netmask of interface %c%c set
 588:Source\LwIP\src\core/netif.c ****     netif->name[0], netif->name[1],
 589:Source\LwIP\src\core/netif.c ****     ip4_addr1_16(netif_ip4_netmask(netif)),
 590:Source\LwIP\src\core/netif.c ****     ip4_addr2_16(netif_ip4_netmask(netif)),
 591:Source\LwIP\src\core/netif.c ****     ip4_addr3_16(netif_ip4_netmask(netif)),
 592:Source\LwIP\src\core/netif.c ****     ip4_addr4_16(netif_ip4_netmask(netif))));
 593:Source\LwIP\src\core/netif.c **** }
 594:Source\LwIP\src\core/netif.c **** #endif /* LWIP_IPV4 */
 595:Source\LwIP\src\core/netif.c **** 
 596:Source\LwIP\src\core/netif.c **** /**
 597:Source\LwIP\src\core/netif.c ****  * @ingroup netif
 598:Source\LwIP\src\core/netif.c ****  * Set a network interface as the default network interface
 599:Source\LwIP\src\core/netif.c ****  * (used to output all packets for which no specific route is found)
 600:Source\LwIP\src\core/netif.c ****  *
 601:Source\LwIP\src\core/netif.c ****  * @param netif the default network interface
ARM GAS  C:\Users\Phuong\AppData\Local\Temp\ccH1i8MP.s 			page 12


 602:Source\LwIP\src\core/netif.c ****  */
 603:Source\LwIP\src\core/netif.c **** void
 604:Source\LwIP\src\core/netif.c **** netif_set_default(struct netif *netif)
 605:Source\LwIP\src\core/netif.c **** {
 606:Source\LwIP\src\core/netif.c ****   if (netif == NULL) {
 607:Source\LwIP\src\core/netif.c ****     /* remove default route */
 608:Source\LwIP\src\core/netif.c ****     mib2_remove_route_ip4(1, netif);
 609:Source\LwIP\src\core/netif.c ****   } else {
 610:Source\LwIP\src\core/netif.c ****     /* install default route */
 611:Source\LwIP\src\core/netif.c ****     mib2_add_route_ip4(1, netif);
 612:Source\LwIP\src\core/netif.c ****   }
 613:Source\LwIP\src\core/netif.c ****   netif_default = netif;
 614:Source\LwIP\src\core/netif.c ****   LWIP_DEBUGF(NETIF_DEBUG, ("netif: setting default interface %c%c\n",
 615:Source\LwIP\src\core/netif.c ****            netif ? netif->name[0] : '\'', netif ? netif->name[1] : '\''));
 616:Source\LwIP\src\core/netif.c **** }
 617:Source\LwIP\src\core/netif.c **** 
 618:Source\LwIP\src\core/netif.c **** /**
 619:Source\LwIP\src\core/netif.c ****  * @ingroup netif
 620:Source\LwIP\src\core/netif.c ****  * Bring an interface up, available for processing
 621:Source\LwIP\src\core/netif.c ****  * traffic.
 622:Source\LwIP\src\core/netif.c ****  */
 623:Source\LwIP\src\core/netif.c **** void
 624:Source\LwIP\src\core/netif.c **** netif_set_up(struct netif *netif)
 625:Source\LwIP\src\core/netif.c **** {
 626:Source\LwIP\src\core/netif.c ****   if (!(netif->flags & NETIF_FLAG_UP)) {
 627:Source\LwIP\src\core/netif.c ****     netif->flags |= NETIF_FLAG_UP;
 628:Source\LwIP\src\core/netif.c **** 
 629:Source\LwIP\src\core/netif.c ****     MIB2_COPY_SYSUPTIME_TO(&netif->ts);
 630:Source\LwIP\src\core/netif.c **** 
 631:Source\LwIP\src\core/netif.c ****     NETIF_STATUS_CALLBACK(netif);
 632:Source\LwIP\src\core/netif.c **** 
 633:Source\LwIP\src\core/netif.c ****     if (netif->flags & NETIF_FLAG_LINK_UP) {
 634:Source\LwIP\src\core/netif.c ****       netif_issue_reports(netif, NETIF_REPORT_TYPE_IPV4|NETIF_REPORT_TYPE_IPV6);
 635:Source\LwIP\src\core/netif.c ****     }
 636:Source\LwIP\src\core/netif.c ****   }
 637:Source\LwIP\src\core/netif.c **** }
 638:Source\LwIP\src\core/netif.c **** 
 639:Source\LwIP\src\core/netif.c **** /** Send ARP/IGMP/MLD/RS events, e.g. on link-up/netif-up or addr-change
 640:Source\LwIP\src\core/netif.c ****  */
 641:Source\LwIP\src\core/netif.c **** static void
 642:Source\LwIP\src\core/netif.c **** netif_issue_reports(struct netif* netif, u8_t report_type)
 643:Source\LwIP\src\core/netif.c **** {
  27              		.loc 1 643 0
  28              		.cfi_startproc
  29              		@ args = 0, pretend = 0, frame = 0
  30              		@ frame_needed = 0, uses_anonymous_args = 0
  31              	.LVL0:
  32 0000 10B5     		push	{r4, lr}
  33              		.cfi_def_cfa_offset 8
  34              		.cfi_offset 4, -8
  35              		.cfi_offset 14, -4
  36 0002 0400     		movs	r4, r0
 644:Source\LwIP\src\core/netif.c **** #if LWIP_IPV4
 645:Source\LwIP\src\core/netif.c ****   if ((report_type & NETIF_REPORT_TYPE_IPV4) &&
  37              		.loc 1 645 0
  38 0004 CB07     		lsls	r3, r1, #31
  39 0006 10D5     		bpl	.L1
ARM GAS  C:\Users\Phuong\AppData\Local\Temp\ccH1i8MP.s 			page 13


  40              		.loc 1 645 0 is_stmt 0 discriminator 1
  41 0008 4368     		ldr	r3, [r0, #4]
  42 000a 002B     		cmp	r3, #0
  43 000c 0DD0     		beq	.L1
 646:Source\LwIP\src\core/netif.c ****       !ip4_addr_isany_val(*netif_ip4_addr(netif))) {
 647:Source\LwIP\src\core/netif.c **** #if LWIP_ARP
 648:Source\LwIP\src\core/netif.c ****     /* For Ethernet network interfaces, we would like to send a "gratuitous ARP" */
 649:Source\LwIP\src\core/netif.c ****     if (netif->flags & (NETIF_FLAG_ETHARP)) {
  44              		.loc 1 649 0 is_stmt 1
  45 000e 3D23     		movs	r3, #61
  46 0010 C35C     		ldrb	r3, [r0, r3]
  47 0012 1B07     		lsls	r3, r3, #28
  48 0014 02D5     		bpl	.L3
 650:Source\LwIP\src\core/netif.c ****       etharp_gratuitous(netif);
  49              		.loc 1 650 0
  50 0016 011D     		adds	r1, r0, #4
  51              	.LVL1:
  52 0018 FFF7FEFF 		bl	etharp_request
  53              	.LVL2:
  54              	.L3:
 651:Source\LwIP\src\core/netif.c ****     }
 652:Source\LwIP\src\core/netif.c **** #endif /* LWIP_ARP */
 653:Source\LwIP\src\core/netif.c **** 
 654:Source\LwIP\src\core/netif.c **** #if LWIP_IGMP
 655:Source\LwIP\src\core/netif.c ****     /* resend IGMP memberships */
 656:Source\LwIP\src\core/netif.c ****     if (netif->flags & NETIF_FLAG_IGMP) {
  55              		.loc 1 656 0
  56 001c 3D23     		movs	r3, #61
  57 001e E35C     		ldrb	r3, [r4, r3]
  58 0020 9B06     		lsls	r3, r3, #26
  59 0022 02D5     		bpl	.L1
 657:Source\LwIP\src\core/netif.c ****       igmp_report_groups(netif);
  60              		.loc 1 657 0
  61 0024 2000     		movs	r0, r4
  62 0026 FFF7FEFF 		bl	igmp_report_groups
  63              	.LVL3:
  64              	.L1:
 658:Source\LwIP\src\core/netif.c ****     }
 659:Source\LwIP\src\core/netif.c **** #endif /* LWIP_IGMP */
 660:Source\LwIP\src\core/netif.c ****   }
 661:Source\LwIP\src\core/netif.c **** #endif /* LWIP_IPV4 */
 662:Source\LwIP\src\core/netif.c **** 
 663:Source\LwIP\src\core/netif.c **** #if LWIP_IPV6
 664:Source\LwIP\src\core/netif.c ****   if (report_type & NETIF_REPORT_TYPE_IPV6) {
 665:Source\LwIP\src\core/netif.c **** #if LWIP_IPV6_MLD
 666:Source\LwIP\src\core/netif.c ****     /* send mld memberships */
 667:Source\LwIP\src\core/netif.c ****     mld6_report_groups(netif);
 668:Source\LwIP\src\core/netif.c **** #endif /* LWIP_IPV6_MLD */
 669:Source\LwIP\src\core/netif.c **** #if LWIP_IPV6_SEND_ROUTER_SOLICIT
 670:Source\LwIP\src\core/netif.c ****     /* Send Router Solicitation messages. */
 671:Source\LwIP\src\core/netif.c ****     netif->rs_count = LWIP_ND6_MAX_MULTICAST_SOLICIT;
 672:Source\LwIP\src\core/netif.c **** #endif /* LWIP_IPV6_SEND_ROUTER_SOLICIT */
 673:Source\LwIP\src\core/netif.c ****   }
 674:Source\LwIP\src\core/netif.c **** #endif /* LWIP_IPV6 */
 675:Source\LwIP\src\core/netif.c **** }
  65              		.loc 1 675 0
  66              		@ sp needed
ARM GAS  C:\Users\Phuong\AppData\Local\Temp\ccH1i8MP.s 			page 14


  67              	.LVL4:
  68 002a 10BD     		pop	{r4, pc}
  69              		.cfi_endproc
  70              	.LFE64:
  71              		.size	netif_issue_reports, .-netif_issue_reports
  72              		.section	.text.netif_init,"ax",%progbits
  73              		.align	2
  74              		.global	netif_init
  75              		.code	16
  76              		.thumb_func
  77              		.type	netif_init, %function
  78              	netif_init:
  79              	.LFB53:
 164:Source\LwIP\src\core/netif.c **** #if LWIP_HAVE_LOOPIF
  80              		.loc 1 164 0
  81              		.cfi_startproc
  82              		@ args = 0, pretend = 0, frame = 0
  83              		@ frame_needed = 0, uses_anonymous_args = 0
  84              		@ link register save eliminated.
 191:Source\LwIP\src\core/netif.c **** 
  85              		.loc 1 191 0
  86              		@ sp needed
  87 0000 7047     		bx	lr
  88              		.cfi_endproc
  89              	.LFE53:
  90              		.size	netif_init, .-netif_init
  91 0002 C046     		.section	.text.netif_input,"ax",%progbits
  92              		.align	2
  93              		.global	netif_input
  94              		.code	16
  95              		.thumb_func
  96              		.type	netif_input, %function
  97              	netif_input:
  98              	.LFB54:
 204:Source\LwIP\src\core/netif.c **** #if LWIP_ETHERNET
  99              		.loc 1 204 0
 100              		.cfi_startproc
 101              		@ args = 0, pretend = 0, frame = 0
 102              		@ frame_needed = 0, uses_anonymous_args = 0
 103              	.LVL5:
 104 0000 10B5     		push	{r4, lr}
 105              		.cfi_def_cfa_offset 8
 106              		.cfi_offset 4, -8
 107              		.cfi_offset 14, -4
 206:Source\LwIP\src\core/netif.c ****     return ethernet_input(p, inp);
 108              		.loc 1 206 0
 109 0002 3D23     		movs	r3, #61
 110 0004 CB5C     		ldrb	r3, [r1, r3]
 111 0006 1822     		movs	r2, #24
 112 0008 1A42     		tst	r2, r3
 113 000a 02D0     		beq	.L6
 207:Source\LwIP\src\core/netif.c ****   } else
 114              		.loc 1 207 0
 115 000c FFF7FEFF 		bl	ethernet_input
 116              	.LVL6:
 117 0010 01E0     		b	.L7
 118              	.LVL7:
ARM GAS  C:\Users\Phuong\AppData\Local\Temp\ccH1i8MP.s 			page 15


 119              	.L6:
 210:Source\LwIP\src\core/netif.c **** }
 120              		.loc 1 210 0
 121 0012 FFF7FEFF 		bl	ip4_input
 122              	.LVL8:
 123              	.L7:
 211:Source\LwIP\src\core/netif.c **** 
 124              		.loc 1 211 0
 125              		@ sp needed
 126 0016 10BD     		pop	{r4, pc}
 127              		.cfi_endproc
 128              	.LFE54:
 129              		.size	netif_input, .-netif_input
 130              		.section	.text.netif_find,"ax",%progbits
 131              		.align	2
 132              		.global	netif_find
 133              		.code	16
 134              		.thumb_func
 135              		.type	netif_find, %function
 136              	netif_find:
 137              	.LFB58:
 473:Source\LwIP\src\core/netif.c ****   struct netif *netif;
 138              		.loc 1 473 0
 139              		.cfi_startproc
 140              		@ args = 0, pretend = 0, frame = 0
 141              		@ frame_needed = 0, uses_anonymous_args = 0
 142              	.LVL9:
 143 0000 10B5     		push	{r4, lr}
 144              		.cfi_def_cfa_offset 8
 145              		.cfi_offset 4, -8
 146              		.cfi_offset 14, -4
 477:Source\LwIP\src\core/netif.c ****     return NULL;
 147              		.loc 1 477 0
 148 0002 0028     		cmp	r0, #0
 149 0004 18D0     		beq	.L13
 481:Source\LwIP\src\core/netif.c **** 
 150              		.loc 1 481 0
 151 0006 8178     		ldrb	r1, [r0, #2]
 152 0008 3039     		subs	r1, r1, #48
 153 000a C9B2     		uxtb	r1, r1
 154              	.LVL10:
 483:Source\LwIP\src\core/netif.c ****     if (num == netif->num &&
 155              		.loc 1 483 0
 156 000c 0C4B     		ldr	r3, .L15
 157 000e 1B68     		ldr	r3, [r3]
 158              	.LVL11:
 159 0010 0EE0     		b	.L10
 160              	.L12:
 484:Source\LwIP\src\core/netif.c ****        name[0] == netif->name[0] &&
 161              		.loc 1 484 0
 162 0012 4022     		movs	r2, #64
 163 0014 9A5C     		ldrb	r2, [r3, r2]
 164 0016 9142     		cmp	r1, r2
 165 0018 09D1     		bne	.L11
 485:Source\LwIP\src\core/netif.c ****        name[1] == netif->name[1]) {
 166              		.loc 1 485 0 discriminator 1
 167 001a 0478     		ldrb	r4, [r0]
ARM GAS  C:\Users\Phuong\AppData\Local\Temp\ccH1i8MP.s 			page 16


 168 001c 3E22     		movs	r2, #62
 169 001e 9A5C     		ldrb	r2, [r3, r2]
 484:Source\LwIP\src\core/netif.c ****        name[0] == netif->name[0] &&
 170              		.loc 1 484 0 discriminator 1
 171 0020 9442     		cmp	r4, r2
 172 0022 04D1     		bne	.L11
 486:Source\LwIP\src\core/netif.c ****       LWIP_DEBUGF(NETIF_DEBUG, ("netif_find: found %c%c\n", name[0], name[1]));
 173              		.loc 1 486 0
 174 0024 4478     		ldrb	r4, [r0, #1]
 175 0026 3F22     		movs	r2, #63
 176 0028 9A5C     		ldrb	r2, [r3, r2]
 485:Source\LwIP\src\core/netif.c ****        name[1] == netif->name[1]) {
 177              		.loc 1 485 0
 178 002a 9442     		cmp	r4, r2
 179 002c 06D0     		beq	.L14
 180              	.L11:
 483:Source\LwIP\src\core/netif.c ****     if (num == netif->num &&
 181              		.loc 1 483 0 discriminator 2
 182 002e 1B68     		ldr	r3, [r3]
 183              	.LVL12:
 184              	.L10:
 483:Source\LwIP\src\core/netif.c ****     if (num == netif->num &&
 185              		.loc 1 483 0 is_stmt 0 discriminator 1
 186 0030 002B     		cmp	r3, #0
 187 0032 EED1     		bne	.L12
 492:Source\LwIP\src\core/netif.c **** }
 188              		.loc 1 492 0 is_stmt 1
 189 0034 0020     		movs	r0, #0
 190              	.LVL13:
 191 0036 02E0     		b	.L9
 192              	.LVL14:
 193              	.L13:
 478:Source\LwIP\src\core/netif.c ****   }
 194              		.loc 1 478 0
 195 0038 0020     		movs	r0, #0
 196              	.LVL15:
 197 003a 00E0     		b	.L9
 198              	.LVL16:
 199              	.L14:
 488:Source\LwIP\src\core/netif.c ****     }
 200              		.loc 1 488 0
 201 003c 1800     		movs	r0, r3
 202              	.LVL17:
 203              	.L9:
 493:Source\LwIP\src\core/netif.c **** 
 204              		.loc 1 493 0
 205              		@ sp needed
 206 003e 10BD     		pop	{r4, pc}
 207              	.L16:
 208              		.align	2
 209              	.L15:
 210 0040 00000000 		.word	netif_list
 211              		.cfi_endproc
 212              	.LFE58:
 213              		.size	netif_find, .-netif_find
 214              		.section	.text.netif_set_ipaddr,"ax",%progbits
 215              		.align	2
ARM GAS  C:\Users\Phuong\AppData\Local\Temp\ccH1i8MP.s 			page 17


 216              		.global	netif_set_ipaddr
 217              		.code	16
 218              		.thumb_func
 219              		.type	netif_set_ipaddr, %function
 220              	netif_set_ipaddr:
 221              	.LFB59:
 508:Source\LwIP\src\core/netif.c ****   ip_addr_t new_addr;
 222              		.loc 1 508 0
 223              		.cfi_startproc
 224              		@ args = 0, pretend = 0, frame = 8
 225              		@ frame_needed = 0, uses_anonymous_args = 0
 226              	.LVL18:
 227 0000 70B5     		push	{r4, r5, r6, lr}
 228              		.cfi_def_cfa_offset 16
 229              		.cfi_offset 4, -16
 230              		.cfi_offset 5, -12
 231              		.cfi_offset 6, -8
 232              		.cfi_offset 14, -4
 233 0002 82B0     		sub	sp, sp, #8
 234              		.cfi_def_cfa_offset 24
 235 0004 0400     		movs	r4, r0
 236 0006 0D1E     		subs	r5, r1, #0
 510:Source\LwIP\src\core/netif.c ****   IP_SET_TYPE_VAL(new_addr, IPADDR_TYPE_V4);
 237              		.loc 1 510 0
 238 0008 02D0     		beq	.L18
 510:Source\LwIP\src\core/netif.c ****   IP_SET_TYPE_VAL(new_addr, IPADDR_TYPE_V4);
 239              		.loc 1 510 0 is_stmt 0 discriminator 1
 240 000a 0B68     		ldr	r3, [r1]
 241 000c 0193     		str	r3, [sp, #4]
 242 000e 02E0     		b	.L19
 243              	.L18:
 510:Source\LwIP\src\core/netif.c ****   IP_SET_TYPE_VAL(new_addr, IPADDR_TYPE_V4);
 244              		.loc 1 510 0 discriminator 2
 245 0010 124B     		ldr	r3, .L23
 246 0012 1B68     		ldr	r3, [r3]
 247 0014 0193     		str	r3, [sp, #4]
 248              	.L19:
 514:Source\LwIP\src\core/netif.c ****     LWIP_DEBUGF(NETIF_DEBUG | LWIP_DBG_STATE, ("netif_set_ipaddr: netif address being changed\n"));
 249              		.loc 1 514 0 is_stmt 1
 250 0016 019B     		ldr	r3, [sp, #4]
 251 0018 6268     		ldr	r2, [r4, #4]
 252 001a 9342     		cmp	r3, r2
 253 001c 1BD0     		beq	.L17
 517:Source\LwIP\src\core/netif.c **** #endif /* LWIP_TCP */
 254              		.loc 1 517 0
 255 001e 261D     		adds	r6, r4, #4
 256 0020 01A9     		add	r1, sp, #4
 257              	.LVL19:
 258 0022 3000     		movs	r0, r6
 259              	.LVL20:
 260 0024 FFF7FEFF 		bl	tcp_netif_ip_addr_changed
 261              	.LVL21:
 520:Source\LwIP\src\core/netif.c **** #endif /* LWIP_UDP */
 262              		.loc 1 520 0
 263 0028 01A9     		add	r1, sp, #4
 264 002a 3000     		movs	r0, r6
 265 002c FFF7FEFF 		bl	udp_netif_ip_addr_changed
ARM GAS  C:\Users\Phuong\AppData\Local\Temp\ccH1i8MP.s 			page 18


 266              	.LVL22:
 523:Source\LwIP\src\core/netif.c **** #endif /* LWIP_RAW */
 267              		.loc 1 523 0
 268 0030 01A9     		add	r1, sp, #4
 269 0032 3000     		movs	r0, r6
 270 0034 FFF7FEFF 		bl	raw_netif_ip_addr_changed
 271              	.LVL23:
 529:Source\LwIP\src\core/netif.c ****     IP_SET_TYPE_VAL(netif->ip_addr, IPADDR_TYPE_V4);
 272              		.loc 1 529 0
 273 0038 002D     		cmp	r5, #0
 274 003a 01D0     		beq	.L22
 529:Source\LwIP\src\core/netif.c ****     IP_SET_TYPE_VAL(netif->ip_addr, IPADDR_TYPE_V4);
 275              		.loc 1 529 0 is_stmt 0 discriminator 1
 276 003c 2B68     		ldr	r3, [r5]
 277 003e 00E0     		b	.L21
 278              	.L22:
 529:Source\LwIP\src\core/netif.c ****     IP_SET_TYPE_VAL(netif->ip_addr, IPADDR_TYPE_V4);
 279              		.loc 1 529 0
 280 0040 0023     		movs	r3, #0
 281              	.L21:
 529:Source\LwIP\src\core/netif.c ****     IP_SET_TYPE_VAL(netif->ip_addr, IPADDR_TYPE_V4);
 282              		.loc 1 529 0 discriminator 4
 283 0042 6360     		str	r3, [r4, #4]
 534:Source\LwIP\src\core/netif.c **** 
 284              		.loc 1 534 0 is_stmt 1 discriminator 4
 285 0044 0121     		movs	r1, #1
 286 0046 2000     		movs	r0, r4
 287 0048 FFF7FEFF 		bl	netif_issue_reports
 288              	.LVL24:
 536:Source\LwIP\src\core/netif.c ****   }
 289              		.loc 1 536 0 discriminator 4
 290 004c E369     		ldr	r3, [r4, #28]
 291 004e 002B     		cmp	r3, #0
 292 0050 01D0     		beq	.L17
 536:Source\LwIP\src\core/netif.c ****   }
 293              		.loc 1 536 0 is_stmt 0 discriminator 1
 294 0052 2000     		movs	r0, r4
 295 0054 9847     		blx	r3
 296              	.LVL25:
 297              	.L17:
 545:Source\LwIP\src\core/netif.c **** 
 298              		.loc 1 545 0 is_stmt 1
 299 0056 02B0     		add	sp, sp, #8
 300              		@ sp needed
 301              	.LVL26:
 302              	.LVL27:
 303 0058 70BD     		pop	{r4, r5, r6, pc}
 304              	.L24:
 305 005a C046     		.align	2
 306              	.L23:
 307 005c 00000000 		.word	ip_addr_any
 308              		.cfi_endproc
 309              	.LFE59:
 310              		.size	netif_set_ipaddr, .-netif_set_ipaddr
 311              		.section	.text.netif_set_gw,"ax",%progbits
 312              		.align	2
 313              		.global	netif_set_gw
ARM GAS  C:\Users\Phuong\AppData\Local\Temp\ccH1i8MP.s 			page 19


 314              		.code	16
 315              		.thumb_func
 316              		.type	netif_set_gw, %function
 317              	netif_set_gw:
 318              	.LFB60:
 558:Source\LwIP\src\core/netif.c ****   ip4_addr_set(ip_2_ip4(&netif->gw), gw);
 319              		.loc 1 558 0
 320              		.cfi_startproc
 321              		@ args = 0, pretend = 0, frame = 0
 322              		@ frame_needed = 0, uses_anonymous_args = 0
 323              		@ link register save eliminated.
 324              	.LVL28:
 559:Source\LwIP\src\core/netif.c ****   IP_SET_TYPE_VAL(netif->gw, IPADDR_TYPE_V4);
 325              		.loc 1 559 0
 326 0000 0029     		cmp	r1, #0
 327 0002 01D0     		beq	.L27
 559:Source\LwIP\src\core/netif.c ****   IP_SET_TYPE_VAL(netif->gw, IPADDR_TYPE_V4);
 328              		.loc 1 559 0 is_stmt 0 discriminator 1
 329 0004 0B68     		ldr	r3, [r1]
 330 0006 00E0     		b	.L26
 331              	.L27:
 559:Source\LwIP\src\core/netif.c ****   IP_SET_TYPE_VAL(netif->gw, IPADDR_TYPE_V4);
 332              		.loc 1 559 0
 333 0008 0023     		movs	r3, #0
 334              	.L26:
 559:Source\LwIP\src\core/netif.c ****   IP_SET_TYPE_VAL(netif->gw, IPADDR_TYPE_V4);
 335              		.loc 1 559 0 discriminator 4
 336 000a C360     		str	r3, [r0, #12]
 567:Source\LwIP\src\core/netif.c **** 
 337              		.loc 1 567 0 is_stmt 1 discriminator 4
 338              		@ sp needed
 339 000c 7047     		bx	lr
 340              		.cfi_endproc
 341              	.LFE60:
 342              		.size	netif_set_gw, .-netif_set_gw
 343 000e C046     		.section	.text.netif_set_netmask,"ax",%progbits
 344              		.align	2
 345              		.global	netif_set_netmask
 346              		.code	16
 347              		.thumb_func
 348              		.type	netif_set_netmask, %function
 349              	netif_set_netmask:
 350              	.LFB61:
 581:Source\LwIP\src\core/netif.c ****   mib2_remove_route_ip4(0, netif);
 351              		.loc 1 581 0
 352              		.cfi_startproc
 353              		@ args = 0, pretend = 0, frame = 0
 354              		@ frame_needed = 0, uses_anonymous_args = 0
 355              		@ link register save eliminated.
 356              	.LVL29:
 584:Source\LwIP\src\core/netif.c ****   IP_SET_TYPE_VAL(netif->netmask, IPADDR_TYPE_V4);
 357              		.loc 1 584 0
 358 0000 0029     		cmp	r1, #0
 359 0002 01D0     		beq	.L30
 584:Source\LwIP\src\core/netif.c ****   IP_SET_TYPE_VAL(netif->netmask, IPADDR_TYPE_V4);
 360              		.loc 1 584 0 is_stmt 0 discriminator 1
 361 0004 0B68     		ldr	r3, [r1]
ARM GAS  C:\Users\Phuong\AppData\Local\Temp\ccH1i8MP.s 			page 20


 362 0006 00E0     		b	.L29
 363              	.L30:
 584:Source\LwIP\src\core/netif.c ****   IP_SET_TYPE_VAL(netif->netmask, IPADDR_TYPE_V4);
 364              		.loc 1 584 0
 365 0008 0023     		movs	r3, #0
 366              	.L29:
 584:Source\LwIP\src\core/netif.c ****   IP_SET_TYPE_VAL(netif->netmask, IPADDR_TYPE_V4);
 367              		.loc 1 584 0 discriminator 4
 368 000a 8360     		str	r3, [r0, #8]
 593:Source\LwIP\src\core/netif.c **** #endif /* LWIP_IPV4 */
 369              		.loc 1 593 0 is_stmt 1 discriminator 4
 370              		@ sp needed
 371 000c 7047     		bx	lr
 372              		.cfi_endproc
 373              	.LFE61:
 374              		.size	netif_set_netmask, .-netif_set_netmask
 375 000e C046     		.section	.text.netif_set_addr,"ax",%progbits
 376              		.align	2
 377              		.global	netif_set_addr
 378              		.code	16
 379              		.thumb_func
 380              		.type	netif_set_addr, %function
 381              	netif_set_addr:
 382              	.LFB56:
 354:Source\LwIP\src\core/netif.c ****   if (ip4_addr_isany(ipaddr)) {
 383              		.loc 1 354 0
 384              		.cfi_startproc
 385              		@ args = 0, pretend = 0, frame = 0
 386              		@ frame_needed = 0, uses_anonymous_args = 0
 387              	.LVL30:
 388 0000 F8B5     		push	{r3, r4, r5, r6, r7, lr}
 389              		.cfi_def_cfa_offset 24
 390              		.cfi_offset 3, -24
 391              		.cfi_offset 4, -20
 392              		.cfi_offset 5, -16
 393              		.cfi_offset 6, -12
 394              		.cfi_offset 7, -8
 395              		.cfi_offset 14, -4
 396 0002 0400     		movs	r4, r0
 397 0004 0D00     		movs	r5, r1
 398 0006 1700     		movs	r7, r2
 399 0008 1E00     		movs	r6, r3
 355:Source\LwIP\src\core/netif.c ****     /* when removing an address, we have to remove it *before* changing netmask/gw
 400              		.loc 1 355 0
 401 000a 0029     		cmp	r1, #0
 402 000c 02D0     		beq	.L32
 355:Source\LwIP\src\core/netif.c ****     /* when removing an address, we have to remove it *before* changing netmask/gw
 403              		.loc 1 355 0 is_stmt 0 discriminator 1
 404 000e 0B68     		ldr	r3, [r1]
 405              	.LVL31:
 406 0010 002B     		cmp	r3, #0
 407 0012 0CD1     		bne	.L33
 408              	.L32:
 358:Source\LwIP\src\core/netif.c ****     netif_set_netmask(netif, netmask);
 409              		.loc 1 358 0 is_stmt 1
 410 0014 2900     		movs	r1, r5
 411              	.LVL32:
ARM GAS  C:\Users\Phuong\AppData\Local\Temp\ccH1i8MP.s 			page 21


 412 0016 2000     		movs	r0, r4
 413              	.LVL33:
 414 0018 FFF7FEFF 		bl	netif_set_ipaddr
 415              	.LVL34:
 359:Source\LwIP\src\core/netif.c ****     netif_set_gw(netif, gw);
 416              		.loc 1 359 0
 417 001c 3900     		movs	r1, r7
 418 001e 2000     		movs	r0, r4
 419 0020 FFF7FEFF 		bl	netif_set_netmask
 420              	.LVL35:
 360:Source\LwIP\src\core/netif.c ****   } else {
 421              		.loc 1 360 0
 422 0024 3100     		movs	r1, r6
 423 0026 2000     		movs	r0, r4
 424 0028 FFF7FEFF 		bl	netif_set_gw
 425              	.LVL36:
 426 002c 0AE0     		b	.L31
 427              	.LVL37:
 428              	.L33:
 362:Source\LwIP\src\core/netif.c ****     netif_set_gw(netif, gw);
 429              		.loc 1 362 0
 430 002e 1100     		movs	r1, r2
 431              	.LVL38:
 432 0030 FFF7FEFF 		bl	netif_set_netmask
 433              	.LVL39:
 363:Source\LwIP\src\core/netif.c ****     /* set ipaddr last to ensure netmask/gw have been set when status callback is called */
 434              		.loc 1 363 0
 435 0034 3100     		movs	r1, r6
 436 0036 2000     		movs	r0, r4
 437 0038 FFF7FEFF 		bl	netif_set_gw
 438              	.LVL40:
 365:Source\LwIP\src\core/netif.c ****   }
 439              		.loc 1 365 0
 440 003c 2900     		movs	r1, r5
 441 003e 2000     		movs	r0, r4
 442 0040 FFF7FEFF 		bl	netif_set_ipaddr
 443              	.LVL41:
 444              	.L31:
 367:Source\LwIP\src\core/netif.c **** #endif /* LWIP_IPV4*/
 445              		.loc 1 367 0
 446              		@ sp needed
 447              	.LVL42:
 448              	.LVL43:
 449              	.LVL44:
 450              	.LVL45:
 451 0044 F8BD     		pop	{r3, r4, r5, r6, r7, pc}
 452              		.cfi_endproc
 453              	.LFE56:
 454              		.size	netif_set_addr, .-netif_set_addr
 455 0046 C046     		.section	.text.netif_add,"ax",%progbits
 456              		.align	2
 457              		.global	netif_add
 458              		.code	16
 459              		.thumb_func
 460              		.type	netif_add, %function
 461              	netif_add:
 462              	.LFB55:
ARM GAS  C:\Users\Phuong\AppData\Local\Temp\ccH1i8MP.s 			page 22


 246:Source\LwIP\src\core/netif.c **** #if LWIP_IPV6
 463              		.loc 1 246 0
 464              		.cfi_startproc
 465              		@ args = 12, pretend = 0, frame = 8
 466              		@ frame_needed = 0, uses_anonymous_args = 0
 467              	.LVL46:
 468 0000 F0B5     		push	{r4, r5, r6, r7, lr}
 469              		.cfi_def_cfa_offset 20
 470              		.cfi_offset 4, -20
 471              		.cfi_offset 5, -16
 472              		.cfi_offset 6, -12
 473              		.cfi_offset 7, -8
 474              		.cfi_offset 14, -4
 475 0002 83B0     		sub	sp, sp, #12
 476              		.cfi_def_cfa_offset 32
 477 0004 0400     		movs	r4, r0
 478 0006 0191     		str	r1, [sp, #4]
 479 0008 1600     		movs	r6, r2
 480 000a 1F00     		movs	r7, r3
 255:Source\LwIP\src\core/netif.c ****   ip_addr_set_zero_ip4(&netif->netmask);
 481              		.loc 1 255 0
 482 000c 0025     		movs	r5, #0
 483 000e 4560     		str	r5, [r0, #4]
 256:Source\LwIP\src\core/netif.c ****   ip_addr_set_zero_ip4(&netif->gw);
 484              		.loc 1 256 0
 485 0010 8560     		str	r5, [r0, #8]
 257:Source\LwIP\src\core/netif.c **** #endif /* LWIP_IPV4 */
 486              		.loc 1 257 0
 487 0012 C560     		str	r5, [r0, #12]
 267:Source\LwIP\src\core/netif.c **** #ifdef netif_get_client_data
 488              		.loc 1 267 0
 489 0014 3D23     		movs	r3, #61
 490              	.LVL47:
 491 0016 C554     		strb	r5, [r0, r3]
 269:Source\LwIP\src\core/netif.c **** #endif /* LWIP_NUM_NETIF_CLIENT_DATA */
 492              		.loc 1 269 0
 493 0018 2430     		adds	r0, r0, #36
 494              	.LVL48:
 495 001a 0822     		movs	r2, #8
 496              	.LVL49:
 497 001c 0021     		movs	r1, #0
 498              	.LVL50:
 499 001e FFF7FEFF 		bl	memset
 500              	.LVL51:
 276:Source\LwIP\src\core/netif.c **** #endif /* LWIP_IPV6_SEND_ROUTER_SOLICIT */
 501              		.loc 1 276 0
 502 0022 0322     		movs	r2, #3
 503 0024 2C23     		movs	r3, #44
 504 0026 E254     		strb	r2, [r4, r3]
 279:Source\LwIP\src\core/netif.c **** #endif /* LWIP_NETIF_STATUS_CALLBACK */
 505              		.loc 1 279 0
 506 0028 E561     		str	r5, [r4, #28]
 285:Source\LwIP\src\core/netif.c **** #endif /* LWIP_IGMP */
 507              		.loc 1 285 0
 508 002a 6564     		str	r5, [r4, #68]
 296:Source\LwIP\src\core/netif.c ****   netif->num = netif_num++;
 509              		.loc 1 296 0
ARM GAS  C:\Users\Phuong\AppData\Local\Temp\ccH1i8MP.s 			page 23


 510 002c 089B     		ldr	r3, [sp, #32]
 511 002e 2362     		str	r3, [r4, #32]
 297:Source\LwIP\src\core/netif.c ****   netif->input = input;
 512              		.loc 1 297 0
 513 0030 124A     		ldr	r2, .L39
 514 0032 1378     		ldrb	r3, [r2]
 515 0034 591C     		adds	r1, r3, #1
 516 0036 1170     		strb	r1, [r2]
 517 0038 4022     		movs	r2, #64
 518 003a A354     		strb	r3, [r4, r2]
 298:Source\LwIP\src\core/netif.c **** 
 519              		.loc 1 298 0
 520 003c 0A9B     		ldr	r3, [sp, #40]
 521 003e 2361     		str	r3, [r4, #16]
 306:Source\LwIP\src\core/netif.c **** #endif /* LWIP_IPV4 */
 522              		.loc 1 306 0
 523 0040 3B00     		movs	r3, r7
 524 0042 3200     		movs	r2, r6
 525 0044 0199     		ldr	r1, [sp, #4]
 526 0046 2000     		movs	r0, r4
 527 0048 FFF7FEFF 		bl	netif_set_addr
 528              	.LVL52:
 310:Source\LwIP\src\core/netif.c ****     return NULL;
 529              		.loc 1 310 0
 530 004c 2000     		movs	r0, r4
 531 004e 099B     		ldr	r3, [sp, #36]
 532 0050 9847     		blx	r3
 533              	.LVL53:
 534 0052 0028     		cmp	r0, #0
 535 0054 0CD1     		bne	.L37
 315:Source\LwIP\src\core/netif.c ****   netif_list = netif;
 536              		.loc 1 315 0
 537 0056 0A4B     		ldr	r3, .L39+4
 538 0058 1A68     		ldr	r2, [r3]
 539 005a 2260     		str	r2, [r4]
 316:Source\LwIP\src\core/netif.c ****   mib2_netif_added(netif);
 540              		.loc 1 316 0
 541 005c 1C60     		str	r4, [r3]
 321:Source\LwIP\src\core/netif.c ****     igmp_start(netif);
 542              		.loc 1 321 0
 543 005e 3D23     		movs	r3, #61
 544 0060 E35C     		ldrb	r3, [r4, r3]
 545 0062 9B06     		lsls	r3, r3, #26
 546 0064 06D5     		bpl	.L38
 322:Source\LwIP\src\core/netif.c ****   }
 547              		.loc 1 322 0
 548 0066 2000     		movs	r0, r4
 549 0068 FFF7FEFF 		bl	igmp_start
 550              	.LVL54:
 337:Source\LwIP\src\core/netif.c **** }
 551              		.loc 1 337 0
 552 006c 2000     		movs	r0, r4
 553 006e 02E0     		b	.L36
 554              	.L37:
 311:Source\LwIP\src\core/netif.c ****   }
 555              		.loc 1 311 0
 556 0070 0020     		movs	r0, #0
ARM GAS  C:\Users\Phuong\AppData\Local\Temp\ccH1i8MP.s 			page 24


 557 0072 00E0     		b	.L36
 558              	.L38:
 337:Source\LwIP\src\core/netif.c **** }
 559              		.loc 1 337 0
 560 0074 2000     		movs	r0, r4
 561              	.L36:
 338:Source\LwIP\src\core/netif.c **** 
 562              		.loc 1 338 0
 563 0076 03B0     		add	sp, sp, #12
 564              		@ sp needed
 565              	.LVL55:
 566              	.LVL56:
 567              	.LVL57:
 568 0078 F0BD     		pop	{r4, r5, r6, r7, pc}
 569              	.L40:
 570 007a C046     		.align	2
 571              	.L39:
 572 007c 00000000 		.word	.LANCHOR0
 573 0080 00000000 		.word	netif_list
 574              		.cfi_endproc
 575              	.LFE55:
 576              		.size	netif_add, .-netif_add
 577              		.section	.text.netif_set_default,"ax",%progbits
 578              		.align	2
 579              		.global	netif_set_default
 580              		.code	16
 581              		.thumb_func
 582              		.type	netif_set_default, %function
 583              	netif_set_default:
 584              	.LFB62:
 605:Source\LwIP\src\core/netif.c ****   if (netif == NULL) {
 585              		.loc 1 605 0
 586              		.cfi_startproc
 587              		@ args = 0, pretend = 0, frame = 0
 588              		@ frame_needed = 0, uses_anonymous_args = 0
 589              		@ link register save eliminated.
 590              	.LVL58:
 613:Source\LwIP\src\core/netif.c ****   LWIP_DEBUGF(NETIF_DEBUG, ("netif: setting default interface %c%c\n",
 591              		.loc 1 613 0
 592 0000 014B     		ldr	r3, .L42
 593 0002 1860     		str	r0, [r3]
 616:Source\LwIP\src\core/netif.c **** 
 594              		.loc 1 616 0
 595              		@ sp needed
 596 0004 7047     		bx	lr
 597              	.L43:
 598 0006 C046     		.align	2
 599              	.L42:
 600 0008 00000000 		.word	netif_default
 601              		.cfi_endproc
 602              	.LFE62:
 603              		.size	netif_set_default, .-netif_set_default
 604              		.section	.text.netif_set_up,"ax",%progbits
 605              		.align	2
 606              		.global	netif_set_up
 607              		.code	16
 608              		.thumb_func
ARM GAS  C:\Users\Phuong\AppData\Local\Temp\ccH1i8MP.s 			page 25


 609              		.type	netif_set_up, %function
 610              	netif_set_up:
 611              	.LFB63:
 625:Source\LwIP\src\core/netif.c ****   if (!(netif->flags & NETIF_FLAG_UP)) {
 612              		.loc 1 625 0
 613              		.cfi_startproc
 614              		@ args = 0, pretend = 0, frame = 0
 615              		@ frame_needed = 0, uses_anonymous_args = 0
 616              	.LVL59:
 617 0000 10B5     		push	{r4, lr}
 618              		.cfi_def_cfa_offset 8
 619              		.cfi_offset 4, -8
 620              		.cfi_offset 14, -4
 621 0002 0400     		movs	r4, r0
 626:Source\LwIP\src\core/netif.c ****     netif->flags |= NETIF_FLAG_UP;
 622              		.loc 1 626 0
 623 0004 3D23     		movs	r3, #61
 624 0006 C35C     		ldrb	r3, [r0, r3]
 625 0008 DA07     		lsls	r2, r3, #31
 626 000a 0FD4     		bmi	.L44
 627:Source\LwIP\src\core/netif.c **** 
 627              		.loc 1 627 0
 628 000c 0122     		movs	r2, #1
 629 000e 1343     		orrs	r3, r2
 630 0010 3D22     		movs	r2, #61
 631 0012 8354     		strb	r3, [r0, r2]
 631:Source\LwIP\src\core/netif.c **** 
 632              		.loc 1 631 0
 633 0014 C369     		ldr	r3, [r0, #28]
 634 0016 002B     		cmp	r3, #0
 635 0018 00D0     		beq	.L46
 631:Source\LwIP\src\core/netif.c **** 
 636              		.loc 1 631 0 is_stmt 0 discriminator 1
 637 001a 9847     		blx	r3
 638              	.LVL60:
 639              	.L46:
 633:Source\LwIP\src\core/netif.c ****       netif_issue_reports(netif, NETIF_REPORT_TYPE_IPV4|NETIF_REPORT_TYPE_IPV6);
 640              		.loc 1 633 0 is_stmt 1
 641 001c 3D23     		movs	r3, #61
 642 001e E35C     		ldrb	r3, [r4, r3]
 643 0020 5B07     		lsls	r3, r3, #29
 644 0022 03D5     		bpl	.L44
 634:Source\LwIP\src\core/netif.c ****     }
 645              		.loc 1 634 0
 646 0024 0321     		movs	r1, #3
 647 0026 2000     		movs	r0, r4
 648 0028 FFF7FEFF 		bl	netif_issue_reports
 649              	.LVL61:
 650              	.L44:
 637:Source\LwIP\src\core/netif.c **** 
 651              		.loc 1 637 0
 652              		@ sp needed
 653              	.LVL62:
 654 002c 10BD     		pop	{r4, pc}
 655              		.cfi_endproc
 656              	.LFE63:
 657              		.size	netif_set_up, .-netif_set_up
ARM GAS  C:\Users\Phuong\AppData\Local\Temp\ccH1i8MP.s 			page 26


 658 002e C046     		.section	.text.netif_set_down,"ax",%progbits
 659              		.align	2
 660              		.global	netif_set_down
 661              		.code	16
 662              		.thumb_func
 663              		.type	netif_set_down, %function
 664              	netif_set_down:
 665              	.LFB65:
 676:Source\LwIP\src\core/netif.c **** 
 677:Source\LwIP\src\core/netif.c **** /**
 678:Source\LwIP\src\core/netif.c ****  * @ingroup netif
 679:Source\LwIP\src\core/netif.c ****  * Bring an interface down, disabling any traffic processing.
 680:Source\LwIP\src\core/netif.c ****  */
 681:Source\LwIP\src\core/netif.c **** void
 682:Source\LwIP\src\core/netif.c **** netif_set_down(struct netif *netif)
 683:Source\LwIP\src\core/netif.c **** {
 666              		.loc 1 683 0
 667              		.cfi_startproc
 668              		@ args = 0, pretend = 0, frame = 0
 669              		@ frame_needed = 0, uses_anonymous_args = 0
 670              	.LVL63:
 671 0000 10B5     		push	{r4, lr}
 672              		.cfi_def_cfa_offset 8
 673              		.cfi_offset 4, -8
 674              		.cfi_offset 14, -4
 675 0002 0400     		movs	r4, r0
 684:Source\LwIP\src\core/netif.c ****   if (netif->flags & NETIF_FLAG_UP) {
 676              		.loc 1 684 0
 677 0004 3D23     		movs	r3, #61
 678 0006 C35C     		ldrb	r3, [r0, r3]
 679 0008 DA07     		lsls	r2, r3, #31
 680 000a 0CD5     		bpl	.L47
 685:Source\LwIP\src\core/netif.c ****     netif->flags &= ~NETIF_FLAG_UP;
 681              		.loc 1 685 0
 682 000c 0122     		movs	r2, #1
 683 000e 9343     		bics	r3, r2
 684 0010 3C32     		adds	r2, r2, #60
 685 0012 8354     		strb	r3, [r0, r2]
 686:Source\LwIP\src\core/netif.c ****     MIB2_COPY_SYSUPTIME_TO(&netif->ts);
 687:Source\LwIP\src\core/netif.c **** 
 688:Source\LwIP\src\core/netif.c **** #if LWIP_IPV4 && LWIP_ARP
 689:Source\LwIP\src\core/netif.c ****     if (netif->flags & NETIF_FLAG_ETHARP) {
 686              		.loc 1 689 0
 687 0014 1B07     		lsls	r3, r3, #28
 688 0016 01D5     		bpl	.L49
 690:Source\LwIP\src\core/netif.c ****       etharp_cleanup_netif(netif);
 689              		.loc 1 690 0
 690 0018 FFF7FEFF 		bl	etharp_cleanup_netif
 691              	.LVL64:
 692              	.L49:
 691:Source\LwIP\src\core/netif.c ****     }
 692:Source\LwIP\src\core/netif.c **** #endif /* LWIP_IPV4 && LWIP_ARP */
 693:Source\LwIP\src\core/netif.c **** 
 694:Source\LwIP\src\core/netif.c **** #if LWIP_IPV6
 695:Source\LwIP\src\core/netif.c ****     nd6_cleanup_netif(netif);
 696:Source\LwIP\src\core/netif.c **** #endif /* LWIP_IPV6 */
 697:Source\LwIP\src\core/netif.c **** 
ARM GAS  C:\Users\Phuong\AppData\Local\Temp\ccH1i8MP.s 			page 27


 698:Source\LwIP\src\core/netif.c ****     NETIF_STATUS_CALLBACK(netif);
 693              		.loc 1 698 0
 694 001c E369     		ldr	r3, [r4, #28]
 695 001e 002B     		cmp	r3, #0
 696 0020 01D0     		beq	.L47
 697              		.loc 1 698 0 is_stmt 0 discriminator 1
 698 0022 2000     		movs	r0, r4
 699 0024 9847     		blx	r3
 700              	.LVL65:
 701              	.L47:
 699:Source\LwIP\src\core/netif.c ****   }
 700:Source\LwIP\src\core/netif.c **** }
 702              		.loc 1 700 0 is_stmt 1
 703              		@ sp needed
 704              	.LVL66:
 705 0026 10BD     		pop	{r4, pc}
 706              		.cfi_endproc
 707              	.LFE65:
 708              		.size	netif_set_down, .-netif_set_down
 709              		.section	.text.netif_remove,"ax",%progbits
 710              		.align	2
 711              		.global	netif_remove
 712              		.code	16
 713              		.thumb_func
 714              		.type	netif_remove, %function
 715              	netif_remove:
 716              	.LFB57:
 378:Source\LwIP\src\core/netif.c **** #if LWIP_IPV6
 717              		.loc 1 378 0
 718              		.cfi_startproc
 719              		@ args = 0, pretend = 0, frame = 0
 720              		@ frame_needed = 0, uses_anonymous_args = 0
 721              	.LVL67:
 722 0000 70B5     		push	{r4, r5, r6, lr}
 723              		.cfi_def_cfa_offset 16
 724              		.cfi_offset 4, -16
 725              		.cfi_offset 5, -12
 726              		.cfi_offset 6, -8
 727              		.cfi_offset 14, -4
 728 0002 041E     		subs	r4, r0, #0
 383:Source\LwIP\src\core/netif.c ****     return;
 729              		.loc 1 383 0
 730 0004 35D0     		beq	.L50
 388:Source\LwIP\src\core/netif.c **** #if LWIP_TCP
 731              		.loc 1 388 0
 732 0006 4368     		ldr	r3, [r0, #4]
 733 0008 002B     		cmp	r3, #0
 734 000a 0CD0     		beq	.L52
 390:Source\LwIP\src\core/netif.c **** #endif /* LWIP_TCP */
 735              		.loc 1 390 0
 736 000c 051D     		adds	r5, r0, #4
 737 000e 0021     		movs	r1, #0
 738 0010 2800     		movs	r0, r5
 739              	.LVL68:
 740 0012 FFF7FEFF 		bl	tcp_netif_ip_addr_changed
 741              	.LVL69:
 393:Source\LwIP\src\core/netif.c **** #endif /* LWIP_UDP */
ARM GAS  C:\Users\Phuong\AppData\Local\Temp\ccH1i8MP.s 			page 28


 742              		.loc 1 393 0
 743 0016 0021     		movs	r1, #0
 744 0018 2800     		movs	r0, r5
 745 001a FFF7FEFF 		bl	udp_netif_ip_addr_changed
 746              	.LVL70:
 396:Source\LwIP\src\core/netif.c **** #endif /* LWIP_RAW */
 747              		.loc 1 396 0
 748 001e 0021     		movs	r1, #0
 749 0020 2800     		movs	r0, r5
 750 0022 FFF7FEFF 		bl	raw_netif_ip_addr_changed
 751              	.LVL71:
 752              	.L52:
 402:Source\LwIP\src\core/netif.c ****     igmp_stop(netif);
 753              		.loc 1 402 0
 754 0026 3D23     		movs	r3, #61
 755 0028 E35C     		ldrb	r3, [r4, r3]
 756 002a 9B06     		lsls	r3, r3, #26
 757 002c 02D5     		bpl	.L53
 403:Source\LwIP\src\core/netif.c ****   }
 758              		.loc 1 403 0
 759 002e 2000     		movs	r0, r4
 760 0030 FFF7FEFF 		bl	igmp_stop
 761              	.LVL72:
 762              	.L53:
 427:Source\LwIP\src\core/netif.c ****     /* set netif down before removing (call callback function) */
 763              		.loc 1 427 0
 764 0034 3D23     		movs	r3, #61
 765 0036 E35C     		ldrb	r3, [r4, r3]
 766 0038 DB07     		lsls	r3, r3, #31
 767 003a 02D5     		bpl	.L54
 429:Source\LwIP\src\core/netif.c ****   }
 768              		.loc 1 429 0
 769 003c 2000     		movs	r0, r4
 770 003e FFF7FEFF 		bl	netif_set_down
 771              	.LVL73:
 772              	.L54:
 435:Source\LwIP\src\core/netif.c ****     /* reset default netif */
 773              		.loc 1 435 0
 774 0042 0C4B     		ldr	r3, .L59
 775 0044 1B68     		ldr	r3, [r3]
 776 0046 9C42     		cmp	r4, r3
 777 0048 02D1     		bne	.L55
 437:Source\LwIP\src\core/netif.c ****   }
 778              		.loc 1 437 0
 779 004a 0020     		movs	r0, #0
 780 004c FFF7FEFF 		bl	netif_set_default
 781              	.LVL74:
 782              	.L55:
 440:Source\LwIP\src\core/netif.c ****     netif_list = netif->next;
 783              		.loc 1 440 0
 784 0050 094B     		ldr	r3, .L59+4
 785 0052 1B68     		ldr	r3, [r3]
 786 0054 9C42     		cmp	r4, r3
 787 0056 0AD1     		bne	.L56
 441:Source\LwIP\src\core/netif.c ****   } else {
 788              		.loc 1 441 0
 789 0058 2268     		ldr	r2, [r4]
ARM GAS  C:\Users\Phuong\AppData\Local\Temp\ccH1i8MP.s 			page 29


 790 005a 074B     		ldr	r3, .L59+4
 791 005c 1A60     		str	r2, [r3]
 792 005e 08E0     		b	.L50
 793              	.LVL75:
 794              	.L57:
 795              	.LBB2:
 446:Source\LwIP\src\core/netif.c ****         tmp_netif->next = netif->next;
 796              		.loc 1 446 0
 797 0060 1A68     		ldr	r2, [r3]
 798 0062 9442     		cmp	r4, r2
 799 0064 02D1     		bne	.L58
 447:Source\LwIP\src\core/netif.c ****         break;
 800              		.loc 1 447 0
 801 0066 2268     		ldr	r2, [r4]
 802 0068 1A60     		str	r2, [r3]
 448:Source\LwIP\src\core/netif.c ****       }
 803              		.loc 1 448 0
 804 006a 02E0     		b	.L50
 805              	.L58:
 445:Source\LwIP\src\core/netif.c ****       if (tmp_netif->next == netif) {
 806              		.loc 1 445 0
 807 006c 1300     		movs	r3, r2
 808              	.LVL76:
 809              	.L56:
 445:Source\LwIP\src\core/netif.c ****       if (tmp_netif->next == netif) {
 810              		.loc 1 445 0 is_stmt 0 discriminator 1
 811 006e 002B     		cmp	r3, #0
 812 0070 F6D1     		bne	.L57
 813              	.LVL77:
 814              	.L50:
 815              	.LBE2:
 462:Source\LwIP\src\core/netif.c **** 
 816              		.loc 1 462 0 is_stmt 1
 817              		@ sp needed
 818              	.LVL78:
 819 0072 70BD     		pop	{r4, r5, r6, pc}
 820              	.L60:
 821              		.align	2
 822              	.L59:
 823 0074 00000000 		.word	netif_default
 824 0078 00000000 		.word	netif_list
 825              		.cfi_endproc
 826              	.LFE57:
 827              		.size	netif_remove, .-netif_remove
 828              		.section	.text.netif_set_status_callback,"ax",%progbits
 829              		.align	2
 830              		.global	netif_set_status_callback
 831              		.code	16
 832              		.thumb_func
 833              		.type	netif_set_status_callback, %function
 834              	netif_set_status_callback:
 835              	.LFB66:
 701:Source\LwIP\src\core/netif.c **** 
 702:Source\LwIP\src\core/netif.c **** #if LWIP_NETIF_STATUS_CALLBACK
 703:Source\LwIP\src\core/netif.c **** /**
 704:Source\LwIP\src\core/netif.c ****  * @ingroup netif
 705:Source\LwIP\src\core/netif.c ****  * Set callback to be called when interface is brought up/down or address is changed while up
ARM GAS  C:\Users\Phuong\AppData\Local\Temp\ccH1i8MP.s 			page 30


 706:Source\LwIP\src\core/netif.c ****  */
 707:Source\LwIP\src\core/netif.c **** void
 708:Source\LwIP\src\core/netif.c **** netif_set_status_callback(struct netif *netif, netif_status_callback_fn status_callback)
 709:Source\LwIP\src\core/netif.c **** {
 836              		.loc 1 709 0
 837              		.cfi_startproc
 838              		@ args = 0, pretend = 0, frame = 0
 839              		@ frame_needed = 0, uses_anonymous_args = 0
 840              		@ link register save eliminated.
 841              	.LVL79:
 710:Source\LwIP\src\core/netif.c ****   if (netif) {
 842              		.loc 1 710 0
 843 0000 0028     		cmp	r0, #0
 844 0002 00D0     		beq	.L61
 711:Source\LwIP\src\core/netif.c ****     netif->status_callback = status_callback;
 845              		.loc 1 711 0
 846 0004 C161     		str	r1, [r0, #28]
 847              	.L61:
 712:Source\LwIP\src\core/netif.c ****   }
 713:Source\LwIP\src\core/netif.c **** }
 848              		.loc 1 713 0
 849              		@ sp needed
 850 0006 7047     		bx	lr
 851              		.cfi_endproc
 852              	.LFE66:
 853              		.size	netif_set_status_callback, .-netif_set_status_callback
 854              		.section	.text.netif_set_link_up,"ax",%progbits
 855              		.align	2
 856              		.global	netif_set_link_up
 857              		.code	16
 858              		.thumb_func
 859              		.type	netif_set_link_up, %function
 860              	netif_set_link_up:
 861              	.LFB67:
 714:Source\LwIP\src\core/netif.c **** #endif /* LWIP_NETIF_STATUS_CALLBACK */
 715:Source\LwIP\src\core/netif.c **** 
 716:Source\LwIP\src\core/netif.c **** #if LWIP_NETIF_REMOVE_CALLBACK
 717:Source\LwIP\src\core/netif.c **** /**
 718:Source\LwIP\src\core/netif.c ****  * @ingroup netif
 719:Source\LwIP\src\core/netif.c ****  * Set callback to be called when the interface has been removed
 720:Source\LwIP\src\core/netif.c ****  */
 721:Source\LwIP\src\core/netif.c **** void
 722:Source\LwIP\src\core/netif.c **** netif_set_remove_callback(struct netif *netif, netif_status_callback_fn remove_callback)
 723:Source\LwIP\src\core/netif.c **** {
 724:Source\LwIP\src\core/netif.c ****   if (netif) {
 725:Source\LwIP\src\core/netif.c ****     netif->remove_callback = remove_callback;
 726:Source\LwIP\src\core/netif.c ****   }
 727:Source\LwIP\src\core/netif.c **** }
 728:Source\LwIP\src\core/netif.c **** #endif /* LWIP_NETIF_REMOVE_CALLBACK */
 729:Source\LwIP\src\core/netif.c **** 
 730:Source\LwIP\src\core/netif.c **** /**
 731:Source\LwIP\src\core/netif.c ****  * @ingroup netif
 732:Source\LwIP\src\core/netif.c ****  * Called by a driver when its link goes up
 733:Source\LwIP\src\core/netif.c ****  */
 734:Source\LwIP\src\core/netif.c **** void
 735:Source\LwIP\src\core/netif.c **** netif_set_link_up(struct netif *netif)
 736:Source\LwIP\src\core/netif.c **** {
ARM GAS  C:\Users\Phuong\AppData\Local\Temp\ccH1i8MP.s 			page 31


 862              		.loc 1 736 0
 863              		.cfi_startproc
 864              		@ args = 0, pretend = 0, frame = 0
 865              		@ frame_needed = 0, uses_anonymous_args = 0
 866              	.LVL80:
 867 0000 70B5     		push	{r4, r5, r6, lr}
 868              		.cfi_def_cfa_offset 16
 869              		.cfi_offset 4, -16
 870              		.cfi_offset 5, -12
 871              		.cfi_offset 6, -8
 872              		.cfi_offset 14, -4
 873 0002 0400     		movs	r4, r0
 737:Source\LwIP\src\core/netif.c ****   if (!(netif->flags & NETIF_FLAG_LINK_UP)) {
 874              		.loc 1 737 0
 875 0004 3D23     		movs	r3, #61
 876 0006 C35C     		ldrb	r3, [r0, r3]
 877 0008 5A07     		lsls	r2, r3, #29
 878 000a 0CD4     		bmi	.L63
 738:Source\LwIP\src\core/netif.c ****     netif->flags |= NETIF_FLAG_LINK_UP;
 879              		.loc 1 738 0
 880 000c 0422     		movs	r2, #4
 881 000e 1343     		orrs	r3, r2
 882 0010 3D25     		movs	r5, #61
 883 0012 4355     		strb	r3, [r0, r5]
 739:Source\LwIP\src\core/netif.c **** 
 740:Source\LwIP\src\core/netif.c **** #if LWIP_DHCP
 741:Source\LwIP\src\core/netif.c ****     dhcp_network_changed(netif);
 884              		.loc 1 741 0
 885 0014 FFF7FEFF 		bl	dhcp_network_changed
 886              	.LVL81:
 742:Source\LwIP\src\core/netif.c **** #endif /* LWIP_DHCP */
 743:Source\LwIP\src\core/netif.c **** 
 744:Source\LwIP\src\core/netif.c **** #if LWIP_AUTOIP
 745:Source\LwIP\src\core/netif.c ****     autoip_network_changed(netif);
 746:Source\LwIP\src\core/netif.c **** #endif /* LWIP_AUTOIP */
 747:Source\LwIP\src\core/netif.c **** 
 748:Source\LwIP\src\core/netif.c ****     if (netif->flags & NETIF_FLAG_UP) {
 887              		.loc 1 748 0
 888 0018 635D     		ldrb	r3, [r4, r5]
 889 001a DB07     		lsls	r3, r3, #31
 890 001c 03D5     		bpl	.L63
 749:Source\LwIP\src\core/netif.c ****       netif_issue_reports(netif, NETIF_REPORT_TYPE_IPV4|NETIF_REPORT_TYPE_IPV6);
 891              		.loc 1 749 0
 892 001e 0321     		movs	r1, #3
 893 0020 2000     		movs	r0, r4
 894 0022 FFF7FEFF 		bl	netif_issue_reports
 895              	.LVL82:
 896              	.L63:
 750:Source\LwIP\src\core/netif.c ****     }
 751:Source\LwIP\src\core/netif.c ****     NETIF_LINK_CALLBACK(netif);
 752:Source\LwIP\src\core/netif.c ****   }
 753:Source\LwIP\src\core/netif.c **** }
 897              		.loc 1 753 0
 898              		@ sp needed
 899              	.LVL83:
 900 0026 70BD     		pop	{r4, r5, r6, pc}
 901              		.cfi_endproc
ARM GAS  C:\Users\Phuong\AppData\Local\Temp\ccH1i8MP.s 			page 32


 902              	.LFE67:
 903              		.size	netif_set_link_up, .-netif_set_link_up
 904              		.section	.text.netif_set_link_down,"ax",%progbits
 905              		.align	2
 906              		.global	netif_set_link_down
 907              		.code	16
 908              		.thumb_func
 909              		.type	netif_set_link_down, %function
 910              	netif_set_link_down:
 911              	.LFB68:
 754:Source\LwIP\src\core/netif.c **** 
 755:Source\LwIP\src\core/netif.c **** /**
 756:Source\LwIP\src\core/netif.c ****  * @ingroup netif
 757:Source\LwIP\src\core/netif.c ****  * Called by a driver when its link goes down
 758:Source\LwIP\src\core/netif.c ****  */
 759:Source\LwIP\src\core/netif.c **** void
 760:Source\LwIP\src\core/netif.c **** netif_set_link_down(struct netif *netif )
 761:Source\LwIP\src\core/netif.c **** {
 912              		.loc 1 761 0
 913              		.cfi_startproc
 914              		@ args = 0, pretend = 0, frame = 0
 915              		@ frame_needed = 0, uses_anonymous_args = 0
 916              		@ link register save eliminated.
 917              	.LVL84:
 762:Source\LwIP\src\core/netif.c ****   if (netif->flags & NETIF_FLAG_LINK_UP) {
 918              		.loc 1 762 0
 919 0000 3D23     		movs	r3, #61
 920 0002 C35C     		ldrb	r3, [r0, r3]
 921 0004 5A07     		lsls	r2, r3, #29
 922 0006 03D5     		bpl	.L65
 763:Source\LwIP\src\core/netif.c ****     netif->flags &= ~NETIF_FLAG_LINK_UP;
 923              		.loc 1 763 0
 924 0008 0422     		movs	r2, #4
 925 000a 9343     		bics	r3, r2
 926 000c 3932     		adds	r2, r2, #57
 927 000e 8354     		strb	r3, [r0, r2]
 928              	.L65:
 764:Source\LwIP\src\core/netif.c ****     NETIF_LINK_CALLBACK(netif);
 765:Source\LwIP\src\core/netif.c ****   }
 766:Source\LwIP\src\core/netif.c **** }
 929              		.loc 1 766 0
 930              		@ sp needed
 931 0010 7047     		bx	lr
 932              		.cfi_endproc
 933              	.LFE68:
 934              		.size	netif_set_link_down, .-netif_set_link_down
 935              		.comm	netif_default,4,4
 936              		.comm	netif_list,4,4
 937 0012 C046     		.bss
 938              		.set	.LANCHOR0,. + 0
 939              		.type	netif_num, %object
 940              		.size	netif_num, 1
 941              	netif_num:
 942 0000 00       		.space	1
 943              		.text
 944              	.Letext0:
 945              		.file 2 "c:\\program files (x86)\\cypress\\psoc creator\\4.2\\psoc creator\\import\\gnu\\arm\\5.4.
ARM GAS  C:\Users\Phuong\AppData\Local\Temp\ccH1i8MP.s 			page 33


 946              		.file 3 "c:\\program files (x86)\\cypress\\psoc creator\\4.2\\psoc creator\\import\\gnu\\arm\\5.4.
 947              		.file 4 ".\\Source\\LwIP\\src\\include/arch/cc.h"
 948              		.file 5 ".\\Source\\LwIP\\src\\include/lwip/ip4_addr.h"
 949              		.file 6 ".\\Source\\LwIP\\src\\include/lwip/ip_addr.h"
 950              		.file 7 ".\\Source\\LwIP\\src\\include/lwip/err.h"
 951              		.file 8 ".\\Source\\LwIP\\src\\include/lwip/pbuf.h"
 952              		.file 9 ".\\Source\\LwIP\\src\\include/lwip/memp.h"
 953              		.file 10 ".\\Source\\LwIP\\src\\include/lwip/netif.h"
 954              		.file 11 ".\\Source\\LwIP\\src\\include/lwip/etharp.h"
 955              		.file 12 ".\\Source\\LwIP\\src\\include/lwip/igmp.h"
 956              		.file 13 ".\\Source\\LwIP\\src\\include/netif/ethernet.h"
 957              		.file 14 ".\\Source\\LwIP\\src\\include/lwip/ip4.h"
 958              		.file 15 ".\\Source\\LwIP\\src\\include/lwip/priv/tcp_priv.h"
 959              		.file 16 ".\\Source\\LwIP\\src\\include/lwip/udp.h"
 960              		.file 17 ".\\Source\\LwIP\\src\\include/lwip/raw.h"
 961              		.file 18 ".\\Source\\LwIP\\src\\include/lwip/dhcp.h"