ARM GAS  C:\Users\Phuong\AppData\Local\Temp\ccOpmuD8.s 			page 1


   1              		.syntax unified
   2              		.cpu cortex-m0plus
   3              		.fpu softvfp
   4              		.eabi_attribute 20, 1
   5              		.eabi_attribute 21, 1
   6              		.eabi_attribute 23, 3
   7              		.eabi_attribute 24, 1
   8              		.eabi_attribute 25, 1
   9              		.eabi_attribute 26, 1
  10              		.eabi_attribute 30, 1
  11              		.eabi_attribute 34, 0
  12              		.eabi_attribute 18, 4
  13              		.thumb
  14              		.syntax unified
  15              		.file	"oid.c"
  16              		.text
  17              	.Ltext0:
  18              		.cfi_sections	.debug_frame
  19              		.section	.text.oid_x520_attr_from_asn1,"ax",%progbits
  20              		.align	2
  21              		.code	16
  22              		.thumb_func
  23              		.type	oid_x520_attr_from_asn1, %function
  24              	oid_x520_attr_from_asn1:
  25              	.LFB11:
  26              		.file 1 "Source\\mbedtls_open\\library\\oid.c"
   1:Source\mbedtls_open\library/oid.c **** /**
   2:Source\mbedtls_open\library/oid.c ****  * \file oid.c
   3:Source\mbedtls_open\library/oid.c ****  *
   4:Source\mbedtls_open\library/oid.c ****  * \brief Object Identifier (OID) database
   5:Source\mbedtls_open\library/oid.c ****  *
   6:Source\mbedtls_open\library/oid.c ****  *  Copyright (C) 2006-2015, ARM Limited, All Rights Reserved
   7:Source\mbedtls_open\library/oid.c ****  *  SPDX-License-Identifier: Apache-2.0
   8:Source\mbedtls_open\library/oid.c ****  *
   9:Source\mbedtls_open\library/oid.c ****  *  Licensed under the Apache License, Version 2.0 (the "License"); you may
  10:Source\mbedtls_open\library/oid.c ****  *  not use this file except in compliance with the License.
  11:Source\mbedtls_open\library/oid.c ****  *  You may obtain a copy of the License at
  12:Source\mbedtls_open\library/oid.c ****  *
  13:Source\mbedtls_open\library/oid.c ****  *  http://www.apache.org/licenses/LICENSE-2.0
  14:Source\mbedtls_open\library/oid.c ****  *
  15:Source\mbedtls_open\library/oid.c ****  *  Unless required by applicable law or agreed to in writing, software
  16:Source\mbedtls_open\library/oid.c ****  *  distributed under the License is distributed on an "AS IS" BASIS, WITHOUT
  17:Source\mbedtls_open\library/oid.c ****  *  WARRANTIES OR CONDITIONS OF ANY KIND, either express or implied.
  18:Source\mbedtls_open\library/oid.c ****  *  See the License for the specific language governing permissions and
  19:Source\mbedtls_open\library/oid.c ****  *  limitations under the License.
  20:Source\mbedtls_open\library/oid.c ****  *
  21:Source\mbedtls_open\library/oid.c ****  *  This file is part of mbed TLS (https://tls.mbed.org)
  22:Source\mbedtls_open\library/oid.c ****  */
  23:Source\mbedtls_open\library/oid.c **** 
  24:Source\mbedtls_open\library/oid.c **** #if !defined(MBEDTLS_CONFIG_FILE)
  25:Source\mbedtls_open\library/oid.c **** #include "mbedtls/config.h"
  26:Source\mbedtls_open\library/oid.c **** #else
  27:Source\mbedtls_open\library/oid.c **** #include MBEDTLS_CONFIG_FILE
  28:Source\mbedtls_open\library/oid.c **** #endif
  29:Source\mbedtls_open\library/oid.c **** 
  30:Source\mbedtls_open\library/oid.c **** #if defined(MBEDTLS_OID_C)
  31:Source\mbedtls_open\library/oid.c **** 
ARM GAS  C:\Users\Phuong\AppData\Local\Temp\ccOpmuD8.s 			page 2


  32:Source\mbedtls_open\library/oid.c **** #include "mbedtls/oid.h"
  33:Source\mbedtls_open\library/oid.c **** #include "mbedtls/rsa.h"
  34:Source\mbedtls_open\library/oid.c **** 
  35:Source\mbedtls_open\library/oid.c **** #include <stdio.h>
  36:Source\mbedtls_open\library/oid.c **** #include <string.h>
  37:Source\mbedtls_open\library/oid.c **** 
  38:Source\mbedtls_open\library/oid.c **** #if defined(MBEDTLS_PLATFORM_C)
  39:Source\mbedtls_open\library/oid.c **** #include "mbedtls/platform.h"
  40:Source\mbedtls_open\library/oid.c **** #else
  41:Source\mbedtls_open\library/oid.c **** #define mbedtls_snprintf snprintf
  42:Source\mbedtls_open\library/oid.c **** #endif
  43:Source\mbedtls_open\library/oid.c **** 
  44:Source\mbedtls_open\library/oid.c **** #if defined(MBEDTLS_X509_USE_C) || defined(MBEDTLS_X509_CREATE_C)
  45:Source\mbedtls_open\library/oid.c **** #include "mbedtls/x509.h"
  46:Source\mbedtls_open\library/oid.c **** #endif
  47:Source\mbedtls_open\library/oid.c **** 
  48:Source\mbedtls_open\library/oid.c **** /*
  49:Source\mbedtls_open\library/oid.c ****  * Macro to automatically add the size of #define'd OIDs
  50:Source\mbedtls_open\library/oid.c ****  */
  51:Source\mbedtls_open\library/oid.c **** #define ADD_LEN(s)      s, MBEDTLS_OID_SIZE(s)
  52:Source\mbedtls_open\library/oid.c **** 
  53:Source\mbedtls_open\library/oid.c **** /*
  54:Source\mbedtls_open\library/oid.c ****  * Macro to generate an internal function for oid_XXX_from_asn1() (used by
  55:Source\mbedtls_open\library/oid.c ****  * the other functions)
  56:Source\mbedtls_open\library/oid.c ****  */
  57:Source\mbedtls_open\library/oid.c **** #define FN_OID_TYPED_FROM_ASN1( TYPE_T, NAME, LIST )                        \
  58:Source\mbedtls_open\library/oid.c **** static const TYPE_T * oid_ ## NAME ## _from_asn1( const mbedtls_asn1_buf *oid )     \
  59:Source\mbedtls_open\library/oid.c **** {                                                                           \
  60:Source\mbedtls_open\library/oid.c ****     const TYPE_T *p = LIST;                                                 \
  61:Source\mbedtls_open\library/oid.c ****     const mbedtls_oid_descriptor_t *cur = (const mbedtls_oid_descriptor_t *) p;             \
  62:Source\mbedtls_open\library/oid.c ****     if( p == NULL || oid == NULL ) return( NULL );                          \
  63:Source\mbedtls_open\library/oid.c ****     while( cur->asn1 != NULL ) {                                            \
  64:Source\mbedtls_open\library/oid.c ****         if( cur->asn1_len == oid->len &&                                    \
  65:Source\mbedtls_open\library/oid.c ****             memcmp( cur->asn1, oid->p, oid->len ) == 0 ) {                  \
  66:Source\mbedtls_open\library/oid.c ****             return( p );                                                    \
  67:Source\mbedtls_open\library/oid.c ****         }                                                                   \
  68:Source\mbedtls_open\library/oid.c ****         p++;                                                                \
  69:Source\mbedtls_open\library/oid.c ****         cur = (const mbedtls_oid_descriptor_t *) p;                                 \
  70:Source\mbedtls_open\library/oid.c ****     }                                                                       \
  71:Source\mbedtls_open\library/oid.c ****     return( NULL );                                                         \
  72:Source\mbedtls_open\library/oid.c **** }
  73:Source\mbedtls_open\library/oid.c **** 
  74:Source\mbedtls_open\library/oid.c **** /*
  75:Source\mbedtls_open\library/oid.c ****  * Macro to generate a function for retrieving a single attribute from the
  76:Source\mbedtls_open\library/oid.c ****  * descriptor of an mbedtls_oid_descriptor_t wrapper.
  77:Source\mbedtls_open\library/oid.c ****  */
  78:Source\mbedtls_open\library/oid.c **** #define FN_OID_GET_DESCRIPTOR_ATTR1(FN_NAME, TYPE_T, TYPE_NAME, ATTR1_TYPE, ATTR1) \
  79:Source\mbedtls_open\library/oid.c **** int FN_NAME( const mbedtls_asn1_buf *oid, ATTR1_TYPE * ATTR1 )                  \
  80:Source\mbedtls_open\library/oid.c **** {                                                                       \
  81:Source\mbedtls_open\library/oid.c ****     const TYPE_T *data = oid_ ## TYPE_NAME ## _from_asn1( oid );        \
  82:Source\mbedtls_open\library/oid.c ****     if( data == NULL ) return( MBEDTLS_ERR_OID_NOT_FOUND );            \
  83:Source\mbedtls_open\library/oid.c ****     *ATTR1 = data->descriptor.ATTR1;                                    \
  84:Source\mbedtls_open\library/oid.c ****     return( 0 );                                                        \
  85:Source\mbedtls_open\library/oid.c **** }
  86:Source\mbedtls_open\library/oid.c **** 
  87:Source\mbedtls_open\library/oid.c **** /*
  88:Source\mbedtls_open\library/oid.c ****  * Macro to generate a function for retrieving a single attribute from an
ARM GAS  C:\Users\Phuong\AppData\Local\Temp\ccOpmuD8.s 			page 3


  89:Source\mbedtls_open\library/oid.c ****  * mbedtls_oid_descriptor_t wrapper.
  90:Source\mbedtls_open\library/oid.c ****  */
  91:Source\mbedtls_open\library/oid.c **** #define FN_OID_GET_ATTR1(FN_NAME, TYPE_T, TYPE_NAME, ATTR1_TYPE, ATTR1) \
  92:Source\mbedtls_open\library/oid.c **** int FN_NAME( const mbedtls_asn1_buf *oid, ATTR1_TYPE * ATTR1 )                  \
  93:Source\mbedtls_open\library/oid.c **** {                                                                       \
  94:Source\mbedtls_open\library/oid.c ****     const TYPE_T *data = oid_ ## TYPE_NAME ## _from_asn1( oid );        \
  95:Source\mbedtls_open\library/oid.c ****     if( data == NULL ) return( MBEDTLS_ERR_OID_NOT_FOUND );            \
  96:Source\mbedtls_open\library/oid.c ****     *ATTR1 = data->ATTR1;                                               \
  97:Source\mbedtls_open\library/oid.c ****     return( 0 );                                                        \
  98:Source\mbedtls_open\library/oid.c **** }
  99:Source\mbedtls_open\library/oid.c **** 
 100:Source\mbedtls_open\library/oid.c **** /*
 101:Source\mbedtls_open\library/oid.c ****  * Macro to generate a function for retrieving two attributes from an
 102:Source\mbedtls_open\library/oid.c ****  * mbedtls_oid_descriptor_t wrapper.
 103:Source\mbedtls_open\library/oid.c ****  */
 104:Source\mbedtls_open\library/oid.c **** #define FN_OID_GET_ATTR2(FN_NAME, TYPE_T, TYPE_NAME, ATTR1_TYPE, ATTR1,     \
 105:Source\mbedtls_open\library/oid.c ****                          ATTR2_TYPE, ATTR2)                                 \
 106:Source\mbedtls_open\library/oid.c **** int FN_NAME( const mbedtls_asn1_buf *oid, ATTR1_TYPE * ATTR1, ATTR2_TYPE * ATTR2 )  \
 107:Source\mbedtls_open\library/oid.c **** {                                                                           \
 108:Source\mbedtls_open\library/oid.c ****     const TYPE_T *data = oid_ ## TYPE_NAME ## _from_asn1( oid );            \
 109:Source\mbedtls_open\library/oid.c ****     if( data == NULL ) return( MBEDTLS_ERR_OID_NOT_FOUND );                \
 110:Source\mbedtls_open\library/oid.c ****     *ATTR1 = data->ATTR1;                                                   \
 111:Source\mbedtls_open\library/oid.c ****     *ATTR2 = data->ATTR2;                                                   \
 112:Source\mbedtls_open\library/oid.c ****     return( 0 );                                                            \
 113:Source\mbedtls_open\library/oid.c **** }
 114:Source\mbedtls_open\library/oid.c **** 
 115:Source\mbedtls_open\library/oid.c **** /*
 116:Source\mbedtls_open\library/oid.c ****  * Macro to generate a function for retrieving the OID based on a single
 117:Source\mbedtls_open\library/oid.c ****  * attribute from a mbedtls_oid_descriptor_t wrapper.
 118:Source\mbedtls_open\library/oid.c ****  */
 119:Source\mbedtls_open\library/oid.c **** #define FN_OID_GET_OID_BY_ATTR1(FN_NAME, TYPE_T, LIST, ATTR1_TYPE, ATTR1)   \
 120:Source\mbedtls_open\library/oid.c **** int FN_NAME( ATTR1_TYPE ATTR1, const char **oid, size_t *olen )             \
 121:Source\mbedtls_open\library/oid.c **** {                                                                           \
 122:Source\mbedtls_open\library/oid.c ****     const TYPE_T *cur = LIST;                                               \
 123:Source\mbedtls_open\library/oid.c ****     while( cur->descriptor.asn1 != NULL ) {                                 \
 124:Source\mbedtls_open\library/oid.c ****         if( cur->ATTR1 == ATTR1 ) {                                         \
 125:Source\mbedtls_open\library/oid.c ****             *oid = cur->descriptor.asn1;                                    \
 126:Source\mbedtls_open\library/oid.c ****             *olen = cur->descriptor.asn1_len;                               \
 127:Source\mbedtls_open\library/oid.c ****             return( 0 );                                                    \
 128:Source\mbedtls_open\library/oid.c ****         }                                                                   \
 129:Source\mbedtls_open\library/oid.c ****         cur++;                                                              \
 130:Source\mbedtls_open\library/oid.c ****     }                                                                       \
 131:Source\mbedtls_open\library/oid.c ****     return( MBEDTLS_ERR_OID_NOT_FOUND );                                   \
 132:Source\mbedtls_open\library/oid.c **** }
 133:Source\mbedtls_open\library/oid.c **** 
 134:Source\mbedtls_open\library/oid.c **** /*
 135:Source\mbedtls_open\library/oid.c ****  * Macro to generate a function for retrieving the OID based on two
 136:Source\mbedtls_open\library/oid.c ****  * attributes from a mbedtls_oid_descriptor_t wrapper.
 137:Source\mbedtls_open\library/oid.c ****  */
 138:Source\mbedtls_open\library/oid.c **** #define FN_OID_GET_OID_BY_ATTR2(FN_NAME, TYPE_T, LIST, ATTR1_TYPE, ATTR1,   \
 139:Source\mbedtls_open\library/oid.c ****                                 ATTR2_TYPE, ATTR2)                          \
 140:Source\mbedtls_open\library/oid.c **** int FN_NAME( ATTR1_TYPE ATTR1, ATTR2_TYPE ATTR2, const char **oid ,         \
 141:Source\mbedtls_open\library/oid.c ****              size_t *olen )                                                 \
 142:Source\mbedtls_open\library/oid.c **** {                                                                           \
 143:Source\mbedtls_open\library/oid.c ****     const TYPE_T *cur = LIST;                                               \
 144:Source\mbedtls_open\library/oid.c ****     while( cur->descriptor.asn1 != NULL ) {                                 \
 145:Source\mbedtls_open\library/oid.c ****         if( cur->ATTR1 == ATTR1 && cur->ATTR2 == ATTR2 ) {                  \
ARM GAS  C:\Users\Phuong\AppData\Local\Temp\ccOpmuD8.s 			page 4


 146:Source\mbedtls_open\library/oid.c ****             *oid = cur->descriptor.asn1;                                    \
 147:Source\mbedtls_open\library/oid.c ****             *olen = cur->descriptor.asn1_len;                               \
 148:Source\mbedtls_open\library/oid.c ****             return( 0 );                                                    \
 149:Source\mbedtls_open\library/oid.c ****         }                                                                   \
 150:Source\mbedtls_open\library/oid.c ****         cur++;                                                              \
 151:Source\mbedtls_open\library/oid.c ****     }                                                                       \
 152:Source\mbedtls_open\library/oid.c ****     return( MBEDTLS_ERR_OID_NOT_FOUND );                                   \
 153:Source\mbedtls_open\library/oid.c **** }
 154:Source\mbedtls_open\library/oid.c **** 
 155:Source\mbedtls_open\library/oid.c **** #if defined(MBEDTLS_X509_USE_C) || defined(MBEDTLS_X509_CREATE_C)
 156:Source\mbedtls_open\library/oid.c **** /*
 157:Source\mbedtls_open\library/oid.c ****  * For X520 attribute types
 158:Source\mbedtls_open\library/oid.c ****  */
 159:Source\mbedtls_open\library/oid.c **** typedef struct {
 160:Source\mbedtls_open\library/oid.c ****     mbedtls_oid_descriptor_t    descriptor;
 161:Source\mbedtls_open\library/oid.c ****     const char          *short_name;
 162:Source\mbedtls_open\library/oid.c **** } oid_x520_attr_t;
 163:Source\mbedtls_open\library/oid.c **** 
 164:Source\mbedtls_open\library/oid.c **** static const oid_x520_attr_t oid_x520_attr_type[] =
 165:Source\mbedtls_open\library/oid.c **** {
 166:Source\mbedtls_open\library/oid.c ****     {
 167:Source\mbedtls_open\library/oid.c ****         { ADD_LEN( MBEDTLS_OID_AT_CN ),          "id-at-commonName",               "Common Name" },
 168:Source\mbedtls_open\library/oid.c ****         "CN",
 169:Source\mbedtls_open\library/oid.c ****     },
 170:Source\mbedtls_open\library/oid.c ****     {
 171:Source\mbedtls_open\library/oid.c ****         { ADD_LEN( MBEDTLS_OID_AT_COUNTRY ),     "id-at-countryName",              "Country" },
 172:Source\mbedtls_open\library/oid.c ****         "C",
 173:Source\mbedtls_open\library/oid.c ****     },
 174:Source\mbedtls_open\library/oid.c ****     {
 175:Source\mbedtls_open\library/oid.c ****         { ADD_LEN( MBEDTLS_OID_AT_LOCALITY ),    "id-at-locality",                 "Locality" },
 176:Source\mbedtls_open\library/oid.c ****         "L",
 177:Source\mbedtls_open\library/oid.c ****     },
 178:Source\mbedtls_open\library/oid.c ****     {
 179:Source\mbedtls_open\library/oid.c ****         { ADD_LEN( MBEDTLS_OID_AT_STATE ),       "id-at-state",                    "State" },
 180:Source\mbedtls_open\library/oid.c ****         "ST",
 181:Source\mbedtls_open\library/oid.c ****     },
 182:Source\mbedtls_open\library/oid.c ****     {
 183:Source\mbedtls_open\library/oid.c ****         { ADD_LEN( MBEDTLS_OID_AT_ORGANIZATION ),"id-at-organizationName",         "Organization" }
 184:Source\mbedtls_open\library/oid.c ****         "O",
 185:Source\mbedtls_open\library/oid.c ****     },
 186:Source\mbedtls_open\library/oid.c ****     {
 187:Source\mbedtls_open\library/oid.c ****         { ADD_LEN( MBEDTLS_OID_AT_ORG_UNIT ),    "id-at-organizationalUnitName",   "Org Unit" },
 188:Source\mbedtls_open\library/oid.c ****         "OU",
 189:Source\mbedtls_open\library/oid.c ****     },
 190:Source\mbedtls_open\library/oid.c ****     {
 191:Source\mbedtls_open\library/oid.c ****         { ADD_LEN( MBEDTLS_OID_PKCS9_EMAIL ),    "emailAddress",                   "E-mail address"
 192:Source\mbedtls_open\library/oid.c ****         "emailAddress",
 193:Source\mbedtls_open\library/oid.c ****     },
 194:Source\mbedtls_open\library/oid.c ****     {
 195:Source\mbedtls_open\library/oid.c ****         { ADD_LEN( MBEDTLS_OID_AT_SERIAL_NUMBER ),"id-at-serialNumber",            "Serial number" 
 196:Source\mbedtls_open\library/oid.c ****         "serialNumber",
 197:Source\mbedtls_open\library/oid.c ****     },
 198:Source\mbedtls_open\library/oid.c ****     {
 199:Source\mbedtls_open\library/oid.c ****         { ADD_LEN( MBEDTLS_OID_AT_POSTAL_ADDRESS ),"id-at-postalAddress",          "Postal address"
 200:Source\mbedtls_open\library/oid.c ****         "postalAddress",
 201:Source\mbedtls_open\library/oid.c ****     },
 202:Source\mbedtls_open\library/oid.c ****     {
ARM GAS  C:\Users\Phuong\AppData\Local\Temp\ccOpmuD8.s 			page 5


 203:Source\mbedtls_open\library/oid.c ****         { ADD_LEN( MBEDTLS_OID_AT_POSTAL_CODE ), "id-at-postalCode",               "Postal code" },
 204:Source\mbedtls_open\library/oid.c ****         "postalCode",
 205:Source\mbedtls_open\library/oid.c ****     },
 206:Source\mbedtls_open\library/oid.c ****     {
 207:Source\mbedtls_open\library/oid.c ****         { ADD_LEN( MBEDTLS_OID_AT_SUR_NAME ),    "id-at-surName",                  "Surname" },
 208:Source\mbedtls_open\library/oid.c ****         "SN",
 209:Source\mbedtls_open\library/oid.c ****     },
 210:Source\mbedtls_open\library/oid.c ****     {
 211:Source\mbedtls_open\library/oid.c ****         { ADD_LEN( MBEDTLS_OID_AT_GIVEN_NAME ),  "id-at-givenName",                "Given name" },
 212:Source\mbedtls_open\library/oid.c ****         "GN",
 213:Source\mbedtls_open\library/oid.c ****     },
 214:Source\mbedtls_open\library/oid.c ****     {
 215:Source\mbedtls_open\library/oid.c ****         { ADD_LEN( MBEDTLS_OID_AT_INITIALS ),    "id-at-initials",                 "Initials" },
 216:Source\mbedtls_open\library/oid.c ****         "initials",
 217:Source\mbedtls_open\library/oid.c ****     },
 218:Source\mbedtls_open\library/oid.c ****     {
 219:Source\mbedtls_open\library/oid.c ****         { ADD_LEN( MBEDTLS_OID_AT_GENERATION_QUALIFIER ), "id-at-generationQualifier", "Generation 
 220:Source\mbedtls_open\library/oid.c ****         "generationQualifier",
 221:Source\mbedtls_open\library/oid.c ****     },
 222:Source\mbedtls_open\library/oid.c ****     {
 223:Source\mbedtls_open\library/oid.c ****         { ADD_LEN( MBEDTLS_OID_AT_TITLE ),       "id-at-title",                    "Title" },
 224:Source\mbedtls_open\library/oid.c ****         "title",
 225:Source\mbedtls_open\library/oid.c ****     },
 226:Source\mbedtls_open\library/oid.c ****     {
 227:Source\mbedtls_open\library/oid.c ****         { ADD_LEN( MBEDTLS_OID_AT_DN_QUALIFIER ),"id-at-dnQualifier",              "Distinguished N
 228:Source\mbedtls_open\library/oid.c ****         "dnQualifier",
 229:Source\mbedtls_open\library/oid.c ****     },
 230:Source\mbedtls_open\library/oid.c ****     {
 231:Source\mbedtls_open\library/oid.c ****         { ADD_LEN( MBEDTLS_OID_AT_PSEUDONYM ),   "id-at-pseudonym",                "Pseudonym" },
 232:Source\mbedtls_open\library/oid.c ****         "pseudonym",
 233:Source\mbedtls_open\library/oid.c ****     },
 234:Source\mbedtls_open\library/oid.c ****     {
 235:Source\mbedtls_open\library/oid.c ****         { ADD_LEN( MBEDTLS_OID_DOMAIN_COMPONENT ), "id-domainComponent",           "Domain componen
 236:Source\mbedtls_open\library/oid.c ****         "DC",
 237:Source\mbedtls_open\library/oid.c ****     },
 238:Source\mbedtls_open\library/oid.c ****     {
 239:Source\mbedtls_open\library/oid.c ****         { ADD_LEN( MBEDTLS_OID_AT_UNIQUE_IDENTIFIER ), "id-at-uniqueIdentifier",    "Unique Identif
 240:Source\mbedtls_open\library/oid.c ****         "uniqueIdentifier",
 241:Source\mbedtls_open\library/oid.c ****     },
 242:Source\mbedtls_open\library/oid.c ****     {
 243:Source\mbedtls_open\library/oid.c ****         { NULL, 0, NULL, NULL },
 244:Source\mbedtls_open\library/oid.c ****         NULL,
 245:Source\mbedtls_open\library/oid.c ****     }
 246:Source\mbedtls_open\library/oid.c **** };
 247:Source\mbedtls_open\library/oid.c **** 
 248:Source\mbedtls_open\library/oid.c **** FN_OID_TYPED_FROM_ASN1(oid_x520_attr_t, x520_attr, oid_x520_attr_type)
  27              		.loc 1 248 0
  28              		.cfi_startproc
  29              		@ args = 0, pretend = 0, frame = 0
  30              		@ frame_needed = 0, uses_anonymous_args = 0
  31              	.LVL0:
  32 0000 70B5     		push	{r4, r5, r6, lr}
  33              		.cfi_def_cfa_offset 16
  34              		.cfi_offset 4, -16
  35              		.cfi_offset 5, -12
  36              		.cfi_offset 6, -8
  37              		.cfi_offset 14, -4
ARM GAS  C:\Users\Phuong\AppData\Local\Temp\ccOpmuD8.s 			page 6


  38 0002 051E     		subs	r5, r0, #0
  39              	.LVL1:
  40              		.loc 1 248 0
  41 0004 0FD0     		beq	.L6
  42 0006 0A4C     		ldr	r4, .L8
  43 0008 09E0     		b	.L3
  44              	.LVL2:
  45              	.L5:
  46              		.loc 1 248 0 is_stmt 0 discriminator 9
  47 000a 6A68     		ldr	r2, [r5, #4]
  48 000c 6368     		ldr	r3, [r4, #4]
  49 000e 9342     		cmp	r3, r2
  50 0010 04D1     		bne	.L4
  51              		.loc 1 248 0 discriminator 4
  52 0012 A968     		ldr	r1, [r5, #8]
  53 0014 FFF7FEFF 		bl	memcmp
  54              	.LVL3:
  55 0018 0028     		cmp	r0, #0
  56 001a 06D0     		beq	.L7
  57              	.L4:
  58              		.loc 1 248 0 discriminator 7
  59 001c 1434     		adds	r4, r4, #20
  60              	.LVL4:
  61              	.L3:
  62              		.loc 1 248 0 discriminator 8
  63 001e 2068     		ldr	r0, [r4]
  64 0020 0028     		cmp	r0, #0
  65 0022 F2D1     		bne	.L5
  66 0024 02E0     		b	.L2
  67              	.LVL5:
  68              	.L6:
  69              		.loc 1 248 0
  70 0026 0020     		movs	r0, #0
  71              	.LVL6:
  72 0028 00E0     		b	.L2
  73              	.LVL7:
  74              	.L7:
  75 002a 2000     		movs	r0, r4
  76              	.LVL8:
  77              	.L2:
  78              		@ sp needed
  79              	.LVL9:
  80 002c 70BD     		pop	{r4, r5, r6, pc}
  81              	.L9:
  82 002e C046     		.align	2
  83              	.L8:
  84 0030 00000000 		.word	.LANCHOR0
  85              		.cfi_endproc
  86              	.LFE11:
  87              		.size	oid_x520_attr_from_asn1, .-oid_x520_attr_from_asn1
  88              		.section	.text.oid_x509_ext_from_asn1,"ax",%progbits
  89              		.align	2
  90              		.code	16
  91              		.thumb_func
  92              		.type	oid_x509_ext_from_asn1, %function
  93              	oid_x509_ext_from_asn1:
  94              	.LFB13:
ARM GAS  C:\Users\Phuong\AppData\Local\Temp\ccOpmuD8.s 			page 7


 249:Source\mbedtls_open\library/oid.c **** FN_OID_GET_ATTR1(mbedtls_oid_get_attr_short_name, oid_x520_attr_t, x520_attr, const char *, short_n
 250:Source\mbedtls_open\library/oid.c **** 
 251:Source\mbedtls_open\library/oid.c **** /*
 252:Source\mbedtls_open\library/oid.c ****  * For X509 extensions
 253:Source\mbedtls_open\library/oid.c ****  */
 254:Source\mbedtls_open\library/oid.c **** typedef struct {
 255:Source\mbedtls_open\library/oid.c ****     mbedtls_oid_descriptor_t    descriptor;
 256:Source\mbedtls_open\library/oid.c ****     int                 ext_type;
 257:Source\mbedtls_open\library/oid.c **** } oid_x509_ext_t;
 258:Source\mbedtls_open\library/oid.c **** 
 259:Source\mbedtls_open\library/oid.c **** static const oid_x509_ext_t oid_x509_ext[] =
 260:Source\mbedtls_open\library/oid.c **** {
 261:Source\mbedtls_open\library/oid.c ****     {
 262:Source\mbedtls_open\library/oid.c ****         { ADD_LEN( MBEDTLS_OID_BASIC_CONSTRAINTS ),    "id-ce-basicConstraints",   "Basic Constrain
 263:Source\mbedtls_open\library/oid.c ****         MBEDTLS_X509_EXT_BASIC_CONSTRAINTS,
 264:Source\mbedtls_open\library/oid.c ****     },
 265:Source\mbedtls_open\library/oid.c ****     {
 266:Source\mbedtls_open\library/oid.c ****         { ADD_LEN( MBEDTLS_OID_KEY_USAGE ),            "id-ce-keyUsage",           "Key Usage" },
 267:Source\mbedtls_open\library/oid.c ****         MBEDTLS_X509_EXT_KEY_USAGE,
 268:Source\mbedtls_open\library/oid.c ****     },
 269:Source\mbedtls_open\library/oid.c ****     {
 270:Source\mbedtls_open\library/oid.c ****         { ADD_LEN( MBEDTLS_OID_EXTENDED_KEY_USAGE ),   "id-ce-extKeyUsage",        "Extended Key Us
 271:Source\mbedtls_open\library/oid.c ****         MBEDTLS_X509_EXT_EXTENDED_KEY_USAGE,
 272:Source\mbedtls_open\library/oid.c ****     },
 273:Source\mbedtls_open\library/oid.c ****     {
 274:Source\mbedtls_open\library/oid.c ****         { ADD_LEN( MBEDTLS_OID_SUBJECT_ALT_NAME ),     "id-ce-subjectAltName",     "Subject Alt Nam
 275:Source\mbedtls_open\library/oid.c ****         MBEDTLS_X509_EXT_SUBJECT_ALT_NAME,
 276:Source\mbedtls_open\library/oid.c ****     },
 277:Source\mbedtls_open\library/oid.c ****     {
 278:Source\mbedtls_open\library/oid.c ****         { ADD_LEN( MBEDTLS_OID_NS_CERT_TYPE ),         "id-netscape-certtype",     "Netscape Certif
 279:Source\mbedtls_open\library/oid.c ****         MBEDTLS_X509_EXT_NS_CERT_TYPE,
 280:Source\mbedtls_open\library/oid.c ****     },
 281:Source\mbedtls_open\library/oid.c ****     {
 282:Source\mbedtls_open\library/oid.c ****         { NULL, 0, NULL, NULL },
 283:Source\mbedtls_open\library/oid.c ****         0,
 284:Source\mbedtls_open\library/oid.c ****     },
 285:Source\mbedtls_open\library/oid.c **** };
 286:Source\mbedtls_open\library/oid.c **** 
 287:Source\mbedtls_open\library/oid.c **** FN_OID_TYPED_FROM_ASN1(oid_x509_ext_t, x509_ext, oid_x509_ext)
  95              		.loc 1 287 0 is_stmt 1
  96              		.cfi_startproc
  97              		@ args = 0, pretend = 0, frame = 0
  98              		@ frame_needed = 0, uses_anonymous_args = 0
  99              	.LVL10:
 100 0000 70B5     		push	{r4, r5, r6, lr}
 101              		.cfi_def_cfa_offset 16
 102              		.cfi_offset 4, -16
 103              		.cfi_offset 5, -12
 104              		.cfi_offset 6, -8
 105              		.cfi_offset 14, -4
 106 0002 051E     		subs	r5, r0, #0
 107              	.LVL11:
 108              		.loc 1 287 0
 109 0004 10D0     		beq	.L15
 110 0006 0A4C     		ldr	r4, .L17
 111 0008 1034     		adds	r4, r4, #16
 112 000a 09E0     		b	.L12
ARM GAS  C:\Users\Phuong\AppData\Local\Temp\ccOpmuD8.s 			page 8


 113              	.LVL12:
 114              	.L14:
 115              		.loc 1 287 0 is_stmt 0 discriminator 9
 116 000c 6A68     		ldr	r2, [r5, #4]
 117 000e 6368     		ldr	r3, [r4, #4]
 118 0010 9342     		cmp	r3, r2
 119 0012 04D1     		bne	.L13
 120              		.loc 1 287 0 discriminator 4
 121 0014 A968     		ldr	r1, [r5, #8]
 122 0016 FFF7FEFF 		bl	memcmp
 123              	.LVL13:
 124 001a 0028     		cmp	r0, #0
 125 001c 06D0     		beq	.L16
 126              	.L13:
 127              		.loc 1 287 0 discriminator 7
 128 001e 1434     		adds	r4, r4, #20
 129              	.LVL14:
 130              	.L12:
 131              		.loc 1 287 0 discriminator 8
 132 0020 2068     		ldr	r0, [r4]
 133 0022 0028     		cmp	r0, #0
 134 0024 F2D1     		bne	.L14
 135 0026 02E0     		b	.L11
 136              	.LVL15:
 137              	.L15:
 138              		.loc 1 287 0
 139 0028 0020     		movs	r0, #0
 140              	.LVL16:
 141 002a 00E0     		b	.L11
 142              	.LVL17:
 143              	.L16:
 144 002c 2000     		movs	r0, r4
 145              	.LVL18:
 146              	.L11:
 147              		@ sp needed
 148              	.LVL19:
 149 002e 70BD     		pop	{r4, r5, r6, pc}
 150              	.L18:
 151              		.align	2
 152              	.L17:
 153 0030 80010000 		.word	.LANCHOR1
 154              		.cfi_endproc
 155              	.LFE13:
 156              		.size	oid_x509_ext_from_asn1, .-oid_x509_ext_from_asn1
 157              		.section	.text.oid_ext_key_usage_from_asn1,"ax",%progbits
 158              		.align	2
 159              		.code	16
 160              		.thumb_func
 161              		.type	oid_ext_key_usage_from_asn1, %function
 162              	oid_ext_key_usage_from_asn1:
 163              	.LFB15:
 288:Source\mbedtls_open\library/oid.c **** FN_OID_GET_ATTR1(mbedtls_oid_get_x509_ext_type, oid_x509_ext_t, x509_ext, int, ext_type)
 289:Source\mbedtls_open\library/oid.c **** 
 290:Source\mbedtls_open\library/oid.c **** static const mbedtls_oid_descriptor_t oid_ext_key_usage[] =
 291:Source\mbedtls_open\library/oid.c **** {
 292:Source\mbedtls_open\library/oid.c ****     { ADD_LEN( MBEDTLS_OID_SERVER_AUTH ),      "id-kp-serverAuth",      "TLS Web Server Authenticat
 293:Source\mbedtls_open\library/oid.c ****     { ADD_LEN( MBEDTLS_OID_CLIENT_AUTH ),      "id-kp-clientAuth",      "TLS Web Client Authenticat
ARM GAS  C:\Users\Phuong\AppData\Local\Temp\ccOpmuD8.s 			page 9


 294:Source\mbedtls_open\library/oid.c ****     { ADD_LEN( MBEDTLS_OID_CODE_SIGNING ),     "id-kp-codeSigning",     "Code Signing" },
 295:Source\mbedtls_open\library/oid.c ****     { ADD_LEN( MBEDTLS_OID_EMAIL_PROTECTION ), "id-kp-emailProtection", "E-mail Protection" },
 296:Source\mbedtls_open\library/oid.c ****     { ADD_LEN( MBEDTLS_OID_TIME_STAMPING ),    "id-kp-timeStamping",    "Time Stamping" },
 297:Source\mbedtls_open\library/oid.c ****     { ADD_LEN( MBEDTLS_OID_OCSP_SIGNING ),     "id-kp-OCSPSigning",     "OCSP Signing" },
 298:Source\mbedtls_open\library/oid.c ****     { NULL, 0, NULL, NULL },
 299:Source\mbedtls_open\library/oid.c **** };
 300:Source\mbedtls_open\library/oid.c **** 
 301:Source\mbedtls_open\library/oid.c **** FN_OID_TYPED_FROM_ASN1(mbedtls_oid_descriptor_t, ext_key_usage, oid_ext_key_usage)
 164              		.loc 1 301 0 is_stmt 1
 165              		.cfi_startproc
 166              		@ args = 0, pretend = 0, frame = 0
 167              		@ frame_needed = 0, uses_anonymous_args = 0
 168              	.LVL20:
 169 0000 70B5     		push	{r4, r5, r6, lr}
 170              		.cfi_def_cfa_offset 16
 171              		.cfi_offset 4, -16
 172              		.cfi_offset 5, -12
 173              		.cfi_offset 6, -8
 174              		.cfi_offset 14, -4
 175 0002 051E     		subs	r5, r0, #0
 176              	.LVL21:
 177              		.loc 1 301 0
 178 0004 10D0     		beq	.L24
 179 0006 0A4C     		ldr	r4, .L26
 180 0008 0834     		adds	r4, r4, #8
 181 000a 09E0     		b	.L21
 182              	.LVL22:
 183              	.L23:
 184              		.loc 1 301 0 is_stmt 0 discriminator 9
 185 000c 6A68     		ldr	r2, [r5, #4]
 186 000e 6368     		ldr	r3, [r4, #4]
 187 0010 9342     		cmp	r3, r2
 188 0012 04D1     		bne	.L22
 189              		.loc 1 301 0 discriminator 4
 190 0014 A968     		ldr	r1, [r5, #8]
 191 0016 FFF7FEFF 		bl	memcmp
 192              	.LVL23:
 193 001a 0028     		cmp	r0, #0
 194 001c 06D0     		beq	.L25
 195              	.L22:
 196              		.loc 1 301 0 discriminator 7
 197 001e 1034     		adds	r4, r4, #16
 198              	.LVL24:
 199              	.L21:
 200              		.loc 1 301 0 discriminator 8
 201 0020 2068     		ldr	r0, [r4]
 202 0022 0028     		cmp	r0, #0
 203 0024 F2D1     		bne	.L23
 204 0026 02E0     		b	.L20
 205              	.LVL25:
 206              	.L24:
 207              		.loc 1 301 0
 208 0028 0020     		movs	r0, #0
 209              	.LVL26:
 210 002a 00E0     		b	.L20
 211              	.LVL27:
 212              	.L25:
ARM GAS  C:\Users\Phuong\AppData\Local\Temp\ccOpmuD8.s 			page 10


 213 002c 2000     		movs	r0, r4
 214              	.LVL28:
 215              	.L20:
 216              		@ sp needed
 217              	.LVL29:
 218 002e 70BD     		pop	{r4, r5, r6, pc}
 219              	.L27:
 220              		.align	2
 221              	.L26:
 222 0030 00020000 		.word	.LANCHOR2
 223              		.cfi_endproc
 224              	.LFE15:
 225              		.size	oid_ext_key_usage_from_asn1, .-oid_ext_key_usage_from_asn1
 226              		.section	.text.oid_sig_alg_from_asn1,"ax",%progbits
 227              		.align	2
 228              		.code	16
 229              		.thumb_func
 230              		.type	oid_sig_alg_from_asn1, %function
 231              	oid_sig_alg_from_asn1:
 232              	.LFB17:
 302:Source\mbedtls_open\library/oid.c **** FN_OID_GET_ATTR1(mbedtls_oid_get_extended_key_usage, mbedtls_oid_descriptor_t, ext_key_usage, const
 303:Source\mbedtls_open\library/oid.c **** #endif /* MBEDTLS_X509_USE_C || MBEDTLS_X509_CREATE_C */
 304:Source\mbedtls_open\library/oid.c **** 
 305:Source\mbedtls_open\library/oid.c **** #if defined(MBEDTLS_MD_C)
 306:Source\mbedtls_open\library/oid.c **** /*
 307:Source\mbedtls_open\library/oid.c ****  * For SignatureAlgorithmIdentifier
 308:Source\mbedtls_open\library/oid.c ****  */
 309:Source\mbedtls_open\library/oid.c **** typedef struct {
 310:Source\mbedtls_open\library/oid.c ****     mbedtls_oid_descriptor_t    descriptor;
 311:Source\mbedtls_open\library/oid.c ****     mbedtls_md_type_t           md_alg;
 312:Source\mbedtls_open\library/oid.c ****     mbedtls_pk_type_t           pk_alg;
 313:Source\mbedtls_open\library/oid.c **** } oid_sig_alg_t;
 314:Source\mbedtls_open\library/oid.c **** 
 315:Source\mbedtls_open\library/oid.c **** static const oid_sig_alg_t oid_sig_alg[] =
 316:Source\mbedtls_open\library/oid.c **** {
 317:Source\mbedtls_open\library/oid.c **** #if defined(MBEDTLS_RSA_C)
 318:Source\mbedtls_open\library/oid.c **** #if defined(MBEDTLS_MD2_C)
 319:Source\mbedtls_open\library/oid.c ****     {
 320:Source\mbedtls_open\library/oid.c ****         { ADD_LEN( MBEDTLS_OID_PKCS1_MD2 ),        "md2WithRSAEncryption",     "RSA with MD2" },
 321:Source\mbedtls_open\library/oid.c ****         MBEDTLS_MD_MD2,      MBEDTLS_PK_RSA,
 322:Source\mbedtls_open\library/oid.c ****     },
 323:Source\mbedtls_open\library/oid.c **** #endif /* MBEDTLS_MD2_C */
 324:Source\mbedtls_open\library/oid.c **** #if defined(MBEDTLS_MD4_C)
 325:Source\mbedtls_open\library/oid.c ****     {
 326:Source\mbedtls_open\library/oid.c ****         { ADD_LEN( MBEDTLS_OID_PKCS1_MD4 ),        "md4WithRSAEncryption",     "RSA with MD4" },
 327:Source\mbedtls_open\library/oid.c ****         MBEDTLS_MD_MD4,      MBEDTLS_PK_RSA,
 328:Source\mbedtls_open\library/oid.c ****     },
 329:Source\mbedtls_open\library/oid.c **** #endif /* MBEDTLS_MD4_C */
 330:Source\mbedtls_open\library/oid.c **** #if defined(MBEDTLS_MD5_C)
 331:Source\mbedtls_open\library/oid.c ****     {
 332:Source\mbedtls_open\library/oid.c ****         { ADD_LEN( MBEDTLS_OID_PKCS1_MD5 ),        "md5WithRSAEncryption",     "RSA with MD5" },
 333:Source\mbedtls_open\library/oid.c ****         MBEDTLS_MD_MD5,      MBEDTLS_PK_RSA,
 334:Source\mbedtls_open\library/oid.c ****     },
 335:Source\mbedtls_open\library/oid.c **** #endif /* MBEDTLS_MD5_C */
 336:Source\mbedtls_open\library/oid.c **** #if defined(MBEDTLS_SHA1_C)
 337:Source\mbedtls_open\library/oid.c ****     {
 338:Source\mbedtls_open\library/oid.c ****         { ADD_LEN( MBEDTLS_OID_PKCS1_SHA1 ),       "sha-1WithRSAEncryption",   "RSA with SHA1" },
ARM GAS  C:\Users\Phuong\AppData\Local\Temp\ccOpmuD8.s 			page 11


 339:Source\mbedtls_open\library/oid.c ****         MBEDTLS_MD_SHA1,     MBEDTLS_PK_RSA,
 340:Source\mbedtls_open\library/oid.c ****     },
 341:Source\mbedtls_open\library/oid.c **** #endif /* MBEDTLS_SHA1_C */
 342:Source\mbedtls_open\library/oid.c **** #if defined(MBEDTLS_SHA256_C)
 343:Source\mbedtls_open\library/oid.c ****     {
 344:Source\mbedtls_open\library/oid.c ****         { ADD_LEN( MBEDTLS_OID_PKCS1_SHA224 ),     "sha224WithRSAEncryption",  "RSA with SHA-224" }
 345:Source\mbedtls_open\library/oid.c ****         MBEDTLS_MD_SHA224,   MBEDTLS_PK_RSA,
 346:Source\mbedtls_open\library/oid.c ****     },
 347:Source\mbedtls_open\library/oid.c ****     {
 348:Source\mbedtls_open\library/oid.c ****         { ADD_LEN( MBEDTLS_OID_PKCS1_SHA256 ),     "sha256WithRSAEncryption",  "RSA with SHA-256" }
 349:Source\mbedtls_open\library/oid.c ****         MBEDTLS_MD_SHA256,   MBEDTLS_PK_RSA,
 350:Source\mbedtls_open\library/oid.c ****     },
 351:Source\mbedtls_open\library/oid.c **** #endif /* MBEDTLS_SHA256_C */
 352:Source\mbedtls_open\library/oid.c **** #if defined(MBEDTLS_SHA512_C)
 353:Source\mbedtls_open\library/oid.c ****     {
 354:Source\mbedtls_open\library/oid.c ****         { ADD_LEN( MBEDTLS_OID_PKCS1_SHA384 ),     "sha384WithRSAEncryption",  "RSA with SHA-384" }
 355:Source\mbedtls_open\library/oid.c ****         MBEDTLS_MD_SHA384,   MBEDTLS_PK_RSA,
 356:Source\mbedtls_open\library/oid.c ****     },
 357:Source\mbedtls_open\library/oid.c ****     {
 358:Source\mbedtls_open\library/oid.c ****         { ADD_LEN( MBEDTLS_OID_PKCS1_SHA512 ),     "sha512WithRSAEncryption",  "RSA with SHA-512" }
 359:Source\mbedtls_open\library/oid.c ****         MBEDTLS_MD_SHA512,   MBEDTLS_PK_RSA,
 360:Source\mbedtls_open\library/oid.c ****     },
 361:Source\mbedtls_open\library/oid.c **** #endif /* MBEDTLS_SHA512_C */
 362:Source\mbedtls_open\library/oid.c **** #if defined(MBEDTLS_SHA1_C)
 363:Source\mbedtls_open\library/oid.c ****     {
 364:Source\mbedtls_open\library/oid.c ****         { ADD_LEN( MBEDTLS_OID_RSA_SHA_OBS ),      "sha-1WithRSAEncryption",   "RSA with SHA1" },
 365:Source\mbedtls_open\library/oid.c ****         MBEDTLS_MD_SHA1,     MBEDTLS_PK_RSA,
 366:Source\mbedtls_open\library/oid.c ****     },
 367:Source\mbedtls_open\library/oid.c **** #endif /* MBEDTLS_SHA1_C */
 368:Source\mbedtls_open\library/oid.c **** #endif /* MBEDTLS_RSA_C */
 369:Source\mbedtls_open\library/oid.c **** #if defined(MBEDTLS_ECDSA_C)
 370:Source\mbedtls_open\library/oid.c **** #if defined(MBEDTLS_SHA1_C)
 371:Source\mbedtls_open\library/oid.c ****     {
 372:Source\mbedtls_open\library/oid.c ****         { ADD_LEN( MBEDTLS_OID_ECDSA_SHA1 ),       "ecdsa-with-SHA1",      "ECDSA with SHA1" },
 373:Source\mbedtls_open\library/oid.c ****         MBEDTLS_MD_SHA1,     MBEDTLS_PK_ECDSA,
 374:Source\mbedtls_open\library/oid.c ****     },
 375:Source\mbedtls_open\library/oid.c **** #endif /* MBEDTLS_SHA1_C */
 376:Source\mbedtls_open\library/oid.c **** #if defined(MBEDTLS_SHA256_C)
 377:Source\mbedtls_open\library/oid.c ****     {
 378:Source\mbedtls_open\library/oid.c ****         { ADD_LEN( MBEDTLS_OID_ECDSA_SHA224 ),     "ecdsa-with-SHA224",    "ECDSA with SHA224" },
 379:Source\mbedtls_open\library/oid.c ****         MBEDTLS_MD_SHA224,   MBEDTLS_PK_ECDSA,
 380:Source\mbedtls_open\library/oid.c ****     },
 381:Source\mbedtls_open\library/oid.c ****     {
 382:Source\mbedtls_open\library/oid.c ****         { ADD_LEN( MBEDTLS_OID_ECDSA_SHA256 ),     "ecdsa-with-SHA256",    "ECDSA with SHA256" },
 383:Source\mbedtls_open\library/oid.c ****         MBEDTLS_MD_SHA256,   MBEDTLS_PK_ECDSA,
 384:Source\mbedtls_open\library/oid.c ****     },
 385:Source\mbedtls_open\library/oid.c **** #endif /* MBEDTLS_SHA256_C */
 386:Source\mbedtls_open\library/oid.c **** #if defined(MBEDTLS_SHA512_C)
 387:Source\mbedtls_open\library/oid.c ****     {
 388:Source\mbedtls_open\library/oid.c ****         { ADD_LEN( MBEDTLS_OID_ECDSA_SHA384 ),     "ecdsa-with-SHA384",    "ECDSA with SHA384" },
 389:Source\mbedtls_open\library/oid.c ****         MBEDTLS_MD_SHA384,   MBEDTLS_PK_ECDSA,
 390:Source\mbedtls_open\library/oid.c ****     },
 391:Source\mbedtls_open\library/oid.c ****     {
 392:Source\mbedtls_open\library/oid.c ****         { ADD_LEN( MBEDTLS_OID_ECDSA_SHA512 ),     "ecdsa-with-SHA512",    "ECDSA with SHA512" },
 393:Source\mbedtls_open\library/oid.c ****         MBEDTLS_MD_SHA512,   MBEDTLS_PK_ECDSA,
 394:Source\mbedtls_open\library/oid.c ****     },
 395:Source\mbedtls_open\library/oid.c **** #endif /* MBEDTLS_SHA512_C */
ARM GAS  C:\Users\Phuong\AppData\Local\Temp\ccOpmuD8.s 			page 12


 396:Source\mbedtls_open\library/oid.c **** #endif /* MBEDTLS_ECDSA_C */
 397:Source\mbedtls_open\library/oid.c **** #if defined(MBEDTLS_RSA_C)
 398:Source\mbedtls_open\library/oid.c ****     {
 399:Source\mbedtls_open\library/oid.c ****         { ADD_LEN( MBEDTLS_OID_RSASSA_PSS ),        "RSASSA-PSS",           "RSASSA-PSS" },
 400:Source\mbedtls_open\library/oid.c ****         MBEDTLS_MD_NONE,     MBEDTLS_PK_RSASSA_PSS,
 401:Source\mbedtls_open\library/oid.c ****     },
 402:Source\mbedtls_open\library/oid.c **** #endif /* MBEDTLS_RSA_C */
 403:Source\mbedtls_open\library/oid.c ****     {
 404:Source\mbedtls_open\library/oid.c ****         { NULL, 0, NULL, NULL },
 405:Source\mbedtls_open\library/oid.c ****         MBEDTLS_MD_NONE, MBEDTLS_PK_NONE,
 406:Source\mbedtls_open\library/oid.c ****     },
 407:Source\mbedtls_open\library/oid.c **** };
 408:Source\mbedtls_open\library/oid.c **** 
 409:Source\mbedtls_open\library/oid.c **** FN_OID_TYPED_FROM_ASN1(oid_sig_alg_t, sig_alg, oid_sig_alg)
 233              		.loc 1 409 0 is_stmt 1
 234              		.cfi_startproc
 235              		@ args = 0, pretend = 0, frame = 0
 236              		@ frame_needed = 0, uses_anonymous_args = 0
 237              	.LVL30:
 238 0000 70B5     		push	{r4, r5, r6, lr}
 239              		.cfi_def_cfa_offset 16
 240              		.cfi_offset 4, -16
 241              		.cfi_offset 5, -12
 242              		.cfi_offset 6, -8
 243              		.cfi_offset 14, -4
 244 0002 051E     		subs	r5, r0, #0
 245              	.LVL31:
 246              		.loc 1 409 0
 247 0004 10D0     		beq	.L33
 248 0006 0A4C     		ldr	r4, .L35
 249 0008 7834     		adds	r4, r4, #120
 250 000a 09E0     		b	.L30
 251              	.LVL32:
 252              	.L32:
 253              		.loc 1 409 0 is_stmt 0 discriminator 9
 254 000c 6A68     		ldr	r2, [r5, #4]
 255 000e 6368     		ldr	r3, [r4, #4]
 256 0010 9342     		cmp	r3, r2
 257 0012 04D1     		bne	.L31
 258              		.loc 1 409 0 discriminator 4
 259 0014 A968     		ldr	r1, [r5, #8]
 260 0016 FFF7FEFF 		bl	memcmp
 261              	.LVL33:
 262 001a 0028     		cmp	r0, #0
 263 001c 06D0     		beq	.L34
 264              	.L31:
 265              		.loc 1 409 0 discriminator 7
 266 001e 1434     		adds	r4, r4, #20
 267              	.LVL34:
 268              	.L30:
 269              		.loc 1 409 0 discriminator 8
 270 0020 2068     		ldr	r0, [r4]
 271 0022 0028     		cmp	r0, #0
 272 0024 F2D1     		bne	.L32
 273 0026 02E0     		b	.L29
 274              	.LVL35:
 275              	.L33:
ARM GAS  C:\Users\Phuong\AppData\Local\Temp\ccOpmuD8.s 			page 13


 276              		.loc 1 409 0
 277 0028 0020     		movs	r0, #0
 278              	.LVL36:
 279 002a 00E0     		b	.L29
 280              	.LVL37:
 281              	.L34:
 282 002c 2000     		movs	r0, r4
 283              	.LVL38:
 284              	.L29:
 285              		@ sp needed
 286              	.LVL39:
 287 002e 70BD     		pop	{r4, r5, r6, pc}
 288              	.L36:
 289              		.align	2
 290              	.L35:
 291 0030 00020000 		.word	.LANCHOR2
 292              		.cfi_endproc
 293              	.LFE17:
 294              		.size	oid_sig_alg_from_asn1, .-oid_sig_alg_from_asn1
 295              		.section	.text.oid_pk_alg_from_asn1,"ax",%progbits
 296              		.align	2
 297              		.code	16
 298              		.thumb_func
 299              		.type	oid_pk_alg_from_asn1, %function
 300              	oid_pk_alg_from_asn1:
 301              	.LFB21:
 410:Source\mbedtls_open\library/oid.c **** FN_OID_GET_DESCRIPTOR_ATTR1(mbedtls_oid_get_sig_alg_desc, oid_sig_alg_t, sig_alg, const char *, des
 411:Source\mbedtls_open\library/oid.c **** FN_OID_GET_ATTR2(mbedtls_oid_get_sig_alg, oid_sig_alg_t, sig_alg, mbedtls_md_type_t, md_alg, mbedtl
 412:Source\mbedtls_open\library/oid.c **** FN_OID_GET_OID_BY_ATTR2(mbedtls_oid_get_oid_by_sig_alg, oid_sig_alg_t, oid_sig_alg, mbedtls_pk_type
 413:Source\mbedtls_open\library/oid.c **** #endif /* MBEDTLS_MD_C */
 414:Source\mbedtls_open\library/oid.c **** 
 415:Source\mbedtls_open\library/oid.c **** /*
 416:Source\mbedtls_open\library/oid.c ****  * For PublicKeyInfo (PKCS1, RFC 5480)
 417:Source\mbedtls_open\library/oid.c ****  */
 418:Source\mbedtls_open\library/oid.c **** typedef struct {
 419:Source\mbedtls_open\library/oid.c ****     mbedtls_oid_descriptor_t    descriptor;
 420:Source\mbedtls_open\library/oid.c ****     mbedtls_pk_type_t           pk_alg;
 421:Source\mbedtls_open\library/oid.c **** } oid_pk_alg_t;
 422:Source\mbedtls_open\library/oid.c **** 
 423:Source\mbedtls_open\library/oid.c **** static const oid_pk_alg_t oid_pk_alg[] =
 424:Source\mbedtls_open\library/oid.c **** {
 425:Source\mbedtls_open\library/oid.c ****     {
 426:Source\mbedtls_open\library/oid.c ****         { ADD_LEN( MBEDTLS_OID_PKCS1_RSA ),      "rsaEncryption",   "RSA" },
 427:Source\mbedtls_open\library/oid.c ****         MBEDTLS_PK_RSA,
 428:Source\mbedtls_open\library/oid.c ****     },
 429:Source\mbedtls_open\library/oid.c ****     {
 430:Source\mbedtls_open\library/oid.c ****         { ADD_LEN( MBEDTLS_OID_EC_ALG_UNRESTRICTED ),  "id-ecPublicKey",   "Generic EC key" },
 431:Source\mbedtls_open\library/oid.c ****         MBEDTLS_PK_ECKEY,
 432:Source\mbedtls_open\library/oid.c ****     },
 433:Source\mbedtls_open\library/oid.c ****     {
 434:Source\mbedtls_open\library/oid.c ****         { ADD_LEN( MBEDTLS_OID_EC_ALG_ECDH ),          "id-ecDH",          "EC key for ECDH" },
 435:Source\mbedtls_open\library/oid.c ****         MBEDTLS_PK_ECKEY_DH,
 436:Source\mbedtls_open\library/oid.c ****     },
 437:Source\mbedtls_open\library/oid.c ****     {
 438:Source\mbedtls_open\library/oid.c ****         { NULL, 0, NULL, NULL },
 439:Source\mbedtls_open\library/oid.c ****         MBEDTLS_PK_NONE,
 440:Source\mbedtls_open\library/oid.c ****     },
ARM GAS  C:\Users\Phuong\AppData\Local\Temp\ccOpmuD8.s 			page 14


 441:Source\mbedtls_open\library/oid.c **** };
 442:Source\mbedtls_open\library/oid.c **** 
 443:Source\mbedtls_open\library/oid.c **** FN_OID_TYPED_FROM_ASN1(oid_pk_alg_t, pk_alg, oid_pk_alg)
 302              		.loc 1 443 0 is_stmt 1
 303              		.cfi_startproc
 304              		@ args = 0, pretend = 0, frame = 0
 305              		@ frame_needed = 0, uses_anonymous_args = 0
 306              	.LVL40:
 307 0000 70B5     		push	{r4, r5, r6, lr}
 308              		.cfi_def_cfa_offset 16
 309              		.cfi_offset 4, -16
 310              		.cfi_offset 5, -12
 311              		.cfi_offset 6, -8
 312              		.cfi_offset 14, -4
 313 0002 051E     		subs	r5, r0, #0
 314              	.LVL41:
 315              		.loc 1 443 0
 316 0004 10D0     		beq	.L42
 317 0006 0A4C     		ldr	r4, .L44
 318 0008 1034     		adds	r4, r4, #16
 319 000a 09E0     		b	.L39
 320              	.LVL42:
 321              	.L41:
 322              		.loc 1 443 0 is_stmt 0 discriminator 9
 323 000c 6A68     		ldr	r2, [r5, #4]
 324 000e 6368     		ldr	r3, [r4, #4]
 325 0010 9342     		cmp	r3, r2
 326 0012 04D1     		bne	.L40
 327              		.loc 1 443 0 discriminator 4
 328 0014 A968     		ldr	r1, [r5, #8]
 329 0016 FFF7FEFF 		bl	memcmp
 330              	.LVL43:
 331 001a 0028     		cmp	r0, #0
 332 001c 06D0     		beq	.L43
 333              	.L40:
 334              		.loc 1 443 0 discriminator 7
 335 001e 1434     		adds	r4, r4, #20
 336              	.LVL44:
 337              	.L39:
 338              		.loc 1 443 0 discriminator 8
 339 0020 2068     		ldr	r0, [r4]
 340 0022 0028     		cmp	r0, #0
 341 0024 F2D1     		bne	.L41
 342 0026 02E0     		b	.L38
 343              	.LVL45:
 344              	.L42:
 345              		.loc 1 443 0
 346 0028 0020     		movs	r0, #0
 347              	.LVL46:
 348 002a 00E0     		b	.L38
 349              	.LVL47:
 350              	.L43:
 351 002c 2000     		movs	r0, r4
 352              	.LVL48:
 353              	.L38:
 354              		@ sp needed
 355              	.LVL49:
ARM GAS  C:\Users\Phuong\AppData\Local\Temp\ccOpmuD8.s 			page 15


 356 002e 70BD     		pop	{r4, r5, r6, pc}
 357              	.L45:
 358              		.align	2
 359              	.L44:
 360 0030 80030000 		.word	.LANCHOR3
 361              		.cfi_endproc
 362              	.LFE21:
 363              		.size	oid_pk_alg_from_asn1, .-oid_pk_alg_from_asn1
 364              		.section	.text.oid_grp_id_from_asn1,"ax",%progbits
 365              		.align	2
 366              		.code	16
 367              		.thumb_func
 368              		.type	oid_grp_id_from_asn1, %function
 369              	oid_grp_id_from_asn1:
 370              	.LFB24:
 444:Source\mbedtls_open\library/oid.c **** FN_OID_GET_ATTR1(mbedtls_oid_get_pk_alg, oid_pk_alg_t, pk_alg, mbedtls_pk_type_t, pk_alg)
 445:Source\mbedtls_open\library/oid.c **** FN_OID_GET_OID_BY_ATTR1(mbedtls_oid_get_oid_by_pk_alg, oid_pk_alg_t, oid_pk_alg, mbedtls_pk_type_t,
 446:Source\mbedtls_open\library/oid.c **** 
 447:Source\mbedtls_open\library/oid.c **** #if defined(MBEDTLS_ECP_C)
 448:Source\mbedtls_open\library/oid.c **** /*
 449:Source\mbedtls_open\library/oid.c ****  * For namedCurve (RFC 5480)
 450:Source\mbedtls_open\library/oid.c ****  */
 451:Source\mbedtls_open\library/oid.c **** typedef struct {
 452:Source\mbedtls_open\library/oid.c ****     mbedtls_oid_descriptor_t    descriptor;
 453:Source\mbedtls_open\library/oid.c ****     mbedtls_ecp_group_id        grp_id;
 454:Source\mbedtls_open\library/oid.c **** } oid_ecp_grp_t;
 455:Source\mbedtls_open\library/oid.c **** 
 456:Source\mbedtls_open\library/oid.c **** static const oid_ecp_grp_t oid_ecp_grp[] =
 457:Source\mbedtls_open\library/oid.c **** {
 458:Source\mbedtls_open\library/oid.c **** #if defined(MBEDTLS_ECP_DP_SECP192R1_ENABLED)
 459:Source\mbedtls_open\library/oid.c ****     {
 460:Source\mbedtls_open\library/oid.c ****         { ADD_LEN( MBEDTLS_OID_EC_GRP_SECP192R1 ), "secp192r1",    "secp192r1" },
 461:Source\mbedtls_open\library/oid.c ****         MBEDTLS_ECP_DP_SECP192R1,
 462:Source\mbedtls_open\library/oid.c ****     },
 463:Source\mbedtls_open\library/oid.c **** #endif /* MBEDTLS_ECP_DP_SECP192R1_ENABLED */
 464:Source\mbedtls_open\library/oid.c **** #if defined(MBEDTLS_ECP_DP_SECP224R1_ENABLED)
 465:Source\mbedtls_open\library/oid.c ****     {
 466:Source\mbedtls_open\library/oid.c ****         { ADD_LEN( MBEDTLS_OID_EC_GRP_SECP224R1 ), "secp224r1",    "secp224r1" },
 467:Source\mbedtls_open\library/oid.c ****         MBEDTLS_ECP_DP_SECP224R1,
 468:Source\mbedtls_open\library/oid.c ****     },
 469:Source\mbedtls_open\library/oid.c **** #endif /* MBEDTLS_ECP_DP_SECP224R1_ENABLED */
 470:Source\mbedtls_open\library/oid.c **** #if defined(MBEDTLS_ECP_DP_SECP256R1_ENABLED)
 471:Source\mbedtls_open\library/oid.c ****     {
 472:Source\mbedtls_open\library/oid.c ****         { ADD_LEN( MBEDTLS_OID_EC_GRP_SECP256R1 ), "secp256r1",    "secp256r1" },
 473:Source\mbedtls_open\library/oid.c ****         MBEDTLS_ECP_DP_SECP256R1,
 474:Source\mbedtls_open\library/oid.c ****     },
 475:Source\mbedtls_open\library/oid.c **** #endif /* MBEDTLS_ECP_DP_SECP256R1_ENABLED */
 476:Source\mbedtls_open\library/oid.c **** #if defined(MBEDTLS_ECP_DP_SECP384R1_ENABLED)
 477:Source\mbedtls_open\library/oid.c ****     {
 478:Source\mbedtls_open\library/oid.c ****         { ADD_LEN( MBEDTLS_OID_EC_GRP_SECP384R1 ), "secp384r1",    "secp384r1" },
 479:Source\mbedtls_open\library/oid.c ****         MBEDTLS_ECP_DP_SECP384R1,
 480:Source\mbedtls_open\library/oid.c ****     },
 481:Source\mbedtls_open\library/oid.c **** #endif /* MBEDTLS_ECP_DP_SECP384R1_ENABLED */
 482:Source\mbedtls_open\library/oid.c **** #if defined(MBEDTLS_ECP_DP_SECP521R1_ENABLED)
 483:Source\mbedtls_open\library/oid.c ****     {
 484:Source\mbedtls_open\library/oid.c ****         { ADD_LEN( MBEDTLS_OID_EC_GRP_SECP521R1 ), "secp521r1",    "secp521r1" },
 485:Source\mbedtls_open\library/oid.c ****         MBEDTLS_ECP_DP_SECP521R1,
ARM GAS  C:\Users\Phuong\AppData\Local\Temp\ccOpmuD8.s 			page 16


 486:Source\mbedtls_open\library/oid.c ****     },
 487:Source\mbedtls_open\library/oid.c **** #endif /* MBEDTLS_ECP_DP_SECP521R1_ENABLED */
 488:Source\mbedtls_open\library/oid.c **** #if defined(MBEDTLS_ECP_DP_SECP192K1_ENABLED)
 489:Source\mbedtls_open\library/oid.c ****     {
 490:Source\mbedtls_open\library/oid.c ****         { ADD_LEN( MBEDTLS_OID_EC_GRP_SECP192K1 ), "secp192k1",    "secp192k1" },
 491:Source\mbedtls_open\library/oid.c ****         MBEDTLS_ECP_DP_SECP192K1,
 492:Source\mbedtls_open\library/oid.c ****     },
 493:Source\mbedtls_open\library/oid.c **** #endif /* MBEDTLS_ECP_DP_SECP192K1_ENABLED */
 494:Source\mbedtls_open\library/oid.c **** #if defined(MBEDTLS_ECP_DP_SECP224K1_ENABLED)
 495:Source\mbedtls_open\library/oid.c ****     {
 496:Source\mbedtls_open\library/oid.c ****         { ADD_LEN( MBEDTLS_OID_EC_GRP_SECP224K1 ), "secp224k1",    "secp224k1" },
 497:Source\mbedtls_open\library/oid.c ****         MBEDTLS_ECP_DP_SECP224K1,
 498:Source\mbedtls_open\library/oid.c ****     },
 499:Source\mbedtls_open\library/oid.c **** #endif /* MBEDTLS_ECP_DP_SECP224K1_ENABLED */
 500:Source\mbedtls_open\library/oid.c **** #if defined(MBEDTLS_ECP_DP_SECP256K1_ENABLED)
 501:Source\mbedtls_open\library/oid.c ****     {
 502:Source\mbedtls_open\library/oid.c ****         { ADD_LEN( MBEDTLS_OID_EC_GRP_SECP256K1 ), "secp256k1",    "secp256k1" },
 503:Source\mbedtls_open\library/oid.c ****         MBEDTLS_ECP_DP_SECP256K1,
 504:Source\mbedtls_open\library/oid.c ****     },
 505:Source\mbedtls_open\library/oid.c **** #endif /* MBEDTLS_ECP_DP_SECP256K1_ENABLED */
 506:Source\mbedtls_open\library/oid.c **** #if defined(MBEDTLS_ECP_DP_BP256R1_ENABLED)
 507:Source\mbedtls_open\library/oid.c ****     {
 508:Source\mbedtls_open\library/oid.c ****         { ADD_LEN( MBEDTLS_OID_EC_GRP_BP256R1 ),   "brainpoolP256r1","brainpool256r1" },
 509:Source\mbedtls_open\library/oid.c ****         MBEDTLS_ECP_DP_BP256R1,
 510:Source\mbedtls_open\library/oid.c ****     },
 511:Source\mbedtls_open\library/oid.c **** #endif /* MBEDTLS_ECP_DP_BP256R1_ENABLED */
 512:Source\mbedtls_open\library/oid.c **** #if defined(MBEDTLS_ECP_DP_BP384R1_ENABLED)
 513:Source\mbedtls_open\library/oid.c ****     {
 514:Source\mbedtls_open\library/oid.c ****         { ADD_LEN( MBEDTLS_OID_EC_GRP_BP384R1 ),   "brainpoolP384r1","brainpool384r1" },
 515:Source\mbedtls_open\library/oid.c ****         MBEDTLS_ECP_DP_BP384R1,
 516:Source\mbedtls_open\library/oid.c ****     },
 517:Source\mbedtls_open\library/oid.c **** #endif /* MBEDTLS_ECP_DP_BP384R1_ENABLED */
 518:Source\mbedtls_open\library/oid.c **** #if defined(MBEDTLS_ECP_DP_BP512R1_ENABLED)
 519:Source\mbedtls_open\library/oid.c ****     {
 520:Source\mbedtls_open\library/oid.c ****         { ADD_LEN( MBEDTLS_OID_EC_GRP_BP512R1 ),   "brainpoolP512r1","brainpool512r1" },
 521:Source\mbedtls_open\library/oid.c ****         MBEDTLS_ECP_DP_BP512R1,
 522:Source\mbedtls_open\library/oid.c ****     },
 523:Source\mbedtls_open\library/oid.c **** #endif /* MBEDTLS_ECP_DP_BP512R1_ENABLED */
 524:Source\mbedtls_open\library/oid.c ****     {
 525:Source\mbedtls_open\library/oid.c ****         { NULL, 0, NULL, NULL },
 526:Source\mbedtls_open\library/oid.c ****         MBEDTLS_ECP_DP_NONE,
 527:Source\mbedtls_open\library/oid.c ****     },
 528:Source\mbedtls_open\library/oid.c **** };
 529:Source\mbedtls_open\library/oid.c **** 
 530:Source\mbedtls_open\library/oid.c **** FN_OID_TYPED_FROM_ASN1(oid_ecp_grp_t, grp_id, oid_ecp_grp)
 371              		.loc 1 530 0 is_stmt 1
 372              		.cfi_startproc
 373              		@ args = 0, pretend = 0, frame = 0
 374              		@ frame_needed = 0, uses_anonymous_args = 0
 375              	.LVL50:
 376 0000 70B5     		push	{r4, r5, r6, lr}
 377              		.cfi_def_cfa_offset 16
 378              		.cfi_offset 4, -16
 379              		.cfi_offset 5, -12
 380              		.cfi_offset 6, -8
 381              		.cfi_offset 14, -4
 382 0002 051E     		subs	r5, r0, #0
ARM GAS  C:\Users\Phuong\AppData\Local\Temp\ccOpmuD8.s 			page 17


 383              	.LVL51:
 384              		.loc 1 530 0
 385 0004 10D0     		beq	.L51
 386 0006 0A4C     		ldr	r4, .L53
 387 0008 6034     		adds	r4, r4, #96
 388 000a 09E0     		b	.L48
 389              	.LVL52:
 390              	.L50:
 391              		.loc 1 530 0 is_stmt 0 discriminator 9
 392 000c 6A68     		ldr	r2, [r5, #4]
 393 000e 6368     		ldr	r3, [r4, #4]
 394 0010 9342     		cmp	r3, r2
 395 0012 04D1     		bne	.L49
 396              		.loc 1 530 0 discriminator 4
 397 0014 A968     		ldr	r1, [r5, #8]
 398 0016 FFF7FEFF 		bl	memcmp
 399              	.LVL53:
 400 001a 0028     		cmp	r0, #0
 401 001c 06D0     		beq	.L52
 402              	.L49:
 403              		.loc 1 530 0 discriminator 7
 404 001e 1434     		adds	r4, r4, #20
 405              	.LVL54:
 406              	.L48:
 407              		.loc 1 530 0 discriminator 8
 408 0020 2068     		ldr	r0, [r4]
 409 0022 0028     		cmp	r0, #0
 410 0024 F2D1     		bne	.L50
 411 0026 02E0     		b	.L47
 412              	.LVL55:
 413              	.L51:
 414              		.loc 1 530 0
 415 0028 0020     		movs	r0, #0
 416              	.LVL56:
 417 002a 00E0     		b	.L47
 418              	.LVL57:
 419              	.L52:
 420 002c 2000     		movs	r0, r4
 421              	.LVL58:
 422              	.L47:
 423              		@ sp needed
 424              	.LVL59:
 425 002e 70BD     		pop	{r4, r5, r6, pc}
 426              	.L54:
 427              		.align	2
 428              	.L53:
 429 0030 80030000 		.word	.LANCHOR3
 430              		.cfi_endproc
 431              	.LFE24:
 432              		.size	oid_grp_id_from_asn1, .-oid_grp_id_from_asn1
 433              		.section	.text.oid_cipher_alg_from_asn1,"ax",%progbits
 434              		.align	2
 435              		.code	16
 436              		.thumb_func
 437              		.type	oid_cipher_alg_from_asn1, %function
 438              	oid_cipher_alg_from_asn1:
 439              	.LFB27:
ARM GAS  C:\Users\Phuong\AppData\Local\Temp\ccOpmuD8.s 			page 18


 531:Source\mbedtls_open\library/oid.c **** FN_OID_GET_ATTR1(mbedtls_oid_get_ec_grp, oid_ecp_grp_t, grp_id, mbedtls_ecp_group_id, grp_id)
 532:Source\mbedtls_open\library/oid.c **** FN_OID_GET_OID_BY_ATTR1(mbedtls_oid_get_oid_by_ec_grp, oid_ecp_grp_t, oid_ecp_grp, mbedtls_ecp_grou
 533:Source\mbedtls_open\library/oid.c **** #endif /* MBEDTLS_ECP_C */
 534:Source\mbedtls_open\library/oid.c **** 
 535:Source\mbedtls_open\library/oid.c **** #if defined(MBEDTLS_CIPHER_C)
 536:Source\mbedtls_open\library/oid.c **** /*
 537:Source\mbedtls_open\library/oid.c ****  * For PKCS#5 PBES2 encryption algorithm
 538:Source\mbedtls_open\library/oid.c ****  */
 539:Source\mbedtls_open\library/oid.c **** typedef struct {
 540:Source\mbedtls_open\library/oid.c ****     mbedtls_oid_descriptor_t    descriptor;
 541:Source\mbedtls_open\library/oid.c ****     mbedtls_cipher_type_t       cipher_alg;
 542:Source\mbedtls_open\library/oid.c **** } oid_cipher_alg_t;
 543:Source\mbedtls_open\library/oid.c **** 
 544:Source\mbedtls_open\library/oid.c **** static const oid_cipher_alg_t oid_cipher_alg[] =
 545:Source\mbedtls_open\library/oid.c **** {
 546:Source\mbedtls_open\library/oid.c ****     {
 547:Source\mbedtls_open\library/oid.c ****         { ADD_LEN( MBEDTLS_OID_DES_CBC ),              "desCBC",       "DES-CBC" },
 548:Source\mbedtls_open\library/oid.c ****         MBEDTLS_CIPHER_DES_CBC,
 549:Source\mbedtls_open\library/oid.c ****     },
 550:Source\mbedtls_open\library/oid.c ****     {
 551:Source\mbedtls_open\library/oid.c ****         { ADD_LEN( MBEDTLS_OID_DES_EDE3_CBC ),         "des-ede3-cbc", "DES-EDE3-CBC" },
 552:Source\mbedtls_open\library/oid.c ****         MBEDTLS_CIPHER_DES_EDE3_CBC,
 553:Source\mbedtls_open\library/oid.c ****     },
 554:Source\mbedtls_open\library/oid.c ****     {
 555:Source\mbedtls_open\library/oid.c ****         { NULL, 0, NULL, NULL },
 556:Source\mbedtls_open\library/oid.c ****         MBEDTLS_CIPHER_NONE,
 557:Source\mbedtls_open\library/oid.c ****     },
 558:Source\mbedtls_open\library/oid.c **** };
 559:Source\mbedtls_open\library/oid.c **** 
 560:Source\mbedtls_open\library/oid.c **** FN_OID_TYPED_FROM_ASN1(oid_cipher_alg_t, cipher_alg, oid_cipher_alg)
 440              		.loc 1 560 0 is_stmt 1
 441              		.cfi_startproc
 442              		@ args = 0, pretend = 0, frame = 0
 443              		@ frame_needed = 0, uses_anonymous_args = 0
 444              	.LVL60:
 445 0000 70B5     		push	{r4, r5, r6, lr}
 446              		.cfi_def_cfa_offset 16
 447              		.cfi_offset 4, -16
 448              		.cfi_offset 5, -12
 449              		.cfi_offset 6, -8
 450              		.cfi_offset 14, -4
 451 0002 051E     		subs	r5, r0, #0
 452              	.LVL61:
 453              		.loc 1 560 0
 454 0004 10D0     		beq	.L60
 455 0006 0A4C     		ldr	r4, .L62
 456 0008 5034     		adds	r4, r4, #80
 457 000a 09E0     		b	.L57
 458              	.LVL62:
 459              	.L59:
 460              		.loc 1 560 0 is_stmt 0 discriminator 9
 461 000c 6A68     		ldr	r2, [r5, #4]
 462 000e 6368     		ldr	r3, [r4, #4]
 463 0010 9342     		cmp	r3, r2
 464 0012 04D1     		bne	.L58
 465              		.loc 1 560 0 discriminator 4
 466 0014 A968     		ldr	r1, [r5, #8]
ARM GAS  C:\Users\Phuong\AppData\Local\Temp\ccOpmuD8.s 			page 19


 467 0016 FFF7FEFF 		bl	memcmp
 468              	.LVL63:
 469 001a 0028     		cmp	r0, #0
 470 001c 06D0     		beq	.L61
 471              	.L58:
 472              		.loc 1 560 0 discriminator 7
 473 001e 1434     		adds	r4, r4, #20
 474              	.LVL64:
 475              	.L57:
 476              		.loc 1 560 0 discriminator 8
 477 0020 2068     		ldr	r0, [r4]
 478 0022 0028     		cmp	r0, #0
 479 0024 F2D1     		bne	.L59
 480 0026 02E0     		b	.L56
 481              	.LVL65:
 482              	.L60:
 483              		.loc 1 560 0
 484 0028 0020     		movs	r0, #0
 485              	.LVL66:
 486 002a 00E0     		b	.L56
 487              	.LVL67:
 488              	.L61:
 489 002c 2000     		movs	r0, r4
 490              	.LVL68:
 491              	.L56:
 492              		@ sp needed
 493              	.LVL69:
 494 002e 70BD     		pop	{r4, r5, r6, pc}
 495              	.L63:
 496              		.align	2
 497              	.L62:
 498 0030 80040000 		.word	.LANCHOR4
 499              		.cfi_endproc
 500              	.LFE27:
 501              		.size	oid_cipher_alg_from_asn1, .-oid_cipher_alg_from_asn1
 502              		.section	.text.oid_md_alg_from_asn1,"ax",%progbits
 503              		.align	2
 504              		.code	16
 505              		.thumb_func
 506              		.type	oid_md_alg_from_asn1, %function
 507              	oid_md_alg_from_asn1:
 508              	.LFB29:
 561:Source\mbedtls_open\library/oid.c **** FN_OID_GET_ATTR1(mbedtls_oid_get_cipher_alg, oid_cipher_alg_t, cipher_alg, mbedtls_cipher_type_t, c
 562:Source\mbedtls_open\library/oid.c **** #endif /* MBEDTLS_CIPHER_C */
 563:Source\mbedtls_open\library/oid.c **** 
 564:Source\mbedtls_open\library/oid.c **** #if defined(MBEDTLS_MD_C)
 565:Source\mbedtls_open\library/oid.c **** /*
 566:Source\mbedtls_open\library/oid.c ****  * For digestAlgorithm
 567:Source\mbedtls_open\library/oid.c ****  */
 568:Source\mbedtls_open\library/oid.c **** typedef struct {
 569:Source\mbedtls_open\library/oid.c ****     mbedtls_oid_descriptor_t    descriptor;
 570:Source\mbedtls_open\library/oid.c ****     mbedtls_md_type_t           md_alg;
 571:Source\mbedtls_open\library/oid.c **** } oid_md_alg_t;
 572:Source\mbedtls_open\library/oid.c **** 
 573:Source\mbedtls_open\library/oid.c **** static const oid_md_alg_t oid_md_alg[] =
 574:Source\mbedtls_open\library/oid.c **** {
 575:Source\mbedtls_open\library/oid.c **** #if defined(MBEDTLS_MD2_C)
ARM GAS  C:\Users\Phuong\AppData\Local\Temp\ccOpmuD8.s 			page 20


 576:Source\mbedtls_open\library/oid.c ****     {
 577:Source\mbedtls_open\library/oid.c ****         { ADD_LEN( MBEDTLS_OID_DIGEST_ALG_MD2 ),       "id-md2",       "MD2" },
 578:Source\mbedtls_open\library/oid.c ****         MBEDTLS_MD_MD2,
 579:Source\mbedtls_open\library/oid.c ****     },
 580:Source\mbedtls_open\library/oid.c **** #endif /* MBEDTLS_MD2_C */
 581:Source\mbedtls_open\library/oid.c **** #if defined(MBEDTLS_MD4_C)
 582:Source\mbedtls_open\library/oid.c ****     {
 583:Source\mbedtls_open\library/oid.c ****         { ADD_LEN( MBEDTLS_OID_DIGEST_ALG_MD4 ),       "id-md4",       "MD4" },
 584:Source\mbedtls_open\library/oid.c ****         MBEDTLS_MD_MD4,
 585:Source\mbedtls_open\library/oid.c ****     },
 586:Source\mbedtls_open\library/oid.c **** #endif /* MBEDTLS_MD4_C */
 587:Source\mbedtls_open\library/oid.c **** #if defined(MBEDTLS_MD5_C)
 588:Source\mbedtls_open\library/oid.c ****     {
 589:Source\mbedtls_open\library/oid.c ****         { ADD_LEN( MBEDTLS_OID_DIGEST_ALG_MD5 ),       "id-md5",       "MD5" },
 590:Source\mbedtls_open\library/oid.c ****         MBEDTLS_MD_MD5,
 591:Source\mbedtls_open\library/oid.c ****     },
 592:Source\mbedtls_open\library/oid.c **** #endif /* MBEDTLS_MD5_C */
 593:Source\mbedtls_open\library/oid.c **** #if defined(MBEDTLS_SHA1_C)
 594:Source\mbedtls_open\library/oid.c ****     {
 595:Source\mbedtls_open\library/oid.c ****         { ADD_LEN( MBEDTLS_OID_DIGEST_ALG_SHA1 ),      "id-sha1",      "SHA-1" },
 596:Source\mbedtls_open\library/oid.c ****         MBEDTLS_MD_SHA1,
 597:Source\mbedtls_open\library/oid.c ****     },
 598:Source\mbedtls_open\library/oid.c **** #endif /* MBEDTLS_SHA1_C */
 599:Source\mbedtls_open\library/oid.c **** #if defined(MBEDTLS_SHA256_C)
 600:Source\mbedtls_open\library/oid.c ****     {
 601:Source\mbedtls_open\library/oid.c ****         { ADD_LEN( MBEDTLS_OID_DIGEST_ALG_SHA224 ),    "id-sha224",    "SHA-224" },
 602:Source\mbedtls_open\library/oid.c ****         MBEDTLS_MD_SHA224,
 603:Source\mbedtls_open\library/oid.c ****     },
 604:Source\mbedtls_open\library/oid.c ****     {
 605:Source\mbedtls_open\library/oid.c ****         { ADD_LEN( MBEDTLS_OID_DIGEST_ALG_SHA256 ),    "id-sha256",    "SHA-256" },
 606:Source\mbedtls_open\library/oid.c ****         MBEDTLS_MD_SHA256,
 607:Source\mbedtls_open\library/oid.c ****     },
 608:Source\mbedtls_open\library/oid.c **** #endif /* MBEDTLS_SHA256_C */
 609:Source\mbedtls_open\library/oid.c **** #if defined(MBEDTLS_SHA512_C)
 610:Source\mbedtls_open\library/oid.c ****     {
 611:Source\mbedtls_open\library/oid.c ****         { ADD_LEN( MBEDTLS_OID_DIGEST_ALG_SHA384 ),    "id-sha384",    "SHA-384" },
 612:Source\mbedtls_open\library/oid.c ****         MBEDTLS_MD_SHA384,
 613:Source\mbedtls_open\library/oid.c ****     },
 614:Source\mbedtls_open\library/oid.c ****     {
 615:Source\mbedtls_open\library/oid.c ****         { ADD_LEN( MBEDTLS_OID_DIGEST_ALG_SHA512 ),    "id-sha512",    "SHA-512" },
 616:Source\mbedtls_open\library/oid.c ****         MBEDTLS_MD_SHA512,
 617:Source\mbedtls_open\library/oid.c ****     },
 618:Source\mbedtls_open\library/oid.c **** #endif /* MBEDTLS_SHA512_C */
 619:Source\mbedtls_open\library/oid.c ****     {
 620:Source\mbedtls_open\library/oid.c ****         { NULL, 0, NULL, NULL },
 621:Source\mbedtls_open\library/oid.c ****         MBEDTLS_MD_NONE,
 622:Source\mbedtls_open\library/oid.c ****     },
 623:Source\mbedtls_open\library/oid.c **** };
 624:Source\mbedtls_open\library/oid.c **** 
 625:Source\mbedtls_open\library/oid.c **** FN_OID_TYPED_FROM_ASN1(oid_md_alg_t, md_alg, oid_md_alg)
 509              		.loc 1 625 0 is_stmt 1
 510              		.cfi_startproc
 511              		@ args = 0, pretend = 0, frame = 0
 512              		@ frame_needed = 0, uses_anonymous_args = 0
 513              	.LVL70:
 514 0000 70B5     		push	{r4, r5, r6, lr}
 515              		.cfi_def_cfa_offset 16
ARM GAS  C:\Users\Phuong\AppData\Local\Temp\ccOpmuD8.s 			page 21


 516              		.cfi_offset 4, -16
 517              		.cfi_offset 5, -12
 518              		.cfi_offset 6, -8
 519              		.cfi_offset 14, -4
 520 0002 051E     		subs	r5, r0, #0
 521              	.LVL71:
 522              		.loc 1 625 0
 523 0004 10D0     		beq	.L69
 524 0006 0A4C     		ldr	r4, .L71
 525 0008 0C34     		adds	r4, r4, #12
 526 000a 09E0     		b	.L66
 527              	.LVL72:
 528              	.L68:
 529              		.loc 1 625 0 is_stmt 0 discriminator 9
 530 000c 6A68     		ldr	r2, [r5, #4]
 531 000e 6368     		ldr	r3, [r4, #4]
 532 0010 9342     		cmp	r3, r2
 533 0012 04D1     		bne	.L67
 534              		.loc 1 625 0 discriminator 4
 535 0014 A968     		ldr	r1, [r5, #8]
 536 0016 FFF7FEFF 		bl	memcmp
 537              	.LVL73:
 538 001a 0028     		cmp	r0, #0
 539 001c 06D0     		beq	.L70
 540              	.L67:
 541              		.loc 1 625 0 discriminator 7
 542 001e 1434     		adds	r4, r4, #20
 543              	.LVL74:
 544              	.L66:
 545              		.loc 1 625 0 discriminator 8
 546 0020 2068     		ldr	r0, [r4]
 547 0022 0028     		cmp	r0, #0
 548 0024 F2D1     		bne	.L68
 549 0026 02E0     		b	.L65
 550              	.LVL75:
 551              	.L69:
 552              		.loc 1 625 0
 553 0028 0020     		movs	r0, #0
 554              	.LVL76:
 555 002a 00E0     		b	.L65
 556              	.LVL77:
 557              	.L70:
 558 002c 2000     		movs	r0, r4
 559              	.LVL78:
 560              	.L65:
 561              		@ sp needed
 562              	.LVL79:
 563 002e 70BD     		pop	{r4, r5, r6, pc}
 564              	.L72:
 565              		.align	2
 566              	.L71:
 567 0030 00050000 		.word	.LANCHOR5
 568              		.cfi_endproc
 569              	.LFE29:
 570              		.size	oid_md_alg_from_asn1, .-oid_md_alg_from_asn1
 571              		.section	.text.oid_md_hmac_from_asn1,"ax",%progbits
 572              		.align	2
ARM GAS  C:\Users\Phuong\AppData\Local\Temp\ccOpmuD8.s 			page 22


 573              		.code	16
 574              		.thumb_func
 575              		.type	oid_md_hmac_from_asn1, %function
 576              	oid_md_hmac_from_asn1:
 577              	.LFB32:
 626:Source\mbedtls_open\library/oid.c **** FN_OID_GET_ATTR1(mbedtls_oid_get_md_alg, oid_md_alg_t, md_alg, mbedtls_md_type_t, md_alg)
 627:Source\mbedtls_open\library/oid.c **** FN_OID_GET_OID_BY_ATTR1(mbedtls_oid_get_oid_by_md, oid_md_alg_t, oid_md_alg, mbedtls_md_type_t, md_
 628:Source\mbedtls_open\library/oid.c **** 
 629:Source\mbedtls_open\library/oid.c **** /*
 630:Source\mbedtls_open\library/oid.c ****  * For HMAC digestAlgorithm
 631:Source\mbedtls_open\library/oid.c ****  */
 632:Source\mbedtls_open\library/oid.c **** typedef struct {
 633:Source\mbedtls_open\library/oid.c ****     mbedtls_oid_descriptor_t    descriptor;
 634:Source\mbedtls_open\library/oid.c ****     mbedtls_md_type_t           md_hmac;
 635:Source\mbedtls_open\library/oid.c **** } oid_md_hmac_t;
 636:Source\mbedtls_open\library/oid.c **** 
 637:Source\mbedtls_open\library/oid.c **** static const oid_md_hmac_t oid_md_hmac[] =
 638:Source\mbedtls_open\library/oid.c **** {
 639:Source\mbedtls_open\library/oid.c **** #if defined(MBEDTLS_SHA1_C)
 640:Source\mbedtls_open\library/oid.c ****     {
 641:Source\mbedtls_open\library/oid.c ****         { ADD_LEN( MBEDTLS_OID_HMAC_SHA1 ),      "hmacSHA1",      "HMAC-SHA-1" },
 642:Source\mbedtls_open\library/oid.c ****         MBEDTLS_MD_SHA1,
 643:Source\mbedtls_open\library/oid.c ****     },
 644:Source\mbedtls_open\library/oid.c **** #endif /* MBEDTLS_SHA1_C */
 645:Source\mbedtls_open\library/oid.c **** #if defined(MBEDTLS_SHA256_C)
 646:Source\mbedtls_open\library/oid.c ****     {
 647:Source\mbedtls_open\library/oid.c ****         { ADD_LEN( MBEDTLS_OID_HMAC_SHA224 ),    "hmacSHA224",    "HMAC-SHA-224" },
 648:Source\mbedtls_open\library/oid.c ****         MBEDTLS_MD_SHA224,
 649:Source\mbedtls_open\library/oid.c ****     },
 650:Source\mbedtls_open\library/oid.c ****     {
 651:Source\mbedtls_open\library/oid.c ****         { ADD_LEN( MBEDTLS_OID_HMAC_SHA256 ),    "hmacSHA256",    "HMAC-SHA-256" },
 652:Source\mbedtls_open\library/oid.c ****         MBEDTLS_MD_SHA256,
 653:Source\mbedtls_open\library/oid.c ****     },
 654:Source\mbedtls_open\library/oid.c **** #endif /* MBEDTLS_SHA256_C */
 655:Source\mbedtls_open\library/oid.c **** #if defined(MBEDTLS_SHA512_C)
 656:Source\mbedtls_open\library/oid.c ****     {
 657:Source\mbedtls_open\library/oid.c ****         { ADD_LEN( MBEDTLS_OID_HMAC_SHA384 ),    "hmacSHA384",    "HMAC-SHA-384" },
 658:Source\mbedtls_open\library/oid.c ****         MBEDTLS_MD_SHA384,
 659:Source\mbedtls_open\library/oid.c ****     },
 660:Source\mbedtls_open\library/oid.c ****     {
 661:Source\mbedtls_open\library/oid.c ****         { ADD_LEN( MBEDTLS_OID_HMAC_SHA512 ),    "hmacSHA512",    "HMAC-SHA-512" },
 662:Source\mbedtls_open\library/oid.c ****         MBEDTLS_MD_SHA512,
 663:Source\mbedtls_open\library/oid.c ****     },
 664:Source\mbedtls_open\library/oid.c **** #endif /* MBEDTLS_SHA512_C */
 665:Source\mbedtls_open\library/oid.c ****     {
 666:Source\mbedtls_open\library/oid.c ****         { NULL, 0, NULL, NULL },
 667:Source\mbedtls_open\library/oid.c ****         MBEDTLS_MD_NONE,
 668:Source\mbedtls_open\library/oid.c ****     },
 669:Source\mbedtls_open\library/oid.c **** };
 670:Source\mbedtls_open\library/oid.c **** 
 671:Source\mbedtls_open\library/oid.c **** FN_OID_TYPED_FROM_ASN1(oid_md_hmac_t, md_hmac, oid_md_hmac)
 578              		.loc 1 671 0 is_stmt 1
 579              		.cfi_startproc
 580              		@ args = 0, pretend = 0, frame = 0
 581              		@ frame_needed = 0, uses_anonymous_args = 0
 582              	.LVL80:
 583 0000 70B5     		push	{r4, r5, r6, lr}
ARM GAS  C:\Users\Phuong\AppData\Local\Temp\ccOpmuD8.s 			page 23


 584              		.cfi_def_cfa_offset 16
 585              		.cfi_offset 4, -16
 586              		.cfi_offset 5, -12
 587              		.cfi_offset 6, -8
 588              		.cfi_offset 14, -4
 589 0002 051E     		subs	r5, r0, #0
 590              	.LVL81:
 591              		.loc 1 671 0
 592 0004 10D0     		beq	.L78
 593 0006 0A4C     		ldr	r4, .L80
 594 0008 1834     		adds	r4, r4, #24
 595 000a 09E0     		b	.L75
 596              	.LVL82:
 597              	.L77:
 598              		.loc 1 671 0 is_stmt 0 discriminator 9
 599 000c 6A68     		ldr	r2, [r5, #4]
 600 000e 6368     		ldr	r3, [r4, #4]
 601 0010 9342     		cmp	r3, r2
 602 0012 04D1     		bne	.L76
 603              		.loc 1 671 0 discriminator 4
 604 0014 A968     		ldr	r1, [r5, #8]
 605 0016 FFF7FEFF 		bl	memcmp
 606              	.LVL83:
 607 001a 0028     		cmp	r0, #0
 608 001c 06D0     		beq	.L79
 609              	.L76:
 610              		.loc 1 671 0 discriminator 7
 611 001e 1434     		adds	r4, r4, #20
 612              	.LVL84:
 613              	.L75:
 614              		.loc 1 671 0 discriminator 8
 615 0020 2068     		ldr	r0, [r4]
 616 0022 0028     		cmp	r0, #0
 617 0024 F2D1     		bne	.L77
 618 0026 02E0     		b	.L74
 619              	.LVL85:
 620              	.L78:
 621              		.loc 1 671 0
 622 0028 0020     		movs	r0, #0
 623              	.LVL86:
 624 002a 00E0     		b	.L74
 625              	.LVL87:
 626              	.L79:
 627 002c 2000     		movs	r0, r4
 628              	.LVL88:
 629              	.L74:
 630              		@ sp needed
 631              	.LVL89:
 632 002e 70BD     		pop	{r4, r5, r6, pc}
 633              	.L81:
 634              		.align	2
 635              	.L80:
 636 0030 80050000 		.word	.LANCHOR6
 637              		.cfi_endproc
 638              	.LFE32:
 639              		.size	oid_md_hmac_from_asn1, .-oid_md_hmac_from_asn1
 640              		.section	.text.oid_pkcs12_pbe_alg_from_asn1,"ax",%progbits
ARM GAS  C:\Users\Phuong\AppData\Local\Temp\ccOpmuD8.s 			page 24


 641              		.align	2
 642              		.code	16
 643              		.thumb_func
 644              		.type	oid_pkcs12_pbe_alg_from_asn1, %function
 645              	oid_pkcs12_pbe_alg_from_asn1:
 646              	.LFB34:
 672:Source\mbedtls_open\library/oid.c **** FN_OID_GET_ATTR1(mbedtls_oid_get_md_hmac, oid_md_hmac_t, md_hmac, mbedtls_md_type_t, md_hmac)
 673:Source\mbedtls_open\library/oid.c **** #endif /* MBEDTLS_MD_C */
 674:Source\mbedtls_open\library/oid.c **** 
 675:Source\mbedtls_open\library/oid.c **** #if defined(MBEDTLS_PKCS12_C)
 676:Source\mbedtls_open\library/oid.c **** /*
 677:Source\mbedtls_open\library/oid.c ****  * For PKCS#12 PBEs
 678:Source\mbedtls_open\library/oid.c ****  */
 679:Source\mbedtls_open\library/oid.c **** typedef struct {
 680:Source\mbedtls_open\library/oid.c ****     mbedtls_oid_descriptor_t    descriptor;
 681:Source\mbedtls_open\library/oid.c ****     mbedtls_md_type_t           md_alg;
 682:Source\mbedtls_open\library/oid.c ****     mbedtls_cipher_type_t       cipher_alg;
 683:Source\mbedtls_open\library/oid.c **** } oid_pkcs12_pbe_alg_t;
 684:Source\mbedtls_open\library/oid.c **** 
 685:Source\mbedtls_open\library/oid.c **** static const oid_pkcs12_pbe_alg_t oid_pkcs12_pbe_alg[] =
 686:Source\mbedtls_open\library/oid.c **** {
 687:Source\mbedtls_open\library/oid.c ****     {
 688:Source\mbedtls_open\library/oid.c ****         { ADD_LEN( MBEDTLS_OID_PKCS12_PBE_SHA1_DES3_EDE_CBC ), "pbeWithSHAAnd3-KeyTripleDES-CBC", "
 689:Source\mbedtls_open\library/oid.c ****         MBEDTLS_MD_SHA1,      MBEDTLS_CIPHER_DES_EDE3_CBC,
 690:Source\mbedtls_open\library/oid.c ****     },
 691:Source\mbedtls_open\library/oid.c ****     {
 692:Source\mbedtls_open\library/oid.c ****         { ADD_LEN( MBEDTLS_OID_PKCS12_PBE_SHA1_DES2_EDE_CBC ), "pbeWithSHAAnd2-KeyTripleDES-CBC", "
 693:Source\mbedtls_open\library/oid.c ****         MBEDTLS_MD_SHA1,      MBEDTLS_CIPHER_DES_EDE_CBC,
 694:Source\mbedtls_open\library/oid.c ****     },
 695:Source\mbedtls_open\library/oid.c ****     {
 696:Source\mbedtls_open\library/oid.c ****         { NULL, 0, NULL, NULL },
 697:Source\mbedtls_open\library/oid.c ****         MBEDTLS_MD_NONE, MBEDTLS_CIPHER_NONE,
 698:Source\mbedtls_open\library/oid.c ****     },
 699:Source\mbedtls_open\library/oid.c **** };
 700:Source\mbedtls_open\library/oid.c **** 
 701:Source\mbedtls_open\library/oid.c **** FN_OID_TYPED_FROM_ASN1(oid_pkcs12_pbe_alg_t, pkcs12_pbe_alg, oid_pkcs12_pbe_alg)
 647              		.loc 1 701 0 is_stmt 1
 648              		.cfi_startproc
 649              		@ args = 0, pretend = 0, frame = 0
 650              		@ frame_needed = 0, uses_anonymous_args = 0
 651              	.LVL90:
 652 0000 70B5     		push	{r4, r5, r6, lr}
 653              		.cfi_def_cfa_offset 16
 654              		.cfi_offset 4, -16
 655              		.cfi_offset 5, -12
 656              		.cfi_offset 6, -8
 657              		.cfi_offset 14, -4
 658 0002 051E     		subs	r5, r0, #0
 659              	.LVL91:
 660              		.loc 1 701 0
 661 0004 10D0     		beq	.L87
 662 0006 0A4C     		ldr	r4, .L89
 663 0008 1034     		adds	r4, r4, #16
 664 000a 09E0     		b	.L84
 665              	.LVL92:
 666              	.L86:
 667              		.loc 1 701 0 is_stmt 0 discriminator 9
ARM GAS  C:\Users\Phuong\AppData\Local\Temp\ccOpmuD8.s 			page 25


 668 000c 6A68     		ldr	r2, [r5, #4]
 669 000e 6368     		ldr	r3, [r4, #4]
 670 0010 9342     		cmp	r3, r2
 671 0012 04D1     		bne	.L85
 672              		.loc 1 701 0 discriminator 4
 673 0014 A968     		ldr	r1, [r5, #8]
 674 0016 FFF7FEFF 		bl	memcmp
 675              	.LVL93:
 676 001a 0028     		cmp	r0, #0
 677 001c 06D0     		beq	.L88
 678              	.L85:
 679              		.loc 1 701 0 discriminator 7
 680 001e 1434     		adds	r4, r4, #20
 681              	.LVL94:
 682              	.L84:
 683              		.loc 1 701 0 discriminator 8
 684 0020 2068     		ldr	r0, [r4]
 685 0022 0028     		cmp	r0, #0
 686 0024 F2D1     		bne	.L86
 687 0026 02E0     		b	.L83
 688              	.LVL95:
 689              	.L87:
 690              		.loc 1 701 0
 691 0028 0020     		movs	r0, #0
 692              	.LVL96:
 693 002a 00E0     		b	.L83
 694              	.LVL97:
 695              	.L88:
 696 002c 2000     		movs	r0, r4
 697              	.LVL98:
 698              	.L83:
 699              		@ sp needed
 700              	.LVL99:
 701 002e 70BD     		pop	{r4, r5, r6, pc}
 702              	.L90:
 703              		.align	2
 704              	.L89:
 705 0030 00060000 		.word	.LANCHOR7
 706              		.cfi_endproc
 707              	.LFE34:
 708              		.size	oid_pkcs12_pbe_alg_from_asn1, .-oid_pkcs12_pbe_alg_from_asn1
 709              		.section	.text.mbedtls_oid_get_attr_short_name,"ax",%progbits
 710              		.align	2
 711              		.global	mbedtls_oid_get_attr_short_name
 712              		.code	16
 713              		.thumb_func
 714              		.type	mbedtls_oid_get_attr_short_name, %function
 715              	mbedtls_oid_get_attr_short_name:
 716              	.LFB12:
 249:Source\mbedtls_open\library/oid.c **** 
 717              		.loc 1 249 0 is_stmt 1
 718              		.cfi_startproc
 719              		@ args = 0, pretend = 0, frame = 0
 720              		@ frame_needed = 0, uses_anonymous_args = 0
 721              	.LVL100:
 722 0000 10B5     		push	{r4, lr}
 723              		.cfi_def_cfa_offset 8
ARM GAS  C:\Users\Phuong\AppData\Local\Temp\ccOpmuD8.s 			page 26


 724              		.cfi_offset 4, -8
 725              		.cfi_offset 14, -4
 726 0002 0C00     		movs	r4, r1
 249:Source\mbedtls_open\library/oid.c **** 
 727              		.loc 1 249 0
 728 0004 FFF7FEFF 		bl	oid_x520_attr_from_asn1
 729              	.LVL101:
 730 0008 0028     		cmp	r0, #0
 731 000a 03D0     		beq	.L93
 249:Source\mbedtls_open\library/oid.c **** 
 732              		.loc 1 249 0 is_stmt 0 discriminator 2
 733 000c 0369     		ldr	r3, [r0, #16]
 734 000e 2360     		str	r3, [r4]
 735 0010 0020     		movs	r0, #0
 736              	.LVL102:
 737 0012 01E0     		b	.L92
 738              	.LVL103:
 739              	.L93:
 249:Source\mbedtls_open\library/oid.c **** 
 740              		.loc 1 249 0
 741 0014 2E20     		movs	r0, #46
 742              	.LVL104:
 743 0016 4042     		rsbs	r0, r0, #0
 744              	.L92:
 745              		@ sp needed
 746              	.LVL105:
 747 0018 10BD     		pop	{r4, pc}
 748              		.cfi_endproc
 749              	.LFE12:
 750              		.size	mbedtls_oid_get_attr_short_name, .-mbedtls_oid_get_attr_short_name
 751 001a C046     		.section	.text.mbedtls_oid_get_x509_ext_type,"ax",%progbits
 752              		.align	2
 753              		.global	mbedtls_oid_get_x509_ext_type
 754              		.code	16
 755              		.thumb_func
 756              		.type	mbedtls_oid_get_x509_ext_type, %function
 757              	mbedtls_oid_get_x509_ext_type:
 758              	.LFB14:
 288:Source\mbedtls_open\library/oid.c **** 
 759              		.loc 1 288 0 is_stmt 1
 760              		.cfi_startproc
 761              		@ args = 0, pretend = 0, frame = 0
 762              		@ frame_needed = 0, uses_anonymous_args = 0
 763              	.LVL106:
 764 0000 10B5     		push	{r4, lr}
 765              		.cfi_def_cfa_offset 8
 766              		.cfi_offset 4, -8
 767              		.cfi_offset 14, -4
 768 0002 0C00     		movs	r4, r1
 288:Source\mbedtls_open\library/oid.c **** 
 769              		.loc 1 288 0
 770 0004 FFF7FEFF 		bl	oid_x509_ext_from_asn1
 771              	.LVL107:
 772 0008 0028     		cmp	r0, #0
 773 000a 03D0     		beq	.L96
 288:Source\mbedtls_open\library/oid.c **** 
 774              		.loc 1 288 0 is_stmt 0 discriminator 2
ARM GAS  C:\Users\Phuong\AppData\Local\Temp\ccOpmuD8.s 			page 27


 775 000c 0369     		ldr	r3, [r0, #16]
 776 000e 2360     		str	r3, [r4]
 777 0010 0020     		movs	r0, #0
 778              	.LVL108:
 779 0012 01E0     		b	.L95
 780              	.LVL109:
 781              	.L96:
 288:Source\mbedtls_open\library/oid.c **** 
 782              		.loc 1 288 0
 783 0014 2E20     		movs	r0, #46
 784              	.LVL110:
 785 0016 4042     		rsbs	r0, r0, #0
 786              	.L95:
 787              		@ sp needed
 788              	.LVL111:
 789 0018 10BD     		pop	{r4, pc}
 790              		.cfi_endproc
 791              	.LFE14:
 792              		.size	mbedtls_oid_get_x509_ext_type, .-mbedtls_oid_get_x509_ext_type
 793 001a C046     		.section	.text.mbedtls_oid_get_extended_key_usage,"ax",%progbits
 794              		.align	2
 795              		.global	mbedtls_oid_get_extended_key_usage
 796              		.code	16
 797              		.thumb_func
 798              		.type	mbedtls_oid_get_extended_key_usage, %function
 799              	mbedtls_oid_get_extended_key_usage:
 800              	.LFB16:
 302:Source\mbedtls_open\library/oid.c **** #endif /* MBEDTLS_X509_USE_C || MBEDTLS_X509_CREATE_C */
 801              		.loc 1 302 0 is_stmt 1
 802              		.cfi_startproc
 803              		@ args = 0, pretend = 0, frame = 0
 804              		@ frame_needed = 0, uses_anonymous_args = 0
 805              	.LVL112:
 806 0000 10B5     		push	{r4, lr}
 807              		.cfi_def_cfa_offset 8
 808              		.cfi_offset 4, -8
 809              		.cfi_offset 14, -4
 810 0002 0C00     		movs	r4, r1
 302:Source\mbedtls_open\library/oid.c **** #endif /* MBEDTLS_X509_USE_C || MBEDTLS_X509_CREATE_C */
 811              		.loc 1 302 0
 812 0004 FFF7FEFF 		bl	oid_ext_key_usage_from_asn1
 813              	.LVL113:
 814 0008 0028     		cmp	r0, #0
 815 000a 03D0     		beq	.L99
 302:Source\mbedtls_open\library/oid.c **** #endif /* MBEDTLS_X509_USE_C || MBEDTLS_X509_CREATE_C */
 816              		.loc 1 302 0 is_stmt 0 discriminator 2
 817 000c C368     		ldr	r3, [r0, #12]
 818 000e 2360     		str	r3, [r4]
 819 0010 0020     		movs	r0, #0
 820              	.LVL114:
 821 0012 01E0     		b	.L98
 822              	.LVL115:
 823              	.L99:
 302:Source\mbedtls_open\library/oid.c **** #endif /* MBEDTLS_X509_USE_C || MBEDTLS_X509_CREATE_C */
 824              		.loc 1 302 0
 825 0014 2E20     		movs	r0, #46
 826              	.LVL116:
ARM GAS  C:\Users\Phuong\AppData\Local\Temp\ccOpmuD8.s 			page 28


 827 0016 4042     		rsbs	r0, r0, #0
 828              	.L98:
 829              		@ sp needed
 830              	.LVL117:
 831 0018 10BD     		pop	{r4, pc}
 832              		.cfi_endproc
 833              	.LFE16:
 834              		.size	mbedtls_oid_get_extended_key_usage, .-mbedtls_oid_get_extended_key_usage
 835 001a C046     		.section	.text.mbedtls_oid_get_sig_alg_desc,"ax",%progbits
 836              		.align	2
 837              		.global	mbedtls_oid_get_sig_alg_desc
 838              		.code	16
 839              		.thumb_func
 840              		.type	mbedtls_oid_get_sig_alg_desc, %function
 841              	mbedtls_oid_get_sig_alg_desc:
 842              	.LFB18:
 410:Source\mbedtls_open\library/oid.c **** FN_OID_GET_ATTR2(mbedtls_oid_get_sig_alg, oid_sig_alg_t, sig_alg, mbedtls_md_type_t, md_alg, mbedtl
 843              		.loc 1 410 0 is_stmt 1
 844              		.cfi_startproc
 845              		@ args = 0, pretend = 0, frame = 0
 846              		@ frame_needed = 0, uses_anonymous_args = 0
 847              	.LVL118:
 848 0000 10B5     		push	{r4, lr}
 849              		.cfi_def_cfa_offset 8
 850              		.cfi_offset 4, -8
 851              		.cfi_offset 14, -4
 852 0002 0C00     		movs	r4, r1
 410:Source\mbedtls_open\library/oid.c **** FN_OID_GET_ATTR2(mbedtls_oid_get_sig_alg, oid_sig_alg_t, sig_alg, mbedtls_md_type_t, md_alg, mbedtl
 853              		.loc 1 410 0
 854 0004 FFF7FEFF 		bl	oid_sig_alg_from_asn1
 855              	.LVL119:
 856 0008 0028     		cmp	r0, #0
 857 000a 03D0     		beq	.L102
 410:Source\mbedtls_open\library/oid.c **** FN_OID_GET_ATTR2(mbedtls_oid_get_sig_alg, oid_sig_alg_t, sig_alg, mbedtls_md_type_t, md_alg, mbedtl
 858              		.loc 1 410 0 is_stmt 0 discriminator 2
 859 000c C368     		ldr	r3, [r0, #12]
 860 000e 2360     		str	r3, [r4]
 861 0010 0020     		movs	r0, #0
 862              	.LVL120:
 863 0012 01E0     		b	.L101
 864              	.LVL121:
 865              	.L102:
 410:Source\mbedtls_open\library/oid.c **** FN_OID_GET_ATTR2(mbedtls_oid_get_sig_alg, oid_sig_alg_t, sig_alg, mbedtls_md_type_t, md_alg, mbedtl
 866              		.loc 1 410 0
 867 0014 2E20     		movs	r0, #46
 868              	.LVL122:
 869 0016 4042     		rsbs	r0, r0, #0
 870              	.L101:
 871              		@ sp needed
 872              	.LVL123:
 873 0018 10BD     		pop	{r4, pc}
 874              		.cfi_endproc
 875              	.LFE18:
 876              		.size	mbedtls_oid_get_sig_alg_desc, .-mbedtls_oid_get_sig_alg_desc
 877 001a C046     		.section	.text.mbedtls_oid_get_sig_alg,"ax",%progbits
 878              		.align	2
 879              		.global	mbedtls_oid_get_sig_alg
ARM GAS  C:\Users\Phuong\AppData\Local\Temp\ccOpmuD8.s 			page 29


 880              		.code	16
 881              		.thumb_func
 882              		.type	mbedtls_oid_get_sig_alg, %function
 883              	mbedtls_oid_get_sig_alg:
 884              	.LFB19:
 411:Source\mbedtls_open\library/oid.c **** FN_OID_GET_OID_BY_ATTR2(mbedtls_oid_get_oid_by_sig_alg, oid_sig_alg_t, oid_sig_alg, mbedtls_pk_type
 885              		.loc 1 411 0 is_stmt 1
 886              		.cfi_startproc
 887              		@ args = 0, pretend = 0, frame = 0
 888              		@ frame_needed = 0, uses_anonymous_args = 0
 889              	.LVL124:
 890 0000 70B5     		push	{r4, r5, r6, lr}
 891              		.cfi_def_cfa_offset 16
 892              		.cfi_offset 4, -16
 893              		.cfi_offset 5, -12
 894              		.cfi_offset 6, -8
 895              		.cfi_offset 14, -4
 896 0002 0D00     		movs	r5, r1
 897 0004 1400     		movs	r4, r2
 411:Source\mbedtls_open\library/oid.c **** FN_OID_GET_OID_BY_ATTR2(mbedtls_oid_get_oid_by_sig_alg, oid_sig_alg_t, oid_sig_alg, mbedtls_pk_type
 898              		.loc 1 411 0
 899 0006 FFF7FEFF 		bl	oid_sig_alg_from_asn1
 900              	.LVL125:
 901 000a 0028     		cmp	r0, #0
 902 000c 05D0     		beq	.L105
 411:Source\mbedtls_open\library/oid.c **** FN_OID_GET_OID_BY_ATTR2(mbedtls_oid_get_oid_by_sig_alg, oid_sig_alg_t, oid_sig_alg, mbedtls_pk_type
 903              		.loc 1 411 0 is_stmt 0 discriminator 2
 904 000e 037C     		ldrb	r3, [r0, #16]
 905 0010 2B70     		strb	r3, [r5]
 906 0012 437C     		ldrb	r3, [r0, #17]
 907 0014 2370     		strb	r3, [r4]
 908 0016 0020     		movs	r0, #0
 909              	.LVL126:
 910 0018 01E0     		b	.L104
 911              	.LVL127:
 912              	.L105:
 411:Source\mbedtls_open\library/oid.c **** FN_OID_GET_OID_BY_ATTR2(mbedtls_oid_get_oid_by_sig_alg, oid_sig_alg_t, oid_sig_alg, mbedtls_pk_type
 913              		.loc 1 411 0
 914 001a 2E20     		movs	r0, #46
 915              	.LVL128:
 916 001c 4042     		rsbs	r0, r0, #0
 917              	.L104:
 918              		@ sp needed
 919              	.LVL129:
 920              	.LVL130:
 921 001e 70BD     		pop	{r4, r5, r6, pc}
 922              		.cfi_endproc
 923              	.LFE19:
 924              		.size	mbedtls_oid_get_sig_alg, .-mbedtls_oid_get_sig_alg
 925              		.section	.text.mbedtls_oid_get_oid_by_sig_alg,"ax",%progbits
 926              		.align	2
 927              		.global	mbedtls_oid_get_oid_by_sig_alg
 928              		.code	16
 929              		.thumb_func
 930              		.type	mbedtls_oid_get_oid_by_sig_alg, %function
 931              	mbedtls_oid_get_oid_by_sig_alg:
 932              	.LFB20:
ARM GAS  C:\Users\Phuong\AppData\Local\Temp\ccOpmuD8.s 			page 30


 412:Source\mbedtls_open\library/oid.c **** #endif /* MBEDTLS_MD_C */
 933              		.loc 1 412 0 is_stmt 1
 934              		.cfi_startproc
 935              		@ args = 0, pretend = 0, frame = 0
 936              		@ frame_needed = 0, uses_anonymous_args = 0
 937              	.LVL131:
 938 0000 70B5     		push	{r4, r5, r6, lr}
 939              		.cfi_def_cfa_offset 16
 940              		.cfi_offset 4, -16
 941              		.cfi_offset 5, -12
 942              		.cfi_offset 6, -8
 943              		.cfi_offset 14, -4
 944              	.LVL132:
 412:Source\mbedtls_open\library/oid.c **** #endif /* MBEDTLS_MD_C */
 945              		.loc 1 412 0
 946 0002 0A4C     		ldr	r4, .L111
 947 0004 7834     		adds	r4, r4, #120
 948 0006 0BE0     		b	.L107
 949              	.LVL133:
 950              	.L110:
 412:Source\mbedtls_open\library/oid.c **** #endif /* MBEDTLS_MD_C */
 951              		.loc 1 412 0 is_stmt 0 discriminator 7
 952 0008 667C     		ldrb	r6, [r4, #17]
 953 000a 8642     		cmp	r6, r0
 954 000c 07D1     		bne	.L108
 412:Source\mbedtls_open\library/oid.c **** #endif /* MBEDTLS_MD_C */
 955              		.loc 1 412 0 discriminator 2
 956 000e 267C     		ldrb	r6, [r4, #16]
 957 0010 8E42     		cmp	r6, r1
 958 0012 04D1     		bne	.L108
 412:Source\mbedtls_open\library/oid.c **** #endif /* MBEDTLS_MD_C */
 959              		.loc 1 412 0 discriminator 4
 960 0014 1560     		str	r5, [r2]
 961 0016 6268     		ldr	r2, [r4, #4]
 962              	.LVL134:
 963 0018 1A60     		str	r2, [r3]
 964 001a 0020     		movs	r0, #0
 965              	.LVL135:
 966 001c 05E0     		b	.L109
 967              	.LVL136:
 968              	.L108:
 412:Source\mbedtls_open\library/oid.c **** #endif /* MBEDTLS_MD_C */
 969              		.loc 1 412 0 discriminator 5
 970 001e 1434     		adds	r4, r4, #20
 971              	.LVL137:
 972              	.L107:
 412:Source\mbedtls_open\library/oid.c **** #endif /* MBEDTLS_MD_C */
 973              		.loc 1 412 0 discriminator 6
 974 0020 2568     		ldr	r5, [r4]
 975 0022 002D     		cmp	r5, #0
 976 0024 F0D1     		bne	.L110
 412:Source\mbedtls_open\library/oid.c **** #endif /* MBEDTLS_MD_C */
 977              		.loc 1 412 0
 978 0026 2E20     		movs	r0, #46
 979              	.LVL138:
 980 0028 4042     		rsbs	r0, r0, #0
 981              	.LVL139:
ARM GAS  C:\Users\Phuong\AppData\Local\Temp\ccOpmuD8.s 			page 31


 982              	.L109:
 983              		@ sp needed
 984              	.LVL140:
 985 002a 70BD     		pop	{r4, r5, r6, pc}
 986              	.L112:
 987              		.align	2
 988              	.L111:
 989 002c 00020000 		.word	.LANCHOR2
 990              		.cfi_endproc
 991              	.LFE20:
 992              		.size	mbedtls_oid_get_oid_by_sig_alg, .-mbedtls_oid_get_oid_by_sig_alg
 993              		.section	.text.mbedtls_oid_get_pk_alg,"ax",%progbits
 994              		.align	2
 995              		.global	mbedtls_oid_get_pk_alg
 996              		.code	16
 997              		.thumb_func
 998              		.type	mbedtls_oid_get_pk_alg, %function
 999              	mbedtls_oid_get_pk_alg:
 1000              	.LFB22:
 444:Source\mbedtls_open\library/oid.c **** FN_OID_GET_OID_BY_ATTR1(mbedtls_oid_get_oid_by_pk_alg, oid_pk_alg_t, oid_pk_alg, mbedtls_pk_type_t,
 1001              		.loc 1 444 0 is_stmt 1
 1002              		.cfi_startproc
 1003              		@ args = 0, pretend = 0, frame = 0
 1004              		@ frame_needed = 0, uses_anonymous_args = 0
 1005              	.LVL141:
 1006 0000 10B5     		push	{r4, lr}
 1007              		.cfi_def_cfa_offset 8
 1008              		.cfi_offset 4, -8
 1009              		.cfi_offset 14, -4
 1010 0002 0C00     		movs	r4, r1
 444:Source\mbedtls_open\library/oid.c **** FN_OID_GET_OID_BY_ATTR1(mbedtls_oid_get_oid_by_pk_alg, oid_pk_alg_t, oid_pk_alg, mbedtls_pk_type_t,
 1011              		.loc 1 444 0
 1012 0004 FFF7FEFF 		bl	oid_pk_alg_from_asn1
 1013              	.LVL142:
 1014 0008 0028     		cmp	r0, #0
 1015 000a 03D0     		beq	.L115
 444:Source\mbedtls_open\library/oid.c **** FN_OID_GET_OID_BY_ATTR1(mbedtls_oid_get_oid_by_pk_alg, oid_pk_alg_t, oid_pk_alg, mbedtls_pk_type_t,
 1016              		.loc 1 444 0 is_stmt 0 discriminator 2
 1017 000c 037C     		ldrb	r3, [r0, #16]
 1018 000e 2370     		strb	r3, [r4]
 1019 0010 0020     		movs	r0, #0
 1020              	.LVL143:
 1021 0012 01E0     		b	.L114
 1022              	.LVL144:
 1023              	.L115:
 444:Source\mbedtls_open\library/oid.c **** FN_OID_GET_OID_BY_ATTR1(mbedtls_oid_get_oid_by_pk_alg, oid_pk_alg_t, oid_pk_alg, mbedtls_pk_type_t,
 1024              		.loc 1 444 0
 1025 0014 2E20     		movs	r0, #46
 1026              	.LVL145:
 1027 0016 4042     		rsbs	r0, r0, #0
 1028              	.L114:
 1029              		@ sp needed
 1030              	.LVL146:
 1031 0018 10BD     		pop	{r4, pc}
 1032              		.cfi_endproc
 1033              	.LFE22:
 1034              		.size	mbedtls_oid_get_pk_alg, .-mbedtls_oid_get_pk_alg
ARM GAS  C:\Users\Phuong\AppData\Local\Temp\ccOpmuD8.s 			page 32


 1035 001a C046     		.section	.text.mbedtls_oid_get_oid_by_pk_alg,"ax",%progbits
 1036              		.align	2
 1037              		.global	mbedtls_oid_get_oid_by_pk_alg
 1038              		.code	16
 1039              		.thumb_func
 1040              		.type	mbedtls_oid_get_oid_by_pk_alg, %function
 1041              	mbedtls_oid_get_oid_by_pk_alg:
 1042              	.LFB23:
 445:Source\mbedtls_open\library/oid.c **** 
 1043              		.loc 1 445 0 is_stmt 1
 1044              		.cfi_startproc
 1045              		@ args = 0, pretend = 0, frame = 0
 1046              		@ frame_needed = 0, uses_anonymous_args = 0
 1047              	.LVL147:
 1048 0000 30B5     		push	{r4, r5, lr}
 1049              		.cfi_def_cfa_offset 12
 1050              		.cfi_offset 4, -12
 1051              		.cfi_offset 5, -8
 1052              		.cfi_offset 14, -4
 1053              	.LVL148:
 445:Source\mbedtls_open\library/oid.c **** 
 1054              		.loc 1 445 0
 1055 0002 094B     		ldr	r3, .L121
 1056 0004 1033     		adds	r3, r3, #16
 1057 0006 08E0     		b	.L117
 1058              	.LVL149:
 1059              	.L120:
 445:Source\mbedtls_open\library/oid.c **** 
 1060              		.loc 1 445 0 is_stmt 0 discriminator 5
 1061 0008 1D7C     		ldrb	r5, [r3, #16]
 1062 000a 8542     		cmp	r5, r0
 1063 000c 04D1     		bne	.L118
 445:Source\mbedtls_open\library/oid.c **** 
 1064              		.loc 1 445 0 discriminator 2
 1065 000e 0C60     		str	r4, [r1]
 1066 0010 5B68     		ldr	r3, [r3, #4]
 1067              	.LVL150:
 1068 0012 1360     		str	r3, [r2]
 1069 0014 0020     		movs	r0, #0
 1070              	.LVL151:
 1071 0016 05E0     		b	.L119
 1072              	.LVL152:
 1073              	.L118:
 445:Source\mbedtls_open\library/oid.c **** 
 1074              		.loc 1 445 0 discriminator 3
 1075 0018 1433     		adds	r3, r3, #20
 1076              	.LVL153:
 1077              	.L117:
 445:Source\mbedtls_open\library/oid.c **** 
 1078              		.loc 1 445 0 discriminator 4
 1079 001a 1C68     		ldr	r4, [r3]
 1080 001c 002C     		cmp	r4, #0
 1081 001e F3D1     		bne	.L120
 445:Source\mbedtls_open\library/oid.c **** 
 1082              		.loc 1 445 0
 1083 0020 2E20     		movs	r0, #46
 1084              	.LVL154:
ARM GAS  C:\Users\Phuong\AppData\Local\Temp\ccOpmuD8.s 			page 33


 1085 0022 4042     		rsbs	r0, r0, #0
 1086              	.LVL155:
 1087              	.L119:
 1088              		@ sp needed
 1089 0024 30BD     		pop	{r4, r5, pc}
 1090              	.L122:
 1091 0026 C046     		.align	2
 1092              	.L121:
 1093 0028 80030000 		.word	.LANCHOR3
 1094              		.cfi_endproc
 1095              	.LFE23:
 1096              		.size	mbedtls_oid_get_oid_by_pk_alg, .-mbedtls_oid_get_oid_by_pk_alg
 1097              		.section	.text.mbedtls_oid_get_ec_grp,"ax",%progbits
 1098              		.align	2
 1099              		.global	mbedtls_oid_get_ec_grp
 1100              		.code	16
 1101              		.thumb_func
 1102              		.type	mbedtls_oid_get_ec_grp, %function
 1103              	mbedtls_oid_get_ec_grp:
 1104              	.LFB25:
 531:Source\mbedtls_open\library/oid.c **** FN_OID_GET_OID_BY_ATTR1(mbedtls_oid_get_oid_by_ec_grp, oid_ecp_grp_t, oid_ecp_grp, mbedtls_ecp_grou
 1105              		.loc 1 531 0 is_stmt 1
 1106              		.cfi_startproc
 1107              		@ args = 0, pretend = 0, frame = 0
 1108              		@ frame_needed = 0, uses_anonymous_args = 0
 1109              	.LVL156:
 1110 0000 10B5     		push	{r4, lr}
 1111              		.cfi_def_cfa_offset 8
 1112              		.cfi_offset 4, -8
 1113              		.cfi_offset 14, -4
 1114 0002 0C00     		movs	r4, r1
 531:Source\mbedtls_open\library/oid.c **** FN_OID_GET_OID_BY_ATTR1(mbedtls_oid_get_oid_by_ec_grp, oid_ecp_grp_t, oid_ecp_grp, mbedtls_ecp_grou
 1115              		.loc 1 531 0
 1116 0004 FFF7FEFF 		bl	oid_grp_id_from_asn1
 1117              	.LVL157:
 1118 0008 0028     		cmp	r0, #0
 1119 000a 03D0     		beq	.L125
 531:Source\mbedtls_open\library/oid.c **** FN_OID_GET_OID_BY_ATTR1(mbedtls_oid_get_oid_by_ec_grp, oid_ecp_grp_t, oid_ecp_grp, mbedtls_ecp_grou
 1120              		.loc 1 531 0 is_stmt 0 discriminator 2
 1121 000c 037C     		ldrb	r3, [r0, #16]
 1122 000e 2370     		strb	r3, [r4]
 1123 0010 0020     		movs	r0, #0
 1124              	.LVL158:
 1125 0012 01E0     		b	.L124
 1126              	.LVL159:
 1127              	.L125:
 531:Source\mbedtls_open\library/oid.c **** FN_OID_GET_OID_BY_ATTR1(mbedtls_oid_get_oid_by_ec_grp, oid_ecp_grp_t, oid_ecp_grp, mbedtls_ecp_grou
 1128              		.loc 1 531 0
 1129 0014 2E20     		movs	r0, #46
 1130              	.LVL160:
 1131 0016 4042     		rsbs	r0, r0, #0
 1132              	.L124:
 1133              		@ sp needed
 1134              	.LVL161:
 1135 0018 10BD     		pop	{r4, pc}
 1136              		.cfi_endproc
 1137              	.LFE25:
ARM GAS  C:\Users\Phuong\AppData\Local\Temp\ccOpmuD8.s 			page 34


 1138              		.size	mbedtls_oid_get_ec_grp, .-mbedtls_oid_get_ec_grp
 1139 001a C046     		.section	.text.mbedtls_oid_get_oid_by_ec_grp,"ax",%progbits
 1140              		.align	2
 1141              		.global	mbedtls_oid_get_oid_by_ec_grp
 1142              		.code	16
 1143              		.thumb_func
 1144              		.type	mbedtls_oid_get_oid_by_ec_grp, %function
 1145              	mbedtls_oid_get_oid_by_ec_grp:
 1146              	.LFB26:
 532:Source\mbedtls_open\library/oid.c **** #endif /* MBEDTLS_ECP_C */
 1147              		.loc 1 532 0 is_stmt 1
 1148              		.cfi_startproc
 1149              		@ args = 0, pretend = 0, frame = 0
 1150              		@ frame_needed = 0, uses_anonymous_args = 0
 1151              	.LVL162:
 1152 0000 30B5     		push	{r4, r5, lr}
 1153              		.cfi_def_cfa_offset 12
 1154              		.cfi_offset 4, -12
 1155              		.cfi_offset 5, -8
 1156              		.cfi_offset 14, -4
 1157              	.LVL163:
 532:Source\mbedtls_open\library/oid.c **** #endif /* MBEDTLS_ECP_C */
 1158              		.loc 1 532 0
 1159 0002 094B     		ldr	r3, .L131
 1160 0004 6033     		adds	r3, r3, #96
 1161 0006 08E0     		b	.L127
 1162              	.LVL164:
 1163              	.L130:
 532:Source\mbedtls_open\library/oid.c **** #endif /* MBEDTLS_ECP_C */
 1164              		.loc 1 532 0 is_stmt 0 discriminator 5
 1165 0008 1D7C     		ldrb	r5, [r3, #16]
 1166 000a 8542     		cmp	r5, r0
 1167 000c 04D1     		bne	.L128
 532:Source\mbedtls_open\library/oid.c **** #endif /* MBEDTLS_ECP_C */
 1168              		.loc 1 532 0 discriminator 2
 1169 000e 0C60     		str	r4, [r1]
 1170 0010 5B68     		ldr	r3, [r3, #4]
 1171              	.LVL165:
 1172 0012 1360     		str	r3, [r2]
 1173 0014 0020     		movs	r0, #0
 1174              	.LVL166:
 1175 0016 05E0     		b	.L129
 1176              	.LVL167:
 1177              	.L128:
 532:Source\mbedtls_open\library/oid.c **** #endif /* MBEDTLS_ECP_C */
 1178              		.loc 1 532 0 discriminator 3
 1179 0018 1433     		adds	r3, r3, #20
 1180              	.LVL168:
 1181              	.L127:
 532:Source\mbedtls_open\library/oid.c **** #endif /* MBEDTLS_ECP_C */
 1182              		.loc 1 532 0 discriminator 4
 1183 001a 1C68     		ldr	r4, [r3]
 1184 001c 002C     		cmp	r4, #0
 1185 001e F3D1     		bne	.L130
 532:Source\mbedtls_open\library/oid.c **** #endif /* MBEDTLS_ECP_C */
 1186              		.loc 1 532 0
 1187 0020 2E20     		movs	r0, #46
ARM GAS  C:\Users\Phuong\AppData\Local\Temp\ccOpmuD8.s 			page 35


 1188              	.LVL169:
 1189 0022 4042     		rsbs	r0, r0, #0
 1190              	.LVL170:
 1191              	.L129:
 1192              		@ sp needed
 1193 0024 30BD     		pop	{r4, r5, pc}
 1194              	.L132:
 1195 0026 C046     		.align	2
 1196              	.L131:
 1197 0028 80030000 		.word	.LANCHOR3
 1198              		.cfi_endproc
 1199              	.LFE26:
 1200              		.size	mbedtls_oid_get_oid_by_ec_grp, .-mbedtls_oid_get_oid_by_ec_grp
 1201              		.section	.text.mbedtls_oid_get_cipher_alg,"ax",%progbits
 1202              		.align	2
 1203              		.global	mbedtls_oid_get_cipher_alg
 1204              		.code	16
 1205              		.thumb_func
 1206              		.type	mbedtls_oid_get_cipher_alg, %function
 1207              	mbedtls_oid_get_cipher_alg:
 1208              	.LFB28:
 561:Source\mbedtls_open\library/oid.c **** #endif /* MBEDTLS_CIPHER_C */
 1209              		.loc 1 561 0 is_stmt 1
 1210              		.cfi_startproc
 1211              		@ args = 0, pretend = 0, frame = 0
 1212              		@ frame_needed = 0, uses_anonymous_args = 0
 1213              	.LVL171:
 1214 0000 10B5     		push	{r4, lr}
 1215              		.cfi_def_cfa_offset 8
 1216              		.cfi_offset 4, -8
 1217              		.cfi_offset 14, -4
 1218 0002 0C00     		movs	r4, r1
 561:Source\mbedtls_open\library/oid.c **** #endif /* MBEDTLS_CIPHER_C */
 1219              		.loc 1 561 0
 1220 0004 FFF7FEFF 		bl	oid_cipher_alg_from_asn1
 1221              	.LVL172:
 1222 0008 0028     		cmp	r0, #0
 1223 000a 03D0     		beq	.L135
 561:Source\mbedtls_open\library/oid.c **** #endif /* MBEDTLS_CIPHER_C */
 1224              		.loc 1 561 0 is_stmt 0 discriminator 2
 1225 000c 037C     		ldrb	r3, [r0, #16]
 1226 000e 2370     		strb	r3, [r4]
 1227 0010 0020     		movs	r0, #0
 1228              	.LVL173:
 1229 0012 01E0     		b	.L134
 1230              	.LVL174:
 1231              	.L135:
 561:Source\mbedtls_open\library/oid.c **** #endif /* MBEDTLS_CIPHER_C */
 1232              		.loc 1 561 0
 1233 0014 2E20     		movs	r0, #46
 1234              	.LVL175:
 1235 0016 4042     		rsbs	r0, r0, #0
 1236              	.L134:
 1237              		@ sp needed
 1238              	.LVL176:
 1239 0018 10BD     		pop	{r4, pc}
 1240              		.cfi_endproc
ARM GAS  C:\Users\Phuong\AppData\Local\Temp\ccOpmuD8.s 			page 36


 1241              	.LFE28:
 1242              		.size	mbedtls_oid_get_cipher_alg, .-mbedtls_oid_get_cipher_alg
 1243 001a C046     		.section	.text.mbedtls_oid_get_md_alg,"ax",%progbits
 1244              		.align	2
 1245              		.global	mbedtls_oid_get_md_alg
 1246              		.code	16
 1247              		.thumb_func
 1248              		.type	mbedtls_oid_get_md_alg, %function
 1249              	mbedtls_oid_get_md_alg:
 1250              	.LFB30:
 626:Source\mbedtls_open\library/oid.c **** FN_OID_GET_OID_BY_ATTR1(mbedtls_oid_get_oid_by_md, oid_md_alg_t, oid_md_alg, mbedtls_md_type_t, md_
 1251              		.loc 1 626 0 is_stmt 1
 1252              		.cfi_startproc
 1253              		@ args = 0, pretend = 0, frame = 0
 1254              		@ frame_needed = 0, uses_anonymous_args = 0
 1255              	.LVL177:
 1256 0000 10B5     		push	{r4, lr}
 1257              		.cfi_def_cfa_offset 8
 1258              		.cfi_offset 4, -8
 1259              		.cfi_offset 14, -4
 1260 0002 0C00     		movs	r4, r1
 626:Source\mbedtls_open\library/oid.c **** FN_OID_GET_OID_BY_ATTR1(mbedtls_oid_get_oid_by_md, oid_md_alg_t, oid_md_alg, mbedtls_md_type_t, md_
 1261              		.loc 1 626 0
 1262 0004 FFF7FEFF 		bl	oid_md_alg_from_asn1
 1263              	.LVL178:
 1264 0008 0028     		cmp	r0, #0
 1265 000a 03D0     		beq	.L138
 626:Source\mbedtls_open\library/oid.c **** FN_OID_GET_OID_BY_ATTR1(mbedtls_oid_get_oid_by_md, oid_md_alg_t, oid_md_alg, mbedtls_md_type_t, md_
 1266              		.loc 1 626 0 is_stmt 0 discriminator 2
 1267 000c 037C     		ldrb	r3, [r0, #16]
 1268 000e 2370     		strb	r3, [r4]
 1269 0010 0020     		movs	r0, #0
 1270              	.LVL179:
 1271 0012 01E0     		b	.L137
 1272              	.LVL180:
 1273              	.L138:
 626:Source\mbedtls_open\library/oid.c **** FN_OID_GET_OID_BY_ATTR1(mbedtls_oid_get_oid_by_md, oid_md_alg_t, oid_md_alg, mbedtls_md_type_t, md_
 1274              		.loc 1 626 0
 1275 0014 2E20     		movs	r0, #46
 1276              	.LVL181:
 1277 0016 4042     		rsbs	r0, r0, #0
 1278              	.L137:
 1279              		@ sp needed
 1280              	.LVL182:
 1281 0018 10BD     		pop	{r4, pc}
 1282              		.cfi_endproc
 1283              	.LFE30:
 1284              		.size	mbedtls_oid_get_md_alg, .-mbedtls_oid_get_md_alg
 1285 001a C046     		.section	.text.mbedtls_oid_get_oid_by_md,"ax",%progbits
 1286              		.align	2
 1287              		.global	mbedtls_oid_get_oid_by_md
 1288              		.code	16
 1289              		.thumb_func
 1290              		.type	mbedtls_oid_get_oid_by_md, %function
 1291              	mbedtls_oid_get_oid_by_md:
 1292              	.LFB31:
 627:Source\mbedtls_open\library/oid.c **** 
ARM GAS  C:\Users\Phuong\AppData\Local\Temp\ccOpmuD8.s 			page 37


 1293              		.loc 1 627 0 is_stmt 1
 1294              		.cfi_startproc
 1295              		@ args = 0, pretend = 0, frame = 0
 1296              		@ frame_needed = 0, uses_anonymous_args = 0
 1297              	.LVL183:
 1298 0000 30B5     		push	{r4, r5, lr}
 1299              		.cfi_def_cfa_offset 12
 1300              		.cfi_offset 4, -12
 1301              		.cfi_offset 5, -8
 1302              		.cfi_offset 14, -4
 1303              	.LVL184:
 627:Source\mbedtls_open\library/oid.c **** 
 1304              		.loc 1 627 0
 1305 0002 094B     		ldr	r3, .L144
 1306 0004 0C33     		adds	r3, r3, #12
 1307 0006 08E0     		b	.L140
 1308              	.LVL185:
 1309              	.L143:
 627:Source\mbedtls_open\library/oid.c **** 
 1310              		.loc 1 627 0 is_stmt 0 discriminator 5
 1311 0008 1D7C     		ldrb	r5, [r3, #16]
 1312 000a 8542     		cmp	r5, r0
 1313 000c 04D1     		bne	.L141
 627:Source\mbedtls_open\library/oid.c **** 
 1314              		.loc 1 627 0 discriminator 2
 1315 000e 0C60     		str	r4, [r1]
 1316 0010 5B68     		ldr	r3, [r3, #4]
 1317              	.LVL186:
 1318 0012 1360     		str	r3, [r2]
 1319 0014 0020     		movs	r0, #0
 1320              	.LVL187:
 1321 0016 05E0     		b	.L142
 1322              	.LVL188:
 1323              	.L141:
 627:Source\mbedtls_open\library/oid.c **** 
 1324              		.loc 1 627 0 discriminator 3
 1325 0018 1433     		adds	r3, r3, #20
 1326              	.LVL189:
 1327              	.L140:
 627:Source\mbedtls_open\library/oid.c **** 
 1328              		.loc 1 627 0 discriminator 4
 1329 001a 1C68     		ldr	r4, [r3]
 1330 001c 002C     		cmp	r4, #0
 1331 001e F3D1     		bne	.L143
 627:Source\mbedtls_open\library/oid.c **** 
 1332              		.loc 1 627 0
 1333 0020 2E20     		movs	r0, #46
 1334              	.LVL190:
 1335 0022 4042     		rsbs	r0, r0, #0
 1336              	.LVL191:
 1337              	.L142:
 1338              		@ sp needed
 1339 0024 30BD     		pop	{r4, r5, pc}
 1340              	.L145:
 1341 0026 C046     		.align	2
 1342              	.L144:
 1343 0028 00050000 		.word	.LANCHOR5
ARM GAS  C:\Users\Phuong\AppData\Local\Temp\ccOpmuD8.s 			page 38


 1344              		.cfi_endproc
 1345              	.LFE31:
 1346              		.size	mbedtls_oid_get_oid_by_md, .-mbedtls_oid_get_oid_by_md
 1347              		.section	.text.mbedtls_oid_get_md_hmac,"ax",%progbits
 1348              		.align	2
 1349              		.global	mbedtls_oid_get_md_hmac
 1350              		.code	16
 1351              		.thumb_func
 1352              		.type	mbedtls_oid_get_md_hmac, %function
 1353              	mbedtls_oid_get_md_hmac:
 1354              	.LFB33:
 672:Source\mbedtls_open\library/oid.c **** #endif /* MBEDTLS_MD_C */
 1355              		.loc 1 672 0 is_stmt 1
 1356              		.cfi_startproc
 1357              		@ args = 0, pretend = 0, frame = 0
 1358              		@ frame_needed = 0, uses_anonymous_args = 0
 1359              	.LVL192:
 1360 0000 10B5     		push	{r4, lr}
 1361              		.cfi_def_cfa_offset 8
 1362              		.cfi_offset 4, -8
 1363              		.cfi_offset 14, -4
 1364 0002 0C00     		movs	r4, r1
 672:Source\mbedtls_open\library/oid.c **** #endif /* MBEDTLS_MD_C */
 1365              		.loc 1 672 0
 1366 0004 FFF7FEFF 		bl	oid_md_hmac_from_asn1
 1367              	.LVL193:
 1368 0008 0028     		cmp	r0, #0
 1369 000a 03D0     		beq	.L148
 672:Source\mbedtls_open\library/oid.c **** #endif /* MBEDTLS_MD_C */
 1370              		.loc 1 672 0 is_stmt 0 discriminator 2
 1371 000c 037C     		ldrb	r3, [r0, #16]
 1372 000e 2370     		strb	r3, [r4]
 1373 0010 0020     		movs	r0, #0
 1374              	.LVL194:
 1375 0012 01E0     		b	.L147
 1376              	.LVL195:
 1377              	.L148:
 672:Source\mbedtls_open\library/oid.c **** #endif /* MBEDTLS_MD_C */
 1378              		.loc 1 672 0
 1379 0014 2E20     		movs	r0, #46
 1380              	.LVL196:
 1381 0016 4042     		rsbs	r0, r0, #0
 1382              	.L147:
 1383              		@ sp needed
 1384              	.LVL197:
 1385 0018 10BD     		pop	{r4, pc}
 1386              		.cfi_endproc
 1387              	.LFE33:
 1388              		.size	mbedtls_oid_get_md_hmac, .-mbedtls_oid_get_md_hmac
 1389 001a C046     		.section	.text.mbedtls_oid_get_pkcs12_pbe_alg,"ax",%progbits
 1390              		.align	2
 1391              		.global	mbedtls_oid_get_pkcs12_pbe_alg
 1392              		.code	16
 1393              		.thumb_func
 1394              		.type	mbedtls_oid_get_pkcs12_pbe_alg, %function
 1395              	mbedtls_oid_get_pkcs12_pbe_alg:
 1396              	.LFB35:
ARM GAS  C:\Users\Phuong\AppData\Local\Temp\ccOpmuD8.s 			page 39


 702:Source\mbedtls_open\library/oid.c **** FN_OID_GET_ATTR2(mbedtls_oid_get_pkcs12_pbe_alg, oid_pkcs12_pbe_alg_t, pkcs12_pbe_alg, mbedtls_md_t
 1397              		.loc 1 702 0 is_stmt 1
 1398              		.cfi_startproc
 1399              		@ args = 0, pretend = 0, frame = 0
 1400              		@ frame_needed = 0, uses_anonymous_args = 0
 1401              	.LVL198:
 1402 0000 70B5     		push	{r4, r5, r6, lr}
 1403              		.cfi_def_cfa_offset 16
 1404              		.cfi_offset 4, -16
 1405              		.cfi_offset 5, -12
 1406              		.cfi_offset 6, -8
 1407              		.cfi_offset 14, -4
 1408 0002 0D00     		movs	r5, r1
 1409 0004 1400     		movs	r4, r2
 1410              		.loc 1 702 0
 1411 0006 FFF7FEFF 		bl	oid_pkcs12_pbe_alg_from_asn1
 1412              	.LVL199:
 1413 000a 0028     		cmp	r0, #0
 1414 000c 05D0     		beq	.L151
 1415              		.loc 1 702 0 is_stmt 0 discriminator 2
 1416 000e 037C     		ldrb	r3, [r0, #16]
 1417 0010 2B70     		strb	r3, [r5]
 1418 0012 437C     		ldrb	r3, [r0, #17]
 1419 0014 2370     		strb	r3, [r4]
 1420 0016 0020     		movs	r0, #0
 1421              	.LVL200:
 1422 0018 01E0     		b	.L150
 1423              	.LVL201:
 1424              	.L151:
 1425              		.loc 1 702 0
 1426 001a 2E20     		movs	r0, #46
 1427              	.LVL202:
 1428 001c 4042     		rsbs	r0, r0, #0
 1429              	.L150:
 1430              		@ sp needed
 1431              	.LVL203:
 1432              	.LVL204:
 1433 001e 70BD     		pop	{r4, r5, r6, pc}
 1434              		.cfi_endproc
 1435              	.LFE35:
 1436              		.size	mbedtls_oid_get_pkcs12_pbe_alg, .-mbedtls_oid_get_pkcs12_pbe_alg
 1437              		.global	__aeabi_uidiv
 1438              		.global	__aeabi_uidivmod
 1439              		.section	.text.mbedtls_oid_get_numeric_string,"ax",%progbits
 1440              		.align	2
 1441              		.global	mbedtls_oid_get_numeric_string
 1442              		.code	16
 1443              		.thumb_func
 1444              		.type	mbedtls_oid_get_numeric_string, %function
 1445              	mbedtls_oid_get_numeric_string:
 1446              	.LFB36:
 703:Source\mbedtls_open\library/oid.c **** #endif /* MBEDTLS_PKCS12_C */
 704:Source\mbedtls_open\library/oid.c **** 
 705:Source\mbedtls_open\library/oid.c **** #define OID_SAFE_SNPRINTF                               \
 706:Source\mbedtls_open\library/oid.c ****     do {                                                \
 707:Source\mbedtls_open\library/oid.c ****         if( ret < 0 || (size_t) ret >= n )              \
 708:Source\mbedtls_open\library/oid.c ****             return( MBEDTLS_ERR_OID_BUF_TOO_SMALL );    \
ARM GAS  C:\Users\Phuong\AppData\Local\Temp\ccOpmuD8.s 			page 40


 709:Source\mbedtls_open\library/oid.c ****                                                         \
 710:Source\mbedtls_open\library/oid.c ****         n -= (size_t) ret;                              \
 711:Source\mbedtls_open\library/oid.c ****         p += (size_t) ret;                              \
 712:Source\mbedtls_open\library/oid.c ****     } while( 0 )
 713:Source\mbedtls_open\library/oid.c **** 
 714:Source\mbedtls_open\library/oid.c **** /* Return the x.y.z.... style numeric string for the given OID */
 715:Source\mbedtls_open\library/oid.c **** int mbedtls_oid_get_numeric_string( char *buf, size_t size,
 716:Source\mbedtls_open\library/oid.c ****                             const mbedtls_asn1_buf *oid )
 717:Source\mbedtls_open\library/oid.c **** {
 1447              		.loc 1 717 0 is_stmt 1
 1448              		.cfi_startproc
 1449              		@ args = 0, pretend = 0, frame = 8
 1450              		@ frame_needed = 0, uses_anonymous_args = 0
 1451              	.LVL205:
 1452 0000 F0B5     		push	{r4, r5, r6, r7, lr}
 1453              		.cfi_def_cfa_offset 20
 1454              		.cfi_offset 4, -20
 1455              		.cfi_offset 5, -16
 1456              		.cfi_offset 6, -12
 1457              		.cfi_offset 7, -8
 1458              		.cfi_offset 14, -4
 1459 0002 85B0     		sub	sp, sp, #20
 1460              		.cfi_def_cfa_offset 40
 1461 0004 0400     		movs	r4, r0
 1462 0006 0391     		str	r1, [sp, #12]
 1463 0008 1600     		movs	r6, r2
 1464              	.LVL206:
 718:Source\mbedtls_open\library/oid.c ****     int ret;
 719:Source\mbedtls_open\library/oid.c ****     size_t i, n;
 720:Source\mbedtls_open\library/oid.c ****     unsigned int value;
 721:Source\mbedtls_open\library/oid.c ****     char *p;
 722:Source\mbedtls_open\library/oid.c **** 
 723:Source\mbedtls_open\library/oid.c ****     p = buf;
 724:Source\mbedtls_open\library/oid.c ****     n = size;
 725:Source\mbedtls_open\library/oid.c **** 
 726:Source\mbedtls_open\library/oid.c ****     /* First byte contains first two dots */
 727:Source\mbedtls_open\library/oid.c ****     if( oid->len > 0 )
 1465              		.loc 1 727 0
 1466 000a 5368     		ldr	r3, [r2, #4]
 1467 000c 002B     		cmp	r3, #0
 1468 000e 1AD0     		beq	.L158
 728:Source\mbedtls_open\library/oid.c ****     {
 729:Source\mbedtls_open\library/oid.c ****         ret = mbedtls_snprintf( p, n, "%d.%d", oid->p[0] / 40, oid->p[0] % 40 );
 1469              		.loc 1 729 0
 1470 0010 9368     		ldr	r3, [r2, #8]
 1471 0012 1D78     		ldrb	r5, [r3]
 1472 0014 2821     		movs	r1, #40
 1473              	.LVL207:
 1474 0016 2800     		movs	r0, r5
 1475              	.LVL208:
 1476 0018 FFF7FEFF 		bl	__aeabi_uidiv
 1477              	.LVL209:
 1478 001c C7B2     		uxtb	r7, r0
 1479 001e 2821     		movs	r1, #40
 1480 0020 2800     		movs	r0, r5
 1481 0022 FFF7FEFF 		bl	__aeabi_uidivmod
 1482              	.LVL210:
ARM GAS  C:\Users\Phuong\AppData\Local\Temp\ccOpmuD8.s 			page 41


 1483 0026 C9B2     		uxtb	r1, r1
 1484 0028 0091     		str	r1, [sp]
 1485 002a 3B00     		movs	r3, r7
 1486 002c 204A     		ldr	r2, .L164
 1487 002e 039D     		ldr	r5, [sp, #12]
 1488 0030 2900     		movs	r1, r5
 1489 0032 2000     		movs	r0, r4
 1490 0034 FFF7FEFF 		bl	snprintf
 1491              	.LVL211:
 730:Source\mbedtls_open\library/oid.c ****         OID_SAFE_SNPRINTF;
 1492              		.loc 1 730 0
 1493 0038 0028     		cmp	r0, #0
 1494 003a 28DB     		blt	.L159
 1495              		.loc 1 730 0 is_stmt 0 discriminator 2
 1496 003c 8542     		cmp	r5, r0
 1497 003e 29D9     		bls	.L160
 1498              		.loc 1 730 0 discriminator 4
 1499 0040 2F1A     		subs	r7, r5, r0
 1500              	.LVL212:
 1501 0042 2418     		adds	r4, r4, r0
 1502              	.LVL213:
 1503 0044 00E0     		b	.L153
 1504              	.LVL214:
 1505              	.L158:
 724:Source\mbedtls_open\library/oid.c **** 
 1506              		.loc 1 724 0 is_stmt 1
 1507 0046 039F     		ldr	r7, [sp, #12]
 1508              	.LVL215:
 1509              	.L153:
 731:Source\mbedtls_open\library/oid.c ****     }
 732:Source\mbedtls_open\library/oid.c **** 
 733:Source\mbedtls_open\library/oid.c ****     value = 0;
 734:Source\mbedtls_open\library/oid.c ****     for( i = 1; i < oid->len; i++ )
 735:Source\mbedtls_open\library/oid.c ****     {
 736:Source\mbedtls_open\library/oid.c ****         /* Prevent overflow in value. */
 737:Source\mbedtls_open\library/oid.c ****         if( ( ( value << 7 ) >> 7 ) != value )
 738:Source\mbedtls_open\library/oid.c ****             return( MBEDTLS_ERR_OID_BUF_TOO_SMALL );
 739:Source\mbedtls_open\library/oid.c **** 
 740:Source\mbedtls_open\library/oid.c ****         value <<= 7;
 741:Source\mbedtls_open\library/oid.c ****         value += oid->p[i] & 0x7F;
 742:Source\mbedtls_open\library/oid.c **** 
 743:Source\mbedtls_open\library/oid.c ****         if( !( oid->p[i] & 0x80 ) )
 744:Source\mbedtls_open\library/oid.c ****         {
 745:Source\mbedtls_open\library/oid.c ****             /* Last byte */
 746:Source\mbedtls_open\library/oid.c ****             ret = mbedtls_snprintf( p, n, ".%d", value );
 747:Source\mbedtls_open\library/oid.c ****             OID_SAFE_SNPRINTF;
 748:Source\mbedtls_open\library/oid.c ****             value = 0;
 1510              		.loc 1 748 0 discriminator 1
 1511 0048 0023     		movs	r3, #0
 1512 004a 0125     		movs	r5, #1
 1513 004c 19E0     		b	.L155
 1514              	.LVL216:
 1515              	.L157:
 737:Source\mbedtls_open\library/oid.c ****             return( MBEDTLS_ERR_OID_BUF_TOO_SMALL );
 1516              		.loc 1 737 0
 1517 004e DA01     		lsls	r2, r3, #7
 1518 0050 D209     		lsrs	r2, r2, #7
ARM GAS  C:\Users\Phuong\AppData\Local\Temp\ccOpmuD8.s 			page 42


 1519 0052 9342     		cmp	r3, r2
 1520 0054 21D1     		bne	.L161
 740:Source\mbedtls_open\library/oid.c ****         value += oid->p[i] & 0x7F;
 1521              		.loc 1 740 0
 1522 0056 DB01     		lsls	r3, r3, #7
 1523              	.LVL217:
 741:Source\mbedtls_open\library/oid.c **** 
 1524              		.loc 1 741 0
 1525 0058 B268     		ldr	r2, [r6, #8]
 1526 005a 525D     		ldrb	r2, [r2, r5]
 1527 005c 7F21     		movs	r1, #127
 1528 005e 1140     		ands	r1, r2
 1529 0060 CB18     		adds	r3, r1, r3
 1530              	.LVL218:
 743:Source\mbedtls_open\library/oid.c ****         {
 1531              		.loc 1 743 0
 1532 0062 52B2     		sxtb	r2, r2
 1533 0064 002A     		cmp	r2, #0
 1534 0066 0BDB     		blt	.L156
 746:Source\mbedtls_open\library/oid.c ****             OID_SAFE_SNPRINTF;
 1535              		.loc 1 746 0
 1536 0068 124A     		ldr	r2, .L164+4
 1537 006a 3900     		movs	r1, r7
 1538 006c 2000     		movs	r0, r4
 1539 006e FFF7FEFF 		bl	snprintf
 1540              	.LVL219:
 747:Source\mbedtls_open\library/oid.c ****             value = 0;
 1541              		.loc 1 747 0
 1542 0072 0028     		cmp	r0, #0
 1543 0074 14DB     		blt	.L162
 747:Source\mbedtls_open\library/oid.c ****             value = 0;
 1544              		.loc 1 747 0 is_stmt 0 discriminator 2
 1545 0076 8742     		cmp	r7, r0
 1546 0078 15D9     		bls	.L163
 747:Source\mbedtls_open\library/oid.c ****             value = 0;
 1547              		.loc 1 747 0 discriminator 4
 1548 007a 3F1A     		subs	r7, r7, r0
 1549              	.LVL220:
 1550 007c 2418     		adds	r4, r4, r0
 1551              	.LVL221:
 1552              		.loc 1 748 0 is_stmt 1 discriminator 4
 1553 007e 0023     		movs	r3, #0
 1554              	.LVL222:
 1555              	.L156:
 734:Source\mbedtls_open\library/oid.c ****     {
 1556              		.loc 1 734 0 discriminator 2
 1557 0080 0135     		adds	r5, r5, #1
 1558              	.LVL223:
 1559              	.L155:
 734:Source\mbedtls_open\library/oid.c ****     {
 1560              		.loc 1 734 0 is_stmt 0 discriminator 1
 1561 0082 7268     		ldr	r2, [r6, #4]
 1562 0084 9542     		cmp	r5, r2
 1563 0086 E2D3     		bcc	.L157
 749:Source\mbedtls_open\library/oid.c ****         }
 750:Source\mbedtls_open\library/oid.c ****     }
 751:Source\mbedtls_open\library/oid.c **** 
ARM GAS  C:\Users\Phuong\AppData\Local\Temp\ccOpmuD8.s 			page 43


 752:Source\mbedtls_open\library/oid.c ****     return( (int) ( size - n ) );
 1564              		.loc 1 752 0 is_stmt 1
 1565 0088 039B     		ldr	r3, [sp, #12]
 1566              	.LVL224:
 1567 008a D81B     		subs	r0, r3, r7
 1568 008c 0DE0     		b	.L154
 1569              	.LVL225:
 1570              	.L159:
 730:Source\mbedtls_open\library/oid.c ****     }
 1571              		.loc 1 730 0
 1572 008e 0B20     		movs	r0, #11
 1573              	.LVL226:
 1574 0090 4042     		rsbs	r0, r0, #0
 1575 0092 0AE0     		b	.L154
 1576              	.LVL227:
 1577              	.L160:
 1578 0094 0B20     		movs	r0, #11
 1579              	.LVL228:
 1580 0096 4042     		rsbs	r0, r0, #0
 1581 0098 07E0     		b	.L154
 1582              	.LVL229:
 1583              	.L161:
 738:Source\mbedtls_open\library/oid.c **** 
 1584              		.loc 1 738 0
 1585 009a 0B20     		movs	r0, #11
 1586 009c 4042     		rsbs	r0, r0, #0
 1587 009e 04E0     		b	.L154
 1588              	.LVL230:
 1589              	.L162:
 747:Source\mbedtls_open\library/oid.c ****             value = 0;
 1590              		.loc 1 747 0
 1591 00a0 0B20     		movs	r0, #11
 1592              	.LVL231:
 1593 00a2 4042     		rsbs	r0, r0, #0
 1594 00a4 01E0     		b	.L154
 1595              	.LVL232:
 1596              	.L163:
 1597 00a6 0B20     		movs	r0, #11
 1598              	.LVL233:
 1599 00a8 4042     		rsbs	r0, r0, #0
 1600              	.LVL234:
 1601              	.L154:
 753:Source\mbedtls_open\library/oid.c **** }
 1602              		.loc 1 753 0
 1603 00aa 05B0     		add	sp, sp, #20
 1604              		@ sp needed
 1605              	.LVL235:
 1606              	.LVL236:
 1607 00ac F0BD     		pop	{r4, r5, r6, r7, pc}
 1608              	.L165:
 1609 00ae C046     		.align	2
 1610              	.L164:
 1611 00b0 00000000 		.word	.LC14
 1612 00b4 08000000 		.word	.LC16
 1613              		.cfi_endproc
 1614              	.LFE36:
 1615              		.size	mbedtls_oid_get_numeric_string, .-mbedtls_oid_get_numeric_string
ARM GAS  C:\Users\Phuong\AppData\Local\Temp\ccOpmuD8.s 			page 44


 1616              		.section	.rodata
 1617              		.align	2
 1618              		.set	.LANCHOR0,. + 0
 1619              		.set	.LANCHOR1,. + 384
 1620              		.set	.LANCHOR2,. + 512
 1621              		.set	.LANCHOR3,. + 896
 1622              		.set	.LANCHOR4,. + 1152
 1623              		.set	.LANCHOR5,. + 1280
 1624              		.set	.LANCHOR6,. + 1408
 1625              		.set	.LANCHOR7,. + 1536
 1626              		.type	oid_x520_attr_type, %object
 1627              		.size	oid_x520_attr_type, 400
 1628              	oid_x520_attr_type:
 1629 0000 54080000 		.word	.LC166
 1630 0004 03000000 		.word	3
 1631 0008 58080000 		.word	.LC167
 1632 000c 6C080000 		.word	.LC168
 1633 0010 78080000 		.word	.LC169
 1634 0014 7C080000 		.word	.LC170
 1635 0018 03000000 		.word	3
 1636 001c 80080000 		.word	.LC171
 1637 0020 94080000 		.word	.LC172
 1638 0024 9C080000 		.word	.LC173
 1639 0028 A0080000 		.word	.LC174
 1640 002c 03000000 		.word	3
 1641 0030 A4080000 		.word	.LC175
 1642 0034 B4080000 		.word	.LC176
 1643 0038 C0080000 		.word	.LC177
 1644 003c C4080000 		.word	.LC178
 1645 0040 03000000 		.word	3
 1646 0044 C8080000 		.word	.LC179
 1647 0048 D4080000 		.word	.LC180
 1648 004c DC080000 		.word	.LC181
 1649 0050 E0080000 		.word	.LC182
 1650 0054 03000000 		.word	3
 1651 0058 E4080000 		.word	.LC183
 1652 005c FC080000 		.word	.LC184
 1653 0060 0C090000 		.word	.LC185
 1654 0064 10090000 		.word	.LC186
 1655 0068 03000000 		.word	3
 1656 006c 14090000 		.word	.LC187
 1657 0070 34090000 		.word	.LC188
 1658 0074 40090000 		.word	.LC189
 1659 0078 44090000 		.word	.LC190
 1660 007c 09000000 		.word	9
 1661 0080 50090000 		.word	.LC191
 1662 0084 60090000 		.word	.LC192
 1663 0088 50090000 		.word	.LC191
 1664 008c 70090000 		.word	.LC193
 1665 0090 03000000 		.word	3
 1666 0094 74090000 		.word	.LC194
 1667 0098 88090000 		.word	.LC195
 1668 009c 98090000 		.word	.LC196
 1669 00a0 A8090000 		.word	.LC197
 1670 00a4 03000000 		.word	3
 1671 00a8 AC090000 		.word	.LC198
 1672 00ac C0090000 		.word	.LC199
ARM GAS  C:\Users\Phuong\AppData\Local\Temp\ccOpmuD8.s 			page 45


 1673 00b0 D0090000 		.word	.LC200
 1674 00b4 E0090000 		.word	.LC201
 1675 00b8 03000000 		.word	3
 1676 00bc E4090000 		.word	.LC202
 1677 00c0 F8090000 		.word	.LC203
 1678 00c4 040A0000 		.word	.LC204
 1679 00c8 100A0000 		.word	.LC205
 1680 00cc 03000000 		.word	3
 1681 00d0 140A0000 		.word	.LC206
 1682 00d4 240A0000 		.word	.LC207
 1683 00d8 2C0A0000 		.word	.LC208
 1684 00dc 300A0000 		.word	.LC209
 1685 00e0 03000000 		.word	3
 1686 00e4 340A0000 		.word	.LC210
 1687 00e8 440A0000 		.word	.LC211
 1688 00ec 500A0000 		.word	.LC212
 1689 00f0 540A0000 		.word	.LC213
 1690 00f4 03000000 		.word	3
 1691 00f8 580A0000 		.word	.LC214
 1692 00fc 680A0000 		.word	.LC215
 1693 0100 740A0000 		.word	.LC216
 1694 0104 800A0000 		.word	.LC217
 1695 0108 03000000 		.word	3
 1696 010c 840A0000 		.word	.LC218
 1697 0110 A00A0000 		.word	.LC219
 1698 0114 B80A0000 		.word	.LC220
 1699 0118 CC0A0000 		.word	.LC221
 1700 011c 03000000 		.word	3
 1701 0120 D00A0000 		.word	.LC222
 1702 0124 DC0A0000 		.word	.LC223
 1703 0128 E40A0000 		.word	.LC224
 1704 012c EC0A0000 		.word	.LC225
 1705 0130 03000000 		.word	3
 1706 0134 F00A0000 		.word	.LC226
 1707 0138 040B0000 		.word	.LC227
 1708 013c 240B0000 		.word	.LC228
 1709 0140 300B0000 		.word	.LC229
 1710 0144 03000000 		.word	3
 1711 0148 340B0000 		.word	.LC230
 1712 014c 440B0000 		.word	.LC231
 1713 0150 500B0000 		.word	.LC232
 1714 0154 5C0B0000 		.word	.LC233
 1715 0158 0A000000 		.word	10
 1716 015c 680B0000 		.word	.LC234
 1717 0160 7C0B0000 		.word	.LC235
 1718 0164 900B0000 		.word	.LC236
 1719 0168 940B0000 		.word	.LC237
 1720 016c 03000000 		.word	3
 1721 0170 980B0000 		.word	.LC238
 1722 0174 B00B0000 		.word	.LC239
 1723 0178 C40B0000 		.word	.LC240
 1724 017c 00000000 		.word	0
 1725 0180 00000000 		.word	0
 1726 0184 00000000 		.word	0
 1727 0188 00000000 		.word	0
 1728 018c 00000000 		.word	0
 1729              		.type	oid_x509_ext, %object
ARM GAS  C:\Users\Phuong\AppData\Local\Temp\ccOpmuD8.s 			page 46


 1730              		.size	oid_x509_ext, 120
 1731              	oid_x509_ext:
 1732 0190 68070000 		.word	.LC151
 1733 0194 03000000 		.word	3
 1734 0198 6C070000 		.word	.LC152
 1735 019c 84070000 		.word	.LC153
 1736 01a0 00010000 		.word	256
 1737 01a4 98070000 		.word	.LC154
 1738 01a8 03000000 		.word	3
 1739 01ac 9C070000 		.word	.LC155
 1740 01b0 AC070000 		.word	.LC156
 1741 01b4 04000000 		.word	4
 1742 01b8 B8070000 		.word	.LC157
 1743 01bc 03000000 		.word	3
 1744 01c0 BC070000 		.word	.LC158
 1745 01c4 D0070000 		.word	.LC159
 1746 01c8 00080000 		.word	2048
 1747 01cc E4070000 		.word	.LC160
 1748 01d0 03000000 		.word	3
 1749 01d4 E8070000 		.word	.LC161
 1750 01d8 00080000 		.word	.LC162
 1751 01dc 20000000 		.word	32
 1752 01e0 14080000 		.word	.LC163
 1753 01e4 09000000 		.word	9
 1754 01e8 20080000 		.word	.LC164
 1755 01ec 38080000 		.word	.LC165
 1756 01f0 00000100 		.word	65536
 1757 01f4 00000000 		.word	0
 1758 01f8 00000000 		.word	0
 1759 01fc 00000000 		.word	0
 1760 0200 00000000 		.word	0
 1761 0204 00000000 		.word	0
 1762              		.type	oid_ext_key_usage, %object
 1763              		.size	oid_ext_key_usage, 112
 1764              	oid_ext_key_usage:
 1765 0208 20060000 		.word	.LC133
 1766 020c 08000000 		.word	8
 1767 0210 2C060000 		.word	.LC134
 1768 0214 40060000 		.word	.LC135
 1769 0218 60060000 		.word	.LC136
 1770 021c 08000000 		.word	8
 1771 0220 6C060000 		.word	.LC137
 1772 0224 80060000 		.word	.LC138
 1773 0228 A0060000 		.word	.LC139
 1774 022c 08000000 		.word	8
 1775 0230 AC060000 		.word	.LC140
 1776 0234 C0060000 		.word	.LC141
 1777 0238 D0060000 		.word	.LC142
 1778 023c 08000000 		.word	8
 1779 0240 DC060000 		.word	.LC143
 1780 0244 F4060000 		.word	.LC144
 1781 0248 08070000 		.word	.LC145
 1782 024c 08000000 		.word	8
 1783 0250 14070000 		.word	.LC146
 1784 0254 28070000 		.word	.LC147
 1785 0258 38070000 		.word	.LC148
 1786 025c 08000000 		.word	8
ARM GAS  C:\Users\Phuong\AppData\Local\Temp\ccOpmuD8.s 			page 47


 1787 0260 44070000 		.word	.LC149
 1788 0264 58070000 		.word	.LC150
 1789 0268 00000000 		.word	0
 1790 026c 00000000 		.word	0
 1791 0270 00000000 		.word	0
 1792 0274 00000000 		.word	0
 1793              		.type	oid_sig_alg, %object
 1794              		.size	oid_sig_alg, 280
 1795              	oid_sig_alg:
 1796 0278 C0030000 		.word	.LC97
 1797 027c 09000000 		.word	9
 1798 0280 CC030000 		.word	.LC98
 1799 0284 E4030000 		.word	.LC99
 1800 0288 03       		.byte	3
 1801 0289 01       		.byte	1
 1802 028a 0000     		.space	2
 1803 028c F4030000 		.word	.LC100
 1804 0290 09000000 		.word	9
 1805 0294 00040000 		.word	.LC101
 1806 0298 18040000 		.word	.LC102
 1807 029c 04       		.byte	4
 1808 029d 01       		.byte	1
 1809 029e 0000     		.space	2
 1810 02a0 28040000 		.word	.LC103
 1811 02a4 09000000 		.word	9
 1812 02a8 34040000 		.word	.LC104
 1813 02ac 4C040000 		.word	.LC105
 1814 02b0 05       		.byte	5
 1815 02b1 01       		.byte	1
 1816 02b2 0000     		.space	2
 1817 02b4 60040000 		.word	.LC106
 1818 02b8 09000000 		.word	9
 1819 02bc 6C040000 		.word	.LC107
 1820 02c0 84040000 		.word	.LC108
 1821 02c4 06       		.byte	6
 1822 02c5 01       		.byte	1
 1823 02c6 0000     		.space	2
 1824 02c8 98040000 		.word	.LC109
 1825 02cc 09000000 		.word	9
 1826 02d0 A4040000 		.word	.LC110
 1827 02d4 BC040000 		.word	.LC111
 1828 02d8 07       		.byte	7
 1829 02d9 01       		.byte	1
 1830 02da 0000     		.space	2
 1831 02dc D0040000 		.word	.LC112
 1832 02e0 09000000 		.word	9
 1833 02e4 DC040000 		.word	.LC113
 1834 02e8 F4040000 		.word	.LC114
 1835 02ec 08       		.byte	8
 1836 02ed 01       		.byte	1
 1837 02ee 0000     		.space	2
 1838 02f0 08050000 		.word	.LC115
 1839 02f4 05000000 		.word	5
 1840 02f8 00040000 		.word	.LC101
 1841 02fc 18040000 		.word	.LC102
 1842 0300 04       		.byte	4
 1843 0301 01       		.byte	1
ARM GAS  C:\Users\Phuong\AppData\Local\Temp\ccOpmuD8.s 			page 48


 1844 0302 0000     		.space	2
 1845 0304 10050000 		.word	.LC116
 1846 0308 07000000 		.word	7
 1847 030c 18050000 		.word	.LC117
 1848 0310 28050000 		.word	.LC118
 1849 0314 04       		.byte	4
 1850 0315 04       		.byte	4
 1851 0316 0000     		.space	2
 1852 0318 38050000 		.word	.LC119
 1853 031c 08000000 		.word	8
 1854 0320 44050000 		.word	.LC120
 1855 0324 58050000 		.word	.LC121
 1856 0328 05       		.byte	5
 1857 0329 04       		.byte	4
 1858 032a 0000     		.space	2
 1859 032c 6C050000 		.word	.LC122
 1860 0330 08000000 		.word	8
 1861 0334 78050000 		.word	.LC123
 1862 0338 8C050000 		.word	.LC124
 1863 033c 06       		.byte	6
 1864 033d 04       		.byte	4
 1865 033e 0000     		.space	2
 1866 0340 A0050000 		.word	.LC125
 1867 0344 08000000 		.word	8
 1868 0348 AC050000 		.word	.LC126
 1869 034c C0050000 		.word	.LC127
 1870 0350 07       		.byte	7
 1871 0351 04       		.byte	4
 1872 0352 0000     		.space	2
 1873 0354 D4050000 		.word	.LC128
 1874 0358 08000000 		.word	8
 1875 035c E0050000 		.word	.LC129
 1876 0360 F4050000 		.word	.LC130
 1877 0364 08       		.byte	8
 1878 0365 04       		.byte	4
 1879 0366 0000     		.space	2
 1880 0368 08060000 		.word	.LC131
 1881 036c 09000000 		.word	9
 1882 0370 14060000 		.word	.LC132
 1883 0374 14060000 		.word	.LC132
 1884 0378 00       		.byte	0
 1885 0379 06       		.byte	6
 1886 037a 0000     		.space	2
 1887 037c 00000000 		.word	0
 1888 0380 00000000 		.word	0
 1889 0384 00000000 		.word	0
 1890 0388 00000000 		.word	0
 1891 038c 00       		.byte	0
 1892 038d 00       		.byte	0
 1893 038e 0000     		.space	2
 1894              		.type	oid_pk_alg, %object
 1895              		.size	oid_pk_alg, 80
 1896              	oid_pk_alg:
 1897 0390 58030000 		.word	.LC88
 1898 0394 09000000 		.word	9
 1899 0398 64030000 		.word	.LC89
 1900 039c 74030000 		.word	.LC90
ARM GAS  C:\Users\Phuong\AppData\Local\Temp\ccOpmuD8.s 			page 49


 1901 03a0 01       		.byte	1
 1902 03a1 000000   		.space	3
 1903 03a4 78030000 		.word	.LC91
 1904 03a8 07000000 		.word	7
 1905 03ac 80030000 		.word	.LC92
 1906 03b0 90030000 		.word	.LC93
 1907 03b4 02       		.byte	2
 1908 03b5 000000   		.space	3
 1909 03b8 A0030000 		.word	.LC94
 1910 03bc 05000000 		.word	5
 1911 03c0 A8030000 		.word	.LC95
 1912 03c4 B0030000 		.word	.LC96
 1913 03c8 03       		.byte	3
 1914 03c9 000000   		.space	3
 1915 03cc 00000000 		.word	0
 1916 03d0 00000000 		.word	0
 1917 03d4 00000000 		.word	0
 1918 03d8 00000000 		.word	0
 1919 03dc 00       		.byte	0
 1920 03dd 000000   		.space	3
 1921              		.type	oid_ecp_grp, %object
 1922              		.size	oid_ecp_grp, 240
 1923              	oid_ecp_grp:
 1924 03e0 5C020000 		.word	.LC63
 1925 03e4 08000000 		.word	8
 1926 03e8 68020000 		.word	.LC64
 1927 03ec 68020000 		.word	.LC64
 1928 03f0 01       		.byte	1
 1929 03f1 000000   		.space	3
 1930 03f4 4C060000 		.word	.LC65
 1931 03f8 05000000 		.word	5
 1932 03fc 74020000 		.word	.LC66
 1933 0400 74020000 		.word	.LC66
 1934 0404 02       		.byte	2
 1935 0405 000000   		.space	3
 1936 0408 80020000 		.word	.LC67
 1937 040c 08000000 		.word	8
 1938 0410 8C020000 		.word	.LC68
 1939 0414 8C020000 		.word	.LC68
 1940 0418 03       		.byte	3
 1941 0419 000000   		.space	3
 1942 041c 54060000 		.word	.LC69
 1943 0420 05000000 		.word	5
 1944 0424 98020000 		.word	.LC70
 1945 0428 98020000 		.word	.LC70
 1946 042c 04       		.byte	4
 1947 042d 000000   		.space	3
 1948 0430 5C060000 		.word	.LC71
 1949 0434 05000000 		.word	5
 1950 0438 A4020000 		.word	.LC72
 1951 043c A4020000 		.word	.LC72
 1952 0440 05       		.byte	5
 1953 0441 000000   		.space	3
 1954 0444 64060000 		.word	.LC73
 1955 0448 05000000 		.word	5
 1956 044c B0020000 		.word	.LC74
 1957 0450 B0020000 		.word	.LC74
ARM GAS  C:\Users\Phuong\AppData\Local\Temp\ccOpmuD8.s 			page 50


 1958 0454 0A       		.byte	10
 1959 0455 000000   		.space	3
 1960 0458 6C060000 		.word	.LC75
 1961 045c 05000000 		.word	5
 1962 0460 BC020000 		.word	.LC76
 1963 0464 BC020000 		.word	.LC76
 1964 0468 0B       		.byte	11
 1965 0469 000000   		.space	3
 1966 046c 74060000 		.word	.LC77
 1967 0470 05000000 		.word	5
 1968 0474 C8020000 		.word	.LC78
 1969 0478 C8020000 		.word	.LC78
 1970 047c 0C       		.byte	12
 1971 047d 000000   		.space	3
 1972 0480 D4020000 		.word	.LC79
 1973 0484 09000000 		.word	9
 1974 0488 E0020000 		.word	.LC80
 1975 048c F0020000 		.word	.LC81
 1976 0490 06       		.byte	6
 1977 0491 000000   		.space	3
 1978 0494 00030000 		.word	.LC82
 1979 0498 09000000 		.word	9
 1980 049c 0C030000 		.word	.LC83
 1981 04a0 1C030000 		.word	.LC84
 1982 04a4 07       		.byte	7
 1983 04a5 000000   		.space	3
 1984 04a8 2C030000 		.word	.LC85
 1985 04ac 09000000 		.word	9
 1986 04b0 38030000 		.word	.LC86
 1987 04b4 48030000 		.word	.LC87
 1988 04b8 08       		.byte	8
 1989 04b9 000000   		.space	3
 1990 04bc 00000000 		.word	0
 1991 04c0 00000000 		.word	0
 1992 04c4 00000000 		.word	0
 1993 04c8 00000000 		.word	0
 1994 04cc 00       		.byte	0
 1995 04cd 000000   		.space	3
 1996              		.type	oid_cipher_alg, %object
 1997              		.size	oid_cipher_alg, 60
 1998              	oid_cipher_alg:
 1999 04d0 18020000 		.word	.LC57
 2000 04d4 05000000 		.word	5
 2001 04d8 20020000 		.word	.LC58
 2002 04dc 28020000 		.word	.LC59
 2003 04e0 21       		.byte	33
 2004 04e1 000000   		.space	3
 2005 04e4 30020000 		.word	.LC60
 2006 04e8 08000000 		.word	8
 2007 04ec 3C020000 		.word	.LC61
 2008 04f0 4C020000 		.word	.LC62
 2009 04f4 25       		.byte	37
 2010 04f5 000000   		.space	3
 2011 04f8 00000000 		.word	0
 2012 04fc 00000000 		.word	0
 2013 0500 00000000 		.word	0
 2014 0504 00000000 		.word	0
ARM GAS  C:\Users\Phuong\AppData\Local\Temp\ccOpmuD8.s 			page 51


 2015 0508 00       		.byte	0
 2016 0509 000000   		.space	3
 2017              		.type	oid_md_alg, %object
 2018              		.size	oid_md_alg, 140
 2019              	oid_md_alg:
 2020 050c 68010000 		.word	.LC39
 2021 0510 08000000 		.word	8
 2022 0514 74010000 		.word	.LC40
 2023 0518 7C010000 		.word	.LC41
 2024 051c 03       		.byte	3
 2025 051d 000000   		.space	3
 2026 0520 80010000 		.word	.LC42
 2027 0524 05000000 		.word	5
 2028 0528 88010000 		.word	.LC43
 2029 052c 90010000 		.word	.LC44
 2030 0530 04       		.byte	4
 2031 0531 000000   		.space	3
 2032 0534 98010000 		.word	.LC45
 2033 0538 09000000 		.word	9
 2034 053c A4010000 		.word	.LC46
 2035 0540 B0010000 		.word	.LC47
 2036 0544 05       		.byte	5
 2037 0545 000000   		.space	3
 2038 0548 B8010000 		.word	.LC48
 2039 054c 09000000 		.word	9
 2040 0550 C4010000 		.word	.LC49
 2041 0554 D0010000 		.word	.LC50
 2042 0558 06       		.byte	6
 2043 0559 000000   		.space	3
 2044 055c D8010000 		.word	.LC51
 2045 0560 09000000 		.word	9
 2046 0564 E4010000 		.word	.LC52
 2047 0568 F0010000 		.word	.LC53
 2048 056c 07       		.byte	7
 2049 056d 000000   		.space	3
 2050 0570 F8010000 		.word	.LC54
 2051 0574 09000000 		.word	9
 2052 0578 04020000 		.word	.LC55
 2053 057c 10020000 		.word	.LC56
 2054 0580 08       		.byte	8
 2055 0581 000000   		.space	3
 2056 0584 00000000 		.word	0
 2057 0588 00000000 		.word	0
 2058 058c 00000000 		.word	0
 2059 0590 00000000 		.word	0
 2060 0594 00       		.byte	0
 2061 0595 000000   		.space	3
 2062              		.type	oid_md_hmac, %object
 2063              		.size	oid_md_hmac, 120
 2064              	oid_md_hmac:
 2065 0598 A4000000 		.word	.LC24
 2066 059c 08000000 		.word	8
 2067 05a0 B0000000 		.word	.LC25
 2068 05a4 BC000000 		.word	.LC26
 2069 05a8 04       		.byte	4
 2070 05a9 000000   		.space	3
 2071 05ac C8000000 		.word	.LC27
ARM GAS  C:\Users\Phuong\AppData\Local\Temp\ccOpmuD8.s 			page 52


 2072 05b0 08000000 		.word	8
 2073 05b4 D4000000 		.word	.LC28
 2074 05b8 E0000000 		.word	.LC29
 2075 05bc 05       		.byte	5
 2076 05bd 000000   		.space	3
 2077 05c0 F0000000 		.word	.LC30
 2078 05c4 08000000 		.word	8
 2079 05c8 FC000000 		.word	.LC31
 2080 05cc 08010000 		.word	.LC32
 2081 05d0 06       		.byte	6
 2082 05d1 000000   		.space	3
 2083 05d4 18010000 		.word	.LC33
 2084 05d8 08000000 		.word	8
 2085 05dc 24010000 		.word	.LC34
 2086 05e0 30010000 		.word	.LC35
 2087 05e4 07       		.byte	7
 2088 05e5 000000   		.space	3
 2089 05e8 40010000 		.word	.LC36
 2090 05ec 08000000 		.word	8
 2091 05f0 4C010000 		.word	.LC37
 2092 05f4 58010000 		.word	.LC38
 2093 05f8 08       		.byte	8
 2094 05f9 000000   		.space	3
 2095 05fc 00000000 		.word	0
 2096 0600 00000000 		.word	0
 2097 0604 00000000 		.word	0
 2098 0608 00000000 		.word	0
 2099 060c 00       		.byte	0
 2100 060d 000000   		.space	3
 2101              		.type	oid_pkcs12_pbe_alg, %object
 2102              		.size	oid_pkcs12_pbe_alg, 60
 2103              	oid_pkcs12_pbe_alg:
 2104 0610 0C000000 		.word	.LC18
 2105 0614 0A000000 		.word	10
 2106 0618 18000000 		.word	.LC19
 2107 061c 38000000 		.word	.LC20
 2108 0620 04       		.byte	4
 2109 0621 25       		.byte	37
 2110 0622 0000     		.space	2
 2111 0624 58000000 		.word	.LC21
 2112 0628 0A000000 		.word	10
 2113 062c 64000000 		.word	.LC22
 2114 0630 84000000 		.word	.LC23
 2115 0634 04       		.byte	4
 2116 0635 23       		.byte	35
 2117 0636 0000     		.space	2
 2118 0638 00000000 		.word	0
 2119 063c 00000000 		.word	0
 2120 0640 00000000 		.word	0
 2121 0644 00000000 		.word	0
 2122 0648 00       		.byte	0
 2123 0649 00       		.byte	0
 2124 064a 0000     		.space	2
 2125              	.LC65:
 2126 064c 2B810400 		.ascii	"+\201\004\000!\000"
 2126      2100
 2127 0652 0000     		.space	2
ARM GAS  C:\Users\Phuong\AppData\Local\Temp\ccOpmuD8.s 			page 53


 2128              	.LC69:
 2129 0654 2B810400 		.ascii	"+\201\004\000\"\000"
 2129      2200
 2130 065a 0000     		.space	2
 2131              	.LC71:
 2132 065c 2B810400 		.ascii	"+\201\004\000#\000"
 2132      2300
 2133 0662 0000     		.space	2
 2134              	.LC73:
 2135 0664 2B810400 		.ascii	"+\201\004\000\037\000"
 2135      1F00
 2136 066a 0000     		.space	2
 2137              	.LC75:
 2138 066c 2B810400 		.ascii	"+\201\004\000 \000"
 2138      2000
 2139 0672 0000     		.space	2
 2140              	.LC77:
 2141 0674 2B810400 		.ascii	"+\201\004\000\012\000"
 2141      0A00
 2142              		.section	.rodata.str1.4,"aMS",%progbits,1
 2143              		.align	2
 2144              	.LC14:
 2145 0000 25642E25 		.ascii	"%d.%d\000"
 2145      6400
 2146 0006 0000     		.space	2
 2147              	.LC16:
 2148 0008 2E256400 		.ascii	".%d\000"
 2149              	.LC18:
 2150 000c 2A864886 		.ascii	"*\206H\206\367\015\001\014\001\003\000"
 2150      F70D010C 
 2150      010300
 2151 0017 00       		.space	1
 2152              	.LC19:
 2153 0018 70626557 		.ascii	"pbeWithSHAAnd3-KeyTripleDES-CBC\000"
 2153      69746853 
 2153      4841416E 
 2153      64332D4B 
 2153      65795472 
 2154              	.LC20:
 2155 0038 50424520 		.ascii	"PBE with SHA1 and 3-Key 3DES\000"
 2155      77697468 
 2155      20534841 
 2155      3120616E 
 2155      6420332D 
 2156 0055 000000   		.space	3
 2157              	.LC21:
 2158 0058 2A864886 		.ascii	"*\206H\206\367\015\001\014\001\004\000"
 2158      F70D010C 
 2158      010400
 2159 0063 00       		.space	1
 2160              	.LC22:
 2161 0064 70626557 		.ascii	"pbeWithSHAAnd2-KeyTripleDES-CBC\000"
 2161      69746853 
 2161      4841416E 
 2161      64322D4B 
 2161      65795472 
 2162              	.LC23:
ARM GAS  C:\Users\Phuong\AppData\Local\Temp\ccOpmuD8.s 			page 54


 2163 0084 50424520 		.ascii	"PBE with SHA1 and 2-Key 3DES\000"
 2163      77697468 
 2163      20534841 
 2163      3120616E 
 2163      6420322D 
 2164 00a1 000000   		.space	3
 2165              	.LC24:
 2166 00a4 2A864886 		.ascii	"*\206H\206\367\015\002\007\000"
 2166      F70D0207 
 2166      00
 2167 00ad 000000   		.space	3
 2168              	.LC25:
 2169 00b0 686D6163 		.ascii	"hmacSHA1\000"
 2169      53484131 
 2169      00
 2170 00b9 000000   		.space	3
 2171              	.LC26:
 2172 00bc 484D4143 		.ascii	"HMAC-SHA-1\000"
 2172      2D534841 
 2172      2D3100
 2173 00c7 00       		.space	1
 2174              	.LC27:
 2175 00c8 2A864886 		.ascii	"*\206H\206\367\015\002\010\000"
 2175      F70D0208 
 2175      00
 2176 00d1 000000   		.space	3
 2177              	.LC28:
 2178 00d4 686D6163 		.ascii	"hmacSHA224\000"
 2178      53484132 
 2178      323400
 2179 00df 00       		.space	1
 2180              	.LC29:
 2181 00e0 484D4143 		.ascii	"HMAC-SHA-224\000"
 2181      2D534841 
 2181      2D323234 
 2181      00
 2182 00ed 000000   		.space	3
 2183              	.LC30:
 2184 00f0 2A864886 		.ascii	"*\206H\206\367\015\002\011\000"
 2184      F70D0209 
 2184      00
 2185 00f9 000000   		.space	3
 2186              	.LC31:
 2187 00fc 686D6163 		.ascii	"hmacSHA256\000"
 2187      53484132 
 2187      353600
 2188 0107 00       		.space	1
 2189              	.LC32:
 2190 0108 484D4143 		.ascii	"HMAC-SHA-256\000"
 2190      2D534841 
 2190      2D323536 
 2190      00
 2191 0115 000000   		.space	3
 2192              	.LC33:
 2193 0118 2A864886 		.ascii	"*\206H\206\367\015\002\012\000"
 2193      F70D020A 
 2193      00
ARM GAS  C:\Users\Phuong\AppData\Local\Temp\ccOpmuD8.s 			page 55


 2194 0121 000000   		.space	3
 2195              	.LC34:
 2196 0124 686D6163 		.ascii	"hmacSHA384\000"
 2196      53484133 
 2196      383400
 2197 012f 00       		.space	1
 2198              	.LC35:
 2199 0130 484D4143 		.ascii	"HMAC-SHA-384\000"
 2199      2D534841 
 2199      2D333834 
 2199      00
 2200 013d 000000   		.space	3
 2201              	.LC36:
 2202 0140 2A864886 		.ascii	"*\206H\206\367\015\002\013\000"
 2202      F70D020B 
 2202      00
 2203 0149 000000   		.space	3
 2204              	.LC37:
 2205 014c 686D6163 		.ascii	"hmacSHA512\000"
 2205      53484135 
 2205      313200
 2206 0157 00       		.space	1
 2207              	.LC38:
 2208 0158 484D4143 		.ascii	"HMAC-SHA-512\000"
 2208      2D534841 
 2208      2D353132 
 2208      00
 2209 0165 000000   		.space	3
 2210              	.LC39:
 2211 0168 2A864886 		.ascii	"*\206H\206\367\015\002\005\000"
 2211      F70D0205 
 2211      00
 2212 0171 000000   		.space	3
 2213              	.LC40:
 2214 0174 69642D6D 		.ascii	"id-md5\000"
 2214      643500
 2215 017b 00       		.space	1
 2216              	.LC41:
 2217 017c 4D443500 		.ascii	"MD5\000"
 2218              	.LC42:
 2219 0180 2B0E0302 		.ascii	"+\016\003\002\032\000"
 2219      1A00
 2220 0186 0000     		.space	2
 2221              	.LC43:
 2222 0188 69642D73 		.ascii	"id-sha1\000"
 2222      68613100 
 2223              	.LC44:
 2224 0190 5348412D 		.ascii	"SHA-1\000"
 2224      3100
 2225 0196 0000     		.space	2
 2226              	.LC45:
 2227 0198 60864801 		.ascii	"`\206H\001e\003\004\002\004\000"
 2227      65030402 
 2227      0400
 2228 01a2 0000     		.space	2
 2229              	.LC46:
 2230 01a4 69642D73 		.ascii	"id-sha224\000"
ARM GAS  C:\Users\Phuong\AppData\Local\Temp\ccOpmuD8.s 			page 56


 2230      68613232 
 2230      3400
 2231 01ae 0000     		.space	2
 2232              	.LC47:
 2233 01b0 5348412D 		.ascii	"SHA-224\000"
 2233      32323400 
 2234              	.LC48:
 2235 01b8 60864801 		.ascii	"`\206H\001e\003\004\002\001\000"
 2235      65030402 
 2235      0100
 2236 01c2 0000     		.space	2
 2237              	.LC49:
 2238 01c4 69642D73 		.ascii	"id-sha256\000"
 2238      68613235 
 2238      3600
 2239 01ce 0000     		.space	2
 2240              	.LC50:
 2241 01d0 5348412D 		.ascii	"SHA-256\000"
 2241      32353600 
 2242              	.LC51:
 2243 01d8 60864801 		.ascii	"`\206H\001e\003\004\002\002\000"
 2243      65030402 
 2243      0200
 2244 01e2 0000     		.space	2
 2245              	.LC52:
 2246 01e4 69642D73 		.ascii	"id-sha384\000"
 2246      68613338 
 2246      3400
 2247 01ee 0000     		.space	2
 2248              	.LC53:
 2249 01f0 5348412D 		.ascii	"SHA-384\000"
 2249      33383400 
 2250              	.LC54:
 2251 01f8 60864801 		.ascii	"`\206H\001e\003\004\002\003\000"
 2251      65030402 
 2251      0300
 2252 0202 0000     		.space	2
 2253              	.LC55:
 2254 0204 69642D73 		.ascii	"id-sha512\000"
 2254      68613531 
 2254      3200
 2255 020e 0000     		.space	2
 2256              	.LC56:
 2257 0210 5348412D 		.ascii	"SHA-512\000"
 2257      35313200 
 2258              	.LC57:
 2259 0218 2B0E0302 		.ascii	"+\016\003\002\007\000"
 2259      0700
 2260 021e 0000     		.space	2
 2261              	.LC58:
 2262 0220 64657343 		.ascii	"desCBC\000"
 2262      424300
 2263 0227 00       		.space	1
 2264              	.LC59:
 2265 0228 4445532D 		.ascii	"DES-CBC\000"
 2265      43424300 
 2266              	.LC60:
ARM GAS  C:\Users\Phuong\AppData\Local\Temp\ccOpmuD8.s 			page 57


 2267 0230 2A864886 		.ascii	"*\206H\206\367\015\003\007\000"
 2267      F70D0307 
 2267      00
 2268 0239 000000   		.space	3
 2269              	.LC61:
 2270 023c 6465732D 		.ascii	"des-ede3-cbc\000"
 2270      65646533 
 2270      2D636263 
 2270      00
 2271 0249 000000   		.space	3
 2272              	.LC62:
 2273 024c 4445532D 		.ascii	"DES-EDE3-CBC\000"
 2273      45444533 
 2273      2D434243 
 2273      00
 2274 0259 000000   		.space	3
 2275              	.LC63:
 2276 025c 2A8648CE 		.ascii	"*\206H\316=\003\001\001\000"
 2276      3D030101 
 2276      00
 2277 0265 000000   		.space	3
 2278              	.LC64:
 2279 0268 73656370 		.ascii	"secp192r1\000"
 2279      31393272 
 2279      3100
 2280 0272 0000     		.space	2
 2281              	.LC66:
 2282 0274 73656370 		.ascii	"secp224r1\000"
 2282      32323472 
 2282      3100
 2283 027e 0000     		.space	2
 2284              	.LC67:
 2285 0280 2A8648CE 		.ascii	"*\206H\316=\003\001\007\000"
 2285      3D030107 
 2285      00
 2286 0289 000000   		.space	3
 2287              	.LC68:
 2288 028c 73656370 		.ascii	"secp256r1\000"
 2288      32353672 
 2288      3100
 2289 0296 0000     		.space	2
 2290              	.LC70:
 2291 0298 73656370 		.ascii	"secp384r1\000"
 2291      33383472 
 2291      3100
 2292 02a2 0000     		.space	2
 2293              	.LC72:
 2294 02a4 73656370 		.ascii	"secp521r1\000"
 2294      35323172 
 2294      3100
 2295 02ae 0000     		.space	2
 2296              	.LC74:
 2297 02b0 73656370 		.ascii	"secp192k1\000"
 2297      3139326B 
 2297      3100
 2298 02ba 0000     		.space	2
 2299              	.LC76:
ARM GAS  C:\Users\Phuong\AppData\Local\Temp\ccOpmuD8.s 			page 58


 2300 02bc 73656370 		.ascii	"secp224k1\000"
 2300      3232346B 
 2300      3100
 2301 02c6 0000     		.space	2
 2302              	.LC78:
 2303 02c8 73656370 		.ascii	"secp256k1\000"
 2303      3235366B 
 2303      3100
 2304 02d2 0000     		.space	2
 2305              	.LC79:
 2306 02d4 2B240303 		.ascii	"+$\003\003\002\010\001\001\007\000"
 2306      02080101 
 2306      0700
 2307 02de 0000     		.space	2
 2308              	.LC80:
 2309 02e0 62726169 		.ascii	"brainpoolP256r1\000"
 2309      6E706F6F 
 2309      6C503235 
 2309      36723100 
 2310              	.LC81:
 2311 02f0 62726169 		.ascii	"brainpool256r1\000"
 2311      6E706F6F 
 2311      6C323536 
 2311      723100
 2312 02ff 00       		.space	1
 2313              	.LC82:
 2314 0300 2B240303 		.ascii	"+$\003\003\002\010\001\001\013\000"
 2314      02080101 
 2314      0B00
 2315 030a 0000     		.space	2
 2316              	.LC83:
 2317 030c 62726169 		.ascii	"brainpoolP384r1\000"
 2317      6E706F6F 
 2317      6C503338 
 2317      34723100 
 2318              	.LC84:
 2319 031c 62726169 		.ascii	"brainpool384r1\000"
 2319      6E706F6F 
 2319      6C333834 
 2319      723100
 2320 032b 00       		.space	1
 2321              	.LC85:
 2322 032c 2B240303 		.ascii	"+$\003\003\002\010\001\001\015\000"
 2322      02080101 
 2322      0D00
 2323 0336 0000     		.space	2
 2324              	.LC86:
 2325 0338 62726169 		.ascii	"brainpoolP512r1\000"
 2325      6E706F6F 
 2325      6C503531 
 2325      32723100 
 2326              	.LC87:
 2327 0348 62726169 		.ascii	"brainpool512r1\000"
 2327      6E706F6F 
 2327      6C353132 
 2327      723100
 2328 0357 00       		.space	1
ARM GAS  C:\Users\Phuong\AppData\Local\Temp\ccOpmuD8.s 			page 59


 2329              	.LC88:
 2330 0358 2A864886 		.ascii	"*\206H\206\367\015\001\001\001\000"
 2330      F70D0101 
 2330      0100
 2331 0362 0000     		.space	2
 2332              	.LC89:
 2333 0364 72736145 		.ascii	"rsaEncryption\000"
 2333      6E637279 
 2333      7074696F 
 2333      6E00
 2334 0372 0000     		.space	2
 2335              	.LC90:
 2336 0374 52534100 		.ascii	"RSA\000"
 2337              	.LC91:
 2338 0378 2A8648CE 		.ascii	"*\206H\316=\002\001\000"
 2338      3D020100 
 2339              	.LC92:
 2340 0380 69642D65 		.ascii	"id-ecPublicKey\000"
 2340      63507562 
 2340      6C69634B 
 2340      657900
 2341 038f 00       		.space	1
 2342              	.LC93:
 2343 0390 47656E65 		.ascii	"Generic EC key\000"
 2343      72696320 
 2343      4543206B 
 2343      657900
 2344 039f 00       		.space	1
 2345              	.LC94:
 2346 03a0 2B810401 		.ascii	"+\201\004\001\014\000"
 2346      0C00
 2347 03a6 0000     		.space	2
 2348              	.LC95:
 2349 03a8 69642D65 		.ascii	"id-ecDH\000"
 2349      63444800 
 2350              	.LC96:
 2351 03b0 4543206B 		.ascii	"EC key for ECDH\000"
 2351      65792066 
 2351      6F722045 
 2351      43444800 
 2352              	.LC97:
 2353 03c0 2A864886 		.ascii	"*\206H\206\367\015\001\001\004\000"
 2353      F70D0101 
 2353      0400
 2354 03ca 0000     		.space	2
 2355              	.LC98:
 2356 03cc 6D643557 		.ascii	"md5WithRSAEncryption\000"
 2356      69746852 
 2356      5341456E 
 2356      63727970 
 2356      74696F6E 
 2357 03e1 000000   		.space	3
 2358              	.LC99:
 2359 03e4 52534120 		.ascii	"RSA with MD5\000"
 2359      77697468 
 2359      204D4435 
 2359      00
ARM GAS  C:\Users\Phuong\AppData\Local\Temp\ccOpmuD8.s 			page 60


 2360 03f1 000000   		.space	3
 2361              	.LC100:
 2362 03f4 2A864886 		.ascii	"*\206H\206\367\015\001\001\005\000"
 2362      F70D0101 
 2362      0500
 2363 03fe 0000     		.space	2
 2364              	.LC101:
 2365 0400 7368612D 		.ascii	"sha-1WithRSAEncryption\000"
 2365      31576974 
 2365      68525341 
 2365      456E6372 
 2365      79707469 
 2366 0417 00       		.space	1
 2367              	.LC102:
 2368 0418 52534120 		.ascii	"RSA with SHA1\000"
 2368      77697468 
 2368      20534841 
 2368      3100
 2369 0426 0000     		.space	2
 2370              	.LC103:
 2371 0428 2A864886 		.ascii	"*\206H\206\367\015\001\001\016\000"
 2371      F70D0101 
 2371      0E00
 2372 0432 0000     		.space	2
 2373              	.LC104:
 2374 0434 73686132 		.ascii	"sha224WithRSAEncryption\000"
 2374      32345769 
 2374      74685253 
 2374      41456E63 
 2374      72797074 
 2375              	.LC105:
 2376 044c 52534120 		.ascii	"RSA with SHA-224\000"
 2376      77697468 
 2376      20534841 
 2376      2D323234 
 2376      00
 2377 045d 000000   		.space	3
 2378              	.LC106:
 2379 0460 2A864886 		.ascii	"*\206H\206\367\015\001\001\013\000"
 2379      F70D0101 
 2379      0B00
 2380 046a 0000     		.space	2
 2381              	.LC107:
 2382 046c 73686132 		.ascii	"sha256WithRSAEncryption\000"
 2382      35365769 
 2382      74685253 
 2382      41456E63 
 2382      72797074 
 2383              	.LC108:
 2384 0484 52534120 		.ascii	"RSA with SHA-256\000"
 2384      77697468 
 2384      20534841 
 2384      2D323536 
 2384      00
 2385 0495 000000   		.space	3
 2386              	.LC109:
 2387 0498 2A864886 		.ascii	"*\206H\206\367\015\001\001\014\000"
ARM GAS  C:\Users\Phuong\AppData\Local\Temp\ccOpmuD8.s 			page 61


 2387      F70D0101 
 2387      0C00
 2388 04a2 0000     		.space	2
 2389              	.LC110:
 2390 04a4 73686133 		.ascii	"sha384WithRSAEncryption\000"
 2390      38345769 
 2390      74685253 
 2390      41456E63 
 2390      72797074 
 2391              	.LC111:
 2392 04bc 52534120 		.ascii	"RSA with SHA-384\000"
 2392      77697468 
 2392      20534841 
 2392      2D333834 
 2392      00
 2393 04cd 000000   		.space	3
 2394              	.LC112:
 2395 04d0 2A864886 		.ascii	"*\206H\206\367\015\001\001\015\000"
 2395      F70D0101 
 2395      0D00
 2396 04da 0000     		.space	2
 2397              	.LC113:
 2398 04dc 73686135 		.ascii	"sha512WithRSAEncryption\000"
 2398      31325769 
 2398      74685253 
 2398      41456E63 
 2398      72797074 
 2399              	.LC114:
 2400 04f4 52534120 		.ascii	"RSA with SHA-512\000"
 2400      77697468 
 2400      20534841 
 2400      2D353132 
 2400      00
 2401 0505 000000   		.space	3
 2402              	.LC115:
 2403 0508 2B0E0302 		.ascii	"+\016\003\002\035\000"
 2403      1D00
 2404 050e 0000     		.space	2
 2405              	.LC116:
 2406 0510 2A8648CE 		.ascii	"*\206H\316=\004\001\000"
 2406      3D040100 
 2407              	.LC117:
 2408 0518 65636473 		.ascii	"ecdsa-with-SHA1\000"
 2408      612D7769 
 2408      74682D53 
 2408      48413100 
 2409              	.LC118:
 2410 0528 45434453 		.ascii	"ECDSA with SHA1\000"
 2410      41207769 
 2410      74682053 
 2410      48413100 
 2411              	.LC119:
 2412 0538 2A8648CE 		.ascii	"*\206H\316=\004\003\001\000"
 2412      3D040301 
 2412      00
 2413 0541 000000   		.space	3
 2414              	.LC120:
ARM GAS  C:\Users\Phuong\AppData\Local\Temp\ccOpmuD8.s 			page 62


 2415 0544 65636473 		.ascii	"ecdsa-with-SHA224\000"
 2415      612D7769 
 2415      74682D53 
 2415      48413232 
 2415      3400
 2416 0556 0000     		.space	2
 2417              	.LC121:
 2418 0558 45434453 		.ascii	"ECDSA with SHA224\000"
 2418      41207769 
 2418      74682053 
 2418      48413232 
 2418      3400
 2419 056a 0000     		.space	2
 2420              	.LC122:
 2421 056c 2A8648CE 		.ascii	"*\206H\316=\004\003\002\000"
 2421      3D040302 
 2421      00
 2422 0575 000000   		.space	3
 2423              	.LC123:
 2424 0578 65636473 		.ascii	"ecdsa-with-SHA256\000"
 2424      612D7769 
 2424      74682D53 
 2424      48413235 
 2424      3600
 2425 058a 0000     		.space	2
 2426              	.LC124:
 2427 058c 45434453 		.ascii	"ECDSA with SHA256\000"
 2427      41207769 
 2427      74682053 
 2427      48413235 
 2427      3600
 2428 059e 0000     		.space	2
 2429              	.LC125:
 2430 05a0 2A8648CE 		.ascii	"*\206H\316=\004\003\003\000"
 2430      3D040303 
 2430      00
 2431 05a9 000000   		.space	3
 2432              	.LC126:
 2433 05ac 65636473 		.ascii	"ecdsa-with-SHA384\000"
 2433      612D7769 
 2433      74682D53 
 2433      48413338 
 2433      3400
 2434 05be 0000     		.space	2
 2435              	.LC127:
 2436 05c0 45434453 		.ascii	"ECDSA with SHA384\000"
 2436      41207769 
 2436      74682053 
 2436      48413338 
 2436      3400
 2437 05d2 0000     		.space	2
 2438              	.LC128:
 2439 05d4 2A8648CE 		.ascii	"*\206H\316=\004\003\004\000"
 2439      3D040304 
 2439      00
 2440 05dd 000000   		.space	3
 2441              	.LC129:
ARM GAS  C:\Users\Phuong\AppData\Local\Temp\ccOpmuD8.s 			page 63


 2442 05e0 65636473 		.ascii	"ecdsa-with-SHA512\000"
 2442      612D7769 
 2442      74682D53 
 2442      48413531 
 2442      3200
 2443 05f2 0000     		.space	2
 2444              	.LC130:
 2445 05f4 45434453 		.ascii	"ECDSA with SHA512\000"
 2445      41207769 
 2445      74682053 
 2445      48413531 
 2445      3200
 2446 0606 0000     		.space	2
 2447              	.LC131:
 2448 0608 2A864886 		.ascii	"*\206H\206\367\015\001\001\012\000"
 2448      F70D0101 
 2448      0A00
 2449 0612 0000     		.space	2
 2450              	.LC132:
 2451 0614 52534153 		.ascii	"RSASSA-PSS\000"
 2451      53412D50 
 2451      535300
 2452 061f 00       		.space	1
 2453              	.LC133:
 2454 0620 2B060105 		.ascii	"+\006\001\005\005\007\003\001\000"
 2454      05070301 
 2454      00
 2455 0629 000000   		.space	3
 2456              	.LC134:
 2457 062c 69642D6B 		.ascii	"id-kp-serverAuth\000"
 2457      702D7365 
 2457      72766572 
 2457      41757468 
 2457      00
 2458 063d 000000   		.space	3
 2459              	.LC135:
 2460 0640 544C5320 		.ascii	"TLS Web Server Authentication\000"
 2460      57656220 
 2460      53657276 
 2460      65722041 
 2460      75746865 
 2461 065e 0000     		.space	2
 2462              	.LC136:
 2463 0660 2B060105 		.ascii	"+\006\001\005\005\007\003\002\000"
 2463      05070302 
 2463      00
 2464 0669 000000   		.space	3
 2465              	.LC137:
 2466 066c 69642D6B 		.ascii	"id-kp-clientAuth\000"
 2466      702D636C 
 2466      69656E74 
 2466      41757468 
 2466      00
 2467 067d 000000   		.space	3
 2468              	.LC138:
 2469 0680 544C5320 		.ascii	"TLS Web Client Authentication\000"
 2469      57656220 
ARM GAS  C:\Users\Phuong\AppData\Local\Temp\ccOpmuD8.s 			page 64


 2469      436C6965 
 2469      6E742041 
 2469      75746865 
 2470 069e 0000     		.space	2
 2471              	.LC139:
 2472 06a0 2B060105 		.ascii	"+\006\001\005\005\007\003\003\000"
 2472      05070303 
 2472      00
 2473 06a9 000000   		.space	3
 2474              	.LC140:
 2475 06ac 69642D6B 		.ascii	"id-kp-codeSigning\000"
 2475      702D636F 
 2475      64655369 
 2475      676E696E 
 2475      6700
 2476 06be 0000     		.space	2
 2477              	.LC141:
 2478 06c0 436F6465 		.ascii	"Code Signing\000"
 2478      20536967 
 2478      6E696E67 
 2478      00
 2479 06cd 000000   		.space	3
 2480              	.LC142:
 2481 06d0 2B060105 		.ascii	"+\006\001\005\005\007\003\004\000"
 2481      05070304 
 2481      00
 2482 06d9 000000   		.space	3
 2483              	.LC143:
 2484 06dc 69642D6B 		.ascii	"id-kp-emailProtection\000"
 2484      702D656D 
 2484      61696C50 
 2484      726F7465 
 2484      6374696F 
 2485 06f2 0000     		.space	2
 2486              	.LC144:
 2487 06f4 452D6D61 		.ascii	"E-mail Protection\000"
 2487      696C2050 
 2487      726F7465 
 2487      6374696F 
 2487      6E00
 2488 0706 0000     		.space	2
 2489              	.LC145:
 2490 0708 2B060105 		.ascii	"+\006\001\005\005\007\003\010\000"
 2490      05070308 
 2490      00
 2491 0711 000000   		.space	3
 2492              	.LC146:
 2493 0714 69642D6B 		.ascii	"id-kp-timeStamping\000"
 2493      702D7469 
 2493      6D655374 
 2493      616D7069 
 2493      6E6700
 2494 0727 00       		.space	1
 2495              	.LC147:
 2496 0728 54696D65 		.ascii	"Time Stamping\000"
 2496      20537461 
 2496      6D70696E 
ARM GAS  C:\Users\Phuong\AppData\Local\Temp\ccOpmuD8.s 			page 65


 2496      6700
 2497 0736 0000     		.space	2
 2498              	.LC148:
 2499 0738 2B060105 		.ascii	"+\006\001\005\005\007\003\011\000"
 2499      05070309 
 2499      00
 2500 0741 000000   		.space	3
 2501              	.LC149:
 2502 0744 69642D6B 		.ascii	"id-kp-OCSPSigning\000"
 2502      702D4F43 
 2502      53505369 
 2502      676E696E 
 2502      6700
 2503 0756 0000     		.space	2
 2504              	.LC150:
 2505 0758 4F435350 		.ascii	"OCSP Signing\000"
 2505      20536967 
 2505      6E696E67 
 2505      00
 2506 0765 000000   		.space	3
 2507              	.LC151:
 2508 0768 551D1300 		.ascii	"U\035\023\000"
 2509              	.LC152:
 2510 076c 69642D63 		.ascii	"id-ce-basicConstraints\000"
 2510      652D6261 
 2510      73696343 
 2510      6F6E7374 
 2510      7261696E 
 2511 0783 00       		.space	1
 2512              	.LC153:
 2513 0784 42617369 		.ascii	"Basic Constraints\000"
 2513      6320436F 
 2513      6E737472 
 2513      61696E74 
 2513      7300
 2514 0796 0000     		.space	2
 2515              	.LC154:
 2516 0798 551D0F00 		.ascii	"U\035\017\000"
 2517              	.LC155:
 2518 079c 69642D63 		.ascii	"id-ce-keyUsage\000"
 2518      652D6B65 
 2518      79557361 
 2518      676500
 2519 07ab 00       		.space	1
 2520              	.LC156:
 2521 07ac 4B657920 		.ascii	"Key Usage\000"
 2521      55736167 
 2521      6500
 2522 07b6 0000     		.space	2
 2523              	.LC157:
 2524 07b8 551D2500 		.ascii	"U\035%\000"
 2525              	.LC158:
 2526 07bc 69642D63 		.ascii	"id-ce-extKeyUsage\000"
 2526      652D6578 
 2526      744B6579 
 2526      55736167 
 2526      6500
ARM GAS  C:\Users\Phuong\AppData\Local\Temp\ccOpmuD8.s 			page 66


 2527 07ce 0000     		.space	2
 2528              	.LC159:
 2529 07d0 45787465 		.ascii	"Extended Key Usage\000"
 2529      6E646564 
 2529      204B6579 
 2529      20557361 
 2529      676500
 2530 07e3 00       		.space	1
 2531              	.LC160:
 2532 07e4 551D1100 		.ascii	"U\035\021\000"
 2533              	.LC161:
 2534 07e8 69642D63 		.ascii	"id-ce-subjectAltName\000"
 2534      652D7375 
 2534      626A6563 
 2534      74416C74 
 2534      4E616D65 
 2535 07fd 000000   		.space	3
 2536              	.LC162:
 2537 0800 5375626A 		.ascii	"Subject Alt Name\000"
 2537      65637420 
 2537      416C7420 
 2537      4E616D65 
 2537      00
 2538 0811 000000   		.space	3
 2539              	.LC163:
 2540 0814 60864801 		.ascii	"`\206H\001\206\370B\001\001\000"
 2540      86F84201 
 2540      0100
 2541 081e 0000     		.space	2
 2542              	.LC164:
 2543 0820 69642D6E 		.ascii	"id-netscape-certtype\000"
 2543      65747363 
 2543      6170652D 
 2543      63657274 
 2543      74797065 
 2544 0835 000000   		.space	3
 2545              	.LC165:
 2546 0838 4E657473 		.ascii	"Netscape Certificate Type\000"
 2546      63617065 
 2546      20436572 
 2546      74696669 
 2546      63617465 
 2547 0852 0000     		.space	2
 2548              	.LC166:
 2549 0854 55040300 		.ascii	"U\004\003\000"
 2550              	.LC167:
 2551 0858 69642D61 		.ascii	"id-at-commonName\000"
 2551      742D636F 
 2551      6D6D6F6E 
 2551      4E616D65 
 2551      00
 2552 0869 000000   		.space	3
 2553              	.LC168:
 2554 086c 436F6D6D 		.ascii	"Common Name\000"
 2554      6F6E204E 
 2554      616D6500 
 2555              	.LC169:
ARM GAS  C:\Users\Phuong\AppData\Local\Temp\ccOpmuD8.s 			page 67


 2556 0878 434E00   		.ascii	"CN\000"
 2557 087b 00       		.space	1
 2558              	.LC170:
 2559 087c 55040600 		.ascii	"U\004\006\000"
 2560              	.LC171:
 2561 0880 69642D61 		.ascii	"id-at-countryName\000"
 2561      742D636F 
 2561      756E7472 
 2561      794E616D 
 2561      6500
 2562 0892 0000     		.space	2
 2563              	.LC172:
 2564 0894 436F756E 		.ascii	"Country\000"
 2564      74727900 
 2565              	.LC173:
 2566 089c 4300     		.ascii	"C\000"
 2567 089e 0000     		.space	2
 2568              	.LC174:
 2569 08a0 55040700 		.ascii	"U\004\007\000"
 2570              	.LC175:
 2571 08a4 69642D61 		.ascii	"id-at-locality\000"
 2571      742D6C6F 
 2571      63616C69 
 2571      747900
 2572 08b3 00       		.space	1
 2573              	.LC176:
 2574 08b4 4C6F6361 		.ascii	"Locality\000"
 2574      6C697479 
 2574      00
 2575 08bd 000000   		.space	3
 2576              	.LC177:
 2577 08c0 4C00     		.ascii	"L\000"
 2578 08c2 0000     		.space	2
 2579              	.LC178:
 2580 08c4 55040800 		.ascii	"U\004\010\000"
 2581              	.LC179:
 2582 08c8 69642D61 		.ascii	"id-at-state\000"
 2582      742D7374 
 2582      61746500 
 2583              	.LC180:
 2584 08d4 53746174 		.ascii	"State\000"
 2584      6500
 2585 08da 0000     		.space	2
 2586              	.LC181:
 2587 08dc 535400   		.ascii	"ST\000"
 2588 08df 00       		.space	1
 2589              	.LC182:
 2590 08e0 55040A00 		.ascii	"U\004\012\000"
 2591              	.LC183:
 2592 08e4 69642D61 		.ascii	"id-at-organizationName\000"
 2592      742D6F72 
 2592      67616E69 
 2592      7A617469 
 2592      6F6E4E61 
 2593 08fb 00       		.space	1
 2594              	.LC184:
 2595 08fc 4F726761 		.ascii	"Organization\000"
ARM GAS  C:\Users\Phuong\AppData\Local\Temp\ccOpmuD8.s 			page 68


 2595      6E697A61 
 2595      74696F6E 
 2595      00
 2596 0909 000000   		.space	3
 2597              	.LC185:
 2598 090c 4F00     		.ascii	"O\000"
 2599 090e 0000     		.space	2
 2600              	.LC186:
 2601 0910 55040B00 		.ascii	"U\004\013\000"
 2602              	.LC187:
 2603 0914 69642D61 		.ascii	"id-at-organizationalUnitName\000"
 2603      742D6F72 
 2603      67616E69 
 2603      7A617469 
 2603      6F6E616C 
 2604 0931 000000   		.space	3
 2605              	.LC188:
 2606 0934 4F726720 		.ascii	"Org Unit\000"
 2606      556E6974 
 2606      00
 2607 093d 000000   		.space	3
 2608              	.LC189:
 2609 0940 4F5500   		.ascii	"OU\000"
 2610 0943 00       		.space	1
 2611              	.LC190:
 2612 0944 2A864886 		.ascii	"*\206H\206\367\015\001\011\001\000"
 2612      F70D0109 
 2612      0100
 2613 094e 0000     		.space	2
 2614              	.LC191:
 2615 0950 656D6169 		.ascii	"emailAddress\000"
 2615      6C416464 
 2615      72657373 
 2615      00
 2616 095d 000000   		.space	3
 2617              	.LC192:
 2618 0960 452D6D61 		.ascii	"E-mail address\000"
 2618      696C2061 
 2618      64647265 
 2618      737300
 2619 096f 00       		.space	1
 2620              	.LC193:
 2621 0970 55040500 		.ascii	"U\004\005\000"
 2622              	.LC194:
 2623 0974 69642D61 		.ascii	"id-at-serialNumber\000"
 2623      742D7365 
 2623      7269616C 
 2623      4E756D62 
 2623      657200
 2624 0987 00       		.space	1
 2625              	.LC195:
 2626 0988 53657269 		.ascii	"Serial number\000"
 2626      616C206E 
 2626      756D6265 
 2626      7200
 2627 0996 0000     		.space	2
 2628              	.LC196:
ARM GAS  C:\Users\Phuong\AppData\Local\Temp\ccOpmuD8.s 			page 69


 2629 0998 73657269 		.ascii	"serialNumber\000"
 2629      616C4E75 
 2629      6D626572 
 2629      00
 2630 09a5 000000   		.space	3
 2631              	.LC197:
 2632 09a8 55041000 		.ascii	"U\004\020\000"
 2633              	.LC198:
 2634 09ac 69642D61 		.ascii	"id-at-postalAddress\000"
 2634      742D706F 
 2634      7374616C 
 2634      41646472 
 2634      65737300 
 2635              	.LC199:
 2636 09c0 506F7374 		.ascii	"Postal address\000"
 2636      616C2061 
 2636      64647265 
 2636      737300
 2637 09cf 00       		.space	1
 2638              	.LC200:
 2639 09d0 706F7374 		.ascii	"postalAddress\000"
 2639      616C4164 
 2639      64726573 
 2639      7300
 2640 09de 0000     		.space	2
 2641              	.LC201:
 2642 09e0 55041100 		.ascii	"U\004\021\000"
 2643              	.LC202:
 2644 09e4 69642D61 		.ascii	"id-at-postalCode\000"
 2644      742D706F 
 2644      7374616C 
 2644      436F6465 
 2644      00
 2645 09f5 000000   		.space	3
 2646              	.LC203:
 2647 09f8 506F7374 		.ascii	"Postal code\000"
 2647      616C2063 
 2647      6F646500 
 2648              	.LC204:
 2649 0a04 706F7374 		.ascii	"postalCode\000"
 2649      616C436F 
 2649      646500
 2650 0a0f 00       		.space	1
 2651              	.LC205:
 2652 0a10 55040400 		.ascii	"U\004\004\000"
 2653              	.LC206:
 2654 0a14 69642D61 		.ascii	"id-at-surName\000"
 2654      742D7375 
 2654      724E616D 
 2654      6500
 2655 0a22 0000     		.space	2
 2656              	.LC207:
 2657 0a24 5375726E 		.ascii	"Surname\000"
 2657      616D6500 
 2658              	.LC208:
 2659 0a2c 534E00   		.ascii	"SN\000"
 2660 0a2f 00       		.space	1
ARM GAS  C:\Users\Phuong\AppData\Local\Temp\ccOpmuD8.s 			page 70


 2661              	.LC209:
 2662 0a30 55042A00 		.ascii	"U\004*\000"
 2663              	.LC210:
 2664 0a34 69642D61 		.ascii	"id-at-givenName\000"
 2664      742D6769 
 2664      76656E4E 
 2664      616D6500 
 2665              	.LC211:
 2666 0a44 47697665 		.ascii	"Given name\000"
 2666      6E206E61 
 2666      6D6500
 2667 0a4f 00       		.space	1
 2668              	.LC212:
 2669 0a50 474E00   		.ascii	"GN\000"
 2670 0a53 00       		.space	1
 2671              	.LC213:
 2672 0a54 55042B00 		.ascii	"U\004+\000"
 2673              	.LC214:
 2674 0a58 69642D61 		.ascii	"id-at-initials\000"
 2674      742D696E 
 2674      69746961 
 2674      6C7300
 2675 0a67 00       		.space	1
 2676              	.LC215:
 2677 0a68 496E6974 		.ascii	"Initials\000"
 2677      69616C73 
 2677      00
 2678 0a71 000000   		.space	3
 2679              	.LC216:
 2680 0a74 696E6974 		.ascii	"initials\000"
 2680      69616C73 
 2680      00
 2681 0a7d 000000   		.space	3
 2682              	.LC217:
 2683 0a80 55042C00 		.ascii	"U\004,\000"
 2684              	.LC218:
 2685 0a84 69642D61 		.ascii	"id-at-generationQualifier\000"
 2685      742D6765 
 2685      6E657261 
 2685      74696F6E 
 2685      5175616C 
 2686 0a9e 0000     		.space	2
 2687              	.LC219:
 2688 0aa0 47656E65 		.ascii	"Generation qualifier\000"
 2688      72617469 
 2688      6F6E2071 
 2688      75616C69 
 2688      66696572 
 2689 0ab5 000000   		.space	3
 2690              	.LC220:
 2691 0ab8 67656E65 		.ascii	"generationQualifier\000"
 2691      72617469 
 2691      6F6E5175 
 2691      616C6966 
 2691      69657200 
 2692              	.LC221:
 2693 0acc 55040C00 		.ascii	"U\004\014\000"
ARM GAS  C:\Users\Phuong\AppData\Local\Temp\ccOpmuD8.s 			page 71


 2694              	.LC222:
 2695 0ad0 69642D61 		.ascii	"id-at-title\000"
 2695      742D7469 
 2695      746C6500 
 2696              	.LC223:
 2697 0adc 5469746C 		.ascii	"Title\000"
 2697      6500
 2698 0ae2 0000     		.space	2
 2699              	.LC224:
 2700 0ae4 7469746C 		.ascii	"title\000"
 2700      6500
 2701 0aea 0000     		.space	2
 2702              	.LC225:
 2703 0aec 55042E00 		.ascii	"U\004.\000"
 2704              	.LC226:
 2705 0af0 69642D61 		.ascii	"id-at-dnQualifier\000"
 2705      742D646E 
 2705      5175616C 
 2705      69666965 
 2705      7200
 2706 0b02 0000     		.space	2
 2707              	.LC227:
 2708 0b04 44697374 		.ascii	"Distinguished Name qualifier\000"
 2708      696E6775 
 2708      69736865 
 2708      64204E61 
 2708      6D652071 
 2709 0b21 000000   		.space	3
 2710              	.LC228:
 2711 0b24 646E5175 		.ascii	"dnQualifier\000"
 2711      616C6966 
 2711      69657200 
 2712              	.LC229:
 2713 0b30 55044100 		.ascii	"U\004A\000"
 2714              	.LC230:
 2715 0b34 69642D61 		.ascii	"id-at-pseudonym\000"
 2715      742D7073 
 2715      6575646F 
 2715      6E796D00 
 2716              	.LC231:
 2717 0b44 50736575 		.ascii	"Pseudonym\000"
 2717      646F6E79 
 2717      6D00
 2718 0b4e 0000     		.space	2
 2719              	.LC232:
 2720 0b50 70736575 		.ascii	"pseudonym\000"
 2720      646F6E79 
 2720      6D00
 2721 0b5a 0000     		.space	2
 2722              	.LC233:
 2723 0b5c 09922689 		.ascii	"\011\222&\211\223\362,d\001\031\000"
 2723      93F22C64 
 2723      011900
 2724 0b67 00       		.space	1
 2725              	.LC234:
 2726 0b68 69642D64 		.ascii	"id-domainComponent\000"
 2726      6F6D6169 
ARM GAS  C:\Users\Phuong\AppData\Local\Temp\ccOpmuD8.s 			page 72


 2726      6E436F6D 
 2726      706F6E65 
 2726      6E7400
 2727 0b7b 00       		.space	1
 2728              	.LC235:
 2729 0b7c 446F6D61 		.ascii	"Domain component\000"
 2729      696E2063 
 2729      6F6D706F 
 2729      6E656E74 
 2729      00
 2730 0b8d 000000   		.space	3
 2731              	.LC236:
 2732 0b90 444300   		.ascii	"DC\000"
 2733 0b93 00       		.space	1
 2734              	.LC237:
 2735 0b94 55042D00 		.ascii	"U\004-\000"
 2736              	.LC238:
 2737 0b98 69642D61 		.ascii	"id-at-uniqueIdentifier\000"
 2737      742D756E 
 2737      69717565 
 2737      4964656E 
 2737      74696669 
 2738 0baf 00       		.space	1
 2739              	.LC239:
 2740 0bb0 556E6971 		.ascii	"Unique Identifier\000"
 2740      75652049 
 2740      64656E74 
 2740      69666965 
 2740      7200
 2741 0bc2 0000     		.space	2
 2742              	.LC240:
 2743 0bc4 756E6971 		.ascii	"uniqueIdentifier\000"
 2743      75654964 
 2743      656E7469 
 2743      66696572 
 2743      00
 2744              		.text
 2745              	.Letext0:
 2746              		.file 2 ".\\Source\\mbedtls_open\\include/mbedtls/asn1.h"
 2747              		.file 3 "c:\\program files (x86)\\cypress\\psoc creator\\4.2\\psoc creator\\import\\gnu\\arm\\5.4.
 2748              		.file 4 ".\\Source\\mbedtls_open\\include/mbedtls/md.h"
 2749              		.file 5 ".\\Source\\mbedtls_open\\include/mbedtls/ecp.h"
 2750              		.file 6 ".\\Source\\mbedtls_open\\include/mbedtls/pk.h"
 2751              		.file 7 ".\\Source\\mbedtls_open\\include/mbedtls/cipher.h"
 2752              		.file 8 ".\\Source\\mbedtls_open\\include/mbedtls/oid.h"
 2753              		.file 9 "c:\\program files (x86)\\cypress\\psoc creator\\4.2\\psoc creator\\import\\gnu\\arm\\5.4.
 2754              		.file 10 "c:\\program files (x86)\\cypress\\psoc creator\\4.2\\psoc creator\\import\\gnu\\arm\\5.4