ARM GAS  C:\Users\Phuong\AppData\Local\Temp\ccqAjAEh.s 			page 1


   1              		.syntax unified
   2              		.cpu cortex-m0plus
   3              		.fpu softvfp
   4              		.eabi_attribute 20, 1
   5              		.eabi_attribute 21, 1
   6              		.eabi_attribute 23, 3
   7              		.eabi_attribute 24, 1
   8              		.eabi_attribute 25, 1
   9              		.eabi_attribute 26, 1
  10              		.eabi_attribute 30, 1
  11              		.eabi_attribute 34, 0
  12              		.eabi_attribute 18, 4
  13              		.thumb
  14              		.syntax unified
  15              		.file	"optionhandler.c"
  16              		.text
  17              	.Ltext0:
  18              		.cfi_sections	.debug_frame
  19              		.section	.text.CreateInternal,"ax",%progbits
  20              		.align	2
  21              		.code	16
  22              		.thumb_func
  23              		.type	CreateInternal, %function
  24              	CreateInternal:
  25              	.LFB1:
  26              		.file 1 "Source\\azure_iot_sdk\\c-utility\\src\\optionhandler.c"
   1:Source\azure_iot_sdk\c-utility\src/optionhandler.c **** // Copyright (c) Microsoft. All rights reserved.
   2:Source\azure_iot_sdk\c-utility\src/optionhandler.c **** // Licensed under the MIT license. See LICENSE file in the project root for full license informatio
   3:Source\azure_iot_sdk\c-utility\src/optionhandler.c **** 
   4:Source\azure_iot_sdk\c-utility\src/optionhandler.c **** #include <stdlib.h>
   5:Source\azure_iot_sdk\c-utility\src/optionhandler.c **** #include "azure_c_shared_utility/optionhandler.h"
   6:Source\azure_iot_sdk\c-utility\src/optionhandler.c **** #include "azure_c_shared_utility/xlogging.h"
   7:Source\azure_iot_sdk\c-utility\src/optionhandler.c **** #include "azure_c_shared_utility/gballoc.h"
   8:Source\azure_iot_sdk\c-utility\src/optionhandler.c **** #include "azure_c_shared_utility/vector.h"
   9:Source\azure_iot_sdk\c-utility\src/optionhandler.c **** 
  10:Source\azure_iot_sdk\c-utility\src/optionhandler.c **** typedef struct OPTION_TAG
  11:Source\azure_iot_sdk\c-utility\src/optionhandler.c **** {
  12:Source\azure_iot_sdk\c-utility\src/optionhandler.c ****     const char* name;
  13:Source\azure_iot_sdk\c-utility\src/optionhandler.c ****     void* storage;
  14:Source\azure_iot_sdk\c-utility\src/optionhandler.c **** }OPTION;
  15:Source\azure_iot_sdk\c-utility\src/optionhandler.c **** 
  16:Source\azure_iot_sdk\c-utility\src/optionhandler.c **** typedef struct OPTIONHANDLER_HANDLE_DATA_TAG
  17:Source\azure_iot_sdk\c-utility\src/optionhandler.c **** {
  18:Source\azure_iot_sdk\c-utility\src/optionhandler.c ****     pfCloneOption cloneOption;
  19:Source\azure_iot_sdk\c-utility\src/optionhandler.c ****     pfDestroyOption destroyOption;
  20:Source\azure_iot_sdk\c-utility\src/optionhandler.c ****     pfSetOption setOption;
  21:Source\azure_iot_sdk\c-utility\src/optionhandler.c ****     VECTOR_HANDLE storage;
  22:Source\azure_iot_sdk\c-utility\src/optionhandler.c **** }OPTIONHANDLER_HANDLE_DATA;
  23:Source\azure_iot_sdk\c-utility\src/optionhandler.c **** 
  24:Source\azure_iot_sdk\c-utility\src/optionhandler.c **** static OPTIONHANDLER_HANDLE CreateInternal(pfCloneOption cloneOption, pfDestroyOption destroyOption
  25:Source\azure_iot_sdk\c-utility\src/optionhandler.c **** {
  27              		.loc 1 25 0
  28              		.cfi_startproc
  29              		@ args = 0, pretend = 0, frame = 0
  30              		@ frame_needed = 0, uses_anonymous_args = 0
  31              	.LVL0:
  32 0000 F0B5     		push	{r4, r5, r6, r7, lr}
ARM GAS  C:\Users\Phuong\AppData\Local\Temp\ccqAjAEh.s 			page 2


  33              		.cfi_def_cfa_offset 20
  34              		.cfi_offset 4, -20
  35              		.cfi_offset 5, -16
  36              		.cfi_offset 6, -12
  37              		.cfi_offset 7, -8
  38              		.cfi_offset 14, -4
  39 0002 83B0     		sub	sp, sp, #12
  40              		.cfi_def_cfa_offset 32
  41 0004 0700     		movs	r7, r0
  42 0006 0E00     		movs	r6, r1
  43 0008 1500     		movs	r5, r2
  26:Source\azure_iot_sdk\c-utility\src/optionhandler.c ****     OPTIONHANDLER_HANDLE result;
  27:Source\azure_iot_sdk\c-utility\src/optionhandler.c **** 
  28:Source\azure_iot_sdk\c-utility\src/optionhandler.c ****     result = (OPTIONHANDLER_HANDLE_DATA*)malloc(sizeof(OPTIONHANDLER_HANDLE_DATA));
  44              		.loc 1 28 0
  45 000a 1020     		movs	r0, #16
  46              	.LVL1:
  47 000c FFF7FEFF 		bl	malloc
  48              	.LVL2:
  49 0010 041E     		subs	r4, r0, #0
  50              	.LVL3:
  29:Source\azure_iot_sdk\c-utility\src/optionhandler.c ****     if (result == NULL)
  51              		.loc 1 29 0
  52 0012 0DD1     		bne	.L2
  53              	.LBB2:
  30:Source\azure_iot_sdk\c-utility\src/optionhandler.c ****     {
  31:Source\azure_iot_sdk\c-utility\src/optionhandler.c ****         /*Codes_SRS_OPTIONHANDLER_02_004: [ Otherwise, OptionHandler_Create shall fail and return N
  32:Source\azure_iot_sdk\c-utility\src/optionhandler.c ****         LogError("unable to malloc");
  54              		.loc 1 32 0 discriminator 3
  55 0014 FFF7FEFF 		bl	xlogging_get_log_function
  56              	.LVL4:
  57 0018 051E     		subs	r5, r0, #0
  58              	.LVL5:
  59 001a 24D0     		beq	.L3
  60              		.loc 1 32 0 is_stmt 0 discriminator 4
  61 001c 134B     		ldr	r3, .L6
  62 001e 0193     		str	r3, [sp, #4]
  63 0020 0123     		movs	r3, #1
  64 0022 0093     		str	r3, [sp]
  65 0024 1F33     		adds	r3, r3, #31
  66 0026 124A     		ldr	r2, .L6+4
  67 0028 1249     		ldr	r1, .L6+8
  68 002a 0020     		movs	r0, #0
  69              	.LVL6:
  70 002c A847     		blx	r5
  71              	.LVL7:
  72 002e 1AE0     		b	.L3
  73              	.LVL8:
  74              	.L2:
  75              	.LBE2:
  33:Source\azure_iot_sdk\c-utility\src/optionhandler.c ****         /*return as is*/
  34:Source\azure_iot_sdk\c-utility\src/optionhandler.c ****     }
  35:Source\azure_iot_sdk\c-utility\src/optionhandler.c ****     else
  36:Source\azure_iot_sdk\c-utility\src/optionhandler.c ****     {
  37:Source\azure_iot_sdk\c-utility\src/optionhandler.c ****         /*Codes_SRS_OPTIONHANDLER_02_002: [ OptionHandler_Create shall create an empty VECTOR that 
  38:Source\azure_iot_sdk\c-utility\src/optionhandler.c ****         result->storage = VECTOR_create(sizeof(OPTION));
  76              		.loc 1 38 0 is_stmt 1
ARM GAS  C:\Users\Phuong\AppData\Local\Temp\ccqAjAEh.s 			page 3


  77 0030 0820     		movs	r0, #8
  78              	.LVL9:
  79 0032 FFF7FEFF 		bl	VECTOR_create
  80              	.LVL10:
  81 0036 E060     		str	r0, [r4, #12]
  39:Source\azure_iot_sdk\c-utility\src/optionhandler.c ****         if (result->storage == NULL)
  82              		.loc 1 39 0
  83 0038 0028     		cmp	r0, #0
  84 003a 11D1     		bne	.L4
  85              	.LBB3:
  40:Source\azure_iot_sdk\c-utility\src/optionhandler.c ****         {
  41:Source\azure_iot_sdk\c-utility\src/optionhandler.c ****             /*Codes_SRS_OPTIONHANDLER_02_004: [ Otherwise, OptionHandler_Create shall fail and retu
  42:Source\azure_iot_sdk\c-utility\src/optionhandler.c ****             LogError("unable to VECTOR_create");
  86              		.loc 1 42 0 discriminator 3
  87 003c FFF7FEFF 		bl	xlogging_get_log_function
  88              	.LVL11:
  89 0040 051E     		subs	r5, r0, #0
  90              	.LVL12:
  91 0042 08D0     		beq	.L5
  92              		.loc 1 42 0 is_stmt 0 discriminator 4
  93 0044 0C4B     		ldr	r3, .L6+12
  94 0046 0193     		str	r3, [sp, #4]
  95 0048 0123     		movs	r3, #1
  96 004a 0093     		str	r3, [sp]
  97 004c 2933     		adds	r3, r3, #41
  98 004e 084A     		ldr	r2, .L6+4
  99 0050 0849     		ldr	r1, .L6+8
 100 0052 0020     		movs	r0, #0
 101              	.LVL13:
 102 0054 A847     		blx	r5
 103              	.LVL14:
 104              	.L5:
 105              	.LBE3:
  43:Source\azure_iot_sdk\c-utility\src/optionhandler.c ****             free(result);
 106              		.loc 1 43 0 is_stmt 1
 107 0056 2000     		movs	r0, r4
 108 0058 FFF7FEFF 		bl	free
 109              	.LVL15:
  44:Source\azure_iot_sdk\c-utility\src/optionhandler.c ****             result = NULL;
 110              		.loc 1 44 0
 111 005c 0024     		movs	r4, #0
 112 005e 02E0     		b	.L3
 113              	.LVL16:
 114              	.L4:
  45:Source\azure_iot_sdk\c-utility\src/optionhandler.c ****         }
  46:Source\azure_iot_sdk\c-utility\src/optionhandler.c ****         else
  47:Source\azure_iot_sdk\c-utility\src/optionhandler.c ****         {
  48:Source\azure_iot_sdk\c-utility\src/optionhandler.c ****             /*Codes_SRS_OPTIONHANDLER_02_003: [ If all the operations succeed then OptionHandler_Cr
  49:Source\azure_iot_sdk\c-utility\src/optionhandler.c ****             result->cloneOption = cloneOption;
 115              		.loc 1 49 0
 116 0060 2760     		str	r7, [r4]
  50:Source\azure_iot_sdk\c-utility\src/optionhandler.c ****             result->destroyOption = destroyOption;
 117              		.loc 1 50 0
 118 0062 6660     		str	r6, [r4, #4]
  51:Source\azure_iot_sdk\c-utility\src/optionhandler.c ****             result->setOption = setOption;
 119              		.loc 1 51 0
 120 0064 A560     		str	r5, [r4, #8]
ARM GAS  C:\Users\Phuong\AppData\Local\Temp\ccqAjAEh.s 			page 4


 121              	.LVL17:
 122              	.L3:
  52:Source\azure_iot_sdk\c-utility\src/optionhandler.c ****             /*return as is*/
  53:Source\azure_iot_sdk\c-utility\src/optionhandler.c ****         }
  54:Source\azure_iot_sdk\c-utility\src/optionhandler.c ****     }
  55:Source\azure_iot_sdk\c-utility\src/optionhandler.c **** 
  56:Source\azure_iot_sdk\c-utility\src/optionhandler.c ****     return result;
  57:Source\azure_iot_sdk\c-utility\src/optionhandler.c **** }
 123              		.loc 1 57 0
 124 0066 2000     		movs	r0, r4
 125 0068 03B0     		add	sp, sp, #12
 126              		@ sp needed
 127              	.LVL18:
 128              	.LVL19:
 129              	.LVL20:
 130 006a F0BD     		pop	{r4, r5, r6, r7, pc}
 131              	.L7:
 132              		.align	2
 133              	.L6:
 134 006c 34000000 		.word	.LC3
 135 0070 00000000 		.word	.LANCHOR0
 136 0074 00000000 		.word	.LC1
 137 0078 48000000 		.word	.LC5
 138              		.cfi_endproc
 139              	.LFE1:
 140              		.size	CreateInternal, .-CreateInternal
 141              		.section	.text.AddOptionInternal,"ax",%progbits
 142              		.align	2
 143              		.code	16
 144              		.thumb_func
 145              		.type	AddOptionInternal, %function
 146              	AddOptionInternal:
 147              	.LFB2:
  58:Source\azure_iot_sdk\c-utility\src/optionhandler.c **** 
  59:Source\azure_iot_sdk\c-utility\src/optionhandler.c **** static OPTIONHANDLER_RESULT AddOptionInternal(OPTIONHANDLER_HANDLE handle, const char* name, const 
  60:Source\azure_iot_sdk\c-utility\src/optionhandler.c **** {
 148              		.loc 1 60 0
 149              		.cfi_startproc
 150              		@ args = 0, pretend = 0, frame = 16
 151              		@ frame_needed = 0, uses_anonymous_args = 0
 152              	.LVL21:
 153 0000 F0B5     		push	{r4, r5, r6, r7, lr}
 154              		.cfi_def_cfa_offset 20
 155              		.cfi_offset 4, -20
 156              		.cfi_offset 5, -16
 157              		.cfi_offset 6, -12
 158              		.cfi_offset 7, -8
 159              		.cfi_offset 14, -4
 160 0002 87B0     		sub	sp, sp, #28
 161              		.cfi_def_cfa_offset 48
 162 0004 0500     		movs	r5, r0
 163 0006 0C00     		movs	r4, r1
 164 0008 1600     		movs	r6, r2
  61:Source\azure_iot_sdk\c-utility\src/optionhandler.c ****     OPTIONHANDLER_RESULT result;
  62:Source\azure_iot_sdk\c-utility\src/optionhandler.c ****     const char* cloneOfName;
  63:Source\azure_iot_sdk\c-utility\src/optionhandler.c ****     if (mallocAndStrcpy_s((char**)&cloneOfName, name) != 0)
 165              		.loc 1 63 0
ARM GAS  C:\Users\Phuong\AppData\Local\Temp\ccqAjAEh.s 			page 5


 166 000a 05A8     		add	r0, sp, #20
 167              	.LVL22:
 168 000c FFF7FEFF 		bl	mallocAndStrcpy_s
 169              	.LVL23:
 170 0010 0028     		cmp	r0, #0
 171 0012 0FD0     		beq	.L9
 172              	.LBB4:
  64:Source\azure_iot_sdk\c-utility\src/optionhandler.c ****     {
  65:Source\azure_iot_sdk\c-utility\src/optionhandler.c ****         /*Codes_SRS_OPTIONHANDLER_02_009: [ Otherwise, OptionHandler_AddProperty shall succeed and 
  66:Source\azure_iot_sdk\c-utility\src/optionhandler.c ****         LogError("unable to clone name");
 173              		.loc 1 66 0 discriminator 3
 174 0014 FFF7FEFF 		bl	xlogging_get_log_function
 175              	.LVL24:
 176 0018 041E     		subs	r4, r0, #0
 177              	.LVL25:
 178 001a 47D0     		beq	.L15
 179              		.loc 1 66 0 is_stmt 0 discriminator 4
 180 001c 254B     		ldr	r3, .L17
 181 001e 0193     		str	r3, [sp, #4]
 182 0020 0123     		movs	r3, #1
 183 0022 0093     		str	r3, [sp]
 184 0024 4133     		adds	r3, r3, #65
 185 0026 244A     		ldr	r2, .L17+4
 186 0028 1032     		adds	r2, r2, #16
 187 002a 2449     		ldr	r1, .L17+8
 188 002c 0020     		movs	r0, #0
 189              	.LVL26:
 190 002e A047     		blx	r4
 191              	.LVL27:
 192              	.LBE4:
  67:Source\azure_iot_sdk\c-utility\src/optionhandler.c ****         result = OPTIONHANDLER_ERROR;
 193              		.loc 1 67 0 is_stmt 1 discriminator 4
 194 0030 0120     		movs	r0, #1
 195 0032 3CE0     		b	.L10
 196              	.LVL28:
 197              	.L9:
 198              	.LBB5:
  68:Source\azure_iot_sdk\c-utility\src/optionhandler.c ****     }
  69:Source\azure_iot_sdk\c-utility\src/optionhandler.c ****     else
  70:Source\azure_iot_sdk\c-utility\src/optionhandler.c ****     {
  71:Source\azure_iot_sdk\c-utility\src/optionhandler.c ****         /*Codes_SRS_OPTIONHANDLER_02_006: [ OptionHandler_AddProperty shall call pfCloneOption pass
  72:Source\azure_iot_sdk\c-utility\src/optionhandler.c ****         void* cloneOfValue = handle->cloneOption(name, value);
 199              		.loc 1 72 0
 200 0034 3100     		movs	r1, r6
 201 0036 2000     		movs	r0, r4
 202 0038 2B68     		ldr	r3, [r5]
 203 003a 9847     		blx	r3
 204              	.LVL29:
 205 003c 061E     		subs	r6, r0, #0
 206              	.LVL30:
  73:Source\azure_iot_sdk\c-utility\src/optionhandler.c ****         if (cloneOfValue == NULL)
 207              		.loc 1 73 0
 208 003e 12D1     		bne	.L11
 209              	.LBB6:
  74:Source\azure_iot_sdk\c-utility\src/optionhandler.c ****         {
  75:Source\azure_iot_sdk\c-utility\src/optionhandler.c ****             /*Codes_SRS_OPTIONHANDLER_02_009: [ Otherwise, OptionHandler_AddProperty shall succeed 
  76:Source\azure_iot_sdk\c-utility\src/optionhandler.c ****             LogError("unable to clone value");
ARM GAS  C:\Users\Phuong\AppData\Local\Temp\ccqAjAEh.s 			page 6


 210              		.loc 1 76 0 discriminator 3
 211 0040 FFF7FEFF 		bl	xlogging_get_log_function
 212              	.LVL31:
 213 0044 041E     		subs	r4, r0, #0
 214              	.LVL32:
 215 0046 09D0     		beq	.L12
 216              		.loc 1 76 0 is_stmt 0 discriminator 4
 217 0048 1D4B     		ldr	r3, .L17+12
 218 004a 0193     		str	r3, [sp, #4]
 219 004c 0123     		movs	r3, #1
 220 004e 0093     		str	r3, [sp]
 221 0050 4B33     		adds	r3, r3, #75
 222 0052 194A     		ldr	r2, .L17+4
 223 0054 1032     		adds	r2, r2, #16
 224 0056 1949     		ldr	r1, .L17+8
 225 0058 0020     		movs	r0, #0
 226              	.LVL33:
 227 005a A047     		blx	r4
 228              	.LVL34:
 229              	.L12:
 230              	.LBE6:
  77:Source\azure_iot_sdk\c-utility\src/optionhandler.c ****             free((void*)cloneOfName);
 231              		.loc 1 77 0 is_stmt 1
 232 005c 0598     		ldr	r0, [sp, #20]
 233 005e FFF7FEFF 		bl	free
 234              	.LVL35:
  78:Source\azure_iot_sdk\c-utility\src/optionhandler.c ****             result = OPTIONHANDLER_ERROR;
 235              		.loc 1 78 0
 236 0062 0120     		movs	r0, #1
 237 0064 23E0     		b	.L10
 238              	.LVL36:
 239              	.L11:
 240              	.LBB7:
  79:Source\azure_iot_sdk\c-utility\src/optionhandler.c ****         }
  80:Source\azure_iot_sdk\c-utility\src/optionhandler.c ****         else
  81:Source\azure_iot_sdk\c-utility\src/optionhandler.c ****         {
  82:Source\azure_iot_sdk\c-utility\src/optionhandler.c ****             OPTION temp;
  83:Source\azure_iot_sdk\c-utility\src/optionhandler.c ****             temp.name = cloneOfName;
 241              		.loc 1 83 0
 242 0066 059B     		ldr	r3, [sp, #20]
 243 0068 0393     		str	r3, [sp, #12]
  84:Source\azure_iot_sdk\c-utility\src/optionhandler.c ****             temp.storage = cloneOfValue;
 244              		.loc 1 84 0
 245 006a 0490     		str	r0, [sp, #16]
  85:Source\azure_iot_sdk\c-utility\src/optionhandler.c ****             /*Codes_SRS_OPTIONHANDLER_02_007: [ OptionHandler_AddProperty shall use VECTOR APIs to 
  86:Source\azure_iot_sdk\c-utility\src/optionhandler.c ****             if (VECTOR_push_back(handle->storage, &temp, 1) != 0)
 246              		.loc 1 86 0
 247 006c 0122     		movs	r2, #1
 248 006e 03A9     		add	r1, sp, #12
 249 0070 E868     		ldr	r0, [r5, #12]
 250              	.LVL37:
 251 0072 FFF7FEFF 		bl	VECTOR_push_back
 252              	.LVL38:
 253 0076 0028     		cmp	r0, #0
 254 0078 16D0     		beq	.L16
 255              	.LBB8:
  87:Source\azure_iot_sdk\c-utility\src/optionhandler.c ****             {
ARM GAS  C:\Users\Phuong\AppData\Local\Temp\ccqAjAEh.s 			page 7


  88:Source\azure_iot_sdk\c-utility\src/optionhandler.c ****                 /*Codes_SRS_OPTIONHANDLER_02_009: [ Otherwise, OptionHandler_AddProperty shall succ
  89:Source\azure_iot_sdk\c-utility\src/optionhandler.c ****                 LogError("unable to VECTOR_push_back");
 256              		.loc 1 89 0 discriminator 3
 257 007a FFF7FEFF 		bl	xlogging_get_log_function
 258              	.LVL39:
 259 007e 071E     		subs	r7, r0, #0
 260              	.LVL40:
 261 0080 09D0     		beq	.L14
 262              		.loc 1 89 0 is_stmt 0 discriminator 4
 263 0082 104B     		ldr	r3, .L17+16
 264 0084 0193     		str	r3, [sp, #4]
 265 0086 0123     		movs	r3, #1
 266 0088 0093     		str	r3, [sp]
 267 008a 5833     		adds	r3, r3, #88
 268 008c 0A4A     		ldr	r2, .L17+4
 269 008e 1032     		adds	r2, r2, #16
 270 0090 0A49     		ldr	r1, .L17+8
 271 0092 0020     		movs	r0, #0
 272              	.LVL41:
 273 0094 B847     		blx	r7
 274              	.LVL42:
 275              	.L14:
 276              	.LBE8:
  90:Source\azure_iot_sdk\c-utility\src/optionhandler.c ****                 handle->destroyOption(name, cloneOfValue);
 277              		.loc 1 90 0 is_stmt 1
 278 0096 6B68     		ldr	r3, [r5, #4]
 279 0098 3100     		movs	r1, r6
 280 009a 2000     		movs	r0, r4
 281 009c 9847     		blx	r3
 282              	.LVL43:
  91:Source\azure_iot_sdk\c-utility\src/optionhandler.c ****                 free((void*)cloneOfName);
 283              		.loc 1 91 0
 284 009e 0598     		ldr	r0, [sp, #20]
 285 00a0 FFF7FEFF 		bl	free
 286              	.LVL44:
  92:Source\azure_iot_sdk\c-utility\src/optionhandler.c ****                 result = OPTIONHANDLER_ERROR;
 287              		.loc 1 92 0
 288 00a4 0120     		movs	r0, #1
 289 00a6 02E0     		b	.L10
 290              	.LVL45:
 291              	.L16:
  93:Source\azure_iot_sdk\c-utility\src/optionhandler.c ****             }
  94:Source\azure_iot_sdk\c-utility\src/optionhandler.c ****             else
  95:Source\azure_iot_sdk\c-utility\src/optionhandler.c ****             {
  96:Source\azure_iot_sdk\c-utility\src/optionhandler.c ****                 /*Codes_SRS_OPTIONHANDLER_02_008: [ If all the operations succed then OptionHandler
  97:Source\azure_iot_sdk\c-utility\src/optionhandler.c ****                 result = OPTIONHANDLER_OK;
 292              		.loc 1 97 0
 293 00a8 0020     		movs	r0, #0
 294              	.LVL46:
 295 00aa 00E0     		b	.L10
 296              	.LVL47:
 297              	.L15:
 298              	.LBE7:
 299              	.LBE5:
  67:Source\azure_iot_sdk\c-utility\src/optionhandler.c ****     }
 300              		.loc 1 67 0
 301 00ac 0120     		movs	r0, #1
ARM GAS  C:\Users\Phuong\AppData\Local\Temp\ccqAjAEh.s 			page 8


 302              	.LVL48:
 303              	.L10:
  98:Source\azure_iot_sdk\c-utility\src/optionhandler.c ****             }
  99:Source\azure_iot_sdk\c-utility\src/optionhandler.c ****         }
 100:Source\azure_iot_sdk\c-utility\src/optionhandler.c ****     }
 101:Source\azure_iot_sdk\c-utility\src/optionhandler.c **** 
 102:Source\azure_iot_sdk\c-utility\src/optionhandler.c ****     return result;
 103:Source\azure_iot_sdk\c-utility\src/optionhandler.c **** }
 304              		.loc 1 103 0
 305 00ae 07B0     		add	sp, sp, #28
 306              		@ sp needed
 307              	.LVL49:
 308 00b0 F0BD     		pop	{r4, r5, r6, r7, pc}
 309              	.L18:
 310 00b2 C046     		.align	2
 311              	.L17:
 312 00b4 60000000 		.word	.LC9
 313 00b8 00000000 		.word	.LANCHOR0
 314 00bc 00000000 		.word	.LC1
 315 00c0 78000000 		.word	.LC11
 316 00c4 90000000 		.word	.LC13
 317              		.cfi_endproc
 318              	.LFE2:
 319              		.size	AddOptionInternal, .-AddOptionInternal
 320              		.section	.text.DestroyInternal,"ax",%progbits
 321              		.align	2
 322              		.code	16
 323              		.thumb_func
 324              		.type	DestroyInternal, %function
 325              	DestroyInternal:
 326              	.LFB3:
 104:Source\azure_iot_sdk\c-utility\src/optionhandler.c **** 
 105:Source\azure_iot_sdk\c-utility\src/optionhandler.c **** static void DestroyInternal(OPTIONHANDLER_HANDLE handle)
 106:Source\azure_iot_sdk\c-utility\src/optionhandler.c **** {
 327              		.loc 1 106 0
 328              		.cfi_startproc
 329              		@ args = 0, pretend = 0, frame = 0
 330              		@ frame_needed = 0, uses_anonymous_args = 0
 331              	.LVL50:
 332 0000 F8B5     		push	{r3, r4, r5, r6, r7, lr}
 333              		.cfi_def_cfa_offset 24
 334              		.cfi_offset 3, -24
 335              		.cfi_offset 4, -20
 336              		.cfi_offset 5, -16
 337              		.cfi_offset 6, -12
 338              		.cfi_offset 7, -8
 339              		.cfi_offset 14, -4
 340 0002 0600     		movs	r6, r0
 107:Source\azure_iot_sdk\c-utility\src/optionhandler.c ****     /*Codes_SRS_OPTIONHANDLER_02_016: [ Otherwise, OptionHandler_Destroy shall free all used resour
 108:Source\azure_iot_sdk\c-utility\src/optionhandler.c ****     size_t nOptions = VECTOR_size(handle->storage), i;
 341              		.loc 1 108 0
 342 0004 C068     		ldr	r0, [r0, #12]
 343              	.LVL51:
 344 0006 FFF7FEFF 		bl	VECTOR_size
 345              	.LVL52:
 346 000a 0700     		movs	r7, r0
 347              	.LVL53:
ARM GAS  C:\Users\Phuong\AppData\Local\Temp\ccqAjAEh.s 			page 9


 109:Source\azure_iot_sdk\c-utility\src/optionhandler.c ****     for (i = 0; i < nOptions; i++)
 348              		.loc 1 109 0
 349 000c 0024     		movs	r4, #0
 350 000e 0CE0     		b	.L20
 351              	.LVL54:
 352              	.L21:
 353              	.LBB9:
 110:Source\azure_iot_sdk\c-utility\src/optionhandler.c ****     {
 111:Source\azure_iot_sdk\c-utility\src/optionhandler.c ****         OPTION* option = (OPTION*)VECTOR_element(handle->storage, i);
 354              		.loc 1 111 0 discriminator 3
 355 0010 2100     		movs	r1, r4
 356 0012 F068     		ldr	r0, [r6, #12]
 357 0014 FFF7FEFF 		bl	VECTOR_element
 358              	.LVL55:
 359 0018 0500     		movs	r5, r0
 360              	.LVL56:
 112:Source\azure_iot_sdk\c-utility\src/optionhandler.c ****         handle->destroyOption(option->name, option->storage);
 361              		.loc 1 112 0 discriminator 3
 362 001a 4168     		ldr	r1, [r0, #4]
 363 001c 0068     		ldr	r0, [r0]
 364              	.LVL57:
 365 001e 7368     		ldr	r3, [r6, #4]
 366 0020 9847     		blx	r3
 367              	.LVL58:
 113:Source\azure_iot_sdk\c-utility\src/optionhandler.c ****         free((void*)option->name);
 368              		.loc 1 113 0 discriminator 3
 369 0022 2868     		ldr	r0, [r5]
 370 0024 FFF7FEFF 		bl	free
 371              	.LVL59:
 372              	.LBE9:
 109:Source\azure_iot_sdk\c-utility\src/optionhandler.c ****     {
 373              		.loc 1 109 0 discriminator 3
 374 0028 0134     		adds	r4, r4, #1
 375              	.LVL60:
 376              	.L20:
 109:Source\azure_iot_sdk\c-utility\src/optionhandler.c ****     {
 377              		.loc 1 109 0 is_stmt 0 discriminator 1
 378 002a BC42     		cmp	r4, r7
 379 002c F0D3     		bcc	.L21
 114:Source\azure_iot_sdk\c-utility\src/optionhandler.c ****     }
 115:Source\azure_iot_sdk\c-utility\src/optionhandler.c **** 
 116:Source\azure_iot_sdk\c-utility\src/optionhandler.c ****     VECTOR_destroy(handle->storage);
 380              		.loc 1 116 0 is_stmt 1
 381 002e F068     		ldr	r0, [r6, #12]
 382 0030 FFF7FEFF 		bl	VECTOR_destroy
 383              	.LVL61:
 117:Source\azure_iot_sdk\c-utility\src/optionhandler.c ****     free(handle);
 384              		.loc 1 117 0
 385 0034 3000     		movs	r0, r6
 386 0036 FFF7FEFF 		bl	free
 387              	.LVL62:
 118:Source\azure_iot_sdk\c-utility\src/optionhandler.c **** }
 388              		.loc 1 118 0
 389              		@ sp needed
 390              	.LVL63:
 391              	.LVL64:
 392              	.LVL65:
ARM GAS  C:\Users\Phuong\AppData\Local\Temp\ccqAjAEh.s 			page 10


 393 003a F8BD     		pop	{r3, r4, r5, r6, r7, pc}
 394              		.cfi_endproc
 395              	.LFE3:
 396              		.size	DestroyInternal, .-DestroyInternal
 397              		.section	.text.OptionHandler_Create,"ax",%progbits
 398              		.align	2
 399              		.global	OptionHandler_Create
 400              		.code	16
 401              		.thumb_func
 402              		.type	OptionHandler_Create, %function
 403              	OptionHandler_Create:
 404              	.LFB4:
 119:Source\azure_iot_sdk\c-utility\src/optionhandler.c **** 
 120:Source\azure_iot_sdk\c-utility\src/optionhandler.c **** OPTIONHANDLER_HANDLE OptionHandler_Create(pfCloneOption cloneOption, pfDestroyOption destroyOption,
 121:Source\azure_iot_sdk\c-utility\src/optionhandler.c **** {
 405              		.loc 1 121 0
 406              		.cfi_startproc
 407              		@ args = 0, pretend = 0, frame = 0
 408              		@ frame_needed = 0, uses_anonymous_args = 0
 409              	.LVL66:
 410 0000 F0B5     		push	{r4, r5, r6, r7, lr}
 411              		.cfi_def_cfa_offset 20
 412              		.cfi_offset 4, -20
 413              		.cfi_offset 5, -16
 414              		.cfi_offset 6, -12
 415              		.cfi_offset 7, -8
 416              		.cfi_offset 14, -4
 417 0002 87B0     		sub	sp, sp, #28
 418              		.cfi_def_cfa_offset 48
 419 0004 0400     		movs	r4, r0
 420 0006 0D00     		movs	r5, r1
 421 0008 1600     		movs	r6, r2
 122:Source\azure_iot_sdk\c-utility\src/optionhandler.c ****     /*Codes_SRS_OPTIONHANDLER_02_001: [ OptionHandler_Create shall fail and retun NULL if any param
 123:Source\azure_iot_sdk\c-utility\src/optionhandler.c ****     OPTIONHANDLER_HANDLE_DATA* result;
 124:Source\azure_iot_sdk\c-utility\src/optionhandler.c ****     if (
 422              		.loc 1 124 0
 423 000a 0028     		cmp	r0, #0
 424 000c 03D0     		beq	.L23
 125:Source\azure_iot_sdk\c-utility\src/optionhandler.c ****         (cloneOption == NULL) ||
 425              		.loc 1 125 0
 426 000e 0029     		cmp	r1, #0
 427 0010 01D0     		beq	.L23
 126:Source\azure_iot_sdk\c-utility\src/optionhandler.c ****         (destroyOption == NULL) ||
 428              		.loc 1 126 0
 429 0012 002A     		cmp	r2, #0
 430 0014 12D1     		bne	.L24
 431              	.L23:
 432              	.LBB10:
 127:Source\azure_iot_sdk\c-utility\src/optionhandler.c ****         (setOption == NULL)
 128:Source\azure_iot_sdk\c-utility\src/optionhandler.c ****         )
 129:Source\azure_iot_sdk\c-utility\src/optionhandler.c ****     {
 130:Source\azure_iot_sdk\c-utility\src/optionhandler.c ****         LogError("invalid parameter = pfCloneOption cloneOption=%p, pfDestroyOption destroyOption=%
 433              		.loc 1 130 0 discriminator 3
 434 0016 FFF7FEFF 		bl	xlogging_get_log_function
 435              	.LVL67:
 436 001a 071E     		subs	r7, r0, #0
 437              	.LVL68:
ARM GAS  C:\Users\Phuong\AppData\Local\Temp\ccqAjAEh.s 			page 11


 438 001c 11D0     		beq	.L26
 439              		.loc 1 130 0 is_stmt 0 discriminator 4
 440 001e 0496     		str	r6, [sp, #16]
 441 0020 0395     		str	r5, [sp, #12]
 442 0022 0294     		str	r4, [sp, #8]
 443 0024 084B     		ldr	r3, .L27
 444 0026 0193     		str	r3, [sp, #4]
 445 0028 0123     		movs	r3, #1
 446 002a 0093     		str	r3, [sp]
 447 002c 8133     		adds	r3, r3, #129
 448 002e 074A     		ldr	r2, .L27+4
 449 0030 2432     		adds	r2, r2, #36
 450 0032 0749     		ldr	r1, .L27+8
 451 0034 0020     		movs	r0, #0
 452              	.LVL69:
 453 0036 B847     		blx	r7
 454              	.LVL70:
 455              	.LBE10:
 131:Source\azure_iot_sdk\c-utility\src/optionhandler.c ****         result = NULL;
 456              		.loc 1 131 0 is_stmt 1 discriminator 4
 457 0038 0020     		movs	r0, #0
 458 003a 03E0     		b	.L25
 459              	.LVL71:
 460              	.L24:
 132:Source\azure_iot_sdk\c-utility\src/optionhandler.c ****     }
 133:Source\azure_iot_sdk\c-utility\src/optionhandler.c ****     else
 134:Source\azure_iot_sdk\c-utility\src/optionhandler.c ****     {
 135:Source\azure_iot_sdk\c-utility\src/optionhandler.c ****         result = CreateInternal(cloneOption, destroyOption, setOption);
 461              		.loc 1 135 0
 462 003c FFF7FEFF 		bl	CreateInternal
 463              	.LVL72:
 464 0040 00E0     		b	.L25
 465              	.LVL73:
 466              	.L26:
 131:Source\azure_iot_sdk\c-utility\src/optionhandler.c ****         result = NULL;
 467              		.loc 1 131 0
 468 0042 0020     		movs	r0, #0
 469              	.LVL74:
 470              	.L25:
 136:Source\azure_iot_sdk\c-utility\src/optionhandler.c ****     }
 137:Source\azure_iot_sdk\c-utility\src/optionhandler.c **** 
 138:Source\azure_iot_sdk\c-utility\src/optionhandler.c ****     return result;
 139:Source\azure_iot_sdk\c-utility\src/optionhandler.c **** 
 140:Source\azure_iot_sdk\c-utility\src/optionhandler.c **** }
 471              		.loc 1 140 0
 472 0044 07B0     		add	sp, sp, #28
 473              		@ sp needed
 474              	.LVL75:
 475              	.LVL76:
 476              	.LVL77:
 477 0046 F0BD     		pop	{r4, r5, r6, r7, pc}
 478              	.L28:
 479              		.align	2
 480              	.L27:
 481 0048 AC000000 		.word	.LC17
 482 004c 00000000 		.word	.LANCHOR0
 483 0050 00000000 		.word	.LC1
ARM GAS  C:\Users\Phuong\AppData\Local\Temp\ccqAjAEh.s 			page 12


 484              		.cfi_endproc
 485              	.LFE4:
 486              		.size	OptionHandler_Create, .-OptionHandler_Create
 487              		.section	.text.OptionHandler_Clone,"ax",%progbits
 488              		.align	2
 489              		.global	OptionHandler_Clone
 490              		.code	16
 491              		.thumb_func
 492              		.type	OptionHandler_Clone, %function
 493              	OptionHandler_Clone:
 494              	.LFB5:
 141:Source\azure_iot_sdk\c-utility\src/optionhandler.c **** 
 142:Source\azure_iot_sdk\c-utility\src/optionhandler.c **** OPTIONHANDLER_HANDLE OptionHandler_Clone(OPTIONHANDLER_HANDLE handler)
 143:Source\azure_iot_sdk\c-utility\src/optionhandler.c **** {
 495              		.loc 1 143 0
 496              		.cfi_startproc
 497              		@ args = 0, pretend = 0, frame = 8
 498              		@ frame_needed = 0, uses_anonymous_args = 0
 499              	.LVL78:
 500 0000 F0B5     		push	{r4, r5, r6, r7, lr}
 501              		.cfi_def_cfa_offset 20
 502              		.cfi_offset 4, -20
 503              		.cfi_offset 5, -16
 504              		.cfi_offset 6, -12
 505              		.cfi_offset 7, -8
 506              		.cfi_offset 14, -4
 507 0002 87B0     		sub	sp, sp, #28
 508              		.cfi_def_cfa_offset 48
 509 0004 071E     		subs	r7, r0, #0
 144:Source\azure_iot_sdk\c-utility\src/optionhandler.c ****     OPTIONHANDLER_HANDLE_DATA* result;
 145:Source\azure_iot_sdk\c-utility\src/optionhandler.c **** 
 146:Source\azure_iot_sdk\c-utility\src/optionhandler.c ****     if (handler == NULL)
 510              		.loc 1 146 0
 511 0006 10D1     		bne	.L30
 512              	.LBB11:
 147:Source\azure_iot_sdk\c-utility\src/optionhandler.c ****     {
 148:Source\azure_iot_sdk\c-utility\src/optionhandler.c ****         /* Codes_SRS_OPTIONHANDLER_01_010: [ If `handler` is NULL, OptionHandler_Clone shall fail a
 149:Source\azure_iot_sdk\c-utility\src/optionhandler.c ****         LogError("NULL argument: handler");
 513              		.loc 1 149 0 discriminator 3
 514 0008 FFF7FEFF 		bl	xlogging_get_log_function
 515              	.LVL79:
 516 000c 041E     		subs	r4, r0, #0
 517              	.LVL80:
 518 000e 51D0     		beq	.L37
 519              		.loc 1 149 0 is_stmt 0 discriminator 4
 520 0010 2B4B     		ldr	r3, .L38
 521 0012 0193     		str	r3, [sp, #4]
 522 0014 0123     		movs	r3, #1
 523 0016 0093     		str	r3, [sp]
 524 0018 9433     		adds	r3, r3, #148
 525 001a 2A4A     		ldr	r2, .L38+4
 526 001c 3C32     		adds	r2, r2, #60
 527 001e 2A49     		ldr	r1, .L38+8
 528 0020 0020     		movs	r0, #0
 529              	.LVL81:
 530 0022 A047     		blx	r4
 531              	.LVL82:
ARM GAS  C:\Users\Phuong\AppData\Local\Temp\ccqAjAEh.s 			page 13


 532              	.LBE11:
 150:Source\azure_iot_sdk\c-utility\src/optionhandler.c ****         result = NULL;
 533              		.loc 1 150 0 is_stmt 1 discriminator 4
 534 0024 0023     		movs	r3, #0
 535 0026 0593     		str	r3, [sp, #20]
 536 0028 46E0     		b	.L31
 537              	.LVL83:
 538              	.L30:
 151:Source\azure_iot_sdk\c-utility\src/optionhandler.c ****     }
 152:Source\azure_iot_sdk\c-utility\src/optionhandler.c ****     else
 153:Source\azure_iot_sdk\c-utility\src/optionhandler.c ****     {
 154:Source\azure_iot_sdk\c-utility\src/optionhandler.c ****         /* Codes_SRS_OPTIONHANDLER_01_001: [ `OptionHandler_Clone` shall clone an existing option h
 155:Source\azure_iot_sdk\c-utility\src/optionhandler.c ****         /* Codes_SRS_OPTIONHANDLER_01_002: [ On success it shall return a non-NULL handle. ]*/
 156:Source\azure_iot_sdk\c-utility\src/optionhandler.c ****         /* Codes_SRS_OPTIONHANDLER_01_003: [ `OptionHandler_Clone` shall allocate memory for the ne
 157:Source\azure_iot_sdk\c-utility\src/optionhandler.c ****         result = CreateInternal(handler->cloneOption, handler->destroyOption, handler->setOption);
 539              		.loc 1 157 0
 540 002a 8268     		ldr	r2, [r0, #8]
 541 002c 4168     		ldr	r1, [r0, #4]
 542 002e 0068     		ldr	r0, [r0]
 543              	.LVL84:
 544 0030 FFF7FEFF 		bl	CreateInternal
 545              	.LVL85:
 546 0034 0590     		str	r0, [sp, #20]
 547              	.LVL86:
 158:Source\azure_iot_sdk\c-utility\src/optionhandler.c ****         if (result == NULL)
 548              		.loc 1 158 0
 549 0036 0028     		cmp	r0, #0
 550 0038 0ED1     		bne	.L32
 551              	.LBB12:
 159:Source\azure_iot_sdk\c-utility\src/optionhandler.c ****         {
 160:Source\azure_iot_sdk\c-utility\src/optionhandler.c ****             /* Codes_SRS_OPTIONHANDLER_01_004: [ If allocating memory fails, `OptionHandler_Clone` 
 161:Source\azure_iot_sdk\c-utility\src/optionhandler.c ****             LogError("unable to create option handler");
 552              		.loc 1 161 0 discriminator 3
 553 003a FFF7FEFF 		bl	xlogging_get_log_function
 554              	.LVL87:
 555 003e 041E     		subs	r4, r0, #0
 556              	.LVL88:
 557 0040 3AD0     		beq	.L31
 558              		.loc 1 161 0 is_stmt 0 discriminator 4
 559 0042 224B     		ldr	r3, .L38+12
 560 0044 0193     		str	r3, [sp, #4]
 561 0046 0123     		movs	r3, #1
 562 0048 0093     		str	r3, [sp]
 563 004a A033     		adds	r3, r3, #160
 564 004c 1D4A     		ldr	r2, .L38+4
 565 004e 3C32     		adds	r2, r2, #60
 566 0050 1D49     		ldr	r1, .L38+8
 567 0052 0020     		movs	r0, #0
 568              	.LVL89:
 569 0054 A047     		blx	r4
 570              	.LVL90:
 571 0056 2FE0     		b	.L31
 572              	.LVL91:
 573              	.L32:
 574              	.LBE12:
 575              	.LBB13:
 162:Source\azure_iot_sdk\c-utility\src/optionhandler.c ****         }
ARM GAS  C:\Users\Phuong\AppData\Local\Temp\ccqAjAEh.s 			page 14


 163:Source\azure_iot_sdk\c-utility\src/optionhandler.c ****         else
 164:Source\azure_iot_sdk\c-utility\src/optionhandler.c ****         {
 165:Source\azure_iot_sdk\c-utility\src/optionhandler.c ****             /* Codes_SRS_OPTIONHANDLER_01_005: [ `OptionHandler_Clone` shall iterate through all th
 166:Source\azure_iot_sdk\c-utility\src/optionhandler.c ****             size_t option_count = VECTOR_size(handler->storage);
 576              		.loc 1 166 0 is_stmt 1
 577 0058 F868     		ldr	r0, [r7, #12]
 578              	.LVL92:
 579 005a FFF7FEFF 		bl	VECTOR_size
 580              	.LVL93:
 581 005e 0600     		movs	r6, r0
 582              	.LVL94:
 167:Source\azure_iot_sdk\c-utility\src/optionhandler.c ****             size_t i;
 168:Source\azure_iot_sdk\c-utility\src/optionhandler.c **** 
 169:Source\azure_iot_sdk\c-utility\src/optionhandler.c ****             for (i = 0; i < option_count; i++)
 583              		.loc 1 169 0
 584 0060 0024     		movs	r4, #0
 585 0062 1DE0     		b	.L33
 586              	.LVL95:
 587              	.L36:
 588              	.LBB14:
 170:Source\azure_iot_sdk\c-utility\src/optionhandler.c ****             {
 171:Source\azure_iot_sdk\c-utility\src/optionhandler.c ****                 OPTION* option = (OPTION*)VECTOR_element(handler->storage, i);
 589              		.loc 1 171 0
 590 0064 2100     		movs	r1, r4
 591 0066 F868     		ldr	r0, [r7, #12]
 592 0068 FFF7FEFF 		bl	VECTOR_element
 593              	.LVL96:
 594 006c 0500     		movs	r5, r0
 595              	.LVL97:
 172:Source\azure_iot_sdk\c-utility\src/optionhandler.c **** 
 173:Source\azure_iot_sdk\c-utility\src/optionhandler.c ****                 /* Codes_SRS_OPTIONHANDLER_01_006: [ For each option the option name shall be clone
 174:Source\azure_iot_sdk\c-utility\src/optionhandler.c ****                 /* Codes_SRS_OPTIONHANDLER_01_007: [ For each option the value shall be cloned by u
 175:Source\azure_iot_sdk\c-utility\src/optionhandler.c ****                 if (AddOptionInternal(result, option->name, option->storage) != OPTIONHANDLER_OK)
 596              		.loc 1 175 0
 597 006e 4268     		ldr	r2, [r0, #4]
 598 0070 0168     		ldr	r1, [r0]
 599 0072 0598     		ldr	r0, [sp, #20]
 600              	.LVL98:
 601 0074 FFF7FEFF 		bl	AddOptionInternal
 602              	.LVL99:
 603 0078 0028     		cmp	r0, #0
 604 007a 10D0     		beq	.L34
 605              	.LBB15:
 176:Source\azure_iot_sdk\c-utility\src/optionhandler.c ****                 {
 177:Source\azure_iot_sdk\c-utility\src/optionhandler.c ****                     /* Codes_SRS_OPTIONHANDLER_01_008: [ If cloning one of the option names fails, 
 178:Source\azure_iot_sdk\c-utility\src/optionhandler.c ****                     /* Codes_SRS_OPTIONHANDLER_01_009: [ If cloning one of the option values fails,
 179:Source\azure_iot_sdk\c-utility\src/optionhandler.c ****                     LogError("Error cloning option %s", option->name);
 606              		.loc 1 179 0 discriminator 3
 607 007c FFF7FEFF 		bl	xlogging_get_log_function
 608              	.LVL100:
 609 0080 071E     		subs	r7, r0, #0
 610              	.LVL101:
 611 0082 0FD0     		beq	.L35
 612              		.loc 1 179 0 is_stmt 0 discriminator 4
 613 0084 2B68     		ldr	r3, [r5]
 614 0086 0293     		str	r3, [sp, #8]
 615 0088 114B     		ldr	r3, .L38+16
ARM GAS  C:\Users\Phuong\AppData\Local\Temp\ccqAjAEh.s 			page 15


 616 008a 0193     		str	r3, [sp, #4]
 617 008c 0123     		movs	r3, #1
 618 008e 0093     		str	r3, [sp]
 619 0090 B233     		adds	r3, r3, #178
 620 0092 0C4A     		ldr	r2, .L38+4
 621 0094 3C32     		adds	r2, r2, #60
 622 0096 0C49     		ldr	r1, .L38+8
 623 0098 0020     		movs	r0, #0
 624              	.LVL102:
 625 009a B847     		blx	r7
 626              	.LVL103:
 627 009c 02E0     		b	.L35
 628              	.LVL104:
 629              	.L34:
 630              	.LBE15:
 631              	.LBE14:
 169:Source\azure_iot_sdk\c-utility\src/optionhandler.c ****             {
 632              		.loc 1 169 0 is_stmt 1 discriminator 2
 633 009e 0134     		adds	r4, r4, #1
 634              	.LVL105:
 635              	.L33:
 169:Source\azure_iot_sdk\c-utility\src/optionhandler.c ****             {
 636              		.loc 1 169 0 is_stmt 0 discriminator 1
 637 00a0 B442     		cmp	r4, r6
 638 00a2 DFD3     		bcc	.L36
 639              	.LVL106:
 640              	.L35:
 180:Source\azure_iot_sdk\c-utility\src/optionhandler.c ****                     break;
 181:Source\azure_iot_sdk\c-utility\src/optionhandler.c ****                 }
 182:Source\azure_iot_sdk\c-utility\src/optionhandler.c ****             }
 183:Source\azure_iot_sdk\c-utility\src/optionhandler.c **** 
 184:Source\azure_iot_sdk\c-utility\src/optionhandler.c ****             if (i < option_count)
 641              		.loc 1 184 0 is_stmt 1
 642 00a4 B442     		cmp	r4, r6
 643 00a6 07D2     		bcs	.L31
 185:Source\azure_iot_sdk\c-utility\src/optionhandler.c ****             {
 186:Source\azure_iot_sdk\c-utility\src/optionhandler.c ****                 DestroyInternal(result);
 644              		.loc 1 186 0
 645 00a8 0598     		ldr	r0, [sp, #20]
 646 00aa FFF7FEFF 		bl	DestroyInternal
 647              	.LVL107:
 187:Source\azure_iot_sdk\c-utility\src/optionhandler.c ****                 result = NULL;
 648              		.loc 1 187 0
 649 00ae 0023     		movs	r3, #0
 650 00b0 0593     		str	r3, [sp, #20]
 651 00b2 01E0     		b	.L31
 652              	.LVL108:
 653              	.L37:
 654              	.LBE13:
 150:Source\azure_iot_sdk\c-utility\src/optionhandler.c ****     }
 655              		.loc 1 150 0
 656 00b4 0023     		movs	r3, #0
 657 00b6 0593     		str	r3, [sp, #20]
 658              	.LVL109:
 659              	.L31:
 188:Source\azure_iot_sdk\c-utility\src/optionhandler.c ****             }
 189:Source\azure_iot_sdk\c-utility\src/optionhandler.c ****         }
ARM GAS  C:\Users\Phuong\AppData\Local\Temp\ccqAjAEh.s 			page 16


 190:Source\azure_iot_sdk\c-utility\src/optionhandler.c ****     }
 191:Source\azure_iot_sdk\c-utility\src/optionhandler.c **** 
 192:Source\azure_iot_sdk\c-utility\src/optionhandler.c ****     return result;
 193:Source\azure_iot_sdk\c-utility\src/optionhandler.c **** }
 660              		.loc 1 193 0
 661 00b8 0598     		ldr	r0, [sp, #20]
 662 00ba 07B0     		add	sp, sp, #28
 663              		@ sp needed
 664 00bc F0BD     		pop	{r4, r5, r6, r7, pc}
 665              	.L39:
 666 00be C046     		.align	2
 667              	.L38:
 668 00c0 1C010000 		.word	.LC21
 669 00c4 00000000 		.word	.LANCHOR0
 670 00c8 00000000 		.word	.LC1
 671 00cc 34010000 		.word	.LC23
 672 00d0 54010000 		.word	.LC25
 673              		.cfi_endproc
 674              	.LFE5:
 675              		.size	OptionHandler_Clone, .-OptionHandler_Clone
 676              		.section	.text.OptionHandler_AddOption,"ax",%progbits
 677              		.align	2
 678              		.global	OptionHandler_AddOption
 679              		.code	16
 680              		.thumb_func
 681              		.type	OptionHandler_AddOption, %function
 682              	OptionHandler_AddOption:
 683              	.LFB6:
 194:Source\azure_iot_sdk\c-utility\src/optionhandler.c **** 
 195:Source\azure_iot_sdk\c-utility\src/optionhandler.c **** OPTIONHANDLER_RESULT OptionHandler_AddOption(OPTIONHANDLER_HANDLE handle, const char* name, const v
 196:Source\azure_iot_sdk\c-utility\src/optionhandler.c **** {
 684              		.loc 1 196 0
 685              		.cfi_startproc
 686              		@ args = 0, pretend = 0, frame = 0
 687              		@ frame_needed = 0, uses_anonymous_args = 0
 688              	.LVL110:
 689 0000 F0B5     		push	{r4, r5, r6, r7, lr}
 690              		.cfi_def_cfa_offset 20
 691              		.cfi_offset 4, -20
 692              		.cfi_offset 5, -16
 693              		.cfi_offset 6, -12
 694              		.cfi_offset 7, -8
 695              		.cfi_offset 14, -4
 696 0002 87B0     		sub	sp, sp, #28
 697              		.cfi_def_cfa_offset 48
 698 0004 0400     		movs	r4, r0
 699 0006 0D00     		movs	r5, r1
 700 0008 1600     		movs	r6, r2
 197:Source\azure_iot_sdk\c-utility\src/optionhandler.c ****     OPTIONHANDLER_RESULT result;
 198:Source\azure_iot_sdk\c-utility\src/optionhandler.c ****     /*Codes_SRS_OPTIONHANDLER_02_001: [ OptionHandler_Create shall fail and retun NULL if any param
 199:Source\azure_iot_sdk\c-utility\src/optionhandler.c ****     if (
 701              		.loc 1 199 0
 702 000a 0028     		cmp	r0, #0
 703 000c 03D0     		beq	.L41
 200:Source\azure_iot_sdk\c-utility\src/optionhandler.c ****         (handle == NULL) ||
 704              		.loc 1 200 0
 705 000e 0029     		cmp	r1, #0
ARM GAS  C:\Users\Phuong\AppData\Local\Temp\ccqAjAEh.s 			page 17


 706 0010 01D0     		beq	.L41
 201:Source\azure_iot_sdk\c-utility\src/optionhandler.c ****         (name == NULL) ||
 707              		.loc 1 201 0
 708 0012 002A     		cmp	r2, #0
 709 0014 12D1     		bne	.L42
 710              	.L41:
 711              	.LBB16:
 202:Source\azure_iot_sdk\c-utility\src/optionhandler.c ****         (value == NULL)
 203:Source\azure_iot_sdk\c-utility\src/optionhandler.c ****         )
 204:Source\azure_iot_sdk\c-utility\src/optionhandler.c ****     {
 205:Source\azure_iot_sdk\c-utility\src/optionhandler.c ****         LogError("invalid arguments: OPTIONHANDLER_HANDLE handle=%p, const char* name=%p, void* val
 712              		.loc 1 205 0 discriminator 3
 713 0016 FFF7FEFF 		bl	xlogging_get_log_function
 714              	.LVL111:
 715 001a 071E     		subs	r7, r0, #0
 716              	.LVL112:
 717 001c 11D0     		beq	.L44
 718              		.loc 1 205 0 is_stmt 0 discriminator 4
 719 001e 0496     		str	r6, [sp, #16]
 720 0020 0395     		str	r5, [sp, #12]
 721 0022 0294     		str	r4, [sp, #8]
 722 0024 084B     		ldr	r3, .L45
 723 0026 0193     		str	r3, [sp, #4]
 724 0028 0123     		movs	r3, #1
 725 002a 0093     		str	r3, [sp]
 726 002c CC33     		adds	r3, r3, #204
 727 002e 074A     		ldr	r2, .L45+4
 728 0030 5032     		adds	r2, r2, #80
 729 0032 0749     		ldr	r1, .L45+8
 730 0034 0020     		movs	r0, #0
 731              	.LVL113:
 732 0036 B847     		blx	r7
 733              	.LVL114:
 734              	.LBE16:
 206:Source\azure_iot_sdk\c-utility\src/optionhandler.c ****         result= OPTIONHANDLER_INVALIDARG;
 735              		.loc 1 206 0 is_stmt 1 discriminator 4
 736 0038 0220     		movs	r0, #2
 737 003a 03E0     		b	.L43
 738              	.LVL115:
 739              	.L42:
 207:Source\azure_iot_sdk\c-utility\src/optionhandler.c ****     }
 208:Source\azure_iot_sdk\c-utility\src/optionhandler.c ****     else
 209:Source\azure_iot_sdk\c-utility\src/optionhandler.c ****     {
 210:Source\azure_iot_sdk\c-utility\src/optionhandler.c ****         result = AddOptionInternal(handle, name, value);
 740              		.loc 1 210 0
 741 003c FFF7FEFF 		bl	AddOptionInternal
 742              	.LVL116:
 743 0040 00E0     		b	.L43
 744              	.LVL117:
 745              	.L44:
 206:Source\azure_iot_sdk\c-utility\src/optionhandler.c ****         result= OPTIONHANDLER_INVALIDARG;
 746              		.loc 1 206 0
 747 0042 0220     		movs	r0, #2
 748              	.LVL118:
 749              	.L43:
 211:Source\azure_iot_sdk\c-utility\src/optionhandler.c ****     }
 212:Source\azure_iot_sdk\c-utility\src/optionhandler.c **** 
ARM GAS  C:\Users\Phuong\AppData\Local\Temp\ccqAjAEh.s 			page 18


 213:Source\azure_iot_sdk\c-utility\src/optionhandler.c ****     return result;
 214:Source\azure_iot_sdk\c-utility\src/optionhandler.c **** }
 750              		.loc 1 214 0
 751 0044 07B0     		add	sp, sp, #28
 752              		@ sp needed
 753              	.LVL119:
 754              	.LVL120:
 755              	.LVL121:
 756 0046 F0BD     		pop	{r4, r5, r6, r7, pc}
 757              	.L46:
 758              		.align	2
 759              	.L45:
 760 0048 6C010000 		.word	.LC29
 761 004c 00000000 		.word	.LANCHOR0
 762 0050 00000000 		.word	.LC1
 763              		.cfi_endproc
 764              	.LFE6:
 765              		.size	OptionHandler_AddOption, .-OptionHandler_AddOption
 766              		.section	.text.OptionHandler_FeedOptions,"ax",%progbits
 767              		.align	2
 768              		.global	OptionHandler_FeedOptions
 769              		.code	16
 770              		.thumb_func
 771              		.type	OptionHandler_FeedOptions, %function
 772              	OptionHandler_FeedOptions:
 773              	.LFB7:
 215:Source\azure_iot_sdk\c-utility\src/optionhandler.c **** 
 216:Source\azure_iot_sdk\c-utility\src/optionhandler.c **** OPTIONHANDLER_RESULT OptionHandler_FeedOptions(OPTIONHANDLER_HANDLE handle, void* destinationHandle
 217:Source\azure_iot_sdk\c-utility\src/optionhandler.c **** {
 774              		.loc 1 217 0
 775              		.cfi_startproc
 776              		@ args = 0, pretend = 0, frame = 0
 777              		@ frame_needed = 0, uses_anonymous_args = 0
 778              	.LVL122:
 779 0000 F0B5     		push	{r4, r5, r6, r7, lr}
 780              		.cfi_def_cfa_offset 20
 781              		.cfi_offset 4, -20
 782              		.cfi_offset 5, -16
 783              		.cfi_offset 6, -12
 784              		.cfi_offset 7, -8
 785              		.cfi_offset 14, -4
 786 0002 85B0     		sub	sp, sp, #20
 787              		.cfi_def_cfa_offset 40
 788 0004 0500     		movs	r5, r0
 789 0006 0E00     		movs	r6, r1
 218:Source\azure_iot_sdk\c-utility\src/optionhandler.c ****     OPTIONHANDLER_RESULT result;
 219:Source\azure_iot_sdk\c-utility\src/optionhandler.c ****     /*Codes_SRS_OPTIONHANDLER_02_010: [ OptionHandler_FeedOptions shall fail and return OPTIONHANDL
 220:Source\azure_iot_sdk\c-utility\src/optionhandler.c ****     if (
 790              		.loc 1 220 0
 791 0008 0028     		cmp	r0, #0
 792 000a 01D0     		beq	.L48
 221:Source\azure_iot_sdk\c-utility\src/optionhandler.c ****         (handle == NULL) ||
 793              		.loc 1 221 0
 794 000c 0029     		cmp	r1, #0
 795 000e 11D1     		bne	.L49
 796              	.L48:
 797              	.LBB17:
ARM GAS  C:\Users\Phuong\AppData\Local\Temp\ccqAjAEh.s 			page 19


 222:Source\azure_iot_sdk\c-utility\src/optionhandler.c ****         (destinationHandle == NULL)
 223:Source\azure_iot_sdk\c-utility\src/optionhandler.c ****         )
 224:Source\azure_iot_sdk\c-utility\src/optionhandler.c ****     {
 225:Source\azure_iot_sdk\c-utility\src/optionhandler.c ****         LogError("invalid arguments OPTIONHANDLER_HANDLE handle=%p, void* destinationHandle=%p", ha
 798              		.loc 1 225 0 discriminator 3
 799 0010 FFF7FEFF 		bl	xlogging_get_log_function
 800              	.LVL123:
 801 0014 041E     		subs	r4, r0, #0
 802              	.LVL124:
 803 0016 34D0     		beq	.L55
 804              		.loc 1 225 0 is_stmt 0 discriminator 4
 805 0018 0396     		str	r6, [sp, #12]
 806 001a 0295     		str	r5, [sp, #8]
 807 001c 1B4B     		ldr	r3, .L57
 808 001e 0193     		str	r3, [sp, #4]
 809 0020 0123     		movs	r3, #1
 810 0022 0093     		str	r3, [sp]
 811 0024 E033     		adds	r3, r3, #224
 812 0026 1A4A     		ldr	r2, .L57+4
 813 0028 6832     		adds	r2, r2, #104
 814 002a 1A49     		ldr	r1, .L57+8
 815 002c 0020     		movs	r0, #0
 816              	.LVL125:
 817 002e A047     		blx	r4
 818              	.LVL126:
 819              	.LBE17:
 226:Source\azure_iot_sdk\c-utility\src/optionhandler.c ****         result = OPTIONHANDLER_INVALIDARG;
 820              		.loc 1 226 0 is_stmt 1 discriminator 4
 821 0030 0220     		movs	r0, #2
 822 0032 29E0     		b	.L50
 823              	.LVL127:
 824              	.L49:
 825              	.LBB18:
 227:Source\azure_iot_sdk\c-utility\src/optionhandler.c ****     }
 228:Source\azure_iot_sdk\c-utility\src/optionhandler.c ****     else
 229:Source\azure_iot_sdk\c-utility\src/optionhandler.c ****     {
 230:Source\azure_iot_sdk\c-utility\src/optionhandler.c ****         /*Codes_SRS_OPTIONHANDLER_02_011: [ Otherwise, OptionHandler_FeedOptions shall use VECTOR's
 231:Source\azure_iot_sdk\c-utility\src/optionhandler.c ****         size_t nOptions = VECTOR_size(handle->storage), i;
 826              		.loc 1 231 0
 827 0034 C068     		ldr	r0, [r0, #12]
 828              	.LVL128:
 829 0036 FFF7FEFF 		bl	VECTOR_size
 830              	.LVL129:
 831 003a 0700     		movs	r7, r0
 832              	.LVL130:
 232:Source\azure_iot_sdk\c-utility\src/optionhandler.c ****         for (i = 0;i < nOptions;i++)
 833              		.loc 1 232 0
 834 003c 0024     		movs	r4, #0
 835 003e 1AE0     		b	.L51
 836              	.LVL131:
 837              	.L54:
 838              	.LBB19:
 233:Source\azure_iot_sdk\c-utility\src/optionhandler.c ****         {
 234:Source\azure_iot_sdk\c-utility\src/optionhandler.c ****             OPTION* option = (OPTION*)VECTOR_element(handle->storage, i);
 839              		.loc 1 234 0
 840 0040 2100     		movs	r1, r4
 841 0042 E868     		ldr	r0, [r5, #12]
ARM GAS  C:\Users\Phuong\AppData\Local\Temp\ccqAjAEh.s 			page 20


 842 0044 FFF7FEFF 		bl	VECTOR_element
 843              	.LVL132:
 235:Source\azure_iot_sdk\c-utility\src/optionhandler.c ****             /*Codes_SRS_OPTIONHANDLER_02_012: [ OptionHandler_FeedOptions shall call for every pair
 236:Source\azure_iot_sdk\c-utility\src/optionhandler.c ****             if (handle->setOption(destinationHandle, option->name, option->storage) != 0)
 844              		.loc 1 236 0
 845 0048 4268     		ldr	r2, [r0, #4]
 846 004a 0168     		ldr	r1, [r0]
 847 004c 3000     		movs	r0, r6
 848              	.LVL133:
 849 004e AB68     		ldr	r3, [r5, #8]
 850 0050 9847     		blx	r3
 851              	.LVL134:
 852 0052 0028     		cmp	r0, #0
 853 0054 0ED0     		beq	.L52
 854              	.LBB20:
 237:Source\azure_iot_sdk\c-utility\src/optionhandler.c ****             {
 238:Source\azure_iot_sdk\c-utility\src/optionhandler.c ****                 LogError("failure while trying to _SetOption");
 855              		.loc 1 238 0 discriminator 3
 856 0056 FFF7FEFF 		bl	xlogging_get_log_function
 857              	.LVL135:
 858 005a 051E     		subs	r5, r0, #0
 859              	.LVL136:
 860 005c 0DD0     		beq	.L53
 861              		.loc 1 238 0 is_stmt 0 discriminator 4
 862 005e 0E4B     		ldr	r3, .L57+12
 863 0060 0193     		str	r3, [sp, #4]
 864 0062 0123     		movs	r3, #1
 865 0064 0093     		str	r3, [sp]
 866 0066 ED33     		adds	r3, r3, #237
 867 0068 094A     		ldr	r2, .L57+4
 868 006a 6832     		adds	r2, r2, #104
 869 006c 0949     		ldr	r1, .L57+8
 870 006e 0020     		movs	r0, #0
 871              	.LVL137:
 872 0070 A847     		blx	r5
 873              	.LVL138:
 874 0072 02E0     		b	.L53
 875              	.LVL139:
 876              	.L52:
 877              	.LBE20:
 878              	.LBE19:
 232:Source\azure_iot_sdk\c-utility\src/optionhandler.c ****         {
 879              		.loc 1 232 0 is_stmt 1 discriminator 2
 880 0074 0134     		adds	r4, r4, #1
 881              	.LVL140:
 882              	.L51:
 232:Source\azure_iot_sdk\c-utility\src/optionhandler.c ****         {
 883              		.loc 1 232 0 is_stmt 0 discriminator 1
 884 0076 BC42     		cmp	r4, r7
 885 0078 E2D3     		bcc	.L54
 886              	.LVL141:
 887              	.L53:
 239:Source\azure_iot_sdk\c-utility\src/optionhandler.c ****                 break;
 240:Source\azure_iot_sdk\c-utility\src/optionhandler.c ****             }
 241:Source\azure_iot_sdk\c-utility\src/optionhandler.c ****         }
 242:Source\azure_iot_sdk\c-utility\src/optionhandler.c **** 
 243:Source\azure_iot_sdk\c-utility\src/optionhandler.c ****         if (i == nOptions)
ARM GAS  C:\Users\Phuong\AppData\Local\Temp\ccqAjAEh.s 			page 21


 888              		.loc 1 243 0 is_stmt 1
 889 007a BC42     		cmp	r4, r7
 890 007c 03D1     		bne	.L56
 244:Source\azure_iot_sdk\c-utility\src/optionhandler.c ****         {
 245:Source\azure_iot_sdk\c-utility\src/optionhandler.c ****             /*Codes_SRS_OPTIONHANDLER_02_014: [ Otherwise, OptionHandler_FeedOptions shall fail and
 246:Source\azure_iot_sdk\c-utility\src/optionhandler.c ****             result = OPTIONHANDLER_OK;
 891              		.loc 1 246 0
 892 007e 0020     		movs	r0, #0
 893 0080 02E0     		b	.L50
 894              	.LVL142:
 895              	.L55:
 896              	.LBE18:
 226:Source\azure_iot_sdk\c-utility\src/optionhandler.c ****     }
 897              		.loc 1 226 0
 898 0082 0220     		movs	r0, #2
 899              	.LVL143:
 900 0084 00E0     		b	.L50
 901              	.LVL144:
 902              	.L56:
 903              	.LBB21:
 247:Source\azure_iot_sdk\c-utility\src/optionhandler.c ****         }
 248:Source\azure_iot_sdk\c-utility\src/optionhandler.c ****         else
 249:Source\azure_iot_sdk\c-utility\src/optionhandler.c ****         {
 250:Source\azure_iot_sdk\c-utility\src/optionhandler.c ****             /*Codes_SRS_OPTIONHANDLER_02_013: [ If all the operations succeed then OptionHandler_Fe
 251:Source\azure_iot_sdk\c-utility\src/optionhandler.c ****             result = OPTIONHANDLER_ERROR;
 904              		.loc 1 251 0
 905 0086 0120     		movs	r0, #1
 906              	.LVL145:
 907              	.L50:
 908              	.LBE21:
 252:Source\azure_iot_sdk\c-utility\src/optionhandler.c ****         }
 253:Source\azure_iot_sdk\c-utility\src/optionhandler.c ****     }
 254:Source\azure_iot_sdk\c-utility\src/optionhandler.c ****     return result;
 255:Source\azure_iot_sdk\c-utility\src/optionhandler.c **** }
 909              		.loc 1 255 0
 910 0088 05B0     		add	sp, sp, #20
 911              		@ sp needed
 912              	.LVL146:
 913 008a F0BD     		pop	{r4, r5, r6, r7, pc}
 914              	.L58:
 915              		.align	2
 916              	.L57:
 917 008c C4010000 		.word	.LC33
 918 0090 00000000 		.word	.LANCHOR0
 919 0094 00000000 		.word	.LC1
 920 0098 14020000 		.word	.LC35
 921              		.cfi_endproc
 922              	.LFE7:
 923              		.size	OptionHandler_FeedOptions, .-OptionHandler_FeedOptions
 924              		.section	.text.OptionHandler_Destroy,"ax",%progbits
 925              		.align	2
 926              		.global	OptionHandler_Destroy
 927              		.code	16
 928              		.thumb_func
 929              		.type	OptionHandler_Destroy, %function
 930              	OptionHandler_Destroy:
 931              	.LFB8:
ARM GAS  C:\Users\Phuong\AppData\Local\Temp\ccqAjAEh.s 			page 22


 256:Source\azure_iot_sdk\c-utility\src/optionhandler.c **** 
 257:Source\azure_iot_sdk\c-utility\src/optionhandler.c **** void OptionHandler_Destroy(OPTIONHANDLER_HANDLE handle)
 258:Source\azure_iot_sdk\c-utility\src/optionhandler.c **** {
 932              		.loc 1 258 0
 933              		.cfi_startproc
 934              		@ args = 0, pretend = 0, frame = 0
 935              		@ frame_needed = 0, uses_anonymous_args = 0
 936              	.LVL147:
 937 0000 30B5     		push	{r4, r5, lr}
 938              		.cfi_def_cfa_offset 12
 939              		.cfi_offset 4, -12
 940              		.cfi_offset 5, -8
 941              		.cfi_offset 14, -4
 942 0002 85B0     		sub	sp, sp, #20
 943              		.cfi_def_cfa_offset 32
 944 0004 041E     		subs	r4, r0, #0
 259:Source\azure_iot_sdk\c-utility\src/optionhandler.c ****     /*Codes_SRS_OPTIONHANDLER_02_015: [ OptionHandler_Destroy shall do nothing if parameter handle 
 260:Source\azure_iot_sdk\c-utility\src/optionhandler.c ****     if (handle == NULL)
 945              		.loc 1 260 0
 946 0006 10D1     		bne	.L60
 947              	.LBB22:
 261:Source\azure_iot_sdk\c-utility\src/optionhandler.c ****     {
 262:Source\azure_iot_sdk\c-utility\src/optionhandler.c ****         LogError("invalid argument OPTIONHANDLER_HANDLE handle=%p", handle);
 948              		.loc 1 262 0 discriminator 3
 949 0008 FFF7FEFF 		bl	xlogging_get_log_function
 950              	.LVL148:
 951 000c 051E     		subs	r5, r0, #0
 952              	.LVL149:
 953 000e 0ED0     		beq	.L59
 954              		.loc 1 262 0 is_stmt 0 discriminator 4
 955 0010 0294     		str	r4, [sp, #8]
 956 0012 084B     		ldr	r3, .L62
 957 0014 0193     		str	r3, [sp, #4]
 958 0016 0123     		movs	r3, #1
 959 0018 0093     		str	r3, [sp]
 960 001a 0633     		adds	r3, r3, #6
 961 001c FF33     		adds	r3, r3, #255
 962 001e 064A     		ldr	r2, .L62+4
 963 0020 0432     		adds	r2, r2, #4
 964 0022 0649     		ldr	r1, .L62+8
 965 0024 0020     		movs	r0, #0
 966              	.LVL150:
 967 0026 A847     		blx	r5
 968              	.LVL151:
 969 0028 01E0     		b	.L59
 970              	.LVL152:
 971              	.L60:
 972              	.LBE22:
 263:Source\azure_iot_sdk\c-utility\src/optionhandler.c ****     }
 264:Source\azure_iot_sdk\c-utility\src/optionhandler.c ****     else
 265:Source\azure_iot_sdk\c-utility\src/optionhandler.c ****     {
 266:Source\azure_iot_sdk\c-utility\src/optionhandler.c ****         DestroyInternal(handle);
 973              		.loc 1 266 0 is_stmt 1
 974 002a FFF7FEFF 		bl	DestroyInternal
 975              	.LVL153:
 976              	.L59:
 267:Source\azure_iot_sdk\c-utility\src/optionhandler.c ****     }
ARM GAS  C:\Users\Phuong\AppData\Local\Temp\ccqAjAEh.s 			page 23


 268:Source\azure_iot_sdk\c-utility\src/optionhandler.c **** }
 977              		.loc 1 268 0
 978 002e 05B0     		add	sp, sp, #20
 979              		@ sp needed
 980              	.LVL154:
 981 0030 30BD     		pop	{r4, r5, pc}
 982              	.L63:
 983 0032 C046     		.align	2
 984              	.L62:
 985 0034 38020000 		.word	.LC39
 986 0038 80000000 		.word	.LANCHOR1
 987 003c 00000000 		.word	.LC1
 988              		.cfi_endproc
 989              	.LFE8:
 990              		.size	OptionHandler_Destroy, .-OptionHandler_Destroy
 991              		.section	.rodata
 992              		.align	2
 993              		.set	.LANCHOR0,. + 0
 994              		.set	.LANCHOR1,. + 128
 995              		.type	__func__.5964, %object
 996              		.size	__func__.5964, 15
 997              	__func__.5964:
 998 0000 43726561 		.ascii	"CreateInternal\000"
 998      7465496E 
 998      7465726E 
 998      616C00
 999 000f 00       		.space	1
 1000              		.type	__func__.5978, %object
 1001              		.size	__func__.5978, 18
 1002              	__func__.5978:
 1003 0010 4164644F 		.ascii	"AddOptionInternal\000"
 1003      7074696F 
 1003      6E496E74 
 1003      65726E61 
 1003      6C00
 1004 0022 0000     		.space	2
 1005              		.type	__func__.6005, %object
 1006              		.size	__func__.6005, 21
 1007              	__func__.6005:
 1008 0024 4F707469 		.ascii	"OptionHandler_Create\000"
 1008      6F6E4861 
 1008      6E646C65 
 1008      725F4372 
 1008      65617465 
 1009 0039 000000   		.space	3
 1010              		.type	__func__.6013, %object
 1011              		.size	__func__.6013, 20
 1012              	__func__.6013:
 1013 003c 4F707469 		.ascii	"OptionHandler_Clone\000"
 1013      6F6E4861 
 1013      6E646C65 
 1013      725F436C 
 1013      6F6E6500 
 1014              		.type	__func__.6035, %object
 1015              		.size	__func__.6035, 24
 1016              	__func__.6035:
 1017 0050 4F707469 		.ascii	"OptionHandler_AddOption\000"
ARM GAS  C:\Users\Phuong\AppData\Local\Temp\ccqAjAEh.s 			page 24


 1017      6F6E4861 
 1017      6E646C65 
 1017      725F4164 
 1017      644F7074 
 1018              		.type	__func__.6044, %object
 1019              		.size	__func__.6044, 26
 1020              	__func__.6044:
 1021 0068 4F707469 		.ascii	"OptionHandler_FeedOptions\000"
 1021      6F6E4861 
 1021      6E646C65 
 1021      725F4665 
 1021      65644F70 
 1022 0082 0000     		.space	2
 1023              		.type	__func__.6060, %object
 1024              		.size	__func__.6060, 22
 1025              	__func__.6060:
 1026 0084 4F707469 		.ascii	"OptionHandler_Destroy\000"
 1026      6F6E4861 
 1026      6E646C65 
 1026      725F4465 
 1026      7374726F 
 1027              		.section	.rodata.str1.4,"aMS",%progbits,1
 1028              		.align	2
 1029              	.LC1:
 1030 0000 536F7572 		.ascii	"Source\\azure_iot_sdk\\c-utility\\src\\optionhandle"
 1030      63655C61 
 1030      7A757265 
 1030      5F696F74 
 1030      5F73646B 
 1031 002f 722E6300 		.ascii	"r.c\000"
 1032 0033 00       		.space	1
 1033              	.LC3:
 1034 0034 756E6162 		.ascii	"unable to malloc\000"
 1034      6C652074 
 1034      6F206D61 
 1034      6C6C6F63 
 1034      00
 1035 0045 000000   		.space	3
 1036              	.LC5:
 1037 0048 756E6162 		.ascii	"unable to VECTOR_create\000"
 1037      6C652074 
 1037      6F205645 
 1037      43544F52 
 1037      5F637265 
 1038              	.LC9:
 1039 0060 756E6162 		.ascii	"unable to clone name\000"
 1039      6C652074 
 1039      6F20636C 
 1039      6F6E6520 
 1039      6E616D65 
 1040 0075 000000   		.space	3
 1041              	.LC11:
 1042 0078 756E6162 		.ascii	"unable to clone value\000"
 1042      6C652074 
 1042      6F20636C 
 1042      6F6E6520 
 1042      76616C75 
ARM GAS  C:\Users\Phuong\AppData\Local\Temp\ccqAjAEh.s 			page 25


 1043 008e 0000     		.space	2
 1044              	.LC13:
 1045 0090 756E6162 		.ascii	"unable to VECTOR_push_back\000"
 1045      6C652074 
 1045      6F205645 
 1045      43544F52 
 1045      5F707573 
 1046 00ab 00       		.space	1
 1047              	.LC17:
 1048 00ac 696E7661 		.ascii	"invalid parameter = pfCloneOption cloneOption=%p, p"
 1048      6C696420 
 1048      70617261 
 1048      6D657465 
 1048      72203D20 
 1049 00df 66446573 		.ascii	"fDestroyOption destroyOption=%p, pfSetOption setOpt"
 1049      74726F79 
 1049      4F707469 
 1049      6F6E2064 
 1049      65737472 
 1050 0112 696F6E3D 		.ascii	"ion=%p\000"
 1050      257000
 1051 0119 000000   		.space	3
 1052              	.LC21:
 1053 011c 4E554C4C 		.ascii	"NULL argument: handler\000"
 1053      20617267 
 1053      756D656E 
 1053      743A2068 
 1053      616E646C 
 1054 0133 00       		.space	1
 1055              	.LC23:
 1056 0134 756E6162 		.ascii	"unable to create option handler\000"
 1056      6C652074 
 1056      6F206372 
 1056      65617465 
 1056      206F7074 
 1057              	.LC25:
 1058 0154 4572726F 		.ascii	"Error cloning option %s\000"
 1058      7220636C 
 1058      6F6E696E 
 1058      67206F70 
 1058      74696F6E 
 1059              	.LC29:
 1060 016c 696E7661 		.ascii	"invalid arguments: OPTIONHANDLER_HANDLE handle=%p, "
 1060      6C696420 
 1060      61726775 
 1060      6D656E74 
 1060      733A204F 
 1061 019f 636F6E73 		.ascii	"const char* name=%p, void* value=%p\000"
 1061      74206368 
 1061      61722A20 
 1061      6E616D65 
 1061      3D25702C 
 1062 01c3 00       		.space	1
 1063              	.LC33:
 1064 01c4 696E7661 		.ascii	"invalid arguments OPTIONHANDLER_HANDLE handle=%p, v"
 1064      6C696420 
 1064      61726775 
ARM GAS  C:\Users\Phuong\AppData\Local\Temp\ccqAjAEh.s 			page 26


 1064      6D656E74 
 1064      73204F50 
 1065 01f7 6F69642A 		.ascii	"oid* destinationHandle=%p\000"
 1065      20646573 
 1065      74696E61 
 1065      74696F6E 
 1065      48616E64 
 1066 0211 000000   		.space	3
 1067              	.LC35:
 1068 0214 6661696C 		.ascii	"failure while trying to _SetOption\000"
 1068      75726520 
 1068      7768696C 
 1068      65207472 
 1068      79696E67 
 1069 0237 00       		.space	1
 1070              	.LC39:
 1071 0238 696E7661 		.ascii	"invalid argument OPTIONHANDLER_HANDLE handle=%p\000"
 1071      6C696420 
 1071      61726775 
 1071      6D656E74 
 1071      204F5054 
 1072              		.text
 1073              	.Letext0:
 1074              		.file 2 "c:\\program files (x86)\\cypress\\psoc creator\\4.2\\psoc creator\\import\\gnu\\arm\\5.4.
 1075              		.file 3 ".\\Source\\azure_iot_sdk\\c-utility\\inc/azure_c_shared_utility/optionhandler.h"
 1076              		.file 4 ".\\Source\\azure_iot_sdk\\c-utility\\inc/azure_c_shared_utility/xlogging.h"
 1077              		.file 5 ".\\Source\\azure_iot_sdk\\c-utility\\inc/azure_c_shared_utility/vector_types.h"
 1078              		.file 6 "c:\\program files (x86)\\cypress\\psoc creator\\4.2\\psoc creator\\import\\gnu\\arm\\5.4.
 1079              		.file 7 ".\\Source\\azure_iot_sdk\\c-utility\\inc/azure_c_shared_utility/vector.h"
 1080              		.file 8 ".\\Source\\azure_iot_sdk\\c-utility\\inc/azure_c_shared_utility/crt_abstractions.h"