ARM GAS  C:\Users\Phuong\AppData\Local\Temp\cchebmXp.s 			page 1


   1              		.syntax unified
   2              		.cpu cortex-m0plus
   3              		.fpu softvfp
   4              		.eabi_attribute 20, 1
   5              		.eabi_attribute 21, 1
   6              		.eabi_attribute 23, 3
   7              		.eabi_attribute 24, 1
   8              		.eabi_attribute 25, 1
   9              		.eabi_attribute 26, 1
  10              		.eabi_attribute 30, 1
  11              		.eabi_attribute 34, 0
  12              		.eabi_attribute 18, 4
  13              		.thumb
  14              		.syntax unified
  15              		.file	"pem.c"
  16              		.text
  17              	.Ltext0:
  18              		.cfi_sections	.debug_frame
  19              		.section	.text.pem_get_iv,"ax",%progbits
  20              		.align	2
  21              		.code	16
  22              		.thumb_func
  23              		.type	pem_get_iv, %function
  24              	pem_get_iv:
  25              	.LFB9:
  26              		.file 1 "Source\\mbedtls_open\\library\\pem.c"
   1:Source\mbedtls_open\library/pem.c **** /*
   2:Source\mbedtls_open\library/pem.c ****  *  Privacy Enhanced Mail (PEM) decoding
   3:Source\mbedtls_open\library/pem.c ****  *
   4:Source\mbedtls_open\library/pem.c ****  *  Copyright (C) 2006-2015, ARM Limited, All Rights Reserved
   5:Source\mbedtls_open\library/pem.c ****  *  SPDX-License-Identifier: Apache-2.0
   6:Source\mbedtls_open\library/pem.c ****  *
   7:Source\mbedtls_open\library/pem.c ****  *  Licensed under the Apache License, Version 2.0 (the "License"); you may
   8:Source\mbedtls_open\library/pem.c ****  *  not use this file except in compliance with the License.
   9:Source\mbedtls_open\library/pem.c ****  *  You may obtain a copy of the License at
  10:Source\mbedtls_open\library/pem.c ****  *
  11:Source\mbedtls_open\library/pem.c ****  *  http://www.apache.org/licenses/LICENSE-2.0
  12:Source\mbedtls_open\library/pem.c ****  *
  13:Source\mbedtls_open\library/pem.c ****  *  Unless required by applicable law or agreed to in writing, software
  14:Source\mbedtls_open\library/pem.c ****  *  distributed under the License is distributed on an "AS IS" BASIS, WITHOUT
  15:Source\mbedtls_open\library/pem.c ****  *  WARRANTIES OR CONDITIONS OF ANY KIND, either express or implied.
  16:Source\mbedtls_open\library/pem.c ****  *  See the License for the specific language governing permissions and
  17:Source\mbedtls_open\library/pem.c ****  *  limitations under the License.
  18:Source\mbedtls_open\library/pem.c ****  *
  19:Source\mbedtls_open\library/pem.c ****  *  This file is part of mbed TLS (https://tls.mbed.org)
  20:Source\mbedtls_open\library/pem.c ****  */
  21:Source\mbedtls_open\library/pem.c **** 
  22:Source\mbedtls_open\library/pem.c **** #if !defined(MBEDTLS_CONFIG_FILE)
  23:Source\mbedtls_open\library/pem.c **** #include "mbedtls/config.h"
  24:Source\mbedtls_open\library/pem.c **** #else
  25:Source\mbedtls_open\library/pem.c **** #include MBEDTLS_CONFIG_FILE
  26:Source\mbedtls_open\library/pem.c **** #endif
  27:Source\mbedtls_open\library/pem.c **** 
  28:Source\mbedtls_open\library/pem.c **** #if defined(MBEDTLS_PEM_PARSE_C) || defined(MBEDTLS_PEM_WRITE_C)
  29:Source\mbedtls_open\library/pem.c **** 
  30:Source\mbedtls_open\library/pem.c **** #include "mbedtls/pem.h"
  31:Source\mbedtls_open\library/pem.c **** #include "mbedtls/base64.h"
ARM GAS  C:\Users\Phuong\AppData\Local\Temp\cchebmXp.s 			page 2


  32:Source\mbedtls_open\library/pem.c **** #include "mbedtls/des.h"
  33:Source\mbedtls_open\library/pem.c **** #include "mbedtls/aes.h"
  34:Source\mbedtls_open\library/pem.c **** #include "mbedtls/md5.h"
  35:Source\mbedtls_open\library/pem.c **** #include "mbedtls/cipher.h"
  36:Source\mbedtls_open\library/pem.c **** #include "mbedtls/platform_util.h"
  37:Source\mbedtls_open\library/pem.c **** 
  38:Source\mbedtls_open\library/pem.c **** #include <string.h>
  39:Source\mbedtls_open\library/pem.c **** 
  40:Source\mbedtls_open\library/pem.c **** #if defined(MBEDTLS_PLATFORM_C)
  41:Source\mbedtls_open\library/pem.c **** #include "mbedtls/platform.h"
  42:Source\mbedtls_open\library/pem.c **** #else
  43:Source\mbedtls_open\library/pem.c **** #include <stdlib.h>
  44:Source\mbedtls_open\library/pem.c **** #define mbedtls_calloc    calloc
  45:Source\mbedtls_open\library/pem.c **** #define mbedtls_free       free
  46:Source\mbedtls_open\library/pem.c **** #endif
  47:Source\mbedtls_open\library/pem.c **** 
  48:Source\mbedtls_open\library/pem.c **** #if defined(MBEDTLS_PEM_PARSE_C)
  49:Source\mbedtls_open\library/pem.c **** void mbedtls_pem_init( mbedtls_pem_context *ctx )
  50:Source\mbedtls_open\library/pem.c **** {
  51:Source\mbedtls_open\library/pem.c ****     memset( ctx, 0, sizeof( mbedtls_pem_context ) );
  52:Source\mbedtls_open\library/pem.c **** }
  53:Source\mbedtls_open\library/pem.c **** 
  54:Source\mbedtls_open\library/pem.c **** #if defined(MBEDTLS_MD5_C) && defined(MBEDTLS_CIPHER_MODE_CBC) &&         \
  55:Source\mbedtls_open\library/pem.c ****     ( defined(MBEDTLS_DES_C) || defined(MBEDTLS_AES_C) )
  56:Source\mbedtls_open\library/pem.c **** /*
  57:Source\mbedtls_open\library/pem.c ****  * Read a 16-byte hex string and convert it to binary
  58:Source\mbedtls_open\library/pem.c ****  */
  59:Source\mbedtls_open\library/pem.c **** static int pem_get_iv( const unsigned char *s, unsigned char *iv,
  60:Source\mbedtls_open\library/pem.c ****                        size_t iv_len )
  61:Source\mbedtls_open\library/pem.c **** {
  27              		.loc 1 61 0
  28              		.cfi_startproc
  29              		@ args = 0, pretend = 0, frame = 0
  30              		@ frame_needed = 0, uses_anonymous_args = 0
  31              	.LVL0:
  32 0000 70B5     		push	{r4, r5, r6, lr}
  33              		.cfi_def_cfa_offset 16
  34              		.cfi_offset 4, -16
  35              		.cfi_offset 5, -12
  36              		.cfi_offset 6, -8
  37              		.cfi_offset 14, -4
  38 0002 0400     		movs	r4, r0
  39 0004 0E00     		movs	r6, r1
  40 0006 1500     		movs	r5, r2
  62:Source\mbedtls_open\library/pem.c ****     size_t i, j, k;
  63:Source\mbedtls_open\library/pem.c **** 
  64:Source\mbedtls_open\library/pem.c ****     memset( iv, 0, iv_len );
  41              		.loc 1 64 0
  42 0008 0021     		movs	r1, #0
  43              	.LVL1:
  44 000a 3000     		movs	r0, r6
  45              	.LVL2:
  46 000c FFF7FEFF 		bl	memset
  47              	.LVL3:
  65:Source\mbedtls_open\library/pem.c **** 
  66:Source\mbedtls_open\library/pem.c ****     for( i = 0; i < iv_len * 2; i++, s++ )
  48              		.loc 1 66 0
ARM GAS  C:\Users\Phuong\AppData\Local\Temp\cchebmXp.s 			page 3


  49 0010 0022     		movs	r2, #0
  50 0012 1EE0     		b	.L2
  51              	.LVL4:
  52              	.L8:
  67:Source\mbedtls_open\library/pem.c ****     {
  68:Source\mbedtls_open\library/pem.c ****         if( *s >= '0' && *s <= '9' ) j = *s - '0'; else
  53              		.loc 1 68 0
  54 0014 2378     		ldrb	r3, [r4]
  55 0016 1900     		movs	r1, r3
  56 0018 3039     		subs	r1, r1, #48
  57 001a C9B2     		uxtb	r1, r1
  58 001c 0929     		cmp	r1, #9
  59 001e 01D8     		bhi	.L3
  60              		.loc 1 68 0 is_stmt 0 discriminator 1
  61 0020 303B     		subs	r3, r3, #48
  62              	.LVL5:
  63 0022 0CE0     		b	.L4
  64              	.LVL6:
  65              	.L3:
  69:Source\mbedtls_open\library/pem.c ****         if( *s >= 'A' && *s <= 'F' ) j = *s - '7'; else
  66              		.loc 1 69 0 is_stmt 1
  67 0024 1900     		movs	r1, r3
  68 0026 4139     		subs	r1, r1, #65
  69 0028 C9B2     		uxtb	r1, r1
  70 002a 0529     		cmp	r1, #5
  71 002c 01D8     		bhi	.L5
  72              		.loc 1 69 0 is_stmt 0 discriminator 1
  73 002e 373B     		subs	r3, r3, #55
  74              	.LVL7:
  75 0030 05E0     		b	.L4
  76              	.LVL8:
  77              	.L5:
  70:Source\mbedtls_open\library/pem.c ****         if( *s >= 'a' && *s <= 'f' ) j = *s - 'W'; else
  78              		.loc 1 70 0 is_stmt 1
  79 0032 1900     		movs	r1, r3
  80 0034 6139     		subs	r1, r1, #97
  81 0036 C9B2     		uxtb	r1, r1
  82 0038 0529     		cmp	r1, #5
  83 003a 0FD8     		bhi	.L9
  84              		.loc 1 70 0 is_stmt 0 discriminator 1
  85 003c 573B     		subs	r3, r3, #87
  86              	.LVL9:
  87              	.L4:
  71:Source\mbedtls_open\library/pem.c ****             return( MBEDTLS_ERR_PEM_INVALID_ENC_IV );
  72:Source\mbedtls_open\library/pem.c **** 
  73:Source\mbedtls_open\library/pem.c ****         k = ( ( i & 1 ) != 0 ) ? j : j << 4;
  88              		.loc 1 73 0 is_stmt 1
  89 003e D107     		lsls	r1, r2, #31
  90 0040 00D4     		bmi	.L7
  91              		.loc 1 73 0 is_stmt 0 discriminator 1
  92 0042 1B01     		lsls	r3, r3, #4
  93              	.LVL10:
  94              	.L7:
  74:Source\mbedtls_open\library/pem.c **** 
  75:Source\mbedtls_open\library/pem.c ****         iv[i >> 1] = (unsigned char)( iv[i >> 1] | k );
  95              		.loc 1 75 0 is_stmt 1 discriminator 4
  96 0044 5108     		lsrs	r1, r2, #1
ARM GAS  C:\Users\Phuong\AppData\Local\Temp\cchebmXp.s 			page 4


  97 0046 7118     		adds	r1, r6, r1
  98 0048 0878     		ldrb	r0, [r1]
  99 004a 0343     		orrs	r3, r0
 100              	.LVL11:
 101 004c 0B70     		strb	r3, [r1]
  66:Source\mbedtls_open\library/pem.c ****     {
 102              		.loc 1 66 0 discriminator 4
 103 004e 0132     		adds	r2, r2, #1
 104              	.LVL12:
 105 0050 0134     		adds	r4, r4, #1
 106              	.LVL13:
 107              	.L2:
  66:Source\mbedtls_open\library/pem.c ****     {
 108              		.loc 1 66 0 is_stmt 0 discriminator 2
 109 0052 6B00     		lsls	r3, r5, #1
 110 0054 9A42     		cmp	r2, r3
 111 0056 DDD3     		bcc	.L8
  76:Source\mbedtls_open\library/pem.c ****     }
  77:Source\mbedtls_open\library/pem.c **** 
  78:Source\mbedtls_open\library/pem.c ****     return( 0 );
 112              		.loc 1 78 0 is_stmt 1
 113 0058 0020     		movs	r0, #0
 114 005a 00E0     		b	.L6
 115              	.L9:
  71:Source\mbedtls_open\library/pem.c **** 
 116              		.loc 1 71 0
 117 005c 0048     		ldr	r0, .L10
 118              	.L6:
  79:Source\mbedtls_open\library/pem.c **** }
 119              		.loc 1 79 0
 120              		@ sp needed
 121              	.LVL14:
 122              	.LVL15:
 123              	.LVL16:
 124 005e 70BD     		pop	{r4, r5, r6, pc}
 125              	.L11:
 126              		.align	2
 127              	.L10:
 128 0060 00EEFFFF 		.word	-4608
 129              		.cfi_endproc
 130              	.LFE9:
 131              		.size	pem_get_iv, .-pem_get_iv
 132              		.section	.text.pem_pbkdf1,"ax",%progbits
 133              		.align	2
 134              		.code	16
 135              		.thumb_func
 136              		.type	pem_pbkdf1, %function
 137              	pem_pbkdf1:
 138              	.LFB10:
  80:Source\mbedtls_open\library/pem.c **** 
  81:Source\mbedtls_open\library/pem.c **** static int pem_pbkdf1( unsigned char *key, size_t keylen,
  82:Source\mbedtls_open\library/pem.c ****                        unsigned char *iv,
  83:Source\mbedtls_open\library/pem.c ****                        const unsigned char *pwd, size_t pwdlen )
  84:Source\mbedtls_open\library/pem.c **** {
 139              		.loc 1 84 0
 140              		.cfi_startproc
 141              		@ args = 4, pretend = 0, frame = 112
ARM GAS  C:\Users\Phuong\AppData\Local\Temp\cchebmXp.s 			page 5


 142              		@ frame_needed = 0, uses_anonymous_args = 0
 143              	.LVL17:
 144 0000 F0B5     		push	{r4, r5, r6, r7, lr}
 145              		.cfi_def_cfa_offset 20
 146              		.cfi_offset 4, -20
 147              		.cfi_offset 5, -16
 148              		.cfi_offset 6, -12
 149              		.cfi_offset 7, -8
 150              		.cfi_offset 14, -4
 151 0002 9DB0     		sub	sp, sp, #116
 152              		.cfi_def_cfa_offset 136
 153 0004 0190     		str	r0, [sp, #4]
 154 0006 0E00     		movs	r6, r1
 155 0008 1500     		movs	r5, r2
 156 000a 1F00     		movs	r7, r3
  85:Source\mbedtls_open\library/pem.c ****     mbedtls_md5_context md5_ctx;
  86:Source\mbedtls_open\library/pem.c ****     unsigned char md5sum[16];
  87:Source\mbedtls_open\library/pem.c ****     size_t use_len;
  88:Source\mbedtls_open\library/pem.c ****     int ret;
  89:Source\mbedtls_open\library/pem.c **** 
  90:Source\mbedtls_open\library/pem.c ****     mbedtls_md5_init( &md5_ctx );
 157              		.loc 1 90 0
 158 000c 06A8     		add	r0, sp, #24
 159              	.LVL18:
 160 000e FFF7FEFF 		bl	mbedtls_md5_init
 161              	.LVL19:
  91:Source\mbedtls_open\library/pem.c **** 
  92:Source\mbedtls_open\library/pem.c ****     /*
  93:Source\mbedtls_open\library/pem.c ****      * key[ 0..15] = MD5(pwd || IV)
  94:Source\mbedtls_open\library/pem.c ****      */
  95:Source\mbedtls_open\library/pem.c ****     if( ( ret = mbedtls_md5_starts_ret( &md5_ctx ) ) != 0 )
 162              		.loc 1 95 0
 163 0012 06A8     		add	r0, sp, #24
 164 0014 FFF7FEFF 		bl	mbedtls_md5_starts_ret
 165              	.LVL20:
 166 0018 041E     		subs	r4, r0, #0
 167              	.LVL21:
 168 001a 4BD1     		bne	.L13
  96:Source\mbedtls_open\library/pem.c ****         goto exit;
  97:Source\mbedtls_open\library/pem.c ****     if( ( ret = mbedtls_md5_update_ret( &md5_ctx, pwd, pwdlen ) ) != 0 )
 169              		.loc 1 97 0
 170 001c 229A     		ldr	r2, [sp, #136]
 171 001e 3900     		movs	r1, r7
 172 0020 06A8     		add	r0, sp, #24
 173              	.LVL22:
 174 0022 FFF7FEFF 		bl	mbedtls_md5_update_ret
 175              	.LVL23:
 176 0026 041E     		subs	r4, r0, #0
 177              	.LVL24:
 178 0028 44D1     		bne	.L13
  98:Source\mbedtls_open\library/pem.c ****         goto exit;
  99:Source\mbedtls_open\library/pem.c ****     if( ( ret = mbedtls_md5_update_ret( &md5_ctx, iv,  8 ) ) != 0 )
 179              		.loc 1 99 0
 180 002a 0822     		movs	r2, #8
 181 002c 2900     		movs	r1, r5
 182 002e 06A8     		add	r0, sp, #24
 183              	.LVL25:
ARM GAS  C:\Users\Phuong\AppData\Local\Temp\cchebmXp.s 			page 6


 184 0030 FFF7FEFF 		bl	mbedtls_md5_update_ret
 185              	.LVL26:
 186 0034 041E     		subs	r4, r0, #0
 187              	.LVL27:
 188 0036 3DD1     		bne	.L13
 100:Source\mbedtls_open\library/pem.c ****         goto exit;
 101:Source\mbedtls_open\library/pem.c ****     if( ( ret = mbedtls_md5_finish_ret( &md5_ctx, md5sum ) ) != 0 )
 189              		.loc 1 101 0
 190 0038 02A9     		add	r1, sp, #8
 191 003a 06A8     		add	r0, sp, #24
 192              	.LVL28:
 193 003c FFF7FEFF 		bl	mbedtls_md5_finish_ret
 194              	.LVL29:
 195 0040 041E     		subs	r4, r0, #0
 196              	.LVL30:
 197 0042 37D1     		bne	.L13
 102:Source\mbedtls_open\library/pem.c ****         goto exit;
 103:Source\mbedtls_open\library/pem.c **** 
 104:Source\mbedtls_open\library/pem.c ****     if( keylen <= 16 )
 198              		.loc 1 104 0
 199 0044 102E     		cmp	r6, #16
 200 0046 05D8     		bhi	.L14
 105:Source\mbedtls_open\library/pem.c ****     {
 106:Source\mbedtls_open\library/pem.c ****         memcpy( key, md5sum, keylen );
 201              		.loc 1 106 0
 202 0048 3200     		movs	r2, r6
 203 004a 02A9     		add	r1, sp, #8
 204 004c 0198     		ldr	r0, [sp, #4]
 205              	.LVL31:
 206 004e FFF7FEFF 		bl	memcpy
 207              	.LVL32:
 107:Source\mbedtls_open\library/pem.c ****         goto exit;
 208              		.loc 1 107 0
 209 0052 2FE0     		b	.L13
 210              	.LVL33:
 211              	.L14:
 108:Source\mbedtls_open\library/pem.c ****     }
 109:Source\mbedtls_open\library/pem.c **** 
 110:Source\mbedtls_open\library/pem.c ****     memcpy( key, md5sum, 16 );
 212              		.loc 1 110 0
 213 0054 1022     		movs	r2, #16
 214 0056 02A9     		add	r1, sp, #8
 215 0058 0198     		ldr	r0, [sp, #4]
 216              	.LVL34:
 217 005a FFF7FEFF 		bl	memcpy
 218              	.LVL35:
 111:Source\mbedtls_open\library/pem.c **** 
 112:Source\mbedtls_open\library/pem.c ****     /*
 113:Source\mbedtls_open\library/pem.c ****      * key[16..23] = MD5(key[ 0..15] || pwd || IV])
 114:Source\mbedtls_open\library/pem.c ****      */
 115:Source\mbedtls_open\library/pem.c ****     if( ( ret = mbedtls_md5_starts_ret( &md5_ctx ) ) != 0 )
 219              		.loc 1 115 0
 220 005e 06A8     		add	r0, sp, #24
 221 0060 FFF7FEFF 		bl	mbedtls_md5_starts_ret
 222              	.LVL36:
 223 0064 041E     		subs	r4, r0, #0
 224              	.LVL37:
ARM GAS  C:\Users\Phuong\AppData\Local\Temp\cchebmXp.s 			page 7


 225 0066 25D1     		bne	.L13
 116:Source\mbedtls_open\library/pem.c ****         goto exit;
 117:Source\mbedtls_open\library/pem.c ****     if( ( ret = mbedtls_md5_update_ret( &md5_ctx, md5sum, 16 ) ) != 0 )
 226              		.loc 1 117 0
 227 0068 1022     		movs	r2, #16
 228 006a 02A9     		add	r1, sp, #8
 229 006c 06A8     		add	r0, sp, #24
 230              	.LVL38:
 231 006e FFF7FEFF 		bl	mbedtls_md5_update_ret
 232              	.LVL39:
 233 0072 041E     		subs	r4, r0, #0
 234              	.LVL40:
 235 0074 1ED1     		bne	.L13
 118:Source\mbedtls_open\library/pem.c ****         goto exit;
 119:Source\mbedtls_open\library/pem.c ****     if( ( ret = mbedtls_md5_update_ret( &md5_ctx, pwd, pwdlen ) ) != 0 )
 236              		.loc 1 119 0
 237 0076 229A     		ldr	r2, [sp, #136]
 238 0078 3900     		movs	r1, r7
 239 007a 06A8     		add	r0, sp, #24
 240              	.LVL41:
 241 007c FFF7FEFF 		bl	mbedtls_md5_update_ret
 242              	.LVL42:
 243 0080 041E     		subs	r4, r0, #0
 244              	.LVL43:
 245 0082 17D1     		bne	.L13
 120:Source\mbedtls_open\library/pem.c ****         goto exit;
 121:Source\mbedtls_open\library/pem.c ****     if( ( ret = mbedtls_md5_update_ret( &md5_ctx, iv, 8 ) ) != 0 )
 246              		.loc 1 121 0
 247 0084 0822     		movs	r2, #8
 248 0086 2900     		movs	r1, r5
 249 0088 06A8     		add	r0, sp, #24
 250              	.LVL44:
 251 008a FFF7FEFF 		bl	mbedtls_md5_update_ret
 252              	.LVL45:
 253 008e 041E     		subs	r4, r0, #0
 254              	.LVL46:
 255 0090 10D1     		bne	.L13
 122:Source\mbedtls_open\library/pem.c ****         goto exit;
 123:Source\mbedtls_open\library/pem.c ****     if( ( ret = mbedtls_md5_finish_ret( &md5_ctx, md5sum ) ) != 0 )
 256              		.loc 1 123 0
 257 0092 02A9     		add	r1, sp, #8
 258 0094 06A8     		add	r0, sp, #24
 259              	.LVL47:
 260 0096 FFF7FEFF 		bl	mbedtls_md5_finish_ret
 261              	.LVL48:
 262 009a 041E     		subs	r4, r0, #0
 263              	.LVL49:
 264 009c 0AD1     		bne	.L13
 265              	.LVL50:
 124:Source\mbedtls_open\library/pem.c ****         goto exit;
 125:Source\mbedtls_open\library/pem.c **** 
 126:Source\mbedtls_open\library/pem.c ****     use_len = 16;
 127:Source\mbedtls_open\library/pem.c ****     if( keylen < 32 )
 266              		.loc 1 127 0
 267 009e 1F2E     		cmp	r6, #31
 268 00a0 02D8     		bhi	.L16
 128:Source\mbedtls_open\library/pem.c ****         use_len = keylen - 16;
ARM GAS  C:\Users\Phuong\AppData\Local\Temp\cchebmXp.s 			page 8


 269              		.loc 1 128 0
 270 00a2 3200     		movs	r2, r6
 271 00a4 103A     		subs	r2, r2, #16
 272              	.LVL51:
 273 00a6 00E0     		b	.L15
 274              	.LVL52:
 275              	.L16:
 126:Source\mbedtls_open\library/pem.c ****     if( keylen < 32 )
 276              		.loc 1 126 0
 277 00a8 1022     		movs	r2, #16
 278              	.LVL53:
 279              	.L15:
 129:Source\mbedtls_open\library/pem.c **** 
 130:Source\mbedtls_open\library/pem.c ****     memcpy( key + 16, md5sum, use_len );
 280              		.loc 1 130 0
 281 00aa 0198     		ldr	r0, [sp, #4]
 282              	.LVL54:
 283 00ac 1030     		adds	r0, r0, #16
 284 00ae 02A9     		add	r1, sp, #8
 285 00b0 FFF7FEFF 		bl	memcpy
 286              	.LVL55:
 287              	.L13:
 131:Source\mbedtls_open\library/pem.c **** 
 132:Source\mbedtls_open\library/pem.c **** exit:
 133:Source\mbedtls_open\library/pem.c ****     mbedtls_md5_free( &md5_ctx );
 288              		.loc 1 133 0
 289 00b4 06A8     		add	r0, sp, #24
 290 00b6 FFF7FEFF 		bl	mbedtls_md5_free
 291              	.LVL56:
 134:Source\mbedtls_open\library/pem.c ****     mbedtls_platform_zeroize( md5sum, 16 );
 292              		.loc 1 134 0
 293 00ba 1021     		movs	r1, #16
 294 00bc 02A8     		add	r0, sp, #8
 295 00be FFF7FEFF 		bl	mbedtls_platform_zeroize
 296              	.LVL57:
 135:Source\mbedtls_open\library/pem.c **** 
 136:Source\mbedtls_open\library/pem.c ****     return( ret );
 137:Source\mbedtls_open\library/pem.c **** }
 297              		.loc 1 137 0
 298 00c2 2000     		movs	r0, r4
 299 00c4 1DB0     		add	sp, sp, #116
 300              		@ sp needed
 301              	.LVL58:
 302              	.LVL59:
 303              	.LVL60:
 304              	.LVL61:
 305 00c6 F0BD     		pop	{r4, r5, r6, r7, pc}
 306              		.cfi_endproc
 307              	.LFE10:
 308              		.size	pem_pbkdf1, .-pem_pbkdf1
 309              		.section	.text.pem_des3_decrypt,"ax",%progbits
 310              		.align	2
 311              		.code	16
 312              		.thumb_func
 313              		.type	pem_des3_decrypt, %function
 314              	pem_des3_decrypt:
 315              	.LFB12:
ARM GAS  C:\Users\Phuong\AppData\Local\Temp\cchebmXp.s 			page 9


 138:Source\mbedtls_open\library/pem.c **** 
 139:Source\mbedtls_open\library/pem.c **** #if defined(MBEDTLS_DES_C)
 140:Source\mbedtls_open\library/pem.c **** /*
 141:Source\mbedtls_open\library/pem.c ****  * Decrypt with DES-CBC, using PBKDF1 for key derivation
 142:Source\mbedtls_open\library/pem.c ****  */
 143:Source\mbedtls_open\library/pem.c **** static int pem_des_decrypt( unsigned char des_iv[8],
 144:Source\mbedtls_open\library/pem.c ****                             unsigned char *buf, size_t buflen,
 145:Source\mbedtls_open\library/pem.c ****                             const unsigned char *pwd, size_t pwdlen )
 146:Source\mbedtls_open\library/pem.c **** {
 147:Source\mbedtls_open\library/pem.c ****     mbedtls_des_context des_ctx;
 148:Source\mbedtls_open\library/pem.c ****     unsigned char des_key[8];
 149:Source\mbedtls_open\library/pem.c ****     int ret;
 150:Source\mbedtls_open\library/pem.c **** 
 151:Source\mbedtls_open\library/pem.c ****     mbedtls_des_init( &des_ctx );
 152:Source\mbedtls_open\library/pem.c **** 
 153:Source\mbedtls_open\library/pem.c ****     if( ( ret = pem_pbkdf1( des_key, 8, des_iv, pwd, pwdlen ) ) != 0 )
 154:Source\mbedtls_open\library/pem.c ****         goto exit;
 155:Source\mbedtls_open\library/pem.c **** 
 156:Source\mbedtls_open\library/pem.c ****     if( ( ret = mbedtls_des_setkey_dec( &des_ctx, des_key ) ) != 0 )
 157:Source\mbedtls_open\library/pem.c ****         goto exit;
 158:Source\mbedtls_open\library/pem.c ****     ret = mbedtls_des_crypt_cbc( &des_ctx, MBEDTLS_DES_DECRYPT, buflen,
 159:Source\mbedtls_open\library/pem.c ****                      des_iv, buf, buf );
 160:Source\mbedtls_open\library/pem.c **** 
 161:Source\mbedtls_open\library/pem.c **** exit:
 162:Source\mbedtls_open\library/pem.c ****     mbedtls_des_free( &des_ctx );
 163:Source\mbedtls_open\library/pem.c ****     mbedtls_platform_zeroize( des_key, 8 );
 164:Source\mbedtls_open\library/pem.c **** 
 165:Source\mbedtls_open\library/pem.c ****     return( ret );
 166:Source\mbedtls_open\library/pem.c **** }
 167:Source\mbedtls_open\library/pem.c **** 
 168:Source\mbedtls_open\library/pem.c **** /*
 169:Source\mbedtls_open\library/pem.c ****  * Decrypt with 3DES-CBC, using PBKDF1 for key derivation
 170:Source\mbedtls_open\library/pem.c ****  */
 171:Source\mbedtls_open\library/pem.c **** static int pem_des3_decrypt( unsigned char des3_iv[8],
 172:Source\mbedtls_open\library/pem.c ****                              unsigned char *buf, size_t buflen,
 173:Source\mbedtls_open\library/pem.c ****                              const unsigned char *pwd, size_t pwdlen )
 174:Source\mbedtls_open\library/pem.c **** {
 316              		.loc 1 174 0
 317              		.cfi_startproc
 318              		@ args = 4, pretend = 0, frame = 408
 319              		@ frame_needed = 0, uses_anonymous_args = 0
 320              	.LVL62:
 321 0000 F0B5     		push	{r4, r5, r6, r7, lr}
 322              		.cfi_def_cfa_offset 20
 323              		.cfi_offset 4, -20
 324              		.cfi_offset 5, -16
 325              		.cfi_offset 6, -12
 326              		.cfi_offset 7, -8
 327              		.cfi_offset 14, -4
 328 0002 E9B0     		sub	sp, sp, #420
 329              		.cfi_def_cfa_offset 440
 330 0004 0500     		movs	r5, r0
 331 0006 0E00     		movs	r6, r1
 332 0008 1700     		movs	r7, r2
 333 000a 1C00     		movs	r4, r3
 175:Source\mbedtls_open\library/pem.c ****     mbedtls_des3_context des3_ctx;
 176:Source\mbedtls_open\library/pem.c ****     unsigned char des3_key[24];
ARM GAS  C:\Users\Phuong\AppData\Local\Temp\cchebmXp.s 			page 10


 177:Source\mbedtls_open\library/pem.c ****     int ret;
 178:Source\mbedtls_open\library/pem.c **** 
 179:Source\mbedtls_open\library/pem.c ****     mbedtls_des3_init( &des3_ctx );
 334              		.loc 1 179 0
 335 000c 08A8     		add	r0, sp, #32
 336              	.LVL63:
 337 000e FFF7FEFF 		bl	mbedtls_des3_init
 338              	.LVL64:
 180:Source\mbedtls_open\library/pem.c **** 
 181:Source\mbedtls_open\library/pem.c ****     if( ( ret = pem_pbkdf1( des3_key, 24, des3_iv, pwd, pwdlen ) ) != 0 )
 339              		.loc 1 181 0
 340 0012 6E9B     		ldr	r3, [sp, #440]
 341 0014 0093     		str	r3, [sp]
 342 0016 2300     		movs	r3, r4
 343 0018 2A00     		movs	r2, r5
 344 001a 1821     		movs	r1, #24
 345 001c 02A8     		add	r0, sp, #8
 346 001e FFF7FEFF 		bl	pem_pbkdf1
 347              	.LVL65:
 348 0022 041E     		subs	r4, r0, #0
 349              	.LVL66:
 350 0024 0ED1     		bne	.L18
 182:Source\mbedtls_open\library/pem.c ****         goto exit;
 183:Source\mbedtls_open\library/pem.c **** 
 184:Source\mbedtls_open\library/pem.c ****     if( ( ret = mbedtls_des3_set3key_dec( &des3_ctx, des3_key ) ) != 0 )
 351              		.loc 1 184 0
 352 0026 02A9     		add	r1, sp, #8
 353 0028 08A8     		add	r0, sp, #32
 354              	.LVL67:
 355 002a FFF7FEFF 		bl	mbedtls_des3_set3key_dec
 356              	.LVL68:
 357 002e 041E     		subs	r4, r0, #0
 358              	.LVL69:
 359 0030 08D1     		bne	.L18
 185:Source\mbedtls_open\library/pem.c ****         goto exit;
 186:Source\mbedtls_open\library/pem.c ****     ret = mbedtls_des3_crypt_cbc( &des3_ctx, MBEDTLS_DES_DECRYPT, buflen,
 360              		.loc 1 186 0
 361 0032 0196     		str	r6, [sp, #4]
 362 0034 0096     		str	r6, [sp]
 363 0036 2B00     		movs	r3, r5
 364 0038 3A00     		movs	r2, r7
 365 003a 0021     		movs	r1, #0
 366 003c 08A8     		add	r0, sp, #32
 367              	.LVL70:
 368 003e FFF7FEFF 		bl	mbedtls_des3_crypt_cbc
 369              	.LVL71:
 370 0042 0400     		movs	r4, r0
 371              	.LVL72:
 372              	.L18:
 187:Source\mbedtls_open\library/pem.c ****                      des3_iv, buf, buf );
 188:Source\mbedtls_open\library/pem.c **** 
 189:Source\mbedtls_open\library/pem.c **** exit:
 190:Source\mbedtls_open\library/pem.c ****     mbedtls_des3_free( &des3_ctx );
 373              		.loc 1 190 0
 374 0044 08A8     		add	r0, sp, #32
 375              	.LVL73:
 376 0046 FFF7FEFF 		bl	mbedtls_des3_free
ARM GAS  C:\Users\Phuong\AppData\Local\Temp\cchebmXp.s 			page 11


 377              	.LVL74:
 191:Source\mbedtls_open\library/pem.c ****     mbedtls_platform_zeroize( des3_key, 24 );
 378              		.loc 1 191 0
 379 004a 1821     		movs	r1, #24
 380 004c 02A8     		add	r0, sp, #8
 381 004e FFF7FEFF 		bl	mbedtls_platform_zeroize
 382              	.LVL75:
 192:Source\mbedtls_open\library/pem.c **** 
 193:Source\mbedtls_open\library/pem.c ****     return( ret );
 194:Source\mbedtls_open\library/pem.c **** }
 383              		.loc 1 194 0
 384 0052 2000     		movs	r0, r4
 385 0054 69B0     		add	sp, sp, #420
 386              		@ sp needed
 387              	.LVL76:
 388              	.LVL77:
 389              	.LVL78:
 390              	.LVL79:
 391 0056 F0BD     		pop	{r4, r5, r6, r7, pc}
 392              		.cfi_endproc
 393              	.LFE12:
 394              		.size	pem_des3_decrypt, .-pem_des3_decrypt
 395              		.section	.text.pem_des_decrypt,"ax",%progbits
 396              		.align	2
 397              		.code	16
 398              		.thumb_func
 399              		.type	pem_des_decrypt, %function
 400              	pem_des_decrypt:
 401              	.LFB11:
 146:Source\mbedtls_open\library/pem.c ****     mbedtls_des_context des_ctx;
 402              		.loc 1 146 0
 403              		.cfi_startproc
 404              		@ args = 4, pretend = 0, frame = 136
 405              		@ frame_needed = 0, uses_anonymous_args = 0
 406              	.LVL80:
 407 0000 F0B5     		push	{r4, r5, r6, r7, lr}
 408              		.cfi_def_cfa_offset 20
 409              		.cfi_offset 4, -20
 410              		.cfi_offset 5, -16
 411              		.cfi_offset 6, -12
 412              		.cfi_offset 7, -8
 413              		.cfi_offset 14, -4
 414 0002 A5B0     		sub	sp, sp, #148
 415              		.cfi_def_cfa_offset 168
 416 0004 0500     		movs	r5, r0
 417 0006 0E00     		movs	r6, r1
 418 0008 1700     		movs	r7, r2
 419 000a 1C00     		movs	r4, r3
 151:Source\mbedtls_open\library/pem.c **** 
 420              		.loc 1 151 0
 421 000c 04A8     		add	r0, sp, #16
 422              	.LVL81:
 423 000e FFF7FEFF 		bl	mbedtls_des_init
 424              	.LVL82:
 153:Source\mbedtls_open\library/pem.c ****         goto exit;
 425              		.loc 1 153 0
 426 0012 2A9B     		ldr	r3, [sp, #168]
ARM GAS  C:\Users\Phuong\AppData\Local\Temp\cchebmXp.s 			page 12


 427 0014 0093     		str	r3, [sp]
 428 0016 2300     		movs	r3, r4
 429 0018 2A00     		movs	r2, r5
 430 001a 0821     		movs	r1, #8
 431 001c 02A8     		add	r0, sp, #8
 432 001e FFF7FEFF 		bl	pem_pbkdf1
 433              	.LVL83:
 434 0022 041E     		subs	r4, r0, #0
 435              	.LVL84:
 436 0024 0ED1     		bne	.L20
 156:Source\mbedtls_open\library/pem.c ****         goto exit;
 437              		.loc 1 156 0
 438 0026 02A9     		add	r1, sp, #8
 439 0028 04A8     		add	r0, sp, #16
 440              	.LVL85:
 441 002a FFF7FEFF 		bl	mbedtls_des_setkey_dec
 442              	.LVL86:
 443 002e 041E     		subs	r4, r0, #0
 444              	.LVL87:
 445 0030 08D1     		bne	.L20
 158:Source\mbedtls_open\library/pem.c ****                      des_iv, buf, buf );
 446              		.loc 1 158 0
 447 0032 0196     		str	r6, [sp, #4]
 448 0034 0096     		str	r6, [sp]
 449 0036 2B00     		movs	r3, r5
 450 0038 3A00     		movs	r2, r7
 451 003a 0021     		movs	r1, #0
 452 003c 04A8     		add	r0, sp, #16
 453              	.LVL88:
 454 003e FFF7FEFF 		bl	mbedtls_des_crypt_cbc
 455              	.LVL89:
 456 0042 0400     		movs	r4, r0
 457              	.LVL90:
 458              	.L20:
 162:Source\mbedtls_open\library/pem.c ****     mbedtls_platform_zeroize( des_key, 8 );
 459              		.loc 1 162 0
 460 0044 04A8     		add	r0, sp, #16
 461              	.LVL91:
 462 0046 FFF7FEFF 		bl	mbedtls_des_free
 463              	.LVL92:
 163:Source\mbedtls_open\library/pem.c **** 
 464              		.loc 1 163 0
 465 004a 0821     		movs	r1, #8
 466 004c 02A8     		add	r0, sp, #8
 467 004e FFF7FEFF 		bl	mbedtls_platform_zeroize
 468              	.LVL93:
 166:Source\mbedtls_open\library/pem.c **** 
 469              		.loc 1 166 0
 470 0052 2000     		movs	r0, r4
 471 0054 25B0     		add	sp, sp, #148
 472              		@ sp needed
 473              	.LVL94:
 474              	.LVL95:
 475              	.LVL96:
 476              	.LVL97:
 477 0056 F0BD     		pop	{r4, r5, r6, r7, pc}
 478              		.cfi_endproc
ARM GAS  C:\Users\Phuong\AppData\Local\Temp\cchebmXp.s 			page 13


 479              	.LFE11:
 480              		.size	pem_des_decrypt, .-pem_des_decrypt
 481              		.section	.text.pem_aes_decrypt,"ax",%progbits
 482              		.align	2
 483              		.code	16
 484              		.thumb_func
 485              		.type	pem_aes_decrypt, %function
 486              	pem_aes_decrypt:
 487              	.LFB13:
 195:Source\mbedtls_open\library/pem.c **** #endif /* MBEDTLS_DES_C */
 196:Source\mbedtls_open\library/pem.c **** 
 197:Source\mbedtls_open\library/pem.c **** #if defined(MBEDTLS_AES_C)
 198:Source\mbedtls_open\library/pem.c **** /*
 199:Source\mbedtls_open\library/pem.c ****  * Decrypt with AES-XXX-CBC, using PBKDF1 for key derivation
 200:Source\mbedtls_open\library/pem.c ****  */
 201:Source\mbedtls_open\library/pem.c **** static int pem_aes_decrypt( unsigned char aes_iv[16], unsigned int keylen,
 202:Source\mbedtls_open\library/pem.c ****                             unsigned char *buf, size_t buflen,
 203:Source\mbedtls_open\library/pem.c ****                             const unsigned char *pwd, size_t pwdlen )
 204:Source\mbedtls_open\library/pem.c **** {
 488              		.loc 1 204 0
 489              		.cfi_startproc
 490              		@ args = 8, pretend = 0, frame = 320
 491              		@ frame_needed = 0, uses_anonymous_args = 0
 492              	.LVL98:
 493 0000 F0B5     		push	{r4, r5, r6, r7, lr}
 494              		.cfi_def_cfa_offset 20
 495              		.cfi_offset 4, -20
 496              		.cfi_offset 5, -16
 497              		.cfi_offset 6, -12
 498              		.cfi_offset 7, -8
 499              		.cfi_offset 14, -4
 500 0002 D3B0     		sub	sp, sp, #332
 501              		.cfi_def_cfa_offset 352
 502 0004 0600     		movs	r6, r0
 503 0006 0D00     		movs	r5, r1
 504 0008 1700     		movs	r7, r2
 505 000a 0393     		str	r3, [sp, #12]
 205:Source\mbedtls_open\library/pem.c ****     mbedtls_aes_context aes_ctx;
 206:Source\mbedtls_open\library/pem.c ****     unsigned char aes_key[32];
 207:Source\mbedtls_open\library/pem.c ****     int ret;
 208:Source\mbedtls_open\library/pem.c **** 
 209:Source\mbedtls_open\library/pem.c ****     mbedtls_aes_init( &aes_ctx );
 506              		.loc 1 209 0
 507 000c 0CA8     		add	r0, sp, #48
 508              	.LVL99:
 509 000e FFF7FEFF 		bl	mbedtls_aes_init
 510              	.LVL100:
 210:Source\mbedtls_open\library/pem.c **** 
 211:Source\mbedtls_open\library/pem.c ****     if( ( ret = pem_pbkdf1( aes_key, keylen, aes_iv, pwd, pwdlen ) ) != 0 )
 511              		.loc 1 211 0
 512 0012 599B     		ldr	r3, [sp, #356]
 513 0014 0093     		str	r3, [sp]
 514 0016 589B     		ldr	r3, [sp, #352]
 515 0018 3200     		movs	r2, r6
 516 001a 2900     		movs	r1, r5
 517 001c 04A8     		add	r0, sp, #16
 518 001e FFF7FEFF 		bl	pem_pbkdf1
ARM GAS  C:\Users\Phuong\AppData\Local\Temp\cchebmXp.s 			page 14


 519              	.LVL101:
 520 0022 041E     		subs	r4, r0, #0
 521              	.LVL102:
 522 0024 0FD1     		bne	.L22
 212:Source\mbedtls_open\library/pem.c ****         goto exit;
 213:Source\mbedtls_open\library/pem.c **** 
 214:Source\mbedtls_open\library/pem.c ****     if( ( ret = mbedtls_aes_setkey_dec( &aes_ctx, aes_key, keylen * 8 ) ) != 0 )
 523              		.loc 1 214 0
 524 0026 EA00     		lsls	r2, r5, #3
 525 0028 04A9     		add	r1, sp, #16
 526 002a 0CA8     		add	r0, sp, #48
 527              	.LVL103:
 528 002c FFF7FEFF 		bl	mbedtls_aes_setkey_dec
 529              	.LVL104:
 530 0030 041E     		subs	r4, r0, #0
 531              	.LVL105:
 532 0032 08D1     		bne	.L22
 215:Source\mbedtls_open\library/pem.c ****         goto exit;
 216:Source\mbedtls_open\library/pem.c ****     ret = mbedtls_aes_crypt_cbc( &aes_ctx, MBEDTLS_AES_DECRYPT, buflen,
 533              		.loc 1 216 0
 534 0034 0197     		str	r7, [sp, #4]
 535 0036 0097     		str	r7, [sp]
 536 0038 3300     		movs	r3, r6
 537 003a 039A     		ldr	r2, [sp, #12]
 538 003c 0021     		movs	r1, #0
 539 003e 0CA8     		add	r0, sp, #48
 540              	.LVL106:
 541 0040 FFF7FEFF 		bl	mbedtls_aes_crypt_cbc
 542              	.LVL107:
 543 0044 0400     		movs	r4, r0
 544              	.LVL108:
 545              	.L22:
 217:Source\mbedtls_open\library/pem.c ****                      aes_iv, buf, buf );
 218:Source\mbedtls_open\library/pem.c **** 
 219:Source\mbedtls_open\library/pem.c **** exit:
 220:Source\mbedtls_open\library/pem.c ****     mbedtls_aes_free( &aes_ctx );
 546              		.loc 1 220 0
 547 0046 0CA8     		add	r0, sp, #48
 548              	.LVL109:
 549 0048 FFF7FEFF 		bl	mbedtls_aes_free
 550              	.LVL110:
 221:Source\mbedtls_open\library/pem.c ****     mbedtls_platform_zeroize( aes_key, keylen );
 551              		.loc 1 221 0
 552 004c 2900     		movs	r1, r5
 553 004e 04A8     		add	r0, sp, #16
 554 0050 FFF7FEFF 		bl	mbedtls_platform_zeroize
 555              	.LVL111:
 222:Source\mbedtls_open\library/pem.c **** 
 223:Source\mbedtls_open\library/pem.c ****     return( ret );
 224:Source\mbedtls_open\library/pem.c **** }
 556              		.loc 1 224 0
 557 0054 2000     		movs	r0, r4
 558 0056 53B0     		add	sp, sp, #332
 559              		@ sp needed
 560              	.LVL112:
 561              	.LVL113:
 562              	.LVL114:
ARM GAS  C:\Users\Phuong\AppData\Local\Temp\cchebmXp.s 			page 15


 563              	.LVL115:
 564 0058 F0BD     		pop	{r4, r5, r6, r7, pc}
 565              		.cfi_endproc
 566              	.LFE13:
 567              		.size	pem_aes_decrypt, .-pem_aes_decrypt
 568 005a C046     		.section	.text.mbedtls_pem_init,"ax",%progbits
 569              		.align	2
 570              		.global	mbedtls_pem_init
 571              		.code	16
 572              		.thumb_func
 573              		.type	mbedtls_pem_init, %function
 574              	mbedtls_pem_init:
 575              	.LFB8:
  50:Source\mbedtls_open\library/pem.c ****     memset( ctx, 0, sizeof( mbedtls_pem_context ) );
 576              		.loc 1 50 0
 577              		.cfi_startproc
 578              		@ args = 0, pretend = 0, frame = 0
 579              		@ frame_needed = 0, uses_anonymous_args = 0
 580              	.LVL116:
 581 0000 10B5     		push	{r4, lr}
 582              		.cfi_def_cfa_offset 8
 583              		.cfi_offset 4, -8
 584              		.cfi_offset 14, -4
  51:Source\mbedtls_open\library/pem.c **** }
 585              		.loc 1 51 0
 586 0002 0C22     		movs	r2, #12
 587 0004 0021     		movs	r1, #0
 588 0006 FFF7FEFF 		bl	memset
 589              	.LVL117:
  52:Source\mbedtls_open\library/pem.c **** 
 590              		.loc 1 52 0
 591              		@ sp needed
 592 000a 10BD     		pop	{r4, pc}
 593              		.cfi_endproc
 594              	.LFE8:
 595              		.size	mbedtls_pem_init, .-mbedtls_pem_init
 596              		.section	.text.mbedtls_pem_read_buffer,"ax",%progbits
 597              		.align	2
 598              		.global	mbedtls_pem_read_buffer
 599              		.code	16
 600              		.thumb_func
 601              		.type	mbedtls_pem_read_buffer, %function
 602              	mbedtls_pem_read_buffer:
 603              	.LFB14:
 225:Source\mbedtls_open\library/pem.c **** #endif /* MBEDTLS_AES_C */
 226:Source\mbedtls_open\library/pem.c **** 
 227:Source\mbedtls_open\library/pem.c **** #endif /* MBEDTLS_MD5_C && MBEDTLS_CIPHER_MODE_CBC &&
 228:Source\mbedtls_open\library/pem.c ****           ( MBEDTLS_AES_C || MBEDTLS_DES_C ) */
 229:Source\mbedtls_open\library/pem.c **** 
 230:Source\mbedtls_open\library/pem.c **** int mbedtls_pem_read_buffer( mbedtls_pem_context *ctx, const char *header, const char *footer,
 231:Source\mbedtls_open\library/pem.c ****                      const unsigned char *data, const unsigned char *pwd,
 232:Source\mbedtls_open\library/pem.c ****                      size_t pwdlen, size_t *use_len )
 233:Source\mbedtls_open\library/pem.c **** {
 604              		.loc 1 233 0
 605              		.cfi_startproc
 606              		@ args = 12, pretend = 0, frame = 32
 607              		@ frame_needed = 0, uses_anonymous_args = 0
ARM GAS  C:\Users\Phuong\AppData\Local\Temp\cchebmXp.s 			page 16


 608              	.LVL118:
 609 0000 F0B5     		push	{r4, r5, r6, r7, lr}
 610              		.cfi_def_cfa_offset 20
 611              		.cfi_offset 4, -20
 612              		.cfi_offset 5, -16
 613              		.cfi_offset 6, -12
 614              		.cfi_offset 7, -8
 615              		.cfi_offset 14, -4
 616 0002 4F46     		mov	r7, r9
 617 0004 4646     		mov	r6, r8
 618 0006 C0B4     		push	{r6, r7}
 619              		.cfi_def_cfa_offset 28
 620              		.cfi_offset 8, -28
 621              		.cfi_offset 9, -24
 622 0008 8BB0     		sub	sp, sp, #44
 623              		.cfi_def_cfa_offset 72
 624 000a 8046     		mov	r8, r0
 625 000c 0F00     		movs	r7, r1
 626 000e 1400     		movs	r4, r2
 627 0010 0392     		str	r2, [sp, #12]
 628 0012 1E00     		movs	r6, r3
 629              	.LVL119:
 234:Source\mbedtls_open\library/pem.c ****     int ret, enc;
 235:Source\mbedtls_open\library/pem.c ****     size_t len;
 236:Source\mbedtls_open\library/pem.c ****     unsigned char *buf;
 237:Source\mbedtls_open\library/pem.c ****     const unsigned char *s1, *s2, *end;
 238:Source\mbedtls_open\library/pem.c **** #if defined(MBEDTLS_MD5_C) && defined(MBEDTLS_CIPHER_MODE_CBC) &&         \
 239:Source\mbedtls_open\library/pem.c ****     ( defined(MBEDTLS_DES_C) || defined(MBEDTLS_AES_C) )
 240:Source\mbedtls_open\library/pem.c ****     unsigned char pem_iv[16];
 241:Source\mbedtls_open\library/pem.c ****     mbedtls_cipher_type_t enc_alg = MBEDTLS_CIPHER_NONE;
 242:Source\mbedtls_open\library/pem.c **** #else
 243:Source\mbedtls_open\library/pem.c ****     ((void) pwd);
 244:Source\mbedtls_open\library/pem.c ****     ((void) pwdlen);
 245:Source\mbedtls_open\library/pem.c **** #endif /* MBEDTLS_MD5_C && MBEDTLS_CIPHER_MODE_CBC &&
 246:Source\mbedtls_open\library/pem.c ****           ( MBEDTLS_AES_C || MBEDTLS_DES_C ) */
 247:Source\mbedtls_open\library/pem.c **** 
 248:Source\mbedtls_open\library/pem.c ****     if( ctx == NULL )
 630              		.loc 1 248 0
 631 0014 0028     		cmp	r0, #0
 632 0016 00D1     		bne	.LCB667
 633 0018 68E1     		b	.L49	@long jump
 634              	.LCB667:
 249:Source\mbedtls_open\library/pem.c ****         return( MBEDTLS_ERR_PEM_BAD_INPUT_DATA );
 250:Source\mbedtls_open\library/pem.c **** 
 251:Source\mbedtls_open\library/pem.c ****     s1 = (unsigned char *) strstr( (const char *) data, header );
 635              		.loc 1 251 0
 636 001a 3000     		movs	r0, r6
 637              	.LVL120:
 638 001c FFF7FEFF 		bl	strstr
 639              	.LVL121:
 640 0020 051E     		subs	r5, r0, #0
 641              	.LVL122:
 252:Source\mbedtls_open\library/pem.c **** 
 253:Source\mbedtls_open\library/pem.c ****     if( s1 == NULL )
 642              		.loc 1 253 0
 643 0022 00D1     		bne	.LCB678
 644 0024 64E1     		b	.L50	@long jump
ARM GAS  C:\Users\Phuong\AppData\Local\Temp\cchebmXp.s 			page 17


 645              	.LCB678:
 254:Source\mbedtls_open\library/pem.c ****         return( MBEDTLS_ERR_PEM_NO_HEADER_FOOTER_PRESENT );
 255:Source\mbedtls_open\library/pem.c **** 
 256:Source\mbedtls_open\library/pem.c ****     s2 = (unsigned char *) strstr( (const char *) data, footer );
 646              		.loc 1 256 0
 647 0026 2100     		movs	r1, r4
 648 0028 3000     		movs	r0, r6
 649              	.LVL123:
 650 002a FFF7FEFF 		bl	strstr
 651              	.LVL124:
 652 002e 041E     		subs	r4, r0, #0
 653              	.LVL125:
 257:Source\mbedtls_open\library/pem.c **** 
 258:Source\mbedtls_open\library/pem.c ****     if( s2 == NULL || s2 <= s1 )
 654              		.loc 1 258 0
 655 0030 00D1     		bne	.LCB688
 656 0032 5FE1     		b	.L51	@long jump
 657              	.LCB688:
 658              		.loc 1 258 0 is_stmt 0 discriminator 1
 659 0034 8542     		cmp	r5, r0
 660 0036 00D3     		bcc	.LCB690
 661 0038 5EE1     		b	.L52	@long jump
 662              	.LCB690:
 259:Source\mbedtls_open\library/pem.c ****         return( MBEDTLS_ERR_PEM_NO_HEADER_FOOTER_PRESENT );
 260:Source\mbedtls_open\library/pem.c **** 
 261:Source\mbedtls_open\library/pem.c ****     s1 += strlen( header );
 663              		.loc 1 261 0 is_stmt 1
 664 003a 3800     		movs	r0, r7
 665              	.LVL126:
 666 003c FFF7FEFF 		bl	strlen
 667              	.LVL127:
 668 0040 2D18     		adds	r5, r5, r0
 669              	.LVL128:
 262:Source\mbedtls_open\library/pem.c ****     if( *s1 == ' '  ) s1++;
 670              		.loc 1 262 0
 671 0042 2B78     		ldrb	r3, [r5]
 672 0044 202B     		cmp	r3, #32
 673 0046 00D1     		bne	.L26
 674              		.loc 1 262 0 is_stmt 0 discriminator 1
 675 0048 0135     		adds	r5, r5, #1
 676              	.LVL129:
 677              	.L26:
 263:Source\mbedtls_open\library/pem.c ****     if( *s1 == '\r' ) s1++;
 678              		.loc 1 263 0 is_stmt 1
 679 004a 2B78     		ldrb	r3, [r5]
 680 004c 0D2B     		cmp	r3, #13
 681 004e 00D1     		bne	.L27
 682              		.loc 1 263 0 is_stmt 0 discriminator 1
 683 0050 0135     		adds	r5, r5, #1
 684              	.LVL130:
 685              	.L27:
 264:Source\mbedtls_open\library/pem.c ****     if( *s1 == '\n' ) s1++;
 686              		.loc 1 264 0 is_stmt 1
 687 0052 2B78     		ldrb	r3, [r5]
 688 0054 0A2B     		cmp	r3, #10
 689 0056 00D0     		beq	.LCB721
 690 0058 50E1     		b	.L53	@long jump
ARM GAS  C:\Users\Phuong\AppData\Local\Temp\cchebmXp.s 			page 18


 691              	.LCB721:
 692              		.loc 1 264 0 is_stmt 0 discriminator 1
 693 005a 6F1C     		adds	r7, r5, #1
 694              	.LVL131:
 265:Source\mbedtls_open\library/pem.c ****     else return( MBEDTLS_ERR_PEM_NO_HEADER_FOOTER_PRESENT );
 266:Source\mbedtls_open\library/pem.c **** 
 267:Source\mbedtls_open\library/pem.c ****     end = s2;
 268:Source\mbedtls_open\library/pem.c ****     end += strlen( footer );
 695              		.loc 1 268 0 is_stmt 1 discriminator 1
 696 005c 0398     		ldr	r0, [sp, #12]
 697 005e FFF7FEFF 		bl	strlen
 698              	.LVL132:
 699 0062 2018     		adds	r0, r4, r0
 700              	.LVL133:
 269:Source\mbedtls_open\library/pem.c ****     if( *end == ' '  ) end++;
 701              		.loc 1 269 0 discriminator 1
 702 0064 0378     		ldrb	r3, [r0]
 703 0066 202B     		cmp	r3, #32
 704 0068 00D1     		bne	.L28
 705 006a 0130     		adds	r0, r0, #1
 706              	.LVL134:
 707              	.L28:
 270:Source\mbedtls_open\library/pem.c ****     if( *end == '\r' ) end++;
 708              		.loc 1 270 0
 709 006c 0378     		ldrb	r3, [r0]
 710 006e 0D2B     		cmp	r3, #13
 711 0070 00D1     		bne	.L29
 712              		.loc 1 270 0 is_stmt 0 discriminator 1
 713 0072 0130     		adds	r0, r0, #1
 714              	.LVL135:
 715              	.L29:
 271:Source\mbedtls_open\library/pem.c ****     if( *end == '\n' ) end++;
 716              		.loc 1 271 0 is_stmt 1
 717 0074 0378     		ldrb	r3, [r0]
 718 0076 0A2B     		cmp	r3, #10
 719 0078 00D1     		bne	.L30
 720              		.loc 1 271 0 is_stmt 0 discriminator 1
 721 007a 0130     		adds	r0, r0, #1
 722              	.LVL136:
 723              	.L30:
 272:Source\mbedtls_open\library/pem.c ****     *use_len = end - data;
 724              		.loc 1 272 0 is_stmt 1
 725 007c 831B     		subs	r3, r0, r6
 726 007e 149A     		ldr	r2, [sp, #80]
 727 0080 1360     		str	r3, [r2]
 728              	.LVL137:
 273:Source\mbedtls_open\library/pem.c **** 
 274:Source\mbedtls_open\library/pem.c ****     enc = 0;
 275:Source\mbedtls_open\library/pem.c **** 
 276:Source\mbedtls_open\library/pem.c ****     if( s2 - s1 >= 22 && memcmp( s1, "Proc-Type: 4,ENCRYPTED", 22 ) == 0 )
 729              		.loc 1 276 0
 730 0082 E31B     		subs	r3, r4, r7
 731 0084 152B     		cmp	r3, #21
 732 0086 00DC     		bgt	.LCB770
 733 0088 8FE0     		b	.L54	@long jump
 734              	.LCB770:
 735              		.loc 1 276 0 is_stmt 0 discriminator 1
ARM GAS  C:\Users\Phuong\AppData\Local\Temp\cchebmXp.s 			page 19


 736 008a 1622     		movs	r2, #22
 737 008c AB49     		ldr	r1, .L73
 738 008e 3800     		movs	r0, r7
 739              	.LVL138:
 740 0090 FFF7FEFF 		bl	memcmp
 741              	.LVL139:
 742 0094 0028     		cmp	r0, #0
 743 0096 00D0     		beq	.LCB779
 744 0098 8BE0     		b	.L55	@long jump
 745              	.LCB779:
 746              	.LVL140:
 277:Source\mbedtls_open\library/pem.c ****     {
 278:Source\mbedtls_open\library/pem.c **** #if defined(MBEDTLS_MD5_C) && defined(MBEDTLS_CIPHER_MODE_CBC) &&         \
 279:Source\mbedtls_open\library/pem.c ****     ( defined(MBEDTLS_DES_C) || defined(MBEDTLS_AES_C) )
 280:Source\mbedtls_open\library/pem.c ****         enc++;
 281:Source\mbedtls_open\library/pem.c **** 
 282:Source\mbedtls_open\library/pem.c ****         s1 += 22;
 747              		.loc 1 282 0 is_stmt 1
 748 009a 2E00     		movs	r6, r5
 749              	.LVL141:
 750 009c 1736     		adds	r6, r6, #23
 751              	.LVL142:
 283:Source\mbedtls_open\library/pem.c ****         if( *s1 == '\r' ) s1++;
 752              		.loc 1 283 0
 753 009e EB7D     		ldrb	r3, [r5, #23]
 754 00a0 0D2B     		cmp	r3, #13
 755 00a2 01D1     		bne	.L32
 756              		.loc 1 283 0 is_stmt 0 discriminator 1
 757 00a4 1835     		adds	r5, r5, #24
 758 00a6 2E00     		movs	r6, r5
 759              	.LVL143:
 760              	.L32:
 284:Source\mbedtls_open\library/pem.c ****         if( *s1 == '\n' ) s1++;
 761              		.loc 1 284 0 is_stmt 1
 762 00a8 3378     		ldrb	r3, [r6]
 763 00aa 0A2B     		cmp	r3, #10
 764 00ac 00D0     		beq	.LCB798
 765 00ae 27E1     		b	.L56	@long jump
 766              	.LCB798:
 767              		.loc 1 284 0 is_stmt 0 discriminator 1
 768 00b0 751C     		adds	r5, r6, #1
 769              	.LVL144:
 285:Source\mbedtls_open\library/pem.c ****         else return( MBEDTLS_ERR_PEM_INVALID_DATA );
 286:Source\mbedtls_open\library/pem.c **** 
 287:Source\mbedtls_open\library/pem.c **** 
 288:Source\mbedtls_open\library/pem.c **** #if defined(MBEDTLS_DES_C)
 289:Source\mbedtls_open\library/pem.c ****         if( s2 - s1 >= 23 && memcmp( s1, "DEK-Info: DES-EDE3-CBC,", 23 ) == 0 )
 770              		.loc 1 289 0 is_stmt 1 discriminator 1
 771 00b2 671B     		subs	r7, r4, r5
 772 00b4 162F     		cmp	r7, #22
 773 00b6 16DD     		ble	.L33
 774 00b8 1722     		movs	r2, #23
 775 00ba A149     		ldr	r1, .L73+4
 776 00bc 2800     		movs	r0, r5
 777 00be FFF7FEFF 		bl	memcmp
 778              	.LVL145:
 779 00c2 0028     		cmp	r0, #0
ARM GAS  C:\Users\Phuong\AppData\Local\Temp\cchebmXp.s 			page 20


 780 00c4 0FD1     		bne	.L33
 781              	.LVL146:
 290:Source\mbedtls_open\library/pem.c ****         {
 291:Source\mbedtls_open\library/pem.c ****             enc_alg = MBEDTLS_CIPHER_DES_EDE3_CBC;
 292:Source\mbedtls_open\library/pem.c **** 
 293:Source\mbedtls_open\library/pem.c ****             s1 += 23;
 782              		.loc 1 293 0
 783 00c6 3000     		movs	r0, r6
 784 00c8 1830     		adds	r0, r0, #24
 785              	.LVL147:
 294:Source\mbedtls_open\library/pem.c ****             if( s2 - s1 < 16 || pem_get_iv( s1, pem_iv, 8 ) != 0 )
 786              		.loc 1 294 0
 787 00ca 231A     		subs	r3, r4, r0
 788 00cc 0F2B     		cmp	r3, #15
 789 00ce 00DC     		bgt	.LCB818
 790 00d0 18E1     		b	.L57	@long jump
 791              	.LCB818:
 792              		.loc 1 294 0 is_stmt 0 discriminator 1
 793 00d2 0822     		movs	r2, #8
 794 00d4 05A9     		add	r1, sp, #20
 795 00d6 FFF7FEFF 		bl	pem_get_iv
 796              	.LVL148:
 797 00da 0028     		cmp	r0, #0
 798 00dc 00D0     		beq	.LCB825
 799 00de 13E1     		b	.L58	@long jump
 800              	.LCB825:
 295:Source\mbedtls_open\library/pem.c ****                 return( MBEDTLS_ERR_PEM_INVALID_ENC_IV );
 296:Source\mbedtls_open\library/pem.c **** 
 297:Source\mbedtls_open\library/pem.c ****             s1 += 16;
 801              		.loc 1 297 0 is_stmt 1
 802 00e0 2735     		adds	r5, r5, #39
 803              	.LVL149:
 291:Source\mbedtls_open\library/pem.c **** 
 804              		.loc 1 291 0
 805 00e2 2526     		movs	r6, #37
 806              		.loc 1 297 0
 807 00e4 1CE0     		b	.L34
 808              	.LVL150:
 809              	.L33:
 298:Source\mbedtls_open\library/pem.c ****         }
 299:Source\mbedtls_open\library/pem.c ****         else if( s2 - s1 >= 18 && memcmp( s1, "DEK-Info: DES-CBC,", 18 ) == 0 )
 810              		.loc 1 299 0
 811 00e6 112F     		cmp	r7, #17
 812 00e8 17DD     		ble	.L59
 813              		.loc 1 299 0 is_stmt 0 discriminator 1
 814 00ea 1222     		movs	r2, #18
 815 00ec 9549     		ldr	r1, .L73+8
 816 00ee 2800     		movs	r0, r5
 817 00f0 FFF7FEFF 		bl	memcmp
 818              	.LVL151:
 819 00f4 0028     		cmp	r0, #0
 820 00f6 12D1     		bne	.L60
 821              	.LVL152:
 300:Source\mbedtls_open\library/pem.c ****         {
 301:Source\mbedtls_open\library/pem.c ****             enc_alg = MBEDTLS_CIPHER_DES_CBC;
 302:Source\mbedtls_open\library/pem.c **** 
 303:Source\mbedtls_open\library/pem.c ****             s1 += 18;
ARM GAS  C:\Users\Phuong\AppData\Local\Temp\cchebmXp.s 			page 21


 822              		.loc 1 303 0 is_stmt 1
 823 00f8 3000     		movs	r0, r6
 824 00fa 1330     		adds	r0, r0, #19
 825              	.LVL153:
 304:Source\mbedtls_open\library/pem.c ****             if( s2 - s1 < 16 || pem_get_iv( s1, pem_iv, 8) != 0 )
 826              		.loc 1 304 0
 827 00fc 231A     		subs	r3, r4, r0
 828 00fe 0F2B     		cmp	r3, #15
 829 0100 00DC     		bgt	.LCB850
 830 0102 03E1     		b	.L61	@long jump
 831              	.LCB850:
 832              		.loc 1 304 0 is_stmt 0 discriminator 1
 833 0104 0822     		movs	r2, #8
 834 0106 05A9     		add	r1, sp, #20
 835 0108 FFF7FEFF 		bl	pem_get_iv
 836              	.LVL154:
 837 010c 0028     		cmp	r0, #0
 838 010e 00D0     		beq	.LCB857
 839 0110 FEE0     		b	.L62	@long jump
 840              	.LCB857:
 305:Source\mbedtls_open\library/pem.c ****                 return( MBEDTLS_ERR_PEM_INVALID_ENC_IV );
 306:Source\mbedtls_open\library/pem.c **** 
 307:Source\mbedtls_open\library/pem.c ****             s1 += 16;
 841              		.loc 1 307 0 is_stmt 1
 842 0112 3500     		movs	r5, r6
 843 0114 2335     		adds	r5, r5, #35
 844              	.LVL155:
 301:Source\mbedtls_open\library/pem.c **** 
 845              		.loc 1 301 0
 846 0116 2126     		movs	r6, #33
 847 0118 02E0     		b	.L34
 848              	.LVL156:
 849              	.L59:
 241:Source\mbedtls_open\library/pem.c **** #else
 850              		.loc 1 241 0
 851 011a 0026     		movs	r6, #0
 852 011c 00E0     		b	.L34
 853              	.L60:
 854 011e 0026     		movs	r6, #0
 855              	.LVL157:
 856              	.L34:
 308:Source\mbedtls_open\library/pem.c ****         }
 309:Source\mbedtls_open\library/pem.c **** #endif /* MBEDTLS_DES_C */
 310:Source\mbedtls_open\library/pem.c **** 
 311:Source\mbedtls_open\library/pem.c **** #if defined(MBEDTLS_AES_C)
 312:Source\mbedtls_open\library/pem.c ****         if( s2 - s1 >= 14 && memcmp( s1, "DEK-Info: AES-", 14 ) == 0 )
 857              		.loc 1 312 0
 858 0120 671B     		subs	r7, r4, r5
 859 0122 0D2F     		cmp	r7, #13
 860 0124 32DD     		ble	.L35
 861              		.loc 1 312 0 is_stmt 0 discriminator 1
 862 0126 0E22     		movs	r2, #14
 863 0128 8749     		ldr	r1, .L73+12
 864 012a 2800     		movs	r0, r5
 865 012c FFF7FEFF 		bl	memcmp
 866              	.LVL158:
 867 0130 0028     		cmp	r0, #0
ARM GAS  C:\Users\Phuong\AppData\Local\Temp\cchebmXp.s 			page 22


 868 0132 2BD1     		bne	.L35
 313:Source\mbedtls_open\library/pem.c ****         {
 314:Source\mbedtls_open\library/pem.c ****             if( s2 - s1 < 22 )
 869              		.loc 1 314 0 is_stmt 1
 870 0134 152F     		cmp	r7, #21
 871 0136 00DC     		bgt	.LCB894
 872 0138 ECE0     		b	.L63	@long jump
 873              	.LCB894:
 315:Source\mbedtls_open\library/pem.c ****                 return( MBEDTLS_ERR_PEM_UNKNOWN_ENC_ALG );
 316:Source\mbedtls_open\library/pem.c ****             else if( memcmp( s1, "DEK-Info: AES-128-CBC,", 22 ) == 0 )
 874              		.loc 1 316 0
 875 013a 1622     		movs	r2, #22
 876 013c 8349     		ldr	r1, .L73+16
 877 013e 2800     		movs	r0, r5
 878 0140 FFF7FEFF 		bl	memcmp
 879              	.LVL159:
 880 0144 0028     		cmp	r0, #0
 881 0146 10D0     		beq	.L64
 317:Source\mbedtls_open\library/pem.c ****                 enc_alg = MBEDTLS_CIPHER_AES_128_CBC;
 318:Source\mbedtls_open\library/pem.c ****             else if( memcmp( s1, "DEK-Info: AES-192-CBC,", 22 ) == 0 )
 882              		.loc 1 318 0
 883 0148 1622     		movs	r2, #22
 884 014a 8149     		ldr	r1, .L73+20
 885 014c 2800     		movs	r0, r5
 886 014e FFF7FEFF 		bl	memcmp
 887              	.LVL160:
 888 0152 0028     		cmp	r0, #0
 889 0154 0BD0     		beq	.L65
 319:Source\mbedtls_open\library/pem.c ****                 enc_alg = MBEDTLS_CIPHER_AES_192_CBC;
 320:Source\mbedtls_open\library/pem.c ****             else if( memcmp( s1, "DEK-Info: AES-256-CBC,", 22 ) == 0 )
 890              		.loc 1 320 0
 891 0156 1622     		movs	r2, #22
 892 0158 7E49     		ldr	r1, .L73+24
 893 015a 2800     		movs	r0, r5
 894 015c FFF7FEFF 		bl	memcmp
 895              	.LVL161:
 896 0160 0028     		cmp	r0, #0
 897 0162 00D0     		beq	.LCB915
 898 0164 D8E0     		b	.L66	@long jump
 899              	.LCB915:
 321:Source\mbedtls_open\library/pem.c ****                 enc_alg = MBEDTLS_CIPHER_AES_256_CBC;
 900              		.loc 1 321 0
 901 0166 0726     		movs	r6, #7
 902              	.LVL162:
 903 0168 02E0     		b	.L36
 904              	.LVL163:
 905              	.L64:
 317:Source\mbedtls_open\library/pem.c ****                 enc_alg = MBEDTLS_CIPHER_AES_128_CBC;
 906              		.loc 1 317 0
 907 016a 0526     		movs	r6, #5
 908              	.LVL164:
 909 016c 00E0     		b	.L36
 910              	.LVL165:
 911              	.L65:
 319:Source\mbedtls_open\library/pem.c ****                 enc_alg = MBEDTLS_CIPHER_AES_192_CBC;
 912              		.loc 1 319 0
 913 016e 0626     		movs	r6, #6
ARM GAS  C:\Users\Phuong\AppData\Local\Temp\cchebmXp.s 			page 23


 914              	.LVL166:
 915              	.L36:
 322:Source\mbedtls_open\library/pem.c ****             else
 323:Source\mbedtls_open\library/pem.c ****                 return( MBEDTLS_ERR_PEM_UNKNOWN_ENC_ALG );
 324:Source\mbedtls_open\library/pem.c **** 
 325:Source\mbedtls_open\library/pem.c ****             s1 += 22;
 916              		.loc 1 325 0
 917 0170 2800     		movs	r0, r5
 918 0172 1630     		adds	r0, r0, #22
 919              	.LVL167:
 326:Source\mbedtls_open\library/pem.c ****             if( s2 - s1 < 32 || pem_get_iv( s1, pem_iv, 16 ) != 0 )
 920              		.loc 1 326 0
 921 0174 231A     		subs	r3, r4, r0
 922 0176 1F2B     		cmp	r3, #31
 923 0178 00DC     		bgt	.LCB940
 924 017a CFE0     		b	.L67	@long jump
 925              	.LCB940:
 926              		.loc 1 326 0 is_stmt 0 discriminator 1
 927 017c 1022     		movs	r2, #16
 928 017e 05A9     		add	r1, sp, #20
 929 0180 FFF7FEFF 		bl	pem_get_iv
 930              	.LVL168:
 931 0184 0028     		cmp	r0, #0
 932 0186 00D0     		beq	.LCB947
 933 0188 CAE0     		b	.L68	@long jump
 934              	.LCB947:
 327:Source\mbedtls_open\library/pem.c ****                 return( MBEDTLS_ERR_PEM_INVALID_ENC_IV );
 328:Source\mbedtls_open\library/pem.c **** 
 329:Source\mbedtls_open\library/pem.c ****             s1 += 32;
 935              		.loc 1 329 0 is_stmt 1
 936 018a 3635     		adds	r5, r5, #54
 937              	.LVL169:
 938              	.L35:
 330:Source\mbedtls_open\library/pem.c ****         }
 331:Source\mbedtls_open\library/pem.c **** #endif /* MBEDTLS_AES_C */
 332:Source\mbedtls_open\library/pem.c **** 
 333:Source\mbedtls_open\library/pem.c ****         if( enc_alg == MBEDTLS_CIPHER_NONE )
 939              		.loc 1 333 0
 940 018c 002E     		cmp	r6, #0
 941 018e 00D1     		bne	.LCB959
 942 0190 C8E0     		b	.L69	@long jump
 943              	.LCB959:
 334:Source\mbedtls_open\library/pem.c ****             return( MBEDTLS_ERR_PEM_UNKNOWN_ENC_ALG );
 335:Source\mbedtls_open\library/pem.c **** 
 336:Source\mbedtls_open\library/pem.c ****         if( *s1 == '\r' ) s1++;
 944              		.loc 1 336 0
 945 0192 2B78     		ldrb	r3, [r5]
 946 0194 0D2B     		cmp	r3, #13
 947 0196 00D1     		bne	.L37
 948              		.loc 1 336 0 is_stmt 0 discriminator 1
 949 0198 0135     		adds	r5, r5, #1
 950              	.LVL170:
 951              	.L37:
 337:Source\mbedtls_open\library/pem.c ****         if( *s1 == '\n' ) s1++;
 952              		.loc 1 337 0 is_stmt 1
 953 019a 2B78     		ldrb	r3, [r5]
 954 019c 0A2B     		cmp	r3, #10
ARM GAS  C:\Users\Phuong\AppData\Local\Temp\cchebmXp.s 			page 24


 955 019e 00D0     		beq	.LCB974
 956 01a0 C2E0     		b	.L70	@long jump
 957              	.LCB974:
 958              		.loc 1 337 0 is_stmt 0 discriminator 1
 959 01a2 6F1C     		adds	r7, r5, #1
 960              	.LVL171:
 280:Source\mbedtls_open\library/pem.c **** 
 961              		.loc 1 280 0 is_stmt 1 discriminator 1
 962 01a4 093B     		subs	r3, r3, #9
 963 01a6 9946     		mov	r9, r3
 964 01a8 06E0     		b	.L31
 965              	.LVL172:
 966              	.L54:
 241:Source\mbedtls_open\library/pem.c **** #else
 967              		.loc 1 241 0
 968 01aa 0026     		movs	r6, #0
 969              	.LVL173:
 274:Source\mbedtls_open\library/pem.c **** 
 970              		.loc 1 274 0
 971 01ac 0023     		movs	r3, #0
 972 01ae 9946     		mov	r9, r3
 973 01b0 02E0     		b	.L31
 974              	.LVL174:
 975              	.L55:
 241:Source\mbedtls_open\library/pem.c **** #else
 976              		.loc 1 241 0
 977 01b2 0026     		movs	r6, #0
 978              	.LVL175:
 274:Source\mbedtls_open\library/pem.c **** 
 979              		.loc 1 274 0
 980 01b4 0023     		movs	r3, #0
 981 01b6 9946     		mov	r9, r3
 982              	.LVL176:
 983              	.L31:
 338:Source\mbedtls_open\library/pem.c ****         else return( MBEDTLS_ERR_PEM_INVALID_DATA );
 339:Source\mbedtls_open\library/pem.c **** #else
 340:Source\mbedtls_open\library/pem.c ****         return( MBEDTLS_ERR_PEM_FEATURE_UNAVAILABLE );
 341:Source\mbedtls_open\library/pem.c **** #endif /* MBEDTLS_MD5_C && MBEDTLS_CIPHER_MODE_CBC &&
 342:Source\mbedtls_open\library/pem.c ****           ( MBEDTLS_AES_C || MBEDTLS_DES_C ) */
 343:Source\mbedtls_open\library/pem.c ****     }
 344:Source\mbedtls_open\library/pem.c **** 
 345:Source\mbedtls_open\library/pem.c ****     if( s1 >= s2 )
 984              		.loc 1 345 0
 985 01b8 A742     		cmp	r7, r4
 986 01ba 00D3     		bcc	.LCB1013
 987 01bc B6E0     		b	.L71	@long jump
 988              	.LCB1013:
 346:Source\mbedtls_open\library/pem.c ****         return( MBEDTLS_ERR_PEM_INVALID_DATA );
 347:Source\mbedtls_open\library/pem.c **** 
 348:Source\mbedtls_open\library/pem.c ****     ret = mbedtls_base64_decode( NULL, 0, &len, s1, s2 - s1 );
 989              		.loc 1 348 0
 990 01be E41B     		subs	r4, r4, r7
 991              	.LVL177:
 992 01c0 0094     		str	r4, [sp]
 993 01c2 3B00     		movs	r3, r7
 994 01c4 09AA     		add	r2, sp, #36
 995 01c6 0021     		movs	r1, #0
ARM GAS  C:\Users\Phuong\AppData\Local\Temp\cchebmXp.s 			page 25


 996 01c8 0020     		movs	r0, #0
 997 01ca FFF7FEFF 		bl	mbedtls_base64_decode
 998              	.LVL178:
 349:Source\mbedtls_open\library/pem.c **** 
 350:Source\mbedtls_open\library/pem.c ****     if( ret == MBEDTLS_ERR_BASE64_INVALID_CHARACTER )
 999              		.loc 1 350 0
 1000 01ce 0300     		movs	r3, r0
 1001 01d0 2C33     		adds	r3, r3, #44
 1002 01d2 03D1     		bne	.L38
 351:Source\mbedtls_open\library/pem.c ****         return( MBEDTLS_ERR_PEM_INVALID_DATA + ret );
 1003              		.loc 1 351 0
 1004 01d4 604B     		ldr	r3, .L73+28
 1005 01d6 9C46     		mov	ip, r3
 1006 01d8 6044     		add	r0, r0, ip
 1007              	.LVL179:
 1008 01da AAE0     		b	.L25
 1009              	.LVL180:
 1010              	.L38:
 352:Source\mbedtls_open\library/pem.c **** 
 353:Source\mbedtls_open\library/pem.c ****     if( ( buf = mbedtls_calloc( 1, len ) ) == NULL )
 1011              		.loc 1 353 0
 1012 01dc 099B     		ldr	r3, [sp, #36]
 1013 01de 0393     		str	r3, [sp, #12]
 1014              	.LVL181:
 1015 01e0 1900     		movs	r1, r3
 1016 01e2 0120     		movs	r0, #1
 1017              	.LVL182:
 1018 01e4 FFF7FEFF 		bl	calloc
 1019              	.LVL183:
 1020 01e8 051E     		subs	r5, r0, #0
 1021              	.LVL184:
 1022 01ea 00D1     		bne	.LCB1049
 1023 01ec A0E0     		b	.L72	@long jump
 1024              	.LCB1049:
 354:Source\mbedtls_open\library/pem.c ****         return( MBEDTLS_ERR_PEM_ALLOC_FAILED );
 355:Source\mbedtls_open\library/pem.c **** 
 356:Source\mbedtls_open\library/pem.c ****     if( ( ret = mbedtls_base64_decode( buf, len, &len, s1, s2 - s1 ) ) != 0 )
 1025              		.loc 1 356 0
 1026 01ee 0094     		str	r4, [sp]
 1027 01f0 3B00     		movs	r3, r7
 1028 01f2 09AA     		add	r2, sp, #36
 1029 01f4 0399     		ldr	r1, [sp, #12]
 1030 01f6 FFF7FEFF 		bl	mbedtls_base64_decode
 1031              	.LVL185:
 1032 01fa 041E     		subs	r4, r0, #0
 1033              	.LVL186:
 1034 01fc 09D0     		beq	.L39
 357:Source\mbedtls_open\library/pem.c ****     {
 358:Source\mbedtls_open\library/pem.c ****         mbedtls_platform_zeroize( buf, len );
 1035              		.loc 1 358 0
 1036 01fe 0999     		ldr	r1, [sp, #36]
 1037 0200 2800     		movs	r0, r5
 1038              	.LVL187:
 1039 0202 FFF7FEFF 		bl	mbedtls_platform_zeroize
 1040              	.LVL188:
 359:Source\mbedtls_open\library/pem.c ****         mbedtls_free( buf );
 1041              		.loc 1 359 0
ARM GAS  C:\Users\Phuong\AppData\Local\Temp\cchebmXp.s 			page 26


 1042 0206 2800     		movs	r0, r5
 1043 0208 FFF7FEFF 		bl	free
 1044              	.LVL189:
 360:Source\mbedtls_open\library/pem.c ****         return( MBEDTLS_ERR_PEM_INVALID_DATA + ret );
 1045              		.loc 1 360 0
 1046 020c 524B     		ldr	r3, .L73+28
 1047 020e E018     		adds	r0, r4, r3
 1048 0210 8FE0     		b	.L25
 1049              	.LVL190:
 1050              	.L39:
 361:Source\mbedtls_open\library/pem.c ****     }
 362:Source\mbedtls_open\library/pem.c **** 
 363:Source\mbedtls_open\library/pem.c ****     if( enc != 0 )
 1051              		.loc 1 363 0
 1052 0212 4B46     		mov	r3, r9
 1053 0214 002B     		cmp	r3, #0
 1054 0216 63D0     		beq	.L40
 1055              	.LVL191:
 364:Source\mbedtls_open\library/pem.c ****     {
 365:Source\mbedtls_open\library/pem.c **** #if defined(MBEDTLS_MD5_C) && defined(MBEDTLS_CIPHER_MODE_CBC) &&         \
 366:Source\mbedtls_open\library/pem.c ****     ( defined(MBEDTLS_DES_C) || defined(MBEDTLS_AES_C) )
 367:Source\mbedtls_open\library/pem.c ****         if( pwd == NULL )
 1056              		.loc 1 367 0
 1057 0218 129B     		ldr	r3, [sp, #72]
 1058              	.LVL192:
 1059 021a 002B     		cmp	r3, #0
 1060 021c 08D1     		bne	.L41
 368:Source\mbedtls_open\library/pem.c ****         {
 369:Source\mbedtls_open\library/pem.c ****             mbedtls_platform_zeroize( buf, len );
 1061              		.loc 1 369 0
 1062 021e 0999     		ldr	r1, [sp, #36]
 1063 0220 2800     		movs	r0, r5
 1064              	.LVL193:
 1065 0222 FFF7FEFF 		bl	mbedtls_platform_zeroize
 1066              	.LVL194:
 370:Source\mbedtls_open\library/pem.c ****             mbedtls_free( buf );
 1067              		.loc 1 370 0
 1068 0226 2800     		movs	r0, r5
 1069 0228 FFF7FEFF 		bl	free
 1070              	.LVL195:
 371:Source\mbedtls_open\library/pem.c ****             return( MBEDTLS_ERR_PEM_PASSWORD_REQUIRED );
 1071              		.loc 1 371 0
 1072 022c 4B48     		ldr	r0, .L73+32
 1073 022e 80E0     		b	.L25
 1074              	.LVL196:
 1075              	.L41:
 372:Source\mbedtls_open\library/pem.c ****         }
 373:Source\mbedtls_open\library/pem.c **** 
 374:Source\mbedtls_open\library/pem.c ****         ret = 0;
 375:Source\mbedtls_open\library/pem.c **** 
 376:Source\mbedtls_open\library/pem.c **** #if defined(MBEDTLS_DES_C)
 377:Source\mbedtls_open\library/pem.c ****         if( enc_alg == MBEDTLS_CIPHER_DES_EDE3_CBC )
 1076              		.loc 1 377 0
 1077 0230 252E     		cmp	r6, #37
 1078 0232 09D1     		bne	.L42
 378:Source\mbedtls_open\library/pem.c ****             ret = pem_des3_decrypt( pem_iv, buf, len, pwd, pwdlen );
 1079              		.loc 1 378 0
ARM GAS  C:\Users\Phuong\AppData\Local\Temp\cchebmXp.s 			page 27


 1080 0234 139B     		ldr	r3, [sp, #76]
 1081 0236 0093     		str	r3, [sp]
 1082 0238 129B     		ldr	r3, [sp, #72]
 1083 023a 099A     		ldr	r2, [sp, #36]
 1084 023c 2900     		movs	r1, r5
 1085 023e 05A8     		add	r0, sp, #20
 1086 0240 FFF7FEFF 		bl	pem_des3_decrypt
 1087              	.LVL197:
 1088 0244 0400     		movs	r4, r0
 1089              	.LVL198:
 1090 0246 0AE0     		b	.L43
 1091              	.LVL199:
 1092              	.L42:
 379:Source\mbedtls_open\library/pem.c ****         else if( enc_alg == MBEDTLS_CIPHER_DES_CBC )
 1093              		.loc 1 379 0
 1094 0248 212E     		cmp	r6, #33
 1095 024a 08D1     		bne	.L43
 380:Source\mbedtls_open\library/pem.c ****             ret = pem_des_decrypt( pem_iv, buf, len, pwd, pwdlen );
 1096              		.loc 1 380 0
 1097 024c 139B     		ldr	r3, [sp, #76]
 1098 024e 0093     		str	r3, [sp]
 1099 0250 129B     		ldr	r3, [sp, #72]
 1100 0252 099A     		ldr	r2, [sp, #36]
 1101 0254 2900     		movs	r1, r5
 1102 0256 05A8     		add	r0, sp, #20
 1103 0258 FFF7FEFF 		bl	pem_des_decrypt
 1104              	.LVL200:
 1105 025c 0400     		movs	r4, r0
 1106              	.LVL201:
 1107              	.L43:
 381:Source\mbedtls_open\library/pem.c **** #endif /* MBEDTLS_DES_C */
 382:Source\mbedtls_open\library/pem.c **** 
 383:Source\mbedtls_open\library/pem.c **** #if defined(MBEDTLS_AES_C)
 384:Source\mbedtls_open\library/pem.c ****         if( enc_alg == MBEDTLS_CIPHER_AES_128_CBC )
 1108              		.loc 1 384 0
 1109 025e 052E     		cmp	r6, #5
 1110 0260 0BD1     		bne	.L44
 385:Source\mbedtls_open\library/pem.c ****             ret = pem_aes_decrypt( pem_iv, 16, buf, len, pwd, pwdlen );
 1111              		.loc 1 385 0
 1112 0262 139B     		ldr	r3, [sp, #76]
 1113 0264 0193     		str	r3, [sp, #4]
 1114 0266 129B     		ldr	r3, [sp, #72]
 1115 0268 0093     		str	r3, [sp]
 1116 026a 099B     		ldr	r3, [sp, #36]
 1117 026c 2A00     		movs	r2, r5
 1118 026e 1021     		movs	r1, #16
 1119 0270 05A8     		add	r0, sp, #20
 1120 0272 FFF7FEFF 		bl	pem_aes_decrypt
 1121              	.LVL202:
 1122 0276 0400     		movs	r4, r0
 1123              	.LVL203:
 1124 0278 1AE0     		b	.L45
 1125              	.LVL204:
 1126              	.L44:
 386:Source\mbedtls_open\library/pem.c ****         else if( enc_alg == MBEDTLS_CIPHER_AES_192_CBC )
 1127              		.loc 1 386 0
 1128 027a 062E     		cmp	r6, #6
ARM GAS  C:\Users\Phuong\AppData\Local\Temp\cchebmXp.s 			page 28


 1129 027c 0BD1     		bne	.L46
 387:Source\mbedtls_open\library/pem.c ****             ret = pem_aes_decrypt( pem_iv, 24, buf, len, pwd, pwdlen );
 1130              		.loc 1 387 0
 1131 027e 139B     		ldr	r3, [sp, #76]
 1132 0280 0193     		str	r3, [sp, #4]
 1133 0282 129B     		ldr	r3, [sp, #72]
 1134 0284 0093     		str	r3, [sp]
 1135 0286 099B     		ldr	r3, [sp, #36]
 1136 0288 2A00     		movs	r2, r5
 1137 028a 1821     		movs	r1, #24
 1138 028c 05A8     		add	r0, sp, #20
 1139 028e FFF7FEFF 		bl	pem_aes_decrypt
 1140              	.LVL205:
 1141 0292 0400     		movs	r4, r0
 1142              	.LVL206:
 1143 0294 0CE0     		b	.L45
 1144              	.LVL207:
 1145              	.L46:
 388:Source\mbedtls_open\library/pem.c ****         else if( enc_alg == MBEDTLS_CIPHER_AES_256_CBC )
 1146              		.loc 1 388 0
 1147 0296 072E     		cmp	r6, #7
 1148 0298 0AD1     		bne	.L45
 389:Source\mbedtls_open\library/pem.c ****             ret = pem_aes_decrypt( pem_iv, 32, buf, len, pwd, pwdlen );
 1149              		.loc 1 389 0
 1150 029a 139B     		ldr	r3, [sp, #76]
 1151 029c 0193     		str	r3, [sp, #4]
 1152 029e 129B     		ldr	r3, [sp, #72]
 1153 02a0 0093     		str	r3, [sp]
 1154 02a2 099B     		ldr	r3, [sp, #36]
 1155 02a4 2A00     		movs	r2, r5
 1156 02a6 2021     		movs	r1, #32
 1157 02a8 05A8     		add	r0, sp, #20
 1158 02aa FFF7FEFF 		bl	pem_aes_decrypt
 1159              	.LVL208:
 1160 02ae 0400     		movs	r4, r0
 1161              	.LVL209:
 1162              	.L45:
 390:Source\mbedtls_open\library/pem.c **** #endif /* MBEDTLS_AES_C */
 391:Source\mbedtls_open\library/pem.c **** 
 392:Source\mbedtls_open\library/pem.c ****         if( ret != 0 )
 1163              		.loc 1 392 0
 1164 02b0 002C     		cmp	r4, #0
 1165 02b2 04D0     		beq	.L47
 393:Source\mbedtls_open\library/pem.c ****         {
 394:Source\mbedtls_open\library/pem.c ****             mbedtls_free( buf );
 1166              		.loc 1 394 0
 1167 02b4 2800     		movs	r0, r5
 1168 02b6 FFF7FEFF 		bl	free
 1169              	.LVL210:
 395:Source\mbedtls_open\library/pem.c ****             return( ret );
 1170              		.loc 1 395 0
 1171 02ba 2000     		movs	r0, r4
 1172 02bc 39E0     		b	.L25
 1173              	.L47:
 396:Source\mbedtls_open\library/pem.c ****         }
 397:Source\mbedtls_open\library/pem.c **** 
 398:Source\mbedtls_open\library/pem.c ****         /*
ARM GAS  C:\Users\Phuong\AppData\Local\Temp\cchebmXp.s 			page 29


 399:Source\mbedtls_open\library/pem.c ****          * The result will be ASN.1 starting with a SEQUENCE tag, with 1 to 3
 400:Source\mbedtls_open\library/pem.c ****          * length bytes (allow 4 to be sure) in all known use cases.
 401:Source\mbedtls_open\library/pem.c ****          *
 402:Source\mbedtls_open\library/pem.c ****          * Use that as a heuristic to try to detect password mismatches.
 403:Source\mbedtls_open\library/pem.c ****          */
 404:Source\mbedtls_open\library/pem.c ****         if( len <= 2 || buf[0] != 0x30 || buf[1] > 0x83 )
 1174              		.loc 1 404 0
 1175 02be 0999     		ldr	r1, [sp, #36]
 1176 02c0 0229     		cmp	r1, #2
 1177 02c2 05D9     		bls	.L48
 1178              		.loc 1 404 0 is_stmt 0 discriminator 1
 1179 02c4 2B78     		ldrb	r3, [r5]
 1180 02c6 302B     		cmp	r3, #48
 1181 02c8 02D1     		bne	.L48
 1182              		.loc 1 404 0 discriminator 2
 1183 02ca 6B78     		ldrb	r3, [r5, #1]
 1184 02cc 832B     		cmp	r3, #131
 1185 02ce 07D9     		bls	.L40
 1186              	.L48:
 405:Source\mbedtls_open\library/pem.c ****         {
 406:Source\mbedtls_open\library/pem.c ****             mbedtls_platform_zeroize( buf, len );
 1187              		.loc 1 406 0 is_stmt 1
 1188 02d0 2800     		movs	r0, r5
 1189 02d2 FFF7FEFF 		bl	mbedtls_platform_zeroize
 1190              	.LVL211:
 407:Source\mbedtls_open\library/pem.c ****             mbedtls_free( buf );
 1191              		.loc 1 407 0
 1192 02d6 2800     		movs	r0, r5
 1193 02d8 FFF7FEFF 		bl	free
 1194              	.LVL212:
 408:Source\mbedtls_open\library/pem.c ****             return( MBEDTLS_ERR_PEM_PASSWORD_MISMATCH );
 1195              		.loc 1 408 0
 1196 02dc 2048     		ldr	r0, .L73+36
 1197 02de 28E0     		b	.L25
 1198              	.L40:
 409:Source\mbedtls_open\library/pem.c ****         }
 410:Source\mbedtls_open\library/pem.c **** #else
 411:Source\mbedtls_open\library/pem.c ****         mbedtls_platform_zeroize( buf, len );
 412:Source\mbedtls_open\library/pem.c ****         mbedtls_free( buf );
 413:Source\mbedtls_open\library/pem.c ****         return( MBEDTLS_ERR_PEM_FEATURE_UNAVAILABLE );
 414:Source\mbedtls_open\library/pem.c **** #endif /* MBEDTLS_MD5_C && MBEDTLS_CIPHER_MODE_CBC &&
 415:Source\mbedtls_open\library/pem.c ****           ( MBEDTLS_AES_C || MBEDTLS_DES_C ) */
 416:Source\mbedtls_open\library/pem.c ****     }
 417:Source\mbedtls_open\library/pem.c **** 
 418:Source\mbedtls_open\library/pem.c ****     ctx->buf = buf;
 1199              		.loc 1 418 0
 1200 02e0 4346     		mov	r3, r8
 1201 02e2 1D60     		str	r5, [r3]
 419:Source\mbedtls_open\library/pem.c ****     ctx->buflen = len;
 1202              		.loc 1 419 0
 1203 02e4 099A     		ldr	r2, [sp, #36]
 1204 02e6 5A60     		str	r2, [r3, #4]
 420:Source\mbedtls_open\library/pem.c **** 
 421:Source\mbedtls_open\library/pem.c ****     return( 0 );
 1205              		.loc 1 421 0
 1206 02e8 0020     		movs	r0, #0
 1207 02ea 22E0     		b	.L25
ARM GAS  C:\Users\Phuong\AppData\Local\Temp\cchebmXp.s 			page 30


 1208              	.LVL213:
 1209              	.L49:
 249:Source\mbedtls_open\library/pem.c **** 
 1210              		.loc 1 249 0
 1211 02ec 1D48     		ldr	r0, .L73+40
 1212              	.LVL214:
 1213 02ee 20E0     		b	.L25
 1214              	.LVL215:
 1215              	.L50:
 254:Source\mbedtls_open\library/pem.c **** 
 1216              		.loc 1 254 0
 1217 02f0 1D48     		ldr	r0, .L73+44
 1218              	.LVL216:
 1219 02f2 1EE0     		b	.L25
 1220              	.LVL217:
 1221              	.L51:
 259:Source\mbedtls_open\library/pem.c **** 
 1222              		.loc 1 259 0
 1223 02f4 1C48     		ldr	r0, .L73+44
 1224              	.LVL218:
 1225 02f6 1CE0     		b	.L25
 1226              	.LVL219:
 1227              	.L52:
 1228 02f8 1B48     		ldr	r0, .L73+44
 1229              	.LVL220:
 1230 02fa 1AE0     		b	.L25
 1231              	.L53:
 265:Source\mbedtls_open\library/pem.c **** 
 1232              		.loc 1 265 0
 1233 02fc 1A48     		ldr	r0, .L73+44
 1234 02fe 18E0     		b	.L25
 1235              	.LVL221:
 1236              	.L56:
 285:Source\mbedtls_open\library/pem.c **** 
 1237              		.loc 1 285 0
 1238 0300 1548     		ldr	r0, .L73+28
 1239 0302 16E0     		b	.L25
 1240              	.LVL222:
 1241              	.L57:
 295:Source\mbedtls_open\library/pem.c **** 
 1242              		.loc 1 295 0
 1243 0304 1948     		ldr	r0, .L73+48
 1244              	.LVL223:
 1245 0306 14E0     		b	.L25
 1246              	.L58:
 1247 0308 1848     		ldr	r0, .L73+48
 1248 030a 12E0     		b	.L25
 1249              	.LVL224:
 1250              	.L61:
 305:Source\mbedtls_open\library/pem.c **** 
 1251              		.loc 1 305 0
 1252 030c 1748     		ldr	r0, .L73+48
 1253              	.LVL225:
 1254 030e 10E0     		b	.L25
 1255              	.L62:
 1256 0310 1648     		ldr	r0, .L73+48
 1257 0312 0EE0     		b	.L25
ARM GAS  C:\Users\Phuong\AppData\Local\Temp\cchebmXp.s 			page 31


 1258              	.LVL226:
 1259              	.L63:
 315:Source\mbedtls_open\library/pem.c ****             else if( memcmp( s1, "DEK-Info: AES-128-CBC,", 22 ) == 0 )
 1260              		.loc 1 315 0
 1261 0314 1648     		ldr	r0, .L73+52
 1262 0316 0CE0     		b	.L25
 1263              	.L66:
 323:Source\mbedtls_open\library/pem.c **** 
 1264              		.loc 1 323 0
 1265 0318 1548     		ldr	r0, .L73+52
 1266 031a 0AE0     		b	.L25
 1267              	.LVL227:
 1268              	.L67:
 327:Source\mbedtls_open\library/pem.c **** 
 1269              		.loc 1 327 0
 1270 031c 1348     		ldr	r0, .L73+48
 1271              	.LVL228:
 1272 031e 08E0     		b	.L25
 1273              	.L68:
 1274 0320 1248     		ldr	r0, .L73+48
 1275 0322 06E0     		b	.L25
 1276              	.LVL229:
 1277              	.L69:
 334:Source\mbedtls_open\library/pem.c **** 
 1278              		.loc 1 334 0
 1279 0324 1248     		ldr	r0, .L73+52
 1280 0326 04E0     		b	.L25
 1281              	.L70:
 338:Source\mbedtls_open\library/pem.c **** #else
 1282              		.loc 1 338 0
 1283 0328 0B48     		ldr	r0, .L73+28
 1284 032a 02E0     		b	.L25
 1285              	.LVL230:
 1286              	.L71:
 346:Source\mbedtls_open\library/pem.c **** 
 1287              		.loc 1 346 0
 1288 032c 0A48     		ldr	r0, .L73+28
 1289 032e 00E0     		b	.L25
 1290              	.LVL231:
 1291              	.L72:
 354:Source\mbedtls_open\library/pem.c **** 
 1292              		.loc 1 354 0
 1293 0330 1048     		ldr	r0, .L73+56
 1294              	.LVL232:
 1295              	.L25:
 422:Source\mbedtls_open\library/pem.c **** }
 1296              		.loc 1 422 0
 1297 0332 0BB0     		add	sp, sp, #44
 1298              		@ sp needed
 1299              	.LVL233:
 1300 0334 0CBC     		pop	{r2, r3}
 1301 0336 9046     		mov	r8, r2
 1302 0338 9946     		mov	r9, r3
 1303 033a F0BD     		pop	{r4, r5, r6, r7, pc}
 1304              	.L74:
 1305              		.align	2
 1306              	.L73:
ARM GAS  C:\Users\Phuong\AppData\Local\Temp\cchebmXp.s 			page 32


 1307 033c 00000000 		.word	.LC0
 1308 0340 18000000 		.word	.LC2
 1309 0344 30000000 		.word	.LC4
 1310 0348 44000000 		.word	.LC6
 1311 034c 54000000 		.word	.LC8
 1312 0350 6C000000 		.word	.LC10
 1313 0354 84000000 		.word	.LC12
 1314 0358 00EFFFFF 		.word	-4352
 1315 035c 00EDFFFF 		.word	-4864
 1316 0360 80ECFFFF 		.word	-4992
 1317 0364 80EBFFFF 		.word	-5248
 1318 0368 80EFFFFF 		.word	-4224
 1319 036c 00EEFFFF 		.word	-4608
 1320 0370 80EDFFFF 		.word	-4736
 1321 0374 80EEFFFF 		.word	-4480
 1322              		.cfi_endproc
 1323              	.LFE14:
 1324              		.size	mbedtls_pem_read_buffer, .-mbedtls_pem_read_buffer
 1325              		.section	.text.mbedtls_pem_free,"ax",%progbits
 1326              		.align	2
 1327              		.global	mbedtls_pem_free
 1328              		.code	16
 1329              		.thumb_func
 1330              		.type	mbedtls_pem_free, %function
 1331              	mbedtls_pem_free:
 1332              	.LFB15:
 423:Source\mbedtls_open\library/pem.c **** 
 424:Source\mbedtls_open\library/pem.c **** void mbedtls_pem_free( mbedtls_pem_context *ctx )
 425:Source\mbedtls_open\library/pem.c **** {
 1333              		.loc 1 425 0
 1334              		.cfi_startproc
 1335              		@ args = 0, pretend = 0, frame = 0
 1336              		@ frame_needed = 0, uses_anonymous_args = 0
 1337              	.LVL234:
 1338 0000 10B5     		push	{r4, lr}
 1339              		.cfi_def_cfa_offset 8
 1340              		.cfi_offset 4, -8
 1341              		.cfi_offset 14, -4
 1342 0002 0400     		movs	r4, r0
 426:Source\mbedtls_open\library/pem.c ****     if( ctx->buf != NULL )
 1343              		.loc 1 426 0
 1344 0004 0068     		ldr	r0, [r0]
 1345              	.LVL235:
 1346 0006 0028     		cmp	r0, #0
 1347 0008 02D0     		beq	.L76
 427:Source\mbedtls_open\library/pem.c ****         mbedtls_platform_zeroize( ctx->buf, ctx->buflen );
 1348              		.loc 1 427 0
 1349 000a 6168     		ldr	r1, [r4, #4]
 1350 000c FFF7FEFF 		bl	mbedtls_platform_zeroize
 1351              	.LVL236:
 1352              	.L76:
 428:Source\mbedtls_open\library/pem.c ****     mbedtls_free( ctx->buf );
 1353              		.loc 1 428 0
 1354 0010 2068     		ldr	r0, [r4]
 1355 0012 FFF7FEFF 		bl	free
 1356              	.LVL237:
 429:Source\mbedtls_open\library/pem.c ****     mbedtls_free( ctx->info );
ARM GAS  C:\Users\Phuong\AppData\Local\Temp\cchebmXp.s 			page 33


 1357              		.loc 1 429 0
 1358 0016 A068     		ldr	r0, [r4, #8]
 1359 0018 FFF7FEFF 		bl	free
 1360              	.LVL238:
 430:Source\mbedtls_open\library/pem.c **** 
 431:Source\mbedtls_open\library/pem.c ****     mbedtls_platform_zeroize( ctx, sizeof( mbedtls_pem_context ) );
 1361              		.loc 1 431 0
 1362 001c 0C21     		movs	r1, #12
 1363 001e 2000     		movs	r0, r4
 1364 0020 FFF7FEFF 		bl	mbedtls_platform_zeroize
 1365              	.LVL239:
 432:Source\mbedtls_open\library/pem.c **** }
 1366              		.loc 1 432 0
 1367              		@ sp needed
 1368              	.LVL240:
 1369 0024 10BD     		pop	{r4, pc}
 1370              		.cfi_endproc
 1371              	.LFE15:
 1372              		.size	mbedtls_pem_free, .-mbedtls_pem_free
 1373 0026 C046     		.section	.text.mbedtls_pem_write_buffer,"ax",%progbits
 1374              		.align	2
 1375              		.global	mbedtls_pem_write_buffer
 1376              		.code	16
 1377              		.thumb_func
 1378              		.type	mbedtls_pem_write_buffer, %function
 1379              	mbedtls_pem_write_buffer:
 1380              	.LFB16:
 433:Source\mbedtls_open\library/pem.c **** #endif /* MBEDTLS_PEM_PARSE_C */
 434:Source\mbedtls_open\library/pem.c **** 
 435:Source\mbedtls_open\library/pem.c **** #if defined(MBEDTLS_PEM_WRITE_C)
 436:Source\mbedtls_open\library/pem.c **** int mbedtls_pem_write_buffer( const char *header, const char *footer,
 437:Source\mbedtls_open\library/pem.c ****                       const unsigned char *der_data, size_t der_len,
 438:Source\mbedtls_open\library/pem.c ****                       unsigned char *buf, size_t buf_len, size_t *olen )
 439:Source\mbedtls_open\library/pem.c **** {
 1381              		.loc 1 439 0
 1382              		.cfi_startproc
 1383              		@ args = 12, pretend = 0, frame = 16
 1384              		@ frame_needed = 0, uses_anonymous_args = 0
 1385              	.LVL241:
 1386 0000 F0B5     		push	{r4, r5, r6, r7, lr}
 1387              		.cfi_def_cfa_offset 20
 1388              		.cfi_offset 4, -20
 1389              		.cfi_offset 5, -16
 1390              		.cfi_offset 6, -12
 1391              		.cfi_offset 7, -8
 1392              		.cfi_offset 14, -4
 1393 0002 87B0     		sub	sp, sp, #28
 1394              		.cfi_def_cfa_offset 48
 1395 0004 0400     		movs	r4, r0
 1396 0006 0E00     		movs	r6, r1
 1397 0008 0391     		str	r1, [sp, #12]
 1398 000a 0292     		str	r2, [sp, #8]
 1399 000c 1F00     		movs	r7, r3
 1400              	.LVL242:
 440:Source\mbedtls_open\library/pem.c ****     int ret;
 441:Source\mbedtls_open\library/pem.c ****     unsigned char *encode_buf = NULL, *c, *p = buf;
 442:Source\mbedtls_open\library/pem.c ****     size_t len = 0, use_len, add_len = 0;
ARM GAS  C:\Users\Phuong\AppData\Local\Temp\cchebmXp.s 			page 34


 443:Source\mbedtls_open\library/pem.c **** 
 444:Source\mbedtls_open\library/pem.c ****     mbedtls_base64_encode( NULL, 0, &use_len, der_data, der_len );
 1401              		.loc 1 444 0
 1402 000e 0093     		str	r3, [sp]
 1403 0010 1300     		movs	r3, r2
 1404              	.LVL243:
 1405 0012 05AA     		add	r2, sp, #20
 1406              	.LVL244:
 1407 0014 0021     		movs	r1, #0
 1408              	.LVL245:
 1409 0016 0020     		movs	r0, #0
 1410              	.LVL246:
 1411 0018 FFF7FEFF 		bl	mbedtls_base64_encode
 1412              	.LVL247:
 445:Source\mbedtls_open\library/pem.c ****     add_len = strlen( header ) + strlen( footer ) + ( use_len / 64 ) + 1;
 1413              		.loc 1 445 0
 1414 001c 2000     		movs	r0, r4
 1415 001e FFF7FEFF 		bl	strlen
 1416              	.LVL248:
 1417 0022 0500     		movs	r5, r0
 1418 0024 3000     		movs	r0, r6
 1419 0026 FFF7FEFF 		bl	strlen
 1420              	.LVL249:
 1421 002a 2818     		adds	r0, r5, r0
 1422 002c 059E     		ldr	r6, [sp, #20]
 1423              	.LVL250:
 1424 002e B309     		lsrs	r3, r6, #6
 1425 0030 C018     		adds	r0, r0, r3
 1426 0032 0130     		adds	r0, r0, #1
 1427              	.LVL251:
 446:Source\mbedtls_open\library/pem.c **** 
 447:Source\mbedtls_open\library/pem.c ****     if( use_len + add_len > buf_len )
 1428              		.loc 1 447 0
 1429 0034 3018     		adds	r0, r6, r0
 1430              	.LVL252:
 1431 0036 0D9B     		ldr	r3, [sp, #52]
 1432 0038 9842     		cmp	r0, r3
 1433 003a 04D9     		bls	.L78
 448:Source\mbedtls_open\library/pem.c ****     {
 449:Source\mbedtls_open\library/pem.c ****         *olen = use_len + add_len;
 1434              		.loc 1 449 0
 1435 003c 0E9B     		ldr	r3, [sp, #56]
 1436 003e 1860     		str	r0, [r3]
 450:Source\mbedtls_open\library/pem.c ****         return( MBEDTLS_ERR_BASE64_BUFFER_TOO_SMALL );
 1437              		.loc 1 450 0
 1438 0040 2A20     		movs	r0, #42
 1439 0042 4042     		rsbs	r0, r0, #0
 1440 0044 55E0     		b	.L79
 1441              	.L78:
 451:Source\mbedtls_open\library/pem.c ****     }
 452:Source\mbedtls_open\library/pem.c **** 
 453:Source\mbedtls_open\library/pem.c ****     if( use_len != 0 &&
 1442              		.loc 1 453 0
 1443 0046 002E     		cmp	r6, #0
 1444 0048 06D0     		beq	.L85
 1445              		.loc 1 453 0 is_stmt 0 discriminator 1
 1446 004a 3100     		movs	r1, r6
ARM GAS  C:\Users\Phuong\AppData\Local\Temp\cchebmXp.s 			page 35


 1447 004c 0120     		movs	r0, #1
 1448 004e FFF7FEFF 		bl	calloc
 1449              	.LVL253:
 1450 0052 051E     		subs	r5, r0, #0
 1451              	.LVL254:
 1452 0054 01D1     		bne	.L80
 1453 0056 4BE0     		b	.L86
 1454              	.LVL255:
 1455              	.L85:
 441:Source\mbedtls_open\library/pem.c ****     size_t len = 0, use_len, add_len = 0;
 1456              		.loc 1 441 0 is_stmt 1
 1457 0058 0025     		movs	r5, #0
 1458              	.LVL256:
 1459              	.L80:
 454:Source\mbedtls_open\library/pem.c ****         ( ( encode_buf = mbedtls_calloc( 1, use_len ) ) == NULL ) )
 455:Source\mbedtls_open\library/pem.c ****         return( MBEDTLS_ERR_PEM_ALLOC_FAILED );
 456:Source\mbedtls_open\library/pem.c **** 
 457:Source\mbedtls_open\library/pem.c ****     if( ( ret = mbedtls_base64_encode( encode_buf, use_len, &use_len, der_data,
 1460              		.loc 1 457 0
 1461 005a 0097     		str	r7, [sp]
 1462 005c 029B     		ldr	r3, [sp, #8]
 1463 005e 05AA     		add	r2, sp, #20
 1464 0060 3100     		movs	r1, r6
 1465 0062 2800     		movs	r0, r5
 1466 0064 FFF7FEFF 		bl	mbedtls_base64_encode
 1467              	.LVL257:
 1468 0068 071E     		subs	r7, r0, #0
 1469              	.LVL258:
 1470 006a 04D0     		beq	.L81
 458:Source\mbedtls_open\library/pem.c ****                                der_len ) ) != 0 )
 459:Source\mbedtls_open\library/pem.c ****     {
 460:Source\mbedtls_open\library/pem.c ****         mbedtls_free( encode_buf );
 1471              		.loc 1 460 0
 1472 006c 2800     		movs	r0, r5
 1473              	.LVL259:
 1474 006e FFF7FEFF 		bl	free
 1475              	.LVL260:
 461:Source\mbedtls_open\library/pem.c ****         return( ret );
 1476              		.loc 1 461 0
 1477 0072 3800     		movs	r0, r7
 1478 0074 3DE0     		b	.L79
 1479              	.L81:
 462:Source\mbedtls_open\library/pem.c ****     }
 463:Source\mbedtls_open\library/pem.c **** 
 464:Source\mbedtls_open\library/pem.c ****     memcpy( p, header, strlen( header ) );
 1480              		.loc 1 464 0
 1481 0076 2000     		movs	r0, r4
 1482 0078 FFF7FEFF 		bl	strlen
 1483              	.LVL261:
 1484 007c 0200     		movs	r2, r0
 1485 007e 2100     		movs	r1, r4
 1486 0080 0C98     		ldr	r0, [sp, #48]
 1487 0082 FFF7FEFF 		bl	memcpy
 1488              	.LVL262:
 465:Source\mbedtls_open\library/pem.c ****     p += strlen( header );
 1489              		.loc 1 465 0
 1490 0086 2000     		movs	r0, r4
ARM GAS  C:\Users\Phuong\AppData\Local\Temp\cchebmXp.s 			page 36


 1491 0088 FFF7FEFF 		bl	strlen
 1492              	.LVL263:
 1493 008c 0C9B     		ldr	r3, [sp, #48]
 1494 008e 1F18     		adds	r7, r3, r0
 1495              	.LVL264:
 466:Source\mbedtls_open\library/pem.c ****     c = encode_buf;
 1496              		.loc 1 466 0
 1497 0090 2E00     		movs	r6, r5
 467:Source\mbedtls_open\library/pem.c **** 
 468:Source\mbedtls_open\library/pem.c ****     while( use_len )
 1498              		.loc 1 468 0
 1499 0092 10E0     		b	.L82
 1500              	.LVL265:
 1501              	.L84:
 469:Source\mbedtls_open\library/pem.c ****     {
 470:Source\mbedtls_open\library/pem.c ****         len = ( use_len > 64 ) ? 64 : use_len;
 1502              		.loc 1 470 0
 1503 0094 402C     		cmp	r4, #64
 1504 0096 00D9     		bls	.L83
 1505 0098 4024     		movs	r4, #64
 1506              	.L83:
 1507              	.LVL266:
 471:Source\mbedtls_open\library/pem.c ****         memcpy( p, c, len );
 1508              		.loc 1 471 0
 1509 009a 2200     		movs	r2, r4
 1510 009c 3100     		movs	r1, r6
 1511 009e 3800     		movs	r0, r7
 1512 00a0 FFF7FEFF 		bl	memcpy
 1513              	.LVL267:
 472:Source\mbedtls_open\library/pem.c ****         use_len -= len;
 1514              		.loc 1 472 0
 1515 00a4 059B     		ldr	r3, [sp, #20]
 1516 00a6 1B1B     		subs	r3, r3, r4
 1517 00a8 0593     		str	r3, [sp, #20]
 473:Source\mbedtls_open\library/pem.c ****         p += len;
 1518              		.loc 1 473 0
 1519 00aa 3B19     		adds	r3, r7, r4
 1520              	.LVL268:
 474:Source\mbedtls_open\library/pem.c ****         c += len;
 1521              		.loc 1 474 0
 1522 00ac 3619     		adds	r6, r6, r4
 1523              	.LVL269:
 475:Source\mbedtls_open\library/pem.c ****         *p++ = '\n';
 1524              		.loc 1 475 0
 1525 00ae 0134     		adds	r4, r4, #1
 1526              	.LVL270:
 1527 00b0 3F19     		adds	r7, r7, r4
 1528              	.LVL271:
 1529 00b2 0A22     		movs	r2, #10
 1530 00b4 1A70     		strb	r2, [r3]
 1531              	.LVL272:
 1532              	.L82:
 468:Source\mbedtls_open\library/pem.c ****     {
 1533              		.loc 1 468 0
 1534 00b6 059C     		ldr	r4, [sp, #20]
 1535 00b8 002C     		cmp	r4, #0
 1536 00ba EBD1     		bne	.L84
ARM GAS  C:\Users\Phuong\AppData\Local\Temp\cchebmXp.s 			page 37


 476:Source\mbedtls_open\library/pem.c ****     }
 477:Source\mbedtls_open\library/pem.c **** 
 478:Source\mbedtls_open\library/pem.c ****     memcpy( p, footer, strlen( footer ) );
 1537              		.loc 1 478 0
 1538 00bc 039C     		ldr	r4, [sp, #12]
 1539 00be 2000     		movs	r0, r4
 1540 00c0 FFF7FEFF 		bl	strlen
 1541              	.LVL273:
 1542 00c4 0200     		movs	r2, r0
 1543 00c6 2100     		movs	r1, r4
 1544 00c8 3800     		movs	r0, r7
 1545 00ca FFF7FEFF 		bl	memcpy
 1546              	.LVL274:
 479:Source\mbedtls_open\library/pem.c ****     p += strlen( footer );
 1547              		.loc 1 479 0
 1548 00ce 2000     		movs	r0, r4
 1549 00d0 FFF7FEFF 		bl	strlen
 1550              	.LVL275:
 1551 00d4 3B18     		adds	r3, r7, r0
 1552              	.LVL276:
 480:Source\mbedtls_open\library/pem.c **** 
 481:Source\mbedtls_open\library/pem.c ****     *p++ = '\0';
 1553              		.loc 1 481 0
 1554 00d6 0130     		adds	r0, r0, #1
 1555 00d8 3F18     		adds	r7, r7, r0
 1556              	.LVL277:
 1557 00da 0022     		movs	r2, #0
 1558 00dc 1A70     		strb	r2, [r3]
 482:Source\mbedtls_open\library/pem.c ****     *olen = p - buf;
 1559              		.loc 1 482 0
 1560 00de 0C9B     		ldr	r3, [sp, #48]
 1561 00e0 F81A     		subs	r0, r7, r3
 1562 00e2 0E9B     		ldr	r3, [sp, #56]
 1563 00e4 1860     		str	r0, [r3]
 483:Source\mbedtls_open\library/pem.c **** 
 484:Source\mbedtls_open\library/pem.c ****     mbedtls_free( encode_buf );
 1564              		.loc 1 484 0
 1565 00e6 2800     		movs	r0, r5
 1566 00e8 FFF7FEFF 		bl	free
 1567              	.LVL278:
 485:Source\mbedtls_open\library/pem.c ****     return( 0 );
 1568              		.loc 1 485 0
 1569 00ec 0020     		movs	r0, #0
 1570 00ee 00E0     		b	.L79
 1571              	.LVL279:
 1572              	.L86:
 455:Source\mbedtls_open\library/pem.c **** 
 1573              		.loc 1 455 0
 1574 00f0 0148     		ldr	r0, .L87
 1575              	.LVL280:
 1576              	.L79:
 486:Source\mbedtls_open\library/pem.c **** }
 1577              		.loc 1 486 0
 1578 00f2 07B0     		add	sp, sp, #28
 1579              		@ sp needed
 1580 00f4 F0BD     		pop	{r4, r5, r6, r7, pc}
 1581              	.L88:
ARM GAS  C:\Users\Phuong\AppData\Local\Temp\cchebmXp.s 			page 38


 1582 00f6 C046     		.align	2
 1583              	.L87:
 1584 00f8 80EEFFFF 		.word	-4480
 1585              		.cfi_endproc
 1586              	.LFE16:
 1587              		.size	mbedtls_pem_write_buffer, .-mbedtls_pem_write_buffer
 1588              		.section	.rodata.str1.4,"aMS",%progbits,1
 1589              		.align	2
 1590              	.LC0:
 1591 0000 50726F63 		.ascii	"Proc-Type: 4,ENCRYPTED\000"
 1591      2D547970 
 1591      653A2034 
 1591      2C454E43 
 1591      52595054 
 1592 0017 00       		.space	1
 1593              	.LC2:
 1594 0018 44454B2D 		.ascii	"DEK-Info: DES-EDE3-CBC,\000"
 1594      496E666F 
 1594      3A204445 
 1594      532D4544 
 1594      45332D43 
 1595              	.LC4:
 1596 0030 44454B2D 		.ascii	"DEK-Info: DES-CBC,\000"
 1596      496E666F 
 1596      3A204445 
 1596      532D4342 
 1596      432C00
 1597 0043 00       		.space	1
 1598              	.LC6:
 1599 0044 44454B2D 		.ascii	"DEK-Info: AES-\000"
 1599      496E666F 
 1599      3A204145 
 1599      532D00
 1600 0053 00       		.space	1
 1601              	.LC8:
 1602 0054 44454B2D 		.ascii	"DEK-Info: AES-128-CBC,\000"
 1602      496E666F 
 1602      3A204145 
 1602      532D3132 
 1602      382D4342 
 1603 006b 00       		.space	1
 1604              	.LC10:
 1605 006c 44454B2D 		.ascii	"DEK-Info: AES-192-CBC,\000"
 1605      496E666F 
 1605      3A204145 
 1605      532D3139 
 1605      322D4342 
 1606 0083 00       		.space	1
 1607              	.LC12:
 1608 0084 44454B2D 		.ascii	"DEK-Info: AES-256-CBC,\000"
 1608      496E666F 
 1608      3A204145 
 1608      532D3235 
 1608      362D4342 
 1609              		.text
 1610              	.Letext0:
 1611              		.file 2 "c:\\program files (x86)\\cypress\\psoc creator\\4.2\\psoc creator\\import\\gnu\\arm\\5.4.
ARM GAS  C:\Users\Phuong\AppData\Local\Temp\cchebmXp.s 			page 39


 1612              		.file 3 "c:\\program files (x86)\\cypress\\psoc creator\\4.2\\psoc creator\\import\\gnu\\arm\\5.4.
 1613              		.file 4 ".\\Source\\mbedtls_open\\include/mbedtls/pem.h"
 1614              		.file 5 "c:\\program files (x86)\\cypress\\psoc creator\\4.2\\psoc creator\\import\\gnu\\arm\\5.4.
 1615              		.file 6 ".\\Source\\mbedtls_open\\include/mbedtls/des.h"
 1616              		.file 7 ".\\Source\\mbedtls_open\\include/mbedtls/aes.h"
 1617              		.file 8 ".\\Source\\mbedtls_open\\include/mbedtls/md5.h"
 1618              		.file 9 ".\\Source\\mbedtls_open\\include/mbedtls/cipher.h"
 1619              		.file 10 ".\\Source\\mbedtls_open\\include/mbedtls/platform_util.h"
 1620              		.file 11 "c:\\program files (x86)\\cypress\\psoc creator\\4.2\\psoc creator\\import\\gnu\\arm\\5.4
 1621              		.file 12 ".\\Source\\mbedtls_open\\include/mbedtls/base64.h"
 1622              		.file 13 "c:\\program files (x86)\\cypress\\psoc creator\\4.2\\psoc creator\\import\\gnu\\arm\\5.4