ARM GAS  C:\Users\Phuong\AppData\Local\Temp\cch6TBQE.s 			page 1


   1              		.syntax unified
   2              		.cpu cortex-m0plus
   3              		.fpu softvfp
   4              		.eabi_attribute 20, 1
   5              		.eabi_attribute 21, 1
   6              		.eabi_attribute 23, 3
   7              		.eabi_attribute 24, 1
   8              		.eabi_attribute 25, 1
   9              		.eabi_attribute 26, 1
  10              		.eabi_attribute 30, 1
  11              		.eabi_attribute 34, 0
  12              		.eabi_attribute 18, 4
  13              		.thumb
  14              		.syntax unified
  15              		.file	"pk.c"
  16              		.text
  17              	.Ltext0:
  18              		.cfi_sections	.debug_frame
  19              		.section	.text.mbedtls_pk_init,"ax",%progbits
  20              		.align	2
  21              		.global	mbedtls_pk_init
  22              		.code	16
  23              		.thumb_func
  24              		.type	mbedtls_pk_init, %function
  25              	mbedtls_pk_init:
  26              	.LFB3:
  27              		.file 1 "Source\\mbedtls_open\\library\\pk.c"
   1:Source\mbedtls_open\library/pk.c **** /*
   2:Source\mbedtls_open\library/pk.c ****  *  Public Key abstraction layer
   3:Source\mbedtls_open\library/pk.c ****  *
   4:Source\mbedtls_open\library/pk.c ****  *  Copyright (C) 2006-2015, ARM Limited, All Rights Reserved
   5:Source\mbedtls_open\library/pk.c ****  *  SPDX-License-Identifier: Apache-2.0
   6:Source\mbedtls_open\library/pk.c ****  *
   7:Source\mbedtls_open\library/pk.c ****  *  Licensed under the Apache License, Version 2.0 (the "License"); you may
   8:Source\mbedtls_open\library/pk.c ****  *  not use this file except in compliance with the License.
   9:Source\mbedtls_open\library/pk.c ****  *  You may obtain a copy of the License at
  10:Source\mbedtls_open\library/pk.c ****  *
  11:Source\mbedtls_open\library/pk.c ****  *  http://www.apache.org/licenses/LICENSE-2.0
  12:Source\mbedtls_open\library/pk.c ****  *
  13:Source\mbedtls_open\library/pk.c ****  *  Unless required by applicable law or agreed to in writing, software
  14:Source\mbedtls_open\library/pk.c ****  *  distributed under the License is distributed on an "AS IS" BASIS, WITHOUT
  15:Source\mbedtls_open\library/pk.c ****  *  WARRANTIES OR CONDITIONS OF ANY KIND, either express or implied.
  16:Source\mbedtls_open\library/pk.c ****  *  See the License for the specific language governing permissions and
  17:Source\mbedtls_open\library/pk.c ****  *  limitations under the License.
  18:Source\mbedtls_open\library/pk.c ****  *
  19:Source\mbedtls_open\library/pk.c ****  *  This file is part of mbed TLS (https://tls.mbed.org)
  20:Source\mbedtls_open\library/pk.c ****  */
  21:Source\mbedtls_open\library/pk.c **** 
  22:Source\mbedtls_open\library/pk.c **** #if !defined(MBEDTLS_CONFIG_FILE)
  23:Source\mbedtls_open\library/pk.c **** #include "mbedtls/config.h"
  24:Source\mbedtls_open\library/pk.c **** #else
  25:Source\mbedtls_open\library/pk.c **** #include MBEDTLS_CONFIG_FILE
  26:Source\mbedtls_open\library/pk.c **** #endif
  27:Source\mbedtls_open\library/pk.c **** 
  28:Source\mbedtls_open\library/pk.c **** #if defined(MBEDTLS_PK_C)
  29:Source\mbedtls_open\library/pk.c **** #include "mbedtls/pk.h"
  30:Source\mbedtls_open\library/pk.c **** #include "mbedtls/pk_internal.h"
ARM GAS  C:\Users\Phuong\AppData\Local\Temp\cch6TBQE.s 			page 2


  31:Source\mbedtls_open\library/pk.c **** 
  32:Source\mbedtls_open\library/pk.c **** #include "mbedtls/platform_util.h"
  33:Source\mbedtls_open\library/pk.c **** 
  34:Source\mbedtls_open\library/pk.c **** #if defined(MBEDTLS_RSA_C)
  35:Source\mbedtls_open\library/pk.c **** #include "mbedtls/rsa.h"
  36:Source\mbedtls_open\library/pk.c **** #endif
  37:Source\mbedtls_open\library/pk.c **** #if defined(MBEDTLS_ECP_C)
  38:Source\mbedtls_open\library/pk.c **** #include "mbedtls/ecp.h"
  39:Source\mbedtls_open\library/pk.c **** #endif
  40:Source\mbedtls_open\library/pk.c **** #if defined(MBEDTLS_ECDSA_C)
  41:Source\mbedtls_open\library/pk.c **** #include "mbedtls/ecdsa.h"
  42:Source\mbedtls_open\library/pk.c **** #endif
  43:Source\mbedtls_open\library/pk.c **** 
  44:Source\mbedtls_open\library/pk.c **** #include <limits.h>
  45:Source\mbedtls_open\library/pk.c **** #include <stdint.h>
  46:Source\mbedtls_open\library/pk.c **** 
  47:Source\mbedtls_open\library/pk.c **** /*
  48:Source\mbedtls_open\library/pk.c ****  * Initialise a mbedtls_pk_context
  49:Source\mbedtls_open\library/pk.c ****  */
  50:Source\mbedtls_open\library/pk.c **** void mbedtls_pk_init( mbedtls_pk_context *ctx )
  51:Source\mbedtls_open\library/pk.c **** {
  28              		.loc 1 51 0
  29              		.cfi_startproc
  30              		@ args = 0, pretend = 0, frame = 0
  31              		@ frame_needed = 0, uses_anonymous_args = 0
  32              		@ link register save eliminated.
  33              	.LVL0:
  52:Source\mbedtls_open\library/pk.c ****     if( ctx == NULL )
  34              		.loc 1 52 0
  35 0000 0028     		cmp	r0, #0
  36 0002 02D0     		beq	.L1
  53:Source\mbedtls_open\library/pk.c ****         return;
  54:Source\mbedtls_open\library/pk.c **** 
  55:Source\mbedtls_open\library/pk.c ****     ctx->pk_info = NULL;
  37              		.loc 1 55 0
  38 0004 0023     		movs	r3, #0
  39 0006 0360     		str	r3, [r0]
  56:Source\mbedtls_open\library/pk.c ****     ctx->pk_ctx = NULL;
  40              		.loc 1 56 0
  41 0008 4360     		str	r3, [r0, #4]
  42              	.L1:
  57:Source\mbedtls_open\library/pk.c **** }
  43              		.loc 1 57 0
  44              		@ sp needed
  45 000a 7047     		bx	lr
  46              		.cfi_endproc
  47              	.LFE3:
  48              		.size	mbedtls_pk_init, .-mbedtls_pk_init
  49              		.section	.text.mbedtls_pk_free,"ax",%progbits
  50              		.align	2
  51              		.global	mbedtls_pk_free
  52              		.code	16
  53              		.thumb_func
  54              		.type	mbedtls_pk_free, %function
  55              	mbedtls_pk_free:
  56              	.LFB4:
  58:Source\mbedtls_open\library/pk.c **** 
ARM GAS  C:\Users\Phuong\AppData\Local\Temp\cch6TBQE.s 			page 3


  59:Source\mbedtls_open\library/pk.c **** /*
  60:Source\mbedtls_open\library/pk.c ****  * Free (the components of) a mbedtls_pk_context
  61:Source\mbedtls_open\library/pk.c ****  */
  62:Source\mbedtls_open\library/pk.c **** void mbedtls_pk_free( mbedtls_pk_context *ctx )
  63:Source\mbedtls_open\library/pk.c **** {
  57              		.loc 1 63 0
  58              		.cfi_startproc
  59              		@ args = 0, pretend = 0, frame = 0
  60              		@ frame_needed = 0, uses_anonymous_args = 0
  61              	.LVL1:
  62 0000 10B5     		push	{r4, lr}
  63              		.cfi_def_cfa_offset 8
  64              		.cfi_offset 4, -8
  65              		.cfi_offset 14, -4
  66 0002 041E     		subs	r4, r0, #0
  64:Source\mbedtls_open\library/pk.c ****     if( ctx == NULL || ctx->pk_info == NULL )
  67              		.loc 1 64 0
  68 0004 09D0     		beq	.L3
  69              		.loc 1 64 0 is_stmt 0 discriminator 1
  70 0006 0368     		ldr	r3, [r0]
  71 0008 002B     		cmp	r3, #0
  72 000a 06D0     		beq	.L3
  65:Source\mbedtls_open\library/pk.c ****         return;
  66:Source\mbedtls_open\library/pk.c **** 
  67:Source\mbedtls_open\library/pk.c ****     ctx->pk_info->ctx_free_func( ctx->pk_ctx );
  73              		.loc 1 67 0 is_stmt 1
  74 000c 9B6A     		ldr	r3, [r3, #40]
  75 000e 4068     		ldr	r0, [r0, #4]
  76              	.LVL2:
  77 0010 9847     		blx	r3
  78              	.LVL3:
  68:Source\mbedtls_open\library/pk.c **** 
  69:Source\mbedtls_open\library/pk.c ****     mbedtls_platform_zeroize( ctx, sizeof( mbedtls_pk_context ) );
  79              		.loc 1 69 0
  80 0012 0821     		movs	r1, #8
  81 0014 2000     		movs	r0, r4
  82 0016 FFF7FEFF 		bl	mbedtls_platform_zeroize
  83              	.LVL4:
  84              	.L3:
  70:Source\mbedtls_open\library/pk.c **** }
  85              		.loc 1 70 0
  86              		@ sp needed
  87              	.LVL5:
  88 001a 10BD     		pop	{r4, pc}
  89              		.cfi_endproc
  90              	.LFE4:
  91              		.size	mbedtls_pk_free, .-mbedtls_pk_free
  92              		.section	.text.mbedtls_pk_info_from_type,"ax",%progbits
  93              		.align	2
  94              		.global	mbedtls_pk_info_from_type
  95              		.code	16
  96              		.thumb_func
  97              		.type	mbedtls_pk_info_from_type, %function
  98              	mbedtls_pk_info_from_type:
  99              	.LFB5:
  71:Source\mbedtls_open\library/pk.c **** 
  72:Source\mbedtls_open\library/pk.c **** #if defined(MBEDTLS_ECDSA_C) && defined(MBEDTLS_ECP_RESTARTABLE)
ARM GAS  C:\Users\Phuong\AppData\Local\Temp\cch6TBQE.s 			page 4


  73:Source\mbedtls_open\library/pk.c **** /*
  74:Source\mbedtls_open\library/pk.c ****  * Initialize a restart context
  75:Source\mbedtls_open\library/pk.c ****  */
  76:Source\mbedtls_open\library/pk.c **** void mbedtls_pk_restart_init( mbedtls_pk_restart_ctx *ctx )
  77:Source\mbedtls_open\library/pk.c **** {
  78:Source\mbedtls_open\library/pk.c ****     ctx->pk_info = NULL;
  79:Source\mbedtls_open\library/pk.c ****     ctx->rs_ctx = NULL;
  80:Source\mbedtls_open\library/pk.c **** }
  81:Source\mbedtls_open\library/pk.c **** 
  82:Source\mbedtls_open\library/pk.c **** /*
  83:Source\mbedtls_open\library/pk.c ****  * Free the components of a restart context
  84:Source\mbedtls_open\library/pk.c ****  */
  85:Source\mbedtls_open\library/pk.c **** void mbedtls_pk_restart_free( mbedtls_pk_restart_ctx *ctx )
  86:Source\mbedtls_open\library/pk.c **** {
  87:Source\mbedtls_open\library/pk.c ****     if( ctx == NULL || ctx->pk_info == NULL ||
  88:Source\mbedtls_open\library/pk.c ****         ctx->pk_info->rs_free_func == NULL )
  89:Source\mbedtls_open\library/pk.c ****     {
  90:Source\mbedtls_open\library/pk.c ****         return;
  91:Source\mbedtls_open\library/pk.c ****     }
  92:Source\mbedtls_open\library/pk.c **** 
  93:Source\mbedtls_open\library/pk.c ****     ctx->pk_info->rs_free_func( ctx->rs_ctx );
  94:Source\mbedtls_open\library/pk.c **** 
  95:Source\mbedtls_open\library/pk.c ****     ctx->pk_info = NULL;
  96:Source\mbedtls_open\library/pk.c ****     ctx->rs_ctx = NULL;
  97:Source\mbedtls_open\library/pk.c **** }
  98:Source\mbedtls_open\library/pk.c **** #endif /* MBEDTLS_ECDSA_C && MBEDTLS_ECP_RESTARTABLE */
  99:Source\mbedtls_open\library/pk.c **** 
 100:Source\mbedtls_open\library/pk.c **** /*
 101:Source\mbedtls_open\library/pk.c ****  * Get pk_info structure from type
 102:Source\mbedtls_open\library/pk.c ****  */
 103:Source\mbedtls_open\library/pk.c **** const mbedtls_pk_info_t * mbedtls_pk_info_from_type( mbedtls_pk_type_t pk_type )
 104:Source\mbedtls_open\library/pk.c **** {
 100              		.loc 1 104 0
 101              		.cfi_startproc
 102              		@ args = 0, pretend = 0, frame = 0
 103              		@ frame_needed = 0, uses_anonymous_args = 0
 104              		@ link register save eliminated.
 105              	.LVL6:
 105:Source\mbedtls_open\library/pk.c ****     switch( pk_type ) {
 106              		.loc 1 105 0
 107 0000 0228     		cmp	r0, #2
 108 0002 10D0     		beq	.L12
 109 0004 02D8     		bhi	.L8
 110 0006 0128     		cmp	r0, #1
 111 0008 05D0     		beq	.L9
 112 000a 0AE0     		b	.L6
 113              	.L8:
 114 000c 0328     		cmp	r0, #3
 115 000e 04D0     		beq	.L10
 116 0010 0428     		cmp	r0, #4
 117 0012 04D0     		beq	.L11
 118 0014 05E0     		b	.L6
 119              	.L9:
 106:Source\mbedtls_open\library/pk.c **** #if defined(MBEDTLS_RSA_C)
 107:Source\mbedtls_open\library/pk.c ****         case MBEDTLS_PK_RSA:
 108:Source\mbedtls_open\library/pk.c ****             return( &mbedtls_rsa_info );
 120              		.loc 1 108 0
ARM GAS  C:\Users\Phuong\AppData\Local\Temp\cch6TBQE.s 			page 5


 121 0016 0548     		ldr	r0, .L13
 122              	.LVL7:
 123 0018 06E0     		b	.L7
 124              	.LVL8:
 125              	.L10:
 109:Source\mbedtls_open\library/pk.c **** #endif
 110:Source\mbedtls_open\library/pk.c **** #if defined(MBEDTLS_ECP_C)
 111:Source\mbedtls_open\library/pk.c ****         case MBEDTLS_PK_ECKEY:
 112:Source\mbedtls_open\library/pk.c ****             return( &mbedtls_eckey_info );
 113:Source\mbedtls_open\library/pk.c ****         case MBEDTLS_PK_ECKEY_DH:
 114:Source\mbedtls_open\library/pk.c ****             return( &mbedtls_eckeydh_info );
 126              		.loc 1 114 0
 127 001a 0548     		ldr	r0, .L13+4
 128              	.LVL9:
 129 001c 04E0     		b	.L7
 130              	.LVL10:
 131              	.L11:
 115:Source\mbedtls_open\library/pk.c **** #endif
 116:Source\mbedtls_open\library/pk.c **** #if defined(MBEDTLS_ECDSA_C)
 117:Source\mbedtls_open\library/pk.c ****         case MBEDTLS_PK_ECDSA:
 118:Source\mbedtls_open\library/pk.c ****             return( &mbedtls_ecdsa_info );
 132              		.loc 1 118 0
 133 001e 0548     		ldr	r0, .L13+8
 134              	.LVL11:
 135 0020 02E0     		b	.L7
 136              	.LVL12:
 137              	.L6:
 119:Source\mbedtls_open\library/pk.c **** #endif
 120:Source\mbedtls_open\library/pk.c ****         /* MBEDTLS_PK_RSA_ALT omitted on purpose */
 121:Source\mbedtls_open\library/pk.c ****         default:
 122:Source\mbedtls_open\library/pk.c ****             return( NULL );
 138              		.loc 1 122 0
 139 0022 0020     		movs	r0, #0
 140              	.LVL13:
 141 0024 00E0     		b	.L7
 142              	.LVL14:
 143              	.L12:
 112:Source\mbedtls_open\library/pk.c ****         case MBEDTLS_PK_ECKEY_DH:
 144              		.loc 1 112 0
 145 0026 0448     		ldr	r0, .L13+12
 146              	.LVL15:
 147              	.L7:
 123:Source\mbedtls_open\library/pk.c ****     }
 124:Source\mbedtls_open\library/pk.c **** }
 148              		.loc 1 124 0
 149              		@ sp needed
 150 0028 7047     		bx	lr
 151              	.L14:
 152 002a C046     		.align	2
 153              	.L13:
 154 002c 00000000 		.word	mbedtls_rsa_info
 155 0030 00000000 		.word	mbedtls_eckeydh_info
 156 0034 00000000 		.word	mbedtls_ecdsa_info
 157 0038 00000000 		.word	mbedtls_eckey_info
 158              		.cfi_endproc
 159              	.LFE5:
 160              		.size	mbedtls_pk_info_from_type, .-mbedtls_pk_info_from_type
ARM GAS  C:\Users\Phuong\AppData\Local\Temp\cch6TBQE.s 			page 6


 161              		.section	.text.mbedtls_pk_setup,"ax",%progbits
 162              		.align	2
 163              		.global	mbedtls_pk_setup
 164              		.code	16
 165              		.thumb_func
 166              		.type	mbedtls_pk_setup, %function
 167              	mbedtls_pk_setup:
 168              	.LFB6:
 125:Source\mbedtls_open\library/pk.c **** 
 126:Source\mbedtls_open\library/pk.c **** /*
 127:Source\mbedtls_open\library/pk.c ****  * Initialise context
 128:Source\mbedtls_open\library/pk.c ****  */
 129:Source\mbedtls_open\library/pk.c **** int mbedtls_pk_setup( mbedtls_pk_context *ctx, const mbedtls_pk_info_t *info )
 130:Source\mbedtls_open\library/pk.c **** {
 169              		.loc 1 130 0
 170              		.cfi_startproc
 171              		@ args = 0, pretend = 0, frame = 0
 172              		@ frame_needed = 0, uses_anonymous_args = 0
 173              	.LVL16:
 174 0000 70B5     		push	{r4, r5, r6, lr}
 175              		.cfi_def_cfa_offset 16
 176              		.cfi_offset 4, -16
 177              		.cfi_offset 5, -12
 178              		.cfi_offset 6, -8
 179              		.cfi_offset 14, -4
 180 0002 0400     		movs	r4, r0
 181 0004 0D00     		movs	r5, r1
 131:Source\mbedtls_open\library/pk.c ****     if( ctx == NULL || info == NULL || ctx->pk_info != NULL )
 182              		.loc 1 131 0
 183 0006 0028     		cmp	r0, #0
 184 0008 0CD0     		beq	.L17
 185              		.loc 1 131 0 is_stmt 0 discriminator 1
 186 000a 0029     		cmp	r1, #0
 187 000c 0CD0     		beq	.L18
 188              		.loc 1 131 0 discriminator 2
 189 000e 0368     		ldr	r3, [r0]
 190 0010 002B     		cmp	r3, #0
 191 0012 0BD1     		bne	.L19
 132:Source\mbedtls_open\library/pk.c ****         return( MBEDTLS_ERR_PK_BAD_INPUT_DATA );
 133:Source\mbedtls_open\library/pk.c **** 
 134:Source\mbedtls_open\library/pk.c ****     if( ( ctx->pk_ctx = info->ctx_alloc_func() ) == NULL )
 192              		.loc 1 134 0 is_stmt 1
 193 0014 4B6A     		ldr	r3, [r1, #36]
 194 0016 9847     		blx	r3
 195              	.LVL17:
 196 0018 6060     		str	r0, [r4, #4]
 197 001a 0028     		cmp	r0, #0
 198 001c 08D0     		beq	.L20
 135:Source\mbedtls_open\library/pk.c ****         return( MBEDTLS_ERR_PK_ALLOC_FAILED );
 136:Source\mbedtls_open\library/pk.c **** 
 137:Source\mbedtls_open\library/pk.c ****     ctx->pk_info = info;
 199              		.loc 1 137 0
 200 001e 2560     		str	r5, [r4]
 138:Source\mbedtls_open\library/pk.c **** 
 139:Source\mbedtls_open\library/pk.c ****     return( 0 );
 201              		.loc 1 139 0
 202 0020 0020     		movs	r0, #0
ARM GAS  C:\Users\Phuong\AppData\Local\Temp\cch6TBQE.s 			page 7


 203 0022 06E0     		b	.L16
 204              	.LVL18:
 205              	.L17:
 132:Source\mbedtls_open\library/pk.c **** 
 206              		.loc 1 132 0
 207 0024 0348     		ldr	r0, .L21
 208              	.LVL19:
 209 0026 04E0     		b	.L16
 210              	.LVL20:
 211              	.L18:
 212 0028 0248     		ldr	r0, .L21
 213              	.LVL21:
 214 002a 02E0     		b	.L16
 215              	.LVL22:
 216              	.L19:
 217 002c 0148     		ldr	r0, .L21
 218              	.LVL23:
 219 002e 00E0     		b	.L16
 220              	.LVL24:
 221              	.L20:
 135:Source\mbedtls_open\library/pk.c ****         return( MBEDTLS_ERR_PK_ALLOC_FAILED );
 222              		.loc 1 135 0
 223 0030 0148     		ldr	r0, .L21+4
 224              	.L16:
 140:Source\mbedtls_open\library/pk.c **** }
 225              		.loc 1 140 0
 226              		@ sp needed
 227              	.LVL25:
 228              	.LVL26:
 229 0032 70BD     		pop	{r4, r5, r6, pc}
 230              	.L22:
 231              		.align	2
 232              	.L21:
 233 0034 80C1FFFF 		.word	-16000
 234 0038 80C0FFFF 		.word	-16256
 235              		.cfi_endproc
 236              	.LFE6:
 237              		.size	mbedtls_pk_setup, .-mbedtls_pk_setup
 238              		.section	.text.mbedtls_pk_setup_rsa_alt,"ax",%progbits
 239              		.align	2
 240              		.global	mbedtls_pk_setup_rsa_alt
 241              		.code	16
 242              		.thumb_func
 243              		.type	mbedtls_pk_setup_rsa_alt, %function
 244              	mbedtls_pk_setup_rsa_alt:
 245              	.LFB7:
 141:Source\mbedtls_open\library/pk.c **** 
 142:Source\mbedtls_open\library/pk.c **** #if defined(MBEDTLS_PK_RSA_ALT_SUPPORT)
 143:Source\mbedtls_open\library/pk.c **** /*
 144:Source\mbedtls_open\library/pk.c ****  * Initialize an RSA-alt context
 145:Source\mbedtls_open\library/pk.c ****  */
 146:Source\mbedtls_open\library/pk.c **** int mbedtls_pk_setup_rsa_alt( mbedtls_pk_context *ctx, void * key,
 147:Source\mbedtls_open\library/pk.c ****                          mbedtls_pk_rsa_alt_decrypt_func decrypt_func,
 148:Source\mbedtls_open\library/pk.c ****                          mbedtls_pk_rsa_alt_sign_func sign_func,
 149:Source\mbedtls_open\library/pk.c ****                          mbedtls_pk_rsa_alt_key_len_func key_len_func )
 150:Source\mbedtls_open\library/pk.c **** {
 246              		.loc 1 150 0
ARM GAS  C:\Users\Phuong\AppData\Local\Temp\cch6TBQE.s 			page 8


 247              		.cfi_startproc
 248              		@ args = 4, pretend = 0, frame = 0
 249              		@ frame_needed = 0, uses_anonymous_args = 0
 250              	.LVL27:
 251 0000 F8B5     		push	{r3, r4, r5, r6, r7, lr}
 252              		.cfi_def_cfa_offset 24
 253              		.cfi_offset 3, -24
 254              		.cfi_offset 4, -20
 255              		.cfi_offset 5, -16
 256              		.cfi_offset 6, -12
 257              		.cfi_offset 7, -8
 258              		.cfi_offset 14, -4
 259 0002 0700     		movs	r7, r0
 260 0004 0E00     		movs	r6, r1
 261 0006 1500     		movs	r5, r2
 262 0008 1C00     		movs	r4, r3
 263              	.LVL28:
 151:Source\mbedtls_open\library/pk.c ****     mbedtls_rsa_alt_context *rsa_alt;
 152:Source\mbedtls_open\library/pk.c ****     const mbedtls_pk_info_t *info = &mbedtls_rsa_alt_info;
 153:Source\mbedtls_open\library/pk.c **** 
 154:Source\mbedtls_open\library/pk.c ****     if( ctx == NULL || ctx->pk_info != NULL )
 264              		.loc 1 154 0
 265 000a 0028     		cmp	r0, #0
 266 000c 11D0     		beq	.L25
 267              		.loc 1 154 0 is_stmt 0 discriminator 1
 268 000e 0368     		ldr	r3, [r0]
 269              	.LVL29:
 270 0010 002B     		cmp	r3, #0
 271 0012 10D1     		bne	.L26
 155:Source\mbedtls_open\library/pk.c ****         return( MBEDTLS_ERR_PK_BAD_INPUT_DATA );
 156:Source\mbedtls_open\library/pk.c **** 
 157:Source\mbedtls_open\library/pk.c ****     if( ( ctx->pk_ctx = info->ctx_alloc_func() ) == NULL )
 272              		.loc 1 157 0 is_stmt 1
 273 0014 0A4B     		ldr	r3, .L28
 274 0016 5B6A     		ldr	r3, [r3, #36]
 275 0018 9847     		blx	r3
 276              	.LVL30:
 277 001a 7860     		str	r0, [r7, #4]
 278 001c 0028     		cmp	r0, #0
 279 001e 0CD0     		beq	.L27
 158:Source\mbedtls_open\library/pk.c ****         return( MBEDTLS_ERR_PK_ALLOC_FAILED );
 159:Source\mbedtls_open\library/pk.c **** 
 160:Source\mbedtls_open\library/pk.c ****     ctx->pk_info = info;
 280              		.loc 1 160 0
 281 0020 074B     		ldr	r3, .L28
 282 0022 3B60     		str	r3, [r7]
 283              	.LVL31:
 161:Source\mbedtls_open\library/pk.c **** 
 162:Source\mbedtls_open\library/pk.c ****     rsa_alt = (mbedtls_rsa_alt_context *) ctx->pk_ctx;
 163:Source\mbedtls_open\library/pk.c **** 
 164:Source\mbedtls_open\library/pk.c ****     rsa_alt->key = key;
 284              		.loc 1 164 0
 285 0024 0660     		str	r6, [r0]
 165:Source\mbedtls_open\library/pk.c ****     rsa_alt->decrypt_func = decrypt_func;
 286              		.loc 1 165 0
 287 0026 4560     		str	r5, [r0, #4]
 166:Source\mbedtls_open\library/pk.c ****     rsa_alt->sign_func = sign_func;
ARM GAS  C:\Users\Phuong\AppData\Local\Temp\cch6TBQE.s 			page 9


 288              		.loc 1 166 0
 289 0028 8460     		str	r4, [r0, #8]
 167:Source\mbedtls_open\library/pk.c ****     rsa_alt->key_len_func = key_len_func;
 290              		.loc 1 167 0
 291 002a 069B     		ldr	r3, [sp, #24]
 292 002c C360     		str	r3, [r0, #12]
 168:Source\mbedtls_open\library/pk.c **** 
 169:Source\mbedtls_open\library/pk.c ****     return( 0 );
 293              		.loc 1 169 0
 294 002e 0020     		movs	r0, #0
 295              	.LVL32:
 296 0030 04E0     		b	.L24
 297              	.LVL33:
 298              	.L25:
 155:Source\mbedtls_open\library/pk.c **** 
 299              		.loc 1 155 0
 300 0032 0448     		ldr	r0, .L28+4
 301              	.LVL34:
 302 0034 02E0     		b	.L24
 303              	.LVL35:
 304              	.L26:
 305 0036 0348     		ldr	r0, .L28+4
 306              	.LVL36:
 307 0038 00E0     		b	.L24
 308              	.LVL37:
 309              	.L27:
 158:Source\mbedtls_open\library/pk.c **** 
 310              		.loc 1 158 0
 311 003a 0348     		ldr	r0, .L28+8
 312              	.L24:
 170:Source\mbedtls_open\library/pk.c **** }
 313              		.loc 1 170 0
 314              		@ sp needed
 315              	.LVL38:
 316              	.LVL39:
 317              	.LVL40:
 318              	.LVL41:
 319 003c F8BD     		pop	{r3, r4, r5, r6, r7, pc}
 320              	.L29:
 321 003e C046     		.align	2
 322              	.L28:
 323 0040 00000000 		.word	mbedtls_rsa_alt_info
 324 0044 80C1FFFF 		.word	-16000
 325 0048 80C0FFFF 		.word	-16256
 326              		.cfi_endproc
 327              	.LFE7:
 328              		.size	mbedtls_pk_setup_rsa_alt, .-mbedtls_pk_setup_rsa_alt
 329              		.section	.text.mbedtls_pk_can_do,"ax",%progbits
 330              		.align	2
 331              		.global	mbedtls_pk_can_do
 332              		.code	16
 333              		.thumb_func
 334              		.type	mbedtls_pk_can_do, %function
 335              	mbedtls_pk_can_do:
 336              	.LFB8:
 171:Source\mbedtls_open\library/pk.c **** #endif /* MBEDTLS_PK_RSA_ALT_SUPPORT */
 172:Source\mbedtls_open\library/pk.c **** 
ARM GAS  C:\Users\Phuong\AppData\Local\Temp\cch6TBQE.s 			page 10


 173:Source\mbedtls_open\library/pk.c **** /*
 174:Source\mbedtls_open\library/pk.c ****  * Tell if a PK can do the operations of the given type
 175:Source\mbedtls_open\library/pk.c ****  */
 176:Source\mbedtls_open\library/pk.c **** int mbedtls_pk_can_do( const mbedtls_pk_context *ctx, mbedtls_pk_type_t type )
 177:Source\mbedtls_open\library/pk.c **** {
 337              		.loc 1 177 0
 338              		.cfi_startproc
 339              		@ args = 0, pretend = 0, frame = 0
 340              		@ frame_needed = 0, uses_anonymous_args = 0
 341              	.LVL42:
 342 0000 10B5     		push	{r4, lr}
 343              		.cfi_def_cfa_offset 8
 344              		.cfi_offset 4, -8
 345              		.cfi_offset 14, -4
 178:Source\mbedtls_open\library/pk.c ****     /* null or NONE context can't do anything */
 179:Source\mbedtls_open\library/pk.c ****     if( ctx == NULL || ctx->pk_info == NULL )
 346              		.loc 1 179 0
 347 0002 0028     		cmp	r0, #0
 348 0004 06D0     		beq	.L32
 349              		.loc 1 179 0 is_stmt 0 discriminator 1
 350 0006 0368     		ldr	r3, [r0]
 351 0008 002B     		cmp	r3, #0
 352 000a 05D0     		beq	.L33
 180:Source\mbedtls_open\library/pk.c ****         return( 0 );
 181:Source\mbedtls_open\library/pk.c **** 
 182:Source\mbedtls_open\library/pk.c ****     return( ctx->pk_info->can_do( type ) );
 353              		.loc 1 182 0 is_stmt 1
 354 000c DB68     		ldr	r3, [r3, #12]
 355 000e 0800     		movs	r0, r1
 356              	.LVL43:
 357 0010 9847     		blx	r3
 358              	.LVL44:
 359 0012 02E0     		b	.L31
 360              	.LVL45:
 361              	.L32:
 180:Source\mbedtls_open\library/pk.c ****         return( 0 );
 362              		.loc 1 180 0
 363 0014 0020     		movs	r0, #0
 364              	.LVL46:
 365 0016 00E0     		b	.L31
 366              	.LVL47:
 367              	.L33:
 368 0018 0020     		movs	r0, #0
 369              	.LVL48:
 370              	.L31:
 183:Source\mbedtls_open\library/pk.c **** }
 371              		.loc 1 183 0
 372              		@ sp needed
 373 001a 10BD     		pop	{r4, pc}
 374              		.cfi_endproc
 375              	.LFE8:
 376              		.size	mbedtls_pk_can_do, .-mbedtls_pk_can_do
 377              		.section	.text.mbedtls_pk_verify_restartable,"ax",%progbits
 378              		.align	2
 379              		.global	mbedtls_pk_verify_restartable
 380              		.code	16
 381              		.thumb_func
ARM GAS  C:\Users\Phuong\AppData\Local\Temp\cch6TBQE.s 			page 11


 382              		.type	mbedtls_pk_verify_restartable, %function
 383              	mbedtls_pk_verify_restartable:
 384              	.LFB10:
 184:Source\mbedtls_open\library/pk.c **** 
 185:Source\mbedtls_open\library/pk.c **** /*
 186:Source\mbedtls_open\library/pk.c ****  * Helper for mbedtls_pk_sign and mbedtls_pk_verify
 187:Source\mbedtls_open\library/pk.c ****  */
 188:Source\mbedtls_open\library/pk.c **** static inline int pk_hashlen_helper( mbedtls_md_type_t md_alg, size_t *hash_len )
 189:Source\mbedtls_open\library/pk.c **** {
 190:Source\mbedtls_open\library/pk.c ****     const mbedtls_md_info_t *md_info;
 191:Source\mbedtls_open\library/pk.c **** 
 192:Source\mbedtls_open\library/pk.c ****     if( *hash_len != 0 )
 193:Source\mbedtls_open\library/pk.c ****         return( 0 );
 194:Source\mbedtls_open\library/pk.c **** 
 195:Source\mbedtls_open\library/pk.c ****     if( ( md_info = mbedtls_md_info_from_type( md_alg ) ) == NULL )
 196:Source\mbedtls_open\library/pk.c ****         return( -1 );
 197:Source\mbedtls_open\library/pk.c **** 
 198:Source\mbedtls_open\library/pk.c ****     *hash_len = mbedtls_md_get_size( md_info );
 199:Source\mbedtls_open\library/pk.c ****     return( 0 );
 200:Source\mbedtls_open\library/pk.c **** }
 201:Source\mbedtls_open\library/pk.c **** 
 202:Source\mbedtls_open\library/pk.c **** #if defined(MBEDTLS_ECDSA_C) && defined(MBEDTLS_ECP_RESTARTABLE)
 203:Source\mbedtls_open\library/pk.c **** /*
 204:Source\mbedtls_open\library/pk.c ****  * Helper to set up a restart context if needed
 205:Source\mbedtls_open\library/pk.c ****  */
 206:Source\mbedtls_open\library/pk.c **** static int pk_restart_setup( mbedtls_pk_restart_ctx *ctx,
 207:Source\mbedtls_open\library/pk.c ****                              const mbedtls_pk_info_t *info )
 208:Source\mbedtls_open\library/pk.c **** {
 209:Source\mbedtls_open\library/pk.c ****     /* Don't do anything if already set up or invalid */
 210:Source\mbedtls_open\library/pk.c ****     if( ctx == NULL || ctx->pk_info != NULL )
 211:Source\mbedtls_open\library/pk.c ****         return( 0 );
 212:Source\mbedtls_open\library/pk.c **** 
 213:Source\mbedtls_open\library/pk.c ****     /* Should never happen when we're called */
 214:Source\mbedtls_open\library/pk.c ****     if( info->rs_alloc_func == NULL || info->rs_free_func == NULL )
 215:Source\mbedtls_open\library/pk.c ****         return( MBEDTLS_ERR_PK_BAD_INPUT_DATA );
 216:Source\mbedtls_open\library/pk.c **** 
 217:Source\mbedtls_open\library/pk.c ****     if( ( ctx->rs_ctx = info->rs_alloc_func() ) == NULL )
 218:Source\mbedtls_open\library/pk.c ****         return( MBEDTLS_ERR_PK_ALLOC_FAILED );
 219:Source\mbedtls_open\library/pk.c **** 
 220:Source\mbedtls_open\library/pk.c ****     ctx->pk_info = info;
 221:Source\mbedtls_open\library/pk.c **** 
 222:Source\mbedtls_open\library/pk.c ****     return( 0 );
 223:Source\mbedtls_open\library/pk.c **** }
 224:Source\mbedtls_open\library/pk.c **** #endif /* MBEDTLS_ECDSA_C && MBEDTLS_ECP_RESTARTABLE */
 225:Source\mbedtls_open\library/pk.c **** 
 226:Source\mbedtls_open\library/pk.c **** /*
 227:Source\mbedtls_open\library/pk.c ****  * Verify a signature (restartable)
 228:Source\mbedtls_open\library/pk.c ****  */
 229:Source\mbedtls_open\library/pk.c **** int mbedtls_pk_verify_restartable( mbedtls_pk_context *ctx,
 230:Source\mbedtls_open\library/pk.c ****                mbedtls_md_type_t md_alg,
 231:Source\mbedtls_open\library/pk.c ****                const unsigned char *hash, size_t hash_len,
 232:Source\mbedtls_open\library/pk.c ****                const unsigned char *sig, size_t sig_len,
 233:Source\mbedtls_open\library/pk.c ****                mbedtls_pk_restart_ctx *rs_ctx )
 234:Source\mbedtls_open\library/pk.c **** {
 385              		.loc 1 234 0
 386              		.cfi_startproc
 387              		@ args = 12, pretend = 0, frame = 8
ARM GAS  C:\Users\Phuong\AppData\Local\Temp\cch6TBQE.s 			page 12


 388              		@ frame_needed = 0, uses_anonymous_args = 0
 389              	.LVL49:
 390 0000 F0B5     		push	{r4, r5, r6, r7, lr}
 391              		.cfi_def_cfa_offset 20
 392              		.cfi_offset 4, -20
 393              		.cfi_offset 5, -16
 394              		.cfi_offset 6, -12
 395              		.cfi_offset 7, -8
 396              		.cfi_offset 14, -4
 397 0002 85B0     		sub	sp, sp, #20
 398              		.cfi_def_cfa_offset 40
 399 0004 0400     		movs	r4, r0
 400 0006 0E00     		movs	r6, r1
 401 0008 0392     		str	r2, [sp, #12]
 402 000a 1D00     		movs	r5, r3
 235:Source\mbedtls_open\library/pk.c ****     if( ctx == NULL || ctx->pk_info == NULL ||
 403              		.loc 1 235 0
 404 000c 0028     		cmp	r0, #0
 405 000e 22D0     		beq	.L37
 406              		.loc 1 235 0 is_stmt 0 discriminator 1
 407 0010 0368     		ldr	r3, [r0]
 408              	.LVL50:
 409 0012 002B     		cmp	r3, #0
 410 0014 21D0     		beq	.L38
 411              	.LVL51:
 412              	.LBB11:
 413              	.LBB12:
 192:Source\mbedtls_open\library/pk.c ****         return( 0 );
 414              		.loc 1 192 0 is_stmt 1
 415 0016 002D     		cmp	r5, #0
 416 0018 09D1     		bne	.L39
 195:Source\mbedtls_open\library/pk.c ****         return( -1 );
 417              		.loc 1 195 0
 418 001a 0800     		movs	r0, r1
 419              	.LVL52:
 420 001c FFF7FEFF 		bl	mbedtls_md_info_from_type
 421              	.LVL53:
 422 0020 0028     		cmp	r0, #0
 423 0022 06D0     		beq	.L40
 198:Source\mbedtls_open\library/pk.c ****     return( 0 );
 424              		.loc 1 198 0
 425 0024 FFF7FEFF 		bl	mbedtls_md_get_size
 426              	.LVL54:
 427 0028 0500     		movs	r5, r0
 428              	.LVL55:
 199:Source\mbedtls_open\library/pk.c **** }
 429              		.loc 1 199 0
 430 002a 0023     		movs	r3, #0
 431 002c 03E0     		b	.L36
 432              	.LVL56:
 433              	.L39:
 193:Source\mbedtls_open\library/pk.c **** 
 434              		.loc 1 193 0
 435 002e 0023     		movs	r3, #0
 436 0030 01E0     		b	.L36
 437              	.LVL57:
 438              	.L40:
ARM GAS  C:\Users\Phuong\AppData\Local\Temp\cch6TBQE.s 			page 13


 196:Source\mbedtls_open\library/pk.c **** 
 439              		.loc 1 196 0
 440 0032 0123     		movs	r3, #1
 441 0034 5B42     		rsbs	r3, r3, #0
 442              	.LVL58:
 443              	.L36:
 444              	.LBE12:
 445              	.LBE11:
 446              		.loc 1 235 0
 447 0036 002B     		cmp	r3, #0
 448 0038 11D1     		bne	.L41
 236:Source\mbedtls_open\library/pk.c ****         pk_hashlen_helper( md_alg, &hash_len ) != 0 )
 237:Source\mbedtls_open\library/pk.c ****         return( MBEDTLS_ERR_PK_BAD_INPUT_DATA );
 238:Source\mbedtls_open\library/pk.c **** 
 239:Source\mbedtls_open\library/pk.c **** #if defined(MBEDTLS_ECDSA_C) && defined(MBEDTLS_ECP_RESTARTABLE)
 240:Source\mbedtls_open\library/pk.c ****     /* optimization: use non-restartable version if restart disabled */
 241:Source\mbedtls_open\library/pk.c ****     if( rs_ctx != NULL &&
 242:Source\mbedtls_open\library/pk.c ****         mbedtls_ecp_restart_is_enabled() &&
 243:Source\mbedtls_open\library/pk.c ****         ctx->pk_info->verify_rs_func != NULL )
 244:Source\mbedtls_open\library/pk.c ****     {
 245:Source\mbedtls_open\library/pk.c ****         int ret;
 246:Source\mbedtls_open\library/pk.c **** 
 247:Source\mbedtls_open\library/pk.c ****         if( ( ret = pk_restart_setup( rs_ctx, ctx->pk_info ) ) != 0 )
 248:Source\mbedtls_open\library/pk.c ****             return( ret );
 249:Source\mbedtls_open\library/pk.c **** 
 250:Source\mbedtls_open\library/pk.c ****         ret = ctx->pk_info->verify_rs_func( ctx->pk_ctx,
 251:Source\mbedtls_open\library/pk.c ****                    md_alg, hash, hash_len, sig, sig_len, rs_ctx->rs_ctx );
 252:Source\mbedtls_open\library/pk.c **** 
 253:Source\mbedtls_open\library/pk.c ****         if( ret != MBEDTLS_ERR_ECP_IN_PROGRESS )
 254:Source\mbedtls_open\library/pk.c ****             mbedtls_pk_restart_free( rs_ctx );
 255:Source\mbedtls_open\library/pk.c **** 
 256:Source\mbedtls_open\library/pk.c ****         return( ret );
 257:Source\mbedtls_open\library/pk.c ****     }
 258:Source\mbedtls_open\library/pk.c **** #else /* MBEDTLS_ECDSA_C && MBEDTLS_ECP_RESTARTABLE */
 259:Source\mbedtls_open\library/pk.c ****     (void) rs_ctx;
 260:Source\mbedtls_open\library/pk.c **** #endif /* MBEDTLS_ECDSA_C && MBEDTLS_ECP_RESTARTABLE */
 261:Source\mbedtls_open\library/pk.c **** 
 262:Source\mbedtls_open\library/pk.c ****     if( ctx->pk_info->verify_func == NULL )
 449              		.loc 1 262 0
 450 003a 2368     		ldr	r3, [r4]
 451 003c 1F69     		ldr	r7, [r3, #16]
 452 003e 002F     		cmp	r7, #0
 453 0040 0FD0     		beq	.L42
 263:Source\mbedtls_open\library/pk.c ****         return( MBEDTLS_ERR_PK_TYPE_MISMATCH );
 264:Source\mbedtls_open\library/pk.c **** 
 265:Source\mbedtls_open\library/pk.c ****     return( ctx->pk_info->verify_func( ctx->pk_ctx, md_alg, hash, hash_len,
 454              		.loc 1 265 0
 455 0042 6068     		ldr	r0, [r4, #4]
 456 0044 0B9B     		ldr	r3, [sp, #44]
 457 0046 0193     		str	r3, [sp, #4]
 458 0048 0A9B     		ldr	r3, [sp, #40]
 459 004a 0093     		str	r3, [sp]
 460 004c 2B00     		movs	r3, r5
 461 004e 039A     		ldr	r2, [sp, #12]
 462 0050 3100     		movs	r1, r6
 463 0052 B847     		blx	r7
 464              	.LVL59:
ARM GAS  C:\Users\Phuong\AppData\Local\Temp\cch6TBQE.s 			page 14


 465 0054 06E0     		b	.L35
 466              	.LVL60:
 467              	.L37:
 237:Source\mbedtls_open\library/pk.c **** 
 468              		.loc 1 237 0
 469 0056 0448     		ldr	r0, .L43
 470              	.LVL61:
 471 0058 04E0     		b	.L35
 472              	.LVL62:
 473              	.L38:
 474 005a 0348     		ldr	r0, .L43
 475              	.LVL63:
 476 005c 02E0     		b	.L35
 477              	.LVL64:
 478              	.L41:
 479 005e 0248     		ldr	r0, .L43
 480 0060 00E0     		b	.L35
 481              	.L42:
 263:Source\mbedtls_open\library/pk.c ****         return( MBEDTLS_ERR_PK_TYPE_MISMATCH );
 482              		.loc 1 263 0
 483 0062 0248     		ldr	r0, .L43+4
 484              	.L35:
 266:Source\mbedtls_open\library/pk.c ****                                        sig, sig_len ) );
 267:Source\mbedtls_open\library/pk.c **** }
 485              		.loc 1 267 0
 486 0064 05B0     		add	sp, sp, #20
 487              		@ sp needed
 488              	.LVL65:
 489              	.LVL66:
 490 0066 F0BD     		pop	{r4, r5, r6, r7, pc}
 491              	.L44:
 492              		.align	2
 493              	.L43:
 494 0068 80C1FFFF 		.word	-16000
 495 006c 00C1FFFF 		.word	-16128
 496              		.cfi_endproc
 497              	.LFE10:
 498              		.size	mbedtls_pk_verify_restartable, .-mbedtls_pk_verify_restartable
 499              		.section	.text.mbedtls_pk_verify,"ax",%progbits
 500              		.align	2
 501              		.global	mbedtls_pk_verify
 502              		.code	16
 503              		.thumb_func
 504              		.type	mbedtls_pk_verify, %function
 505              	mbedtls_pk_verify:
 506              	.LFB11:
 268:Source\mbedtls_open\library/pk.c **** 
 269:Source\mbedtls_open\library/pk.c **** /*
 270:Source\mbedtls_open\library/pk.c ****  * Verify a signature
 271:Source\mbedtls_open\library/pk.c ****  */
 272:Source\mbedtls_open\library/pk.c **** int mbedtls_pk_verify( mbedtls_pk_context *ctx, mbedtls_md_type_t md_alg,
 273:Source\mbedtls_open\library/pk.c ****                const unsigned char *hash, size_t hash_len,
 274:Source\mbedtls_open\library/pk.c ****                const unsigned char *sig, size_t sig_len )
 275:Source\mbedtls_open\library/pk.c **** {
 507              		.loc 1 275 0
 508              		.cfi_startproc
 509              		@ args = 8, pretend = 0, frame = 0
ARM GAS  C:\Users\Phuong\AppData\Local\Temp\cch6TBQE.s 			page 15


 510              		@ frame_needed = 0, uses_anonymous_args = 0
 511              	.LVL67:
 512 0000 10B5     		push	{r4, lr}
 513              		.cfi_def_cfa_offset 8
 514              		.cfi_offset 4, -8
 515              		.cfi_offset 14, -4
 516 0002 84B0     		sub	sp, sp, #16
 517              		.cfi_def_cfa_offset 24
 276:Source\mbedtls_open\library/pk.c ****     return( mbedtls_pk_verify_restartable( ctx, md_alg, hash, hash_len,
 518              		.loc 1 276 0
 519 0004 0024     		movs	r4, #0
 520 0006 0294     		str	r4, [sp, #8]
 521 0008 079C     		ldr	r4, [sp, #28]
 522 000a 0194     		str	r4, [sp, #4]
 523 000c 069C     		ldr	r4, [sp, #24]
 524 000e 0094     		str	r4, [sp]
 525 0010 FFF7FEFF 		bl	mbedtls_pk_verify_restartable
 526              	.LVL68:
 277:Source\mbedtls_open\library/pk.c ****                                            sig, sig_len, NULL ) );
 278:Source\mbedtls_open\library/pk.c **** }
 527              		.loc 1 278 0
 528 0014 04B0     		add	sp, sp, #16
 529              		@ sp needed
 530 0016 10BD     		pop	{r4, pc}
 531              		.cfi_endproc
 532              	.LFE11:
 533              		.size	mbedtls_pk_verify, .-mbedtls_pk_verify
 534              		.section	.text.mbedtls_pk_sign_restartable,"ax",%progbits
 535              		.align	2
 536              		.global	mbedtls_pk_sign_restartable
 537              		.code	16
 538              		.thumb_func
 539              		.type	mbedtls_pk_sign_restartable, %function
 540              	mbedtls_pk_sign_restartable:
 541              	.LFB13:
 279:Source\mbedtls_open\library/pk.c **** 
 280:Source\mbedtls_open\library/pk.c **** /*
 281:Source\mbedtls_open\library/pk.c ****  * Verify a signature with options
 282:Source\mbedtls_open\library/pk.c ****  */
 283:Source\mbedtls_open\library/pk.c **** int mbedtls_pk_verify_ext( mbedtls_pk_type_t type, const void *options,
 284:Source\mbedtls_open\library/pk.c ****                    mbedtls_pk_context *ctx, mbedtls_md_type_t md_alg,
 285:Source\mbedtls_open\library/pk.c ****                    const unsigned char *hash, size_t hash_len,
 286:Source\mbedtls_open\library/pk.c ****                    const unsigned char *sig, size_t sig_len )
 287:Source\mbedtls_open\library/pk.c **** {
 288:Source\mbedtls_open\library/pk.c ****     if( ctx == NULL || ctx->pk_info == NULL )
 289:Source\mbedtls_open\library/pk.c ****         return( MBEDTLS_ERR_PK_BAD_INPUT_DATA );
 290:Source\mbedtls_open\library/pk.c **** 
 291:Source\mbedtls_open\library/pk.c ****     if( ! mbedtls_pk_can_do( ctx, type ) )
 292:Source\mbedtls_open\library/pk.c ****         return( MBEDTLS_ERR_PK_TYPE_MISMATCH );
 293:Source\mbedtls_open\library/pk.c **** 
 294:Source\mbedtls_open\library/pk.c ****     if( type == MBEDTLS_PK_RSASSA_PSS )
 295:Source\mbedtls_open\library/pk.c ****     {
 296:Source\mbedtls_open\library/pk.c **** #if defined(MBEDTLS_RSA_C) && defined(MBEDTLS_PKCS1_V21)
 297:Source\mbedtls_open\library/pk.c ****         int ret;
 298:Source\mbedtls_open\library/pk.c ****         const mbedtls_pk_rsassa_pss_options *pss_opts;
 299:Source\mbedtls_open\library/pk.c **** 
 300:Source\mbedtls_open\library/pk.c **** #if SIZE_MAX > UINT_MAX
ARM GAS  C:\Users\Phuong\AppData\Local\Temp\cch6TBQE.s 			page 16


 301:Source\mbedtls_open\library/pk.c ****         if( md_alg == MBEDTLS_MD_NONE && UINT_MAX < hash_len )
 302:Source\mbedtls_open\library/pk.c ****             return( MBEDTLS_ERR_PK_BAD_INPUT_DATA );
 303:Source\mbedtls_open\library/pk.c **** #endif /* SIZE_MAX > UINT_MAX */
 304:Source\mbedtls_open\library/pk.c **** 
 305:Source\mbedtls_open\library/pk.c ****         if( options == NULL )
 306:Source\mbedtls_open\library/pk.c ****             return( MBEDTLS_ERR_PK_BAD_INPUT_DATA );
 307:Source\mbedtls_open\library/pk.c **** 
 308:Source\mbedtls_open\library/pk.c ****         pss_opts = (const mbedtls_pk_rsassa_pss_options *) options;
 309:Source\mbedtls_open\library/pk.c **** 
 310:Source\mbedtls_open\library/pk.c ****         if( sig_len < mbedtls_pk_get_len( ctx ) )
 311:Source\mbedtls_open\library/pk.c ****             return( MBEDTLS_ERR_RSA_VERIFY_FAILED );
 312:Source\mbedtls_open\library/pk.c **** 
 313:Source\mbedtls_open\library/pk.c ****         ret = mbedtls_rsa_rsassa_pss_verify_ext( mbedtls_pk_rsa( *ctx ),
 314:Source\mbedtls_open\library/pk.c ****                 NULL, NULL, MBEDTLS_RSA_PUBLIC,
 315:Source\mbedtls_open\library/pk.c ****                 md_alg, (unsigned int) hash_len, hash,
 316:Source\mbedtls_open\library/pk.c ****                 pss_opts->mgf1_hash_id,
 317:Source\mbedtls_open\library/pk.c ****                 pss_opts->expected_salt_len,
 318:Source\mbedtls_open\library/pk.c ****                 sig );
 319:Source\mbedtls_open\library/pk.c ****         if( ret != 0 )
 320:Source\mbedtls_open\library/pk.c ****             return( ret );
 321:Source\mbedtls_open\library/pk.c **** 
 322:Source\mbedtls_open\library/pk.c ****         if( sig_len > mbedtls_pk_get_len( ctx ) )
 323:Source\mbedtls_open\library/pk.c ****             return( MBEDTLS_ERR_PK_SIG_LEN_MISMATCH );
 324:Source\mbedtls_open\library/pk.c **** 
 325:Source\mbedtls_open\library/pk.c ****         return( 0 );
 326:Source\mbedtls_open\library/pk.c **** #else
 327:Source\mbedtls_open\library/pk.c ****         return( MBEDTLS_ERR_PK_FEATURE_UNAVAILABLE );
 328:Source\mbedtls_open\library/pk.c **** #endif /* MBEDTLS_RSA_C && MBEDTLS_PKCS1_V21 */
 329:Source\mbedtls_open\library/pk.c ****     }
 330:Source\mbedtls_open\library/pk.c **** 
 331:Source\mbedtls_open\library/pk.c ****     /* General case: no options */
 332:Source\mbedtls_open\library/pk.c ****     if( options != NULL )
 333:Source\mbedtls_open\library/pk.c ****         return( MBEDTLS_ERR_PK_BAD_INPUT_DATA );
 334:Source\mbedtls_open\library/pk.c **** 
 335:Source\mbedtls_open\library/pk.c ****     return( mbedtls_pk_verify( ctx, md_alg, hash, hash_len, sig, sig_len ) );
 336:Source\mbedtls_open\library/pk.c **** }
 337:Source\mbedtls_open\library/pk.c **** 
 338:Source\mbedtls_open\library/pk.c **** /*
 339:Source\mbedtls_open\library/pk.c ****  * Make a signature (restartable)
 340:Source\mbedtls_open\library/pk.c ****  */
 341:Source\mbedtls_open\library/pk.c **** int mbedtls_pk_sign_restartable( mbedtls_pk_context *ctx,
 342:Source\mbedtls_open\library/pk.c ****              mbedtls_md_type_t md_alg,
 343:Source\mbedtls_open\library/pk.c ****              const unsigned char *hash, size_t hash_len,
 344:Source\mbedtls_open\library/pk.c ****              unsigned char *sig, size_t *sig_len,
 345:Source\mbedtls_open\library/pk.c ****              int (*f_rng)(void *, unsigned char *, size_t), void *p_rng,
 346:Source\mbedtls_open\library/pk.c ****              mbedtls_pk_restart_ctx *rs_ctx )
 347:Source\mbedtls_open\library/pk.c **** {
 542              		.loc 1 347 0
 543              		.cfi_startproc
 544              		@ args = 20, pretend = 0, frame = 8
 545              		@ frame_needed = 0, uses_anonymous_args = 0
 546              	.LVL69:
 547 0000 F0B5     		push	{r4, r5, r6, r7, lr}
 548              		.cfi_def_cfa_offset 20
 549              		.cfi_offset 4, -20
 550              		.cfi_offset 5, -16
 551              		.cfi_offset 6, -12
ARM GAS  C:\Users\Phuong\AppData\Local\Temp\cch6TBQE.s 			page 17


 552              		.cfi_offset 7, -8
 553              		.cfi_offset 14, -4
 554 0002 87B0     		sub	sp, sp, #28
 555              		.cfi_def_cfa_offset 48
 556 0004 0400     		movs	r4, r0
 557 0006 0E00     		movs	r6, r1
 558 0008 0592     		str	r2, [sp, #20]
 559 000a 1D00     		movs	r5, r3
 348:Source\mbedtls_open\library/pk.c ****     if( ctx == NULL || ctx->pk_info == NULL ||
 560              		.loc 1 348 0
 561 000c 0028     		cmp	r0, #0
 562 000e 26D0     		beq	.L49
 563              		.loc 1 348 0 is_stmt 0 discriminator 1
 564 0010 0368     		ldr	r3, [r0]
 565              	.LVL70:
 566 0012 002B     		cmp	r3, #0
 567 0014 25D0     		beq	.L50
 568              	.LVL71:
 569              	.LBB15:
 570              	.LBB16:
 192:Source\mbedtls_open\library/pk.c ****         return( 0 );
 571              		.loc 1 192 0 is_stmt 1
 572 0016 002D     		cmp	r5, #0
 573 0018 09D1     		bne	.L51
 195:Source\mbedtls_open\library/pk.c ****         return( -1 );
 574              		.loc 1 195 0
 575 001a 0800     		movs	r0, r1
 576              	.LVL72:
 577 001c FFF7FEFF 		bl	mbedtls_md_info_from_type
 578              	.LVL73:
 579 0020 0028     		cmp	r0, #0
 580 0022 06D0     		beq	.L52
 198:Source\mbedtls_open\library/pk.c ****     return( 0 );
 581              		.loc 1 198 0
 582 0024 FFF7FEFF 		bl	mbedtls_md_get_size
 583              	.LVL74:
 584 0028 0500     		movs	r5, r0
 585              	.LVL75:
 199:Source\mbedtls_open\library/pk.c **** }
 586              		.loc 1 199 0
 587 002a 0023     		movs	r3, #0
 588 002c 03E0     		b	.L48
 589              	.LVL76:
 590              	.L51:
 193:Source\mbedtls_open\library/pk.c **** 
 591              		.loc 1 193 0
 592 002e 0023     		movs	r3, #0
 593 0030 01E0     		b	.L48
 594              	.LVL77:
 595              	.L52:
 196:Source\mbedtls_open\library/pk.c **** 
 596              		.loc 1 196 0
 597 0032 0123     		movs	r3, #1
 598 0034 5B42     		rsbs	r3, r3, #0
 599              	.LVL78:
 600              	.L48:
 601              	.LBE16:
ARM GAS  C:\Users\Phuong\AppData\Local\Temp\cch6TBQE.s 			page 18


 602              	.LBE15:
 603              		.loc 1 348 0
 604 0036 002B     		cmp	r3, #0
 605 0038 15D1     		bne	.L53
 349:Source\mbedtls_open\library/pk.c ****         pk_hashlen_helper( md_alg, &hash_len ) != 0 )
 350:Source\mbedtls_open\library/pk.c ****         return( MBEDTLS_ERR_PK_BAD_INPUT_DATA );
 351:Source\mbedtls_open\library/pk.c **** 
 352:Source\mbedtls_open\library/pk.c **** #if defined(MBEDTLS_ECDSA_C) && defined(MBEDTLS_ECP_RESTARTABLE)
 353:Source\mbedtls_open\library/pk.c ****     /* optimization: use non-restartable version if restart disabled */
 354:Source\mbedtls_open\library/pk.c ****     if( rs_ctx != NULL &&
 355:Source\mbedtls_open\library/pk.c ****         mbedtls_ecp_restart_is_enabled() &&
 356:Source\mbedtls_open\library/pk.c ****         ctx->pk_info->sign_rs_func != NULL )
 357:Source\mbedtls_open\library/pk.c ****     {
 358:Source\mbedtls_open\library/pk.c ****         int ret;
 359:Source\mbedtls_open\library/pk.c **** 
 360:Source\mbedtls_open\library/pk.c ****         if( ( ret = pk_restart_setup( rs_ctx, ctx->pk_info ) ) != 0 )
 361:Source\mbedtls_open\library/pk.c ****             return( ret );
 362:Source\mbedtls_open\library/pk.c **** 
 363:Source\mbedtls_open\library/pk.c ****         ret = ctx->pk_info->sign_rs_func( ctx->pk_ctx, md_alg,
 364:Source\mbedtls_open\library/pk.c ****                 hash, hash_len, sig, sig_len, f_rng, p_rng, rs_ctx->rs_ctx );
 365:Source\mbedtls_open\library/pk.c **** 
 366:Source\mbedtls_open\library/pk.c ****         if( ret != MBEDTLS_ERR_ECP_IN_PROGRESS )
 367:Source\mbedtls_open\library/pk.c ****             mbedtls_pk_restart_free( rs_ctx );
 368:Source\mbedtls_open\library/pk.c **** 
 369:Source\mbedtls_open\library/pk.c ****         return( ret );
 370:Source\mbedtls_open\library/pk.c ****     }
 371:Source\mbedtls_open\library/pk.c **** #else /* MBEDTLS_ECDSA_C && MBEDTLS_ECP_RESTARTABLE */
 372:Source\mbedtls_open\library/pk.c ****     (void) rs_ctx;
 373:Source\mbedtls_open\library/pk.c **** #endif /* MBEDTLS_ECDSA_C && MBEDTLS_ECP_RESTARTABLE */
 374:Source\mbedtls_open\library/pk.c **** 
 375:Source\mbedtls_open\library/pk.c ****     if( ctx->pk_info->sign_func == NULL )
 606              		.loc 1 375 0
 607 003a 2368     		ldr	r3, [r4]
 608 003c 5F69     		ldr	r7, [r3, #20]
 609 003e 002F     		cmp	r7, #0
 610 0040 13D0     		beq	.L54
 376:Source\mbedtls_open\library/pk.c ****         return( MBEDTLS_ERR_PK_TYPE_MISMATCH );
 377:Source\mbedtls_open\library/pk.c **** 
 378:Source\mbedtls_open\library/pk.c ****     return( ctx->pk_info->sign_func( ctx->pk_ctx, md_alg, hash, hash_len,
 611              		.loc 1 378 0
 612 0042 6068     		ldr	r0, [r4, #4]
 613 0044 0F9B     		ldr	r3, [sp, #60]
 614 0046 0393     		str	r3, [sp, #12]
 615 0048 0E9B     		ldr	r3, [sp, #56]
 616 004a 0293     		str	r3, [sp, #8]
 617 004c 0D9B     		ldr	r3, [sp, #52]
 618 004e 0193     		str	r3, [sp, #4]
 619 0050 0C9B     		ldr	r3, [sp, #48]
 620 0052 0093     		str	r3, [sp]
 621 0054 2B00     		movs	r3, r5
 622 0056 059A     		ldr	r2, [sp, #20]
 623 0058 3100     		movs	r1, r6
 624 005a B847     		blx	r7
 625              	.LVL79:
 626 005c 06E0     		b	.L47
 627              	.LVL80:
 628              	.L49:
ARM GAS  C:\Users\Phuong\AppData\Local\Temp\cch6TBQE.s 			page 19


 350:Source\mbedtls_open\library/pk.c **** 
 629              		.loc 1 350 0
 630 005e 0448     		ldr	r0, .L55
 631              	.LVL81:
 632 0060 04E0     		b	.L47
 633              	.LVL82:
 634              	.L50:
 635 0062 0348     		ldr	r0, .L55
 636              	.LVL83:
 637 0064 02E0     		b	.L47
 638              	.LVL84:
 639              	.L53:
 640 0066 0248     		ldr	r0, .L55
 641 0068 00E0     		b	.L47
 642              	.L54:
 376:Source\mbedtls_open\library/pk.c ****         return( MBEDTLS_ERR_PK_TYPE_MISMATCH );
 643              		.loc 1 376 0
 644 006a 0248     		ldr	r0, .L55+4
 645              	.L47:
 379:Source\mbedtls_open\library/pk.c ****                                      sig, sig_len, f_rng, p_rng ) );
 380:Source\mbedtls_open\library/pk.c **** }
 646              		.loc 1 380 0
 647 006c 07B0     		add	sp, sp, #28
 648              		@ sp needed
 649              	.LVL85:
 650              	.LVL86:
 651 006e F0BD     		pop	{r4, r5, r6, r7, pc}
 652              	.L56:
 653              		.align	2
 654              	.L55:
 655 0070 80C1FFFF 		.word	-16000
 656 0074 00C1FFFF 		.word	-16128
 657              		.cfi_endproc
 658              	.LFE13:
 659              		.size	mbedtls_pk_sign_restartable, .-mbedtls_pk_sign_restartable
 660              		.section	.text.mbedtls_pk_sign,"ax",%progbits
 661              		.align	2
 662              		.global	mbedtls_pk_sign
 663              		.code	16
 664              		.thumb_func
 665              		.type	mbedtls_pk_sign, %function
 666              	mbedtls_pk_sign:
 667              	.LFB14:
 381:Source\mbedtls_open\library/pk.c **** 
 382:Source\mbedtls_open\library/pk.c **** /*
 383:Source\mbedtls_open\library/pk.c ****  * Make a signature
 384:Source\mbedtls_open\library/pk.c ****  */
 385:Source\mbedtls_open\library/pk.c **** int mbedtls_pk_sign( mbedtls_pk_context *ctx, mbedtls_md_type_t md_alg,
 386:Source\mbedtls_open\library/pk.c ****              const unsigned char *hash, size_t hash_len,
 387:Source\mbedtls_open\library/pk.c ****              unsigned char *sig, size_t *sig_len,
 388:Source\mbedtls_open\library/pk.c ****              int (*f_rng)(void *, unsigned char *, size_t), void *p_rng )
 389:Source\mbedtls_open\library/pk.c **** {
 668              		.loc 1 389 0
 669              		.cfi_startproc
 670              		@ args = 16, pretend = 0, frame = 0
 671              		@ frame_needed = 0, uses_anonymous_args = 0
 672              	.LVL87:
ARM GAS  C:\Users\Phuong\AppData\Local\Temp\cch6TBQE.s 			page 20


 673 0000 10B5     		push	{r4, lr}
 674              		.cfi_def_cfa_offset 8
 675              		.cfi_offset 4, -8
 676              		.cfi_offset 14, -4
 677 0002 86B0     		sub	sp, sp, #24
 678              		.cfi_def_cfa_offset 32
 390:Source\mbedtls_open\library/pk.c ****     return( mbedtls_pk_sign_restartable( ctx, md_alg, hash, hash_len,
 679              		.loc 1 390 0
 680 0004 0024     		movs	r4, #0
 681 0006 0494     		str	r4, [sp, #16]
 682 0008 0B9C     		ldr	r4, [sp, #44]
 683 000a 0394     		str	r4, [sp, #12]
 684 000c 0A9C     		ldr	r4, [sp, #40]
 685 000e 0294     		str	r4, [sp, #8]
 686 0010 099C     		ldr	r4, [sp, #36]
 687 0012 0194     		str	r4, [sp, #4]
 688 0014 089C     		ldr	r4, [sp, #32]
 689 0016 0094     		str	r4, [sp]
 690 0018 FFF7FEFF 		bl	mbedtls_pk_sign_restartable
 691              	.LVL88:
 391:Source\mbedtls_open\library/pk.c ****                                          sig, sig_len, f_rng, p_rng, NULL ) );
 392:Source\mbedtls_open\library/pk.c **** }
 692              		.loc 1 392 0
 693 001c 06B0     		add	sp, sp, #24
 694              		@ sp needed
 695 001e 10BD     		pop	{r4, pc}
 696              		.cfi_endproc
 697              	.LFE14:
 698              		.size	mbedtls_pk_sign, .-mbedtls_pk_sign
 699              		.section	.text.mbedtls_pk_decrypt,"ax",%progbits
 700              		.align	2
 701              		.global	mbedtls_pk_decrypt
 702              		.code	16
 703              		.thumb_func
 704              		.type	mbedtls_pk_decrypt, %function
 705              	mbedtls_pk_decrypt:
 706              	.LFB15:
 393:Source\mbedtls_open\library/pk.c **** 
 394:Source\mbedtls_open\library/pk.c **** /*
 395:Source\mbedtls_open\library/pk.c ****  * Decrypt message
 396:Source\mbedtls_open\library/pk.c ****  */
 397:Source\mbedtls_open\library/pk.c **** int mbedtls_pk_decrypt( mbedtls_pk_context *ctx,
 398:Source\mbedtls_open\library/pk.c ****                 const unsigned char *input, size_t ilen,
 399:Source\mbedtls_open\library/pk.c ****                 unsigned char *output, size_t *olen, size_t osize,
 400:Source\mbedtls_open\library/pk.c ****                 int (*f_rng)(void *, unsigned char *, size_t), void *p_rng )
 401:Source\mbedtls_open\library/pk.c **** {
 707              		.loc 1 401 0
 708              		.cfi_startproc
 709              		@ args = 16, pretend = 0, frame = 0
 710              		@ frame_needed = 0, uses_anonymous_args = 0
 711              	.LVL89:
 712 0000 30B5     		push	{r4, r5, lr}
 713              		.cfi_def_cfa_offset 12
 714              		.cfi_offset 4, -12
 715              		.cfi_offset 5, -8
 716              		.cfi_offset 14, -4
 717 0002 85B0     		sub	sp, sp, #20
ARM GAS  C:\Users\Phuong\AppData\Local\Temp\cch6TBQE.s 			page 21


 718              		.cfi_def_cfa_offset 32
 402:Source\mbedtls_open\library/pk.c ****     if( ctx == NULL || ctx->pk_info == NULL )
 719              		.loc 1 402 0
 720 0004 0028     		cmp	r0, #0
 721 0006 10D0     		beq	.L60
 722              		.loc 1 402 0 is_stmt 0 discriminator 1
 723 0008 0468     		ldr	r4, [r0]
 724 000a 002C     		cmp	r4, #0
 725 000c 0FD0     		beq	.L61
 403:Source\mbedtls_open\library/pk.c ****         return( MBEDTLS_ERR_PK_BAD_INPUT_DATA );
 404:Source\mbedtls_open\library/pk.c **** 
 405:Source\mbedtls_open\library/pk.c ****     if( ctx->pk_info->decrypt_func == NULL )
 726              		.loc 1 405 0 is_stmt 1
 727 000e A469     		ldr	r4, [r4, #24]
 728 0010 002C     		cmp	r4, #0
 729 0012 0ED0     		beq	.L62
 406:Source\mbedtls_open\library/pk.c ****         return( MBEDTLS_ERR_PK_TYPE_MISMATCH );
 407:Source\mbedtls_open\library/pk.c **** 
 408:Source\mbedtls_open\library/pk.c ****     return( ctx->pk_info->decrypt_func( ctx->pk_ctx, input, ilen,
 730              		.loc 1 408 0
 731 0014 4068     		ldr	r0, [r0, #4]
 732              	.LVL90:
 733 0016 0B9D     		ldr	r5, [sp, #44]
 734 0018 0395     		str	r5, [sp, #12]
 735 001a 0A9D     		ldr	r5, [sp, #40]
 736 001c 0295     		str	r5, [sp, #8]
 737 001e 099D     		ldr	r5, [sp, #36]
 738 0020 0195     		str	r5, [sp, #4]
 739 0022 089D     		ldr	r5, [sp, #32]
 740 0024 0095     		str	r5, [sp]
 741 0026 A047     		blx	r4
 742              	.LVL91:
 743 0028 04E0     		b	.L59
 744              	.LVL92:
 745              	.L60:
 403:Source\mbedtls_open\library/pk.c ****         return( MBEDTLS_ERR_PK_BAD_INPUT_DATA );
 746              		.loc 1 403 0
 747 002a 0348     		ldr	r0, .L63
 748              	.LVL93:
 749 002c 02E0     		b	.L59
 750              	.LVL94:
 751              	.L61:
 752 002e 0248     		ldr	r0, .L63
 753              	.LVL95:
 754 0030 00E0     		b	.L59
 755              	.LVL96:
 756              	.L62:
 406:Source\mbedtls_open\library/pk.c ****         return( MBEDTLS_ERR_PK_TYPE_MISMATCH );
 757              		.loc 1 406 0
 758 0032 0248     		ldr	r0, .L63+4
 759              	.LVL97:
 760              	.L59:
 409:Source\mbedtls_open\library/pk.c ****                 output, olen, osize, f_rng, p_rng ) );
 410:Source\mbedtls_open\library/pk.c **** }
 761              		.loc 1 410 0
 762 0034 05B0     		add	sp, sp, #20
 763              		@ sp needed
ARM GAS  C:\Users\Phuong\AppData\Local\Temp\cch6TBQE.s 			page 22


 764 0036 30BD     		pop	{r4, r5, pc}
 765              	.L64:
 766              		.align	2
 767              	.L63:
 768 0038 80C1FFFF 		.word	-16000
 769 003c 00C1FFFF 		.word	-16128
 770              		.cfi_endproc
 771              	.LFE15:
 772              		.size	mbedtls_pk_decrypt, .-mbedtls_pk_decrypt
 773              		.section	.text.mbedtls_pk_encrypt,"ax",%progbits
 774              		.align	2
 775              		.global	mbedtls_pk_encrypt
 776              		.code	16
 777              		.thumb_func
 778              		.type	mbedtls_pk_encrypt, %function
 779              	mbedtls_pk_encrypt:
 780              	.LFB16:
 411:Source\mbedtls_open\library/pk.c **** 
 412:Source\mbedtls_open\library/pk.c **** /*
 413:Source\mbedtls_open\library/pk.c ****  * Encrypt message
 414:Source\mbedtls_open\library/pk.c ****  */
 415:Source\mbedtls_open\library/pk.c **** int mbedtls_pk_encrypt( mbedtls_pk_context *ctx,
 416:Source\mbedtls_open\library/pk.c ****                 const unsigned char *input, size_t ilen,
 417:Source\mbedtls_open\library/pk.c ****                 unsigned char *output, size_t *olen, size_t osize,
 418:Source\mbedtls_open\library/pk.c ****                 int (*f_rng)(void *, unsigned char *, size_t), void *p_rng )
 419:Source\mbedtls_open\library/pk.c **** {
 781              		.loc 1 419 0
 782              		.cfi_startproc
 783              		@ args = 16, pretend = 0, frame = 0
 784              		@ frame_needed = 0, uses_anonymous_args = 0
 785              	.LVL98:
 786 0000 30B5     		push	{r4, r5, lr}
 787              		.cfi_def_cfa_offset 12
 788              		.cfi_offset 4, -12
 789              		.cfi_offset 5, -8
 790              		.cfi_offset 14, -4
 791 0002 85B0     		sub	sp, sp, #20
 792              		.cfi_def_cfa_offset 32
 420:Source\mbedtls_open\library/pk.c ****     if( ctx == NULL || ctx->pk_info == NULL )
 793              		.loc 1 420 0
 794 0004 0028     		cmp	r0, #0
 795 0006 10D0     		beq	.L67
 796              		.loc 1 420 0 is_stmt 0 discriminator 1
 797 0008 0468     		ldr	r4, [r0]
 798 000a 002C     		cmp	r4, #0
 799 000c 0FD0     		beq	.L68
 421:Source\mbedtls_open\library/pk.c ****         return( MBEDTLS_ERR_PK_BAD_INPUT_DATA );
 422:Source\mbedtls_open\library/pk.c **** 
 423:Source\mbedtls_open\library/pk.c ****     if( ctx->pk_info->encrypt_func == NULL )
 800              		.loc 1 423 0 is_stmt 1
 801 000e E469     		ldr	r4, [r4, #28]
 802 0010 002C     		cmp	r4, #0
 803 0012 0ED0     		beq	.L69
 424:Source\mbedtls_open\library/pk.c ****         return( MBEDTLS_ERR_PK_TYPE_MISMATCH );
 425:Source\mbedtls_open\library/pk.c **** 
 426:Source\mbedtls_open\library/pk.c ****     return( ctx->pk_info->encrypt_func( ctx->pk_ctx, input, ilen,
 804              		.loc 1 426 0
ARM GAS  C:\Users\Phuong\AppData\Local\Temp\cch6TBQE.s 			page 23


 805 0014 4068     		ldr	r0, [r0, #4]
 806              	.LVL99:
 807 0016 0B9D     		ldr	r5, [sp, #44]
 808 0018 0395     		str	r5, [sp, #12]
 809 001a 0A9D     		ldr	r5, [sp, #40]
 810 001c 0295     		str	r5, [sp, #8]
 811 001e 099D     		ldr	r5, [sp, #36]
 812 0020 0195     		str	r5, [sp, #4]
 813 0022 089D     		ldr	r5, [sp, #32]
 814 0024 0095     		str	r5, [sp]
 815 0026 A047     		blx	r4
 816              	.LVL100:
 817 0028 04E0     		b	.L66
 818              	.LVL101:
 819              	.L67:
 421:Source\mbedtls_open\library/pk.c ****         return( MBEDTLS_ERR_PK_BAD_INPUT_DATA );
 820              		.loc 1 421 0
 821 002a 0348     		ldr	r0, .L70
 822              	.LVL102:
 823 002c 02E0     		b	.L66
 824              	.LVL103:
 825              	.L68:
 826 002e 0248     		ldr	r0, .L70
 827              	.LVL104:
 828 0030 00E0     		b	.L66
 829              	.LVL105:
 830              	.L69:
 424:Source\mbedtls_open\library/pk.c ****         return( MBEDTLS_ERR_PK_TYPE_MISMATCH );
 831              		.loc 1 424 0
 832 0032 0248     		ldr	r0, .L70+4
 833              	.LVL106:
 834              	.L66:
 427:Source\mbedtls_open\library/pk.c ****                 output, olen, osize, f_rng, p_rng ) );
 428:Source\mbedtls_open\library/pk.c **** }
 835              		.loc 1 428 0
 836 0034 05B0     		add	sp, sp, #20
 837              		@ sp needed
 838 0036 30BD     		pop	{r4, r5, pc}
 839              	.L71:
 840              		.align	2
 841              	.L70:
 842 0038 80C1FFFF 		.word	-16000
 843 003c 00C1FFFF 		.word	-16128
 844              		.cfi_endproc
 845              	.LFE16:
 846              		.size	mbedtls_pk_encrypt, .-mbedtls_pk_encrypt
 847              		.section	.text.mbedtls_pk_check_pair,"ax",%progbits
 848              		.align	2
 849              		.global	mbedtls_pk_check_pair
 850              		.code	16
 851              		.thumb_func
 852              		.type	mbedtls_pk_check_pair, %function
 853              	mbedtls_pk_check_pair:
 854              	.LFB17:
 429:Source\mbedtls_open\library/pk.c **** 
 430:Source\mbedtls_open\library/pk.c **** /*
 431:Source\mbedtls_open\library/pk.c ****  * Check public-private key pair
ARM GAS  C:\Users\Phuong\AppData\Local\Temp\cch6TBQE.s 			page 24


 432:Source\mbedtls_open\library/pk.c ****  */
 433:Source\mbedtls_open\library/pk.c **** int mbedtls_pk_check_pair( const mbedtls_pk_context *pub, const mbedtls_pk_context *prv )
 434:Source\mbedtls_open\library/pk.c **** {
 855              		.loc 1 434 0
 856              		.cfi_startproc
 857              		@ args = 0, pretend = 0, frame = 0
 858              		@ frame_needed = 0, uses_anonymous_args = 0
 859              	.LVL107:
 860 0000 70B5     		push	{r4, r5, r6, lr}
 861              		.cfi_def_cfa_offset 16
 862              		.cfi_offset 4, -16
 863              		.cfi_offset 5, -12
 864              		.cfi_offset 6, -8
 865              		.cfi_offset 14, -4
 435:Source\mbedtls_open\library/pk.c ****     if( pub == NULL || pub->pk_info == NULL ||
 866              		.loc 1 435 0
 867 0002 0028     		cmp	r0, #0
 868 0004 17D0     		beq	.L76
 869              		.loc 1 435 0 is_stmt 0 discriminator 1
 870 0006 0268     		ldr	r2, [r0]
 871 0008 002A     		cmp	r2, #0
 872 000a 16D0     		beq	.L77
 873              		.loc 1 435 0 discriminator 2
 874 000c 0029     		cmp	r1, #0
 875 000e 16D0     		beq	.L78
 436:Source\mbedtls_open\library/pk.c ****         prv == NULL || prv->pk_info == NULL ||
 876              		.loc 1 436 0 is_stmt 1
 877 0010 0B68     		ldr	r3, [r1]
 878 0012 002B     		cmp	r3, #0
 879 0014 15D0     		beq	.L79
 437:Source\mbedtls_open\library/pk.c ****         prv->pk_info->check_pair_func == NULL )
 880              		.loc 1 437 0 discriminator 1
 881 0016 1C6A     		ldr	r4, [r3, #32]
 436:Source\mbedtls_open\library/pk.c ****         prv == NULL || prv->pk_info == NULL ||
 882              		.loc 1 436 0 discriminator 1
 883 0018 002C     		cmp	r4, #0
 884 001a 14D0     		beq	.L80
 438:Source\mbedtls_open\library/pk.c ****     {
 439:Source\mbedtls_open\library/pk.c ****         return( MBEDTLS_ERR_PK_BAD_INPUT_DATA );
 440:Source\mbedtls_open\library/pk.c ****     }
 441:Source\mbedtls_open\library/pk.c **** 
 442:Source\mbedtls_open\library/pk.c ****     if( prv->pk_info->type == MBEDTLS_PK_RSA_ALT )
 885              		.loc 1 442 0
 886 001c 1D78     		ldrb	r5, [r3]
 887 001e 052D     		cmp	r5, #5
 888 0020 03D1     		bne	.L74
 443:Source\mbedtls_open\library/pk.c ****     {
 444:Source\mbedtls_open\library/pk.c ****         if( pub->pk_info->type != MBEDTLS_PK_RSA )
 889              		.loc 1 444 0
 890 0022 1378     		ldrb	r3, [r2]
 891 0024 012B     		cmp	r3, #1
 892 0026 02D0     		beq	.L75
 893 0028 0FE0     		b	.L81
 894              	.L74:
 445:Source\mbedtls_open\library/pk.c ****             return( MBEDTLS_ERR_PK_TYPE_MISMATCH );
 446:Source\mbedtls_open\library/pk.c ****     }
 447:Source\mbedtls_open\library/pk.c ****     else
ARM GAS  C:\Users\Phuong\AppData\Local\Temp\cch6TBQE.s 			page 25


 448:Source\mbedtls_open\library/pk.c ****     {
 449:Source\mbedtls_open\library/pk.c ****         if( pub->pk_info != prv->pk_info )
 895              		.loc 1 449 0
 896 002a 9A42     		cmp	r2, r3
 897 002c 0FD1     		bne	.L82
 898              	.L75:
 450:Source\mbedtls_open\library/pk.c ****             return( MBEDTLS_ERR_PK_TYPE_MISMATCH );
 451:Source\mbedtls_open\library/pk.c ****     }
 452:Source\mbedtls_open\library/pk.c **** 
 453:Source\mbedtls_open\library/pk.c ****     return( prv->pk_info->check_pair_func( pub->pk_ctx, prv->pk_ctx ) );
 899              		.loc 1 453 0
 900 002e 4068     		ldr	r0, [r0, #4]
 901              	.LVL108:
 902 0030 4968     		ldr	r1, [r1, #4]
 903              	.LVL109:
 904 0032 A047     		blx	r4
 905              	.LVL110:
 906 0034 0CE0     		b	.L73
 907              	.LVL111:
 908              	.L76:
 439:Source\mbedtls_open\library/pk.c ****     }
 909              		.loc 1 439 0
 910 0036 0748     		ldr	r0, .L83
 911              	.LVL112:
 912 0038 0AE0     		b	.L73
 913              	.LVL113:
 914              	.L77:
 915 003a 0648     		ldr	r0, .L83
 916              	.LVL114:
 917 003c 08E0     		b	.L73
 918              	.LVL115:
 919              	.L78:
 920 003e 0548     		ldr	r0, .L83
 921              	.LVL116:
 922 0040 06E0     		b	.L73
 923              	.LVL117:
 924              	.L79:
 925 0042 0448     		ldr	r0, .L83
 926              	.LVL118:
 927 0044 04E0     		b	.L73
 928              	.LVL119:
 929              	.L80:
 930 0046 0348     		ldr	r0, .L83
 931              	.LVL120:
 932 0048 02E0     		b	.L73
 933              	.LVL121:
 934              	.L81:
 445:Source\mbedtls_open\library/pk.c ****             return( MBEDTLS_ERR_PK_TYPE_MISMATCH );
 935              		.loc 1 445 0
 936 004a 0348     		ldr	r0, .L83+4
 937              	.LVL122:
 938 004c 00E0     		b	.L73
 939              	.LVL123:
 940              	.L82:
 450:Source\mbedtls_open\library/pk.c ****             return( MBEDTLS_ERR_PK_TYPE_MISMATCH );
 941              		.loc 1 450 0
 942 004e 0248     		ldr	r0, .L83+4
ARM GAS  C:\Users\Phuong\AppData\Local\Temp\cch6TBQE.s 			page 26


 943              	.LVL124:
 944              	.L73:
 454:Source\mbedtls_open\library/pk.c **** }
 945              		.loc 1 454 0
 946              		@ sp needed
 947 0050 70BD     		pop	{r4, r5, r6, pc}
 948              	.L84:
 949 0052 C046     		.align	2
 950              	.L83:
 951 0054 80C1FFFF 		.word	-16000
 952 0058 00C1FFFF 		.word	-16128
 953              		.cfi_endproc
 954              	.LFE17:
 955              		.size	mbedtls_pk_check_pair, .-mbedtls_pk_check_pair
 956              		.section	.text.mbedtls_pk_get_bitlen,"ax",%progbits
 957              		.align	2
 958              		.global	mbedtls_pk_get_bitlen
 959              		.code	16
 960              		.thumb_func
 961              		.type	mbedtls_pk_get_bitlen, %function
 962              	mbedtls_pk_get_bitlen:
 963              	.LFB18:
 455:Source\mbedtls_open\library/pk.c **** 
 456:Source\mbedtls_open\library/pk.c **** /*
 457:Source\mbedtls_open\library/pk.c ****  * Get key size in bits
 458:Source\mbedtls_open\library/pk.c ****  */
 459:Source\mbedtls_open\library/pk.c **** size_t mbedtls_pk_get_bitlen( const mbedtls_pk_context *ctx )
 460:Source\mbedtls_open\library/pk.c **** {
 964              		.loc 1 460 0
 965              		.cfi_startproc
 966              		@ args = 0, pretend = 0, frame = 0
 967              		@ frame_needed = 0, uses_anonymous_args = 0
 968              	.LVL125:
 969 0000 10B5     		push	{r4, lr}
 970              		.cfi_def_cfa_offset 8
 971              		.cfi_offset 4, -8
 972              		.cfi_offset 14, -4
 461:Source\mbedtls_open\library/pk.c ****     if( ctx == NULL || ctx->pk_info == NULL )
 973              		.loc 1 461 0
 974 0002 0028     		cmp	r0, #0
 975 0004 06D0     		beq	.L87
 976              		.loc 1 461 0 is_stmt 0 discriminator 1
 977 0006 0368     		ldr	r3, [r0]
 978 0008 002B     		cmp	r3, #0
 979 000a 05D0     		beq	.L88
 462:Source\mbedtls_open\library/pk.c ****         return( 0 );
 463:Source\mbedtls_open\library/pk.c **** 
 464:Source\mbedtls_open\library/pk.c ****     return( ctx->pk_info->get_bitlen( ctx->pk_ctx ) );
 980              		.loc 1 464 0 is_stmt 1
 981 000c 9B68     		ldr	r3, [r3, #8]
 982 000e 4068     		ldr	r0, [r0, #4]
 983              	.LVL126:
 984 0010 9847     		blx	r3
 985              	.LVL127:
 986 0012 02E0     		b	.L86
 987              	.LVL128:
 988              	.L87:
ARM GAS  C:\Users\Phuong\AppData\Local\Temp\cch6TBQE.s 			page 27


 462:Source\mbedtls_open\library/pk.c ****         return( 0 );
 989              		.loc 1 462 0
 990 0014 0020     		movs	r0, #0
 991              	.LVL129:
 992 0016 00E0     		b	.L86
 993              	.LVL130:
 994              	.L88:
 995 0018 0020     		movs	r0, #0
 996              	.LVL131:
 997              	.L86:
 465:Source\mbedtls_open\library/pk.c **** }
 998              		.loc 1 465 0
 999              		@ sp needed
 1000 001a 10BD     		pop	{r4, pc}
 1001              		.cfi_endproc
 1002              	.LFE18:
 1003              		.size	mbedtls_pk_get_bitlen, .-mbedtls_pk_get_bitlen
 1004              		.section	.text.mbedtls_pk_verify_ext,"ax",%progbits
 1005              		.align	2
 1006              		.global	mbedtls_pk_verify_ext
 1007              		.code	16
 1008              		.thumb_func
 1009              		.type	mbedtls_pk_verify_ext, %function
 1010              	mbedtls_pk_verify_ext:
 1011              	.LFB12:
 287:Source\mbedtls_open\library/pk.c ****     if( ctx == NULL || ctx->pk_info == NULL )
 1012              		.loc 1 287 0
 1013              		.cfi_startproc
 1014              		@ args = 16, pretend = 0, frame = 8
 1015              		@ frame_needed = 0, uses_anonymous_args = 0
 1016              	.LVL132:
 1017 0000 F0B5     		push	{r4, r5, r6, r7, lr}
 1018              		.cfi_def_cfa_offset 20
 1019              		.cfi_offset 4, -20
 1020              		.cfi_offset 5, -16
 1021              		.cfi_offset 6, -12
 1022              		.cfi_offset 7, -8
 1023              		.cfi_offset 14, -4
 1024 0002 89B0     		sub	sp, sp, #36
 1025              		.cfi_def_cfa_offset 56
 1026 0004 0500     		movs	r5, r0
 1027 0006 0E00     		movs	r6, r1
 1028 0008 1400     		movs	r4, r2
 1029 000a 1F00     		movs	r7, r3
 288:Source\mbedtls_open\library/pk.c ****         return( MBEDTLS_ERR_PK_BAD_INPUT_DATA );
 1030              		.loc 1 288 0
 1031 000c 002A     		cmp	r2, #0
 1032 000e 42D0     		beq	.L92
 288:Source\mbedtls_open\library/pk.c ****         return( MBEDTLS_ERR_PK_BAD_INPUT_DATA );
 1033              		.loc 1 288 0 is_stmt 0 discriminator 1
 1034 0010 1368     		ldr	r3, [r2]
 1035              	.LVL133:
 1036 0012 002B     		cmp	r3, #0
 1037 0014 41D0     		beq	.L93
 291:Source\mbedtls_open\library/pk.c ****         return( MBEDTLS_ERR_PK_TYPE_MISMATCH );
 1038              		.loc 1 291 0 is_stmt 1
 1039 0016 0100     		movs	r1, r0
ARM GAS  C:\Users\Phuong\AppData\Local\Temp\cch6TBQE.s 			page 28


 1040              	.LVL134:
 1041 0018 1000     		movs	r0, r2
 1042              	.LVL135:
 1043 001a FFF7FEFF 		bl	mbedtls_pk_can_do
 1044              	.LVL136:
 1045 001e 0028     		cmp	r0, #0
 1046 0020 3DD0     		beq	.L94
 294:Source\mbedtls_open\library/pk.c ****     {
 1047              		.loc 1 294 0
 1048 0022 062D     		cmp	r5, #6
 1049 0024 2AD1     		bne	.L91
 1050              	.LBB17:
 305:Source\mbedtls_open\library/pk.c ****             return( MBEDTLS_ERR_PK_BAD_INPUT_DATA );
 1051              		.loc 1 305 0
 1052 0026 002E     		cmp	r6, #0
 1053 0028 3BD0     		beq	.L95
 1054              	.LVL137:
 1055              	.LBB18:
 1056              	.LBB19:
 1057              		.file 2 ".\\Source\\mbedtls_open\\include/mbedtls/pk.h"
   1:.\Source\mbedtls_open\include/mbedtls/pk.h **** /**
   2:.\Source\mbedtls_open\include/mbedtls/pk.h ****  * \file pk.h
   3:.\Source\mbedtls_open\include/mbedtls/pk.h ****  *
   4:.\Source\mbedtls_open\include/mbedtls/pk.h ****  * \brief Public Key abstraction layer
   5:.\Source\mbedtls_open\include/mbedtls/pk.h ****  */
   6:.\Source\mbedtls_open\include/mbedtls/pk.h **** /*
   7:.\Source\mbedtls_open\include/mbedtls/pk.h ****  *  Copyright (C) 2006-2015, ARM Limited, All Rights Reserved
   8:.\Source\mbedtls_open\include/mbedtls/pk.h ****  *  SPDX-License-Identifier: Apache-2.0
   9:.\Source\mbedtls_open\include/mbedtls/pk.h ****  *
  10:.\Source\mbedtls_open\include/mbedtls/pk.h ****  *  Licensed under the Apache License, Version 2.0 (the "License"); you may
  11:.\Source\mbedtls_open\include/mbedtls/pk.h ****  *  not use this file except in compliance with the License.
  12:.\Source\mbedtls_open\include/mbedtls/pk.h ****  *  You may obtain a copy of the License at
  13:.\Source\mbedtls_open\include/mbedtls/pk.h ****  *
  14:.\Source\mbedtls_open\include/mbedtls/pk.h ****  *  http://www.apache.org/licenses/LICENSE-2.0
  15:.\Source\mbedtls_open\include/mbedtls/pk.h ****  *
  16:.\Source\mbedtls_open\include/mbedtls/pk.h ****  *  Unless required by applicable law or agreed to in writing, software
  17:.\Source\mbedtls_open\include/mbedtls/pk.h ****  *  distributed under the License is distributed on an "AS IS" BASIS, WITHOUT
  18:.\Source\mbedtls_open\include/mbedtls/pk.h ****  *  WARRANTIES OR CONDITIONS OF ANY KIND, either express or implied.
  19:.\Source\mbedtls_open\include/mbedtls/pk.h ****  *  See the License for the specific language governing permissions and
  20:.\Source\mbedtls_open\include/mbedtls/pk.h ****  *  limitations under the License.
  21:.\Source\mbedtls_open\include/mbedtls/pk.h ****  *
  22:.\Source\mbedtls_open\include/mbedtls/pk.h ****  *  This file is part of mbed TLS (https://tls.mbed.org)
  23:.\Source\mbedtls_open\include/mbedtls/pk.h ****  */
  24:.\Source\mbedtls_open\include/mbedtls/pk.h **** 
  25:.\Source\mbedtls_open\include/mbedtls/pk.h **** #ifndef MBEDTLS_PK_H
  26:.\Source\mbedtls_open\include/mbedtls/pk.h **** #define MBEDTLS_PK_H
  27:.\Source\mbedtls_open\include/mbedtls/pk.h **** 
  28:.\Source\mbedtls_open\include/mbedtls/pk.h **** #if !defined(MBEDTLS_CONFIG_FILE)
  29:.\Source\mbedtls_open\include/mbedtls/pk.h **** #include "config.h"
  30:.\Source\mbedtls_open\include/mbedtls/pk.h **** #else
  31:.\Source\mbedtls_open\include/mbedtls/pk.h **** #include MBEDTLS_CONFIG_FILE
  32:.\Source\mbedtls_open\include/mbedtls/pk.h **** #endif
  33:.\Source\mbedtls_open\include/mbedtls/pk.h **** 
  34:.\Source\mbedtls_open\include/mbedtls/pk.h **** #include "md.h"
  35:.\Source\mbedtls_open\include/mbedtls/pk.h **** 
  36:.\Source\mbedtls_open\include/mbedtls/pk.h **** #if defined(MBEDTLS_RSA_C)
  37:.\Source\mbedtls_open\include/mbedtls/pk.h **** #include "rsa.h"
ARM GAS  C:\Users\Phuong\AppData\Local\Temp\cch6TBQE.s 			page 29


  38:.\Source\mbedtls_open\include/mbedtls/pk.h **** #endif
  39:.\Source\mbedtls_open\include/mbedtls/pk.h **** 
  40:.\Source\mbedtls_open\include/mbedtls/pk.h **** #if defined(MBEDTLS_ECP_C)
  41:.\Source\mbedtls_open\include/mbedtls/pk.h **** #include "ecp.h"
  42:.\Source\mbedtls_open\include/mbedtls/pk.h **** #endif
  43:.\Source\mbedtls_open\include/mbedtls/pk.h **** 
  44:.\Source\mbedtls_open\include/mbedtls/pk.h **** #if defined(MBEDTLS_ECDSA_C)
  45:.\Source\mbedtls_open\include/mbedtls/pk.h **** #include "ecdsa.h"
  46:.\Source\mbedtls_open\include/mbedtls/pk.h **** #endif
  47:.\Source\mbedtls_open\include/mbedtls/pk.h **** 
  48:.\Source\mbedtls_open\include/mbedtls/pk.h **** #if ( defined(__ARMCC_VERSION) || defined(_MSC_VER) ) && \
  49:.\Source\mbedtls_open\include/mbedtls/pk.h ****     !defined(inline) && !defined(__cplusplus)
  50:.\Source\mbedtls_open\include/mbedtls/pk.h **** #define inline __inline
  51:.\Source\mbedtls_open\include/mbedtls/pk.h **** #endif
  52:.\Source\mbedtls_open\include/mbedtls/pk.h **** 
  53:.\Source\mbedtls_open\include/mbedtls/pk.h **** #define MBEDTLS_ERR_PK_ALLOC_FAILED        -0x3F80  /**< Memory allocation failed. */
  54:.\Source\mbedtls_open\include/mbedtls/pk.h **** #define MBEDTLS_ERR_PK_TYPE_MISMATCH       -0x3F00  /**< Type mismatch, eg attempt to encrypt with 
  55:.\Source\mbedtls_open\include/mbedtls/pk.h **** #define MBEDTLS_ERR_PK_BAD_INPUT_DATA      -0x3E80  /**< Bad input parameters to function. */
  56:.\Source\mbedtls_open\include/mbedtls/pk.h **** #define MBEDTLS_ERR_PK_FILE_IO_ERROR       -0x3E00  /**< Read/write of file failed. */
  57:.\Source\mbedtls_open\include/mbedtls/pk.h **** #define MBEDTLS_ERR_PK_KEY_INVALID_VERSION -0x3D80  /**< Unsupported key version */
  58:.\Source\mbedtls_open\include/mbedtls/pk.h **** #define MBEDTLS_ERR_PK_KEY_INVALID_FORMAT  -0x3D00  /**< Invalid key tag or value. */
  59:.\Source\mbedtls_open\include/mbedtls/pk.h **** #define MBEDTLS_ERR_PK_UNKNOWN_PK_ALG      -0x3C80  /**< Key algorithm is unsupported (only RSA and
  60:.\Source\mbedtls_open\include/mbedtls/pk.h **** #define MBEDTLS_ERR_PK_PASSWORD_REQUIRED   -0x3C00  /**< Private key password can't be empty. */
  61:.\Source\mbedtls_open\include/mbedtls/pk.h **** #define MBEDTLS_ERR_PK_PASSWORD_MISMATCH   -0x3B80  /**< Given private key password does not allow 
  62:.\Source\mbedtls_open\include/mbedtls/pk.h **** #define MBEDTLS_ERR_PK_INVALID_PUBKEY      -0x3B00  /**< The pubkey tag or value is invalid (only R
  63:.\Source\mbedtls_open\include/mbedtls/pk.h **** #define MBEDTLS_ERR_PK_INVALID_ALG         -0x3A80  /**< The algorithm tag or value is invalid. */
  64:.\Source\mbedtls_open\include/mbedtls/pk.h **** #define MBEDTLS_ERR_PK_UNKNOWN_NAMED_CURVE -0x3A00  /**< Elliptic curve is unsupported (only NIST c
  65:.\Source\mbedtls_open\include/mbedtls/pk.h **** #define MBEDTLS_ERR_PK_FEATURE_UNAVAILABLE -0x3980  /**< Unavailable feature, e.g. RSA disabled for
  66:.\Source\mbedtls_open\include/mbedtls/pk.h **** #define MBEDTLS_ERR_PK_SIG_LEN_MISMATCH    -0x3900  /**< The buffer contains a valid signature foll
  67:.\Source\mbedtls_open\include/mbedtls/pk.h **** #define MBEDTLS_ERR_PK_HW_ACCEL_FAILED     -0x3880  /**< PK hardware accelerator failed. */
  68:.\Source\mbedtls_open\include/mbedtls/pk.h **** 
  69:.\Source\mbedtls_open\include/mbedtls/pk.h **** #ifdef __cplusplus
  70:.\Source\mbedtls_open\include/mbedtls/pk.h **** extern "C" {
  71:.\Source\mbedtls_open\include/mbedtls/pk.h **** #endif
  72:.\Source\mbedtls_open\include/mbedtls/pk.h **** 
  73:.\Source\mbedtls_open\include/mbedtls/pk.h **** /**
  74:.\Source\mbedtls_open\include/mbedtls/pk.h ****  * \brief          Public key types
  75:.\Source\mbedtls_open\include/mbedtls/pk.h ****  */
  76:.\Source\mbedtls_open\include/mbedtls/pk.h **** typedef enum {
  77:.\Source\mbedtls_open\include/mbedtls/pk.h ****     MBEDTLS_PK_NONE=0,
  78:.\Source\mbedtls_open\include/mbedtls/pk.h ****     MBEDTLS_PK_RSA,
  79:.\Source\mbedtls_open\include/mbedtls/pk.h ****     MBEDTLS_PK_ECKEY,
  80:.\Source\mbedtls_open\include/mbedtls/pk.h ****     MBEDTLS_PK_ECKEY_DH,
  81:.\Source\mbedtls_open\include/mbedtls/pk.h ****     MBEDTLS_PK_ECDSA,
  82:.\Source\mbedtls_open\include/mbedtls/pk.h ****     MBEDTLS_PK_RSA_ALT,
  83:.\Source\mbedtls_open\include/mbedtls/pk.h ****     MBEDTLS_PK_RSASSA_PSS,
  84:.\Source\mbedtls_open\include/mbedtls/pk.h **** } mbedtls_pk_type_t;
  85:.\Source\mbedtls_open\include/mbedtls/pk.h **** 
  86:.\Source\mbedtls_open\include/mbedtls/pk.h **** /**
  87:.\Source\mbedtls_open\include/mbedtls/pk.h ****  * \brief           Options for RSASSA-PSS signature verification.
  88:.\Source\mbedtls_open\include/mbedtls/pk.h ****  *                  See \c mbedtls_rsa_rsassa_pss_verify_ext()
  89:.\Source\mbedtls_open\include/mbedtls/pk.h ****  */
  90:.\Source\mbedtls_open\include/mbedtls/pk.h **** typedef struct mbedtls_pk_rsassa_pss_options
  91:.\Source\mbedtls_open\include/mbedtls/pk.h **** {
  92:.\Source\mbedtls_open\include/mbedtls/pk.h ****     mbedtls_md_type_t mgf1_hash_id;
  93:.\Source\mbedtls_open\include/mbedtls/pk.h ****     int expected_salt_len;
  94:.\Source\mbedtls_open\include/mbedtls/pk.h **** 
ARM GAS  C:\Users\Phuong\AppData\Local\Temp\cch6TBQE.s 			page 30


  95:.\Source\mbedtls_open\include/mbedtls/pk.h **** } mbedtls_pk_rsassa_pss_options;
  96:.\Source\mbedtls_open\include/mbedtls/pk.h **** 
  97:.\Source\mbedtls_open\include/mbedtls/pk.h **** /**
  98:.\Source\mbedtls_open\include/mbedtls/pk.h ****  * \brief           Types for interfacing with the debug module
  99:.\Source\mbedtls_open\include/mbedtls/pk.h ****  */
 100:.\Source\mbedtls_open\include/mbedtls/pk.h **** typedef enum
 101:.\Source\mbedtls_open\include/mbedtls/pk.h **** {
 102:.\Source\mbedtls_open\include/mbedtls/pk.h ****     MBEDTLS_PK_DEBUG_NONE = 0,
 103:.\Source\mbedtls_open\include/mbedtls/pk.h ****     MBEDTLS_PK_DEBUG_MPI,
 104:.\Source\mbedtls_open\include/mbedtls/pk.h ****     MBEDTLS_PK_DEBUG_ECP,
 105:.\Source\mbedtls_open\include/mbedtls/pk.h **** } mbedtls_pk_debug_type;
 106:.\Source\mbedtls_open\include/mbedtls/pk.h **** 
 107:.\Source\mbedtls_open\include/mbedtls/pk.h **** /**
 108:.\Source\mbedtls_open\include/mbedtls/pk.h ****  * \brief           Item to send to the debug module
 109:.\Source\mbedtls_open\include/mbedtls/pk.h ****  */
 110:.\Source\mbedtls_open\include/mbedtls/pk.h **** typedef struct mbedtls_pk_debug_item
 111:.\Source\mbedtls_open\include/mbedtls/pk.h **** {
 112:.\Source\mbedtls_open\include/mbedtls/pk.h ****     mbedtls_pk_debug_type type;
 113:.\Source\mbedtls_open\include/mbedtls/pk.h ****     const char *name;
 114:.\Source\mbedtls_open\include/mbedtls/pk.h ****     void *value;
 115:.\Source\mbedtls_open\include/mbedtls/pk.h **** } mbedtls_pk_debug_item;
 116:.\Source\mbedtls_open\include/mbedtls/pk.h **** 
 117:.\Source\mbedtls_open\include/mbedtls/pk.h **** /** Maximum number of item send for debugging, plus 1 */
 118:.\Source\mbedtls_open\include/mbedtls/pk.h **** #define MBEDTLS_PK_DEBUG_MAX_ITEMS 3
 119:.\Source\mbedtls_open\include/mbedtls/pk.h **** 
 120:.\Source\mbedtls_open\include/mbedtls/pk.h **** /**
 121:.\Source\mbedtls_open\include/mbedtls/pk.h ****  * \brief           Public key information and operations
 122:.\Source\mbedtls_open\include/mbedtls/pk.h ****  */
 123:.\Source\mbedtls_open\include/mbedtls/pk.h **** typedef struct mbedtls_pk_info_t mbedtls_pk_info_t;
 124:.\Source\mbedtls_open\include/mbedtls/pk.h **** 
 125:.\Source\mbedtls_open\include/mbedtls/pk.h **** /**
 126:.\Source\mbedtls_open\include/mbedtls/pk.h ****  * \brief           Public key container
 127:.\Source\mbedtls_open\include/mbedtls/pk.h ****  */
 128:.\Source\mbedtls_open\include/mbedtls/pk.h **** typedef struct mbedtls_pk_context
 129:.\Source\mbedtls_open\include/mbedtls/pk.h **** {
 130:.\Source\mbedtls_open\include/mbedtls/pk.h ****     const mbedtls_pk_info_t *   pk_info; /**< Public key information         */
 131:.\Source\mbedtls_open\include/mbedtls/pk.h ****     void *                      pk_ctx;  /**< Underlying public key context  */
 132:.\Source\mbedtls_open\include/mbedtls/pk.h **** } mbedtls_pk_context;
 133:.\Source\mbedtls_open\include/mbedtls/pk.h **** 
 134:.\Source\mbedtls_open\include/mbedtls/pk.h **** #if defined(MBEDTLS_ECDSA_C) && defined(MBEDTLS_ECP_RESTARTABLE)
 135:.\Source\mbedtls_open\include/mbedtls/pk.h **** /**
 136:.\Source\mbedtls_open\include/mbedtls/pk.h ****  * \brief           Context for resuming operations
 137:.\Source\mbedtls_open\include/mbedtls/pk.h ****  */
 138:.\Source\mbedtls_open\include/mbedtls/pk.h **** typedef struct
 139:.\Source\mbedtls_open\include/mbedtls/pk.h **** {
 140:.\Source\mbedtls_open\include/mbedtls/pk.h ****     const mbedtls_pk_info_t *   pk_info; /**< Public key information         */
 141:.\Source\mbedtls_open\include/mbedtls/pk.h ****     void *                      rs_ctx;  /**< Underlying restart context     */
 142:.\Source\mbedtls_open\include/mbedtls/pk.h **** } mbedtls_pk_restart_ctx;
 143:.\Source\mbedtls_open\include/mbedtls/pk.h **** #else /* MBEDTLS_ECDSA_C && MBEDTLS_ECP_RESTARTABLE */
 144:.\Source\mbedtls_open\include/mbedtls/pk.h **** /* Now we can declare functions that take a pointer to that */
 145:.\Source\mbedtls_open\include/mbedtls/pk.h **** typedef void mbedtls_pk_restart_ctx;
 146:.\Source\mbedtls_open\include/mbedtls/pk.h **** #endif /* MBEDTLS_ECDSA_C && MBEDTLS_ECP_RESTARTABLE */
 147:.\Source\mbedtls_open\include/mbedtls/pk.h **** 
 148:.\Source\mbedtls_open\include/mbedtls/pk.h **** #if defined(MBEDTLS_RSA_C)
 149:.\Source\mbedtls_open\include/mbedtls/pk.h **** /**
 150:.\Source\mbedtls_open\include/mbedtls/pk.h ****  * Quick access to an RSA context inside a PK context.
 151:.\Source\mbedtls_open\include/mbedtls/pk.h ****  *
ARM GAS  C:\Users\Phuong\AppData\Local\Temp\cch6TBQE.s 			page 31


 152:.\Source\mbedtls_open\include/mbedtls/pk.h ****  * \warning You must make sure the PK context actually holds an RSA context
 153:.\Source\mbedtls_open\include/mbedtls/pk.h ****  * before using this function!
 154:.\Source\mbedtls_open\include/mbedtls/pk.h ****  */
 155:.\Source\mbedtls_open\include/mbedtls/pk.h **** static inline mbedtls_rsa_context *mbedtls_pk_rsa( const mbedtls_pk_context pk )
 156:.\Source\mbedtls_open\include/mbedtls/pk.h **** {
 157:.\Source\mbedtls_open\include/mbedtls/pk.h ****     return( (mbedtls_rsa_context *) (pk).pk_ctx );
 158:.\Source\mbedtls_open\include/mbedtls/pk.h **** }
 159:.\Source\mbedtls_open\include/mbedtls/pk.h **** #endif /* MBEDTLS_RSA_C */
 160:.\Source\mbedtls_open\include/mbedtls/pk.h **** 
 161:.\Source\mbedtls_open\include/mbedtls/pk.h **** #if defined(MBEDTLS_ECP_C)
 162:.\Source\mbedtls_open\include/mbedtls/pk.h **** /**
 163:.\Source\mbedtls_open\include/mbedtls/pk.h ****  * Quick access to an EC context inside a PK context.
 164:.\Source\mbedtls_open\include/mbedtls/pk.h ****  *
 165:.\Source\mbedtls_open\include/mbedtls/pk.h ****  * \warning You must make sure the PK context actually holds an EC context
 166:.\Source\mbedtls_open\include/mbedtls/pk.h ****  * before using this function!
 167:.\Source\mbedtls_open\include/mbedtls/pk.h ****  */
 168:.\Source\mbedtls_open\include/mbedtls/pk.h **** static inline mbedtls_ecp_keypair *mbedtls_pk_ec( const mbedtls_pk_context pk )
 169:.\Source\mbedtls_open\include/mbedtls/pk.h **** {
 170:.\Source\mbedtls_open\include/mbedtls/pk.h ****     return( (mbedtls_ecp_keypair *) (pk).pk_ctx );
 171:.\Source\mbedtls_open\include/mbedtls/pk.h **** }
 172:.\Source\mbedtls_open\include/mbedtls/pk.h **** #endif /* MBEDTLS_ECP_C */
 173:.\Source\mbedtls_open\include/mbedtls/pk.h **** 
 174:.\Source\mbedtls_open\include/mbedtls/pk.h **** #if defined(MBEDTLS_PK_RSA_ALT_SUPPORT)
 175:.\Source\mbedtls_open\include/mbedtls/pk.h **** /**
 176:.\Source\mbedtls_open\include/mbedtls/pk.h ****  * \brief           Types for RSA-alt abstraction
 177:.\Source\mbedtls_open\include/mbedtls/pk.h ****  */
 178:.\Source\mbedtls_open\include/mbedtls/pk.h **** typedef int (*mbedtls_pk_rsa_alt_decrypt_func)( void *ctx, int mode, size_t *olen,
 179:.\Source\mbedtls_open\include/mbedtls/pk.h ****                     const unsigned char *input, unsigned char *output,
 180:.\Source\mbedtls_open\include/mbedtls/pk.h ****                     size_t output_max_len );
 181:.\Source\mbedtls_open\include/mbedtls/pk.h **** typedef int (*mbedtls_pk_rsa_alt_sign_func)( void *ctx,
 182:.\Source\mbedtls_open\include/mbedtls/pk.h ****                     int (*f_rng)(void *, unsigned char *, size_t), void *p_rng,
 183:.\Source\mbedtls_open\include/mbedtls/pk.h ****                     int mode, mbedtls_md_type_t md_alg, unsigned int hashlen,
 184:.\Source\mbedtls_open\include/mbedtls/pk.h ****                     const unsigned char *hash, unsigned char *sig );
 185:.\Source\mbedtls_open\include/mbedtls/pk.h **** typedef size_t (*mbedtls_pk_rsa_alt_key_len_func)( void *ctx );
 186:.\Source\mbedtls_open\include/mbedtls/pk.h **** #endif /* MBEDTLS_PK_RSA_ALT_SUPPORT */
 187:.\Source\mbedtls_open\include/mbedtls/pk.h **** 
 188:.\Source\mbedtls_open\include/mbedtls/pk.h **** /**
 189:.\Source\mbedtls_open\include/mbedtls/pk.h ****  * \brief           Return information associated with the given PK type
 190:.\Source\mbedtls_open\include/mbedtls/pk.h ****  *
 191:.\Source\mbedtls_open\include/mbedtls/pk.h ****  * \param pk_type   PK type to search for.
 192:.\Source\mbedtls_open\include/mbedtls/pk.h ****  *
 193:.\Source\mbedtls_open\include/mbedtls/pk.h ****  * \return          The PK info associated with the type or NULL if not found.
 194:.\Source\mbedtls_open\include/mbedtls/pk.h ****  */
 195:.\Source\mbedtls_open\include/mbedtls/pk.h **** const mbedtls_pk_info_t *mbedtls_pk_info_from_type( mbedtls_pk_type_t pk_type );
 196:.\Source\mbedtls_open\include/mbedtls/pk.h **** 
 197:.\Source\mbedtls_open\include/mbedtls/pk.h **** /**
 198:.\Source\mbedtls_open\include/mbedtls/pk.h ****  * \brief           Initialize a mbedtls_pk_context (as NONE)
 199:.\Source\mbedtls_open\include/mbedtls/pk.h ****  */
 200:.\Source\mbedtls_open\include/mbedtls/pk.h **** void mbedtls_pk_init( mbedtls_pk_context *ctx );
 201:.\Source\mbedtls_open\include/mbedtls/pk.h **** 
 202:.\Source\mbedtls_open\include/mbedtls/pk.h **** /**
 203:.\Source\mbedtls_open\include/mbedtls/pk.h ****  * \brief           Free a mbedtls_pk_context
 204:.\Source\mbedtls_open\include/mbedtls/pk.h ****  */
 205:.\Source\mbedtls_open\include/mbedtls/pk.h **** void mbedtls_pk_free( mbedtls_pk_context *ctx );
 206:.\Source\mbedtls_open\include/mbedtls/pk.h **** 
 207:.\Source\mbedtls_open\include/mbedtls/pk.h **** #if defined(MBEDTLS_ECDSA_C) && defined(MBEDTLS_ECP_RESTARTABLE)
 208:.\Source\mbedtls_open\include/mbedtls/pk.h **** /**
ARM GAS  C:\Users\Phuong\AppData\Local\Temp\cch6TBQE.s 			page 32


 209:.\Source\mbedtls_open\include/mbedtls/pk.h ****  * \brief           Initialize a restart context
 210:.\Source\mbedtls_open\include/mbedtls/pk.h ****  */
 211:.\Source\mbedtls_open\include/mbedtls/pk.h **** void mbedtls_pk_restart_init( mbedtls_pk_restart_ctx *ctx );
 212:.\Source\mbedtls_open\include/mbedtls/pk.h **** 
 213:.\Source\mbedtls_open\include/mbedtls/pk.h **** /**
 214:.\Source\mbedtls_open\include/mbedtls/pk.h ****  * \brief           Free the components of a restart context
 215:.\Source\mbedtls_open\include/mbedtls/pk.h ****  */
 216:.\Source\mbedtls_open\include/mbedtls/pk.h **** void mbedtls_pk_restart_free( mbedtls_pk_restart_ctx *ctx );
 217:.\Source\mbedtls_open\include/mbedtls/pk.h **** #endif /* MBEDTLS_ECDSA_C && MBEDTLS_ECP_RESTARTABLE */
 218:.\Source\mbedtls_open\include/mbedtls/pk.h **** 
 219:.\Source\mbedtls_open\include/mbedtls/pk.h **** /**
 220:.\Source\mbedtls_open\include/mbedtls/pk.h ****  * \brief           Initialize a PK context with the information given
 221:.\Source\mbedtls_open\include/mbedtls/pk.h ****  *                  and allocates the type-specific PK subcontext.
 222:.\Source\mbedtls_open\include/mbedtls/pk.h ****  *
 223:.\Source\mbedtls_open\include/mbedtls/pk.h ****  * \param ctx       Context to initialize. Must be empty (type NONE).
 224:.\Source\mbedtls_open\include/mbedtls/pk.h ****  * \param info      Information to use
 225:.\Source\mbedtls_open\include/mbedtls/pk.h ****  *
 226:.\Source\mbedtls_open\include/mbedtls/pk.h ****  * \return          0 on success,
 227:.\Source\mbedtls_open\include/mbedtls/pk.h ****  *                  MBEDTLS_ERR_PK_BAD_INPUT_DATA on invalid input,
 228:.\Source\mbedtls_open\include/mbedtls/pk.h ****  *                  MBEDTLS_ERR_PK_ALLOC_FAILED on allocation failure.
 229:.\Source\mbedtls_open\include/mbedtls/pk.h ****  *
 230:.\Source\mbedtls_open\include/mbedtls/pk.h ****  * \note            For contexts holding an RSA-alt key, use
 231:.\Source\mbedtls_open\include/mbedtls/pk.h ****  *                  \c mbedtls_pk_setup_rsa_alt() instead.
 232:.\Source\mbedtls_open\include/mbedtls/pk.h ****  */
 233:.\Source\mbedtls_open\include/mbedtls/pk.h **** int mbedtls_pk_setup( mbedtls_pk_context *ctx, const mbedtls_pk_info_t *info );
 234:.\Source\mbedtls_open\include/mbedtls/pk.h **** 
 235:.\Source\mbedtls_open\include/mbedtls/pk.h **** #if defined(MBEDTLS_PK_RSA_ALT_SUPPORT)
 236:.\Source\mbedtls_open\include/mbedtls/pk.h **** /**
 237:.\Source\mbedtls_open\include/mbedtls/pk.h ****  * \brief           Initialize an RSA-alt context
 238:.\Source\mbedtls_open\include/mbedtls/pk.h ****  *
 239:.\Source\mbedtls_open\include/mbedtls/pk.h ****  * \param ctx       Context to initialize. Must be empty (type NONE).
 240:.\Source\mbedtls_open\include/mbedtls/pk.h ****  * \param key       RSA key pointer
 241:.\Source\mbedtls_open\include/mbedtls/pk.h ****  * \param decrypt_func  Decryption function
 242:.\Source\mbedtls_open\include/mbedtls/pk.h ****  * \param sign_func     Signing function
 243:.\Source\mbedtls_open\include/mbedtls/pk.h ****  * \param key_len_func  Function returning key length in bytes
 244:.\Source\mbedtls_open\include/mbedtls/pk.h ****  *
 245:.\Source\mbedtls_open\include/mbedtls/pk.h ****  * \return          0 on success, or MBEDTLS_ERR_PK_BAD_INPUT_DATA if the
 246:.\Source\mbedtls_open\include/mbedtls/pk.h ****  *                  context wasn't already initialized as RSA_ALT.
 247:.\Source\mbedtls_open\include/mbedtls/pk.h ****  *
 248:.\Source\mbedtls_open\include/mbedtls/pk.h ****  * \note            This function replaces \c mbedtls_pk_setup() for RSA-alt.
 249:.\Source\mbedtls_open\include/mbedtls/pk.h ****  */
 250:.\Source\mbedtls_open\include/mbedtls/pk.h **** int mbedtls_pk_setup_rsa_alt( mbedtls_pk_context *ctx, void * key,
 251:.\Source\mbedtls_open\include/mbedtls/pk.h ****                          mbedtls_pk_rsa_alt_decrypt_func decrypt_func,
 252:.\Source\mbedtls_open\include/mbedtls/pk.h ****                          mbedtls_pk_rsa_alt_sign_func sign_func,
 253:.\Source\mbedtls_open\include/mbedtls/pk.h ****                          mbedtls_pk_rsa_alt_key_len_func key_len_func );
 254:.\Source\mbedtls_open\include/mbedtls/pk.h **** #endif /* MBEDTLS_PK_RSA_ALT_SUPPORT */
 255:.\Source\mbedtls_open\include/mbedtls/pk.h **** 
 256:.\Source\mbedtls_open\include/mbedtls/pk.h **** /**
 257:.\Source\mbedtls_open\include/mbedtls/pk.h ****  * \brief           Get the size in bits of the underlying key
 258:.\Source\mbedtls_open\include/mbedtls/pk.h ****  *
 259:.\Source\mbedtls_open\include/mbedtls/pk.h ****  * \param ctx       Context to use
 260:.\Source\mbedtls_open\include/mbedtls/pk.h ****  *
 261:.\Source\mbedtls_open\include/mbedtls/pk.h ****  * \return          Key size in bits, or 0 on error
 262:.\Source\mbedtls_open\include/mbedtls/pk.h ****  */
 263:.\Source\mbedtls_open\include/mbedtls/pk.h **** size_t mbedtls_pk_get_bitlen( const mbedtls_pk_context *ctx );
 264:.\Source\mbedtls_open\include/mbedtls/pk.h **** 
 265:.\Source\mbedtls_open\include/mbedtls/pk.h **** /**
ARM GAS  C:\Users\Phuong\AppData\Local\Temp\cch6TBQE.s 			page 33


 266:.\Source\mbedtls_open\include/mbedtls/pk.h ****  * \brief           Get the length in bytes of the underlying key
 267:.\Source\mbedtls_open\include/mbedtls/pk.h ****  * \param ctx       Context to use
 268:.\Source\mbedtls_open\include/mbedtls/pk.h ****  *
 269:.\Source\mbedtls_open\include/mbedtls/pk.h ****  * \return          Key length in bytes, or 0 on error
 270:.\Source\mbedtls_open\include/mbedtls/pk.h ****  */
 271:.\Source\mbedtls_open\include/mbedtls/pk.h **** static inline size_t mbedtls_pk_get_len( const mbedtls_pk_context *ctx )
 272:.\Source\mbedtls_open\include/mbedtls/pk.h **** {
 273:.\Source\mbedtls_open\include/mbedtls/pk.h ****     return( ( mbedtls_pk_get_bitlen( ctx ) + 7 ) / 8 );
 1058              		.loc 2 273 0
 1059 002a 2000     		movs	r0, r4
 1060 002c FFF7FEFF 		bl	mbedtls_pk_get_bitlen
 1061              	.LVL138:
 1062 0030 0730     		adds	r0, r0, #7
 1063 0032 C008     		lsrs	r0, r0, #3
 1064              	.LVL139:
 1065              	.LBE19:
 1066              	.LBE18:
 310:Source\mbedtls_open\library/pk.c ****             return( MBEDTLS_ERR_RSA_VERIFY_FAILED );
 1067              		.loc 1 310 0
 1068 0034 119B     		ldr	r3, [sp, #68]
 1069 0036 8342     		cmp	r3, r0
 1070 0038 35D3     		bcc	.L96
 1071 003a 06AB     		add	r3, sp, #24
 1072 003c 2200     		movs	r2, r4
 1073 003e 03CA     		ldmia	r2!, {r0, r1}
 1074 0040 03C3     		stmia	r3!, {r0, r1}
 313:Source\mbedtls_open\library/pk.c ****                 NULL, NULL, MBEDTLS_RSA_PUBLIC,
 1075              		.loc 1 313 0
 1076 0042 3378     		ldrb	r3, [r6]
 1077 0044 7268     		ldr	r2, [r6, #4]
 1078 0046 0492     		str	r2, [sp, #16]
 1079 0048 109A     		ldr	r2, [sp, #64]
 1080 004a 0592     		str	r2, [sp, #20]
 1081 004c 0393     		str	r3, [sp, #12]
 1082 004e 0E9B     		ldr	r3, [sp, #56]
 1083 0050 0293     		str	r3, [sp, #8]
 1084 0052 0F9B     		ldr	r3, [sp, #60]
 1085 0054 0193     		str	r3, [sp, #4]
 1086 0056 0097     		str	r7, [sp]
 1087 0058 0023     		movs	r3, #0
 1088 005a 0022     		movs	r2, #0
 1089 005c 0021     		movs	r1, #0
 1090 005e 6068     		ldr	r0, [r4, #4]
 1091 0060 FFF7FEFF 		bl	mbedtls_rsa_rsassa_pss_verify_ext
 1092              	.LVL140:
 319:Source\mbedtls_open\library/pk.c ****             return( ret );
 1093              		.loc 1 319 0
 1094 0064 0028     		cmp	r0, #0
 1095 0066 23D1     		bne	.L90
 1096              	.LVL141:
 1097              	.LBB20:
 1098              	.LBB21:
 1099              		.loc 2 273 0
 1100 0068 2000     		movs	r0, r4
 1101              	.LVL142:
 1102 006a FFF7FEFF 		bl	mbedtls_pk_get_bitlen
 1103              	.LVL143:
ARM GAS  C:\Users\Phuong\AppData\Local\Temp\cch6TBQE.s 			page 34


 1104 006e 0730     		adds	r0, r0, #7
 1105 0070 C008     		lsrs	r0, r0, #3
 1106              	.LVL144:
 1107              	.LBE21:
 1108              	.LBE20:
 322:Source\mbedtls_open\library/pk.c ****             return( MBEDTLS_ERR_PK_SIG_LEN_MISMATCH );
 1109              		.loc 1 322 0
 1110 0072 119B     		ldr	r3, [sp, #68]
 1111 0074 8342     		cmp	r3, r0
 1112 0076 18D9     		bls	.L98
 323:Source\mbedtls_open\library/pk.c **** 
 1113              		.loc 1 323 0
 1114 0078 0E48     		ldr	r0, .L100
 1115 007a 19E0     		b	.L90
 1116              	.LVL145:
 1117              	.L91:
 1118              	.LBE17:
 332:Source\mbedtls_open\library/pk.c ****         return( MBEDTLS_ERR_PK_BAD_INPUT_DATA );
 1119              		.loc 1 332 0
 1120 007c 002E     		cmp	r6, #0
 1121 007e 16D1     		bne	.L99
 335:Source\mbedtls_open\library/pk.c **** }
 1122              		.loc 1 335 0
 1123 0080 119B     		ldr	r3, [sp, #68]
 1124 0082 0193     		str	r3, [sp, #4]
 1125 0084 109B     		ldr	r3, [sp, #64]
 1126 0086 0093     		str	r3, [sp]
 1127 0088 0F9B     		ldr	r3, [sp, #60]
 1128 008a 0E9A     		ldr	r2, [sp, #56]
 1129 008c 3900     		movs	r1, r7
 1130 008e 2000     		movs	r0, r4
 1131 0090 FFF7FEFF 		bl	mbedtls_pk_verify
 1132              	.LVL146:
 1133 0094 0CE0     		b	.L90
 1134              	.LVL147:
 1135              	.L92:
 289:Source\mbedtls_open\library/pk.c **** 
 1136              		.loc 1 289 0
 1137 0096 0848     		ldr	r0, .L100+4
 1138              	.LVL148:
 1139 0098 0AE0     		b	.L90
 1140              	.LVL149:
 1141              	.L93:
 1142 009a 0748     		ldr	r0, .L100+4
 1143              	.LVL150:
 1144 009c 08E0     		b	.L90
 1145              	.LVL151:
 1146              	.L94:
 292:Source\mbedtls_open\library/pk.c **** 
 1147              		.loc 1 292 0
 1148 009e 0748     		ldr	r0, .L100+8
 1149 00a0 06E0     		b	.L90
 1150              	.L95:
 1151              	.LBB22:
 306:Source\mbedtls_open\library/pk.c **** 
 1152              		.loc 1 306 0
 1153 00a2 0548     		ldr	r0, .L100+4
ARM GAS  C:\Users\Phuong\AppData\Local\Temp\cch6TBQE.s 			page 35


 1154 00a4 04E0     		b	.L90
 1155              	.LVL152:
 1156              	.L96:
 311:Source\mbedtls_open\library/pk.c **** 
 1157              		.loc 1 311 0
 1158 00a6 0648     		ldr	r0, .L100+12
 1159 00a8 02E0     		b	.L90
 1160              	.L98:
 325:Source\mbedtls_open\library/pk.c **** #else
 1161              		.loc 1 325 0
 1162 00aa 0020     		movs	r0, #0
 1163 00ac 00E0     		b	.L90
 1164              	.LVL153:
 1165              	.L99:
 1166              	.LBE22:
 333:Source\mbedtls_open\library/pk.c **** 
 1167              		.loc 1 333 0
 1168 00ae 0248     		ldr	r0, .L100+4
 1169              	.L90:
 336:Source\mbedtls_open\library/pk.c **** 
 1170              		.loc 1 336 0
 1171 00b0 09B0     		add	sp, sp, #36
 1172              		@ sp needed
 1173              	.LVL154:
 1174              	.LVL155:
 1175 00b2 F0BD     		pop	{r4, r5, r6, r7, pc}
 1176              	.L101:
 1177              		.align	2
 1178              	.L100:
 1179 00b4 00C7FFFF 		.word	-14592
 1180 00b8 80C1FFFF 		.word	-16000
 1181 00bc 00C1FFFF 		.word	-16128
 1182 00c0 80BCFFFF 		.word	-17280
 1183              		.cfi_endproc
 1184              	.LFE12:
 1185              		.size	mbedtls_pk_verify_ext, .-mbedtls_pk_verify_ext
 1186              		.section	.text.mbedtls_pk_debug,"ax",%progbits
 1187              		.align	2
 1188              		.global	mbedtls_pk_debug
 1189              		.code	16
 1190              		.thumb_func
 1191              		.type	mbedtls_pk_debug, %function
 1192              	mbedtls_pk_debug:
 1193              	.LFB19:
 466:Source\mbedtls_open\library/pk.c **** 
 467:Source\mbedtls_open\library/pk.c **** /*
 468:Source\mbedtls_open\library/pk.c ****  * Export debug information
 469:Source\mbedtls_open\library/pk.c ****  */
 470:Source\mbedtls_open\library/pk.c **** int mbedtls_pk_debug( const mbedtls_pk_context *ctx, mbedtls_pk_debug_item *items )
 471:Source\mbedtls_open\library/pk.c **** {
 1194              		.loc 1 471 0
 1195              		.cfi_startproc
 1196              		@ args = 0, pretend = 0, frame = 0
 1197              		@ frame_needed = 0, uses_anonymous_args = 0
 1198              	.LVL156:
 1199 0000 10B5     		push	{r4, lr}
 1200              		.cfi_def_cfa_offset 8
ARM GAS  C:\Users\Phuong\AppData\Local\Temp\cch6TBQE.s 			page 36


 1201              		.cfi_offset 4, -8
 1202              		.cfi_offset 14, -4
 472:Source\mbedtls_open\library/pk.c ****     if( ctx == NULL || ctx->pk_info == NULL )
 1203              		.loc 1 472 0
 1204 0002 0028     		cmp	r0, #0
 1205 0004 09D0     		beq	.L104
 1206              		.loc 1 472 0 is_stmt 0 discriminator 1
 1207 0006 0368     		ldr	r3, [r0]
 1208 0008 002B     		cmp	r3, #0
 1209 000a 08D0     		beq	.L105
 473:Source\mbedtls_open\library/pk.c ****         return( MBEDTLS_ERR_PK_BAD_INPUT_DATA );
 474:Source\mbedtls_open\library/pk.c **** 
 475:Source\mbedtls_open\library/pk.c ****     if( ctx->pk_info->debug_func == NULL )
 1210              		.loc 1 475 0 is_stmt 1
 1211 000c DB6A     		ldr	r3, [r3, #44]
 1212 000e 002B     		cmp	r3, #0
 1213 0010 07D0     		beq	.L106
 476:Source\mbedtls_open\library/pk.c ****         return( MBEDTLS_ERR_PK_TYPE_MISMATCH );
 477:Source\mbedtls_open\library/pk.c **** 
 478:Source\mbedtls_open\library/pk.c ****     ctx->pk_info->debug_func( ctx->pk_ctx, items );
 1214              		.loc 1 478 0
 1215 0012 4068     		ldr	r0, [r0, #4]
 1216              	.LVL157:
 1217 0014 9847     		blx	r3
 1218              	.LVL158:
 479:Source\mbedtls_open\library/pk.c ****     return( 0 );
 1219              		.loc 1 479 0
 1220 0016 0020     		movs	r0, #0
 1221 0018 04E0     		b	.L103
 1222              	.LVL159:
 1223              	.L104:
 473:Source\mbedtls_open\library/pk.c ****         return( MBEDTLS_ERR_PK_BAD_INPUT_DATA );
 1224              		.loc 1 473 0
 1225 001a 0348     		ldr	r0, .L107
 1226              	.LVL160:
 1227 001c 02E0     		b	.L103
 1228              	.LVL161:
 1229              	.L105:
 1230 001e 0248     		ldr	r0, .L107
 1231              	.LVL162:
 1232 0020 00E0     		b	.L103
 1233              	.LVL163:
 1234              	.L106:
 476:Source\mbedtls_open\library/pk.c ****         return( MBEDTLS_ERR_PK_TYPE_MISMATCH );
 1235              		.loc 1 476 0
 1236 0022 0248     		ldr	r0, .L107+4
 1237              	.LVL164:
 1238              	.L103:
 480:Source\mbedtls_open\library/pk.c **** }
 1239              		.loc 1 480 0
 1240              		@ sp needed
 1241 0024 10BD     		pop	{r4, pc}
 1242              	.L108:
 1243 0026 C046     		.align	2
 1244              	.L107:
 1245 0028 80C1FFFF 		.word	-16000
 1246 002c 00C1FFFF 		.word	-16128
ARM GAS  C:\Users\Phuong\AppData\Local\Temp\cch6TBQE.s 			page 37


 1247              		.cfi_endproc
 1248              	.LFE19:
 1249              		.size	mbedtls_pk_debug, .-mbedtls_pk_debug
 1250              		.section	.text.mbedtls_pk_get_name,"ax",%progbits
 1251              		.align	2
 1252              		.global	mbedtls_pk_get_name
 1253              		.code	16
 1254              		.thumb_func
 1255              		.type	mbedtls_pk_get_name, %function
 1256              	mbedtls_pk_get_name:
 1257              	.LFB20:
 481:Source\mbedtls_open\library/pk.c **** 
 482:Source\mbedtls_open\library/pk.c **** /*
 483:Source\mbedtls_open\library/pk.c ****  * Access the PK type name
 484:Source\mbedtls_open\library/pk.c ****  */
 485:Source\mbedtls_open\library/pk.c **** const char *mbedtls_pk_get_name( const mbedtls_pk_context *ctx )
 486:Source\mbedtls_open\library/pk.c **** {
 1258              		.loc 1 486 0
 1259              		.cfi_startproc
 1260              		@ args = 0, pretend = 0, frame = 0
 1261              		@ frame_needed = 0, uses_anonymous_args = 0
 1262              		@ link register save eliminated.
 1263              	.LVL165:
 487:Source\mbedtls_open\library/pk.c ****     if( ctx == NULL || ctx->pk_info == NULL )
 1264              		.loc 1 487 0
 1265 0000 0028     		cmp	r0, #0
 1266 0002 04D0     		beq	.L111
 1267              		.loc 1 487 0 is_stmt 0 discriminator 1
 1268 0004 0368     		ldr	r3, [r0]
 1269 0006 002B     		cmp	r3, #0
 1270 0008 03D0     		beq	.L112
 488:Source\mbedtls_open\library/pk.c ****         return( "invalid PK" );
 489:Source\mbedtls_open\library/pk.c **** 
 490:Source\mbedtls_open\library/pk.c ****     return( ctx->pk_info->name );
 1271              		.loc 1 490 0 is_stmt 1
 1272 000a 5868     		ldr	r0, [r3, #4]
 1273              	.LVL166:
 1274 000c 02E0     		b	.L110
 1275              	.LVL167:
 1276              	.L111:
 488:Source\mbedtls_open\library/pk.c ****         return( "invalid PK" );
 1277              		.loc 1 488 0
 1278 000e 0248     		ldr	r0, .L113
 1279              	.LVL168:
 1280 0010 00E0     		b	.L110
 1281              	.LVL169:
 1282              	.L112:
 1283 0012 0148     		ldr	r0, .L113
 1284              	.LVL170:
 1285              	.L110:
 491:Source\mbedtls_open\library/pk.c **** }
 1286              		.loc 1 491 0
 1287              		@ sp needed
 1288 0014 7047     		bx	lr
 1289              	.L114:
 1290 0016 C046     		.align	2
 1291              	.L113:
ARM GAS  C:\Users\Phuong\AppData\Local\Temp\cch6TBQE.s 			page 38


 1292 0018 00000000 		.word	.LC5
 1293              		.cfi_endproc
 1294              	.LFE20:
 1295              		.size	mbedtls_pk_get_name, .-mbedtls_pk_get_name
 1296              		.section	.text.mbedtls_pk_get_type,"ax",%progbits
 1297              		.align	2
 1298              		.global	mbedtls_pk_get_type
 1299              		.code	16
 1300              		.thumb_func
 1301              		.type	mbedtls_pk_get_type, %function
 1302              	mbedtls_pk_get_type:
 1303              	.LFB21:
 492:Source\mbedtls_open\library/pk.c **** 
 493:Source\mbedtls_open\library/pk.c **** /*
 494:Source\mbedtls_open\library/pk.c ****  * Access the PK type
 495:Source\mbedtls_open\library/pk.c ****  */
 496:Source\mbedtls_open\library/pk.c **** mbedtls_pk_type_t mbedtls_pk_get_type( const mbedtls_pk_context *ctx )
 497:Source\mbedtls_open\library/pk.c **** {
 1304              		.loc 1 497 0
 1305              		.cfi_startproc
 1306              		@ args = 0, pretend = 0, frame = 0
 1307              		@ frame_needed = 0, uses_anonymous_args = 0
 1308              		@ link register save eliminated.
 1309              	.LVL171:
 498:Source\mbedtls_open\library/pk.c ****     if( ctx == NULL || ctx->pk_info == NULL )
 1310              		.loc 1 498 0
 1311 0000 0028     		cmp	r0, #0
 1312 0002 04D0     		beq	.L117
 1313              		.loc 1 498 0 is_stmt 0 discriminator 1
 1314 0004 0368     		ldr	r3, [r0]
 1315 0006 002B     		cmp	r3, #0
 1316 0008 03D0     		beq	.L118
 499:Source\mbedtls_open\library/pk.c ****         return( MBEDTLS_PK_NONE );
 500:Source\mbedtls_open\library/pk.c **** 
 501:Source\mbedtls_open\library/pk.c ****     return( ctx->pk_info->type );
 1317              		.loc 1 501 0 is_stmt 1
 1318 000a 1878     		ldrb	r0, [r3]
 1319              	.LVL172:
 1320 000c 02E0     		b	.L116
 1321              	.LVL173:
 1322              	.L117:
 499:Source\mbedtls_open\library/pk.c ****         return( MBEDTLS_PK_NONE );
 1323              		.loc 1 499 0
 1324 000e 0020     		movs	r0, #0
 1325              	.LVL174:
 1326 0010 00E0     		b	.L116
 1327              	.LVL175:
 1328              	.L118:
 1329 0012 0020     		movs	r0, #0
 1330              	.LVL176:
 1331              	.L116:
 502:Source\mbedtls_open\library/pk.c **** }
 1332              		.loc 1 502 0
 1333              		@ sp needed
 1334 0014 7047     		bx	lr
 1335              		.cfi_endproc
 1336              	.LFE21:
ARM GAS  C:\Users\Phuong\AppData\Local\Temp\cch6TBQE.s 			page 39


 1337              		.size	mbedtls_pk_get_type, .-mbedtls_pk_get_type
 1338 0016 C046     		.section	.rodata.str1.4,"aMS",%progbits,1
 1339              		.align	2
 1340              	.LC5:
 1341 0000 696E7661 		.ascii	"invalid PK\000"
 1341      6C696420 
 1341      504B00
 1342              		.text
 1343              	.Letext0:
 1344              		.file 3 "c:\\program files (x86)\\cypress\\psoc creator\\4.2\\psoc creator\\import\\gnu\\arm\\5.4.
 1345              		.file 4 "c:\\program files (x86)\\cypress\\psoc creator\\4.2\\psoc creator\\import\\gnu\\arm\\5.4.
 1346              		.file 5 ".\\Source\\mbedtls_open\\include/mbedtls/md.h"
 1347              		.file 6 "c:\\program files (x86)\\cypress\\psoc creator\\4.2\\psoc creator\\import\\gnu\\arm\\5.4.
 1348              		.file 7 ".\\Source\\mbedtls_open\\include/mbedtls/bignum.h"
 1349              		.file 8 ".\\Source\\mbedtls_open\\include/mbedtls/rsa.h"
 1350              		.file 9 ".\\Source\\mbedtls_open\\include/mbedtls/pk_internal.h"
 1351              		.file 10 ".\\Source\\mbedtls_open\\include/mbedtls/platform_util.h"