ARM GAS  C:\Users\Phuong\AppData\Local\Temp\cc9PPFKV.s 			page 1


   1              		.syntax unified
   2              		.cpu cortex-m0plus
   3              		.fpu softvfp
   4              		.eabi_attribute 20, 1
   5              		.eabi_attribute 21, 1
   6              		.eabi_attribute 23, 3
   7              		.eabi_attribute 24, 1
   8              		.eabi_attribute 25, 1
   9              		.eabi_attribute 26, 1
  10              		.eabi_attribute 30, 1
  11              		.eabi_attribute 34, 0
  12              		.eabi_attribute 18, 4
  13              		.thumb
  14              		.syntax unified
  15              		.file	"pk_wrap.c"
  16              		.text
  17              	.Ltext0:
  18              		.cfi_sections	.debug_frame
  19              		.section	.text.rsa_can_do,"ax",%progbits
  20              		.align	2
  21              		.code	16
  22              		.thumb_func
  23              		.type	rsa_can_do, %function
  24              	rsa_can_do:
  25              	.LFB4:
  26              		.file 1 "Source\\mbedtls_open\\library\\pk_wrap.c"
   1:Source\mbedtls_open\library/pk_wrap.c **** /*
   2:Source\mbedtls_open\library/pk_wrap.c ****  *  Public Key abstraction layer: wrapper functions
   3:Source\mbedtls_open\library/pk_wrap.c ****  *
   4:Source\mbedtls_open\library/pk_wrap.c ****  *  Copyright (C) 2006-2015, ARM Limited, All Rights Reserved
   5:Source\mbedtls_open\library/pk_wrap.c ****  *  SPDX-License-Identifier: Apache-2.0
   6:Source\mbedtls_open\library/pk_wrap.c ****  *
   7:Source\mbedtls_open\library/pk_wrap.c ****  *  Licensed under the Apache License, Version 2.0 (the "License"); you may
   8:Source\mbedtls_open\library/pk_wrap.c ****  *  not use this file except in compliance with the License.
   9:Source\mbedtls_open\library/pk_wrap.c ****  *  You may obtain a copy of the License at
  10:Source\mbedtls_open\library/pk_wrap.c ****  *
  11:Source\mbedtls_open\library/pk_wrap.c ****  *  http://www.apache.org/licenses/LICENSE-2.0
  12:Source\mbedtls_open\library/pk_wrap.c ****  *
  13:Source\mbedtls_open\library/pk_wrap.c ****  *  Unless required by applicable law or agreed to in writing, software
  14:Source\mbedtls_open\library/pk_wrap.c ****  *  distributed under the License is distributed on an "AS IS" BASIS, WITHOUT
  15:Source\mbedtls_open\library/pk_wrap.c ****  *  WARRANTIES OR CONDITIONS OF ANY KIND, either express or implied.
  16:Source\mbedtls_open\library/pk_wrap.c ****  *  See the License for the specific language governing permissions and
  17:Source\mbedtls_open\library/pk_wrap.c ****  *  limitations under the License.
  18:Source\mbedtls_open\library/pk_wrap.c ****  *
  19:Source\mbedtls_open\library/pk_wrap.c ****  *  This file is part of mbed TLS (https://tls.mbed.org)
  20:Source\mbedtls_open\library/pk_wrap.c ****  */
  21:Source\mbedtls_open\library/pk_wrap.c **** 
  22:Source\mbedtls_open\library/pk_wrap.c **** #if !defined(MBEDTLS_CONFIG_FILE)
  23:Source\mbedtls_open\library/pk_wrap.c **** #include "mbedtls/config.h"
  24:Source\mbedtls_open\library/pk_wrap.c **** #else
  25:Source\mbedtls_open\library/pk_wrap.c **** #include MBEDTLS_CONFIG_FILE
  26:Source\mbedtls_open\library/pk_wrap.c **** #endif
  27:Source\mbedtls_open\library/pk_wrap.c **** 
  28:Source\mbedtls_open\library/pk_wrap.c **** #if defined(MBEDTLS_PK_C)
  29:Source\mbedtls_open\library/pk_wrap.c **** #include "mbedtls/pk_internal.h"
  30:Source\mbedtls_open\library/pk_wrap.c **** 
  31:Source\mbedtls_open\library/pk_wrap.c **** /* Even if RSA not activated, for the sake of RSA-alt */
ARM GAS  C:\Users\Phuong\AppData\Local\Temp\cc9PPFKV.s 			page 2


  32:Source\mbedtls_open\library/pk_wrap.c **** #include "mbedtls/rsa.h"
  33:Source\mbedtls_open\library/pk_wrap.c **** 
  34:Source\mbedtls_open\library/pk_wrap.c **** #include <string.h>
  35:Source\mbedtls_open\library/pk_wrap.c **** 
  36:Source\mbedtls_open\library/pk_wrap.c **** #if defined(MBEDTLS_ECP_C)
  37:Source\mbedtls_open\library/pk_wrap.c **** #include "mbedtls/ecp.h"
  38:Source\mbedtls_open\library/pk_wrap.c **** #endif
  39:Source\mbedtls_open\library/pk_wrap.c **** 
  40:Source\mbedtls_open\library/pk_wrap.c **** #if defined(MBEDTLS_ECDSA_C)
  41:Source\mbedtls_open\library/pk_wrap.c **** #include "mbedtls/ecdsa.h"
  42:Source\mbedtls_open\library/pk_wrap.c **** #endif
  43:Source\mbedtls_open\library/pk_wrap.c **** 
  44:Source\mbedtls_open\library/pk_wrap.c **** #if defined(MBEDTLS_PK_RSA_ALT_SUPPORT)
  45:Source\mbedtls_open\library/pk_wrap.c **** #include "mbedtls/platform_util.h"
  46:Source\mbedtls_open\library/pk_wrap.c **** #endif
  47:Source\mbedtls_open\library/pk_wrap.c **** 
  48:Source\mbedtls_open\library/pk_wrap.c **** #if defined(MBEDTLS_PLATFORM_C)
  49:Source\mbedtls_open\library/pk_wrap.c **** #include "mbedtls/platform.h"
  50:Source\mbedtls_open\library/pk_wrap.c **** #else
  51:Source\mbedtls_open\library/pk_wrap.c **** #include <stdlib.h>
  52:Source\mbedtls_open\library/pk_wrap.c **** #define mbedtls_calloc    calloc
  53:Source\mbedtls_open\library/pk_wrap.c **** #define mbedtls_free       free
  54:Source\mbedtls_open\library/pk_wrap.c **** #endif
  55:Source\mbedtls_open\library/pk_wrap.c **** 
  56:Source\mbedtls_open\library/pk_wrap.c **** #include <limits.h>
  57:Source\mbedtls_open\library/pk_wrap.c **** #include <stdint.h>
  58:Source\mbedtls_open\library/pk_wrap.c **** 
  59:Source\mbedtls_open\library/pk_wrap.c **** #if defined(MBEDTLS_RSA_C)
  60:Source\mbedtls_open\library/pk_wrap.c **** static int rsa_can_do( mbedtls_pk_type_t type )
  61:Source\mbedtls_open\library/pk_wrap.c **** {
  27              		.loc 1 61 0
  28              		.cfi_startproc
  29              		@ args = 0, pretend = 0, frame = 0
  30              		@ frame_needed = 0, uses_anonymous_args = 0
  31              		@ link register save eliminated.
  32              	.LVL0:
  62:Source\mbedtls_open\library/pk_wrap.c ****     return( type == MBEDTLS_PK_RSA ||
  33              		.loc 1 62 0
  34 0000 0128     		cmp	r0, #1
  35 0002 03D0     		beq	.L3
  36              		.loc 1 62 0 is_stmt 0 discriminator 2
  37 0004 0628     		cmp	r0, #6
  38 0006 03D1     		bne	.L4
  39              		.loc 1 62 0
  40 0008 0538     		subs	r0, r0, #5
  41              	.LVL1:
  42 000a 02E0     		b	.L2
  43              	.LVL2:
  44              	.L3:
  45 000c 0120     		movs	r0, #1
  46              	.LVL3:
  47 000e 00E0     		b	.L2
  48              	.LVL4:
  49              	.L4:
  50 0010 0020     		movs	r0, #0
  51              	.LVL5:
  52              	.L2:
ARM GAS  C:\Users\Phuong\AppData\Local\Temp\cc9PPFKV.s 			page 3


  63:Source\mbedtls_open\library/pk_wrap.c ****             type == MBEDTLS_PK_RSASSA_PSS );
  64:Source\mbedtls_open\library/pk_wrap.c **** }
  53              		.loc 1 64 0 is_stmt 1 discriminator 6
  54              		@ sp needed
  55 0012 7047     		bx	lr
  56              		.cfi_endproc
  57              	.LFE4:
  58              		.size	rsa_can_do, .-rsa_can_do
  59              		.section	.text.rsa_debug,"ax",%progbits
  60              		.align	2
  61              		.code	16
  62              		.thumb_func
  63              		.type	rsa_debug, %function
  64              	rsa_debug:
  65              	.LFB13:
  65:Source\mbedtls_open\library/pk_wrap.c **** 
  66:Source\mbedtls_open\library/pk_wrap.c **** static size_t rsa_get_bitlen( const void *ctx )
  67:Source\mbedtls_open\library/pk_wrap.c **** {
  68:Source\mbedtls_open\library/pk_wrap.c ****     const mbedtls_rsa_context * rsa = (const mbedtls_rsa_context *) ctx;
  69:Source\mbedtls_open\library/pk_wrap.c ****     return( 8 * mbedtls_rsa_get_len( rsa ) );
  70:Source\mbedtls_open\library/pk_wrap.c **** }
  71:Source\mbedtls_open\library/pk_wrap.c **** 
  72:Source\mbedtls_open\library/pk_wrap.c **** static int rsa_verify_wrap( void *ctx, mbedtls_md_type_t md_alg,
  73:Source\mbedtls_open\library/pk_wrap.c ****                    const unsigned char *hash, size_t hash_len,
  74:Source\mbedtls_open\library/pk_wrap.c ****                    const unsigned char *sig, size_t sig_len )
  75:Source\mbedtls_open\library/pk_wrap.c **** {
  76:Source\mbedtls_open\library/pk_wrap.c ****     int ret;
  77:Source\mbedtls_open\library/pk_wrap.c ****     mbedtls_rsa_context * rsa = (mbedtls_rsa_context *) ctx;
  78:Source\mbedtls_open\library/pk_wrap.c ****     size_t rsa_len = mbedtls_rsa_get_len( rsa );
  79:Source\mbedtls_open\library/pk_wrap.c **** 
  80:Source\mbedtls_open\library/pk_wrap.c **** #if SIZE_MAX > UINT_MAX
  81:Source\mbedtls_open\library/pk_wrap.c ****     if( md_alg == MBEDTLS_MD_NONE && UINT_MAX < hash_len )
  82:Source\mbedtls_open\library/pk_wrap.c ****         return( MBEDTLS_ERR_PK_BAD_INPUT_DATA );
  83:Source\mbedtls_open\library/pk_wrap.c **** #endif /* SIZE_MAX > UINT_MAX */
  84:Source\mbedtls_open\library/pk_wrap.c **** 
  85:Source\mbedtls_open\library/pk_wrap.c ****     if( sig_len < rsa_len )
  86:Source\mbedtls_open\library/pk_wrap.c ****         return( MBEDTLS_ERR_RSA_VERIFY_FAILED );
  87:Source\mbedtls_open\library/pk_wrap.c **** 
  88:Source\mbedtls_open\library/pk_wrap.c ****     if( ( ret = mbedtls_rsa_pkcs1_verify( rsa, NULL, NULL,
  89:Source\mbedtls_open\library/pk_wrap.c ****                                   MBEDTLS_RSA_PUBLIC, md_alg,
  90:Source\mbedtls_open\library/pk_wrap.c ****                                   (unsigned int) hash_len, hash, sig ) ) != 0 )
  91:Source\mbedtls_open\library/pk_wrap.c ****         return( ret );
  92:Source\mbedtls_open\library/pk_wrap.c **** 
  93:Source\mbedtls_open\library/pk_wrap.c ****     /* The buffer contains a valid signature followed by extra data.
  94:Source\mbedtls_open\library/pk_wrap.c ****      * We have a special error code for that so that so that callers can
  95:Source\mbedtls_open\library/pk_wrap.c ****      * use mbedtls_pk_verify() to check "Does the buffer start with a
  96:Source\mbedtls_open\library/pk_wrap.c ****      * valid signature?" and not just "Does the buffer contain a valid
  97:Source\mbedtls_open\library/pk_wrap.c ****      * signature?". */
  98:Source\mbedtls_open\library/pk_wrap.c ****     if( sig_len > rsa_len )
  99:Source\mbedtls_open\library/pk_wrap.c ****         return( MBEDTLS_ERR_PK_SIG_LEN_MISMATCH );
 100:Source\mbedtls_open\library/pk_wrap.c **** 
 101:Source\mbedtls_open\library/pk_wrap.c ****     return( 0 );
 102:Source\mbedtls_open\library/pk_wrap.c **** }
 103:Source\mbedtls_open\library/pk_wrap.c **** 
 104:Source\mbedtls_open\library/pk_wrap.c **** static int rsa_sign_wrap( void *ctx, mbedtls_md_type_t md_alg,
 105:Source\mbedtls_open\library/pk_wrap.c ****                    const unsigned char *hash, size_t hash_len,
 106:Source\mbedtls_open\library/pk_wrap.c ****                    unsigned char *sig, size_t *sig_len,
ARM GAS  C:\Users\Phuong\AppData\Local\Temp\cc9PPFKV.s 			page 4


 107:Source\mbedtls_open\library/pk_wrap.c ****                    int (*f_rng)(void *, unsigned char *, size_t), void *p_rng )
 108:Source\mbedtls_open\library/pk_wrap.c **** {
 109:Source\mbedtls_open\library/pk_wrap.c ****     mbedtls_rsa_context * rsa = (mbedtls_rsa_context *) ctx;
 110:Source\mbedtls_open\library/pk_wrap.c **** 
 111:Source\mbedtls_open\library/pk_wrap.c **** #if SIZE_MAX > UINT_MAX
 112:Source\mbedtls_open\library/pk_wrap.c ****     if( md_alg == MBEDTLS_MD_NONE && UINT_MAX < hash_len )
 113:Source\mbedtls_open\library/pk_wrap.c ****         return( MBEDTLS_ERR_PK_BAD_INPUT_DATA );
 114:Source\mbedtls_open\library/pk_wrap.c **** #endif /* SIZE_MAX > UINT_MAX */
 115:Source\mbedtls_open\library/pk_wrap.c **** 
 116:Source\mbedtls_open\library/pk_wrap.c ****     *sig_len = mbedtls_rsa_get_len( rsa );
 117:Source\mbedtls_open\library/pk_wrap.c **** 
 118:Source\mbedtls_open\library/pk_wrap.c ****     return( mbedtls_rsa_pkcs1_sign( rsa, f_rng, p_rng, MBEDTLS_RSA_PRIVATE,
 119:Source\mbedtls_open\library/pk_wrap.c ****                 md_alg, (unsigned int) hash_len, hash, sig ) );
 120:Source\mbedtls_open\library/pk_wrap.c **** }
 121:Source\mbedtls_open\library/pk_wrap.c **** 
 122:Source\mbedtls_open\library/pk_wrap.c **** static int rsa_decrypt_wrap( void *ctx,
 123:Source\mbedtls_open\library/pk_wrap.c ****                     const unsigned char *input, size_t ilen,
 124:Source\mbedtls_open\library/pk_wrap.c ****                     unsigned char *output, size_t *olen, size_t osize,
 125:Source\mbedtls_open\library/pk_wrap.c ****                     int (*f_rng)(void *, unsigned char *, size_t), void *p_rng )
 126:Source\mbedtls_open\library/pk_wrap.c **** {
 127:Source\mbedtls_open\library/pk_wrap.c ****     mbedtls_rsa_context * rsa = (mbedtls_rsa_context *) ctx;
 128:Source\mbedtls_open\library/pk_wrap.c **** 
 129:Source\mbedtls_open\library/pk_wrap.c ****     if( ilen != mbedtls_rsa_get_len( rsa ) )
 130:Source\mbedtls_open\library/pk_wrap.c ****         return( MBEDTLS_ERR_RSA_BAD_INPUT_DATA );
 131:Source\mbedtls_open\library/pk_wrap.c **** 
 132:Source\mbedtls_open\library/pk_wrap.c ****     return( mbedtls_rsa_pkcs1_decrypt( rsa, f_rng, p_rng,
 133:Source\mbedtls_open\library/pk_wrap.c ****                 MBEDTLS_RSA_PRIVATE, olen, input, output, osize ) );
 134:Source\mbedtls_open\library/pk_wrap.c **** }
 135:Source\mbedtls_open\library/pk_wrap.c **** 
 136:Source\mbedtls_open\library/pk_wrap.c **** static int rsa_encrypt_wrap( void *ctx,
 137:Source\mbedtls_open\library/pk_wrap.c ****                     const unsigned char *input, size_t ilen,
 138:Source\mbedtls_open\library/pk_wrap.c ****                     unsigned char *output, size_t *olen, size_t osize,
 139:Source\mbedtls_open\library/pk_wrap.c ****                     int (*f_rng)(void *, unsigned char *, size_t), void *p_rng )
 140:Source\mbedtls_open\library/pk_wrap.c **** {
 141:Source\mbedtls_open\library/pk_wrap.c ****     mbedtls_rsa_context * rsa = (mbedtls_rsa_context *) ctx;
 142:Source\mbedtls_open\library/pk_wrap.c ****     *olen = mbedtls_rsa_get_len( rsa );
 143:Source\mbedtls_open\library/pk_wrap.c **** 
 144:Source\mbedtls_open\library/pk_wrap.c ****     if( *olen > osize )
 145:Source\mbedtls_open\library/pk_wrap.c ****         return( MBEDTLS_ERR_RSA_OUTPUT_TOO_LARGE );
 146:Source\mbedtls_open\library/pk_wrap.c **** 
 147:Source\mbedtls_open\library/pk_wrap.c ****     return( mbedtls_rsa_pkcs1_encrypt( rsa, f_rng, p_rng, MBEDTLS_RSA_PUBLIC,
 148:Source\mbedtls_open\library/pk_wrap.c ****                                        ilen, input, output ) );
 149:Source\mbedtls_open\library/pk_wrap.c **** }
 150:Source\mbedtls_open\library/pk_wrap.c **** 
 151:Source\mbedtls_open\library/pk_wrap.c **** static int rsa_check_pair_wrap( const void *pub, const void *prv )
 152:Source\mbedtls_open\library/pk_wrap.c **** {
 153:Source\mbedtls_open\library/pk_wrap.c ****     return( mbedtls_rsa_check_pub_priv( (const mbedtls_rsa_context *) pub,
 154:Source\mbedtls_open\library/pk_wrap.c ****                                 (const mbedtls_rsa_context *) prv ) );
 155:Source\mbedtls_open\library/pk_wrap.c **** }
 156:Source\mbedtls_open\library/pk_wrap.c **** 
 157:Source\mbedtls_open\library/pk_wrap.c **** static void *rsa_alloc_wrap( void )
 158:Source\mbedtls_open\library/pk_wrap.c **** {
 159:Source\mbedtls_open\library/pk_wrap.c ****     void *ctx = mbedtls_calloc( 1, sizeof( mbedtls_rsa_context ) );
 160:Source\mbedtls_open\library/pk_wrap.c **** 
 161:Source\mbedtls_open\library/pk_wrap.c ****     if( ctx != NULL )
 162:Source\mbedtls_open\library/pk_wrap.c ****         mbedtls_rsa_init( (mbedtls_rsa_context *) ctx, 0, 0 );
 163:Source\mbedtls_open\library/pk_wrap.c **** 
ARM GAS  C:\Users\Phuong\AppData\Local\Temp\cc9PPFKV.s 			page 5


 164:Source\mbedtls_open\library/pk_wrap.c ****     return( ctx );
 165:Source\mbedtls_open\library/pk_wrap.c **** }
 166:Source\mbedtls_open\library/pk_wrap.c **** 
 167:Source\mbedtls_open\library/pk_wrap.c **** static void rsa_free_wrap( void *ctx )
 168:Source\mbedtls_open\library/pk_wrap.c **** {
 169:Source\mbedtls_open\library/pk_wrap.c ****     mbedtls_rsa_free( (mbedtls_rsa_context *) ctx );
 170:Source\mbedtls_open\library/pk_wrap.c ****     mbedtls_free( ctx );
 171:Source\mbedtls_open\library/pk_wrap.c **** }
 172:Source\mbedtls_open\library/pk_wrap.c **** 
 173:Source\mbedtls_open\library/pk_wrap.c **** static void rsa_debug( const void *ctx, mbedtls_pk_debug_item *items )
 174:Source\mbedtls_open\library/pk_wrap.c **** {
  66              		.loc 1 174 0
  67              		.cfi_startproc
  68              		@ args = 0, pretend = 0, frame = 0
  69              		@ frame_needed = 0, uses_anonymous_args = 0
  70              		@ link register save eliminated.
  71              	.LVL6:
 175:Source\mbedtls_open\library/pk_wrap.c ****     items->type = MBEDTLS_PK_DEBUG_MPI;
  72              		.loc 1 175 0
  73 0000 0123     		movs	r3, #1
  74 0002 0B70     		strb	r3, [r1]
 176:Source\mbedtls_open\library/pk_wrap.c ****     items->name = "rsa.N";
  75              		.loc 1 176 0
  76 0004 054A     		ldr	r2, .L6
  77 0006 4A60     		str	r2, [r1, #4]
 177:Source\mbedtls_open\library/pk_wrap.c ****     items->value = &( ((mbedtls_rsa_context *) ctx)->N );
  78              		.loc 1 177 0
  79 0008 0200     		movs	r2, r0
  80 000a 0832     		adds	r2, r2, #8
  81 000c 8A60     		str	r2, [r1, #8]
  82              	.LVL7:
 178:Source\mbedtls_open\library/pk_wrap.c **** 
 179:Source\mbedtls_open\library/pk_wrap.c ****     items++;
 180:Source\mbedtls_open\library/pk_wrap.c **** 
 181:Source\mbedtls_open\library/pk_wrap.c ****     items->type = MBEDTLS_PK_DEBUG_MPI;
  83              		.loc 1 181 0
  84 000e 0B73     		strb	r3, [r1, #12]
 182:Source\mbedtls_open\library/pk_wrap.c ****     items->name = "rsa.E";
  85              		.loc 1 182 0
  86 0010 034B     		ldr	r3, .L6+4
  87 0012 0B61     		str	r3, [r1, #16]
 183:Source\mbedtls_open\library/pk_wrap.c ****     items->value = &( ((mbedtls_rsa_context *) ctx)->E );
  88              		.loc 1 183 0
  89 0014 1430     		adds	r0, r0, #20
  90              	.LVL8:
  91 0016 4861     		str	r0, [r1, #20]
 184:Source\mbedtls_open\library/pk_wrap.c **** }
  92              		.loc 1 184 0
  93              		@ sp needed
  94 0018 7047     		bx	lr
  95              	.L7:
  96 001a C046     		.align	2
  97              	.L6:
  98 001c 00000000 		.word	.LC0
  99 0020 08000000 		.word	.LC2
 100              		.cfi_endproc
 101              	.LFE13:
ARM GAS  C:\Users\Phuong\AppData\Local\Temp\cc9PPFKV.s 			page 6


 102              		.size	rsa_debug, .-rsa_debug
 103              		.section	.text.eckey_can_do,"ax",%progbits
 104              		.align	2
 105              		.code	16
 106              		.thumb_func
 107              		.type	eckey_can_do, %function
 108              	eckey_can_do:
 109              	.LFB14:
 185:Source\mbedtls_open\library/pk_wrap.c **** 
 186:Source\mbedtls_open\library/pk_wrap.c **** const mbedtls_pk_info_t mbedtls_rsa_info = {
 187:Source\mbedtls_open\library/pk_wrap.c ****     MBEDTLS_PK_RSA,
 188:Source\mbedtls_open\library/pk_wrap.c ****     "RSA",
 189:Source\mbedtls_open\library/pk_wrap.c ****     rsa_get_bitlen,
 190:Source\mbedtls_open\library/pk_wrap.c ****     rsa_can_do,
 191:Source\mbedtls_open\library/pk_wrap.c ****     rsa_verify_wrap,
 192:Source\mbedtls_open\library/pk_wrap.c ****     rsa_sign_wrap,
 193:Source\mbedtls_open\library/pk_wrap.c **** #if defined(MBEDTLS_ECDSA_C) && defined(MBEDTLS_ECP_RESTARTABLE)
 194:Source\mbedtls_open\library/pk_wrap.c ****     NULL,
 195:Source\mbedtls_open\library/pk_wrap.c ****     NULL,
 196:Source\mbedtls_open\library/pk_wrap.c **** #endif
 197:Source\mbedtls_open\library/pk_wrap.c ****     rsa_decrypt_wrap,
 198:Source\mbedtls_open\library/pk_wrap.c ****     rsa_encrypt_wrap,
 199:Source\mbedtls_open\library/pk_wrap.c ****     rsa_check_pair_wrap,
 200:Source\mbedtls_open\library/pk_wrap.c ****     rsa_alloc_wrap,
 201:Source\mbedtls_open\library/pk_wrap.c ****     rsa_free_wrap,
 202:Source\mbedtls_open\library/pk_wrap.c **** #if defined(MBEDTLS_ECDSA_C) && defined(MBEDTLS_ECP_RESTARTABLE)
 203:Source\mbedtls_open\library/pk_wrap.c ****     NULL,
 204:Source\mbedtls_open\library/pk_wrap.c ****     NULL,
 205:Source\mbedtls_open\library/pk_wrap.c **** #endif
 206:Source\mbedtls_open\library/pk_wrap.c ****     rsa_debug,
 207:Source\mbedtls_open\library/pk_wrap.c **** };
 208:Source\mbedtls_open\library/pk_wrap.c **** #endif /* MBEDTLS_RSA_C */
 209:Source\mbedtls_open\library/pk_wrap.c **** 
 210:Source\mbedtls_open\library/pk_wrap.c **** #if defined(MBEDTLS_ECP_C)
 211:Source\mbedtls_open\library/pk_wrap.c **** /*
 212:Source\mbedtls_open\library/pk_wrap.c ****  * Generic EC key
 213:Source\mbedtls_open\library/pk_wrap.c ****  */
 214:Source\mbedtls_open\library/pk_wrap.c **** static int eckey_can_do( mbedtls_pk_type_t type )
 215:Source\mbedtls_open\library/pk_wrap.c **** {
 110              		.loc 1 215 0
 111              		.cfi_startproc
 112              		@ args = 0, pretend = 0, frame = 0
 113              		@ frame_needed = 0, uses_anonymous_args = 0
 114              		@ link register save eliminated.
 115              	.LVL9:
 216:Source\mbedtls_open\library/pk_wrap.c ****     return( type == MBEDTLS_PK_ECKEY ||
 217:Source\mbedtls_open\library/pk_wrap.c ****             type == MBEDTLS_PK_ECKEY_DH ||
 116              		.loc 1 217 0
 117 0000 0238     		subs	r0, r0, #2
 118              	.LVL10:
 119 0002 C3B2     		uxtb	r3, r0
 120 0004 0020     		movs	r0, #0
 121 0006 0222     		movs	r2, #2
 122 0008 9A42     		cmp	r2, r3
 123 000a 4041     		adcs	r0, r0, r0
 124 000c C0B2     		uxtb	r0, r0
 218:Source\mbedtls_open\library/pk_wrap.c ****             type == MBEDTLS_PK_ECDSA );
ARM GAS  C:\Users\Phuong\AppData\Local\Temp\cc9PPFKV.s 			page 7


 219:Source\mbedtls_open\library/pk_wrap.c **** }
 125              		.loc 1 219 0
 126              		@ sp needed
 127 000e 7047     		bx	lr
 128              		.cfi_endproc
 129              	.LFE14:
 130              		.size	eckey_can_do, .-eckey_can_do
 131              		.section	.text.eckey_get_bitlen,"ax",%progbits
 132              		.align	2
 133              		.code	16
 134              		.thumb_func
 135              		.type	eckey_get_bitlen, %function
 136              	eckey_get_bitlen:
 137              	.LFB15:
 220:Source\mbedtls_open\library/pk_wrap.c **** 
 221:Source\mbedtls_open\library/pk_wrap.c **** static size_t eckey_get_bitlen( const void *ctx )
 222:Source\mbedtls_open\library/pk_wrap.c **** {
 138              		.loc 1 222 0
 139              		.cfi_startproc
 140              		@ args = 0, pretend = 0, frame = 0
 141              		@ frame_needed = 0, uses_anonymous_args = 0
 142              		@ link register save eliminated.
 143              	.LVL11:
 223:Source\mbedtls_open\library/pk_wrap.c ****     return( ((mbedtls_ecp_keypair *) ctx)->grp.pbits );
 144              		.loc 1 223 0
 145 0000 806D     		ldr	r0, [r0, #88]
 146              	.LVL12:
 224:Source\mbedtls_open\library/pk_wrap.c **** }
 147              		.loc 1 224 0
 148              		@ sp needed
 149 0002 7047     		bx	lr
 150              		.cfi_endproc
 151              	.LFE15:
 152              		.size	eckey_get_bitlen, .-eckey_get_bitlen
 153              		.section	.text.eckey_debug,"ax",%progbits
 154              		.align	2
 155              		.code	16
 156              		.thumb_func
 157              		.type	eckey_debug, %function
 158              	eckey_debug:
 159              	.LFB21:
 225:Source\mbedtls_open\library/pk_wrap.c **** 
 226:Source\mbedtls_open\library/pk_wrap.c **** #if defined(MBEDTLS_ECDSA_C)
 227:Source\mbedtls_open\library/pk_wrap.c **** /* Forward declarations */
 228:Source\mbedtls_open\library/pk_wrap.c **** static int ecdsa_verify_wrap( void *ctx, mbedtls_md_type_t md_alg,
 229:Source\mbedtls_open\library/pk_wrap.c ****                        const unsigned char *hash, size_t hash_len,
 230:Source\mbedtls_open\library/pk_wrap.c ****                        const unsigned char *sig, size_t sig_len );
 231:Source\mbedtls_open\library/pk_wrap.c **** 
 232:Source\mbedtls_open\library/pk_wrap.c **** static int ecdsa_sign_wrap( void *ctx, mbedtls_md_type_t md_alg,
 233:Source\mbedtls_open\library/pk_wrap.c ****                    const unsigned char *hash, size_t hash_len,
 234:Source\mbedtls_open\library/pk_wrap.c ****                    unsigned char *sig, size_t *sig_len,
 235:Source\mbedtls_open\library/pk_wrap.c ****                    int (*f_rng)(void *, unsigned char *, size_t), void *p_rng );
 236:Source\mbedtls_open\library/pk_wrap.c **** 
 237:Source\mbedtls_open\library/pk_wrap.c **** static int eckey_verify_wrap( void *ctx, mbedtls_md_type_t md_alg,
 238:Source\mbedtls_open\library/pk_wrap.c ****                        const unsigned char *hash, size_t hash_len,
 239:Source\mbedtls_open\library/pk_wrap.c ****                        const unsigned char *sig, size_t sig_len )
 240:Source\mbedtls_open\library/pk_wrap.c **** {
ARM GAS  C:\Users\Phuong\AppData\Local\Temp\cc9PPFKV.s 			page 8


 241:Source\mbedtls_open\library/pk_wrap.c ****     int ret;
 242:Source\mbedtls_open\library/pk_wrap.c ****     mbedtls_ecdsa_context ecdsa;
 243:Source\mbedtls_open\library/pk_wrap.c **** 
 244:Source\mbedtls_open\library/pk_wrap.c ****     mbedtls_ecdsa_init( &ecdsa );
 245:Source\mbedtls_open\library/pk_wrap.c **** 
 246:Source\mbedtls_open\library/pk_wrap.c ****     if( ( ret = mbedtls_ecdsa_from_keypair( &ecdsa, ctx ) ) == 0 )
 247:Source\mbedtls_open\library/pk_wrap.c ****         ret = ecdsa_verify_wrap( &ecdsa, md_alg, hash, hash_len, sig, sig_len );
 248:Source\mbedtls_open\library/pk_wrap.c **** 
 249:Source\mbedtls_open\library/pk_wrap.c ****     mbedtls_ecdsa_free( &ecdsa );
 250:Source\mbedtls_open\library/pk_wrap.c **** 
 251:Source\mbedtls_open\library/pk_wrap.c ****     return( ret );
 252:Source\mbedtls_open\library/pk_wrap.c **** }
 253:Source\mbedtls_open\library/pk_wrap.c **** 
 254:Source\mbedtls_open\library/pk_wrap.c **** static int eckey_sign_wrap( void *ctx, mbedtls_md_type_t md_alg,
 255:Source\mbedtls_open\library/pk_wrap.c ****                    const unsigned char *hash, size_t hash_len,
 256:Source\mbedtls_open\library/pk_wrap.c ****                    unsigned char *sig, size_t *sig_len,
 257:Source\mbedtls_open\library/pk_wrap.c ****                    int (*f_rng)(void *, unsigned char *, size_t), void *p_rng )
 258:Source\mbedtls_open\library/pk_wrap.c **** {
 259:Source\mbedtls_open\library/pk_wrap.c ****     int ret;
 260:Source\mbedtls_open\library/pk_wrap.c ****     mbedtls_ecdsa_context ecdsa;
 261:Source\mbedtls_open\library/pk_wrap.c **** 
 262:Source\mbedtls_open\library/pk_wrap.c ****     mbedtls_ecdsa_init( &ecdsa );
 263:Source\mbedtls_open\library/pk_wrap.c **** 
 264:Source\mbedtls_open\library/pk_wrap.c ****     if( ( ret = mbedtls_ecdsa_from_keypair( &ecdsa, ctx ) ) == 0 )
 265:Source\mbedtls_open\library/pk_wrap.c ****         ret = ecdsa_sign_wrap( &ecdsa, md_alg, hash, hash_len, sig, sig_len,
 266:Source\mbedtls_open\library/pk_wrap.c ****                                f_rng, p_rng );
 267:Source\mbedtls_open\library/pk_wrap.c **** 
 268:Source\mbedtls_open\library/pk_wrap.c ****     mbedtls_ecdsa_free( &ecdsa );
 269:Source\mbedtls_open\library/pk_wrap.c **** 
 270:Source\mbedtls_open\library/pk_wrap.c ****     return( ret );
 271:Source\mbedtls_open\library/pk_wrap.c **** }
 272:Source\mbedtls_open\library/pk_wrap.c **** 
 273:Source\mbedtls_open\library/pk_wrap.c **** #if defined(MBEDTLS_ECP_RESTARTABLE)
 274:Source\mbedtls_open\library/pk_wrap.c **** /* Forward declarations */
 275:Source\mbedtls_open\library/pk_wrap.c **** static int ecdsa_verify_rs_wrap( void *ctx, mbedtls_md_type_t md_alg,
 276:Source\mbedtls_open\library/pk_wrap.c ****                        const unsigned char *hash, size_t hash_len,
 277:Source\mbedtls_open\library/pk_wrap.c ****                        const unsigned char *sig, size_t sig_len,
 278:Source\mbedtls_open\library/pk_wrap.c ****                        void *rs_ctx );
 279:Source\mbedtls_open\library/pk_wrap.c **** 
 280:Source\mbedtls_open\library/pk_wrap.c **** static int ecdsa_sign_rs_wrap( void *ctx, mbedtls_md_type_t md_alg,
 281:Source\mbedtls_open\library/pk_wrap.c ****                    const unsigned char *hash, size_t hash_len,
 282:Source\mbedtls_open\library/pk_wrap.c ****                    unsigned char *sig, size_t *sig_len,
 283:Source\mbedtls_open\library/pk_wrap.c ****                    int (*f_rng)(void *, unsigned char *, size_t), void *p_rng,
 284:Source\mbedtls_open\library/pk_wrap.c ****                    void *rs_ctx );
 285:Source\mbedtls_open\library/pk_wrap.c **** 
 286:Source\mbedtls_open\library/pk_wrap.c **** /*
 287:Source\mbedtls_open\library/pk_wrap.c ****  * Restart context for ECDSA operations with ECKEY context
 288:Source\mbedtls_open\library/pk_wrap.c ****  *
 289:Source\mbedtls_open\library/pk_wrap.c ****  * We need to store an actual ECDSA context, as we need to pass the same to
 290:Source\mbedtls_open\library/pk_wrap.c ****  * the underlying ecdsa function, so we can't create it on the fly every time.
 291:Source\mbedtls_open\library/pk_wrap.c ****  */
 292:Source\mbedtls_open\library/pk_wrap.c **** typedef struct
 293:Source\mbedtls_open\library/pk_wrap.c **** {
 294:Source\mbedtls_open\library/pk_wrap.c ****     mbedtls_ecdsa_restart_ctx ecdsa_rs;
 295:Source\mbedtls_open\library/pk_wrap.c ****     mbedtls_ecdsa_context ecdsa_ctx;
 296:Source\mbedtls_open\library/pk_wrap.c **** } eckey_restart_ctx;
 297:Source\mbedtls_open\library/pk_wrap.c **** 
ARM GAS  C:\Users\Phuong\AppData\Local\Temp\cc9PPFKV.s 			page 9


 298:Source\mbedtls_open\library/pk_wrap.c **** static void *eckey_rs_alloc( void )
 299:Source\mbedtls_open\library/pk_wrap.c **** {
 300:Source\mbedtls_open\library/pk_wrap.c ****     eckey_restart_ctx *rs_ctx;
 301:Source\mbedtls_open\library/pk_wrap.c **** 
 302:Source\mbedtls_open\library/pk_wrap.c ****     void *ctx = mbedtls_calloc( 1, sizeof( eckey_restart_ctx ) );
 303:Source\mbedtls_open\library/pk_wrap.c **** 
 304:Source\mbedtls_open\library/pk_wrap.c ****     if( ctx != NULL )
 305:Source\mbedtls_open\library/pk_wrap.c ****     {
 306:Source\mbedtls_open\library/pk_wrap.c ****         rs_ctx = ctx;
 307:Source\mbedtls_open\library/pk_wrap.c ****         mbedtls_ecdsa_restart_init( &rs_ctx->ecdsa_rs );
 308:Source\mbedtls_open\library/pk_wrap.c ****         mbedtls_ecdsa_init( &rs_ctx->ecdsa_ctx );
 309:Source\mbedtls_open\library/pk_wrap.c ****     }
 310:Source\mbedtls_open\library/pk_wrap.c **** 
 311:Source\mbedtls_open\library/pk_wrap.c ****     return( ctx );
 312:Source\mbedtls_open\library/pk_wrap.c **** }
 313:Source\mbedtls_open\library/pk_wrap.c **** 
 314:Source\mbedtls_open\library/pk_wrap.c **** static void eckey_rs_free( void *ctx )
 315:Source\mbedtls_open\library/pk_wrap.c **** {
 316:Source\mbedtls_open\library/pk_wrap.c ****     eckey_restart_ctx *rs_ctx;
 317:Source\mbedtls_open\library/pk_wrap.c **** 
 318:Source\mbedtls_open\library/pk_wrap.c ****     if( ctx == NULL)
 319:Source\mbedtls_open\library/pk_wrap.c ****         return;
 320:Source\mbedtls_open\library/pk_wrap.c **** 
 321:Source\mbedtls_open\library/pk_wrap.c ****     rs_ctx = ctx;
 322:Source\mbedtls_open\library/pk_wrap.c ****     mbedtls_ecdsa_restart_free( &rs_ctx->ecdsa_rs );
 323:Source\mbedtls_open\library/pk_wrap.c ****     mbedtls_ecdsa_free( &rs_ctx->ecdsa_ctx );
 324:Source\mbedtls_open\library/pk_wrap.c **** 
 325:Source\mbedtls_open\library/pk_wrap.c ****     mbedtls_free( ctx );
 326:Source\mbedtls_open\library/pk_wrap.c **** }
 327:Source\mbedtls_open\library/pk_wrap.c **** 
 328:Source\mbedtls_open\library/pk_wrap.c **** static int eckey_verify_rs_wrap( void *ctx, mbedtls_md_type_t md_alg,
 329:Source\mbedtls_open\library/pk_wrap.c ****                        const unsigned char *hash, size_t hash_len,
 330:Source\mbedtls_open\library/pk_wrap.c ****                        const unsigned char *sig, size_t sig_len,
 331:Source\mbedtls_open\library/pk_wrap.c ****                        void *rs_ctx )
 332:Source\mbedtls_open\library/pk_wrap.c **** {
 333:Source\mbedtls_open\library/pk_wrap.c ****     int ret;
 334:Source\mbedtls_open\library/pk_wrap.c ****     eckey_restart_ctx *rs = rs_ctx;
 335:Source\mbedtls_open\library/pk_wrap.c **** 
 336:Source\mbedtls_open\library/pk_wrap.c ****     /* Should never happen */
 337:Source\mbedtls_open\library/pk_wrap.c ****     if( rs == NULL )
 338:Source\mbedtls_open\library/pk_wrap.c ****         return( MBEDTLS_ERR_PK_BAD_INPUT_DATA );
 339:Source\mbedtls_open\library/pk_wrap.c **** 
 340:Source\mbedtls_open\library/pk_wrap.c ****     /* set up our own sub-context if needed (that is, on first run) */
 341:Source\mbedtls_open\library/pk_wrap.c ****     if( rs->ecdsa_ctx.grp.pbits == 0 )
 342:Source\mbedtls_open\library/pk_wrap.c ****         MBEDTLS_MPI_CHK( mbedtls_ecdsa_from_keypair( &rs->ecdsa_ctx, ctx ) );
 343:Source\mbedtls_open\library/pk_wrap.c **** 
 344:Source\mbedtls_open\library/pk_wrap.c ****     MBEDTLS_MPI_CHK( ecdsa_verify_rs_wrap( &rs->ecdsa_ctx,
 345:Source\mbedtls_open\library/pk_wrap.c ****                                            md_alg, hash, hash_len,
 346:Source\mbedtls_open\library/pk_wrap.c ****                                            sig, sig_len, &rs->ecdsa_rs ) );
 347:Source\mbedtls_open\library/pk_wrap.c **** 
 348:Source\mbedtls_open\library/pk_wrap.c **** cleanup:
 349:Source\mbedtls_open\library/pk_wrap.c ****     return( ret );
 350:Source\mbedtls_open\library/pk_wrap.c **** }
 351:Source\mbedtls_open\library/pk_wrap.c **** 
 352:Source\mbedtls_open\library/pk_wrap.c **** static int eckey_sign_rs_wrap( void *ctx, mbedtls_md_type_t md_alg,
 353:Source\mbedtls_open\library/pk_wrap.c ****                    const unsigned char *hash, size_t hash_len,
 354:Source\mbedtls_open\library/pk_wrap.c ****                    unsigned char *sig, size_t *sig_len,
ARM GAS  C:\Users\Phuong\AppData\Local\Temp\cc9PPFKV.s 			page 10


 355:Source\mbedtls_open\library/pk_wrap.c ****                    int (*f_rng)(void *, unsigned char *, size_t), void *p_rng,
 356:Source\mbedtls_open\library/pk_wrap.c ****                        void *rs_ctx )
 357:Source\mbedtls_open\library/pk_wrap.c **** {
 358:Source\mbedtls_open\library/pk_wrap.c ****     int ret;
 359:Source\mbedtls_open\library/pk_wrap.c ****     eckey_restart_ctx *rs = rs_ctx;
 360:Source\mbedtls_open\library/pk_wrap.c **** 
 361:Source\mbedtls_open\library/pk_wrap.c ****     /* Should never happen */
 362:Source\mbedtls_open\library/pk_wrap.c ****     if( rs == NULL )
 363:Source\mbedtls_open\library/pk_wrap.c ****         return( MBEDTLS_ERR_PK_BAD_INPUT_DATA );
 364:Source\mbedtls_open\library/pk_wrap.c **** 
 365:Source\mbedtls_open\library/pk_wrap.c ****     /* set up our own sub-context if needed (that is, on first run) */
 366:Source\mbedtls_open\library/pk_wrap.c ****     if( rs->ecdsa_ctx.grp.pbits == 0 )
 367:Source\mbedtls_open\library/pk_wrap.c ****         MBEDTLS_MPI_CHK( mbedtls_ecdsa_from_keypair( &rs->ecdsa_ctx, ctx ) );
 368:Source\mbedtls_open\library/pk_wrap.c **** 
 369:Source\mbedtls_open\library/pk_wrap.c ****     MBEDTLS_MPI_CHK( ecdsa_sign_rs_wrap( &rs->ecdsa_ctx, md_alg,
 370:Source\mbedtls_open\library/pk_wrap.c ****                                          hash, hash_len, sig, sig_len,
 371:Source\mbedtls_open\library/pk_wrap.c ****                                          f_rng, p_rng, &rs->ecdsa_rs ) );
 372:Source\mbedtls_open\library/pk_wrap.c **** 
 373:Source\mbedtls_open\library/pk_wrap.c **** cleanup:
 374:Source\mbedtls_open\library/pk_wrap.c ****     return( ret );
 375:Source\mbedtls_open\library/pk_wrap.c **** }
 376:Source\mbedtls_open\library/pk_wrap.c **** #endif /* MBEDTLS_ECP_RESTARTABLE */
 377:Source\mbedtls_open\library/pk_wrap.c **** #endif /* MBEDTLS_ECDSA_C */
 378:Source\mbedtls_open\library/pk_wrap.c **** 
 379:Source\mbedtls_open\library/pk_wrap.c **** static int eckey_check_pair( const void *pub, const void *prv )
 380:Source\mbedtls_open\library/pk_wrap.c **** {
 381:Source\mbedtls_open\library/pk_wrap.c ****     return( mbedtls_ecp_check_pub_priv( (const mbedtls_ecp_keypair *) pub,
 382:Source\mbedtls_open\library/pk_wrap.c ****                                 (const mbedtls_ecp_keypair *) prv ) );
 383:Source\mbedtls_open\library/pk_wrap.c **** }
 384:Source\mbedtls_open\library/pk_wrap.c **** 
 385:Source\mbedtls_open\library/pk_wrap.c **** static void *eckey_alloc_wrap( void )
 386:Source\mbedtls_open\library/pk_wrap.c **** {
 387:Source\mbedtls_open\library/pk_wrap.c ****     void *ctx = mbedtls_calloc( 1, sizeof( mbedtls_ecp_keypair ) );
 388:Source\mbedtls_open\library/pk_wrap.c **** 
 389:Source\mbedtls_open\library/pk_wrap.c ****     if( ctx != NULL )
 390:Source\mbedtls_open\library/pk_wrap.c ****         mbedtls_ecp_keypair_init( ctx );
 391:Source\mbedtls_open\library/pk_wrap.c **** 
 392:Source\mbedtls_open\library/pk_wrap.c ****     return( ctx );
 393:Source\mbedtls_open\library/pk_wrap.c **** }
 394:Source\mbedtls_open\library/pk_wrap.c **** 
 395:Source\mbedtls_open\library/pk_wrap.c **** static void eckey_free_wrap( void *ctx )
 396:Source\mbedtls_open\library/pk_wrap.c **** {
 397:Source\mbedtls_open\library/pk_wrap.c ****     mbedtls_ecp_keypair_free( (mbedtls_ecp_keypair *) ctx );
 398:Source\mbedtls_open\library/pk_wrap.c ****     mbedtls_free( ctx );
 399:Source\mbedtls_open\library/pk_wrap.c **** }
 400:Source\mbedtls_open\library/pk_wrap.c **** 
 401:Source\mbedtls_open\library/pk_wrap.c **** static void eckey_debug( const void *ctx, mbedtls_pk_debug_item *items )
 402:Source\mbedtls_open\library/pk_wrap.c **** {
 160              		.loc 1 402 0
 161              		.cfi_startproc
 162              		@ args = 0, pretend = 0, frame = 0
 163              		@ frame_needed = 0, uses_anonymous_args = 0
 164              		@ link register save eliminated.
 165              	.LVL13:
 403:Source\mbedtls_open\library/pk_wrap.c ****     items->type = MBEDTLS_PK_DEBUG_ECP;
 166              		.loc 1 403 0
 167 0000 0223     		movs	r3, #2
ARM GAS  C:\Users\Phuong\AppData\Local\Temp\cc9PPFKV.s 			page 11


 168 0002 0B70     		strb	r3, [r1]
 404:Source\mbedtls_open\library/pk_wrap.c ****     items->name = "eckey.Q";
 169              		.loc 1 404 0
 170 0004 024B     		ldr	r3, .L11
 171 0006 4B60     		str	r3, [r1, #4]
 405:Source\mbedtls_open\library/pk_wrap.c ****     items->value = &( ((mbedtls_ecp_keypair *) ctx)->Q );
 172              		.loc 1 405 0
 173 0008 8830     		adds	r0, r0, #136
 174              	.LVL14:
 175 000a 8860     		str	r0, [r1, #8]
 406:Source\mbedtls_open\library/pk_wrap.c **** }
 176              		.loc 1 406 0
 177              		@ sp needed
 178 000c 7047     		bx	lr
 179              	.L12:
 180 000e C046     		.align	2
 181              	.L11:
 182 0010 10000000 		.word	.LC4
 183              		.cfi_endproc
 184              	.LFE21:
 185              		.size	eckey_debug, .-eckey_debug
 186              		.section	.text.eckeydh_can_do,"ax",%progbits
 187              		.align	2
 188              		.code	16
 189              		.thumb_func
 190              		.type	eckeydh_can_do, %function
 191              	eckeydh_can_do:
 192              	.LFB22:
 407:Source\mbedtls_open\library/pk_wrap.c **** 
 408:Source\mbedtls_open\library/pk_wrap.c **** const mbedtls_pk_info_t mbedtls_eckey_info = {
 409:Source\mbedtls_open\library/pk_wrap.c ****     MBEDTLS_PK_ECKEY,
 410:Source\mbedtls_open\library/pk_wrap.c ****     "EC",
 411:Source\mbedtls_open\library/pk_wrap.c ****     eckey_get_bitlen,
 412:Source\mbedtls_open\library/pk_wrap.c ****     eckey_can_do,
 413:Source\mbedtls_open\library/pk_wrap.c **** #if defined(MBEDTLS_ECDSA_C)
 414:Source\mbedtls_open\library/pk_wrap.c ****     eckey_verify_wrap,
 415:Source\mbedtls_open\library/pk_wrap.c ****     eckey_sign_wrap,
 416:Source\mbedtls_open\library/pk_wrap.c **** #if defined(MBEDTLS_ECP_RESTARTABLE)
 417:Source\mbedtls_open\library/pk_wrap.c ****     eckey_verify_rs_wrap,
 418:Source\mbedtls_open\library/pk_wrap.c ****     eckey_sign_rs_wrap,
 419:Source\mbedtls_open\library/pk_wrap.c **** #endif
 420:Source\mbedtls_open\library/pk_wrap.c **** #else /* MBEDTLS_ECDSA_C */
 421:Source\mbedtls_open\library/pk_wrap.c ****     NULL,
 422:Source\mbedtls_open\library/pk_wrap.c ****     NULL,
 423:Source\mbedtls_open\library/pk_wrap.c **** #endif /* MBEDTLS_ECDSA_C */
 424:Source\mbedtls_open\library/pk_wrap.c ****     NULL,
 425:Source\mbedtls_open\library/pk_wrap.c ****     NULL,
 426:Source\mbedtls_open\library/pk_wrap.c ****     eckey_check_pair,
 427:Source\mbedtls_open\library/pk_wrap.c ****     eckey_alloc_wrap,
 428:Source\mbedtls_open\library/pk_wrap.c ****     eckey_free_wrap,
 429:Source\mbedtls_open\library/pk_wrap.c **** #if defined(MBEDTLS_ECDSA_C) && defined(MBEDTLS_ECP_RESTARTABLE)
 430:Source\mbedtls_open\library/pk_wrap.c ****     eckey_rs_alloc,
 431:Source\mbedtls_open\library/pk_wrap.c ****     eckey_rs_free,
 432:Source\mbedtls_open\library/pk_wrap.c **** #endif
 433:Source\mbedtls_open\library/pk_wrap.c ****     eckey_debug,
 434:Source\mbedtls_open\library/pk_wrap.c **** };
 435:Source\mbedtls_open\library/pk_wrap.c **** 
ARM GAS  C:\Users\Phuong\AppData\Local\Temp\cc9PPFKV.s 			page 12


 436:Source\mbedtls_open\library/pk_wrap.c **** /*
 437:Source\mbedtls_open\library/pk_wrap.c ****  * EC key restricted to ECDH
 438:Source\mbedtls_open\library/pk_wrap.c ****  */
 439:Source\mbedtls_open\library/pk_wrap.c **** static int eckeydh_can_do( mbedtls_pk_type_t type )
 440:Source\mbedtls_open\library/pk_wrap.c **** {
 193              		.loc 1 440 0
 194              		.cfi_startproc
 195              		@ args = 0, pretend = 0, frame = 0
 196              		@ frame_needed = 0, uses_anonymous_args = 0
 197              		@ link register save eliminated.
 198              	.LVL15:
 441:Source\mbedtls_open\library/pk_wrap.c ****     return( type == MBEDTLS_PK_ECKEY ||
 199              		.loc 1 441 0
 200 0000 0238     		subs	r0, r0, #2
 201              	.LVL16:
 202 0002 C3B2     		uxtb	r3, r0
 203 0004 0020     		movs	r0, #0
 204 0006 0122     		movs	r2, #1
 205 0008 9A42     		cmp	r2, r3
 206 000a 4041     		adcs	r0, r0, r0
 207 000c C0B2     		uxtb	r0, r0
 442:Source\mbedtls_open\library/pk_wrap.c ****             type == MBEDTLS_PK_ECKEY_DH );
 443:Source\mbedtls_open\library/pk_wrap.c **** }
 208              		.loc 1 443 0
 209              		@ sp needed
 210 000e 7047     		bx	lr
 211              		.cfi_endproc
 212              	.LFE22:
 213              		.size	eckeydh_can_do, .-eckeydh_can_do
 214              		.section	.text.ecdsa_can_do,"ax",%progbits
 215              		.align	2
 216              		.code	16
 217              		.thumb_func
 218              		.type	ecdsa_can_do, %function
 219              	ecdsa_can_do:
 220              	.LFB23:
 444:Source\mbedtls_open\library/pk_wrap.c **** 
 445:Source\mbedtls_open\library/pk_wrap.c **** const mbedtls_pk_info_t mbedtls_eckeydh_info = {
 446:Source\mbedtls_open\library/pk_wrap.c ****     MBEDTLS_PK_ECKEY_DH,
 447:Source\mbedtls_open\library/pk_wrap.c ****     "EC_DH",
 448:Source\mbedtls_open\library/pk_wrap.c ****     eckey_get_bitlen,         /* Same underlying key structure */
 449:Source\mbedtls_open\library/pk_wrap.c ****     eckeydh_can_do,
 450:Source\mbedtls_open\library/pk_wrap.c ****     NULL,
 451:Source\mbedtls_open\library/pk_wrap.c ****     NULL,
 452:Source\mbedtls_open\library/pk_wrap.c **** #if defined(MBEDTLS_ECDSA_C) && defined(MBEDTLS_ECP_RESTARTABLE)
 453:Source\mbedtls_open\library/pk_wrap.c ****     NULL,
 454:Source\mbedtls_open\library/pk_wrap.c ****     NULL,
 455:Source\mbedtls_open\library/pk_wrap.c **** #endif
 456:Source\mbedtls_open\library/pk_wrap.c ****     NULL,
 457:Source\mbedtls_open\library/pk_wrap.c ****     NULL,
 458:Source\mbedtls_open\library/pk_wrap.c ****     eckey_check_pair,
 459:Source\mbedtls_open\library/pk_wrap.c ****     eckey_alloc_wrap,       /* Same underlying key structure */
 460:Source\mbedtls_open\library/pk_wrap.c ****     eckey_free_wrap,        /* Same underlying key structure */
 461:Source\mbedtls_open\library/pk_wrap.c **** #if defined(MBEDTLS_ECDSA_C) && defined(MBEDTLS_ECP_RESTARTABLE)
 462:Source\mbedtls_open\library/pk_wrap.c ****     NULL,
 463:Source\mbedtls_open\library/pk_wrap.c ****     NULL,
 464:Source\mbedtls_open\library/pk_wrap.c **** #endif
ARM GAS  C:\Users\Phuong\AppData\Local\Temp\cc9PPFKV.s 			page 13


 465:Source\mbedtls_open\library/pk_wrap.c ****     eckey_debug,            /* Same underlying key structure */
 466:Source\mbedtls_open\library/pk_wrap.c **** };
 467:Source\mbedtls_open\library/pk_wrap.c **** #endif /* MBEDTLS_ECP_C */
 468:Source\mbedtls_open\library/pk_wrap.c **** 
 469:Source\mbedtls_open\library/pk_wrap.c **** #if defined(MBEDTLS_ECDSA_C)
 470:Source\mbedtls_open\library/pk_wrap.c **** static int ecdsa_can_do( mbedtls_pk_type_t type )
 471:Source\mbedtls_open\library/pk_wrap.c **** {
 221              		.loc 1 471 0
 222              		.cfi_startproc
 223              		@ args = 0, pretend = 0, frame = 0
 224              		@ frame_needed = 0, uses_anonymous_args = 0
 225              		@ link register save eliminated.
 226              	.LVL17:
 472:Source\mbedtls_open\library/pk_wrap.c ****     return( type == MBEDTLS_PK_ECDSA );
 227              		.loc 1 472 0
 228 0000 0438     		subs	r0, r0, #4
 229              	.LVL18:
 230 0002 4342     		rsbs	r3, r0, #0
 231 0004 5841     		adcs	r0, r0, r3
 232 0006 C0B2     		uxtb	r0, r0
 473:Source\mbedtls_open\library/pk_wrap.c **** }
 233              		.loc 1 473 0
 234              		@ sp needed
 235 0008 7047     		bx	lr
 236              		.cfi_endproc
 237              	.LFE23:
 238              		.size	ecdsa_can_do, .-ecdsa_can_do
 239              		.section	.text.rsa_alt_can_do,"ax",%progbits
 240              		.align	2
 241              		.code	16
 242              		.thumb_func
 243              		.type	rsa_alt_can_do, %function
 244              	rsa_alt_can_do:
 245              	.LFB28:
 474:Source\mbedtls_open\library/pk_wrap.c **** 
 475:Source\mbedtls_open\library/pk_wrap.c **** static int ecdsa_verify_wrap( void *ctx, mbedtls_md_type_t md_alg,
 476:Source\mbedtls_open\library/pk_wrap.c ****                        const unsigned char *hash, size_t hash_len,
 477:Source\mbedtls_open\library/pk_wrap.c ****                        const unsigned char *sig, size_t sig_len )
 478:Source\mbedtls_open\library/pk_wrap.c **** {
 479:Source\mbedtls_open\library/pk_wrap.c ****     int ret;
 480:Source\mbedtls_open\library/pk_wrap.c ****     ((void) md_alg);
 481:Source\mbedtls_open\library/pk_wrap.c **** 
 482:Source\mbedtls_open\library/pk_wrap.c ****     ret = mbedtls_ecdsa_read_signature( (mbedtls_ecdsa_context *) ctx,
 483:Source\mbedtls_open\library/pk_wrap.c ****                                 hash, hash_len, sig, sig_len );
 484:Source\mbedtls_open\library/pk_wrap.c **** 
 485:Source\mbedtls_open\library/pk_wrap.c ****     if( ret == MBEDTLS_ERR_ECP_SIG_LEN_MISMATCH )
 486:Source\mbedtls_open\library/pk_wrap.c ****         return( MBEDTLS_ERR_PK_SIG_LEN_MISMATCH );
 487:Source\mbedtls_open\library/pk_wrap.c **** 
 488:Source\mbedtls_open\library/pk_wrap.c ****     return( ret );
 489:Source\mbedtls_open\library/pk_wrap.c **** }
 490:Source\mbedtls_open\library/pk_wrap.c **** 
 491:Source\mbedtls_open\library/pk_wrap.c **** static int ecdsa_sign_wrap( void *ctx, mbedtls_md_type_t md_alg,
 492:Source\mbedtls_open\library/pk_wrap.c ****                    const unsigned char *hash, size_t hash_len,
 493:Source\mbedtls_open\library/pk_wrap.c ****                    unsigned char *sig, size_t *sig_len,
 494:Source\mbedtls_open\library/pk_wrap.c ****                    int (*f_rng)(void *, unsigned char *, size_t), void *p_rng )
 495:Source\mbedtls_open\library/pk_wrap.c **** {
 496:Source\mbedtls_open\library/pk_wrap.c ****     return( mbedtls_ecdsa_write_signature( (mbedtls_ecdsa_context *) ctx,
ARM GAS  C:\Users\Phuong\AppData\Local\Temp\cc9PPFKV.s 			page 14


 497:Source\mbedtls_open\library/pk_wrap.c ****                 md_alg, hash, hash_len, sig, sig_len, f_rng, p_rng ) );
 498:Source\mbedtls_open\library/pk_wrap.c **** }
 499:Source\mbedtls_open\library/pk_wrap.c **** 
 500:Source\mbedtls_open\library/pk_wrap.c **** #if defined(MBEDTLS_ECP_RESTARTABLE)
 501:Source\mbedtls_open\library/pk_wrap.c **** static int ecdsa_verify_rs_wrap( void *ctx, mbedtls_md_type_t md_alg,
 502:Source\mbedtls_open\library/pk_wrap.c ****                        const unsigned char *hash, size_t hash_len,
 503:Source\mbedtls_open\library/pk_wrap.c ****                        const unsigned char *sig, size_t sig_len,
 504:Source\mbedtls_open\library/pk_wrap.c ****                        void *rs_ctx )
 505:Source\mbedtls_open\library/pk_wrap.c **** {
 506:Source\mbedtls_open\library/pk_wrap.c ****     int ret;
 507:Source\mbedtls_open\library/pk_wrap.c ****     ((void) md_alg);
 508:Source\mbedtls_open\library/pk_wrap.c **** 
 509:Source\mbedtls_open\library/pk_wrap.c ****     ret = mbedtls_ecdsa_read_signature_restartable(
 510:Source\mbedtls_open\library/pk_wrap.c ****             (mbedtls_ecdsa_context *) ctx,
 511:Source\mbedtls_open\library/pk_wrap.c ****             hash, hash_len, sig, sig_len,
 512:Source\mbedtls_open\library/pk_wrap.c ****             (mbedtls_ecdsa_restart_ctx *) rs_ctx );
 513:Source\mbedtls_open\library/pk_wrap.c **** 
 514:Source\mbedtls_open\library/pk_wrap.c ****     if( ret == MBEDTLS_ERR_ECP_SIG_LEN_MISMATCH )
 515:Source\mbedtls_open\library/pk_wrap.c ****         return( MBEDTLS_ERR_PK_SIG_LEN_MISMATCH );
 516:Source\mbedtls_open\library/pk_wrap.c **** 
 517:Source\mbedtls_open\library/pk_wrap.c ****     return( ret );
 518:Source\mbedtls_open\library/pk_wrap.c **** }
 519:Source\mbedtls_open\library/pk_wrap.c **** 
 520:Source\mbedtls_open\library/pk_wrap.c **** static int ecdsa_sign_rs_wrap( void *ctx, mbedtls_md_type_t md_alg,
 521:Source\mbedtls_open\library/pk_wrap.c ****                    const unsigned char *hash, size_t hash_len,
 522:Source\mbedtls_open\library/pk_wrap.c ****                    unsigned char *sig, size_t *sig_len,
 523:Source\mbedtls_open\library/pk_wrap.c ****                    int (*f_rng)(void *, unsigned char *, size_t), void *p_rng,
 524:Source\mbedtls_open\library/pk_wrap.c ****                    void *rs_ctx )
 525:Source\mbedtls_open\library/pk_wrap.c **** {
 526:Source\mbedtls_open\library/pk_wrap.c ****     return( mbedtls_ecdsa_write_signature_restartable(
 527:Source\mbedtls_open\library/pk_wrap.c ****                 (mbedtls_ecdsa_context *) ctx,
 528:Source\mbedtls_open\library/pk_wrap.c ****                 md_alg, hash, hash_len, sig, sig_len, f_rng, p_rng,
 529:Source\mbedtls_open\library/pk_wrap.c ****                 (mbedtls_ecdsa_restart_ctx *) rs_ctx ) );
 530:Source\mbedtls_open\library/pk_wrap.c **** 
 531:Source\mbedtls_open\library/pk_wrap.c **** }
 532:Source\mbedtls_open\library/pk_wrap.c **** #endif /* MBEDTLS_ECP_RESTARTABLE */
 533:Source\mbedtls_open\library/pk_wrap.c **** 
 534:Source\mbedtls_open\library/pk_wrap.c **** static void *ecdsa_alloc_wrap( void )
 535:Source\mbedtls_open\library/pk_wrap.c **** {
 536:Source\mbedtls_open\library/pk_wrap.c ****     void *ctx = mbedtls_calloc( 1, sizeof( mbedtls_ecdsa_context ) );
 537:Source\mbedtls_open\library/pk_wrap.c **** 
 538:Source\mbedtls_open\library/pk_wrap.c ****     if( ctx != NULL )
 539:Source\mbedtls_open\library/pk_wrap.c ****         mbedtls_ecdsa_init( (mbedtls_ecdsa_context *) ctx );
 540:Source\mbedtls_open\library/pk_wrap.c **** 
 541:Source\mbedtls_open\library/pk_wrap.c ****     return( ctx );
 542:Source\mbedtls_open\library/pk_wrap.c **** }
 543:Source\mbedtls_open\library/pk_wrap.c **** 
 544:Source\mbedtls_open\library/pk_wrap.c **** static void ecdsa_free_wrap( void *ctx )
 545:Source\mbedtls_open\library/pk_wrap.c **** {
 546:Source\mbedtls_open\library/pk_wrap.c ****     mbedtls_ecdsa_free( (mbedtls_ecdsa_context *) ctx );
 547:Source\mbedtls_open\library/pk_wrap.c ****     mbedtls_free( ctx );
 548:Source\mbedtls_open\library/pk_wrap.c **** }
 549:Source\mbedtls_open\library/pk_wrap.c **** 
 550:Source\mbedtls_open\library/pk_wrap.c **** #if defined(MBEDTLS_ECP_RESTARTABLE)
 551:Source\mbedtls_open\library/pk_wrap.c **** static void *ecdsa_rs_alloc( void )
 552:Source\mbedtls_open\library/pk_wrap.c **** {
 553:Source\mbedtls_open\library/pk_wrap.c ****     void *ctx = mbedtls_calloc( 1, sizeof( mbedtls_ecdsa_restart_ctx ) );
ARM GAS  C:\Users\Phuong\AppData\Local\Temp\cc9PPFKV.s 			page 15


 554:Source\mbedtls_open\library/pk_wrap.c **** 
 555:Source\mbedtls_open\library/pk_wrap.c ****     if( ctx != NULL )
 556:Source\mbedtls_open\library/pk_wrap.c ****         mbedtls_ecdsa_restart_init( ctx );
 557:Source\mbedtls_open\library/pk_wrap.c **** 
 558:Source\mbedtls_open\library/pk_wrap.c ****     return( ctx );
 559:Source\mbedtls_open\library/pk_wrap.c **** }
 560:Source\mbedtls_open\library/pk_wrap.c **** 
 561:Source\mbedtls_open\library/pk_wrap.c **** static void ecdsa_rs_free( void *ctx )
 562:Source\mbedtls_open\library/pk_wrap.c **** {
 563:Source\mbedtls_open\library/pk_wrap.c ****     mbedtls_ecdsa_restart_free( ctx );
 564:Source\mbedtls_open\library/pk_wrap.c ****     mbedtls_free( ctx );
 565:Source\mbedtls_open\library/pk_wrap.c **** }
 566:Source\mbedtls_open\library/pk_wrap.c **** #endif /* MBEDTLS_ECP_RESTARTABLE */
 567:Source\mbedtls_open\library/pk_wrap.c **** 
 568:Source\mbedtls_open\library/pk_wrap.c **** const mbedtls_pk_info_t mbedtls_ecdsa_info = {
 569:Source\mbedtls_open\library/pk_wrap.c ****     MBEDTLS_PK_ECDSA,
 570:Source\mbedtls_open\library/pk_wrap.c ****     "ECDSA",
 571:Source\mbedtls_open\library/pk_wrap.c ****     eckey_get_bitlen,     /* Compatible key structures */
 572:Source\mbedtls_open\library/pk_wrap.c ****     ecdsa_can_do,
 573:Source\mbedtls_open\library/pk_wrap.c ****     ecdsa_verify_wrap,
 574:Source\mbedtls_open\library/pk_wrap.c ****     ecdsa_sign_wrap,
 575:Source\mbedtls_open\library/pk_wrap.c **** #if defined(MBEDTLS_ECP_RESTARTABLE)
 576:Source\mbedtls_open\library/pk_wrap.c ****     ecdsa_verify_rs_wrap,
 577:Source\mbedtls_open\library/pk_wrap.c ****     ecdsa_sign_rs_wrap,
 578:Source\mbedtls_open\library/pk_wrap.c **** #endif
 579:Source\mbedtls_open\library/pk_wrap.c ****     NULL,
 580:Source\mbedtls_open\library/pk_wrap.c ****     NULL,
 581:Source\mbedtls_open\library/pk_wrap.c ****     eckey_check_pair,   /* Compatible key structures */
 582:Source\mbedtls_open\library/pk_wrap.c ****     ecdsa_alloc_wrap,
 583:Source\mbedtls_open\library/pk_wrap.c ****     ecdsa_free_wrap,
 584:Source\mbedtls_open\library/pk_wrap.c **** #if defined(MBEDTLS_ECP_RESTARTABLE)
 585:Source\mbedtls_open\library/pk_wrap.c ****     ecdsa_rs_alloc,
 586:Source\mbedtls_open\library/pk_wrap.c ****     ecdsa_rs_free,
 587:Source\mbedtls_open\library/pk_wrap.c **** #endif
 588:Source\mbedtls_open\library/pk_wrap.c ****     eckey_debug,        /* Compatible key structures */
 589:Source\mbedtls_open\library/pk_wrap.c **** };
 590:Source\mbedtls_open\library/pk_wrap.c **** #endif /* MBEDTLS_ECDSA_C */
 591:Source\mbedtls_open\library/pk_wrap.c **** 
 592:Source\mbedtls_open\library/pk_wrap.c **** #if defined(MBEDTLS_PK_RSA_ALT_SUPPORT)
 593:Source\mbedtls_open\library/pk_wrap.c **** /*
 594:Source\mbedtls_open\library/pk_wrap.c ****  * Support for alternative RSA-private implementations
 595:Source\mbedtls_open\library/pk_wrap.c ****  */
 596:Source\mbedtls_open\library/pk_wrap.c **** 
 597:Source\mbedtls_open\library/pk_wrap.c **** static int rsa_alt_can_do( mbedtls_pk_type_t type )
 598:Source\mbedtls_open\library/pk_wrap.c **** {
 246              		.loc 1 598 0
 247              		.cfi_startproc
 248              		@ args = 0, pretend = 0, frame = 0
 249              		@ frame_needed = 0, uses_anonymous_args = 0
 250              		@ link register save eliminated.
 251              	.LVL19:
 599:Source\mbedtls_open\library/pk_wrap.c ****     return( type == MBEDTLS_PK_RSA );
 252              		.loc 1 599 0
 253 0000 0138     		subs	r0, r0, #1
 254              	.LVL20:
 255 0002 4342     		rsbs	r3, r0, #0
 256 0004 5841     		adcs	r0, r0, r3
ARM GAS  C:\Users\Phuong\AppData\Local\Temp\cc9PPFKV.s 			page 16


 257 0006 C0B2     		uxtb	r0, r0
 600:Source\mbedtls_open\library/pk_wrap.c **** }
 258              		.loc 1 600 0
 259              		@ sp needed
 260 0008 7047     		bx	lr
 261              		.cfi_endproc
 262              	.LFE28:
 263              		.size	rsa_alt_can_do, .-rsa_alt_can_do
 264              		.section	.text.rsa_alt_get_bitlen,"ax",%progbits
 265              		.align	2
 266              		.code	16
 267              		.thumb_func
 268              		.type	rsa_alt_get_bitlen, %function
 269              	rsa_alt_get_bitlen:
 270              	.LFB29:
 601:Source\mbedtls_open\library/pk_wrap.c **** 
 602:Source\mbedtls_open\library/pk_wrap.c **** static size_t rsa_alt_get_bitlen( const void *ctx )
 603:Source\mbedtls_open\library/pk_wrap.c **** {
 271              		.loc 1 603 0
 272              		.cfi_startproc
 273              		@ args = 0, pretend = 0, frame = 0
 274              		@ frame_needed = 0, uses_anonymous_args = 0
 275              	.LVL21:
 276 0000 10B5     		push	{r4, lr}
 277              		.cfi_def_cfa_offset 8
 278              		.cfi_offset 4, -8
 279              		.cfi_offset 14, -4
 280              	.LVL22:
 604:Source\mbedtls_open\library/pk_wrap.c ****     const mbedtls_rsa_alt_context *rsa_alt = (const mbedtls_rsa_alt_context *) ctx;
 605:Source\mbedtls_open\library/pk_wrap.c **** 
 606:Source\mbedtls_open\library/pk_wrap.c ****     return( 8 * rsa_alt->key_len_func( rsa_alt->key ) );
 281              		.loc 1 606 0
 282 0002 C368     		ldr	r3, [r0, #12]
 283 0004 0068     		ldr	r0, [r0]
 284              	.LVL23:
 285 0006 9847     		blx	r3
 286              	.LVL24:
 287 0008 C000     		lsls	r0, r0, #3
 607:Source\mbedtls_open\library/pk_wrap.c **** }
 288              		.loc 1 607 0
 289              		@ sp needed
 290 000a 10BD     		pop	{r4, pc}
 291              		.cfi_endproc
 292              	.LFE29:
 293              		.size	rsa_alt_get_bitlen, .-rsa_alt_get_bitlen
 294              		.section	.text.rsa_alt_sign_wrap,"ax",%progbits
 295              		.align	2
 296              		.code	16
 297              		.thumb_func
 298              		.type	rsa_alt_sign_wrap, %function
 299              	rsa_alt_sign_wrap:
 300              	.LFB30:
 608:Source\mbedtls_open\library/pk_wrap.c **** 
 609:Source\mbedtls_open\library/pk_wrap.c **** static int rsa_alt_sign_wrap( void *ctx, mbedtls_md_type_t md_alg,
 610:Source\mbedtls_open\library/pk_wrap.c ****                    const unsigned char *hash, size_t hash_len,
 611:Source\mbedtls_open\library/pk_wrap.c ****                    unsigned char *sig, size_t *sig_len,
 612:Source\mbedtls_open\library/pk_wrap.c ****                    int (*f_rng)(void *, unsigned char *, size_t), void *p_rng )
ARM GAS  C:\Users\Phuong\AppData\Local\Temp\cc9PPFKV.s 			page 17


 613:Source\mbedtls_open\library/pk_wrap.c **** {
 301              		.loc 1 613 0
 302              		.cfi_startproc
 303              		@ args = 16, pretend = 0, frame = 0
 304              		@ frame_needed = 0, uses_anonymous_args = 0
 305              	.LVL25:
 306 0000 F0B5     		push	{r4, r5, r6, r7, lr}
 307              		.cfi_def_cfa_offset 20
 308              		.cfi_offset 4, -20
 309              		.cfi_offset 5, -16
 310              		.cfi_offset 6, -12
 311              		.cfi_offset 7, -8
 312              		.cfi_offset 14, -4
 313 0002 4746     		mov	r7, r8
 314 0004 80B4     		push	{r7}
 315              		.cfi_def_cfa_offset 24
 316              		.cfi_offset 8, -24
 317 0006 84B0     		sub	sp, sp, #16
 318              		.cfi_def_cfa_offset 40
 319 0008 0400     		movs	r4, r0
 320 000a 0E00     		movs	r6, r1
 321 000c 9046     		mov	r8, r2
 322 000e 1F00     		movs	r7, r3
 323              	.LVL26:
 614:Source\mbedtls_open\library/pk_wrap.c ****     mbedtls_rsa_alt_context *rsa_alt = (mbedtls_rsa_alt_context *) ctx;
 615:Source\mbedtls_open\library/pk_wrap.c **** 
 616:Source\mbedtls_open\library/pk_wrap.c **** #if SIZE_MAX > UINT_MAX
 617:Source\mbedtls_open\library/pk_wrap.c ****     if( UINT_MAX < hash_len )
 618:Source\mbedtls_open\library/pk_wrap.c ****         return( MBEDTLS_ERR_PK_BAD_INPUT_DATA );
 619:Source\mbedtls_open\library/pk_wrap.c **** #endif /* SIZE_MAX > UINT_MAX */
 620:Source\mbedtls_open\library/pk_wrap.c **** 
 621:Source\mbedtls_open\library/pk_wrap.c ****     *sig_len = rsa_alt->key_len_func( rsa_alt->key );
 324              		.loc 1 621 0
 325 0010 0068     		ldr	r0, [r0]
 326              	.LVL27:
 327 0012 E368     		ldr	r3, [r4, #12]
 328              	.LVL28:
 329 0014 9847     		blx	r3
 330              	.LVL29:
 331 0016 0B9B     		ldr	r3, [sp, #44]
 332 0018 1860     		str	r0, [r3]
 622:Source\mbedtls_open\library/pk_wrap.c **** 
 623:Source\mbedtls_open\library/pk_wrap.c ****     return( rsa_alt->sign_func( rsa_alt->key, f_rng, p_rng, MBEDTLS_RSA_PRIVATE,
 333              		.loc 1 623 0
 334 001a A568     		ldr	r5, [r4, #8]
 335 001c 2068     		ldr	r0, [r4]
 336 001e 0A9B     		ldr	r3, [sp, #40]
 337 0020 0393     		str	r3, [sp, #12]
 338 0022 4346     		mov	r3, r8
 339 0024 0293     		str	r3, [sp, #8]
 340 0026 0197     		str	r7, [sp, #4]
 341 0028 0096     		str	r6, [sp]
 342 002a 0123     		movs	r3, #1
 343 002c 0D9A     		ldr	r2, [sp, #52]
 344 002e 0C99     		ldr	r1, [sp, #48]
 345 0030 A847     		blx	r5
 346              	.LVL30:
ARM GAS  C:\Users\Phuong\AppData\Local\Temp\cc9PPFKV.s 			page 18


 624:Source\mbedtls_open\library/pk_wrap.c ****                 md_alg, (unsigned int) hash_len, hash, sig ) );
 625:Source\mbedtls_open\library/pk_wrap.c **** }
 347              		.loc 1 625 0
 348 0032 04B0     		add	sp, sp, #16
 349              		@ sp needed
 350              	.LVL31:
 351              	.LVL32:
 352              	.LVL33:
 353 0034 04BC     		pop	{r2}
 354 0036 9046     		mov	r8, r2
 355 0038 F0BD     		pop	{r4, r5, r6, r7, pc}
 356              		.cfi_endproc
 357              	.LFE30:
 358              		.size	rsa_alt_sign_wrap, .-rsa_alt_sign_wrap
 359 003a C046     		.section	.text.rsa_alt_decrypt_wrap,"ax",%progbits
 360              		.align	2
 361              		.code	16
 362              		.thumb_func
 363              		.type	rsa_alt_decrypt_wrap, %function
 364              	rsa_alt_decrypt_wrap:
 365              	.LFB31:
 626:Source\mbedtls_open\library/pk_wrap.c **** 
 627:Source\mbedtls_open\library/pk_wrap.c **** static int rsa_alt_decrypt_wrap( void *ctx,
 628:Source\mbedtls_open\library/pk_wrap.c ****                     const unsigned char *input, size_t ilen,
 629:Source\mbedtls_open\library/pk_wrap.c ****                     unsigned char *output, size_t *olen, size_t osize,
 630:Source\mbedtls_open\library/pk_wrap.c ****                     int (*f_rng)(void *, unsigned char *, size_t), void *p_rng )
 631:Source\mbedtls_open\library/pk_wrap.c **** {
 366              		.loc 1 631 0
 367              		.cfi_startproc
 368              		@ args = 16, pretend = 0, frame = 0
 369              		@ frame_needed = 0, uses_anonymous_args = 0
 370              	.LVL34:
 371 0000 F0B5     		push	{r4, r5, r6, r7, lr}
 372              		.cfi_def_cfa_offset 20
 373              		.cfi_offset 4, -20
 374              		.cfi_offset 5, -16
 375              		.cfi_offset 6, -12
 376              		.cfi_offset 7, -8
 377              		.cfi_offset 14, -4
 378 0002 83B0     		sub	sp, sp, #12
 379              		.cfi_def_cfa_offset 32
 380 0004 0400     		movs	r4, r0
 381 0006 0E00     		movs	r6, r1
 382 0008 1500     		movs	r5, r2
 383 000a 1F00     		movs	r7, r3
 384              	.LVL35:
 632:Source\mbedtls_open\library/pk_wrap.c ****     mbedtls_rsa_alt_context *rsa_alt = (mbedtls_rsa_alt_context *) ctx;
 633:Source\mbedtls_open\library/pk_wrap.c **** 
 634:Source\mbedtls_open\library/pk_wrap.c ****     ((void) f_rng);
 635:Source\mbedtls_open\library/pk_wrap.c ****     ((void) p_rng);
 636:Source\mbedtls_open\library/pk_wrap.c **** 
 637:Source\mbedtls_open\library/pk_wrap.c ****     if( ilen != rsa_alt->key_len_func( rsa_alt->key ) )
 385              		.loc 1 637 0
 386 000c 0068     		ldr	r0, [r0]
 387              	.LVL36:
 388 000e E368     		ldr	r3, [r4, #12]
 389              	.LVL37:
ARM GAS  C:\Users\Phuong\AppData\Local\Temp\cc9PPFKV.s 			page 19


 390 0010 9847     		blx	r3
 391              	.LVL38:
 392 0012 A842     		cmp	r0, r5
 393 0014 09D1     		bne	.L20
 638:Source\mbedtls_open\library/pk_wrap.c ****         return( MBEDTLS_ERR_RSA_BAD_INPUT_DATA );
 639:Source\mbedtls_open\library/pk_wrap.c **** 
 640:Source\mbedtls_open\library/pk_wrap.c ****     return( rsa_alt->decrypt_func( rsa_alt->key,
 394              		.loc 1 640 0
 395 0016 6568     		ldr	r5, [r4, #4]
 396              	.LVL39:
 397 0018 2068     		ldr	r0, [r4]
 398 001a 099B     		ldr	r3, [sp, #36]
 399 001c 0193     		str	r3, [sp, #4]
 400 001e 0097     		str	r7, [sp]
 401 0020 3300     		movs	r3, r6
 402 0022 089A     		ldr	r2, [sp, #32]
 403 0024 0121     		movs	r1, #1
 404 0026 A847     		blx	r5
 405              	.LVL40:
 406 0028 00E0     		b	.L19
 407              	.LVL41:
 408              	.L20:
 638:Source\mbedtls_open\library/pk_wrap.c ****         return( MBEDTLS_ERR_RSA_BAD_INPUT_DATA );
 409              		.loc 1 638 0
 410 002a 0148     		ldr	r0, .L21
 411              	.LVL42:
 412              	.L19:
 641:Source\mbedtls_open\library/pk_wrap.c ****                 MBEDTLS_RSA_PRIVATE, olen, input, output, osize ) );
 642:Source\mbedtls_open\library/pk_wrap.c **** }
 413              		.loc 1 642 0
 414 002c 03B0     		add	sp, sp, #12
 415              		@ sp needed
 416              	.LVL43:
 417              	.LVL44:
 418              	.LVL45:
 419 002e F0BD     		pop	{r4, r5, r6, r7, pc}
 420              	.L22:
 421              		.align	2
 422              	.L21:
 423 0030 80BFFFFF 		.word	-16512
 424              		.cfi_endproc
 425              	.LFE31:
 426              		.size	rsa_alt_decrypt_wrap, .-rsa_alt_decrypt_wrap
 427              		.section	.text.rsa_free_wrap,"ax",%progbits
 428              		.align	2
 429              		.code	16
 430              		.thumb_func
 431              		.type	rsa_free_wrap, %function
 432              	rsa_free_wrap:
 433              	.LFB12:
 168:Source\mbedtls_open\library/pk_wrap.c ****     mbedtls_rsa_free( (mbedtls_rsa_context *) ctx );
 434              		.loc 1 168 0
 435              		.cfi_startproc
 436              		@ args = 0, pretend = 0, frame = 0
 437              		@ frame_needed = 0, uses_anonymous_args = 0
 438              	.LVL46:
 439 0000 10B5     		push	{r4, lr}
ARM GAS  C:\Users\Phuong\AppData\Local\Temp\cc9PPFKV.s 			page 20


 440              		.cfi_def_cfa_offset 8
 441              		.cfi_offset 4, -8
 442              		.cfi_offset 14, -4
 443 0002 0400     		movs	r4, r0
 169:Source\mbedtls_open\library/pk_wrap.c ****     mbedtls_free( ctx );
 444              		.loc 1 169 0
 445 0004 FFF7FEFF 		bl	mbedtls_rsa_free
 446              	.LVL47:
 170:Source\mbedtls_open\library/pk_wrap.c **** }
 447              		.loc 1 170 0
 448 0008 2000     		movs	r0, r4
 449 000a FFF7FEFF 		bl	free
 450              	.LVL48:
 171:Source\mbedtls_open\library/pk_wrap.c **** 
 451              		.loc 1 171 0
 452              		@ sp needed
 453              	.LVL49:
 454 000e 10BD     		pop	{r4, pc}
 455              		.cfi_endproc
 456              	.LFE12:
 457              		.size	rsa_free_wrap, .-rsa_free_wrap
 458              		.section	.text.rsa_alloc_wrap,"ax",%progbits
 459              		.align	2
 460              		.code	16
 461              		.thumb_func
 462              		.type	rsa_alloc_wrap, %function
 463              	rsa_alloc_wrap:
 464              	.LFB11:
 158:Source\mbedtls_open\library/pk_wrap.c ****     void *ctx = mbedtls_calloc( 1, sizeof( mbedtls_rsa_context ) );
 465              		.loc 1 158 0
 466              		.cfi_startproc
 467              		@ args = 0, pretend = 0, frame = 0
 468              		@ frame_needed = 0, uses_anonymous_args = 0
 469 0000 10B5     		push	{r4, lr}
 470              		.cfi_def_cfa_offset 8
 471              		.cfi_offset 4, -8
 472              		.cfi_offset 14, -4
 159:Source\mbedtls_open\library/pk_wrap.c **** 
 473              		.loc 1 159 0
 474 0002 AC21     		movs	r1, #172
 475 0004 0120     		movs	r0, #1
 476 0006 FFF7FEFF 		bl	calloc
 477              	.LVL50:
 478 000a 041E     		subs	r4, r0, #0
 479              	.LVL51:
 161:Source\mbedtls_open\library/pk_wrap.c ****         mbedtls_rsa_init( (mbedtls_rsa_context *) ctx, 0, 0 );
 480              		.loc 1 161 0
 481 000c 03D0     		beq	.L25
 162:Source\mbedtls_open\library/pk_wrap.c **** 
 482              		.loc 1 162 0
 483 000e 0022     		movs	r2, #0
 484 0010 0021     		movs	r1, #0
 485 0012 FFF7FEFF 		bl	mbedtls_rsa_init
 486              	.LVL52:
 487              	.L25:
 165:Source\mbedtls_open\library/pk_wrap.c **** 
 488              		.loc 1 165 0
ARM GAS  C:\Users\Phuong\AppData\Local\Temp\cc9PPFKV.s 			page 21


 489 0016 2000     		movs	r0, r4
 490              		@ sp needed
 491              	.LVL53:
 492 0018 10BD     		pop	{r4, pc}
 493              		.cfi_endproc
 494              	.LFE11:
 495              		.size	rsa_alloc_wrap, .-rsa_alloc_wrap
 496 001a C046     		.section	.text.rsa_check_pair_wrap,"ax",%progbits
 497              		.align	2
 498              		.code	16
 499              		.thumb_func
 500              		.type	rsa_check_pair_wrap, %function
 501              	rsa_check_pair_wrap:
 502              	.LFB10:
 152:Source\mbedtls_open\library/pk_wrap.c ****     return( mbedtls_rsa_check_pub_priv( (const mbedtls_rsa_context *) pub,
 503              		.loc 1 152 0
 504              		.cfi_startproc
 505              		@ args = 0, pretend = 0, frame = 0
 506              		@ frame_needed = 0, uses_anonymous_args = 0
 507              	.LVL54:
 508 0000 10B5     		push	{r4, lr}
 509              		.cfi_def_cfa_offset 8
 510              		.cfi_offset 4, -8
 511              		.cfi_offset 14, -4
 153:Source\mbedtls_open\library/pk_wrap.c ****                                 (const mbedtls_rsa_context *) prv ) );
 512              		.loc 1 153 0
 513 0002 FFF7FEFF 		bl	mbedtls_rsa_check_pub_priv
 514              	.LVL55:
 155:Source\mbedtls_open\library/pk_wrap.c **** 
 515              		.loc 1 155 0
 516              		@ sp needed
 517 0006 10BD     		pop	{r4, pc}
 518              		.cfi_endproc
 519              	.LFE10:
 520              		.size	rsa_check_pair_wrap, .-rsa_check_pair_wrap
 521              		.section	.text.rsa_get_bitlen,"ax",%progbits
 522              		.align	2
 523              		.code	16
 524              		.thumb_func
 525              		.type	rsa_get_bitlen, %function
 526              	rsa_get_bitlen:
 527              	.LFB5:
  67:Source\mbedtls_open\library/pk_wrap.c ****     const mbedtls_rsa_context * rsa = (const mbedtls_rsa_context *) ctx;
 528              		.loc 1 67 0
 529              		.cfi_startproc
 530              		@ args = 0, pretend = 0, frame = 0
 531              		@ frame_needed = 0, uses_anonymous_args = 0
 532              	.LVL56:
 533 0000 10B5     		push	{r4, lr}
 534              		.cfi_def_cfa_offset 8
 535              		.cfi_offset 4, -8
 536              		.cfi_offset 14, -4
 537              	.LVL57:
  69:Source\mbedtls_open\library/pk_wrap.c **** }
 538              		.loc 1 69 0
 539 0002 FFF7FEFF 		bl	mbedtls_rsa_get_len
 540              	.LVL58:
ARM GAS  C:\Users\Phuong\AppData\Local\Temp\cc9PPFKV.s 			page 22


 541 0006 C000     		lsls	r0, r0, #3
  70:Source\mbedtls_open\library/pk_wrap.c **** 
 542              		.loc 1 70 0
 543              		@ sp needed
 544 0008 10BD     		pop	{r4, pc}
 545              		.cfi_endproc
 546              	.LFE5:
 547              		.size	rsa_get_bitlen, .-rsa_get_bitlen
 548 000a C046     		.section	.text.rsa_encrypt_wrap,"ax",%progbits
 549              		.align	2
 550              		.code	16
 551              		.thumb_func
 552              		.type	rsa_encrypt_wrap, %function
 553              	rsa_encrypt_wrap:
 554              	.LFB9:
 140:Source\mbedtls_open\library/pk_wrap.c ****     mbedtls_rsa_context * rsa = (mbedtls_rsa_context *) ctx;
 555              		.loc 1 140 0
 556              		.cfi_startproc
 557              		@ args = 16, pretend = 0, frame = 0
 558              		@ frame_needed = 0, uses_anonymous_args = 0
 559              	.LVL59:
 560 0000 F0B5     		push	{r4, r5, r6, r7, lr}
 561              		.cfi_def_cfa_offset 20
 562              		.cfi_offset 4, -20
 563              		.cfi_offset 5, -16
 564              		.cfi_offset 6, -12
 565              		.cfi_offset 7, -8
 566              		.cfi_offset 14, -4
 567 0002 85B0     		sub	sp, sp, #20
 568              		.cfi_def_cfa_offset 40
 569 0004 0400     		movs	r4, r0
 570 0006 0E00     		movs	r6, r1
 571 0008 1500     		movs	r5, r2
 572 000a 1F00     		movs	r7, r3
 573              	.LVL60:
 142:Source\mbedtls_open\library/pk_wrap.c **** 
 574              		.loc 1 142 0
 575 000c FFF7FEFF 		bl	mbedtls_rsa_get_len
 576              	.LVL61:
 577 0010 0A9B     		ldr	r3, [sp, #40]
 578 0012 1860     		str	r0, [r3]
 144:Source\mbedtls_open\library/pk_wrap.c ****         return( MBEDTLS_ERR_RSA_OUTPUT_TOO_LARGE );
 579              		.loc 1 144 0
 580 0014 0B9B     		ldr	r3, [sp, #44]
 581 0016 9842     		cmp	r0, r3
 582 0018 09D8     		bhi	.L30
 147:Source\mbedtls_open\library/pk_wrap.c ****                                        ilen, input, output ) );
 583              		.loc 1 147 0
 584 001a 0297     		str	r7, [sp, #8]
 585 001c 0196     		str	r6, [sp, #4]
 586 001e 0095     		str	r5, [sp]
 587 0020 0023     		movs	r3, #0
 588 0022 0D9A     		ldr	r2, [sp, #52]
 589 0024 0C99     		ldr	r1, [sp, #48]
 590 0026 2000     		movs	r0, r4
 591 0028 FFF7FEFF 		bl	mbedtls_rsa_pkcs1_encrypt
 592              	.LVL62:
ARM GAS  C:\Users\Phuong\AppData\Local\Temp\cc9PPFKV.s 			page 23


 593 002c 00E0     		b	.L29
 594              	.L30:
 145:Source\mbedtls_open\library/pk_wrap.c **** 
 595              		.loc 1 145 0
 596 002e 0148     		ldr	r0, .L31
 597              	.L29:
 149:Source\mbedtls_open\library/pk_wrap.c **** 
 598              		.loc 1 149 0
 599 0030 05B0     		add	sp, sp, #20
 600              		@ sp needed
 601              	.LVL63:
 602              	.LVL64:
 603              	.LVL65:
 604              	.LVL66:
 605 0032 F0BD     		pop	{r4, r5, r6, r7, pc}
 606              	.L32:
 607              		.align	2
 608              	.L31:
 609 0034 00BCFFFF 		.word	-17408
 610              		.cfi_endproc
 611              	.LFE9:
 612              		.size	rsa_encrypt_wrap, .-rsa_encrypt_wrap
 613              		.section	.text.rsa_decrypt_wrap,"ax",%progbits
 614              		.align	2
 615              		.code	16
 616              		.thumb_func
 617              		.type	rsa_decrypt_wrap, %function
 618              	rsa_decrypt_wrap:
 619              	.LFB8:
 126:Source\mbedtls_open\library/pk_wrap.c ****     mbedtls_rsa_context * rsa = (mbedtls_rsa_context *) ctx;
 620              		.loc 1 126 0
 621              		.cfi_startproc
 622              		@ args = 16, pretend = 0, frame = 0
 623              		@ frame_needed = 0, uses_anonymous_args = 0
 624              	.LVL67:
 625 0000 F0B5     		push	{r4, r5, r6, r7, lr}
 626              		.cfi_def_cfa_offset 20
 627              		.cfi_offset 4, -20
 628              		.cfi_offset 5, -16
 629              		.cfi_offset 6, -12
 630              		.cfi_offset 7, -8
 631              		.cfi_offset 14, -4
 632 0002 85B0     		sub	sp, sp, #20
 633              		.cfi_def_cfa_offset 40
 634 0004 0400     		movs	r4, r0
 635 0006 0E00     		movs	r6, r1
 636 0008 1500     		movs	r5, r2
 637 000a 1F00     		movs	r7, r3
 638              	.LVL68:
 129:Source\mbedtls_open\library/pk_wrap.c ****         return( MBEDTLS_ERR_RSA_BAD_INPUT_DATA );
 639              		.loc 1 129 0
 640 000c FFF7FEFF 		bl	mbedtls_rsa_get_len
 641              	.LVL69:
 642 0010 A842     		cmp	r0, r5
 643 0012 0CD1     		bne	.L35
 132:Source\mbedtls_open\library/pk_wrap.c ****                 MBEDTLS_RSA_PRIVATE, olen, input, output, osize ) );
 644              		.loc 1 132 0
ARM GAS  C:\Users\Phuong\AppData\Local\Temp\cc9PPFKV.s 			page 24


 645 0014 0B9B     		ldr	r3, [sp, #44]
 646 0016 0393     		str	r3, [sp, #12]
 647 0018 0297     		str	r7, [sp, #8]
 648 001a 0196     		str	r6, [sp, #4]
 649 001c 0A9B     		ldr	r3, [sp, #40]
 650 001e 0093     		str	r3, [sp]
 651 0020 0123     		movs	r3, #1
 652 0022 0D9A     		ldr	r2, [sp, #52]
 653 0024 0C99     		ldr	r1, [sp, #48]
 654 0026 2000     		movs	r0, r4
 655 0028 FFF7FEFF 		bl	mbedtls_rsa_pkcs1_decrypt
 656              	.LVL70:
 657 002c 00E0     		b	.L34
 658              	.L35:
 130:Source\mbedtls_open\library/pk_wrap.c **** 
 659              		.loc 1 130 0
 660 002e 0148     		ldr	r0, .L36
 661              	.L34:
 134:Source\mbedtls_open\library/pk_wrap.c **** 
 662              		.loc 1 134 0
 663 0030 05B0     		add	sp, sp, #20
 664              		@ sp needed
 665              	.LVL71:
 666              	.LVL72:
 667              	.LVL73:
 668              	.LVL74:
 669 0032 F0BD     		pop	{r4, r5, r6, r7, pc}
 670              	.L37:
 671              		.align	2
 672              	.L36:
 673 0034 80BFFFFF 		.word	-16512
 674              		.cfi_endproc
 675              	.LFE8:
 676              		.size	rsa_decrypt_wrap, .-rsa_decrypt_wrap
 677              		.section	.text.rsa_sign_wrap,"ax",%progbits
 678              		.align	2
 679              		.code	16
 680              		.thumb_func
 681              		.type	rsa_sign_wrap, %function
 682              	rsa_sign_wrap:
 683              	.LFB7:
 108:Source\mbedtls_open\library/pk_wrap.c ****     mbedtls_rsa_context * rsa = (mbedtls_rsa_context *) ctx;
 684              		.loc 1 108 0
 685              		.cfi_startproc
 686              		@ args = 16, pretend = 0, frame = 0
 687              		@ frame_needed = 0, uses_anonymous_args = 0
 688              	.LVL75:
 689 0000 F0B5     		push	{r4, r5, r6, r7, lr}
 690              		.cfi_def_cfa_offset 20
 691              		.cfi_offset 4, -20
 692              		.cfi_offset 5, -16
 693              		.cfi_offset 6, -12
 694              		.cfi_offset 7, -8
 695              		.cfi_offset 14, -4
 696 0002 85B0     		sub	sp, sp, #20
 697              		.cfi_def_cfa_offset 40
 698 0004 0400     		movs	r4, r0
ARM GAS  C:\Users\Phuong\AppData\Local\Temp\cc9PPFKV.s 			page 25


 699 0006 0D00     		movs	r5, r1
 700 0008 1700     		movs	r7, r2
 701 000a 1E00     		movs	r6, r3
 702              	.LVL76:
 116:Source\mbedtls_open\library/pk_wrap.c **** 
 703              		.loc 1 116 0
 704 000c FFF7FEFF 		bl	mbedtls_rsa_get_len
 705              	.LVL77:
 706 0010 0B9B     		ldr	r3, [sp, #44]
 707 0012 1860     		str	r0, [r3]
 118:Source\mbedtls_open\library/pk_wrap.c ****                 md_alg, (unsigned int) hash_len, hash, sig ) );
 708              		.loc 1 118 0
 709 0014 0A9B     		ldr	r3, [sp, #40]
 710 0016 0393     		str	r3, [sp, #12]
 711 0018 0297     		str	r7, [sp, #8]
 712 001a 0196     		str	r6, [sp, #4]
 713 001c 0095     		str	r5, [sp]
 714 001e 0123     		movs	r3, #1
 715 0020 0D9A     		ldr	r2, [sp, #52]
 716 0022 0C99     		ldr	r1, [sp, #48]
 717 0024 2000     		movs	r0, r4
 718 0026 FFF7FEFF 		bl	mbedtls_rsa_pkcs1_sign
 719              	.LVL78:
 120:Source\mbedtls_open\library/pk_wrap.c **** 
 720              		.loc 1 120 0
 721 002a 05B0     		add	sp, sp, #20
 722              		@ sp needed
 723              	.LVL79:
 724              	.LVL80:
 725              	.LVL81:
 726 002c F0BD     		pop	{r4, r5, r6, r7, pc}
 727              		.cfi_endproc
 728              	.LFE7:
 729              		.size	rsa_sign_wrap, .-rsa_sign_wrap
 730              		.section	.text.rsa_verify_wrap,"ax",%progbits
 731              		.align	2
 732              		.code	16
 733              		.thumb_func
 734              		.type	rsa_verify_wrap, %function
 735              	rsa_verify_wrap:
 736              	.LFB6:
  75:Source\mbedtls_open\library/pk_wrap.c ****     int ret;
 737              		.loc 1 75 0
 738              		.cfi_startproc
 739              		@ args = 8, pretend = 0, frame = 8
 740              		@ frame_needed = 0, uses_anonymous_args = 0
 741              	.LVL82:
 742 0000 F0B5     		push	{r4, r5, r6, r7, lr}
 743              		.cfi_def_cfa_offset 20
 744              		.cfi_offset 4, -20
 745              		.cfi_offset 5, -16
 746              		.cfi_offset 6, -12
 747              		.cfi_offset 7, -8
 748              		.cfi_offset 14, -4
 749 0002 87B0     		sub	sp, sp, #28
 750              		.cfi_def_cfa_offset 48
 751 0004 0E00     		movs	r6, r1
ARM GAS  C:\Users\Phuong\AppData\Local\Temp\cc9PPFKV.s 			page 26


 752 0006 1400     		movs	r4, r2
 753 0008 1F00     		movs	r7, r3
 754              	.LVL83:
  78:Source\mbedtls_open\library/pk_wrap.c **** 
 755              		.loc 1 78 0
 756 000a 0590     		str	r0, [sp, #20]
 757 000c FFF7FEFF 		bl	mbedtls_rsa_get_len
 758              	.LVL84:
 759 0010 0500     		movs	r5, r0
 760              	.LVL85:
  85:Source\mbedtls_open\library/pk_wrap.c ****         return( MBEDTLS_ERR_RSA_VERIFY_FAILED );
 761              		.loc 1 85 0
 762 0012 0D9B     		ldr	r3, [sp, #52]
 763 0014 9842     		cmp	r0, r3
 764 0016 11D8     		bhi	.L41
  88:Source\mbedtls_open\library/pk_wrap.c ****                                   MBEDTLS_RSA_PUBLIC, md_alg,
 765              		.loc 1 88 0
 766 0018 0C9B     		ldr	r3, [sp, #48]
 767 001a 0393     		str	r3, [sp, #12]
 768 001c 0294     		str	r4, [sp, #8]
 769 001e 0197     		str	r7, [sp, #4]
 770 0020 0096     		str	r6, [sp]
 771 0022 0023     		movs	r3, #0
 772 0024 0022     		movs	r2, #0
 773 0026 0021     		movs	r1, #0
 774 0028 0598     		ldr	r0, [sp, #20]
 775              	.LVL86:
 776 002a FFF7FEFF 		bl	mbedtls_rsa_pkcs1_verify
 777              	.LVL87:
 778 002e 0028     		cmp	r0, #0
 779 0030 07D1     		bne	.L40
  98:Source\mbedtls_open\library/pk_wrap.c ****         return( MBEDTLS_ERR_PK_SIG_LEN_MISMATCH );
 780              		.loc 1 98 0
 781 0032 0D9B     		ldr	r3, [sp, #52]
 782 0034 9D42     		cmp	r5, r3
 783 0036 03D2     		bcs	.L43
  99:Source\mbedtls_open\library/pk_wrap.c **** 
 784              		.loc 1 99 0
 785 0038 0348     		ldr	r0, .L44
 786              	.LVL88:
 787 003a 02E0     		b	.L40
 788              	.LVL89:
 789              	.L41:
  86:Source\mbedtls_open\library/pk_wrap.c **** 
 790              		.loc 1 86 0
 791 003c 0348     		ldr	r0, .L44+4
 792              	.LVL90:
 793 003e 00E0     		b	.L40
 794              	.LVL91:
 795              	.L43:
 101:Source\mbedtls_open\library/pk_wrap.c **** }
 796              		.loc 1 101 0
 797 0040 0020     		movs	r0, #0
 798              	.LVL92:
 799              	.L40:
 102:Source\mbedtls_open\library/pk_wrap.c **** 
 800              		.loc 1 102 0
ARM GAS  C:\Users\Phuong\AppData\Local\Temp\cc9PPFKV.s 			page 27


 801 0042 07B0     		add	sp, sp, #28
 802              		@ sp needed
 803              	.LVL93:
 804              	.LVL94:
 805              	.LVL95:
 806 0044 F0BD     		pop	{r4, r5, r6, r7, pc}
 807              	.L45:
 808 0046 C046     		.align	2
 809              	.L44:
 810 0048 00C7FFFF 		.word	-14592
 811 004c 80BCFFFF 		.word	-17280
 812              		.cfi_endproc
 813              	.LFE6:
 814              		.size	rsa_verify_wrap, .-rsa_verify_wrap
 815              		.section	.text.eckey_free_wrap,"ax",%progbits
 816              		.align	2
 817              		.code	16
 818              		.thumb_func
 819              		.type	eckey_free_wrap, %function
 820              	eckey_free_wrap:
 821              	.LFB20:
 396:Source\mbedtls_open\library/pk_wrap.c ****     mbedtls_ecp_keypair_free( (mbedtls_ecp_keypair *) ctx );
 822              		.loc 1 396 0
 823              		.cfi_startproc
 824              		@ args = 0, pretend = 0, frame = 0
 825              		@ frame_needed = 0, uses_anonymous_args = 0
 826              	.LVL96:
 827 0000 10B5     		push	{r4, lr}
 828              		.cfi_def_cfa_offset 8
 829              		.cfi_offset 4, -8
 830              		.cfi_offset 14, -4
 831 0002 0400     		movs	r4, r0
 397:Source\mbedtls_open\library/pk_wrap.c ****     mbedtls_free( ctx );
 832              		.loc 1 397 0
 833 0004 FFF7FEFF 		bl	mbedtls_ecp_keypair_free
 834              	.LVL97:
 398:Source\mbedtls_open\library/pk_wrap.c **** }
 835              		.loc 1 398 0
 836 0008 2000     		movs	r0, r4
 837 000a FFF7FEFF 		bl	free
 838              	.LVL98:
 399:Source\mbedtls_open\library/pk_wrap.c **** 
 839              		.loc 1 399 0
 840              		@ sp needed
 841              	.LVL99:
 842 000e 10BD     		pop	{r4, pc}
 843              		.cfi_endproc
 844              	.LFE20:
 845              		.size	eckey_free_wrap, .-eckey_free_wrap
 846              		.section	.text.eckey_alloc_wrap,"ax",%progbits
 847              		.align	2
 848              		.code	16
 849              		.thumb_func
 850              		.type	eckey_alloc_wrap, %function
 851              	eckey_alloc_wrap:
 852              	.LFB19:
 386:Source\mbedtls_open\library/pk_wrap.c ****     void *ctx = mbedtls_calloc( 1, sizeof( mbedtls_ecp_keypair ) );
ARM GAS  C:\Users\Phuong\AppData\Local\Temp\cc9PPFKV.s 			page 28


 853              		.loc 1 386 0
 854              		.cfi_startproc
 855              		@ args = 0, pretend = 0, frame = 0
 856              		@ frame_needed = 0, uses_anonymous_args = 0
 857 0000 10B5     		push	{r4, lr}
 858              		.cfi_def_cfa_offset 8
 859              		.cfi_offset 4, -8
 860              		.cfi_offset 14, -4
 387:Source\mbedtls_open\library/pk_wrap.c **** 
 861              		.loc 1 387 0
 862 0002 AC21     		movs	r1, #172
 863 0004 0120     		movs	r0, #1
 864 0006 FFF7FEFF 		bl	calloc
 865              	.LVL100:
 866 000a 041E     		subs	r4, r0, #0
 867              	.LVL101:
 389:Source\mbedtls_open\library/pk_wrap.c ****         mbedtls_ecp_keypair_init( ctx );
 868              		.loc 1 389 0
 869 000c 01D0     		beq	.L48
 390:Source\mbedtls_open\library/pk_wrap.c **** 
 870              		.loc 1 390 0
 871 000e FFF7FEFF 		bl	mbedtls_ecp_keypair_init
 872              	.LVL102:
 873              	.L48:
 393:Source\mbedtls_open\library/pk_wrap.c **** 
 874              		.loc 1 393 0
 875 0012 2000     		movs	r0, r4
 876              		@ sp needed
 877              	.LVL103:
 878 0014 10BD     		pop	{r4, pc}
 879              		.cfi_endproc
 880              	.LFE19:
 881              		.size	eckey_alloc_wrap, .-eckey_alloc_wrap
 882 0016 C046     		.section	.text.eckey_check_pair,"ax",%progbits
 883              		.align	2
 884              		.code	16
 885              		.thumb_func
 886              		.type	eckey_check_pair, %function
 887              	eckey_check_pair:
 888              	.LFB18:
 380:Source\mbedtls_open\library/pk_wrap.c ****     return( mbedtls_ecp_check_pub_priv( (const mbedtls_ecp_keypair *) pub,
 889              		.loc 1 380 0
 890              		.cfi_startproc
 891              		@ args = 0, pretend = 0, frame = 0
 892              		@ frame_needed = 0, uses_anonymous_args = 0
 893              	.LVL104:
 894 0000 10B5     		push	{r4, lr}
 895              		.cfi_def_cfa_offset 8
 896              		.cfi_offset 4, -8
 897              		.cfi_offset 14, -4
 381:Source\mbedtls_open\library/pk_wrap.c ****                                 (const mbedtls_ecp_keypair *) prv ) );
 898              		.loc 1 381 0
 899 0002 FFF7FEFF 		bl	mbedtls_ecp_check_pub_priv
 900              	.LVL105:
 383:Source\mbedtls_open\library/pk_wrap.c **** 
 901              		.loc 1 383 0
 902              		@ sp needed
ARM GAS  C:\Users\Phuong\AppData\Local\Temp\cc9PPFKV.s 			page 29


 903 0006 10BD     		pop	{r4, pc}
 904              		.cfi_endproc
 905              	.LFE18:
 906              		.size	eckey_check_pair, .-eckey_check_pair
 907              		.section	.text.ecdsa_alloc_wrap,"ax",%progbits
 908              		.align	2
 909              		.code	16
 910              		.thumb_func
 911              		.type	ecdsa_alloc_wrap, %function
 912              	ecdsa_alloc_wrap:
 913              	.LFB26:
 535:Source\mbedtls_open\library/pk_wrap.c ****     void *ctx = mbedtls_calloc( 1, sizeof( mbedtls_ecdsa_context ) );
 914              		.loc 1 535 0
 915              		.cfi_startproc
 916              		@ args = 0, pretend = 0, frame = 0
 917              		@ frame_needed = 0, uses_anonymous_args = 0
 918 0000 10B5     		push	{r4, lr}
 919              		.cfi_def_cfa_offset 8
 920              		.cfi_offset 4, -8
 921              		.cfi_offset 14, -4
 536:Source\mbedtls_open\library/pk_wrap.c **** 
 922              		.loc 1 536 0
 923 0002 AC21     		movs	r1, #172
 924 0004 0120     		movs	r0, #1
 925 0006 FFF7FEFF 		bl	calloc
 926              	.LVL106:
 927 000a 041E     		subs	r4, r0, #0
 928              	.LVL107:
 538:Source\mbedtls_open\library/pk_wrap.c ****         mbedtls_ecdsa_init( (mbedtls_ecdsa_context *) ctx );
 929              		.loc 1 538 0
 930 000c 01D0     		beq	.L51
 539:Source\mbedtls_open\library/pk_wrap.c **** 
 931              		.loc 1 539 0
 932 000e FFF7FEFF 		bl	mbedtls_ecdsa_init
 933              	.LVL108:
 934              	.L51:
 542:Source\mbedtls_open\library/pk_wrap.c **** 
 935              		.loc 1 542 0
 936 0012 2000     		movs	r0, r4
 937              		@ sp needed
 938              	.LVL109:
 939 0014 10BD     		pop	{r4, pc}
 940              		.cfi_endproc
 941              	.LFE26:
 942              		.size	ecdsa_alloc_wrap, .-ecdsa_alloc_wrap
 943 0016 C046     		.section	.text.ecdsa_free_wrap,"ax",%progbits
 944              		.align	2
 945              		.code	16
 946              		.thumb_func
 947              		.type	ecdsa_free_wrap, %function
 948              	ecdsa_free_wrap:
 949              	.LFB27:
 545:Source\mbedtls_open\library/pk_wrap.c ****     mbedtls_ecdsa_free( (mbedtls_ecdsa_context *) ctx );
 950              		.loc 1 545 0
 951              		.cfi_startproc
 952              		@ args = 0, pretend = 0, frame = 0
 953              		@ frame_needed = 0, uses_anonymous_args = 0
ARM GAS  C:\Users\Phuong\AppData\Local\Temp\cc9PPFKV.s 			page 30


 954              	.LVL110:
 955 0000 10B5     		push	{r4, lr}
 956              		.cfi_def_cfa_offset 8
 957              		.cfi_offset 4, -8
 958              		.cfi_offset 14, -4
 959 0002 0400     		movs	r4, r0
 546:Source\mbedtls_open\library/pk_wrap.c ****     mbedtls_free( ctx );
 960              		.loc 1 546 0
 961 0004 FFF7FEFF 		bl	mbedtls_ecdsa_free
 962              	.LVL111:
 547:Source\mbedtls_open\library/pk_wrap.c **** }
 963              		.loc 1 547 0
 964 0008 2000     		movs	r0, r4
 965 000a FFF7FEFF 		bl	free
 966              	.LVL112:
 548:Source\mbedtls_open\library/pk_wrap.c **** 
 967              		.loc 1 548 0
 968              		@ sp needed
 969              	.LVL113:
 970 000e 10BD     		pop	{r4, pc}
 971              		.cfi_endproc
 972              	.LFE27:
 973              		.size	ecdsa_free_wrap, .-ecdsa_free_wrap
 974              		.section	.text.ecdsa_sign_wrap,"ax",%progbits
 975              		.align	2
 976              		.code	16
 977              		.thumb_func
 978              		.type	ecdsa_sign_wrap, %function
 979              	ecdsa_sign_wrap:
 980              	.LFB25:
 495:Source\mbedtls_open\library/pk_wrap.c ****     return( mbedtls_ecdsa_write_signature( (mbedtls_ecdsa_context *) ctx,
 981              		.loc 1 495 0
 982              		.cfi_startproc
 983              		@ args = 16, pretend = 0, frame = 0
 984              		@ frame_needed = 0, uses_anonymous_args = 0
 985              	.LVL114:
 986 0000 10B5     		push	{r4, lr}
 987              		.cfi_def_cfa_offset 8
 988              		.cfi_offset 4, -8
 989              		.cfi_offset 14, -4
 990 0002 84B0     		sub	sp, sp, #16
 991              		.cfi_def_cfa_offset 24
 496:Source\mbedtls_open\library/pk_wrap.c ****                 md_alg, hash, hash_len, sig, sig_len, f_rng, p_rng ) );
 992              		.loc 1 496 0
 993 0004 099C     		ldr	r4, [sp, #36]
 994 0006 0394     		str	r4, [sp, #12]
 995 0008 089C     		ldr	r4, [sp, #32]
 996 000a 0294     		str	r4, [sp, #8]
 997 000c 079C     		ldr	r4, [sp, #28]
 998 000e 0194     		str	r4, [sp, #4]
 999 0010 069C     		ldr	r4, [sp, #24]
 1000 0012 0094     		str	r4, [sp]
 1001 0014 FFF7FEFF 		bl	mbedtls_ecdsa_write_signature
 1002              	.LVL115:
 498:Source\mbedtls_open\library/pk_wrap.c **** 
 1003              		.loc 1 498 0
 1004 0018 04B0     		add	sp, sp, #16
ARM GAS  C:\Users\Phuong\AppData\Local\Temp\cc9PPFKV.s 			page 31


 1005              		@ sp needed
 1006 001a 10BD     		pop	{r4, pc}
 1007              		.cfi_endproc
 1008              	.LFE25:
 1009              		.size	ecdsa_sign_wrap, .-ecdsa_sign_wrap
 1010              		.section	.text.eckey_sign_wrap,"ax",%progbits
 1011              		.align	2
 1012              		.code	16
 1013              		.thumb_func
 1014              		.type	eckey_sign_wrap, %function
 1015              	eckey_sign_wrap:
 1016              	.LFB17:
 258:Source\mbedtls_open\library/pk_wrap.c ****     int ret;
 1017              		.loc 1 258 0
 1018              		.cfi_startproc
 1019              		@ args = 16, pretend = 0, frame = 176
 1020              		@ frame_needed = 0, uses_anonymous_args = 0
 1021              	.LVL116:
 1022 0000 F0B5     		push	{r4, r5, r6, r7, lr}
 1023              		.cfi_def_cfa_offset 20
 1024              		.cfi_offset 4, -20
 1025              		.cfi_offset 5, -16
 1026              		.cfi_offset 6, -12
 1027              		.cfi_offset 7, -8
 1028              		.cfi_offset 14, -4
 1029 0002 B1B0     		sub	sp, sp, #196
 1030              		.cfi_def_cfa_offset 216
 1031 0004 0400     		movs	r4, r0
 1032 0006 0D00     		movs	r5, r1
 1033 0008 1600     		movs	r6, r2
 1034 000a 1F00     		movs	r7, r3
 262:Source\mbedtls_open\library/pk_wrap.c **** 
 1035              		.loc 1 262 0
 1036 000c 05A8     		add	r0, sp, #20
 1037              	.LVL117:
 1038 000e FFF7FEFF 		bl	mbedtls_ecdsa_init
 1039              	.LVL118:
 264:Source\mbedtls_open\library/pk_wrap.c ****         ret = ecdsa_sign_wrap( &ecdsa, md_alg, hash, hash_len, sig, sig_len,
 1040              		.loc 1 264 0
 1041 0012 2100     		movs	r1, r4
 1042 0014 05A8     		add	r0, sp, #20
 1043 0016 FFF7FEFF 		bl	mbedtls_ecdsa_from_keypair
 1044              	.LVL119:
 1045 001a 041E     		subs	r4, r0, #0
 1046              	.LVL120:
 1047 001c 0ED1     		bne	.L55
 265:Source\mbedtls_open\library/pk_wrap.c ****                                f_rng, p_rng );
 1048              		.loc 1 265 0
 1049 001e 399B     		ldr	r3, [sp, #228]
 1050 0020 0393     		str	r3, [sp, #12]
 1051 0022 389B     		ldr	r3, [sp, #224]
 1052 0024 0293     		str	r3, [sp, #8]
 1053 0026 379B     		ldr	r3, [sp, #220]
 1054 0028 0193     		str	r3, [sp, #4]
 1055 002a 369B     		ldr	r3, [sp, #216]
 1056 002c 0093     		str	r3, [sp]
 1057 002e 3B00     		movs	r3, r7
ARM GAS  C:\Users\Phuong\AppData\Local\Temp\cc9PPFKV.s 			page 32


 1058 0030 3200     		movs	r2, r6
 1059 0032 2900     		movs	r1, r5
 1060 0034 05A8     		add	r0, sp, #20
 1061              	.LVL121:
 1062 0036 FFF7FEFF 		bl	ecdsa_sign_wrap
 1063              	.LVL122:
 1064 003a 0400     		movs	r4, r0
 1065              	.LVL123:
 1066              	.L55:
 268:Source\mbedtls_open\library/pk_wrap.c **** 
 1067              		.loc 1 268 0
 1068 003c 05A8     		add	r0, sp, #20
 1069              	.LVL124:
 1070 003e FFF7FEFF 		bl	mbedtls_ecdsa_free
 1071              	.LVL125:
 271:Source\mbedtls_open\library/pk_wrap.c **** 
 1072              		.loc 1 271 0
 1073 0042 2000     		movs	r0, r4
 1074 0044 31B0     		add	sp, sp, #196
 1075              		@ sp needed
 1076              	.LVL126:
 1077              	.LVL127:
 1078              	.LVL128:
 1079 0046 F0BD     		pop	{r4, r5, r6, r7, pc}
 1080              		.cfi_endproc
 1081              	.LFE17:
 1082              		.size	eckey_sign_wrap, .-eckey_sign_wrap
 1083              		.section	.text.ecdsa_verify_wrap,"ax",%progbits
 1084              		.align	2
 1085              		.code	16
 1086              		.thumb_func
 1087              		.type	ecdsa_verify_wrap, %function
 1088              	ecdsa_verify_wrap:
 1089              	.LFB24:
 478:Source\mbedtls_open\library/pk_wrap.c ****     int ret;
 1090              		.loc 1 478 0
 1091              		.cfi_startproc
 1092              		@ args = 8, pretend = 0, frame = 0
 1093              		@ frame_needed = 0, uses_anonymous_args = 0
 1094              	.LVL129:
 1095 0000 00B5     		push	{lr}
 1096              		.cfi_def_cfa_offset 4
 1097              		.cfi_offset 14, -4
 1098 0002 83B0     		sub	sp, sp, #12
 1099              		.cfi_def_cfa_offset 16
 1100 0004 1100     		movs	r1, r2
 1101              	.LVL130:
 1102 0006 1A00     		movs	r2, r3
 1103              	.LVL131:
 482:Source\mbedtls_open\library/pk_wrap.c ****                                 hash, hash_len, sig, sig_len );
 1104              		.loc 1 482 0
 1105 0008 059B     		ldr	r3, [sp, #20]
 1106              	.LVL132:
 1107 000a 0093     		str	r3, [sp]
 1108 000c 049B     		ldr	r3, [sp, #16]
 1109 000e FFF7FEFF 		bl	mbedtls_ecdsa_read_signature
 1110              	.LVL133:
ARM GAS  C:\Users\Phuong\AppData\Local\Temp\cc9PPFKV.s 			page 33


 485:Source\mbedtls_open\library/pk_wrap.c ****         return( MBEDTLS_ERR_PK_SIG_LEN_MISMATCH );
 1111              		.loc 1 485 0
 1112 0012 034B     		ldr	r3, .L59
 1113 0014 9842     		cmp	r0, r3
 1114 0016 00D1     		bne	.L57
 486:Source\mbedtls_open\library/pk_wrap.c **** 
 1115              		.loc 1 486 0
 1116 0018 0248     		ldr	r0, .L59+4
 1117              	.LVL134:
 1118              	.L57:
 489:Source\mbedtls_open\library/pk_wrap.c **** 
 1119              		.loc 1 489 0
 1120 001a 03B0     		add	sp, sp, #12
 1121              		@ sp needed
 1122 001c 00BD     		pop	{pc}
 1123              	.L60:
 1124 001e C046     		.align	2
 1125              	.L59:
 1126 0020 00B4FFFF 		.word	-19456
 1127 0024 00C7FFFF 		.word	-14592
 1128              		.cfi_endproc
 1129              	.LFE24:
 1130              		.size	ecdsa_verify_wrap, .-ecdsa_verify_wrap
 1131              		.section	.text.eckey_verify_wrap,"ax",%progbits
 1132              		.align	2
 1133              		.code	16
 1134              		.thumb_func
 1135              		.type	eckey_verify_wrap, %function
 1136              	eckey_verify_wrap:
 1137              	.LFB16:
 240:Source\mbedtls_open\library/pk_wrap.c ****     int ret;
 1138              		.loc 1 240 0
 1139              		.cfi_startproc
 1140              		@ args = 8, pretend = 0, frame = 176
 1141              		@ frame_needed = 0, uses_anonymous_args = 0
 1142              	.LVL135:
 1143 0000 F0B5     		push	{r4, r5, r6, r7, lr}
 1144              		.cfi_def_cfa_offset 20
 1145              		.cfi_offset 4, -20
 1146              		.cfi_offset 5, -16
 1147              		.cfi_offset 6, -12
 1148              		.cfi_offset 7, -8
 1149              		.cfi_offset 14, -4
 1150 0002 AFB0     		sub	sp, sp, #188
 1151              		.cfi_def_cfa_offset 208
 1152 0004 0400     		movs	r4, r0
 1153 0006 0D00     		movs	r5, r1
 1154 0008 1600     		movs	r6, r2
 1155 000a 1F00     		movs	r7, r3
 244:Source\mbedtls_open\library/pk_wrap.c **** 
 1156              		.loc 1 244 0
 1157 000c 03A8     		add	r0, sp, #12
 1158              	.LVL136:
 1159 000e FFF7FEFF 		bl	mbedtls_ecdsa_init
 1160              	.LVL137:
 246:Source\mbedtls_open\library/pk_wrap.c ****         ret = ecdsa_verify_wrap( &ecdsa, md_alg, hash, hash_len, sig, sig_len );
 1161              		.loc 1 246 0
ARM GAS  C:\Users\Phuong\AppData\Local\Temp\cc9PPFKV.s 			page 34


 1162 0012 2100     		movs	r1, r4
 1163 0014 03A8     		add	r0, sp, #12
 1164 0016 FFF7FEFF 		bl	mbedtls_ecdsa_from_keypair
 1165              	.LVL138:
 1166 001a 041E     		subs	r4, r0, #0
 1167              	.LVL139:
 1168 001c 0AD1     		bne	.L62
 247:Source\mbedtls_open\library/pk_wrap.c **** 
 1169              		.loc 1 247 0
 1170 001e 359B     		ldr	r3, [sp, #212]
 1171 0020 0193     		str	r3, [sp, #4]
 1172 0022 349B     		ldr	r3, [sp, #208]
 1173 0024 0093     		str	r3, [sp]
 1174 0026 3B00     		movs	r3, r7
 1175 0028 3200     		movs	r2, r6
 1176 002a 2900     		movs	r1, r5
 1177 002c 03A8     		add	r0, sp, #12
 1178              	.LVL140:
 1179 002e FFF7FEFF 		bl	ecdsa_verify_wrap
 1180              	.LVL141:
 1181 0032 0400     		movs	r4, r0
 1182              	.LVL142:
 1183              	.L62:
 249:Source\mbedtls_open\library/pk_wrap.c **** 
 1184              		.loc 1 249 0
 1185 0034 03A8     		add	r0, sp, #12
 1186              	.LVL143:
 1187 0036 FFF7FEFF 		bl	mbedtls_ecdsa_free
 1188              	.LVL144:
 252:Source\mbedtls_open\library/pk_wrap.c **** 
 1189              		.loc 1 252 0
 1190 003a 2000     		movs	r0, r4
 1191 003c 2FB0     		add	sp, sp, #188
 1192              		@ sp needed
 1193              	.LVL145:
 1194              	.LVL146:
 1195              	.LVL147:
 1196 003e F0BD     		pop	{r4, r5, r6, r7, pc}
 1197              		.cfi_endproc
 1198              	.LFE16:
 1199              		.size	eckey_verify_wrap, .-eckey_verify_wrap
 1200              		.section	.text.rsa_alt_free_wrap,"ax",%progbits
 1201              		.align	2
 1202              		.code	16
 1203              		.thumb_func
 1204              		.type	rsa_alt_free_wrap, %function
 1205              	rsa_alt_free_wrap:
 1206              	.LFB34:
 643:Source\mbedtls_open\library/pk_wrap.c **** 
 644:Source\mbedtls_open\library/pk_wrap.c **** #if defined(MBEDTLS_RSA_C)
 645:Source\mbedtls_open\library/pk_wrap.c **** static int rsa_alt_check_pair( const void *pub, const void *prv )
 646:Source\mbedtls_open\library/pk_wrap.c **** {
 647:Source\mbedtls_open\library/pk_wrap.c ****     unsigned char sig[MBEDTLS_MPI_MAX_SIZE];
 648:Source\mbedtls_open\library/pk_wrap.c ****     unsigned char hash[32];
 649:Source\mbedtls_open\library/pk_wrap.c ****     size_t sig_len = 0;
 650:Source\mbedtls_open\library/pk_wrap.c ****     int ret;
 651:Source\mbedtls_open\library/pk_wrap.c **** 
ARM GAS  C:\Users\Phuong\AppData\Local\Temp\cc9PPFKV.s 			page 35


 652:Source\mbedtls_open\library/pk_wrap.c ****     if( rsa_alt_get_bitlen( prv ) != rsa_get_bitlen( pub ) )
 653:Source\mbedtls_open\library/pk_wrap.c ****         return( MBEDTLS_ERR_RSA_KEY_CHECK_FAILED );
 654:Source\mbedtls_open\library/pk_wrap.c **** 
 655:Source\mbedtls_open\library/pk_wrap.c ****     memset( hash, 0x2a, sizeof( hash ) );
 656:Source\mbedtls_open\library/pk_wrap.c **** 
 657:Source\mbedtls_open\library/pk_wrap.c ****     if( ( ret = rsa_alt_sign_wrap( (void *) prv, MBEDTLS_MD_NONE,
 658:Source\mbedtls_open\library/pk_wrap.c ****                                    hash, sizeof( hash ),
 659:Source\mbedtls_open\library/pk_wrap.c ****                                    sig, &sig_len, NULL, NULL ) ) != 0 )
 660:Source\mbedtls_open\library/pk_wrap.c ****     {
 661:Source\mbedtls_open\library/pk_wrap.c ****         return( ret );
 662:Source\mbedtls_open\library/pk_wrap.c ****     }
 663:Source\mbedtls_open\library/pk_wrap.c **** 
 664:Source\mbedtls_open\library/pk_wrap.c ****     if( rsa_verify_wrap( (void *) pub, MBEDTLS_MD_NONE,
 665:Source\mbedtls_open\library/pk_wrap.c ****                          hash, sizeof( hash ), sig, sig_len ) != 0 )
 666:Source\mbedtls_open\library/pk_wrap.c ****     {
 667:Source\mbedtls_open\library/pk_wrap.c ****         return( MBEDTLS_ERR_RSA_KEY_CHECK_FAILED );
 668:Source\mbedtls_open\library/pk_wrap.c ****     }
 669:Source\mbedtls_open\library/pk_wrap.c **** 
 670:Source\mbedtls_open\library/pk_wrap.c ****     return( 0 );
 671:Source\mbedtls_open\library/pk_wrap.c **** }
 672:Source\mbedtls_open\library/pk_wrap.c **** #endif /* MBEDTLS_RSA_C */
 673:Source\mbedtls_open\library/pk_wrap.c **** 
 674:Source\mbedtls_open\library/pk_wrap.c **** static void *rsa_alt_alloc_wrap( void )
 675:Source\mbedtls_open\library/pk_wrap.c **** {
 676:Source\mbedtls_open\library/pk_wrap.c ****     void *ctx = mbedtls_calloc( 1, sizeof( mbedtls_rsa_alt_context ) );
 677:Source\mbedtls_open\library/pk_wrap.c **** 
 678:Source\mbedtls_open\library/pk_wrap.c ****     if( ctx != NULL )
 679:Source\mbedtls_open\library/pk_wrap.c ****         memset( ctx, 0, sizeof( mbedtls_rsa_alt_context ) );
 680:Source\mbedtls_open\library/pk_wrap.c **** 
 681:Source\mbedtls_open\library/pk_wrap.c ****     return( ctx );
 682:Source\mbedtls_open\library/pk_wrap.c **** }
 683:Source\mbedtls_open\library/pk_wrap.c **** 
 684:Source\mbedtls_open\library/pk_wrap.c **** static void rsa_alt_free_wrap( void *ctx )
 685:Source\mbedtls_open\library/pk_wrap.c **** {
 1207              		.loc 1 685 0
 1208              		.cfi_startproc
 1209              		@ args = 0, pretend = 0, frame = 0
 1210              		@ frame_needed = 0, uses_anonymous_args = 0
 1211              	.LVL148:
 1212 0000 10B5     		push	{r4, lr}
 1213              		.cfi_def_cfa_offset 8
 1214              		.cfi_offset 4, -8
 1215              		.cfi_offset 14, -4
 1216 0002 0400     		movs	r4, r0
 686:Source\mbedtls_open\library/pk_wrap.c ****     mbedtls_platform_zeroize( ctx, sizeof( mbedtls_rsa_alt_context ) );
 1217              		.loc 1 686 0
 1218 0004 1021     		movs	r1, #16
 1219 0006 FFF7FEFF 		bl	mbedtls_platform_zeroize
 1220              	.LVL149:
 687:Source\mbedtls_open\library/pk_wrap.c ****     mbedtls_free( ctx );
 1221              		.loc 1 687 0
 1222 000a 2000     		movs	r0, r4
 1223 000c FFF7FEFF 		bl	free
 1224              	.LVL150:
 688:Source\mbedtls_open\library/pk_wrap.c **** }
 1225              		.loc 1 688 0
 1226              		@ sp needed
ARM GAS  C:\Users\Phuong\AppData\Local\Temp\cc9PPFKV.s 			page 36


 1227              	.LVL151:
 1228 0010 10BD     		pop	{r4, pc}
 1229              		.cfi_endproc
 1230              	.LFE34:
 1231              		.size	rsa_alt_free_wrap, .-rsa_alt_free_wrap
 1232 0012 C046     		.section	.text.rsa_alt_alloc_wrap,"ax",%progbits
 1233              		.align	2
 1234              		.code	16
 1235              		.thumb_func
 1236              		.type	rsa_alt_alloc_wrap, %function
 1237              	rsa_alt_alloc_wrap:
 1238              	.LFB33:
 675:Source\mbedtls_open\library/pk_wrap.c ****     void *ctx = mbedtls_calloc( 1, sizeof( mbedtls_rsa_alt_context ) );
 1239              		.loc 1 675 0
 1240              		.cfi_startproc
 1241              		@ args = 0, pretend = 0, frame = 0
 1242              		@ frame_needed = 0, uses_anonymous_args = 0
 1243 0000 10B5     		push	{r4, lr}
 1244              		.cfi_def_cfa_offset 8
 1245              		.cfi_offset 4, -8
 1246              		.cfi_offset 14, -4
 676:Source\mbedtls_open\library/pk_wrap.c **** 
 1247              		.loc 1 676 0
 1248 0002 1021     		movs	r1, #16
 1249 0004 0120     		movs	r0, #1
 1250 0006 FFF7FEFF 		bl	calloc
 1251              	.LVL152:
 1252 000a 041E     		subs	r4, r0, #0
 1253              	.LVL153:
 678:Source\mbedtls_open\library/pk_wrap.c ****         memset( ctx, 0, sizeof( mbedtls_rsa_alt_context ) );
 1254              		.loc 1 678 0
 1255 000c 03D0     		beq	.L65
 679:Source\mbedtls_open\library/pk_wrap.c **** 
 1256              		.loc 1 679 0
 1257 000e 1022     		movs	r2, #16
 1258 0010 0021     		movs	r1, #0
 1259 0012 FFF7FEFF 		bl	memset
 1260              	.LVL154:
 1261              	.L65:
 682:Source\mbedtls_open\library/pk_wrap.c **** 
 1262              		.loc 1 682 0
 1263 0016 2000     		movs	r0, r4
 1264              		@ sp needed
 1265              	.LVL155:
 1266 0018 10BD     		pop	{r4, pc}
 1267              		.cfi_endproc
 1268              	.LFE33:
 1269              		.size	rsa_alt_alloc_wrap, .-rsa_alt_alloc_wrap
 1270 001a C046     		.section	.text.rsa_alt_check_pair,"ax",%progbits
 1271              		.align	2
 1272              		.code	16
 1273              		.thumb_func
 1274              		.type	rsa_alt_check_pair, %function
 1275              	rsa_alt_check_pair:
 1276              	.LFB32:
 646:Source\mbedtls_open\library/pk_wrap.c ****     unsigned char sig[MBEDTLS_MPI_MAX_SIZE];
 1277              		.loc 1 646 0
ARM GAS  C:\Users\Phuong\AppData\Local\Temp\cc9PPFKV.s 			page 37


 1278              		.cfi_startproc
 1279              		@ args = 0, pretend = 0, frame = 1064
 1280              		@ frame_needed = 0, uses_anonymous_args = 0
 1281              	.LVL156:
 1282 0000 70B5     		push	{r4, r5, r6, lr}
 1283              		.cfi_def_cfa_offset 16
 1284              		.cfi_offset 4, -16
 1285              		.cfi_offset 5, -12
 1286              		.cfi_offset 6, -8
 1287              		.cfi_offset 14, -4
 1288 0002 1B4C     		ldr	r4, .L70
 1289 0004 A544     		add	sp, sp, r4
 1290              		.cfi_def_cfa_offset 1096
 1291 0006 0500     		movs	r5, r0
 1292 0008 0C00     		movs	r4, r1
 649:Source\mbedtls_open\library/pk_wrap.c ****     int ret;
 1293              		.loc 1 649 0
 1294 000a 0023     		movs	r3, #0
 1295 000c 0593     		str	r3, [sp, #20]
 652:Source\mbedtls_open\library/pk_wrap.c ****         return( MBEDTLS_ERR_RSA_KEY_CHECK_FAILED );
 1296              		.loc 1 652 0
 1297 000e 0800     		movs	r0, r1
 1298              	.LVL157:
 1299 0010 FFF7FEFF 		bl	rsa_alt_get_bitlen
 1300              	.LVL158:
 1301 0014 0600     		movs	r6, r0
 1302 0016 2800     		movs	r0, r5
 1303 0018 FFF7FEFF 		bl	rsa_get_bitlen
 1304              	.LVL159:
 1305 001c 8642     		cmp	r6, r0
 1306 001e 21D1     		bne	.L68
 655:Source\mbedtls_open\library/pk_wrap.c **** 
 1307              		.loc 1 655 0
 1308 0020 2022     		movs	r2, #32
 1309 0022 2A21     		movs	r1, #42
 1310 0024 06A8     		add	r0, sp, #24
 1311 0026 FFF7FEFF 		bl	memset
 1312              	.LVL160:
 657:Source\mbedtls_open\library/pk_wrap.c ****                                    hash, sizeof( hash ),
 1313              		.loc 1 657 0
 1314 002a 0023     		movs	r3, #0
 1315 002c 0393     		str	r3, [sp, #12]
 1316 002e 0293     		str	r3, [sp, #8]
 1317 0030 05AB     		add	r3, sp, #20
 1318 0032 0193     		str	r3, [sp, #4]
 1319 0034 0EAB     		add	r3, sp, #56
 1320 0036 0093     		str	r3, [sp]
 1321 0038 2023     		movs	r3, #32
 1322 003a 06AA     		add	r2, sp, #24
 1323 003c 0021     		movs	r1, #0
 1324 003e 2000     		movs	r0, r4
 1325 0040 FFF7FEFF 		bl	rsa_alt_sign_wrap
 1326              	.LVL161:
 1327 0044 0028     		cmp	r0, #0
 1328 0046 0ED1     		bne	.L67
 664:Source\mbedtls_open\library/pk_wrap.c ****                          hash, sizeof( hash ), sig, sig_len ) != 0 )
 1329              		.loc 1 664 0
ARM GAS  C:\Users\Phuong\AppData\Local\Temp\cc9PPFKV.s 			page 38


 1330 0048 059B     		ldr	r3, [sp, #20]
 1331 004a 0193     		str	r3, [sp, #4]
 1332 004c 0EAB     		add	r3, sp, #56
 1333 004e 0093     		str	r3, [sp]
 1334 0050 2023     		movs	r3, #32
 1335 0052 06AA     		add	r2, sp, #24
 1336 0054 0021     		movs	r1, #0
 1337 0056 2800     		movs	r0, r5
 1338              	.LVL162:
 1339 0058 FFF7FEFF 		bl	rsa_verify_wrap
 1340              	.LVL163:
 1341 005c 0028     		cmp	r0, #0
 1342 005e 02D0     		beq	.L67
 667:Source\mbedtls_open\library/pk_wrap.c ****     }
 1343              		.loc 1 667 0
 1344 0060 0448     		ldr	r0, .L70+4
 1345 0062 00E0     		b	.L67
 1346              	.L68:
 653:Source\mbedtls_open\library/pk_wrap.c **** 
 1347              		.loc 1 653 0
 1348 0064 0348     		ldr	r0, .L70+4
 1349              	.L67:
 671:Source\mbedtls_open\library/pk_wrap.c **** #endif /* MBEDTLS_RSA_C */
 1350              		.loc 1 671 0
 1351 0066 8723     		movs	r3, #135
 1352 0068 DB00     		lsls	r3, r3, #3
 1353 006a 9D44     		add	sp, sp, r3
 1354              		@ sp needed
 1355              	.LVL164:
 1356              	.LVL165:
 1357 006c 70BD     		pop	{r4, r5, r6, pc}
 1358              	.L71:
 1359 006e C046     		.align	2
 1360              	.L70:
 1361 0070 C8FBFFFF 		.word	-1080
 1362 0074 00BEFFFF 		.word	-16896
 1363              		.cfi_endproc
 1364              	.LFE32:
 1365              		.size	rsa_alt_check_pair, .-rsa_alt_check_pair
 1366              		.global	mbedtls_rsa_alt_info
 1367              		.global	mbedtls_ecdsa_info
 1368              		.global	mbedtls_eckeydh_info
 1369              		.global	mbedtls_eckey_info
 1370              		.global	mbedtls_rsa_info
 1371              		.section	.rodata
 1372              		.align	2
 1373              		.type	mbedtls_rsa_alt_info, %object
 1374              		.size	mbedtls_rsa_alt_info, 48
 1375              	mbedtls_rsa_alt_info:
 1376 0000 05       		.byte	5
 1377 0001 000000   		.space	3
 1378 0004 18000000 		.word	.LC6
 1379 0008 00000000 		.word	rsa_alt_get_bitlen
 1380 000c 00000000 		.word	rsa_alt_can_do
 1381 0010 00000000 		.word	0
 1382 0014 00000000 		.word	rsa_alt_sign_wrap
 1383 0018 00000000 		.word	rsa_alt_decrypt_wrap
ARM GAS  C:\Users\Phuong\AppData\Local\Temp\cc9PPFKV.s 			page 39


 1384 001c 00000000 		.word	0
 1385 0020 00000000 		.word	rsa_alt_check_pair
 1386 0024 00000000 		.word	rsa_alt_alloc_wrap
 1387 0028 00000000 		.word	rsa_alt_free_wrap
 1388 002c 00000000 		.word	0
 1389              		.type	mbedtls_ecdsa_info, %object
 1390              		.size	mbedtls_ecdsa_info, 48
 1391              	mbedtls_ecdsa_info:
 1392 0030 04       		.byte	4
 1393 0031 000000   		.space	3
 1394 0034 20000000 		.word	.LC7
 1395 0038 00000000 		.word	eckey_get_bitlen
 1396 003c 00000000 		.word	ecdsa_can_do
 1397 0040 00000000 		.word	ecdsa_verify_wrap
 1398 0044 00000000 		.word	ecdsa_sign_wrap
 1399 0048 00000000 		.word	0
 1400 004c 00000000 		.word	0
 1401 0050 00000000 		.word	eckey_check_pair
 1402 0054 00000000 		.word	ecdsa_alloc_wrap
 1403 0058 00000000 		.word	ecdsa_free_wrap
 1404 005c 00000000 		.word	eckey_debug
 1405              		.type	mbedtls_eckeydh_info, %object
 1406              		.size	mbedtls_eckeydh_info, 48
 1407              	mbedtls_eckeydh_info:
 1408 0060 03       		.byte	3
 1409 0061 000000   		.space	3
 1410 0064 28000000 		.word	.LC8
 1411 0068 00000000 		.word	eckey_get_bitlen
 1412 006c 00000000 		.word	eckeydh_can_do
 1413 0070 00000000 		.word	0
 1414 0074 00000000 		.word	0
 1415 0078 00000000 		.word	0
 1416 007c 00000000 		.word	0
 1417 0080 00000000 		.word	eckey_check_pair
 1418 0084 00000000 		.word	eckey_alloc_wrap
 1419 0088 00000000 		.word	eckey_free_wrap
 1420 008c 00000000 		.word	eckey_debug
 1421              		.type	mbedtls_eckey_info, %object
 1422              		.size	mbedtls_eckey_info, 48
 1423              	mbedtls_eckey_info:
 1424 0090 02       		.byte	2
 1425 0091 000000   		.space	3
 1426 0094 30000000 		.word	.LC9
 1427 0098 00000000 		.word	eckey_get_bitlen
 1428 009c 00000000 		.word	eckey_can_do
 1429 00a0 00000000 		.word	eckey_verify_wrap
 1430 00a4 00000000 		.word	eckey_sign_wrap
 1431 00a8 00000000 		.word	0
 1432 00ac 00000000 		.word	0
 1433 00b0 00000000 		.word	eckey_check_pair
 1434 00b4 00000000 		.word	eckey_alloc_wrap
 1435 00b8 00000000 		.word	eckey_free_wrap
 1436 00bc 00000000 		.word	eckey_debug
 1437              		.type	mbedtls_rsa_info, %object
 1438              		.size	mbedtls_rsa_info, 48
 1439              	mbedtls_rsa_info:
 1440 00c0 01       		.byte	1
ARM GAS  C:\Users\Phuong\AppData\Local\Temp\cc9PPFKV.s 			page 40


 1441 00c1 000000   		.space	3
 1442 00c4 34000000 		.word	.LC10
 1443 00c8 00000000 		.word	rsa_get_bitlen
 1444 00cc 00000000 		.word	rsa_can_do
 1445 00d0 00000000 		.word	rsa_verify_wrap
 1446 00d4 00000000 		.word	rsa_sign_wrap
 1447 00d8 00000000 		.word	rsa_decrypt_wrap
 1448 00dc 00000000 		.word	rsa_encrypt_wrap
 1449 00e0 00000000 		.word	rsa_check_pair_wrap
 1450 00e4 00000000 		.word	rsa_alloc_wrap
 1451 00e8 00000000 		.word	rsa_free_wrap
 1452 00ec 00000000 		.word	rsa_debug
 1453              		.section	.rodata.str1.4,"aMS",%progbits,1
 1454              		.align	2
 1455              	.LC0:
 1456 0000 7273612E 		.ascii	"rsa.N\000"
 1456      4E00
 1457 0006 0000     		.space	2
 1458              	.LC2:
 1459 0008 7273612E 		.ascii	"rsa.E\000"
 1459      4500
 1460 000e 0000     		.space	2
 1461              	.LC4:
 1462 0010 65636B65 		.ascii	"eckey.Q\000"
 1462      792E5100 
 1463              	.LC6:
 1464 0018 5253412D 		.ascii	"RSA-alt\000"
 1464      616C7400 
 1465              	.LC7:
 1466 0020 45434453 		.ascii	"ECDSA\000"
 1466      4100
 1467 0026 0000     		.space	2
 1468              	.LC8:
 1469 0028 45435F44 		.ascii	"EC_DH\000"
 1469      4800
 1470 002e 0000     		.space	2
 1471              	.LC9:
 1472 0030 454300   		.ascii	"EC\000"
 1473 0033 00       		.space	1
 1474              	.LC10:
 1475 0034 52534100 		.ascii	"RSA\000"
 1476              		.text
 1477              	.Letext0:
 1478              		.file 2 "c:\\program files (x86)\\cypress\\psoc creator\\4.2\\psoc creator\\import\\gnu\\arm\\5.4.
 1479              		.file 3 "c:\\program files (x86)\\cypress\\psoc creator\\4.2\\psoc creator\\import\\gnu\\arm\\5.4.
 1480              		.file 4 ".\\Source\\mbedtls_open\\include/mbedtls/md.h"
 1481              		.file 5 "c:\\program files (x86)\\cypress\\psoc creator\\4.2\\psoc creator\\import\\gnu\\arm\\5.4.
 1482              		.file 6 ".\\Source\\mbedtls_open\\include/mbedtls/bignum.h"
 1483              		.file 7 ".\\Source\\mbedtls_open\\include/mbedtls/rsa.h"
 1484              		.file 8 ".\\Source\\mbedtls_open\\include/mbedtls/ecp.h"
 1485              		.file 9 ".\\Source\\mbedtls_open\\include/mbedtls/ecdsa.h"
 1486              		.file 10 ".\\Source\\mbedtls_open\\include/mbedtls/pk.h"
 1487              		.file 11 ".\\Source\\mbedtls_open\\include/mbedtls/pk_internal.h"
 1488              		.file 12 "c:\\program files (x86)\\cypress\\psoc creator\\4.2\\psoc creator\\import\\gnu\\arm\\5.4
 1489              		.file 13 ".\\Source\\mbedtls_open\\include/mbedtls/platform_util.h"
 1490              		.file 14 "c:\\program files (x86)\\cypress\\psoc creator\\4.2\\psoc creator\\import\\gnu\\arm\\5.4