ARM GAS  C:\Users\Phuong\AppData\Local\Temp\ccWk80Hv.s 			page 1


   1              		.syntax unified
   2              		.cpu cortex-m0plus
   3              		.fpu softvfp
   4              		.eabi_attribute 20, 1
   5              		.eabi_attribute 21, 1
   6              		.eabi_attribute 23, 3
   7              		.eabi_attribute 24, 1
   8              		.eabi_attribute 25, 1
   9              		.eabi_attribute 26, 1
  10              		.eabi_attribute 30, 1
  11              		.eabi_attribute 34, 0
  12              		.eabi_attribute 18, 4
  13              		.thumb
  14              		.syntax unified
  15              		.file	"pkcs12.c"
  16              		.text
  17              	.Ltext0:
  18              		.cfi_sections	.debug_frame
  19              		.section	.text.pkcs12_parse_pbe_params,"ax",%progbits
  20              		.align	2
  21              		.code	16
  22              		.thumb_func
  23              		.type	pkcs12_parse_pbe_params, %function
  24              	pkcs12_parse_pbe_params:
  25              	.LFB7:
  26              		.file 1 "Source\\mbedtls_open\\library\\pkcs12.c"
   1:Source\mbedtls_open\library/pkcs12.c **** /*
   2:Source\mbedtls_open\library/pkcs12.c ****  *  PKCS#12 Personal Information Exchange Syntax
   3:Source\mbedtls_open\library/pkcs12.c ****  *
   4:Source\mbedtls_open\library/pkcs12.c ****  *  Copyright (C) 2006-2015, ARM Limited, All Rights Reserved
   5:Source\mbedtls_open\library/pkcs12.c ****  *  SPDX-License-Identifier: Apache-2.0
   6:Source\mbedtls_open\library/pkcs12.c ****  *
   7:Source\mbedtls_open\library/pkcs12.c ****  *  Licensed under the Apache License, Version 2.0 (the "License"); you may
   8:Source\mbedtls_open\library/pkcs12.c ****  *  not use this file except in compliance with the License.
   9:Source\mbedtls_open\library/pkcs12.c ****  *  You may obtain a copy of the License at
  10:Source\mbedtls_open\library/pkcs12.c ****  *
  11:Source\mbedtls_open\library/pkcs12.c ****  *  http://www.apache.org/licenses/LICENSE-2.0
  12:Source\mbedtls_open\library/pkcs12.c ****  *
  13:Source\mbedtls_open\library/pkcs12.c ****  *  Unless required by applicable law or agreed to in writing, software
  14:Source\mbedtls_open\library/pkcs12.c ****  *  distributed under the License is distributed on an "AS IS" BASIS, WITHOUT
  15:Source\mbedtls_open\library/pkcs12.c ****  *  WARRANTIES OR CONDITIONS OF ANY KIND, either express or implied.
  16:Source\mbedtls_open\library/pkcs12.c ****  *  See the License for the specific language governing permissions and
  17:Source\mbedtls_open\library/pkcs12.c ****  *  limitations under the License.
  18:Source\mbedtls_open\library/pkcs12.c ****  *
  19:Source\mbedtls_open\library/pkcs12.c ****  *  This file is part of mbed TLS (https://tls.mbed.org)
  20:Source\mbedtls_open\library/pkcs12.c ****  */
  21:Source\mbedtls_open\library/pkcs12.c **** /*
  22:Source\mbedtls_open\library/pkcs12.c ****  *  The PKCS #12 Personal Information Exchange Syntax Standard v1.1
  23:Source\mbedtls_open\library/pkcs12.c ****  *
  24:Source\mbedtls_open\library/pkcs12.c ****  *  http://www.rsa.com/rsalabs/pkcs/files/h11301-wp-pkcs-12v1-1-personal-information-exchange-synta
  25:Source\mbedtls_open\library/pkcs12.c ****  *  ftp://ftp.rsasecurity.com/pub/pkcs/pkcs-12/pkcs-12v1-1.asn
  26:Source\mbedtls_open\library/pkcs12.c ****  */
  27:Source\mbedtls_open\library/pkcs12.c **** 
  28:Source\mbedtls_open\library/pkcs12.c **** #if !defined(MBEDTLS_CONFIG_FILE)
  29:Source\mbedtls_open\library/pkcs12.c **** #include "mbedtls/config.h"
  30:Source\mbedtls_open\library/pkcs12.c **** #else
  31:Source\mbedtls_open\library/pkcs12.c **** #include MBEDTLS_CONFIG_FILE
ARM GAS  C:\Users\Phuong\AppData\Local\Temp\ccWk80Hv.s 			page 2


  32:Source\mbedtls_open\library/pkcs12.c **** #endif
  33:Source\mbedtls_open\library/pkcs12.c **** 
  34:Source\mbedtls_open\library/pkcs12.c **** #if defined(MBEDTLS_PKCS12_C)
  35:Source\mbedtls_open\library/pkcs12.c **** 
  36:Source\mbedtls_open\library/pkcs12.c **** #include "mbedtls/pkcs12.h"
  37:Source\mbedtls_open\library/pkcs12.c **** #include "mbedtls/asn1.h"
  38:Source\mbedtls_open\library/pkcs12.c **** #include "mbedtls/cipher.h"
  39:Source\mbedtls_open\library/pkcs12.c **** #include "mbedtls/platform_util.h"
  40:Source\mbedtls_open\library/pkcs12.c **** 
  41:Source\mbedtls_open\library/pkcs12.c **** #include <string.h>
  42:Source\mbedtls_open\library/pkcs12.c **** 
  43:Source\mbedtls_open\library/pkcs12.c **** #if defined(MBEDTLS_ARC4_C)
  44:Source\mbedtls_open\library/pkcs12.c **** #include "mbedtls/arc4.h"
  45:Source\mbedtls_open\library/pkcs12.c **** #endif
  46:Source\mbedtls_open\library/pkcs12.c **** 
  47:Source\mbedtls_open\library/pkcs12.c **** #if defined(MBEDTLS_DES_C)
  48:Source\mbedtls_open\library/pkcs12.c **** #include "mbedtls/des.h"
  49:Source\mbedtls_open\library/pkcs12.c **** #endif
  50:Source\mbedtls_open\library/pkcs12.c **** 
  51:Source\mbedtls_open\library/pkcs12.c **** static int pkcs12_parse_pbe_params( mbedtls_asn1_buf *params,
  52:Source\mbedtls_open\library/pkcs12.c ****                                     mbedtls_asn1_buf *salt, int *iterations )
  53:Source\mbedtls_open\library/pkcs12.c **** {
  27              		.loc 1 53 0
  28              		.cfi_startproc
  29              		@ args = 0, pretend = 0, frame = 8
  30              		@ frame_needed = 0, uses_anonymous_args = 0
  31              	.LVL0:
  32 0000 F0B5     		push	{r4, r5, r6, r7, lr}
  33              		.cfi_def_cfa_offset 20
  34              		.cfi_offset 4, -20
  35              		.cfi_offset 5, -16
  36              		.cfi_offset 6, -12
  37              		.cfi_offset 7, -8
  38              		.cfi_offset 14, -4
  39 0002 83B0     		sub	sp, sp, #12
  40              		.cfi_def_cfa_offset 32
  41 0004 0400     		movs	r4, r0
  42 0006 0F00     		movs	r7, r1
  43 0008 0192     		str	r2, [sp, #4]
  54:Source\mbedtls_open\library/pkcs12.c ****     int ret;
  55:Source\mbedtls_open\library/pkcs12.c ****     unsigned char **p = &params->p;
  44              		.loc 1 55 0
  45 000a 0600     		movs	r6, r0
  46 000c 0836     		adds	r6, r6, #8
  47              	.LVL1:
  56:Source\mbedtls_open\library/pkcs12.c ****     const unsigned char *end = params->p + params->len;
  48              		.loc 1 56 0
  49 000e 8368     		ldr	r3, [r0, #8]
  50 0010 4268     		ldr	r2, [r0, #4]
  51              	.LVL2:
  52 0012 9446     		mov	ip, r2
  53 0014 6344     		add	r3, r3, ip
  54 0016 1D00     		movs	r5, r3
  55              	.LVL3:
  57:Source\mbedtls_open\library/pkcs12.c **** 
  58:Source\mbedtls_open\library/pkcs12.c ****     /*
  59:Source\mbedtls_open\library/pkcs12.c ****      *  pkcs-12PbeParams ::= SEQUENCE {
ARM GAS  C:\Users\Phuong\AppData\Local\Temp\ccWk80Hv.s 			page 3


  60:Source\mbedtls_open\library/pkcs12.c ****      *    salt          OCTET STRING,
  61:Source\mbedtls_open\library/pkcs12.c ****      *    iterations    INTEGER
  62:Source\mbedtls_open\library/pkcs12.c ****      *  }
  63:Source\mbedtls_open\library/pkcs12.c ****      *
  64:Source\mbedtls_open\library/pkcs12.c ****      */
  65:Source\mbedtls_open\library/pkcs12.c ****     if( params->tag != ( MBEDTLS_ASN1_CONSTRUCTED | MBEDTLS_ASN1_SEQUENCE ) )
  56              		.loc 1 65 0
  57 0018 0368     		ldr	r3, [r0]
  58              	.LVL4:
  59 001a 302B     		cmp	r3, #48
  60 001c 22D1     		bne	.L5
  66:Source\mbedtls_open\library/pkcs12.c ****         return( MBEDTLS_ERR_PKCS12_PBE_INVALID_FORMAT +
  67:Source\mbedtls_open\library/pkcs12.c ****                 MBEDTLS_ERR_ASN1_UNEXPECTED_TAG );
  68:Source\mbedtls_open\library/pkcs12.c **** 
  69:Source\mbedtls_open\library/pkcs12.c ****     if( ( ret = mbedtls_asn1_get_tag( p, end, &salt->len, MBEDTLS_ASN1_OCTET_STRING ) ) != 0 )
  61              		.loc 1 69 0
  62 001e 0A1D     		adds	r2, r1, #4
  63 0020 2C3B     		subs	r3, r3, #44
  64 0022 2900     		movs	r1, r5
  65              	.LVL5:
  66 0024 3000     		movs	r0, r6
  67              	.LVL6:
  68 0026 FFF7FEFF 		bl	mbedtls_asn1_get_tag
  69              	.LVL7:
  70 002a 0028     		cmp	r0, #0
  71 002c 03D0     		beq	.L3
  70:Source\mbedtls_open\library/pkcs12.c ****         return( MBEDTLS_ERR_PKCS12_PBE_INVALID_FORMAT + ret );
  72              		.loc 1 70 0
  73 002e 104B     		ldr	r3, .L7
  74 0030 9C46     		mov	ip, r3
  75 0032 6044     		add	r0, r0, ip
  76              	.LVL8:
  77 0034 19E0     		b	.L2
  78              	.LVL9:
  79              	.L3:
  71:Source\mbedtls_open\library/pkcs12.c **** 
  72:Source\mbedtls_open\library/pkcs12.c ****     salt->p = *p;
  80              		.loc 1 72 0
  81 0036 A368     		ldr	r3, [r4, #8]
  82 0038 BB60     		str	r3, [r7, #8]
  73:Source\mbedtls_open\library/pkcs12.c ****     *p += salt->len;
  83              		.loc 1 73 0
  84 003a 7B68     		ldr	r3, [r7, #4]
  85 003c A268     		ldr	r2, [r4, #8]
  86 003e 9446     		mov	ip, r2
  87 0040 6344     		add	r3, r3, ip
  88 0042 A360     		str	r3, [r4, #8]
  74:Source\mbedtls_open\library/pkcs12.c **** 
  75:Source\mbedtls_open\library/pkcs12.c ****     if( ( ret = mbedtls_asn1_get_int( p, end, iterations ) ) != 0 )
  89              		.loc 1 75 0
  90 0044 019A     		ldr	r2, [sp, #4]
  91 0046 2900     		movs	r1, r5
  92 0048 3000     		movs	r0, r6
  93              	.LVL10:
  94 004a FFF7FEFF 		bl	mbedtls_asn1_get_int
  95              	.LVL11:
  96 004e 0028     		cmp	r0, #0
ARM GAS  C:\Users\Phuong\AppData\Local\Temp\ccWk80Hv.s 			page 4


  97 0050 03D0     		beq	.L4
  76:Source\mbedtls_open\library/pkcs12.c ****         return( MBEDTLS_ERR_PKCS12_PBE_INVALID_FORMAT + ret );
  98              		.loc 1 76 0
  99 0052 074B     		ldr	r3, .L7
 100 0054 9C46     		mov	ip, r3
 101 0056 6044     		add	r0, r0, ip
 102              	.LVL12:
 103 0058 07E0     		b	.L2
 104              	.LVL13:
 105              	.L4:
  77:Source\mbedtls_open\library/pkcs12.c **** 
  78:Source\mbedtls_open\library/pkcs12.c ****     if( *p != end )
 106              		.loc 1 78 0
 107 005a A368     		ldr	r3, [r4, #8]
 108 005c 9D42     		cmp	r5, r3
 109 005e 03D0     		beq	.L6
  79:Source\mbedtls_open\library/pkcs12.c ****         return( MBEDTLS_ERR_PKCS12_PBE_INVALID_FORMAT +
 110              		.loc 1 79 0
 111 0060 0448     		ldr	r0, .L7+4
 112              	.LVL14:
 113 0062 02E0     		b	.L2
 114              	.LVL15:
 115              	.L5:
  66:Source\mbedtls_open\library/pkcs12.c ****                 MBEDTLS_ERR_ASN1_UNEXPECTED_TAG );
 116              		.loc 1 66 0
 117 0064 0448     		ldr	r0, .L7+8
 118              	.LVL16:
 119 0066 00E0     		b	.L2
 120              	.LVL17:
 121              	.L6:
  80:Source\mbedtls_open\library/pkcs12.c ****                 MBEDTLS_ERR_ASN1_LENGTH_MISMATCH );
  81:Source\mbedtls_open\library/pkcs12.c **** 
  82:Source\mbedtls_open\library/pkcs12.c ****     return( 0 );
 122              		.loc 1 82 0
 123 0068 0020     		movs	r0, #0
 124              	.LVL18:
 125              	.L2:
  83:Source\mbedtls_open\library/pkcs12.c **** }
 126              		.loc 1 83 0
 127 006a 03B0     		add	sp, sp, #12
 128              		@ sp needed
 129              	.LVL19:
 130              	.LVL20:
 131              	.LVL21:
 132              	.LVL22:
 133 006c F0BD     		pop	{r4, r5, r6, r7, pc}
 134              	.L8:
 135 006e C046     		.align	2
 136              	.L7:
 137 0070 80E1FFFF 		.word	-7808
 138 0074 1AE1FFFF 		.word	-7910
 139 0078 1EE1FFFF 		.word	-7906
 140              		.cfi_endproc
 141              	.LFE7:
 142              		.size	pkcs12_parse_pbe_params, .-pkcs12_parse_pbe_params
 143              		.section	.text.pkcs12_fill_buffer,"ax",%progbits
 144              		.align	2
ARM GAS  C:\Users\Phuong\AppData\Local\Temp\ccWk80Hv.s 			page 5


 145              		.code	16
 146              		.thumb_func
 147              		.type	pkcs12_fill_buffer, %function
 148              	pkcs12_fill_buffer:
 149              	.LFB11:
  84:Source\mbedtls_open\library/pkcs12.c **** 
  85:Source\mbedtls_open\library/pkcs12.c **** #define PKCS12_MAX_PWDLEN 128
  86:Source\mbedtls_open\library/pkcs12.c **** 
  87:Source\mbedtls_open\library/pkcs12.c **** static int pkcs12_pbe_derive_key_iv( mbedtls_asn1_buf *pbe_params, mbedtls_md_type_t md_type,
  88:Source\mbedtls_open\library/pkcs12.c ****                                      const unsigned char *pwd,  size_t pwdlen,
  89:Source\mbedtls_open\library/pkcs12.c ****                                      unsigned char *key, size_t keylen,
  90:Source\mbedtls_open\library/pkcs12.c ****                                      unsigned char *iv,  size_t ivlen )
  91:Source\mbedtls_open\library/pkcs12.c **** {
  92:Source\mbedtls_open\library/pkcs12.c ****     int ret, iterations = 0;
  93:Source\mbedtls_open\library/pkcs12.c ****     mbedtls_asn1_buf salt;
  94:Source\mbedtls_open\library/pkcs12.c ****     size_t i;
  95:Source\mbedtls_open\library/pkcs12.c ****     unsigned char unipwd[PKCS12_MAX_PWDLEN * 2 + 2];
  96:Source\mbedtls_open\library/pkcs12.c **** 
  97:Source\mbedtls_open\library/pkcs12.c ****     if( pwdlen > PKCS12_MAX_PWDLEN )
  98:Source\mbedtls_open\library/pkcs12.c ****         return( MBEDTLS_ERR_PKCS12_BAD_INPUT_DATA );
  99:Source\mbedtls_open\library/pkcs12.c **** 
 100:Source\mbedtls_open\library/pkcs12.c ****     memset( &salt, 0, sizeof(mbedtls_asn1_buf) );
 101:Source\mbedtls_open\library/pkcs12.c ****     memset( &unipwd, 0, sizeof(unipwd) );
 102:Source\mbedtls_open\library/pkcs12.c **** 
 103:Source\mbedtls_open\library/pkcs12.c ****     if( ( ret = pkcs12_parse_pbe_params( pbe_params, &salt,
 104:Source\mbedtls_open\library/pkcs12.c ****                                          &iterations ) ) != 0 )
 105:Source\mbedtls_open\library/pkcs12.c ****         return( ret );
 106:Source\mbedtls_open\library/pkcs12.c **** 
 107:Source\mbedtls_open\library/pkcs12.c ****     for( i = 0; i < pwdlen; i++ )
 108:Source\mbedtls_open\library/pkcs12.c ****         unipwd[i * 2 + 1] = pwd[i];
 109:Source\mbedtls_open\library/pkcs12.c **** 
 110:Source\mbedtls_open\library/pkcs12.c ****     if( ( ret = mbedtls_pkcs12_derivation( key, keylen, unipwd, pwdlen * 2 + 2,
 111:Source\mbedtls_open\library/pkcs12.c ****                                    salt.p, salt.len, md_type,
 112:Source\mbedtls_open\library/pkcs12.c ****                                    MBEDTLS_PKCS12_DERIVE_KEY, iterations ) ) != 0 )
 113:Source\mbedtls_open\library/pkcs12.c ****     {
 114:Source\mbedtls_open\library/pkcs12.c ****         return( ret );
 115:Source\mbedtls_open\library/pkcs12.c ****     }
 116:Source\mbedtls_open\library/pkcs12.c **** 
 117:Source\mbedtls_open\library/pkcs12.c ****     if( iv == NULL || ivlen == 0 )
 118:Source\mbedtls_open\library/pkcs12.c ****         return( 0 );
 119:Source\mbedtls_open\library/pkcs12.c **** 
 120:Source\mbedtls_open\library/pkcs12.c ****     if( ( ret = mbedtls_pkcs12_derivation( iv, ivlen, unipwd, pwdlen * 2 + 2,
 121:Source\mbedtls_open\library/pkcs12.c ****                                    salt.p, salt.len, md_type,
 122:Source\mbedtls_open\library/pkcs12.c ****                                    MBEDTLS_PKCS12_DERIVE_IV, iterations ) ) != 0 )
 123:Source\mbedtls_open\library/pkcs12.c ****     {
 124:Source\mbedtls_open\library/pkcs12.c ****         return( ret );
 125:Source\mbedtls_open\library/pkcs12.c ****     }
 126:Source\mbedtls_open\library/pkcs12.c ****     return( 0 );
 127:Source\mbedtls_open\library/pkcs12.c **** }
 128:Source\mbedtls_open\library/pkcs12.c **** 
 129:Source\mbedtls_open\library/pkcs12.c **** #undef PKCS12_MAX_PWDLEN
 130:Source\mbedtls_open\library/pkcs12.c **** 
 131:Source\mbedtls_open\library/pkcs12.c **** int mbedtls_pkcs12_pbe_sha1_rc4_128( mbedtls_asn1_buf *pbe_params, int mode,
 132:Source\mbedtls_open\library/pkcs12.c ****                              const unsigned char *pwd,  size_t pwdlen,
 133:Source\mbedtls_open\library/pkcs12.c ****                              const unsigned char *data, size_t len,
 134:Source\mbedtls_open\library/pkcs12.c ****                              unsigned char *output )
 135:Source\mbedtls_open\library/pkcs12.c **** {
ARM GAS  C:\Users\Phuong\AppData\Local\Temp\ccWk80Hv.s 			page 6


 136:Source\mbedtls_open\library/pkcs12.c **** #if !defined(MBEDTLS_ARC4_C)
 137:Source\mbedtls_open\library/pkcs12.c ****     ((void) pbe_params);
 138:Source\mbedtls_open\library/pkcs12.c ****     ((void) mode);
 139:Source\mbedtls_open\library/pkcs12.c ****     ((void) pwd);
 140:Source\mbedtls_open\library/pkcs12.c ****     ((void) pwdlen);
 141:Source\mbedtls_open\library/pkcs12.c ****     ((void) data);
 142:Source\mbedtls_open\library/pkcs12.c ****     ((void) len);
 143:Source\mbedtls_open\library/pkcs12.c ****     ((void) output);
 144:Source\mbedtls_open\library/pkcs12.c ****     return( MBEDTLS_ERR_PKCS12_FEATURE_UNAVAILABLE );
 145:Source\mbedtls_open\library/pkcs12.c **** #else
 146:Source\mbedtls_open\library/pkcs12.c ****     int ret;
 147:Source\mbedtls_open\library/pkcs12.c ****     unsigned char key[16];
 148:Source\mbedtls_open\library/pkcs12.c ****     mbedtls_arc4_context ctx;
 149:Source\mbedtls_open\library/pkcs12.c ****     ((void) mode);
 150:Source\mbedtls_open\library/pkcs12.c **** 
 151:Source\mbedtls_open\library/pkcs12.c ****     mbedtls_arc4_init( &ctx );
 152:Source\mbedtls_open\library/pkcs12.c **** 
 153:Source\mbedtls_open\library/pkcs12.c ****     if( ( ret = pkcs12_pbe_derive_key_iv( pbe_params, MBEDTLS_MD_SHA1,
 154:Source\mbedtls_open\library/pkcs12.c ****                                           pwd, pwdlen,
 155:Source\mbedtls_open\library/pkcs12.c ****                                           key, 16, NULL, 0 ) ) != 0 )
 156:Source\mbedtls_open\library/pkcs12.c ****     {
 157:Source\mbedtls_open\library/pkcs12.c ****         return( ret );
 158:Source\mbedtls_open\library/pkcs12.c ****     }
 159:Source\mbedtls_open\library/pkcs12.c **** 
 160:Source\mbedtls_open\library/pkcs12.c ****     mbedtls_arc4_setup( &ctx, key, 16 );
 161:Source\mbedtls_open\library/pkcs12.c ****     if( ( ret = mbedtls_arc4_crypt( &ctx, len, data, output ) ) != 0 )
 162:Source\mbedtls_open\library/pkcs12.c ****         goto exit;
 163:Source\mbedtls_open\library/pkcs12.c **** 
 164:Source\mbedtls_open\library/pkcs12.c **** exit:
 165:Source\mbedtls_open\library/pkcs12.c ****     mbedtls_platform_zeroize( key, sizeof( key ) );
 166:Source\mbedtls_open\library/pkcs12.c ****     mbedtls_arc4_free( &ctx );
 167:Source\mbedtls_open\library/pkcs12.c **** 
 168:Source\mbedtls_open\library/pkcs12.c ****     return( ret );
 169:Source\mbedtls_open\library/pkcs12.c **** #endif /* MBEDTLS_ARC4_C */
 170:Source\mbedtls_open\library/pkcs12.c **** }
 171:Source\mbedtls_open\library/pkcs12.c **** 
 172:Source\mbedtls_open\library/pkcs12.c **** int mbedtls_pkcs12_pbe( mbedtls_asn1_buf *pbe_params, int mode,
 173:Source\mbedtls_open\library/pkcs12.c ****                 mbedtls_cipher_type_t cipher_type, mbedtls_md_type_t md_type,
 174:Source\mbedtls_open\library/pkcs12.c ****                 const unsigned char *pwd,  size_t pwdlen,
 175:Source\mbedtls_open\library/pkcs12.c ****                 const unsigned char *data, size_t len,
 176:Source\mbedtls_open\library/pkcs12.c ****                 unsigned char *output )
 177:Source\mbedtls_open\library/pkcs12.c **** {
 178:Source\mbedtls_open\library/pkcs12.c ****     int ret, keylen = 0;
 179:Source\mbedtls_open\library/pkcs12.c ****     unsigned char key[32];
 180:Source\mbedtls_open\library/pkcs12.c ****     unsigned char iv[16];
 181:Source\mbedtls_open\library/pkcs12.c ****     const mbedtls_cipher_info_t *cipher_info;
 182:Source\mbedtls_open\library/pkcs12.c ****     mbedtls_cipher_context_t cipher_ctx;
 183:Source\mbedtls_open\library/pkcs12.c ****     size_t olen = 0;
 184:Source\mbedtls_open\library/pkcs12.c **** 
 185:Source\mbedtls_open\library/pkcs12.c ****     cipher_info = mbedtls_cipher_info_from_type( cipher_type );
 186:Source\mbedtls_open\library/pkcs12.c ****     if( cipher_info == NULL )
 187:Source\mbedtls_open\library/pkcs12.c ****         return( MBEDTLS_ERR_PKCS12_FEATURE_UNAVAILABLE );
 188:Source\mbedtls_open\library/pkcs12.c **** 
 189:Source\mbedtls_open\library/pkcs12.c ****     keylen = cipher_info->key_bitlen / 8;
 190:Source\mbedtls_open\library/pkcs12.c **** 
 191:Source\mbedtls_open\library/pkcs12.c ****     if( ( ret = pkcs12_pbe_derive_key_iv( pbe_params, md_type, pwd, pwdlen,
 192:Source\mbedtls_open\library/pkcs12.c ****                                           key, keylen,
ARM GAS  C:\Users\Phuong\AppData\Local\Temp\ccWk80Hv.s 			page 7


 193:Source\mbedtls_open\library/pkcs12.c ****                                           iv, cipher_info->iv_size ) ) != 0 )
 194:Source\mbedtls_open\library/pkcs12.c ****     {
 195:Source\mbedtls_open\library/pkcs12.c ****         return( ret );
 196:Source\mbedtls_open\library/pkcs12.c ****     }
 197:Source\mbedtls_open\library/pkcs12.c **** 
 198:Source\mbedtls_open\library/pkcs12.c ****     mbedtls_cipher_init( &cipher_ctx );
 199:Source\mbedtls_open\library/pkcs12.c **** 
 200:Source\mbedtls_open\library/pkcs12.c ****     if( ( ret = mbedtls_cipher_setup( &cipher_ctx, cipher_info ) ) != 0 )
 201:Source\mbedtls_open\library/pkcs12.c ****         goto exit;
 202:Source\mbedtls_open\library/pkcs12.c **** 
 203:Source\mbedtls_open\library/pkcs12.c ****     if( ( ret = mbedtls_cipher_setkey( &cipher_ctx, key, 8 * keylen, (mbedtls_operation_t) mode ) )
 204:Source\mbedtls_open\library/pkcs12.c ****         goto exit;
 205:Source\mbedtls_open\library/pkcs12.c **** 
 206:Source\mbedtls_open\library/pkcs12.c ****     if( ( ret = mbedtls_cipher_set_iv( &cipher_ctx, iv, cipher_info->iv_size ) ) != 0 )
 207:Source\mbedtls_open\library/pkcs12.c ****         goto exit;
 208:Source\mbedtls_open\library/pkcs12.c **** 
 209:Source\mbedtls_open\library/pkcs12.c ****     if( ( ret = mbedtls_cipher_reset( &cipher_ctx ) ) != 0 )
 210:Source\mbedtls_open\library/pkcs12.c ****         goto exit;
 211:Source\mbedtls_open\library/pkcs12.c **** 
 212:Source\mbedtls_open\library/pkcs12.c ****     if( ( ret = mbedtls_cipher_update( &cipher_ctx, data, len,
 213:Source\mbedtls_open\library/pkcs12.c ****                                 output, &olen ) ) != 0 )
 214:Source\mbedtls_open\library/pkcs12.c ****     {
 215:Source\mbedtls_open\library/pkcs12.c ****         goto exit;
 216:Source\mbedtls_open\library/pkcs12.c ****     }
 217:Source\mbedtls_open\library/pkcs12.c **** 
 218:Source\mbedtls_open\library/pkcs12.c ****     if( ( ret = mbedtls_cipher_finish( &cipher_ctx, output + olen, &olen ) ) != 0 )
 219:Source\mbedtls_open\library/pkcs12.c ****         ret = MBEDTLS_ERR_PKCS12_PASSWORD_MISMATCH;
 220:Source\mbedtls_open\library/pkcs12.c **** 
 221:Source\mbedtls_open\library/pkcs12.c **** exit:
 222:Source\mbedtls_open\library/pkcs12.c ****     mbedtls_platform_zeroize( key, sizeof( key ) );
 223:Source\mbedtls_open\library/pkcs12.c ****     mbedtls_platform_zeroize( iv,  sizeof( iv  ) );
 224:Source\mbedtls_open\library/pkcs12.c ****     mbedtls_cipher_free( &cipher_ctx );
 225:Source\mbedtls_open\library/pkcs12.c **** 
 226:Source\mbedtls_open\library/pkcs12.c ****     return( ret );
 227:Source\mbedtls_open\library/pkcs12.c **** }
 228:Source\mbedtls_open\library/pkcs12.c **** 
 229:Source\mbedtls_open\library/pkcs12.c **** static void pkcs12_fill_buffer( unsigned char *data, size_t data_len,
 230:Source\mbedtls_open\library/pkcs12.c ****                                 const unsigned char *filler, size_t fill_len )
 231:Source\mbedtls_open\library/pkcs12.c **** {
 150              		.loc 1 231 0
 151              		.cfi_startproc
 152              		@ args = 0, pretend = 0, frame = 8
 153              		@ frame_needed = 0, uses_anonymous_args = 0
 154              	.LVL23:
 155 0000 F0B5     		push	{r4, r5, r6, r7, lr}
 156              		.cfi_def_cfa_offset 20
 157              		.cfi_offset 4, -20
 158              		.cfi_offset 5, -16
 159              		.cfi_offset 6, -12
 160              		.cfi_offset 7, -8
 161              		.cfi_offset 14, -4
 162 0002 83B0     		sub	sp, sp, #12
 163              		.cfi_def_cfa_offset 32
 164 0004 0600     		movs	r6, r0
 165 0006 0C00     		movs	r4, r1
 166 0008 0192     		str	r2, [sp, #4]
 167 000a 1F00     		movs	r7, r3
ARM GAS  C:\Users\Phuong\AppData\Local\Temp\ccWk80Hv.s 			page 8


 168              	.LVL24:
 232:Source\mbedtls_open\library/pkcs12.c ****     unsigned char *p = data;
 233:Source\mbedtls_open\library/pkcs12.c ****     size_t use_len;
 234:Source\mbedtls_open\library/pkcs12.c **** 
 235:Source\mbedtls_open\library/pkcs12.c ****     while( data_len > 0 )
 169              		.loc 1 235 0
 170 000c 0AE0     		b	.L10
 171              	.LVL25:
 172              	.L12:
 236:Source\mbedtls_open\library/pkcs12.c ****     {
 237:Source\mbedtls_open\library/pkcs12.c ****         use_len = ( data_len > fill_len ) ? fill_len : data_len;
 173              		.loc 1 237 0
 174 000e 2500     		movs	r5, r4
 175 0010 BC42     		cmp	r4, r7
 176 0012 00D9     		bls	.L11
 177 0014 3D00     		movs	r5, r7
 178              	.L11:
 179              	.LVL26:
 238:Source\mbedtls_open\library/pkcs12.c ****         memcpy( p, filler, use_len );
 180              		.loc 1 238 0
 181 0016 2A00     		movs	r2, r5
 182 0018 0199     		ldr	r1, [sp, #4]
 183 001a 3000     		movs	r0, r6
 184 001c FFF7FEFF 		bl	memcpy
 185              	.LVL27:
 239:Source\mbedtls_open\library/pkcs12.c ****         p += use_len;
 186              		.loc 1 239 0
 187 0020 7619     		adds	r6, r6, r5
 188              	.LVL28:
 240:Source\mbedtls_open\library/pkcs12.c ****         data_len -= use_len;
 189              		.loc 1 240 0
 190 0022 641B     		subs	r4, r4, r5
 191              	.LVL29:
 192              	.L10:
 235:Source\mbedtls_open\library/pkcs12.c ****     {
 193              		.loc 1 235 0
 194 0024 002C     		cmp	r4, #0
 195 0026 F2D1     		bne	.L12
 241:Source\mbedtls_open\library/pkcs12.c ****     }
 242:Source\mbedtls_open\library/pkcs12.c **** }
 196              		.loc 1 242 0
 197 0028 03B0     		add	sp, sp, #12
 198              		@ sp needed
 199              	.LVL30:
 200              	.LVL31:
 201              	.LVL32:
 202 002a F0BD     		pop	{r4, r5, r6, r7, pc}
 203              		.cfi_endproc
 204              	.LFE11:
 205              		.size	pkcs12_fill_buffer, .-pkcs12_fill_buffer
 206              		.section	.text.mbedtls_pkcs12_derivation,"ax",%progbits
 207              		.align	2
 208              		.global	mbedtls_pkcs12_derivation
 209              		.code	16
 210              		.thumb_func
 211              		.type	mbedtls_pkcs12_derivation, %function
 212              	mbedtls_pkcs12_derivation:
ARM GAS  C:\Users\Phuong\AppData\Local\Temp\ccWk80Hv.s 			page 9


 213              	.LFB12:
 243:Source\mbedtls_open\library/pkcs12.c **** 
 244:Source\mbedtls_open\library/pkcs12.c **** int mbedtls_pkcs12_derivation( unsigned char *data, size_t datalen,
 245:Source\mbedtls_open\library/pkcs12.c ****                        const unsigned char *pwd, size_t pwdlen,
 246:Source\mbedtls_open\library/pkcs12.c ****                        const unsigned char *salt, size_t saltlen,
 247:Source\mbedtls_open\library/pkcs12.c ****                        mbedtls_md_type_t md_type, int id, int iterations )
 248:Source\mbedtls_open\library/pkcs12.c **** {
 214              		.loc 1 248 0
 215              		.cfi_startproc
 216              		@ args = 20, pretend = 0, frame = 616
 217              		@ frame_needed = 0, uses_anonymous_args = 0
 218              	.LVL33:
 219 0000 F0B5     		push	{r4, r5, r6, r7, lr}
 220              		.cfi_def_cfa_offset 20
 221              		.cfi_offset 4, -20
 222              		.cfi_offset 5, -16
 223              		.cfi_offset 6, -12
 224              		.cfi_offset 7, -8
 225              		.cfi_offset 14, -4
 226 0002 5F46     		mov	r7, fp
 227 0004 4E46     		mov	r6, r9
 228 0006 C0B4     		push	{r6, r7}
 229              		.cfi_def_cfa_offset 28
 230              		.cfi_offset 9, -28
 231              		.cfi_offset 11, -24
 232 0008 774C     		ldr	r4, .L42
 233 000a A544     		add	sp, sp, r4
 234              		.cfi_def_cfa_offset 648
 235 000c 0390     		str	r0, [sp, #12]
 236 000e 0C00     		movs	r4, r1
 237 0010 0592     		str	r2, [sp, #20]
 238 0012 1F00     		movs	r7, r3
 239 0014 A4AB     		add	r3, sp, #656
 240              	.LVL34:
 241 0016 1878     		ldrb	r0, [r3]
 242              	.LVL35:
 243 0018 A69E     		ldr	r6, [sp, #664]
 249:Source\mbedtls_open\library/pkcs12.c ****     int ret;
 250:Source\mbedtls_open\library/pkcs12.c ****     unsigned int j;
 251:Source\mbedtls_open\library/pkcs12.c **** 
 252:Source\mbedtls_open\library/pkcs12.c ****     unsigned char diversifier[128];
 253:Source\mbedtls_open\library/pkcs12.c ****     unsigned char salt_block[128], pwd_block[128], hash_block[128];
 254:Source\mbedtls_open\library/pkcs12.c ****     unsigned char hash_output[MBEDTLS_MD_MAX_SIZE];
 255:Source\mbedtls_open\library/pkcs12.c ****     unsigned char *p;
 256:Source\mbedtls_open\library/pkcs12.c ****     unsigned char c;
 257:Source\mbedtls_open\library/pkcs12.c **** 
 258:Source\mbedtls_open\library/pkcs12.c ****     size_t hlen, use_len, v, i;
 259:Source\mbedtls_open\library/pkcs12.c **** 
 260:Source\mbedtls_open\library/pkcs12.c ****     const mbedtls_md_info_t *md_info;
 261:Source\mbedtls_open\library/pkcs12.c ****     mbedtls_md_context_t md_ctx;
 262:Source\mbedtls_open\library/pkcs12.c **** 
 263:Source\mbedtls_open\library/pkcs12.c ****     // This version only allows max of 64 bytes of password or salt
 264:Source\mbedtls_open\library/pkcs12.c ****     if( datalen > 128 || pwdlen > 64 || saltlen > 64 )
 244              		.loc 1 264 0
 245 001a 8029     		cmp	r1, #128
 246 001c 00D9     		bls	.LCB260
 247 001e D3E0     		b	.L29	@long jump
ARM GAS  C:\Users\Phuong\AppData\Local\Temp\ccWk80Hv.s 			page 10


 248              	.LCB260:
 249              		.loc 1 264 0 is_stmt 0 discriminator 1
 250 0020 402F     		cmp	r7, #64
 251 0022 00D9     		bls	.LCB262
 252 0024 D2E0     		b	.L30	@long jump
 253              	.LCB262:
 254              		.loc 1 264 0 discriminator 2
 255 0026 A39B     		ldr	r3, [sp, #652]
 256              	.LVL36:
 257 0028 402B     		cmp	r3, #64
 258 002a 00D9     		bls	.LCB266
 259 002c D0E0     		b	.L31	@long jump
 260              	.LCB266:
 265:Source\mbedtls_open\library/pkcs12.c ****         return( MBEDTLS_ERR_PKCS12_BAD_INPUT_DATA );
 266:Source\mbedtls_open\library/pkcs12.c **** 
 267:Source\mbedtls_open\library/pkcs12.c ****     md_info = mbedtls_md_info_from_type( md_type );
 261              		.loc 1 267 0 is_stmt 1
 262 002e FFF7FEFF 		bl	mbedtls_md_info_from_type
 263              	.LVL37:
 264 0032 051E     		subs	r5, r0, #0
 265 0034 0090     		str	r0, [sp]
 266              	.LVL38:
 268:Source\mbedtls_open\library/pkcs12.c ****     if( md_info == NULL )
 267              		.loc 1 268 0
 268 0036 00D1     		bne	.LCB275
 269 0038 CCE0     		b	.L32	@long jump
 270              	.LCB275:
 269:Source\mbedtls_open\library/pkcs12.c ****         return( MBEDTLS_ERR_PKCS12_FEATURE_UNAVAILABLE );
 270:Source\mbedtls_open\library/pkcs12.c **** 
 271:Source\mbedtls_open\library/pkcs12.c ****     mbedtls_md_init( &md_ctx );
 271              		.loc 1 271 0
 272 003a 07A8     		add	r0, sp, #28
 273              	.LVL39:
 274 003c FFF7FEFF 		bl	mbedtls_md_init
 275              	.LVL40:
 272:Source\mbedtls_open\library/pkcs12.c **** 
 273:Source\mbedtls_open\library/pkcs12.c ****     if( ( ret = mbedtls_md_setup( &md_ctx, md_info, 0 ) ) != 0 )
 276              		.loc 1 273 0
 277 0040 0022     		movs	r2, #0
 278 0042 2900     		movs	r1, r5
 279 0044 07A8     		add	r0, sp, #28
 280 0046 FFF7FEFF 		bl	mbedtls_md_setup
 281              	.LVL41:
 282 004a 0490     		str	r0, [sp, #16]
 283              	.LVL42:
 284 004c 0028     		cmp	r0, #0
 285 004e 00D0     		beq	.LCB289
 286 0050 C2E0     		b	.L33	@long jump
 287              	.LCB289:
 274:Source\mbedtls_open\library/pkcs12.c ****         return( ret );
 275:Source\mbedtls_open\library/pkcs12.c ****     hlen = mbedtls_md_get_size( md_info );
 288              		.loc 1 275 0
 289 0052 0098     		ldr	r0, [sp]
 290              	.LVL43:
 291 0054 FFF7FEFF 		bl	mbedtls_md_get_size
 292              	.LVL44:
 293 0058 0190     		str	r0, [sp, #4]
ARM GAS  C:\Users\Phuong\AppData\Local\Temp\ccWk80Hv.s 			page 11


 294              	.LVL45:
 276:Source\mbedtls_open\library/pkcs12.c **** 
 277:Source\mbedtls_open\library/pkcs12.c ****     if( hlen <= 32 )
 295              		.loc 1 277 0
 296 005a 2028     		cmp	r0, #32
 297 005c 02D8     		bhi	.L34
 278:Source\mbedtls_open\library/pkcs12.c ****         v = 64;
 298              		.loc 1 278 0
 299 005e 4023     		movs	r3, #64
 300 0060 0293     		str	r3, [sp, #8]
 301 0062 01E0     		b	.L15
 302              	.L34:
 279:Source\mbedtls_open\library/pkcs12.c ****     else
 280:Source\mbedtls_open\library/pkcs12.c ****         v = 128;
 303              		.loc 1 280 0
 304 0064 8023     		movs	r3, #128
 305 0066 0293     		str	r3, [sp, #8]
 306              	.L15:
 307              	.LVL46:
 281:Source\mbedtls_open\library/pkcs12.c **** 
 282:Source\mbedtls_open\library/pkcs12.c ****     memset( diversifier, (unsigned char) id, v );
 308              		.loc 1 282 0
 309 0068 FF21     		movs	r1, #255
 310 006a A59B     		ldr	r3, [sp, #660]
 311 006c 1940     		ands	r1, r3
 312 006e 029D     		ldr	r5, [sp, #8]
 313              	.LVL47:
 314 0070 2A00     		movs	r2, r5
 315 0072 7AA8     		add	r0, sp, #488
 316              	.LVL48:
 317 0074 FFF7FEFF 		bl	memset
 318              	.LVL49:
 283:Source\mbedtls_open\library/pkcs12.c **** 
 284:Source\mbedtls_open\library/pkcs12.c ****     pkcs12_fill_buffer( salt_block, v, salt, saltlen );
 319              		.loc 1 284 0
 320 0078 A39B     		ldr	r3, [sp, #652]
 321 007a A29A     		ldr	r2, [sp, #648]
 322 007c 2900     		movs	r1, r5
 323 007e 5AA8     		add	r0, sp, #360
 324 0080 FFF7FEFF 		bl	pkcs12_fill_buffer
 325              	.LVL50:
 285:Source\mbedtls_open\library/pkcs12.c ****     pkcs12_fill_buffer( pwd_block,  v, pwd,  pwdlen  );
 326              		.loc 1 285 0
 327 0084 3B00     		movs	r3, r7
 328 0086 059A     		ldr	r2, [sp, #20]
 329 0088 2900     		movs	r1, r5
 330 008a 3AA8     		add	r0, sp, #232
 331 008c FFF7FEFF 		bl	pkcs12_fill_buffer
 332              	.LVL51:
 286:Source\mbedtls_open\library/pkcs12.c **** 
 287:Source\mbedtls_open\library/pkcs12.c ****     p = data;
 288:Source\mbedtls_open\library/pkcs12.c ****     while( datalen > 0 )
 333              		.loc 1 288 0
 334 0090 75E0     		b	.L16
 335              	.LVL52:
 336              	.L28:
 289:Source\mbedtls_open\library/pkcs12.c ****     {
ARM GAS  C:\Users\Phuong\AppData\Local\Temp\ccWk80Hv.s 			page 12


 290:Source\mbedtls_open\library/pkcs12.c ****         // Calculate hash( diversifier || salt_block || pwd_block )
 291:Source\mbedtls_open\library/pkcs12.c ****         if( ( ret = mbedtls_md_starts( &md_ctx ) ) != 0 )
 337              		.loc 1 291 0
 338 0092 07A8     		add	r0, sp, #28
 339 0094 FFF7FEFF 		bl	mbedtls_md_starts
 340              	.LVL53:
 341 0098 0028     		cmp	r0, #0
 342 009a 77D1     		bne	.L37
 292:Source\mbedtls_open\library/pkcs12.c ****             goto exit;
 293:Source\mbedtls_open\library/pkcs12.c **** 
 294:Source\mbedtls_open\library/pkcs12.c ****         if( ( ret = mbedtls_md_update( &md_ctx, diversifier, v ) ) != 0 )
 343              		.loc 1 294 0
 344 009c 029D     		ldr	r5, [sp, #8]
 345 009e 2A00     		movs	r2, r5
 346 00a0 7AA9     		add	r1, sp, #488
 347 00a2 07A8     		add	r0, sp, #28
 348              	.LVL54:
 349 00a4 FFF7FEFF 		bl	mbedtls_md_update
 350              	.LVL55:
 351 00a8 0028     		cmp	r0, #0
 352 00aa 71D1     		bne	.L38
 295:Source\mbedtls_open\library/pkcs12.c ****             goto exit;
 296:Source\mbedtls_open\library/pkcs12.c **** 
 297:Source\mbedtls_open\library/pkcs12.c ****         if( ( ret = mbedtls_md_update( &md_ctx, salt_block, v ) ) != 0 )
 353              		.loc 1 297 0
 354 00ac 2A00     		movs	r2, r5
 355 00ae 5AA9     		add	r1, sp, #360
 356 00b0 07A8     		add	r0, sp, #28
 357              	.LVL56:
 358 00b2 FFF7FEFF 		bl	mbedtls_md_update
 359              	.LVL57:
 360 00b6 0028     		cmp	r0, #0
 361 00b8 6CD1     		bne	.L39
 298:Source\mbedtls_open\library/pkcs12.c ****             goto exit;
 299:Source\mbedtls_open\library/pkcs12.c **** 
 300:Source\mbedtls_open\library/pkcs12.c ****         if( ( ret = mbedtls_md_update( &md_ctx, pwd_block, v ) ) != 0 )
 362              		.loc 1 300 0
 363 00ba 2A00     		movs	r2, r5
 364 00bc 3AA9     		add	r1, sp, #232
 365 00be 07A8     		add	r0, sp, #28
 366              	.LVL58:
 367 00c0 FFF7FEFF 		bl	mbedtls_md_update
 368              	.LVL59:
 369 00c4 0028     		cmp	r0, #0
 370 00c6 67D1     		bne	.L40
 301:Source\mbedtls_open\library/pkcs12.c ****             goto exit;
 302:Source\mbedtls_open\library/pkcs12.c **** 
 303:Source\mbedtls_open\library/pkcs12.c ****         if( ( ret = mbedtls_md_finish( &md_ctx, hash_output ) ) != 0 )
 371              		.loc 1 303 0
 372 00c8 0AA9     		add	r1, sp, #40
 373 00ca 07A8     		add	r0, sp, #28
 374              	.LVL60:
 375 00cc FFF7FEFF 		bl	mbedtls_md_finish
 376              	.LVL61:
 377 00d0 071E     		subs	r7, r0, #0
 378              	.LVL62:
 379 00d2 58D1     		bne	.L35
ARM GAS  C:\Users\Phuong\AppData\Local\Temp\ccWk80Hv.s 			page 13


 380 00d4 0125     		movs	r5, #1
 381 00d6 08E0     		b	.L18
 382              	.LVL63:
 383              	.L19:
 304:Source\mbedtls_open\library/pkcs12.c ****             goto exit;
 305:Source\mbedtls_open\library/pkcs12.c **** 
 306:Source\mbedtls_open\library/pkcs12.c ****         // Perform remaining ( iterations - 1 ) recursive hash calculations
 307:Source\mbedtls_open\library/pkcs12.c ****         for( i = 1; i < (size_t) iterations; i++ )
 308:Source\mbedtls_open\library/pkcs12.c ****         {
 309:Source\mbedtls_open\library/pkcs12.c ****             if( ( ret = mbedtls_md( md_info, hash_output, hlen, hash_output ) ) != 0 )
 384              		.loc 1 309 0
 385 00d8 0AAB     		add	r3, sp, #40
 386 00da 019A     		ldr	r2, [sp, #4]
 387 00dc 1900     		movs	r1, r3
 388 00de 0098     		ldr	r0, [sp]
 389              	.LVL64:
 390 00e0 FFF7FEFF 		bl	mbedtls_md
 391              	.LVL65:
 392 00e4 0028     		cmp	r0, #0
 393 00e6 59D1     		bne	.L41
 307:Source\mbedtls_open\library/pkcs12.c ****         {
 394              		.loc 1 307 0 discriminator 2
 395 00e8 0135     		adds	r5, r5, #1
 396              	.LVL66:
 397              	.L18:
 307:Source\mbedtls_open\library/pkcs12.c ****         {
 398              		.loc 1 307 0 is_stmt 0 discriminator 1
 399 00ea B542     		cmp	r5, r6
 400 00ec F4D3     		bcc	.L19
 310:Source\mbedtls_open\library/pkcs12.c ****                 goto exit;
 311:Source\mbedtls_open\library/pkcs12.c ****         }
 312:Source\mbedtls_open\library/pkcs12.c **** 
 313:Source\mbedtls_open\library/pkcs12.c ****         use_len = ( datalen > hlen ) ? hlen : datalen;
 401              		.loc 1 313 0 is_stmt 1
 402 00ee A146     		mov	r9, r4
 403 00f0 019A     		ldr	r2, [sp, #4]
 404 00f2 9442     		cmp	r4, r2
 405 00f4 00D9     		bls	.L20
 406 00f6 9146     		mov	r9, r2
 407              	.L20:
 408              	.LVL67:
 314:Source\mbedtls_open\library/pkcs12.c ****         memcpy( p, hash_output, use_len );
 409              		.loc 1 314 0
 410 00f8 4A46     		mov	r2, r9
 411 00fa 0AA9     		add	r1, sp, #40
 412 00fc 039D     		ldr	r5, [sp, #12]
 413              	.LVL68:
 414 00fe 2800     		movs	r0, r5
 415              	.LVL69:
 416 0100 FFF7FEFF 		bl	memcpy
 417              	.LVL70:
 315:Source\mbedtls_open\library/pkcs12.c ****         datalen -= use_len;
 418              		.loc 1 315 0
 419 0104 4B46     		mov	r3, r9
 420 0106 E41A     		subs	r4, r4, r3
 421              	.LVL71:
 316:Source\mbedtls_open\library/pkcs12.c ****         p += use_len;
ARM GAS  C:\Users\Phuong\AppData\Local\Temp\ccWk80Hv.s 			page 14


 422              		.loc 1 316 0
 423 0108 2B00     		movs	r3, r5
 424 010a 4B44     		add	r3, r3, r9
 425 010c 0393     		str	r3, [sp, #12]
 426              	.LVL72:
 317:Source\mbedtls_open\library/pkcs12.c **** 
 318:Source\mbedtls_open\library/pkcs12.c ****         if( datalen == 0 )
 427              		.loc 1 318 0
 428 010e 002C     		cmp	r4, #0
 429 0110 3BD0     		beq	.L36
 319:Source\mbedtls_open\library/pkcs12.c ****             break;
 320:Source\mbedtls_open\library/pkcs12.c **** 
 321:Source\mbedtls_open\library/pkcs12.c ****         // Concatenating copies of hash_output into hash_block (B)
 322:Source\mbedtls_open\library/pkcs12.c ****         pkcs12_fill_buffer( hash_block, v, hash_output, hlen );
 430              		.loc 1 322 0
 431 0112 019B     		ldr	r3, [sp, #4]
 432              	.LVL73:
 433 0114 0AAA     		add	r2, sp, #40
 434 0116 029D     		ldr	r5, [sp, #8]
 435 0118 2900     		movs	r1, r5
 436 011a 1AA8     		add	r0, sp, #104
 437 011c FFF7FEFF 		bl	pkcs12_fill_buffer
 438              	.LVL74:
 323:Source\mbedtls_open\library/pkcs12.c **** 
 324:Source\mbedtls_open\library/pkcs12.c ****         // B += 1
 325:Source\mbedtls_open\library/pkcs12.c ****         for( i = v; i > 0; i-- )
 439              		.loc 1 325 0
 440 0120 2A00     		movs	r2, r5
 441 0122 0CE0     		b	.L21
 442              	.LVL75:
 443              	.L23:
 326:Source\mbedtls_open\library/pkcs12.c ****             if( ++hash_block[i - 1] != 0 )
 444              		.loc 1 326 0
 445 0124 013A     		subs	r2, r2, #1
 446              	.LVL76:
 447 0126 06AB     		add	r3, sp, #24
 448 0128 5021     		movs	r1, #80
 449 012a 5B18     		adds	r3, r3, r1
 450 012c 9B5C     		ldrb	r3, [r3, r2]
 451 012e 0133     		adds	r3, r3, #1
 452 0130 DBB2     		uxtb	r3, r3
 453 0132 06A9     		add	r1, sp, #24
 454 0134 5020     		movs	r0, #80
 455 0136 0918     		adds	r1, r1, r0
 456 0138 8B54     		strb	r3, [r1, r2]
 457 013a 002B     		cmp	r3, #0
 458 013c 01D1     		bne	.L22
 459              	.LVL77:
 460              	.L21:
 325:Source\mbedtls_open\library/pkcs12.c ****             if( ++hash_block[i - 1] != 0 )
 461              		.loc 1 325 0 discriminator 1
 462 013e 002A     		cmp	r2, #0
 463 0140 F0D1     		bne	.L23
 464              	.LVL78:
 465              	.L22:
 466 0142 0298     		ldr	r0, [sp, #8]
 467 0144 0027     		movs	r7, #0
ARM GAS  C:\Users\Phuong\AppData\Local\Temp\ccWk80Hv.s 			page 15


 468 0146 09E0     		b	.L24
 469              	.LVL79:
 470              	.L25:
 327:Source\mbedtls_open\library/pkcs12.c ****                 break;
 328:Source\mbedtls_open\library/pkcs12.c **** 
 329:Source\mbedtls_open\library/pkcs12.c ****         // salt_block += B
 330:Source\mbedtls_open\library/pkcs12.c ****         c = 0;
 331:Source\mbedtls_open\library/pkcs12.c ****         for( i = v; i > 0; i-- )
 332:Source\mbedtls_open\library/pkcs12.c ****         {
 333:Source\mbedtls_open\library/pkcs12.c ****             j = salt_block[i - 1] + hash_block[i - 1] + c;
 471              		.loc 1 333 0 discriminator 3
 472 0148 0138     		subs	r0, r0, #1
 473              	.LVL80:
 474 014a 5AAA     		add	r2, sp, #360
 475 014c 115C     		ldrb	r1, [r2, r0]
 476 014e 1AAB     		add	r3, sp, #104
 477 0150 1B5C     		ldrb	r3, [r3, r0]
 478 0152 CB18     		adds	r3, r1, r3
 479 0154 FB18     		adds	r3, r7, r3
 480              	.LVL81:
 334:Source\mbedtls_open\library/pkcs12.c ****             c = (unsigned char) (j >> 8);
 481              		.loc 1 334 0 discriminator 3
 482 0156 1F0A     		lsrs	r7, r3, #8
 483              	.LVL82:
 484 0158 FFB2     		uxtb	r7, r7
 485              	.LVL83:
 335:Source\mbedtls_open\library/pkcs12.c ****             salt_block[i - 1] = j & 0xFF;
 486              		.loc 1 335 0 discriminator 3
 487 015a 1354     		strb	r3, [r2, r0]
 488              	.LVL84:
 489              	.L24:
 331:Source\mbedtls_open\library/pkcs12.c ****         {
 490              		.loc 1 331 0 discriminator 1
 491 015c 0028     		cmp	r0, #0
 492 015e F3D1     		bne	.L25
 493 0160 0298     		ldr	r0, [sp, #8]
 494              	.LVL85:
 495 0162 0027     		movs	r7, #0
 496              	.LVL86:
 497 0164 09E0     		b	.L26
 498              	.LVL87:
 499              	.L27:
 336:Source\mbedtls_open\library/pkcs12.c ****         }
 337:Source\mbedtls_open\library/pkcs12.c **** 
 338:Source\mbedtls_open\library/pkcs12.c ****         // pwd_block  += B
 339:Source\mbedtls_open\library/pkcs12.c ****         c = 0;
 340:Source\mbedtls_open\library/pkcs12.c ****         for( i = v; i > 0; i-- )
 341:Source\mbedtls_open\library/pkcs12.c ****         {
 342:Source\mbedtls_open\library/pkcs12.c ****             j = pwd_block[i - 1] + hash_block[i - 1] + c;
 500              		.loc 1 342 0 discriminator 3
 501 0166 0138     		subs	r0, r0, #1
 502              	.LVL88:
 503 0168 3AAA     		add	r2, sp, #232
 504 016a 115C     		ldrb	r1, [r2, r0]
 505 016c 1AAB     		add	r3, sp, #104
 506 016e 1B5C     		ldrb	r3, [r3, r0]
 507 0170 CB18     		adds	r3, r1, r3
ARM GAS  C:\Users\Phuong\AppData\Local\Temp\ccWk80Hv.s 			page 16


 508 0172 FB18     		adds	r3, r7, r3
 509              	.LVL89:
 343:Source\mbedtls_open\library/pkcs12.c ****             c = (unsigned char) (j >> 8);
 510              		.loc 1 343 0 discriminator 3
 511 0174 1F0A     		lsrs	r7, r3, #8
 512              	.LVL90:
 513 0176 FFB2     		uxtb	r7, r7
 514              	.LVL91:
 344:Source\mbedtls_open\library/pkcs12.c ****             pwd_block[i - 1] = j & 0xFF;
 515              		.loc 1 344 0 discriminator 3
 516 0178 1354     		strb	r3, [r2, r0]
 517              	.LVL92:
 518              	.L26:
 340:Source\mbedtls_open\library/pkcs12.c ****         {
 519              		.loc 1 340 0 discriminator 1
 520 017a 0028     		cmp	r0, #0
 521 017c F3D1     		bne	.L27
 522              	.LVL93:
 523              	.L16:
 288:Source\mbedtls_open\library/pkcs12.c ****     {
 524              		.loc 1 288 0
 525 017e 002C     		cmp	r4, #0
 526 0180 87D1     		bne	.L28
 345:Source\mbedtls_open\library/pkcs12.c ****         }
 346:Source\mbedtls_open\library/pkcs12.c ****     }
 347:Source\mbedtls_open\library/pkcs12.c **** 
 348:Source\mbedtls_open\library/pkcs12.c ****     ret = 0;
 527              		.loc 1 348 0
 528 0182 049F     		ldr	r7, [sp, #16]
 529 0184 0BE0     		b	.L17
 530              	.LVL94:
 531              	.L35:
 303:Source\mbedtls_open\library/pkcs12.c ****             goto exit;
 532              		.loc 1 303 0
 533 0186 0700     		movs	r7, r0
 534 0188 09E0     		b	.L17
 535              	.LVL95:
 536              	.L36:
 537 018a 08E0     		b	.L17
 538              	.LVL96:
 539              	.L37:
 540 018c 0700     		movs	r7, r0
 541 018e 06E0     		b	.L17
 542              	.L38:
 543 0190 0700     		movs	r7, r0
 544 0192 04E0     		b	.L17
 545              	.L39:
 546 0194 0700     		movs	r7, r0
 547 0196 02E0     		b	.L17
 548              	.L40:
 549 0198 0700     		movs	r7, r0
 550 019a 00E0     		b	.L17
 551              	.LVL97:
 552              	.L41:
 553 019c 0700     		movs	r7, r0
 554              	.LVL98:
 555              	.L17:
ARM GAS  C:\Users\Phuong\AppData\Local\Temp\ccWk80Hv.s 			page 17


 349:Source\mbedtls_open\library/pkcs12.c **** 
 350:Source\mbedtls_open\library/pkcs12.c **** exit:
 351:Source\mbedtls_open\library/pkcs12.c ****     mbedtls_platform_zeroize( salt_block, sizeof( salt_block ) );
 556              		.loc 1 351 0
 557 019e 8021     		movs	r1, #128
 558 01a0 5AA8     		add	r0, sp, #360
 559 01a2 FFF7FEFF 		bl	mbedtls_platform_zeroize
 560              	.LVL99:
 352:Source\mbedtls_open\library/pkcs12.c ****     mbedtls_platform_zeroize( pwd_block, sizeof( pwd_block ) );
 561              		.loc 1 352 0
 562 01a6 8021     		movs	r1, #128
 563 01a8 3AA8     		add	r0, sp, #232
 564 01aa FFF7FEFF 		bl	mbedtls_platform_zeroize
 565              	.LVL100:
 353:Source\mbedtls_open\library/pkcs12.c ****     mbedtls_platform_zeroize( hash_block, sizeof( hash_block ) );
 566              		.loc 1 353 0
 567 01ae 8021     		movs	r1, #128
 568 01b0 1AA8     		add	r0, sp, #104
 569 01b2 FFF7FEFF 		bl	mbedtls_platform_zeroize
 570              	.LVL101:
 354:Source\mbedtls_open\library/pkcs12.c ****     mbedtls_platform_zeroize( hash_output, sizeof( hash_output ) );
 571              		.loc 1 354 0
 572 01b6 4021     		movs	r1, #64
 573 01b8 0AA8     		add	r0, sp, #40
 574 01ba FFF7FEFF 		bl	mbedtls_platform_zeroize
 575              	.LVL102:
 355:Source\mbedtls_open\library/pkcs12.c **** 
 356:Source\mbedtls_open\library/pkcs12.c ****     mbedtls_md_free( &md_ctx );
 576              		.loc 1 356 0
 577 01be 07A8     		add	r0, sp, #28
 578 01c0 FFF7FEFF 		bl	mbedtls_md_free
 579              	.LVL103:
 357:Source\mbedtls_open\library/pkcs12.c **** 
 358:Source\mbedtls_open\library/pkcs12.c ****     return( ret );
 580              		.loc 1 358 0
 581 01c4 3800     		movs	r0, r7
 582 01c6 08E0     		b	.L14
 583              	.LVL104:
 584              	.L29:
 265:Source\mbedtls_open\library/pkcs12.c **** 
 585              		.loc 1 265 0
 586 01c8 0848     		ldr	r0, .L42+4
 587 01ca 06E0     		b	.L14
 588              	.L30:
 589 01cc 0748     		ldr	r0, .L42+4
 590 01ce 04E0     		b	.L14
 591              	.LVL105:
 592              	.L31:
 593 01d0 0648     		ldr	r0, .L42+4
 594 01d2 02E0     		b	.L14
 595              	.LVL106:
 596              	.L32:
 269:Source\mbedtls_open\library/pkcs12.c **** 
 597              		.loc 1 269 0
 598 01d4 0648     		ldr	r0, .L42+8
 599              	.LVL107:
 600 01d6 00E0     		b	.L14
ARM GAS  C:\Users\Phuong\AppData\Local\Temp\ccWk80Hv.s 			page 18


 601              	.LVL108:
 602              	.L33:
 274:Source\mbedtls_open\library/pkcs12.c ****     hlen = mbedtls_md_get_size( md_info );
 603              		.loc 1 274 0
 604 01d8 0498     		ldr	r0, [sp, #16]
 605              	.LVL109:
 606              	.L14:
 359:Source\mbedtls_open\library/pkcs12.c **** }
 607              		.loc 1 359 0
 608 01da 9B23     		movs	r3, #155
 609 01dc 9B00     		lsls	r3, r3, #2
 610 01de 9D44     		add	sp, sp, r3
 611              		@ sp needed
 612              	.LVL110:
 613 01e0 0CBC     		pop	{r2, r3}
 614 01e2 9146     		mov	r9, r2
 615 01e4 9B46     		mov	fp, r3
 616 01e6 F0BD     		pop	{r4, r5, r6, r7, pc}
 617              	.L43:
 618              		.align	2
 619              	.L42:
 620 01e8 94FDFFFF 		.word	-620
 621 01ec 80E0FFFF 		.word	-8064
 622 01f0 00E1FFFF 		.word	-7936
 623              		.cfi_endproc
 624              	.LFE12:
 625              		.size	mbedtls_pkcs12_derivation, .-mbedtls_pkcs12_derivation
 626              		.section	.text.pkcs12_pbe_derive_key_iv,"ax",%progbits
 627              		.align	2
 628              		.code	16
 629              		.thumb_func
 630              		.type	pkcs12_pbe_derive_key_iv, %function
 631              	pkcs12_pbe_derive_key_iv:
 632              	.LFB8:
  91:Source\mbedtls_open\library/pkcs12.c ****     int ret, iterations = 0;
 633              		.loc 1 91 0
 634              		.cfi_startproc
 635              		@ args = 16, pretend = 0, frame = 280
 636              		@ frame_needed = 0, uses_anonymous_args = 0
 637              	.LVL111:
 638 0000 F0B5     		push	{r4, r5, r6, r7, lr}
 639              		.cfi_def_cfa_offset 20
 640              		.cfi_offset 4, -20
 641              		.cfi_offset 5, -16
 642              		.cfi_offset 6, -12
 643              		.cfi_offset 7, -8
 644              		.cfi_offset 14, -4
 645 0002 CDB0     		sub	sp, sp, #308
 646              		.cfi_def_cfa_offset 328
 647 0004 0500     		movs	r5, r0
 648 0006 0C00     		movs	r4, r1
 649 0008 1700     		movs	r7, r2
 650 000a 1E00     		movs	r6, r3
  92:Source\mbedtls_open\library/pkcs12.c ****     mbedtls_asn1_buf salt;
 651              		.loc 1 92 0
 652 000c 0023     		movs	r3, #0
 653              	.LVL112:
ARM GAS  C:\Users\Phuong\AppData\Local\Temp\ccWk80Hv.s 			page 19


 654 000e 4B93     		str	r3, [sp, #300]
  97:Source\mbedtls_open\library/pkcs12.c ****         return( MBEDTLS_ERR_PKCS12_BAD_INPUT_DATA );
 655              		.loc 1 97 0
 656 0010 802E     		cmp	r6, #128
 657 0012 44D8     		bhi	.L48
 100:Source\mbedtls_open\library/pkcs12.c ****     memset( &unipwd, 0, sizeof(unipwd) );
 658              		.loc 1 100 0
 659 0014 0C22     		movs	r2, #12
 660              	.LVL113:
 661 0016 0021     		movs	r1, #0
 662              	.LVL114:
 663 0018 48A8     		add	r0, sp, #288
 664              	.LVL115:
 665 001a FFF7FEFF 		bl	memset
 666              	.LVL116:
 101:Source\mbedtls_open\library/pkcs12.c **** 
 667              		.loc 1 101 0
 668 001e 8122     		movs	r2, #129
 669 0020 5200     		lsls	r2, r2, #1
 670 0022 0021     		movs	r1, #0
 671 0024 07A8     		add	r0, sp, #28
 672 0026 FFF7FEFF 		bl	memset
 673              	.LVL117:
 103:Source\mbedtls_open\library/pkcs12.c ****                                          &iterations ) ) != 0 )
 674              		.loc 1 103 0
 675 002a 4BAA     		add	r2, sp, #300
 676 002c 48A9     		add	r1, sp, #288
 677 002e 2800     		movs	r0, r5
 678 0030 FFF7FEFF 		bl	pkcs12_parse_pbe_params
 679              	.LVL118:
 680 0034 0028     		cmp	r0, #0
 681 0036 37D1     		bne	.L45
 682 0038 0022     		movs	r2, #0
 683 003a 05E0     		b	.L46
 684              	.LVL119:
 685              	.L47:
 108:Source\mbedtls_open\library/pkcs12.c **** 
 686              		.loc 1 108 0 discriminator 3
 687 003c 5100     		lsls	r1, r2, #1
 688 003e 0131     		adds	r1, r1, #1
 689 0040 BD5C     		ldrb	r5, [r7, r2]
 690 0042 07A8     		add	r0, sp, #28
 691 0044 4554     		strb	r5, [r0, r1]
 107:Source\mbedtls_open\library/pkcs12.c ****         unipwd[i * 2 + 1] = pwd[i];
 692              		.loc 1 107 0 discriminator 3
 693 0046 0132     		adds	r2, r2, #1
 694              	.LVL120:
 695              	.L46:
 107:Source\mbedtls_open\library/pkcs12.c ****         unipwd[i * 2 + 1] = pwd[i];
 696              		.loc 1 107 0 is_stmt 0 discriminator 1
 697 0048 B242     		cmp	r2, r6
 698 004a F7D3     		bcc	.L47
 110:Source\mbedtls_open\library/pkcs12.c ****                                    salt.p, salt.len, md_type,
 699              		.loc 1 110 0 is_stmt 1
 700 004c 0136     		adds	r6, r6, #1
 701              	.LVL121:
 702 004e 7600     		lsls	r6, r6, #1
ARM GAS  C:\Users\Phuong\AppData\Local\Temp\ccWk80Hv.s 			page 20


 703              	.LVL122:
 111:Source\mbedtls_open\library/pkcs12.c ****                                    MBEDTLS_PKCS12_DERIVE_KEY, iterations ) ) != 0 )
 704              		.loc 1 111 0
 705 0050 4A9B     		ldr	r3, [sp, #296]
 706 0052 0093     		str	r3, [sp]
 110:Source\mbedtls_open\library/pkcs12.c ****                                    salt.p, salt.len, md_type,
 707              		.loc 1 110 0
 708 0054 499B     		ldr	r3, [sp, #292]
 709 0056 0193     		str	r3, [sp, #4]
 710 0058 4B9B     		ldr	r3, [sp, #300]
 711 005a 0493     		str	r3, [sp, #16]
 712 005c 0123     		movs	r3, #1
 713 005e 0393     		str	r3, [sp, #12]
 714 0060 0294     		str	r4, [sp, #8]
 715 0062 3300     		movs	r3, r6
 716 0064 07AA     		add	r2, sp, #28
 717              	.LVL123:
 718 0066 5399     		ldr	r1, [sp, #332]
 719 0068 5298     		ldr	r0, [sp, #328]
 720 006a FFF7FEFF 		bl	mbedtls_pkcs12_derivation
 721              	.LVL124:
 722 006e 0028     		cmp	r0, #0
 723 0070 1AD1     		bne	.L45
 117:Source\mbedtls_open\library/pkcs12.c ****         return( 0 );
 724              		.loc 1 117 0
 725 0072 549B     		ldr	r3, [sp, #336]
 726 0074 002B     		cmp	r3, #0
 727 0076 14D0     		beq	.L51
 117:Source\mbedtls_open\library/pkcs12.c ****         return( 0 );
 728              		.loc 1 117 0 is_stmt 0 discriminator 1
 729 0078 559B     		ldr	r3, [sp, #340]
 730 007a 002B     		cmp	r3, #0
 731 007c 13D0     		beq	.L52
 121:Source\mbedtls_open\library/pkcs12.c ****                                    MBEDTLS_PKCS12_DERIVE_IV, iterations ) ) != 0 )
 732              		.loc 1 121 0 is_stmt 1
 733 007e 4A9B     		ldr	r3, [sp, #296]
 734 0080 0093     		str	r3, [sp]
 120:Source\mbedtls_open\library/pkcs12.c ****                                    salt.p, salt.len, md_type,
 735              		.loc 1 120 0
 736 0082 499B     		ldr	r3, [sp, #292]
 737 0084 0193     		str	r3, [sp, #4]
 738 0086 4B9B     		ldr	r3, [sp, #300]
 739 0088 0493     		str	r3, [sp, #16]
 740 008a 0223     		movs	r3, #2
 741 008c 0393     		str	r3, [sp, #12]
 742 008e 0294     		str	r4, [sp, #8]
 743 0090 3300     		movs	r3, r6
 744 0092 07AA     		add	r2, sp, #28
 745 0094 5599     		ldr	r1, [sp, #340]
 746 0096 5498     		ldr	r0, [sp, #336]
 747              	.LVL125:
 748 0098 FFF7FEFF 		bl	mbedtls_pkcs12_derivation
 749              	.LVL126:
 750 009c 04E0     		b	.L45
 751              	.LVL127:
 752              	.L48:
  98:Source\mbedtls_open\library/pkcs12.c **** 
ARM GAS  C:\Users\Phuong\AppData\Local\Temp\ccWk80Hv.s 			page 21


 753              		.loc 1 98 0
 754 009e 0348     		ldr	r0, .L54
 755              	.LVL128:
 756 00a0 02E0     		b	.L45
 757              	.LVL129:
 758              	.L51:
 118:Source\mbedtls_open\library/pkcs12.c **** 
 759              		.loc 1 118 0
 760 00a2 0020     		movs	r0, #0
 761              	.LVL130:
 762 00a4 00E0     		b	.L45
 763              	.LVL131:
 764              	.L52:
 765 00a6 0020     		movs	r0, #0
 766              	.LVL132:
 767              	.L45:
 127:Source\mbedtls_open\library/pkcs12.c **** 
 768              		.loc 1 127 0
 769 00a8 4DB0     		add	sp, sp, #308
 770              		@ sp needed
 771              	.LVL133:
 772 00aa F0BD     		pop	{r4, r5, r6, r7, pc}
 773              	.L55:
 774              		.align	2
 775              	.L54:
 776 00ac 80E0FFFF 		.word	-8064
 777              		.cfi_endproc
 778              	.LFE8:
 779              		.size	pkcs12_pbe_derive_key_iv, .-pkcs12_pbe_derive_key_iv
 780              		.section	.text.mbedtls_pkcs12_pbe_sha1_rc4_128,"ax",%progbits
 781              		.align	2
 782              		.global	mbedtls_pkcs12_pbe_sha1_rc4_128
 783              		.code	16
 784              		.thumb_func
 785              		.type	mbedtls_pkcs12_pbe_sha1_rc4_128, %function
 786              	mbedtls_pkcs12_pbe_sha1_rc4_128:
 787              	.LFB9:
 135:Source\mbedtls_open\library/pkcs12.c **** #if !defined(MBEDTLS_ARC4_C)
 788              		.loc 1 135 0
 789              		.cfi_startproc
 790              		@ args = 12, pretend = 0, frame = 280
 791              		@ frame_needed = 0, uses_anonymous_args = 0
 792              	.LVL134:
 793 0000 70B5     		push	{r4, r5, r6, lr}
 794              		.cfi_def_cfa_offset 16
 795              		.cfi_offset 4, -16
 796              		.cfi_offset 5, -12
 797              		.cfi_offset 6, -8
 798              		.cfi_offset 14, -4
 799 0002 CAB0     		sub	sp, sp, #296
 800              		.cfi_def_cfa_offset 312
 801 0004 0400     		movs	r4, r0
 802 0006 1500     		movs	r5, r2
 803 0008 1E00     		movs	r6, r3
 151:Source\mbedtls_open\library/pkcs12.c **** 
 804              		.loc 1 151 0
 805 000a 04A8     		add	r0, sp, #16
ARM GAS  C:\Users\Phuong\AppData\Local\Temp\ccWk80Hv.s 			page 22


 806              	.LVL135:
 807 000c FFF7FEFF 		bl	mbedtls_arc4_init
 808              	.LVL136:
 153:Source\mbedtls_open\library/pkcs12.c ****                                           pwd, pwdlen,
 809              		.loc 1 153 0
 810 0010 0023     		movs	r3, #0
 811 0012 0393     		str	r3, [sp, #12]
 812 0014 0293     		str	r3, [sp, #8]
 813 0016 1033     		adds	r3, r3, #16
 814 0018 0193     		str	r3, [sp, #4]
 815 001a 46AB     		add	r3, sp, #280
 816 001c 0093     		str	r3, [sp]
 817 001e 3300     		movs	r3, r6
 818 0020 2A00     		movs	r2, r5
 819 0022 0421     		movs	r1, #4
 820 0024 2000     		movs	r0, r4
 821 0026 FFF7FEFF 		bl	pkcs12_pbe_derive_key_iv
 822              	.LVL137:
 823 002a 0028     		cmp	r0, #0
 824 002c 13D1     		bne	.L57
 160:Source\mbedtls_open\library/pkcs12.c ****     if( ( ret = mbedtls_arc4_crypt( &ctx, len, data, output ) ) != 0 )
 825              		.loc 1 160 0
 826 002e 1022     		movs	r2, #16
 827 0030 46A9     		add	r1, sp, #280
 828 0032 04A8     		add	r0, sp, #16
 829              	.LVL138:
 830 0034 FFF7FEFF 		bl	mbedtls_arc4_setup
 831              	.LVL139:
 161:Source\mbedtls_open\library/pkcs12.c ****         goto exit;
 832              		.loc 1 161 0
 833 0038 509B     		ldr	r3, [sp, #320]
 834 003a 4E9A     		ldr	r2, [sp, #312]
 835 003c 4F99     		ldr	r1, [sp, #316]
 836 003e 04A8     		add	r0, sp, #16
 837 0040 FFF7FEFF 		bl	mbedtls_arc4_crypt
 838              	.LVL140:
 839 0044 0400     		movs	r4, r0
 840              	.LVL141:
 841              	.LDL1:
 165:Source\mbedtls_open\library/pkcs12.c ****     mbedtls_arc4_free( &ctx );
 842              		.loc 1 165 0
 843 0046 1021     		movs	r1, #16
 844 0048 46A8     		add	r0, sp, #280
 845              	.LVL142:
 846 004a FFF7FEFF 		bl	mbedtls_platform_zeroize
 847              	.LVL143:
 166:Source\mbedtls_open\library/pkcs12.c **** 
 848              		.loc 1 166 0
 849 004e 04A8     		add	r0, sp, #16
 850 0050 FFF7FEFF 		bl	mbedtls_arc4_free
 851              	.LVL144:
 168:Source\mbedtls_open\library/pkcs12.c **** #endif /* MBEDTLS_ARC4_C */
 852              		.loc 1 168 0
 853 0054 2000     		movs	r0, r4
 854              	.LVL145:
 855              	.L57:
 170:Source\mbedtls_open\library/pkcs12.c **** 
ARM GAS  C:\Users\Phuong\AppData\Local\Temp\ccWk80Hv.s 			page 23


 856              		.loc 1 170 0
 857 0056 4AB0     		add	sp, sp, #296
 858              		@ sp needed
 859              	.LVL146:
 860              	.LVL147:
 861 0058 70BD     		pop	{r4, r5, r6, pc}
 862              		.cfi_endproc
 863              	.LFE9:
 864              		.size	mbedtls_pkcs12_pbe_sha1_rc4_128, .-mbedtls_pkcs12_pbe_sha1_rc4_128
 865 005a C046     		.section	.text.mbedtls_pkcs12_pbe,"ax",%progbits
 866              		.align	2
 867              		.global	mbedtls_pkcs12_pbe
 868              		.code	16
 869              		.thumb_func
 870              		.type	mbedtls_pkcs12_pbe, %function
 871              	mbedtls_pkcs12_pbe:
 872              	.LFB10:
 177:Source\mbedtls_open\library/pkcs12.c ****     int ret, keylen = 0;
 873              		.loc 1 177 0
 874              		.cfi_startproc
 875              		@ args = 20, pretend = 0, frame = 128
 876              		@ frame_needed = 0, uses_anonymous_args = 0
 877              	.LVL148:
 878 0000 F0B5     		push	{r4, r5, r6, r7, lr}
 879              		.cfi_def_cfa_offset 20
 880              		.cfi_offset 4, -20
 881              		.cfi_offset 5, -16
 882              		.cfi_offset 6, -12
 883              		.cfi_offset 7, -8
 884              		.cfi_offset 14, -4
 885 0002 A5B0     		sub	sp, sp, #148
 886              		.cfi_def_cfa_offset 168
 887 0004 0400     		movs	r4, r0
 888 0006 0591     		str	r1, [sp, #20]
 889 0008 1F00     		movs	r7, r3
 890              	.LVL149:
 183:Source\mbedtls_open\library/pkcs12.c **** 
 891              		.loc 1 183 0
 892 000a 0023     		movs	r3, #0
 893              	.LVL150:
 894 000c 0793     		str	r3, [sp, #28]
 185:Source\mbedtls_open\library/pkcs12.c ****     if( cipher_info == NULL )
 895              		.loc 1 185 0
 896 000e 1000     		movs	r0, r2
 897              	.LVL151:
 898 0010 FFF7FEFF 		bl	mbedtls_cipher_info_from_type
 899              	.LVL152:
 900 0014 051E     		subs	r5, r0, #0
 901              	.LVL153:
 186:Source\mbedtls_open\library/pkcs12.c ****         return( MBEDTLS_ERR_PKCS12_FEATURE_UNAVAILABLE );
 902              		.loc 1 186 0
 903 0016 52D0     		beq	.L62
 189:Source\mbedtls_open\library/pkcs12.c **** 
 904              		.loc 1 189 0
 905 0018 4368     		ldr	r3, [r0, #4]
 906 001a DE08     		lsrs	r6, r3, #3
 907              	.LVL154:
ARM GAS  C:\Users\Phuong\AppData\Local\Temp\ccWk80Hv.s 			page 24


 191:Source\mbedtls_open\library/pkcs12.c ****                                           key, keylen,
 908              		.loc 1 191 0
 909 001c C368     		ldr	r3, [r0, #12]
 910 001e 0393     		str	r3, [sp, #12]
 911 0020 18AB     		add	r3, sp, #96
 912 0022 0293     		str	r3, [sp, #8]
 913 0024 0196     		str	r6, [sp, #4]
 914 0026 1CAB     		add	r3, sp, #112
 915 0028 0093     		str	r3, [sp]
 916 002a 2B9B     		ldr	r3, [sp, #172]
 917 002c 2A9A     		ldr	r2, [sp, #168]
 918 002e 3900     		movs	r1, r7
 919 0030 2000     		movs	r0, r4
 920              	.LVL155:
 921 0032 FFF7FEFF 		bl	pkcs12_pbe_derive_key_iv
 922              	.LVL156:
 923 0036 0028     		cmp	r0, #0
 924 0038 42D1     		bne	.L60
 198:Source\mbedtls_open\library/pkcs12.c **** 
 925              		.loc 1 198 0
 926 003a 08A8     		add	r0, sp, #32
 927              	.LVL157:
 928 003c FFF7FEFF 		bl	mbedtls_cipher_init
 929              	.LVL158:
 200:Source\mbedtls_open\library/pkcs12.c ****         goto exit;
 930              		.loc 1 200 0
 931 0040 2900     		movs	r1, r5
 932 0042 08A8     		add	r0, sp, #32
 933 0044 FFF7FEFF 		bl	mbedtls_cipher_setup
 934              	.LVL159:
 935 0048 041E     		subs	r4, r0, #0
 936              	.LVL160:
 937 004a 2BD1     		bne	.L61
 203:Source\mbedtls_open\library/pkcs12.c ****         goto exit;
 938              		.loc 1 203 0
 939 004c F200     		lsls	r2, r6, #3
 940 004e 6B46     		mov	r3, sp
 941 0050 1B7D     		ldrb	r3, [r3, #20]
 942 0052 5BB2     		sxtb	r3, r3
 943 0054 1CA9     		add	r1, sp, #112
 944 0056 08A8     		add	r0, sp, #32
 945              	.LVL161:
 946 0058 FFF7FEFF 		bl	mbedtls_cipher_setkey
 947              	.LVL162:
 948 005c 041E     		subs	r4, r0, #0
 949              	.LVL163:
 950 005e 21D1     		bne	.L61
 206:Source\mbedtls_open\library/pkcs12.c ****         goto exit;
 951              		.loc 1 206 0
 952 0060 EA68     		ldr	r2, [r5, #12]
 953 0062 18A9     		add	r1, sp, #96
 954 0064 08A8     		add	r0, sp, #32
 955              	.LVL164:
 956 0066 FFF7FEFF 		bl	mbedtls_cipher_set_iv
 957              	.LVL165:
 958 006a 041E     		subs	r4, r0, #0
 959              	.LVL166:
ARM GAS  C:\Users\Phuong\AppData\Local\Temp\ccWk80Hv.s 			page 25


 960 006c 1AD1     		bne	.L61
 209:Source\mbedtls_open\library/pkcs12.c ****         goto exit;
 961              		.loc 1 209 0
 962 006e 08A8     		add	r0, sp, #32
 963              	.LVL167:
 964 0070 FFF7FEFF 		bl	mbedtls_cipher_reset
 965              	.LVL168:
 966 0074 041E     		subs	r4, r0, #0
 967              	.LVL169:
 968 0076 15D1     		bne	.L61
 212:Source\mbedtls_open\library/pkcs12.c ****                                 output, &olen ) ) != 0 )
 969              		.loc 1 212 0
 970 0078 07AB     		add	r3, sp, #28
 971 007a 0093     		str	r3, [sp]
 972 007c 2E9B     		ldr	r3, [sp, #184]
 973 007e 2D9A     		ldr	r2, [sp, #180]
 974 0080 2C99     		ldr	r1, [sp, #176]
 975 0082 08A8     		add	r0, sp, #32
 976              	.LVL170:
 977 0084 FFF7FEFF 		bl	mbedtls_cipher_update
 978              	.LVL171:
 979 0088 041E     		subs	r4, r0, #0
 980              	.LVL172:
 981 008a 0BD1     		bne	.L61
 218:Source\mbedtls_open\library/pkcs12.c ****         ret = MBEDTLS_ERR_PKCS12_PASSWORD_MISMATCH;
 982              		.loc 1 218 0
 983 008c 2E9B     		ldr	r3, [sp, #184]
 984 008e 079A     		ldr	r2, [sp, #28]
 985 0090 9446     		mov	ip, r2
 986 0092 6344     		add	r3, r3, ip
 987 0094 1900     		movs	r1, r3
 988 0096 07AA     		add	r2, sp, #28
 989 0098 08A8     		add	r0, sp, #32
 990              	.LVL173:
 991 009a FFF7FEFF 		bl	mbedtls_cipher_finish
 992              	.LVL174:
 993 009e 041E     		subs	r4, r0, #0
 994              	.LVL175:
 995 00a0 00D0     		beq	.L61
 219:Source\mbedtls_open\library/pkcs12.c **** 
 996              		.loc 1 219 0
 997 00a2 084C     		ldr	r4, .L65
 998              	.L61:
 999              	.LVL176:
 222:Source\mbedtls_open\library/pkcs12.c ****     mbedtls_platform_zeroize( iv,  sizeof( iv  ) );
 1000              		.loc 1 222 0
 1001 00a4 2021     		movs	r1, #32
 1002 00a6 1CA8     		add	r0, sp, #112
 1003 00a8 FFF7FEFF 		bl	mbedtls_platform_zeroize
 1004              	.LVL177:
 223:Source\mbedtls_open\library/pkcs12.c ****     mbedtls_cipher_free( &cipher_ctx );
 1005              		.loc 1 223 0
 1006 00ac 1021     		movs	r1, #16
 1007 00ae 18A8     		add	r0, sp, #96
 1008 00b0 FFF7FEFF 		bl	mbedtls_platform_zeroize
 1009              	.LVL178:
 224:Source\mbedtls_open\library/pkcs12.c **** 
ARM GAS  C:\Users\Phuong\AppData\Local\Temp\ccWk80Hv.s 			page 26


 1010              		.loc 1 224 0
 1011 00b4 08A8     		add	r0, sp, #32
 1012 00b6 FFF7FEFF 		bl	mbedtls_cipher_free
 1013              	.LVL179:
 226:Source\mbedtls_open\library/pkcs12.c **** }
 1014              		.loc 1 226 0
 1015 00ba 2000     		movs	r0, r4
 1016 00bc 00E0     		b	.L60
 1017              	.LVL180:
 1018              	.L62:
 187:Source\mbedtls_open\library/pkcs12.c **** 
 1019              		.loc 1 187 0
 1020 00be 0248     		ldr	r0, .L65+4
 1021              	.LVL181:
 1022              	.L60:
 227:Source\mbedtls_open\library/pkcs12.c **** 
 1023              		.loc 1 227 0
 1024 00c0 25B0     		add	sp, sp, #148
 1025              		@ sp needed
 1026              	.LVL182:
 1027 00c2 F0BD     		pop	{r4, r5, r6, r7, pc}
 1028              	.L66:
 1029              		.align	2
 1030              	.L65:
 1031 00c4 00E2FFFF 		.word	-7680
 1032 00c8 00E1FFFF 		.word	-7936
 1033              		.cfi_endproc
 1034              	.LFE10:
 1035              		.size	mbedtls_pkcs12_pbe, .-mbedtls_pkcs12_pbe
 1036              		.text
 1037              	.Letext0:
 1038              		.file 2 "c:\\program files (x86)\\cypress\\psoc creator\\4.2\\psoc creator\\import\\gnu\\arm\\5.4.
 1039              		.file 3 ".\\Source\\mbedtls_open\\include/mbedtls/md.h"
 1040              		.file 4 ".\\Source\\mbedtls_open\\include/mbedtls/cipher.h"
 1041              		.file 5 ".\\Source\\mbedtls_open\\include/mbedtls/asn1.h"
 1042              		.file 6 ".\\Source\\mbedtls_open\\include/mbedtls/arc4.h"
 1043              		.file 7 "c:\\program files (x86)\\cypress\\psoc creator\\4.2\\psoc creator\\import\\gnu\\arm\\5.4.
 1044              		.file 8 ".\\Source\\mbedtls_open\\include/mbedtls/platform_util.h"