ARM GAS  C:\Users\Phuong\AppData\Local\Temp\ccTnCDdg.s 			page 1


   1              		.syntax unified
   2              		.cpu cortex-m0plus
   3              		.fpu softvfp
   4              		.eabi_attribute 20, 1
   5              		.eabi_attribute 21, 1
   6              		.eabi_attribute 23, 3
   7              		.eabi_attribute 24, 1
   8              		.eabi_attribute 25, 1
   9              		.eabi_attribute 26, 1
  10              		.eabi_attribute 30, 1
  11              		.eabi_attribute 34, 0
  12              		.eabi_attribute 18, 4
  13              		.thumb
  14              		.syntax unified
  15              		.file	"pkcs5.c"
  16              		.text
  17              	.Ltext0:
  18              		.cfi_sections	.debug_frame
  19              		.section	.text.pkcs5_parse_pbkdf2_params,"ax",%progbits
  20              		.align	2
  21              		.code	16
  22              		.thumb_func
  23              		.type	pkcs5_parse_pbkdf2_params, %function
  24              	pkcs5_parse_pbkdf2_params:
  25              	.LFB11:
  26              		.file 1 "Source\\mbedtls_open\\library\\pkcs5.c"
   1:Source\mbedtls_open\library/pkcs5.c **** /**
   2:Source\mbedtls_open\library/pkcs5.c ****  * \file pkcs5.c
   3:Source\mbedtls_open\library/pkcs5.c ****  *
   4:Source\mbedtls_open\library/pkcs5.c ****  * \brief PKCS#5 functions
   5:Source\mbedtls_open\library/pkcs5.c ****  *
   6:Source\mbedtls_open\library/pkcs5.c ****  * \author Mathias Olsson <mathias@kompetensum.com>
   7:Source\mbedtls_open\library/pkcs5.c ****  *
   8:Source\mbedtls_open\library/pkcs5.c ****  *  Copyright (C) 2006-2015, ARM Limited, All Rights Reserved
   9:Source\mbedtls_open\library/pkcs5.c ****  *  SPDX-License-Identifier: Apache-2.0
  10:Source\mbedtls_open\library/pkcs5.c ****  *
  11:Source\mbedtls_open\library/pkcs5.c ****  *  Licensed under the Apache License, Version 2.0 (the "License"); you may
  12:Source\mbedtls_open\library/pkcs5.c ****  *  not use this file except in compliance with the License.
  13:Source\mbedtls_open\library/pkcs5.c ****  *  You may obtain a copy of the License at
  14:Source\mbedtls_open\library/pkcs5.c ****  *
  15:Source\mbedtls_open\library/pkcs5.c ****  *  http://www.apache.org/licenses/LICENSE-2.0
  16:Source\mbedtls_open\library/pkcs5.c ****  *
  17:Source\mbedtls_open\library/pkcs5.c ****  *  Unless required by applicable law or agreed to in writing, software
  18:Source\mbedtls_open\library/pkcs5.c ****  *  distributed under the License is distributed on an "AS IS" BASIS, WITHOUT
  19:Source\mbedtls_open\library/pkcs5.c ****  *  WARRANTIES OR CONDITIONS OF ANY KIND, either express or implied.
  20:Source\mbedtls_open\library/pkcs5.c ****  *  See the License for the specific language governing permissions and
  21:Source\mbedtls_open\library/pkcs5.c ****  *  limitations under the License.
  22:Source\mbedtls_open\library/pkcs5.c ****  *
  23:Source\mbedtls_open\library/pkcs5.c ****  *  This file is part of mbed TLS (https://tls.mbed.org)
  24:Source\mbedtls_open\library/pkcs5.c ****  */
  25:Source\mbedtls_open\library/pkcs5.c **** /*
  26:Source\mbedtls_open\library/pkcs5.c ****  * PKCS#5 includes PBKDF2 and more
  27:Source\mbedtls_open\library/pkcs5.c ****  *
  28:Source\mbedtls_open\library/pkcs5.c ****  * http://tools.ietf.org/html/rfc2898 (Specification)
  29:Source\mbedtls_open\library/pkcs5.c ****  * http://tools.ietf.org/html/rfc6070 (Test vectors)
  30:Source\mbedtls_open\library/pkcs5.c ****  */
  31:Source\mbedtls_open\library/pkcs5.c **** 
ARM GAS  C:\Users\Phuong\AppData\Local\Temp\ccTnCDdg.s 			page 2


  32:Source\mbedtls_open\library/pkcs5.c **** #if !defined(MBEDTLS_CONFIG_FILE)
  33:Source\mbedtls_open\library/pkcs5.c **** #include "mbedtls/config.h"
  34:Source\mbedtls_open\library/pkcs5.c **** #else
  35:Source\mbedtls_open\library/pkcs5.c **** #include MBEDTLS_CONFIG_FILE
  36:Source\mbedtls_open\library/pkcs5.c **** #endif
  37:Source\mbedtls_open\library/pkcs5.c **** 
  38:Source\mbedtls_open\library/pkcs5.c **** #if defined(MBEDTLS_PKCS5_C)
  39:Source\mbedtls_open\library/pkcs5.c **** 
  40:Source\mbedtls_open\library/pkcs5.c **** #include "mbedtls/pkcs5.h"
  41:Source\mbedtls_open\library/pkcs5.c **** 
  42:Source\mbedtls_open\library/pkcs5.c **** #if defined(MBEDTLS_ASN1_PARSE_C)
  43:Source\mbedtls_open\library/pkcs5.c **** #include "mbedtls/asn1.h"
  44:Source\mbedtls_open\library/pkcs5.c **** #include "mbedtls/cipher.h"
  45:Source\mbedtls_open\library/pkcs5.c **** #include "mbedtls/oid.h"
  46:Source\mbedtls_open\library/pkcs5.c **** #endif /* MBEDTLS_ASN1_PARSE_C */
  47:Source\mbedtls_open\library/pkcs5.c **** 
  48:Source\mbedtls_open\library/pkcs5.c **** #include <string.h>
  49:Source\mbedtls_open\library/pkcs5.c **** 
  50:Source\mbedtls_open\library/pkcs5.c **** #if defined(MBEDTLS_PLATFORM_C)
  51:Source\mbedtls_open\library/pkcs5.c **** #include "mbedtls/platform.h"
  52:Source\mbedtls_open\library/pkcs5.c **** #else
  53:Source\mbedtls_open\library/pkcs5.c **** #include <stdio.h>
  54:Source\mbedtls_open\library/pkcs5.c **** #define mbedtls_printf printf
  55:Source\mbedtls_open\library/pkcs5.c **** #endif
  56:Source\mbedtls_open\library/pkcs5.c **** 
  57:Source\mbedtls_open\library/pkcs5.c **** #if !defined(MBEDTLS_ASN1_PARSE_C)
  58:Source\mbedtls_open\library/pkcs5.c **** int mbedtls_pkcs5_pbes2( const mbedtls_asn1_buf *pbe_params, int mode,
  59:Source\mbedtls_open\library/pkcs5.c ****                  const unsigned char *pwd,  size_t pwdlen,
  60:Source\mbedtls_open\library/pkcs5.c ****                  const unsigned char *data, size_t datalen,
  61:Source\mbedtls_open\library/pkcs5.c ****                  unsigned char *output )
  62:Source\mbedtls_open\library/pkcs5.c **** {
  63:Source\mbedtls_open\library/pkcs5.c ****     ((void) pbe_params);
  64:Source\mbedtls_open\library/pkcs5.c ****     ((void) mode);
  65:Source\mbedtls_open\library/pkcs5.c ****     ((void) pwd);
  66:Source\mbedtls_open\library/pkcs5.c ****     ((void) pwdlen);
  67:Source\mbedtls_open\library/pkcs5.c ****     ((void) data);
  68:Source\mbedtls_open\library/pkcs5.c ****     ((void) datalen);
  69:Source\mbedtls_open\library/pkcs5.c ****     ((void) output);
  70:Source\mbedtls_open\library/pkcs5.c ****     return( MBEDTLS_ERR_PKCS5_FEATURE_UNAVAILABLE );
  71:Source\mbedtls_open\library/pkcs5.c **** }
  72:Source\mbedtls_open\library/pkcs5.c **** #else
  73:Source\mbedtls_open\library/pkcs5.c **** static int pkcs5_parse_pbkdf2_params( const mbedtls_asn1_buf *params,
  74:Source\mbedtls_open\library/pkcs5.c ****                                       mbedtls_asn1_buf *salt, int *iterations,
  75:Source\mbedtls_open\library/pkcs5.c ****                                       int *keylen, mbedtls_md_type_t *md_type )
  76:Source\mbedtls_open\library/pkcs5.c **** {
  27              		.loc 1 76 0
  28              		.cfi_startproc
  29              		@ args = 4, pretend = 0, frame = 16
  30              		@ frame_needed = 0, uses_anonymous_args = 0
  31              	.LVL0:
  32 0000 F0B5     		push	{r4, r5, r6, r7, lr}
  33              		.cfi_def_cfa_offset 20
  34              		.cfi_offset 4, -20
  35              		.cfi_offset 5, -16
  36              		.cfi_offset 6, -12
  37              		.cfi_offset 7, -8
  38              		.cfi_offset 14, -4
ARM GAS  C:\Users\Phuong\AppData\Local\Temp\ccTnCDdg.s 			page 3


  39 0002 85B0     		sub	sp, sp, #20
  40              		.cfi_def_cfa_offset 40
  41 0004 0F00     		movs	r7, r1
  42 0006 1600     		movs	r6, r2
  43 0008 1D00     		movs	r5, r3
  77:Source\mbedtls_open\library/pkcs5.c ****     int ret;
  78:Source\mbedtls_open\library/pkcs5.c ****     mbedtls_asn1_buf prf_alg_oid;
  79:Source\mbedtls_open\library/pkcs5.c ****     unsigned char *p = params->p;
  44              		.loc 1 79 0
  45 000a 8468     		ldr	r4, [r0, #8]
  46 000c 0094     		str	r4, [sp]
  80:Source\mbedtls_open\library/pkcs5.c ****     const unsigned char *end = params->p + params->len;
  47              		.loc 1 80 0
  48 000e 4368     		ldr	r3, [r0, #4]
  49              	.LVL1:
  50 0010 9C46     		mov	ip, r3
  51 0012 6444     		add	r4, r4, ip
  52              	.LVL2:
  81:Source\mbedtls_open\library/pkcs5.c **** 
  82:Source\mbedtls_open\library/pkcs5.c ****     if( params->tag != ( MBEDTLS_ASN1_CONSTRUCTED | MBEDTLS_ASN1_SEQUENCE ) )
  53              		.loc 1 82 0
  54 0014 0368     		ldr	r3, [r0]
  55 0016 302B     		cmp	r3, #48
  56 0018 45D1     		bne	.L7
  83:Source\mbedtls_open\library/pkcs5.c ****         return( MBEDTLS_ERR_PKCS5_INVALID_FORMAT +
  84:Source\mbedtls_open\library/pkcs5.c ****                 MBEDTLS_ERR_ASN1_UNEXPECTED_TAG );
  85:Source\mbedtls_open\library/pkcs5.c ****     /*
  86:Source\mbedtls_open\library/pkcs5.c ****      *  PBKDF2-params ::= SEQUENCE {
  87:Source\mbedtls_open\library/pkcs5.c ****      *    salt              OCTET STRING,
  88:Source\mbedtls_open\library/pkcs5.c ****      *    iterationCount    INTEGER,
  89:Source\mbedtls_open\library/pkcs5.c ****      *    keyLength         INTEGER OPTIONAL
  90:Source\mbedtls_open\library/pkcs5.c ****      *    prf               AlgorithmIdentifier DEFAULT algid-hmacWithSHA1
  91:Source\mbedtls_open\library/pkcs5.c ****      *  }
  92:Source\mbedtls_open\library/pkcs5.c ****      *
  93:Source\mbedtls_open\library/pkcs5.c ****      */
  94:Source\mbedtls_open\library/pkcs5.c ****     if( ( ret = mbedtls_asn1_get_tag( &p, end, &salt->len, MBEDTLS_ASN1_OCTET_STRING ) ) != 0 )
  57              		.loc 1 94 0
  58 001a 0A1D     		adds	r2, r1, #4
  59              	.LVL3:
  60 001c 2C3B     		subs	r3, r3, #44
  61 001e 2100     		movs	r1, r4
  62              	.LVL4:
  63 0020 6846     		mov	r0, sp
  64              	.LVL5:
  65 0022 FFF7FEFF 		bl	mbedtls_asn1_get_tag
  66              	.LVL6:
  67 0026 0028     		cmp	r0, #0
  68 0028 03D0     		beq	.L3
  95:Source\mbedtls_open\library/pkcs5.c ****         return( MBEDTLS_ERR_PKCS5_INVALID_FORMAT + ret );
  69              		.loc 1 95 0
  70 002a 234B     		ldr	r3, .L11
  71 002c 9C46     		mov	ip, r3
  72 002e 6044     		add	r0, r0, ip
  73              	.LVL7:
  74 0030 40E0     		b	.L2
  75              	.LVL8:
  76              	.L3:
ARM GAS  C:\Users\Phuong\AppData\Local\Temp\ccTnCDdg.s 			page 4


  96:Source\mbedtls_open\library/pkcs5.c **** 
  97:Source\mbedtls_open\library/pkcs5.c ****     salt->p = p;
  77              		.loc 1 97 0
  78 0032 009A     		ldr	r2, [sp]
  79 0034 BA60     		str	r2, [r7, #8]
  98:Source\mbedtls_open\library/pkcs5.c ****     p += salt->len;
  80              		.loc 1 98 0
  81 0036 7B68     		ldr	r3, [r7, #4]
  82 0038 D318     		adds	r3, r2, r3
  83 003a 0093     		str	r3, [sp]
  99:Source\mbedtls_open\library/pkcs5.c **** 
 100:Source\mbedtls_open\library/pkcs5.c ****     if( ( ret = mbedtls_asn1_get_int( &p, end, iterations ) ) != 0 )
  84              		.loc 1 100 0
  85 003c 3200     		movs	r2, r6
  86 003e 2100     		movs	r1, r4
  87 0040 6846     		mov	r0, sp
  88              	.LVL9:
  89 0042 FFF7FEFF 		bl	mbedtls_asn1_get_int
  90              	.LVL10:
  91 0046 0028     		cmp	r0, #0
  92 0048 03D0     		beq	.L4
 101:Source\mbedtls_open\library/pkcs5.c ****         return( MBEDTLS_ERR_PKCS5_INVALID_FORMAT + ret );
  93              		.loc 1 101 0
  94 004a 1B4B     		ldr	r3, .L11
  95 004c 9C46     		mov	ip, r3
  96 004e 6044     		add	r0, r0, ip
  97              	.LVL11:
  98 0050 30E0     		b	.L2
  99              	.LVL12:
 100              	.L4:
 102:Source\mbedtls_open\library/pkcs5.c **** 
 103:Source\mbedtls_open\library/pkcs5.c ****     if( p == end )
 101              		.loc 1 103 0
 102 0052 009B     		ldr	r3, [sp]
 103 0054 9C42     		cmp	r4, r3
 104 0056 28D0     		beq	.L8
 104:Source\mbedtls_open\library/pkcs5.c ****         return( 0 );
 105:Source\mbedtls_open\library/pkcs5.c **** 
 106:Source\mbedtls_open\library/pkcs5.c ****     if( ( ret = mbedtls_asn1_get_int( &p, end, keylen ) ) != 0 )
 105              		.loc 1 106 0
 106 0058 2A00     		movs	r2, r5
 107 005a 2100     		movs	r1, r4
 108 005c 6846     		mov	r0, sp
 109              	.LVL13:
 110 005e FFF7FEFF 		bl	mbedtls_asn1_get_int
 111              	.LVL14:
 112 0062 0028     		cmp	r0, #0
 113 0064 06D0     		beq	.L5
 107:Source\mbedtls_open\library/pkcs5.c ****     {
 108:Source\mbedtls_open\library/pkcs5.c ****         if( ret != MBEDTLS_ERR_ASN1_UNEXPECTED_TAG )
 114              		.loc 1 108 0
 115 0066 0300     		movs	r3, r0
 116 0068 6233     		adds	r3, r3, #98
 117 006a 03D0     		beq	.L5
 109:Source\mbedtls_open\library/pkcs5.c ****             return( MBEDTLS_ERR_PKCS5_INVALID_FORMAT + ret );
 118              		.loc 1 109 0
 119 006c 124B     		ldr	r3, .L11
ARM GAS  C:\Users\Phuong\AppData\Local\Temp\ccTnCDdg.s 			page 5


 120 006e 9C46     		mov	ip, r3
 121 0070 6044     		add	r0, r0, ip
 122              	.LVL15:
 123 0072 1FE0     		b	.L2
 124              	.LVL16:
 125              	.L5:
 110:Source\mbedtls_open\library/pkcs5.c ****     }
 111:Source\mbedtls_open\library/pkcs5.c **** 
 112:Source\mbedtls_open\library/pkcs5.c ****     if( p == end )
 126              		.loc 1 112 0
 127 0074 009B     		ldr	r3, [sp]
 128 0076 9C42     		cmp	r4, r3
 129 0078 19D0     		beq	.L9
 113:Source\mbedtls_open\library/pkcs5.c ****         return( 0 );
 114:Source\mbedtls_open\library/pkcs5.c **** 
 115:Source\mbedtls_open\library/pkcs5.c ****     if( ( ret = mbedtls_asn1_get_alg_null( &p, end, &prf_alg_oid ) ) != 0 )
 130              		.loc 1 115 0
 131 007a 01AA     		add	r2, sp, #4
 132 007c 2100     		movs	r1, r4
 133 007e 6846     		mov	r0, sp
 134              	.LVL17:
 135 0080 FFF7FEFF 		bl	mbedtls_asn1_get_alg_null
 136              	.LVL18:
 137 0084 0028     		cmp	r0, #0
 138 0086 03D0     		beq	.L6
 116:Source\mbedtls_open\library/pkcs5.c ****         return( MBEDTLS_ERR_PKCS5_INVALID_FORMAT + ret );
 139              		.loc 1 116 0
 140 0088 0B4B     		ldr	r3, .L11
 141 008a 9C46     		mov	ip, r3
 142 008c 6044     		add	r0, r0, ip
 143              	.LVL19:
 144 008e 11E0     		b	.L2
 145              	.LVL20:
 146              	.L6:
 117:Source\mbedtls_open\library/pkcs5.c **** 
 118:Source\mbedtls_open\library/pkcs5.c ****     if( mbedtls_oid_get_md_hmac( &prf_alg_oid, md_type ) != 0 )
 147              		.loc 1 118 0
 148 0090 0A99     		ldr	r1, [sp, #40]
 149 0092 01A8     		add	r0, sp, #4
 150              	.LVL21:
 151 0094 FFF7FEFF 		bl	mbedtls_oid_get_md_hmac
 152              	.LVL22:
 153 0098 0028     		cmp	r0, #0
 154 009a 0AD1     		bne	.L10
 119:Source\mbedtls_open\library/pkcs5.c ****         return( MBEDTLS_ERR_PKCS5_FEATURE_UNAVAILABLE );
 120:Source\mbedtls_open\library/pkcs5.c **** 
 121:Source\mbedtls_open\library/pkcs5.c ****     if( p != end )
 155              		.loc 1 121 0
 156 009c 009B     		ldr	r3, [sp]
 157 009e 9C42     		cmp	r4, r3
 158 00a0 08D0     		beq	.L2
 122:Source\mbedtls_open\library/pkcs5.c ****         return( MBEDTLS_ERR_PKCS5_INVALID_FORMAT +
 159              		.loc 1 122 0
 160 00a2 0648     		ldr	r0, .L11+4
 161 00a4 06E0     		b	.L2
 162              	.LVL23:
 163              	.L7:
ARM GAS  C:\Users\Phuong\AppData\Local\Temp\ccTnCDdg.s 			page 6


  83:Source\mbedtls_open\library/pkcs5.c ****                 MBEDTLS_ERR_ASN1_UNEXPECTED_TAG );
 164              		.loc 1 83 0
 165 00a6 0648     		ldr	r0, .L11+8
 166              	.LVL24:
 167 00a8 04E0     		b	.L2
 168              	.LVL25:
 169              	.L8:
 104:Source\mbedtls_open\library/pkcs5.c **** 
 170              		.loc 1 104 0
 171 00aa 0020     		movs	r0, #0
 172              	.LVL26:
 173 00ac 02E0     		b	.L2
 174              	.LVL27:
 175              	.L9:
 113:Source\mbedtls_open\library/pkcs5.c **** 
 176              		.loc 1 113 0
 177 00ae 0020     		movs	r0, #0
 178              	.LVL28:
 179 00b0 00E0     		b	.L2
 180              	.L10:
 119:Source\mbedtls_open\library/pkcs5.c **** 
 181              		.loc 1 119 0
 182 00b2 0448     		ldr	r0, .L11+12
 183              	.L2:
 123:Source\mbedtls_open\library/pkcs5.c ****                 MBEDTLS_ERR_ASN1_LENGTH_MISMATCH );
 124:Source\mbedtls_open\library/pkcs5.c **** 
 125:Source\mbedtls_open\library/pkcs5.c ****     return( 0 );
 126:Source\mbedtls_open\library/pkcs5.c **** }
 184              		.loc 1 126 0
 185 00b4 05B0     		add	sp, sp, #20
 186              		@ sp needed
 187              	.LVL29:
 188              	.LVL30:
 189              	.LVL31:
 190              	.LVL32:
 191 00b6 F0BD     		pop	{r4, r5, r6, r7, pc}
 192              	.L12:
 193              		.align	2
 194              	.L11:
 195 00b8 00D1FFFF 		.word	-12032
 196 00bc 9AD0FFFF 		.word	-12134
 197 00c0 9ED0FFFF 		.word	-12130
 198 00c4 80D1FFFF 		.word	-11904
 199              		.cfi_endproc
 200              	.LFE11:
 201              		.size	pkcs5_parse_pbkdf2_params, .-pkcs5_parse_pbkdf2_params
 202              		.section	.text.mbedtls_pkcs5_pbkdf2_hmac,"ax",%progbits
 203              		.align	2
 204              		.global	mbedtls_pkcs5_pbkdf2_hmac
 205              		.code	16
 206              		.thumb_func
 207              		.type	mbedtls_pkcs5_pbkdf2_hmac, %function
 208              	mbedtls_pkcs5_pbkdf2_hmac:
 209              	.LFB13:
 127:Source\mbedtls_open\library/pkcs5.c **** 
 128:Source\mbedtls_open\library/pkcs5.c **** int mbedtls_pkcs5_pbes2( const mbedtls_asn1_buf *pbe_params, int mode,
 129:Source\mbedtls_open\library/pkcs5.c ****                  const unsigned char *pwd,  size_t pwdlen,
ARM GAS  C:\Users\Phuong\AppData\Local\Temp\ccTnCDdg.s 			page 7


 130:Source\mbedtls_open\library/pkcs5.c ****                  const unsigned char *data, size_t datalen,
 131:Source\mbedtls_open\library/pkcs5.c ****                  unsigned char *output )
 132:Source\mbedtls_open\library/pkcs5.c **** {
 133:Source\mbedtls_open\library/pkcs5.c ****     int ret, iterations = 0, keylen = 0;
 134:Source\mbedtls_open\library/pkcs5.c ****     unsigned char *p, *end;
 135:Source\mbedtls_open\library/pkcs5.c ****     mbedtls_asn1_buf kdf_alg_oid, enc_scheme_oid, kdf_alg_params, enc_scheme_params;
 136:Source\mbedtls_open\library/pkcs5.c ****     mbedtls_asn1_buf salt;
 137:Source\mbedtls_open\library/pkcs5.c ****     mbedtls_md_type_t md_type = MBEDTLS_MD_SHA1;
 138:Source\mbedtls_open\library/pkcs5.c ****     unsigned char key[32], iv[32];
 139:Source\mbedtls_open\library/pkcs5.c ****     size_t olen = 0;
 140:Source\mbedtls_open\library/pkcs5.c ****     const mbedtls_md_info_t *md_info;
 141:Source\mbedtls_open\library/pkcs5.c ****     const mbedtls_cipher_info_t *cipher_info;
 142:Source\mbedtls_open\library/pkcs5.c ****     mbedtls_md_context_t md_ctx;
 143:Source\mbedtls_open\library/pkcs5.c ****     mbedtls_cipher_type_t cipher_alg;
 144:Source\mbedtls_open\library/pkcs5.c ****     mbedtls_cipher_context_t cipher_ctx;
 145:Source\mbedtls_open\library/pkcs5.c **** 
 146:Source\mbedtls_open\library/pkcs5.c ****     p = pbe_params->p;
 147:Source\mbedtls_open\library/pkcs5.c ****     end = p + pbe_params->len;
 148:Source\mbedtls_open\library/pkcs5.c **** 
 149:Source\mbedtls_open\library/pkcs5.c ****     /*
 150:Source\mbedtls_open\library/pkcs5.c ****      *  PBES2-params ::= SEQUENCE {
 151:Source\mbedtls_open\library/pkcs5.c ****      *    keyDerivationFunc AlgorithmIdentifier {{PBES2-KDFs}},
 152:Source\mbedtls_open\library/pkcs5.c ****      *    encryptionScheme AlgorithmIdentifier {{PBES2-Encs}}
 153:Source\mbedtls_open\library/pkcs5.c ****      *  }
 154:Source\mbedtls_open\library/pkcs5.c ****      */
 155:Source\mbedtls_open\library/pkcs5.c ****     if( pbe_params->tag != ( MBEDTLS_ASN1_CONSTRUCTED | MBEDTLS_ASN1_SEQUENCE ) )
 156:Source\mbedtls_open\library/pkcs5.c ****         return( MBEDTLS_ERR_PKCS5_INVALID_FORMAT +
 157:Source\mbedtls_open\library/pkcs5.c ****                 MBEDTLS_ERR_ASN1_UNEXPECTED_TAG );
 158:Source\mbedtls_open\library/pkcs5.c **** 
 159:Source\mbedtls_open\library/pkcs5.c ****     if( ( ret = mbedtls_asn1_get_alg( &p, end, &kdf_alg_oid, &kdf_alg_params ) ) != 0 )
 160:Source\mbedtls_open\library/pkcs5.c ****         return( MBEDTLS_ERR_PKCS5_INVALID_FORMAT + ret );
 161:Source\mbedtls_open\library/pkcs5.c **** 
 162:Source\mbedtls_open\library/pkcs5.c ****     // Only PBKDF2 supported at the moment
 163:Source\mbedtls_open\library/pkcs5.c ****     //
 164:Source\mbedtls_open\library/pkcs5.c ****     if( MBEDTLS_OID_CMP( MBEDTLS_OID_PKCS5_PBKDF2, &kdf_alg_oid ) != 0 )
 165:Source\mbedtls_open\library/pkcs5.c ****         return( MBEDTLS_ERR_PKCS5_FEATURE_UNAVAILABLE );
 166:Source\mbedtls_open\library/pkcs5.c **** 
 167:Source\mbedtls_open\library/pkcs5.c ****     if( ( ret = pkcs5_parse_pbkdf2_params( &kdf_alg_params,
 168:Source\mbedtls_open\library/pkcs5.c ****                                            &salt, &iterations, &keylen,
 169:Source\mbedtls_open\library/pkcs5.c ****                                            &md_type ) ) != 0 )
 170:Source\mbedtls_open\library/pkcs5.c ****     {
 171:Source\mbedtls_open\library/pkcs5.c ****         return( ret );
 172:Source\mbedtls_open\library/pkcs5.c ****     }
 173:Source\mbedtls_open\library/pkcs5.c **** 
 174:Source\mbedtls_open\library/pkcs5.c ****     md_info = mbedtls_md_info_from_type( md_type );
 175:Source\mbedtls_open\library/pkcs5.c ****     if( md_info == NULL )
 176:Source\mbedtls_open\library/pkcs5.c ****         return( MBEDTLS_ERR_PKCS5_FEATURE_UNAVAILABLE );
 177:Source\mbedtls_open\library/pkcs5.c **** 
 178:Source\mbedtls_open\library/pkcs5.c ****     if( ( ret = mbedtls_asn1_get_alg( &p, end, &enc_scheme_oid,
 179:Source\mbedtls_open\library/pkcs5.c ****                               &enc_scheme_params ) ) != 0 )
 180:Source\mbedtls_open\library/pkcs5.c ****     {
 181:Source\mbedtls_open\library/pkcs5.c ****         return( MBEDTLS_ERR_PKCS5_INVALID_FORMAT + ret );
 182:Source\mbedtls_open\library/pkcs5.c ****     }
 183:Source\mbedtls_open\library/pkcs5.c **** 
 184:Source\mbedtls_open\library/pkcs5.c ****     if( mbedtls_oid_get_cipher_alg( &enc_scheme_oid, &cipher_alg ) != 0 )
 185:Source\mbedtls_open\library/pkcs5.c ****         return( MBEDTLS_ERR_PKCS5_FEATURE_UNAVAILABLE );
 186:Source\mbedtls_open\library/pkcs5.c **** 
ARM GAS  C:\Users\Phuong\AppData\Local\Temp\ccTnCDdg.s 			page 8


 187:Source\mbedtls_open\library/pkcs5.c ****     cipher_info = mbedtls_cipher_info_from_type( cipher_alg );
 188:Source\mbedtls_open\library/pkcs5.c ****     if( cipher_info == NULL )
 189:Source\mbedtls_open\library/pkcs5.c ****         return( MBEDTLS_ERR_PKCS5_FEATURE_UNAVAILABLE );
 190:Source\mbedtls_open\library/pkcs5.c **** 
 191:Source\mbedtls_open\library/pkcs5.c ****     /*
 192:Source\mbedtls_open\library/pkcs5.c ****      * The value of keylen from pkcs5_parse_pbkdf2_params() is ignored
 193:Source\mbedtls_open\library/pkcs5.c ****      * since it is optional and we don't know if it was set or not
 194:Source\mbedtls_open\library/pkcs5.c ****      */
 195:Source\mbedtls_open\library/pkcs5.c ****     keylen = cipher_info->key_bitlen / 8;
 196:Source\mbedtls_open\library/pkcs5.c **** 
 197:Source\mbedtls_open\library/pkcs5.c ****     if( enc_scheme_params.tag != MBEDTLS_ASN1_OCTET_STRING ||
 198:Source\mbedtls_open\library/pkcs5.c ****         enc_scheme_params.len != cipher_info->iv_size )
 199:Source\mbedtls_open\library/pkcs5.c ****     {
 200:Source\mbedtls_open\library/pkcs5.c ****         return( MBEDTLS_ERR_PKCS5_INVALID_FORMAT );
 201:Source\mbedtls_open\library/pkcs5.c ****     }
 202:Source\mbedtls_open\library/pkcs5.c **** 
 203:Source\mbedtls_open\library/pkcs5.c ****     mbedtls_md_init( &md_ctx );
 204:Source\mbedtls_open\library/pkcs5.c ****     mbedtls_cipher_init( &cipher_ctx );
 205:Source\mbedtls_open\library/pkcs5.c **** 
 206:Source\mbedtls_open\library/pkcs5.c ****     memcpy( iv, enc_scheme_params.p, enc_scheme_params.len );
 207:Source\mbedtls_open\library/pkcs5.c **** 
 208:Source\mbedtls_open\library/pkcs5.c ****     if( ( ret = mbedtls_md_setup( &md_ctx, md_info, 1 ) ) != 0 )
 209:Source\mbedtls_open\library/pkcs5.c ****         goto exit;
 210:Source\mbedtls_open\library/pkcs5.c **** 
 211:Source\mbedtls_open\library/pkcs5.c ****     if( ( ret = mbedtls_pkcs5_pbkdf2_hmac( &md_ctx, pwd, pwdlen, salt.p, salt.len,
 212:Source\mbedtls_open\library/pkcs5.c ****                                    iterations, keylen, key ) ) != 0 )
 213:Source\mbedtls_open\library/pkcs5.c ****     {
 214:Source\mbedtls_open\library/pkcs5.c ****         goto exit;
 215:Source\mbedtls_open\library/pkcs5.c ****     }
 216:Source\mbedtls_open\library/pkcs5.c **** 
 217:Source\mbedtls_open\library/pkcs5.c ****     if( ( ret = mbedtls_cipher_setup( &cipher_ctx, cipher_info ) ) != 0 )
 218:Source\mbedtls_open\library/pkcs5.c ****         goto exit;
 219:Source\mbedtls_open\library/pkcs5.c **** 
 220:Source\mbedtls_open\library/pkcs5.c ****     if( ( ret = mbedtls_cipher_setkey( &cipher_ctx, key, 8 * keylen, (mbedtls_operation_t) mode ) )
 221:Source\mbedtls_open\library/pkcs5.c ****         goto exit;
 222:Source\mbedtls_open\library/pkcs5.c **** 
 223:Source\mbedtls_open\library/pkcs5.c ****     if( ( ret = mbedtls_cipher_crypt( &cipher_ctx, iv, enc_scheme_params.len,
 224:Source\mbedtls_open\library/pkcs5.c ****                               data, datalen, output, &olen ) ) != 0 )
 225:Source\mbedtls_open\library/pkcs5.c ****         ret = MBEDTLS_ERR_PKCS5_PASSWORD_MISMATCH;
 226:Source\mbedtls_open\library/pkcs5.c **** 
 227:Source\mbedtls_open\library/pkcs5.c **** exit:
 228:Source\mbedtls_open\library/pkcs5.c ****     mbedtls_md_free( &md_ctx );
 229:Source\mbedtls_open\library/pkcs5.c ****     mbedtls_cipher_free( &cipher_ctx );
 230:Source\mbedtls_open\library/pkcs5.c **** 
 231:Source\mbedtls_open\library/pkcs5.c ****     return( ret );
 232:Source\mbedtls_open\library/pkcs5.c **** }
 233:Source\mbedtls_open\library/pkcs5.c **** #endif /* MBEDTLS_ASN1_PARSE_C */
 234:Source\mbedtls_open\library/pkcs5.c **** 
 235:Source\mbedtls_open\library/pkcs5.c **** int mbedtls_pkcs5_pbkdf2_hmac( mbedtls_md_context_t *ctx, const unsigned char *password,
 236:Source\mbedtls_open\library/pkcs5.c ****                        size_t plen, const unsigned char *salt, size_t slen,
 237:Source\mbedtls_open\library/pkcs5.c ****                        unsigned int iteration_count,
 238:Source\mbedtls_open\library/pkcs5.c ****                        uint32_t key_length, unsigned char *output )
 239:Source\mbedtls_open\library/pkcs5.c **** {
 210              		.loc 1 239 0
 211              		.cfi_startproc
 212              		@ args = 16, pretend = 0, frame = 152
 213              		@ frame_needed = 0, uses_anonymous_args = 0
ARM GAS  C:\Users\Phuong\AppData\Local\Temp\ccTnCDdg.s 			page 9


 214              	.LVL33:
 215 0000 F0B5     		push	{r4, r5, r6, r7, lr}
 216              		.cfi_def_cfa_offset 20
 217              		.cfi_offset 4, -20
 218              		.cfi_offset 5, -16
 219              		.cfi_offset 6, -12
 220              		.cfi_offset 7, -8
 221              		.cfi_offset 14, -4
 222 0002 A7B0     		sub	sp, sp, #156
 223              		.cfi_def_cfa_offset 176
 224 0004 0400     		movs	r4, r0
 225 0006 0191     		str	r1, [sp, #4]
 226 0008 0292     		str	r2, [sp, #8]
 227 000a 0393     		str	r3, [sp, #12]
 228 000c 2D9E     		ldr	r6, [sp, #180]
 240:Source\mbedtls_open\library/pkcs5.c ****     int ret, j;
 241:Source\mbedtls_open\library/pkcs5.c ****     unsigned int i;
 242:Source\mbedtls_open\library/pkcs5.c ****     unsigned char md1[MBEDTLS_MD_MAX_SIZE];
 243:Source\mbedtls_open\library/pkcs5.c ****     unsigned char work[MBEDTLS_MD_MAX_SIZE];
 244:Source\mbedtls_open\library/pkcs5.c ****     unsigned char md_size = mbedtls_md_get_size( ctx->md_info );
 229              		.loc 1 244 0
 230 000e 0068     		ldr	r0, [r0]
 231              	.LVL34:
 232 0010 FFF7FEFF 		bl	mbedtls_md_get_size
 233              	.LVL35:
 234 0014 0500     		movs	r5, r0
 235              	.LVL36:
 245:Source\mbedtls_open\library/pkcs5.c ****     size_t use_len;
 246:Source\mbedtls_open\library/pkcs5.c ****     unsigned char *out_p = output;
 247:Source\mbedtls_open\library/pkcs5.c ****     unsigned char counter[4];
 248:Source\mbedtls_open\library/pkcs5.c **** 
 249:Source\mbedtls_open\library/pkcs5.c ****     memset( counter, 0, 4 );
 236              		.loc 1 249 0
 237 0016 0023     		movs	r3, #0
 238 0018 0593     		str	r3, [sp, #20]
 250:Source\mbedtls_open\library/pkcs5.c ****     counter[3] = 1;
 239              		.loc 1 250 0
 240 001a 0122     		movs	r2, #1
 241 001c 05AB     		add	r3, sp, #20
 242 001e DA70     		strb	r2, [r3, #3]
 243 0020 3700     		movs	r7, r6
 251:Source\mbedtls_open\library/pkcs5.c **** 
 252:Source\mbedtls_open\library/pkcs5.c **** #if UINT_MAX > 0xFFFFFFFF
 253:Source\mbedtls_open\library/pkcs5.c ****     if( iteration_count > 0xFFFFFFFF )
 254:Source\mbedtls_open\library/pkcs5.c ****         return( MBEDTLS_ERR_PKCS5_BAD_INPUT_DATA );
 255:Source\mbedtls_open\library/pkcs5.c **** #endif
 256:Source\mbedtls_open\library/pkcs5.c **** 
 257:Source\mbedtls_open\library/pkcs5.c ****     while( key_length )
 244              		.loc 1 257 0
 245 0022 62E0     		b	.L14
 246              	.LVL37:
 247              	.L24:
 258:Source\mbedtls_open\library/pkcs5.c ****     {
 259:Source\mbedtls_open\library/pkcs5.c ****         // U1 ends up in work
 260:Source\mbedtls_open\library/pkcs5.c ****         //
 261:Source\mbedtls_open\library/pkcs5.c ****         if( ( ret = mbedtls_md_hmac_starts( ctx, password, plen ) ) != 0 )
 248              		.loc 1 261 0
ARM GAS  C:\Users\Phuong\AppData\Local\Temp\ccTnCDdg.s 			page 10


 249 0024 029A     		ldr	r2, [sp, #8]
 250 0026 0199     		ldr	r1, [sp, #4]
 251 0028 2000     		movs	r0, r4
 252 002a FFF7FEFF 		bl	mbedtls_md_hmac_starts
 253              	.LVL38:
 254 002e 0028     		cmp	r0, #0
 255 0030 5FD1     		bne	.L15
 262:Source\mbedtls_open\library/pkcs5.c ****             return( ret );
 263:Source\mbedtls_open\library/pkcs5.c **** 
 264:Source\mbedtls_open\library/pkcs5.c ****         if( ( ret = mbedtls_md_hmac_update( ctx, salt, slen ) ) != 0 )
 256              		.loc 1 264 0
 257 0032 2C9A     		ldr	r2, [sp, #176]
 258 0034 0399     		ldr	r1, [sp, #12]
 259 0036 2000     		movs	r0, r4
 260              	.LVL39:
 261 0038 FFF7FEFF 		bl	mbedtls_md_hmac_update
 262              	.LVL40:
 263 003c 0028     		cmp	r0, #0
 264 003e 58D1     		bne	.L15
 265:Source\mbedtls_open\library/pkcs5.c ****             return( ret );
 266:Source\mbedtls_open\library/pkcs5.c **** 
 267:Source\mbedtls_open\library/pkcs5.c ****         if( ( ret = mbedtls_md_hmac_update( ctx, counter, 4 ) ) != 0 )
 265              		.loc 1 267 0
 266 0040 0422     		movs	r2, #4
 267 0042 05A9     		add	r1, sp, #20
 268 0044 2000     		movs	r0, r4
 269              	.LVL41:
 270 0046 FFF7FEFF 		bl	mbedtls_md_hmac_update
 271              	.LVL42:
 272 004a 0028     		cmp	r0, #0
 273 004c 51D1     		bne	.L15
 268:Source\mbedtls_open\library/pkcs5.c ****             return( ret );
 269:Source\mbedtls_open\library/pkcs5.c **** 
 270:Source\mbedtls_open\library/pkcs5.c ****         if( ( ret = mbedtls_md_hmac_finish( ctx, work ) ) != 0 )
 274              		.loc 1 270 0
 275 004e 06A9     		add	r1, sp, #24
 276 0050 2000     		movs	r0, r4
 277              	.LVL43:
 278 0052 FFF7FEFF 		bl	mbedtls_md_hmac_finish
 279              	.LVL44:
 280 0056 0028     		cmp	r0, #0
 281 0058 4BD1     		bne	.L15
 271:Source\mbedtls_open\library/pkcs5.c ****             return( ret );
 272:Source\mbedtls_open\library/pkcs5.c **** 
 273:Source\mbedtls_open\library/pkcs5.c ****         memcpy( md1, work, md_size );
 282              		.loc 1 273 0
 283 005a 0095     		str	r5, [sp]
 284 005c 2A00     		movs	r2, r5
 285 005e 06A9     		add	r1, sp, #24
 286 0060 16A8     		add	r0, sp, #88
 287              	.LVL45:
 288 0062 FFF7FEFF 		bl	memcpy
 289              	.LVL46:
 274:Source\mbedtls_open\library/pkcs5.c **** 
 275:Source\mbedtls_open\library/pkcs5.c ****         for( i = 1; i < iteration_count; i++ )
 290              		.loc 1 275 0
 291 0066 0126     		movs	r6, #1
ARM GAS  C:\Users\Phuong\AppData\Local\Temp\ccTnCDdg.s 			page 11


 292 0068 1FE0     		b	.L16
 293              	.LVL47:
 294              	.L19:
 276:Source\mbedtls_open\library/pkcs5.c ****         {
 277:Source\mbedtls_open\library/pkcs5.c ****             // U2 ends up in md1
 278:Source\mbedtls_open\library/pkcs5.c ****             //
 279:Source\mbedtls_open\library/pkcs5.c ****             if( ( ret = mbedtls_md_hmac_starts( ctx, password, plen ) ) != 0 )
 295              		.loc 1 279 0
 296 006a 029A     		ldr	r2, [sp, #8]
 297 006c 0199     		ldr	r1, [sp, #4]
 298 006e 2000     		movs	r0, r4
 299 0070 FFF7FEFF 		bl	mbedtls_md_hmac_starts
 300              	.LVL48:
 301 0074 0028     		cmp	r0, #0
 302 0076 3CD1     		bne	.L15
 280:Source\mbedtls_open\library/pkcs5.c ****                 return( ret );
 281:Source\mbedtls_open\library/pkcs5.c **** 
 282:Source\mbedtls_open\library/pkcs5.c ****             if( ( ret = mbedtls_md_hmac_update( ctx, md1, md_size ) ) != 0 )
 303              		.loc 1 282 0
 304 0078 009A     		ldr	r2, [sp]
 305 007a 16A9     		add	r1, sp, #88
 306 007c 2000     		movs	r0, r4
 307              	.LVL49:
 308 007e FFF7FEFF 		bl	mbedtls_md_hmac_update
 309              	.LVL50:
 310 0082 0028     		cmp	r0, #0
 311 0084 35D1     		bne	.L15
 283:Source\mbedtls_open\library/pkcs5.c ****                 return( ret );
 284:Source\mbedtls_open\library/pkcs5.c **** 
 285:Source\mbedtls_open\library/pkcs5.c ****             if( ( ret = mbedtls_md_hmac_finish( ctx, md1 ) ) != 0 )
 312              		.loc 1 285 0
 313 0086 16A9     		add	r1, sp, #88
 314 0088 2000     		movs	r0, r4
 315              	.LVL51:
 316 008a FFF7FEFF 		bl	mbedtls_md_hmac_finish
 317              	.LVL52:
 318 008e 0028     		cmp	r0, #0
 319 0090 2FD1     		bne	.L15
 320 0092 0023     		movs	r3, #0
 321 0094 06E0     		b	.L17
 322              	.LVL53:
 323              	.L18:
 286:Source\mbedtls_open\library/pkcs5.c ****                 return( ret );
 287:Source\mbedtls_open\library/pkcs5.c **** 
 288:Source\mbedtls_open\library/pkcs5.c ****             // U1 xor U2
 289:Source\mbedtls_open\library/pkcs5.c ****             //
 290:Source\mbedtls_open\library/pkcs5.c ****             for( j = 0; j < md_size; j++ )
 291:Source\mbedtls_open\library/pkcs5.c ****                 work[j] ^= md1[j];
 324              		.loc 1 291 0 discriminator 3
 325 0096 16AA     		add	r2, sp, #88
 326 0098 D05C     		ldrb	r0, [r2, r3]
 327 009a 06A9     		add	r1, sp, #24
 328 009c CA5C     		ldrb	r2, [r1, r3]
 329 009e 4240     		eors	r2, r0
 330 00a0 CA54     		strb	r2, [r1, r3]
 290:Source\mbedtls_open\library/pkcs5.c ****                 work[j] ^= md1[j];
 331              		.loc 1 290 0 discriminator 3
ARM GAS  C:\Users\Phuong\AppData\Local\Temp\ccTnCDdg.s 			page 12


 332 00a2 0133     		adds	r3, r3, #1
 333              	.LVL54:
 334              	.L17:
 290:Source\mbedtls_open\library/pkcs5.c ****                 work[j] ^= md1[j];
 335              		.loc 1 290 0 is_stmt 0 discriminator 1
 336 00a4 AB42     		cmp	r3, r5
 337 00a6 F6DB     		blt	.L18
 275:Source\mbedtls_open\library/pkcs5.c ****         {
 338              		.loc 1 275 0 is_stmt 1 discriminator 2
 339 00a8 0136     		adds	r6, r6, #1
 340              	.LVL55:
 341              	.L16:
 275:Source\mbedtls_open\library/pkcs5.c ****         {
 342              		.loc 1 275 0 is_stmt 0 discriminator 1
 343 00aa BE42     		cmp	r6, r7
 344 00ac DDD3     		bcc	.L19
 292:Source\mbedtls_open\library/pkcs5.c ****         }
 293:Source\mbedtls_open\library/pkcs5.c **** 
 294:Source\mbedtls_open\library/pkcs5.c ****         use_len = ( key_length < md_size ) ? key_length : md_size;
 345              		.loc 1 294 0 is_stmt 1
 346 00ae 2E9E     		ldr	r6, [sp, #184]
 347              	.LVL56:
 348 00b0 009A     		ldr	r2, [sp]
 349 00b2 9642     		cmp	r6, r2
 350 00b4 00D9     		bls	.L20
 351 00b6 2E00     		movs	r6, r5
 352              	.L20:
 353              	.LVL57:
 295:Source\mbedtls_open\library/pkcs5.c ****         memcpy( out_p, work, use_len );
 354              		.loc 1 295 0
 355 00b8 3200     		movs	r2, r6
 356 00ba 06A9     		add	r1, sp, #24
 357 00bc 2F98     		ldr	r0, [sp, #188]
 358 00be FFF7FEFF 		bl	memcpy
 359              	.LVL58:
 296:Source\mbedtls_open\library/pkcs5.c **** 
 297:Source\mbedtls_open\library/pkcs5.c ****         key_length -= (uint32_t) use_len;
 360              		.loc 1 297 0
 361 00c2 2E9B     		ldr	r3, [sp, #184]
 362 00c4 9B1B     		subs	r3, r3, r6
 363 00c6 2E93     		str	r3, [sp, #184]
 364              	.LVL59:
 298:Source\mbedtls_open\library/pkcs5.c ****         out_p += use_len;
 365              		.loc 1 298 0
 366 00c8 2F9B     		ldr	r3, [sp, #188]
 367              	.LVL60:
 368 00ca 9C46     		mov	ip, r3
 369 00cc B444     		add	ip, ip, r6
 370 00ce 6346     		mov	r3, ip
 371 00d0 2F93     		str	r3, [sp, #188]
 372              	.LVL61:
 299:Source\mbedtls_open\library/pkcs5.c **** 
 300:Source\mbedtls_open\library/pkcs5.c ****         for( i = 4; i > 0; i-- )
 373              		.loc 1 300 0
 374 00d2 0421     		movs	r1, #4
 375 00d4 07E0     		b	.L21
 376              	.LVL62:
ARM GAS  C:\Users\Phuong\AppData\Local\Temp\ccTnCDdg.s 			page 13


 377              	.L23:
 301:Source\mbedtls_open\library/pkcs5.c ****             if( ++counter[i - 1] != 0 )
 378              		.loc 1 301 0
 379 00d6 0139     		subs	r1, r1, #1
 380              	.LVL63:
 381 00d8 05AA     		add	r2, sp, #20
 382 00da 535C     		ldrb	r3, [r2, r1]
 383 00dc 0133     		adds	r3, r3, #1
 384 00de DBB2     		uxtb	r3, r3
 385 00e0 5354     		strb	r3, [r2, r1]
 386 00e2 002B     		cmp	r3, #0
 387 00e4 01D1     		bne	.L14
 388              	.LVL64:
 389              	.L21:
 300:Source\mbedtls_open\library/pkcs5.c ****             if( ++counter[i - 1] != 0 )
 390              		.loc 1 300 0 discriminator 1
 391 00e6 0029     		cmp	r1, #0
 392 00e8 F5D1     		bne	.L23
 393              	.LVL65:
 394              	.L14:
 257:Source\mbedtls_open\library/pkcs5.c ****     {
 395              		.loc 1 257 0
 396 00ea 2E9B     		ldr	r3, [sp, #184]
 397 00ec 002B     		cmp	r3, #0
 398 00ee 99D1     		bne	.L24
 302:Source\mbedtls_open\library/pkcs5.c ****                 break;
 303:Source\mbedtls_open\library/pkcs5.c ****     }
 304:Source\mbedtls_open\library/pkcs5.c **** 
 305:Source\mbedtls_open\library/pkcs5.c ****     return( 0 );
 399              		.loc 1 305 0
 400 00f0 0020     		movs	r0, #0
 401              	.L15:
 306:Source\mbedtls_open\library/pkcs5.c **** }
 402              		.loc 1 306 0
 403 00f2 27B0     		add	sp, sp, #156
 404              		@ sp needed
 405              	.LVL66:
 406              	.LVL67:
 407 00f4 F0BD     		pop	{r4, r5, r6, r7, pc}
 408              		.cfi_endproc
 409              	.LFE13:
 410              		.size	mbedtls_pkcs5_pbkdf2_hmac, .-mbedtls_pkcs5_pbkdf2_hmac
 411 00f6 C046     		.section	.text.mbedtls_pkcs5_pbes2,"ax",%progbits
 412              		.align	2
 413              		.global	mbedtls_pkcs5_pbes2
 414              		.code	16
 415              		.thumb_func
 416              		.type	mbedtls_pkcs5_pbes2, %function
 417              	mbedtls_pkcs5_pbes2:
 418              	.LFB12:
 132:Source\mbedtls_open\library/pkcs5.c ****     int ret, iterations = 0, keylen = 0;
 419              		.loc 1 132 0
 420              		.cfi_startproc
 421              		@ args = 12, pretend = 0, frame = 232
 422              		@ frame_needed = 0, uses_anonymous_args = 0
 423              	.LVL68:
 424 0000 F0B5     		push	{r4, r5, r6, r7, lr}
ARM GAS  C:\Users\Phuong\AppData\Local\Temp\ccTnCDdg.s 			page 14


 425              		.cfi_def_cfa_offset 20
 426              		.cfi_offset 4, -20
 427              		.cfi_offset 5, -16
 428              		.cfi_offset 6, -12
 429              		.cfi_offset 7, -8
 430              		.cfi_offset 14, -4
 431 0002 BFB0     		sub	sp, sp, #252
 432              		.cfi_def_cfa_offset 272
 433 0004 0591     		str	r1, [sp, #20]
 434 0006 1400     		movs	r4, r2
 435 0008 1D00     		movs	r5, r3
 133:Source\mbedtls_open\library/pkcs5.c ****     unsigned char *p, *end;
 436              		.loc 1 133 0
 437 000a 0023     		movs	r3, #0
 438              	.LVL69:
 439 000c 3D93     		str	r3, [sp, #244]
 440 000e 3C93     		str	r3, [sp, #240]
 137:Source\mbedtls_open\library/pkcs5.c ****     unsigned char key[32], iv[32];
 441              		.loc 1 137 0
 442 0010 0421     		movs	r1, #4
 443              	.LVL70:
 444 0012 A722     		movs	r2, #167
 445              	.LVL71:
 446 0014 02AE     		add	r6, sp, #8
 447 0016 B446     		mov	ip, r6
 448 0018 6244     		add	r2, r2, ip
 449 001a 1170     		strb	r1, [r2]
 139:Source\mbedtls_open\library/pkcs5.c ****     const mbedtls_md_info_t *md_info;
 450              		.loc 1 139 0
 451 001c 1A93     		str	r3, [sp, #104]
 146:Source\mbedtls_open\library/pkcs5.c ****     end = p + pbe_params->len;
 452              		.loc 1 146 0
 453 001e 8768     		ldr	r7, [r0, #8]
 454 0020 3B97     		str	r7, [sp, #236]
 147:Source\mbedtls_open\library/pkcs5.c **** 
 455              		.loc 1 147 0
 456 0022 4368     		ldr	r3, [r0, #4]
 457 0024 9C46     		mov	ip, r3
 458 0026 6744     		add	r7, r7, ip
 459              	.LVL72:
 155:Source\mbedtls_open\library/pkcs5.c ****         return( MBEDTLS_ERR_PKCS5_INVALID_FORMAT +
 460              		.loc 1 155 0
 461 0028 0368     		ldr	r3, [r0]
 462 002a 302B     		cmp	r3, #48
 463 002c 00D0     		beq	.LCB495
 464 002e A3E0     		b	.L39	@long jump
 465              	.LCB495:
 159:Source\mbedtls_open\library/pkcs5.c ****         return( MBEDTLS_ERR_PKCS5_INVALID_FORMAT + ret );
 466              		.loc 1 159 0
 467 0030 32AB     		add	r3, sp, #200
 468 0032 38AA     		add	r2, sp, #224
 469 0034 3900     		movs	r1, r7
 470 0036 3BA8     		add	r0, sp, #236
 471              	.LVL73:
 472 0038 FFF7FEFF 		bl	mbedtls_asn1_get_alg
 473              	.LVL74:
 474 003c 0028     		cmp	r0, #0
ARM GAS  C:\Users\Phuong\AppData\Local\Temp\ccTnCDdg.s 			page 15


 475 003e 03D0     		beq	.L35
 160:Source\mbedtls_open\library/pkcs5.c **** 
 476              		.loc 1 160 0
 477 0040 554B     		ldr	r3, .L49
 478 0042 9C46     		mov	ip, r3
 479 0044 6044     		add	r0, r0, ip
 480              	.LVL75:
 481 0046 A4E0     		b	.L34
 482              	.LVL76:
 483              	.L35:
 164:Source\mbedtls_open\library/pkcs5.c ****         return( MBEDTLS_ERR_PKCS5_FEATURE_UNAVAILABLE );
 484              		.loc 1 164 0
 485 0048 399A     		ldr	r2, [sp, #228]
 486 004a 092A     		cmp	r2, #9
 487 004c 07D1     		bne	.L40
 164:Source\mbedtls_open\library/pkcs5.c ****         return( MBEDTLS_ERR_PKCS5_FEATURE_UNAVAILABLE );
 488              		.loc 1 164 0 is_stmt 0 discriminator 2
 489 004e 3A99     		ldr	r1, [sp, #232]
 490 0050 5248     		ldr	r0, .L49+4
 491              	.LVL77:
 492 0052 FFF7FEFF 		bl	memcmp
 493              	.LVL78:
 494 0056 0028     		cmp	r0, #0
 495 0058 02D0     		beq	.L36
 164:Source\mbedtls_open\library/pkcs5.c ****         return( MBEDTLS_ERR_PKCS5_FEATURE_UNAVAILABLE );
 496              		.loc 1 164 0
 497 005a 0120     		movs	r0, #1
 498 005c 00E0     		b	.L36
 499              	.LVL79:
 500              	.L40:
 501 005e 0120     		movs	r0, #1
 502              	.LVL80:
 503              	.L36:
 164:Source\mbedtls_open\library/pkcs5.c ****         return( MBEDTLS_ERR_PKCS5_FEATURE_UNAVAILABLE );
 504              		.loc 1 164 0 discriminator 6
 505 0060 0028     		cmp	r0, #0
 506 0062 00D0     		beq	.LCB538
 507 0064 8AE0     		b	.L41	@long jump
 508              	.LCB538:
 167:Source\mbedtls_open\library/pkcs5.c ****                                            &salt, &iterations, &keylen,
 509              		.loc 1 167 0 is_stmt 1
 510 0066 A723     		movs	r3, #167
 511 0068 02AA     		add	r2, sp, #8
 512 006a 9446     		mov	ip, r2
 513 006c 6344     		add	r3, r3, ip
 514 006e 0093     		str	r3, [sp]
 515 0070 3CAB     		add	r3, sp, #240
 516 0072 3DAA     		add	r2, sp, #244
 517 0074 2CA9     		add	r1, sp, #176
 518 0076 32A8     		add	r0, sp, #200
 519 0078 FFF7FEFF 		bl	pkcs5_parse_pbkdf2_params
 520              	.LVL81:
 521 007c 0028     		cmp	r0, #0
 522 007e 00D0     		beq	.LCB552
 523 0080 87E0     		b	.L34	@long jump
 524              	.LCB552:
 174:Source\mbedtls_open\library/pkcs5.c ****     if( md_info == NULL )
ARM GAS  C:\Users\Phuong\AppData\Local\Temp\ccTnCDdg.s 			page 16


 525              		.loc 1 174 0
 526 0082 A723     		movs	r3, #167
 527 0084 02AA     		add	r2, sp, #8
 528 0086 9446     		mov	ip, r2
 529 0088 6344     		add	r3, r3, ip
 530 008a 1878     		ldrb	r0, [r3]
 531              	.LVL82:
 532 008c FFF7FEFF 		bl	mbedtls_md_info_from_type
 533              	.LVL83:
 534 0090 061E     		subs	r6, r0, #0
 535              	.LVL84:
 175:Source\mbedtls_open\library/pkcs5.c ****         return( MBEDTLS_ERR_PKCS5_FEATURE_UNAVAILABLE );
 536              		.loc 1 175 0
 537 0092 75D0     		beq	.L43
 178:Source\mbedtls_open\library/pkcs5.c ****                               &enc_scheme_params ) ) != 0 )
 538              		.loc 1 178 0
 539 0094 2FAB     		add	r3, sp, #188
 540 0096 35AA     		add	r2, sp, #212
 541 0098 3900     		movs	r1, r7
 542 009a 3BA8     		add	r0, sp, #236
 543              	.LVL85:
 544 009c FFF7FEFF 		bl	mbedtls_asn1_get_alg
 545              	.LVL86:
 546 00a0 0028     		cmp	r0, #0
 547 00a2 03D0     		beq	.L37
 181:Source\mbedtls_open\library/pkcs5.c ****     }
 548              		.loc 1 181 0
 549 00a4 3C4B     		ldr	r3, .L49
 550 00a6 9C46     		mov	ip, r3
 551 00a8 6044     		add	r0, r0, ip
 552              	.LVL87:
 553 00aa 72E0     		b	.L34
 554              	.LVL88:
 555              	.L37:
 184:Source\mbedtls_open\library/pkcs5.c ****         return( MBEDTLS_ERR_PKCS5_FEATURE_UNAVAILABLE );
 556              		.loc 1 184 0
 557 00ac 5321     		movs	r1, #83
 558 00ae 02AB     		add	r3, sp, #8
 559 00b0 9C46     		mov	ip, r3
 560 00b2 6144     		add	r1, r1, ip
 561 00b4 35A8     		add	r0, sp, #212
 562              	.LVL89:
 563 00b6 FFF7FEFF 		bl	mbedtls_oid_get_cipher_alg
 564              	.LVL90:
 565 00ba 0028     		cmp	r0, #0
 566 00bc 62D1     		bne	.L44
 187:Source\mbedtls_open\library/pkcs5.c ****     if( cipher_info == NULL )
 567              		.loc 1 187 0
 568 00be 5323     		movs	r3, #83
 569 00c0 02AA     		add	r2, sp, #8
 570 00c2 9446     		mov	ip, r2
 571 00c4 6344     		add	r3, r3, ip
 572 00c6 1878     		ldrb	r0, [r3]
 573 00c8 FFF7FEFF 		bl	mbedtls_cipher_info_from_type
 574              	.LVL91:
 575 00cc 071E     		subs	r7, r0, #0
 576              	.LVL92:
ARM GAS  C:\Users\Phuong\AppData\Local\Temp\ccTnCDdg.s 			page 17


 188:Source\mbedtls_open\library/pkcs5.c ****         return( MBEDTLS_ERR_PKCS5_FEATURE_UNAVAILABLE );
 577              		.loc 1 188 0
 578 00ce 5BD0     		beq	.L45
 195:Source\mbedtls_open\library/pkcs5.c **** 
 579              		.loc 1 195 0
 580 00d0 4368     		ldr	r3, [r0, #4]
 581 00d2 DB08     		lsrs	r3, r3, #3
 582 00d4 3C93     		str	r3, [sp, #240]
 197:Source\mbedtls_open\library/pkcs5.c ****         enc_scheme_params.len != cipher_info->iv_size )
 583              		.loc 1 197 0
 584 00d6 2F9B     		ldr	r3, [sp, #188]
 585 00d8 042B     		cmp	r3, #4
 586 00da 57D1     		bne	.L46
 197:Source\mbedtls_open\library/pkcs5.c ****         enc_scheme_params.len != cipher_info->iv_size )
 587              		.loc 1 197 0 is_stmt 0 discriminator 1
 588 00dc 309B     		ldr	r3, [sp, #192]
 589 00de C268     		ldr	r2, [r0, #12]
 590 00e0 9342     		cmp	r3, r2
 591 00e2 55D1     		bne	.L47
 203:Source\mbedtls_open\library/pkcs5.c ****     mbedtls_cipher_init( &cipher_ctx );
 592              		.loc 1 203 0 is_stmt 1
 593 00e4 17A8     		add	r0, sp, #92
 594              	.LVL93:
 595 00e6 FFF7FEFF 		bl	mbedtls_md_init
 596              	.LVL94:
 204:Source\mbedtls_open\library/pkcs5.c **** 
 597              		.loc 1 204 0
 598 00ea 06A8     		add	r0, sp, #24
 599 00ec FFF7FEFF 		bl	mbedtls_cipher_init
 600              	.LVL95:
 206:Source\mbedtls_open\library/pkcs5.c **** 
 601              		.loc 1 206 0
 602 00f0 3199     		ldr	r1, [sp, #196]
 603 00f2 309A     		ldr	r2, [sp, #192]
 604 00f4 1BA8     		add	r0, sp, #108
 605 00f6 FFF7FEFF 		bl	memcpy
 606              	.LVL96:
 208:Source\mbedtls_open\library/pkcs5.c ****         goto exit;
 607              		.loc 1 208 0
 608 00fa 0122     		movs	r2, #1
 609 00fc 3100     		movs	r1, r6
 610 00fe 17A8     		add	r0, sp, #92
 611 0100 FFF7FEFF 		bl	mbedtls_md_setup
 612              	.LVL97:
 613 0104 061E     		subs	r6, r0, #0
 614              	.LVL98:
 615 0106 2FD1     		bne	.L38
 211:Source\mbedtls_open\library/pkcs5.c ****                                    iterations, keylen, key ) ) != 0 )
 616              		.loc 1 211 0
 617 0108 2E9B     		ldr	r3, [sp, #184]
 618 010a 2D9A     		ldr	r2, [sp, #180]
 619 010c 0092     		str	r2, [sp]
 620 010e 23AA     		add	r2, sp, #140
 621 0110 0392     		str	r2, [sp, #12]
 622 0112 3C9A     		ldr	r2, [sp, #240]
 623 0114 0292     		str	r2, [sp, #8]
 624 0116 3D9A     		ldr	r2, [sp, #244]
ARM GAS  C:\Users\Phuong\AppData\Local\Temp\ccTnCDdg.s 			page 18


 625 0118 0192     		str	r2, [sp, #4]
 626 011a 2A00     		movs	r2, r5
 627 011c 2100     		movs	r1, r4
 628 011e 17A8     		add	r0, sp, #92
 629              	.LVL99:
 630 0120 FFF7FEFF 		bl	mbedtls_pkcs5_pbkdf2_hmac
 631              	.LVL100:
 632 0124 061E     		subs	r6, r0, #0
 633              	.LVL101:
 634 0126 1FD1     		bne	.L38
 217:Source\mbedtls_open\library/pkcs5.c ****         goto exit;
 635              		.loc 1 217 0
 636 0128 3900     		movs	r1, r7
 637 012a 06A8     		add	r0, sp, #24
 638              	.LVL102:
 639 012c FFF7FEFF 		bl	mbedtls_cipher_setup
 640              	.LVL103:
 641 0130 061E     		subs	r6, r0, #0
 642              	.LVL104:
 643 0132 19D1     		bne	.L38
 220:Source\mbedtls_open\library/pkcs5.c ****         goto exit;
 644              		.loc 1 220 0
 645 0134 3C9B     		ldr	r3, [sp, #240]
 646 0136 DA00     		lsls	r2, r3, #3
 647 0138 6B46     		mov	r3, sp
 648 013a 1B7D     		ldrb	r3, [r3, #20]
 649 013c 5BB2     		sxtb	r3, r3
 650 013e 23A9     		add	r1, sp, #140
 651 0140 06A8     		add	r0, sp, #24
 652              	.LVL105:
 653 0142 FFF7FEFF 		bl	mbedtls_cipher_setkey
 654              	.LVL106:
 655 0146 061E     		subs	r6, r0, #0
 656              	.LVL107:
 657 0148 0ED1     		bne	.L38
 223:Source\mbedtls_open\library/pkcs5.c ****                               data, datalen, output, &olen ) ) != 0 )
 658              		.loc 1 223 0
 659 014a 1AAB     		add	r3, sp, #104
 660 014c 0293     		str	r3, [sp, #8]
 661 014e 469B     		ldr	r3, [sp, #280]
 662 0150 0193     		str	r3, [sp, #4]
 663 0152 459B     		ldr	r3, [sp, #276]
 664 0154 0093     		str	r3, [sp]
 665 0156 449B     		ldr	r3, [sp, #272]
 666 0158 309A     		ldr	r2, [sp, #192]
 667 015a 1BA9     		add	r1, sp, #108
 668 015c 06A8     		add	r0, sp, #24
 669              	.LVL108:
 670 015e FFF7FEFF 		bl	mbedtls_cipher_crypt
 671              	.LVL109:
 672 0162 061E     		subs	r6, r0, #0
 673              	.LVL110:
 674 0164 00D0     		beq	.L38
 225:Source\mbedtls_open\library/pkcs5.c **** 
 675              		.loc 1 225 0
 676 0166 0E4E     		ldr	r6, .L49+8
 677              	.L38:
ARM GAS  C:\Users\Phuong\AppData\Local\Temp\ccTnCDdg.s 			page 19


 678              	.LVL111:
 228:Source\mbedtls_open\library/pkcs5.c ****     mbedtls_cipher_free( &cipher_ctx );
 679              		.loc 1 228 0
 680 0168 17A8     		add	r0, sp, #92
 681 016a FFF7FEFF 		bl	mbedtls_md_free
 682              	.LVL112:
 229:Source\mbedtls_open\library/pkcs5.c **** 
 683              		.loc 1 229 0
 684 016e 06A8     		add	r0, sp, #24
 685 0170 FFF7FEFF 		bl	mbedtls_cipher_free
 686              	.LVL113:
 231:Source\mbedtls_open\library/pkcs5.c **** }
 687              		.loc 1 231 0
 688 0174 3000     		movs	r0, r6
 689 0176 0CE0     		b	.L34
 690              	.LVL114:
 691              	.L39:
 156:Source\mbedtls_open\library/pkcs5.c ****                 MBEDTLS_ERR_ASN1_UNEXPECTED_TAG );
 692              		.loc 1 156 0
 693 0178 0A48     		ldr	r0, .L49+12
 694              	.LVL115:
 695 017a 0AE0     		b	.L34
 696              	.L41:
 165:Source\mbedtls_open\library/pkcs5.c **** 
 697              		.loc 1 165 0
 698 017c 0A48     		ldr	r0, .L49+16
 699 017e 08E0     		b	.L34
 700              	.LVL116:
 701              	.L43:
 176:Source\mbedtls_open\library/pkcs5.c **** 
 702              		.loc 1 176 0
 703 0180 0948     		ldr	r0, .L49+16
 704              	.LVL117:
 705 0182 06E0     		b	.L34
 706              	.L44:
 185:Source\mbedtls_open\library/pkcs5.c **** 
 707              		.loc 1 185 0
 708 0184 0848     		ldr	r0, .L49+16
 709 0186 04E0     		b	.L34
 710              	.LVL118:
 711              	.L45:
 189:Source\mbedtls_open\library/pkcs5.c **** 
 712              		.loc 1 189 0
 713 0188 0748     		ldr	r0, .L49+16
 714              	.LVL119:
 715 018a 02E0     		b	.L34
 716              	.LVL120:
 717              	.L46:
 200:Source\mbedtls_open\library/pkcs5.c ****     }
 718              		.loc 1 200 0
 719 018c 0248     		ldr	r0, .L49
 720              	.LVL121:
 721 018e 00E0     		b	.L34
 722              	.LVL122:
 723              	.L47:
 724 0190 0148     		ldr	r0, .L49
 725              	.LVL123:
ARM GAS  C:\Users\Phuong\AppData\Local\Temp\ccTnCDdg.s 			page 20


 726              	.L34:
 232:Source\mbedtls_open\library/pkcs5.c **** #endif /* MBEDTLS_ASN1_PARSE_C */
 727              		.loc 1 232 0
 728 0192 3FB0     		add	sp, sp, #252
 729              		@ sp needed
 730              	.LVL124:
 731              	.LVL125:
 732 0194 F0BD     		pop	{r4, r5, r6, r7, pc}
 733              	.L50:
 734 0196 C046     		.align	2
 735              	.L49:
 736 0198 00D1FFFF 		.word	-12032
 737 019c 00000000 		.word	.LC0
 738 01a0 00D2FFFF 		.word	-11776
 739 01a4 9ED0FFFF 		.word	-12130
 740 01a8 80D1FFFF 		.word	-11904
 741              		.cfi_endproc
 742              	.LFE12:
 743              		.size	mbedtls_pkcs5_pbes2, .-mbedtls_pkcs5_pbes2
 744              		.section	.text.mbedtls_pkcs5_self_test,"ax",%progbits
 745              		.align	2
 746              		.global	mbedtls_pkcs5_self_test
 747              		.code	16
 748              		.thumb_func
 749              		.type	mbedtls_pkcs5_self_test, %function
 750              	mbedtls_pkcs5_self_test:
 751              	.LFB14:
 307:Source\mbedtls_open\library/pkcs5.c **** 
 308:Source\mbedtls_open\library/pkcs5.c **** #if defined(MBEDTLS_SELF_TEST)
 309:Source\mbedtls_open\library/pkcs5.c **** 
 310:Source\mbedtls_open\library/pkcs5.c **** #if !defined(MBEDTLS_SHA1_C)
 311:Source\mbedtls_open\library/pkcs5.c **** int mbedtls_pkcs5_self_test( int verbose )
 312:Source\mbedtls_open\library/pkcs5.c **** {
 313:Source\mbedtls_open\library/pkcs5.c ****     if( verbose != 0 )
 314:Source\mbedtls_open\library/pkcs5.c ****         mbedtls_printf( "  PBKDF2 (SHA1): skipped\n\n" );
 315:Source\mbedtls_open\library/pkcs5.c **** 
 316:Source\mbedtls_open\library/pkcs5.c ****     return( 0 );
 317:Source\mbedtls_open\library/pkcs5.c **** }
 318:Source\mbedtls_open\library/pkcs5.c **** #else
 319:Source\mbedtls_open\library/pkcs5.c **** 
 320:Source\mbedtls_open\library/pkcs5.c **** #define MAX_TESTS   6
 321:Source\mbedtls_open\library/pkcs5.c **** 
 322:Source\mbedtls_open\library/pkcs5.c **** static const size_t plen[MAX_TESTS] =
 323:Source\mbedtls_open\library/pkcs5.c ****     { 8, 8, 8, 24, 9 };
 324:Source\mbedtls_open\library/pkcs5.c **** 
 325:Source\mbedtls_open\library/pkcs5.c **** static const unsigned char password[MAX_TESTS][32] =
 326:Source\mbedtls_open\library/pkcs5.c **** {
 327:Source\mbedtls_open\library/pkcs5.c ****     "password",
 328:Source\mbedtls_open\library/pkcs5.c ****     "password",
 329:Source\mbedtls_open\library/pkcs5.c ****     "password",
 330:Source\mbedtls_open\library/pkcs5.c ****     "passwordPASSWORDpassword",
 331:Source\mbedtls_open\library/pkcs5.c ****     "pass\0word",
 332:Source\mbedtls_open\library/pkcs5.c **** };
 333:Source\mbedtls_open\library/pkcs5.c **** 
 334:Source\mbedtls_open\library/pkcs5.c **** static const size_t slen[MAX_TESTS] =
 335:Source\mbedtls_open\library/pkcs5.c ****     { 4, 4, 4, 36, 5 };
 336:Source\mbedtls_open\library/pkcs5.c **** 
ARM GAS  C:\Users\Phuong\AppData\Local\Temp\ccTnCDdg.s 			page 21


 337:Source\mbedtls_open\library/pkcs5.c **** static const unsigned char salt[MAX_TESTS][40] =
 338:Source\mbedtls_open\library/pkcs5.c **** {
 339:Source\mbedtls_open\library/pkcs5.c ****     "salt",
 340:Source\mbedtls_open\library/pkcs5.c ****     "salt",
 341:Source\mbedtls_open\library/pkcs5.c ****     "salt",
 342:Source\mbedtls_open\library/pkcs5.c ****     "saltSALTsaltSALTsaltSALTsaltSALTsalt",
 343:Source\mbedtls_open\library/pkcs5.c ****     "sa\0lt",
 344:Source\mbedtls_open\library/pkcs5.c **** };
 345:Source\mbedtls_open\library/pkcs5.c **** 
 346:Source\mbedtls_open\library/pkcs5.c **** static const uint32_t it_cnt[MAX_TESTS] =
 347:Source\mbedtls_open\library/pkcs5.c ****     { 1, 2, 4096, 4096, 4096 };
 348:Source\mbedtls_open\library/pkcs5.c **** 
 349:Source\mbedtls_open\library/pkcs5.c **** static const uint32_t key_len[MAX_TESTS] =
 350:Source\mbedtls_open\library/pkcs5.c ****     { 20, 20, 20, 25, 16 };
 351:Source\mbedtls_open\library/pkcs5.c **** 
 352:Source\mbedtls_open\library/pkcs5.c **** static const unsigned char result_key[MAX_TESTS][32] =
 353:Source\mbedtls_open\library/pkcs5.c **** {
 354:Source\mbedtls_open\library/pkcs5.c ****     { 0x0c, 0x60, 0xc8, 0x0f, 0x96, 0x1f, 0x0e, 0x71,
 355:Source\mbedtls_open\library/pkcs5.c ****       0xf3, 0xa9, 0xb5, 0x24, 0xaf, 0x60, 0x12, 0x06,
 356:Source\mbedtls_open\library/pkcs5.c ****       0x2f, 0xe0, 0x37, 0xa6 },
 357:Source\mbedtls_open\library/pkcs5.c ****     { 0xea, 0x6c, 0x01, 0x4d, 0xc7, 0x2d, 0x6f, 0x8c,
 358:Source\mbedtls_open\library/pkcs5.c ****       0xcd, 0x1e, 0xd9, 0x2a, 0xce, 0x1d, 0x41, 0xf0,
 359:Source\mbedtls_open\library/pkcs5.c ****       0xd8, 0xde, 0x89, 0x57 },
 360:Source\mbedtls_open\library/pkcs5.c ****     { 0x4b, 0x00, 0x79, 0x01, 0xb7, 0x65, 0x48, 0x9a,
 361:Source\mbedtls_open\library/pkcs5.c ****       0xbe, 0xad, 0x49, 0xd9, 0x26, 0xf7, 0x21, 0xd0,
 362:Source\mbedtls_open\library/pkcs5.c ****       0x65, 0xa4, 0x29, 0xc1 },
 363:Source\mbedtls_open\library/pkcs5.c ****     { 0x3d, 0x2e, 0xec, 0x4f, 0xe4, 0x1c, 0x84, 0x9b,
 364:Source\mbedtls_open\library/pkcs5.c ****       0x80, 0xc8, 0xd8, 0x36, 0x62, 0xc0, 0xe4, 0x4a,
 365:Source\mbedtls_open\library/pkcs5.c ****       0x8b, 0x29, 0x1a, 0x96, 0x4c, 0xf2, 0xf0, 0x70,
 366:Source\mbedtls_open\library/pkcs5.c ****       0x38 },
 367:Source\mbedtls_open\library/pkcs5.c ****     { 0x56, 0xfa, 0x6a, 0xa7, 0x55, 0x48, 0x09, 0x9d,
 368:Source\mbedtls_open\library/pkcs5.c ****       0xcc, 0x37, 0xd7, 0xf0, 0x34, 0x25, 0xe0, 0xc3 },
 369:Source\mbedtls_open\library/pkcs5.c **** };
 370:Source\mbedtls_open\library/pkcs5.c **** 
 371:Source\mbedtls_open\library/pkcs5.c **** int mbedtls_pkcs5_self_test( int verbose )
 372:Source\mbedtls_open\library/pkcs5.c **** {
 752              		.loc 1 372 0
 753              		.cfi_startproc
 754              		@ args = 0, pretend = 0, frame = 80
 755              		@ frame_needed = 0, uses_anonymous_args = 0
 756              	.LVL126:
 757 0000 F0B5     		push	{r4, r5, r6, r7, lr}
 758              		.cfi_def_cfa_offset 20
 759              		.cfi_offset 4, -20
 760              		.cfi_offset 5, -16
 761              		.cfi_offset 6, -12
 762              		.cfi_offset 7, -8
 763              		.cfi_offset 14, -4
 764 0002 99B0     		sub	sp, sp, #100
 765              		.cfi_def_cfa_offset 120
 766 0004 0500     		movs	r5, r0
 373:Source\mbedtls_open\library/pkcs5.c ****     mbedtls_md_context_t sha1_ctx;
 374:Source\mbedtls_open\library/pkcs5.c ****     const mbedtls_md_info_t *info_sha1;
 375:Source\mbedtls_open\library/pkcs5.c ****     int ret, i;
 376:Source\mbedtls_open\library/pkcs5.c ****     unsigned char key[64];
 377:Source\mbedtls_open\library/pkcs5.c **** 
 378:Source\mbedtls_open\library/pkcs5.c ****     mbedtls_md_init( &sha1_ctx );
ARM GAS  C:\Users\Phuong\AppData\Local\Temp\ccTnCDdg.s 			page 22


 767              		.loc 1 378 0
 768 0006 15A8     		add	r0, sp, #84
 769              	.LVL127:
 770 0008 FFF7FEFF 		bl	mbedtls_md_init
 771              	.LVL128:
 379:Source\mbedtls_open\library/pkcs5.c **** 
 380:Source\mbedtls_open\library/pkcs5.c ****     info_sha1 = mbedtls_md_info_from_type( MBEDTLS_MD_SHA1 );
 772              		.loc 1 380 0
 773 000c 0420     		movs	r0, #4
 774 000e FFF7FEFF 		bl	mbedtls_md_info_from_type
 775              	.LVL129:
 381:Source\mbedtls_open\library/pkcs5.c ****     if( info_sha1 == NULL )
 776              		.loc 1 381 0
 777 0012 0028     		cmp	r0, #0
 778 0014 48D0     		beq	.L59
 382:Source\mbedtls_open\library/pkcs5.c ****     {
 383:Source\mbedtls_open\library/pkcs5.c ****         ret = 1;
 384:Source\mbedtls_open\library/pkcs5.c ****         goto exit;
 385:Source\mbedtls_open\library/pkcs5.c ****     }
 386:Source\mbedtls_open\library/pkcs5.c **** 
 387:Source\mbedtls_open\library/pkcs5.c ****     if( ( ret = mbedtls_md_setup( &sha1_ctx, info_sha1, 1 ) ) != 0 )
 779              		.loc 1 387 0
 780 0016 0122     		movs	r2, #1
 781 0018 0100     		movs	r1, r0
 782 001a 15A8     		add	r0, sp, #84
 783              	.LVL130:
 784 001c FFF7FEFF 		bl	mbedtls_md_setup
 785              	.LVL131:
 786 0020 071E     		subs	r7, r0, #0
 787              	.LVL132:
 788 0022 43D1     		bne	.L60
 789 0024 0024     		movs	r4, #0
 790 0026 37E0     		b	.L53
 791              	.LVL133:
 792              	.L58:
 388:Source\mbedtls_open\library/pkcs5.c ****     {
 389:Source\mbedtls_open\library/pkcs5.c ****         ret = 1;
 390:Source\mbedtls_open\library/pkcs5.c ****         goto exit;
 391:Source\mbedtls_open\library/pkcs5.c ****     }
 392:Source\mbedtls_open\library/pkcs5.c **** 
 393:Source\mbedtls_open\library/pkcs5.c ****     for( i = 0; i < MAX_TESTS; i++ )
 394:Source\mbedtls_open\library/pkcs5.c ****     {
 395:Source\mbedtls_open\library/pkcs5.c ****         if( verbose != 0 )
 793              		.loc 1 395 0
 794 0028 002D     		cmp	r5, #0
 795 002a 03D0     		beq	.L54
 396:Source\mbedtls_open\library/pkcs5.c ****             mbedtls_printf( "  PBKDF2 (SHA1) #%d: ", i );
 796              		.loc 1 396 0
 797 002c 2100     		movs	r1, r4
 798 002e 2448     		ldr	r0, .L62
 799 0030 FFF7FEFF 		bl	printf
 800              	.LVL134:
 801              	.L54:
 397:Source\mbedtls_open\library/pkcs5.c **** 
 398:Source\mbedtls_open\library/pkcs5.c ****         ret = mbedtls_pkcs5_pbkdf2_hmac( &sha1_ctx, password[i], plen[i], salt[i],
 802              		.loc 1 398 0
 803 0034 6301     		lsls	r3, r4, #5
ARM GAS  C:\Users\Phuong\AppData\Local\Temp\ccTnCDdg.s 			page 23


 804 0036 2349     		ldr	r1, .L62+4
 805 0038 C918     		adds	r1, r1, r3
 806 003a 234B     		ldr	r3, .L62+8
 807 003c A000     		lsls	r0, r4, #2
 808 003e 1A18     		adds	r2, r3, r0
 809 0040 126C     		ldr	r2, [r2, #64]
 810 0042 5833     		adds	r3, r3, #88
 811 0044 1E00     		movs	r6, r3
 812 0046 0719     		adds	r7, r0, r4
 813              	.LVL135:
 814 0048 FB00     		lsls	r3, r7, #3
 815 004a F318     		adds	r3, r6, r3
 816 004c 1F4E     		ldr	r6, .L62+12
 817 004e 3018     		adds	r0, r6, r0
 818 0050 866C     		ldr	r6, [r0, #72]
 819 0052 0096     		str	r6, [sp]
 399:Source\mbedtls_open\library/pkcs5.c ****                                   slen[i], it_cnt[i], key_len[i], key );
 820              		.loc 1 399 0
 821 0054 066E     		ldr	r6, [r0, #96]
 822 0056 0196     		str	r6, [sp, #4]
 398:Source\mbedtls_open\library/pkcs5.c ****                                   slen[i], it_cnt[i], key_len[i], key );
 823              		.loc 1 398 0
 824 0058 866F     		ldr	r6, [r0, #120]
 825 005a 05A8     		add	r0, sp, #20
 826 005c 0390     		str	r0, [sp, #12]
 827 005e 0296     		str	r6, [sp, #8]
 828 0060 15A8     		add	r0, sp, #84
 829 0062 FFF7FEFF 		bl	mbedtls_pkcs5_pbkdf2_hmac
 830              	.LVL136:
 831 0066 071E     		subs	r7, r0, #0
 832              	.LVL137:
 400:Source\mbedtls_open\library/pkcs5.c ****         if( ret != 0 ||
 833              		.loc 1 400 0
 834 0068 09D1     		bne	.L55
 401:Source\mbedtls_open\library/pkcs5.c ****             memcmp( result_key[i], key, key_len[i] ) != 0 )
 835              		.loc 1 401 0 discriminator 1
 836 006a 6301     		lsls	r3, r4, #5
 837 006c 1848     		ldr	r0, .L62+16
 838              	.LVL138:
 839 006e 1030     		adds	r0, r0, #16
 840 0070 C018     		adds	r0, r0, r3
 841 0072 3200     		movs	r2, r6
 842 0074 05A9     		add	r1, sp, #20
 843 0076 FFF7FEFF 		bl	memcmp
 844              	.LVL139:
 400:Source\mbedtls_open\library/pkcs5.c ****         if( ret != 0 ||
 845              		.loc 1 400 0 discriminator 1
 846 007a 0028     		cmp	r0, #0
 847 007c 06D0     		beq	.L56
 848              	.L55:
 402:Source\mbedtls_open\library/pkcs5.c ****         {
 403:Source\mbedtls_open\library/pkcs5.c ****             if( verbose != 0 )
 849              		.loc 1 403 0
 850 007e 002D     		cmp	r5, #0
 851 0080 16D0     		beq	.L61
 404:Source\mbedtls_open\library/pkcs5.c ****                 mbedtls_printf( "failed\n" );
 852              		.loc 1 404 0
ARM GAS  C:\Users\Phuong\AppData\Local\Temp\ccTnCDdg.s 			page 24


 853 0082 1448     		ldr	r0, .L62+20
 854 0084 FFF7FEFF 		bl	puts
 855              	.LVL140:
 405:Source\mbedtls_open\library/pkcs5.c **** 
 406:Source\mbedtls_open\library/pkcs5.c ****             ret = 1;
 856              		.loc 1 406 0
 857 0088 0127     		movs	r7, #1
 858              	.LVL141:
 859 008a 12E0     		b	.L52
 860              	.LVL142:
 861              	.L56:
 407:Source\mbedtls_open\library/pkcs5.c ****             goto exit;
 408:Source\mbedtls_open\library/pkcs5.c ****         }
 409:Source\mbedtls_open\library/pkcs5.c **** 
 410:Source\mbedtls_open\library/pkcs5.c ****         if( verbose != 0 )
 862              		.loc 1 410 0
 863 008c 002D     		cmp	r5, #0
 864 008e 02D0     		beq	.L57
 411:Source\mbedtls_open\library/pkcs5.c ****             mbedtls_printf( "passed\n" );
 865              		.loc 1 411 0
 866 0090 1148     		ldr	r0, .L62+24
 867 0092 FFF7FEFF 		bl	puts
 868              	.LVL143:
 869              	.L57:
 393:Source\mbedtls_open\library/pkcs5.c ****     {
 870              		.loc 1 393 0 discriminator 2
 871 0096 0134     		adds	r4, r4, #1
 872              	.LVL144:
 873              	.L53:
 393:Source\mbedtls_open\library/pkcs5.c ****     {
 874              		.loc 1 393 0 is_stmt 0 discriminator 1
 875 0098 052C     		cmp	r4, #5
 876 009a C5DD     		ble	.L58
 412:Source\mbedtls_open\library/pkcs5.c ****     }
 413:Source\mbedtls_open\library/pkcs5.c **** 
 414:Source\mbedtls_open\library/pkcs5.c ****     if( verbose != 0 )
 877              		.loc 1 414 0 is_stmt 1
 878 009c 002D     		cmp	r5, #0
 879 009e 08D0     		beq	.L52
 415:Source\mbedtls_open\library/pkcs5.c ****         mbedtls_printf( "\n" );
 880              		.loc 1 415 0
 881 00a0 0A20     		movs	r0, #10
 882 00a2 FFF7FEFF 		bl	putchar
 883              	.LVL145:
 884 00a6 04E0     		b	.L52
 885              	.LVL146:
 886              	.L59:
 383:Source\mbedtls_open\library/pkcs5.c ****         goto exit;
 887              		.loc 1 383 0
 888 00a8 0127     		movs	r7, #1
 889 00aa 02E0     		b	.L52
 890              	.LVL147:
 891              	.L60:
 389:Source\mbedtls_open\library/pkcs5.c ****         goto exit;
 892              		.loc 1 389 0
 893 00ac 0127     		movs	r7, #1
 894 00ae 00E0     		b	.L52
ARM GAS  C:\Users\Phuong\AppData\Local\Temp\ccTnCDdg.s 			page 25


 895              	.LVL148:
 896              	.L61:
 406:Source\mbedtls_open\library/pkcs5.c ****             goto exit;
 897              		.loc 1 406 0
 898 00b0 0127     		movs	r7, #1
 899              	.LVL149:
 900              	.L52:
 416:Source\mbedtls_open\library/pkcs5.c **** 
 417:Source\mbedtls_open\library/pkcs5.c **** exit:
 418:Source\mbedtls_open\library/pkcs5.c ****     mbedtls_md_free( &sha1_ctx );
 901              		.loc 1 418 0
 902 00b2 15A8     		add	r0, sp, #84
 903 00b4 FFF7FEFF 		bl	mbedtls_md_free
 904              	.LVL150:
 419:Source\mbedtls_open\library/pkcs5.c **** 
 420:Source\mbedtls_open\library/pkcs5.c ****     return( ret );
 421:Source\mbedtls_open\library/pkcs5.c **** }
 905              		.loc 1 421 0
 906 00b8 3800     		movs	r0, r7
 907 00ba 19B0     		add	sp, sp, #100
 908              		@ sp needed
 909              	.LVL151:
 910              	.LVL152:
 911 00bc F0BD     		pop	{r4, r5, r6, r7, pc}
 912              	.L63:
 913 00be C046     		.align	2
 914              	.L62:
 915 00c0 0C000000 		.word	.LC2
 916 00c4 00000000 		.word	.LANCHOR0
 917 00c8 80000000 		.word	.LANCHOR1
 918 00cc 80010000 		.word	.LANCHOR2
 919 00d0 00020000 		.word	.LANCHOR3
 920 00d4 24000000 		.word	.LC8
 921 00d8 2C000000 		.word	.LC10
 922              		.cfi_endproc
 923              	.LFE14:
 924              		.size	mbedtls_pkcs5_self_test, .-mbedtls_pkcs5_self_test
 925              		.section	.rodata
 926              		.align	2
 927              		.set	.LANCHOR0,. + 0
 928              		.set	.LANCHOR1,. + 128
 929              		.set	.LANCHOR2,. + 384
 930              		.set	.LANCHOR3,. + 512
 931              		.type	password, %object
 932              		.size	password, 192
 933              	password:
 934 0000 70617373 		.ascii	"password\000"
 934      776F7264 
 934      00
 935 0009 00000000 		.space	23
 935      00000000 
 935      00000000 
 935      00000000 
 935      00000000 
 936 0020 70617373 		.ascii	"password\000"
 936      776F7264 
 936      00
ARM GAS  C:\Users\Phuong\AppData\Local\Temp\ccTnCDdg.s 			page 26


 937 0029 00000000 		.space	23
 937      00000000 
 937      00000000 
 937      00000000 
 937      00000000 
 938 0040 70617373 		.ascii	"password\000"
 938      776F7264 
 938      00
 939 0049 00000000 		.space	23
 939      00000000 
 939      00000000 
 939      00000000 
 939      00000000 
 940 0060 70617373 		.ascii	"passwordPASSWORDpassword\000"
 940      776F7264 
 940      50415353 
 940      574F5244 
 940      70617373 
 941 0079 00000000 		.space	7
 941      000000
 942 0080 70617373 		.ascii	"pass\000word\000"
 942      00776F72 
 942      6400
 943 008a 00000000 		.space	22
 943      00000000 
 943      00000000 
 943      00000000 
 943      00000000 
 944 00a0 00000000 		.space	32
 944      00000000 
 944      00000000 
 944      00000000 
 944      00000000 
 945              		.type	plen, %object
 946              		.size	plen, 24
 947              	plen:
 948 00c0 08000000 		.word	8
 949 00c4 08000000 		.word	8
 950 00c8 08000000 		.word	8
 951 00cc 18000000 		.word	24
 952 00d0 09000000 		.word	9
 953 00d4 00000000 		.space	4
 954              		.type	salt, %object
 955              		.size	salt, 240
 956              	salt:
 957 00d8 73616C74 		.ascii	"salt\000"
 957      00
 958 00dd 00000000 		.space	35
 958      00000000 
 958      00000000 
 958      00000000 
 958      00000000 
 959 0100 73616C74 		.ascii	"salt\000"
 959      00
 960 0105 00000000 		.space	35
 960      00000000 
 960      00000000 
ARM GAS  C:\Users\Phuong\AppData\Local\Temp\ccTnCDdg.s 			page 27


 960      00000000 
 960      00000000 
 961 0128 73616C74 		.ascii	"salt\000"
 961      00
 962 012d 00000000 		.space	35
 962      00000000 
 962      00000000 
 962      00000000 
 962      00000000 
 963 0150 73616C74 		.ascii	"saltSALTsaltSALTsaltSALTsaltSALTsalt\000"
 963      53414C54 
 963      73616C74 
 963      53414C54 
 963      73616C74 
 964 0175 000000   		.space	3
 965 0178 7361006C 		.ascii	"sa\000lt\000"
 965      7400
 966 017e 00000000 		.space	34
 966      00000000 
 966      00000000 
 966      00000000 
 966      00000000 
 967 01a0 00000000 		.space	40
 967      00000000 
 967      00000000 
 967      00000000 
 967      00000000 
 968              		.type	slen, %object
 969              		.size	slen, 24
 970              	slen:
 971 01c8 04000000 		.word	4
 972 01cc 04000000 		.word	4
 973 01d0 04000000 		.word	4
 974 01d4 24000000 		.word	36
 975 01d8 05000000 		.word	5
 976 01dc 00000000 		.space	4
 977              		.type	it_cnt, %object
 978              		.size	it_cnt, 24
 979              	it_cnt:
 980 01e0 01000000 		.word	1
 981 01e4 02000000 		.word	2
 982 01e8 00100000 		.word	4096
 983 01ec 00100000 		.word	4096
 984 01f0 00100000 		.word	4096
 985 01f4 00000000 		.space	4
 986              		.type	key_len, %object
 987              		.size	key_len, 24
 988              	key_len:
 989 01f8 14000000 		.word	20
 990 01fc 14000000 		.word	20
 991 0200 14000000 		.word	20
 992 0204 19000000 		.word	25
 993 0208 10000000 		.word	16
 994 020c 00000000 		.space	4
 995              		.type	result_key, %object
 996              		.size	result_key, 192
 997              	result_key:
ARM GAS  C:\Users\Phuong\AppData\Local\Temp\ccTnCDdg.s 			page 28


 998 0210 0C       		.byte	12
 999 0211 60       		.byte	96
 1000 0212 C8       		.byte	-56
 1001 0213 0F       		.byte	15
 1002 0214 96       		.byte	-106
 1003 0215 1F       		.byte	31
 1004 0216 0E       		.byte	14
 1005 0217 71       		.byte	113
 1006 0218 F3       		.byte	-13
 1007 0219 A9       		.byte	-87
 1008 021a B5       		.byte	-75
 1009 021b 24       		.byte	36
 1010 021c AF       		.byte	-81
 1011 021d 60       		.byte	96
 1012 021e 12       		.byte	18
 1013 021f 06       		.byte	6
 1014 0220 2F       		.byte	47
 1015 0221 E0       		.byte	-32
 1016 0222 37       		.byte	55
 1017 0223 A6       		.byte	-90
 1018 0224 00000000 		.space	12
 1018      00000000 
 1018      00000000 
 1019 0230 EA       		.byte	-22
 1020 0231 6C       		.byte	108
 1021 0232 01       		.byte	1
 1022 0233 4D       		.byte	77
 1023 0234 C7       		.byte	-57
 1024 0235 2D       		.byte	45
 1025 0236 6F       		.byte	111
 1026 0237 8C       		.byte	-116
 1027 0238 CD       		.byte	-51
 1028 0239 1E       		.byte	30
 1029 023a D9       		.byte	-39
 1030 023b 2A       		.byte	42
 1031 023c CE       		.byte	-50
 1032 023d 1D       		.byte	29
 1033 023e 41       		.byte	65
 1034 023f F0       		.byte	-16
 1035 0240 D8       		.byte	-40
 1036 0241 DE       		.byte	-34
 1037 0242 89       		.byte	-119
 1038 0243 57       		.byte	87
 1039 0244 00000000 		.space	12
 1039      00000000 
 1039      00000000 
 1040 0250 4B       		.byte	75
 1041 0251 00       		.byte	0
 1042 0252 79       		.byte	121
 1043 0253 01       		.byte	1
 1044 0254 B7       		.byte	-73
 1045 0255 65       		.byte	101
 1046 0256 48       		.byte	72
 1047 0257 9A       		.byte	-102
 1048 0258 BE       		.byte	-66
 1049 0259 AD       		.byte	-83
 1050 025a 49       		.byte	73
ARM GAS  C:\Users\Phuong\AppData\Local\Temp\ccTnCDdg.s 			page 29


 1051 025b D9       		.byte	-39
 1052 025c 26       		.byte	38
 1053 025d F7       		.byte	-9
 1054 025e 21       		.byte	33
 1055 025f D0       		.byte	-48
 1056 0260 65       		.byte	101
 1057 0261 A4       		.byte	-92
 1058 0262 29       		.byte	41
 1059 0263 C1       		.byte	-63
 1060 0264 00000000 		.space	12
 1060      00000000 
 1060      00000000 
 1061 0270 3D       		.byte	61
 1062 0271 2E       		.byte	46
 1063 0272 EC       		.byte	-20
 1064 0273 4F       		.byte	79
 1065 0274 E4       		.byte	-28
 1066 0275 1C       		.byte	28
 1067 0276 84       		.byte	-124
 1068 0277 9B       		.byte	-101
 1069 0278 80       		.byte	-128
 1070 0279 C8       		.byte	-56
 1071 027a D8       		.byte	-40
 1072 027b 36       		.byte	54
 1073 027c 62       		.byte	98
 1074 027d C0       		.byte	-64
 1075 027e E4       		.byte	-28
 1076 027f 4A       		.byte	74
 1077 0280 8B       		.byte	-117
 1078 0281 29       		.byte	41
 1079 0282 1A       		.byte	26
 1080 0283 96       		.byte	-106
 1081 0284 4C       		.byte	76
 1082 0285 F2       		.byte	-14
 1083 0286 F0       		.byte	-16
 1084 0287 70       		.byte	112
 1085 0288 38       		.byte	56
 1086 0289 00000000 		.space	7
 1086      000000
 1087 0290 56       		.byte	86
 1088 0291 FA       		.byte	-6
 1089 0292 6A       		.byte	106
 1090 0293 A7       		.byte	-89
 1091 0294 55       		.byte	85
 1092 0295 48       		.byte	72
 1093 0296 09       		.byte	9
 1094 0297 9D       		.byte	-99
 1095 0298 CC       		.byte	-52
 1096 0299 37       		.byte	55
 1097 029a D7       		.byte	-41
 1098 029b F0       		.byte	-16
 1099 029c 34       		.byte	52
 1100 029d 25       		.byte	37
 1101 029e E0       		.byte	-32
 1102 029f C3       		.byte	-61
 1103 02a0 00000000 		.space	16
 1103      00000000 
ARM GAS  C:\Users\Phuong\AppData\Local\Temp\ccTnCDdg.s 			page 30


 1103      00000000 
 1103      00000000 
 1104 02b0 00000000 		.space	32
 1104      00000000 
 1104      00000000 
 1104      00000000 
 1104      00000000 
 1105              		.section	.rodata.str1.4,"aMS",%progbits,1
 1106              		.align	2
 1107              	.LC0:
 1108 0000 2A864886 		.ascii	"*\206H\206\367\015\001\005\014\000"
 1108      F70D0105 
 1108      0C00
 1109 000a 0000     		.space	2
 1110              	.LC2:
 1111 000c 20205042 		.ascii	"  PBKDF2 (SHA1) #%d: \000"
 1111      4B444632 
 1111      20285348 
 1111      41312920 
 1111      2325643A 
 1112 0022 0000     		.space	2
 1113              	.LC8:
 1114 0024 6661696C 		.ascii	"failed\000"
 1114      656400
 1115 002b 00       		.space	1
 1116              	.LC10:
 1117 002c 70617373 		.ascii	"passed\000"
 1117      656400
 1118              		.text
 1119              	.Letext0:
 1120              		.file 2 "c:\\program files (x86)\\cypress\\psoc creator\\4.2\\psoc creator\\import\\gnu\\arm\\5.4.
 1121              		.file 3 "c:\\program files (x86)\\cypress\\psoc creator\\4.2\\psoc creator\\import\\gnu\\arm\\5.4.
 1122              		.file 4 "c:\\program files (x86)\\cypress\\psoc creator\\4.2\\psoc creator\\import\\gnu\\arm\\5.4.
 1123              		.file 5 ".\\Source\\mbedtls_open\\include/mbedtls/asn1.h"
 1124              		.file 6 ".\\Source\\mbedtls_open\\include/mbedtls/md.h"
 1125              		.file 7 ".\\Source\\mbedtls_open\\include/mbedtls/cipher.h"
 1126              		.file 8 ".\\Source\\mbedtls_open\\include/mbedtls/oid.h"
 1127              		.file 9 "c:\\program files (x86)\\cypress\\psoc creator\\4.2\\psoc creator\\import\\gnu\\arm\\5.4.
 1128              		.file 10 "c:\\program files (x86)\\cypress\\psoc creator\\4.2\\psoc creator\\import\\gnu\\arm\\5.4
 1129              		.file 11 "<built-in>"