ARM GAS  C:\Users\Phuong\AppData\Local\Temp\ccG6FMOL.s 			page 1


   1              		.syntax unified
   2              		.cpu cortex-m0plus
   3              		.fpu softvfp
   4              		.eabi_attribute 20, 1
   5              		.eabi_attribute 21, 1
   6              		.eabi_attribute 23, 3
   7              		.eabi_attribute 24, 1
   8              		.eabi_attribute 25, 1
   9              		.eabi_attribute 26, 1
  10              		.eabi_attribute 30, 1
  11              		.eabi_attribute 34, 0
  12              		.eabi_attribute 18, 4
  13              		.thumb
  14              		.syntax unified
  15              		.file	"pkparse.c"
  16              		.text
  17              	.Ltext0:
  18              		.cfi_sections	.debug_frame
  19              		.section	.text.pk_get_ecparams,"ax",%progbits
  20              		.align	2
  21              		.code	16
  22              		.thumb_func
  23              		.type	pk_get_ecparams, %function
  24              	pk_get_ecparams:
  25              	.LFB11:
  26              		.file 1 "Source\\mbedtls_open\\library\\pkparse.c"
   1:Source\mbedtls_open\library/pkparse.c **** /*
   2:Source\mbedtls_open\library/pkparse.c ****  *  Public Key layer for parsing key files and structures
   3:Source\mbedtls_open\library/pkparse.c ****  *
   4:Source\mbedtls_open\library/pkparse.c ****  *  Copyright (C) 2006-2015, ARM Limited, All Rights Reserved
   5:Source\mbedtls_open\library/pkparse.c ****  *  SPDX-License-Identifier: Apache-2.0
   6:Source\mbedtls_open\library/pkparse.c ****  *
   7:Source\mbedtls_open\library/pkparse.c ****  *  Licensed under the Apache License, Version 2.0 (the "License"); you may
   8:Source\mbedtls_open\library/pkparse.c ****  *  not use this file except in compliance with the License.
   9:Source\mbedtls_open\library/pkparse.c ****  *  You may obtain a copy of the License at
  10:Source\mbedtls_open\library/pkparse.c ****  *
  11:Source\mbedtls_open\library/pkparse.c ****  *  http://www.apache.org/licenses/LICENSE-2.0
  12:Source\mbedtls_open\library/pkparse.c ****  *
  13:Source\mbedtls_open\library/pkparse.c ****  *  Unless required by applicable law or agreed to in writing, software
  14:Source\mbedtls_open\library/pkparse.c ****  *  distributed under the License is distributed on an "AS IS" BASIS, WITHOUT
  15:Source\mbedtls_open\library/pkparse.c ****  *  WARRANTIES OR CONDITIONS OF ANY KIND, either express or implied.
  16:Source\mbedtls_open\library/pkparse.c ****  *  See the License for the specific language governing permissions and
  17:Source\mbedtls_open\library/pkparse.c ****  *  limitations under the License.
  18:Source\mbedtls_open\library/pkparse.c ****  *
  19:Source\mbedtls_open\library/pkparse.c ****  *  This file is part of mbed TLS (https://tls.mbed.org)
  20:Source\mbedtls_open\library/pkparse.c ****  */
  21:Source\mbedtls_open\library/pkparse.c **** 
  22:Source\mbedtls_open\library/pkparse.c **** #if !defined(MBEDTLS_CONFIG_FILE)
  23:Source\mbedtls_open\library/pkparse.c **** #include "mbedtls/config.h"
  24:Source\mbedtls_open\library/pkparse.c **** #else
  25:Source\mbedtls_open\library/pkparse.c **** #include MBEDTLS_CONFIG_FILE
  26:Source\mbedtls_open\library/pkparse.c **** #endif
  27:Source\mbedtls_open\library/pkparse.c **** 
  28:Source\mbedtls_open\library/pkparse.c **** #if defined(MBEDTLS_PK_PARSE_C)
  29:Source\mbedtls_open\library/pkparse.c **** 
  30:Source\mbedtls_open\library/pkparse.c **** #include "mbedtls/pk.h"
  31:Source\mbedtls_open\library/pkparse.c **** #include "mbedtls/asn1.h"
ARM GAS  C:\Users\Phuong\AppData\Local\Temp\ccG6FMOL.s 			page 2


  32:Source\mbedtls_open\library/pkparse.c **** #include "mbedtls/oid.h"
  33:Source\mbedtls_open\library/pkparse.c **** #include "mbedtls/platform_util.h"
  34:Source\mbedtls_open\library/pkparse.c **** 
  35:Source\mbedtls_open\library/pkparse.c **** #include <string.h>
  36:Source\mbedtls_open\library/pkparse.c **** 
  37:Source\mbedtls_open\library/pkparse.c **** #if defined(MBEDTLS_RSA_C)
  38:Source\mbedtls_open\library/pkparse.c **** #include "mbedtls/rsa.h"
  39:Source\mbedtls_open\library/pkparse.c **** #endif
  40:Source\mbedtls_open\library/pkparse.c **** #if defined(MBEDTLS_ECP_C)
  41:Source\mbedtls_open\library/pkparse.c **** #include "mbedtls/ecp.h"
  42:Source\mbedtls_open\library/pkparse.c **** #endif
  43:Source\mbedtls_open\library/pkparse.c **** #if defined(MBEDTLS_ECDSA_C)
  44:Source\mbedtls_open\library/pkparse.c **** #include "mbedtls/ecdsa.h"
  45:Source\mbedtls_open\library/pkparse.c **** #endif
  46:Source\mbedtls_open\library/pkparse.c **** #if defined(MBEDTLS_PEM_PARSE_C)
  47:Source\mbedtls_open\library/pkparse.c **** #include "mbedtls/pem.h"
  48:Source\mbedtls_open\library/pkparse.c **** #endif
  49:Source\mbedtls_open\library/pkparse.c **** #if defined(MBEDTLS_PKCS5_C)
  50:Source\mbedtls_open\library/pkparse.c **** #include "mbedtls/pkcs5.h"
  51:Source\mbedtls_open\library/pkparse.c **** #endif
  52:Source\mbedtls_open\library/pkparse.c **** #if defined(MBEDTLS_PKCS12_C)
  53:Source\mbedtls_open\library/pkparse.c **** #include "mbedtls/pkcs12.h"
  54:Source\mbedtls_open\library/pkparse.c **** #endif
  55:Source\mbedtls_open\library/pkparse.c **** 
  56:Source\mbedtls_open\library/pkparse.c **** #if defined(MBEDTLS_PLATFORM_C)
  57:Source\mbedtls_open\library/pkparse.c **** #include "mbedtls/platform.h"
  58:Source\mbedtls_open\library/pkparse.c **** #else
  59:Source\mbedtls_open\library/pkparse.c **** #include <stdlib.h>
  60:Source\mbedtls_open\library/pkparse.c **** #define mbedtls_calloc    calloc
  61:Source\mbedtls_open\library/pkparse.c **** #define mbedtls_free       free
  62:Source\mbedtls_open\library/pkparse.c **** #endif
  63:Source\mbedtls_open\library/pkparse.c **** 
  64:Source\mbedtls_open\library/pkparse.c **** #if defined(MBEDTLS_FS_IO)
  65:Source\mbedtls_open\library/pkparse.c **** /*
  66:Source\mbedtls_open\library/pkparse.c ****  * Load all data from a file into a given buffer.
  67:Source\mbedtls_open\library/pkparse.c ****  *
  68:Source\mbedtls_open\library/pkparse.c ****  * The file is expected to contain either PEM or DER encoded data.
  69:Source\mbedtls_open\library/pkparse.c ****  * A terminating null byte is always appended. It is included in the announced
  70:Source\mbedtls_open\library/pkparse.c ****  * length only if the data looks like it is PEM encoded.
  71:Source\mbedtls_open\library/pkparse.c ****  */
  72:Source\mbedtls_open\library/pkparse.c **** int mbedtls_pk_load_file( const char *path, unsigned char **buf, size_t *n )
  73:Source\mbedtls_open\library/pkparse.c **** {
  74:Source\mbedtls_open\library/pkparse.c ****     FILE *f;
  75:Source\mbedtls_open\library/pkparse.c ****     long size;
  76:Source\mbedtls_open\library/pkparse.c **** 
  77:Source\mbedtls_open\library/pkparse.c ****     if( ( f = fopen( path, "rb" ) ) == NULL )
  78:Source\mbedtls_open\library/pkparse.c ****         return( MBEDTLS_ERR_PK_FILE_IO_ERROR );
  79:Source\mbedtls_open\library/pkparse.c **** 
  80:Source\mbedtls_open\library/pkparse.c ****     fseek( f, 0, SEEK_END );
  81:Source\mbedtls_open\library/pkparse.c ****     if( ( size = ftell( f ) ) == -1 )
  82:Source\mbedtls_open\library/pkparse.c ****     {
  83:Source\mbedtls_open\library/pkparse.c ****         fclose( f );
  84:Source\mbedtls_open\library/pkparse.c ****         return( MBEDTLS_ERR_PK_FILE_IO_ERROR );
  85:Source\mbedtls_open\library/pkparse.c ****     }
  86:Source\mbedtls_open\library/pkparse.c ****     fseek( f, 0, SEEK_SET );
  87:Source\mbedtls_open\library/pkparse.c **** 
  88:Source\mbedtls_open\library/pkparse.c ****     *n = (size_t) size;
ARM GAS  C:\Users\Phuong\AppData\Local\Temp\ccG6FMOL.s 			page 3


  89:Source\mbedtls_open\library/pkparse.c **** 
  90:Source\mbedtls_open\library/pkparse.c ****     if( *n + 1 == 0 ||
  91:Source\mbedtls_open\library/pkparse.c ****         ( *buf = mbedtls_calloc( 1, *n + 1 ) ) == NULL )
  92:Source\mbedtls_open\library/pkparse.c ****     {
  93:Source\mbedtls_open\library/pkparse.c ****         fclose( f );
  94:Source\mbedtls_open\library/pkparse.c ****         return( MBEDTLS_ERR_PK_ALLOC_FAILED );
  95:Source\mbedtls_open\library/pkparse.c ****     }
  96:Source\mbedtls_open\library/pkparse.c **** 
  97:Source\mbedtls_open\library/pkparse.c ****     if( fread( *buf, 1, *n, f ) != *n )
  98:Source\mbedtls_open\library/pkparse.c ****     {
  99:Source\mbedtls_open\library/pkparse.c ****         fclose( f );
 100:Source\mbedtls_open\library/pkparse.c **** 
 101:Source\mbedtls_open\library/pkparse.c ****         mbedtls_platform_zeroize( *buf, *n );
 102:Source\mbedtls_open\library/pkparse.c ****         mbedtls_free( *buf );
 103:Source\mbedtls_open\library/pkparse.c **** 
 104:Source\mbedtls_open\library/pkparse.c ****         return( MBEDTLS_ERR_PK_FILE_IO_ERROR );
 105:Source\mbedtls_open\library/pkparse.c ****     }
 106:Source\mbedtls_open\library/pkparse.c **** 
 107:Source\mbedtls_open\library/pkparse.c ****     fclose( f );
 108:Source\mbedtls_open\library/pkparse.c **** 
 109:Source\mbedtls_open\library/pkparse.c ****     (*buf)[*n] = '\0';
 110:Source\mbedtls_open\library/pkparse.c **** 
 111:Source\mbedtls_open\library/pkparse.c ****     if( strstr( (const char *) *buf, "-----BEGIN " ) != NULL )
 112:Source\mbedtls_open\library/pkparse.c ****         ++*n;
 113:Source\mbedtls_open\library/pkparse.c **** 
 114:Source\mbedtls_open\library/pkparse.c ****     return( 0 );
 115:Source\mbedtls_open\library/pkparse.c **** }
 116:Source\mbedtls_open\library/pkparse.c **** 
 117:Source\mbedtls_open\library/pkparse.c **** /*
 118:Source\mbedtls_open\library/pkparse.c ****  * Load and parse a private key
 119:Source\mbedtls_open\library/pkparse.c ****  */
 120:Source\mbedtls_open\library/pkparse.c **** int mbedtls_pk_parse_keyfile( mbedtls_pk_context *ctx,
 121:Source\mbedtls_open\library/pkparse.c ****                       const char *path, const char *pwd )
 122:Source\mbedtls_open\library/pkparse.c **** {
 123:Source\mbedtls_open\library/pkparse.c ****     int ret;
 124:Source\mbedtls_open\library/pkparse.c ****     size_t n;
 125:Source\mbedtls_open\library/pkparse.c ****     unsigned char *buf;
 126:Source\mbedtls_open\library/pkparse.c **** 
 127:Source\mbedtls_open\library/pkparse.c ****     if( ( ret = mbedtls_pk_load_file( path, &buf, &n ) ) != 0 )
 128:Source\mbedtls_open\library/pkparse.c ****         return( ret );
 129:Source\mbedtls_open\library/pkparse.c **** 
 130:Source\mbedtls_open\library/pkparse.c ****     if( pwd == NULL )
 131:Source\mbedtls_open\library/pkparse.c ****         ret = mbedtls_pk_parse_key( ctx, buf, n, NULL, 0 );
 132:Source\mbedtls_open\library/pkparse.c ****     else
 133:Source\mbedtls_open\library/pkparse.c ****         ret = mbedtls_pk_parse_key( ctx, buf, n,
 134:Source\mbedtls_open\library/pkparse.c ****                 (const unsigned char *) pwd, strlen( pwd ) );
 135:Source\mbedtls_open\library/pkparse.c **** 
 136:Source\mbedtls_open\library/pkparse.c ****     mbedtls_platform_zeroize( buf, n );
 137:Source\mbedtls_open\library/pkparse.c ****     mbedtls_free( buf );
 138:Source\mbedtls_open\library/pkparse.c **** 
 139:Source\mbedtls_open\library/pkparse.c ****     return( ret );
 140:Source\mbedtls_open\library/pkparse.c **** }
 141:Source\mbedtls_open\library/pkparse.c **** 
 142:Source\mbedtls_open\library/pkparse.c **** /*
 143:Source\mbedtls_open\library/pkparse.c ****  * Load and parse a public key
 144:Source\mbedtls_open\library/pkparse.c ****  */
 145:Source\mbedtls_open\library/pkparse.c **** int mbedtls_pk_parse_public_keyfile( mbedtls_pk_context *ctx, const char *path )
ARM GAS  C:\Users\Phuong\AppData\Local\Temp\ccG6FMOL.s 			page 4


 146:Source\mbedtls_open\library/pkparse.c **** {
 147:Source\mbedtls_open\library/pkparse.c ****     int ret;
 148:Source\mbedtls_open\library/pkparse.c ****     size_t n;
 149:Source\mbedtls_open\library/pkparse.c ****     unsigned char *buf;
 150:Source\mbedtls_open\library/pkparse.c **** 
 151:Source\mbedtls_open\library/pkparse.c ****     if( ( ret = mbedtls_pk_load_file( path, &buf, &n ) ) != 0 )
 152:Source\mbedtls_open\library/pkparse.c ****         return( ret );
 153:Source\mbedtls_open\library/pkparse.c **** 
 154:Source\mbedtls_open\library/pkparse.c ****     ret = mbedtls_pk_parse_public_key( ctx, buf, n );
 155:Source\mbedtls_open\library/pkparse.c **** 
 156:Source\mbedtls_open\library/pkparse.c ****     mbedtls_platform_zeroize( buf, n );
 157:Source\mbedtls_open\library/pkparse.c ****     mbedtls_free( buf );
 158:Source\mbedtls_open\library/pkparse.c **** 
 159:Source\mbedtls_open\library/pkparse.c ****     return( ret );
 160:Source\mbedtls_open\library/pkparse.c **** }
 161:Source\mbedtls_open\library/pkparse.c **** #endif /* MBEDTLS_FS_IO */
 162:Source\mbedtls_open\library/pkparse.c **** 
 163:Source\mbedtls_open\library/pkparse.c **** #if defined(MBEDTLS_ECP_C)
 164:Source\mbedtls_open\library/pkparse.c **** /* Minimally parse an ECParameters buffer to and mbedtls_asn1_buf
 165:Source\mbedtls_open\library/pkparse.c ****  *
 166:Source\mbedtls_open\library/pkparse.c ****  * ECParameters ::= CHOICE {
 167:Source\mbedtls_open\library/pkparse.c ****  *   namedCurve         OBJECT IDENTIFIER
 168:Source\mbedtls_open\library/pkparse.c ****  *   specifiedCurve     SpecifiedECDomain -- = SEQUENCE { ... }
 169:Source\mbedtls_open\library/pkparse.c ****  *   -- implicitCurve   NULL
 170:Source\mbedtls_open\library/pkparse.c ****  * }
 171:Source\mbedtls_open\library/pkparse.c ****  */
 172:Source\mbedtls_open\library/pkparse.c **** static int pk_get_ecparams( unsigned char **p, const unsigned char *end,
 173:Source\mbedtls_open\library/pkparse.c ****                             mbedtls_asn1_buf *params )
 174:Source\mbedtls_open\library/pkparse.c **** {
  27              		.loc 1 174 0
  28              		.cfi_startproc
  29              		@ args = 0, pretend = 0, frame = 0
  30              		@ frame_needed = 0, uses_anonymous_args = 0
  31              	.LVL0:
  32 0000 70B5     		push	{r4, r5, r6, lr}
  33              		.cfi_def_cfa_offset 16
  34              		.cfi_offset 4, -16
  35              		.cfi_offset 5, -12
  36              		.cfi_offset 6, -8
  37              		.cfi_offset 14, -4
  38 0002 0400     		movs	r4, r0
  39 0004 0E00     		movs	r6, r1
  40 0006 1500     		movs	r5, r2
 175:Source\mbedtls_open\library/pkparse.c ****     int ret;
 176:Source\mbedtls_open\library/pkparse.c **** 
 177:Source\mbedtls_open\library/pkparse.c ****     if ( end - *p < 1 )
  41              		.loc 1 177 0
  42 0008 0368     		ldr	r3, [r0]
  43 000a CA1A     		subs	r2, r1, r3
  44              	.LVL1:
  45 000c 002A     		cmp	r2, #0
  46 000e 1BDD     		ble	.L5
 178:Source\mbedtls_open\library/pkparse.c ****         return( MBEDTLS_ERR_PK_KEY_INVALID_FORMAT +
 179:Source\mbedtls_open\library/pkparse.c ****                 MBEDTLS_ERR_ASN1_OUT_OF_DATA );
 180:Source\mbedtls_open\library/pkparse.c **** 
 181:Source\mbedtls_open\library/pkparse.c ****     /* Tag may be either OID or SEQUENCE */
 182:Source\mbedtls_open\library/pkparse.c ****     params->tag = **p;
ARM GAS  C:\Users\Phuong\AppData\Local\Temp\ccG6FMOL.s 			page 5


  47              		.loc 1 182 0
  48 0010 1B78     		ldrb	r3, [r3]
  49 0012 2B60     		str	r3, [r5]
 183:Source\mbedtls_open\library/pkparse.c ****     if( params->tag != MBEDTLS_ASN1_OID
  50              		.loc 1 183 0
  51 0014 062B     		cmp	r3, #6
  52 0016 01D0     		beq	.L3
 184:Source\mbedtls_open\library/pkparse.c **** #if defined(MBEDTLS_PK_PARSE_EC_EXTENDED)
 185:Source\mbedtls_open\library/pkparse.c ****             && params->tag != ( MBEDTLS_ASN1_CONSTRUCTED | MBEDTLS_ASN1_SEQUENCE )
  53              		.loc 1 185 0
  54 0018 302B     		cmp	r3, #48
  55 001a 17D1     		bne	.L6
  56              	.L3:
 186:Source\mbedtls_open\library/pkparse.c **** #endif
 187:Source\mbedtls_open\library/pkparse.c ****             )
 188:Source\mbedtls_open\library/pkparse.c ****     {
 189:Source\mbedtls_open\library/pkparse.c ****         return( MBEDTLS_ERR_PK_KEY_INVALID_FORMAT +
 190:Source\mbedtls_open\library/pkparse.c ****                 MBEDTLS_ERR_ASN1_UNEXPECTED_TAG );
 191:Source\mbedtls_open\library/pkparse.c ****     }
 192:Source\mbedtls_open\library/pkparse.c **** 
 193:Source\mbedtls_open\library/pkparse.c ****     if( ( ret = mbedtls_asn1_get_tag( p, end, &params->len, params->tag ) ) != 0 )
  57              		.loc 1 193 0
  58 001c 2A1D     		adds	r2, r5, #4
  59 001e 3100     		movs	r1, r6
  60              	.LVL2:
  61 0020 2000     		movs	r0, r4
  62              	.LVL3:
  63 0022 FFF7FEFF 		bl	mbedtls_asn1_get_tag
  64              	.LVL4:
  65 0026 0028     		cmp	r0, #0
  66 0028 03D0     		beq	.L4
 194:Source\mbedtls_open\library/pkparse.c ****     {
 195:Source\mbedtls_open\library/pkparse.c ****         return( MBEDTLS_ERR_PK_KEY_INVALID_FORMAT + ret );
  67              		.loc 1 195 0
  68 002a 0A4B     		ldr	r3, .L8
  69 002c 9C46     		mov	ip, r3
  70 002e 6044     		add	r0, r0, ip
  71              	.LVL5:
  72 0030 0FE0     		b	.L2
  73              	.LVL6:
  74              	.L4:
 196:Source\mbedtls_open\library/pkparse.c ****     }
 197:Source\mbedtls_open\library/pkparse.c **** 
 198:Source\mbedtls_open\library/pkparse.c ****     params->p = *p;
  75              		.loc 1 198 0
  76 0032 2368     		ldr	r3, [r4]
  77 0034 AB60     		str	r3, [r5, #8]
 199:Source\mbedtls_open\library/pkparse.c ****     *p += params->len;
  78              		.loc 1 199 0
  79 0036 6B68     		ldr	r3, [r5, #4]
  80 0038 2268     		ldr	r2, [r4]
  81 003a 9446     		mov	ip, r2
  82 003c 6344     		add	r3, r3, ip
  83 003e 2360     		str	r3, [r4]
 200:Source\mbedtls_open\library/pkparse.c **** 
 201:Source\mbedtls_open\library/pkparse.c ****     if( *p != end )
  84              		.loc 1 201 0
ARM GAS  C:\Users\Phuong\AppData\Local\Temp\ccG6FMOL.s 			page 6


  85 0040 9E42     		cmp	r6, r3
  86 0042 05D0     		beq	.L7
 202:Source\mbedtls_open\library/pkparse.c ****         return( MBEDTLS_ERR_PK_KEY_INVALID_FORMAT +
  87              		.loc 1 202 0
  88 0044 0448     		ldr	r0, .L8+4
  89              	.LVL7:
  90 0046 04E0     		b	.L2
  91              	.LVL8:
  92              	.L5:
 178:Source\mbedtls_open\library/pkparse.c ****                 MBEDTLS_ERR_ASN1_OUT_OF_DATA );
  93              		.loc 1 178 0
  94 0048 0448     		ldr	r0, .L8+8
  95              	.LVL9:
  96 004a 02E0     		b	.L2
  97              	.LVL10:
  98              	.L6:
 189:Source\mbedtls_open\library/pkparse.c ****                 MBEDTLS_ERR_ASN1_UNEXPECTED_TAG );
  99              		.loc 1 189 0
 100 004c 0448     		ldr	r0, .L8+12
 101              	.LVL11:
 102 004e 00E0     		b	.L2
 103              	.LVL12:
 104              	.L7:
 203:Source\mbedtls_open\library/pkparse.c ****                 MBEDTLS_ERR_ASN1_LENGTH_MISMATCH );
 204:Source\mbedtls_open\library/pkparse.c **** 
 205:Source\mbedtls_open\library/pkparse.c ****     return( 0 );
 105              		.loc 1 205 0
 106 0050 0020     		movs	r0, #0
 107              	.LVL13:
 108              	.L2:
 206:Source\mbedtls_open\library/pkparse.c **** }
 109              		.loc 1 206 0
 110              		@ sp needed
 111              	.LVL14:
 112              	.LVL15:
 113              	.LVL16:
 114 0052 70BD     		pop	{r4, r5, r6, pc}
 115              	.L9:
 116              		.align	2
 117              	.L8:
 118 0054 00C3FFFF 		.word	-15616
 119 0058 9AC2FFFF 		.word	-15718
 120 005c A0C2FFFF 		.word	-15712
 121 0060 9EC2FFFF 		.word	-15714
 122              		.cfi_endproc
 123              	.LFE11:
 124              		.size	pk_get_ecparams, .-pk_get_ecparams
 125              		.section	.text.pk_get_pk_alg,"ax",%progbits
 126              		.align	2
 127              		.code	16
 128              		.thumb_func
 129              		.type	pk_get_pk_alg, %function
 130              	pk_get_pk_alg:
 131              	.LFB18:
 207:Source\mbedtls_open\library/pkparse.c **** 
 208:Source\mbedtls_open\library/pkparse.c **** #if defined(MBEDTLS_PK_PARSE_EC_EXTENDED)
 209:Source\mbedtls_open\library/pkparse.c **** /*
ARM GAS  C:\Users\Phuong\AppData\Local\Temp\ccG6FMOL.s 			page 7


 210:Source\mbedtls_open\library/pkparse.c ****  * Parse a SpecifiedECDomain (SEC 1 C.2) and (mostly) fill the group with it.
 211:Source\mbedtls_open\library/pkparse.c ****  * WARNING: the resulting group should only be used with
 212:Source\mbedtls_open\library/pkparse.c ****  * pk_group_id_from_specified(), since its base point may not be set correctly
 213:Source\mbedtls_open\library/pkparse.c ****  * if it was encoded compressed.
 214:Source\mbedtls_open\library/pkparse.c ****  *
 215:Source\mbedtls_open\library/pkparse.c ****  *  SpecifiedECDomain ::= SEQUENCE {
 216:Source\mbedtls_open\library/pkparse.c ****  *      version SpecifiedECDomainVersion(ecdpVer1 | ecdpVer2 | ecdpVer3, ...),
 217:Source\mbedtls_open\library/pkparse.c ****  *      fieldID FieldID {{FieldTypes}},
 218:Source\mbedtls_open\library/pkparse.c ****  *      curve Curve,
 219:Source\mbedtls_open\library/pkparse.c ****  *      base ECPoint,
 220:Source\mbedtls_open\library/pkparse.c ****  *      order INTEGER,
 221:Source\mbedtls_open\library/pkparse.c ****  *      cofactor INTEGER OPTIONAL,
 222:Source\mbedtls_open\library/pkparse.c ****  *      hash HashAlgorithm OPTIONAL,
 223:Source\mbedtls_open\library/pkparse.c ****  *      ...
 224:Source\mbedtls_open\library/pkparse.c ****  *  }
 225:Source\mbedtls_open\library/pkparse.c ****  *
 226:Source\mbedtls_open\library/pkparse.c ****  * We only support prime-field as field type, and ignore hash and cofactor.
 227:Source\mbedtls_open\library/pkparse.c ****  */
 228:Source\mbedtls_open\library/pkparse.c **** static int pk_group_from_specified( const mbedtls_asn1_buf *params, mbedtls_ecp_group *grp )
 229:Source\mbedtls_open\library/pkparse.c **** {
 230:Source\mbedtls_open\library/pkparse.c ****     int ret;
 231:Source\mbedtls_open\library/pkparse.c ****     unsigned char *p = params->p;
 232:Source\mbedtls_open\library/pkparse.c ****     const unsigned char * const end = params->p + params->len;
 233:Source\mbedtls_open\library/pkparse.c ****     const unsigned char *end_field, *end_curve;
 234:Source\mbedtls_open\library/pkparse.c ****     size_t len;
 235:Source\mbedtls_open\library/pkparse.c ****     int ver;
 236:Source\mbedtls_open\library/pkparse.c **** 
 237:Source\mbedtls_open\library/pkparse.c ****     /* SpecifiedECDomainVersion ::= INTEGER { 1, 2, 3 } */
 238:Source\mbedtls_open\library/pkparse.c ****     if( ( ret = mbedtls_asn1_get_int( &p, end, &ver ) ) != 0 )
 239:Source\mbedtls_open\library/pkparse.c ****         return( MBEDTLS_ERR_PK_KEY_INVALID_FORMAT + ret );
 240:Source\mbedtls_open\library/pkparse.c **** 
 241:Source\mbedtls_open\library/pkparse.c ****     if( ver < 1 || ver > 3 )
 242:Source\mbedtls_open\library/pkparse.c ****         return( MBEDTLS_ERR_PK_KEY_INVALID_FORMAT );
 243:Source\mbedtls_open\library/pkparse.c **** 
 244:Source\mbedtls_open\library/pkparse.c ****     /*
 245:Source\mbedtls_open\library/pkparse.c ****      * FieldID { FIELD-ID:IOSet } ::= SEQUENCE { -- Finite field
 246:Source\mbedtls_open\library/pkparse.c ****      *       fieldType FIELD-ID.&id({IOSet}),
 247:Source\mbedtls_open\library/pkparse.c ****      *       parameters FIELD-ID.&Type({IOSet}{@fieldType})
 248:Source\mbedtls_open\library/pkparse.c ****      * }
 249:Source\mbedtls_open\library/pkparse.c ****      */
 250:Source\mbedtls_open\library/pkparse.c ****     if( ( ret = mbedtls_asn1_get_tag( &p, end, &len,
 251:Source\mbedtls_open\library/pkparse.c ****             MBEDTLS_ASN1_CONSTRUCTED | MBEDTLS_ASN1_SEQUENCE ) ) != 0 )
 252:Source\mbedtls_open\library/pkparse.c ****         return( ret );
 253:Source\mbedtls_open\library/pkparse.c **** 
 254:Source\mbedtls_open\library/pkparse.c ****     end_field = p + len;
 255:Source\mbedtls_open\library/pkparse.c **** 
 256:Source\mbedtls_open\library/pkparse.c ****     /*
 257:Source\mbedtls_open\library/pkparse.c ****      * FIELD-ID ::= TYPE-IDENTIFIER
 258:Source\mbedtls_open\library/pkparse.c ****      * FieldTypes FIELD-ID ::= {
 259:Source\mbedtls_open\library/pkparse.c ****      *       { Prime-p IDENTIFIED BY prime-field } |
 260:Source\mbedtls_open\library/pkparse.c ****      *       { Characteristic-two IDENTIFIED BY characteristic-two-field }
 261:Source\mbedtls_open\library/pkparse.c ****      * }
 262:Source\mbedtls_open\library/pkparse.c ****      * prime-field OBJECT IDENTIFIER ::= { id-fieldType 1 }
 263:Source\mbedtls_open\library/pkparse.c ****      */
 264:Source\mbedtls_open\library/pkparse.c ****     if( ( ret = mbedtls_asn1_get_tag( &p, end_field, &len, MBEDTLS_ASN1_OID ) ) != 0 )
 265:Source\mbedtls_open\library/pkparse.c ****         return( ret );
 266:Source\mbedtls_open\library/pkparse.c **** 
ARM GAS  C:\Users\Phuong\AppData\Local\Temp\ccG6FMOL.s 			page 8


 267:Source\mbedtls_open\library/pkparse.c ****     if( len != MBEDTLS_OID_SIZE( MBEDTLS_OID_ANSI_X9_62_PRIME_FIELD ) ||
 268:Source\mbedtls_open\library/pkparse.c ****         memcmp( p, MBEDTLS_OID_ANSI_X9_62_PRIME_FIELD, len ) != 0 )
 269:Source\mbedtls_open\library/pkparse.c ****     {
 270:Source\mbedtls_open\library/pkparse.c ****         return( MBEDTLS_ERR_PK_FEATURE_UNAVAILABLE );
 271:Source\mbedtls_open\library/pkparse.c ****     }
 272:Source\mbedtls_open\library/pkparse.c **** 
 273:Source\mbedtls_open\library/pkparse.c ****     p += len;
 274:Source\mbedtls_open\library/pkparse.c **** 
 275:Source\mbedtls_open\library/pkparse.c ****     /* Prime-p ::= INTEGER -- Field of size p. */
 276:Source\mbedtls_open\library/pkparse.c ****     if( ( ret = mbedtls_asn1_get_mpi( &p, end_field, &grp->P ) ) != 0 )
 277:Source\mbedtls_open\library/pkparse.c ****         return( MBEDTLS_ERR_PK_KEY_INVALID_FORMAT + ret );
 278:Source\mbedtls_open\library/pkparse.c **** 
 279:Source\mbedtls_open\library/pkparse.c ****     grp->pbits = mbedtls_mpi_bitlen( &grp->P );
 280:Source\mbedtls_open\library/pkparse.c **** 
 281:Source\mbedtls_open\library/pkparse.c ****     if( p != end_field )
 282:Source\mbedtls_open\library/pkparse.c ****         return( MBEDTLS_ERR_PK_KEY_INVALID_FORMAT +
 283:Source\mbedtls_open\library/pkparse.c ****                 MBEDTLS_ERR_ASN1_LENGTH_MISMATCH );
 284:Source\mbedtls_open\library/pkparse.c **** 
 285:Source\mbedtls_open\library/pkparse.c ****     /*
 286:Source\mbedtls_open\library/pkparse.c ****      * Curve ::= SEQUENCE {
 287:Source\mbedtls_open\library/pkparse.c ****      *       a FieldElement,
 288:Source\mbedtls_open\library/pkparse.c ****      *       b FieldElement,
 289:Source\mbedtls_open\library/pkparse.c ****      *       seed BIT STRING OPTIONAL
 290:Source\mbedtls_open\library/pkparse.c ****      *       -- Shall be present if used in SpecifiedECDomain
 291:Source\mbedtls_open\library/pkparse.c ****      *       -- with version equal to ecdpVer2 or ecdpVer3
 292:Source\mbedtls_open\library/pkparse.c ****      * }
 293:Source\mbedtls_open\library/pkparse.c ****      */
 294:Source\mbedtls_open\library/pkparse.c ****     if( ( ret = mbedtls_asn1_get_tag( &p, end, &len,
 295:Source\mbedtls_open\library/pkparse.c ****             MBEDTLS_ASN1_CONSTRUCTED | MBEDTLS_ASN1_SEQUENCE ) ) != 0 )
 296:Source\mbedtls_open\library/pkparse.c ****         return( ret );
 297:Source\mbedtls_open\library/pkparse.c **** 
 298:Source\mbedtls_open\library/pkparse.c ****     end_curve = p + len;
 299:Source\mbedtls_open\library/pkparse.c **** 
 300:Source\mbedtls_open\library/pkparse.c ****     /*
 301:Source\mbedtls_open\library/pkparse.c ****      * FieldElement ::= OCTET STRING
 302:Source\mbedtls_open\library/pkparse.c ****      * containing an integer in the case of a prime field
 303:Source\mbedtls_open\library/pkparse.c ****      */
 304:Source\mbedtls_open\library/pkparse.c ****     if( ( ret = mbedtls_asn1_get_tag( &p, end_curve, &len, MBEDTLS_ASN1_OCTET_STRING ) ) != 0 ||
 305:Source\mbedtls_open\library/pkparse.c ****         ( ret = mbedtls_mpi_read_binary( &grp->A, p, len ) ) != 0 )
 306:Source\mbedtls_open\library/pkparse.c ****     {
 307:Source\mbedtls_open\library/pkparse.c ****         return( MBEDTLS_ERR_PK_KEY_INVALID_FORMAT + ret );
 308:Source\mbedtls_open\library/pkparse.c ****     }
 309:Source\mbedtls_open\library/pkparse.c **** 
 310:Source\mbedtls_open\library/pkparse.c ****     p += len;
 311:Source\mbedtls_open\library/pkparse.c **** 
 312:Source\mbedtls_open\library/pkparse.c ****     if( ( ret = mbedtls_asn1_get_tag( &p, end_curve, &len, MBEDTLS_ASN1_OCTET_STRING ) ) != 0 ||
 313:Source\mbedtls_open\library/pkparse.c ****         ( ret = mbedtls_mpi_read_binary( &grp->B, p, len ) ) != 0 )
 314:Source\mbedtls_open\library/pkparse.c ****     {
 315:Source\mbedtls_open\library/pkparse.c ****         return( MBEDTLS_ERR_PK_KEY_INVALID_FORMAT + ret );
 316:Source\mbedtls_open\library/pkparse.c ****     }
 317:Source\mbedtls_open\library/pkparse.c **** 
 318:Source\mbedtls_open\library/pkparse.c ****     p += len;
 319:Source\mbedtls_open\library/pkparse.c **** 
 320:Source\mbedtls_open\library/pkparse.c ****     /* Ignore seed BIT STRING OPTIONAL */
 321:Source\mbedtls_open\library/pkparse.c ****     if( ( ret = mbedtls_asn1_get_tag( &p, end_curve, &len, MBEDTLS_ASN1_BIT_STRING ) ) == 0 )
 322:Source\mbedtls_open\library/pkparse.c ****         p += len;
 323:Source\mbedtls_open\library/pkparse.c **** 
ARM GAS  C:\Users\Phuong\AppData\Local\Temp\ccG6FMOL.s 			page 9


 324:Source\mbedtls_open\library/pkparse.c ****     if( p != end_curve )
 325:Source\mbedtls_open\library/pkparse.c ****         return( MBEDTLS_ERR_PK_KEY_INVALID_FORMAT +
 326:Source\mbedtls_open\library/pkparse.c ****                 MBEDTLS_ERR_ASN1_LENGTH_MISMATCH );
 327:Source\mbedtls_open\library/pkparse.c **** 
 328:Source\mbedtls_open\library/pkparse.c ****     /*
 329:Source\mbedtls_open\library/pkparse.c ****      * ECPoint ::= OCTET STRING
 330:Source\mbedtls_open\library/pkparse.c ****      */
 331:Source\mbedtls_open\library/pkparse.c ****     if( ( ret = mbedtls_asn1_get_tag( &p, end, &len, MBEDTLS_ASN1_OCTET_STRING ) ) != 0 )
 332:Source\mbedtls_open\library/pkparse.c ****         return( MBEDTLS_ERR_PK_KEY_INVALID_FORMAT + ret );
 333:Source\mbedtls_open\library/pkparse.c **** 
 334:Source\mbedtls_open\library/pkparse.c ****     if( ( ret = mbedtls_ecp_point_read_binary( grp, &grp->G,
 335:Source\mbedtls_open\library/pkparse.c ****                                       ( const unsigned char *) p, len ) ) != 0 )
 336:Source\mbedtls_open\library/pkparse.c ****     {
 337:Source\mbedtls_open\library/pkparse.c ****         /*
 338:Source\mbedtls_open\library/pkparse.c ****          * If we can't read the point because it's compressed, cheat by
 339:Source\mbedtls_open\library/pkparse.c ****          * reading only the X coordinate and the parity bit of Y.
 340:Source\mbedtls_open\library/pkparse.c ****          */
 341:Source\mbedtls_open\library/pkparse.c ****         if( ret != MBEDTLS_ERR_ECP_FEATURE_UNAVAILABLE ||
 342:Source\mbedtls_open\library/pkparse.c ****             ( p[0] != 0x02 && p[0] != 0x03 ) ||
 343:Source\mbedtls_open\library/pkparse.c ****             len != mbedtls_mpi_size( &grp->P ) + 1 ||
 344:Source\mbedtls_open\library/pkparse.c ****             mbedtls_mpi_read_binary( &grp->G.X, p + 1, len - 1 ) != 0 ||
 345:Source\mbedtls_open\library/pkparse.c ****             mbedtls_mpi_lset( &grp->G.Y, p[0] - 2 ) != 0 ||
 346:Source\mbedtls_open\library/pkparse.c ****             mbedtls_mpi_lset( &grp->G.Z, 1 ) != 0 )
 347:Source\mbedtls_open\library/pkparse.c ****         {
 348:Source\mbedtls_open\library/pkparse.c ****             return( MBEDTLS_ERR_PK_KEY_INVALID_FORMAT );
 349:Source\mbedtls_open\library/pkparse.c ****         }
 350:Source\mbedtls_open\library/pkparse.c ****     }
 351:Source\mbedtls_open\library/pkparse.c **** 
 352:Source\mbedtls_open\library/pkparse.c ****     p += len;
 353:Source\mbedtls_open\library/pkparse.c **** 
 354:Source\mbedtls_open\library/pkparse.c ****     /*
 355:Source\mbedtls_open\library/pkparse.c ****      * order INTEGER
 356:Source\mbedtls_open\library/pkparse.c ****      */
 357:Source\mbedtls_open\library/pkparse.c ****     if( ( ret = mbedtls_asn1_get_mpi( &p, end, &grp->N ) ) != 0 )
 358:Source\mbedtls_open\library/pkparse.c ****         return( MBEDTLS_ERR_PK_KEY_INVALID_FORMAT + ret );
 359:Source\mbedtls_open\library/pkparse.c **** 
 360:Source\mbedtls_open\library/pkparse.c ****     grp->nbits = mbedtls_mpi_bitlen( &grp->N );
 361:Source\mbedtls_open\library/pkparse.c **** 
 362:Source\mbedtls_open\library/pkparse.c ****     /*
 363:Source\mbedtls_open\library/pkparse.c ****      * Allow optional elements by purposefully not enforcing p == end here.
 364:Source\mbedtls_open\library/pkparse.c ****      */
 365:Source\mbedtls_open\library/pkparse.c **** 
 366:Source\mbedtls_open\library/pkparse.c ****     return( 0 );
 367:Source\mbedtls_open\library/pkparse.c **** }
 368:Source\mbedtls_open\library/pkparse.c **** 
 369:Source\mbedtls_open\library/pkparse.c **** /*
 370:Source\mbedtls_open\library/pkparse.c ****  * Find the group id associated with an (almost filled) group as generated by
 371:Source\mbedtls_open\library/pkparse.c ****  * pk_group_from_specified(), or return an error if unknown.
 372:Source\mbedtls_open\library/pkparse.c ****  */
 373:Source\mbedtls_open\library/pkparse.c **** static int pk_group_id_from_group( const mbedtls_ecp_group *grp, mbedtls_ecp_group_id *grp_id )
 374:Source\mbedtls_open\library/pkparse.c **** {
 375:Source\mbedtls_open\library/pkparse.c ****     int ret = 0;
 376:Source\mbedtls_open\library/pkparse.c ****     mbedtls_ecp_group ref;
 377:Source\mbedtls_open\library/pkparse.c ****     const mbedtls_ecp_group_id *id;
 378:Source\mbedtls_open\library/pkparse.c **** 
 379:Source\mbedtls_open\library/pkparse.c ****     mbedtls_ecp_group_init( &ref );
 380:Source\mbedtls_open\library/pkparse.c **** 
ARM GAS  C:\Users\Phuong\AppData\Local\Temp\ccG6FMOL.s 			page 10


 381:Source\mbedtls_open\library/pkparse.c ****     for( id = mbedtls_ecp_grp_id_list(); *id != MBEDTLS_ECP_DP_NONE; id++ )
 382:Source\mbedtls_open\library/pkparse.c ****     {
 383:Source\mbedtls_open\library/pkparse.c ****         /* Load the group associated to that id */
 384:Source\mbedtls_open\library/pkparse.c ****         mbedtls_ecp_group_free( &ref );
 385:Source\mbedtls_open\library/pkparse.c ****         MBEDTLS_MPI_CHK( mbedtls_ecp_group_load( &ref, *id ) );
 386:Source\mbedtls_open\library/pkparse.c **** 
 387:Source\mbedtls_open\library/pkparse.c ****         /* Compare to the group we were given, starting with easy tests */
 388:Source\mbedtls_open\library/pkparse.c ****         if( grp->pbits == ref.pbits && grp->nbits == ref.nbits &&
 389:Source\mbedtls_open\library/pkparse.c ****             mbedtls_mpi_cmp_mpi( &grp->P, &ref.P ) == 0 &&
 390:Source\mbedtls_open\library/pkparse.c ****             mbedtls_mpi_cmp_mpi( &grp->A, &ref.A ) == 0 &&
 391:Source\mbedtls_open\library/pkparse.c ****             mbedtls_mpi_cmp_mpi( &grp->B, &ref.B ) == 0 &&
 392:Source\mbedtls_open\library/pkparse.c ****             mbedtls_mpi_cmp_mpi( &grp->N, &ref.N ) == 0 &&
 393:Source\mbedtls_open\library/pkparse.c ****             mbedtls_mpi_cmp_mpi( &grp->G.X, &ref.G.X ) == 0 &&
 394:Source\mbedtls_open\library/pkparse.c ****             mbedtls_mpi_cmp_mpi( &grp->G.Z, &ref.G.Z ) == 0 &&
 395:Source\mbedtls_open\library/pkparse.c ****             /* For Y we may only know the parity bit, so compare only that */
 396:Source\mbedtls_open\library/pkparse.c ****             mbedtls_mpi_get_bit( &grp->G.Y, 0 ) == mbedtls_mpi_get_bit( &ref.G.Y, 0 ) )
 397:Source\mbedtls_open\library/pkparse.c ****         {
 398:Source\mbedtls_open\library/pkparse.c ****             break;
 399:Source\mbedtls_open\library/pkparse.c ****         }
 400:Source\mbedtls_open\library/pkparse.c **** 
 401:Source\mbedtls_open\library/pkparse.c ****     }
 402:Source\mbedtls_open\library/pkparse.c **** 
 403:Source\mbedtls_open\library/pkparse.c **** cleanup:
 404:Source\mbedtls_open\library/pkparse.c ****     mbedtls_ecp_group_free( &ref );
 405:Source\mbedtls_open\library/pkparse.c **** 
 406:Source\mbedtls_open\library/pkparse.c ****     *grp_id = *id;
 407:Source\mbedtls_open\library/pkparse.c **** 
 408:Source\mbedtls_open\library/pkparse.c ****     if( ret == 0 && *id == MBEDTLS_ECP_DP_NONE )
 409:Source\mbedtls_open\library/pkparse.c ****         ret = MBEDTLS_ERR_ECP_FEATURE_UNAVAILABLE;
 410:Source\mbedtls_open\library/pkparse.c **** 
 411:Source\mbedtls_open\library/pkparse.c ****     return( ret );
 412:Source\mbedtls_open\library/pkparse.c **** }
 413:Source\mbedtls_open\library/pkparse.c **** 
 414:Source\mbedtls_open\library/pkparse.c **** /*
 415:Source\mbedtls_open\library/pkparse.c ****  * Parse a SpecifiedECDomain (SEC 1 C.2) and find the associated group ID
 416:Source\mbedtls_open\library/pkparse.c ****  */
 417:Source\mbedtls_open\library/pkparse.c **** static int pk_group_id_from_specified( const mbedtls_asn1_buf *params,
 418:Source\mbedtls_open\library/pkparse.c ****                                        mbedtls_ecp_group_id *grp_id )
 419:Source\mbedtls_open\library/pkparse.c **** {
 420:Source\mbedtls_open\library/pkparse.c ****     int ret;
 421:Source\mbedtls_open\library/pkparse.c ****     mbedtls_ecp_group grp;
 422:Source\mbedtls_open\library/pkparse.c **** 
 423:Source\mbedtls_open\library/pkparse.c ****     mbedtls_ecp_group_init( &grp );
 424:Source\mbedtls_open\library/pkparse.c **** 
 425:Source\mbedtls_open\library/pkparse.c ****     if( ( ret = pk_group_from_specified( params, &grp ) ) != 0 )
 426:Source\mbedtls_open\library/pkparse.c ****         goto cleanup;
 427:Source\mbedtls_open\library/pkparse.c **** 
 428:Source\mbedtls_open\library/pkparse.c ****     ret = pk_group_id_from_group( &grp, grp_id );
 429:Source\mbedtls_open\library/pkparse.c **** 
 430:Source\mbedtls_open\library/pkparse.c **** cleanup:
 431:Source\mbedtls_open\library/pkparse.c ****     mbedtls_ecp_group_free( &grp );
 432:Source\mbedtls_open\library/pkparse.c **** 
 433:Source\mbedtls_open\library/pkparse.c ****     return( ret );
 434:Source\mbedtls_open\library/pkparse.c **** }
 435:Source\mbedtls_open\library/pkparse.c **** #endif /* MBEDTLS_PK_PARSE_EC_EXTENDED */
 436:Source\mbedtls_open\library/pkparse.c **** 
 437:Source\mbedtls_open\library/pkparse.c **** /*
ARM GAS  C:\Users\Phuong\AppData\Local\Temp\ccG6FMOL.s 			page 11


 438:Source\mbedtls_open\library/pkparse.c ****  * Use EC parameters to initialise an EC group
 439:Source\mbedtls_open\library/pkparse.c ****  *
 440:Source\mbedtls_open\library/pkparse.c ****  * ECParameters ::= CHOICE {
 441:Source\mbedtls_open\library/pkparse.c ****  *   namedCurve         OBJECT IDENTIFIER
 442:Source\mbedtls_open\library/pkparse.c ****  *   specifiedCurve     SpecifiedECDomain -- = SEQUENCE { ... }
 443:Source\mbedtls_open\library/pkparse.c ****  *   -- implicitCurve   NULL
 444:Source\mbedtls_open\library/pkparse.c ****  */
 445:Source\mbedtls_open\library/pkparse.c **** static int pk_use_ecparams( const mbedtls_asn1_buf *params, mbedtls_ecp_group *grp )
 446:Source\mbedtls_open\library/pkparse.c **** {
 447:Source\mbedtls_open\library/pkparse.c ****     int ret;
 448:Source\mbedtls_open\library/pkparse.c ****     mbedtls_ecp_group_id grp_id;
 449:Source\mbedtls_open\library/pkparse.c **** 
 450:Source\mbedtls_open\library/pkparse.c ****     if( params->tag == MBEDTLS_ASN1_OID )
 451:Source\mbedtls_open\library/pkparse.c ****     {
 452:Source\mbedtls_open\library/pkparse.c ****         if( mbedtls_oid_get_ec_grp( params, &grp_id ) != 0 )
 453:Source\mbedtls_open\library/pkparse.c ****             return( MBEDTLS_ERR_PK_UNKNOWN_NAMED_CURVE );
 454:Source\mbedtls_open\library/pkparse.c ****     }
 455:Source\mbedtls_open\library/pkparse.c ****     else
 456:Source\mbedtls_open\library/pkparse.c ****     {
 457:Source\mbedtls_open\library/pkparse.c **** #if defined(MBEDTLS_PK_PARSE_EC_EXTENDED)
 458:Source\mbedtls_open\library/pkparse.c ****         if( ( ret = pk_group_id_from_specified( params, &grp_id ) ) != 0 )
 459:Source\mbedtls_open\library/pkparse.c ****             return( ret );
 460:Source\mbedtls_open\library/pkparse.c **** #else
 461:Source\mbedtls_open\library/pkparse.c ****         return( MBEDTLS_ERR_PK_KEY_INVALID_FORMAT );
 462:Source\mbedtls_open\library/pkparse.c **** #endif
 463:Source\mbedtls_open\library/pkparse.c ****     }
 464:Source\mbedtls_open\library/pkparse.c **** 
 465:Source\mbedtls_open\library/pkparse.c ****     /*
 466:Source\mbedtls_open\library/pkparse.c ****      * grp may already be initilialized; if so, make sure IDs match
 467:Source\mbedtls_open\library/pkparse.c ****      */
 468:Source\mbedtls_open\library/pkparse.c ****     if( grp->id != MBEDTLS_ECP_DP_NONE && grp->id != grp_id )
 469:Source\mbedtls_open\library/pkparse.c ****         return( MBEDTLS_ERR_PK_KEY_INVALID_FORMAT );
 470:Source\mbedtls_open\library/pkparse.c **** 
 471:Source\mbedtls_open\library/pkparse.c ****     if( ( ret = mbedtls_ecp_group_load( grp, grp_id ) ) != 0 )
 472:Source\mbedtls_open\library/pkparse.c ****         return( ret );
 473:Source\mbedtls_open\library/pkparse.c **** 
 474:Source\mbedtls_open\library/pkparse.c ****     return( 0 );
 475:Source\mbedtls_open\library/pkparse.c **** }
 476:Source\mbedtls_open\library/pkparse.c **** 
 477:Source\mbedtls_open\library/pkparse.c **** /*
 478:Source\mbedtls_open\library/pkparse.c ****  * EC public key is an EC point
 479:Source\mbedtls_open\library/pkparse.c ****  *
 480:Source\mbedtls_open\library/pkparse.c ****  * The caller is responsible for clearing the structure upon failure if
 481:Source\mbedtls_open\library/pkparse.c ****  * desired. Take care to pass along the possible ECP_FEATURE_UNAVAILABLE
 482:Source\mbedtls_open\library/pkparse.c ****  * return code of mbedtls_ecp_point_read_binary() and leave p in a usable state.
 483:Source\mbedtls_open\library/pkparse.c ****  */
 484:Source\mbedtls_open\library/pkparse.c **** static int pk_get_ecpubkey( unsigned char **p, const unsigned char *end,
 485:Source\mbedtls_open\library/pkparse.c ****                             mbedtls_ecp_keypair *key )
 486:Source\mbedtls_open\library/pkparse.c **** {
 487:Source\mbedtls_open\library/pkparse.c ****     int ret;
 488:Source\mbedtls_open\library/pkparse.c **** 
 489:Source\mbedtls_open\library/pkparse.c ****     if( ( ret = mbedtls_ecp_point_read_binary( &key->grp, &key->Q,
 490:Source\mbedtls_open\library/pkparse.c ****                     (const unsigned char *) *p, end - *p ) ) == 0 )
 491:Source\mbedtls_open\library/pkparse.c ****     {
 492:Source\mbedtls_open\library/pkparse.c ****         ret = mbedtls_ecp_check_pubkey( &key->grp, &key->Q );
 493:Source\mbedtls_open\library/pkparse.c ****     }
 494:Source\mbedtls_open\library/pkparse.c **** 
ARM GAS  C:\Users\Phuong\AppData\Local\Temp\ccG6FMOL.s 			page 12


 495:Source\mbedtls_open\library/pkparse.c ****     /*
 496:Source\mbedtls_open\library/pkparse.c ****      * We know mbedtls_ecp_point_read_binary consumed all bytes or failed
 497:Source\mbedtls_open\library/pkparse.c ****      */
 498:Source\mbedtls_open\library/pkparse.c ****     *p = (unsigned char *) end;
 499:Source\mbedtls_open\library/pkparse.c **** 
 500:Source\mbedtls_open\library/pkparse.c ****     return( ret );
 501:Source\mbedtls_open\library/pkparse.c **** }
 502:Source\mbedtls_open\library/pkparse.c **** #endif /* MBEDTLS_ECP_C */
 503:Source\mbedtls_open\library/pkparse.c **** 
 504:Source\mbedtls_open\library/pkparse.c **** #if defined(MBEDTLS_RSA_C)
 505:Source\mbedtls_open\library/pkparse.c **** /*
 506:Source\mbedtls_open\library/pkparse.c ****  *  RSAPublicKey ::= SEQUENCE {
 507:Source\mbedtls_open\library/pkparse.c ****  *      modulus           INTEGER,  -- n
 508:Source\mbedtls_open\library/pkparse.c ****  *      publicExponent    INTEGER   -- e
 509:Source\mbedtls_open\library/pkparse.c ****  *  }
 510:Source\mbedtls_open\library/pkparse.c ****  */
 511:Source\mbedtls_open\library/pkparse.c **** static int pk_get_rsapubkey( unsigned char **p,
 512:Source\mbedtls_open\library/pkparse.c ****                              const unsigned char *end,
 513:Source\mbedtls_open\library/pkparse.c ****                              mbedtls_rsa_context *rsa )
 514:Source\mbedtls_open\library/pkparse.c **** {
 515:Source\mbedtls_open\library/pkparse.c ****     int ret;
 516:Source\mbedtls_open\library/pkparse.c ****     size_t len;
 517:Source\mbedtls_open\library/pkparse.c **** 
 518:Source\mbedtls_open\library/pkparse.c ****     if( ( ret = mbedtls_asn1_get_tag( p, end, &len,
 519:Source\mbedtls_open\library/pkparse.c ****             MBEDTLS_ASN1_CONSTRUCTED | MBEDTLS_ASN1_SEQUENCE ) ) != 0 )
 520:Source\mbedtls_open\library/pkparse.c ****         return( MBEDTLS_ERR_PK_INVALID_PUBKEY + ret );
 521:Source\mbedtls_open\library/pkparse.c **** 
 522:Source\mbedtls_open\library/pkparse.c ****     if( *p + len != end )
 523:Source\mbedtls_open\library/pkparse.c ****         return( MBEDTLS_ERR_PK_INVALID_PUBKEY +
 524:Source\mbedtls_open\library/pkparse.c ****                 MBEDTLS_ERR_ASN1_LENGTH_MISMATCH );
 525:Source\mbedtls_open\library/pkparse.c **** 
 526:Source\mbedtls_open\library/pkparse.c ****     /* Import N */
 527:Source\mbedtls_open\library/pkparse.c ****     if( ( ret = mbedtls_asn1_get_tag( p, end, &len, MBEDTLS_ASN1_INTEGER ) ) != 0 )
 528:Source\mbedtls_open\library/pkparse.c ****         return( MBEDTLS_ERR_PK_INVALID_PUBKEY + ret );
 529:Source\mbedtls_open\library/pkparse.c **** 
 530:Source\mbedtls_open\library/pkparse.c ****     if( ( ret = mbedtls_rsa_import_raw( rsa, *p, len, NULL, 0, NULL, 0,
 531:Source\mbedtls_open\library/pkparse.c ****                                         NULL, 0, NULL, 0 ) ) != 0 )
 532:Source\mbedtls_open\library/pkparse.c ****         return( MBEDTLS_ERR_PK_INVALID_PUBKEY );
 533:Source\mbedtls_open\library/pkparse.c **** 
 534:Source\mbedtls_open\library/pkparse.c ****     *p += len;
 535:Source\mbedtls_open\library/pkparse.c **** 
 536:Source\mbedtls_open\library/pkparse.c ****     /* Import E */
 537:Source\mbedtls_open\library/pkparse.c ****     if( ( ret = mbedtls_asn1_get_tag( p, end, &len, MBEDTLS_ASN1_INTEGER ) ) != 0 )
 538:Source\mbedtls_open\library/pkparse.c ****         return( MBEDTLS_ERR_PK_INVALID_PUBKEY + ret );
 539:Source\mbedtls_open\library/pkparse.c **** 
 540:Source\mbedtls_open\library/pkparse.c ****     if( ( ret = mbedtls_rsa_import_raw( rsa, NULL, 0, NULL, 0, NULL, 0,
 541:Source\mbedtls_open\library/pkparse.c ****                                         NULL, 0, *p, len ) ) != 0 )
 542:Source\mbedtls_open\library/pkparse.c ****         return( MBEDTLS_ERR_PK_INVALID_PUBKEY );
 543:Source\mbedtls_open\library/pkparse.c **** 
 544:Source\mbedtls_open\library/pkparse.c ****     *p += len;
 545:Source\mbedtls_open\library/pkparse.c **** 
 546:Source\mbedtls_open\library/pkparse.c ****     if( mbedtls_rsa_complete( rsa ) != 0 ||
 547:Source\mbedtls_open\library/pkparse.c ****         mbedtls_rsa_check_pubkey( rsa ) != 0 )
 548:Source\mbedtls_open\library/pkparse.c ****     {
 549:Source\mbedtls_open\library/pkparse.c ****         return( MBEDTLS_ERR_PK_INVALID_PUBKEY );
 550:Source\mbedtls_open\library/pkparse.c ****     }
 551:Source\mbedtls_open\library/pkparse.c **** 
ARM GAS  C:\Users\Phuong\AppData\Local\Temp\ccG6FMOL.s 			page 13


 552:Source\mbedtls_open\library/pkparse.c ****     if( *p != end )
 553:Source\mbedtls_open\library/pkparse.c ****         return( MBEDTLS_ERR_PK_INVALID_PUBKEY +
 554:Source\mbedtls_open\library/pkparse.c ****                 MBEDTLS_ERR_ASN1_LENGTH_MISMATCH );
 555:Source\mbedtls_open\library/pkparse.c **** 
 556:Source\mbedtls_open\library/pkparse.c ****     return( 0 );
 557:Source\mbedtls_open\library/pkparse.c **** }
 558:Source\mbedtls_open\library/pkparse.c **** #endif /* MBEDTLS_RSA_C */
 559:Source\mbedtls_open\library/pkparse.c **** 
 560:Source\mbedtls_open\library/pkparse.c **** /* Get a PK algorithm identifier
 561:Source\mbedtls_open\library/pkparse.c ****  *
 562:Source\mbedtls_open\library/pkparse.c ****  *  AlgorithmIdentifier  ::=  SEQUENCE  {
 563:Source\mbedtls_open\library/pkparse.c ****  *       algorithm               OBJECT IDENTIFIER,
 564:Source\mbedtls_open\library/pkparse.c ****  *       parameters              ANY DEFINED BY algorithm OPTIONAL  }
 565:Source\mbedtls_open\library/pkparse.c ****  */
 566:Source\mbedtls_open\library/pkparse.c **** static int pk_get_pk_alg( unsigned char **p,
 567:Source\mbedtls_open\library/pkparse.c ****                           const unsigned char *end,
 568:Source\mbedtls_open\library/pkparse.c ****                           mbedtls_pk_type_t *pk_alg, mbedtls_asn1_buf *params )
 569:Source\mbedtls_open\library/pkparse.c **** {
 132              		.loc 1 569 0
 133              		.cfi_startproc
 134              		@ args = 0, pretend = 0, frame = 16
 135              		@ frame_needed = 0, uses_anonymous_args = 0
 136              	.LVL17:
 137 0000 F0B5     		push	{r4, r5, r6, r7, lr}
 138              		.cfi_def_cfa_offset 20
 139              		.cfi_offset 4, -20
 140              		.cfi_offset 5, -16
 141              		.cfi_offset 6, -12
 142              		.cfi_offset 7, -8
 143              		.cfi_offset 14, -4
 144 0002 85B0     		sub	sp, sp, #20
 145              		.cfi_def_cfa_offset 40
 146 0004 0600     		movs	r6, r0
 147 0006 0F00     		movs	r7, r1
 148 0008 1500     		movs	r5, r2
 149 000a 1C00     		movs	r4, r3
 570:Source\mbedtls_open\library/pkparse.c ****     int ret;
 571:Source\mbedtls_open\library/pkparse.c ****     mbedtls_asn1_buf alg_oid;
 572:Source\mbedtls_open\library/pkparse.c **** 
 573:Source\mbedtls_open\library/pkparse.c ****     memset( params, 0, sizeof(mbedtls_asn1_buf) );
 150              		.loc 1 573 0
 151 000c 0C22     		movs	r2, #12
 152              	.LVL18:
 153 000e 0021     		movs	r1, #0
 154              	.LVL19:
 155 0010 1800     		movs	r0, r3
 156              	.LVL20:
 157 0012 FFF7FEFF 		bl	memset
 158              	.LVL21:
 574:Source\mbedtls_open\library/pkparse.c **** 
 575:Source\mbedtls_open\library/pkparse.c ****     if( ( ret = mbedtls_asn1_get_alg( p, end, &alg_oid, params ) ) != 0 )
 159              		.loc 1 575 0
 160 0016 2300     		movs	r3, r4
 161 0018 01AA     		add	r2, sp, #4
 162 001a 3900     		movs	r1, r7
 163 001c 3000     		movs	r0, r6
 164 001e FFF7FEFF 		bl	mbedtls_asn1_get_alg
ARM GAS  C:\Users\Phuong\AppData\Local\Temp\ccG6FMOL.s 			page 14


 165              	.LVL22:
 166 0022 0028     		cmp	r0, #0
 167 0024 03D0     		beq	.L11
 576:Source\mbedtls_open\library/pkparse.c ****         return( MBEDTLS_ERR_PK_INVALID_ALG + ret );
 168              		.loc 1 576 0
 169 0026 0E4B     		ldr	r3, .L17
 170 0028 9C46     		mov	ip, r3
 171 002a 6044     		add	r0, r0, ip
 172              	.LVL23:
 173 002c 16E0     		b	.L12
 174              	.LVL24:
 175              	.L11:
 577:Source\mbedtls_open\library/pkparse.c **** 
 578:Source\mbedtls_open\library/pkparse.c ****     if( mbedtls_oid_get_pk_alg( &alg_oid, pk_alg ) != 0 )
 176              		.loc 1 578 0
 177 002e 2900     		movs	r1, r5
 178 0030 01A8     		add	r0, sp, #4
 179              	.LVL25:
 180 0032 FFF7FEFF 		bl	mbedtls_oid_get_pk_alg
 181              	.LVL26:
 182 0036 0028     		cmp	r0, #0
 183 0038 0BD1     		bne	.L14
 579:Source\mbedtls_open\library/pkparse.c ****         return( MBEDTLS_ERR_PK_UNKNOWN_PK_ALG );
 580:Source\mbedtls_open\library/pkparse.c **** 
 581:Source\mbedtls_open\library/pkparse.c ****     /*
 582:Source\mbedtls_open\library/pkparse.c ****      * No parameters with RSA (only for EC)
 583:Source\mbedtls_open\library/pkparse.c ****      */
 584:Source\mbedtls_open\library/pkparse.c ****     if( *pk_alg == MBEDTLS_PK_RSA &&
 184              		.loc 1 584 0
 185 003a 2B78     		ldrb	r3, [r5]
 186 003c 012B     		cmp	r3, #1
 187 003e 0DD1     		bne	.L12
 585:Source\mbedtls_open\library/pkparse.c ****             ( ( params->tag != MBEDTLS_ASN1_NULL && params->tag != 0 ) ||
 188              		.loc 1 585 0 discriminator 1
 189 0040 2368     		ldr	r3, [r4]
 584:Source\mbedtls_open\library/pkparse.c ****             ( ( params->tag != MBEDTLS_ASN1_NULL && params->tag != 0 ) ||
 190              		.loc 1 584 0 discriminator 1
 191 0042 052B     		cmp	r3, #5
 192 0044 01D0     		beq	.L13
 193              		.loc 1 585 0
 194 0046 002B     		cmp	r3, #0
 195 0048 05D1     		bne	.L15
 196              	.L13:
 586:Source\mbedtls_open\library/pkparse.c ****                 params->len != 0 ) )
 197              		.loc 1 586 0 discriminator 1
 198 004a 6368     		ldr	r3, [r4, #4]
 585:Source\mbedtls_open\library/pkparse.c ****             ( ( params->tag != MBEDTLS_ASN1_NULL && params->tag != 0 ) ||
 199              		.loc 1 585 0 discriminator 1
 200 004c 002B     		cmp	r3, #0
 201 004e 05D0     		beq	.L12
 202 0050 03E0     		b	.L16
 203              	.L14:
 579:Source\mbedtls_open\library/pkparse.c **** 
 204              		.loc 1 579 0
 205 0052 0448     		ldr	r0, .L17+4
 206 0054 02E0     		b	.L12
 207              	.L15:
ARM GAS  C:\Users\Phuong\AppData\Local\Temp\ccG6FMOL.s 			page 15


 587:Source\mbedtls_open\library/pkparse.c ****     {
 588:Source\mbedtls_open\library/pkparse.c ****         return( MBEDTLS_ERR_PK_INVALID_ALG );
 208              		.loc 1 588 0
 209 0056 0248     		ldr	r0, .L17
 210 0058 00E0     		b	.L12
 211              	.L16:
 212 005a 0148     		ldr	r0, .L17
 213              	.L12:
 589:Source\mbedtls_open\library/pkparse.c ****     }
 590:Source\mbedtls_open\library/pkparse.c **** 
 591:Source\mbedtls_open\library/pkparse.c ****     return( 0 );
 592:Source\mbedtls_open\library/pkparse.c **** }
 214              		.loc 1 592 0
 215 005c 05B0     		add	sp, sp, #20
 216              		@ sp needed
 217              	.LVL27:
 218              	.LVL28:
 219              	.LVL29:
 220              	.LVL30:
 221 005e F0BD     		pop	{r4, r5, r6, r7, pc}
 222              	.L18:
 223              		.align	2
 224              	.L17:
 225 0060 80C5FFFF 		.word	-14976
 226 0064 80C3FFFF 		.word	-15488
 227              		.cfi_endproc
 228              	.LFE18:
 229              		.size	pk_get_pk_alg, .-pk_get_pk_alg
 230              		.section	.text.pk_get_rsapubkey,"ax",%progbits
 231              		.align	2
 232              		.code	16
 233              		.thumb_func
 234              		.type	pk_get_rsapubkey, %function
 235              	pk_get_rsapubkey:
 236              	.LFB17:
 514:Source\mbedtls_open\library/pkparse.c ****     int ret;
 237              		.loc 1 514 0
 238              		.cfi_startproc
 239              		@ args = 0, pretend = 0, frame = 8
 240              		@ frame_needed = 0, uses_anonymous_args = 0
 241              	.LVL31:
 242 0000 70B5     		push	{r4, r5, r6, lr}
 243              		.cfi_def_cfa_offset 16
 244              		.cfi_offset 4, -16
 245              		.cfi_offset 5, -12
 246              		.cfi_offset 6, -8
 247              		.cfi_offset 14, -4
 248 0002 8AB0     		sub	sp, sp, #40
 249              		.cfi_def_cfa_offset 56
 250 0004 0600     		movs	r6, r0
 251 0006 0C00     		movs	r4, r1
 252 0008 1500     		movs	r5, r2
 518:Source\mbedtls_open\library/pkparse.c ****             MBEDTLS_ASN1_CONSTRUCTED | MBEDTLS_ASN1_SEQUENCE ) ) != 0 )
 253              		.loc 1 518 0
 254 000a 3023     		movs	r3, #48
 255 000c 09AA     		add	r2, sp, #36
 256              	.LVL32:
ARM GAS  C:\Users\Phuong\AppData\Local\Temp\ccG6FMOL.s 			page 16


 257 000e FFF7FEFF 		bl	mbedtls_asn1_get_tag
 258              	.LVL33:
 259 0012 0028     		cmp	r0, #0
 260 0014 03D0     		beq	.L20
 520:Source\mbedtls_open\library/pkparse.c **** 
 261              		.loc 1 520 0
 262 0016 334B     		ldr	r3, .L29
 263 0018 9C46     		mov	ip, r3
 264 001a 6044     		add	r0, r0, ip
 265              	.LVL34:
 266 001c 5FE0     		b	.L21
 267              	.LVL35:
 268              	.L20:
 522:Source\mbedtls_open\library/pkparse.c ****         return( MBEDTLS_ERR_PK_INVALID_PUBKEY +
 269              		.loc 1 522 0
 270 001e 3368     		ldr	r3, [r6]
 271 0020 099A     		ldr	r2, [sp, #36]
 272 0022 9446     		mov	ip, r2
 273 0024 6344     		add	r3, r3, ip
 274 0026 9C42     		cmp	r4, r3
 275 0028 50D1     		bne	.L24
 527:Source\mbedtls_open\library/pkparse.c ****         return( MBEDTLS_ERR_PK_INVALID_PUBKEY + ret );
 276              		.loc 1 527 0
 277 002a 0223     		movs	r3, #2
 278 002c 09AA     		add	r2, sp, #36
 279 002e 2100     		movs	r1, r4
 280 0030 3000     		movs	r0, r6
 281              	.LVL36:
 282 0032 FFF7FEFF 		bl	mbedtls_asn1_get_tag
 283              	.LVL37:
 284 0036 0028     		cmp	r0, #0
 285 0038 03D0     		beq	.L22
 528:Source\mbedtls_open\library/pkparse.c **** 
 286              		.loc 1 528 0
 287 003a 2A4B     		ldr	r3, .L29
 288 003c 9C46     		mov	ip, r3
 289 003e 6044     		add	r0, r0, ip
 290              	.LVL38:
 291 0040 4DE0     		b	.L21
 292              	.LVL39:
 293              	.L22:
 530:Source\mbedtls_open\library/pkparse.c ****                                         NULL, 0, NULL, 0 ) ) != 0 )
 294              		.loc 1 530 0
 295 0042 0023     		movs	r3, #0
 296 0044 0693     		str	r3, [sp, #24]
 297 0046 0593     		str	r3, [sp, #20]
 298 0048 0493     		str	r3, [sp, #16]
 299 004a 0393     		str	r3, [sp, #12]
 300 004c 0293     		str	r3, [sp, #8]
 301 004e 0193     		str	r3, [sp, #4]
 302 0050 0093     		str	r3, [sp]
 303 0052 099A     		ldr	r2, [sp, #36]
 304 0054 3168     		ldr	r1, [r6]
 305 0056 2800     		movs	r0, r5
 306              	.LVL40:
 307 0058 FFF7FEFF 		bl	mbedtls_rsa_import_raw
 308              	.LVL41:
ARM GAS  C:\Users\Phuong\AppData\Local\Temp\ccG6FMOL.s 			page 17


 309 005c 0028     		cmp	r0, #0
 310 005e 37D1     		bne	.L25
 534:Source\mbedtls_open\library/pkparse.c **** 
 311              		.loc 1 534 0
 312 0060 3368     		ldr	r3, [r6]
 313 0062 099A     		ldr	r2, [sp, #36]
 314 0064 9446     		mov	ip, r2
 315 0066 6344     		add	r3, r3, ip
 316 0068 3360     		str	r3, [r6]
 537:Source\mbedtls_open\library/pkparse.c ****         return( MBEDTLS_ERR_PK_INVALID_PUBKEY + ret );
 317              		.loc 1 537 0
 318 006a 0223     		movs	r3, #2
 319 006c 09AA     		add	r2, sp, #36
 320 006e 2100     		movs	r1, r4
 321 0070 3000     		movs	r0, r6
 322              	.LVL42:
 323 0072 FFF7FEFF 		bl	mbedtls_asn1_get_tag
 324              	.LVL43:
 325 0076 0028     		cmp	r0, #0
 326 0078 03D0     		beq	.L23
 538:Source\mbedtls_open\library/pkparse.c **** 
 327              		.loc 1 538 0
 328 007a 1A4B     		ldr	r3, .L29
 329 007c 9C46     		mov	ip, r3
 330 007e 6044     		add	r0, r0, ip
 331              	.LVL44:
 332 0080 2DE0     		b	.L21
 333              	.LVL45:
 334              	.L23:
 540:Source\mbedtls_open\library/pkparse.c ****                                         NULL, 0, *p, len ) ) != 0 )
 335              		.loc 1 540 0
 336 0082 099B     		ldr	r3, [sp, #36]
 337 0084 0693     		str	r3, [sp, #24]
 338 0086 3368     		ldr	r3, [r6]
 339 0088 0593     		str	r3, [sp, #20]
 340 008a 0023     		movs	r3, #0
 341 008c 0493     		str	r3, [sp, #16]
 342 008e 0393     		str	r3, [sp, #12]
 343 0090 0293     		str	r3, [sp, #8]
 344 0092 0193     		str	r3, [sp, #4]
 345 0094 0093     		str	r3, [sp]
 346 0096 0022     		movs	r2, #0
 347 0098 0021     		movs	r1, #0
 348 009a 2800     		movs	r0, r5
 349              	.LVL46:
 350 009c FFF7FEFF 		bl	mbedtls_rsa_import_raw
 351              	.LVL47:
 352 00a0 0028     		cmp	r0, #0
 353 00a2 17D1     		bne	.L26
 544:Source\mbedtls_open\library/pkparse.c **** 
 354              		.loc 1 544 0
 355 00a4 3368     		ldr	r3, [r6]
 356 00a6 099A     		ldr	r2, [sp, #36]
 357 00a8 9446     		mov	ip, r2
 358 00aa 6344     		add	r3, r3, ip
 359 00ac 3360     		str	r3, [r6]
 546:Source\mbedtls_open\library/pkparse.c ****         mbedtls_rsa_check_pubkey( rsa ) != 0 )
ARM GAS  C:\Users\Phuong\AppData\Local\Temp\ccG6FMOL.s 			page 18


 360              		.loc 1 546 0
 361 00ae 2800     		movs	r0, r5
 362              	.LVL48:
 363 00b0 FFF7FEFF 		bl	mbedtls_rsa_complete
 364              	.LVL49:
 365 00b4 0028     		cmp	r0, #0
 366 00b6 0FD1     		bne	.L27
 547:Source\mbedtls_open\library/pkparse.c ****     {
 367              		.loc 1 547 0 discriminator 1
 368 00b8 2800     		movs	r0, r5
 369 00ba FFF7FEFF 		bl	mbedtls_rsa_check_pubkey
 370              	.LVL50:
 546:Source\mbedtls_open\library/pkparse.c ****         mbedtls_rsa_check_pubkey( rsa ) != 0 )
 371              		.loc 1 546 0 discriminator 1
 372 00be 0028     		cmp	r0, #0
 373 00c0 0CD1     		bne	.L28
 552:Source\mbedtls_open\library/pkparse.c ****         return( MBEDTLS_ERR_PK_INVALID_PUBKEY +
 374              		.loc 1 552 0
 375 00c2 3368     		ldr	r3, [r6]
 376 00c4 9C42     		cmp	r4, r3
 377 00c6 0AD0     		beq	.L21
 553:Source\mbedtls_open\library/pkparse.c ****                 MBEDTLS_ERR_ASN1_LENGTH_MISMATCH );
 378              		.loc 1 553 0
 379 00c8 0748     		ldr	r0, .L29+4
 380 00ca 08E0     		b	.L21
 381              	.LVL51:
 382              	.L24:
 523:Source\mbedtls_open\library/pkparse.c ****                 MBEDTLS_ERR_ASN1_LENGTH_MISMATCH );
 383              		.loc 1 523 0
 384 00cc 0648     		ldr	r0, .L29+4
 385              	.LVL52:
 386 00ce 06E0     		b	.L21
 387              	.LVL53:
 388              	.L25:
 532:Source\mbedtls_open\library/pkparse.c **** 
 389              		.loc 1 532 0
 390 00d0 0448     		ldr	r0, .L29
 391              	.LVL54:
 392 00d2 04E0     		b	.L21
 393              	.LVL55:
 394              	.L26:
 542:Source\mbedtls_open\library/pkparse.c **** 
 395              		.loc 1 542 0
 396 00d4 0348     		ldr	r0, .L29
 397              	.LVL56:
 398 00d6 02E0     		b	.L21
 399              	.L27:
 549:Source\mbedtls_open\library/pkparse.c ****     }
 400              		.loc 1 549 0
 401 00d8 0248     		ldr	r0, .L29
 402 00da 00E0     		b	.L21
 403              	.L28:
 404 00dc 0148     		ldr	r0, .L29
 405              	.L21:
 557:Source\mbedtls_open\library/pkparse.c **** #endif /* MBEDTLS_RSA_C */
 406              		.loc 1 557 0
 407 00de 0AB0     		add	sp, sp, #40
ARM GAS  C:\Users\Phuong\AppData\Local\Temp\ccG6FMOL.s 			page 19


 408              		@ sp needed
 409              	.LVL57:
 410              	.LVL58:
 411              	.LVL59:
 412 00e0 70BD     		pop	{r4, r5, r6, pc}
 413              	.L30:
 414 00e2 C046     		.align	2
 415              	.L29:
 416 00e4 00C5FFFF 		.word	-15104
 417 00e8 9AC4FFFF 		.word	-15206
 418              		.cfi_endproc
 419              	.LFE17:
 420              		.size	pk_get_rsapubkey, .-pk_get_rsapubkey
 421              		.section	.text.pk_group_from_specified,"ax",%progbits
 422              		.align	2
 423              		.code	16
 424              		.thumb_func
 425              		.type	pk_group_from_specified, %function
 426              	pk_group_from_specified:
 427              	.LFB12:
 229:Source\mbedtls_open\library/pkparse.c ****     int ret;
 428              		.loc 1 229 0
 429              		.cfi_startproc
 430              		@ args = 0, pretend = 0, frame = 16
 431              		@ frame_needed = 0, uses_anonymous_args = 0
 432              	.LVL60:
 433 0000 F0B5     		push	{r4, r5, r6, r7, lr}
 434              		.cfi_def_cfa_offset 20
 435              		.cfi_offset 4, -20
 436              		.cfi_offset 5, -16
 437              		.cfi_offset 6, -12
 438              		.cfi_offset 7, -8
 439              		.cfi_offset 14, -4
 440 0002 4F46     		mov	r7, r9
 441 0004 4646     		mov	r6, r8
 442 0006 C0B4     		push	{r6, r7}
 443              		.cfi_def_cfa_offset 28
 444              		.cfi_offset 8, -28
 445              		.cfi_offset 9, -24
 446 0008 85B0     		sub	sp, sp, #20
 447              		.cfi_def_cfa_offset 48
 448 000a 0C00     		movs	r4, r1
 231:Source\mbedtls_open\library/pkparse.c ****     const unsigned char * const end = params->p + params->len;
 449              		.loc 1 231 0
 450 000c 8368     		ldr	r3, [r0, #8]
 451 000e 0393     		str	r3, [sp, #12]
 232:Source\mbedtls_open\library/pkparse.c ****     const unsigned char *end_field, *end_curve;
 452              		.loc 1 232 0
 453 0010 4568     		ldr	r5, [r0, #4]
 454 0012 5D19     		adds	r5, r3, r5
 455              	.LVL61:
 238:Source\mbedtls_open\library/pkparse.c ****         return( MBEDTLS_ERR_PK_KEY_INVALID_FORMAT + ret );
 456              		.loc 1 238 0
 457 0014 01AA     		add	r2, sp, #4
 458 0016 2900     		movs	r1, r5
 459              	.LVL62:
 460 0018 03A8     		add	r0, sp, #12
ARM GAS  C:\Users\Phuong\AppData\Local\Temp\ccG6FMOL.s 			page 20


 461              	.LVL63:
 462 001a FFF7FEFF 		bl	mbedtls_asn1_get_int
 463              	.LVL64:
 464 001e 0028     		cmp	r0, #0
 465 0020 02D0     		beq	.L32
 239:Source\mbedtls_open\library/pkparse.c **** 
 466              		.loc 1 239 0
 467 0022 824B     		ldr	r3, .L57
 468 0024 C618     		adds	r6, r0, r3
 469 0026 FAE0     		b	.L33
 470              	.L32:
 241:Source\mbedtls_open\library/pkparse.c ****         return( MBEDTLS_ERR_PK_KEY_INVALID_FORMAT );
 471              		.loc 1 241 0
 472 0028 019B     		ldr	r3, [sp, #4]
 473 002a 5A1E     		subs	r2, r3, #1
 474 002c 022A     		cmp	r2, #2
 475 002e 00D9     		bls	.LCB491
 476 0030 DAE0     		b	.L43	@long jump
 477              	.LCB491:
 250:Source\mbedtls_open\library/pkparse.c ****             MBEDTLS_ASN1_CONSTRUCTED | MBEDTLS_ASN1_SEQUENCE ) ) != 0 )
 478              		.loc 1 250 0
 479 0032 3023     		movs	r3, #48
 480 0034 02AA     		add	r2, sp, #8
 481 0036 2900     		movs	r1, r5
 482 0038 03A8     		add	r0, sp, #12
 483              	.LVL65:
 484 003a FFF7FEFF 		bl	mbedtls_asn1_get_tag
 485              	.LVL66:
 486 003e 0028     		cmp	r0, #0
 487 0040 00D0     		beq	.LCB501
 488 0042 D3E0     		b	.L44	@long jump
 489              	.LCB501:
 254:Source\mbedtls_open\library/pkparse.c **** 
 490              		.loc 1 254 0
 491 0044 039B     		ldr	r3, [sp, #12]
 492 0046 029A     		ldr	r2, [sp, #8]
 493 0048 9446     		mov	ip, r2
 494 004a 6344     		add	r3, r3, ip
 495 004c 9846     		mov	r8, r3
 496              	.LVL67:
 264:Source\mbedtls_open\library/pkparse.c ****         return( ret );
 497              		.loc 1 264 0
 498 004e 0623     		movs	r3, #6
 499              	.LVL68:
 500 0050 02AA     		add	r2, sp, #8
 501 0052 4146     		mov	r1, r8
 502 0054 03A8     		add	r0, sp, #12
 503              	.LVL69:
 504 0056 FFF7FEFF 		bl	mbedtls_asn1_get_tag
 505              	.LVL70:
 506 005a 0028     		cmp	r0, #0
 507 005c 00D0     		beq	.LCB520
 508 005e C7E0     		b	.L45	@long jump
 509              	.LCB520:
 267:Source\mbedtls_open\library/pkparse.c ****         memcmp( p, MBEDTLS_OID_ANSI_X9_62_PRIME_FIELD, len ) != 0 )
 510              		.loc 1 267 0
 511 0060 029F     		ldr	r7, [sp, #8]
ARM GAS  C:\Users\Phuong\AppData\Local\Temp\ccG6FMOL.s 			page 21


 512 0062 072F     		cmp	r7, #7
 513 0064 00D0     		beq	.LCB523
 514 0066 C5E0     		b	.L46	@long jump
 515              	.LCB523:
 268:Source\mbedtls_open\library/pkparse.c ****     {
 516              		.loc 1 268 0 discriminator 1
 517 0068 039B     		ldr	r3, [sp, #12]
 518 006a 9946     		mov	r9, r3
 519 006c 3A00     		movs	r2, r7
 520 006e 7049     		ldr	r1, .L57+4
 521 0070 1800     		movs	r0, r3
 522              	.LVL71:
 523 0072 FFF7FEFF 		bl	memcmp
 524              	.LVL72:
 525 0076 061E     		subs	r6, r0, #0
 267:Source\mbedtls_open\library/pkparse.c ****         memcmp( p, MBEDTLS_OID_ANSI_X9_62_PRIME_FIELD, len ) != 0 )
 526              		.loc 1 267 0 discriminator 1
 527 0078 00D0     		beq	.LCB534
 528 007a BDE0     		b	.L47	@long jump
 529              	.LCB534:
 273:Source\mbedtls_open\library/pkparse.c **** 
 530              		.loc 1 273 0
 531 007c 4F44     		add	r7, r7, r9
 532 007e 0397     		str	r7, [sp, #12]
 276:Source\mbedtls_open\library/pkparse.c ****         return( MBEDTLS_ERR_PK_KEY_INVALID_FORMAT + ret );
 533              		.loc 1 276 0
 534 0080 271D     		adds	r7, r4, #4
 535 0082 3A00     		movs	r2, r7
 536 0084 4146     		mov	r1, r8
 537 0086 03A8     		add	r0, sp, #12
 538 0088 FFF7FEFF 		bl	mbedtls_asn1_get_mpi
 539              	.LVL73:
 540 008c 0028     		cmp	r0, #0
 541 008e 02D0     		beq	.L34
 277:Source\mbedtls_open\library/pkparse.c **** 
 542              		.loc 1 277 0
 543 0090 664B     		ldr	r3, .L57
 544 0092 C618     		adds	r6, r0, r3
 545 0094 C3E0     		b	.L33
 546              	.L34:
 279:Source\mbedtls_open\library/pkparse.c **** 
 547              		.loc 1 279 0
 548 0096 3800     		movs	r0, r7
 549              	.LVL74:
 550 0098 FFF7FEFF 		bl	mbedtls_mpi_bitlen
 551              	.LVL75:
 552 009c A065     		str	r0, [r4, #88]
 281:Source\mbedtls_open\library/pkparse.c ****         return( MBEDTLS_ERR_PK_KEY_INVALID_FORMAT +
 553              		.loc 1 281 0
 554 009e 039B     		ldr	r3, [sp, #12]
 555 00a0 9845     		cmp	r8, r3
 556 00a2 00D0     		beq	.LCB560
 557 00a4 AAE0     		b	.L48	@long jump
 558              	.LCB560:
 294:Source\mbedtls_open\library/pkparse.c ****             MBEDTLS_ASN1_CONSTRUCTED | MBEDTLS_ASN1_SEQUENCE ) ) != 0 )
 559              		.loc 1 294 0
 560 00a6 3023     		movs	r3, #48
ARM GAS  C:\Users\Phuong\AppData\Local\Temp\ccG6FMOL.s 			page 22


 561 00a8 02AA     		add	r2, sp, #8
 562 00aa 2900     		movs	r1, r5
 563 00ac 03A8     		add	r0, sp, #12
 564 00ae FFF7FEFF 		bl	mbedtls_asn1_get_tag
 565              	.LVL76:
 566 00b2 0028     		cmp	r0, #0
 567 00b4 00D0     		beq	.LCB569
 568 00b6 A3E0     		b	.L49	@long jump
 569              	.LCB569:
 298:Source\mbedtls_open\library/pkparse.c **** 
 570              		.loc 1 298 0
 571 00b8 039B     		ldr	r3, [sp, #12]
 572 00ba 029A     		ldr	r2, [sp, #8]
 573 00bc 9446     		mov	ip, r2
 574 00be 6344     		add	r3, r3, ip
 575 00c0 9846     		mov	r8, r3
 576              	.LVL77:
 304:Source\mbedtls_open\library/pkparse.c ****         ( ret = mbedtls_mpi_read_binary( &grp->A, p, len ) ) != 0 )
 577              		.loc 1 304 0
 578 00c2 0423     		movs	r3, #4
 579              	.LVL78:
 580 00c4 02AA     		add	r2, sp, #8
 581 00c6 4146     		mov	r1, r8
 582 00c8 03A8     		add	r0, sp, #12
 583              	.LVL79:
 584 00ca FFF7FEFF 		bl	mbedtls_asn1_get_tag
 585              	.LVL80:
 586 00ce 0028     		cmp	r0, #0
 587 00d0 07D1     		bne	.L35
 305:Source\mbedtls_open\library/pkparse.c ****     {
 588              		.loc 1 305 0 discriminator 1
 589 00d2 2000     		movs	r0, r4
 590              	.LVL81:
 591 00d4 1030     		adds	r0, r0, #16
 304:Source\mbedtls_open\library/pkparse.c ****         ( ret = mbedtls_mpi_read_binary( &grp->A, p, len ) ) != 0 )
 592              		.loc 1 304 0 discriminator 1
 593 00d6 029A     		ldr	r2, [sp, #8]
 594 00d8 0399     		ldr	r1, [sp, #12]
 595 00da FFF7FEFF 		bl	mbedtls_mpi_read_binary
 596              	.LVL82:
 597 00de 0028     		cmp	r0, #0
 598 00e0 02D0     		beq	.L36
 599              	.L35:
 307:Source\mbedtls_open\library/pkparse.c ****     }
 600              		.loc 1 307 0
 601 00e2 524B     		ldr	r3, .L57
 602 00e4 C618     		adds	r6, r0, r3
 603 00e6 9AE0     		b	.L33
 604              	.L36:
 310:Source\mbedtls_open\library/pkparse.c **** 
 605              		.loc 1 310 0
 606 00e8 039B     		ldr	r3, [sp, #12]
 607 00ea 029A     		ldr	r2, [sp, #8]
 608 00ec 9446     		mov	ip, r2
 609 00ee 6344     		add	r3, r3, ip
 610 00f0 0393     		str	r3, [sp, #12]
 312:Source\mbedtls_open\library/pkparse.c ****         ( ret = mbedtls_mpi_read_binary( &grp->B, p, len ) ) != 0 )
ARM GAS  C:\Users\Phuong\AppData\Local\Temp\ccG6FMOL.s 			page 23


 611              		.loc 1 312 0
 612 00f2 0423     		movs	r3, #4
 613 00f4 02AA     		add	r2, sp, #8
 614 00f6 4146     		mov	r1, r8
 615 00f8 03A8     		add	r0, sp, #12
 616              	.LVL83:
 617 00fa FFF7FEFF 		bl	mbedtls_asn1_get_tag
 618              	.LVL84:
 619 00fe 0028     		cmp	r0, #0
 620 0100 07D1     		bne	.L37
 313:Source\mbedtls_open\library/pkparse.c ****     {
 621              		.loc 1 313 0 discriminator 1
 622 0102 2000     		movs	r0, r4
 623              	.LVL85:
 624 0104 1C30     		adds	r0, r0, #28
 312:Source\mbedtls_open\library/pkparse.c ****         ( ret = mbedtls_mpi_read_binary( &grp->B, p, len ) ) != 0 )
 625              		.loc 1 312 0 discriminator 1
 626 0106 029A     		ldr	r2, [sp, #8]
 627 0108 0399     		ldr	r1, [sp, #12]
 628 010a FFF7FEFF 		bl	mbedtls_mpi_read_binary
 629              	.LVL86:
 630 010e 0028     		cmp	r0, #0
 631 0110 02D0     		beq	.L38
 632              	.L37:
 315:Source\mbedtls_open\library/pkparse.c ****     }
 633              		.loc 1 315 0
 634 0112 464B     		ldr	r3, .L57
 635 0114 C618     		adds	r6, r0, r3
 636 0116 82E0     		b	.L33
 637              	.L38:
 318:Source\mbedtls_open\library/pkparse.c **** 
 638              		.loc 1 318 0
 639 0118 039B     		ldr	r3, [sp, #12]
 640 011a 029A     		ldr	r2, [sp, #8]
 641 011c 9446     		mov	ip, r2
 642 011e 6344     		add	r3, r3, ip
 643 0120 0393     		str	r3, [sp, #12]
 321:Source\mbedtls_open\library/pkparse.c ****         p += len;
 644              		.loc 1 321 0
 645 0122 0323     		movs	r3, #3
 646 0124 02AA     		add	r2, sp, #8
 647 0126 4146     		mov	r1, r8
 648 0128 03A8     		add	r0, sp, #12
 649              	.LVL87:
 650 012a FFF7FEFF 		bl	mbedtls_asn1_get_tag
 651              	.LVL88:
 652 012e 0028     		cmp	r0, #0
 653 0130 04D1     		bne	.L39
 322:Source\mbedtls_open\library/pkparse.c **** 
 654              		.loc 1 322 0
 655 0132 039B     		ldr	r3, [sp, #12]
 656 0134 029A     		ldr	r2, [sp, #8]
 657 0136 9446     		mov	ip, r2
 658 0138 6344     		add	r3, r3, ip
 659 013a 0393     		str	r3, [sp, #12]
 660              	.L39:
 324:Source\mbedtls_open\library/pkparse.c ****         return( MBEDTLS_ERR_PK_KEY_INVALID_FORMAT +
ARM GAS  C:\Users\Phuong\AppData\Local\Temp\ccG6FMOL.s 			page 24


 661              		.loc 1 324 0
 662 013c 039B     		ldr	r3, [sp, #12]
 663 013e 9845     		cmp	r8, r3
 664 0140 60D1     		bne	.L50
 331:Source\mbedtls_open\library/pkparse.c ****         return( MBEDTLS_ERR_PK_KEY_INVALID_FORMAT + ret );
 665              		.loc 1 331 0
 666 0142 0423     		movs	r3, #4
 667 0144 02AA     		add	r2, sp, #8
 668 0146 2900     		movs	r1, r5
 669 0148 03A8     		add	r0, sp, #12
 670              	.LVL89:
 671 014a FFF7FEFF 		bl	mbedtls_asn1_get_tag
 672              	.LVL90:
 673 014e 0028     		cmp	r0, #0
 674 0150 02D0     		beq	.L40
 332:Source\mbedtls_open\library/pkparse.c **** 
 675              		.loc 1 332 0
 676 0152 364B     		ldr	r3, .L57
 677 0154 C618     		adds	r6, r0, r3
 678 0156 62E0     		b	.L33
 679              	.L40:
 334:Source\mbedtls_open\library/pkparse.c ****                                       ( const unsigned char *) p, len ) ) != 0 )
 680              		.loc 1 334 0
 681 0158 2100     		movs	r1, r4
 682 015a 2831     		adds	r1, r1, #40
 683 015c 029B     		ldr	r3, [sp, #8]
 684 015e 039A     		ldr	r2, [sp, #12]
 685 0160 2000     		movs	r0, r4
 686              	.LVL91:
 687 0162 FFF7FEFF 		bl	mbedtls_ecp_point_read_binary
 688              	.LVL92:
 689 0166 0028     		cmp	r0, #0
 690 0168 28D0     		beq	.L41
 341:Source\mbedtls_open\library/pkparse.c ****             ( p[0] != 0x02 && p[0] != 0x03 ) ||
 691              		.loc 1 341 0
 692 016a 324B     		ldr	r3, .L57+8
 693 016c 9842     		cmp	r0, r3
 694 016e 4BD1     		bne	.L51
 342:Source\mbedtls_open\library/pkparse.c ****             len != mbedtls_mpi_size( &grp->P ) + 1 ||
 695              		.loc 1 342 0 discriminator 1
 696 0170 039B     		ldr	r3, [sp, #12]
 697 0172 1B78     		ldrb	r3, [r3]
 698 0174 023B     		subs	r3, r3, #2
 699 0176 DBB2     		uxtb	r3, r3
 341:Source\mbedtls_open\library/pkparse.c ****             ( p[0] != 0x02 && p[0] != 0x03 ) ||
 700              		.loc 1 341 0 discriminator 1
 701 0178 012B     		cmp	r3, #1
 702 017a 47D8     		bhi	.L52
 343:Source\mbedtls_open\library/pkparse.c ****             mbedtls_mpi_read_binary( &grp->G.X, p + 1, len - 1 ) != 0 ||
 703              		.loc 1 343 0
 704 017c 3800     		movs	r0, r7
 705              	.LVL93:
 706 017e FFF7FEFF 		bl	mbedtls_mpi_size
 707              	.LVL94:
 708 0182 0130     		adds	r0, r0, #1
 709 0184 029A     		ldr	r2, [sp, #8]
 342:Source\mbedtls_open\library/pkparse.c ****             len != mbedtls_mpi_size( &grp->P ) + 1 ||
ARM GAS  C:\Users\Phuong\AppData\Local\Temp\ccG6FMOL.s 			page 25


 710              		.loc 1 342 0
 711 0186 9042     		cmp	r0, r2
 712 0188 42D1     		bne	.L53
 344:Source\mbedtls_open\library/pkparse.c ****             mbedtls_mpi_lset( &grp->G.Y, p[0] - 2 ) != 0 ||
 713              		.loc 1 344 0
 714 018a 013A     		subs	r2, r2, #1
 715 018c 039B     		ldr	r3, [sp, #12]
 716 018e 591C     		adds	r1, r3, #1
 717 0190 2000     		movs	r0, r4
 718 0192 2830     		adds	r0, r0, #40
 719 0194 FFF7FEFF 		bl	mbedtls_mpi_read_binary
 720              	.LVL95:
 343:Source\mbedtls_open\library/pkparse.c ****             mbedtls_mpi_read_binary( &grp->G.X, p + 1, len - 1 ) != 0 ||
 721              		.loc 1 343 0
 722 0198 0028     		cmp	r0, #0
 723 019a 3BD1     		bne	.L54
 345:Source\mbedtls_open\library/pkparse.c ****             mbedtls_mpi_lset( &grp->G.Z, 1 ) != 0 )
 724              		.loc 1 345 0
 725 019c 039B     		ldr	r3, [sp, #12]
 726 019e 1978     		ldrb	r1, [r3]
 727 01a0 0239     		subs	r1, r1, #2
 728 01a2 2000     		movs	r0, r4
 729 01a4 3430     		adds	r0, r0, #52
 730 01a6 FFF7FEFF 		bl	mbedtls_mpi_lset
 731              	.LVL96:
 344:Source\mbedtls_open\library/pkparse.c ****             mbedtls_mpi_lset( &grp->G.Y, p[0] - 2 ) != 0 ||
 732              		.loc 1 344 0
 733 01aa 0028     		cmp	r0, #0
 734 01ac 34D1     		bne	.L55
 346:Source\mbedtls_open\library/pkparse.c ****         {
 735              		.loc 1 346 0
 736 01ae 2000     		movs	r0, r4
 737 01b0 4030     		adds	r0, r0, #64
 738 01b2 0121     		movs	r1, #1
 739 01b4 FFF7FEFF 		bl	mbedtls_mpi_lset
 740              	.LVL97:
 345:Source\mbedtls_open\library/pkparse.c ****             mbedtls_mpi_lset( &grp->G.Z, 1 ) != 0 )
 741              		.loc 1 345 0
 742 01b8 0028     		cmp	r0, #0
 743 01ba 2FD1     		bne	.L56
 744              	.L41:
 352:Source\mbedtls_open\library/pkparse.c **** 
 745              		.loc 1 352 0
 746 01bc 039B     		ldr	r3, [sp, #12]
 747 01be 029A     		ldr	r2, [sp, #8]
 748 01c0 9446     		mov	ip, r2
 749 01c2 6344     		add	r3, r3, ip
 750 01c4 0393     		str	r3, [sp, #12]
 357:Source\mbedtls_open\library/pkparse.c ****         return( MBEDTLS_ERR_PK_KEY_INVALID_FORMAT + ret );
 751              		.loc 1 357 0
 752 01c6 2700     		movs	r7, r4
 753 01c8 4C37     		adds	r7, r7, #76
 754 01ca 3A00     		movs	r2, r7
 755 01cc 2900     		movs	r1, r5
 756 01ce 03A8     		add	r0, sp, #12
 757 01d0 FFF7FEFF 		bl	mbedtls_asn1_get_mpi
 758              	.LVL98:
ARM GAS  C:\Users\Phuong\AppData\Local\Temp\ccG6FMOL.s 			page 26


 759 01d4 0028     		cmp	r0, #0
 760 01d6 02D0     		beq	.L42
 358:Source\mbedtls_open\library/pkparse.c **** 
 761              		.loc 1 358 0
 762 01d8 144B     		ldr	r3, .L57
 763 01da C618     		adds	r6, r0, r3
 764 01dc 1FE0     		b	.L33
 765              	.L42:
 360:Source\mbedtls_open\library/pkparse.c **** 
 766              		.loc 1 360 0
 767 01de 3800     		movs	r0, r7
 768              	.LVL99:
 769 01e0 FFF7FEFF 		bl	mbedtls_mpi_bitlen
 770              	.LVL100:
 771 01e4 E065     		str	r0, [r4, #92]
 366:Source\mbedtls_open\library/pkparse.c **** }
 772              		.loc 1 366 0
 773 01e6 1AE0     		b	.L33
 774              	.LVL101:
 775              	.L43:
 242:Source\mbedtls_open\library/pkparse.c **** 
 776              		.loc 1 242 0
 777 01e8 104E     		ldr	r6, .L57
 778 01ea 18E0     		b	.L33
 779              	.L44:
 252:Source\mbedtls_open\library/pkparse.c **** 
 780              		.loc 1 252 0
 781 01ec 0600     		movs	r6, r0
 782 01ee 16E0     		b	.L33
 783              	.LVL102:
 784              	.L45:
 265:Source\mbedtls_open\library/pkparse.c **** 
 785              		.loc 1 265 0
 786 01f0 0600     		movs	r6, r0
 787 01f2 14E0     		b	.L33
 788              	.L46:
 270:Source\mbedtls_open\library/pkparse.c ****     }
 789              		.loc 1 270 0
 790 01f4 104E     		ldr	r6, .L57+12
 791 01f6 12E0     		b	.L33
 792              	.LVL103:
 793              	.L47:
 794 01f8 0F4E     		ldr	r6, .L57+12
 795 01fa 10E0     		b	.L33
 796              	.L48:
 282:Source\mbedtls_open\library/pkparse.c ****                 MBEDTLS_ERR_ASN1_LENGTH_MISMATCH );
 797              		.loc 1 282 0
 798 01fc 0F4E     		ldr	r6, .L57+16
 799 01fe 0EE0     		b	.L33
 800              	.LVL104:
 801              	.L49:
 296:Source\mbedtls_open\library/pkparse.c **** 
 802              		.loc 1 296 0
 803 0200 0600     		movs	r6, r0
 804 0202 0CE0     		b	.L33
 805              	.LVL105:
 806              	.L50:
ARM GAS  C:\Users\Phuong\AppData\Local\Temp\ccG6FMOL.s 			page 27


 325:Source\mbedtls_open\library/pkparse.c ****                 MBEDTLS_ERR_ASN1_LENGTH_MISMATCH );
 807              		.loc 1 325 0
 808 0204 0D4E     		ldr	r6, .L57+16
 809 0206 0AE0     		b	.L33
 810              	.L51:
 348:Source\mbedtls_open\library/pkparse.c ****         }
 811              		.loc 1 348 0
 812 0208 084E     		ldr	r6, .L57
 813 020a 08E0     		b	.L33
 814              	.L52:
 815 020c 074E     		ldr	r6, .L57
 816 020e 06E0     		b	.L33
 817              	.LVL106:
 818              	.L53:
 819 0210 064E     		ldr	r6, .L57
 820 0212 04E0     		b	.L33
 821              	.L54:
 822 0214 054E     		ldr	r6, .L57
 823 0216 02E0     		b	.L33
 824              	.L55:
 825 0218 044E     		ldr	r6, .L57
 826 021a 00E0     		b	.L33
 827              	.L56:
 828 021c 034E     		ldr	r6, .L57
 829              	.LVL107:
 830              	.L33:
 367:Source\mbedtls_open\library/pkparse.c **** 
 831              		.loc 1 367 0
 832 021e 3000     		movs	r0, r6
 833 0220 05B0     		add	sp, sp, #20
 834              		@ sp needed
 835              	.LVL108:
 836              	.LVL109:
 837 0222 0CBC     		pop	{r2, r3}
 838 0224 9046     		mov	r8, r2
 839 0226 9946     		mov	r9, r3
 840 0228 F0BD     		pop	{r4, r5, r6, r7, pc}
 841              	.L58:
 842 022a C046     		.align	2
 843              	.L57:
 844 022c 00C3FFFF 		.word	-15616
 845 0230 00000000 		.word	.LC0
 846 0234 80B1FFFF 		.word	-20096
 847 0238 80C6FFFF 		.word	-14720
 848 023c 9AC2FFFF 		.word	-15718
 849              		.cfi_endproc
 850              	.LFE12:
 851              		.size	pk_group_from_specified, .-pk_group_from_specified
 852              		.section	.text.pk_group_id_from_group,"ax",%progbits
 853              		.align	2
 854              		.code	16
 855              		.thumb_func
 856              		.type	pk_group_id_from_group, %function
 857              	pk_group_id_from_group:
 858              	.LFB13:
 374:Source\mbedtls_open\library/pkparse.c ****     int ret = 0;
 859              		.loc 1 374 0
ARM GAS  C:\Users\Phuong\AppData\Local\Temp\ccG6FMOL.s 			page 28


 860              		.cfi_startproc
 861              		@ args = 0, pretend = 0, frame = 128
 862              		@ frame_needed = 0, uses_anonymous_args = 0
 863              	.LVL110:
 864 0000 F0B5     		push	{r4, r5, r6, r7, lr}
 865              		.cfi_def_cfa_offset 20
 866              		.cfi_offset 4, -20
 867              		.cfi_offset 5, -16
 868              		.cfi_offset 6, -12
 869              		.cfi_offset 7, -8
 870              		.cfi_offset 14, -4
 871 0002 4746     		mov	r7, r8
 872 0004 80B4     		push	{r7}
 873              		.cfi_def_cfa_offset 24
 874              		.cfi_offset 8, -24
 875 0006 A0B0     		sub	sp, sp, #128
 876              		.cfi_def_cfa_offset 152
 877 0008 0600     		movs	r6, r0
 878 000a 0F00     		movs	r7, r1
 879              	.LVL111:
 379:Source\mbedtls_open\library/pkparse.c **** 
 880              		.loc 1 379 0
 881 000c 01A8     		add	r0, sp, #4
 882              	.LVL112:
 883 000e FFF7FEFF 		bl	mbedtls_ecp_group_init
 884              	.LVL113:
 381:Source\mbedtls_open\library/pkparse.c ****     {
 885              		.loc 1 381 0
 886 0012 FFF7FEFF 		bl	mbedtls_ecp_grp_id_list
 887              	.LVL114:
 888 0016 0400     		movs	r4, r0
 889              	.LVL115:
 375:Source\mbedtls_open\library/pkparse.c ****     mbedtls_ecp_group ref;
 890              		.loc 1 375 0
 891 0018 0025     		movs	r5, #0
 381:Source\mbedtls_open\library/pkparse.c ****     {
 892              		.loc 1 381 0
 893 001a 46E0     		b	.L60
 894              	.LVL116:
 895              	.L63:
 384:Source\mbedtls_open\library/pkparse.c ****         MBEDTLS_MPI_CHK( mbedtls_ecp_group_load( &ref, *id ) );
 896              		.loc 1 384 0
 897 001c 01A8     		add	r0, sp, #4
 898 001e FFF7FEFF 		bl	mbedtls_ecp_group_free
 899              	.LVL117:
 385:Source\mbedtls_open\library/pkparse.c **** 
 900              		.loc 1 385 0
 901 0022 2178     		ldrb	r1, [r4]
 902 0024 01A8     		add	r0, sp, #4
 903 0026 FFF7FEFF 		bl	mbedtls_ecp_group_load
 904              	.LVL118:
 905 002a 051E     		subs	r5, r0, #0
 906              	.LVL119:
 907 002c 40D1     		bne	.L61
 388:Source\mbedtls_open\library/pkparse.c ****             mbedtls_mpi_cmp_mpi( &grp->P, &ref.P ) == 0 &&
 908              		.loc 1 388 0
 909 002e B36D     		ldr	r3, [r6, #88]
ARM GAS  C:\Users\Phuong\AppData\Local\Temp\ccG6FMOL.s 			page 29


 910 0030 179A     		ldr	r2, [sp, #92]
 911 0032 9342     		cmp	r3, r2
 912 0034 38D1     		bne	.L62
 388:Source\mbedtls_open\library/pkparse.c ****             mbedtls_mpi_cmp_mpi( &grp->P, &ref.P ) == 0 &&
 913              		.loc 1 388 0 is_stmt 0 discriminator 1
 914 0036 F36D     		ldr	r3, [r6, #92]
 915 0038 189A     		ldr	r2, [sp, #96]
 916 003a 9342     		cmp	r3, r2
 917 003c 34D1     		bne	.L62
 389:Source\mbedtls_open\library/pkparse.c ****             mbedtls_mpi_cmp_mpi( &grp->A, &ref.A ) == 0 &&
 918              		.loc 1 389 0 is_stmt 1 discriminator 2
 919 003e 301D     		adds	r0, r6, #4
 920              	.LVL120:
 921 0040 02A9     		add	r1, sp, #8
 922 0042 FFF7FEFF 		bl	mbedtls_mpi_cmp_mpi
 923              	.LVL121:
 388:Source\mbedtls_open\library/pkparse.c ****             mbedtls_mpi_cmp_mpi( &grp->P, &ref.P ) == 0 &&
 924              		.loc 1 388 0 discriminator 2
 925 0046 0028     		cmp	r0, #0
 926 0048 2ED1     		bne	.L62
 390:Source\mbedtls_open\library/pkparse.c ****             mbedtls_mpi_cmp_mpi( &grp->B, &ref.B ) == 0 &&
 927              		.loc 1 390 0
 928 004a 3000     		movs	r0, r6
 929 004c 1030     		adds	r0, r0, #16
 930 004e 05A9     		add	r1, sp, #20
 931 0050 FFF7FEFF 		bl	mbedtls_mpi_cmp_mpi
 932              	.LVL122:
 389:Source\mbedtls_open\library/pkparse.c ****             mbedtls_mpi_cmp_mpi( &grp->A, &ref.A ) == 0 &&
 933              		.loc 1 389 0
 934 0054 0028     		cmp	r0, #0
 935 0056 27D1     		bne	.L62
 391:Source\mbedtls_open\library/pkparse.c ****             mbedtls_mpi_cmp_mpi( &grp->N, &ref.N ) == 0 &&
 936              		.loc 1 391 0
 937 0058 3000     		movs	r0, r6
 938 005a 1C30     		adds	r0, r0, #28
 939 005c 08A9     		add	r1, sp, #32
 940 005e FFF7FEFF 		bl	mbedtls_mpi_cmp_mpi
 941              	.LVL123:
 390:Source\mbedtls_open\library/pkparse.c ****             mbedtls_mpi_cmp_mpi( &grp->B, &ref.B ) == 0 &&
 942              		.loc 1 390 0
 943 0062 0028     		cmp	r0, #0
 944 0064 20D1     		bne	.L62
 392:Source\mbedtls_open\library/pkparse.c ****             mbedtls_mpi_cmp_mpi( &grp->G.X, &ref.G.X ) == 0 &&
 945              		.loc 1 392 0
 946 0066 3000     		movs	r0, r6
 947 0068 4C30     		adds	r0, r0, #76
 948 006a 14A9     		add	r1, sp, #80
 949 006c FFF7FEFF 		bl	mbedtls_mpi_cmp_mpi
 950              	.LVL124:
 391:Source\mbedtls_open\library/pkparse.c ****             mbedtls_mpi_cmp_mpi( &grp->N, &ref.N ) == 0 &&
 951              		.loc 1 391 0
 952 0070 0028     		cmp	r0, #0
 953 0072 19D1     		bne	.L62
 393:Source\mbedtls_open\library/pkparse.c ****             mbedtls_mpi_cmp_mpi( &grp->G.Z, &ref.G.Z ) == 0 &&
 954              		.loc 1 393 0
 955 0074 3000     		movs	r0, r6
 956 0076 2830     		adds	r0, r0, #40
ARM GAS  C:\Users\Phuong\AppData\Local\Temp\ccG6FMOL.s 			page 30


 957 0078 0BA9     		add	r1, sp, #44
 958 007a FFF7FEFF 		bl	mbedtls_mpi_cmp_mpi
 959              	.LVL125:
 392:Source\mbedtls_open\library/pkparse.c ****             mbedtls_mpi_cmp_mpi( &grp->G.X, &ref.G.X ) == 0 &&
 960              		.loc 1 392 0
 961 007e 0028     		cmp	r0, #0
 962 0080 12D1     		bne	.L62
 394:Source\mbedtls_open\library/pkparse.c ****             /* For Y we may only know the parity bit, so compare only that */
 963              		.loc 1 394 0
 964 0082 3000     		movs	r0, r6
 965 0084 4030     		adds	r0, r0, #64
 966 0086 11A9     		add	r1, sp, #68
 967 0088 FFF7FEFF 		bl	mbedtls_mpi_cmp_mpi
 968              	.LVL126:
 393:Source\mbedtls_open\library/pkparse.c ****             mbedtls_mpi_cmp_mpi( &grp->G.Z, &ref.G.Z ) == 0 &&
 969              		.loc 1 393 0
 970 008c 0028     		cmp	r0, #0
 971 008e 0BD1     		bne	.L62
 396:Source\mbedtls_open\library/pkparse.c ****         {
 972              		.loc 1 396 0
 973 0090 3000     		movs	r0, r6
 974 0092 3430     		adds	r0, r0, #52
 975 0094 0021     		movs	r1, #0
 976 0096 FFF7FEFF 		bl	mbedtls_mpi_get_bit
 977              	.LVL127:
 978 009a 8046     		mov	r8, r0
 979 009c 0021     		movs	r1, #0
 980 009e 0EA8     		add	r0, sp, #56
 981 00a0 FFF7FEFF 		bl	mbedtls_mpi_get_bit
 982              	.LVL128:
 394:Source\mbedtls_open\library/pkparse.c ****             /* For Y we may only know the parity bit, so compare only that */
 983              		.loc 1 394 0
 984 00a4 8045     		cmp	r8, r0
 985 00a6 03D0     		beq	.L61
 986              	.L62:
 381:Source\mbedtls_open\library/pkparse.c ****     {
 987              		.loc 1 381 0 discriminator 2
 988 00a8 0134     		adds	r4, r4, #1
 989              	.LVL129:
 990              	.L60:
 381:Source\mbedtls_open\library/pkparse.c ****     {
 991              		.loc 1 381 0 is_stmt 0 discriminator 1
 992 00aa 2378     		ldrb	r3, [r4]
 993 00ac 002B     		cmp	r3, #0
 994 00ae B5D1     		bne	.L63
 995              	.L61:
 404:Source\mbedtls_open\library/pkparse.c **** 
 996              		.loc 1 404 0 is_stmt 1
 997 00b0 01A8     		add	r0, sp, #4
 998 00b2 FFF7FEFF 		bl	mbedtls_ecp_group_free
 999              	.LVL130:
 406:Source\mbedtls_open\library/pkparse.c **** 
 1000              		.loc 1 406 0
 1001 00b6 2378     		ldrb	r3, [r4]
 1002 00b8 3B70     		strb	r3, [r7]
 408:Source\mbedtls_open\library/pkparse.c ****         ret = MBEDTLS_ERR_ECP_FEATURE_UNAVAILABLE;
 1003              		.loc 1 408 0
ARM GAS  C:\Users\Phuong\AppData\Local\Temp\ccG6FMOL.s 			page 31


 1004 00ba 002D     		cmp	r5, #0
 1005 00bc 03D1     		bne	.L64
 408:Source\mbedtls_open\library/pkparse.c ****         ret = MBEDTLS_ERR_ECP_FEATURE_UNAVAILABLE;
 1006              		.loc 1 408 0 is_stmt 0 discriminator 1
 1007 00be 2378     		ldrb	r3, [r4]
 1008 00c0 002B     		cmp	r3, #0
 1009 00c2 00D1     		bne	.L64
 409:Source\mbedtls_open\library/pkparse.c **** 
 1010              		.loc 1 409 0 is_stmt 1
 1011 00c4 024D     		ldr	r5, .L66
 1012              	.LVL131:
 1013              	.L64:
 412:Source\mbedtls_open\library/pkparse.c **** 
 1014              		.loc 1 412 0
 1015 00c6 2800     		movs	r0, r5
 1016 00c8 20B0     		add	sp, sp, #128
 1017              		@ sp needed
 1018              	.LVL132:
 1019              	.LVL133:
 1020              	.LVL134:
 1021              	.LVL135:
 1022 00ca 04BC     		pop	{r2}
 1023 00cc 9046     		mov	r8, r2
 1024 00ce F0BD     		pop	{r4, r5, r6, r7, pc}
 1025              	.L67:
 1026              		.align	2
 1027              	.L66:
 1028 00d0 80B1FFFF 		.word	-20096
 1029              		.cfi_endproc
 1030              	.LFE13:
 1031              		.size	pk_group_id_from_group, .-pk_group_id_from_group
 1032              		.section	.text.pk_group_id_from_specified,"ax",%progbits
 1033              		.align	2
 1034              		.code	16
 1035              		.thumb_func
 1036              		.type	pk_group_id_from_specified, %function
 1037              	pk_group_id_from_specified:
 1038              	.LFB14:
 419:Source\mbedtls_open\library/pkparse.c ****     int ret;
 1039              		.loc 1 419 0
 1040              		.cfi_startproc
 1041              		@ args = 0, pretend = 0, frame = 128
 1042              		@ frame_needed = 0, uses_anonymous_args = 0
 1043              	.LVL136:
 1044 0000 30B5     		push	{r4, r5, lr}
 1045              		.cfi_def_cfa_offset 12
 1046              		.cfi_offset 4, -12
 1047              		.cfi_offset 5, -8
 1048              		.cfi_offset 14, -4
 1049 0002 A1B0     		sub	sp, sp, #132
 1050              		.cfi_def_cfa_offset 144
 1051 0004 0400     		movs	r4, r0
 1052 0006 0D00     		movs	r5, r1
 423:Source\mbedtls_open\library/pkparse.c **** 
 1053              		.loc 1 423 0
 1054 0008 01A8     		add	r0, sp, #4
 1055              	.LVL137:
ARM GAS  C:\Users\Phuong\AppData\Local\Temp\ccG6FMOL.s 			page 32


 1056 000a FFF7FEFF 		bl	mbedtls_ecp_group_init
 1057              	.LVL138:
 425:Source\mbedtls_open\library/pkparse.c ****         goto cleanup;
 1058              		.loc 1 425 0
 1059 000e 01A9     		add	r1, sp, #4
 1060 0010 2000     		movs	r0, r4
 1061 0012 FFF7FEFF 		bl	pk_group_from_specified
 1062              	.LVL139:
 1063 0016 041E     		subs	r4, r0, #0
 1064              	.LVL140:
 1065 0018 04D1     		bne	.L69
 428:Source\mbedtls_open\library/pkparse.c **** 
 1066              		.loc 1 428 0
 1067 001a 2900     		movs	r1, r5
 1068 001c 01A8     		add	r0, sp, #4
 1069              	.LVL141:
 1070 001e FFF7FEFF 		bl	pk_group_id_from_group
 1071              	.LVL142:
 1072 0022 0400     		movs	r4, r0
 1073              	.LVL143:
 1074              	.L69:
 431:Source\mbedtls_open\library/pkparse.c **** 
 1075              		.loc 1 431 0
 1076 0024 01A8     		add	r0, sp, #4
 1077              	.LVL144:
 1078 0026 FFF7FEFF 		bl	mbedtls_ecp_group_free
 1079              	.LVL145:
 434:Source\mbedtls_open\library/pkparse.c **** #endif /* MBEDTLS_PK_PARSE_EC_EXTENDED */
 1080              		.loc 1 434 0
 1081 002a 2000     		movs	r0, r4
 1082 002c 21B0     		add	sp, sp, #132
 1083              		@ sp needed
 1084              	.LVL146:
 1085              	.LVL147:
 1086 002e 30BD     		pop	{r4, r5, pc}
 1087              		.cfi_endproc
 1088              	.LFE14:
 1089              		.size	pk_group_id_from_specified, .-pk_group_id_from_specified
 1090              		.section	.text.pk_use_ecparams,"ax",%progbits
 1091              		.align	2
 1092              		.code	16
 1093              		.thumb_func
 1094              		.type	pk_use_ecparams, %function
 1095              	pk_use_ecparams:
 1096              	.LFB15:
 446:Source\mbedtls_open\library/pkparse.c ****     int ret;
 1097              		.loc 1 446 0
 1098              		.cfi_startproc
 1099              		@ args = 0, pretend = 0, frame = 8
 1100              		@ frame_needed = 0, uses_anonymous_args = 0
 1101              	.LVL148:
 1102 0000 10B5     		push	{r4, lr}
 1103              		.cfi_def_cfa_offset 8
 1104              		.cfi_offset 4, -8
 1105              		.cfi_offset 14, -4
 1106 0002 82B0     		sub	sp, sp, #8
 1107              		.cfi_def_cfa_offset 16
ARM GAS  C:\Users\Phuong\AppData\Local\Temp\ccG6FMOL.s 			page 33


 1108 0004 0C00     		movs	r4, r1
 450:Source\mbedtls_open\library/pkparse.c ****     {
 1109              		.loc 1 450 0
 1110 0006 0368     		ldr	r3, [r0]
 1111 0008 062B     		cmp	r3, #6
 1112 000a 06D1     		bne	.L71
 452:Source\mbedtls_open\library/pkparse.c ****             return( MBEDTLS_ERR_PK_UNKNOWN_NAMED_CURVE );
 1113              		.loc 1 452 0
 1114 000c 6B46     		mov	r3, sp
 1115 000e D91D     		adds	r1, r3, #7
 1116              	.LVL149:
 1117 0010 FFF7FEFF 		bl	mbedtls_oid_get_ec_grp
 1118              	.LVL150:
 1119 0014 0028     		cmp	r0, #0
 1120 0016 06D0     		beq	.L73
 1121 0018 13E0     		b	.L75
 1122              	.LVL151:
 1123              	.L71:
 458:Source\mbedtls_open\library/pkparse.c ****             return( ret );
 1124              		.loc 1 458 0
 1125 001a 6B46     		mov	r3, sp
 1126 001c D91D     		adds	r1, r3, #7
 1127              	.LVL152:
 1128 001e FFF7FEFF 		bl	pk_group_id_from_specified
 1129              	.LVL153:
 1130 0022 0028     		cmp	r0, #0
 1131 0024 10D1     		bne	.L72
 1132              	.LVL154:
 1133              	.L73:
 468:Source\mbedtls_open\library/pkparse.c ****         return( MBEDTLS_ERR_PK_KEY_INVALID_FORMAT );
 1134              		.loc 1 468 0
 1135 0026 2378     		ldrb	r3, [r4]
 1136 0028 002B     		cmp	r3, #0
 1137 002a 04D0     		beq	.L74
 468:Source\mbedtls_open\library/pkparse.c ****         return( MBEDTLS_ERR_PK_KEY_INVALID_FORMAT );
 1138              		.loc 1 468 0 is_stmt 0 discriminator 1
 1139 002c 6A46     		mov	r2, sp
 1140 002e 0732     		adds	r2, r2, #7
 1141 0030 1278     		ldrb	r2, [r2]
 1142 0032 9342     		cmp	r3, r2
 1143 0034 07D1     		bne	.L77
 1144              	.L74:
 471:Source\mbedtls_open\library/pkparse.c ****         return( ret );
 1145              		.loc 1 471 0 is_stmt 1
 1146 0036 6B46     		mov	r3, sp
 1147 0038 D979     		ldrb	r1, [r3, #7]
 1148 003a 2000     		movs	r0, r4
 1149 003c FFF7FEFF 		bl	mbedtls_ecp_group_load
 1150              	.LVL155:
 1151 0040 02E0     		b	.L72
 1152              	.LVL156:
 1153              	.L75:
 453:Source\mbedtls_open\library/pkparse.c ****     }
 1154              		.loc 1 453 0
 1155 0042 0248     		ldr	r0, .L79
 1156 0044 00E0     		b	.L72
 1157              	.L77:
ARM GAS  C:\Users\Phuong\AppData\Local\Temp\ccG6FMOL.s 			page 34


 469:Source\mbedtls_open\library/pkparse.c **** 
 1158              		.loc 1 469 0
 1159 0046 0248     		ldr	r0, .L79+4
 1160              	.L72:
 475:Source\mbedtls_open\library/pkparse.c **** 
 1161              		.loc 1 475 0
 1162 0048 02B0     		add	sp, sp, #8
 1163              		@ sp needed
 1164              	.LVL157:
 1165 004a 10BD     		pop	{r4, pc}
 1166              	.L80:
 1167              		.align	2
 1168              	.L79:
 1169 004c 00C6FFFF 		.word	-14848
 1170 0050 00C3FFFF 		.word	-15616
 1171              		.cfi_endproc
 1172              	.LFE15:
 1173              		.size	pk_use_ecparams, .-pk_use_ecparams
 1174              		.section	.text.pk_get_ecpubkey,"ax",%progbits
 1175              		.align	2
 1176              		.code	16
 1177              		.thumb_func
 1178              		.type	pk_get_ecpubkey, %function
 1179              	pk_get_ecpubkey:
 1180              	.LFB16:
 486:Source\mbedtls_open\library/pkparse.c ****     int ret;
 1181              		.loc 1 486 0
 1182              		.cfi_startproc
 1183              		@ args = 0, pretend = 0, frame = 0
 1184              		@ frame_needed = 0, uses_anonymous_args = 0
 1185              	.LVL158:
 1186 0000 F8B5     		push	{r3, r4, r5, r6, r7, lr}
 1187              		.cfi_def_cfa_offset 24
 1188              		.cfi_offset 3, -24
 1189              		.cfi_offset 4, -20
 1190              		.cfi_offset 5, -16
 1191              		.cfi_offset 6, -12
 1192              		.cfi_offset 7, -8
 1193              		.cfi_offset 14, -4
 1194 0002 0500     		movs	r5, r0
 1195 0004 0F00     		movs	r7, r1
 1196 0006 1400     		movs	r4, r2
 489:Source\mbedtls_open\library/pkparse.c ****                     (const unsigned char *) *p, end - *p ) ) == 0 )
 1197              		.loc 1 489 0
 1198 0008 1600     		movs	r6, r2
 1199 000a 8836     		adds	r6, r6, #136
 490:Source\mbedtls_open\library/pkparse.c ****     {
 1200              		.loc 1 490 0
 1201 000c 0368     		ldr	r3, [r0]
 1202 000e CB1A     		subs	r3, r1, r3
 489:Source\mbedtls_open\library/pkparse.c ****                     (const unsigned char *) *p, end - *p ) ) == 0 )
 1203              		.loc 1 489 0
 1204 0010 0268     		ldr	r2, [r0]
 1205              	.LVL159:
 1206 0012 3100     		movs	r1, r6
 1207              	.LVL160:
 1208 0014 2000     		movs	r0, r4
ARM GAS  C:\Users\Phuong\AppData\Local\Temp\ccG6FMOL.s 			page 35


 1209              	.LVL161:
 1210 0016 FFF7FEFF 		bl	mbedtls_ecp_point_read_binary
 1211              	.LVL162:
 1212 001a 0028     		cmp	r0, #0
 1213 001c 03D1     		bne	.L82
 492:Source\mbedtls_open\library/pkparse.c ****     }
 1214              		.loc 1 492 0
 1215 001e 3100     		movs	r1, r6
 1216 0020 2000     		movs	r0, r4
 1217              	.LVL163:
 1218 0022 FFF7FEFF 		bl	mbedtls_ecp_check_pubkey
 1219              	.LVL164:
 1220              	.L82:
 498:Source\mbedtls_open\library/pkparse.c **** 
 1221              		.loc 1 498 0
 1222 0026 2F60     		str	r7, [r5]
 501:Source\mbedtls_open\library/pkparse.c **** #endif /* MBEDTLS_ECP_C */
 1223              		.loc 1 501 0
 1224              		@ sp needed
 1225              	.LVL165:
 1226              	.LVL166:
 1227              	.LVL167:
 1228              	.LVL168:
 1229 0028 F8BD     		pop	{r3, r4, r5, r6, r7, pc}
 1230              		.cfi_endproc
 1231              	.LFE16:
 1232              		.size	pk_get_ecpubkey, .-pk_get_ecpubkey
 1233 002a C046     		.section	.text.pk_parse_key_pkcs1_der,"ax",%progbits
 1234              		.align	2
 1235              		.code	16
 1236              		.thumb_func
 1237              		.type	pk_parse_key_pkcs1_der, %function
 1238              	pk_parse_key_pkcs1_der:
 1239              	.LFB20:
 593:Source\mbedtls_open\library/pkparse.c **** 
 594:Source\mbedtls_open\library/pkparse.c **** /*
 595:Source\mbedtls_open\library/pkparse.c ****  *  SubjectPublicKeyInfo  ::=  SEQUENCE  {
 596:Source\mbedtls_open\library/pkparse.c ****  *       algorithm            AlgorithmIdentifier,
 597:Source\mbedtls_open\library/pkparse.c ****  *       subjectPublicKey     BIT STRING }
 598:Source\mbedtls_open\library/pkparse.c ****  */
 599:Source\mbedtls_open\library/pkparse.c **** int mbedtls_pk_parse_subpubkey( unsigned char **p, const unsigned char *end,
 600:Source\mbedtls_open\library/pkparse.c ****                         mbedtls_pk_context *pk )
 601:Source\mbedtls_open\library/pkparse.c **** {
 602:Source\mbedtls_open\library/pkparse.c ****     int ret;
 603:Source\mbedtls_open\library/pkparse.c ****     size_t len;
 604:Source\mbedtls_open\library/pkparse.c ****     mbedtls_asn1_buf alg_params;
 605:Source\mbedtls_open\library/pkparse.c ****     mbedtls_pk_type_t pk_alg = MBEDTLS_PK_NONE;
 606:Source\mbedtls_open\library/pkparse.c ****     const mbedtls_pk_info_t *pk_info;
 607:Source\mbedtls_open\library/pkparse.c **** 
 608:Source\mbedtls_open\library/pkparse.c ****     if( ( ret = mbedtls_asn1_get_tag( p, end, &len,
 609:Source\mbedtls_open\library/pkparse.c ****                     MBEDTLS_ASN1_CONSTRUCTED | MBEDTLS_ASN1_SEQUENCE ) ) != 0 )
 610:Source\mbedtls_open\library/pkparse.c ****     {
 611:Source\mbedtls_open\library/pkparse.c ****         return( MBEDTLS_ERR_PK_KEY_INVALID_FORMAT + ret );
 612:Source\mbedtls_open\library/pkparse.c ****     }
 613:Source\mbedtls_open\library/pkparse.c **** 
 614:Source\mbedtls_open\library/pkparse.c ****     end = *p + len;
 615:Source\mbedtls_open\library/pkparse.c **** 
ARM GAS  C:\Users\Phuong\AppData\Local\Temp\ccG6FMOL.s 			page 36


 616:Source\mbedtls_open\library/pkparse.c ****     if( ( ret = pk_get_pk_alg( p, end, &pk_alg, &alg_params ) ) != 0 )
 617:Source\mbedtls_open\library/pkparse.c ****         return( ret );
 618:Source\mbedtls_open\library/pkparse.c **** 
 619:Source\mbedtls_open\library/pkparse.c ****     if( ( ret = mbedtls_asn1_get_bitstring_null( p, end, &len ) ) != 0 )
 620:Source\mbedtls_open\library/pkparse.c ****         return( MBEDTLS_ERR_PK_INVALID_PUBKEY + ret );
 621:Source\mbedtls_open\library/pkparse.c **** 
 622:Source\mbedtls_open\library/pkparse.c ****     if( *p + len != end )
 623:Source\mbedtls_open\library/pkparse.c ****         return( MBEDTLS_ERR_PK_INVALID_PUBKEY +
 624:Source\mbedtls_open\library/pkparse.c ****                 MBEDTLS_ERR_ASN1_LENGTH_MISMATCH );
 625:Source\mbedtls_open\library/pkparse.c **** 
 626:Source\mbedtls_open\library/pkparse.c ****     if( ( pk_info = mbedtls_pk_info_from_type( pk_alg ) ) == NULL )
 627:Source\mbedtls_open\library/pkparse.c ****         return( MBEDTLS_ERR_PK_UNKNOWN_PK_ALG );
 628:Source\mbedtls_open\library/pkparse.c **** 
 629:Source\mbedtls_open\library/pkparse.c ****     if( ( ret = mbedtls_pk_setup( pk, pk_info ) ) != 0 )
 630:Source\mbedtls_open\library/pkparse.c ****         return( ret );
 631:Source\mbedtls_open\library/pkparse.c **** 
 632:Source\mbedtls_open\library/pkparse.c **** #if defined(MBEDTLS_RSA_C)
 633:Source\mbedtls_open\library/pkparse.c ****     if( pk_alg == MBEDTLS_PK_RSA )
 634:Source\mbedtls_open\library/pkparse.c ****     {
 635:Source\mbedtls_open\library/pkparse.c ****         ret = pk_get_rsapubkey( p, end, mbedtls_pk_rsa( *pk ) );
 636:Source\mbedtls_open\library/pkparse.c ****     } else
 637:Source\mbedtls_open\library/pkparse.c **** #endif /* MBEDTLS_RSA_C */
 638:Source\mbedtls_open\library/pkparse.c **** #if defined(MBEDTLS_ECP_C)
 639:Source\mbedtls_open\library/pkparse.c ****     if( pk_alg == MBEDTLS_PK_ECKEY_DH || pk_alg == MBEDTLS_PK_ECKEY )
 640:Source\mbedtls_open\library/pkparse.c ****     {
 641:Source\mbedtls_open\library/pkparse.c ****         ret = pk_use_ecparams( &alg_params, &mbedtls_pk_ec( *pk )->grp );
 642:Source\mbedtls_open\library/pkparse.c ****         if( ret == 0 )
 643:Source\mbedtls_open\library/pkparse.c ****             ret = pk_get_ecpubkey( p, end, mbedtls_pk_ec( *pk ) );
 644:Source\mbedtls_open\library/pkparse.c ****     } else
 645:Source\mbedtls_open\library/pkparse.c **** #endif /* MBEDTLS_ECP_C */
 646:Source\mbedtls_open\library/pkparse.c ****         ret = MBEDTLS_ERR_PK_UNKNOWN_PK_ALG;
 647:Source\mbedtls_open\library/pkparse.c **** 
 648:Source\mbedtls_open\library/pkparse.c ****     if( ret == 0 && *p != end )
 649:Source\mbedtls_open\library/pkparse.c ****         ret = MBEDTLS_ERR_PK_INVALID_PUBKEY
 650:Source\mbedtls_open\library/pkparse.c ****               MBEDTLS_ERR_ASN1_LENGTH_MISMATCH;
 651:Source\mbedtls_open\library/pkparse.c **** 
 652:Source\mbedtls_open\library/pkparse.c ****     if( ret != 0 )
 653:Source\mbedtls_open\library/pkparse.c ****         mbedtls_pk_free( pk );
 654:Source\mbedtls_open\library/pkparse.c **** 
 655:Source\mbedtls_open\library/pkparse.c ****     return( ret );
 656:Source\mbedtls_open\library/pkparse.c **** }
 657:Source\mbedtls_open\library/pkparse.c **** 
 658:Source\mbedtls_open\library/pkparse.c **** #if defined(MBEDTLS_RSA_C)
 659:Source\mbedtls_open\library/pkparse.c **** /*
 660:Source\mbedtls_open\library/pkparse.c ****  * Parse a PKCS#1 encoded private RSA key
 661:Source\mbedtls_open\library/pkparse.c ****  */
 662:Source\mbedtls_open\library/pkparse.c **** static int pk_parse_key_pkcs1_der( mbedtls_rsa_context *rsa,
 663:Source\mbedtls_open\library/pkparse.c ****                                    const unsigned char *key,
 664:Source\mbedtls_open\library/pkparse.c ****                                    size_t keylen )
 665:Source\mbedtls_open\library/pkparse.c **** {
 1240              		.loc 1 665 0
 1241              		.cfi_startproc
 1242              		@ args = 0, pretend = 0, frame = 24
 1243              		@ frame_needed = 0, uses_anonymous_args = 0
 1244              	.LVL169:
 1245 0000 70B5     		push	{r4, r5, r6, lr}
 1246              		.cfi_def_cfa_offset 16
ARM GAS  C:\Users\Phuong\AppData\Local\Temp\ccG6FMOL.s 			page 37


 1247              		.cfi_offset 4, -16
 1248              		.cfi_offset 5, -12
 1249              		.cfi_offset 6, -8
 1250              		.cfi_offset 14, -4
 1251 0002 8EB0     		sub	sp, sp, #56
 1252              		.cfi_def_cfa_offset 72
 1253 0004 0500     		movs	r5, r0
 1254 0006 0E00     		movs	r6, r1
 1255 0008 1400     		movs	r4, r2
 666:Source\mbedtls_open\library/pkparse.c ****     int ret, version;
 667:Source\mbedtls_open\library/pkparse.c ****     size_t len;
 668:Source\mbedtls_open\library/pkparse.c ****     unsigned char *p, *end;
 669:Source\mbedtls_open\library/pkparse.c **** 
 670:Source\mbedtls_open\library/pkparse.c ****     mbedtls_mpi T;
 671:Source\mbedtls_open\library/pkparse.c ****     mbedtls_mpi_init( &T );
 1256              		.loc 1 671 0
 1257 000a 08A8     		add	r0, sp, #32
 1258              	.LVL170:
 1259 000c FFF7FEFF 		bl	mbedtls_mpi_init
 1260              	.LVL171:
 672:Source\mbedtls_open\library/pkparse.c **** 
 673:Source\mbedtls_open\library/pkparse.c ****     p = (unsigned char *) key;
 1261              		.loc 1 673 0
 1262 0010 0B96     		str	r6, [sp, #44]
 674:Source\mbedtls_open\library/pkparse.c ****     end = p + keylen;
 1263              		.loc 1 674 0
 1264 0012 3119     		adds	r1, r6, r4
 1265              	.LVL172:
 675:Source\mbedtls_open\library/pkparse.c **** 
 676:Source\mbedtls_open\library/pkparse.c ****     /*
 677:Source\mbedtls_open\library/pkparse.c ****      * This function parses the RSAPrivateKey (PKCS#1)
 678:Source\mbedtls_open\library/pkparse.c ****      *
 679:Source\mbedtls_open\library/pkparse.c ****      *  RSAPrivateKey ::= SEQUENCE {
 680:Source\mbedtls_open\library/pkparse.c ****      *      version           Version,
 681:Source\mbedtls_open\library/pkparse.c ****      *      modulus           INTEGER,  -- n
 682:Source\mbedtls_open\library/pkparse.c ****      *      publicExponent    INTEGER,  -- e
 683:Source\mbedtls_open\library/pkparse.c ****      *      privateExponent   INTEGER,  -- d
 684:Source\mbedtls_open\library/pkparse.c ****      *      prime1            INTEGER,  -- p
 685:Source\mbedtls_open\library/pkparse.c ****      *      prime2            INTEGER,  -- q
 686:Source\mbedtls_open\library/pkparse.c ****      *      exponent1         INTEGER,  -- d mod (p-1)
 687:Source\mbedtls_open\library/pkparse.c ****      *      exponent2         INTEGER,  -- d mod (q-1)
 688:Source\mbedtls_open\library/pkparse.c ****      *      coefficient       INTEGER,  -- (inverse of q) mod p
 689:Source\mbedtls_open\library/pkparse.c ****      *      otherPrimeInfos   OtherPrimeInfos OPTIONAL
 690:Source\mbedtls_open\library/pkparse.c ****      *  }
 691:Source\mbedtls_open\library/pkparse.c ****      */
 692:Source\mbedtls_open\library/pkparse.c ****     if( ( ret = mbedtls_asn1_get_tag( &p, end, &len,
 1266              		.loc 1 692 0
 1267 0014 3023     		movs	r3, #48
 1268 0016 0CAA     		add	r2, sp, #48
 1269 0018 0BA8     		add	r0, sp, #44
 1270 001a FFF7FEFF 		bl	mbedtls_asn1_get_tag
 1271              	.LVL173:
 1272 001e 0028     		cmp	r0, #0
 1273 0020 03D0     		beq	.L84
 693:Source\mbedtls_open\library/pkparse.c ****             MBEDTLS_ASN1_CONSTRUCTED | MBEDTLS_ASN1_SEQUENCE ) ) != 0 )
 694:Source\mbedtls_open\library/pkparse.c ****     {
 695:Source\mbedtls_open\library/pkparse.c ****         return( MBEDTLS_ERR_PK_KEY_INVALID_FORMAT + ret );
ARM GAS  C:\Users\Phuong\AppData\Local\Temp\ccG6FMOL.s 			page 38


 1274              		.loc 1 695 0
 1275 0022 724B     		ldr	r3, .L93
 1276 0024 9C46     		mov	ip, r3
 1277 0026 6044     		add	r0, r0, ip
 1278              	.LVL174:
 1279 0028 DDE0     		b	.L85
 1280              	.LVL175:
 1281              	.L84:
 696:Source\mbedtls_open\library/pkparse.c ****     }
 697:Source\mbedtls_open\library/pkparse.c **** 
 698:Source\mbedtls_open\library/pkparse.c ****     end = p + len;
 1282              		.loc 1 698 0
 1283 002a 0B9B     		ldr	r3, [sp, #44]
 1284 002c 0C9A     		ldr	r2, [sp, #48]
 1285 002e 9446     		mov	ip, r2
 1286 0030 6344     		add	r3, r3, ip
 1287 0032 1E00     		movs	r6, r3
 1288              	.LVL176:
 699:Source\mbedtls_open\library/pkparse.c **** 
 700:Source\mbedtls_open\library/pkparse.c ****     if( ( ret = mbedtls_asn1_get_int( &p, end, &version ) ) != 0 )
 1289              		.loc 1 700 0
 1290 0034 0DAA     		add	r2, sp, #52
 1291 0036 1900     		movs	r1, r3
 1292 0038 0BA8     		add	r0, sp, #44
 1293              	.LVL177:
 1294 003a FFF7FEFF 		bl	mbedtls_asn1_get_int
 1295              	.LVL178:
 1296 003e 0028     		cmp	r0, #0
 1297 0040 03D0     		beq	.L86
 701:Source\mbedtls_open\library/pkparse.c ****     {
 702:Source\mbedtls_open\library/pkparse.c ****         return( MBEDTLS_ERR_PK_KEY_INVALID_FORMAT + ret );
 1298              		.loc 1 702 0
 1299 0042 6A4B     		ldr	r3, .L93
 1300 0044 9C46     		mov	ip, r3
 1301 0046 6044     		add	r0, r0, ip
 1302              	.LVL179:
 1303 0048 CDE0     		b	.L85
 1304              	.LVL180:
 1305              	.L86:
 703:Source\mbedtls_open\library/pkparse.c ****     }
 704:Source\mbedtls_open\library/pkparse.c **** 
 705:Source\mbedtls_open\library/pkparse.c ****     if( version != 0 )
 1306              		.loc 1 705 0
 1307 004a 0D9B     		ldr	r3, [sp, #52]
 1308 004c 002B     		cmp	r3, #0
 1309 004e 00D0     		beq	.LCB1371
 1310 0050 C6E0     		b	.L89	@long jump
 1311              	.LCB1371:
 706:Source\mbedtls_open\library/pkparse.c ****     {
 707:Source\mbedtls_open\library/pkparse.c ****         return( MBEDTLS_ERR_PK_KEY_INVALID_VERSION );
 708:Source\mbedtls_open\library/pkparse.c ****     }
 709:Source\mbedtls_open\library/pkparse.c **** 
 710:Source\mbedtls_open\library/pkparse.c ****     /* Import N */
 711:Source\mbedtls_open\library/pkparse.c ****     if( ( ret = mbedtls_asn1_get_tag( &p, end, &len,
 1312              		.loc 1 711 0
 1313 0052 0233     		adds	r3, r3, #2
 1314 0054 0CAA     		add	r2, sp, #48
ARM GAS  C:\Users\Phuong\AppData\Local\Temp\ccG6FMOL.s 			page 39


 1315 0056 3100     		movs	r1, r6
 1316 0058 0BA8     		add	r0, sp, #44
 1317              	.LVL181:
 1318 005a FFF7FEFF 		bl	mbedtls_asn1_get_tag
 1319              	.LVL182:
 1320 005e 041E     		subs	r4, r0, #0
 1321              	.LVL183:
 1322 0060 00D0     		beq	.LCB1383
 1323 0062 ABE0     		b	.L87	@long jump
 1324              	.LCB1383:
 712:Source\mbedtls_open\library/pkparse.c ****                                       MBEDTLS_ASN1_INTEGER ) ) != 0 ||
 1325              		.loc 1 712 0
 1326 0064 0023     		movs	r3, #0
 1327 0066 0693     		str	r3, [sp, #24]
 1328 0068 0593     		str	r3, [sp, #20]
 1329 006a 0493     		str	r3, [sp, #16]
 1330 006c 0393     		str	r3, [sp, #12]
 1331 006e 0293     		str	r3, [sp, #8]
 1332 0070 0193     		str	r3, [sp, #4]
 1333 0072 0093     		str	r3, [sp]
 1334 0074 0C9A     		ldr	r2, [sp, #48]
 1335 0076 0B99     		ldr	r1, [sp, #44]
 1336 0078 2800     		movs	r0, r5
 1337              	.LVL184:
 1338 007a FFF7FEFF 		bl	mbedtls_rsa_import_raw
 1339              	.LVL185:
 1340 007e 041E     		subs	r4, r0, #0
 1341              	.LVL186:
 1342 0080 00D0     		beq	.LCB1402
 1343 0082 9BE0     		b	.L87	@long jump
 1344              	.LCB1402:
 713:Source\mbedtls_open\library/pkparse.c ****         ( ret = mbedtls_rsa_import_raw( rsa, p, len, NULL, 0, NULL, 0,
 714:Source\mbedtls_open\library/pkparse.c ****                                         NULL, 0, NULL, 0 ) ) != 0 )
 715:Source\mbedtls_open\library/pkparse.c ****         goto cleanup;
 716:Source\mbedtls_open\library/pkparse.c ****     p += len;
 1345              		.loc 1 716 0
 1346 0084 0B9B     		ldr	r3, [sp, #44]
 1347 0086 0C9A     		ldr	r2, [sp, #48]
 1348 0088 9446     		mov	ip, r2
 1349 008a 6344     		add	r3, r3, ip
 1350 008c 0B93     		str	r3, [sp, #44]
 717:Source\mbedtls_open\library/pkparse.c **** 
 718:Source\mbedtls_open\library/pkparse.c ****     /* Import E */
 719:Source\mbedtls_open\library/pkparse.c ****     if( ( ret = mbedtls_asn1_get_tag( &p, end, &len,
 1351              		.loc 1 719 0
 1352 008e 0223     		movs	r3, #2
 1353 0090 0CAA     		add	r2, sp, #48
 1354 0092 3100     		movs	r1, r6
 1355 0094 0BA8     		add	r0, sp, #44
 1356              	.LVL187:
 1357 0096 FFF7FEFF 		bl	mbedtls_asn1_get_tag
 1358              	.LVL188:
 1359 009a 041E     		subs	r4, r0, #0
 1360              	.LVL189:
 1361 009c 00D0     		beq	.LCB1421
 1362 009e 8DE0     		b	.L87	@long jump
 1363              	.LCB1421:
ARM GAS  C:\Users\Phuong\AppData\Local\Temp\ccG6FMOL.s 			page 40


 720:Source\mbedtls_open\library/pkparse.c ****                                       MBEDTLS_ASN1_INTEGER ) ) != 0 ||
 1364              		.loc 1 720 0
 1365 00a0 0C9B     		ldr	r3, [sp, #48]
 1366 00a2 0693     		str	r3, [sp, #24]
 1367 00a4 0B9B     		ldr	r3, [sp, #44]
 1368 00a6 0593     		str	r3, [sp, #20]
 1369 00a8 0023     		movs	r3, #0
 1370 00aa 0493     		str	r3, [sp, #16]
 1371 00ac 0393     		str	r3, [sp, #12]
 1372 00ae 0293     		str	r3, [sp, #8]
 1373 00b0 0193     		str	r3, [sp, #4]
 1374 00b2 0093     		str	r3, [sp]
 1375 00b4 0022     		movs	r2, #0
 1376 00b6 0021     		movs	r1, #0
 1377 00b8 2800     		movs	r0, r5
 1378              	.LVL190:
 1379 00ba FFF7FEFF 		bl	mbedtls_rsa_import_raw
 1380              	.LVL191:
 1381 00be 041E     		subs	r4, r0, #0
 1382              	.LVL192:
 1383 00c0 00D0     		beq	.LCB1444
 1384 00c2 7BE0     		b	.L87	@long jump
 1385              	.LCB1444:
 721:Source\mbedtls_open\library/pkparse.c ****         ( ret = mbedtls_rsa_import_raw( rsa, NULL, 0, NULL, 0, NULL, 0,
 722:Source\mbedtls_open\library/pkparse.c ****                                         NULL, 0, p, len ) ) != 0 )
 723:Source\mbedtls_open\library/pkparse.c ****         goto cleanup;
 724:Source\mbedtls_open\library/pkparse.c ****     p += len;
 1386              		.loc 1 724 0
 1387 00c4 0B9B     		ldr	r3, [sp, #44]
 1388 00c6 0C9A     		ldr	r2, [sp, #48]
 1389 00c8 9446     		mov	ip, r2
 1390 00ca 6344     		add	r3, r3, ip
 1391 00cc 0B93     		str	r3, [sp, #44]
 725:Source\mbedtls_open\library/pkparse.c **** 
 726:Source\mbedtls_open\library/pkparse.c ****     /* Import D */
 727:Source\mbedtls_open\library/pkparse.c ****     if( ( ret = mbedtls_asn1_get_tag( &p, end, &len,
 1392              		.loc 1 727 0
 1393 00ce 0223     		movs	r3, #2
 1394 00d0 0CAA     		add	r2, sp, #48
 1395 00d2 3100     		movs	r1, r6
 1396 00d4 0BA8     		add	r0, sp, #44
 1397              	.LVL193:
 1398 00d6 FFF7FEFF 		bl	mbedtls_asn1_get_tag
 1399              	.LVL194:
 1400 00da 041E     		subs	r4, r0, #0
 1401              	.LVL195:
 1402 00dc 6ED1     		bne	.L87
 728:Source\mbedtls_open\library/pkparse.c ****                                       MBEDTLS_ASN1_INTEGER ) ) != 0 ||
 1403              		.loc 1 728 0
 1404 00de 0021     		movs	r1, #0
 1405 00e0 0691     		str	r1, [sp, #24]
 1406 00e2 0591     		str	r1, [sp, #20]
 1407 00e4 0C9B     		ldr	r3, [sp, #48]
 1408 00e6 0493     		str	r3, [sp, #16]
 1409 00e8 0B9B     		ldr	r3, [sp, #44]
 1410 00ea 0393     		str	r3, [sp, #12]
 1411 00ec 0291     		str	r1, [sp, #8]
ARM GAS  C:\Users\Phuong\AppData\Local\Temp\ccG6FMOL.s 			page 41


 1412 00ee 0191     		str	r1, [sp, #4]
 1413 00f0 0091     		str	r1, [sp]
 1414 00f2 0B00     		movs	r3, r1
 1415 00f4 0A00     		movs	r2, r1
 1416 00f6 2800     		movs	r0, r5
 1417              	.LVL196:
 1418 00f8 FFF7FEFF 		bl	mbedtls_rsa_import_raw
 1419              	.LVL197:
 1420 00fc 041E     		subs	r4, r0, #0
 1421              	.LVL198:
 1422 00fe 5DD1     		bne	.L87
 729:Source\mbedtls_open\library/pkparse.c ****         ( ret = mbedtls_rsa_import_raw( rsa, NULL, 0, NULL, 0, NULL, 0,
 730:Source\mbedtls_open\library/pkparse.c ****                                         p, len, NULL, 0 ) ) != 0 )
 731:Source\mbedtls_open\library/pkparse.c ****         goto cleanup;
 732:Source\mbedtls_open\library/pkparse.c ****     p += len;
 1423              		.loc 1 732 0
 1424 0100 0B9B     		ldr	r3, [sp, #44]
 1425 0102 0C9A     		ldr	r2, [sp, #48]
 1426 0104 9446     		mov	ip, r2
 1427 0106 6344     		add	r3, r3, ip
 1428 0108 0B93     		str	r3, [sp, #44]
 733:Source\mbedtls_open\library/pkparse.c **** 
 734:Source\mbedtls_open\library/pkparse.c ****     /* Import P */
 735:Source\mbedtls_open\library/pkparse.c ****     if( ( ret = mbedtls_asn1_get_tag( &p, end, &len,
 1429              		.loc 1 735 0
 1430 010a 0223     		movs	r3, #2
 1431 010c 0CAA     		add	r2, sp, #48
 1432 010e 3100     		movs	r1, r6
 1433 0110 0BA8     		add	r0, sp, #44
 1434              	.LVL199:
 1435 0112 FFF7FEFF 		bl	mbedtls_asn1_get_tag
 1436              	.LVL200:
 1437 0116 041E     		subs	r4, r0, #0
 1438              	.LVL201:
 1439 0118 50D1     		bne	.L87
 736:Source\mbedtls_open\library/pkparse.c ****                                       MBEDTLS_ASN1_INTEGER ) ) != 0 ||
 1440              		.loc 1 736 0
 1441 011a 0021     		movs	r1, #0
 1442 011c 0691     		str	r1, [sp, #24]
 1443 011e 0591     		str	r1, [sp, #20]
 1444 0120 0491     		str	r1, [sp, #16]
 1445 0122 0391     		str	r1, [sp, #12]
 1446 0124 0291     		str	r1, [sp, #8]
 1447 0126 0191     		str	r1, [sp, #4]
 1448 0128 0C9B     		ldr	r3, [sp, #48]
 1449 012a 0093     		str	r3, [sp]
 1450 012c 0B9B     		ldr	r3, [sp, #44]
 1451 012e 0A00     		movs	r2, r1
 1452 0130 2800     		movs	r0, r5
 1453              	.LVL202:
 1454 0132 FFF7FEFF 		bl	mbedtls_rsa_import_raw
 1455              	.LVL203:
 1456 0136 041E     		subs	r4, r0, #0
 1457              	.LVL204:
 1458 0138 40D1     		bne	.L87
 737:Source\mbedtls_open\library/pkparse.c ****         ( ret = mbedtls_rsa_import_raw( rsa, NULL, 0, p, len, NULL, 0,
 738:Source\mbedtls_open\library/pkparse.c ****                                         NULL, 0, NULL, 0 ) ) != 0 )
ARM GAS  C:\Users\Phuong\AppData\Local\Temp\ccG6FMOL.s 			page 42


 739:Source\mbedtls_open\library/pkparse.c ****         goto cleanup;
 740:Source\mbedtls_open\library/pkparse.c ****     p += len;
 1459              		.loc 1 740 0
 1460 013a 0B9B     		ldr	r3, [sp, #44]
 1461 013c 0C9A     		ldr	r2, [sp, #48]
 1462 013e 9446     		mov	ip, r2
 1463 0140 6344     		add	r3, r3, ip
 1464 0142 0B93     		str	r3, [sp, #44]
 741:Source\mbedtls_open\library/pkparse.c **** 
 742:Source\mbedtls_open\library/pkparse.c ****     /* Import Q */
 743:Source\mbedtls_open\library/pkparse.c ****     if( ( ret = mbedtls_asn1_get_tag( &p, end, &len,
 1465              		.loc 1 743 0
 1466 0144 0223     		movs	r3, #2
 1467 0146 0CAA     		add	r2, sp, #48
 1468 0148 3100     		movs	r1, r6
 1469 014a 0BA8     		add	r0, sp, #44
 1470              	.LVL205:
 1471 014c FFF7FEFF 		bl	mbedtls_asn1_get_tag
 1472              	.LVL206:
 1473 0150 041E     		subs	r4, r0, #0
 1474              	.LVL207:
 1475 0152 33D1     		bne	.L87
 744:Source\mbedtls_open\library/pkparse.c ****                                       MBEDTLS_ASN1_INTEGER ) ) != 0 ||
 1476              		.loc 1 744 0
 1477 0154 0021     		movs	r1, #0
 1478 0156 0691     		str	r1, [sp, #24]
 1479 0158 0591     		str	r1, [sp, #20]
 1480 015a 0491     		str	r1, [sp, #16]
 1481 015c 0391     		str	r1, [sp, #12]
 1482 015e 0C9B     		ldr	r3, [sp, #48]
 1483 0160 0293     		str	r3, [sp, #8]
 1484 0162 0B9B     		ldr	r3, [sp, #44]
 1485 0164 0193     		str	r3, [sp, #4]
 1486 0166 0091     		str	r1, [sp]
 1487 0168 0B00     		movs	r3, r1
 1488 016a 0A00     		movs	r2, r1
 1489 016c 2800     		movs	r0, r5
 1490              	.LVL208:
 1491 016e FFF7FEFF 		bl	mbedtls_rsa_import_raw
 1492              	.LVL209:
 1493 0172 041E     		subs	r4, r0, #0
 1494              	.LVL210:
 1495 0174 22D1     		bne	.L87
 745:Source\mbedtls_open\library/pkparse.c ****         ( ret = mbedtls_rsa_import_raw( rsa, NULL, 0, NULL, 0, p, len,
 746:Source\mbedtls_open\library/pkparse.c ****                                         NULL, 0, NULL, 0 ) ) != 0 )
 747:Source\mbedtls_open\library/pkparse.c ****         goto cleanup;
 748:Source\mbedtls_open\library/pkparse.c ****     p += len;
 1496              		.loc 1 748 0
 1497 0176 0B9B     		ldr	r3, [sp, #44]
 1498 0178 0C9A     		ldr	r2, [sp, #48]
 1499 017a 9446     		mov	ip, r2
 1500 017c 6344     		add	r3, r3, ip
 1501 017e 0B93     		str	r3, [sp, #44]
 749:Source\mbedtls_open\library/pkparse.c **** 
 750:Source\mbedtls_open\library/pkparse.c ****     /* Complete the RSA private key */
 751:Source\mbedtls_open\library/pkparse.c ****     if( ( ret = mbedtls_rsa_complete( rsa ) ) != 0 )
 1502              		.loc 1 751 0
ARM GAS  C:\Users\Phuong\AppData\Local\Temp\ccG6FMOL.s 			page 43


 1503 0180 2800     		movs	r0, r5
 1504              	.LVL211:
 1505 0182 FFF7FEFF 		bl	mbedtls_rsa_complete
 1506              	.LVL212:
 1507 0186 041E     		subs	r4, r0, #0
 1508              	.LVL213:
 1509 0188 18D1     		bne	.L87
 752:Source\mbedtls_open\library/pkparse.c ****         goto cleanup;
 753:Source\mbedtls_open\library/pkparse.c **** 
 754:Source\mbedtls_open\library/pkparse.c ****     /* Check optional parameters */
 755:Source\mbedtls_open\library/pkparse.c ****     if( ( ret = mbedtls_asn1_get_mpi( &p, end, &T ) ) != 0 ||
 1510              		.loc 1 755 0
 1511 018a 08AA     		add	r2, sp, #32
 1512 018c 3100     		movs	r1, r6
 1513 018e 0BA8     		add	r0, sp, #44
 1514              	.LVL214:
 1515 0190 FFF7FEFF 		bl	mbedtls_asn1_get_mpi
 1516              	.LVL215:
 1517 0194 041E     		subs	r4, r0, #0
 1518              	.LVL216:
 1519 0196 11D1     		bne	.L87
 1520              		.loc 1 755 0 is_stmt 0 discriminator 1
 1521 0198 08AA     		add	r2, sp, #32
 1522 019a 3100     		movs	r1, r6
 1523 019c 0BA8     		add	r0, sp, #44
 1524              	.LVL217:
 1525 019e FFF7FEFF 		bl	mbedtls_asn1_get_mpi
 1526              	.LVL218:
 1527 01a2 041E     		subs	r4, r0, #0
 1528              	.LVL219:
 1529 01a4 0AD1     		bne	.L87
 756:Source\mbedtls_open\library/pkparse.c ****         ( ret = mbedtls_asn1_get_mpi( &p, end, &T ) ) != 0 ||
 1530              		.loc 1 756 0 is_stmt 1
 1531 01a6 08AA     		add	r2, sp, #32
 1532 01a8 3100     		movs	r1, r6
 1533 01aa 0BA8     		add	r0, sp, #44
 1534              	.LVL220:
 1535 01ac FFF7FEFF 		bl	mbedtls_asn1_get_mpi
 1536              	.LVL221:
 1537 01b0 041E     		subs	r4, r0, #0
 1538              	.LVL222:
 1539 01b2 03D1     		bne	.L87
 757:Source\mbedtls_open\library/pkparse.c ****         ( ret = mbedtls_asn1_get_mpi( &p, end, &T ) ) != 0 )
 758:Source\mbedtls_open\library/pkparse.c ****         goto cleanup;
 759:Source\mbedtls_open\library/pkparse.c **** 
 760:Source\mbedtls_open\library/pkparse.c ****     if( p != end )
 1540              		.loc 1 760 0
 1541 01b4 0B9B     		ldr	r3, [sp, #44]
 1542 01b6 9E42     		cmp	r6, r3
 1543 01b8 00D0     		beq	.L87
 761:Source\mbedtls_open\library/pkparse.c ****     {
 762:Source\mbedtls_open\library/pkparse.c ****         ret = MBEDTLS_ERR_PK_KEY_INVALID_FORMAT +
 1544              		.loc 1 762 0
 1545 01ba 0D4C     		ldr	r4, .L93+4
 1546              	.L87:
 1547              	.LVL223:
 763:Source\mbedtls_open\library/pkparse.c ****               MBEDTLS_ERR_ASN1_LENGTH_MISMATCH ;
ARM GAS  C:\Users\Phuong\AppData\Local\Temp\ccG6FMOL.s 			page 44


 764:Source\mbedtls_open\library/pkparse.c ****     }
 765:Source\mbedtls_open\library/pkparse.c **** 
 766:Source\mbedtls_open\library/pkparse.c **** cleanup:
 767:Source\mbedtls_open\library/pkparse.c **** 
 768:Source\mbedtls_open\library/pkparse.c ****     mbedtls_mpi_free( &T );
 1548              		.loc 1 768 0
 1549 01bc 08A8     		add	r0, sp, #32
 1550 01be FFF7FEFF 		bl	mbedtls_mpi_free
 1551              	.LVL224:
 769:Source\mbedtls_open\library/pkparse.c **** 
 770:Source\mbedtls_open\library/pkparse.c ****     if( ret != 0 )
 1552              		.loc 1 770 0
 1553 01c2 002C     		cmp	r4, #0
 1554 01c4 0ED0     		beq	.L91
 771:Source\mbedtls_open\library/pkparse.c ****     {
 772:Source\mbedtls_open\library/pkparse.c ****         /* Wrap error code if it's coming from a lower level */
 773:Source\mbedtls_open\library/pkparse.c ****         if( ( ret & 0xff80 ) == 0 )
 1555              		.loc 1 773 0
 1556 01c6 0B4B     		ldr	r3, .L93+8
 1557 01c8 1C42     		tst	r4, r3
 1558 01ca 03D1     		bne	.L92
 774:Source\mbedtls_open\library/pkparse.c ****             ret = MBEDTLS_ERR_PK_KEY_INVALID_FORMAT + ret;
 1559              		.loc 1 774 0
 1560 01cc 074B     		ldr	r3, .L93
 1561 01ce 9C46     		mov	ip, r3
 1562 01d0 6444     		add	r4, r4, ip
 1563              	.LVL225:
 1564 01d2 00E0     		b	.L88
 1565              	.L92:
 775:Source\mbedtls_open\library/pkparse.c ****         else
 776:Source\mbedtls_open\library/pkparse.c ****             ret = MBEDTLS_ERR_PK_KEY_INVALID_FORMAT;
 1566              		.loc 1 776 0
 1567 01d4 054C     		ldr	r4, .L93
 1568              	.LVL226:
 1569              	.L88:
 777:Source\mbedtls_open\library/pkparse.c **** 
 778:Source\mbedtls_open\library/pkparse.c ****         mbedtls_rsa_free( rsa );
 1570              		.loc 1 778 0
 1571 01d6 2800     		movs	r0, r5
 1572 01d8 FFF7FEFF 		bl	mbedtls_rsa_free
 1573              	.LVL227:
 1574 01dc 2000     		movs	r0, r4
 1575 01de 02E0     		b	.L85
 1576              	.LVL228:
 1577              	.L89:
 707:Source\mbedtls_open\library/pkparse.c ****     }
 1578              		.loc 1 707 0
 1579 01e0 0548     		ldr	r0, .L93+12
 1580              	.LVL229:
 1581 01e2 00E0     		b	.L85
 1582              	.LVL230:
 1583              	.L91:
 1584 01e4 2000     		movs	r0, r4
 1585              	.LVL231:
 1586              	.L85:
 779:Source\mbedtls_open\library/pkparse.c ****     }
 780:Source\mbedtls_open\library/pkparse.c **** 
ARM GAS  C:\Users\Phuong\AppData\Local\Temp\ccG6FMOL.s 			page 45


 781:Source\mbedtls_open\library/pkparse.c ****     return( ret );
 782:Source\mbedtls_open\library/pkparse.c **** }
 1587              		.loc 1 782 0
 1588 01e6 0EB0     		add	sp, sp, #56
 1589              		@ sp needed
 1590              	.LVL232:
 1591 01e8 70BD     		pop	{r4, r5, r6, pc}
 1592              	.L94:
 1593 01ea C046     		.align	2
 1594              	.L93:
 1595 01ec 00C3FFFF 		.word	-15616
 1596 01f0 9AC2FFFF 		.word	-15718
 1597 01f4 80FF0000 		.word	65408
 1598 01f8 80C2FFFF 		.word	-15744
 1599              		.cfi_endproc
 1600              	.LFE20:
 1601              		.size	pk_parse_key_pkcs1_der, .-pk_parse_key_pkcs1_der
 1602              		.section	.text.pk_parse_key_sec1_der,"ax",%progbits
 1603              		.align	2
 1604              		.code	16
 1605              		.thumb_func
 1606              		.type	pk_parse_key_sec1_der, %function
 1607              	pk_parse_key_sec1_der:
 1608              	.LFB21:
 783:Source\mbedtls_open\library/pkparse.c **** #endif /* MBEDTLS_RSA_C */
 784:Source\mbedtls_open\library/pkparse.c **** 
 785:Source\mbedtls_open\library/pkparse.c **** #if defined(MBEDTLS_ECP_C)
 786:Source\mbedtls_open\library/pkparse.c **** /*
 787:Source\mbedtls_open\library/pkparse.c ****  * Parse a SEC1 encoded private EC key
 788:Source\mbedtls_open\library/pkparse.c ****  */
 789:Source\mbedtls_open\library/pkparse.c **** static int pk_parse_key_sec1_der( mbedtls_ecp_keypair *eck,
 790:Source\mbedtls_open\library/pkparse.c ****                                   const unsigned char *key,
 791:Source\mbedtls_open\library/pkparse.c ****                                   size_t keylen )
 792:Source\mbedtls_open\library/pkparse.c **** {
 1609              		.loc 1 792 0
 1610              		.cfi_startproc
 1611              		@ args = 0, pretend = 0, frame = 24
 1612              		@ frame_needed = 0, uses_anonymous_args = 0
 1613              	.LVL233:
 1614 0000 F0B5     		push	{r4, r5, r6, r7, lr}
 1615              		.cfi_def_cfa_offset 20
 1616              		.cfi_offset 4, -20
 1617              		.cfi_offset 5, -16
 1618              		.cfi_offset 6, -12
 1619              		.cfi_offset 7, -8
 1620              		.cfi_offset 14, -4
 1621 0002 89B0     		sub	sp, sp, #36
 1622              		.cfi_def_cfa_offset 56
 1623 0004 0400     		movs	r4, r0
 793:Source\mbedtls_open\library/pkparse.c ****     int ret;
 794:Source\mbedtls_open\library/pkparse.c ****     int version, pubkey_done;
 795:Source\mbedtls_open\library/pkparse.c ****     size_t len;
 796:Source\mbedtls_open\library/pkparse.c ****     mbedtls_asn1_buf params;
 797:Source\mbedtls_open\library/pkparse.c ****     unsigned char *p = (unsigned char *) key;
 1624              		.loc 1 797 0
 1625 0006 0291     		str	r1, [sp, #8]
 798:Source\mbedtls_open\library/pkparse.c ****     unsigned char *end = p + keylen;
ARM GAS  C:\Users\Phuong\AppData\Local\Temp\ccG6FMOL.s 			page 46


 1626              		.loc 1 798 0
 1627 0008 8918     		adds	r1, r1, r2
 1628              	.LVL234:
 799:Source\mbedtls_open\library/pkparse.c ****     unsigned char *end2;
 800:Source\mbedtls_open\library/pkparse.c **** 
 801:Source\mbedtls_open\library/pkparse.c ****     /*
 802:Source\mbedtls_open\library/pkparse.c ****      * RFC 5915, or SEC1 Appendix C.4
 803:Source\mbedtls_open\library/pkparse.c ****      *
 804:Source\mbedtls_open\library/pkparse.c ****      * ECPrivateKey ::= SEQUENCE {
 805:Source\mbedtls_open\library/pkparse.c ****      *      version        INTEGER { ecPrivkeyVer1(1) } (ecPrivkeyVer1),
 806:Source\mbedtls_open\library/pkparse.c ****      *      privateKey     OCTET STRING,
 807:Source\mbedtls_open\library/pkparse.c ****      *      parameters [0] ECParameters {{ NamedCurve }} OPTIONAL,
 808:Source\mbedtls_open\library/pkparse.c ****      *      publicKey  [1] BIT STRING OPTIONAL
 809:Source\mbedtls_open\library/pkparse.c ****      *    }
 810:Source\mbedtls_open\library/pkparse.c ****      */
 811:Source\mbedtls_open\library/pkparse.c ****     if( ( ret = mbedtls_asn1_get_tag( &p, end, &len,
 1629              		.loc 1 811 0
 1630 000a 3023     		movs	r3, #48
 1631 000c 06AA     		add	r2, sp, #24
 1632              	.LVL235:
 1633 000e 02A8     		add	r0, sp, #8
 1634              	.LVL236:
 1635 0010 FFF7FEFF 		bl	mbedtls_asn1_get_tag
 1636              	.LVL237:
 1637 0014 0028     		cmp	r0, #0
 1638 0016 03D0     		beq	.L96
 812:Source\mbedtls_open\library/pkparse.c ****             MBEDTLS_ASN1_CONSTRUCTED | MBEDTLS_ASN1_SEQUENCE ) ) != 0 )
 813:Source\mbedtls_open\library/pkparse.c ****     {
 814:Source\mbedtls_open\library/pkparse.c ****         return( MBEDTLS_ERR_PK_KEY_INVALID_FORMAT + ret );
 1639              		.loc 1 814 0
 1640 0018 624B     		ldr	r3, .L115
 1641 001a 9C46     		mov	ip, r3
 1642 001c 6044     		add	r0, r0, ip
 1643              	.LVL238:
 1644 001e BEE0     		b	.L97
 1645              	.LVL239:
 1646              	.L96:
 815:Source\mbedtls_open\library/pkparse.c ****     }
 816:Source\mbedtls_open\library/pkparse.c **** 
 817:Source\mbedtls_open\library/pkparse.c ****     end = p + len;
 1647              		.loc 1 817 0
 1648 0020 029B     		ldr	r3, [sp, #8]
 1649 0022 069A     		ldr	r2, [sp, #24]
 1650 0024 9446     		mov	ip, r2
 1651 0026 6344     		add	r3, r3, ip
 1652 0028 1F00     		movs	r7, r3
 1653              	.LVL240:
 818:Source\mbedtls_open\library/pkparse.c **** 
 819:Source\mbedtls_open\library/pkparse.c ****     if( ( ret = mbedtls_asn1_get_int( &p, end, &version ) ) != 0 )
 1654              		.loc 1 819 0
 1655 002a 07AA     		add	r2, sp, #28
 1656 002c 1900     		movs	r1, r3
 1657 002e 02A8     		add	r0, sp, #8
 1658              	.LVL241:
 1659 0030 FFF7FEFF 		bl	mbedtls_asn1_get_int
 1660              	.LVL242:
 1661 0034 0028     		cmp	r0, #0
ARM GAS  C:\Users\Phuong\AppData\Local\Temp\ccG6FMOL.s 			page 47


 1662 0036 03D0     		beq	.L98
 820:Source\mbedtls_open\library/pkparse.c ****         return( MBEDTLS_ERR_PK_KEY_INVALID_FORMAT + ret );
 1663              		.loc 1 820 0
 1664 0038 5A4B     		ldr	r3, .L115
 1665 003a 9C46     		mov	ip, r3
 1666 003c 6044     		add	r0, r0, ip
 1667              	.LVL243:
 1668 003e AEE0     		b	.L97
 1669              	.LVL244:
 1670              	.L98:
 821:Source\mbedtls_open\library/pkparse.c **** 
 822:Source\mbedtls_open\library/pkparse.c ****     if( version != 1 )
 1671              		.loc 1 822 0
 1672 0040 079B     		ldr	r3, [sp, #28]
 1673 0042 012B     		cmp	r3, #1
 1674 0044 00D0     		beq	.LCB1773
 1675 0046 A3E0     		b	.L108	@long jump
 1676              	.LCB1773:
 823:Source\mbedtls_open\library/pkparse.c ****         return( MBEDTLS_ERR_PK_KEY_INVALID_VERSION );
 824:Source\mbedtls_open\library/pkparse.c **** 
 825:Source\mbedtls_open\library/pkparse.c ****     if( ( ret = mbedtls_asn1_get_tag( &p, end, &len, MBEDTLS_ASN1_OCTET_STRING ) ) != 0 )
 1677              		.loc 1 825 0
 1678 0048 0333     		adds	r3, r3, #3
 1679 004a 06AA     		add	r2, sp, #24
 1680 004c 3900     		movs	r1, r7
 1681 004e 02A8     		add	r0, sp, #8
 1682              	.LVL245:
 1683 0050 FFF7FEFF 		bl	mbedtls_asn1_get_tag
 1684              	.LVL246:
 1685 0054 0028     		cmp	r0, #0
 1686 0056 03D0     		beq	.L99
 826:Source\mbedtls_open\library/pkparse.c ****         return( MBEDTLS_ERR_PK_KEY_INVALID_FORMAT + ret );
 1687              		.loc 1 826 0
 1688 0058 524B     		ldr	r3, .L115
 1689 005a 9C46     		mov	ip, r3
 1690 005c 6044     		add	r0, r0, ip
 1691              	.LVL247:
 1692 005e 9EE0     		b	.L97
 1693              	.LVL248:
 1694              	.L99:
 827:Source\mbedtls_open\library/pkparse.c **** 
 828:Source\mbedtls_open\library/pkparse.c ****     if( ( ret = mbedtls_mpi_read_binary( &eck->d, p, len ) ) != 0 )
 1695              		.loc 1 828 0
 1696 0060 2600     		movs	r6, r4
 1697 0062 7C36     		adds	r6, r6, #124
 1698 0064 069A     		ldr	r2, [sp, #24]
 1699 0066 0299     		ldr	r1, [sp, #8]
 1700 0068 3000     		movs	r0, r6
 1701              	.LVL249:
 1702 006a FFF7FEFF 		bl	mbedtls_mpi_read_binary
 1703              	.LVL250:
 1704 006e 051E     		subs	r5, r0, #0
 1705              	.LVL251:
 1706 0070 05D0     		beq	.L100
 829:Source\mbedtls_open\library/pkparse.c ****     {
 830:Source\mbedtls_open\library/pkparse.c ****         mbedtls_ecp_keypair_free( eck );
 1707              		.loc 1 830 0
ARM GAS  C:\Users\Phuong\AppData\Local\Temp\ccG6FMOL.s 			page 48


 1708 0072 2000     		movs	r0, r4
 1709              	.LVL252:
 1710 0074 FFF7FEFF 		bl	mbedtls_ecp_keypair_free
 1711              	.LVL253:
 831:Source\mbedtls_open\library/pkparse.c ****         return( MBEDTLS_ERR_PK_KEY_INVALID_FORMAT + ret );
 1712              		.loc 1 831 0
 1713 0078 4A4B     		ldr	r3, .L115
 1714 007a E818     		adds	r0, r5, r3
 1715 007c 8FE0     		b	.L97
 1716              	.LVL254:
 1717              	.L100:
 832:Source\mbedtls_open\library/pkparse.c ****     }
 833:Source\mbedtls_open\library/pkparse.c **** 
 834:Source\mbedtls_open\library/pkparse.c ****     p += len;
 1718              		.loc 1 834 0
 1719 007e 029B     		ldr	r3, [sp, #8]
 1720 0080 069A     		ldr	r2, [sp, #24]
 1721 0082 9446     		mov	ip, r2
 1722 0084 6344     		add	r3, r3, ip
 1723 0086 0293     		str	r3, [sp, #8]
 1724              	.LVL255:
 835:Source\mbedtls_open\library/pkparse.c **** 
 836:Source\mbedtls_open\library/pkparse.c ****     pubkey_done = 0;
 837:Source\mbedtls_open\library/pkparse.c ****     if( p != end )
 1725              		.loc 1 837 0
 1726 0088 9F42     		cmp	r7, r3
 1727 008a 26D0     		beq	.L101
 838:Source\mbedtls_open\library/pkparse.c ****     {
 839:Source\mbedtls_open\library/pkparse.c ****         /*
 840:Source\mbedtls_open\library/pkparse.c ****          * Is 'parameters' present?
 841:Source\mbedtls_open\library/pkparse.c ****          */
 842:Source\mbedtls_open\library/pkparse.c ****         if( ( ret = mbedtls_asn1_get_tag( &p, end, &len,
 1728              		.loc 1 842 0
 1729 008c A023     		movs	r3, #160
 1730 008e 06AA     		add	r2, sp, #24
 1731 0090 3900     		movs	r1, r7
 1732 0092 02A8     		add	r0, sp, #8
 1733              	.LVL256:
 1734 0094 FFF7FEFF 		bl	mbedtls_asn1_get_tag
 1735              	.LVL257:
 1736 0098 051E     		subs	r5, r0, #0
 1737              	.LVL258:
 1738 009a 15D1     		bne	.L102
 843:Source\mbedtls_open\library/pkparse.c ****                         MBEDTLS_ASN1_CONTEXT_SPECIFIC | MBEDTLS_ASN1_CONSTRUCTED | 0 ) ) == 0 )
 844:Source\mbedtls_open\library/pkparse.c ****         {
 845:Source\mbedtls_open\library/pkparse.c ****             if( ( ret = pk_get_ecparams( &p, p + len, &params) ) != 0 ||
 1739              		.loc 1 845 0
 1740 009c 029B     		ldr	r3, [sp, #8]
 1741 009e 069A     		ldr	r2, [sp, #24]
 1742 00a0 9446     		mov	ip, r2
 1743 00a2 6344     		add	r3, r3, ip
 1744 00a4 1900     		movs	r1, r3
 1745 00a6 03AA     		add	r2, sp, #12
 1746 00a8 02A8     		add	r0, sp, #8
 1747              	.LVL259:
 1748 00aa FFF7FEFF 		bl	pk_get_ecparams
 1749              	.LVL260:
ARM GAS  C:\Users\Phuong\AppData\Local\Temp\ccG6FMOL.s 			page 49


 1750 00ae 051E     		subs	r5, r0, #0
 1751              	.LVL261:
 1752 00b0 05D1     		bne	.L103
 1753              		.loc 1 845 0 is_stmt 0 discriminator 1
 1754 00b2 2100     		movs	r1, r4
 1755 00b4 03A8     		add	r0, sp, #12
 1756              	.LVL262:
 1757 00b6 FFF7FEFF 		bl	pk_use_ecparams
 1758              	.LVL263:
 1759 00ba 051E     		subs	r5, r0, #0
 1760              	.LVL264:
 1761 00bc 0DD0     		beq	.L101
 1762              	.L103:
 846:Source\mbedtls_open\library/pkparse.c ****                 ( ret = pk_use_ecparams( &params, &eck->grp )  ) != 0 )
 847:Source\mbedtls_open\library/pkparse.c ****             {
 848:Source\mbedtls_open\library/pkparse.c ****                 mbedtls_ecp_keypair_free( eck );
 1763              		.loc 1 848 0 is_stmt 1
 1764 00be 2000     		movs	r0, r4
 1765              	.LVL265:
 1766 00c0 FFF7FEFF 		bl	mbedtls_ecp_keypair_free
 1767              	.LVL266:
 849:Source\mbedtls_open\library/pkparse.c ****                 return( ret );
 1768              		.loc 1 849 0
 1769 00c4 2800     		movs	r0, r5
 1770 00c6 6AE0     		b	.L97
 1771              	.LVL267:
 1772              	.L102:
 850:Source\mbedtls_open\library/pkparse.c ****             }
 851:Source\mbedtls_open\library/pkparse.c ****         }
 852:Source\mbedtls_open\library/pkparse.c ****         else if( ret != MBEDTLS_ERR_ASN1_UNEXPECTED_TAG )
 1773              		.loc 1 852 0
 1774 00c8 0300     		movs	r3, r0
 1775 00ca 6233     		adds	r3, r3, #98
 1776 00cc 05D0     		beq	.L101
 853:Source\mbedtls_open\library/pkparse.c ****         {
 854:Source\mbedtls_open\library/pkparse.c ****             mbedtls_ecp_keypair_free( eck );
 1777              		.loc 1 854 0
 1778 00ce 2000     		movs	r0, r4
 1779              	.LVL268:
 1780 00d0 FFF7FEFF 		bl	mbedtls_ecp_keypair_free
 1781              	.LVL269:
 855:Source\mbedtls_open\library/pkparse.c ****             return( MBEDTLS_ERR_PK_KEY_INVALID_FORMAT + ret );
 1782              		.loc 1 855 0
 1783 00d4 334B     		ldr	r3, .L115
 1784 00d6 E818     		adds	r0, r5, r3
 1785 00d8 61E0     		b	.L97
 1786              	.LVL270:
 1787              	.L101:
 856:Source\mbedtls_open\library/pkparse.c ****         }
 857:Source\mbedtls_open\library/pkparse.c ****     }
 858:Source\mbedtls_open\library/pkparse.c **** 
 859:Source\mbedtls_open\library/pkparse.c ****     if( p != end )
 1788              		.loc 1 859 0
 1789 00da 029B     		ldr	r3, [sp, #8]
 1790 00dc 9F42     		cmp	r7, r3
 1791 00de 32D0     		beq	.L109
 860:Source\mbedtls_open\library/pkparse.c ****     {
ARM GAS  C:\Users\Phuong\AppData\Local\Temp\ccG6FMOL.s 			page 50


 861:Source\mbedtls_open\library/pkparse.c ****         /*
 862:Source\mbedtls_open\library/pkparse.c ****          * Is 'publickey' present? If not, or if we can't read it (eg because it
 863:Source\mbedtls_open\library/pkparse.c ****          * is compressed), create it from the private key.
 864:Source\mbedtls_open\library/pkparse.c ****          */
 865:Source\mbedtls_open\library/pkparse.c ****         if( ( ret = mbedtls_asn1_get_tag( &p, end, &len,
 1792              		.loc 1 865 0
 1793 00e0 A123     		movs	r3, #161
 1794 00e2 06AA     		add	r2, sp, #24
 1795 00e4 3900     		movs	r1, r7
 1796 00e6 02A8     		add	r0, sp, #8
 1797              	.LVL271:
 1798 00e8 FFF7FEFF 		bl	mbedtls_asn1_get_tag
 1799              	.LVL272:
 1800 00ec 051E     		subs	r5, r0, #0
 1801              	.LVL273:
 1802 00ee 21D1     		bne	.L105
 866:Source\mbedtls_open\library/pkparse.c ****                         MBEDTLS_ASN1_CONTEXT_SPECIFIC | MBEDTLS_ASN1_CONSTRUCTED | 1 ) ) == 0 )
 867:Source\mbedtls_open\library/pkparse.c ****         {
 868:Source\mbedtls_open\library/pkparse.c ****             end2 = p + len;
 1803              		.loc 1 868 0
 1804 00f0 029B     		ldr	r3, [sp, #8]
 1805 00f2 069A     		ldr	r2, [sp, #24]
 1806 00f4 9446     		mov	ip, r2
 1807 00f6 6344     		add	r3, r3, ip
 1808 00f8 1D00     		movs	r5, r3
 1809              	.LVL274:
 869:Source\mbedtls_open\library/pkparse.c **** 
 870:Source\mbedtls_open\library/pkparse.c ****             if( ( ret = mbedtls_asn1_get_bitstring_null( &p, end2, &len ) ) != 0 )
 1810              		.loc 1 870 0
 1811 00fa 06AA     		add	r2, sp, #24
 1812 00fc 1900     		movs	r1, r3
 1813 00fe 02A8     		add	r0, sp, #8
 1814              	.LVL275:
 1815 0100 FFF7FEFF 		bl	mbedtls_asn1_get_bitstring_null
 1816              	.LVL276:
 1817 0104 0028     		cmp	r0, #0
 1818 0106 03D0     		beq	.L106
 871:Source\mbedtls_open\library/pkparse.c ****                 return( MBEDTLS_ERR_PK_KEY_INVALID_FORMAT + ret );
 1819              		.loc 1 871 0
 1820 0108 264B     		ldr	r3, .L115
 1821 010a 9C46     		mov	ip, r3
 1822 010c 6044     		add	r0, r0, ip
 1823              	.LVL277:
 1824 010e 46E0     		b	.L97
 1825              	.LVL278:
 1826              	.L106:
 872:Source\mbedtls_open\library/pkparse.c **** 
 873:Source\mbedtls_open\library/pkparse.c ****             if( p + len != end2 )
 1827              		.loc 1 873 0
 1828 0110 029B     		ldr	r3, [sp, #8]
 1829 0112 069A     		ldr	r2, [sp, #24]
 1830 0114 9446     		mov	ip, r2
 1831 0116 6344     		add	r3, r3, ip
 1832 0118 9D42     		cmp	r5, r3
 1833 011a 3BD1     		bne	.L110
 874:Source\mbedtls_open\library/pkparse.c ****                 return( MBEDTLS_ERR_PK_KEY_INVALID_FORMAT +
 875:Source\mbedtls_open\library/pkparse.c ****                         MBEDTLS_ERR_ASN1_LENGTH_MISMATCH );
ARM GAS  C:\Users\Phuong\AppData\Local\Temp\ccG6FMOL.s 			page 51


 876:Source\mbedtls_open\library/pkparse.c **** 
 877:Source\mbedtls_open\library/pkparse.c ****             if( ( ret = pk_get_ecpubkey( &p, end2, eck ) ) == 0 )
 1834              		.loc 1 877 0
 1835 011c 2200     		movs	r2, r4
 1836 011e 2900     		movs	r1, r5
 1837 0120 02A8     		add	r0, sp, #8
 1838              	.LVL279:
 1839 0122 FFF7FEFF 		bl	pk_get_ecpubkey
 1840              	.LVL280:
 1841 0126 0028     		cmp	r0, #0
 1842 0128 0FD0     		beq	.L111
 878:Source\mbedtls_open\library/pkparse.c ****                 pubkey_done = 1;
 879:Source\mbedtls_open\library/pkparse.c ****             else
 880:Source\mbedtls_open\library/pkparse.c ****             {
 881:Source\mbedtls_open\library/pkparse.c ****                 /*
 882:Source\mbedtls_open\library/pkparse.c ****                  * The only acceptable failure mode of pk_get_ecpubkey() above
 883:Source\mbedtls_open\library/pkparse.c ****                  * is if the point format is not recognized.
 884:Source\mbedtls_open\library/pkparse.c ****                  */
 885:Source\mbedtls_open\library/pkparse.c ****                 if( ret != MBEDTLS_ERR_ECP_FEATURE_UNAVAILABLE )
 1843              		.loc 1 885 0
 1844 012a 1F4B     		ldr	r3, .L115+4
 1845 012c 9842     		cmp	r0, r3
 1846 012e 33D1     		bne	.L112
 836:Source\mbedtls_open\library/pkparse.c ****     if( p != end )
 1847              		.loc 1 836 0
 1848 0130 0023     		movs	r3, #0
 1849 0132 0DE0     		b	.L104
 1850              	.LVL281:
 1851              	.L105:
 886:Source\mbedtls_open\library/pkparse.c ****                     return( MBEDTLS_ERR_PK_KEY_INVALID_FORMAT );
 887:Source\mbedtls_open\library/pkparse.c ****             }
 888:Source\mbedtls_open\library/pkparse.c ****         }
 889:Source\mbedtls_open\library/pkparse.c ****         else if( ret != MBEDTLS_ERR_ASN1_UNEXPECTED_TAG )
 1852              		.loc 1 889 0
 1853 0134 0300     		movs	r3, r0
 1854 0136 6233     		adds	r3, r3, #98
 1855 0138 09D0     		beq	.L113
 890:Source\mbedtls_open\library/pkparse.c ****         {
 891:Source\mbedtls_open\library/pkparse.c ****             mbedtls_ecp_keypair_free( eck );
 1856              		.loc 1 891 0
 1857 013a 2000     		movs	r0, r4
 1858              	.LVL282:
 1859 013c FFF7FEFF 		bl	mbedtls_ecp_keypair_free
 1860              	.LVL283:
 892:Source\mbedtls_open\library/pkparse.c ****             return( MBEDTLS_ERR_PK_KEY_INVALID_FORMAT + ret );
 1861              		.loc 1 892 0
 1862 0140 184B     		ldr	r3, .L115
 1863 0142 E818     		adds	r0, r5, r3
 1864 0144 2BE0     		b	.L97
 1865              	.LVL284:
 1866              	.L109:
 836:Source\mbedtls_open\library/pkparse.c ****     if( p != end )
 1867              		.loc 1 836 0
 1868 0146 0023     		movs	r3, #0
 1869 0148 02E0     		b	.L104
 1870              	.LVL285:
 1871              	.L111:
ARM GAS  C:\Users\Phuong\AppData\Local\Temp\ccG6FMOL.s 			page 52


 878:Source\mbedtls_open\library/pkparse.c ****             else
 1872              		.loc 1 878 0
 1873 014a 0123     		movs	r3, #1
 1874 014c 00E0     		b	.L104
 1875              	.LVL286:
 1876              	.L113:
 836:Source\mbedtls_open\library/pkparse.c ****     if( p != end )
 1877              		.loc 1 836 0
 1878 014e 0023     		movs	r3, #0
 1879              	.L104:
 1880              	.LVL287:
 893:Source\mbedtls_open\library/pkparse.c ****         }
 894:Source\mbedtls_open\library/pkparse.c ****     }
 895:Source\mbedtls_open\library/pkparse.c **** 
 896:Source\mbedtls_open\library/pkparse.c ****     if( ! pubkey_done &&
 1881              		.loc 1 896 0
 1882 0150 002B     		cmp	r3, #0
 1883 0152 12D1     		bne	.L107
 897:Source\mbedtls_open\library/pkparse.c ****         ( ret = mbedtls_ecp_mul( &eck->grp, &eck->Q, &eck->d, &eck->grp.G,
 1884              		.loc 1 897 0 discriminator 1
 1885 0154 2100     		movs	r1, r4
 1886 0156 8831     		adds	r1, r1, #136
 1887 0158 2300     		movs	r3, r4
 1888              	.LVL288:
 1889 015a 2833     		adds	r3, r3, #40
 896:Source\mbedtls_open\library/pkparse.c ****         ( ret = mbedtls_ecp_mul( &eck->grp, &eck->Q, &eck->d, &eck->grp.G,
 1890              		.loc 1 896 0 discriminator 1
 1891 015c 0022     		movs	r2, #0
 1892 015e 0192     		str	r2, [sp, #4]
 1893 0160 0092     		str	r2, [sp]
 1894 0162 3200     		movs	r2, r6
 1895 0164 2000     		movs	r0, r4
 1896              	.LVL289:
 1897 0166 FFF7FEFF 		bl	mbedtls_ecp_mul
 1898              	.LVL290:
 1899 016a 051E     		subs	r5, r0, #0
 1900              	.LVL291:
 1901 016c 05D0     		beq	.L107
 898:Source\mbedtls_open\library/pkparse.c ****                                                       NULL, NULL ) ) != 0 )
 899:Source\mbedtls_open\library/pkparse.c ****     {
 900:Source\mbedtls_open\library/pkparse.c ****         mbedtls_ecp_keypair_free( eck );
 1902              		.loc 1 900 0
 1903 016e 2000     		movs	r0, r4
 1904              	.LVL292:
 1905 0170 FFF7FEFF 		bl	mbedtls_ecp_keypair_free
 1906              	.LVL293:
 901:Source\mbedtls_open\library/pkparse.c ****         return( MBEDTLS_ERR_PK_KEY_INVALID_FORMAT + ret );
 1907              		.loc 1 901 0
 1908 0174 0B4B     		ldr	r3, .L115
 1909 0176 E818     		adds	r0, r5, r3
 1910 0178 11E0     		b	.L97
 1911              	.LVL294:
 1912              	.L107:
 902:Source\mbedtls_open\library/pkparse.c ****     }
 903:Source\mbedtls_open\library/pkparse.c **** 
 904:Source\mbedtls_open\library/pkparse.c ****     if( ( ret = mbedtls_ecp_check_privkey( &eck->grp, &eck->d ) ) != 0 )
 1913              		.loc 1 904 0
ARM GAS  C:\Users\Phuong\AppData\Local\Temp\ccG6FMOL.s 			page 53


 1914 017a 3100     		movs	r1, r6
 1915 017c 2000     		movs	r0, r4
 1916              	.LVL295:
 1917 017e FFF7FEFF 		bl	mbedtls_ecp_check_privkey
 1918              	.LVL296:
 1919 0182 051E     		subs	r5, r0, #0
 1920              	.LVL297:
 1921 0184 0AD0     		beq	.L114
 905:Source\mbedtls_open\library/pkparse.c ****     {
 906:Source\mbedtls_open\library/pkparse.c ****         mbedtls_ecp_keypair_free( eck );
 1922              		.loc 1 906 0
 1923 0186 2000     		movs	r0, r4
 1924              	.LVL298:
 1925 0188 FFF7FEFF 		bl	mbedtls_ecp_keypair_free
 1926              	.LVL299:
 907:Source\mbedtls_open\library/pkparse.c ****         return( ret );
 1927              		.loc 1 907 0
 1928 018c 2800     		movs	r0, r5
 1929 018e 06E0     		b	.L97
 1930              	.LVL300:
 1931              	.L108:
 823:Source\mbedtls_open\library/pkparse.c **** 
 1932              		.loc 1 823 0
 1933 0190 0648     		ldr	r0, .L115+8
 1934              	.LVL301:
 1935 0192 04E0     		b	.L97
 1936              	.LVL302:
 1937              	.L110:
 874:Source\mbedtls_open\library/pkparse.c ****                         MBEDTLS_ERR_ASN1_LENGTH_MISMATCH );
 1938              		.loc 1 874 0
 1939 0194 0648     		ldr	r0, .L115+12
 1940              	.LVL303:
 1941 0196 02E0     		b	.L97
 1942              	.LVL304:
 1943              	.L112:
 886:Source\mbedtls_open\library/pkparse.c ****             }
 1944              		.loc 1 886 0
 1945 0198 0248     		ldr	r0, .L115
 1946              	.LVL305:
 1947 019a 00E0     		b	.L97
 1948              	.LVL306:
 1949              	.L114:
 908:Source\mbedtls_open\library/pkparse.c ****     }
 909:Source\mbedtls_open\library/pkparse.c **** 
 910:Source\mbedtls_open\library/pkparse.c ****     return( 0 );
 1950              		.loc 1 910 0
 1951 019c 0020     		movs	r0, #0
 1952              	.LVL307:
 1953              	.L97:
 911:Source\mbedtls_open\library/pkparse.c **** }
 1954              		.loc 1 911 0
 1955 019e 09B0     		add	sp, sp, #36
 1956              		@ sp needed
 1957              	.LVL308:
 1958 01a0 F0BD     		pop	{r4, r5, r6, r7, pc}
 1959              	.L116:
 1960 01a2 C046     		.align	2
ARM GAS  C:\Users\Phuong\AppData\Local\Temp\ccG6FMOL.s 			page 54


 1961              	.L115:
 1962 01a4 00C3FFFF 		.word	-15616
 1963 01a8 80B1FFFF 		.word	-20096
 1964 01ac 80C2FFFF 		.word	-15744
 1965 01b0 9AC2FFFF 		.word	-15718
 1966              		.cfi_endproc
 1967              	.LFE21:
 1968              		.size	pk_parse_key_sec1_der, .-pk_parse_key_sec1_der
 1969              		.section	.text.pk_parse_key_pkcs8_unencrypted_der,"ax",%progbits
 1970              		.align	2
 1971              		.code	16
 1972              		.thumb_func
 1973              		.type	pk_parse_key_pkcs8_unencrypted_der, %function
 1974              	pk_parse_key_pkcs8_unencrypted_der:
 1975              	.LFB22:
 912:Source\mbedtls_open\library/pkparse.c **** #endif /* MBEDTLS_ECP_C */
 913:Source\mbedtls_open\library/pkparse.c **** 
 914:Source\mbedtls_open\library/pkparse.c **** /*
 915:Source\mbedtls_open\library/pkparse.c ****  * Parse an unencrypted PKCS#8 encoded private key
 916:Source\mbedtls_open\library/pkparse.c ****  *
 917:Source\mbedtls_open\library/pkparse.c ****  * Notes:
 918:Source\mbedtls_open\library/pkparse.c ****  *
 919:Source\mbedtls_open\library/pkparse.c ****  * - This function does not own the key buffer. It is the
 920:Source\mbedtls_open\library/pkparse.c ****  *   responsibility of the caller to take care of zeroizing
 921:Source\mbedtls_open\library/pkparse.c ****  *   and freeing it after use.
 922:Source\mbedtls_open\library/pkparse.c ****  *
 923:Source\mbedtls_open\library/pkparse.c ****  * - The function is responsible for freeing the provided
 924:Source\mbedtls_open\library/pkparse.c ****  *   PK context on failure.
 925:Source\mbedtls_open\library/pkparse.c ****  *
 926:Source\mbedtls_open\library/pkparse.c ****  */
 927:Source\mbedtls_open\library/pkparse.c **** static int pk_parse_key_pkcs8_unencrypted_der(
 928:Source\mbedtls_open\library/pkparse.c ****                                     mbedtls_pk_context *pk,
 929:Source\mbedtls_open\library/pkparse.c ****                                     const unsigned char* key,
 930:Source\mbedtls_open\library/pkparse.c ****                                     size_t keylen )
 931:Source\mbedtls_open\library/pkparse.c **** {
 1976              		.loc 1 931 0
 1977              		.cfi_startproc
 1978              		@ args = 0, pretend = 0, frame = 56
 1979              		@ frame_needed = 0, uses_anonymous_args = 0
 1980              	.LVL309:
 1981 0000 70B5     		push	{r4, r5, r6, lr}
 1982              		.cfi_def_cfa_offset 16
 1983              		.cfi_offset 4, -16
 1984              		.cfi_offset 5, -12
 1985              		.cfi_offset 6, -8
 1986              		.cfi_offset 14, -4
 1987 0002 8EB0     		sub	sp, sp, #56
 1988              		.cfi_def_cfa_offset 72
 1989 0004 0400     		movs	r4, r0
 932:Source\mbedtls_open\library/pkparse.c ****     int ret, version;
 933:Source\mbedtls_open\library/pkparse.c ****     size_t len;
 934:Source\mbedtls_open\library/pkparse.c ****     mbedtls_asn1_buf params;
 935:Source\mbedtls_open\library/pkparse.c ****     unsigned char *p = (unsigned char *) key;
 1990              		.loc 1 935 0
 1991 0006 0891     		str	r1, [sp, #32]
 936:Source\mbedtls_open\library/pkparse.c ****     unsigned char *end = p + keylen;
 1992              		.loc 1 936 0
ARM GAS  C:\Users\Phuong\AppData\Local\Temp\ccG6FMOL.s 			page 55


 1993 0008 8918     		adds	r1, r1, r2
 1994              	.LVL310:
 937:Source\mbedtls_open\library/pkparse.c ****     mbedtls_pk_type_t pk_alg = MBEDTLS_PK_NONE;
 1995              		.loc 1 937 0
 1996 000a 0022     		movs	r2, #0
 1997              	.LVL311:
 1998 000c 1F23     		movs	r3, #31
 1999 000e 6B44     		add	r3, r3, sp
 2000 0010 1A70     		strb	r2, [r3]
 938:Source\mbedtls_open\library/pkparse.c ****     const mbedtls_pk_info_t *pk_info;
 939:Source\mbedtls_open\library/pkparse.c **** 
 940:Source\mbedtls_open\library/pkparse.c ****     /*
 941:Source\mbedtls_open\library/pkparse.c ****      * This function parses the PrivateKeyInfo object (PKCS#8 v1.2 = RFC 5208)
 942:Source\mbedtls_open\library/pkparse.c ****      *
 943:Source\mbedtls_open\library/pkparse.c ****      *    PrivateKeyInfo ::= SEQUENCE {
 944:Source\mbedtls_open\library/pkparse.c ****      *      version                   Version,
 945:Source\mbedtls_open\library/pkparse.c ****      *      privateKeyAlgorithm       PrivateKeyAlgorithmIdentifier,
 946:Source\mbedtls_open\library/pkparse.c ****      *      privateKey                PrivateKey,
 947:Source\mbedtls_open\library/pkparse.c ****      *      attributes           [0]  IMPLICIT Attributes OPTIONAL }
 948:Source\mbedtls_open\library/pkparse.c ****      *
 949:Source\mbedtls_open\library/pkparse.c ****      *    Version ::= INTEGER
 950:Source\mbedtls_open\library/pkparse.c ****      *    PrivateKeyAlgorithmIdentifier ::= AlgorithmIdentifier
 951:Source\mbedtls_open\library/pkparse.c ****      *    PrivateKey ::= OCTET STRING
 952:Source\mbedtls_open\library/pkparse.c ****      *
 953:Source\mbedtls_open\library/pkparse.c ****      *  The PrivateKey OCTET STRING is a SEC1 ECPrivateKey
 954:Source\mbedtls_open\library/pkparse.c ****      */
 955:Source\mbedtls_open\library/pkparse.c **** 
 956:Source\mbedtls_open\library/pkparse.c ****     if( ( ret = mbedtls_asn1_get_tag( &p, end, &len,
 2001              		.loc 1 956 0
 2002 0012 3023     		movs	r3, #48
 2003 0014 0CAA     		add	r2, sp, #48
 2004 0016 08A8     		add	r0, sp, #32
 2005              	.LVL312:
 2006 0018 FFF7FEFF 		bl	mbedtls_asn1_get_tag
 2007              	.LVL313:
 2008 001c 0028     		cmp	r0, #0
 2009 001e 02D0     		beq	.L118
 957:Source\mbedtls_open\library/pkparse.c ****             MBEDTLS_ASN1_CONSTRUCTED | MBEDTLS_ASN1_SEQUENCE ) ) != 0 )
 958:Source\mbedtls_open\library/pkparse.c ****     {
 959:Source\mbedtls_open\library/pkparse.c ****         return( MBEDTLS_ERR_PK_KEY_INVALID_FORMAT + ret );
 2010              		.loc 1 959 0
 2011 0020 3D4B     		ldr	r3, .L130
 2012 0022 C518     		adds	r5, r0, r3
 2013 0024 75E0     		b	.L119
 2014              	.L118:
 960:Source\mbedtls_open\library/pkparse.c ****     }
 961:Source\mbedtls_open\library/pkparse.c **** 
 962:Source\mbedtls_open\library/pkparse.c ****     end = p + len;
 2015              		.loc 1 962 0
 2016 0026 089B     		ldr	r3, [sp, #32]
 2017 0028 0C9A     		ldr	r2, [sp, #48]
 2018 002a 9446     		mov	ip, r2
 2019 002c 6344     		add	r3, r3, ip
 2020 002e 1E00     		movs	r6, r3
 2021              	.LVL314:
 963:Source\mbedtls_open\library/pkparse.c **** 
 964:Source\mbedtls_open\library/pkparse.c ****     if( ( ret = mbedtls_asn1_get_int( &p, end, &version ) ) != 0 )
ARM GAS  C:\Users\Phuong\AppData\Local\Temp\ccG6FMOL.s 			page 56


 2022              		.loc 1 964 0
 2023 0030 0DAA     		add	r2, sp, #52
 2024 0032 1900     		movs	r1, r3
 2025 0034 08A8     		add	r0, sp, #32
 2026              	.LVL315:
 2027 0036 FFF7FEFF 		bl	mbedtls_asn1_get_int
 2028              	.LVL316:
 2029 003a 0028     		cmp	r0, #0
 2030 003c 02D0     		beq	.L120
 965:Source\mbedtls_open\library/pkparse.c ****         return( MBEDTLS_ERR_PK_KEY_INVALID_FORMAT + ret );
 2031              		.loc 1 965 0
 2032 003e 364B     		ldr	r3, .L130
 2033 0040 C518     		adds	r5, r0, r3
 2034 0042 66E0     		b	.L119
 2035              	.L120:
 966:Source\mbedtls_open\library/pkparse.c **** 
 967:Source\mbedtls_open\library/pkparse.c ****     if( version != 0 )
 2036              		.loc 1 967 0
 2037 0044 0D9D     		ldr	r5, [sp, #52]
 2038 0046 002D     		cmp	r5, #0
 2039 0048 02D0     		beq	.L121
 968:Source\mbedtls_open\library/pkparse.c ****         return( MBEDTLS_ERR_PK_KEY_INVALID_VERSION + ret );
 2040              		.loc 1 968 0
 2041 004a 344B     		ldr	r3, .L130+4
 2042 004c C518     		adds	r5, r0, r3
 2043 004e 60E0     		b	.L119
 2044              	.L121:
 969:Source\mbedtls_open\library/pkparse.c **** 
 970:Source\mbedtls_open\library/pkparse.c ****     if( ( ret = pk_get_pk_alg( &p, end, &pk_alg, &params ) ) != 0 )
 2045              		.loc 1 970 0
 2046 0050 09AB     		add	r3, sp, #36
 2047 0052 1F22     		movs	r2, #31
 2048 0054 6A44     		add	r2, r2, sp
 2049 0056 3100     		movs	r1, r6
 2050 0058 08A8     		add	r0, sp, #32
 2051              	.LVL317:
 2052 005a FFF7FEFF 		bl	pk_get_pk_alg
 2053              	.LVL318:
 2054 005e 0028     		cmp	r0, #0
 2055 0060 02D0     		beq	.L122
 971:Source\mbedtls_open\library/pkparse.c ****         return( MBEDTLS_ERR_PK_KEY_INVALID_FORMAT + ret );
 2056              		.loc 1 971 0
 2057 0062 2D4B     		ldr	r3, .L130
 2058 0064 C518     		adds	r5, r0, r3
 2059 0066 54E0     		b	.L119
 2060              	.L122:
 972:Source\mbedtls_open\library/pkparse.c **** 
 973:Source\mbedtls_open\library/pkparse.c ****     if( ( ret = mbedtls_asn1_get_tag( &p, end, &len, MBEDTLS_ASN1_OCTET_STRING ) ) != 0 )
 2061              		.loc 1 973 0
 2062 0068 0423     		movs	r3, #4
 2063 006a 0CAA     		add	r2, sp, #48
 2064 006c 3100     		movs	r1, r6
 2065 006e 08A8     		add	r0, sp, #32
 2066              	.LVL319:
 2067 0070 FFF7FEFF 		bl	mbedtls_asn1_get_tag
 2068              	.LVL320:
 2069 0074 0028     		cmp	r0, #0
ARM GAS  C:\Users\Phuong\AppData\Local\Temp\ccG6FMOL.s 			page 57


 2070 0076 02D0     		beq	.L123
 974:Source\mbedtls_open\library/pkparse.c ****         return( MBEDTLS_ERR_PK_KEY_INVALID_FORMAT + ret );
 2071              		.loc 1 974 0
 2072 0078 274B     		ldr	r3, .L130
 2073 007a C518     		adds	r5, r0, r3
 2074 007c 49E0     		b	.L119
 2075              	.L123:
 975:Source\mbedtls_open\library/pkparse.c **** 
 976:Source\mbedtls_open\library/pkparse.c ****     if( len < 1 )
 2076              		.loc 1 976 0
 2077 007e 0C9B     		ldr	r3, [sp, #48]
 2078 0080 002B     		cmp	r3, #0
 2079 0082 3FD0     		beq	.L126
 977:Source\mbedtls_open\library/pkparse.c ****         return( MBEDTLS_ERR_PK_KEY_INVALID_FORMAT +
 978:Source\mbedtls_open\library/pkparse.c ****                 MBEDTLS_ERR_ASN1_OUT_OF_DATA );
 979:Source\mbedtls_open\library/pkparse.c **** 
 980:Source\mbedtls_open\library/pkparse.c ****     if( ( pk_info = mbedtls_pk_info_from_type( pk_alg ) ) == NULL )
 2080              		.loc 1 980 0
 2081 0084 1F23     		movs	r3, #31
 2082 0086 6B44     		add	r3, r3, sp
 2083 0088 1878     		ldrb	r0, [r3]
 2084              	.LVL321:
 2085 008a FFF7FEFF 		bl	mbedtls_pk_info_from_type
 2086              	.LVL322:
 2087 008e 0028     		cmp	r0, #0
 2088 0090 3AD0     		beq	.L127
 981:Source\mbedtls_open\library/pkparse.c ****         return( MBEDTLS_ERR_PK_UNKNOWN_PK_ALG );
 982:Source\mbedtls_open\library/pkparse.c **** 
 983:Source\mbedtls_open\library/pkparse.c ****     if( ( ret = mbedtls_pk_setup( pk, pk_info ) ) != 0 )
 2089              		.loc 1 983 0
 2090 0092 0100     		movs	r1, r0
 2091 0094 2000     		movs	r0, r4
 2092              	.LVL323:
 2093 0096 FFF7FEFF 		bl	mbedtls_pk_setup
 2094              	.LVL324:
 2095 009a 0028     		cmp	r0, #0
 2096 009c 36D1     		bne	.L128
 984:Source\mbedtls_open\library/pkparse.c ****         return( ret );
 985:Source\mbedtls_open\library/pkparse.c **** 
 986:Source\mbedtls_open\library/pkparse.c **** #if defined(MBEDTLS_RSA_C)
 987:Source\mbedtls_open\library/pkparse.c ****     if( pk_alg == MBEDTLS_PK_RSA )
 2097              		.loc 1 987 0
 2098 009e 1F23     		movs	r3, #31
 2099 00a0 6B44     		add	r3, r3, sp
 2100 00a2 1B78     		ldrb	r3, [r3]
 2101 00a4 012B     		cmp	r3, #1
 2102 00a6 0FD1     		bne	.L124
 2103 00a8 01AB     		add	r3, sp, #4
 2104 00aa 2200     		movs	r2, r4
 2105 00ac 03CA     		ldmia	r2!, {r0, r1}
 2106 00ae 03C3     		stmia	r3!, {r0, r1}
 2107              	.LVL325:
 988:Source\mbedtls_open\library/pkparse.c ****     {
 989:Source\mbedtls_open\library/pkparse.c ****         if( ( ret = pk_parse_key_pkcs1_der( mbedtls_pk_rsa( *pk ), p, len ) ) != 0 )
 2108              		.loc 1 989 0
 2109 00b0 0C9A     		ldr	r2, [sp, #48]
 2110 00b2 0899     		ldr	r1, [sp, #32]
ARM GAS  C:\Users\Phuong\AppData\Local\Temp\ccG6FMOL.s 			page 58


 2111 00b4 6068     		ldr	r0, [r4, #4]
 2112 00b6 FFF7FEFF 		bl	pk_parse_key_pkcs1_der
 2113              	.LVL326:
 2114 00ba 061E     		subs	r6, r0, #0
 2115              	.LVL327:
 2116 00bc 29D0     		beq	.L119
 990:Source\mbedtls_open\library/pkparse.c ****         {
 991:Source\mbedtls_open\library/pkparse.c ****             mbedtls_pk_free( pk );
 2117              		.loc 1 991 0
 2118 00be 2000     		movs	r0, r4
 2119              	.LVL328:
 2120 00c0 FFF7FEFF 		bl	mbedtls_pk_free
 2121              	.LVL329:
 992:Source\mbedtls_open\library/pkparse.c ****             return( ret );
 2122              		.loc 1 992 0
 2123 00c4 3500     		movs	r5, r6
 2124 00c6 24E0     		b	.L119
 2125              	.LVL330:
 2126              	.L124:
 993:Source\mbedtls_open\library/pkparse.c ****         }
 994:Source\mbedtls_open\library/pkparse.c ****     } else
 995:Source\mbedtls_open\library/pkparse.c **** #endif /* MBEDTLS_RSA_C */
 996:Source\mbedtls_open\library/pkparse.c **** #if defined(MBEDTLS_ECP_C)
 997:Source\mbedtls_open\library/pkparse.c ****     if( pk_alg == MBEDTLS_PK_ECKEY || pk_alg == MBEDTLS_PK_ECKEY_DH )
 2127              		.loc 1 997 0
 2128 00c8 023B     		subs	r3, r3, #2
 2129 00ca DBB2     		uxtb	r3, r3
 2130 00cc 012B     		cmp	r3, #1
 2131 00ce 1FD8     		bhi	.L129
 2132 00d0 03AB     		add	r3, sp, #12
 2133 00d2 2200     		movs	r2, r4
 2134 00d4 03CA     		ldmia	r2!, {r0, r1}
 2135 00d6 03C3     		stmia	r3!, {r0, r1}
 2136              	.LVL331:
 998:Source\mbedtls_open\library/pkparse.c ****     {
 999:Source\mbedtls_open\library/pkparse.c ****         if( ( ret = pk_use_ecparams( &params, &mbedtls_pk_ec( *pk )->grp ) ) != 0 ||
 2137              		.loc 1 999 0
 2138 00d8 6168     		ldr	r1, [r4, #4]
 2139 00da 09A8     		add	r0, sp, #36
 2140 00dc FFF7FEFF 		bl	pk_use_ecparams
 2141              	.LVL332:
 2142 00e0 061E     		subs	r6, r0, #0
 2143              	.LVL333:
 2144 00e2 0AD1     		bne	.L125
 2145 00e4 05AB     		add	r3, sp, #20
 2146 00e6 2200     		movs	r2, r4
 2147 00e8 03CA     		ldmia	r2!, {r0, r1}
 2148 00ea 03C3     		stmia	r3!, {r0, r1}
 2149              	.LVL334:
 2150              		.loc 1 999 0 is_stmt 0 discriminator 1
 2151 00ec 0C9A     		ldr	r2, [sp, #48]
 2152 00ee 0899     		ldr	r1, [sp, #32]
 2153 00f0 6068     		ldr	r0, [r4, #4]
 2154 00f2 FFF7FEFF 		bl	pk_parse_key_sec1_der
 2155              	.LVL335:
 2156 00f6 061E     		subs	r6, r0, #0
 2157              	.LVL336:
ARM GAS  C:\Users\Phuong\AppData\Local\Temp\ccG6FMOL.s 			page 59


 2158 00f8 0BD0     		beq	.L119
 2159              	.L125:
1000:Source\mbedtls_open\library/pkparse.c ****             ( ret = pk_parse_key_sec1_der( mbedtls_pk_ec( *pk ), p, len )  ) != 0 )
1001:Source\mbedtls_open\library/pkparse.c ****         {
1002:Source\mbedtls_open\library/pkparse.c ****             mbedtls_pk_free( pk );
 2160              		.loc 1 1002 0 is_stmt 1
 2161 00fa 2000     		movs	r0, r4
 2162              	.LVL337:
 2163 00fc FFF7FEFF 		bl	mbedtls_pk_free
 2164              	.LVL338:
1003:Source\mbedtls_open\library/pkparse.c ****             return( ret );
 2165              		.loc 1 1003 0
 2166 0100 3500     		movs	r5, r6
 2167 0102 06E0     		b	.L119
 2168              	.LVL339:
 2169              	.L126:
 977:Source\mbedtls_open\library/pkparse.c ****                 MBEDTLS_ERR_ASN1_OUT_OF_DATA );
 2170              		.loc 1 977 0
 2171 0104 064D     		ldr	r5, .L130+8
 2172 0106 04E0     		b	.L119
 2173              	.LVL340:
 2174              	.L127:
 981:Source\mbedtls_open\library/pkparse.c **** 
 2175              		.loc 1 981 0
 2176 0108 064D     		ldr	r5, .L130+12
 2177 010a 02E0     		b	.L119
 2178              	.LVL341:
 2179              	.L128:
 984:Source\mbedtls_open\library/pkparse.c **** 
 2180              		.loc 1 984 0
 2181 010c 0500     		movs	r5, r0
 2182 010e 00E0     		b	.L119
 2183              	.L129:
1004:Source\mbedtls_open\library/pkparse.c ****         }
1005:Source\mbedtls_open\library/pkparse.c ****     } else
1006:Source\mbedtls_open\library/pkparse.c **** #endif /* MBEDTLS_ECP_C */
1007:Source\mbedtls_open\library/pkparse.c ****         return( MBEDTLS_ERR_PK_UNKNOWN_PK_ALG );
 2184              		.loc 1 1007 0
 2185 0110 044D     		ldr	r5, .L130+12
 2186              	.LVL342:
 2187              	.L119:
1008:Source\mbedtls_open\library/pkparse.c **** 
1009:Source\mbedtls_open\library/pkparse.c ****     return( 0 );
1010:Source\mbedtls_open\library/pkparse.c **** }
 2188              		.loc 1 1010 0
 2189 0112 2800     		movs	r0, r5
 2190 0114 0EB0     		add	sp, sp, #56
 2191              		@ sp needed
 2192              	.LVL343:
 2193 0116 70BD     		pop	{r4, r5, r6, pc}
 2194              	.L131:
 2195              		.align	2
 2196              	.L130:
 2197 0118 00C3FFFF 		.word	-15616
 2198 011c 80C2FFFF 		.word	-15744
 2199 0120 A0C2FFFF 		.word	-15712
 2200 0124 80C3FFFF 		.word	-15488
ARM GAS  C:\Users\Phuong\AppData\Local\Temp\ccG6FMOL.s 			page 60


 2201              		.cfi_endproc
 2202              	.LFE22:
 2203              		.size	pk_parse_key_pkcs8_unencrypted_der, .-pk_parse_key_pkcs8_unencrypted_der
 2204              		.section	.text.pk_parse_key_pkcs8_encrypted_der,"ax",%progbits
 2205              		.align	2
 2206              		.code	16
 2207              		.thumb_func
 2208              		.type	pk_parse_key_pkcs8_encrypted_der, %function
 2209              	pk_parse_key_pkcs8_encrypted_der:
 2210              	.LFB23:
1011:Source\mbedtls_open\library/pkparse.c **** 
1012:Source\mbedtls_open\library/pkparse.c **** /*
1013:Source\mbedtls_open\library/pkparse.c ****  * Parse an encrypted PKCS#8 encoded private key
1014:Source\mbedtls_open\library/pkparse.c ****  *
1015:Source\mbedtls_open\library/pkparse.c ****  * To save space, the decryption happens in-place on the given key buffer.
1016:Source\mbedtls_open\library/pkparse.c ****  * Also, while this function may modify the keybuffer, it doesn't own it,
1017:Source\mbedtls_open\library/pkparse.c ****  * and instead it is the responsibility of the caller to zeroize and properly
1018:Source\mbedtls_open\library/pkparse.c ****  * free it after use.
1019:Source\mbedtls_open\library/pkparse.c ****  *
1020:Source\mbedtls_open\library/pkparse.c ****  */
1021:Source\mbedtls_open\library/pkparse.c **** #if defined(MBEDTLS_PKCS12_C) || defined(MBEDTLS_PKCS5_C)
1022:Source\mbedtls_open\library/pkparse.c **** static int pk_parse_key_pkcs8_encrypted_der(
1023:Source\mbedtls_open\library/pkparse.c ****                                     mbedtls_pk_context *pk,
1024:Source\mbedtls_open\library/pkparse.c ****                                     unsigned char *key, size_t keylen,
1025:Source\mbedtls_open\library/pkparse.c ****                                     const unsigned char *pwd, size_t pwdlen )
1026:Source\mbedtls_open\library/pkparse.c **** {
 2211              		.loc 1 1026 0
 2212              		.cfi_startproc
 2213              		@ args = 4, pretend = 0, frame = 40
 2214              		@ frame_needed = 0, uses_anonymous_args = 0
 2215              	.LVL344:
 2216 0000 F0B5     		push	{r4, r5, r6, r7, lr}
 2217              		.cfi_def_cfa_offset 20
 2218              		.cfi_offset 4, -20
 2219              		.cfi_offset 5, -16
 2220              		.cfi_offset 6, -12
 2221              		.cfi_offset 7, -8
 2222              		.cfi_offset 14, -4
 2223 0002 91B0     		sub	sp, sp, #68
 2224              		.cfi_def_cfa_offset 88
 2225 0004 0400     		movs	r4, r0
 2226 0006 1D00     		movs	r5, r3
 2227              	.LVL345:
1027:Source\mbedtls_open\library/pkparse.c ****     int ret, decrypted = 0;
1028:Source\mbedtls_open\library/pkparse.c ****     size_t len;
1029:Source\mbedtls_open\library/pkparse.c ****     unsigned char *buf;
1030:Source\mbedtls_open\library/pkparse.c ****     unsigned char *p, *end;
1031:Source\mbedtls_open\library/pkparse.c ****     mbedtls_asn1_buf pbe_alg_oid, pbe_params;
1032:Source\mbedtls_open\library/pkparse.c **** #if defined(MBEDTLS_PKCS12_C)
1033:Source\mbedtls_open\library/pkparse.c ****     mbedtls_cipher_type_t cipher_alg;
1034:Source\mbedtls_open\library/pkparse.c ****     mbedtls_md_type_t md_alg;
1035:Source\mbedtls_open\library/pkparse.c **** #endif
1036:Source\mbedtls_open\library/pkparse.c **** 
1037:Source\mbedtls_open\library/pkparse.c ****     p = key;
 2228              		.loc 1 1037 0
 2229 0008 0E91     		str	r1, [sp, #56]
1038:Source\mbedtls_open\library/pkparse.c ****     end = p + keylen;
ARM GAS  C:\Users\Phuong\AppData\Local\Temp\ccG6FMOL.s 			page 61


 2230              		.loc 1 1038 0
 2231 000a 8918     		adds	r1, r1, r2
 2232              	.LVL346:
1039:Source\mbedtls_open\library/pkparse.c **** 
1040:Source\mbedtls_open\library/pkparse.c ****     if( pwdlen == 0 )
 2233              		.loc 1 1040 0
 2234 000c 169B     		ldr	r3, [sp, #88]
 2235              	.LVL347:
 2236 000e 002B     		cmp	r3, #0
 2237 0010 00D1     		bne	.LCB2411
 2238 0012 98E0     		b	.L142	@long jump
 2239              	.LCB2411:
1041:Source\mbedtls_open\library/pkparse.c ****         return( MBEDTLS_ERR_PK_PASSWORD_REQUIRED );
1042:Source\mbedtls_open\library/pkparse.c **** 
1043:Source\mbedtls_open\library/pkparse.c ****     /*
1044:Source\mbedtls_open\library/pkparse.c ****      * This function parses the EncryptedPrivateKeyInfo object (PKCS#8)
1045:Source\mbedtls_open\library/pkparse.c ****      *
1046:Source\mbedtls_open\library/pkparse.c ****      *  EncryptedPrivateKeyInfo ::= SEQUENCE {
1047:Source\mbedtls_open\library/pkparse.c ****      *    encryptionAlgorithm  EncryptionAlgorithmIdentifier,
1048:Source\mbedtls_open\library/pkparse.c ****      *    encryptedData        EncryptedData
1049:Source\mbedtls_open\library/pkparse.c ****      *  }
1050:Source\mbedtls_open\library/pkparse.c ****      *
1051:Source\mbedtls_open\library/pkparse.c ****      *  EncryptionAlgorithmIdentifier ::= AlgorithmIdentifier
1052:Source\mbedtls_open\library/pkparse.c ****      *
1053:Source\mbedtls_open\library/pkparse.c ****      *  EncryptedData ::= OCTET STRING
1054:Source\mbedtls_open\library/pkparse.c ****      *
1055:Source\mbedtls_open\library/pkparse.c ****      *  The EncryptedData OCTET STRING is a PKCS#8 PrivateKeyInfo
1056:Source\mbedtls_open\library/pkparse.c ****      *
1057:Source\mbedtls_open\library/pkparse.c ****      */
1058:Source\mbedtls_open\library/pkparse.c ****     if( ( ret = mbedtls_asn1_get_tag( &p, end, &len,
 2240              		.loc 1 1058 0
 2241 0014 3023     		movs	r3, #48
 2242 0016 0FAA     		add	r2, sp, #60
 2243              	.LVL348:
 2244 0018 0EA8     		add	r0, sp, #56
 2245              	.LVL349:
 2246 001a FFF7FEFF 		bl	mbedtls_asn1_get_tag
 2247              	.LVL350:
 2248 001e 0028     		cmp	r0, #0
 2249 0020 03D0     		beq	.L134
1059:Source\mbedtls_open\library/pkparse.c ****             MBEDTLS_ASN1_CONSTRUCTED | MBEDTLS_ASN1_SEQUENCE ) ) != 0 )
1060:Source\mbedtls_open\library/pkparse.c ****     {
1061:Source\mbedtls_open\library/pkparse.c ****         return( MBEDTLS_ERR_PK_KEY_INVALID_FORMAT + ret );
 2250              		.loc 1 1061 0
 2251 0022 4C4B     		ldr	r3, .L153
 2252 0024 9C46     		mov	ip, r3
 2253 0026 6044     		add	r0, r0, ip
 2254              	.LVL351:
 2255 0028 92E0     		b	.L133
 2256              	.LVL352:
 2257              	.L134:
1062:Source\mbedtls_open\library/pkparse.c ****     }
1063:Source\mbedtls_open\library/pkparse.c **** 
1064:Source\mbedtls_open\library/pkparse.c ****     end = p + len;
 2258              		.loc 1 1064 0
 2259 002a 0E9B     		ldr	r3, [sp, #56]
 2260 002c 0F9A     		ldr	r2, [sp, #60]
ARM GAS  C:\Users\Phuong\AppData\Local\Temp\ccG6FMOL.s 			page 62


 2261 002e 9446     		mov	ip, r2
 2262 0030 6344     		add	r3, r3, ip
 2263 0032 1E00     		movs	r6, r3
 2264              	.LVL353:
1065:Source\mbedtls_open\library/pkparse.c **** 
1066:Source\mbedtls_open\library/pkparse.c ****     if( ( ret = mbedtls_asn1_get_alg( &p, end, &pbe_alg_oid, &pbe_params ) ) != 0 )
 2265              		.loc 1 1066 0
 2266 0034 08AB     		add	r3, sp, #32
 2267              	.LVL354:
 2268 0036 0BAA     		add	r2, sp, #44
 2269 0038 3100     		movs	r1, r6
 2270 003a 0EA8     		add	r0, sp, #56
 2271              	.LVL355:
 2272 003c FFF7FEFF 		bl	mbedtls_asn1_get_alg
 2273              	.LVL356:
 2274 0040 0028     		cmp	r0, #0
 2275 0042 03D0     		beq	.L135
1067:Source\mbedtls_open\library/pkparse.c ****         return( MBEDTLS_ERR_PK_KEY_INVALID_FORMAT + ret );
 2276              		.loc 1 1067 0
 2277 0044 434B     		ldr	r3, .L153
 2278 0046 9C46     		mov	ip, r3
 2279 0048 6044     		add	r0, r0, ip
 2280              	.LVL357:
 2281 004a 81E0     		b	.L133
 2282              	.LVL358:
 2283              	.L135:
1068:Source\mbedtls_open\library/pkparse.c **** 
1069:Source\mbedtls_open\library/pkparse.c ****     if( ( ret = mbedtls_asn1_get_tag( &p, end, &len, MBEDTLS_ASN1_OCTET_STRING ) ) != 0 )
 2284              		.loc 1 1069 0
 2285 004c 0423     		movs	r3, #4
 2286 004e 0FAA     		add	r2, sp, #60
 2287 0050 3100     		movs	r1, r6
 2288 0052 0EA8     		add	r0, sp, #56
 2289              	.LVL359:
 2290 0054 FFF7FEFF 		bl	mbedtls_asn1_get_tag
 2291              	.LVL360:
 2292 0058 0028     		cmp	r0, #0
 2293 005a 03D0     		beq	.L136
1070:Source\mbedtls_open\library/pkparse.c ****         return( MBEDTLS_ERR_PK_KEY_INVALID_FORMAT + ret );
 2294              		.loc 1 1070 0
 2295 005c 3D4B     		ldr	r3, .L153
 2296 005e 9C46     		mov	ip, r3
 2297 0060 6044     		add	r0, r0, ip
 2298              	.LVL361:
 2299 0062 75E0     		b	.L133
 2300              	.LVL362:
 2301              	.L136:
1071:Source\mbedtls_open\library/pkparse.c **** 
1072:Source\mbedtls_open\library/pkparse.c ****     buf = p;
 2302              		.loc 1 1072 0
 2303 0064 0E9E     		ldr	r6, [sp, #56]
 2304              	.LVL363:
1073:Source\mbedtls_open\library/pkparse.c **** 
1074:Source\mbedtls_open\library/pkparse.c ****     /*
1075:Source\mbedtls_open\library/pkparse.c ****      * Decrypt EncryptedData with appropriate PBE
1076:Source\mbedtls_open\library/pkparse.c ****      */
1077:Source\mbedtls_open\library/pkparse.c **** #if defined(MBEDTLS_PKCS12_C)
ARM GAS  C:\Users\Phuong\AppData\Local\Temp\ccG6FMOL.s 			page 63


1078:Source\mbedtls_open\library/pkparse.c ****     if( mbedtls_oid_get_pkcs12_pbe_alg( &pbe_alg_oid, &md_alg, &cipher_alg ) == 0 )
 2305              		.loc 1 1078 0
 2306 0066 1F22     		movs	r2, #31
 2307 0068 6A44     		add	r2, r2, sp
 2308 006a 1E21     		movs	r1, #30
 2309 006c 6944     		add	r1, r1, sp
 2310 006e 0BA8     		add	r0, sp, #44
 2311              	.LVL364:
 2312 0070 FFF7FEFF 		bl	mbedtls_oid_get_pkcs12_pbe_alg
 2313              	.LVL365:
 2314 0074 0028     		cmp	r0, #0
 2315 0076 18D1     		bne	.L137
1079:Source\mbedtls_open\library/pkparse.c ****     {
1080:Source\mbedtls_open\library/pkparse.c ****         if( ( ret = mbedtls_pkcs12_pbe( &pbe_params, MBEDTLS_PKCS12_PBE_DECRYPT,
 2316              		.loc 1 1080 0
 2317 0078 1F23     		movs	r3, #31
 2318 007a 6B44     		add	r3, r3, sp
 2319 007c 1A78     		ldrb	r2, [r3]
 2320 007e 1E23     		movs	r3, #30
 2321 0080 6B44     		add	r3, r3, sp
 2322 0082 1B78     		ldrb	r3, [r3]
 2323 0084 0496     		str	r6, [sp, #16]
 2324 0086 0F99     		ldr	r1, [sp, #60]
 2325 0088 0391     		str	r1, [sp, #12]
 2326 008a 0E99     		ldr	r1, [sp, #56]
 2327 008c 0291     		str	r1, [sp, #8]
 2328 008e 1699     		ldr	r1, [sp, #88]
 2329 0090 0191     		str	r1, [sp, #4]
 2330 0092 0095     		str	r5, [sp]
 2331 0094 0021     		movs	r1, #0
 2332 0096 08A8     		add	r0, sp, #32
 2333 0098 FFF7FEFF 		bl	mbedtls_pkcs12_pbe
 2334              	.LVL366:
 2335 009c 0028     		cmp	r0, #0
 2336 009e 45D0     		beq	.L143
1081:Source\mbedtls_open\library/pkparse.c ****                                 cipher_alg, md_alg,
1082:Source\mbedtls_open\library/pkparse.c ****                                 pwd, pwdlen, p, len, buf ) ) != 0 )
1083:Source\mbedtls_open\library/pkparse.c ****         {
1084:Source\mbedtls_open\library/pkparse.c ****             if( ret == MBEDTLS_ERR_PKCS12_PASSWORD_MISMATCH )
 2337              		.loc 1 1084 0
 2338 00a0 2D4B     		ldr	r3, .L153+4
 2339 00a2 9842     		cmp	r0, r3
 2340 00a4 54D1     		bne	.L133
1085:Source\mbedtls_open\library/pkparse.c ****                 return( MBEDTLS_ERR_PK_PASSWORD_MISMATCH );
 2341              		.loc 1 1085 0
 2342 00a6 2D48     		ldr	r0, .L153+8
 2343              	.LVL367:
 2344 00a8 52E0     		b	.L133
 2345              	.L137:
1086:Source\mbedtls_open\library/pkparse.c **** 
1087:Source\mbedtls_open\library/pkparse.c ****             return( ret );
1088:Source\mbedtls_open\library/pkparse.c ****         }
1089:Source\mbedtls_open\library/pkparse.c **** 
1090:Source\mbedtls_open\library/pkparse.c ****         decrypted = 1;
1091:Source\mbedtls_open\library/pkparse.c ****     }
1092:Source\mbedtls_open\library/pkparse.c ****     else if( MBEDTLS_OID_CMP( MBEDTLS_OID_PKCS12_PBE_SHA1_RC4_128, &pbe_alg_oid ) == 0 )
 2346              		.loc 1 1092 0
ARM GAS  C:\Users\Phuong\AppData\Local\Temp\ccG6FMOL.s 			page 64


 2347 00aa 0C9F     		ldr	r7, [sp, #48]
 2348 00ac 0A2F     		cmp	r7, #10
 2349 00ae 08D1     		bne	.L145
 2350              		.loc 1 1092 0 is_stmt 0 discriminator 2
 2351 00b0 3A00     		movs	r2, r7
 2352 00b2 0D99     		ldr	r1, [sp, #52]
 2353 00b4 2A48     		ldr	r0, .L153+12
 2354 00b6 FFF7FEFF 		bl	memcmp
 2355              	.LVL368:
 2356 00ba 0028     		cmp	r0, #0
 2357 00bc 02D0     		beq	.L139
 2358              		.loc 1 1092 0
 2359 00be 0120     		movs	r0, #1
 2360 00c0 00E0     		b	.L139
 2361              	.L145:
 2362 00c2 0120     		movs	r0, #1
 2363              	.L139:
 2364              		.loc 1 1092 0 discriminator 6
 2365 00c4 0028     		cmp	r0, #0
 2366 00c6 11D1     		bne	.L140
1093:Source\mbedtls_open\library/pkparse.c ****     {
1094:Source\mbedtls_open\library/pkparse.c ****         if( ( ret = mbedtls_pkcs12_pbe_sha1_rc4_128( &pbe_params,
 2367              		.loc 1 1094 0 is_stmt 1
 2368 00c8 0296     		str	r6, [sp, #8]
 2369 00ca 0F9B     		ldr	r3, [sp, #60]
 2370 00cc 0193     		str	r3, [sp, #4]
 2371 00ce 0E9B     		ldr	r3, [sp, #56]
 2372 00d0 0093     		str	r3, [sp]
 2373 00d2 169B     		ldr	r3, [sp, #88]
 2374 00d4 2A00     		movs	r2, r5
 2375 00d6 0021     		movs	r1, #0
 2376 00d8 08A8     		add	r0, sp, #32
 2377 00da FFF7FEFF 		bl	mbedtls_pkcs12_pbe_sha1_rc4_128
 2378              	.LVL369:
 2379 00de 0028     		cmp	r0, #0
 2380 00e0 36D1     		bne	.L133
1095:Source\mbedtls_open\library/pkparse.c ****                                              MBEDTLS_PKCS12_PBE_DECRYPT,
1096:Source\mbedtls_open\library/pkparse.c ****                                              pwd, pwdlen,
1097:Source\mbedtls_open\library/pkparse.c ****                                              p, len, buf ) ) != 0 )
1098:Source\mbedtls_open\library/pkparse.c ****         {
1099:Source\mbedtls_open\library/pkparse.c ****             return( ret );
1100:Source\mbedtls_open\library/pkparse.c ****         }
1101:Source\mbedtls_open\library/pkparse.c **** 
1102:Source\mbedtls_open\library/pkparse.c ****         // Best guess for password mismatch when using RC4. If first tag is
1103:Source\mbedtls_open\library/pkparse.c ****         // not MBEDTLS_ASN1_CONSTRUCTED | MBEDTLS_ASN1_SEQUENCE
1104:Source\mbedtls_open\library/pkparse.c ****         //
1105:Source\mbedtls_open\library/pkparse.c ****         if( *buf != ( MBEDTLS_ASN1_CONSTRUCTED | MBEDTLS_ASN1_SEQUENCE ) )
 2381              		.loc 1 1105 0
 2382 00e2 3378     		ldrb	r3, [r6]
 2383 00e4 302B     		cmp	r3, #48
 2384 00e6 30D1     		bne	.L147
1106:Source\mbedtls_open\library/pkparse.c ****             return( MBEDTLS_ERR_PK_PASSWORD_MISMATCH );
1107:Source\mbedtls_open\library/pkparse.c **** 
1108:Source\mbedtls_open\library/pkparse.c ****         decrypted = 1;
 2385              		.loc 1 1108 0
 2386 00e8 2F3B     		subs	r3, r3, #47
 2387 00ea 24E0     		b	.L138
ARM GAS  C:\Users\Phuong\AppData\Local\Temp\ccG6FMOL.s 			page 65


 2388              	.LVL370:
 2389              	.L140:
1109:Source\mbedtls_open\library/pkparse.c ****     }
1110:Source\mbedtls_open\library/pkparse.c ****     else
1111:Source\mbedtls_open\library/pkparse.c **** #endif /* MBEDTLS_PKCS12_C */
1112:Source\mbedtls_open\library/pkparse.c **** #if defined(MBEDTLS_PKCS5_C)
1113:Source\mbedtls_open\library/pkparse.c ****     if( MBEDTLS_OID_CMP( MBEDTLS_OID_PKCS5_PBES2, &pbe_alg_oid ) == 0 )
 2390              		.loc 1 1113 0
 2391 00ec 092F     		cmp	r7, #9
 2392 00ee 08D1     		bne	.L148
 2393              		.loc 1 1113 0 is_stmt 0 discriminator 2
 2394 00f0 3A00     		movs	r2, r7
 2395 00f2 0D99     		ldr	r1, [sp, #52]
 2396 00f4 1B48     		ldr	r0, .L153+16
 2397 00f6 FFF7FEFF 		bl	memcmp
 2398              	.LVL371:
 2399 00fa 0028     		cmp	r0, #0
 2400 00fc 02D0     		beq	.L141
 2401              		.loc 1 1113 0
 2402 00fe 0120     		movs	r0, #1
 2403 0100 00E0     		b	.L141
 2404              	.L148:
 2405 0102 0120     		movs	r0, #1
 2406              	.L141:
 2407              		.loc 1 1113 0 discriminator 6
 2408 0104 0028     		cmp	r0, #0
 2409 0106 13D1     		bne	.L149
1114:Source\mbedtls_open\library/pkparse.c ****     {
1115:Source\mbedtls_open\library/pkparse.c ****         if( ( ret = mbedtls_pkcs5_pbes2( &pbe_params, MBEDTLS_PKCS5_DECRYPT, pwd, pwdlen,
 2410              		.loc 1 1115 0 is_stmt 1
 2411 0108 0296     		str	r6, [sp, #8]
 2412 010a 0F9B     		ldr	r3, [sp, #60]
 2413 010c 0193     		str	r3, [sp, #4]
 2414 010e 0E9B     		ldr	r3, [sp, #56]
 2415 0110 0093     		str	r3, [sp]
 2416 0112 169B     		ldr	r3, [sp, #88]
 2417 0114 2A00     		movs	r2, r5
 2418 0116 0021     		movs	r1, #0
 2419 0118 08A8     		add	r0, sp, #32
 2420 011a FFF7FEFF 		bl	mbedtls_pkcs5_pbes2
 2421              	.LVL372:
 2422 011e 0028     		cmp	r0, #0
 2423 0120 08D0     		beq	.L150
1116:Source\mbedtls_open\library/pkparse.c ****                                   p, len, buf ) ) != 0 )
1117:Source\mbedtls_open\library/pkparse.c ****         {
1118:Source\mbedtls_open\library/pkparse.c ****             if( ret == MBEDTLS_ERR_PKCS5_PASSWORD_MISMATCH )
 2424              		.loc 1 1118 0
 2425 0122 114B     		ldr	r3, .L153+20
 2426 0124 9842     		cmp	r0, r3
 2427 0126 13D1     		bne	.L133
1119:Source\mbedtls_open\library/pkparse.c ****                 return( MBEDTLS_ERR_PK_PASSWORD_MISMATCH );
 2428              		.loc 1 1119 0
 2429 0128 0C48     		ldr	r0, .L153+8
 2430              	.LVL373:
 2431 012a 11E0     		b	.L133
 2432              	.LVL374:
 2433              	.L143:
ARM GAS  C:\Users\Phuong\AppData\Local\Temp\ccG6FMOL.s 			page 66


1090:Source\mbedtls_open\library/pkparse.c ****     }
 2434              		.loc 1 1090 0
 2435 012c 0123     		movs	r3, #1
 2436 012e 02E0     		b	.L138
 2437              	.LVL375:
 2438              	.L149:
1027:Source\mbedtls_open\library/pkparse.c ****     size_t len;
 2439              		.loc 1 1027 0
 2440 0130 0023     		movs	r3, #0
 2441 0132 00E0     		b	.L138
 2442              	.LVL376:
 2443              	.L150:
1120:Source\mbedtls_open\library/pkparse.c **** 
1121:Source\mbedtls_open\library/pkparse.c ****             return( ret );
1122:Source\mbedtls_open\library/pkparse.c ****         }
1123:Source\mbedtls_open\library/pkparse.c **** 
1124:Source\mbedtls_open\library/pkparse.c ****         decrypted = 1;
 2444              		.loc 1 1124 0
 2445 0134 0123     		movs	r3, #1
 2446              	.LVL377:
 2447              	.L138:
1125:Source\mbedtls_open\library/pkparse.c ****     }
1126:Source\mbedtls_open\library/pkparse.c ****     else
1127:Source\mbedtls_open\library/pkparse.c **** #endif /* MBEDTLS_PKCS5_C */
1128:Source\mbedtls_open\library/pkparse.c ****     {
1129:Source\mbedtls_open\library/pkparse.c ****         ((void) pwd);
1130:Source\mbedtls_open\library/pkparse.c ****     }
1131:Source\mbedtls_open\library/pkparse.c **** 
1132:Source\mbedtls_open\library/pkparse.c ****     if( decrypted == 0 )
 2448              		.loc 1 1132 0
 2449 0136 002B     		cmp	r3, #0
 2450 0138 09D0     		beq	.L152
1133:Source\mbedtls_open\library/pkparse.c ****         return( MBEDTLS_ERR_PK_FEATURE_UNAVAILABLE );
1134:Source\mbedtls_open\library/pkparse.c **** 
1135:Source\mbedtls_open\library/pkparse.c ****     return( pk_parse_key_pkcs8_unencrypted_der( pk, buf, len ) );
 2451              		.loc 1 1135 0
 2452 013a 0F9A     		ldr	r2, [sp, #60]
 2453 013c 3100     		movs	r1, r6
 2454 013e 2000     		movs	r0, r4
 2455 0140 FFF7FEFF 		bl	pk_parse_key_pkcs8_unencrypted_der
 2456              	.LVL378:
 2457 0144 04E0     		b	.L133
 2458              	.LVL379:
 2459              	.L142:
1041:Source\mbedtls_open\library/pkparse.c **** 
 2460              		.loc 1 1041 0
 2461 0146 0948     		ldr	r0, .L153+24
 2462              	.LVL380:
 2463 0148 02E0     		b	.L133
 2464              	.LVL381:
 2465              	.L147:
1106:Source\mbedtls_open\library/pkparse.c **** 
 2466              		.loc 1 1106 0
 2467 014a 0448     		ldr	r0, .L153+8
 2468              	.LVL382:
 2469 014c 00E0     		b	.L133
 2470              	.LVL383:
ARM GAS  C:\Users\Phuong\AppData\Local\Temp\ccG6FMOL.s 			page 67


 2471              	.L152:
1133:Source\mbedtls_open\library/pkparse.c ****         return( MBEDTLS_ERR_PK_FEATURE_UNAVAILABLE );
 2472              		.loc 1 1133 0
 2473 014e 0848     		ldr	r0, .L153+28
 2474              	.LVL384:
 2475              	.L133:
1136:Source\mbedtls_open\library/pkparse.c **** }
 2476              		.loc 1 1136 0
 2477 0150 11B0     		add	sp, sp, #68
 2478              		@ sp needed
 2479              	.LVL385:
 2480              	.LVL386:
 2481 0152 F0BD     		pop	{r4, r5, r6, r7, pc}
 2482              	.L154:
 2483              		.align	2
 2484              	.L153:
 2485 0154 00C3FFFF 		.word	-15616
 2486 0158 00E2FFFF 		.word	-7680
 2487 015c 80C4FFFF 		.word	-15232
 2488 0160 08000000 		.word	.LC2
 2489 0164 14000000 		.word	.LC4
 2490 0168 00D2FFFF 		.word	-11776
 2491 016c 00C4FFFF 		.word	-15360
 2492 0170 80C6FFFF 		.word	-14720
 2493              		.cfi_endproc
 2494              	.LFE23:
 2495              		.size	pk_parse_key_pkcs8_encrypted_der, .-pk_parse_key_pkcs8_encrypted_der
 2496              		.section	.text.mbedtls_pk_parse_subpubkey,"ax",%progbits
 2497              		.align	2
 2498              		.global	mbedtls_pk_parse_subpubkey
 2499              		.code	16
 2500              		.thumb_func
 2501              		.type	mbedtls_pk_parse_subpubkey, %function
 2502              	mbedtls_pk_parse_subpubkey:
 2503              	.LFB19:
 601:Source\mbedtls_open\library/pkparse.c ****     int ret;
 2504              		.loc 1 601 0
 2505              		.cfi_startproc
 2506              		@ args = 0, pretend = 0, frame = 48
 2507              		@ frame_needed = 0, uses_anonymous_args = 0
 2508              	.LVL387:
 2509 0000 F0B5     		push	{r4, r5, r6, r7, lr}
 2510              		.cfi_def_cfa_offset 20
 2511              		.cfi_offset 4, -20
 2512              		.cfi_offset 5, -16
 2513              		.cfi_offset 6, -12
 2514              		.cfi_offset 7, -8
 2515              		.cfi_offset 14, -4
 2516 0002 8DB0     		sub	sp, sp, #52
 2517              		.cfi_def_cfa_offset 72
 2518 0004 0600     		movs	r6, r0
 2519 0006 1400     		movs	r4, r2
 605:Source\mbedtls_open\library/pkparse.c ****     const mbedtls_pk_info_t *pk_info;
 2520              		.loc 1 605 0
 2521 0008 0022     		movs	r2, #0
 2522              	.LVL388:
 2523 000a 1F23     		movs	r3, #31
ARM GAS  C:\Users\Phuong\AppData\Local\Temp\ccG6FMOL.s 			page 68


 2524 000c 6B44     		add	r3, r3, sp
 2525 000e 1A70     		strb	r2, [r3]
 608:Source\mbedtls_open\library/pkparse.c ****                     MBEDTLS_ASN1_CONSTRUCTED | MBEDTLS_ASN1_SEQUENCE ) ) != 0 )
 2526              		.loc 1 608 0
 2527 0010 3023     		movs	r3, #48
 2528 0012 0BAA     		add	r2, sp, #44
 2529 0014 FFF7FEFF 		bl	mbedtls_asn1_get_tag
 2530              	.LVL389:
 2531 0018 0028     		cmp	r0, #0
 2532 001a 03D0     		beq	.L156
 611:Source\mbedtls_open\library/pkparse.c ****     }
 2533              		.loc 1 611 0
 2534 001c 364B     		ldr	r3, .L169
 2535 001e 9C46     		mov	ip, r3
 2536 0020 6044     		add	r0, r0, ip
 2537              	.LVL390:
 2538 0022 67E0     		b	.L157
 2539              	.LVL391:
 2540              	.L156:
 614:Source\mbedtls_open\library/pkparse.c **** 
 2541              		.loc 1 614 0
 2542 0024 3368     		ldr	r3, [r6]
 2543 0026 0B9A     		ldr	r2, [sp, #44]
 2544 0028 9446     		mov	ip, r2
 2545 002a 6344     		add	r3, r3, ip
 2546 002c 1F00     		movs	r7, r3
 2547              	.LVL392:
 616:Source\mbedtls_open\library/pkparse.c ****         return( ret );
 2548              		.loc 1 616 0
 2549 002e 08AB     		add	r3, sp, #32
 2550              	.LVL393:
 2551 0030 1F22     		movs	r2, #31
 2552 0032 6A44     		add	r2, r2, sp
 2553 0034 3900     		movs	r1, r7
 2554 0036 3000     		movs	r0, r6
 2555              	.LVL394:
 2556 0038 FFF7FEFF 		bl	pk_get_pk_alg
 2557              	.LVL395:
 2558 003c 0028     		cmp	r0, #0
 2559 003e 59D1     		bne	.L157
 619:Source\mbedtls_open\library/pkparse.c ****         return( MBEDTLS_ERR_PK_INVALID_PUBKEY + ret );
 2560              		.loc 1 619 0
 2561 0040 0BAA     		add	r2, sp, #44
 2562 0042 3900     		movs	r1, r7
 2563 0044 3000     		movs	r0, r6
 2564              	.LVL396:
 2565 0046 FFF7FEFF 		bl	mbedtls_asn1_get_bitstring_null
 2566              	.LVL397:
 2567 004a 0028     		cmp	r0, #0
 2568 004c 03D0     		beq	.L158
 620:Source\mbedtls_open\library/pkparse.c **** 
 2569              		.loc 1 620 0
 2570 004e 2B4B     		ldr	r3, .L169+4
 2571 0050 9C46     		mov	ip, r3
 2572 0052 6044     		add	r0, r0, ip
 2573              	.LVL398:
 2574 0054 4EE0     		b	.L157
ARM GAS  C:\Users\Phuong\AppData\Local\Temp\ccG6FMOL.s 			page 69


 2575              	.LVL399:
 2576              	.L158:
 622:Source\mbedtls_open\library/pkparse.c ****         return( MBEDTLS_ERR_PK_INVALID_PUBKEY +
 2577              		.loc 1 622 0
 2578 0056 3368     		ldr	r3, [r6]
 2579 0058 0B9A     		ldr	r2, [sp, #44]
 2580 005a 9446     		mov	ip, r2
 2581 005c 6344     		add	r3, r3, ip
 2582 005e 9F42     		cmp	r7, r3
 2583 0060 43D1     		bne	.L163
 626:Source\mbedtls_open\library/pkparse.c ****         return( MBEDTLS_ERR_PK_UNKNOWN_PK_ALG );
 2584              		.loc 1 626 0
 2585 0062 1F23     		movs	r3, #31
 2586 0064 6B44     		add	r3, r3, sp
 2587 0066 1878     		ldrb	r0, [r3]
 2588              	.LVL400:
 2589 0068 FFF7FEFF 		bl	mbedtls_pk_info_from_type
 2590              	.LVL401:
 2591 006c 0028     		cmp	r0, #0
 2592 006e 3ED0     		beq	.L164
 629:Source\mbedtls_open\library/pkparse.c ****         return( ret );
 2593              		.loc 1 629 0
 2594 0070 0100     		movs	r1, r0
 2595 0072 2000     		movs	r0, r4
 2596              	.LVL402:
 2597 0074 FFF7FEFF 		bl	mbedtls_pk_setup
 2598              	.LVL403:
 2599 0078 0028     		cmp	r0, #0
 2600 007a 3BD1     		bne	.L157
 633:Source\mbedtls_open\library/pkparse.c ****     {
 2601              		.loc 1 633 0
 2602 007c 1F23     		movs	r3, #31
 2603 007e 6B44     		add	r3, r3, sp
 2604 0080 1B78     		ldrb	r3, [r3]
 2605 0082 012B     		cmp	r3, #1
 2606 0084 0AD1     		bne	.L159
 2607 0086 01AB     		add	r3, sp, #4
 2608 0088 2200     		movs	r2, r4
 2609 008a 03CA     		ldmia	r2!, {r0, r1}
 2610 008c 03C3     		stmia	r3!, {r0, r1}
 2611              	.LVL404:
 635:Source\mbedtls_open\library/pkparse.c ****     } else
 2612              		.loc 1 635 0
 2613 008e 6268     		ldr	r2, [r4, #4]
 2614 0090 3900     		movs	r1, r7
 2615 0092 3000     		movs	r0, r6
 2616 0094 FFF7FEFF 		bl	pk_get_rsapubkey
 2617              	.LVL405:
 2618 0098 0500     		movs	r5, r0
 2619              	.LVL406:
 2620 009a 19E0     		b	.L160
 2621              	.L159:
 639:Source\mbedtls_open\library/pkparse.c ****     {
 2622              		.loc 1 639 0
 2623 009c 023B     		subs	r3, r3, #2
 2624 009e DBB2     		uxtb	r3, r3
 2625 00a0 012B     		cmp	r3, #1
ARM GAS  C:\Users\Phuong\AppData\Local\Temp\ccG6FMOL.s 			page 70


 2626 00a2 14D8     		bhi	.L166
 2627 00a4 03AB     		add	r3, sp, #12
 2628 00a6 2200     		movs	r2, r4
 2629 00a8 03CA     		ldmia	r2!, {r0, r1}
 2630 00aa 03C3     		stmia	r3!, {r0, r1}
 2631              	.LVL407:
 641:Source\mbedtls_open\library/pkparse.c ****         if( ret == 0 )
 2632              		.loc 1 641 0
 2633 00ac 6168     		ldr	r1, [r4, #4]
 2634 00ae 08A8     		add	r0, sp, #32
 2635 00b0 FFF7FEFF 		bl	pk_use_ecparams
 2636              	.LVL408:
 2637 00b4 051E     		subs	r5, r0, #0
 2638              	.LVL409:
 642:Source\mbedtls_open\library/pkparse.c ****             ret = pk_get_ecpubkey( p, end, mbedtls_pk_ec( *pk ) );
 2639              		.loc 1 642 0
 2640 00b6 0BD1     		bne	.L160
 2641 00b8 05AB     		add	r3, sp, #20
 2642 00ba 2200     		movs	r2, r4
 2643 00bc 03CA     		ldmia	r2!, {r0, r1}
 2644 00be 03C3     		stmia	r3!, {r0, r1}
 2645              	.LVL410:
 643:Source\mbedtls_open\library/pkparse.c ****     } else
 2646              		.loc 1 643 0
 2647 00c0 6268     		ldr	r2, [r4, #4]
 2648 00c2 3900     		movs	r1, r7
 2649 00c4 3000     		movs	r0, r6
 2650 00c6 FFF7FEFF 		bl	pk_get_ecpubkey
 2651              	.LVL411:
 2652 00ca 0500     		movs	r5, r0
 2653              	.LVL412:
 2654 00cc 00E0     		b	.L160
 2655              	.L166:
 646:Source\mbedtls_open\library/pkparse.c **** 
 2656              		.loc 1 646 0
 2657 00ce 0C4D     		ldr	r5, .L169+8
 2658              	.L160:
 2659              	.LVL413:
 648:Source\mbedtls_open\library/pkparse.c ****         ret = MBEDTLS_ERR_PK_INVALID_PUBKEY
 2660              		.loc 1 648 0
 2661 00d0 002D     		cmp	r5, #0
 2662 00d2 03D1     		bne	.L161
 648:Source\mbedtls_open\library/pkparse.c ****         ret = MBEDTLS_ERR_PK_INVALID_PUBKEY
 2663              		.loc 1 648 0 is_stmt 0 discriminator 1
 2664 00d4 3368     		ldr	r3, [r6]
 2665 00d6 9F42     		cmp	r7, r3
 2666 00d8 00D0     		beq	.L161
 649:Source\mbedtls_open\library/pkparse.c ****               MBEDTLS_ERR_ASN1_LENGTH_MISMATCH;
 2667              		.loc 1 649 0 is_stmt 1
 2668 00da 0A4D     		ldr	r5, .L169+12
 2669              	.LVL414:
 2670              	.L161:
 652:Source\mbedtls_open\library/pkparse.c ****         mbedtls_pk_free( pk );
 2671              		.loc 1 652 0
 2672 00dc 002D     		cmp	r5, #0
 2673 00de 08D0     		beq	.L168
 653:Source\mbedtls_open\library/pkparse.c **** 
ARM GAS  C:\Users\Phuong\AppData\Local\Temp\ccG6FMOL.s 			page 71


 2674              		.loc 1 653 0
 2675 00e0 2000     		movs	r0, r4
 2676 00e2 FFF7FEFF 		bl	mbedtls_pk_free
 2677              	.LVL415:
 655:Source\mbedtls_open\library/pkparse.c **** }
 2678              		.loc 1 655 0
 2679 00e6 2800     		movs	r0, r5
 2680 00e8 04E0     		b	.L157
 2681              	.LVL416:
 2682              	.L163:
 623:Source\mbedtls_open\library/pkparse.c ****                 MBEDTLS_ERR_ASN1_LENGTH_MISMATCH );
 2683              		.loc 1 623 0
 2684 00ea 0648     		ldr	r0, .L169+12
 2685              	.LVL417:
 2686 00ec 02E0     		b	.L157
 2687              	.LVL418:
 2688              	.L164:
 627:Source\mbedtls_open\library/pkparse.c **** 
 2689              		.loc 1 627 0
 2690 00ee 0448     		ldr	r0, .L169+8
 2691              	.LVL419:
 2692 00f0 00E0     		b	.L157
 2693              	.LVL420:
 2694              	.L168:
 655:Source\mbedtls_open\library/pkparse.c **** }
 2695              		.loc 1 655 0
 2696 00f2 2800     		movs	r0, r5
 2697              	.LVL421:
 2698              	.L157:
 656:Source\mbedtls_open\library/pkparse.c **** 
 2699              		.loc 1 656 0
 2700 00f4 0DB0     		add	sp, sp, #52
 2701              		@ sp needed
 2702              	.LVL422:
 2703              	.LVL423:
 2704 00f6 F0BD     		pop	{r4, r5, r6, r7, pc}
 2705              	.L170:
 2706              		.align	2
 2707              	.L169:
 2708 00f8 00C3FFFF 		.word	-15616
 2709 00fc 00C5FFFF 		.word	-15104
 2710 0100 80C3FFFF 		.word	-15488
 2711 0104 9AC4FFFF 		.word	-15206
 2712              		.cfi_endproc
 2713              	.LFE19:
 2714              		.size	mbedtls_pk_parse_subpubkey, .-mbedtls_pk_parse_subpubkey
 2715              		.section	.text.mbedtls_pk_parse_key,"ax",%progbits
 2716              		.align	2
 2717              		.global	mbedtls_pk_parse_key
 2718              		.code	16
 2719              		.thumb_func
 2720              		.type	mbedtls_pk_parse_key, %function
 2721              	mbedtls_pk_parse_key:
 2722              	.LFB24:
1137:Source\mbedtls_open\library/pkparse.c **** #endif /* MBEDTLS_PKCS12_C || MBEDTLS_PKCS5_C */
1138:Source\mbedtls_open\library/pkparse.c **** 
1139:Source\mbedtls_open\library/pkparse.c **** /*
ARM GAS  C:\Users\Phuong\AppData\Local\Temp\ccG6FMOL.s 			page 72


1140:Source\mbedtls_open\library/pkparse.c ****  * Parse a private key
1141:Source\mbedtls_open\library/pkparse.c ****  */
1142:Source\mbedtls_open\library/pkparse.c **** int mbedtls_pk_parse_key( mbedtls_pk_context *pk,
1143:Source\mbedtls_open\library/pkparse.c ****                   const unsigned char *key, size_t keylen,
1144:Source\mbedtls_open\library/pkparse.c ****                   const unsigned char *pwd, size_t pwdlen )
1145:Source\mbedtls_open\library/pkparse.c **** {
 2723              		.loc 1 1145 0
 2724              		.cfi_startproc
 2725              		@ args = 4, pretend = 0, frame = 56
 2726              		@ frame_needed = 0, uses_anonymous_args = 0
 2727              	.LVL424:
 2728 0000 F0B5     		push	{r4, r5, r6, r7, lr}
 2729              		.cfi_def_cfa_offset 20
 2730              		.cfi_offset 4, -20
 2731              		.cfi_offset 5, -16
 2732              		.cfi_offset 6, -12
 2733              		.cfi_offset 7, -8
 2734              		.cfi_offset 14, -4
 2735 0002 93B0     		sub	sp, sp, #76
 2736              		.cfi_def_cfa_offset 96
 2737 0004 0600     		movs	r6, r0
 2738 0006 0D00     		movs	r5, r1
 2739 0008 1700     		movs	r7, r2
 2740 000a 1C00     		movs	r4, r3
1146:Source\mbedtls_open\library/pkparse.c ****     int ret;
1147:Source\mbedtls_open\library/pkparse.c ****     const mbedtls_pk_info_t *pk_info;
1148:Source\mbedtls_open\library/pkparse.c **** 
1149:Source\mbedtls_open\library/pkparse.c **** #if defined(MBEDTLS_PEM_PARSE_C)
1150:Source\mbedtls_open\library/pkparse.c ****     size_t len;
1151:Source\mbedtls_open\library/pkparse.c ****     mbedtls_pem_context pem;
1152:Source\mbedtls_open\library/pkparse.c **** 
1153:Source\mbedtls_open\library/pkparse.c ****     mbedtls_pem_init( &pem );
 2741              		.loc 1 1153 0
 2742 000c 0EA8     		add	r0, sp, #56
 2743              	.LVL425:
 2744 000e FFF7FEFF 		bl	mbedtls_pem_init
 2745              	.LVL426:
1154:Source\mbedtls_open\library/pkparse.c **** 
1155:Source\mbedtls_open\library/pkparse.c **** #if defined(MBEDTLS_RSA_C)
1156:Source\mbedtls_open\library/pkparse.c ****     /* Avoid calling mbedtls_pem_read_buffer() on non-null-terminated string */
1157:Source\mbedtls_open\library/pkparse.c ****     if( keylen == 0 || key[keylen - 1] != '\0' )
 2746              		.loc 1 1157 0
 2747 0012 002F     		cmp	r7, #0
 2748 0014 10D0     		beq	.L189
 2749              		.loc 1 1157 0 is_stmt 0 discriminator 1
 2750 0016 EB19     		adds	r3, r5, r7
 2751 0018 013B     		subs	r3, r3, #1
 2752 001a 1B78     		ldrb	r3, [r3]
 2753 001c 002B     		cmp	r3, #0
 2754 001e 0DD1     		bne	.L190
1158:Source\mbedtls_open\library/pkparse.c ****         ret = MBEDTLS_ERR_PEM_NO_HEADER_FOOTER_PRESENT;
1159:Source\mbedtls_open\library/pkparse.c ****     else
1160:Source\mbedtls_open\library/pkparse.c ****         ret = mbedtls_pem_read_buffer( &pem,
 2755              		.loc 1 1160 0 is_stmt 1
 2756 0020 11AB     		add	r3, sp, #68
 2757 0022 0293     		str	r3, [sp, #8]
 2758 0024 189B     		ldr	r3, [sp, #96]
ARM GAS  C:\Users\Phuong\AppData\Local\Temp\ccG6FMOL.s 			page 73


 2759 0026 0193     		str	r3, [sp, #4]
 2760 0028 0094     		str	r4, [sp]
 2761 002a 2B00     		movs	r3, r5
 2762 002c 9A4A     		ldr	r2, .L206
 2763 002e 9B49     		ldr	r1, .L206+4
 2764 0030 0EA8     		add	r0, sp, #56
 2765 0032 FFF7FEFF 		bl	mbedtls_pem_read_buffer
 2766              	.LVL427:
 2767 0036 02E0     		b	.L172
 2768              	.LVL428:
 2769              	.L189:
1158:Source\mbedtls_open\library/pkparse.c ****         ret = MBEDTLS_ERR_PEM_NO_HEADER_FOOTER_PRESENT;
 2770              		.loc 1 1158 0
 2771 0038 9948     		ldr	r0, .L206+8
 2772 003a 00E0     		b	.L172
 2773              	.L190:
 2774 003c 9848     		ldr	r0, .L206+8
 2775              	.L172:
 2776              	.LVL429:
1161:Source\mbedtls_open\library/pkparse.c ****                                "-----BEGIN RSA PRIVATE KEY-----",
1162:Source\mbedtls_open\library/pkparse.c ****                                "-----END RSA PRIVATE KEY-----",
1163:Source\mbedtls_open\library/pkparse.c ****                                key, pwd, pwdlen, &len );
1164:Source\mbedtls_open\library/pkparse.c **** 
1165:Source\mbedtls_open\library/pkparse.c ****     if( ret == 0 )
 2777              		.loc 1 1165 0
 2778 003e 0028     		cmp	r0, #0
 2779 0040 1BD1     		bne	.L173
1166:Source\mbedtls_open\library/pkparse.c ****     {
1167:Source\mbedtls_open\library/pkparse.c ****         pk_info = mbedtls_pk_info_from_type( MBEDTLS_PK_RSA );
 2780              		.loc 1 1167 0
 2781 0042 0130     		adds	r0, r0, #1
 2782              	.LVL430:
 2783 0044 FFF7FEFF 		bl	mbedtls_pk_info_from_type
 2784              	.LVL431:
 2785 0048 0100     		movs	r1, r0
 2786              	.LVL432:
1168:Source\mbedtls_open\library/pkparse.c ****         if( ( ret = mbedtls_pk_setup( pk, pk_info ) ) != 0 ||
 2787              		.loc 1 1168 0
 2788 004a 3000     		movs	r0, r6
 2789              	.LVL433:
 2790 004c FFF7FEFF 		bl	mbedtls_pk_setup
 2791              	.LVL434:
 2792 0050 041E     		subs	r4, r0, #0
 2793              	.LVL435:
 2794 0052 0AD1     		bne	.L174
 2795 0054 06AB     		add	r3, sp, #24
 2796 0056 3200     		movs	r2, r6
 2797 0058 03CA     		ldmia	r2!, {r0, r1}
 2798 005a 03C3     		stmia	r3!, {r0, r1}
 2799              	.LVL436:
 2800              		.loc 1 1168 0 is_stmt 0 discriminator 1
 2801 005c 0F9A     		ldr	r2, [sp, #60]
 2802 005e 0E99     		ldr	r1, [sp, #56]
 2803 0060 7068     		ldr	r0, [r6, #4]
 2804 0062 FFF7FEFF 		bl	pk_parse_key_pkcs1_der
 2805              	.LVL437:
 2806 0066 041E     		subs	r4, r0, #0
ARM GAS  C:\Users\Phuong\AppData\Local\Temp\ccG6FMOL.s 			page 74


 2807              	.LVL438:
 2808 0068 02D0     		beq	.L175
 2809              	.L174:
1169:Source\mbedtls_open\library/pkparse.c ****             ( ret = pk_parse_key_pkcs1_der( mbedtls_pk_rsa( *pk ),
1170:Source\mbedtls_open\library/pkparse.c ****                                             pem.buf, pem.buflen ) ) != 0 )
1171:Source\mbedtls_open\library/pkparse.c ****         {
1172:Source\mbedtls_open\library/pkparse.c ****             mbedtls_pk_free( pk );
 2810              		.loc 1 1172 0 is_stmt 1
 2811 006a 3000     		movs	r0, r6
 2812              	.LVL439:
 2813 006c FFF7FEFF 		bl	mbedtls_pk_free
 2814              	.LVL440:
 2815              	.L175:
1173:Source\mbedtls_open\library/pkparse.c ****         }
1174:Source\mbedtls_open\library/pkparse.c **** 
1175:Source\mbedtls_open\library/pkparse.c ****         mbedtls_pem_free( &pem );
 2816              		.loc 1 1175 0
 2817 0070 0EA8     		add	r0, sp, #56
 2818 0072 FFF7FEFF 		bl	mbedtls_pem_free
 2819              	.LVL441:
1176:Source\mbedtls_open\library/pkparse.c ****         return( ret );
 2820              		.loc 1 1176 0
 2821 0076 2000     		movs	r0, r4
 2822 0078 0BE1     		b	.L176
 2823              	.LVL442:
 2824              	.L173:
1177:Source\mbedtls_open\library/pkparse.c ****     }
1178:Source\mbedtls_open\library/pkparse.c ****     else if( ret == MBEDTLS_ERR_PEM_PASSWORD_MISMATCH )
 2825              		.loc 1 1178 0
 2826 007a 8A4B     		ldr	r3, .L206+12
 2827 007c 9842     		cmp	r0, r3
 2828 007e 00D1     		bne	.LCB3087
 2829 0080 F2E0     		b	.L191	@long jump
 2830              	.LCB3087:
1179:Source\mbedtls_open\library/pkparse.c ****         return( MBEDTLS_ERR_PK_PASSWORD_MISMATCH );
1180:Source\mbedtls_open\library/pkparse.c ****     else if( ret == MBEDTLS_ERR_PEM_PASSWORD_REQUIRED )
 2831              		.loc 1 1180 0
 2832 0082 894B     		ldr	r3, .L206+16
 2833 0084 9842     		cmp	r0, r3
 2834 0086 00D1     		bne	.LCB3090
 2835 0088 F0E0     		b	.L192	@long jump
 2836              	.LCB3090:
1181:Source\mbedtls_open\library/pkparse.c ****         return( MBEDTLS_ERR_PK_PASSWORD_REQUIRED );
1182:Source\mbedtls_open\library/pkparse.c ****     else if( ret != MBEDTLS_ERR_PEM_NO_HEADER_FOOTER_PRESENT )
 2837              		.loc 1 1182 0
 2838 008a 854B     		ldr	r3, .L206+8
 2839 008c 9842     		cmp	r0, r3
 2840 008e 00D0     		beq	.LCB3093
 2841 0090 FFE0     		b	.L176	@long jump
 2842              	.LCB3093:
1183:Source\mbedtls_open\library/pkparse.c ****         return( ret );
1184:Source\mbedtls_open\library/pkparse.c **** #endif /* MBEDTLS_RSA_C */
1185:Source\mbedtls_open\library/pkparse.c **** 
1186:Source\mbedtls_open\library/pkparse.c **** #if defined(MBEDTLS_ECP_C)
1187:Source\mbedtls_open\library/pkparse.c ****     /* Avoid calling mbedtls_pem_read_buffer() on non-null-terminated string */
1188:Source\mbedtls_open\library/pkparse.c ****     if( keylen == 0 || key[keylen - 1] != '\0' )
 2843              		.loc 1 1188 0
ARM GAS  C:\Users\Phuong\AppData\Local\Temp\ccG6FMOL.s 			page 75


 2844 0092 002F     		cmp	r7, #0
 2845 0094 0FD0     		beq	.L177
 2846              		.loc 1 1188 0 is_stmt 0 discriminator 1
 2847 0096 EB19     		adds	r3, r5, r7
 2848 0098 013B     		subs	r3, r3, #1
 2849 009a 1B78     		ldrb	r3, [r3]
 2850 009c 002B     		cmp	r3, #0
 2851 009e 0AD1     		bne	.L177
1189:Source\mbedtls_open\library/pkparse.c ****         ret = MBEDTLS_ERR_PEM_NO_HEADER_FOOTER_PRESENT;
1190:Source\mbedtls_open\library/pkparse.c ****     else
1191:Source\mbedtls_open\library/pkparse.c ****         ret = mbedtls_pem_read_buffer( &pem,
 2852              		.loc 1 1191 0 is_stmt 1
 2853 00a0 11AB     		add	r3, sp, #68
 2854 00a2 0293     		str	r3, [sp, #8]
 2855 00a4 189B     		ldr	r3, [sp, #96]
 2856 00a6 0193     		str	r3, [sp, #4]
 2857 00a8 0094     		str	r4, [sp]
 2858 00aa 2B00     		movs	r3, r5
 2859 00ac 7F4A     		ldr	r2, .L206+20
 2860 00ae 8049     		ldr	r1, .L206+24
 2861 00b0 0EA8     		add	r0, sp, #56
 2862              	.LVL443:
 2863 00b2 FFF7FEFF 		bl	mbedtls_pem_read_buffer
 2864              	.LVL444:
 2865              	.L177:
1192:Source\mbedtls_open\library/pkparse.c ****                                "-----BEGIN EC PRIVATE KEY-----",
1193:Source\mbedtls_open\library/pkparse.c ****                                "-----END EC PRIVATE KEY-----",
1194:Source\mbedtls_open\library/pkparse.c ****                                key, pwd, pwdlen, &len );
1195:Source\mbedtls_open\library/pkparse.c ****     if( ret == 0 )
 2866              		.loc 1 1195 0
 2867 00b6 0028     		cmp	r0, #0
 2868 00b8 1BD1     		bne	.L178
1196:Source\mbedtls_open\library/pkparse.c ****     {
1197:Source\mbedtls_open\library/pkparse.c ****         pk_info = mbedtls_pk_info_from_type( MBEDTLS_PK_ECKEY );
 2869              		.loc 1 1197 0
 2870 00ba 0230     		adds	r0, r0, #2
 2871              	.LVL445:
 2872 00bc FFF7FEFF 		bl	mbedtls_pk_info_from_type
 2873              	.LVL446:
 2874 00c0 0100     		movs	r1, r0
 2875              	.LVL447:
1198:Source\mbedtls_open\library/pkparse.c **** 
1199:Source\mbedtls_open\library/pkparse.c ****         if( ( ret = mbedtls_pk_setup( pk, pk_info ) ) != 0 ||
 2876              		.loc 1 1199 0
 2877 00c2 3000     		movs	r0, r6
 2878              	.LVL448:
 2879 00c4 FFF7FEFF 		bl	mbedtls_pk_setup
 2880              	.LVL449:
 2881 00c8 041E     		subs	r4, r0, #0
 2882              	.LVL450:
 2883 00ca 0AD1     		bne	.L179
 2884 00cc 08AB     		add	r3, sp, #32
 2885 00ce 3200     		movs	r2, r6
 2886 00d0 03CA     		ldmia	r2!, {r0, r1}
 2887 00d2 03C3     		stmia	r3!, {r0, r1}
 2888              	.LVL451:
 2889              		.loc 1 1199 0 is_stmt 0 discriminator 1
ARM GAS  C:\Users\Phuong\AppData\Local\Temp\ccG6FMOL.s 			page 76


 2890 00d4 0F9A     		ldr	r2, [sp, #60]
 2891 00d6 0E99     		ldr	r1, [sp, #56]
 2892 00d8 7068     		ldr	r0, [r6, #4]
 2893 00da FFF7FEFF 		bl	pk_parse_key_sec1_der
 2894              	.LVL452:
 2895 00de 041E     		subs	r4, r0, #0
 2896              	.LVL453:
 2897 00e0 02D0     		beq	.L180
 2898              	.L179:
1200:Source\mbedtls_open\library/pkparse.c ****             ( ret = pk_parse_key_sec1_der( mbedtls_pk_ec( *pk ),
1201:Source\mbedtls_open\library/pkparse.c ****                                            pem.buf, pem.buflen ) ) != 0 )
1202:Source\mbedtls_open\library/pkparse.c ****         {
1203:Source\mbedtls_open\library/pkparse.c ****             mbedtls_pk_free( pk );
 2899              		.loc 1 1203 0 is_stmt 1
 2900 00e2 3000     		movs	r0, r6
 2901              	.LVL454:
 2902 00e4 FFF7FEFF 		bl	mbedtls_pk_free
 2903              	.LVL455:
 2904              	.L180:
1204:Source\mbedtls_open\library/pkparse.c ****         }
1205:Source\mbedtls_open\library/pkparse.c **** 
1206:Source\mbedtls_open\library/pkparse.c ****         mbedtls_pem_free( &pem );
 2905              		.loc 1 1206 0
 2906 00e8 0EA8     		add	r0, sp, #56
 2907 00ea FFF7FEFF 		bl	mbedtls_pem_free
 2908              	.LVL456:
1207:Source\mbedtls_open\library/pkparse.c ****         return( ret );
 2909              		.loc 1 1207 0
 2910 00ee 2000     		movs	r0, r4
 2911 00f0 CFE0     		b	.L176
 2912              	.LVL457:
 2913              	.L178:
1208:Source\mbedtls_open\library/pkparse.c ****     }
1209:Source\mbedtls_open\library/pkparse.c ****     else if( ret == MBEDTLS_ERR_PEM_PASSWORD_MISMATCH )
 2914              		.loc 1 1209 0
 2915 00f2 6C4B     		ldr	r3, .L206+12
 2916 00f4 9842     		cmp	r0, r3
 2917 00f6 00D1     		bne	.LCB3183
 2918 00f8 BAE0     		b	.L194	@long jump
 2919              	.LCB3183:
1210:Source\mbedtls_open\library/pkparse.c ****         return( MBEDTLS_ERR_PK_PASSWORD_MISMATCH );
1211:Source\mbedtls_open\library/pkparse.c ****     else if( ret == MBEDTLS_ERR_PEM_PASSWORD_REQUIRED )
 2920              		.loc 1 1211 0
 2921 00fa 6B4B     		ldr	r3, .L206+16
 2922 00fc 9842     		cmp	r0, r3
 2923 00fe 00D1     		bne	.LCB3186
 2924 0100 B8E0     		b	.L195	@long jump
 2925              	.LCB3186:
1212:Source\mbedtls_open\library/pkparse.c ****         return( MBEDTLS_ERR_PK_PASSWORD_REQUIRED );
1213:Source\mbedtls_open\library/pkparse.c ****     else if( ret != MBEDTLS_ERR_PEM_NO_HEADER_FOOTER_PRESENT )
 2926              		.loc 1 1213 0
 2927 0102 674B     		ldr	r3, .L206+8
 2928 0104 9842     		cmp	r0, r3
 2929 0106 00D0     		beq	.LCB3189
 2930 0108 C3E0     		b	.L176	@long jump
 2931              	.LCB3189:
1214:Source\mbedtls_open\library/pkparse.c ****         return( ret );
ARM GAS  C:\Users\Phuong\AppData\Local\Temp\ccG6FMOL.s 			page 77


1215:Source\mbedtls_open\library/pkparse.c **** #endif /* MBEDTLS_ECP_C */
1216:Source\mbedtls_open\library/pkparse.c **** 
1217:Source\mbedtls_open\library/pkparse.c ****     /* Avoid calling mbedtls_pem_read_buffer() on non-null-terminated string */
1218:Source\mbedtls_open\library/pkparse.c ****     if( keylen == 0 || key[keylen - 1] != '\0' )
 2932              		.loc 1 1218 0
 2933 010a 002F     		cmp	r7, #0
 2934 010c 0FD0     		beq	.L181
 2935              		.loc 1 1218 0 is_stmt 0 discriminator 1
 2936 010e EB19     		adds	r3, r5, r7
 2937 0110 013B     		subs	r3, r3, #1
 2938 0112 1B78     		ldrb	r3, [r3]
 2939 0114 002B     		cmp	r3, #0
 2940 0116 0AD1     		bne	.L181
1219:Source\mbedtls_open\library/pkparse.c ****         ret = MBEDTLS_ERR_PEM_NO_HEADER_FOOTER_PRESENT;
1220:Source\mbedtls_open\library/pkparse.c ****     else
1221:Source\mbedtls_open\library/pkparse.c ****         ret = mbedtls_pem_read_buffer( &pem,
 2941              		.loc 1 1221 0 is_stmt 1
 2942 0118 11AB     		add	r3, sp, #68
 2943 011a 0293     		str	r3, [sp, #8]
 2944 011c 0023     		movs	r3, #0
 2945 011e 0193     		str	r3, [sp, #4]
 2946 0120 0093     		str	r3, [sp]
 2947 0122 2B00     		movs	r3, r5
 2948 0124 634A     		ldr	r2, .L206+28
 2949 0126 6449     		ldr	r1, .L206+32
 2950 0128 0EA8     		add	r0, sp, #56
 2951              	.LVL458:
 2952 012a FFF7FEFF 		bl	mbedtls_pem_read_buffer
 2953              	.LVL459:
 2954              	.L181:
1222:Source\mbedtls_open\library/pkparse.c ****                                "-----BEGIN PRIVATE KEY-----",
1223:Source\mbedtls_open\library/pkparse.c ****                                "-----END PRIVATE KEY-----",
1224:Source\mbedtls_open\library/pkparse.c ****                                key, NULL, 0, &len );
1225:Source\mbedtls_open\library/pkparse.c ****     if( ret == 0 )
 2955              		.loc 1 1225 0
 2956 012e 0028     		cmp	r0, #0
 2957 0130 0ED1     		bne	.L182
1226:Source\mbedtls_open\library/pkparse.c ****     {
1227:Source\mbedtls_open\library/pkparse.c ****         if( ( ret = pk_parse_key_pkcs8_unencrypted_der( pk,
 2958              		.loc 1 1227 0
 2959 0132 0F9A     		ldr	r2, [sp, #60]
 2960 0134 0E99     		ldr	r1, [sp, #56]
 2961 0136 3000     		movs	r0, r6
 2962              	.LVL460:
 2963 0138 FFF7FEFF 		bl	pk_parse_key_pkcs8_unencrypted_der
 2964              	.LVL461:
 2965 013c 041E     		subs	r4, r0, #0
 2966              	.LVL462:
 2967 013e 02D0     		beq	.L183
1228:Source\mbedtls_open\library/pkparse.c ****                                                 pem.buf, pem.buflen ) ) != 0 )
1229:Source\mbedtls_open\library/pkparse.c ****         {
1230:Source\mbedtls_open\library/pkparse.c ****             mbedtls_pk_free( pk );
 2968              		.loc 1 1230 0
 2969 0140 3000     		movs	r0, r6
 2970              	.LVL463:
 2971 0142 FFF7FEFF 		bl	mbedtls_pk_free
 2972              	.LVL464:
ARM GAS  C:\Users\Phuong\AppData\Local\Temp\ccG6FMOL.s 			page 78


 2973              	.L183:
1231:Source\mbedtls_open\library/pkparse.c ****         }
1232:Source\mbedtls_open\library/pkparse.c **** 
1233:Source\mbedtls_open\library/pkparse.c ****         mbedtls_pem_free( &pem );
 2974              		.loc 1 1233 0
 2975 0146 0EA8     		add	r0, sp, #56
 2976 0148 FFF7FEFF 		bl	mbedtls_pem_free
 2977              	.LVL465:
1234:Source\mbedtls_open\library/pkparse.c ****         return( ret );
 2978              		.loc 1 1234 0
 2979 014c 2000     		movs	r0, r4
 2980 014e A0E0     		b	.L176
 2981              	.LVL466:
 2982              	.L182:
1235:Source\mbedtls_open\library/pkparse.c ****     }
1236:Source\mbedtls_open\library/pkparse.c ****     else if( ret != MBEDTLS_ERR_PEM_NO_HEADER_FOOTER_PRESENT )
 2983              		.loc 1 1236 0
 2984 0150 534B     		ldr	r3, .L206+8
 2985 0152 9842     		cmp	r0, r3
 2986 0154 00D0     		beq	.LCB3250
 2987 0156 9CE0     		b	.L176	@long jump
 2988              	.LCB3250:
1237:Source\mbedtls_open\library/pkparse.c ****         return( ret );
1238:Source\mbedtls_open\library/pkparse.c **** 
1239:Source\mbedtls_open\library/pkparse.c **** #if defined(MBEDTLS_PKCS12_C) || defined(MBEDTLS_PKCS5_C)
1240:Source\mbedtls_open\library/pkparse.c ****     /* Avoid calling mbedtls_pem_read_buffer() on non-null-terminated string */
1241:Source\mbedtls_open\library/pkparse.c ****     if( keylen == 0 || key[keylen - 1] != '\0' )
 2989              		.loc 1 1241 0
 2990 0158 002F     		cmp	r7, #0
 2991 015a 0FD0     		beq	.L184
 2992              		.loc 1 1241 0 is_stmt 0 discriminator 1
 2993 015c EB19     		adds	r3, r5, r7
 2994 015e 013B     		subs	r3, r3, #1
 2995 0160 1B78     		ldrb	r3, [r3]
 2996 0162 002B     		cmp	r3, #0
 2997 0164 0AD1     		bne	.L184
1242:Source\mbedtls_open\library/pkparse.c ****         ret = MBEDTLS_ERR_PEM_NO_HEADER_FOOTER_PRESENT;
1243:Source\mbedtls_open\library/pkparse.c ****     else
1244:Source\mbedtls_open\library/pkparse.c ****         ret = mbedtls_pem_read_buffer( &pem,
 2998              		.loc 1 1244 0 is_stmt 1
 2999 0166 11AB     		add	r3, sp, #68
 3000 0168 0293     		str	r3, [sp, #8]
 3001 016a 0023     		movs	r3, #0
 3002 016c 0193     		str	r3, [sp, #4]
 3003 016e 0093     		str	r3, [sp]
 3004 0170 2B00     		movs	r3, r5
 3005 0172 524A     		ldr	r2, .L206+36
 3006 0174 5249     		ldr	r1, .L206+40
 3007 0176 0EA8     		add	r0, sp, #56
 3008              	.LVL467:
 3009 0178 FFF7FEFF 		bl	mbedtls_pem_read_buffer
 3010              	.LVL468:
 3011              	.L184:
1245:Source\mbedtls_open\library/pkparse.c ****                                "-----BEGIN ENCRYPTED PRIVATE KEY-----",
1246:Source\mbedtls_open\library/pkparse.c ****                                "-----END ENCRYPTED PRIVATE KEY-----",
1247:Source\mbedtls_open\library/pkparse.c ****                                key, NULL, 0, &len );
1248:Source\mbedtls_open\library/pkparse.c ****     if( ret == 0 )
ARM GAS  C:\Users\Phuong\AppData\Local\Temp\ccG6FMOL.s 			page 79


 3012              		.loc 1 1248 0
 3013 017c 0028     		cmp	r0, #0
 3014 017e 11D1     		bne	.L185
1249:Source\mbedtls_open\library/pkparse.c ****     {
1250:Source\mbedtls_open\library/pkparse.c ****         if( ( ret = pk_parse_key_pkcs8_encrypted_der( pk,
 3015              		.loc 1 1250 0
 3016 0180 189B     		ldr	r3, [sp, #96]
 3017 0182 0093     		str	r3, [sp]
 3018 0184 2300     		movs	r3, r4
 3019 0186 0F9A     		ldr	r2, [sp, #60]
 3020 0188 0E99     		ldr	r1, [sp, #56]
 3021 018a 3000     		movs	r0, r6
 3022              	.LVL469:
 3023 018c FFF7FEFF 		bl	pk_parse_key_pkcs8_encrypted_der
 3024              	.LVL470:
 3025 0190 041E     		subs	r4, r0, #0
 3026              	.LVL471:
 3027 0192 02D0     		beq	.L186
1251:Source\mbedtls_open\library/pkparse.c ****                                                       pem.buf, pem.buflen,
1252:Source\mbedtls_open\library/pkparse.c ****                                                       pwd, pwdlen ) ) != 0 )
1253:Source\mbedtls_open\library/pkparse.c ****         {
1254:Source\mbedtls_open\library/pkparse.c ****             mbedtls_pk_free( pk );
 3028              		.loc 1 1254 0
 3029 0194 3000     		movs	r0, r6
 3030              	.LVL472:
 3031 0196 FFF7FEFF 		bl	mbedtls_pk_free
 3032              	.LVL473:
 3033              	.L186:
1255:Source\mbedtls_open\library/pkparse.c ****         }
1256:Source\mbedtls_open\library/pkparse.c **** 
1257:Source\mbedtls_open\library/pkparse.c ****         mbedtls_pem_free( &pem );
 3034              		.loc 1 1257 0
 3035 019a 0EA8     		add	r0, sp, #56
 3036 019c FFF7FEFF 		bl	mbedtls_pem_free
 3037              	.LVL474:
1258:Source\mbedtls_open\library/pkparse.c ****         return( ret );
 3038              		.loc 1 1258 0
 3039 01a0 2000     		movs	r0, r4
 3040 01a2 76E0     		b	.L176
 3041              	.LVL475:
 3042              	.L185:
1259:Source\mbedtls_open\library/pkparse.c ****     }
1260:Source\mbedtls_open\library/pkparse.c ****     else if( ret != MBEDTLS_ERR_PEM_NO_HEADER_FOOTER_PRESENT )
 3043              		.loc 1 1260 0
 3044 01a4 3E4B     		ldr	r3, .L206+8
 3045 01a6 9842     		cmp	r0, r3
 3046 01a8 73D1     		bne	.L176
 3047              	.LBB27:
1261:Source\mbedtls_open\library/pkparse.c ****         return( ret );
1262:Source\mbedtls_open\library/pkparse.c **** #endif /* MBEDTLS_PKCS12_C || MBEDTLS_PKCS5_C */
1263:Source\mbedtls_open\library/pkparse.c **** #else
1264:Source\mbedtls_open\library/pkparse.c ****     ((void) pwd);
1265:Source\mbedtls_open\library/pkparse.c ****     ((void) pwdlen);
1266:Source\mbedtls_open\library/pkparse.c **** #endif /* MBEDTLS_PEM_PARSE_C */
1267:Source\mbedtls_open\library/pkparse.c **** 
1268:Source\mbedtls_open\library/pkparse.c ****     /*
1269:Source\mbedtls_open\library/pkparse.c ****      * At this point we only know it's not a PEM formatted key. Could be any
ARM GAS  C:\Users\Phuong\AppData\Local\Temp\ccG6FMOL.s 			page 80


1270:Source\mbedtls_open\library/pkparse.c ****      * of the known DER encoded private key formats
1271:Source\mbedtls_open\library/pkparse.c ****      *
1272:Source\mbedtls_open\library/pkparse.c ****      * We try the different DER format parsers to see if one passes without
1273:Source\mbedtls_open\library/pkparse.c ****      * error
1274:Source\mbedtls_open\library/pkparse.c ****      */
1275:Source\mbedtls_open\library/pkparse.c **** #if defined(MBEDTLS_PKCS12_C) || defined(MBEDTLS_PKCS5_C)
1276:Source\mbedtls_open\library/pkparse.c ****     {
1277:Source\mbedtls_open\library/pkparse.c ****         unsigned char *key_copy;
1278:Source\mbedtls_open\library/pkparse.c **** 
1279:Source\mbedtls_open\library/pkparse.c ****         if( keylen == 0 )
 3048              		.loc 1 1279 0
 3049 01aa 002F     		cmp	r7, #0
 3050 01ac 64D0     		beq	.L199
1280:Source\mbedtls_open\library/pkparse.c ****             return( MBEDTLS_ERR_PK_KEY_INVALID_FORMAT );
1281:Source\mbedtls_open\library/pkparse.c **** 
1282:Source\mbedtls_open\library/pkparse.c ****         if( ( key_copy = mbedtls_calloc( 1, keylen ) ) == NULL )
 3051              		.loc 1 1282 0
 3052 01ae 3900     		movs	r1, r7
 3053 01b0 0120     		movs	r0, #1
 3054              	.LVL476:
 3055 01b2 FFF7FEFF 		bl	calloc
 3056              	.LVL477:
 3057 01b6 0028     		cmp	r0, #0
 3058 01b8 60D0     		beq	.L200
1283:Source\mbedtls_open\library/pkparse.c ****             return( MBEDTLS_ERR_PK_ALLOC_FAILED );
1284:Source\mbedtls_open\library/pkparse.c **** 
1285:Source\mbedtls_open\library/pkparse.c ****         memcpy( key_copy, key, keylen );
 3059              		.loc 1 1285 0
 3060 01ba 3A00     		movs	r2, r7
 3061 01bc 2900     		movs	r1, r5
 3062 01be 0590     		str	r0, [sp, #20]
 3063 01c0 FFF7FEFF 		bl	memcpy
 3064              	.LVL478:
1286:Source\mbedtls_open\library/pkparse.c **** 
1287:Source\mbedtls_open\library/pkparse.c ****         ret = pk_parse_key_pkcs8_encrypted_der( pk, key_copy, keylen,
 3065              		.loc 1 1287 0
 3066 01c4 189A     		ldr	r2, [sp, #96]
 3067 01c6 0092     		str	r2, [sp]
 3068 01c8 2300     		movs	r3, r4
 3069 01ca 3A00     		movs	r2, r7
 3070 01cc 0599     		ldr	r1, [sp, #20]
 3071 01ce 3000     		movs	r0, r6
 3072 01d0 FFF7FEFF 		bl	pk_parse_key_pkcs8_encrypted_der
 3073              	.LVL479:
 3074 01d4 0400     		movs	r4, r0
 3075              	.LVL480:
1288:Source\mbedtls_open\library/pkparse.c ****                                                 pwd, pwdlen );
1289:Source\mbedtls_open\library/pkparse.c **** 
1290:Source\mbedtls_open\library/pkparse.c ****         mbedtls_platform_zeroize( key_copy, keylen );
 3076              		.loc 1 1290 0
 3077 01d6 3900     		movs	r1, r7
 3078 01d8 0598     		ldr	r0, [sp, #20]
 3079              	.LVL481:
 3080 01da FFF7FEFF 		bl	mbedtls_platform_zeroize
 3081              	.LVL482:
1291:Source\mbedtls_open\library/pkparse.c ****         mbedtls_free( key_copy );
 3082              		.loc 1 1291 0
ARM GAS  C:\Users\Phuong\AppData\Local\Temp\ccG6FMOL.s 			page 81


 3083 01de 0598     		ldr	r0, [sp, #20]
 3084 01e0 FFF7FEFF 		bl	free
 3085              	.LVL483:
 3086              	.LBE27:
1292:Source\mbedtls_open\library/pkparse.c ****     }
1293:Source\mbedtls_open\library/pkparse.c **** 
1294:Source\mbedtls_open\library/pkparse.c ****     if( ret == 0 )
 3087              		.loc 1 1294 0
 3088 01e4 002C     		cmp	r4, #0
 3089 01e6 4BD0     		beq	.L201
1295:Source\mbedtls_open\library/pkparse.c ****         return( 0 );
1296:Source\mbedtls_open\library/pkparse.c **** 
1297:Source\mbedtls_open\library/pkparse.c ****     mbedtls_pk_free( pk );
 3090              		.loc 1 1297 0
 3091 01e8 3000     		movs	r0, r6
 3092 01ea FFF7FEFF 		bl	mbedtls_pk_free
 3093              	.LVL484:
1298:Source\mbedtls_open\library/pkparse.c **** 
1299:Source\mbedtls_open\library/pkparse.c ****     if( ret == MBEDTLS_ERR_PK_PASSWORD_MISMATCH )
 3094              		.loc 1 1299 0
 3095 01ee 354B     		ldr	r3, .L206+44
 3096 01f0 9C42     		cmp	r4, r3
 3097 01f2 47D0     		beq	.L202
1300:Source\mbedtls_open\library/pkparse.c ****     {
1301:Source\mbedtls_open\library/pkparse.c ****         return( ret );
1302:Source\mbedtls_open\library/pkparse.c ****     }
1303:Source\mbedtls_open\library/pkparse.c **** #endif /* MBEDTLS_PKCS12_C || MBEDTLS_PKCS5_C */
1304:Source\mbedtls_open\library/pkparse.c **** 
1305:Source\mbedtls_open\library/pkparse.c ****     if( ( ret = pk_parse_key_pkcs8_unencrypted_der( pk, key, keylen ) ) == 0 )
 3098              		.loc 1 1305 0
 3099 01f4 3A00     		movs	r2, r7
 3100 01f6 2900     		movs	r1, r5
 3101 01f8 3000     		movs	r0, r6
 3102 01fa FFF7FEFF 		bl	pk_parse_key_pkcs8_unencrypted_der
 3103              	.LVL485:
 3104 01fe 0028     		cmp	r0, #0
 3105 0200 42D0     		beq	.L203
1306:Source\mbedtls_open\library/pkparse.c ****         return( 0 );
1307:Source\mbedtls_open\library/pkparse.c **** 
1308:Source\mbedtls_open\library/pkparse.c ****     mbedtls_pk_free( pk );
 3106              		.loc 1 1308 0
 3107 0202 3000     		movs	r0, r6
 3108              	.LVL486:
 3109 0204 FFF7FEFF 		bl	mbedtls_pk_free
 3110              	.LVL487:
1309:Source\mbedtls_open\library/pkparse.c **** 
1310:Source\mbedtls_open\library/pkparse.c **** #if defined(MBEDTLS_RSA_C)
1311:Source\mbedtls_open\library/pkparse.c **** 
1312:Source\mbedtls_open\library/pkparse.c ****     pk_info = mbedtls_pk_info_from_type( MBEDTLS_PK_RSA );
 3111              		.loc 1 1312 0
 3112 0208 0120     		movs	r0, #1
 3113 020a FFF7FEFF 		bl	mbedtls_pk_info_from_type
 3114              	.LVL488:
 3115 020e 0100     		movs	r1, r0
 3116              	.LVL489:
1313:Source\mbedtls_open\library/pkparse.c ****     if( ( ret = mbedtls_pk_setup( pk, pk_info ) ) != 0 ||
 3117              		.loc 1 1313 0
ARM GAS  C:\Users\Phuong\AppData\Local\Temp\ccG6FMOL.s 			page 82


 3118 0210 3000     		movs	r0, r6
 3119              	.LVL490:
 3120 0212 FFF7FEFF 		bl	mbedtls_pk_setup
 3121              	.LVL491:
 3122 0216 0028     		cmp	r0, #0
 3123 0218 0AD1     		bne	.L187
 3124 021a 0AAB     		add	r3, sp, #40
 3125 021c 3200     		movs	r2, r6
 3126 021e 03CA     		ldmia	r2!, {r0, r1}
 3127 0220 03C3     		stmia	r3!, {r0, r1}
 3128              	.LVL492:
 3129              		.loc 1 1313 0 is_stmt 0 discriminator 1
 3130 0222 3A00     		movs	r2, r7
 3131 0224 2900     		movs	r1, r5
 3132 0226 7068     		ldr	r0, [r6, #4]
 3133 0228 FFF7FEFF 		bl	pk_parse_key_pkcs1_der
 3134              	.LVL493:
 3135 022c 0028     		cmp	r0, #0
 3136 022e 2DD0     		beq	.L204
 3137              	.L187:
1314:Source\mbedtls_open\library/pkparse.c ****         ( ret = pk_parse_key_pkcs1_der( mbedtls_pk_rsa( *pk ),
1315:Source\mbedtls_open\library/pkparse.c ****                                         key, keylen ) ) != 0 )
1316:Source\mbedtls_open\library/pkparse.c ****     {
1317:Source\mbedtls_open\library/pkparse.c ****         mbedtls_pk_free( pk );
 3138              		.loc 1 1317 0 is_stmt 1
 3139 0230 3000     		movs	r0, r6
 3140              	.LVL494:
 3141 0232 FFF7FEFF 		bl	mbedtls_pk_free
 3142              	.LVL495:
1318:Source\mbedtls_open\library/pkparse.c ****     }
1319:Source\mbedtls_open\library/pkparse.c ****     else
1320:Source\mbedtls_open\library/pkparse.c ****     {
1321:Source\mbedtls_open\library/pkparse.c ****         return( 0 );
1322:Source\mbedtls_open\library/pkparse.c ****     }
1323:Source\mbedtls_open\library/pkparse.c **** 
1324:Source\mbedtls_open\library/pkparse.c **** #endif /* MBEDTLS_RSA_C */
1325:Source\mbedtls_open\library/pkparse.c **** 
1326:Source\mbedtls_open\library/pkparse.c **** #if defined(MBEDTLS_ECP_C)
1327:Source\mbedtls_open\library/pkparse.c **** 
1328:Source\mbedtls_open\library/pkparse.c ****     pk_info = mbedtls_pk_info_from_type( MBEDTLS_PK_ECKEY );
 3143              		.loc 1 1328 0
 3144 0236 0220     		movs	r0, #2
 3145 0238 FFF7FEFF 		bl	mbedtls_pk_info_from_type
 3146              	.LVL496:
 3147 023c 0100     		movs	r1, r0
 3148              	.LVL497:
1329:Source\mbedtls_open\library/pkparse.c ****     if( ( ret = mbedtls_pk_setup( pk, pk_info ) ) != 0 ||
 3149              		.loc 1 1329 0
 3150 023e 3000     		movs	r0, r6
 3151              	.LVL498:
 3152 0240 FFF7FEFF 		bl	mbedtls_pk_setup
 3153              	.LVL499:
 3154 0244 0028     		cmp	r0, #0
 3155 0246 0AD1     		bne	.L188
 3156 0248 0CAB     		add	r3, sp, #48
 3157 024a 3200     		movs	r2, r6
 3158 024c 03CA     		ldmia	r2!, {r0, r1}
ARM GAS  C:\Users\Phuong\AppData\Local\Temp\ccG6FMOL.s 			page 83


 3159 024e 03C3     		stmia	r3!, {r0, r1}
 3160              	.LVL500:
 3161              		.loc 1 1329 0 is_stmt 0 discriminator 1
 3162 0250 3A00     		movs	r2, r7
 3163 0252 2900     		movs	r1, r5
 3164 0254 7068     		ldr	r0, [r6, #4]
 3165 0256 FFF7FEFF 		bl	pk_parse_key_sec1_der
 3166              	.LVL501:
 3167 025a 0028     		cmp	r0, #0
 3168 025c 18D0     		beq	.L205
 3169              	.L188:
1330:Source\mbedtls_open\library/pkparse.c ****         ( ret = pk_parse_key_sec1_der( mbedtls_pk_ec( *pk ),
1331:Source\mbedtls_open\library/pkparse.c ****                                        key, keylen ) ) != 0 )
1332:Source\mbedtls_open\library/pkparse.c ****     {
1333:Source\mbedtls_open\library/pkparse.c ****         mbedtls_pk_free( pk );
 3170              		.loc 1 1333 0 is_stmt 1
 3171 025e 3000     		movs	r0, r6
 3172              	.LVL502:
 3173 0260 FFF7FEFF 		bl	mbedtls_pk_free
 3174              	.LVL503:
1334:Source\mbedtls_open\library/pkparse.c ****     }
1335:Source\mbedtls_open\library/pkparse.c ****     else
1336:Source\mbedtls_open\library/pkparse.c ****     {
1337:Source\mbedtls_open\library/pkparse.c ****         return( 0 );
1338:Source\mbedtls_open\library/pkparse.c ****     }
1339:Source\mbedtls_open\library/pkparse.c **** 
1340:Source\mbedtls_open\library/pkparse.c **** #endif /* MBEDTLS_ECP_C */
1341:Source\mbedtls_open\library/pkparse.c **** 
1342:Source\mbedtls_open\library/pkparse.c ****     return( MBEDTLS_ERR_PK_KEY_INVALID_FORMAT );
 3175              		.loc 1 1342 0
 3176 0264 1848     		ldr	r0, .L206+48
 3177 0266 14E0     		b	.L176
 3178              	.LVL504:
 3179              	.L191:
1179:Source\mbedtls_open\library/pkparse.c ****     else if( ret == MBEDTLS_ERR_PEM_PASSWORD_REQUIRED )
 3180              		.loc 1 1179 0
 3181 0268 1648     		ldr	r0, .L206+44
 3182              	.LVL505:
 3183 026a 12E0     		b	.L176
 3184              	.LVL506:
 3185              	.L192:
1181:Source\mbedtls_open\library/pkparse.c ****     else if( ret != MBEDTLS_ERR_PEM_NO_HEADER_FOOTER_PRESENT )
 3186              		.loc 1 1181 0
 3187 026c 1748     		ldr	r0, .L206+52
 3188              	.LVL507:
 3189 026e 10E0     		b	.L176
 3190              	.LVL508:
 3191              	.L194:
1210:Source\mbedtls_open\library/pkparse.c ****     else if( ret == MBEDTLS_ERR_PEM_PASSWORD_REQUIRED )
 3192              		.loc 1 1210 0
 3193 0270 1448     		ldr	r0, .L206+44
 3194              	.LVL509:
 3195 0272 0EE0     		b	.L176
 3196              	.LVL510:
 3197              	.L195:
1212:Source\mbedtls_open\library/pkparse.c ****     else if( ret != MBEDTLS_ERR_PEM_NO_HEADER_FOOTER_PRESENT )
 3198              		.loc 1 1212 0
ARM GAS  C:\Users\Phuong\AppData\Local\Temp\ccG6FMOL.s 			page 84


 3199 0274 1548     		ldr	r0, .L206+52
 3200              	.LVL511:
 3201 0276 0CE0     		b	.L176
 3202              	.LVL512:
 3203              	.L199:
 3204              	.LBB28:
1280:Source\mbedtls_open\library/pkparse.c **** 
 3205              		.loc 1 1280 0
 3206 0278 1348     		ldr	r0, .L206+48
 3207              	.LVL513:
 3208 027a 0AE0     		b	.L176
 3209              	.LVL514:
 3210              	.L200:
1283:Source\mbedtls_open\library/pkparse.c **** 
 3211              		.loc 1 1283 0
 3212 027c 1448     		ldr	r0, .L206+56
 3213              	.LVL515:
 3214 027e 08E0     		b	.L176
 3215              	.LVL516:
 3216              	.L201:
 3217              	.LBE28:
1295:Source\mbedtls_open\library/pkparse.c **** 
 3218              		.loc 1 1295 0
 3219 0280 0020     		movs	r0, #0
 3220 0282 06E0     		b	.L176
 3221              	.L202:
1301:Source\mbedtls_open\library/pkparse.c ****     }
 3222              		.loc 1 1301 0
 3223 0284 2000     		movs	r0, r4
 3224 0286 04E0     		b	.L176
 3225              	.LVL517:
 3226              	.L203:
1306:Source\mbedtls_open\library/pkparse.c **** 
 3227              		.loc 1 1306 0
 3228 0288 0020     		movs	r0, #0
 3229              	.LVL518:
 3230 028a 02E0     		b	.L176
 3231              	.LVL519:
 3232              	.L204:
1321:Source\mbedtls_open\library/pkparse.c ****     }
 3233              		.loc 1 1321 0
 3234 028c 0020     		movs	r0, #0
 3235              	.LVL520:
 3236 028e 00E0     		b	.L176
 3237              	.LVL521:
 3238              	.L205:
1337:Source\mbedtls_open\library/pkparse.c ****     }
 3239              		.loc 1 1337 0
 3240 0290 0020     		movs	r0, #0
 3241              	.LVL522:
 3242              	.L176:
1343:Source\mbedtls_open\library/pkparse.c **** }
 3243              		.loc 1 1343 0
 3244 0292 13B0     		add	sp, sp, #76
 3245              		@ sp needed
 3246              	.LVL523:
 3247              	.LVL524:
ARM GAS  C:\Users\Phuong\AppData\Local\Temp\ccG6FMOL.s 			page 85


 3248              	.LVL525:
 3249 0294 F0BD     		pop	{r4, r5, r6, r7, pc}
 3250              	.L207:
 3251 0296 C046     		.align	2
 3252              	.L206:
 3253 0298 20000000 		.word	.LC6
 3254 029c 40000000 		.word	.LC8
 3255 02a0 80EFFFFF 		.word	-4224
 3256 02a4 80ECFFFF 		.word	-4992
 3257 02a8 00EDFFFF 		.word	-4864
 3258 02ac 60000000 		.word	.LC10
 3259 02b0 80000000 		.word	.LC12
 3260 02b4 A0000000 		.word	.LC14
 3261 02b8 BC000000 		.word	.LC16
 3262 02bc D8000000 		.word	.LC18
 3263 02c0 FC000000 		.word	.LC20
 3264 02c4 80C4FFFF 		.word	-15232
 3265 02c8 00C3FFFF 		.word	-15616
 3266 02cc 00C4FFFF 		.word	-15360
 3267 02d0 80C0FFFF 		.word	-16256
 3268              		.cfi_endproc
 3269              	.LFE24:
 3270              		.size	mbedtls_pk_parse_key, .-mbedtls_pk_parse_key
 3271              		.section	.text.mbedtls_pk_parse_public_key,"ax",%progbits
 3272              		.align	2
 3273              		.global	mbedtls_pk_parse_public_key
 3274              		.code	16
 3275              		.thumb_func
 3276              		.type	mbedtls_pk_parse_public_key, %function
 3277              	mbedtls_pk_parse_public_key:
 3278              	.LFB25:
1344:Source\mbedtls_open\library/pkparse.c **** 
1345:Source\mbedtls_open\library/pkparse.c **** /*
1346:Source\mbedtls_open\library/pkparse.c ****  * Parse a public key
1347:Source\mbedtls_open\library/pkparse.c ****  */
1348:Source\mbedtls_open\library/pkparse.c **** int mbedtls_pk_parse_public_key( mbedtls_pk_context *ctx,
1349:Source\mbedtls_open\library/pkparse.c ****                          const unsigned char *key, size_t keylen )
1350:Source\mbedtls_open\library/pkparse.c **** {
 3279              		.loc 1 1350 0
 3280              		.cfi_startproc
 3281              		@ args = 0, pretend = 0, frame = 48
 3282              		@ frame_needed = 0, uses_anonymous_args = 0
 3283              	.LVL526:
 3284 0000 F0B5     		push	{r4, r5, r6, r7, lr}
 3285              		.cfi_def_cfa_offset 20
 3286              		.cfi_offset 4, -20
 3287              		.cfi_offset 5, -16
 3288              		.cfi_offset 6, -12
 3289              		.cfi_offset 7, -8
 3290              		.cfi_offset 14, -4
 3291 0002 91B0     		sub	sp, sp, #68
 3292              		.cfi_def_cfa_offset 88
 3293 0004 0500     		movs	r5, r0
 3294 0006 0E00     		movs	r6, r1
 3295 0008 1700     		movs	r7, r2
1351:Source\mbedtls_open\library/pkparse.c ****     int ret;
1352:Source\mbedtls_open\library/pkparse.c ****     unsigned char *p;
ARM GAS  C:\Users\Phuong\AppData\Local\Temp\ccG6FMOL.s 			page 86


1353:Source\mbedtls_open\library/pkparse.c **** #if defined(MBEDTLS_RSA_C)
1354:Source\mbedtls_open\library/pkparse.c ****     const mbedtls_pk_info_t *pk_info;
1355:Source\mbedtls_open\library/pkparse.c **** #endif
1356:Source\mbedtls_open\library/pkparse.c **** #if defined(MBEDTLS_PEM_PARSE_C)
1357:Source\mbedtls_open\library/pkparse.c ****     size_t len;
1358:Source\mbedtls_open\library/pkparse.c ****     mbedtls_pem_context pem;
1359:Source\mbedtls_open\library/pkparse.c **** 
1360:Source\mbedtls_open\library/pkparse.c ****     mbedtls_pem_init( &pem );
 3296              		.loc 1 1360 0
 3297 000a 0BA8     		add	r0, sp, #44
 3298              	.LVL527:
 3299 000c FFF7FEFF 		bl	mbedtls_pem_init
 3300              	.LVL528:
1361:Source\mbedtls_open\library/pkparse.c **** #if defined(MBEDTLS_RSA_C)
1362:Source\mbedtls_open\library/pkparse.c ****     /* Avoid calling mbedtls_pem_read_buffer() on non-null-terminated string */
1363:Source\mbedtls_open\library/pkparse.c ****     if( keylen == 0 || key[keylen - 1] != '\0' )
 3301              		.loc 1 1363 0
 3302 0010 002F     		cmp	r7, #0
 3303 0012 11D0     		beq	.L217
 3304              		.loc 1 1363 0 is_stmt 0 discriminator 1
 3305 0014 F319     		adds	r3, r6, r7
 3306 0016 013B     		subs	r3, r3, #1
 3307 0018 1B78     		ldrb	r3, [r3]
 3308 001a 002B     		cmp	r3, #0
 3309 001c 0ED1     		bne	.L218
1364:Source\mbedtls_open\library/pkparse.c ****         ret = MBEDTLS_ERR_PEM_NO_HEADER_FOOTER_PRESENT;
1365:Source\mbedtls_open\library/pkparse.c ****     else
1366:Source\mbedtls_open\library/pkparse.c ****         ret = mbedtls_pem_read_buffer( &pem,
 3310              		.loc 1 1366 0 is_stmt 1
 3311 001e 0EAB     		add	r3, sp, #56
 3312 0020 0293     		str	r3, [sp, #8]
 3313 0022 0023     		movs	r3, #0
 3314 0024 0193     		str	r3, [sp, #4]
 3315 0026 0093     		str	r3, [sp]
 3316 0028 3300     		movs	r3, r6
 3317 002a 4A4A     		ldr	r2, .L225
 3318 002c 4A49     		ldr	r1, .L225+4
 3319 002e 0BA8     		add	r0, sp, #44
 3320 0030 FFF7FEFF 		bl	mbedtls_pem_read_buffer
 3321              	.LVL529:
 3322 0034 0400     		movs	r4, r0
 3323              	.LVL530:
 3324 0036 02E0     		b	.L209
 3325              	.LVL531:
 3326              	.L217:
1364:Source\mbedtls_open\library/pkparse.c ****         ret = MBEDTLS_ERR_PEM_NO_HEADER_FOOTER_PRESENT;
 3327              		.loc 1 1364 0
 3328 0038 484C     		ldr	r4, .L225+8
 3329 003a 00E0     		b	.L209
 3330              	.L218:
 3331 003c 474C     		ldr	r4, .L225+8
 3332              	.L209:
 3333              	.LVL532:
