ARM GAS  C:\Users\Phuong\AppData\Local\Temp\ccG6FMOL.s 			page 1


   1              		.syntax unified
   2              		.cpu cortex-m0plus
   3              		.fpu softvfp
   4              		.eabi_attribute 20, 1
   5              		.eabi_attribute 21, 1
   6              		.eabi_attribute 23, 3
   7              		.eabi_attribute 24, 1
   8              		.eabi_attribute 25, 1
   9              		.eabi_attribute 26, 1
  10              		.eabi_attribute 30, 1
  11              		.eabi_attribute 34, 0
  12              		.eabi_attribute 18, 4
  13              		.thumb
  14              		.syntax unified
  15              		.file	"pkparse.c"
  16              		.text
  17              	.Ltext0:
  18              		.cfi_sections	.debug_frame
  19              		.section	.text.pk_get_ecparams,"ax",%progbits
  20              		.align	2
  21              		.code	16
  22              		.thumb_func
  23              		.type	pk_get_ecparams, %function
  24              	pk_get_ecparams:
  25              	.LFB11:
  26              		.file 1 "Source\\mbedtls_open\\library\\pkparse.c"
   1:Source\mbedtls_open\library/pkparse.c **** /*
   2:Source\mbedtls_open\library/pkparse.c ****  *  Public Key layer for parsing key files and structures
   3:Source\mbedtls_open\library/pkparse.c ****  *
   4:Source\mbedtls_open\library/pkparse.c ****  *  Copyright (C) 2006-2015, ARM Limited, All Rights Reserved
   5:Source\mbedtls_open\library/pkparse.c ****  *  SPDX-License-Identifier: Apache-2.0
   6:Source\mbedtls_open\library/pkparse.c ****  *
   7:Source\mbedtls_open\library/pkparse.c ****  *  Licensed under the Apache License, Version 2.0 (the "License"); you may
   8:Source\mbedtls_open\library/pkparse.c ****  *  not use this file except in compliance with the License.
   9:Source\mbedtls_open\library/pkparse.c ****  *  You may obtain a copy of the License at
  10:Source\mbedtls_open\library/pkparse.c ****  *
  11:Source\mbedtls_open\library/pkparse.c ****  *  http://www.apache.org/licenses/LICENSE-2.0
  12:Source\mbedtls_open\library/pkparse.c ****  *
  13:Source\mbedtls_open\library/pkparse.c ****  *  Unless required by applicable law or agreed to in writing, software
  14:Source\mbedtls_open\library/pkparse.c ****  *  distributed under the License is distributed on an "AS IS" BASIS, WITHOUT
  15:Source\mbedtls_open\library/pkparse.c ****  *  WARRANTIES OR CONDITIONS OF ANY KIND, either express or implied.
  16:Source\mbedtls_open\library/pkparse.c ****  *  See the License for the specific language governing permissions and
  17:Source\mbedtls_open\library/pkparse.c ****  *  limitations under the License.
  18:Source\mbedtls_open\library/pkparse.c ****  *
  19:Source\mbedtls_open\library/pkparse.c ****  *  This file is part of mbed TLS (https://tls.mbed.org)
  20:Source\mbedtls_open\library/pkparse.c ****  */
  21:Source\mbedtls_open\library/pkparse.c **** 
  22:Source\mbedtls_open\library/pkparse.c **** #if !defined(MBEDTLS_CONFIG_FILE)
  23:Source\mbedtls_open\library/pkparse.c **** #include "mbedtls/config.h"
  24:Source\mbedtls_open\library/pkparse.c **** #else
  25:Source\mbedtls_open\library/pkparse.c **** #include MBEDTLS_CONFIG_FILE
  26:Source\mbedtls_open\library/pkparse.c **** #endif
  27:Source\mbedtls_open\library/pkparse.c **** 
  28:Source\mbedtls_open\library/pkparse.c **** #if defined(MBEDTLS_PK_PARSE_C)
  29:Source\mbedtls_open\library/pkparse.c **** 
  30:Source\mbedtls_open\library/pkparse.c **** #include "mbedtls/pk.h"
  31:Source\mbedtls_open\library/pkparse.c **** #include "mbedtls/asn1.h"
ARM GAS  C:\Users\Phuong\AppData\Local\Temp\ccG6FMOL.s 			page 2


  32:Source\mbedtls_open\library/pkparse.c **** #include "mbedtls/oid.h"
  33:Source\mbedtls_open\library/pkparse.c **** #include "mbedtls/platform_util.h"
  34:Source\mbedtls_open\library/pkparse.c **** 
  35:Source\mbedtls_open\library/pkparse.c **** #include <string.h>
  36:Source\mbedtls_open\library/pkparse.c **** 
  37:Source\mbedtls_open\library/pkparse.c **** #if defined(MBEDTLS_RSA_C)
  38:Source\mbedtls_open\library/pkparse.c **** #include "mbedtls/rsa.h"
  39:Source\mbedtls_open\library/pkparse.c **** #endif
  40:Source\mbedtls_open\library/pkparse.c **** #if defined(MBEDTLS_ECP_C)
  41:Source\mbedtls_open\library/pkparse.c **** #include "mbedtls/ecp.h"
  42:Source\mbedtls_open\library/pkparse.c **** #endif
  43:Source\mbedtls_open\library/pkparse.c **** #if defined(MBEDTLS_ECDSA_C)
  44:Source\mbedtls_open\library/pkparse.c **** #include "mbedtls/ecdsa.h"
  45:Source\mbedtls_open\library/pkparse.c **** #endif
  46:Source\mbedtls_open\library/pkparse.c **** #if defined(MBEDTLS_PEM_PARSE_C)
  47:Source\mbedtls_open\library/pkparse.c **** #include "mbedtls/pem.h"
  48:Source\mbedtls_open\library/pkparse.c **** #endif
  49:Source\mbedtls_open\library/pkparse.c **** #if defined(MBEDTLS_PKCS5_C)
  50:Source\mbedtls_open\library/pkparse.c **** #include "mbedtls/pkcs5.h"
  51:Source\mbedtls_open\library/pkparse.c **** #endif
  52:Source\mbedtls_open\library/pkparse.c **** #if defined(MBEDTLS_PKCS12_C)
  53:Source\mbedtls_open\library/pkparse.c **** #include "mbedtls/pkcs12.h"
  54:Source\mbedtls_open\library/pkparse.c **** #endif
  55:Source\mbedtls_open\library/pkparse.c **** 
  56:Source\mbedtls_open\library/pkparse.c **** #if defined(MBEDTLS_PLATFORM_C)
  57:Source\mbedtls_open\library/pkparse.c **** #include "mbedtls/platform.h"
  58:Source\mbedtls_open\library/pkparse.c **** #else
  59:Source\mbedtls_open\library/pkparse.c **** #include <stdlib.h>
  60:Source\mbedtls_open\library/pkparse.c **** #define mbedtls_calloc    calloc
  61:Source\mbedtls_open\library/pkparse.c **** #define mbedtls_free       free
  62:Source\mbedtls_open\library/pkparse.c **** #endif
  63:Source\mbedtls_open\library/pkparse.c **** 
  64:Source\mbedtls_open\library/pkparse.c **** #if defined(MBEDTLS_FS_IO)
  65:Source\mbedtls_open\library/pkparse.c **** /*
  66:Source\mbedtls_open\library/pkparse.c ****  * Load all data from a file into a given buffer.
  67:Source\mbedtls_open\library/pkparse.c ****  *
  68:Source\mbedtls_open\library/pkparse.c ****  * The file is expected to contain either PEM or DER encoded data.
  69:Source\mbedtls_open\library/pkparse.c ****  * A terminating null byte is always appended. It is included in the announced
  70:Source\mbedtls_open\library/pkparse.c ****  * length only if the data looks like it is PEM encoded.
  71:Source\mbedtls_open\library/pkparse.c ****  */
  72:Source\mbedtls_open\library/pkparse.c **** int mbedtls_pk_load_file( const char *path, unsigned char **buf, size_t *n )
  73:Source\mbedtls_open\library/pkparse.c **** {
  74:Source\mbedtls_open\library/pkparse.c ****     FILE *f;
  75:Source\mbedtls_open\library/pkparse.c ****     long size;
  76:Source\mbedtls_open\library/pkparse.c **** 
  77:Source\mbedtls_open\library/pkparse.c ****     if( ( f = fopen( path, "rb" ) ) == NULL )
  78:Source\mbedtls_open\library/pkparse.c ****         return( MBEDTLS_ERR_PK_FILE_IO_ERROR );
  79:Source\mbedtls_open\library/pkparse.c **** 
  80:Source\mbedtls_open\library/pkparse.c ****     fseek( f, 0, SEEK_END );
  81:Source\mbedtls_open\library/pkparse.c ****     if( ( size = ftell( f ) ) == -1 )
  82:Source\mbedtls_open\library/pkparse.c ****     {
  83:Source\mbedtls_open\library/pkparse.c ****         fclose( f );
  84:Source\mbedtls_open\library/pkparse.c ****         return( MBEDTLS_ERR_PK_FILE_IO_ERROR );
  85:Source\mbedtls_open\library/pkparse.c ****     }
  86:Source\mbedtls_open\library/pkparse.c ****     fseek( f, 0, SEEK_SET );
  87:Source\mbedtls_open\library/pkparse.c **** 
  88:Source\mbedtls_open\library/pkparse.c ****     *n = (size_t) size;
ARM GAS  C:\Users\Phuong\AppData\Local\Temp\ccG6FMOL.s 			page 3


  89:Source\mbedtls_open\library/pkparse.c **** 
  90:Source\mbedtls_open\library/pkparse.c ****     if( *n + 1 == 0 ||
  91:Source\mbedtls_open\library/pkparse.c ****         ( *buf = mbedtls_calloc( 1, *n + 1 ) ) == NULL )
  92:Source\mbedtls_open\library/pkparse.c ****     {
  93:Source\mbedtls_open\library/pkparse.c ****         fclose( f );
  94:Source\mbedtls_open\library/pkparse.c ****         return( MBEDTLS_ERR_PK_ALLOC_FAILED );
  95:Source\mbedtls_open\library/pkparse.c ****     }
  96:Source\mbedtls_open\library/pkparse.c **** 
  97:Source\mbedtls_open\library/pkparse.c ****     if( fread( *buf, 1, *n, f ) != *n )
  98:Source\mbedtls_open\library/pkparse.c ****     {
  99:Source\mbedtls_open\library/pkparse.c ****         fclose( f );
 100:Source\mbedtls_open\library/pkparse.c **** 
 101:Source\mbedtls_open\library/pkparse.c ****         mbedtls_platform_zeroize( *buf, *n );
 102:Source\mbedtls_open\library/pkparse.c ****         mbedtls_free( *buf );
 103:Source\mbedtls_open\library/pkparse.c **** 
 104:Source\mbedtls_open\library/pkparse.c ****         return( MBEDTLS_ERR_PK_FILE_IO_ERROR );
 105:Source\mbedtls_open\library/pkparse.c ****     }
 106:Source\mbedtls_open\library/pkparse.c **** 
 107:Source\mbedtls_open\library/pkparse.c ****     fclose( f );
 108:Source\mbedtls_open\library/pkparse.c **** 
 109:Source\mbedtls_open\library/pkparse.c ****     (*buf)[*n] = '\0';
 110:Source\mbedtls_open\library/pkparse.c **** 
 111:Source\mbedtls_open\library/pkparse.c ****     if( strstr( (const char *) *buf, "-----BEGIN " ) != NULL )
 112:Source\mbedtls_open\library/pkparse.c ****         ++*n;
 113:Source\mbedtls_open\library/pkparse.c **** 
 114:Source\mbedtls_open\library/pkparse.c ****     return( 0 );
 115:Source\mbedtls_open\library/pkparse.c **** }
 116:Source\mbedtls_open\library/pkparse.c **** 
 117:Source\mbedtls_open\library/pkparse.c **** /*
 118:Source\mbedtls_open\library/pkparse.c ****  * Load and parse a private key
 119:Source\mbedtls_open\library/pkparse.c ****  */
 120:Source\mbedtls_open\library/pkparse.c **** int mbedtls_pk_parse_keyfile( mbedtls_pk_context *ctx,
 121:Source\mbedtls_open\library/pkparse.c ****                       const char *path, const char *pwd )
 122:Source\mbedtls_open\library/pkparse.c **** {
 123:Source\mbedtls_open\library/pkparse.c ****     int ret;
 124:Source\mbedtls_open\library/pkparse.c ****     size_t n;
 125:Source\mbedtls_open\library/pkparse.c ****     unsigned char *buf;
 126:Source\mbedtls_open\library/pkparse.c **** 
 127:Source\mbedtls_open\library/pkparse.c ****     if( ( ret = mbedtls_pk_load_file( path, &buf, &n ) ) != 0 )
 128:Source\mbedtls_open\library/pkparse.c ****         return( ret );
 129:Source\mbedtls_open\library/pkparse.c **** 
 130:Source\mbedtls_open\library/pkparse.c ****     if( pwd == NULL )
 131:Source\mbedtls_open\library/pkparse.c ****         ret = mbedtls_pk_parse_key( ctx, buf, n, NULL, 0 );
 132:Source\mbedtls_open\library/pkparse.c ****     else
 133:Source\mbedtls_open\library/pkparse.c ****         ret = mbedtls_pk_parse_key( ctx, buf, n,
 134:Source\mbedtls_open\library/pkparse.c ****                 (const unsigned char *) pwd, strlen( pwd ) );
 135:Source\mbedtls_open\library/pkparse.c **** 
 136:Source\mbedtls_open\library/pkparse.c ****     mbedtls_platform_zeroize( buf, n );
 137:Source\mbedtls_open\library/pkparse.c ****     mbedtls_free( buf );
 138:Source\mbedtls_open\library/pkparse.c **** 
 139:Source\mbedtls_open\library/pkparse.c ****     return( ret );
 140:Source\mbedtls_open\library/pkparse.c **** }
 141:Source\mbedtls_open\library/pkparse.c **** 
 142:Source\mbedtls_open\library/pkparse.c **** /*
 143:Source\mbedtls_open\library/pkparse.c ****  * Load and parse a public key
 144:Source\mbedtls_open\library/pkparse.c ****  */
 145:Source\mbedtls_open\library/pkparse.c **** int mbedtls_pk_parse_public_keyfile( mbedtls_pk_context *ctx, const char *path )
ARM GAS  C:\Users\Phuong\AppData\Local\Temp\ccG6FMOL.s 			page 4


 146:Source\mbedtls_open\library/pkparse.c **** {
 147:Source\mbedtls_open\library/pkparse.c ****     int ret;
 148:Source\mbedtls_open\library/pkparse.c ****     size_t n;
 149:Source\mbedtls_open\library/pkparse.c ****     unsigned char *buf;
 150:Source\mbedtls_open\library/pkparse.c **** 
 151:Source\mbedtls_open\library/pkparse.c ****     if( ( ret = mbedtls_pk_load_file( path, &buf, &n ) ) != 0 )
 152:Source\mbedtls_open\library/pkparse.c ****         return( ret );
 153:Source\mbedtls_open\library/pkparse.c **** 
 154:Source\mbedtls_open\library/pkparse.c ****     ret = mbedtls_pk_parse_public_key( ctx, buf, n );
 155:Source\mbedtls_open\library/pkparse.c **** 
 156:Source\mbedtls_open\library/pkparse.c ****     mbedtls_platform_zeroize( buf, n );
 157:Source\mbedtls_open\library/pkparse.c ****     mbedtls_free( buf );
 158:Source\mbedtls_open\library/pkparse.c **** 
 159:Source\mbedtls_open\library/pkparse.c ****     return( ret );
 160:Source\mbedtls_open\library/pkparse.c **** }
 161:Source\mbedtls_open\library/pkparse.c **** #endif /* MBEDTLS_FS_IO */
 162:Source\mbedtls_open\library/pkparse.c **** 
 163:Source\mbedtls_open\library/pkparse.c **** #if defined(MBEDTLS_ECP_C)
 164:Source\mbedtls_open\library/pkparse.c **** /* Minimally parse an ECParameters buffer to and mbedtls_asn1_buf
 165:Source\mbedtls_open\library/pkparse.c ****  *
 166:Source\mbedtls_open\library/pkparse.c ****  * ECParameters ::= CHOICE {
 167:Source\mbedtls_open\library/pkparse.c ****  *   namedCurve         OBJECT IDENTIFIER
 168:Source\mbedtls_open\library/pkparse.c ****  *   specifiedCurve     SpecifiedECDomain -- = SEQUENCE { ... }
 169:Source\mbedtls_open\library/pkparse.c ****  *   -- implicitCurve   NULL
 170:Source\mbedtls_open\library/pkparse.c ****  * }
 171:Source\mbedtls_open\library/pkparse.c ****  */
 172:Source\mbedtls_open\library/pkparse.c **** static int pk_get_ecparams( unsigned char **p, const unsigned char *end,
 173:Source\mbedtls_open\library/pkparse.c ****                             mbedtls_asn1_buf *params )
 174:Source\mbedtls_open\library/pkparse.c **** {
  27              		.loc 1 174 0
  28              		.cfi_startproc
  29              		@ args = 0, pretend = 0, frame = 0
  30              		@ frame_needed = 0, uses_anonymous_args = 0
  31              	.LVL0:
  32 0000 70B5     		push	{r4, r5, r6, lr}
  33              		.cfi_def_cfa_offset 16
  34              		.cfi_offset 4, -16
  35              		.cfi_offset 5, -12
  36              		.cfi_offset 6, -8
  37              		.cfi_offset 14, -4
  38 0002 0400     		movs	r4, r0
  39 0004 0E00     		movs	r6, r1
  40 0006 1500     		movs	r5, r2
 175:Source\mbedtls_open\library/pkparse.c ****     int ret;
 176:Source\mbedtls_open\library/pkparse.c **** 
 177:Source\mbedtls_open\library/pkparse.c ****     if ( end - *p < 1 )
  41              		.loc 1 177 0
  42 0008 0368     		ldr	r3, [r0]
  43 000a CA1A     		subs	r2, r1, r3
  44              	.LVL1:
  45 000c 002A     		cmp	r2, #0
  46 000e 1BDD     		ble	.L5
 178:Source\mbedtls_open\library/pkparse.c ****         return( MBEDTLS_ERR_PK_KEY_INVALID_FORMAT +
 179:Source\mbedtls_open\library/pkparse.c ****                 MBEDTLS_ERR_ASN1_OUT_OF_DATA );
 180:Source\mbedtls_open\library/pkparse.c **** 
 181:Source\mbedtls_open\library/pkparse.c ****     /* Tag may be either OID or SEQUENCE */
 182:Source\mbedtls_open\library/pkparse.c ****     params->tag = **p;
ARM GAS  C:\Users\Phuong\AppData\Local\Temp\ccG6FMOL.s 			page 5


  47              		.loc 1 182 0
  48 0010 1B78     		ldrb	r3, [r3]
  49 0012 2B60     		str	r3, [r5]
 183:Source\mbedtls_open\library/pkparse.c ****     if( params->tag != MBEDTLS_ASN1_OID
  50              		.loc 1 183 0
  51 0014 062B     		cmp	r3, #6
  52 0016 01D0     		beq	.L3
 184:Source\mbedtls_open\library/pkparse.c **** #if defined(MBEDTLS_PK_PARSE_EC_EXTENDED)
 185:Source\mbedtls_open\library/pkparse.c ****             && params->tag != ( MBEDTLS_ASN1_CONSTRUCTED | MBEDTLS_ASN1_SEQUENCE )
  53              		.loc 1 185 0
  54 0018 302B     		cmp	r3, #48
  55 001a 17D1     		bne	.L6
  56              	.L3:
 186:Source\mbedtls_open\library/pkparse.c **** #endif
 187:Source\mbedtls_open\library/pkparse.c ****             )
 188:Source\mbedtls_open\library/pkparse.c ****     {
 189:Source\mbedtls_open\library/pkparse.c ****         return( MBEDTLS_ERR_PK_KEY_INVALID_FORMAT +
 190:Source\mbedtls_open\library/pkparse.c ****                 MBEDTLS_ERR_ASN1_UNEXPECTED_TAG );
 191:Source\mbedtls_open\library/pkparse.c ****     }
 192:Source\mbedtls_open\library/pkparse.c **** 
 193:Source\mbedtls_open\library/pkparse.c ****     if( ( ret = mbedtls_asn1_get_tag( p, end, &params->len, params->tag ) ) != 0 )
  57              		.loc 1 193 0
  58 001c 2A1D     		adds	r2, r5, #4
  59 001e 3100     		movs	r1, r6
  60              	.LVL2:
  61 0020 2000     		movs	r0, r4
  62              	.LVL3:
  63 0022 FFF7FEFF 		bl	mbedtls_asn1_get_tag
  64              	.LVL4:
  65 0026 0028     		cmp	r0, #0
  66 0028 03D0     		beq	.L4
 194:Source\mbedtls_open\library/pkparse.c ****     {
 195:Source\mbedtls_open\library/pkparse.c ****         return( MBEDTLS_ERR_PK_KEY_INVALID_FORMAT + ret );
  67              		.loc 1 195 0
  68 002a 0A4B     		ldr	r3, .L8
  69 002c 9C46     		mov	ip, r3
  70 002e 6044     		add	r0, r0, ip
  71              	.LVL5:
  72 0030 0FE0     		b	.L2
  73              	.LVL6:
  74              	.L4:
 196:Source\mbedtls_open\library/pkparse.c ****     }
 197:Source\mbedtls_open\library/pkparse.c **** 
 198:Source\mbedtls_open\library/pkparse.c ****     params->p = *p;
  75              		.loc 1 198 0
  76 0032 2368     		ldr	r3, [r4]
  77 0034 AB60     		str	r3, [r5, #8]
 199:Source\mbedtls_open\library/pkparse.c ****     *p += params->len;
  78              		.loc 1 199 0
  79 0036 6B68     		ldr	r3, [r5, #4]
  80 0038 2268     		ldr	r2, [r4]
  81 003a 9446     		mov	ip, r2
  82 003c 6344     		add	r3, r3, ip
  83 003e 2360     		str	r3, [r4]
 200:Source\mbedtls_open\library/pkparse.c **** 
 201:Source\mbedtls_open\library/pkparse.c ****     if( *p != end )
  84              		.loc 1 201 0
ARM GAS  C:\Users\Phuong\AppData\Local\Temp\ccG6FMOL.s 			page 6


  85 0040 9E42     		cmp	r6, r3
  86 0042 05D0     		beq	.L7
 202:Source\mbedtls_open\library/pkparse.c ****         return( MBEDTLS_ERR_PK_KEY_INVALID_FORMAT +
  87              		.loc 1 202 0
  88 0044 0448     		ldr	r0, .L8+4
  89              	.LVL7:
  90 0046 04E0     		b	.L2
  91              	.LVL8:
  92              	.L5:
 178:Source\mbedtls_open\library/pkparse.c ****                 MBEDTLS_ERR_ASN1_OUT_OF_DATA );
  93              		.loc 1 178 0
  94 0048 0448     		ldr	r0, .L8+8
  95              	.LVL9:
  96 004a 02E0     		b	.L2
  97              	.LVL10:
  98              	.L6:
 189:Source\mbedtls_open\library/pkparse.c ****                 MBEDTLS_ERR_ASN1_UNEXPECTED_TAG );
  99              		.loc 1 189 0
 100 004c 0448     		ldr	r0, .L8+12
 101              	.LVL11:
 102 004e 00E0     		b	.L2
 103              	.LVL12:
 104              	.L7:
 203:Source\mbedtls_open\library/pkparse.c ****                 MBEDTLS_ERR_ASN1_LENGTH_MISMATCH );
 204:Source\mbedtls_open\library/pkparse.c **** 
 205:Source\mbedtls_open\library/pkparse.c ****     return( 0 );
 105              		.loc 1 205 0
 106 0050 0020     		movs	r0, #0
 107              	.LVL13:
 108              	.L2:
 206:Source\mbedtls_open\library/pkparse.c **** }
 109              		.loc 1 206 0
 110              		@ sp needed
 111              	.LVL14:
 112              	.LVL15:
 113              	.LVL16:
 114 0052 70BD     		pop	{r4, r5, r6, pc}
 115              	.L9:
 116              		.align	2
 117              	.L8:
 118 0054 00C3FFFF 		.word	-15616
 119 0058 9AC2FFFF 		.word	-15718
 120 005c A0C2FFFF 		.word	-15712
 121 0060 9EC2FFFF 		.word	-15714
 122              		.cfi_endproc
 123              	.LFE11:
 124              		.size	pk_get_ecparams, .-pk_get_ecparams
 125              		.section	.text.pk_get_pk_alg,"ax",%progbits
 126              		.align	2
 127              		.code	16
 128              		.thumb_func
 129              		.type	pk_get_pk_alg, %function
 130              	pk_get_pk_alg:
 131              	.LFB18:
 207:Source\mbedtls_open\library/pkparse.c **** 
 208:Source\mbedtls_open\library/pkparse.c **** #if defined(MBEDTLS_PK_PARSE_EC_EXTENDED)
 209:Source\mbedtls_open\library/pkparse.c **** /*
ARM GAS  C:\Users\Phuong\AppData\Local\Temp\ccG6FMOL.s 			page 7


 210:Source\mbedtls_open\library/pkparse.c ****  * Parse a SpecifiedECDomain (SEC 1 C.2) and (mostly) fill the group with it.
 211:Source\mbedtls_open\library/pkparse.c ****  * WARNING: the resulting group should only be used with
 212:Source\mbedtls_open\library/pkparse.c ****  * pk_group_id_from_specified(), since its base point may not be set correctly
 213:Source\mbedtls_open\library/pkparse.c ****  * if it was encoded compressed.
 214:Source\mbedtls_open\library/pkparse.c ****  *
 215:Source\mbedtls_open\library/pkparse.c ****  *  SpecifiedECDomain ::= SEQUENCE {
 216:Source\mbedtls_open\library/pkparse.c ****  *      version SpecifiedECDomainVersion(ecdpVer1 | ecdpVer2 | ecdpVer3, ...),
 217:Source\mbedtls_open\library/pkparse.c ****  *      fieldID FieldID {{FieldTypes}},
 218:Source\mbedtls_open\library/pkparse.c ****  *      curve Curve,
 219:Source\mbedtls_open\library/pkparse.c ****  *      base ECPoint,
 220:Source\mbedtls_open\library/pkparse.c ****  *      order INTEGER,
 221:Source\mbedtls_open\library/pkparse.c ****  *      cofactor INTEGER OPTIONAL,
 222:Source\mbedtls_open\library/pkparse.c ****  *      hash HashAlgorithm OPTIONAL,
 223:Source\mbedtls_open\library/pkparse.c ****  *      ...
 224:Source\mbedtls_open\library/pkparse.c ****  *  }
 225:Source\mbedtls_open\library/pkparse.c ****  *
 226:Source\mbedtls_open\library/pkparse.c ****  * We only support prime-field as field type, and ignore hash and cofactor.
 227:Source\mbedtls_open\library/pkparse.c ****  */
 228:Source\mbedtls_open\library/pkparse.c **** static int pk_group_from_specified( const mbedtls_asn1_buf *params, mbedtls_ecp_group *grp )
 229:Source\mbedtls_open\library/pkparse.c **** {
 230:Source\mbedtls_open\library/pkparse.c ****     int ret;
 231:Source\mbedtls_open\library/pkparse.c ****     unsigned char *p = params->p;
 232:Source\mbedtls_open\library/pkparse.c ****     const unsigned char * const end = params->p + params->len;
 233:Source\mbedtls_open\library/pkparse.c ****     const unsigned char *end_field, *end_curve;
 234:Source\mbedtls_open\library/pkparse.c ****     size_t len;
 235:Source\mbedtls_open\library/pkparse.c ****     int ver;
 236:Source\mbedtls_open\library/pkparse.c **** 
 237:Source\mbedtls_open\library/pkparse.c ****     /* SpecifiedECDomainVersion ::= INTEGER { 1, 2, 3 } */
 238:Source\mbedtls_open\library/pkparse.c ****     if( ( ret = mbedtls_asn1_get_int( &p, end, &ver ) ) != 0 )
 239:Source\mbedtls_open\library/pkparse.c ****         return( MBEDTLS_ERR_PK_KEY_INVALID_FORMAT + ret );
 240:Source\mbedtls_open\library/pkparse.c **** 
 241:Source\mbedtls_open\library/pkparse.c ****     if( ver < 1 || ver > 3 )
 242:Source\mbedtls_open\library/pkparse.c ****         return( MBEDTLS_ERR_PK_KEY_INVALID_FORMAT );
 243:Source\mbedtls_open\library/pkparse.c **** 
 244:Source\mbedtls_open\library/pkparse.c ****     /*
 245:Source\mbedtls_open\library/pkparse.c ****      * FieldID { FIELD-ID:IOSet } ::= SEQUENCE { -- Finite field
 246:Source\mbedtls_open\library/pkparse.c ****      *       fieldType FIELD-ID.&id({IOSet}),
 247:Source\mbedtls_open\library/pkparse.c ****      *       parameters FIELD-ID.&Type({IOSet}{@fieldType})
 248:Source\mbedtls_open\library/pkparse.c ****      * }
 249:Source\mbedtls_open\library/pkparse.c ****      */
 250:Source\mbedtls_open\library/pkparse.c ****     if( ( ret = mbedtls_asn1_get_tag( &p, end, &len,
 251:Source\mbedtls_open\library/pkparse.c ****             MBEDTLS_ASN1_CONSTRUCTED | MBEDTLS_ASN1_SEQUENCE ) ) != 0 )
 252:Source\mbedtls_open\library/pkparse.c ****         return( ret );
 253:Source\mbedtls_open\library/pkparse.c **** 
 254:Source\mbedtls_open\library/pkparse.c ****     end_field = p + len;
 255:Source\mbedtls_open\library/pkparse.c **** 
 256:Source\mbedtls_open\library/pkparse.c ****     /*
 257:Source\mbedtls_open\library/pkparse.c ****      * FIELD-ID ::= TYPE-IDENTIFIER
 258:Source\mbedtls_open\library/pkparse.c ****      * FieldTypes FIELD-ID ::= {
 259:Source\mbedtls_open\library/pkparse.c ****      *       { Prime-p IDENTIFIED BY prime-field } |
 260:Source\mbedtls_open\library/pkparse.c ****      *       { Characteristic-two IDENTIFIED BY characteristic-two-field }
 261:Source\mbedtls_open\library/pkparse.c ****      * }
 262:Source\mbedtls_open\library/pkparse.c ****      * prime-field OBJECT IDENTIFIER ::= { id-fieldType 1 }
 263:Source\mbedtls_open\library/pkparse.c ****      */
 264:Source\mbedtls_open\library/pkparse.c ****     if( ( ret = mbedtls_asn1_get_tag( &p, end_field, &len, MBEDTLS_ASN1_OID ) ) != 0 )
 265:Source\mbedtls_open\library/pkparse.c ****         return( ret );
 266:Source\mbedtls_open\library/pkparse.c **** 
ARM GAS  C:\Users\Phuong\AppData\Local\Temp\ccG6FMOL.s 			page 8


 267:Source\mbedtls_open\library/pkparse.c ****     if( len != MBEDTLS_OID_SIZE( MBEDTLS_OID_ANSI_X9_62_PRIME_FIELD ) ||
 268:Source\mbedtls_open\library/pkparse.c ****         memcmp( p, MBEDTLS_OID_ANSI_X9_62_PRIME_FIELD, len ) != 0 )
 269:Source\mbedtls_open\library/pkparse.c ****     {
 270:Source\mbedtls_open\library/pkparse.c ****         return( MBEDTLS_ERR_PK_FEATURE_UNAVAILABLE );
 271:Source\mbedtls_open\library/pkparse.c ****     }
 272:Source\mbedtls_open\library/pkparse.c **** 
 273:Source\mbedtls_open\library/pkparse.c ****     p += len;
 274:Source\mbedtls_open\library/pkparse.c **** 
 275:Source\mbedtls_open\library/pkparse.c ****     /* Prime-p ::= INTEGER -- Field of size p. */
 276:Source\mbedtls_open\library/pkparse.c ****     if( ( ret = mbedtls_asn1_get_mpi( &p, end_field, &grp->P ) ) != 0 )
 277:Source\mbedtls_open\library/pkparse.c ****         return( MBEDTLS_ERR_PK_KEY_INVALID_FORMAT + ret );
 278:Source\mbedtls_open\library/pkparse.c **** 
 279:Source\mbedtls_open\library/pkparse.c ****     grp->pbits = mbedtls_mpi_bitlen( &grp->P );
 280:Source\mbedtls_open\library/pkparse.c **** 
 281:Source\mbedtls_open\library/pkparse.c ****     if( p != end_field )
 282:Source\mbedtls_open\library/pkparse.c ****         return( MBEDTLS_ERR_PK_KEY_INVALID_FORMAT +
 283:Source\mbedtls_open\library/pkparse.c ****                 MBEDTLS_ERR_ASN1_LENGTH_MISMATCH );
 284:Source\mbedtls_open\library/pkparse.c **** 
 285:Source\mbedtls_open\library/pkparse.c ****     /*
 286:Source\mbedtls_open\library/pkparse.c ****      * Curve ::= SEQUENCE {
 287:Source\mbedtls_open\library/pkparse.c ****      *       a FieldElement,
 288:Source\mbedtls_open\library/pkparse.c ****      *       b FieldElement,
 289:Source\mbedtls_open\library/pkparse.c ****      *       seed BIT STRING OPTIONAL
 290:Source\mbedtls_open\library/pkparse.c ****      *       -- Shall be present if used in SpecifiedECDomain
 291:Source\mbedtls_open\library/pkparse.c ****      *       -- with version equal to ecdpVer2 or ecdpVer3
 292:Source\mbedtls_open\library/pkparse.c ****      * }
 293:Source\mbedtls_open\library/pkparse.c ****      */
 294:Source\mbedtls_open\library/pkparse.c ****     if( ( ret = mbedtls_asn1_get_tag( &p, end, &len,
 295:Source\mbedtls_open\library/pkparse.c ****             MBEDTLS_ASN1_CONSTRUCTED | MBEDTLS_ASN1_SEQUENCE ) ) != 0 )
 296:Source\mbedtls_open\library/pkparse.c ****         return( ret );
 297:Source\mbedtls_open\library/pkparse.c **** 
 298:Source\mbedtls_open\library/pkparse.c ****     end_curve = p + len;
 299:Source\mbedtls_open\library/pkparse.c **** 
 300:Source\mbedtls_open\library/pkparse.c ****     /*
 301:Source\mbedtls_open\library/pkparse.c ****      * FieldElement ::= OCTET STRING
 302:Source\mbedtls_open\library/pkparse.c ****      * containing an integer in the case of a prime field
 303:Source\mbedtls_open\library/pkparse.c ****      */
 304:Source\mbedtls_open\library/pkparse.c ****     if( ( ret = mbedtls_asn1_get_tag( &p, end_curve, &len, MBEDTLS_ASN1_OCTET_STRING ) ) != 0 ||
 305:Source\mbedtls_open\library/pkparse.c ****         ( ret = mbedtls_mpi_read_binary( &grp->A, p, len ) ) != 0 )
 306:Source\mbedtls_open\library/pkparse.c ****     {
 307:Source\mbedtls_open\library/pkparse.c ****         return( MBEDTLS_ERR_PK_KEY_INVALID_FORMAT + ret );
 308:Source\mbedtls_open\library/pkparse.c ****     }
 309:Source\mbedtls_open\library/pkparse.c **** 
 310:Source\mbedtls_open\library/pkparse.c ****     p += len;
 311:Source\mbedtls_open\library/pkparse.c **** 
 312:Source\mbedtls_open\library/pkparse.c ****     if( ( ret = mbedtls_asn1_get_tag( &p, end_curve, &len, MBEDTLS_ASN1_OCTET_STRING ) ) != 0 ||
 313:Source\mbedtls_open\library/pkparse.c ****         ( ret = mbedtls_mpi_read_binary( &grp->B, p, len ) ) != 0 )
 314:Source\mbedtls_open\library/pkparse.c ****     {
 315:Source\mbedtls_open\library/pkparse.c ****         return( MBEDTLS_ERR_PK_KEY_INVALID_FORMAT + ret );
 316:Source\mbedtls_open\library/pkparse.c ****     }
 317:Source\mbedtls_open\library/pkparse.c **** 
 318:Source\mbedtls_open\library/pkparse.c ****     p += len;
 319:Source\mbedtls_open\library/pkparse.c **** 
 320:Source\mbedtls_open\library/pkparse.c ****     /* Ignore seed BIT STRING OPTIONAL */
 321:Source\mbedtls_open\library/pkparse.c ****     if( ( ret = mbedtls_asn1_get_tag( &p, end_curve, &len, MBEDTLS_ASN1_BIT_STRING ) ) == 0 )
 322:Source\mbedtls_open\library/pkparse.c ****         p += len;
 323:Source\mbedtls_open\library/pkparse.c **** 
ARM GAS  C:\Users\Phuong\AppData\Local\Temp\ccG6FMOL.s 			page 9


 324:Source\mbedtls_open\library/pkparse.c ****     if( p != end_curve )
 325:Source\mbedtls_open\library/pkparse.c ****         return( MBEDTLS_ERR_PK_KEY_INVALID_FORMAT +
 326:Source\mbedtls_open\library/pkparse.c ****                 MBEDTLS_ERR_ASN1_LENGTH_MISMATCH );
 327:Source\mbedtls_open\library/pkparse.c **** 
 328:Source\mbedtls_open\library/pkparse.c ****     /*
 329:Source\mbedtls_open\library/pkparse.c ****      * ECPoint ::= OCTET STRING
 330:Source\mbedtls_open\library/pkparse.c ****      */
 331:Source\mbedtls_open\library/pkparse.c ****     if( ( ret = mbedtls_asn1_get_tag( &p, end, &len, MBEDTLS_ASN1_OCTET_STRING ) ) != 0 )
 332:Source\mbedtls_open\library/pkparse.c ****         return( MBEDTLS_ERR_PK_KEY_INVALID_FORMAT + ret );
 333:Source\mbedtls_open\library/pkparse.c **** 
 334:Source\mbedtls_open\library/pkparse.c ****     if( ( ret = mbedtls_ecp_point_read_binary( grp, &grp->G,
 335:Source\mbedtls_open\library/pkparse.c ****                                       ( const unsigned char *) p, len ) ) != 0 )
 336:Source\mbedtls_open\library/pkparse.c ****     {
 337:Source\mbedtls_open\library/pkparse.c ****         /*
 338:Source\mbedtls_open\library/pkparse.c ****          * If we can't read the point because it's compressed, cheat by
 339:Source\mbedtls_open\library/pkparse.c ****          * reading only the X coordinate and the parity bit of Y.
 340:Source\mbedtls_open\library/pkparse.c ****          */
 341:Source\mbedtls_open\library/pkparse.c ****         if( ret != MBEDTLS_ERR_ECP_FEATURE_UNAVAILABLE ||
 342:Source\mbedtls_open\library/pkparse.c ****             ( p[0] != 0x02 && p[0] != 0x03 ) ||
 343:Source\mbedtls_open\library/pkparse.c ****             len != mbedtls_mpi_size( &grp->P ) + 1 ||
 344:Source\mbedtls_open\library/pkparse.c ****             mbedtls_mpi_read_binary( &grp->G.X, p + 1, len - 1 ) != 0 ||
 345:Source\mbedtls_open\library/pkparse.c ****             mbedtls_mpi_lset( &grp->G.Y, p[0] - 2 ) != 0 ||
 346:Source\mbedtls_open\library/pkparse.c ****             mbedtls_mpi_lset( &grp->G.Z, 1 ) != 0 )
 347:Source\mbedtls_open\library/pkparse.c ****         {
 348:Source\mbedtls_open\library/pkparse.c ****             return( MBEDTLS_ERR_PK_KEY_INVALID_FORMAT );
 349:Source\mbedtls_open\library/pkparse.c ****         }
 350:Source\mbedtls_open\library/pkparse.c ****     }
 351:Source\mbedtls_open\library/pkparse.c **** 
 352:Source\mbedtls_open\library/pkparse.c ****     p += len;
 353:Source\mbedtls_open\library/pkparse.c **** 
 354:Source\mbedtls_open\library/pkparse.c ****     /*
 355:Source\mbedtls_open\library/pkparse.c ****      * order INTEGER
 356:Source\mbedtls_open\library/pkparse.c ****      */
 357:Source\mbedtls_open\library/pkparse.c ****     if( ( ret = mbedtls_asn1_get_mpi( &p, end, &grp->N ) ) != 0 )
 358:Source\mbedtls_open\library/pkparse.c ****         return( MBEDTLS_ERR_PK_KEY_INVALID_FORMAT + ret );
 359:Source\mbedtls_open\library/pkparse.c **** 
 360:Source\mbedtls_open\library/pkparse.c ****     grp->nbits = mbedtls_mpi_bitlen( &grp->N );
 361:Source\mbedtls_open\library/pkparse.c **** 
 362:Source\mbedtls_open\library/pkparse.c ****     /*
 363:Source\mbedtls_open\library/pkparse.c ****      * Allow optional elements by purposefully not enforcing p == end here.
 364:Source\mbedtls_open\library/pkparse.c ****      */
 365:Source\mbedtls_open\library/pkparse.c **** 
 366:Source\mbedtls_open\library/pkparse.c ****     return( 0 );
 367:Source\mbedtls_open\library/pkparse.c **** }
 368:Source\mbedtls_open\library/pkparse.c **** 
 369:Source\mbedtls_open\library/pkparse.c **** /*
 370:Source\mbedtls_open\library/pkparse.c ****  * Find the group id associated with an (almost filled) group as generated by
 371:Source\mbedtls_open\library/pkparse.c ****  * pk_group_from_specified(), or return an error if unknown.
 372:Source\mbedtls_open\library/pkparse.c ****  */
 373:Source\mbedtls_open\library/pkparse.c **** static int pk_group_id_from_group( const mbedtls_ecp_group *grp, mbedtls_ecp_group_id *grp_id )
 374:Source\mbedtls_open\library/pkparse.c **** {
 375:Source\mbedtls_open\library/pkparse.c ****     int ret = 0;
 376:Source\mbedtls_open\library/pkparse.c ****     mbedtls_ecp_group ref;
 377:Source\mbedtls_open\library/pkparse.c ****     const mbedtls_ecp_group_id *id;
 378:Source\mbedtls_open\library/pkparse.c **** 
 379:Source\mbedtls_open\library/pkparse.c ****     mbedtls_ecp_group_init( &ref );
 380:Source\mbedtls_open\library/pkparse.c **** 
ARM GAS  C:\Users\Phuong\AppData\Local\Temp\ccG6FMOL.s 			page 10


 381:Source\mbedtls_open\library/pkparse.c ****     for( id = mbedtls_ecp_grp_id_list(); *id != MBEDTLS_ECP_DP_NONE; id++ )
 382:Source\mbedtls_open\library/pkparse.c ****     {
 383:Source\mbedtls_open\library/pkparse.c ****         /* Load the group associated to that id */
 384:Source\mbedtls_open\library/pkparse.c ****         mbedtls_ecp_group_free( &ref );
 385:Source\mbedtls_open\library/pkparse.c ****         MBEDTLS_MPI_CHK( mbedtls_ecp_group_load( &ref, *id ) );
 386:Source\mbedtls_open\library/pkparse.c **** 
 387:Source\mbedtls_open\library/pkparse.c ****         /* Compare to the group we were given, starting with easy tests */
 388:Source\mbedtls_open\library/pkparse.c ****         if( grp->pbits == ref.pbits && grp->nbits == ref.nbits &&
 389:Source\mbedtls_open\library/pkparse.c ****             mbedtls_mpi_cmp_mpi( &grp->P, &ref.P ) == 0 &&
 390:Source\mbedtls_open\library/pkparse.c ****             mbedtls_mpi_cmp_mpi( &grp->A, &ref.A ) == 0 &&
 391:Source\mbedtls_open\library/pkparse.c ****             mbedtls_mpi_cmp_mpi( &grp->B, &ref.B ) == 0 &&
 392:Source\mbedtls_open\library/pkparse.c ****             mbedtls_mpi_cmp_mpi( &grp->N, &ref.N ) == 0 &&
 393:Source\mbedtls_open\library/pkparse.c ****             mbedtls_mpi_cmp_mpi( &grp->G.X, &ref.G.X ) == 0 &&
 394:Source\mbedtls_open\library/pkparse.c ****             mbedtls_mpi_cmp_mpi( &grp->G.Z, &ref.G.Z ) == 0 &&
 395:Source\mbedtls_open\library/pkparse.c ****             /* For Y we may only know the parity bit, so compare only that */
 396:Source\mbedtls_open\library/pkparse.c ****             mbedtls_mpi_get_bit( &grp->G.Y, 0 ) == mbedtls_mpi_get_bit( &ref.G.Y, 0 ) )
 397:Source\mbedtls_open\library/pkparse.c ****         {
 398:Source\mbedtls_open\library/pkparse.c ****             break;
 399:Source\mbedtls_open\library/pkparse.c ****         }
 400:Source\mbedtls_open\library/pkparse.c **** 
 401:Source\mbedtls_open\library/pkparse.c ****     }
 402:Source\mbedtls_open\library/pkparse.c **** 
 403:Source\mbedtls_open\library/pkparse.c **** cleanup:
 404:Source\mbedtls_open\library/pkparse.c ****     mbedtls_ecp_group_free( &ref );
 405:Source\mbedtls_open\library/pkparse.c **** 
 406:Source\mbedtls_open\library/pkparse.c ****     *grp_id = *id;
 407:Source\mbedtls_open\library/pkparse.c **** 
 408:Source\mbedtls_open\library/pkparse.c ****     if( ret == 0 && *id == MBEDTLS_ECP_DP_NONE )
 409:Source\mbedtls_open\library/pkparse.c ****         ret = MBEDTLS_ERR_ECP_FEATURE_UNAVAILABLE;
 410:Source\mbedtls_open\library/pkparse.c **** 
 411:Source\mbedtls_open\library/pkparse.c ****     return( ret );
 412:Source\mbedtls_open\library/pkparse.c **** }
 413:Source\mbedtls_open\library/pkparse.c **** 
 414:Source\mbedtls_open\library/pkparse.c **** /*
 415:Source\mbedtls_open\library/pkparse.c ****  * Parse a SpecifiedECDomain (SEC 1 C.2) and find the associated group ID
 416:Source\mbedtls_open\library/pkparse.c ****  */
 417:Source\mbedtls_open\library/pkparse.c **** static int pk_group_id_from_specified( const mbedtls_asn1_buf *params,
 418:Source\mbedtls_open\library/pkparse.c ****                                        mbedtls_ecp_group_id *grp_id )
 419:Source\mbedtls_open\library/pkparse.c **** {
 420:Source\mbedtls_open\library/pkparse.c ****     int ret;
 421:Source\mbedtls_open\library/pkparse.c ****     mbedtls_ecp_group grp;
 422:Source\mbedtls_open\library/pkparse.c **** 
 423:Source\mbedtls_open\library/pkparse.c ****     mbedtls_ecp_group_init( &grp );
 424:Source\mbedtls_open\library/pkparse.c **** 
 425:Source\mbedtls_open\library/pkparse.c ****     if( ( ret = pk_group_from_specified( params, &grp ) ) != 0 )
 426:Source\mbedtls_open\library/pkparse.c ****         goto cleanup;
 427:Source\mbedtls_open\library/pkparse.c **** 
 428:Source\mbedtls_open\library/pkparse.c ****     ret = pk_group_id_from_group( &grp, grp_id );
 429:Source\mbedtls_open\library/pkparse.c **** 
 430:Source\mbedtls_open\library/pkparse.c **** cleanup:
 431:Source\mbedtls_open\library/pkparse.c ****     mbedtls_ecp_group_free( &grp );
 432:Source\mbedtls_open\library/pkparse.c **** 
 433:Source\mbedtls_open\library/pkparse.c ****     return( ret );
 434:Source\mbedtls_open\library/pkparse.c **** }
 435:Source\mbedtls_open\library/pkparse.c **** #endif /* MBEDTLS_PK_PARSE_EC_EXTENDED */
 436:Source\mbedtls_open\library/pkparse.c **** 
 437:Source\mbedtls_open\library/pkparse.c **** /*
ARM GAS  C:\Users\Phuong\AppData\Local\Temp\ccG6FMOL.s 			page 11


 438:Source\mbedtls_open\library/pkparse.c ****  * Use EC parameters to initialise an EC group
 439:Source\mbedtls_open\library/pkparse.c ****  *
 440:Source\mbedtls_open\library/pkparse.c ****  * ECParameters ::= CHOICE {
 441:Source\mbedtls_open\library/pkparse.c ****  *   namedCurve         OBJECT IDENTIFIER
 442:Source\mbedtls_open\library/pkparse.c ****  *   specifiedCurve     SpecifiedECDomain -- = SEQUENCE { ... }
 443:Source\mbedtls_open\library/pkparse.c ****  *   -- implicitCurve   NULL
 444:Source\mbedtls_open\library/pkparse.c ****  */
 445:Source\mbedtls_open\library/pkparse.c **** static int pk_use_ecparams( const mbedtls_asn1_buf *params, mbedtls_ecp_group *grp )
 446:Source\mbedtls_open\library/pkparse.c **** {
 447:Source\mbedtls_open\library/pkparse.c ****     int ret;
 448:Source\mbedtls_open\library/pkparse.c ****     mbedtls_ecp_group_id grp_id;
 449:Source\mbedtls_open\library/pkparse.c **** 
 450:Source\mbedtls_open\library/pkparse.c ****     if( params->tag == MBEDTLS_ASN1_OID )
 451:Source\mbedtls_open\library/pkparse.c ****     {
 452:Source\mbedtls_open\library/pkparse.c ****         if( mbedtls_oid_get_ec_grp( params, &grp_id ) != 0 )
 453:Source\mbedtls_open\library/pkparse.c ****             return( MBEDTLS_ERR_PK_UNKNOWN_NAMED_CURVE );
 454:Source\mbedtls_open\library/pkparse.c ****     }
 455:Source\mbedtls_open\library/pkparse.c ****     else
 456:Source\mbedtls_open\library/pkparse.c ****     {
 457:Source\mbedtls_open\library/pkparse.c **** #if defined(MBEDTLS_PK_PARSE_EC_EXTENDED)
 458:Source\mbedtls_open\library/pkparse.c ****         if( ( ret = pk_group_id_from_specified( params, &grp_id ) ) != 0 )
 459:Source\mbedtls_open\library/pkparse.c ****             return( ret );
 460:Source\mbedtls_open\library/pkparse.c **** #else
 461:Source\mbedtls_open\library/pkparse.c ****         return( MBEDTLS_ERR_PK_KEY_INVALID_FORMAT );
 462:Source\mbedtls_open\library/pkparse.c **** #endif
 463:Source\mbedtls_open\library/pkparse.c ****     }
 464:Source\mbedtls_open\library/pkparse.c **** 
 465:Source\mbedtls_open\library/pkparse.c ****     /*
 466:Source\mbedtls_open\library/pkparse.c ****      * grp may already be initilialized; if so, make sure IDs match
 467:Source\mbedtls_open\library/pkparse.c ****      */
 468:Source\mbedtls_open\library/pkparse.c ****     if( grp->id != MBEDTLS_ECP_DP_NONE && grp->id != grp_id )
 469:Source\mbedtls_open\library/pkparse.c ****         return( MBEDTLS_ERR_PK_KEY_INVALID_FORMAT );
 470:Source\mbedtls_open\library/pkparse.c **** 
 471:Source\mbedtls_open\library/pkparse.c ****     if( ( ret = mbedtls_ecp_group_load( grp, grp_id ) ) != 0 )
 472:Source\mbedtls_open\library/pkparse.c ****         return( ret );
 473:Source\mbedtls_open\library/pkparse.c **** 
 474:Source\mbedtls_open\library/pkparse.c ****     return( 0 );
 475:Source\mbedtls_open\library/pkparse.c **** }
 476:Source\mbedtls_open\library/pkparse.c **** 
 477:Source\mbedtls_open\library/pkparse.c **** /*
 478:Source\mbedtls_open\library/pkparse.c ****  * EC public key is an EC point
 479:Source\mbedtls_open\library/pkparse.c ****  *
 480:Source\mbedtls_open\library/pkparse.c ****  * The caller is responsible for clearing the structure upon failure if
 481:Source\mbedtls_open\library/pkparse.c ****  * desired. Take care to pass along the possible ECP_FEATURE_UNAVAILABLE
 482:Source\mbedtls_open\library/pkparse.c ****  * return code of mbedtls_ecp_point_read_binary() and leave p in a usable state.
 483:Source\mbedtls_open\library/pkparse.c ****  */
 484:Source\mbedtls_open\library/pkparse.c **** static int pk_get_ecpubkey( unsigned char **p, const unsigned char *end,
 485:Source\mbedtls_open\library/pkparse.c ****                             mbedtls_ecp_keypair *key )
 486:Source\mbedtls_open\library/pkparse.c **** {
 487:Source\mbedtls_open\library/pkparse.c ****     int ret;
 488:Source\mbedtls_open\library/pkparse.c **** 
 489:Source\mbedtls_open\library/pkparse.c ****     if( ( ret = mbedtls_ecp_point_read_binary( &key->grp, &key->Q,
 490:Source\mbedtls_open\library/pkparse.c ****                     (const unsigned char *) *p, end - *p ) ) == 0 )
 491:Source\mbedtls_open\library/pkparse.c ****     {
 492:Source\mbedtls_open\library/pkparse.c ****         ret = mbedtls_ecp_check_pubkey( &key->grp, &key->Q );
 493:Source\mbedtls_open\library/pkparse.c ****     }
 494:Source\mbedtls_open\library/pkparse.c **** 
ARM GAS  C:\Users\Phuong\AppData\Local\Temp\ccG6FMOL.s 			page 12


 495:Source\mbedtls_open\library/pkparse.c ****     /*
 496:Source\mbedtls_open\library/pkparse.c ****      * We know mbedtls_ecp_point_read_binary consumed all bytes or failed
 497:Source\mbedtls_open\library/pkparse.c ****      */
 498:Source\mbedtls_open\library/pkparse.c ****     *p = (unsigned char *) end;
 499:Source\mbedtls_open\library/pkparse.c **** 
 500:Source\mbedtls_open\library/pkparse.c ****     return( ret );
 501:Source\mbedtls_open\library/pkparse.c **** }
 502:Source\mbedtls_open\library/pkparse.c **** #endif /* MBEDTLS_ECP_C */
 503:Source\mbedtls_open\library/pkparse.c **** 
 504:Source\mbedtls_open\library/pkparse.c **** #if defined(MBEDTLS_RSA_C)
 505:Source\mbedtls_open\library/pkparse.c **** /*
 506:Source\mbedtls_open\library/pkparse.c ****  *  RSAPublicKey ::= SEQUENCE {
 507:Source\mbedtls_open\library/pkparse.c ****  *      modulus           INTEGER,  -- n
 508:Source\mbedtls_open\library/pkparse.c ****  *      publicExponent    INTEGER   -- e
 509:Source\mbedtls_open\library/pkparse.c ****  *  }
 510:Source\mbedtls_open\library/pkparse.c ****  */
 511:Source\mbedtls_open\library/pkparse.c **** static int pk_get_rsapubkey( unsigned char **p,
 512:Source\mbedtls_open\library/pkparse.c ****                              const unsigned char *end,
 513:Source\mbedtls_open\library/pkparse.c ****                              mbedtls_rsa_context *rsa )
 514:Source\mbedtls_open\library/pkparse.c **** {
 515:Source\mbedtls_open\library/pkparse.c ****     int ret;
 516:Source\mbedtls_open\library/pkparse.c ****     size_t len;
 517:Source\mbedtls_open\library/pkparse.c **** 
 518:Source\mbedtls_open\library/pkparse.c ****     if( ( ret = mbedtls_asn1_get_tag( p, end, &len,
 519:Source\mbedtls_open\library/pkparse.c ****             MBEDTLS_ASN1_CONSTRUCTED | MBEDTLS_ASN1_SEQUENCE ) ) != 0 )
 520:Source\mbedtls_open\library/pkparse.c ****         return( MBEDTLS_ERR_PK_INVALID_PUBKEY + ret );
 521:Source\mbedtls_open\library/pkparse.c **** 
 522:Source\mbedtls_open\library/pkparse.c ****     if( *p + len != end )
 523:Source\mbedtls_open\library/pkparse.c ****         return( MBEDTLS_ERR_PK_INVALID_PUBKEY +
 524:Source\mbedtls_open\library/pkparse.c ****                 MBEDTLS_ERR_ASN1_LENGTH_MISMATCH );
 525:Source\mbedtls_open\library/pkparse.c **** 
 526:Source\mbedtls_open\library/pkparse.c ****     /* Import N */
 527:Source\mbedtls_open\library/pkparse.c ****     if( ( ret = mbedtls_asn1_get_tag( p, end, &len, MBEDTLS_ASN1_INTEGER ) ) != 0 )
 528:Source\mbedtls_open\library/pkparse.c ****         return( MBEDTLS_ERR_PK_INVALID_PUBKEY + ret );
 529:Source\mbedtls_open\library/pkparse.c **** 
 530:Source\mbedtls_open\library/pkparse.c ****     if( ( ret = mbedtls_rsa_import_raw( rsa, *p, len, NULL, 0, NULL, 0,
 531:Source\mbedtls_open\library/pkparse.c ****                                         NULL, 0, NULL, 0 ) ) != 0 )
 532:Source\mbedtls_open\library/pkparse.c ****         return( MBEDTLS_ERR_PK_INVALID_PUBKEY );
 533:Source\mbedtls_open\library/pkparse.c **** 
 534:Source\mbedtls_open\library/pkparse.c ****     *p += len;
 535:Source\mbedtls_open\library/pkparse.c **** 
 536:Source\mbedtls_open\library/pkparse.c ****     /* Import E */
 537:Source\mbedtls_open\library/pkparse.c ****     if( ( ret = mbedtls_asn1_get_tag( p, end, &len, MBEDTLS_ASN1_INTEGER ) ) != 0 )
 538:Source\mbedtls_open\library/pkparse.c ****         return( MBEDTLS_ERR_PK_INVALID_PUBKEY + ret );
 539:Source\mbedtls_open\library/pkparse.c **** 
 540:Source\mbedtls_open\library/pkparse.c ****     if( ( ret = mbedtls_rsa_import_raw( rsa, NULL, 0, NULL, 0, NULL, 0,
 541:Source\mbedtls_open\library/pkparse.c ****                                         NULL, 0, *p, len ) ) != 0 )
 542:Source\mbedtls_open\library/pkparse.c ****         return( MBEDTLS_ERR_PK_INVALID_PUBKEY );
 543:Source\mbedtls_open\library/pkparse.c **** 
 544:Source\mbedtls_open\library/pkparse.c ****     *p += len;
 545:Source\mbedtls_open\library/pkparse.c **** 
 546:Source\mbedtls_open\library/pkparse.c ****     if( mbedtls_rsa_complete( rsa ) != 0 ||
 547:Source\mbedtls_open\library/pkparse.c ****         mbedtls_rsa_check_pubkey( rsa ) != 0 )
 548:Source\mbedtls_open\library/pkparse.c ****     {
 549:Source\mbedtls_open\library/pkparse.c ****         return( MBEDTLS_ERR_PK_INVALID_PUBKEY );
 550:Source\mbedtls_open\library/pkparse.c ****     }
 551:Source\mbedtls_open\library/pkparse.c **** 
ARM GAS  C:\Users\Phuong\AppData\Local\Temp\ccG6FMOL.s 			page 13


 552:Source\mbedtls_open\library/pkparse.c ****     if( *p != end )
 553:Source\mbedtls_open\library/pkparse.c ****         return( MBEDTLS_ERR_PK_INVALID_PUBKEY +
 554:Source\mbedtls_open\library/pkparse.c ****                 MBEDTLS_ERR_ASN1_LENGTH_MISMATCH );
 555:Source\mbedtls_open\library/pkparse.c **** 
 556:Source\mbedtls_open\library/pkparse.c ****     return( 0 );
 557:Source\mbedtls_open\library/pkparse.c **** }
 558:Source\mbedtls_open\library/pkparse.c **** #endif /* MBEDTLS_RSA_C */
 559:Source\mbedtls_open\library/pkparse.c **** 
 560:Source\mbedtls_open\library/pkparse.c **** /* Get a PK algorithm identifier
 561:Source\mbedtls_open\library/pkparse.c ****  *
 562:Source\mbedtls_open\library/pkparse.c ****  *  AlgorithmIdentifier  ::=  SEQUENCE  {
 563:Source\mbedtls_open\library/pkparse.c ****  *       algorithm               OBJECT IDENTIFIER,
 564:Source\mbedtls_open\library/pkparse.c ****  *       parameters              ANY DEFINED BY algorithm OPTIONAL  }
 565:Source\mbedtls_open\library/pkparse.c ****  */
 566:Source\mbedtls_open\library/pkparse.c **** static int pk_get_pk_alg( unsigned char **p,
 567:Source\mbedtls_open\library/pkparse.c ****                           const unsigned char *end,
 568:Source\mbedtls_open\library/pkparse.c ****                           mbedtls_pk_type_t *pk_alg, mbedtls_asn1_buf *params )
 569:Source\mbedtls_open\library/pkparse.c **** {
 132              		.loc 1 569 0
 133              		.cfi_startproc
 134              		@ args = 0, pretend = 0, frame = 16
 135              		@ frame_needed = 0, uses_anonymous_args = 0
 136              	.LVL17:
 137 0000 F0B5     		push	{r4, r5, r6, r7, lr}
 138              		.cfi_def_cfa_offset 20
 139              		.cfi_offset 4, -20
 140              		.cfi_offset 5, -16
 141              		.cfi_offset 6, -12
 142              		.cfi_offset 7, -8
 143              		.cfi_offset 14, -4
 144 0002 85B0     		sub	sp, sp, #20
 145              		.cfi_def_cfa_offset 40
 146 0004 0600     		movs	r6, r0
 147 0006 0F00     		movs	r7, r1
 148 0008 1500     		movs	r5, r2
 149 000a 1C00     		movs	r4, r3
 570:Source\mbedtls_open\library/pkparse.c ****     int ret;
 571:Source\mbedtls_open\library/pkparse.c ****     mbedtls_asn1_buf alg_oid;
 572:Source\mbedtls_open\library/pkparse.c **** 
 573:Source\mbedtls_open\library/pkparse.c ****     memset( params, 0, sizeof(mbedtls_asn1_buf) );
 150              		.loc 1 573 0
 151 000c 0C22     		movs	r2, #12
 152              	.LVL18:
 153 000e 0021     		movs	r1, #0
 154              	.LVL19:
 155 0010 1800     		movs	r0, r3
 156              	.LVL20:
 157 0012 FFF7FEFF 		bl	memset
 158              	.LVL21:
 574:Source\mbedtls_open\library/pkparse.c **** 
 575:Source\mbedtls_open\library/pkparse.c ****     if( ( ret = mbedtls_asn1_get_alg( p, end, &alg_oid, params ) ) != 0 )
 159              		.loc 1 575 0
 160 0016 2300     		movs	r3, r4
 161 0018 01AA     		add	r2, sp, #4
 162 001a 3900     		movs	r1, r7
 163 001c 3000     		movs	r0, r6
 164 001e FFF7FEFF 		bl	mbedtls_asn1_get_alg
ARM GAS  C:\Users\Phuong\AppData\Local\Temp\ccG6FMOL.s 			page 14


 165              	.LVL22:
 166 0022 0028     		cmp	r0, #0
 167 0024 03D0     		beq	.L11
 576:Source\mbedtls_open\library/pkparse.c ****         return( MBEDTLS_ERR_PK_INVALID_ALG + ret );
 168              		.loc 1 576 0
 169 0026 0E4B     		ldr	r3, .L17
 170 0028 9C46     		mov	ip, r3
 171 002a 6044     		add	r0, r0, ip
 172              	.LVL23:
 173 002c 16E0     		b	.L12
 174              	.LVL24:
 175              	.L11:
 577:Source\mbedtls_open\library/pkparse.c **** 
 578:Source\mbedtls_open\library/pkparse.c ****     if( mbedtls_oid_get_pk_alg( &alg_oid, pk_alg ) != 0 )
 176              		.loc 1 578 0
 177 002e 2900     		movs	r1, r5
 178 0030 01A8     		add	r0, sp, #4
 179              	.LVL25:
 180 0032 FFF7FEFF 		bl	mbedtls_oid_get_pk_alg
 181              	.LVL26:
 182 0036 0028     		cmp	r0, #0
 183 0038 0BD1     		bne	.L14
 579:Source\mbedtls_open\library/pkparse.c ****         return( MBEDTLS_ERR_PK_UNKNOWN_PK_ALG );
 580:Source\mbedtls_open\library/pkparse.c **** 
 581:Source\mbedtls_open\library/pkparse.c ****     /*
 582:Source\mbedtls_open\library/pkparse.c ****      * No parameters with RSA (only for EC)
 583:Source\mbedtls_open\library/pkparse.c ****      */
 584:Source\mbedtls_open\library/pkparse.c ****     if( *pk_alg == MBEDTLS_PK_RSA &&
 184              		.loc 1 584 0
 185 003a 2B78     		ldrb	r3, [r5]
 186 003c 012B     		cmp	r3, #1
 187 003e 0DD1     		bne	.L12
 585:Source\mbedtls_open\library/pkparse.c ****             ( ( params->tag != MBEDTLS_ASN1_NULL && params->tag != 0 ) ||
 188              		.loc 1 585 0 discriminator 1
 189 0040 2368     		ldr	r3, [r4]
 584:Source\mbedtls_open\library/pkparse.c ****             ( ( params->tag != MBEDTLS_ASN1_NULL && params->tag != 0 ) ||
 190              		.loc 1 584 0 discriminator 1
 191 0042 052B     		cmp	r3, #5
 192 0044 01D0     		beq	.L13
 193              		.loc 1 585 0
 194 0046 002B     		cmp	r3, #0
 195 0048 05D1     		bne	.L15
 196              	.L13:
 586:Source\mbedtls_open\library/pkparse.c ****                 params->len != 0 ) )
 197              		.loc 1 586 0 discriminator 1
 198 004a 6368     		ldr	r3, [r4, #4]
 585:Source\mbedtls_open\library/pkparse.c ****             ( ( params->tag != MBEDTLS_ASN1_NULL && params->tag != 0 ) ||
 199              		.loc 1 585 0 discriminator 1
 200 004c 002B     		cmp	r3, #0
 201 004e 05D0     		beq	.L12
 202 0050 03E0     		b	.L16
 203              	.L14:
 579:Source\mbedtls_open\library/pkparse.c **** 
 204              		.loc 1 579 0
 205 0052 0448     		ldr	r0, .L17+4
 206 0054 02E0     		b	.L12
 207              	.L15:
ARM GAS  C:\Users\Phuong\AppData\Local\Temp\ccG6FMOL.s 			page 15


 587:Source\mbedtls_open\library/pkparse.c ****     {
 588:Source\mbedtls_open\library/pkparse.c ****         return( MBEDTLS_ERR_PK_INVALID_ALG );
 208              		.loc 1 588 0
 209 0056 0248     		ldr	r0, .L17
 210 0058 00E0     		b	.L12
 211              	.L16:
 212 005a 0148     		ldr	r0, .L17
 213              	.L12:
 589:Source\mbedtls_open\library/pkparse.c ****     }
 590:Source\mbedtls_open\library/pkparse.c **** 
 591:Source\mbedtls_open\library/pkparse.c ****     return( 0 );
 592:Source\mbedtls_open\library/pkparse.c **** }
 214              		.loc 1 592 0
 215 005c 05B0     		add	sp, sp, #20
 216              		@ sp needed
 217              	.LVL27:
 218              	.LVL28:
 219              	.LVL29:
 220              	.LVL30:
 221 005e F0BD     		pop	{r4, r5, r6, r7, pc}
 222              	.L18:
 223              		.align	2
 224              	.L17:
 225 0060 80C5FFFF 		.word	-14976
 226 0064 80C3FFFF 		.word	-15488
 227              		.cfi_endproc
 228              	.LFE18:
 229              		.size	pk_get_pk_alg, .-pk_get_pk_alg
 230              		.section	.text.pk_get_rsapubkey,"ax",%progbits
 231              		.align	2
 232              		.code	16
 233              		.thumb_func
 234              		.type	pk_get_rsapubkey, %function
 235              	pk_get_rsapubkey:
 236              	.LFB17:
 514:Source\mbedtls_open\library/pkparse.c ****     int ret;
 237              		.loc 1 514 0
 238              		.cfi_startproc
 239              		@ args = 0, pretend = 0, frame = 8
 240              		@ frame_needed = 0, uses_anonymous_args = 0
 241              	.LVL31:
 242 0000 70B5     		push	{r4, r5, r6, lr}
 243              		.cfi_def_cfa_offset 16
 244              		.cfi_offset 4, -16
 245              		.cfi_offset 5, -12
 246              		.cfi_offset 6, -8
 247              		.cfi_offset 14, -4
 248 0002 8AB0     		sub	sp, sp, #40
 249              		.cfi_def_cfa_offset 56
 250 0004 0600     		movs	r6, r0
 251 0006 0C00     		movs	r4, r1
 252 0008 1500     		movs	r5, r2
 518:Source\mbedtls_open\library/pkparse.c ****             MBEDTLS_ASN1_CONSTRUCTED | MBEDTLS_ASN1_SEQUENCE ) ) != 0 )
 253              		.loc 1 518 0
 254 000a 3023     		movs	r3, #48
 255 000c 09AA     		add	r2, sp, #36
 256              	.LVL32:
ARM GAS  C:\Users\Phuong\AppData\Local\Temp\ccG6FMOL.s 			page 16


 257 000e FFF7FEFF 		bl	mbedtls_asn1_get_tag
 258              	.LVL33:
 259 0012 0028     		cmp	r0, #0
 260 0014 03D0     		beq	.L20
 520:Source\mbedtls_open\library/pkparse.c **** 
 261              		.loc 1 520 0
 262 0016 334B     		ldr	r3, .L29
 263 0018 9C46     		mov	ip, r3
 264 001a 6044     		add	r0, r0, ip
 265              	.LVL34:
 266 001c 5FE0     		b	.L21
 267              	.LVL35:
 268              	.L20:
 522:Source\mbedtls_open\library/pkparse.c ****         return( MBEDTLS_ERR_PK_INVALID_PUBKEY +
 269              		.loc 1 522 0
 270 001e 3368     		ldr	r3, [r6]
 271 0020 099A     		ldr	r2, [sp, #36]
 272 0022 9446     		mov	ip, r2
 273 0024 6344     		add	r3, r3, ip
 274 0026 9C42     		cmp	r4, r3
 275 0028 50D1     		bne	.L24
 527:Source\mbedtls_open\library/pkparse.c ****         return( MBEDTLS_ERR_PK_INVALID_PUBKEY + ret );
 276              		.loc 1 527 0
 277 002a 0223     		movs	r3, #2
 278 002c 09AA     		add	r2, sp, #36
 279 002e 2100     		movs	r1, r4
 280 0030 3000     		movs	r0, r6
 281              	.LVL36:
 282 0032 FFF7FEFF 		bl	mbedtls_asn1_get_tag
 283              	.LVL37:
 284 0036 0028     		cmp	r0, #0
 285 0038 03D0     		beq	.L22
 528:Source\mbedtls_open\library/pkparse.c **** 
 286              		.loc 1 528 0
 287 003a 2A4B     		ldr	r3, .L29
 288 003c 9C46     		mov	ip, r3
 289 003e 6044     		add	r0, r0, ip
 290              	.LVL38:
 291 0040 4DE0     		b	.L21
 292              	.LVL39:
 293              	.L22:
 530:Source\mbedtls_open\library/pkparse.c ****                                         NULL, 0, NULL, 0 ) ) != 0 )
 294              		.loc 1 530 0
 295 0042 0023     		movs	r3, #0
 296 0044 0693     		str	r3, [sp, #24]
 297 0046 0593     		str	r3, [sp, #20]
 298 0048 0493     		str	r3, [sp, #16]
 299 004a 0393     		str	r3, [sp, #12]
 300 004c 0293     		str	r3, [sp, #8]
 301 004e 0193     		str	r3, [sp, #4]
 302 0050 0093     		str	r3, [sp]
 303 0052 099A     		ldr	r2, [sp, #36]
 304 0054 3168     		ldr	r1, [r6]
 305 0056 2800     		movs	r0, r5
 306              	.LVL40:
 307 0058 FFF7FEFF 		bl	mbedtls_rsa_import_raw
 308              	.LVL41:
ARM GAS  C:\Users\Phuong\AppData\Local\Temp\ccG6FMOL.s 			page 17


 309 005c 0028     		cmp	r0, #0
 310 005e 37D1     		bne	.L25
 534:Source\mbedtls_open\library/pkparse.c **** 
 311              		.loc 1 534 0
 312 0060 3368     		ldr	r3, [r6]
 313 0062 099A     		ldr	r2, [sp, #36]
 314 0064 9446     		mov	ip, r2
 315 0066 6344     		add	r3, r3, ip
 316 0068 3360     		str	r3, [r6]
 537:Source\mbedtls_open\library/pkparse.c ****         return( MBEDTLS_ERR_PK_INVALID_PUBKEY + ret );
 317              		.loc 1 537 0
 318 006a 0223     		movs	r3, #2
 319 006c 09AA     		add	r2, sp, #36
 320 006e 2100     		movs	r1, r4
 321 0070 3000     		movs	r0, r6
 322              	.LVL42:
 323 0072 FFF7FEFF 		bl	mbedtls_asn1_get_tag
 324              	.LVL43:
 325 0076 0028     		cmp	r0, #0
 326 0078 03D0     		beq	.L23
 538:Source\mbedtls_open\library/pkparse.c **** 
 327              		.loc 1 538 0
 328 007a 1A4B     		ldr	r3, .L29
 329 007c 9C46     		mov	ip, r3
 330 007e 6044     		add	r0, r0, ip
 331              	.LVL44:
 332 0080 2DE0     		b	.L21
 333              	.LVL45:
 334              	.L23:
 540:Source\mbedtls_open\library/pkparse.c ****                                         NULL, 0, *p, len ) ) != 0 )
 335              		.loc 1 540 0
 336 0082 099B     		ldr	r3, [sp, #36]
 337 0084 0693     		str	r3, [sp, #24]
 338 0086 3368     		ldr	r3, [r6]
 339 0088 0593     		str	r3, [sp, #20]
 340 008a 0023     		movs	r3, #0
 341 008c 0493     		str	r3, [sp, #16]
 342 008e 0393     		str	r3, [sp, #12]
 343 0090 0293     		str	r3, [sp, #8]
 344 0092 0193     		str	r3, [sp, #4]
 345 0094 0093     		str	r3, [sp]
 346 0096 0022     		movs	r2, #0
 347 0098 0021     		movs	r1, #0
 348 009a 2800     		movs	r0, r5
 349              	.LVL46:
 350 009c FFF7FEFF 		bl	mbedtls_rsa_import_raw
 351              	.LVL47:
 352 00a0 0028     		cmp	r0, #0
 353 00a2 17D1     		bne	.L26
 544:Source\mbedtls_open\library/pkparse.c **** 
 354              		.loc 1 544 0
 355 00a4 3368     		ldr	r3, [r6]
 356 00a6 099A     		ldr	r2, [sp, #36]
 357 00a8 9446     		mov	ip, r2
 358 00aa 6344     		add	r3, r3, ip
 359 00ac 3360     		str	r3, [r6]
 546:Source\mbedtls_open\library/pkparse.c ****         mbedtls_rsa_check_pubkey( rsa ) != 0 )
ARM GAS  C:\Users\Phuong\AppData\Local\Temp\ccG6FMOL.s 			page 18


 360              		.loc 1 546 0
 361 00ae 2800     		movs	r0, r5
 362              	.LVL48:
 363 00b0 FFF7FEFF 		bl	mbedtls_rsa_complete
 364              	.LVL49:
 365 00b4 0028     		cmp	r0, #0
 366 00b6 0FD1     		bne	.L27
 547:Source\mbedtls_open\library/pkparse.c ****     {
 367              		.loc 1 547 0 discriminator 1
 368 00b8 2800     		movs	r0, r5
 369 00ba FFF7FEFF 		bl	mbedtls_rsa_check_pubkey
 370              	.LVL50:
 546:Source\mbedtls_open\library/pkparse.c ****         mbedtls_rsa_check_pubkey( rsa ) != 0 )
 371              		.loc 1 546 0 discriminator 1
 372 00be 0028     		cmp	r0, #0
 373 00c0 0CD1     		bne	.L28
 552:Source\mbedtls_open\library/pkparse.c ****         return( MBEDTLS_ERR_PK_INVALID_PUBKEY +
 374              		.loc 1 552 0
 375 00c2 3368     		ldr	r3, [r6]
 376 00c4 9C42     		cmp	r4, r3
 377 00c6 0AD0     		beq	.L21
 553:Source\mbedtls_open\library/pkparse.c ****                 MBEDTLS_ERR_ASN1_LENGTH_MISMATCH );
 378              		.loc 1 553 0
 379 00c8 0748     		ldr	r0, .L29+4
 380 00ca 08E0     		b	.L21
 381              	.LVL51:
 382              	.L24:
 523:Source\mbedtls_open\library/pkparse.c ****                 MBEDTLS_ERR_ASN1_LENGTH_MISMATCH );
 383              		.loc 1 523 0
 384 00cc 0648     		ldr	r0, .L29+4
 385              	.LVL52:
 386 00ce 06E0     		b	.L21
 387              	.LVL53:
 388              	.L25:
 532:Source\mbedtls_open\library/pkparse.c **** 
 389              		.loc 1 532 0
 390 00d0 0448     		ldr	r0, .L29
 391              	.LVL54:
 392 00d2 04E0     		b	.L21
 393              	.LVL55:
 394              	.L26:
 542:Source\mbedtls_open\library/pkparse.c **** 
 395              		.loc 1 542 0
 396 00d4 0348     		ldr	r0, .L29
 397              	.LVL56:
 398 00d6 02E0     		b	.L21
 399              	.L27:
 549:Source\mbedtls_open\library/pkparse.c ****     }
 400              		.loc 1 549 0
 401 00d8 0248     		ldr	r0, .L29
 402 00da 00E0     		b	.L21
 403              	.L28:
 404 00dc 0148     		ldr	r0, .L29
 405              	.L21:
 557:Source\mbedtls_open\library/pkparse.c **** #endif /* MBEDTLS_RSA_C */
 406              		.loc 1 557 0
 407 00de 0AB0     		add	sp, sp, #40
ARM GAS  C:\Users\Phuong\AppData\Local\Temp\ccG6FMOL.s 			page 19


 408              		@ sp needed
 409              	.LVL57:
 410              	.LVL58:
 411              	.LVL59:
 412 00e0 70BD     		pop	{r4, r5, r6, pc}
 413              	.L30:
 414 00e2 C046     		.align	2
 415              	.L29:
 416 00e4 00C5FFFF 		.word	-15104
 417 00e8 9AC4FFFF 		.word	-15206
 418              		.cfi_endproc
 419              	.LFE17:
 420              		.size	pk_get_rsapubkey, .-pk_get_rsapubkey
 421              		.section	.text.pk_group_from_specified,"ax",%progbits
 422              		.align	2
 423              		.code	16
 424              		.thumb_func
 425              		.type	pk_group_from_specified, %function
 426              	pk_group_from_specified:
 427              	.LFB12:
 229:Source\mbedtls_open\library/pkparse.c ****     int ret;
 428              		.loc 1 229 0
 429              		.cfi_startproc
 430              		@ args = 0, pretend = 0, frame = 16
 431              		@ frame_needed = 0, uses_anonymous_args = 0
 432              	.LVL60:
 433 0000 F0B5     		push	{r4, r5, r6, r7, lr}
 434              		.cfi_def_cfa_offset 20
 435              		.cfi_offset 4, -20
 436              		.cfi_offset 5, -16
 437              		.cfi_offset 6, -12
 438              		.cfi_offset 7, -8
 439              		.cfi_offset 14, -4
 440 0002 4F46     		mov	r7, r9
 441 0004 4646     		mov	r6, r8
 442 0006 C0B4     		push	{r6, r7}
 443              		.cfi_def_cfa_offset 28
 444              		.cfi_offset 8, -28
 445              		.cfi_offset 9, -24
 446 0008 85B0     		sub	sp, sp, #20
 447              		.cfi_def_cfa_offset 48
 448 000a 0C00     		movs	r4, r1
 231:Source\mbedtls_open\library/pkparse.c ****     const unsigned char * const end = params->p + params->len;
 449              		.loc 1 231 0
 450 000c 8368     		ldr	r3, [r0, #8]
 451 000e 0393     		str	r3, [sp, #12]
 232:Source\mbedtls_open\library/pkparse.c ****     const unsigned char *end_field, *end_curve;
 452              		.loc 1 232 0
 453 0010 4568     		ldr	r5, [r0, #4]
 454 0012 5D19     		adds	r5, r3, r5
 455              	.LVL61:
 238:Source\mbedtls_open\library/pkparse.c ****         return( MBEDTLS_ERR_PK_KEY_INVALID_FORMAT + ret );
 456              		.loc 1 238 0
 457 0014 01AA     		add	r2, sp, #4
 458 0016 2900     		movs	r1, r5
 459              	.LVL62:
 460 0018 03A8     		add	r0, sp, #12
ARM GAS  C:\Users\Phuong\AppData\Local\Temp\ccG6FMOL.s 			page 20


 461              	.LVL63:
 462 001a FFF7FEFF 		bl	mbedtls_asn1_get_int
 463              	.LVL64:
 464 001e 0028     		cmp	r0, #0
 465 0020 02D0     		beq	.L32
 239:Source\mbedtls_open\library/pkparse.c **** 
 466              		.loc 1 239 0
 467 0022 824B     		ldr	r3, .L57
 468 0024 C618     		adds	r6, r0, r3
 469 0026 FAE0     		b	.L33
 470              	.L32:
 241:Source\mbedtls_open\library/pkparse.c ****         return( MBEDTLS_ERR_PK_KEY_INVALID_FORMAT );
 471              		.loc 1 241 0
 472 0028 019B     		ldr	r3, [sp, #4]
 473 002a 5A1E     		subs	r2, r3, #1
 474 002c 022A     		cmp	r2, #2
 475 002e 00D9     		bls	.LCB491
 476 0030 DAE0     		b	.L43	@long jump
 477              	.LCB491:
 250:Source\mbedtls_open\library/pkparse.c ****             MBEDTLS_ASN1_CONSTRUCTED | MBEDTLS_ASN1_SEQUENCE ) ) != 0 )
 478              		.loc 1 250 0
 479 0032 3023     		movs	r3, #48
 480 0034 02AA     		add	r2, sp, #8
 481 0036 2900     		movs	r1, r5
 482 0038 03A8     		add	r0, sp, #12
 483              	.LVL65:
 484 003a FFF7FEFF 		bl	mbedtls_asn1_get_tag
 485              	.LVL66:
 486 003e 0028     		cmp	r0, #0
 487 0040 00D0     		beq	.LCB501
 488 0042 D3E0     		b	.L44	@long jump
 489              	.LCB501:
 254:Source\mbedtls_open\library/pkparse.c **** 
 490              		.loc 1 254 0
 491 0044 039B     		ldr	r3, [sp, #12]
 492 0046 029A     		ldr	r2, [sp, #8]
 493 0048 9446     		mov	ip, r2
 494 004a 6344     		add	r3, r3, ip
 495 004c 9846     		mov	r8, r3
 496              	.LVL67:
 264:Source\mbedtls_open\library/pkparse.c ****         return( ret );
 497              		.loc 1 264 0
 498 004e 0623     		movs	r3, #6
 499              	.LVL68:
 500 0050 02AA     		add	r2, sp, #8
 501 0052 4146     		mov	r1, r8
 502 0054 03A8     		add	r0, sp, #12
 503              	.LVL69:
 504 0056 FFF7FEFF 		bl	mbedtls_asn1_get_tag
 505              	.LVL70:
 506 005a 0028     		cmp	r0, #0
 507 005c 00D0     		beq	.LCB520
 508 005e C7E0     		b	.L45	@long jump
 509              	.LCB520:
 267:Source\mbedtls_open\library/pkparse.c ****         memcmp( p, MBEDTLS_OID_ANSI_X9_62_PRIME_FIELD, len ) != 0 )
 510              		.loc 1 267 0
 511 0060 029F     		ldr	r7, [sp, #8]
ARM GAS  C:\Users\Phuong\AppData\Local\Temp\ccG6FMOL.s 			page 21


 512 0062 072F     		cmp	r7, #7
 513 0064 00D0     		beq	.LCB523
 514 0066 C5E0     		b	.L46	@long jump
 515              	.LCB523:
 268:Source\mbedtls_open\library/pkparse.c ****     {
 516              		.loc 1 268 0 discriminator 1
 517 0068 039B     		ldr	r3, [sp, #12]
 518 006a 9946     		mov	r9, r3
 519 006c 3A00     		movs	r2, r7
 520 006e 7049     		ldr	r1, .L57+4
 521 0070 1800     		movs	r0, r3
 522              	.LVL71:
 523 0072 FFF7FEFF 		bl	memcmp
 524              	.LVL72:
 525 0076 061E     		subs	r6, r0, #0
 267:Source\mbedtls_open\library/pkparse.c ****         memcmp( p, MBEDTLS_OID_ANSI_X9_62_PRIME_FIELD, len ) != 0 )
 526              		.loc 1 267 0 discriminator 1
 527 0078 00D0     		beq	.LCB534
 528 007a BDE0     		b	.L47	@long jump
 529              	.LCB534:
 273:Source\mbedtls_open\library/pkparse.c **** 
 530              		.loc 1 273 0
 531 007c 4F44     		add	r7, r7, r9
 532 007e 0397     		str	r7, [sp, #12]
 276:Source\mbedtls_open\library/pkparse.c ****         return( MBEDTLS_ERR_PK_KEY_INVALID_FORMAT + ret );
 533              		.loc 1 276 0
 534 0080 271D     		adds	r7, r4, #4
 535 0082 3A00     		movs	r2, r7
 536 0084 4146     		mov	r1, r8
 537 0086 03A8     		add	r0, sp, #12
 538 0088 FFF7FEFF 		bl	mbedtls_asn1_get_mpi
 539              	.LVL73:
 540 008c 0028     		cmp	r0, #0
 541 008e 02D0     		beq	.L34
 277:Source\mbedtls_open\library/pkparse.c **** 
 542              		.loc 1 277 0
 543 0090 664B     		ldr	r3, .L57
 544 0092 C618     		adds	r6, r0, r3
 545 0094 C3E0     		b	.L33
 546              	.L34:
 279:Source\mbedtls_open\library/pkparse.c **** 
 547              		.loc 1 279 0
 548 0096 3800     		movs	r0, r7
 549              	.LVL74:
 550 0098 FFF7FEFF 		bl	mbedtls_mpi_bitlen
 551              	.LVL75:
 552 009c A065     		str	r0, [r4, #88]
 281:Source\mbedtls_open\library/pkparse.c ****         return( MBEDTLS_ERR_PK_KEY_INVALID_FORMAT +
 553              		.loc 1 281 0
 554 009e 039B     		ldr	r3, [sp, #12]
 555 00a0 9845     		cmp	r8, r3
 556 00a2 00D0     		beq	.LCB560
 557 00a4 AAE0     		b	.L48	@long jump
 558              	.LCB560:
 294:Source\mbedtls_open\library/pkparse.c ****             MBEDTLS_ASN1_CONSTRUCTED | MBEDTLS_ASN1_SEQUENCE ) ) != 0 )
 559              		.loc 1 294 0
 560 00a6 3023     		movs	r3, #48
ARM GAS  C:\Users\Phuong\AppData\Local\Temp\ccG6FMOL.s 			page 22


 561 00a8 02AA     		add	r2, sp, #8
 562 00aa 2900     		movs	r1, r5
 563 00ac 03A8     		add	r0, sp, #12
 564 00ae FFF7FEFF 		bl	mbedtls_asn1_get_tag
 565              	.LVL76:
 566 00b2 0028     		cmp	r0, #0
 567 00b4 00D0     		beq	.LCB569
 568 00b6 A3E0     		b	.L49	@long jump
 569              	.LCB569:
 298:Source\mbedtls_open\library/pkparse.c **** 
 570              		.loc 1 298 0
 571 00b8 039B     		ldr	r3, [sp, #12]
 572 00ba 029A     		ldr	r2, [sp, #8]
 573 00bc 9446     		mov	ip, r2
 574 00be 6344     		add	r3, r3, ip
 575 00c0 9846     		mov	r8, r3
 576              	.LVL77:
 304:Source\mbedtls_open\library/pkparse.c ****         ( ret = mbedtls_mpi_read_binary( &grp->A, p, len ) ) != 0 )
 577              		.loc 1 304 0
 578 00c2 0423     		movs	r3, #4
 579              	.LVL78:
 580 00c4 02AA     		add	r2, sp, #8
 581 00c6 4146     		mov	r1, r8
 582 00c8 03A8     		add	r0, sp, #12
 583              	.LVL79:
 584 00ca FFF7FEFF 		bl	mbedtls_asn1_get_tag
 585              	.LVL80:
 586 00ce 0028     		cmp	r0, #0
 587 00d0 07D1     		bne	.L35
 305:Source\mbedtls_open\library/pkparse.c ****     {
 588              		.loc 1 305 0 discriminator 1
 589 00d2 2000     		movs	r0, r4
 590              	.LVL81:
 591 00d4 1030     		adds	r0, r0, #16
 304:Source\mbedtls_open\library/pkparse.c ****         ( ret = mbedtls_mpi_read_binary( &grp->A, p, len ) ) != 0 )
 592              		.loc 1 304 0 discriminator 1
 593 00d6 029A     		ldr	r2, [sp, #8]
 594 00d8 0399     		ldr	r1, [sp, #12]
 595 00da FFF7FEFF 		bl	mbedtls_mpi_read_binary
 596              	.LVL82:
 597 00de 0028     		cmp	r0, #0
 598 00e0 02D0     		beq	.L36
 599              	.L35:
 307:Source\mbedtls_open\library/pkparse.c ****     }
 600              		.loc 1 307 0
 601 00e2 524B     		ldr	r3, .L57
 602 00e4 C618     		adds	r6, r0, r3
 603 00e6 9AE0     		b	.L33
 604              	.L36:
 310:Source\mbedtls_open\library/pkparse.c **** 
 605              		.loc 1 310 0
 606 00e8 039B     		ldr	r3, [sp, #12]
 607 00ea 029A     		ldr	r2, [sp, #8]
 608 00ec 9446     		mov	ip, r2
 609 00ee 6344     		add	r3, r3, ip
 610 00f0 0393     		str	r3, [sp, #12]
 312:Source\mbedtls_open\library/pkparse.c ****         ( ret = mbedtls_mpi_read_binary( &grp->B, p, len ) ) != 0 )
ARM GAS  C:\Users\Phuong\AppData\Local\Temp\ccG6FMOL.s 			page 23


 611              		.loc 1 312 0
 612 00f2 0423     		movs	r3, #4
 613 00f4 02AA     		add	r2, sp, #8
 614 00f6 4146     		mov	r1, r8
 615 00f8 03A8     		add	r0, sp, #12
 616              	.LVL83:
 617 00fa FFF7FEFF 		bl	mbedtls_asn1_get_tag
 618              	.LVL84:
 619 00fe 0028     		cmp	r0, #0
 620 0100 07D1     		bne	.L37
 313:Source\mbedtls_open\library/pkparse.c ****     {
 621              		.loc 1 313 0 discriminator 1
 622 0102 2000     		movs	r0, r4
 623              	.LVL85:
 624 0104 1C30     		adds	r0, r0, #28
 312:Source\mbedtls_open\library/pkparse.c ****         ( ret = mbedtls_mpi_read_binary( &grp->B, p, len ) ) != 0 )
 625              		.loc 1 312 0 discriminator 1
 626 0106 029A     		ldr	r2, [sp, #8]
 627 0108 0399     		ldr	r1, [sp, #12]
 628 010a FFF7FEFF 		bl	mbedtls_mpi_read_binary
 629              	.LVL86:
 630 010e 0028     		cmp	r0, #0
 631 0110 02D0     		beq	.L38
 632              	.L37:
 315:Source\mbedtls_open\library/pkparse.c ****     }
 633              		.loc 1 315 0
 634 0112 464B     		ldr	r3, .L57
 635 0114 C618     		adds	r6, r0, r3
 636 0116 82E0     		b	.L33
 637              	.L38:
 318:Source\mbedtls_open\library/pkparse.c **** 
 638              		.loc 1 318 0
 639 0118 039B     		ldr	r3, [sp, #12]
 640 011a 029A     		ldr	r2, [sp, #8]
 641 011c 9446     		mov	ip, r2
 642 011e 6344     		add	r3, r3, ip
 643 0120 0393     		str	r3, [sp, #12]
 321:Source\mbedtls_open\library/pkparse.c ****         p += len;
 644              		.loc 1 321 0
 645 0122 0323     		movs	r3, #3
 646 0124 02AA     		add	r2, sp, #8
 647 0126 4146     		mov	r1, r8
 648 0128 03A8     		add	r0, sp, #12
 649              	.LVL87:
 650 012a FFF7FEFF 		bl	mbedtls_asn1_get_tag
 651              	.LVL88:
 652 012e 0028     		cmp	r0, #0
 653 0130 04D1     		bne	.L39
 322:Source\mbedtls_open\library/pkparse.c **** 
 654              		.loc 1 322 0
 655 0132 039B     		ldr	r3, [sp, #12]
 656 0134 029A     		ldr	r2, [sp, #8]
 657 0136 9446     		mov	ip, r2
 658 0138 6344     		add	r3, r3, ip
 659 013a 0393     		str	r3, [sp, #12]
 660              	.L39:
 324:Source\mbedtls_open\library/pkparse.c ****         return( MBEDTLS_ERR_PK_KEY_INVALID_FORMAT +
ARM GAS  C:\Users\Phuong\AppData\Local\Temp\ccG6FMOL.s 			page 24


 661              		.loc 1 324 0
 662 013c 039B     		ldr	r3, [sp, #12]
 663 013e 9845     		cmp	r8, r3
 664 0140 60D1     		bne	.L50
 331:Source\mbedtls_open\library/pkparse.c ****         return( MBEDTLS_ERR_PK_KEY_INVALID_FORMAT + ret );
 665              		.loc 1 331 0
 666 0142 0423     		movs	r3, #4
 667 0144 02AA     		add	r2, sp, #8
 668 0146 2900     		movs	r1, r5
 669 0148 03A8     		add	r0, sp, #12
 670              	.LVL89:
 671 014a FFF7FEFF 		bl	mbedtls_asn1_get_tag
 672              	.LVL90:
 673 014e 0028     		cmp	r0, #0
 674 0150 02D0     		beq	.L40
 332:Source\mbedtls_open\library/pkparse.c **** 
 675              		.loc 1 332 0
 676 0152 364B     		ldr	r3, .L57
 677 0154 C618     		adds	r6, r0, r3
 678 0156 62E0     		b	.L33
 679              	.L40:
 334:Source\mbedtls_open\library/pkparse.c ****                                       ( const unsigned char *) p, len ) ) != 0 )
 680              		.loc 1 334 0
 681 0158 2100     		movs	r1, r4
 682 015a 2831     		adds	r1, r1, #40
 683 015c 029B     		ldr	r3, [sp, #8]
 684 015e 039A     		ldr	r2, [sp, #12]
 685 0160 2000     		movs	r0, r4
 686              	.LVL91:
 687 0162 FFF7FEFF 		bl	mbedtls_ecp_point_read_binary
 688              	.LVL92:
 689 0166 0028     		cmp	r0, #0
 690 0168 28D0     		beq	.L41
 341:Source\mbedtls_open\library/pkparse.c ****             ( p[0] != 0x02 && p[0] != 0x03 ) ||
 691              		.loc 1 341 0
 692 016a 324B     		ldr	r3, .L57+8
 693 016c 9842     		cmp	r0, r3
 694 016e 4BD1     		bne	.L51
 342:Source\mbedtls_open\library/pkparse.c ****             len != mbedtls_mpi_size( &grp->P ) + 1 ||
 695              		.loc 1 342 0 discriminator 1
 696 0170 039B     		ldr	r3, [sp, #12]
 697 0172 1B78     		ldrb	r3, [r3]
 698 0174 023B     		subs	r3, r3, #2
 699 0176 DBB2     		uxtb	r3, r3
 341:Source\mbedtls_open\library/pkparse.c ****             ( p[0] != 0x02 && p[0] != 0x03 ) ||
 700              		.loc 1 341 0 discriminator 1
 701 0178 012B     		cmp	r3, #1
 702 017a 47D8     		bhi	.L52
 343:Source\mbedtls_open\library/pkparse.c ****             mbedtls_mpi_read_binary( &grp->G.X, p + 1, len - 1 ) != 0 ||
 703              		.loc 1 343 0
 704 017c 3800     		movs	r0, r7
 705              	.LVL93:
 706 017e FFF7FEFF 		bl	mbedtls_mpi_size
 707              	.LVL94:
 708 0182 0130     		adds	r0, r0, #1
 709 0184 029A     		ldr	r2, [sp, #8]
 342:Source\mbedtls_open\library/pkparse.c ****             len != mbedtls_mpi_size( &grp->P ) + 1 ||
ARM GAS  C:\Users\Phuong\AppData\Local\Temp\ccG6FMOL.s 			page 25


 710              		.loc 1 342 0
 711 0186 9042     		cmp	r0, r2
 712 0188 42D1     		bne	.L53
 344:Source\mbedtls_open\library/pkparse.c ****             mbedtls_mpi_lset( &grp->G.Y, p[0] - 2 ) != 0 ||
 713              		.loc 1 344 0
 714 018a 013A     		subs	r2, r2, #1
 715 018c 039B     		ldr	r3, [sp, #12]
 716 018e 591C     		adds	r1, r3, #1
 717 0190 2000     		movs	r0, r4
 718 0192 2830     		adds	r0, r0, #40
 719 0194 FFF7FEFF 		bl	mbedtls_mpi_read_binary
 720              	.LVL95:
 343:Source\mbedtls_open\library/pkparse.c ****             mbedtls_mpi_read_binary( &grp->G.X, p + 1, len - 1 ) != 0 ||
 721              		.loc 1 343 0
 722 0198 0028     		cmp	r0, #0
 723 019a 3BD1     		bne	.L54
 345:Source\mbedtls_open\library/pkparse.c ****             mbedtls_mpi_lset( &grp->G.Z, 1 ) != 0 )
 724              		.loc 1 345 0
 725 019c 039B     		ldr	r3, [sp, #12]
 726 019e 1978     		ldrb	r1, [r3]
 727 01a0 0239     		subs	r1, r1, #2
 728 01a2 2000     		movs	r0, r4
 729 01a4 3430     		adds	r0, r0, #52
 730 01a6 FFF7FEFF 		bl	mbedtls_mpi_lset
 731              	.LVL96:
 344:Source\mbedtls_open\library/pkparse.c ****             mbedtls_mpi_lset( &grp->G.Y, p[0] - 2 ) != 0 ||
 732              		.loc 1 344 0
 733 01aa 0028     		cmp	r0, #0
 734 01ac 34D1     		bne	.L55
 346:Source\mbedtls_open\library/pkparse.c ****         {
 735              		.loc 1 346 0
 736 01ae 2000     		movs	r0, r4
 737 01b0 4030     		adds	r0, r0, #64
 738 01b2 0121     		movs	r1, #1
 739 01b4 FFF7FEFF 		bl	mbedtls_mpi_lset
 740              	.LVL97:
 345:Source\mbedtls_open\library/pkparse.c ****             mbedtls_mpi_lset( &grp->G.Z, 1 ) != 0 )
 741              		.loc 1 345 0
 742 01b8 0028     		cmp	r0, #0
 743 01ba 2FD1     		bne	.L56
 744              	.L41:
 352:Source\mbedtls_open\library/pkparse.c **** 
 745              		.loc 1 352 0
 746 01bc 039B     		ldr	r3, [sp, #12]
 747 01be 029A     		ldr	r2, [sp, #8]
 748 01c0 9446     		mov	ip, r2
 749 01c2 6344     		add	r3, r3, ip
 750 01c4 0393     		str	r3, [sp, #12]
 357:Source\mbedtls_open\library/pkparse.c ****         return( MBEDTLS_ERR_PK_KEY_INVALID_FORMAT + ret );
 751              		.loc 1 357 0
 752 01c6 2700     		movs	r7, r4
 753 01c8 4C37     		adds	r7, r7, #76
 754 01ca 3A00     		movs	r2, r7
 755 01cc 2900     		movs	r1, r5
 756 01ce 03A8     		add	r0, sp, #12
 757 01d0 FFF7FEFF 		bl	mbedtls_asn1_get_mpi
 758              	.LVL98:
ARM GAS  C:\Users\Phuong\AppData\Local\Temp\ccG6FMOL.s 			page 26


 759 01d4 0028     		cmp	r0, #0
 760 01d6 02D0     		beq	.L42
 358:Source\mbedtls_open\library/pkparse.c **** 
 761              		.loc 1 358 0
 762 01d8 144B     		ldr	r3, .L57
 763 01da C618     		adds	r6, r0, r3
 764 01dc 1FE0     		b	.L33
 765              	.L42:
 360:Source\mbedtls_open\library/pkparse.c **** 
 766              		.loc 1 360 0
 767 01de 3800     		movs	r0, r7
 768              	.LVL99:
 769 01e0 FFF7FEFF 		bl	mbedtls_mpi_bitlen
 770              	.LVL100:
 771 01e4 E065     		str	r0, [r4, #92]
 366:Source\mbedtls_open\library/pkparse.c **** }
 772              		.loc 1 366 0
 773 01e6 1AE0     		b	.L33
 774              	.LVL101:
 775              	.L43:
 242:Source\mbedtls_open\library/pkparse.c **** 
 776              		.loc 1 242 0
 777 01e8 104E     		ldr	r6, .L57
 778 01ea 18E0     		b	.L33
 779              	.L44:
 252:Source\mbedtls_open\library/pkparse.c **** 
 780              		.loc 1 252 0
 781 01ec 0600     		movs	r6, r0
 782 01ee 16E0     		b	.L33
 783              	.LVL102:
 784              	.L45:
 265:Source\mbedtls_open\library/pkparse.c **** 
 785              		.loc 1 265 0
 786 01f0 0600     		movs	r6, r0
 787 01f2 14E0     		b	.L33
 788              	.L46:
 270:Source\mbedtls_open\library/pkparse.c ****     }
 789              		.loc 1 270 0
 790 01f4 104E     		ldr	r6, .L57+12
 791 01f6 12E0     		b	.L33
 792              	.LVL103:
 793              	.L47:
 794 01f8 0F4E     		ldr	r6, .L57+12
 795 01fa 10E0     		b	.L33
 796              	.L48:
 282:Source\mbedtls_open\library/pkparse.c ****                 MBEDTLS_ERR_ASN1_LENGTH_MISMATCH );
 797              		.loc 1 282 0
 798 01fc 0F4E     		ldr	r6, .L57+16
 799 01fe 0EE0     		b	.L33
 800              	.LVL104:
 801              	.L49:
 296:Source\mbedtls_open\library/pkparse.c **** 
 802              		.loc 1 296 0
 803 0200 0600     		movs	r6, r0
 804 0202 0CE0     		b	.L33
 805              	.LVL105:
 806              	.L50:
ARM GAS  C:\Users\Phuong\AppData\Local\Temp\ccG6FMOL.s 			page 27


 325:Source\mbedtls_open\library/pkparse.c ****                 MBEDTLS_ERR_ASN1_LENGTH_MISMATCH );
 807              		.loc 1 325 0
 808 0204 0D4E     		ldr	r6, .L57+16
 809 0206 0AE0     		b	.L33
 810              	.L51:
 348:Source\mbedtls_open\library/pkparse.c ****         }
 811              		.loc 1 348 0
 812 0208 084E     		ldr	r6, .L57
 813 020a 08E0     		b	.L33
 814              	.L52:
 815 020c 074E     		ldr	r6, .L57
 816 020e 06E0     		b	.L33
 817              	.LVL106:
 818              	.L53:
 819 0210 064E     		ldr	r6, .L57
 820 0212 04E0     		b	.L33
 821              	.L54:
 822 0214 054E     		ldr	r6, .L57
 823 0216 02E0     		b	.L33
 824              	.L55:
 825 0218 044E     		ldr	r6, .L57
 826 021a 00E0     		b	.L33
 827              	.L56:
 828 021c 034E     		ldr	r6, .L57
 829              	.LVL107:
 830              	.L33:
 367:Source\mbedtls_open\library/pkparse.c **** 
 831              		.loc 1 367 0
 832 021e 3000     		movs	r0, r6
 833 0220 05B0     		add	sp, sp, #20
 834              		@ sp needed
 835              	.LVL108:
 836              	.LVL109:
 837 0222 0CBC     		pop	{r2, r3}
 838 0224 9046     		mov	r8, r2
 839 0226 9946     		mov	r9, r3
 840 0228 F0BD     		pop	{r4, r5, r6, r7, pc}
 841              	.L58:
 842 022a C046     		.align	2
 843              	.L57:
 844 022c 00C3FFFF 		.word	-15616
 845 0230 00000000 		.word	.LC0
 846 0234 80B1FFFF 		.word	-20096
 847 0238 80C6FFFF 		.word	-14720
 848 023c 9AC2FFFF 		.word	-15718
 849              		.cfi_endproc
 850              	.LFE12:
 851              		.size	pk_group_from_specified, .-pk_group_from_specified
 852              		.section	.text.pk_group_id_from_group,"ax",%progbits
 853              		.align	2
 854              		.code	16
 855              		.thumb_func
 856              		.type	pk_group_id_from_group, %function
 857              	pk_group_id_from_group:
 858              	.LFB13:
 374:Source\mbedtls_open\library/pkparse.c ****     int ret = 0;
 859              		.loc 1 374 0
ARM GAS  C:\Users\Phuong\AppData\Local\Temp\ccG6FMOL.s 			page 28


 860              		.cfi_startproc
 861              		@ args = 0, pretend = 0, frame = 128
 862              		@ frame_needed = 0, uses_anonymous_args = 0
 863              	.LVL110:
 864 0000 F0B5     		push	{r4, r5, r6, r7, lr}
 865              		.cfi_def_cfa_offset 20
 866              		.cfi_offset 4, -20
 867              		.cfi_offset 5, -16
 868              		.cfi_offset 6, -12
 869              		.cfi_offset 7, -8
 870              		.cfi_offset 14, -4
 871 0002 4746     		mov	r7, r8
 872 0004 80B4     		push	{r7}
 873              		.cfi_def_cfa_offset 24
 874              		.cfi_offset 8, -24
 875 0006 A0B0     		sub	sp, sp, #128
 876              		.cfi_def_cfa_offset 152
 877 0008 0600     		movs	r6, r0
 878 000a 0F00     		movs	r7, r1
 879              	.LVL111:
 379:Source\mbedtls_open\library/pkparse.c **** 
 880              		.loc 1 379 0
 881 000c 01A8     		add	r0, sp, #4
 882              	.LVL112:
 883 000e FFF7FEFF 		bl	mbedtls_ecp_group_init
 884              	.LVL113:
 381:Source\mbedtls_open\library/pkparse.c ****     {
 885              		.loc 1 381 0
 886 0012 FFF7FEFF 		bl	mbedtls_ecp_grp_id_list
 887              	.LVL114:
 888 0016 0400     		movs	r4, r0
 889              	.LVL115:
 375:Source\mbedtls_open\library/pkparse.c ****     mbedtls_ecp_group ref;
 890              		.loc 1 375 0
 891 0018 0025     		movs	r5, #0
 381:Source\mbedtls_open\library/pkparse.c ****     {
 892              		.loc 1 381 0
 893 001a 46E0     		b	.L60
 894              	.LVL116:
 895              	.L63:
 384:Source\mbedtls_open\library/pkparse.c ****         MBEDTLS_MPI_CHK( mbedtls_ecp_group_load( &ref, *id ) );
 896              		.loc 1 384 0
 897 001c 01A8     		add	r0, sp, #4
 898 001e FFF7FEFF 		bl	mbedtls_ecp_group_free
 899              	.LVL117:
 385:Source\mbedtls_open\library/pkparse.c **** 
 900              		.loc 1 385 0
 901 0022 2178     		ldrb	r1, [r4]
 902 0024 01A8     		add	r0, sp, #4
 903 0026 FFF7FEFF 		bl	mbedtls_ecp_group_load
 904              	.LVL118:
 905 002a 051E     		subs	r5, r0, #0
 906              	.LVL119:
 907 002c 40D1     		bne	.L61
 388:Source\mbedtls_open\library/pkparse.c ****             mbedtls_mpi_cmp_mpi( &grp->P, &ref.P ) == 0 &&
 908              		.loc 1 388 0
 909 002e B36D     		ldr	r3, [r6, #88]
ARM GAS  C:\Users\Phuong\AppData\Local\Temp\ccG6FMOL.s 			page 29


 910 0030 179A     		ldr	r2, [sp, #92]
 911 0032 9342     		cmp	r3, r2
 912 0034 38D1     		bne	.L62
 388:Source\mbedtls_open\library/pkparse.c ****             mbedtls_mpi_cmp_mpi( &grp->P, &ref.P ) == 0 &&
 913              		.loc 1 388 0 is_stmt 0 discriminator 1
 914 0036 F36D     		ldr	r3, [r6, #92]
 915 0038 189A     		ldr	r2, [sp, #96]
 916 003a 9342     		cmp	r3, r2
 917 003c 34D1     		bne	.L62
 389:Source\mbedtls_open\library/pkparse.c ****             mbedtls_mpi_cmp_mpi( &grp->A, &ref.A ) == 0 &&
 918              		.loc 1 389 0 is_stmt 1 discriminator 2
 919 003e 301D     		adds	r0, r6, #4
 920              	.LVL120:
 921 0040 02A9     		add	r1, sp, #8
 922 0042 FFF7FEFF 		bl	mbedtls_mpi_cmp_mpi
 923              	.LVL121:
 388:Source\mbedtls_open\library/pkparse.c ****             mbedtls_mpi_cmp_mpi( &grp->P, &ref.P ) == 0 &&
 924              		.loc 1 388 0 discriminator 2
 925 0046 0028     		cmp	r0, #0
 926 0048 2ED1     		bne	.L62
 390:Source\mbedtls_open\library/pkparse.c ****             mbedtls_mpi_cmp_mpi( &grp->B, &ref.B ) == 0 &&
 927              		.loc 1 390 0
 928 004a 3000     		movs	r0, r6
 929 004c 1030     		adds	r0, r0, #16
 930 004e 05A9     		add	r1, sp, #20
 931 0050 FFF7FEFF 		bl	mbedtls_mpi_cmp_mpi
 932              	.LVL122:
 389:Source\mbedtls_open\library/pkparse.c ****             mbedtls_mpi_cmp_mpi( &grp->A, &ref.A ) == 0 &&
 933              		.loc 1 389 0
 934 0054 0028     		cmp	r0, #0
 935 0056 27D1     		bne	.L62
 391:Source\mbedtls_open\library/pkparse.c ****             mbedtls_mpi_cmp_mpi( &grp->N, &ref.N ) == 0 &&
 936              		.loc 1 391 0
 937 0058 3000     		movs	r0, r6
 938 005a 1C30     		adds	r0, r0, #28
 939 005c 08A9     		add	r1, sp, #32
 940 005e FFF7FEFF 		bl	mbedtls_mpi_cmp_mpi
 941              	.LVL123:
 390:Source\mbedtls_open\library/pkparse.c ****             mbedtls_mpi_cmp_mpi( &grp->B, &ref.B ) == 0 &&
 942              		.loc 1 390 0
 943 0062 0028     		cmp	r0, #0
 944 0064 20D1     		bne	.L62
 392:Source\mbedtls_open\library/pkparse.c ****             mbedtls_mpi_cmp_mpi( &grp->G.X, &ref.G.X ) == 0 &&
 945              		.loc 1 392 0
 946 0066 3000     		movs	r0, r6
 947 0068 4C30     		adds	r0, r0, #76
 948 006a 14A9     		add	r1, sp, #80
 949 006c FFF7FEFF 		bl	mbedtls_mpi_cmp_mpi
 950              	.LVL124:
 391:Source\mbedtls_open\library/pkparse.c ****             mbedtls_mpi_cmp_mpi( &grp->N, &ref.N ) == 0 &&
 951              		.loc 1 391 0
 952 0070 0028     		cmp	r0, #0
 953 0072 19D1     		bne	.L62
 393:Source\mbedtls_open\library/pkparse.c ****             mbedtls_mpi_cmp_mpi( &grp->G.Z, &ref.G.Z ) == 0 &&
 954              		.loc 1 393 0
 955 0074 3000     		movs	r0, r6
 956 0076 2830     		adds	r0, r0, #40
ARM GAS  C:\Users\Phuong\AppData\Local\Temp\ccG6FMOL.s 			page 30


 957 0078 0BA9     		add	r1, sp, #44
 958 007a FFF7FEFF 		bl	mbedtls_mpi_cmp_mpi
 959              	.LVL125:
 392:Source\mbedtls_open\library/pkparse.c ****             mbedtls_mpi_cmp_mpi( &grp->G.X, &ref.G.X ) == 0 &&
 960              		.loc 1 392 0
 961 007e 0028     		cmp	r0, #0
 962 0080 12D1     		bne	.L62
 394:Source\mbedtls_open\library/pkparse.c ****             /* For Y we may only know the parity bit, so compare only that */
 963              		.loc 1 394 0
 964 0082 3000     		movs	r0, r6
 965 0084 4030     		adds	r0, r0, #64
 966 0086 11A9     		add	r1, sp, #68
 967 0088 FFF7FEFF 		bl	mbedtls_mpi_cmp_mpi
 968              	.LVL126:
 393:Source\mbedtls_open\library/pkparse.c ****             mbedtls_mpi_cmp_mpi( &grp->G.Z, &ref.G.Z ) == 0 &&
 969              		.loc 1 393 0
 970 008c 0028     		cmp	r0, #0
 971 008e 0BD1     		bne	.L62
 396:Source\mbedtls_open\library/pkparse.c ****         {
 972              		.loc 1 396 0
 973 0090 3000     		movs	r0, r6
 974 0092 3430     		adds	r0, r0, #52
 975 0094 0021     		movs	r1, #0
 976 0096 FFF7FEFF 		bl	mbedtls_mpi_get_bit
 977              	.LVL127:
 978 009a 8046     		mov	r8, r0
 979 009c 0021     		movs	r1, #0
 980 009e 0EA8     		add	r0, sp, #56
 981 00a0 FFF7FEFF 		bl	mbedtls_mpi_get_bit
 982              	.LVL128:
 394:Source\mbedtls_open\library/pkparse.c ****             /* For Y we may only know the parity bit, so compare only that */
 983              		.loc 1 394 0
 984 00a4 8045     		cmp	r8, r0
 985 00a6 03D0     		beq	.L61
 986              	.L62:
 381:Source\mbedtls_open\library/pkparse.c ****     {
 987              		.loc 1 381 0 discriminator 2
 988 00a8 0134     		adds	r4, r4, #1
 989              	.LVL129:
 990              	.L60:
 381:Source\mbedtls_open\library/pkparse.c ****     {
 991              		.loc 1 381 0 is_stmt 0 discriminator 1
 992 00aa 2378     		ldrb	r3, [r4]
 993 00ac 002B     		cmp	r3, #0
 994 00ae B5D1     		bne	.L63
 995              	.L61:
 404:Source\mbedtls_open\library/pkparse.c **** 
 996              		.loc 1 404 0 is_stmt 1
 997 00b0 01A8     		add	r0, sp, #4
 998 00b2 FFF7FEFF 		bl	mbedtls_ecp_group_free
 999              	.LVL130:
 406:Source\mbedtls_open\library/pkparse.c **** 
 1000              		.loc 1 406 0
 1001 00b6 2378     		ldrb	r3, [r4]
 1002 00b8 3B70     		strb	r3, [r7]
 408:Source\mbedtls_open\library/pkparse.c ****         ret = MBEDTLS_ERR_ECP_FEATURE_UNAVAILABLE;
 1003              		.loc 1 408 0
ARM GAS  C:\Users\Phuong\AppData\Local\Temp\ccG6FMOL.s 			page 31


 1004 00ba 002D     		cmp	r5, #0
 1005 00bc 03D1     		bne	.L64
 408:Source\mbedtls_open\library/pkparse.c ****         ret = MBEDTLS_ERR_ECP_FEATURE_UNAVAILABLE;
 1006              		.loc 1 408 0 is_stmt 0 discriminator 1
 1007 00be 2378     		ldrb	r3, [r4]
 1008 00c0 002B     		cmp	r3, #0
 1009 00c2 00D1     		bne	.L64
 409:Source\mbedtls_open\library/pkparse.c **** 
 1010              		.loc 1 409 0 is_stmt 1
 1011 00c4 024D     		ldr	r5, .L66
 1012              	.LVL131:
 1013              	.L64:
 412:Source\mbedtls_open\library/pkparse.c **** 
 1014              		.loc 1 412 0
 1015 00c6 2800     		movs	r0, r5
 1016 00c8 20B0     		add	sp, sp, #128
 1017              		@ sp needed
 1018              	.LVL132:
 1019              	.LVL133:
 1020              	.LVL134:
 1021              	.LVL135:
 1022 00ca 04BC     		pop	{r2}
 1023 00cc 9046     		mov	r8, r2
 1024 00ce F0BD     		pop	{r4, r5, r6, r7, pc}
 1025              	.L67:
 1026              		.align	2
 1027              	.L66:
 1028 00d0 80B1FFFF 		.word	-20096
 1029              		.cfi_endproc
 1030              	.LFE13:
 1031              		.size	pk_group_id_from_group, .-pk_group_id_from_group
 1032              		.section	.text.pk_group_id_from_specified,"ax",%progbits
 1033              		.align	2
 1034              		.code	16
 1035              		.thumb_func
 1036              		.type	pk_group_id_from_specified, %function
 1037              	pk_group_id_from_specified:
 1038              	.LFB14:
 419:Source\mbedtls_open\library/pkparse.c ****     int ret;
 1039              		.loc 1 419 0
 1040              		.cfi_startproc
 1041              		@ args = 0, pretend = 0, frame = 128
 1042              		@ frame_needed = 0, uses_anonymous_args = 0
 1043              	.LVL136:
 1044 0000 30B5     		push	{r4, r5, lr}
 1045              		.cfi_def_cfa_offset 12
 1046              		.cfi_offset 4, -12
 1047              		.cfi_offset 5, -8
 1048              		.cfi_offset 14, -4
 1049 0002 A1B0     		sub	sp, sp, #132
 1050              		.cfi_def_cfa_offset 144
 1051 0004 0400     		movs	r4, r0
 1052 0006 0D00     		movs	r5, r1
 423:Source\mbedtls_open\library/pkparse.c **** 
 1053              		.loc 1 423 0
 1054 0008 01A8     		add	r0, sp, #4
 1055              	.LVL137:
ARM GAS  C:\Users\Phuong\AppData\Local\Temp\ccG6FMOL.s 			page 32


 1056 000a FFF7FEFF 		bl	mbedtls_ecp_group_init
 1057              	.LVL138:
 425:Source\mbedtls_open\library/pkparse.c ****         goto cleanup;
 1058              		.loc 1 425 0
 1059 000e 01A9     		add	r1, sp, #4
 1060 0010 2000     		movs	r0, r4
 1061 0012 FFF7FEFF 		bl	pk_group_from_specified
 1062              	.LVL139:
 1063 0016 041E     		subs	r4, r0, #0
 1064              	.LVL140:
 1065 0018 04D1     		bne	.L69
 428:Source\mbedtls_open\library/pkparse.c **** 
 1066              		.loc 1 428 0
 1067 001a 2900     		movs	r1, r5
 1068 001c 01A8     		add	r0, sp, #4
 1069              	.LVL141:
 1070 001e FFF7FEFF 		bl	pk_group_id_from_group
 1071              	.LVL142:
 1072 0022 0400     		movs	r4, r0
 1073              	.LVL143:
 1074              	.L69:
 431:Source\mbedtls_open\library/pkparse.c **** 
 1075              		.loc 1 431 0
 1076 0024 01A8     		add	r0, sp, #4
 1077              	.LVL144:
 1078 0026 FFF7FEFF 		bl	mbedtls_ecp_group_free
 1079              	.LVL145:
 434:Source\mbedtls_open\library/pkparse.c **** #endif /* MBEDTLS_PK_PARSE_EC_EXTENDED */
 1080              		.loc 1 434 0
 1081 002a 2000     		movs	r0, r4
 1082 002c 21B0     		add	sp, sp, #132
 1083              		@ sp needed
 1084              	.LVL146:
 1085              	.LVL147:
 1086 002e 30BD     		pop	{r4, r5, pc}
 1087              		.cfi_endproc
 1088              	.LFE14:
 1089              		.size	pk_group_id_from_specified, .-pk_group_id_from_specified
 1090              		.section	.text.pk_use_ecparams,"ax",%progbits
 1091              		.align	2
 1092              		.code	16
 1093              		.thumb_func
 1094              		.type	pk_use_ecparams, %function
 1095              	pk_use_ecparams:
 1096              	.LFB15:
 446:Source\mbedtls_open\library/pkparse.c ****     int ret;
 1097              		.loc 1 446 0
 1098              		.cfi_startproc
 1099              		@ args = 0, pretend = 0, frame = 8
 1100              		@ frame_needed = 0, uses_anonymous_args = 0
 1101              	.LVL148:
 1102 0000 10B5     		push	{r4, lr}
 1103              		.cfi_def_cfa_offset 8
 1104              		.cfi_offset 4, -8
 1105              		.cfi_offset 14, -4
 1106 0002 82B0     		sub	sp, sp, #8
 1107              		.cfi_def_cfa_offset 16
ARM GAS  C:\Users\Phuong\AppData\Local\Temp\ccG6FMOL.s 			page 33


 1108 0004 0C00     		movs	r4, r1
 450:Source\mbedtls_open\library/pkparse.c ****     {
 1109              		.loc 1 450 0
 1110 0006 0368     		ldr	r3, [r0]
 1111 0008 062B     		cmp	r3, #6
 1112 000a 06D1     		bne	.L71
 452:Source\mbedtls_open\library/pkparse.c ****             return( MBEDTLS_ERR_PK_UNKNOWN_NAMED_CURVE );
 1113              		.loc 1 452 0
 1114 000c 6B46     		mov	r3, sp
 1115 000e D91D     		adds	r1, r3, #7
 1116              	.LVL149:
 1117 0010 FFF7FEFF 		bl	mbedtls_oid_get_ec_grp
 1118              	.LVL150:
 1119 0014 0028     		cmp	r0, #0
 1120 0016 06D0     		beq	.L73
 1121 0018 13E0     		b	.L75
 1122              	.LVL151:
 1123              	.L71:
 458:Source\mbedtls_open\library/pkparse.c ****             return( ret );
 1124              		.loc 1 458 0
 1125 001a 6B46     		mov	r3, sp
 1126 001c D91D     		adds	r1, r3, #7
 1127              	.LVL152:
 1128 001e FFF7FEFF 		bl	pk_group_id_from_specified
 1129              	.LVL153:
 1130 0022 0028     		cmp	r0, #0
 1131 0024 10D1     		bne	.L72
 1132              	.LVL154:
 1133              	.L73:
 468:Source\mbedtls_open\library/pkparse.c ****         return( MBEDTLS_ERR_PK_KEY_INVALID_FORMAT );
 1134              		.loc 1 468 0
 1135 0026 2378     		ldrb	r3, [r4]
 1136 0028 002B     		cmp	r3, #0
 1137 002a 04D0     		beq	.L74
 468:Source\mbedtls_open\library/pkparse.c ****         return( MBEDTLS_ERR_PK_KEY_INVALID_FORMAT );
 1138              		.loc 1 468 0 is_stmt 0 discriminator 1
 1139 002c 6A46     		mov	r2, sp
 1140 002e 0732     		adds	r2, r2, #7
 1141 0030 1278     		ldrb	r2, [r2]
 1142 0032 9342     		cmp	r3, r2
 1143 0034 07D1     		bne	.L77
 1144              	.L74:
 471:Source\mbedtls_open\library/pkparse.c ****         return( ret );
 1145              		.loc 1 471 0 is_stmt 1
 1146 0036 6B46     		mov	r3, sp
 1147 0038 D979     		ldrb	r1, [r3, #7]
 1148 003a 2000     		movs	r0, r4
 1149 003c FFF7FEFF 		bl	mbedtls_ecp_group_load
 1150              	.LVL155:
 1151 0040 02E0     		b	.L72
 1152              	.LVL156:
 1153              	.L75:
 453:Source\mbedtls_open\library/pkparse.c ****     }
 1154              		.loc 1 453 0
 1155 0042 0248     		ldr	r0, .L79
 1156 0044 00E0     		b	.L72
 1157              	.L77:
ARM GAS  C:\Users\Phuong\AppData\Local\Temp\ccG6FMOL.s 			page 34


 469:Source\mbedtls_open\library/pkparse.c **** 
 1158              		.loc 1 469 0
 1159 0046 0248     		ldr	r0, .L79+4
 1160              	.L72:
 475:Source\mbedtls_open\library/pkparse.c **** 
 1161              		.loc 1 475 0
 1162 0048 02B0     		add	sp, sp, #8
 1163              		@ sp needed
 1164              	.LVL157:
 1165 004a 10BD     		pop	{r4, pc}
 1166              	.L80:
 1167              		.align	2
 1168              	.L79:
 1169 004c 00C6FFFF 		.word	-14848
 1170 0050 00C3FFFF 		.word	-15616
 1171              		.cfi_endproc
 1172              	.LFE15:
 1173              		.size	pk_use_ecparams, .-pk_use_ecparams
 1174              		.section	.text.pk_get_ecpubkey,"ax",%progbits
 1175              		.align	2
 1176              		.code	16
 1177              		.thumb_func
 1178              		.type	pk_get_ecpubkey, %function
 1179              	pk_get_ecpubkey:
 1180              	.LFB16:
 486:Source\mbedtls_open\library/pkparse.c ****     int ret;
 1181              		.loc 1 486 0
 1182              		.cfi_startproc
 1183              		@ args = 0, pretend = 0, frame = 0
 1184              		@ frame_needed = 0, uses_anonymous_args = 0
 1185              	.LVL158:
 1186 0000 F8B5     		push	{r3, r4, r5, r6, r7, lr}
 1187              		.cfi_def_cfa_offset 24
 1188              		.cfi_offset 3, -24
 1189              		.cfi_offset 4, -20
 1190              		.cfi_offset 5, -16
 1191              		.cfi_offset 6, -12
 1192              		.cfi_offset 7, -8
 1193              		.cfi_offset 14, -4
 1194 0002 0500     		movs	r5, r0
 1195 0004 0F00     		movs	r7, r1
 1196 0006 1400     		movs	r4, r2
 489:Source\mbedtls_open\library/pkparse.c ****                     (const unsigned char *) *p, end - *p ) ) == 0 )
 1197              		.loc 1 489 0
 1198 0008 1600     		movs	r6, r2
 1199 000a 8836     		adds	r6, r6, #136
 490:Source\mbedtls_open\library/pkparse.c ****     {
 1200              		.loc 1 490 0
 1201 000c 0368     		ldr	r3, [r0]
 1202 000e CB1A     		subs	r3, r1, r3
 489:Source\mbedtls_open\library/pkparse.c ****                     (const unsigned char *) *p, end - *p ) ) == 0 )
 1203              		.loc 1 489 0
 1204 0010 0268     		ldr	r2, [r0]
 1205              	.LVL159:
 1206 0012 3100     		movs	r1, r6
 1207              	.LVL160:
 1208 0014 2000     		movs	r0, r4
ARM GAS  C:\Users\Phuong\AppData\Local\Temp\ccG6FMOL.s 			page 35


 1209              	.LVL161:
 1210 0016 FFF7FEFF 		bl	mbedtls_ecp_point_read_binary
 1211              	.LVL162:
 1212 001a 0028     		cmp	r0, #0
 1213 001c 03D1     		bne	.L82
 492:Source\mbedtls_open\library/pkparse.c ****     }
 1214              		.loc 1 492 0
 1215 001e 3100     		movs	r1, r6
 1216 0020 2000     		movs	r0, r4
 1217              	.LVL163:
 1218 0022 FFF7FEFF 		bl	mbedtls_ecp_check_pubkey
 1219              	.LVL164:
 1220              	.L82:
 498:Source\mbedtls_open\library/pkparse.c **** 
 1221              		.loc 1 498 0
 1222 0026 2F60     		str	r7, [r5]
 501:Source\mbedtls_open\library/pkparse.c **** #endif /* MBEDTLS_ECP_C */
 1223              		.loc 1 501 0
 1224              		@ sp needed
 1225              	.LVL165:
 1226              	.LVL166:
 1227              	.LVL167:
 1228              	.LVL168:
 1229 0028 F8BD     		pop	{r3, r4, r5, r6, r7, pc}
 1230              		.cfi_endproc
 1231              	.LFE16:
 1232              		.size	pk_get_ecpubkey, .-pk_get_ecpubkey
 1233 002a C046     		.section	.text.pk_parse_key_pkcs1_der,"ax",%progbits
 1234              		.align	2
 1235              		.code	16
 1236              		.thumb_func
 1237              		.type	pk_parse_key_pkcs1_der, %function
 1238              	pk_parse_key_pkcs1_der:
 1239              	.LFB20:
 593:Source\mbedtls_open\library/pkparse.c **** 
 594:Source\mbedtls_open\library/pkparse.c **** /*
 595:Source\mbedtls_open\library/pkparse.c ****  *  SubjectPublicKeyInfo  ::=  SEQUENCE  {
 596:Source\mbedtls_open\library/pkparse.c ****  *       algorithm            AlgorithmIdentifier,
 597:Source\mbedtls_open\library/pkparse.c ****  *       subjectPublicKey     BIT STRING }
 598:Source\mbedtls_open\library/pkparse.c ****  */
 599:Source\mbedtls_open\library/pkparse.c **** int mbedtls_pk_parse_subpubkey( unsigned char **p, const unsigned char *end,
 600:Source\mbedtls_open\library/pkparse.c ****                         mbedtls_pk_context *pk )
 601:Source\mbedtls_open\library/pkparse.c **** {
 602:Source\mbedtls_open\library/pkparse.c ****     int ret;
 603:Source\mbedtls_open\library/pkparse.c ****     size_t len;
 604:Source\mbedtls_open\library/pkparse.c ****     mbedtls_asn1_buf alg_params;
 605:Source\mbedtls_open\library/pkparse.c ****     mbedtls_pk_type_t pk_alg = MBEDTLS_PK_NONE;
 606:Source\mbedtls_open\library/pkparse.c ****     const mbedtls_pk_info_t *pk_info;
 607:Source\mbedtls_open\library/pkparse.c **** 
 608:Source\mbedtls_open\library/pkparse.c ****     if( ( ret = mbedtls_asn1_get_tag( p, end, &len,
 609:Source\mbedtls_open\library/pkparse.c ****                     MBEDTLS_ASN1_CONSTRUCTED | MBEDTLS_ASN1_SEQUENCE ) ) != 0 )
 610:Source\mbedtls_open\library/pkparse.c ****     {
 611:Source\mbedtls_open\library/pkparse.c ****         return( MBEDTLS_ERR_PK_KEY_INVALID_FORMAT + ret );
 612:Source\mbedtls_open\library/pkparse.c ****     }
 613:Source\mbedtls_open\library/pkparse.c **** 
 614:Source\mbedtls_open\library/pkparse.c ****     end = *p + len;
 615:Source\mbedtls_open\library/pkparse.c **** 
ARM GAS  C:\Users\Phuong\AppData\Local\Temp\ccG6FMOL.s 			page 36


 616:Source\mbedtls_open\library/pkparse.c ****     if( ( ret = pk_get_pk_alg( p, end, &pk_alg, &alg_params ) ) != 0 )
 617:Source\mbedtls_open\library/pkparse.c ****         return( ret );
 618:Source\mbedtls_open\library/pkparse.c **** 
 619:Source\mbedtls_open\library/pkparse.c ****     if( ( ret = mbedtls_asn1_get_bitstring_null( p, end, &len ) ) != 0 )
 620:Source\mbedtls_open\library/pkparse.c ****         return( MBEDTLS_ERR_PK_INVALID_PUBKEY + ret );
 621:Source\mbedtls_open\library/pkparse.c **** 
 622:Source\mbedtls_open\library/pkparse.c ****     if( *p + len != end )
 623:Source\mbedtls_open\library/pkparse.c ****         return( MBEDTLS_ERR_PK_INVALID_PUBKEY +
 624:Source\mbedtls_open\library/pkparse.c ****                 MBEDTLS_ERR_ASN1_LENGTH_MISMATCH );
 625:Source\mbedtls_open\library/pkparse.c **** 
 626:Source\mbedtls_open\library/pkparse.c ****     if( ( pk_info = mbedtls_pk_info_from_type( pk_alg ) ) == NULL )
 627:Source\mbedtls_open\library/pkparse.c ****         return( MBEDTLS_ERR_PK_UNKNOWN_PK_ALG );
 628:Source\mbedtls_open\library/pkparse.c **** 
 629:Source\mbedtls_open\library/pkparse.c ****     if( ( ret = mbedtls_pk_setup( pk, pk_info ) ) != 0 )
 630:Source\mbedtls_open\library/pkparse.c ****         return( ret );
 631:Source\mbedtls_open\library/pkparse.c **** 
 632:Source\mbedtls_open\library/pkparse.c **** #if defined(MBEDTLS_RSA_C)
 633:Source\mbedtls_open\library/pkparse.c ****     if( pk_alg == MBEDTLS_PK_RSA )
 634:Source\mbedtls_open\library/pkparse.c ****     {
 635:Source\mbedtls_open\library/pkparse.c ****         ret = pk_get_rsapubkey( p, end, mbedtls_pk_rsa( *pk ) );
 636:Source\mbedtls_open\library/pkparse.c ****     } else
 637:Source\mbedtls_open\library/pkparse.c **** #endif /* MBEDTLS_RSA_C */
 638:Source\mbedtls_open\library/pkparse.c **** #if defined(MBEDTLS_ECP_C)
 639:Source\mbedtls_open\library/pkparse.c ****     if( pk_alg == MBEDTLS_PK_ECKEY_DH || pk_alg == MBEDTLS_PK_ECKEY )
 640:Source\mbedtls_open\library/pkparse.c ****     {
 641:Source\mbedtls_open\library/pkparse.c ****         ret = pk_use_ecparams( &alg_params, &mbedtls_pk_ec( *pk )->grp );
 642:Source\mbedtls_open\library/pkparse.c ****         if( ret == 0 )
 643:Source\mbedtls_open\library/pkparse.c ****             ret = pk_get_ecpubkey( p, end, mbedtls_pk_ec( *pk ) );
 644:Source\mbedtls_open\library/pkparse.c ****     } else
 645:Source\mbedtls_open\library/pkparse.c **** #endif /* MBEDTLS_ECP_C */
 646:Source\mbedtls_open\library/pkparse.c ****         ret = MBEDTLS_ERR_PK_UNKNOWN_PK_ALG;
 647:Source\mbedtls_open\library/pkparse.c **** 
 648:Source\mbedtls_open\library/pkparse.c ****     if( ret == 0 && *p != end )
 649:Source\mbedtls_open\library/pkparse.c ****         ret = MBEDTLS_ERR_PK_INVALID_PUBKEY
 650:Source\mbedtls_open\library/pkparse.c ****               MBEDTLS_ERR_ASN1_LENGTH_MISMATCH;
 651:Source\mbedtls_open\library/pkparse.c **** 
 652:Source\mbedtls_open\library/pkparse.c ****     if( ret != 0 )
 653:Source\mbedtls_open\library/pkparse.c ****         mbedtls_pk_free( pk );
 654:Source\mbedtls_open\library/pkparse.c **** 
 655:Source\mbedtls_open\library/pkparse.c ****     return( ret );
 656:Source\mbedtls_open\library/pkparse.c **** }
 657:Source\mbedtls_open\library/pkparse.c **** 
 658:Source\mbedtls_open\library/pkparse.c **** #if defined(MBEDTLS_RSA_C)
 659:Source\mbedtls_open\library/pkparse.c **** /*
 660:Source\mbedtls_open\library/pkparse.c ****  * Parse a PKCS#1 encoded private RSA key
 661:Source\mbedtls_open\library/pkparse.c ****  */
 662:Source\mbedtls_open\library/pkparse.c **** static int pk_parse_key_pkcs1_der( mbedtls_rsa_context *rsa,
 663:Source\mbedtls_open\library/pkparse.c ****                                    const unsigned char *key,
 664:Source\mbedtls_open\library/pkparse.c ****                                    size_t keylen )
 665:Source\mbedtls_open\library/pkparse.c **** {
 1240              		.loc 1 665 0
 1241              		.cfi_startproc
 1242              		@ args = 0, pretend = 0, frame = 24
 1243              		@ frame_needed = 0, uses_anonymous_args = 0
 1244              	.LVL169:
 1245 0000 70B5     		push	{r4, r5, r6, lr}
 1246              		.cfi_def_cfa_offset 16
ARM GAS  C:\Users\Phuong\AppData\Local\Temp\ccG6FMOL.s 			page 37


 1247              		.cfi_offset 4, -16
 1248              		.cfi_offset 5, -12
 1249              		.cfi_offset 6, -8
 1250              		.cfi_offset 14, -4
 1251 0002 8EB0     		sub	sp, sp, #56
 1252              		.cfi_def_cfa_offset 72
 1253 0004 0500     		movs	r5, r0
 1254 0006 0E00     		movs	r6, r1
 1255 0008 1400     		movs	r4, r2
 666:Source\mbedtls_open\library/pkparse.c ****     int ret, version;
 667:Source\mbedtls_open\library/pkparse.c ****     size_t len;
 668:Source\mbedtls_open\library/pkparse.c ****     unsigned char *p, *end;
 669:Source\mbedtls_open\library/pkparse.c **** 
 670:Source\mbedtls_open\library/pkparse.c ****     mbedtls_mpi T;
 671:Source\mbedtls_open\library/pkparse.c ****     mbedtls_mpi_init( &T );
 1256              		.loc 1 671 0
 1257 000a 08A8     		add	r0, sp, #32
 1258              	.LVL170:
 1259 000c FFF7FEFF 		bl	mbedtls_mpi_init
 1260              	.LVL171:
 672:Source\mbedtls_open\library/pkparse.c **** 
 673:Source\mbedtls_open\library/pkparse.c ****     p = (unsigned char *) key;
 1261              		.loc 1 673 0
 1262 0010 0B96     		str	r6, [sp, #44]
 674:Source\mbedtls_open\library/pkparse.c ****     end = p + keylen;
 1263              		.loc 1 674 0
 1264 0012 3119     		adds	r1, r6, r4
 1265              	.LVL172:
 675:Source\mbedtls_open\library/pkparse.c **** 
 676:Source\mbedtls_open\library/pkparse.c ****     /*
 677:Source\mbedtls_open\library/pkparse.c ****      * This function parses the RSAPrivateKey (PKCS#1)
 678:Source\mbedtls_open\library/pkparse.c ****      *
 679:Source\mbedtls_open\library/pkparse.c ****      *  RSAPrivateKey ::= SEQUENCE {
 680:Source\mbedtls_open\library/pkparse.c ****      *      version           Version,
 681:Source\mbedtls_open\library/pkparse.c ****      *      modulus           INTEGER,  -- n
 682:Source\mbedtls_open\library/pkparse.c ****      *      publicExponent    INTEGER,  -- e
 683:Source\mbedtls_open\library/pkparse.c ****      *      privateExponent   INTEGER,  -- d
 684:Source\mbedtls_open\library/pkparse.c ****      *      prime1            INTEGER,  -- p
 685:Source\mbedtls_open\library/pkparse.c ****      *      prime2            INTEGER,  -- q
 686:Source\mbedtls_open\library/pkparse.c ****      *      exponent1         INTEGER,  -- d mod (p-1)
 687:Source\mbedtls_open\library/pkparse.c ****      *      exponent2         INTEGER,  -- d mod (q-1)
 688:Source\mbedtls_open\library/pkparse.c ****      *      coefficient       INTEGER,  -- (inverse of q) mod p
 689:Source\mbedtls_open\library/pkparse.c ****      *      otherPrimeInfos   OtherPrimeInfos OPTIONAL
 690:Source\mbedtls_open\library/pkparse.c ****      *  }
 691:Source\mbedtls_open\library/pkparse.c ****      */
 692:Source\mbedtls_open\library/pkparse.c ****     if( ( ret = mbedtls_asn1_get_tag( &p, end, &len,
 1266              		.loc 1 692 0
 1267 0014 3023     		movs	r3, #48
 1268 0016 0CAA     		add	r2, sp, #48
 1269 0018 0BA8     		add	r0, sp, #44
 1270 001a FFF7FEFF 		bl	mbedtls_asn1_get_tag
 1271              	.LVL173:
 1272 001e 0028     		cmp	r0, #0
 1273 0020 03D0     		beq	.L84
 693:Source\mbedtls_open\library/pkparse.c ****             MBEDTLS_ASN1_CONSTRUCTED | MBEDTLS_ASN1_SEQUENCE ) ) != 0 )
 694:Source\mbedtls_open\library/pkparse.c ****     {
 695:Source\mbedtls_open\library/pkparse.c ****         return( MBEDTLS_ERR_PK_KEY_INVALID_FORMAT + ret );
ARM GAS  C:\Users\Phuong\AppData\Local\Temp\ccG6FMOL.s 			page 38


 1274              		.loc 1 695 0
 1275 0022 724B     		ldr	r3, .L93
 1276 0024 9C46     		mov	ip, r3
 1277 0026 6044     		add	r0, r0, ip
 1278              	.LVL174:
 1279 0028 DDE0     		b	.L85
 1280              	.LVL175:
 1281              	.L84:
 696:Source\mbedtls_open\library/pkparse.c ****     }
 697:Source\mbedtls_open\library/pkparse.c **** 
 698:Source\mbedtls_open\library/pkparse.c ****     end = p + len;
 1282              		.loc 1 698 0
 1283 002a 0B9B     		ldr	r3, [sp, #44]
 1284 002c 0C9A     		ldr	r2, [sp, #48]
 1285 002e 9446     		mov	ip, r2
 1286 0030 6344     		add	r3, r3, ip
 1287 0032 1E00     		movs	r6, r3
 1288              	.LVL176:
 699:Source\mbedtls_open\library/pkparse.c **** 
 700:Source\mbedtls_open\library/pkparse.c ****     if( ( ret = mbedtls_asn1_get_int( &p, end, &version ) ) != 0 )
 1289              		.loc 1 700 0
 1290 0034 0DAA     		add	r2, sp, #52
 1291 0036 1900     		movs	r1, r3
 1292 0038 0BA8     		add	r0, sp, #44
 1293              	.LVL177:
 1294 003a FFF7FEFF 		bl	mbedtls_asn1_get_int
 1295              	.LVL178:
 1296 003e 0028     		cmp	r0, #0
 1297 0040 03D0     		beq	.L86
 701:Source\mbedtls_open\library/pkparse.c ****     {
 702:Source\mbedtls_open\library/pkparse.c ****         return( MBEDTLS_ERR_PK_KEY_INVALID_FORMAT + ret );
 1298              		.loc 1 702 0
 1299 0042 6A4B     		ldr	r3, .L93
 1300 0044 9C46     		mov	ip, r3
 1301 0046 6044     		add	r0, r0, ip
 1302              	.LVL179:
 1303 0048 CDE0     		b	.L85
 1304              	.LVL180:
 1305              	.L86:
 703:Source\mbedtls_open\library/pkparse.c ****     }
 704:Source\mbedtls_open\library/pkparse.c **** 
 705:Source\mbedtls_open\library/pkparse.c ****     if( version != 0 )
 1306              		.loc 1 705 0
 1307 004a 0D9B     		ldr	r3, [sp, #52]
 1308 004c 002B     		cmp	r3, #0
 1309 004e 00D0     		beq	.LCB1371
 1310 0050 C6E0     		b	.L89	@long jump
 1311              	.LCB1371:
 706:Source\mbedtls_open\library/pkparse.c ****     {
 707:Source\mbedtls_open\library/pkparse.c ****         return( MBEDTLS_ERR_PK_KEY_INVALID_VERSION );
 708:Source\mbedtls_open\library/pkparse.c ****     }
 709:Source\mbedtls_open\library/pkparse.c **** 
 710:Source\mbedtls_open\library/pkparse.c ****     /* Import N */
 711:Source\mbedtls_open\library/pkparse.c ****     if( ( ret = mbedtls_asn1_get_tag( &p, end, &len,
 1312              		.loc 1 711 0
 1313 0052 0233     		adds	r3, r3, #2
 1314 0054 0CAA     		add	r2, sp, #48
ARM GAS  C:\Users\Phuong\AppData\Local\Temp\ccG6FMOL.s 			page 39


 1315 0056 3100     		movs	r1, r6
 1316 0058 0BA8     		add	r0, sp, #44
 1317              	.LVL181:
 1318 005a FFF7FEFF 		bl	mbedtls_asn1_get_tag
 1319              	.LVL182:
 1320 005e 041E     		subs	r4, r0, #0
 1321              	.LVL183:
 1322 0060 00D0     		beq	.LCB1383
 1323 0062 ABE0     		b	.L87	@long jump
 1324              	.LCB1383:
 712:Source\mbedtls_open\library/pkparse.c ****                                       MBEDTLS_ASN1_INTEGER ) ) != 0 ||
 1325              		.loc 1 712 0
 1326 0064 0023     		movs	r3, #0
 1327 0066 0693     		str	r3, [sp, #24]
 1328 0068 0593     		str	r3, [sp, #20]
 1329 006a 0493     		str	r3, [sp, #16]
 1330 006c 0393     		str	r3, [sp, #12]
 1331 006e 0293     		str	r3, [sp, #8]
 1332 0070 0193     		str	r3, [sp, #4]
 1333 0072 0093     		str	r3, [sp]
 1334 0074 0C9A     		ldr	r2, [sp, #48]
 1335 0076 0B99     		ldr	r1, [sp, #44]
 1336 0078 2800     		movs	r0, r5
 1337              	.LVL184:
 1338 007a FFF7FEFF 		bl	mbedtls_rsa_import_raw
 1339              	.LVL185:
 1340 007e 041E     		subs	r4, r0, #0
 1341              	.LVL186:
 1342 0080 00D0     		beq	.LCB1402
 1343 0082 9BE0     		b	.L87	@long jump
 1344              	.LCB1402:
 713:Source\mbedtls_open\library/pkparse.c ****         ( ret = mbedtls_rsa_import_raw( rsa, p, len, NULL, 0, NULL, 0,
 714:Source\mbedtls_open\library/pkparse.c ****                                         NULL, 0, NULL, 0 ) ) != 0 )
 715:Source\mbedtls_open\library/pkparse.c ****         goto cleanup;
 716:Source\mbedtls_open\library/pkparse.c ****     p += len;
 1345              		.loc 1 716 0
 1346 0084 0B9B     		ldr	r3, [sp, #44]
 1347 0086 0C9A     		ldr	r2, [sp, #48]
 1348 0088 9446     		mov	ip, r2
 1349 008a 6344     		add	r3, r3, ip
 1350 008c 0B93     		str	r3, [sp, #44]
 717:Source\mbedtls_open\library/pkparse.c **** 
 718:Source\mbedtls_open\library/pkparse.c ****     /* Import E */
 719:Source\mbedtls_open\library/pkparse.c ****     if( ( ret = mbedtls_asn1_get_tag( &p, end, &len,
 1351              		.loc 1 719 0
 1352 008e 0223     		movs	r3, #2
 1353 0090 0CAA     		add	r2, sp, #48
 1354 0092 3100     		movs	r1, r6
 1355 0094 0BA8     		add	r0, sp, #44
 1356              	.LVL187:
 1357 0096 FFF7FEFF 		bl	mbedtls_asn1_get_tag
 1358              	.LVL188:
 1359 009a 041E     		subs	r4, r0, #0
 1360              	.LVL189:
 1361 009c 00D0     		beq	.LCB1421
 1362 009e 8DE0     		b	.L87	@long jump
 1363              	.LCB1421:
ARM GAS  C:\Users\Phuong\AppData\Local\Temp\ccG6FMOL.s 			page 40


 720:Source\mbedtls_open\library/pkparse.c ****                                       MBEDTLS_ASN1_INTEGER ) ) != 0 ||
 1364              		.loc 1 720 0
 1365 00a0 0C9B     		ldr	r3, [sp, #48]
 1366 00a2 0693     		str	r3, [sp, #24]
 1367 00a4 0B9B     		ldr	r3, [sp, #44]
 1368 00a6 0593     		str	r3, [sp, #20]
 1369 00a8 0023     		movs	r3, #0
 1370 00aa 0493     		str	r3, [sp, #16]
 1371 00ac 0393     		str	r3, [sp, #12]
 1372 00ae 0293     		str	r3, [sp, #8]
 1373 00b0 0193     		str	r3, [sp, #4]
 1374 00b2 0093     		str	r3, [sp]
 1375 00b4 0022     		movs	r2, #0
 1376 00b6 0021     		movs	r1, #0
 1377 00b8 2800     		movs	r0, r5
 1378              	.LVL190:
 1379 00ba FFF7FEFF 		bl	mbedtls_rsa_import_raw
 1380              	.LVL191:
 1381 00be 041E     		subs	r4, r0, #0
 1382              	.LVL192:
 1383 00c0 00D0     		beq	.LCB1444
 1384 00c2 7BE0     		b	.L87	@long jump
 1385              	.LCB1444:
 721:Source\mbedtls_open\library/pkparse.c ****         ( ret = mbedtls_rsa_import_raw( rsa, NULL, 0, NULL, 0, NULL, 0,
 722:Source\mbedtls_open\library/pkparse.c ****                                         NULL, 0, p, len ) ) != 0 )
 723:Source\mbedtls_open\library/pkparse.c ****         goto cleanup;
 724:Source\mbedtls_open\library/pkparse.c ****     p += len;
 1386              		.loc 1 724 0
 1387 00c4 0B9B     		ldr	r3, [sp, #44]
 1388 00c6 0C9A     		ldr	r2, [sp, #48]
 1389 00c8 9446     		mov	ip, r2
 1390 00ca 6344     		add	r3, r3, ip
 1391 00cc 0B93     		str	r3, [sp, #44]
 725:Source\mbedtls_open\library/pkparse.c **** 
 726:Source\mbedtls_open\library/pkparse.c ****     /* Import D */
 727:Source\mbedtls_open\library/pkparse.c ****     if( ( ret = mbedtls_asn1_get_tag( &p, end, &len,
 1392              		.loc 1 727 0
 1393 00ce 0223     		movs	r3, #2
 1394 00d0 0CAA     		add	r2, sp, #48
 1395 00d2 3100     		movs	r1, r6
 1396 00d4 0BA8     		add	r0, sp, #44
 1397              	.LVL193:
 1398 00d6 FFF7FEFF 		bl	mbedtls_asn1_get_tag
 1399              	.LVL194:
 1400 00da 041E     		subs	r4, r0, #0
 1401              	.LVL195:
 1402 00dc 6ED1     		bne	.L87
 728:Source\mbedtls_open\library/pkparse.c ****                                       MBEDTLS_ASN1_INTEGER ) ) != 0 ||
 1403              		.loc 1 728 0
 1404 00de 0021     		movs	r1, #0
 1405 00e0 0691     		str	r1, [sp, #24]
 1406 00e2 0591     		str	r1, [sp, #20]
 1407 00e4 0C9B     		ldr	r3, [sp, #48]
 1408 00e6 0493     		str	r3, [sp, #16]
 1409 00e8 0B9B     		ldr	r3, [sp, #44]
 1410 00ea 0393     		str	r3, [sp, #12]
 1411 00ec 0291     		str	r1, [sp, #8]
ARM GAS  C:\Users\Phuong\AppData\Local\Temp\ccG6FMOL.s 			page 41


 1412 00ee 0191     		str	r1, [sp, #4]
 1413 00f0 0091     		str	r1, [sp]
 1414 00f2 0B00     		movs	r3, r1
 1415 00f4 0A00     		movs	r2, r1
 1416 00f6 2800     		movs	r0, r5
 1417              	.LVL196:
 1418 00f8 FFF7FEFF 		bl	mbedtls_rsa_import_raw
 1419              	.LVL197:
 1420 00fc 041E     		subs	r4, r0, #0
 1421              	.LVL198:
 1422 00fe 5DD1     		bne	.L87
 729:Source\mbedtls_open\library/pkparse.c ****         ( ret = mbedtls_rsa_import_raw( rsa, NULL, 0, NULL, 0, NULL, 0,
 730:Source\mbedtls_open\library/pkparse.c ****                                         p, len, NULL, 0 ) ) != 0 )
 731:Source\mbedtls_open\library/pkparse.c ****         goto cleanup;
 732:Source\mbedtls_open\library/pkparse.c ****     p += len;
 1423              		.loc 1 732 0
 1424 0100 0B9B     		ldr	r3, [sp, #44]
 1425 0102 0C9A     		ldr	r2, [sp, #48]
 1426 0104 9446     		mov	ip, r2
 1427 0106 6344     		add	r3, r3, ip
 1428 0108 0B93     		str	r3, [sp, #44]
 733:Source\mbedtls_open\library/pkparse.c **** 
 734:Source\mbedtls_open\library/pkparse.c ****     /* Import P */
 735:Source\mbedtls_open\library/pkparse.c ****     if( ( ret = mbedtls_asn1_get_tag( &p, end, &len,
 1429              		.loc 1 735 0
 1430 010a 0223     		movs	r3, #2
 1431 010c 0CAA     		add	r2, sp, #48
 1432 010e 3100     		movs	r1, r6
 1433 0110 0BA8     		add	r0, sp, #44
 1434              	.LVL199:
 1435 0112 FFF7FEFF 		bl	mbedtls_asn1_get_tag
 1436              	.LVL200:
 1437 0116 041E     		subs	r4, r0, #0
 1438              	.LVL201:
 1439 0118 50D1     		bne	.L87
 736:Source\mbedtls_open\library/pkparse.c ****                                       MBEDTLS_ASN1_INTEGER ) ) != 0 ||
 1440              		.loc 1 736 0
 1441 011a 0021     		movs	r1, #0
 1442 011c 0691     		str	r1, [sp, #24]
 1443 011e 0591     		str	r1, [sp, #20]
 1444 0120 0491     		str	r1, [sp, #16]
 1445 0122 0391     		str	r1, [sp, #12]
 1446 0124 0291     		str	r1, [sp, #8]
 1447 0126 0191     		str	r1, [sp, #4]
 1448 0128 0C9B     		ldr	r3, [sp, #48]
 1449 012a 0093     		str	r3, [sp]
 1450 012c 0B9B     		ldr	r3, [sp, #44]
 1451 012e 0A00     		movs	r2, r1
 1452 0130 2800     		movs	r0, r5
 1453              	.LVL202:
 1454 0132 FFF7FEFF 		bl	mbedtls_rsa_import_raw
 1455              	.LVL203:
 1456 0136 041E     		subs	r4, r0, #0
 1457              	.LVL204:
 1458 0138 40D1     		bne	.L87
 737:Source\mbedtls_open\library/pkparse.c ****         ( ret = mbedtls_rsa_import_raw( rsa, NULL, 0, p, len, NULL, 0,
 738:Source\mbedtls_open\library/pkparse.c ****                                         NULL, 0, NULL, 0 ) ) != 0 )
ARM GAS  C:\Users\Phuong\AppData\Local\Temp\ccG6FMOL.s 			page 42


 739:Source\mbedtls_open\library/pkparse.c ****         goto cleanup;
 740:Source\mbedtls_open\library/pkparse.c ****     p += len;
 1459              		.loc 1 740 0
 1460 013a 0B9B     		ldr	r3, [sp, #44]
 1461 013c 0C9A     		ldr	r2, [sp, #48]
 1462 013e 9446     		mov	ip, r2
 1463 0140 6344     		add	r3, r3, ip
 1464 0142 0B93     		str	r3, [sp, #44]
 741:Source\mbedtls_open\library/pkparse.c **** 
 742:Source\mbedtls_open\library/pkparse.c ****     /* Import Q */
 743:Source\mbedtls_open\library/pkparse.c ****     if( ( ret = mbedtls_asn1_get_tag( &p, end, &len,
 1465              		.loc 1 743 0
 1466 0144 0223     		movs	r3, #2
 1467 0146 0CAA     		add	r2, sp, #48
 1468 0148 3100     		movs	r1, r6
 1469 014a 0BA8     		add	r0, sp, #44
 1470              	.LVL205:
 1471 014c FFF7FEFF 		bl	mbedtls_asn1_get_tag
 1472              	.LVL206:
 1473 0150 041E     		subs	r4, r0, #0
 1474              	.LVL207:
 1475 0152 33D1     		bne	.L87
 744:Source\mbedtls_open\library/pkparse.c ****                                       MBEDTLS_ASN1_INTEGER ) ) != 0 ||
 1476              		.loc 1 744 0
 1477 0154 0021     		movs	r1, #0
 1478 0156 0691     		str	r1, [sp, #24]
 1479 0158 0591     		str	r1, [sp, #20]
 1480 015a 0491     		str	r1, [sp, #16]
 1481 015c 0391     		str	r1, [sp, #12]
 1482 015e 0C9B     		ldr	r3, [sp, #48]
 1483 0160 0293     		str	r3, [sp, #8]
 1484 0162 0B9B     		ldr	r3, [sp, #44]
 1485 0164 0193     		str	r3, [sp, #4]
 1486 0166 0091     		str	r1, [sp]
 1487 0168 0B00     		movs	r3, r1
 1488 016a 0A00     		movs	r2, r1
 1489 016c 2800     		movs	r0, r5
 1490              	.LVL208:
 1491 016e FFF7FEFF 		bl	mbedtls_rsa_import_raw
 1492              	.LVL209:
 1493 0172 041E     		subs	r4, r0, #0
 1494              	.LVL210:
 1495 0174 22D1     		bne	.L87
 745:Source\mbedtls_open\library/pkparse.c ****         ( ret = mbedtls_rsa_import_raw( rsa, NULL, 0, NULL, 0, p, len,
 746:Source\mbedtls_open\library/pkparse.c ****                                         NULL, 0, NULL, 0 ) ) != 0 )
 747:Source\mbedtls_open\library/pkparse.c ****         goto cleanup;
 748:Source\mbedtls_open\library/pkparse.c ****     p += len;
 1496              		.loc 1 748 0
 1497 0176 0B9B     		ldr	r3, [sp, #44]
 1498 0178 0C9A     		ldr	r2, [sp, #48]
 1499 017a 9446     		mov	ip, r2
 1500 017c 6344     		add	r3, r3, ip
 1501 017e 0B93     		str	r3, [sp, #44]
 749:Source\mbedtls_open\library/pkparse.c **** 
 750:Source\mbedtls_open\library/pkparse.c ****     /* Complete the RSA private key */
 751:Source\mbedtls_open\library/pkparse.c ****     if( ( ret = mbedtls_rsa_complete( rsa ) ) != 0 )
 1502              		.loc 1 751 0
ARM GAS  C:\Users\Phuong\AppData\Local\Temp\ccG6FMOL.s 			page 43


 1503 0180 2800     		movs	r0, r5
 1504              	.LVL211:
 1505 0182 FFF7FEFF 		bl	mbedtls_rsa_complete
 1506              	.LVL212:
 1507 0186 041E     		subs	r4, r0, #0
 1508              	.LVL213:
 1509 0188 18D1     		bne	.L87
 752:Source\mbedtls_open\library/pkparse.c ****         goto cleanup;
 753:Source\mbedtls_open\library/pkparse.c **** 
 754:Source\mbedtls_open\library/pkparse.c ****     /* Check optional parameters */
 755:Source\mbedtls_open\library/pkparse.c ****     if( ( ret = mbedtls_asn1_get_mpi( &p, end, &T ) ) != 0 ||
 1510              		.loc 1 755 0
 1511 018a 08AA     		add	r2, sp, #32
 1512 018c 3100     		movs	r1, r6
 1513 018e 0BA8     		add	r0, sp, #44
 1514              	.LVL214:
 1515 0190 FFF7FEFF 		bl	mbedtls_asn1_get_mpi
 1516              	.LVL215:
 1517 0194 041E     		subs	r4, r0, #0
 1518              	.LVL216:
 1519 0196 11D1     		bne	.L87
 1520              		.loc 1 755 0 is_stmt 0 discriminator 1
 1521 0198 08AA     		add	r2, sp, #32
 1522 019a 3100     		movs	r1, r6
 1523 019c 0BA8     		add	r0, sp, #44
 1524              	.LVL217:
 1525 019e FFF7FEFF 		bl	mbedtls_asn1_get_mpi
 1526              	.LVL218:
 1527 01a2 041E     		subs	r4, r0, #0
 1528              	.LVL219:
 1529 01a4 0AD1     		bne	.L87
 756:Source\mbedtls_open\library/pkparse.c ****         ( ret = mbedtls_asn1_get_mpi( &p, end, &T ) ) != 0 ||
 1530              		.loc 1 756 0 is_stmt 1
 1531 01a6 08AA     		add	r2, sp, #32
 1532 01a8 3100     		movs	r1, r6
 1533 01aa 0BA8     		add	r0, sp, #44
 1534              	.LVL220:
 1535 01ac FFF7FEFF 		bl	mbedtls_asn1_get_mpi
 1536              	.LVL221:
 1537 01b0 041E     		subs	r4, r0, #0
 1538              	.LVL222:
 1539 01b2 03D1     		bne	.L87
 757:Source\mbedtls_open\library/pkparse.c ****         ( ret = mbedtls_asn1_get_mpi( &p, end, &T ) ) != 0 )
 758:Source\mbedtls_open\library/pkparse.c ****         goto cleanup;
 759:Source\mbedtls_open\library/pkparse.c **** 
 760:Source\mbedtls_open\library/pkparse.c ****     if( p != end )
 1540              		.loc 1 760 0
 1541 01b4 0B9B     		ldr	r3, [sp, #44]
 1542 01b6 9E42     		cmp	r6, r3
 1543 01b8 00D0     		beq	.L87
 761:Source\mbedtls_open\library/pkparse.c ****     {
 762:Source\mbedtls_open\library/pkparse.c ****         ret = MBEDTLS_ERR_PK_KEY_INVALID_FORMAT +
 1544              		.loc 1 762 0
 1545 01ba 0D4C     		ldr	r4, .L93+4
 1546              	.L87:
 1547              	.LVL223:
 763:Source\mbedtls_open\library/pkparse.c ****               MBEDTLS_ERR_ASN1_LENGTH_MISMATCH ;
ARM GAS  C:\Users\Phuong\AppData\Local\Temp\ccG6FMOL.s 			page 44


 764:Source\mbedtls_open\library/pkparse.c ****     }
 765:Source\mbedtls_open\library/pkparse.c **** 
 766:Source\mbedtls_open\library/pkparse.c **** cleanup:
 767:Source\mbedtls_open\library/pkparse.c **** 
 768:Source\mbedtls_open\library/pkparse.c ****     mbedtls_mpi_free( &T );
 1548              		.loc 1 768 0
 1549 01bc 08A8     		add	r0, sp, #32
 1550 01be FFF7FEFF 		bl	mbedtls_mpi_free
 1551              	.LVL224:
 769:Source\mbedtls_open\library/pkparse.c **** 
 770:Source\mbedtls_open\library/pkparse.c ****     if( ret != 0 )
 1552              		.loc 1 770 0
 1553 01c2 002C     		cmp	r4, #0
 1554 01c4 0ED0     		beq	.L91
 771:Source\mbedtls_open\library/pkparse.c ****     {
 772:Source\mbedtls_open\library/pkparse.c ****         /* Wrap error code if it's coming from a lower level */
 773:Source\mbedtls_open\library/pkparse.c ****         if( ( ret & 0xff80 ) == 0 )
 1555              		.loc 1 773 0
 1556 01c6 0B4B     		ldr	r3, .L93+8
 1557 01c8 1C42     		tst	r4, r3
 1558 01ca 03D1     		bne	.L92
 774:Source\mbedtls_open\library/pkparse.c ****             ret = MBEDTLS_ERR_PK_KEY_INVALID_FORMAT + ret;
 1559              		.loc 1 774 0
 1560 01cc 074B     		ldr	r3, .L93
 1561 01ce 9C46     		mov	ip, r3
 1562 01d0 6444     		add	r4, r4, ip
 1563              	.LVL225:
 1564 01d2 00E0     		b	.L88
 1565              	.L92:
 775:Source\mbedtls_open\library/pkparse.c ****         else
 776:Source\mbedtls_open\library/pkparse.c ****             ret = MBEDTLS_ERR_PK_KEY_INVALID_FORMAT;
 1566              		.loc 1 776 0
 1567 01d4 054C     		ldr	r4, .L93
 1568              	.LVL226:
 1569              	.L88:
 777:Source\mbedtls_open\library/pkparse.c **** 
 778:Source\mbedtls_open\library/pkparse.c ****         mbedtls_rsa_free( rsa );
 1570              		.loc 1 778 0
 1571 01d6 2800     		movs	r0, r5
 1572 01d8 FFF7FEFF 		bl	mbedtls_rsa_free
 1573              	.LVL227:
 1574 01dc 2000     		movs	r0, r4
 1575 01de 02E0     		b	.L85
 1576              	.LVL228:
 1577              	.L89:
 707:Source\mbedtls_open\library/pkparse.c ****     }
 1578              		.loc 1 707 0
 1579 01e0 0548     		ldr	r0, .L93+12
 1580              	.LVL229:
 1581 01e2 00E0     		b	.L85
 1582              	.LVL230:
 1583              	.L91:
 1584 01e4 2000     		movs	r0, r4
 1585              	.LVL231:
 1586              	.L85:
 779:Source\mbedtls_open\library/pkparse.c ****     }
 780:Source\mbedtls_open\library/pkparse.c **** 
ARM GAS  C:\Users\Phuong\AppData\Local\Temp\ccG6FMOL.s 			page 45


 781:Source\mbedtls_open\library/pkparse.c ****     return( ret );
 782:Source\mbedtls_open\library/pkparse.c **** }
 1587              		.loc 1 782 0
 1588 01e6 0EB0     		add	sp, sp, #56
 1589              		@ sp needed
 1590              	.LVL232:
 1591 01e8 70BD     		pop	{r4, r5, r6, pc}
 1592              	.L94:
 1593 01ea C046     		.align	2
 1594              	.L93:
 1595 01ec 00C3FFFF 		.word	-15616
 1596 01f0 9AC2FFFF 		.word	-15718
 1597 01f4 80FF0000 		.word	65408
 1598 01f8 80C2FFFF 		.word	-15744
 1599              		.cfi_endproc
 1600              	.LFE20:
 1601              		.size	pk_parse_key_pkcs1_der, .-pk_parse_key_pkcs1_der
 1602              		.section	.text.pk_parse_key_sec1_der,"ax",%progbits
 1603              		.align	2
 1604              		.code	16
 1605              		.thumb_func
 1606              		.type	pk_parse_key_sec1_der, %function
 1607              	pk_parse_key_sec1_der:
 1608              	.LFB21:
 783:Source\mbedtls_open\library/pkparse.c **** #endif /* MBEDTLS_RSA_C */
 784:Source\mbedtls_open\library/pkparse.c **** 
 785:Source\mbedtls_open\library/pkparse.c **** #if defined(MBEDTLS_ECP_C)
 786:Source\mbedtls_open\library/pkparse.c **** /*
 787:Source\mbedtls_open\library/pkparse.c ****  * Parse a SEC1 encoded private EC key
 788:Source\mbedtls_open\library/pkparse.c ****  */
 789:Source\mbedtls_open\library/pkparse.c **** static int pk_parse_key_sec1_der( mbedtls_ecp_keypair *eck,
 790:Source\mbedtls_open\library/pkparse.c ****                                   const unsigned char *key,
 791:Source\mbedtls_open\library/pkparse.c ****                                   size_t keylen )
 792:Source\mbedtls_open\library/pkparse.c **** {
 1609              		.loc 1 792 0
 1610              		.cfi_startproc
 1611              		@ args = 0, pretend = 0, frame = 24
 1612              		@ frame_needed = 0, uses_anonymous_args = 0
 1613              	.LVL233:
 1614 0000 F0B5     		push	{r4, r5, r6, r7, lr}
 1615              		.cfi_def_cfa_offset 20
 1616              		.cfi_offset 4, -20
 1617              		.cfi_offset 5, -16
 1618              		.cfi_offset 6, -12
 1619              		.cfi_offset 7, -8
 1620              		.cfi_offset 14, -4
 1621 0002 89B0     		sub	sp, sp, #36
 1622              		.cfi_def_cfa_offset 56
 1623 0004 0400     		movs	r4, r0
 793:Source\mbedtls_open\library/pkparse.c ****     int ret;
 794:Source\mbedtls_open\library/pkparse.c ****     int version, pubkey_done;
 795:Source\mbedtls_open\library/pkparse.c ****     size_t len;
 796:Source\mbedtls_open\library/pkparse.c ****     mbedtls_asn1_buf params;
 797:Source\mbedtls_open\library/pkparse.c ****     unsigned char *p = (unsigned char *) key;
 1624              		.loc 1 797 0
 1625 0006 0291     		str	r1, [sp, #8]
 798:Source\mbedtls_open\library/pkparse.c ****     unsigned char *end = p + keylen;
ARM GAS  C:\Users\Phuong\AppData\Local\Temp\ccG6FMOL.s 			page 46


 1626              		.loc 1 798 0
 1627 0008 8918     		adds	r1, r1, r2
 1628              	.LVL234:
 799:Source\mbedtls_open\library/pkparse.c ****     unsigned char *end2;
 800:Source\mbedtls_open\library/pkparse.c **** 
 801:Source\mbedtls_open\library/pkparse.c ****     /*
 802:Source\mbedtls_open\library/pkparse.c ****      * RFC 5915, or SEC1 Appendix C.4
 803:Source\mbedtls_open\library/pkparse.c ****      *
 804:Source\mbedtls_open\library/pkparse.c ****      * ECPrivateKey ::= SEQUENCE {
 805:Source\mbedtls_open\library/pkparse.c ****      *      version        INTEGER { ecPrivkeyVer1(1) } (ecPrivkeyVer1),
 806:Source\mbedtls_open\library/pkparse.c ****      *      privateKey     OCTET STRING,
 807:Source\mbedtls_open\library/pkparse.c ****      *      parameters [0] ECParameters {{ NamedCurve }} OPTIONAL,
 808:Source\mbedtls_open\library/pkparse.c ****      *      publicKey  [1] BIT STRING OPTIONAL
 809:Source\mbedtls_open\library/pkparse.c ****      *    }
 810:Source\mbedtls_open\library/pkparse.c ****      */
 811:Source\mbedtls_open\library/pkparse.c ****     if( ( ret = mbedtls_asn1_get_tag( &p, end, &len,
 1629              		.loc 1 811 0
 1630 000a 3023     		movs	r3, #48
 1631 000c 06AA     		add	r2, sp, #24
 1632              	.LVL235:
 1633 000e 02A8     		add	r0, sp, #8
 1634              	.LVL236:
 1635 0010 FFF7FEFF 		bl	mbedtls_asn1_get_tag
 1636              	.LVL237:
 1637 0014 0028     		cmp	r0, #0
 1638 0016 03D0     		beq	.L96
 812:Source\mbedtls_open\library/pkparse.c ****             MBEDTLS_ASN1_CONSTRUCTED | MBEDTLS_ASN1_SEQUENCE ) ) != 0 )
 813:Source\mbedtls_open\library/pkparse.c ****     {
 814:Source\mbedtls_open\library/pkparse.c ****         return( MBEDTLS_ERR_PK_KEY_INVALID_FORMAT + ret );
 1639              		.loc 1 814 0
 1640 0018 624B     		ldr	r3, .L115
 1641 001a 9C46     		mov	ip, r3
 1642 001c 6044     		add	r0, r0, ip
 1643              	.LVL238:
 1644 001e BEE0     		b	.L97
 1645              	.LVL239:
 1646              	.L96:
 815:Source\mbedtls_open\library/pkparse.c ****     }
 816:Source\mbedtls_open\library/pkparse.c **** 
 817:Source\mbedtls_open\library/pkparse.c ****     end = p + len;
 1647              		.loc 1 817 0
 1648 0020 029B     		ldr	r3, [sp, #8]
 1649 0022 069A     		ldr	r2, [sp, #24]
 1650 0024 9446     		mov	ip, r2
 1651 0026 6344     		add	r3, r3, ip
 1652 0028 1F00     		movs	r7, r3
 1653              	.LVL240:
 818:Source\mbedtls_open\library/pkparse.c **** 
 819:Source\mbedtls_open\library/pkparse.c ****     if( ( ret = mbedtls_asn1_get_int( &p, end, &version ) ) != 0 )
 1654              		.loc 1 819 0
 1655 002a 07AA     		add	r2, sp, #28
 1656 002c 1900     		movs	r1, r3
 1657 002e 02A8     		add	r0, sp, #8
 1658              	.LVL241:
 1659 0030 FFF7FEFF 		bl	mbedtls_asn1_get_int
 1660              	.LVL242:
 1661 0034 0028     		cmp	r0, #0
ARM GAS  C:\Users\Phuong\AppData\Local\Temp\ccG6FMOL.s 			page 47


 1662 0036 03D0     		beq	.L98
 820:Source\mbedtls_open\library/pkparse.c ****         return( MBEDTLS_ERR_PK_KEY_INVALID_FORMAT + ret );
 1663              		.loc 1 820 0
 1664 0038 5A4B     		ldr	r3, .L115
 1665 003a 9C46     		mov	ip, r3
 1666 003c 6044     		add	r0, r0, ip
 1667              	.LVL243:
 1668 003e AEE0     		b	.L97
 1669              	.LVL244:
 1670              	.L98:
 821:Source\mbedtls_open\library/pkparse.c **** 
 822:Source\mbedtls_open\library/pkparse.c ****     if( version != 1 )
 1671              		.loc 1 822 0
 1672 0040 079B     		ldr	r3, [sp, #28]
 1673 0042 012B     		cmp	r3, #1
 1674 0044 00D0     		beq	.LCB1773
 1675 0046 A3E0     		b	.L108	@long jump
 1676              	.LCB1773:
 823:Source\mbedtls_open\library/pkparse.c ****         return( MBEDTLS_ERR_PK_KEY_INVALID_VERSION );
 824:Source\mbedtls_open\library/pkparse.c **** 
 825:Source\mbedtls_open\library/pkparse.c ****     if( ( ret = mbedtls_asn1_get_tag( &p, end, &len, MBEDTLS_ASN1_OCTET_STRING ) ) != 0 )
 1677              		.loc 1 825 0
 1678 0048 0333     		adds	r3, r3, #3
 1679 004a 06AA     		add	r2, sp, #24
 1680 004c 3900     		movs	r1, r7
 1681 004e 02A8     		add	r0, sp, #8
 1682              	.LVL245:
 1683 0050 FFF7FEFF 		bl	mbedtls_asn1_get_tag
 1684              	.LVL246:
 1685 0054 0028     		cmp	r0, #0
 1686 0056 03D0     		beq	.L99
 826:Source\mbedtls_open\library/pkparse.c ****         return( MBEDTLS_ERR_PK_KEY_INVALID_FORMAT + ret );
 1687              		.loc 1 826 0
 1688 0058 524B     		ldr	r3, .L115
 1689 005a 9C46     		mov	ip, r3
 1690 005c 6044     		add	r0, r0, ip
 1691              	.LVL247:
 1692 005e 9EE0     		b	.L97
 1693              	.LVL248:
 1694              	.L99:
 827:Source\mbedtls_open\library/pkparse.c **** 
 828:Source\mbedtls_open\library/pkparse.c ****     if( ( ret = mbedtls_mpi_read_binary( &eck->d, p, len ) ) != 0 )
 1695              		.loc 1 828 0
 1696 0060 2600     		movs	r6, r4
 1697 0062 7C36     		adds	r6, r6, #124
 1698 0064 069A     		ldr	r2, [sp, #24]
 1699 0066 0299     		ldr	r1, [sp, #8]
 1700 0068 3000     		movs	r0, r6
 1701              	.LVL249:
 1702 006a FFF7FEFF 		bl	mbedtls_mpi_read_binary
 1703              	.LVL250:
 1704 006e 051E     		subs	r5, r0, #0
 1705              	.LVL251:
 1706 0070 05D0     		beq	.L100
 829:Source\mbedtls_open\library/pkparse.c ****     {
 830:Source\mbedtls_open\library/pkparse.c ****         mbedtls_ecp_keypair_free( eck );
 1707              		.loc 1 830 0
ARM GAS  C:\Users\Phuong\AppData\Local\Temp\ccG6FMOL.s 			page 48


 1708 0072 2000     		movs	r0, r4
 1709              	.LVL252:
 1710 0074 FFF7FEFF 		bl	mbedtls_ecp_keypair_free
 1711              	.LVL253:
 831:Source\mbedtls_open\library/pkparse.c ****         return( MBEDTLS_ERR_PK_KEY_INVALID_FORMAT + ret );
 1712              		.loc 1 831 0
 1713 0078 4A4B     		ldr	r3, .L115
 1714 007a E818     		adds	r0, r5, r3
 1715 007c 8FE0     		b	.L97
 1716              	.LVL254:
 1717              	.L100:
 832:Source\mbedtls_open\library/pkparse.c ****     }
 833:Source\mbedtls_open\library/pkparse.c **** 
 834:Source\mbedtls_open\library/pkparse.c ****     p += len;
 1718              		.loc 1 834 0
 1719 007e 029B     		ldr	r3, [sp, #8]
 1720 0080 069A     		ldr	r2, [sp, #24]
 1721 0082 9446     		mov	ip, r2
 1722 0084 6344     		add	r3, r3, ip
 1723 0086 0293     		str	r3, [sp, #8]
 1724              	.LVL255:
 835:Source\mbedtls_open\library/pkparse.c **** 
 836:Source\mbedtls_open\library/pkparse.c ****     pubkey_done = 0;
 837:Source\mbedtls_open\library/pkparse.c ****     if( p != end )
 1725              		.loc 1 837 0
 1726 0088 9F42     		cmp	r7, r3
 1727 008a 26D0     		beq	.L101
 838:Source\mbedtls_open\library/pkparse.c ****     {
 839:Source\mbedtls_open\library/pkparse.c ****         /*
 840:Source\mbedtls_open\library/pkparse.c ****          * Is 'parameters' present?
 841:Source\mbedtls_open\library/pkparse.c ****          */
 842:Source\mbedtls_open\library/pkparse.c ****         if( ( ret = mbedtls_asn1_get_tag( &p, end, &len,
 1728              		.loc 1 842 0
 1729 008c A023     		movs	r3, #160
 1730 008e 06AA     		add	r2, sp, #24
 1731 0090 3900     		movs	r1, r7
 1732 0092 02A8     		add	r0, sp, #8
 1733              	.LVL256:
 1734 0094 FFF7FEFF 		bl	mbedtls_asn1_get_tag
 1735              	.LVL257:
 1736 0098 051E     		subs	r5, r0, #0
 1737              	.LVL258:
 1738 009a 15D1     		bne	.L102
 843:Source\mbedtls_open\library/pkparse.c ****                         MBEDTLS_ASN1_CONTEXT_SPECIFIC | MBEDTLS_ASN1_CONSTRUCTED | 0 ) ) == 0 )
 844:Source\mbedtls_open\library/pkparse.c ****         {
 845:Source\mbedtls_open\library/pkparse.c ****             if( ( ret = pk_get_ecparams( &p, p + len, &params) ) != 0 ||
 1739              		.loc 1 845 0
 1740 009c 029B     		ldr	r3, [sp, #8]
 1741 009e 069A     		ldr	r2, [sp, #24]
 1742 00a0 9446     		mov	ip, r2
 1743 00a2 6344     		add	r3, r3, ip
 1744 00a4 1900     		movs	r1, r3
 1745 00a6 03AA     		add	r2, sp, #12
 1746 00a8 02A8     		add	r0, sp, #8
 1747              	.LVL259:
 1748 00aa FFF7FEFF 		bl	pk_get_ecparams
 1749              	.LVL260:
ARM GAS  C:\Users\Phuong\AppData\Local\Temp\ccG6FMOL.s 			page 49


 1750 00ae 051E     		subs	r5, r0, #0
 1751              	.LVL261:
 1752 00b0 05D1     		bne	.L103
 1753              		.loc 1 845 0 is_stmt 0 discriminator 1
 1754 00b2 2100     		movs	r1, r4
 1755 00b4 03A8     		add	r0, sp, #12
 1756              	.LVL262:
 1757 00b6 FFF7FEFF 		bl	pk_use_ecparams
 1758              	.LVL263:
 1759 00ba 051E     		subs	r5, r0, #0
 1760              	.LVL264:
 1761 00bc 0DD0     		beq	.L101
 1762              	.L103:
 846:Source\mbedtls_open\library/pkparse.c ****                 ( ret = pk_use_ecparams( &params, &eck->grp )  ) != 0 )
 847:Source\mbedtls_open\library/pkparse.c ****             {
 848:Source\mbedtls_open\library/pkparse.c ****                 mbedtls_ecp_keypair_free( eck );
 1763              		.loc 1 848 0 is_stmt 1
 1764 00be 2000     		movs	r0, r4
 1765              	.LVL265:
 1766 00c0 FFF7FEFF 		bl	mbedtls_ecp_keypair_free
 1767              	.LVL266:
 849:Source\mbedtls_open\library/pkparse.c ****                 return( ret );
 1768              		.loc 1 849 0
 1769 00c4 2800     		movs	r0, r5
 1770 00c6 6AE0     		b	.L97
 1771              	.LVL267:
 1772              	.L102:
 850:Source\mbedtls_open\library/pkparse.c ****             }
 851:Source\mbedtls_open\library/pkparse.c ****         }
 852:Source\mbedtls_open\library/pkparse.c ****         else if( ret != MBEDTLS_ERR_ASN1_UNEXPECTED_TAG )
 1773              		.loc 1 852 0
 1774 00c8 0300     		movs	r3, r0
 1775 00ca 6233     		adds	r3, r3, #98
 1776 00cc 05D0     		beq	.L101
 853:Source\mbedtls_open\library/pkparse.c ****         {
 854:Source\mbedtls_open\library/pkparse.c ****             mbedtls_ecp_keypair_free( eck );
 1777              		.loc 1 854 0
 1778 00ce 2000     		movs	r0, r4
 1779              	.LVL268:
 1780 00d0 FFF7FEFF 		bl	mbedtls_ecp_keypair_free
 1781              	.LVL269:
 855:Source\mbedtls_open\library/pkparse.c ****             return( MBEDTLS_ERR_PK_KEY_INVALID_FORMAT + ret );
 1782              		.loc 1 855 0
 1783 00d4 334B     		ldr	r3, .L115
 1784 00d6 E818     		adds	r0, r5, r3
 1785 00d8 61E0     		b	.L97
 1786              	.LVL270:
 1787              	.L101:
 856:Source\mbedtls_open\library/pkparse.c ****         }
 857:Source\mbedtls_open\library/pkparse.c ****     }
 858:Source\mbedtls_open\library/pkparse.c **** 
 859:Source\mbedtls_open\library/pkparse.c ****     if( p != end )
 1788              		.loc 1 859 0
 1789 00da 029B     		ldr	r3, [sp, #8]
 1790 00dc 9F42     		cmp	r7, r3
 1791 00de 32D0     		beq	.L109
 860:Source\mbedtls_open\library/pkparse.c ****     {
ARM GAS  C:\Users\Phuong\AppData\Local\Temp\ccG6FMOL.s 			page 50


 861:Source\mbedtls_open\library/pkparse.c ****         /*
 862:Source\mbedtls_open\library/pkparse.c ****          * Is 'publickey' present? If not, or if we can't read it (eg because it
 863:Source\mbedtls_open\library/pkparse.c ****          * is compressed), create it from the private key.
 864:Source\mbedtls_open\library/pkparse.c ****          */
 865:Source\mbedtls_open\library/pkparse.c ****         if( ( ret = mbedtls_asn1_get_tag( &p, end, &len,
 1792              		.loc 1 865 0
 1793 00e0 A123     		movs	r3, #161
 1794 00e2 06AA     		add	r2, sp, #24
 1795 00e4 3900     		movs	r1, r7
 1796 00e6 02A8     		add	r0, sp, #8
 1797              	.LVL271:
 1798 00e8 FFF7FEFF 		bl	mbedtls_asn1_get_tag
 1799              	.LVL272:
 1800 00ec 051E     		subs	r5, r0, #0
 1801              	.LVL273:
 1802 00ee 21D1     		bne	.L105
 866:Source\mbedtls_open\library/pkparse.c ****                         MBEDTLS_ASN1_CONTEXT_SPECIFIC | MBEDTLS_ASN1_CONSTRUCTED | 1 ) ) == 0 )
 867:Source\mbedtls_open\library/pkparse.c ****         {
 868:Source\mbedtls_open\library/pkparse.c ****             end2 = p + len;
 1803              		.loc 1 868 0
 1804 00f0 029B     		ldr	r3, [sp, #8]
 1805 00f2 069A     		ldr	r2, [sp, #24]
 1806 00f4 9446     		mov	ip, r2
 1807 00f6 6344     		add	r3, r3, ip
 1808 00f8 1D00     		movs	r5, r3
 1809              	.LVL274:
 869:Source\mbedtls_open\library/pkparse.c **** 
 870:Source\mbedtls_open\library/pkparse.c ****             if( ( ret = mbedtls_asn1_get_bitstring_null( &p, end2, &len ) ) != 0 )
 1810              		.loc 1 870 0
 1811 00fa 06AA     		add	r2, sp, #24
 1812 00fc 1900     		movs	r1, r3
 1813 00fe 02A8     		add	r0, sp, #8
 1814              	.LVL275:
 1815 0100 FFF7FEFF 		bl	mbedtls_asn1_get_bitstring_null
 1816              	.LVL276:
 1817 0104 0028     		cmp	r0, #0
 1818 0106 03D0     		beq	.L106
 871:Source\mbedtls_open\library/pkparse.c ****                 return( MBEDTLS_ERR_PK_KEY_INVALID_FORMAT + ret );
 1819              		.loc 1 871 0
 1820 0108 264B     		ldr	r3, .L115
 1821 010a 9C46     		mov	ip, r3
 1822 010c 6044     		add	r0, r0, ip
 1823              	.LVL277:
 1824 010e 46E0     		b	.L97
 1825              	.LVL278:
 1826              	.L106:
 872:Source\mbedtls_open\library/pkparse.c **** 
 873:Source\mbedtls_open\library/pkparse.c ****             if( p + len != end2 )
 1827              		.loc 1 873 0
 1828 0110 029B     		ldr	r3, [sp, #8]
 1829 0112 069A     		ldr	r2, [sp, #24]
 1830 0114 9446     		mov	ip, r2
 1831 0116 6344     		add	r3, r3, ip
 1832 0118 9D42     		cmp	r5, r3
 1833 011a 3BD1     		bne	.L110
 874:Source\mbedtls_open\library/pkparse.c ****                 return( MBEDTLS_ERR_PK_KEY_INVALID_FORMAT +
 875:Source\mbedtls_open\library/pkparse.c ****                         MBEDTLS_ERR_ASN1_LENGTH_MISMATCH );
ARM GAS  C:\Users\Phuong\AppData\Local\Temp\ccG6FMOL.s 			page 51


 876:Source\mbedtls_open\library/pkparse.c **** 
 877:Source\mbedtls_open\library/pkparse.c ****             if( ( ret = pk_get_ecpubkey( &p, end2, eck ) ) == 0 )
 1834              		.loc 1 877 0
 1835 011c 2200     		movs	r2, r4
 1836 011e 2900     		movs	r1, r5
 1837 0120 02A8     		add	r0, sp, #8
 1838              	.LVL279:
 1839 0122 FFF7FEFF 		bl	pk_get_ecpubkey
 1840              	.LVL280:
 1841 0126 0028     		cmp	r0, #0
 1842 0128 0FD0     		beq	.L111
 878:Source\mbedtls_open\library/pkparse.c ****                 pubkey_done = 1;
 879:Source\mbedtls_open\library/pkparse.c ****             else
 880:Source\mbedtls_open\library/pkparse.c ****             {
 881:Source\mbedtls_open\library/pkparse.c ****                 /*
 882:Source\mbedtls_open\library/pkparse.c ****                  * The only acceptable failure mode of pk_get_ecpubkey() above
 883:Source\mbedtls_open\library/pkparse.c ****                  * is if the point format is not recognized.
 884:Source\mbedtls_open\library/pkparse.c ****                  */
 885:Source\mbedtls_open\library/pkparse.c ****                 if( ret != MBEDTLS_ERR_ECP_FEATURE_UNAVAILABLE )
 1843              		.loc 1 885 0
 1844 012a 1F4B     		ldr	r3, .L115+4
 1845 012c 9842     		cmp	r0, r3
 1846 012e 33D1     		bne	.L112
 836:Source\mbedtls_open\library/pkparse.c ****     if( p != end )
 1847              		.loc 1 836 0
 1848 0130 0023     		movs	r3, #0
 1849 0132 0DE0     		b	.L104
 1850              	.LVL281:
 1851              	.L105:
 886:Source\mbedtls_open\library/pkparse.c ****                     return( MBEDTLS_ERR_PK_KEY_INVALID_FORMAT );
 887:Source\mbedtls_open\library/pkparse.c ****             }
 888:Source\mbedtls_open\library/pkparse.c ****         }
 889:Source\mbedtls_open\library/pkparse.c ****         else if( ret != MBEDTLS_ERR_ASN1_UNEXPECTED_TAG )
 1852              		.loc 1 889 0
 1853 0134 0300     		movs	r3, r0
 1854 0136 6233     		adds	r3, r3, #98
 1855 0138 09D0     		beq	.L113
 890:Source\mbedtls_open\library/pkparse.c ****         {
 891:Source\mbedtls_open\library/pkparse.c ****             mbedtls_ecp_keypair_free( eck );
 1856              		.loc 1 891 0
 1857 013a 2000     		movs	r0, r4
 1858              	.LVL282:
 1859 013c FFF7FEFF 		bl	mbedtls_ecp_keypair_free
 1860              	.LVL283:
 892:Source\mbedtls_open\library/pkparse.c ****             return( MBEDTLS_ERR_PK_KEY_INVALID_FORMAT + ret );
 1861              		.loc 1 892 0
 1862 0140 184B     		ldr	r3, .L115
 1863 0142 E818     		adds	r0, r5, r3
 1864 0144 2BE0     		b	.L97
 1865              	.LVL284:
 1866              	.L109:
 836:Source\mbedtls_open\library/pkparse.c ****     if( p != end )
 1867              		.loc 1 836 0
 1868 0146 0023     		movs	r3, #0
 1869 0148 02E0     		b	.L104
 1870              	.LVL285:
 1871              	.L111:
ARM GAS  C:\Users\Phuong\AppData\Local\Temp\ccG6FMOL.s 			page 52


 878:Source\mbedtls_open\library/pkparse.c ****             else
 1872              		.loc 1 878 0
 1873 014a 0123     		movs	r3, #1
 1874 014c 00E0     		b	.L104
 1875              	.LVL286:
 1876              	.L113:
 836:Source\mbedtls_open\library/pkparse.c ****     if( p != end )
 1877              		.loc 1 836 0
 1878 014e 0023     		movs	r3, #0
 1879              	.L104:
 1880              	.LVL287:
 893:Source\mbedtls_open\library/pkparse.c ****         }
 894:Source\mbedtls_open\library/pkparse.c ****     }
 895:Source\mbedtls_open\library/pkparse.c **** 
 896:Source\mbedtls_open\library/pkparse.c ****     if( ! pubkey_done &&
 1881              		.loc 1 896 0
 1882 0150 002B     		cmp	r3, #0
 1883 0152 12D1     		bne	.L107
 897:Source\mbedtls_open\library/pkparse.c ****         ( ret = mbedtls_ecp_mul( &eck->grp, &eck->Q, &eck->d, &eck->grp.G,
 1884              		.loc 1 897 0 discriminator 1
 1885 0154 2100     		movs	r1, r4
 1886 0156 8831     		adds	r1, r1, #136
 1887 0158 2300     		movs	r3, r4
 1888              	.LVL288:
 1889 015a 2833     		adds	r3, r3, #40
 896:Source\mbedtls_open\library/pkparse.c ****         ( ret = mbedtls_ecp_mul( &eck->grp, &eck->Q, &eck->d, &eck->grp.G,
 1890              		.loc 1 896 0 discriminator 1
 1891 015c 0022     		movs	r2, #0
 1892 015e 0192     		str	r2, [sp, #4]
 1893 0160 0092     		str	r2, [sp]
 1894 0162 3200     		movs	r2, r6
 1895 0164 2000     		movs	r0, r4
 1896              	.LVL289:
 1897 0166 FFF7FEFF 		bl	mbedtls_ecp_mul
 1898              	.LVL290:
 1899 016a 051E     		subs	r5, r0, #0
 1900              	.LVL291:
 1901 016c 05D0     		beq	.L107
 898:Source\mbedtls_open\library/pkparse.c ****                                                       NULL, NULL ) ) != 0 )
 899:Source\mbedtls_open\library/pkparse.c ****     {
 900:Source\mbedtls_open\library/pkparse.c ****         mbedtls_ecp_keypair_free( eck );
 1902              		.loc 1 900 0
 1903 016e 2000     		movs	r0, r4
 1904              	.LVL292:
 1905 0170 FFF7FEFF 		bl	mbedtls_ecp_keypair_free
 1906              	.LVL293:
 901:Source\mbedtls_open\library/pkparse.c ****         return( MBEDTLS_ERR_PK_KEY_INVALID_FORMAT + ret );
 1907              		.loc 1 901 0
 1908 0174 0B4B     		ldr	r3, .L115
 1909 0176 E818     		adds	r0, r5, r3
 1910 0178 11E0     		b	.L97
 1911              	.LVL294:
 1912              	.L107:
 902:Source\mbedtls_open\library/pkparse.c ****     }
 903:Source\mbedtls_open\library/pkparse.c **** 
 904:Source\mbedtls_open\library/pkparse.c ****     if( ( ret = mbedtls_ecp_check_privkey( &eck->grp, &eck->d ) ) != 0 )
 1913              		.loc 1 904 0
ARM GAS  C:\Users\Phuong\AppData\Local\Temp\ccG6FMOL.s 			page 53


 1914 017a 3100     		movs	r1, r6
 1915 017c 2000     		movs	r0, r4
 1916              	.LVL295:
 1917 017e FFF7FEFF 		bl	mbedtls_ecp_check_privkey
 1918              	.LVL296:
 1919 0182 051E     		subs	r5, r0, #0
 1920              	.LVL297:
 1921 0184 0AD0     		beq	.L114
 905:Source\mbedtls_open\library/pkparse.c ****     {
 906:Source\mbedtls_open\library/pkparse.c ****         mbedtls_ecp_keypair_free( eck );
 1922              		.loc 1 906 0
 1923 0186 2000     		movs	r0, r4
 1924              	.LVL298:
 1925 0188 FFF7FEFF 		bl	mbedtls_ecp_keypair_free
 1926              	.LVL299:
 907:Source\mbedtls_open\library/pkparse.c ****         return( ret );
 1927              		.loc 1 907 0
 1928 018c 2800     		movs	r0, r5
 1929 018e 06E0     		b	.L97
 1930              	.LVL300:
 1931              	.L108:
 823:Source\mbedtls_open\library/pkparse.c **** 
 1932              		.loc 1 823 0
 1933 0190 0648     		ldr	r0, .L115+8
 1934              	.LVL301:
 1935 0192 04E0     		b	.L97
 1936              	.LVL302:
 1937              	.L110:
 874:Source\mbedtls_open\library/pkparse.c ****                         MBEDTLS_ERR_ASN1_LENGTH_MISMATCH );
 1938              		.loc 1 874 0
 1939 0194 0648     		ldr	r0, .L115+12
 1940              	.LVL303:
 1941 0196 02E0     		b	.L97
 1942              	.LVL304:
 1943              	.L112:
 886:Source\mbedtls_open\library/pkparse.c ****             }
 1944              		.loc 1 886 0
 1945 0198 0248     		ldr	r0, .L115
 1946              	.LVL305:
 1947 019a 00E0     		b	.L97
 1948              	.LVL306:
 1949              	.L114:
 908:Source\mbedtls_open\library/pkparse.c ****     }
 909:Source\mbedtls_open\library/pkparse.c **** 
 910:Source\mbedtls_open\library/pkparse.c ****     return( 0 );
 1950              		.loc 1 910 0
 1951 019c 0020     		movs	r0, #0
 1952              	.LVL307:
 1953              	.L97:
 911:Source\mbedtls_open\library/pkparse.c **** }
 1954              		.loc 1 911 0
 1955 019e 09B0     		add	sp, sp, #36
 1956              		@ sp needed
 1957              	.LVL308:
 1958 01a0 F0BD     		pop	{r4, r5, r6, r7, pc}
 1959              	.L116:
 1960 01a2 C046     		.align	2
ARM GAS  C:\Users\Phuong\AppData\Local\Temp\ccG6FMOL.s 			page 54


 1961              	.L115:
 1962 01a4 00C3FFFF 		.word	-15616
 1963 01a8 80B1FFFF 		.word	-20096
 1964 01ac 80C2FFFF 		.word	-15744
 1965 01b0 9AC2FFFF 		.word	-15718
 1966              		.cfi_endproc
 1967              	.LFE21:
 1968              		.size	pk_parse_key_sec1_der, .-pk_parse_key_sec1_der
 1969              		.section	.text.pk_parse_key_pkcs8_unencrypted_der,"ax",%progbits
 1970              		.align	2
 1971              		.code	16
 1972              		.thumb_func
 1973              		.type	pk_parse_key_pkcs8_unencrypted_der, %function
 1974              	pk_parse_key_pkcs8_unencrypted_der:
 1975              	.LFB22:
 912:Source\mbedtls_open\library/pkparse.c **** #endif /* MBEDTLS_ECP_C */
 913:Source\mbedtls_open\library/pkparse.c **** 
 914:Source\mbedtls_open\library/pkparse.c **** /*
 915:Source\mbedtls_open\library/pkparse.c ****  * Parse an unencrypted PKCS#8 encoded private key
 916:Source\mbedtls_open\library/pkparse.c ****  *
 917:Source\mbedtls_open\library/pkparse.c ****  * Notes:
 918:Source\mbedtls_open\library/pkparse.c ****  *
 919:Source\mbedtls_open\library/pkparse.c ****  * - This function does not own the key buffer. It is the
 920:Source\mbedtls_open\library/pkparse.c ****  *   responsibility of the caller to take care of zeroizing
 921:Source\mbedtls_open\library/pkparse.c ****  *   and freeing it after use.
 922:Source\mbedtls_open\library/pkparse.c ****  *
 923:Source\mbedtls_open\library/pkparse.c ****  * - The function is responsible for freeing the provided
 924:Source\mbedtls_open\library/pkparse.c ****  *   PK context on failure.
 925:Source\mbedtls_open\library/pkparse.c ****  *
 926:Source\mbedtls_open\library/pkparse.c ****  */
 927:Source\mbedtls_open\library/pkparse.c **** static int pk_parse_key_pkcs8_unencrypted_der(
 928:Source\mbedtls_open\library/pkparse.c ****                                     mbedtls_pk_context *pk,
 929:Source\mbedtls_open\library/pkparse.c ****                                     const unsigned char* key,
 930:Source\mbedtls_open\library/pkparse.c ****                                     size_t keylen )
 931:Source\mbedtls_open\library/pkparse.c **** {
 1976              		.loc 1 931 0
 1977              		.cfi_startproc
 1978              		@ args = 0, pretend = 0, frame = 56
 1979              		@ frame_needed = 0, uses_anonymous_args = 0
 1980              	.LVL309:
 1981 0000 70B5     		push	{r4, r5, r6, lr}
 1982              		.cfi_def_cfa_offset 16
 1983              		.cfi_offset 4, -16
 1984              		.cfi_offset 5, -12
 1985              		.cfi_offset 6, -8
 1986              		.cfi_offset 14, -4
 1987 0002 8EB0     		sub	sp, sp, #56
 1988              		.cfi_def_cfa_offset 72
 1989 0004 0400     		movs	r4, r0
 932:Source\mbedtls_open\library/pkparse.c ****     int ret, version;
 933:Source\mbedtls_open\library/pkparse.c ****     size_t len;
 934:Source\mbedtls_open\library/pkparse.c ****     mbedtls_asn1_buf params;
 935:Source\mbedtls_open\library/pkparse.c ****     unsigned char *p = (unsigned char *) key;
 1990              		.loc 1 935 0
 1991 0006 0891     		str	r1, [sp, #32]
 936:Source\mbedtls_open\library/pkparse.c ****     unsigned char *end = p + keylen;
 1992              		.loc 1 936 0
ARM GAS  C:\Users\Phuong\AppData\Local\Temp\ccG6FMOL.s 			page 55


 1993 0008 8918     		adds	r1, r1, r2
 1994              	.LVL310:
 937:Source\mbedtls_open\library/pkparse.c ****     mbedtls_pk_type_t pk_alg = MBEDTLS_PK_NONE;
 1995              		.loc 1 937 0
 1996 000a 0022     		movs	r2, #0
 1997              	.LVL311:
 1998 000c 1F23     		movs	r3, #31
 1999 000e 6B44     		add	r3, r3, sp
 2000 0010 1A70     		strb	r2, [r3]
 938:Source\mbedtls_open\library/pkparse.c ****     const mbedtls_pk_info_t *pk_info;
 939:Source\mbedtls_open\library/pkparse.c **** 
 940:Source\mbedtls_open\library/pkparse.c ****     /*
 941:Source\mbedtls_open\library/pkparse.c ****      * This function parses the PrivateKeyInfo object (PKCS#8 v1.2 = RFC 5208)
 942:Source\mbedtls_open\library/pkparse.c ****      *
 943:Source\mbedtls_open\library/pkparse.c ****      *    PrivateKeyInfo ::= SEQUENCE {
 944:Source\mbedtls_open\library/pkparse.c ****      *      version                   Version,
 945:Source\mbedtls_open\library/pkparse.c ****      *      privateKeyAlgorithm       PrivateKeyAlgorithmIdentifier,
 946:Source\mbedtls_open\library/pkparse.c ****      *      privateKey                PrivateKey,
 947:Source\mbedtls_open\library/pkparse.c ****      *      attributes           [0]  IMPLICIT Attributes OPTIONAL }
 948:Source\mbedtls_open\library/pkparse.c ****      *
 949:Source\mbedtls_open\library/pkparse.c ****      *    Version ::= INTEGER
 950:Source\mbedtls_open\library/pkparse.c ****      *    PrivateKeyAlgorithmIdentifier ::= AlgorithmIdentifier
 951:Source\mbedtls_open\library/pkparse.c ****      *    PrivateKey ::= OCTET STRING
 952:Source\mbedtls_open\library/pkparse.c ****      *
 953:Source\mbedtls_open\library/pkparse.c ****      *  The PrivateKey OCTET STRING is a SEC1 ECPrivateKey
 954:Source\mbedtls_open\library/pkparse.c ****      */
 955:Source\mbedtls_open\library/pkparse.c **** 
 956:Source\mbedtls_open\library/pkparse.c ****     if( ( ret = mbedtls_asn1_get_tag( &p, end, &len,
 2001              		.loc 1 956 0
 2002 0012 3023     		movs	r3, #48
 2003 0014 0CAA     		add	r2, sp, #48
 2004 0016 08A8     		add	r0, sp, #32
 2005              	.LVL312:
 2006 0018 FFF7FEFF 		bl	mbedtls_asn1_get_tag
 2007              	.LVL313:
 2008 001c 0028     		cmp	r0, #0
 2009 001e 02D0     		beq	.L118
 957:Source\mbedtls_open\library/pkparse.c ****             MBEDTLS_ASN1_CONSTRUCTED | MBEDTLS_ASN1_SEQUENCE ) ) != 0 )
 958:Source\mbedtls_open\library/pkparse.c ****     {
 959:Source\mbedtls_open\library/pkparse.c ****         return( MBEDTLS_ERR_PK_KEY_INVALID_FORMAT + ret );
 2010              		.loc 1 959 0
 2011 0020 3D4B     		ldr	r3, .L130
 2012 0022 C518     		adds	r5, r0, r3
 2013 0024 75E0     		b	.L119
 2014              	.L118:
 960:Source\mbedtls_open\library/pkparse.c ****     }
 961:Source\mbedtls_open\library/pkparse.c **** 
 962:Source\mbedtls_open\library/pkparse.c ****     end = p + len;
 2015              		.loc 1 962 0
 2016 0026 089B     		ldr	r3, [sp, #32]
 2017 0028 0C9A     		ldr	r2, [sp, #48]
 2018 002a 9446     		mov	ip, r2
 2019 002c 6344     		add	r3, r3, ip
 2020 002e 1E00     		movs	r6, r3
 2021              	.LVL314:
 963:Source\mbedtls_open\library/pkparse.c **** 
 964:Source\mbedtls_open\library/pkparse.c ****     if( ( ret = mbedtls_asn1_get_int( &p, end, &version ) ) != 0 )
ARM GAS  C:\Users\Phuong\AppData\Local\Temp\ccG6FMOL.s 			page 56


 2022              		.loc 1 964 0
 2023 0030 0DAA     		add	r2, sp, #52
 2024 0032 1900     		movs	r1, r3
 2025 0034 08A8     		add	r0, sp, #32
 2026              	.LVL315:
 2027 0036 FFF7FEFF 		bl	mbedtls_asn1_get_int
 2028              	.LVL316:
 2029 003a 0028     		cmp	r0, #0
 2030 003c 02D0     		beq	.L120
 965:Source\mbedtls_open\library/pkparse.c ****         return( MBEDTLS_ERR_PK_KEY_INVALID_FORMAT + ret );
 2031              		.loc 1 965 0
 2032 003e 364B     		ldr	r3, .L130
 2033 0040 C518     		adds	r5, r0, r3
 2034 0042 66E0     		b	.L119
 2035              	.L120:
 966:Source\mbedtls_open\library/pkparse.c **** 
 967:Source\mbedtls_open\library/pkparse.c ****     if( version != 0 )
 2036              		.loc 1 967 0
 2037 0044 0D9D     		ldr	r5, [sp, #52]
 2038 0046 002D     		cmp	r5, #0
 2039 0048 02D0     		beq	.L121
 968:Source\mbedtls_open\library/pkparse.c ****         return( MBEDTLS_ERR_PK_KEY_INVALID_VERSION + ret );
 2040              		.loc 1 968 0
 2041 004a 344B     		ldr	r3, .L130+4
 2042 004c C518     		adds	r5, r0, r3
 2043 004e 60E0     		b	.L119
 2044              	.L121:
 969:Source\mbedtls_open\library/pkparse.c **** 
 970:Source\mbedtls_open\library/pkparse.c ****     if( ( ret = pk_get_pk_alg( &p, end, &pk_alg, &params ) ) != 0 )
 2045              		.loc 1 970 0
 2046 0050 09AB     		add	r3, sp, #36
 2047 0052 1F22     		movs	r2, #31
 2048 0054 6A44     		add	r2, r2, sp
 2049 0056 3100     		movs	r1, r6
 2050 0058 08A8     		add	r0, sp, #32
 2051              	.LVL317:
 2052 005a FFF7FEFF 		bl	pk_get_pk_alg
 2053              	.LVL318:
 2054 005e 0028     		cmp	r0, #0
 2055 0060 02D0     		beq	.L122
 971:Source\mbedtls_open\library/pkparse.c ****         return( MBEDTLS_ERR_PK_KEY_INVALID_FORMAT + ret );
 2056              		.loc 1 971 0
 2057 0062 2D4B     		ldr	r3, .L130
 2058 0064 C518     		adds	r5, r0, r3
 2059 0066 54E0     		b	.L119
 2060              	.L122:
 972:Source\mbedtls_open\library/pkparse.c **** 
 973:Source\mbedtls_open\library/pkparse.c ****     if( ( ret = mbedtls_asn1_get_tag( &p, end, &len, MBEDTLS_ASN1_OCTET_STRING ) ) != 0 )
 2061              		.loc 1 973 0
 2062 0068 0423     		movs	r3, #4
 2063 006a 0CAA     		add	r2, sp, #48
 2064 006c 3100     		movs	r1, r6
 2065 006e 08A8     		add	r0, sp, #32
 2066              	.LVL319:
 2067 0070 FFF7FEFF 		bl	mbedtls_asn1_get_tag
 2068              	.LVL320:
 2069 0074 0028     		cmp	r0, #0
ARM GAS  C:\Users\Phuong\AppData\Local\Temp\ccG6FMOL.s 			page 57


 2070 0076 02D0     		beq	.L123
 974:Source\mbedtls_open\library/pkparse.c ****         return( MBEDTLS_ERR_PK_KEY_INVALID_FORMAT + ret );
 2071              		.loc 1 974 0
 2072 0078 274B     		ldr	r3, .L130
 2073 007a C518     		adds	r5, r0, r3
 2074 007c 49E0     		b	.L119
 2075              	.L123:
 975:Source\mbedtls_open\library/pkparse.c **** 
 976:Source\mbedtls_open\library/pkparse.c ****     if( len < 1 )
 2076              		.loc 1 976 0
 2077 007e 0C9B     		ldr	r3, [sp, #48]
 2078 0080 002B     		cmp	r3, #0
 2079 0082 3FD0     		beq	.L126
 977:Source\mbedtls_open\library/pkparse.c ****         return( MBEDTLS_ERR_PK_KEY_INVALID_FORMAT +
 978:Source\mbedtls_open\library/pkparse.c ****                 MBEDTLS_ERR_ASN1_OUT_OF_DATA );
 979:Source\mbedtls_open\library/pkparse.c **** 
 980:Source\mbedtls_open\library/pkparse.c ****     if( ( pk_info = mbedtls_pk_info_from_type( pk_alg ) ) == NULL )
 2080              		.loc 1 980 0
 2081 0084 1F23     		movs	r3, #31
 2082 0086 6B44     		add	r3, r3, sp
 2083 0088 1878     		ldrb	r0, [r3]
 2084              	.LVL321:
 2085 008a FFF7FEFF 		bl	mbedtls_pk_info_from_type
 2086              	.LVL322:
 2087 008e 0028     		cmp	r0, #0
 2088 0090 3AD0     		beq	.L127
 981:Source\mbedtls_open\library/pkparse.c ****         return( MBEDTLS_ERR_PK_UNKNOWN_PK_ALG );
 982:Source\mbedtls_open\library/pkparse.c **** 
 983:Source\mbedtls_open\library/pkparse.c ****     if( ( ret = mbedtls_pk_setup( pk, pk_info ) ) != 0 )
 2089              		.loc 1 983 0
 2090 0092 0100     		movs	r1, r0
 2091 0094 2000     		movs	r0, r4
 2092              	.LVL323:
 2093 0096 FFF7FEFF 		bl	mbedtls_pk_setup
 2094              	.LVL324:
 2095 009a 0028     		cmp	r0, #0
 2096 009c 36D1     		bne	.L128
 984:Source\mbedtls_open\library/pkparse.c ****         return( ret );
 985:Source\mbedtls_open\library/pkparse.c **** 
 986:Source\mbedtls_open\library/pkparse.c **** #if defined(MBEDTLS_RSA_C)
 987:Source\mbedtls_open\library/pkparse.c ****     if( pk_alg == MBEDTLS_PK_RSA )
 2097              		.loc 1 987 0
 2098 009e 1F23     		movs	r3, #31
 2099 00a0 6B44     		add	r3, r3, sp
 2100 00a2 1B78     		ldrb	r3, [r3]
 2101 00a4 012B     		cmp	r3, #1
 2102 00a6 0FD1     		bne	.L124
 2103 00a8 01AB     		add	r3, sp, #4
 2104 00aa 2200     		movs	r2, r4
 2105 00ac 03CA     		ldmia	r2!, {r0, r1}
 2106 00ae 03C3     		stmia	r3!, {r0, r1}
 2107              	.LVL325:
 988:Source\mbedtls_open\library/pkparse.c ****     {
 989:Source\mbedtls_open\library/pkparse.c ****         if( ( ret = pk_parse_key_pkcs1_der( mbedtls_pk_rsa( *pk ), p, len ) ) != 0 )
 2108              		.loc 1 989 0
 2109 00b0 0C9A     		ldr	r2, [sp, #48]
 2110 00b2 0899     		ldr	r1, [sp, #32]
ARM GAS  C:\Users\Phuong\AppData\Local\Temp\ccG6FMOL.s 			page 58


 2111 00b4 6068     		ldr	r0, [r4, #4]
 2112 00b6 FFF7FEFF 		bl	pk_parse_key_pkcs1_der
 2113              	.LVL326:
 2114 00ba 061E     		subs	r6, r0, #0
 2115              	.LVL327:
 2116 00bc 29D0     		beq	.L119
 990:Source\mbedtls_open\library/pkparse.c ****         {
 991:Source\mbedtls_open\library/pkparse.c ****             mbedtls_pk_free( pk );
 2117              		.loc 1 991 0
 2118 00be 2000     		movs	r0, r4
 2119              	.LVL328:
 2120 00c0 FFF7FEFF 		bl	mbedtls_pk_free
 2121              	.LVL329:
 992:Source\mbedtls_open\library/pkparse.c ****             return( ret );
 2122              		.loc 1 992 0
 2123 00c4 3500     		movs	r5, r6
 2124 00c6 24E0     		b	.L119
 2125              	.LVL330:
 2126              	.L124:
 993:Source\mbedtls_open\library/pkparse.c ****         }
 994:Source\mbedtls_open\library/pkparse.c ****     } else
 995:Source\mbedtls_open\library/pkparse.c **** #endif /* MBEDTLS_RSA_C */
 996:Source\mbedtls_open\library/pkparse.c **** #if defined(MBEDTLS_ECP_C)
 997:Source\mbedtls_open\library/pkparse.c ****     if( pk_alg == MBEDTLS_PK_ECKEY || pk_alg == MBEDTLS_PK_ECKEY_DH )
 2127              		.loc 1 997 0
 2128 00c8 023B     		subs	r3, r3, #2
 2129 00ca DBB2     		uxtb	r3, r3
 2130 00cc 012B     		cmp	r3, #1
 2131 00ce 1FD8     		bhi	.L129
 2132 00d0 03AB     		add	r3, sp, #12
 2133 00d2 2200     		movs	r2, r4
 2134 00d4 03CA     		ldmia	r2!, {r0, r1}
 2135 00d6 03C3     		stmia	r3!, {r0, r1}
 2136              	.LVL331:
 998:Source\mbedtls_open\library/pkparse.c ****     {
 999:Source\mbedtls_open\library/pkparse.c ****         if( ( ret = pk_use_ecparams( &params, &mbedtls_pk_ec( *pk )->grp ) ) != 0 ||
 2137              		.loc 1 999 0
 2138 00d8 6168     		ldr	r1, [r4, #4]
 2139 00da 09A8     		add	r0, sp, #36
 2140 00dc FFF7FEFF 		bl	pk_use_ecparams
 2141              	.LVL332:
 2142 00e0 061E     		subs	r6, r0, #0
 2143              	.LVL333:
 2144 00e2 0AD1     		bne	.L125
 2145 00e4 05AB     		add	r3, sp, #20
 2146 00e6 2200     		movs	r2, r4
 2147 00e8 03CA     		ldmia	r2!, {r0, r1}
 2148 00ea 03C3     		stmia	r3!, {r0, r1}
 2149              	.LVL334:
 2150              		.loc 1 999 0 is_stmt 0 discriminator 1
 2151 00ec 0C9A     		ldr	r2, [sp, #48]
 2152 00ee 0899     		ldr	r1, [sp, #32]
 2153 00f0 6068     		ldr	r0, [r4, #4]
 2154 00f2 FFF7FEFF 		bl	pk_parse_key_sec1_der
 2155              	.LVL335:
 2156 00f6 061E     		subs	r6, r0, #0
 2157              	.LVL336:
ARM GAS  C:\Users\Phuong\AppData\Local\Temp\ccG6FMOL.s 			page 59


 2158 00f8 0BD0     		beq	.L119
 2159              	.L125:
1000:Source\mbedtls_open\library/pkparse.c ****             ( ret = pk_parse_key_sec1_der( mbedtls_pk_ec( *pk ), p, len )  ) != 0 )
1001:Source\mbedtls_open\library/pkparse.c ****         {
1002:Source\mbedtls_open\library/pkparse.c ****             mbedtls_pk_free( pk );
 2160              		.loc 1 1002 0 is_stmt 1
 2161 00fa 2000     		movs	r0, r4
 2162              	.LVL337:
 2163 00fc FFF7FEFF 		bl	mbedtls_pk_free
 2164              	.LVL338:
1003:Source\mbedtls_open\library/pkparse.c ****             return( ret );
 2165              		.loc 1 1003 0
 2166 0100 3500     		movs	r5, r6
 2167 0102 06E0     		b	.L119
 2168              	.LVL339:
 2169              	.L126:
 977:Source\mbedtls_open\library/pkparse.c ****                 MBEDTLS_ERR_ASN1_OUT_OF_DATA );
 2170              		.loc 1 977 0
 2171 0104 064D     		ldr	r5, .L130+8
 2172 0106 04E0     		b	.L119
 2173              	.LVL340:
 2174              	.L127:
 981:Source\mbedtls_open\library/pkparse.c **** 
 2175              		.loc 1 981 0
 2176 0108 064D     		ldr	r5, .L130+12
 2177 010a 02E0     		b	.L119
 2178              	.LVL341:
 2179              	.L128:
 984:Source\mbedtls_open\library/pkparse.c **** 
 2180              		.loc 1 984 0
 2181 010c 0500     		movs	r5, r0
 2182 010e 00E0     		b	.L119
 2183              	.L129:
1004:Source\mbedtls_open\library/pkparse.c ****         }
1005:Source\mbedtls_open\library/pkparse.c ****     } else
1006:Source\mbedtls_open\library/pkparse.c **** #endif /* MBEDTLS_ECP_C */
1007:Source\mbedtls_open\library/pkparse.c ****         return( MBEDTLS_ERR_PK_UNKNOWN_PK_ALG );
 2184              		.loc 1 1007 0
 2185 0110 044D     		ldr	r5, .L130+12
 2186              	.LVL342:
 2187              	.L119:
1008:Source\mbedtls_open\library/pkparse.c **** 
1009:Source\mbedtls_open\library/pkparse.c ****     return( 0 );
1010:Source\mbedtls_open\library/pkparse.c **** }
 2188              		.loc 1 1010 0
 2189 0112 2800     		movs	r0, r5
 2190 0114 0EB0     		add	sp, sp, #56
 2191              		@ sp needed
 2192              	.LVL343:
 2193 0116 70BD     		pop	{r4, r5, r6, pc}
 2194              	.L131:
 2195              		.align	2
 2196              	.L130:
 2197 0118 00C3FFFF 		.word	-15616
 2198 011c 80C2FFFF 		.word	-15744
 2199 0120 A0C2FFFF 		.word	-15712
 2200 0124 80C3FFFF 		.word	-15488
ARM GAS  C:\Users\Phuong\AppData\Local\Temp\ccG6FMOL.s 			page 60


 2201              		.cfi_endproc
 2202              	.LFE22:
 2203              		.size	pk_parse_key_pkcs8_unencrypted_der, .-pk_parse_key_pkcs8_unencrypted_der
 2204              		.section	.text.pk_parse_key_pkcs8_encrypted_der,"ax",%progbits
 2205              		.align	2
 2206              		.code	16
 2207              		.thumb_func
 2208              		.type	pk_parse_key_pkcs8_encrypted_der, %function
 2209              	pk_parse_key_pkcs8_encrypted_der:
 2210              	.LFB23:
1011:Source\mbedtls_open\library/pkparse.c **** 
1012:Source\mbedtls_open\library/pkparse.c **** /*
1013:Source\mbedtls_open\library/pkparse.c ****  * Parse an encrypted PKCS#8 encoded private key
1014:Source\mbedtls_open\library/pkparse.c ****  *
1015:Source\mbedtls_open\library/pkparse.c ****  * To save space, the decryption happens in-place on the given key buffer.
1016:Source\mbedtls_open\library/pkparse.c ****  * Also, while this function may modify the keybuffer, it doesn't own it,
1017:Source\mbedtls_open\library/pkparse.c ****  * and instead it is the responsibility of the caller to zeroize and properly
1018:Source\mbedtls_open\library/pkparse.c ****  * free it after use.
1019:Source\mbedtls_open\library/pkparse.c ****  *
1020:Source\mbedtls_open\library/pkparse.c ****  */
1021:Source\mbedtls_open\library/pkparse.c **** #if defined(MBEDTLS_PKCS12_C) || defined(MBEDTLS_PKCS5_C)
1022:Source\mbedtls_open\library/pkparse.c **** static int pk_parse_key_pkcs8_encrypted_der(
1023:Source\mbedtls_open\library/pkparse.c ****                                     mbedtls_pk_context *pk,
1024:Source\mbedtls_open\library/pkparse.c ****                                     unsigned char *key, size_t keylen,
1025:Source\mbedtls_open\library/pkparse.c ****                                     const unsigned char *pwd, size_t pwdlen )
1026:Source\mbedtls_open\library/pkparse.c **** {
 2211              		.loc 1 1026 0
 2212              		.cfi_startproc
 2213              		@ args = 4, pretend = 0, frame = 40
 2214              		@ frame_needed = 0, uses_anonymous_args = 0
 2215              	.LVL344:
 2216 0000 F0B5     		push	{r4, r5, r6, r7, lr}
 2217              		.cfi_def_cfa_offset 20
 2218              		.cfi_offset 4, -20
 2219              		.cfi_offset 5, -16
 2220              		.cfi_offset 6, -12
 2221              		.cfi_offset 7, -8
 2222              		.cfi_offset 14, -4
 2223 0002 91B0     		sub	sp, sp, #68
 2224              		.cfi_def_cfa_offset 88
 2225 0004 0400     		movs	r4, r0
 2226 0006 1D00     		movs	r5, r3
 2227              	.LVL345:
1027:Source\mbedtls_open\library/pkparse.c ****     int ret, decrypted = 0;
1028:Source\mbedtls_open\library/pkparse.c ****     size_t len;
1029:Source\mbedtls_open\library/pkparse.c ****     unsigned char *buf;
1030:Source\mbedtls_open\library/pkparse.c ****     unsigned char *p, *end;
1031:Source\mbedtls_open\library/pkparse.c ****     mbedtls_asn1_buf pbe_alg_oid, pbe_params;
1032:Source\mbedtls_open\library/pkparse.c **** #if defined(MBEDTLS_PKCS12_C)
1033:Source\mbedtls_open\library/pkparse.c ****     mbedtls_cipher_type_t cipher_alg;
1034:Source\mbedtls_open\library/pkparse.c ****     mbedtls_md_type_t md_alg;
1035:Source\mbedtls_open\library/pkparse.c **** #endif
1036:Source\mbedtls_open\library/pkparse.c **** 
1037:Source\mbedtls_open\library/pkparse.c ****     p = key;
 2228              		.loc 1 1037 0
 2229 0008 0E91     		str	r1, [sp, #56]
1038:Source\mbedtls_open\library/pkparse.c ****     end = p + keylen;
ARM GAS  C:\Users\Phuong\AppData\Local\Temp\ccG6FMOL.s 			page 61


 2230              		.loc 1 1038 0
 2231 000a 8918     		adds	r1, r1, r2
 2232              	.LVL346:
1039:Source\mbedtls_open\library/pkparse.c **** 
1040:Source\mbedtls_open\library/pkparse.c ****     if( pwdlen == 0 )
 2233              		.loc 1 1040 0
 2234 000c 169B     		ldr	r3, [sp, #88]
 2235              	.LVL347:
 2236 000e 002B     		cmp	r3, #0
 2237 0010 00D1     		bne	.LCB2411
 2238 0012 98E0     		b	.L142	@long jump
 2239              	.LCB2411:
1041:Source\mbedtls_open\library/pkparse.c ****         return( MBEDTLS_ERR_PK_PASSWORD_REQUIRED );
1042:Source\mbedtls_open\library/pkparse.c **** 
1043:Source\mbedtls_open\library/pkparse.c ****     /*
1044:Source\mbedtls_open\library/pkparse.c ****      * This function parses the EncryptedPrivateKeyInfo object (PKCS#8)
1045:Source\mbedtls_open\library/pkparse.c ****      *
1046:Source\mbedtls_open\library/pkparse.c ****      *  EncryptedPrivateKeyInfo ::= SEQUENCE {
1047:Source\mbedtls_open\library/pkparse.c ****      *    encryptionAlgorithm  EncryptionAlgorithmIdentifier,
1048:Source\mbedtls_open\library/pkparse.c ****      *    encryptedData        EncryptedData
1049:Source\mbedtls_open\library/pkparse.c ****      *  }
1050:Source\mbedtls_open\library/pkparse.c ****      *
1051:Source\mbedtls_open\library/pkparse.c ****      *  EncryptionAlgorithmIdentifier ::= AlgorithmIdentifier
1052:Source\mbedtls_open\library/pkparse.c ****      *
1053:Source\mbedtls_open\library/pkparse.c ****      *  EncryptedData ::= OCTET STRING
1054:Source\mbedtls_open\library/pkparse.c ****      *
1055:Source\mbedtls_open\library/pkparse.c ****      *  The EncryptedData OCTET STRING is a PKCS#8 PrivateKeyInfo
1056:Source\mbedtls_open\library/pkparse.c ****      *
1057:Source\mbedtls_open\library/pkparse.c ****      */
1058:Source\mbedtls_open\library/pkparse.c ****     if( ( ret = mbedtls_asn1_get_tag( &p, end, &len,
 2240              		.loc 1 1058 0
 2241 0014 3023     		movs	r3, #48
 2242 0016 0FAA     		add	r2, sp, #60
 2243              	.LVL348:
 2244 0018 0EA8     		add	r0, sp, #56
 2245              	.LVL349:
 2246 001a FFF7FEFF 		bl	mbedtls_asn1_get_tag
 2247              	.LVL350:
 2248 001e 0028     		cmp	r0, #0
 2249 0020 03D0     		beq	.L134
1059:Source\mbedtls_open\library/pkparse.c ****             MBEDTLS_ASN1_CONSTRUCTED | MBEDTLS_ASN1_SEQUENCE ) ) != 0 )
1060:Source\mbedtls_open\library/pkparse.c ****     {
1061:Source\mbedtls_open\library/pkparse.c ****         return( MBEDTLS_ERR_PK_KEY_INVALID_FORMAT + ret );
 2250              		.loc 1 1061 0
 2251 0022 4C4B     		ldr	r3, .L153
 2252 0024 9C46     		mov	ip, r3
 2253 0026 6044     		add	r0, r0, ip
 2254              	.LVL351:
 2255 0028 92E0     		b	.L133
 2256              	.LVL352:
 2257              	.L134:
1062:Source\mbedtls_open\library/pkparse.c ****     }
1063:Source\mbedtls_open\library/pkparse.c **** 
1064:Source\mbedtls_open\library/pkparse.c ****     end = p + len;
 2258              		.loc 1 1064 0
 2259 002a 0E9B     		ldr	r3, [sp, #56]
 2260 002c 0F9A     		ldr	r2, [sp, #60]
ARM GAS  C:\Users\Phuong\AppData\Local\Temp\ccG6FMOL.s 			page 62


 2261 002e 9446     		mov	ip, r2
 2262 0030 6344     		add	r3, r3, ip
 2263 0032 1E00     		movs	r6, r3
 2264              	.LVL353:
1065:Source\mbedtls_open\library/pkparse.c **** 
1066:Source\mbedtls_open\library/pkparse.c ****     if( ( ret = mbedtls_asn1_get_alg( &p, end, &pbe_alg_oid, &pbe_params ) ) != 0 )
 2265              		.loc 1 1066 0
 2266 0034 08AB     		add	r3, sp, #32
 2267              	.LVL354:
 2268 0036 0BAA     		add	r2, sp, #44
 2269 0038 3100     		movs	r1, r6
 2270 003a 0EA8     		add	r0, sp, #56
 2271              	.LVL355:
 2272 003c FFF7FEFF 		bl	mbedtls_asn1_get_alg
 2273              	.LVL356:
 2274 0040 0028     		cmp	r0, #0
 2275 0042 03D0     		beq	.L135
1067:Source\mbedtls_open\library/pkparse.c ****         return( MBEDTLS_ERR_PK_KEY_INVALID_FORMAT + ret );
 2276              		.loc 1 1067 0
 2277 0044 434B     		ldr	r3, .L153
 2278 0046 9C46     		mov	ip, r3
 2279 0048 6044     		add	r0, r0, ip
 2280              	.LVL357:
 2281 004a 81E0     		b	.L133
 2282              	.LVL358:
 2283              	.L135:
1068:Source\mbedtls_open\library/pkparse.c **** 
1069:Source\mbedtls_open\library/pkparse.c ****     if( ( ret = mbedtls_asn1_get_tag( &p, end, &len, MBEDTLS_ASN1_OCTET_STRING ) ) != 0 )
 2284              		.loc 1 1069 0
 2285 004c 0423     		movs	r3, #4
 2286 004e 0FAA     		add	r2, sp, #60
 2287 0050 3100     		movs	r1, r6
 2288 0052 0EA8     		add	r0, sp, #56
 2289              	.LVL359:
 2290 0054 FFF7FEFF 		bl	mbedtls_asn1_get_tag
 2291              	.LVL360:
 2292 0058 0028     		cmp	r0, #0
 2293 005a 03D0     		beq	.L136
1070:Source\mbedtls_open\library/pkparse.c ****         return( MBEDTLS_ERR_PK_KEY_INVALID_FORMAT + ret );
 2294              		.loc 1 1070 0
 2295 005c 3D4B     		ldr	r3, .L153
 2296 005e 9C46     		mov	ip, r3
 2297 0060 6044     		add	r0, r0, ip
 2298              	.LVL361:
 2299 0062 75E0     		b	.L133
 2300              	.LVL362:
 2301              	.L136:
1071:Source\mbedtls_open\library/pkparse.c **** 
1072:Source\mbedtls_open\library/pkparse.c ****     buf = p;
 2302              		.loc 1 1072 0
 2303 0064 0E9E     		ldr	r6, [sp, #56]
 2304              	.LVL363:
1073:Source\mbedtls_open\library/pkparse.c **** 
1074:Source\mbedtls_open\library/pkparse.c ****     /*
1075:Source\mbedtls_open\library/pkparse.c ****      * Decrypt EncryptedData with appropriate PBE
1076:Source\mbedtls_open\library/pkparse.c ****      */
1077:Source\mbedtls_open\library/pkparse.c **** #if defined(MBEDTLS_PKCS12_C)
ARM GAS  C:\Users\Phuong\AppData\Local\Temp\ccG6FMOL.s 			page 63


1078:Source\mbedtls_open\library/pkparse.c ****     if( mbedtls_oid_get_pkcs12_pbe_alg( &pbe_alg_oid, &md_alg, &cipher_alg ) == 0 )
 2305              		.loc 1 1078 0
 2306 0066 1F22     		movs	r2, #31
 2307 0068 6A44     		add	r2, r2, sp
 2308 006a 1E21     		movs	r1, #30
 2309 006c 6944     		add	r1, r1, sp
 2310 006e 0BA8     		add	r0, sp, #44
 2311              	.LVL364:
 2312 0070 FFF7FEFF 		bl	mbedtls_oid_get_pkcs12_pbe_alg
 2313              	.LVL365:
 2314 0074 0028     		cmp	r0, #0
 2315 0076 18D1     		bne	.L137
1079:Source\mbedtls_open\library/pkparse.c ****     {
1080:Source\mbedtls_open\library/pkparse.c ****         if( ( ret = mbedtls_pkcs12_pbe( &pbe_params, MBEDTLS_PKCS12_PBE_DECRYPT,
 2316              		.loc 1 1080 0
 2317 0078 1F23     		movs	r3, #31
 2318 007a 6B44     		add	r3, r3, sp
 2319 007c 1A78     		ldrb	r2, [r3]
 2320 007e 1E23     		movs	r3, #30
 2321 0080 6B44     		add	r3, r3, sp
 2322 0082 1B78     		ldrb	r3, [r3]
 2323 0084 0496     		str	r6, [sp, #16]
 2324 0086 0F99     		ldr	r1, [sp, #60]
 2325 0088 0391     		str	r1, [sp, #12]
 2326 008a 0E99     		ldr	r1, [sp, #56]
 2327 008c 0291     		str	r1, [sp, #8]
 2328 008e 1699     		ldr	r1, [sp, #88]
 2329 0090 0191     		str	r1, [sp, #4]
 2330 0092 0095     		str	r5, [sp]
 2331 0094 0021     		movs	r1, #0
 2332 0096 08A8     		add	r0, sp, #32
 2333 0098 FFF7FEFF 		bl	mbedtls_pkcs12_pbe
 2334              	.LVL366:
 2335 009c 0028     		cmp	r0, #0
 2336 009e 45D0     		beq	.L143
1081:Source\mbedtls_open\library/pkparse.c ****                                 cipher_alg, md_alg,
1082:Source\mbedtls_open\library/pkparse.c ****                                 pwd, pwdlen, p, len, buf ) ) != 0 )
1083:Source\mbedtls_open\library/pkparse.c ****         {
1084:Source\mbedtls_open\library/pkparse.c ****             if( ret == MBEDTLS_ERR_PKCS12_PASSWORD_MISMATCH )
 2337              		.loc 1 1084 0
 2338 00a0 2D4B     		ldr	r3, .L153+4
 2339 00a2 9842     		cmp	r0, r3
 2340 00a4 54D1     		bne	.L133
1085:Source\mbedtls_open\library/pkparse.c ****                 return( MBEDTLS_ERR_PK_PASSWORD_MISMATCH );
 2341              		.loc 1 1085 0
 2342 00a6 2D48     		ldr	r0, .L153+8
 2343              	.LVL367:
 2344 00a8 52E0     		b	.L133
 2345              	.L137:
1086:Source\mbedtls_open\library/pkparse.c **** 
1087:Source\mbedtls_open\library/pkparse.c ****             return( ret );
1088:Source\mbedtls_open\library/pkparse.c ****         }
1089:Source\mbedtls_open\library/pkparse.c **** 
1090:Source\mbedtls_open\library/pkparse.c ****         decrypted = 1;
1091:Source\mbedtls_open\library/pkparse.c ****     }
1092:Source\mbedtls_open\library/pkparse.c ****     else if( MBEDTLS_OID_CMP( MBEDTLS_OID_PKCS12_PBE_SHA1_RC4_128, &pbe_alg_oid ) == 0 )
 2346              		.loc 1 1092 0
ARM GAS  C:\Users\Phuong\AppData\Local\Temp\ccG6FMOL.s 			page 64


 2347 00aa 0C9F     		ldr	r7, [sp, #48]
 2348 00ac 0A2F     		cmp	r7, #10
 2349 00ae 08D1     		bne	.L145
 2350              		.loc 1 1092 0 is_stmt 0 discriminator 2
 2351 00b0 3A00     		movs	r2, r7
 2352 00b2 0D99     		ldr	r1, [sp, #52]
 2353 00b4 2A48     		ldr	r0, .L153+12
 2354 00b6 FFF7FEFF 		bl	memcmp
 2355              	.LVL368:
 2356 00ba 0028     		cmp	r0, #0
 2357 00bc 02D0     		beq	.L139
 2358              		.loc 1 1092 0
 2359 00be 0120     		movs	r0, #1
 2360 00c0 00E0     		b	.L139
 2361              	.L145:
 2362 00c2 0120     		movs	r0, #1
 2363              	.L139:
 2364              		.loc 1 1092 0 discriminator 6
 2365 00c4 0028     		cmp	r0, #0
 2366 00c6 11D1     		bne	.L140
1093:Source\mbedtls_open\library/pkparse.c ****     {
1094:Source\mbedtls_open\library/pkparse.c ****         if( ( ret = mbedtls_pkcs12_pbe_sha1_rc4_128( &pbe_params,
 2367              		.loc 1 1094 0 is_stmt 1
 2368 00c8 0296     		str	r6, [sp, #8]
 2369 00ca 0F9B     		ldr	r3, [sp, #60]
 2370 00cc 0193     		str	r3, [sp, #4]
 2371 00ce 0E9B     		ldr	r3, [sp, #56]
 2372 00d0 0093     		str	r3, [sp]
 2373 00d2 169B     		ldr	r3, [sp, #88]
 2374 00d4 2A00     		movs	r2, r5
 2375 00d6 0021     		movs	r1, #0
 2376 00d8 08A8     		add	r0, sp, #32
 2377 00da FFF7FEFF 		bl	mbedtls_pkcs12_pbe_sha1_rc4_128
 2378              	.LVL369:
 2379 00de 0028     		cmp	r0, #0
 2380 00e0 36D1     		bne	.L133
1095:Source\mbedtls_open\library/pkparse.c ****                                              MBEDTLS_PKCS12_PBE_DECRYPT,
1096:Source\mbedtls_open\library/pkparse.c ****                                              pwd, pwdlen,
1097:Source\mbedtls_open\library/pkparse.c ****                                              p, len, buf ) ) != 0 )
1098:Source\mbedtls_open\library/pkparse.c ****         {
1099:Source\mbedtls_open\library/pkparse.c ****             return( ret );
1100:Source\mbedtls_open\library/pkparse.c ****         }
1101:Source\mbedtls_open\library/pkparse.c **** 
1102:Source\mbedtls_open\library/pkparse.c ****         // Best guess for password mismatch when using RC4. If first tag is
1103:Source\mbedtls_open\library/pkparse.c ****         // not MBEDTLS_ASN1_CONSTRUCTED | MBEDTLS_ASN1_SEQUENCE
1104:Source\mbedtls_open\library/pkparse.c ****         //
1105:Source\mbedtls_open\library/pkparse.c ****         if( *buf != ( MBEDTLS_ASN1_CONSTRUCTED | MBEDTLS_ASN1_SEQUENCE ) )
 2381              		.loc 1 1105 0
 2382 00e2 3378     		ldrb	r3, [r6]
 2383 00e4 302B     		cmp	r3, #48
 2384 00e6 30D1     		bne	.L147
1106:Source\mbedtls_open\library/pkparse.c ****             return( MBEDTLS_ERR_PK_PASSWORD_MISMATCH );
1107:Source\mbedtls_open\library/pkparse.c **** 
1108:Source\mbedtls_open\library/pkparse.c ****         decrypted = 1;
 2385              		.loc 1 1108 0
 2386 00e8 2F3B     		subs	r3, r3, #47
 2387 00ea 24E0     		b	.L138
ARM GAS  C:\Users\Phuong\AppData\Local\Temp\ccG6FMOL.s 			page 65


 2388              	.LVL370:
 2389              	.L140:
1109:Source\mbedtls_open\library/pkparse.c ****     }
1110:Source\mbedtls_open\library/pkparse.c ****     else
1111:Source\mbedtls_open\library/pkparse.c **** #endif /* MBEDTLS_PKCS12_C */
1112:Source\mbedtls_open\library/pkparse.c **** #if defined(MBEDTLS_PKCS5_C)
1113:Source\mbedtls_open\library/pkparse.c ****     if( MBEDTLS_OID_CMP( MBEDTLS_OID_PKCS5_PBES2, &pbe_alg_oid ) == 0 )
 2390              		.loc 1 1113 0
 2391 00ec 092F     		cmp	r7, #9
 2392 00ee 08D1     		bne	.L148
 2393              		.loc 1 1113 0 is_stmt 0 discriminator 2
 2394 00f0 3A00     		movs	r2, r7
 2395 00f2 0D99     		ldr	r1, [sp, #52]
 2396 00f4 1B48     		ldr	r0, .L153+16
 2397 00f6 FFF7FEFF 		bl	memcmp
 2398              	.LVL371:
 2399 00fa 0028     		cmp	r0, #0
 2400 00fc 02D0     		beq	.L141
 2401              		.loc 1 1113 0
 2402 00fe 0120     		movs	r0, #1
 2403 0100 00E0     		b	.L141
 2404              	.L148:
 2405 0102 0120     		movs	r0, #1
 2406              	.L141:
 2407              		.loc 1 1113 0 discriminator 6
 2408 0104 0028     		cmp	r0, #0
 2409 0106 13D1     		bne	.L149
1114:Source\mbedtls_open\library/pkparse.c ****     {
1115:Source\mbedtls_open\library/pkparse.c ****         if( ( ret = mbedtls_pkcs5_pbes2( &pbe_params, MBEDTLS_PKCS5_DECRYPT, pwd, pwdlen,
 2410              		.loc 1 1115 0 is_stmt 1
 2411 0108 0296     		str	r6, [sp, #8]
 2412 010a 0F9B     		ldr	r3, [sp, #60]
 2413 010c 0193     		str	r3, [sp, #4]
 2414 010e 0E9B     		ldr	r3, [sp, #56]
 2415 0110 0093     		str	r3, [sp]
 2416 0112 169B     		ldr	r3, [sp, #88]
 2417 0114 2A00     		movs	r2, r5
 2418 0116 0021     		movs	r1, #0
 2419 0118 08A8     		add	r0, sp, #32
 2420 011a FFF7FEFF 		bl	mbedtls_pkcs5_pbes2
 2421              	.LVL372:
 2422 011e 0028     		cmp	r0, #0
 2423 0120 08D0     		beq	.L150
1116:Source\mbedtls_open\library/pkparse.c ****                                   p, len, buf ) ) != 0 )
1117:Source\mbedtls_open\library/pkparse.c ****         {
1118:Source\mbedtls_open\library/pkparse.c ****             if( ret == MBEDTLS_ERR_PKCS5_PASSWORD_MISMATCH )
 2424              		.loc 1 1118 0
 2425 0122 114B     		ldr	r3, .L153+20
 2426 0124 9842     		cmp	r0, r3
 2427 0126 13D1     		bne	.L133
1119:Source\mbedtls_open\library/pkparse.c ****                 return( MBEDTLS_ERR_PK_PASSWORD_MISMATCH );
 2428              		.loc 1 1119 0
 2429 0128 0C48     		ldr	r0, .L153+8
 2430              	.LVL373:
 2431 012a 11E0     		b	.L133
 2432              	.LVL374:
 2433              	.L143:
ARM GAS  C:\Users\Phuong\AppData\Local\Temp\ccG6FMOL.s 			page 66


1090:Source\mbedtls_open\library/pkparse.c ****     }
 2434              		.loc 1 1090 0
 2435 012c 0123     		movs	r3, #1
 2436 012e 02E0     		b	.L138
 2437              	.LVL375:
 2438              	.L149:
1027:Source\mbedtls_open\library/pkparse.c ****     size_t len;
 2439              		.loc 1 1027 0
 2440 0130 0023     		movs	r3, #0
 2441 0132 00E0     		b	.L138
 2442              	.LVL376:
 2443              	.L150:
1120:Source\mbedtls_open\library/pkparse.c **** 
1121:Source\mbedtls_open\library/pkparse.c ****             return( ret );
1122:Source\mbedtls_open\library/pkparse.c ****         }
1123:Source\mbedtls_open\library/pkparse.c **** 
1124:Source\mbedtls_open\library/pkparse.c ****         decrypted = 1;
 2444              		.loc 1 1124 0
 2445 0134 0123     		movs	r3, #1
 2446              	.LVL377:
 2447              	.L138:
1125:Source\mbedtls_open\library/pkparse.c ****     }
1126:Source\mbedtls_open\library/pkparse.c ****     else
1127:Source\mbedtls_open\library/pkparse.c **** #endif /* MBEDTLS_PKCS5_C */
1128:Source\mbedtls_open\library/pkparse.c ****     {
1129:Source\mbedtls_open\library/pkparse.c ****         ((void) pwd);
1130:Source\mbedtls_open\library/pkparse.c ****     }
1131:Source\mbedtls_open\library/pkparse.c **** 
1132:Source\mbedtls_open\library/pkparse.c ****     if( decrypted == 0 )
 2448              		.loc 1 1132 0
 2449 0136 002B     		cmp	r3, #0
 2450 0138 09D0     		beq	.L152
1133:Source\mbedtls_open\library/pkparse.c ****         return( MBEDTLS_ERR_PK_FEATURE_UNAVAILABLE );
1134:Source\mbedtls_open\library/pkparse.c **** 
1135:Source\mbedtls_open\library/pkparse.c ****     return( pk_parse_key_pkcs8_unencrypted_der( pk, buf, len ) );
 2451              		.loc 1 1135 0
 2452 013a 0F9A     		ldr	r2, [sp, #60]
 2453 013c 3100     		movs	r1, r6
 2454 013e 2000     		movs	r0, r4
 2455 0140 FFF7FEFF 		bl	pk_parse_key_pkcs8_unencrypted_der
 2456              	.LVL378:
 2457 0144 04E0     		b	.L133
 2458              	.LVL379:
 2459              	.L142:
1041:Source\mbedtls_open\library/pkparse.c **** 
 2460              		.loc 1 1041 0
 2461 0146 0948     		ldr	r0, .L153+24
 2462              	.LVL380:
 2463 0148 02E0     		b	.L133
 2464              	.LVL381:
 2465              	.L147:
1106:Source\mbedtls_open\library/pkparse.c **** 
 2466              		.loc 1 1106 0
 2467 014a 0448     		ldr	r0, .L153+8
 2468              	.LVL382:
 2469 014c 00E0     		b	.L133
 2470              	.LVL383:
ARM GAS  C:\Users\Phuong\AppData\Local\Temp\ccG6FMOL.s 			page 67


 2471              	.L152:
1133:Source\mbedtls_open\library/pkparse.c ****         return( MBEDTLS_ERR_PK_FEATURE_UNAVAILABLE );
 2472              		.loc 1 1133 0
 2473 014e 0848     		ldr	r0, .L153+28
 2474              	.LVL384:
 2475              	.L133:
1136:Source\mbedtls_open\library/pkparse.c **** }
 2476              		.loc 1 1136 0
 2477 0150 11B0     		add	sp, sp, #68
 2478              		@ sp needed
 2479              	.LVL385:
 2480              	.LVL386:
 2481 0152 F0BD     		pop	{r4, r5, r6, r7, pc}
 2482              	.L154:
 2483              		.align	2
 2484              	.L153:
 2485 0154 00C3FFFF 		.word	-15616
 2486 0158 00E2FFFF 		.word	-7680
 2487 015c 80C4FFFF 		.word	-15232
 2488 0160 08000000 		.word	.LC2
 2489 0164 14000000 		.word	.LC4
 2490 0168 00D2FFFF 		.word	-11776
 2491 016c 00C4FFFF 		.word	-15360
 2492 0170 80C6FFFF 		.word	-14720
 2493              		.cfi_endproc
 2494              	.LFE23:
 2495              		.size	pk_parse_key_pkcs8_encrypted_der, .-pk_parse_key_pkcs8_encrypted_der
 2496              		.section	.text.mbedtls_pk_parse_subpubkey,"ax",%progbits
 2497              		.align	2
 2498              		.global	mbedtls_pk_parse_subpubkey
 2499              		.code	16
 2500              		.thumb_func
 2501              		.type	mbedtls_pk_parse_subpubkey, %function
 2502              	mbedtls_pk_parse_subpubkey:
 2503              	.LFB19:
 601:Source\mbedtls_open\library/pkparse.c ****     int ret;
 2504              		.loc 1 601 0
 2505              		.cfi_startproc
 2506              		@ args = 0, pretend = 0, frame = 48
 2507              		@ frame_needed = 0, uses_anonymous_args = 0
 2508              	.LVL387:
 2509 0000 F0B5     		push	{r4, r5, r6, r7, lr}
 2510              		.cfi_def_cfa_offset 20
 2511              		.cfi_offset 4, -20
 2512              		.cfi_offset 5, -16
 2513              		.cfi_offset 6, -12
 2514              		.cfi_offset 7, -8
 2515              		.cfi_offset 14, -4
 2516 0002 8DB0     		sub	sp, sp, #52
 2517              		.cfi_def_cfa_offset 72
 2518 0004 0600     		movs	r6, r0
 2519 0006 1400     		movs	r4, r2
 605:Source\mbedtls_open\library/pkparse.c ****     const mbedtls_pk_info_t *pk_info;
 2520              		.loc 1 605 0
 2521 0008 0022     		movs	r2, #0
 2522              	.LVL388:
 2523 000a 1F23     		movs	r3, #31
ARM GAS  C:\Users\Phuong\AppData\Local\Temp\ccG6FMOL.s 			page 68


 2524 000c 6B44     		add	r3, r3, sp
 2525 000e 1A70     		strb	r2, [r3]
 608:Source\mbedtls_open\library/pkparse.c ****                     MBEDTLS_ASN1_CONSTRUCTED | MBEDTLS_ASN1_SEQUENCE ) ) != 0 )
 2526              		.loc 1 608 0
 2527 0010 3023     		movs	r3, #48
 2528 0012 0BAA     		add	r2, sp, #44
 2529 0014 FFF7FEFF 		bl	mbedtls_asn1_get_tag
 2530              	.LVL389:
 2531 0018 0028     		cmp	r0, #0
 2532 001a 03D0     		beq	.L156
 611:Source\mbedtls_open\library/pkparse.c ****     }
 2533              		.loc 1 611 0
 2534 001c 364B     		ldr	r3, .L169
 2535 001e 9C46     		mov	ip, r3
 2536 0020 6044     		add	r0, r0, ip
 2537              	.LVL390:
 2538 0022 67E0     		b	.L157
 2539              	.LVL391:
 2540              	.L156:
 614:Source\mbedtls_open\library/pkparse.c **** 
 2541              		.loc 1 614 0
 2542 0024 3368     		ldr	r3, [r6]
 2543 0026 0B9A     		ldr	r2, [sp, #44]
 2544 0028 9446     		mov	ip, r2
 2545 002a 6344     		add	r3, r3, ip
 2546 002c 1F00     		movs	r7, r3
 2547              	.LVL392:
 616:Source\mbedtls_open\library/pkparse.c ****         return( ret );
 2548              		.loc 1 616 0
 2549 002e 08AB     		add	r3, sp, #32
 2550              	.LVL393:
 2551 0030 1F22     		movs	r2, #31
 2552 0032 6A44     		add	r2, r2, sp
 2553 0034 3900     		movs	r1, r7
 2554 0036 3000     		movs	r0, r6
 2555              	.LVL394:
 2556 0038 FFF7FEFF 		bl	pk_get_pk_alg
 2557              	.LVL395:
 2558 003c 0028     		cmp	r0, #0
 2559 003e 59D1     		bne	.L157
 619:Source\mbedtls_open\library/pkparse.c ****         return( MBEDTLS_ERR_PK_INVALID_PUBKEY + ret );
 2560              		.loc 1 619 0
 2561 0040 0BAA     		add	r2, sp, #44
 2562 0042 3900     		movs	r1, r7
 2563 0044 3000     		movs	r0, r6
 2564              	.LVL396:
 2565 0046 FFF7FEFF 		bl	mbedtls_asn1_get_bitstring_null
 2566              	.LVL397:
 2567 004a 0028     		cmp	r0, #0
 2568 004c 03D0     		beq	.L158
 620:Source\mbedtls_open\library/pkparse.c **** 
 2569              		.loc 1 620 0
 2570 004e 2B4B     		ldr	r3, .L169+4
 2571 0050 9C46     		mov	ip, r3
 2572 0052 6044     		add	r0, r0, ip
 2573              	.LVL398:
 2574 0054 4EE0     		b	.L157
ARM GAS  C:\Users\Phuong\AppData\Local\Temp\ccG6FMOL.s 			page 69


 2575              	.LVL399:
 2576              	.L158:
 622:Source\mbedtls_open\library/pkparse.c ****         return( MBEDTLS_ERR_PK_INVALID_PUBKEY +
 2577              		.loc 1 622 0
 2578 0056 3368     		ldr	r3, [r6]
 2579 0058 0B9A     		ldr	r2, [sp, #44]
 2580 005a 9446     		mov	ip, r2
 2581 005c 6344     		add	r3, r3, ip
 2582 005e 9F42     		cmp	r7, r3
 2583 0060 43D1     		bne	.L163
 626:Source\mbedtls_open\library/pkparse.c ****         return( MBEDTLS_ERR_PK_UNKNOWN_PK_ALG );
 2584              		.loc 1 626 0
 2585 0062 1F23     		movs	r3, #31
 2586 0064 6B44     		add	r3, r3, sp
 2587 0066 1878     		ldrb	r0, [r3]
 2588              	.LVL400:
 2589 0068 FFF7FEFF 		bl	mbedtls_pk_info_from_type
 2590              	.LVL401:
 2591 006c 0028     		cmp	r0, #0
 2592 006e 3ED0     		beq	.L164
 629:Source\mbedtls_open\library/pkparse.c ****         return( ret );
 2593              		.loc 1 629 0
 2594 0070 0100     		movs	r1, r0
 2595 0072 2000     		movs	r0, r4
 2596              	.LVL402:
 2597 0074 FFF7FEFF 		bl	mbedtls_pk_setup
 2598              	.LVL403:
 2599 0078 0028     		cmp	r0, #0
 2600 007a 3BD1     		bne	.L157
 633:Source\mbedtls_open\library/pkparse.c ****     {
 2601              		.loc 1 633 0
 2602 007c 1F23     		movs	r3, #31
 2603 007e 6B44     		add	r3, r3, sp
 2604 0080 1B78     		ldrb	r3, [r3]
 2605 0082 012B     		cmp	r3, #1
 2606 0084 0AD1     		bne	.L159
 2607 0086 01AB     		add	r3, sp, #4
 2608 0088 2200     		movs	r2, r4
 2609 008a 03CA     		ldmia	r2!, {r0, r1}
 2610 008c 03C3     		stmia	r3!, {r0, r1}
 2611              	.LVL404:
 635:Source\mbedtls_open\library/pkparse.c ****     } else
 2612              		.loc 1 635 0
 2613 008e 6268     		ldr	r2, [r4, #4]
 2614 0090 3900     		movs	r1, r7
 2615 0092 3000     		movs	r0, r6
 2616 0094 FFF7FEFF 		bl	pk_get_rsapubkey
 2617              	.LVL405:
 2618 0098 0500     		movs	r5, r0
 2619              	.LVL406:
 2620 009a 19E0     		b	.L160
 2621              	.L159:
 639:Source\mbedtls_open\library/pkparse.c ****     {
 2622              		.loc 1 639 0
 2623 009c 023B     		subs	r3, r3, #2
 2624 009e DBB2     		uxtb	r3, r3
 2625 00a0 012B     		cmp	r3, #1
ARM GAS  C:\Users\Phuong\AppData\Local\Temp\ccG6FMOL.s 			page 70


 2626 00a2 14D8     		bhi	.L166
 2627 00a4 03AB     		add	r3, sp, #12
 2628 00a6 2200     		movs	r2, r4
 2629 00a8 03CA     		ldmia	r2!, {r0, r1}
 2630 00aa 03C3     		stmia	r3!, {r0, r1}
 2631              	.LVL407:
 641:Source\mbedtls_open\library/pkparse.c ****         if( ret == 0 )
 2632              		.loc 1 641 0
 2633 00ac 6168     		ldr	r1, [r4, #4]
 2634 00ae 08A8     		add	r0, sp, #32
 2635 00b0 FFF7FEFF 		bl	pk_use_ecparams
 2636              	.LVL408:
 2637 00b4 051E     		subs	r5, r0, #0
 2638              	.LVL409:
 642:Source\mbedtls_open\library/pkparse.c ****             ret = pk_get_ecpubkey( p, end, mbedtls_pk_ec( *pk ) );
 2639              		.loc 1 642 0
 2640 00b6 0BD1     		bne	.L160
 2641 00b8 05AB     		add	r3, sp, #20
 2642 00ba 2200     		movs	r2, r4
 2643 00bc 03CA     		ldmia	r2!, {r0, r1}
 2644 00be 03C3     		stmia	r3!, {r0, r1}
 2645              	.LVL410:
 643:Source\mbedtls_open\library/pkparse.c ****     } else
 2646              		.loc 1 643 0
 2647 00c0 6268     		ldr	r2, [r4, #4]
 2648 00c2 3900     		movs	r1, r7
 2649 00c4 3000     		movs	r0, r6
 2650 00c6 FFF7FEFF 		bl	pk_get_ecpubkey
 2651              	.LVL411:
 2652 00ca 0500     		movs	r5, r0
 2653              	.LVL412:
 2654 00cc 00E0     		b	.L160
 2655              	.L166:
 646:Source\mbedtls_open\library/pkparse.c **** 
 2656              		.loc 1 646 0
 2657 00ce 0C4D     		ldr	r5, .L169+8
 2658              	.L160:
 2659              	.LVL413:
 648:Source\mbedtls_open\library/pkparse.c ****         ret = MBEDTLS_ERR_PK_INVALID_PUBKEY
 2660              		.loc 1 648 0
 2661 00d0 002D     		cmp	r5, #0
 2662 00d2 03D1     		bne	.L161
 648:Source\mbedtls_open\library/pkparse.c ****         ret = MBEDTLS_ERR_PK_INVALID_PUBKEY
 2663              		.loc 1 648 0 is_stmt 0 discriminator 1
 2664 00d4 3368     		ldr	r3, [r6]
 2665 00d6 9F42     		cmp	r7, r3
 2666 00d8 00D0     		beq	.L161
 649:Source\mbedtls_open\library/pkparse.c ****               MBEDTLS_ERR_ASN1_LENGTH_MISMATCH;
 2667              		.loc 1 649 0 is_stmt 1
 2668 00da 0A4D     		ldr	r5, .L169+12
 2669              	.LVL414:
 2670              	.L161:
 652:Source\mbedtls_open\library/pkparse.c ****         mbedtls_pk_free( pk );
 2671              		.loc 1 652 0
 2672 00dc 002D     		cmp	r5, #0
 2673 00de 08D0     		beq	.L168
 653:Source\mbedtls_open\library/pkparse.c **** 
ARM GAS  C:\Users\Phuong\AppData\Local\Temp\ccG6FMOL.s 			page 71


 2674              		.loc 1 653 0
 2675 00e0 2000     		movs	r0, r4
 2676 00e2 FFF7FEFF 		bl	mbedtls_pk_free
 2677              	.LVL415:
 655:Source\mbedtls_open\library/pkparse.c **** }
 2678              		.loc 1 655 0
 2679 00e6 2800     		movs	r0, r5
 2680 00e8 04E0     		b	.L157
 2681              	.LVL416:
 2682              	.L163:
 623:Source\mbedtls_open\library/pkparse.c ****                 MBEDTLS_ERR_ASN1_LENGTH_MISMATCH );
 2683              		.loc 1 623 0
 2684 00ea 0648     		ldr	r0, .L169+12
 2685              	.LVL417:
 2686 00ec 02E0     		b	.L157
 2687              	.LVL418:
 2688              	.L164:
 627:Source\mbedtls_open\library/pkparse.c **** 
 2689              		.loc 1 627 0
 2690 00ee 0448     		ldr	r0, .L169+8
 2691              	.LVL419:
 2692 00f0 00E0     		b	.L157
 2693              	.LVL420:
 2694              	.L168:
 655:Source\mbedtls_open\library/pkparse.c **** }
 2695              		.loc 1 655 0
 2696 00f2 2800     		movs	r0, r5
 2697              	.LVL421:
 2698              	.L157:
 656:Source\mbedtls_open\library/pkparse.c **** 
 2699              		.loc 1 656 0
 2700 00f4 0DB0     		add	sp, sp, #52
 2701              		@ sp needed
 2702              	.LVL422:
 2703              	.LVL423:
 2704 00f6 F0BD     		pop	{r4, r5, r6, r7, pc}
 2705              	.L170:
 2706              		.align	2
 2707              	.L169:
 2708 00f8 00C3FFFF 		.word	-15616
 2709 00fc 00C5FFFF 		.word	-15104
 2710 0100 80C3FFFF 		.word	-15488
 2711 0104 9AC4FFFF 		.word	-15206
 2712              		.cfi_endproc
 2713              	.LFE19:
 2714              		.size	mbedtls_pk_parse_subpubkey, .-mbedtls_pk_parse_subpubkey
 2715              		.section	.text.mbedtls_pk_parse_key,"ax",%progbits
 2716              		.align	2
 2717              		.global	mbedtls_pk_parse_key
 2718              		.code	16
 2719              		.thumb_func
 2720              		.type	mbedtls_pk_parse_key, %function
 2721              	mbedtls_pk_parse_key:
 2722              	.LFB24:
1137:Source\mbedtls_open\library/pkparse.c **** #endif /* MBEDTLS_PKCS12_C || MBEDTLS_PKCS5_C */
1138:Source\mbedtls_open\library/pkparse.c **** 
1139:Source\mbedtls_open\library/pkparse.c **** /*
ARM GAS  C:\Users\Phuong\AppData\Local\Temp\ccG6FMOL.s 			page 72


1140:Source\mbedtls_open\library/pkparse.c ****  * Parse a private key
1141:Source\mbedtls_open\library/pkparse.c ****  */
1142:Source\mbedtls_open\library/pkparse.c **** int mbedtls_pk_parse_key( mbedtls_pk_context *pk,
1143:Source\mbedtls_open\library/pkparse.c ****                   const unsigned char *key, size_t keylen,
1144:Source\mbedtls_open\library/pkparse.c ****                   const unsigned char *pwd, size_t pwdlen )
1145:Source\mbedtls_open\library/pkparse.c **** {
 2723              		.loc 1 1145 0
 2724              		.cfi_startproc
 2725              		@ args = 4, pretend = 0, frame = 56
 2726              		@ frame_needed = 0, uses_anonymous_args = 0
 2727              	.LVL424:
 2728 0000 F0B5     		push	{r4, r5, r6, r7, lr}
 2729              		.cfi_def_cfa_offset 20
 2730              		.cfi_offset 4, -20
 2731              		.cfi_offset 5, -16
 2732              		.cfi_offset 6, -12
 2733              		.cfi_offset 7, -8
 2734              		.cfi_offset 14, -4
 2735 0002 93B0     		sub	sp, sp, #76
 2736              		.cfi_def_cfa_offset 96
 2737 0004 0600     		movs	r6, r0
 2738 0006 0D00     		movs	r5, r1
 2739 0008 1700     		movs	r7, r2
 2740 000a 1C00     		movs	r4, r3
1146:Source\mbedtls_open\library/pkparse.c ****     int ret;
1147:Source\mbedtls_open\library/pkparse.c ****     const mbedtls_pk_info_t *pk_info;
1148:Source\mbedtls_open\library/pkparse.c **** 
1149:Source\mbedtls_open\library/pkparse.c **** #if defined(MBEDTLS_PEM_PARSE_C)
1150:Source\mbedtls_open\library/pkparse.c ****     size_t len;
1151:Source\mbedtls_open\library/pkparse.c ****     mbedtls_pem_context pem;
1152:Source\mbedtls_open\library/pkparse.c **** 
1153:Source\mbedtls_open\library/pkparse.c ****     mbedtls_pem_init( &pem );
 2741              		.loc 1 1153 0
 2742 000c 0EA8     		add	r0, sp, #56
 2743              	.LVL425:
 2744 000e FFF7FEFF 		bl	mbedtls_pem_init
 2745              	.LVL426:
1154:Source\mbedtls_open\library/pkparse.c **** 
1155:Source\mbedtls_open\library/pkparse.c **** #if defined(MBEDTLS_RSA_C)
1156:Source\mbedtls_open\library/pkparse.c ****     /* Avoid calling mbedtls_pem_read_buffer() on non-null-terminated string */
1157:Source\mbedtls_open\library/pkparse.c ****     if( keylen == 0 || key[keylen - 1] != '\0' )
 2746              		.loc 1 1157 0
 2747 0012 002F     		cmp	r7, #0
 2748 0014 10D0     		beq	.L189
 2749              		.loc 1 1157 0 is_stmt 0 discriminator 1
 2750 0016 EB19     		adds	r3, r5, r7
 2751 0018 013B     		subs	r3, r3, #1
 2752 001a 1B78     		ldrb	r3, [r3]
 2753 001c 002B     		cmp	r3, #0
 2754 001e 0DD1     		bne	.L190
1158:Source\mbedtls_open\library/pkparse.c ****         ret = MBEDTLS_ERR_PEM_NO_HEADER_FOOTER_PRESENT;
1159:Source\mbedtls_open\library/pkparse.c ****     else
1160:Source\mbedtls_open\library/pkparse.c ****         ret = mbedtls_pem_read_buffer( &pem,
 2755              		.loc 1 1160 0 is_stmt 1
 2756 0020 11AB     		add	r3, sp, #68
 2757 0022 0293     		str	r3, [sp, #8]
 2758 0024 189B     		ldr	r3, [sp, #96]
ARM GAS  C:\Users\Phuong\AppData\Local\Temp\ccG6FMOL.s 			page 73


 2759 0026 0193     		str	r3, [sp, #4]
 2760 0028 0094     		str	r4, [sp]
 2761 002a 2B00     		movs	r3, r5
 2762 002c 9A4A     		ldr	r2, .L206
 2763 002e 9B49     		ldr	r1, .L206+4
 2764 0030 0EA8     		add	r0, sp, #56
 2765 0032 FFF7FEFF 		bl	mbedtls_pem_read_buffer
 2766              	.LVL427:
 2767 0036 02E0     		b	.L172
 2768              	.LVL428:
 2769              	.L189:
1158:Source\mbedtls_open\library/pkparse.c ****         ret = MBEDTLS_ERR_PEM_NO_HEADER_FOOTER_PRESENT;
 2770              		.loc 1 1158 0
 2771 0038 9948     		ldr	r0, .L206+8
 2772 003a 00E0     		b	.L172
 2773              	.L190:
 2774 003c 9848     		ldr	r0, .L206+8
 2775              	.L172:
 2776              	.LVL429:
1161:Source\mbedtls_open\library/pkparse.c ****                                "-----BEGIN RSA PRIVATE KEY-----",
1162:Source\mbedtls_open\library/pkparse.c ****                                "-----END RSA PRIVATE KEY-----",
1163:Source\mbedtls_open\library/pkparse.c ****                                key, pwd, pwdlen, &len );
1164:Source\mbedtls_open\library/pkparse.c **** 
1165:Source\mbedtls_open\library/pkparse.c ****     if( ret == 0 )
 2777              		.loc 1 1165 0
 2778 003e 0028     		cmp	r0, #0
 2779 0040 1BD1     		bne	.L173
1166:Source\mbedtls_open\library/pkparse.c ****     {
1167:Source\mbedtls_open\library/pkparse.c ****         pk_info = mbedtls_pk_info_from_type( MBEDTLS_PK_RSA );
 2780              		.loc 1 1167 0
 2781 0042 0130     		adds	r0, r0, #1
 2782              	.LVL430:
 2783 0044 FFF7FEFF 		bl	mbedtls_pk_info_from_type
 2784              	.LVL431:
 2785 0048 0100     		movs	r1, r0
 2786              	.LVL432:
1168:Source\mbedtls_open\library/pkparse.c ****         if( ( ret = mbedtls_pk_setup( pk, pk_info ) ) != 0 ||
 2787              		.loc 1 1168 0
 2788 004a 3000     		movs	r0, r6
 2789              	.LVL433:
 2790 004c FFF7FEFF 		bl	mbedtls_pk_setup
 2791              	.LVL434:
 2792 0050 041E     		subs	r4, r0, #0
 2793              	.LVL435:
 2794 0052 0AD1     		bne	.L174
 2795 0054 06AB     		add	r3, sp, #24
 2796 0056 3200     		movs	r2, r6
 2797 0058 03CA     		ldmia	r2!, {r0, r1}
 2798 005a 03C3     		stmia	r3!, {r0, r1}
 2799              	.LVL436:
 2800              		.loc 1 1168 0 is_stmt 0 discriminator 1
 2801 005c 0F9A     		ldr	r2, [sp, #60]
 2802 005e 0E99     		ldr	r1, [sp, #56]
 2803 0060 7068     		ldr	r0, [r6, #4]
 2804 0062 FFF7FEFF 		bl	pk_parse_key_pkcs1_der
 2805              	.LVL437:
 2806 0066 041E     		subs	r4, r0, #0
ARM GAS  C:\Users\Phuong\AppData\Local\Temp\ccG6FMOL.s 			page 74


 2807              	.LVL438:
 2808 0068 02D0     		beq	.L175
 2809              	.L174:
1169:Source\mbedtls_open\library/pkparse.c ****             ( ret = pk_parse_key_pkcs1_der( mbedtls_pk_rsa( *pk ),
1170:Source\mbedtls_open\library/pkparse.c ****                                             pem.buf, pem.buflen ) ) != 0 )
1171:Source\mbedtls_open\library/pkparse.c ****         {
1172:Source\mbedtls_open\library/pkparse.c ****             mbedtls_pk_free( pk );
 2810              		.loc 1 1172 0 is_stmt 1
 2811 006a 3000     		movs	r0, r6
 2812              	.LVL439:
 2813 006c FFF7FEFF 		bl	mbedtls_pk_free
 2814              	.LVL440:
 2815              	.L175:
1173:Source\mbedtls_open\library/pkparse.c ****         }
1174:Source\mbedtls_open\library/pkparse.c **** 
1175:Source\mbedtls_open\library/pkparse.c ****         mbedtls_pem_free( &pem );
 2816              		.loc 1 1175 0
 2817 0070 0EA8     		add	r0, sp, #56
 2818 0072 FFF7FEFF 		bl	mbedtls_pem_free
 2819              	.LVL441:
1176:Source\mbedtls_open\library/pkparse.c ****         return( ret );
 2820              		.loc 1 1176 0
 2821 0076 2000     		movs	r0, r4
 2822 0078 0BE1     		b	.L176
 2823              	.LVL442:
 2824              	.L173:
1177:Source\mbedtls_open\library/pkparse.c ****     }
1178:Source\mbedtls_open\library/pkparse.c ****     else if( ret == MBEDTLS_ERR_PEM_PASSWORD_MISMATCH )
 2825              		.loc 1 1178 0
 2826 007a 8A4B     		ldr	r3, .L206+12
 2827 007c 9842     		cmp	r0, r3
 2828 007e 00D1     		bne	.LCB3087
 2829 0080 F2E0     		b	.L191	@long jump
 2830              	.LCB3087:
1179:Source\mbedtls_open\library/pkparse.c ****         return( MBEDTLS_ERR_PK_PASSWORD_MISMATCH );
1180:Source\mbedtls_open\library/pkparse.c ****     else if( ret == MBEDTLS_ERR_PEM_PASSWORD_REQUIRED )
 2831              		.loc 1 1180 0
 2832 0082 894B     		ldr	r3, .L206+16
 2833 0084 9842     		cmp	r0, r3
 2834 0086 00D1     		bne	.LCB3090
 2835 0088 F0E0     		b	.L192	@long jump
 2836              	.LCB3090:
1181:Source\mbedtls_open\library/pkparse.c ****         return( MBEDTLS_ERR_PK_PASSWORD_REQUIRED );
1182:Source\mbedtls_open\library/pkparse.c ****     else if( ret != MBEDTLS_ERR_PEM_NO_HEADER_FOOTER_PRESENT )
 2837              		.loc 1 1182 0
 2838 008a 854B     		ldr	r3, .L206+8
 2839 008c 9842     		cmp	r0, r3
 2840 008e 00D0     		beq	.LCB3093
 2841 0090 FFE0     		b	.L176	@long jump
 2842              	.LCB3093:
1183:Source\mbedtls_open\library/pkparse.c ****         return( ret );
1184:Source\mbedtls_open\library/pkparse.c **** #endif /* MBEDTLS_RSA_C */
1185:Source\mbedtls_open\library/pkparse.c **** 
1186:Source\mbedtls_open\library/pkparse.c **** #if defined(MBEDTLS_ECP_C)
1187:Source\mbedtls_open\library/pkparse.c ****     /* Avoid calling mbedtls_pem_read_buffer() on non-null-terminated string */
1188:Source\mbedtls_open\library/pkparse.c ****     if( keylen == 0 || key[keylen - 1] != '\0' )
 2843              		.loc 1 1188 0
ARM GAS  C:\Users\Phuong\AppData\Local\Temp\ccG6FMOL.s 			page 75


 2844 0092 002F     		cmp	r7, #0
 2845 0094 0FD0     		beq	.L177
 2846              		.loc 1 1188 0 is_stmt 0 discriminator 1
 2847 0096 EB19     		adds	r3, r5, r7
 2848 0098 013B     		subs	r3, r3, #1
 2849 009a 1B78     		ldrb	r3, [r3]
 2850 009c 002B     		cmp	r3, #0
 2851 009e 0AD1     		bne	.L177
1189:Source\mbedtls_open\library/pkparse.c ****         ret = MBEDTLS_ERR_PEM_NO_HEADER_FOOTER_PRESENT;
1190:Source\mbedtls_open\library/pkparse.c ****     else
1191:Source\mbedtls_open\library/pkparse.c ****         ret = mbedtls_pem_read_buffer( &pem,
 2852              		.loc 1 1191 0 is_stmt 1
 2853 00a0 11AB     		add	r3, sp, #68
 2854 00a2 0293     		str	r3, [sp, #8]
 2855 00a4 189B     		ldr	r3, [sp, #96]
 2856 00a6 0193     		str	r3, [sp, #4]
 2857 00a8 0094     		str	r4, [sp]
 2858 00aa 2B00     		movs	r3, r5
 2859 00ac 7F4A     		ldr	r2, .L206+20
 2860 00ae 8049     		ldr	r1, .L206+24
 2861 00b0 0EA8     		add	r0, sp, #56
 2862              	.LVL443:
 2863 00b2 FFF7FEFF 		bl	mbedtls_pem_read_buffer
 2864              	.LVL444:
 2865              	.L177:
1192:Source\mbedtls_open\library/pkparse.c ****                                "-----BEGIN EC PRIVATE KEY-----",
1193:Source\mbedtls_open\library/pkparse.c ****                                "-----END EC PRIVATE KEY-----",
1194:Source\mbedtls_open\library/pkparse.c ****                                key, pwd, pwdlen, &len );
1195:Source\mbedtls_open\library/pkparse.c ****     if( ret == 0 )
 2866              		.loc 1 1195 0
 2867 00b6 0028     		cmp	r0, #0
 2868 00b8 1BD1     		bne	.L178
1196:Source\mbedtls_open\library/pkparse.c ****     {
1197:Source\mbedtls_open\library/pkparse.c ****         pk_info = mbedtls_pk_info_from_type( MBEDTLS_PK_ECKEY );
 2869              		.loc 1 1197 0
 2870 00ba 0230     		adds	r0, r0, #2
 2871              	.LVL445:
 2872 00bc FFF7FEFF 		bl	mbedtls_pk_info_from_type
 2873              	.LVL446:
 2874 00c0 0100     		movs	r1, r0
 2875              	.LVL447:
1198:Source\mbedtls_open\library/pkparse.c **** 
1199:Source\mbedtls_open\library/pkparse.c ****         if( ( ret = mbedtls_pk_setup( pk, pk_info ) ) != 0 ||
 2876              		.loc 1 1199 0
 2877 00c2 3000     		movs	r0, r6
 2878              	.LVL448:
 2879 00c4 FFF7FEFF 		bl	mbedtls_pk_setup
 2880              	.LVL449:
 2881 00c8 041E     		subs	r4, r0, #0
 2882              	.LVL450:
 2883 00ca 0AD1     		bne	.L179
 2884 00cc 08AB     		add	r3, sp, #32
 2885 00ce 3200     		movs	r2, r6
 2886 00d0 03CA     		ldmia	r2!, {r0, r1}
 2887 00d2 03C3     		stmia	r3!, {r0, r1}
 2888              	.LVL451:
 2889              		.loc 1 1199 0 is_stmt 0 discriminator 1
ARM GAS  C:\Users\Phuong\AppData\Local\Temp\ccG6FMOL.s 			page 76


 2890 00d4 0F9A     		ldr	r2, [sp, #60]
 2891 00d6 0E99     		ldr	r1, [sp, #56]
 2892 00d8 7068     		ldr	r0, [r6, #4]
 2893 00da FFF7FEFF 		bl	pk_parse_key_sec1_der
 2894              	.LVL452:
 2895 00de 041E     		subs	r4, r0, #0
 2896              	.LVL453:
 2897 00e0 02D0     		beq	.L180
 2898              	.L179:
1200:Source\mbedtls_open\library/pkparse.c ****             ( ret = pk_parse_key_sec1_der( mbedtls_pk_ec( *pk ),
1201:Source\mbedtls_open\library/pkparse.c ****                                            pem.buf, pem.buflen ) ) != 0 )
1202:Source\mbedtls_open\library/pkparse.c ****         {
1203:Source\mbedtls_open\library/pkparse.c ****             mbedtls_pk_free( pk );
 2899              		.loc 1 1203 0 is_stmt 1
 2900 00e2 3000     		movs	r0, r6
 2901              	.LVL454:
 2902 00e4 FFF7FEFF 		bl	mbedtls_pk_free
 2903              	.LVL455:
 2904              	.L180:
1204:Source\mbedtls_open\library/pkparse.c ****         }
1205:Source\mbedtls_open\library/pkparse.c **** 
1206:Source\mbedtls_open\library/pkparse.c ****         mbedtls_pem_free( &pem );
 2905              		.loc 1 1206 0
 2906 00e8 0EA8     		add	r0, sp, #56
 2907 00ea FFF7FEFF 		bl	mbedtls_pem_free
 2908              	.LVL456:
1207:Source\mbedtls_open\library/pkparse.c ****         return( ret );
 2909              		.loc 1 1207 0
 2910 00ee 2000     		movs	r0, r4
 2911 00f0 CFE0     		b	.L176
 2912              	.LVL457:
 2913              	.L178:
1208:Source\mbedtls_open\library/pkparse.c ****     }
1209:Source\mbedtls_open\library/pkparse.c ****     else if( ret == MBEDTLS_ERR_PEM_PASSWORD_MISMATCH )
 2914              		.loc 1 1209 0
 2915 00f2 6C4B     		ldr	r3, .L206+12
 2916 00f4 9842     		cmp	r0, r3
 2917 00f6 00D1     		bne	.LCB3183
 2918 00f8 BAE0     		b	.L194	@long jump
 2919              	.LCB3183:
1210:Source\mbedtls_open\library/pkparse.c ****         return( MBEDTLS_ERR_PK_PASSWORD_MISMATCH );
1211:Source\mbedtls_open\library/pkparse.c ****     else if( ret == MBEDTLS_ERR_PEM_PASSWORD_REQUIRED )
 2920              		.loc 1 1211 0
 2921 00fa 6B4B     		ldr	r3, .L206+16
 2922 00fc 9842     		cmp	r0, r3
 2923 00fe 00D1     		bne	.LCB3186
 2924 0100 B8E0     		b	.L195	@long jump
 2925              	.LCB3186:
1212:Source\mbedtls_open\library/pkparse.c ****         return( MBEDTLS_ERR_PK_PASSWORD_REQUIRED );
1213:Source\mbedtls_open\library/pkparse.c ****     else if( ret != MBEDTLS_ERR_PEM_NO_HEADER_FOOTER_PRESENT )
 2926              		.loc 1 1213 0
 2927 0102 674B     		ldr	r3, .L206+8
 2928 0104 9842     		cmp	r0, r3
 2929 0106 00D0     		beq	.LCB3189
 2930 0108 C3E0     		b	.L176	@long jump
 2931              	.LCB3189:
1214:Source\mbedtls_open\library/pkparse.c ****         return( ret );
ARM GAS  C:\Users\Phuong\AppData\Local\Temp\ccG6FMOL.s 			page 77


1215:Source\mbedtls_open\library/pkparse.c **** #endif /* MBEDTLS_ECP_C */
1216:Source\mbedtls_open\library/pkparse.c **** 
1217:Source\mbedtls_open\library/pkparse.c ****     /* Avoid calling mbedtls_pem_read_buffer() on non-null-terminated string */
1218:Source\mbedtls_open\library/pkparse.c ****     if( keylen == 0 || key[keylen - 1] != '\0' )
 2932              		.loc 1 1218 0
 2933 010a 002F     		cmp	r7, #0
 2934 010c 0FD0     		beq	.L181
 2935              		.loc 1 1218 0 is_stmt 0 discriminator 1
 2936 010e EB19     		adds	r3, r5, r7
 2937 0110 013B     		subs	r3, r3, #1
 2938 0112 1B78     		ldrb	r3, [r3]
 2939 0114 002B     		cmp	r3, #0
 2940 0116 0AD1     		bne	.L181
1219:Source\mbedtls_open\library/pkparse.c ****         ret = MBEDTLS_ERR_PEM_NO_HEADER_FOOTER_PRESENT;
1220:Source\mbedtls_open\library/pkparse.c ****     else
1221:Source\mbedtls_open\library/pkparse.c ****         ret = mbedtls_pem_read_buffer( &pem,
 2941              		.loc 1 1221 0 is_stmt 1
 2942 0118 11AB     		add	r3, sp, #68
 2943 011a 0293     		str	r3, [sp, #8]
 2944 011c 0023     		movs	r3, #0
 2945 011e 0193     		str	r3, [sp, #4]
 2946 0120 0093     		str	r3, [sp]
 2947 0122 2B00     		movs	r3, r5
 2948 0124 634A     		ldr	r2, .L206+28
 2949 0126 6449     		ldr	r1, .L206+32
 2950 0128 0EA8     		add	r0, sp, #56
 2951              	.LVL458:
 2952 012a FFF7FEFF 		bl	mbedtls_pem_read_buffer
 2953              	.LVL459:
 2954              	.L181:
1222:Source\mbedtls_open\library/pkparse.c ****                                "-----BEGIN PRIVATE KEY-----",
1223:Source\mbedtls_open\library/pkparse.c ****                                "-----END PRIVATE KEY-----",
1224:Source\mbedtls_open\library/pkparse.c ****                                key, NULL, 0, &len );
1225:Source\mbedtls_open\library/pkparse.c ****     if( ret == 0 )
 2955              		.loc 1 1225 0
 2956 012e 0028     		cmp	r0, #0
 2957 0130 0ED1     		bne	.L182
1226:Source\mbedtls_open\library/pkparse.c ****     {
1227:Source\mbedtls_open\library/pkparse.c ****         if( ( ret = pk_parse_key_pkcs8_unencrypted_der( pk,
 2958              		.loc 1 1227 0
 2959 0132 0F9A     		ldr	r2, [sp, #60]
 2960 0134 0E99     		ldr	r1, [sp, #56]
 2961 0136 3000     		movs	r0, r6
 2962              	.LVL460:
 2963 0138 FFF7FEFF 		bl	pk_parse_key_pkcs8_unencrypted_der
 2964              	.LVL461:
 2965 013c 041E     		subs	r4, r0, #0
 2966              	.LVL462:
 2967 013e 02D0     		beq	.L183
1228:Source\mbedtls_open\library/pkparse.c ****                                                 pem.buf, pem.buflen ) ) != 0 )
1229:Source\mbedtls_open\library/pkparse.c ****         {
1230:Source\mbedtls_open\library/pkparse.c ****             mbedtls_pk_free( pk );
 2968              		.loc 1 1230 0
 2969 0140 3000     		movs	r0, r6
 2970              	.LVL463:
 2971 0142 FFF7FEFF 		bl	mbedtls_pk_free
 2972              	.LVL464:
ARM GAS  C:\Users\Phuong\AppData\Local\Temp\ccG6FMOL.s 			page 78


 2973              	.L183:
1231:Source\mbedtls_open\library/pkparse.c ****         }
1232:Source\mbedtls_open\library/pkparse.c **** 
1233:Source\mbedtls_open\library/pkparse.c ****         mbedtls_pem_free( &pem );
 2974              		.loc 1 1233 0
 2975 0146 0EA8     		add	r0, sp, #56
 2976 0148 FFF7FEFF 		bl	mbedtls_pem_free
 2977              	.LVL465:
1234:Source\mbedtls_open\library/pkparse.c ****         return( ret );
 2978              		.loc 1 1234 0
 2979 014c 2000     		movs	r0, r4
 2980 014e A0E0     		b	.L176
 2981              	.LVL466:
 2982              	.L182:
1235:Source\mbedtls_open\library/pkparse.c ****     }
1236:Source\mbedtls_open\library/pkparse.c ****     else if( ret != MBEDTLS_ERR_PEM_NO_HEADER_FOOTER_PRESENT )
 2983              		.loc 1 1236 0
 2984 0150 534B     		ldr	r3, .L206+8
 2985 0152 9842     		cmp	r0, r3
 2986 0154 00D0     		beq	.LCB3250
 2987 0156 9CE0     		b	.L176	@long jump
 2988              	.LCB3250:
1237:Source\mbedtls_open\library/pkparse.c ****         return( ret );
1238:Source\mbedtls_open\library/pkparse.c **** 
1239:Source\mbedtls_open\library/pkparse.c **** #if defined(MBEDTLS_PKCS12_C) || defined(MBEDTLS_PKCS5_C)
1240:Source\mbedtls_open\library/pkparse.c ****     /* Avoid calling mbedtls_pem_read_buffer() on non-null-terminated string */
1241:Source\mbedtls_open\library/pkparse.c ****     if( keylen == 0 || key[keylen - 1] != '\0' )
 2989              		.loc 1 1241 0
 2990 0158 002F     		cmp	r7, #0
 2991 015a 0FD0     		beq	.L184
 2992              		.loc 1 1241 0 is_stmt 0 discriminator 1
 2993 015c EB19     		adds	r3, r5, r7
 2994 015e 013B     		subs	r3, r3, #1
 2995 0160 1B78     		ldrb	r3, [r3]
 2996 0162 002B     		cmp	r3, #0
 2997 0164 0AD1     		bne	.L184
1242:Source\mbedtls_open\library/pkparse.c ****         ret = MBEDTLS_ERR_PEM_NO_HEADER_FOOTER_PRESENT;
1243:Source\mbedtls_open\library/pkparse.c ****     else
1244:Source\mbedtls_open\library/pkparse.c ****         ret = mbedtls_pem_read_buffer( &pem,
 2998              		.loc 1 1244 0 is_stmt 1
 2999 0166 11AB     		add	r3, sp, #68
 3000 0168 0293     		str	r3, [sp, #8]
 3001 016a 0023     		movs	r3, #0
 3002 016c 0193     		str	r3, [sp, #4]
 3003 016e 0093     		str	r3, [sp]
 3004 0170 2B00     		movs	r3, r5
 3005 0172 524A     		ldr	r2, .L206+36
 3006 0174 5249     		ldr	r1, .L206+40
 3007 0176 0EA8     		add	r0, sp, #56
 3008              	.LVL467:
 3009 0178 FFF7FEFF 		bl	mbedtls_pem_read_buffer
 3010              	.LVL468:
 3011              	.L184:
1245:Source\mbedtls_open\library/pkparse.c ****                                "-----BEGIN ENCRYPTED PRIVATE KEY-----",
1246:Source\mbedtls_open\library/pkparse.c ****                                "-----END ENCRYPTED PRIVATE KEY-----",
1247:Source\mbedtls_open\library/pkparse.c ****                                key, NULL, 0, &len );
1248:Source\mbedtls_open\library/pkparse.c ****     if( ret == 0 )
ARM GAS  C:\Users\Phuong\AppData\Local\Temp\ccG6FMOL.s 			page 79


 3012              		.loc 1 1248 0
 3013 017c 0028     		cmp	r0, #0
 3014 017e 11D1     		bne	.L185
1249:Source\mbedtls_open\library/pkparse.c ****     {
1250:Source\mbedtls_open\library/pkparse.c ****         if( ( ret = pk_parse_key_pkcs8_encrypted_der( pk,
 3015              		.loc 1 1250 0
 3016 0180 189B     		ldr	r3, [sp, #96]
 3017 0182 0093     		str	r3, [sp]
 3018 0184 2300     		movs	r3, r4
 3019 0186 0F9A     		ldr	r2, [sp, #60]
 3020 0188 0E99     		ldr	r1, [sp, #56]
 3021 018a 3000     		movs	r0, r6
 3022              	.LVL469:
 3023 018c FFF7FEFF 		bl	pk_parse_key_pkcs8_encrypted_der
 3024              	.LVL470:
 3025 0190 041E     		subs	r4, r0, #0
 3026              	.LVL471:
 3027 0192 02D0     		beq	.L186
1251:Source\mbedtls_open\library/pkparse.c ****                                                       pem.buf, pem.buflen,
1252:Source\mbedtls_open\library/pkparse.c ****                                                       pwd, pwdlen ) ) != 0 )
1253:Source\mbedtls_open\library/pkparse.c ****         {
1254:Source\mbedtls_open\library/pkparse.c ****             mbedtls_pk_free( pk );
 3028              		.loc 1 1254 0
 3029 0194 3000     		movs	r0, r6
 3030              	.LVL472:
 3031 0196 FFF7FEFF 		bl	mbedtls_pk_free
 3032              	.LVL473:
 3033              	.L186:
1255:Source\mbedtls_open\library/pkparse.c ****         }
1256:Source\mbedtls_open\library/pkparse.c **** 
1257:Source\mbedtls_open\library/pkparse.c ****         mbedtls_pem_free( &pem );
 3034              		.loc 1 1257 0
 3035 019a 0EA8     		add	r0, sp, #56
 3036 019c FFF7FEFF 		bl	mbedtls_pem_free
 3037              	.LVL474:
1258:Source\mbedtls_open\library/pkparse.c ****         return( ret );
 3038              		.loc 1 1258 0
 3039 01a0 2000     		movs	r0, r4
 3040 01a2 76E0     		b	.L176
 3041              	.LVL475:
 3042              	.L185:
1259:Source\mbedtls_open\library/pkparse.c ****     }
1260:Source\mbedtls_open\library/pkparse.c ****     else if( ret != MBEDTLS_ERR_PEM_NO_HEADER_FOOTER_PRESENT )
 3043              		.loc 1 1260 0
 3044 01a4 3E4B     		ldr	r3, .L206+8
 3045 01a6 9842     		cmp	r0, r3
 3046 01a8 73D1     		bne	.L176
 3047              	.LBB27:
1261:Source\mbedtls_open\library/pkparse.c ****         return( ret );
1262:Source\mbedtls_open\library/pkparse.c **** #endif /* MBEDTLS_PKCS12_C || MBEDTLS_PKCS5_C */
1263:Source\mbedtls_open\library/pkparse.c **** #else
1264:Source\mbedtls_open\library/pkparse.c ****     ((void) pwd);
1265:Source\mbedtls_open\library/pkparse.c ****     ((void) pwdlen);
1266:Source\mbedtls_open\library/pkparse.c **** #endif /* MBEDTLS_PEM_PARSE_C */
1267:Source\mbedtls_open\library/pkparse.c **** 
1268:Source\mbedtls_open\library/pkparse.c ****     /*
1269:Source\mbedtls_open\library/pkparse.c ****      * At this point we only know it's not a PEM formatted key. Could be any
ARM GAS  C:\Users\Phuong\AppData\Local\Temp\ccG6FMOL.s 			page 80


1270:Source\mbedtls_open\library/pkparse.c ****      * of the known DER encoded private key formats
1271:Source\mbedtls_open\library/pkparse.c ****      *
1272:Source\mbedtls_open\library/pkparse.c ****      * We try the different DER format parsers to see if one passes without
1273:Source\mbedtls_open\library/pkparse.c ****      * error
1274:Source\mbedtls_open\library/pkparse.c ****      */
1275:Source\mbedtls_open\library/pkparse.c **** #if defined(MBEDTLS_PKCS12_C) || defined(MBEDTLS_PKCS5_C)
1276:Source\mbedtls_open\library/pkparse.c ****     {
1277:Source\mbedtls_open\library/pkparse.c ****         unsigned char *key_copy;
1278:Source\mbedtls_open\library/pkparse.c **** 
1279:Source\mbedtls_open\library/pkparse.c ****         if( keylen == 0 )
 3048              		.loc 1 1279 0
 3049 01aa 002F     		cmp	r7, #0
 3050 01ac 64D0     		beq	.L199
1280:Source\mbedtls_open\library/pkparse.c ****             return( MBEDTLS_ERR_PK_KEY_INVALID_FORMAT );
1281:Source\mbedtls_open\library/pkparse.c **** 
1282:Source\mbedtls_open\library/pkparse.c ****         if( ( key_copy = mbedtls_calloc( 1, keylen ) ) == NULL )
 3051              		.loc 1 1282 0
 3052 01ae 3900     		movs	r1, r7
 3053 01b0 0120     		movs	r0, #1
 3054              	.LVL476:
 3055 01b2 FFF7FEFF 		bl	calloc
 3056              	.LVL477:
 3057 01b6 0028     		cmp	r0, #0
 3058 01b8 60D0     		beq	.L200
1283:Source\mbedtls_open\library/pkparse.c ****             return( MBEDTLS_ERR_PK_ALLOC_FAILED );
1284:Source\mbedtls_open\library/pkparse.c **** 
1285:Source\mbedtls_open\library/pkparse.c ****         memcpy( key_copy, key, keylen );
 3059              		.loc 1 1285 0
 3060 01ba 3A00     		movs	r2, r7
 3061 01bc 2900     		movs	r1, r5
 3062 01be 0590     		str	r0, [sp, #20]
 3063 01c0 FFF7FEFF 		bl	memcpy
 3064              	.LVL478:
1286:Source\mbedtls_open\library/pkparse.c **** 
1287:Source\mbedtls_open\library/pkparse.c ****         ret = pk_parse_key_pkcs8_encrypted_der( pk, key_copy, keylen,
 3065              		.loc 1 1287 0
 3066 01c4 189A     		ldr	r2, [sp, #96]
 3067 01c6 0092     		str	r2, [sp]
 3068 01c8 2300     		movs	r3, r4
 3069 01ca 3A00     		movs	r2, r7
 3070 01cc 0599     		ldr	r1, [sp, #20]
 3071 01ce 3000     		movs	r0, r6
 3072 01d0 FFF7FEFF 		bl	pk_parse_key_pkcs8_encrypted_der
 3073              	.LVL479:
 3074 01d4 0400     		movs	r4, r0
 3075              	.LVL480:
1288:Source\mbedtls_open\library/pkparse.c ****                                                 pwd, pwdlen );
1289:Source\mbedtls_open\library/pkparse.c **** 
1290:Source\mbedtls_open\library/pkparse.c ****         mbedtls_platform_zeroize( key_copy, keylen );
 3076              		.loc 1 1290 0
 3077 01d6 3900     		movs	r1, r7
 3078 01d8 0598     		ldr	r0, [sp, #20]
 3079              	.LVL481:
 3080 01da FFF7FEFF 		bl	mbedtls_platform_zeroize
 3081              	.LVL482:
1291:Source\mbedtls_open\library/pkparse.c ****         mbedtls_free( key_copy );
 3082              		.loc 1 1291 0
ARM GAS  C:\Users\Phuong\AppData\Local\Temp\ccG6FMOL.s 			page 81


 3083 01de 0598     		ldr	r0, [sp, #20]
 3084 01e0 FFF7FEFF 		bl	free
 3085              	.LVL483:
 3086              	.LBE27:
1292:Source\mbedtls_open\library/pkparse.c ****     }
1293:Source\mbedtls_open\library/pkparse.c **** 
1294:Source\mbedtls_open\library/pkparse.c ****     if( ret == 0 )
 3087              		.loc 1 1294 0
 3088 01e4 002C     		cmp	r4, #0
 3089 01e6 4BD0     		beq	.L201
1295:Source\mbedtls_open\library/pkparse.c ****         return( 0 );
1296:Source\mbedtls_open\library/pkparse.c **** 
1297:Source\mbedtls_open\library/pkparse.c ****     mbedtls_pk_free( pk );
 3090              		.loc 1 1297 0
 3091 01e8 3000     		movs	r0, r6
 3092 01ea FFF7FEFF 		bl	mbedtls_pk_free
 3093              	.LVL484:
1298:Source\mbedtls_open\library/pkparse.c **** 
1299:Source\mbedtls_open\library/pkparse.c ****     if( ret == MBEDTLS_ERR_PK_PASSWORD_MISMATCH )
 3094              		.loc 1 1299 0
 3095 01ee 354B     		ldr	r3, .L206+44
 3096 01f0 9C42     		cmp	r4, r3
 3097 01f2 47D0     		beq	.L202
1300:Source\mbedtls_open\library/pkparse.c ****     {
1301:Source\mbedtls_open\library/pkparse.c ****         return( ret );
1302:Source\mbedtls_open\library/pkparse.c ****     }
1303:Source\mbedtls_open\library/pkparse.c **** #endif /* MBEDTLS_PKCS12_C || MBEDTLS_PKCS5_C */
1304:Source\mbedtls_open\library/pkparse.c **** 
1305:Source\mbedtls_open\library/pkparse.c ****     if( ( ret = pk_parse_key_pkcs8_unencrypted_der( pk, key, keylen ) ) == 0 )
 3098              		.loc 1 1305 0
 3099 01f4 3A00     		movs	r2, r7
 3100 01f6 2900     		movs	r1, r5
 3101 01f8 3000     		movs	r0, r6
 3102 01fa FFF7FEFF 		bl	pk_parse_key_pkcs8_unencrypted_der
 3103              	.LVL485:
 3104 01fe 0028     		cmp	r0, #0
 3105 0200 42D0     		beq	.L203
1306:Source\mbedtls_open\library/pkparse.c ****         return( 0 );
1307:Source\mbedtls_open\library/pkparse.c **** 
1308:Source\mbedtls_open\library/pkparse.c ****     mbedtls_pk_free( pk );
 3106              		.loc 1 1308 0
 3107 0202 3000     		movs	r0, r6
 3108              	.LVL486:
 3109 0204 FFF7FEFF 		bl	mbedtls_pk_free
 3110              	.LVL487:
1309:Source\mbedtls_open\library/pkparse.c **** 
1310:Source\mbedtls_open\library/pkparse.c **** #if defined(MBEDTLS_RSA_C)
1311:Source\mbedtls_open\library/pkparse.c **** 
1312:Source\mbedtls_open\library/pkparse.c ****     pk_info = mbedtls_pk_info_from_type( MBEDTLS_PK_RSA );
 3111              		.loc 1 1312 0
 3112 0208 0120     		movs	r0, #1
 3113 020a FFF7FEFF 		bl	mbedtls_pk_info_from_type
 3114              	.LVL488:
 3115 020e 0100     		movs	r1, r0
 3116              	.LVL489:
1313:Source\mbedtls_open\library/pkparse.c ****     if( ( ret = mbedtls_pk_setup( pk, pk_info ) ) != 0 ||
 3117              		.loc 1 1313 0
ARM GAS  C:\Users\Phuong\AppData\Local\Temp\ccG6FMOL.s 			page 82


 3118 0210 3000     		movs	r0, r6
 3119              	.LVL490:
 3120 0212 FFF7FEFF 		bl	mbedtls_pk_setup
 3121              	.LVL491:
 3122 0216 0028     		cmp	r0, #0
 3123 0218 0AD1     		bne	.L187
 3124 021a 0AAB     		add	r3, sp, #40
 3125 021c 3200     		movs	r2, r6
 3126 021e 03CA     		ldmia	r2!, {r0, r1}
 3127 0220 03C3     		stmia	r3!, {r0, r1}
 3128              	.LVL492:
 3129              		.loc 1 1313 0 is_stmt 0 discriminator 1
 3130 0222 3A00     		movs	r2, r7
 3131 0224 2900     		movs	r1, r5
 3132 0226 7068     		ldr	r0, [r6, #4]
 3133 0228 FFF7FEFF 		bl	pk_parse_key_pkcs1_der
 3134              	.LVL493:
 3135 022c 0028     		cmp	r0, #0
 3136 022e 2DD0     		beq	.L204
 3137              	.L187:
1314:Source\mbedtls_open\library/pkparse.c ****         ( ret = pk_parse_key_pkcs1_der( mbedtls_pk_rsa( *pk ),
1315:Source\mbedtls_open\library/pkparse.c ****                                         key, keylen ) ) != 0 )
1316:Source\mbedtls_open\library/pkparse.c ****     {
1317:Source\mbedtls_open\library/pkparse.c ****         mbedtls_pk_free( pk );
 3138              		.loc 1 1317 0 is_stmt 1
 3139 0230 3000     		movs	r0, r6
 3140              	.LVL494:
 3141 0232 FFF7FEFF 		bl	mbedtls_pk_free
 3142              	.LVL495:
1318:Source\mbedtls_open\library/pkparse.c ****     }
1319:Source\mbedtls_open\library/pkparse.c ****     else
1320:Source\mbedtls_open\library/pkparse.c ****     {
1321:Source\mbedtls_open\library/pkparse.c ****         return( 0 );
1322:Source\mbedtls_open\library/pkparse.c ****     }
1323:Source\mbedtls_open\library/pkparse.c **** 
1324:Source\mbedtls_open\library/pkparse.c **** #endif /* MBEDTLS_RSA_C */
1325:Source\mbedtls_open\library/pkparse.c **** 
1326:Source\mbedtls_open\library/pkparse.c **** #if defined(MBEDTLS_ECP_C)
1327:Source\mbedtls_open\library/pkparse.c **** 
1328:Source\mbedtls_open\library/pkparse.c ****     pk_info = mbedtls_pk_info_from_type( MBEDTLS_PK_ECKEY );
 3143              		.loc 1 1328 0
 3144 0236 0220     		movs	r0, #2
 3145 0238 FFF7FEFF 		bl	mbedtls_pk_info_from_type
 3146              	.LVL496:
 3147 023c 0100     		movs	r1, r0
 3148              	.LVL497:
1329:Source\mbedtls_open\library/pkparse.c ****     if( ( ret = mbedtls_pk_setup( pk, pk_info ) ) != 0 ||
 3149              		.loc 1 1329 0
 3150 023e 3000     		movs	r0, r6
 3151              	.LVL498:
 3152 0240 FFF7FEFF 		bl	mbedtls_pk_setup
 3153              	.LVL499:
 3154 0244 0028     		cmp	r0, #0
 3155 0246 0AD1     		bne	.L188
 3156 0248 0CAB     		add	r3, sp, #48
 3157 024a 3200     		movs	r2, r6
 3158 024c 03CA     		ldmia	r2!, {r0, r1}
ARM GAS  C:\Users\Phuong\AppData\Local\Temp\ccG6FMOL.s 			page 83


 3159 024e 03C3     		stmia	r3!, {r0, r1}
 3160              	.LVL500:
 3161              		.loc 1 1329 0 is_stmt 0 discriminator 1
 3162 0250 3A00     		movs	r2, r7
 3163 0252 2900     		movs	r1, r5
 3164 0254 7068     		ldr	r0, [r6, #4]
 3165 0256 FFF7FEFF 		bl	pk_parse_key_sec1_der
 3166              	.LVL501:
 3167 025a 0028     		cmp	r0, #0
 3168 025c 18D0     		beq	.L205
 3169              	.L188:
1330:Source\mbedtls_open\library/pkparse.c ****         ( ret = pk_parse_key_sec1_der( mbedtls_pk_ec( *pk ),
1331:Source\mbedtls_open\library/pkparse.c ****                                        key, keylen ) ) != 0 )
1332:Source\mbedtls_open\library/pkparse.c ****     {
1333:Source\mbedtls_open\library/pkparse.c ****         mbedtls_pk_free( pk );
 3170              		.loc 1 1333 0 is_stmt 1
 3171 025e 3000     		movs	r0, r6
 3172              	.LVL502:
 3173 0260 FFF7FEFF 		bl	mbedtls_pk_free
 3174              	.LVL503:
1334:Source\mbedtls_open\library/pkparse.c ****     }
1335:Source\mbedtls_open\library/pkparse.c ****     else
1336:Source\mbedtls_open\library/pkparse.c ****     {
1337:Source\mbedtls_open\library/pkparse.c ****         return( 0 );
1338:Source\mbedtls_open\library/pkparse.c ****     }
1339:Source\mbedtls_open\library/pkparse.c **** 
1340:Source\mbedtls_open\library/pkparse.c **** #endif /* MBEDTLS_ECP_C */
1341:Source\mbedtls_open\library/pkparse.c **** 
1342:Source\mbedtls_open\library/pkparse.c ****     return( MBEDTLS_ERR_PK_KEY_INVALID_FORMAT );
 3175              		.loc 1 1342 0
 3176 0264 1848     		ldr	r0, .L206+48
 3177 0266 14E0     		b	.L176
 3178              	.LVL504:
 3179              	.L191:
1179:Source\mbedtls_open\library/pkparse.c ****     else if( ret == MBEDTLS_ERR_PEM_PASSWORD_REQUIRED )
 3180              		.loc 1 1179 0
 3181 0268 1648     		ldr	r0, .L206+44
 3182              	.LVL505:
 3183 026a 12E0     		b	.L176
 3184              	.LVL506:
 3185              	.L192:
1181:Source\mbedtls_open\library/pkparse.c ****     else if( ret != MBEDTLS_ERR_PEM_NO_HEADER_FOOTER_PRESENT )
 3186              		.loc 1 1181 0
 3187 026c 1748     		ldr	r0, .L206+52
 3188              	.LVL507:
 3189 026e 10E0     		b	.L176
 3190              	.LVL508:
 3191              	.L194:
1210:Source\mbedtls_open\library/pkparse.c ****     else if( ret == MBEDTLS_ERR_PEM_PASSWORD_REQUIRED )
 3192              		.loc 1 1210 0
 3193 0270 1448     		ldr	r0, .L206+44
 3194              	.LVL509:
 3195 0272 0EE0     		b	.L176
 3196              	.LVL510:
 3197              	.L195:
1212:Source\mbedtls_open\library/pkparse.c ****     else if( ret != MBEDTLS_ERR_PEM_NO_HEADER_FOOTER_PRESENT )
 3198              		.loc 1 1212 0
ARM GAS  C:\Users\Phuong\AppData\Local\Temp\ccG6FMOL.s 			page 84


 3199 0274 1548     		ldr	r0, .L206+52
 3200              	.LVL511:
 3201 0276 0CE0     		b	.L176
 3202              	.LVL512:
 3203              	.L199:
 3204              	.LBB28:
1280:Source\mbedtls_open\library/pkparse.c **** 
 3205              		.loc 1 1280 0
 3206 0278 1348     		ldr	r0, .L206+48
 3207              	.LVL513:
 3208 027a 0AE0     		b	.L176
 3209              	.LVL514:
 3210              	.L200:
1283:Source\mbedtls_open\library/pkparse.c **** 
 3211              		.loc 1 1283 0
 3212 027c 1448     		ldr	r0, .L206+56
 3213              	.LVL515:
 3214 027e 08E0     		b	.L176
 3215              	.LVL516:
 3216              	.L201:
 3217              	.LBE28:
1295:Source\mbedtls_open\library/pkparse.c **** 
 3218              		.loc 1 1295 0
 3219 0280 0020     		movs	r0, #0
 3220 0282 06E0     		b	.L176
 3221              	.L202:
1301:Source\mbedtls_open\library/pkparse.c ****     }
 3222              		.loc 1 1301 0
 3223 0284 2000     		movs	r0, r4
 3224 0286 04E0     		b	.L176
 3225              	.LVL517:
 3226              	.L203:
1306:Source\mbedtls_open\library/pkparse.c **** 
 3227              		.loc 1 1306 0
 3228 0288 0020     		movs	r0, #0
 3229              	.LVL518:
 3230 028a 02E0     		b	.L176
 3231              	.LVL519:
 3232              	.L204:
1321:Source\mbedtls_open\library/pkparse.c ****     }
 3233              		.loc 1 1321 0
 3234 028c 0020     		movs	r0, #0
 3235              	.LVL520:
 3236 028e 00E0     		b	.L176
 3237              	.LVL521:
 3238              	.L205:
1337:Source\mbedtls_open\library/pkparse.c ****     }
 3239              		.loc 1 1337 0
 3240 0290 0020     		movs	r0, #0
 3241              	.LVL522:
 3242              	.L176:
1343:Source\mbedtls_open\library/pkparse.c **** }
 3243              		.loc 1 1343 0
 3244 0292 13B0     		add	sp, sp, #76
 3245              		@ sp needed
 3246              	.LVL523:
 3247              	.LVL524:
ARM GAS  C:\Users\Phuong\AppData\Local\Temp\ccG6FMOL.s 			page 85


 3248              	.LVL525:
 3249 0294 F0BD     		pop	{r4, r5, r6, r7, pc}
 3250              	.L207:
 3251 0296 C046     		.align	2
 3252              	.L206:
 3253 0298 20000000 		.word	.LC6
 3254 029c 40000000 		.word	.LC8
 3255 02a0 80EFFFFF 		.word	-4224
 3256 02a4 80ECFFFF 		.word	-4992
 3257 02a8 00EDFFFF 		.word	-4864
 3258 02ac 60000000 		.word	.LC10
 3259 02b0 80000000 		.word	.LC12
 3260 02b4 A0000000 		.word	.LC14
 3261 02b8 BC000000 		.word	.LC16
 3262 02bc D8000000 		.word	.LC18
 3263 02c0 FC000000 		.word	.LC20
 3264 02c4 80C4FFFF 		.word	-15232
 3265 02c8 00C3FFFF 		.word	-15616
 3266 02cc 00C4FFFF 		.word	-15360
 3267 02d0 80C0FFFF 		.word	-16256
 3268              		.cfi_endproc
 3269              	.LFE24:
 3270              		.size	mbedtls_pk_parse_key, .-mbedtls_pk_parse_key
 3271              		.section	.text.mbedtls_pk_parse_public_key,"ax",%progbits
 3272              		.align	2
 3273              		.global	mbedtls_pk_parse_public_key
 3274              		.code	16
 3275              		.thumb_func
 3276              		.type	mbedtls_pk_parse_public_key, %function
 3277              	mbedtls_pk_parse_public_key:
 3278              	.LFB25:
1344:Source\mbedtls_open\library/pkparse.c **** 
1345:Source\mbedtls_open\library/pkparse.c **** /*
1346:Source\mbedtls_open\library/pkparse.c ****  * Parse a public key
1347:Source\mbedtls_open\library/pkparse.c ****  */
1348:Source\mbedtls_open\library/pkparse.c **** int mbedtls_pk_parse_public_key( mbedtls_pk_context *ctx,
1349:Source\mbedtls_open\library/pkparse.c ****                          const unsigned char *key, size_t keylen )
1350:Source\mbedtls_open\library/pkparse.c **** {
 3279              		.loc 1 1350 0
 3280              		.cfi_startproc
 3281              		@ args = 0, pretend = 0, frame = 48
 3282              		@ frame_needed = 0, uses_anonymous_args = 0
 3283              	.LVL526:
 3284 0000 F0B5     		push	{r4, r5, r6, r7, lr}
 3285              		.cfi_def_cfa_offset 20
 3286              		.cfi_offset 4, -20
 3287              		.cfi_offset 5, -16
 3288              		.cfi_offset 6, -12
 3289              		.cfi_offset 7, -8
 3290              		.cfi_offset 14, -4
 3291 0002 91B0     		sub	sp, sp, #68
 3292              		.cfi_def_cfa_offset 88
 3293 0004 0500     		movs	r5, r0
 3294 0006 0E00     		movs	r6, r1
 3295 0008 1700     		movs	r7, r2
1351:Source\mbedtls_open\library/pkparse.c ****     int ret;
1352:Source\mbedtls_open\library/pkparse.c ****     unsigned char *p;
ARM GAS  C:\Users\Phuong\AppData\Local\Temp\ccG6FMOL.s 			page 86


1353:Source\mbedtls_open\library/pkparse.c **** #if defined(MBEDTLS_RSA_C)
1354:Source\mbedtls_open\library/pkparse.c ****     const mbedtls_pk_info_t *pk_info;
1355:Source\mbedtls_open\library/pkparse.c **** #endif
1356:Source\mbedtls_open\library/pkparse.c **** #if defined(MBEDTLS_PEM_PARSE_C)
1357:Source\mbedtls_open\library/pkparse.c ****     size_t len;
1358:Source\mbedtls_open\library/pkparse.c ****     mbedtls_pem_context pem;
1359:Source\mbedtls_open\library/pkparse.c **** 
1360:Source\mbedtls_open\library/pkparse.c ****     mbedtls_pem_init( &pem );
 3296              		.loc 1 1360 0
 3297 000a 0BA8     		add	r0, sp, #44
 3298              	.LVL527:
 3299 000c FFF7FEFF 		bl	mbedtls_pem_init
 3300              	.LVL528:
1361:Source\mbedtls_open\library/pkparse.c **** #if defined(MBEDTLS_RSA_C)
1362:Source\mbedtls_open\library/pkparse.c ****     /* Avoid calling mbedtls_pem_read_buffer() on non-null-terminated string */
1363:Source\mbedtls_open\library/pkparse.c ****     if( keylen == 0 || key[keylen - 1] != '\0' )
 3301              		.loc 1 1363 0
 3302 0010 002F     		cmp	r7, #0
 3303 0012 11D0     		beq	.L217
 3304              		.loc 1 1363 0 is_stmt 0 discriminator 1
 3305 0014 F319     		adds	r3, r6, r7
 3306 0016 013B     		subs	r3, r3, #1
 3307 0018 1B78     		ldrb	r3, [r3]
 3308 001a 002B     		cmp	r3, #0
 3309 001c 0ED1     		bne	.L218
1364:Source\mbedtls_open\library/pkparse.c ****         ret = MBEDTLS_ERR_PEM_NO_HEADER_FOOTER_PRESENT;
1365:Source\mbedtls_open\library/pkparse.c ****     else
1366:Source\mbedtls_open\library/pkparse.c ****         ret = mbedtls_pem_read_buffer( &pem,
 3310              		.loc 1 1366 0 is_stmt 1
 3311 001e 0EAB     		add	r3, sp, #56
 3312 0020 0293     		str	r3, [sp, #8]
 3313 0022 0023     		movs	r3, #0
 3314 0024 0193     		str	r3, [sp, #4]
 3315 0026 0093     		str	r3, [sp]
 3316 0028 3300     		movs	r3, r6
 3317 002a 4A4A     		ldr	r2, .L225
 3318 002c 4A49     		ldr	r1, .L225+4
 3319 002e 0BA8     		add	r0, sp, #44
 3320 0030 FFF7FEFF 		bl	mbedtls_pem_read_buffer
 3321              	.LVL529:
 3322 0034 0400     		movs	r4, r0
 3323              	.LVL530:
 3324 0036 02E0     		b	.L209
 3325              	.LVL531:
 3326              	.L217:
1364:Source\mbedtls_open\library/pkparse.c ****         ret = MBEDTLS_ERR_PEM_NO_HEADER_FOOTER_PRESENT;
 3327              		.loc 1 1364 0
 3328 0038 484C     		ldr	r4, .L225+8
 3329 003a 00E0     		b	.L209
 3330              	.L218:
 3331 003c 474C     		ldr	r4, .L225+8
 3332              	.L209:
 3333              	.LVL532:
1367:Source\mbedtls_open\library/pkparse.c ****                                "-----BEGIN RSA PUBLIC KEY-----",
1368:Source\mbedtls_open\library/pkparse.c ****                                "-----END RSA PUBLIC KEY-----",
1369:Source\mbedtls_open\library/pkparse.c ****                                key, NULL, 0, &len );
1370:Source\mbedtls_open\library/pkparse.c **** 
ARM GAS  C:\Users\Phuong\AppData\Local\Temp\ccG6FMOL.s 			page 87


1371:Source\mbedtls_open\library/pkparse.c ****     if( ret == 0 )
 3334              		.loc 1 1371 0
 3335 003e 002C     		cmp	r4, #0
 3336 0040 23D1     		bne	.L210
1372:Source\mbedtls_open\library/pkparse.c ****     {
1373:Source\mbedtls_open\library/pkparse.c ****         p = pem.buf;
 3337              		.loc 1 1373 0
 3338 0042 0B9B     		ldr	r3, [sp, #44]
 3339 0044 0F93     		str	r3, [sp, #60]
1374:Source\mbedtls_open\library/pkparse.c ****         if( ( pk_info = mbedtls_pk_info_from_type( MBEDTLS_PK_RSA ) ) == NULL )
 3340              		.loc 1 1374 0
 3341 0046 0120     		movs	r0, #1
 3342 0048 FFF7FEFF 		bl	mbedtls_pk_info_from_type
 3343              	.LVL533:
 3344 004c 0028     		cmp	r0, #0
 3345 004e 79D0     		beq	.L219
1375:Source\mbedtls_open\library/pkparse.c ****             return( MBEDTLS_ERR_PK_UNKNOWN_PK_ALG );
1376:Source\mbedtls_open\library/pkparse.c **** 
1377:Source\mbedtls_open\library/pkparse.c ****         if( ( ret = mbedtls_pk_setup( ctx, pk_info ) ) != 0 )
 3346              		.loc 1 1377 0
 3347 0050 0100     		movs	r1, r0
 3348 0052 2800     		movs	r0, r5
 3349              	.LVL534:
 3350 0054 FFF7FEFF 		bl	mbedtls_pk_setup
 3351              	.LVL535:
 3352 0058 0028     		cmp	r0, #0
 3353 005a 79D1     		bne	.L211
1378:Source\mbedtls_open\library/pkparse.c ****             return( ret );
1379:Source\mbedtls_open\library/pkparse.c **** 
1380:Source\mbedtls_open\library/pkparse.c ****         if ( ( ret = pk_get_rsapubkey( &p, p + pem.buflen, mbedtls_pk_rsa( *ctx ) ) ) != 0 )
 3354              		.loc 1 1380 0
 3355 005c 0F9B     		ldr	r3, [sp, #60]
 3356 005e 0C9A     		ldr	r2, [sp, #48]
 3357 0060 9446     		mov	ip, r2
 3358 0062 6344     		add	r3, r3, ip
 3359 0064 1900     		movs	r1, r3
 3360 0066 07AB     		add	r3, sp, #28
 3361 0068 2A00     		movs	r2, r5
 3362 006a 11CA     		ldmia	r2!, {r0, r4}
 3363 006c 11C3     		stmia	r3!, {r0, r4}
 3364              	.LVL536:
 3365 006e 6A68     		ldr	r2, [r5, #4]
 3366 0070 0FA8     		add	r0, sp, #60
 3367 0072 FFF7FEFF 		bl	pk_get_rsapubkey
 3368              	.LVL537:
 3369 0076 041E     		subs	r4, r0, #0
 3370              	.LVL538:
 3371 0078 02D0     		beq	.L212
1381:Source\mbedtls_open\library/pkparse.c ****             mbedtls_pk_free( ctx );
 3372              		.loc 1 1381 0
 3373 007a 2800     		movs	r0, r5
 3374              	.LVL539:
 3375 007c FFF7FEFF 		bl	mbedtls_pk_free
 3376              	.LVL540:
 3377              	.L212:
1382:Source\mbedtls_open\library/pkparse.c **** 
1383:Source\mbedtls_open\library/pkparse.c ****         mbedtls_pem_free( &pem );
ARM GAS  C:\Users\Phuong\AppData\Local\Temp\ccG6FMOL.s 			page 88


 3378              		.loc 1 1383 0
 3379 0080 0BA8     		add	r0, sp, #44
 3380 0082 FFF7FEFF 		bl	mbedtls_pem_free
 3381              	.LVL541:
1384:Source\mbedtls_open\library/pkparse.c ****         return( ret );
 3382              		.loc 1 1384 0
 3383 0086 2000     		movs	r0, r4
 3384 0088 62E0     		b	.L211
 3385              	.L210:
1385:Source\mbedtls_open\library/pkparse.c ****     }
1386:Source\mbedtls_open\library/pkparse.c ****     else if( ret != MBEDTLS_ERR_PEM_NO_HEADER_FOOTER_PRESENT )
 3386              		.loc 1 1386 0
 3387 008a 344B     		ldr	r3, .L225+8
 3388 008c 9C42     		cmp	r4, r3
 3389 008e 04D0     		beq	.L213
1387:Source\mbedtls_open\library/pkparse.c ****     {
1388:Source\mbedtls_open\library/pkparse.c ****         mbedtls_pem_free( &pem );
 3390              		.loc 1 1388 0
 3391 0090 0BA8     		add	r0, sp, #44
 3392 0092 FFF7FEFF 		bl	mbedtls_pem_free
 3393              	.LVL542:
1389:Source\mbedtls_open\library/pkparse.c ****         return( ret );
 3394              		.loc 1 1389 0
 3395 0096 2000     		movs	r0, r4
 3396 0098 5AE0     		b	.L211
 3397              	.L213:
1390:Source\mbedtls_open\library/pkparse.c ****     }
1391:Source\mbedtls_open\library/pkparse.c **** #endif /* MBEDTLS_RSA_C */
1392:Source\mbedtls_open\library/pkparse.c **** 
1393:Source\mbedtls_open\library/pkparse.c ****     /* Avoid calling mbedtls_pem_read_buffer() on non-null-terminated string */
1394:Source\mbedtls_open\library/pkparse.c ****     if( keylen == 0 || key[keylen - 1] != '\0' )
 3398              		.loc 1 1394 0
 3399 009a 002F     		cmp	r7, #0
 3400 009c 10D0     		beq	.L214
 3401              		.loc 1 1394 0 is_stmt 0 discriminator 1
 3402 009e F319     		adds	r3, r6, r7
 3403 00a0 013B     		subs	r3, r3, #1
 3404 00a2 1B78     		ldrb	r3, [r3]
 3405 00a4 002B     		cmp	r3, #0
 3406 00a6 0BD1     		bne	.L214
1395:Source\mbedtls_open\library/pkparse.c ****         ret = MBEDTLS_ERR_PEM_NO_HEADER_FOOTER_PRESENT;
1396:Source\mbedtls_open\library/pkparse.c ****     else
1397:Source\mbedtls_open\library/pkparse.c ****         ret = mbedtls_pem_read_buffer( &pem,
 3407              		.loc 1 1397 0 is_stmt 1
 3408 00a8 0EAB     		add	r3, sp, #56
 3409 00aa 0293     		str	r3, [sp, #8]
 3410 00ac 0023     		movs	r3, #0
 3411 00ae 0193     		str	r3, [sp, #4]
 3412 00b0 0093     		str	r3, [sp]
 3413 00b2 3300     		movs	r3, r6
 3414 00b4 2A4A     		ldr	r2, .L225+12
 3415 00b6 2B49     		ldr	r1, .L225+16
 3416 00b8 0BA8     		add	r0, sp, #44
 3417 00ba FFF7FEFF 		bl	mbedtls_pem_read_buffer
 3418              	.LVL543:
 3419 00be 0400     		movs	r4, r0
 3420              	.LVL544:
ARM GAS  C:\Users\Phuong\AppData\Local\Temp\ccG6FMOL.s 			page 89


 3421              	.L214:
1398:Source\mbedtls_open\library/pkparse.c ****                 "-----BEGIN PUBLIC KEY-----",
1399:Source\mbedtls_open\library/pkparse.c ****                 "-----END PUBLIC KEY-----",
1400:Source\mbedtls_open\library/pkparse.c ****                 key, NULL, 0, &len );
1401:Source\mbedtls_open\library/pkparse.c **** 
1402:Source\mbedtls_open\library/pkparse.c ****     if( ret == 0 )
 3422              		.loc 1 1402 0
 3423 00c0 002C     		cmp	r4, #0
 3424 00c2 0FD1     		bne	.L215
1403:Source\mbedtls_open\library/pkparse.c ****     {
1404:Source\mbedtls_open\library/pkparse.c ****         /*
1405:Source\mbedtls_open\library/pkparse.c ****          * Was PEM encoded
1406:Source\mbedtls_open\library/pkparse.c ****          */
1407:Source\mbedtls_open\library/pkparse.c ****         p = pem.buf;
 3425              		.loc 1 1407 0
 3426 00c4 0B99     		ldr	r1, [sp, #44]
 3427 00c6 0F91     		str	r1, [sp, #60]
1408:Source\mbedtls_open\library/pkparse.c **** 
1409:Source\mbedtls_open\library/pkparse.c ****         ret = mbedtls_pk_parse_subpubkey( &p,  p + pem.buflen, ctx );
 3428              		.loc 1 1409 0
 3429 00c8 0C9B     		ldr	r3, [sp, #48]
 3430 00ca 0593     		str	r3, [sp, #20]
 3431 00cc 9C46     		mov	ip, r3
 3432 00ce 6144     		add	r1, r1, ip
 3433 00d0 2A00     		movs	r2, r5
 3434 00d2 0FA8     		add	r0, sp, #60
 3435 00d4 FFF7FEFF 		bl	mbedtls_pk_parse_subpubkey
 3436              	.LVL545:
 3437 00d8 0400     		movs	r4, r0
 3438              	.LVL546:
1410:Source\mbedtls_open\library/pkparse.c ****         mbedtls_pem_free( &pem );
 3439              		.loc 1 1410 0
 3440 00da 0BA8     		add	r0, sp, #44
 3441              	.LVL547:
 3442 00dc FFF7FEFF 		bl	mbedtls_pem_free
 3443              	.LVL548:
1411:Source\mbedtls_open\library/pkparse.c ****         return( ret );
 3444              		.loc 1 1411 0
 3445 00e0 2000     		movs	r0, r4
 3446 00e2 35E0     		b	.L211
 3447              	.L215:
1412:Source\mbedtls_open\library/pkparse.c ****     }
1413:Source\mbedtls_open\library/pkparse.c ****     else if( ret != MBEDTLS_ERR_PEM_NO_HEADER_FOOTER_PRESENT )
 3448              		.loc 1 1413 0
 3449 00e4 1D4B     		ldr	r3, .L225+8
 3450 00e6 9C42     		cmp	r4, r3
 3451 00e8 04D0     		beq	.L216
1414:Source\mbedtls_open\library/pkparse.c ****     {
1415:Source\mbedtls_open\library/pkparse.c ****         mbedtls_pem_free( &pem );
 3452              		.loc 1 1415 0
 3453 00ea 0BA8     		add	r0, sp, #44
 3454 00ec FFF7FEFF 		bl	mbedtls_pem_free
 3455              	.LVL549:
1416:Source\mbedtls_open\library/pkparse.c ****         return( ret );
 3456              		.loc 1 1416 0
 3457 00f0 2000     		movs	r0, r4
 3458 00f2 2DE0     		b	.L211
ARM GAS  C:\Users\Phuong\AppData\Local\Temp\ccG6FMOL.s 			page 90


 3459              	.L216:
1417:Source\mbedtls_open\library/pkparse.c ****     }
1418:Source\mbedtls_open\library/pkparse.c ****     mbedtls_pem_free( &pem );
 3460              		.loc 1 1418 0
 3461 00f4 0BA8     		add	r0, sp, #44
 3462 00f6 FFF7FEFF 		bl	mbedtls_pem_free
 3463              	.LVL550:
1419:Source\mbedtls_open\library/pkparse.c **** #endif /* MBEDTLS_PEM_PARSE_C */
1420:Source\mbedtls_open\library/pkparse.c **** 
1421:Source\mbedtls_open\library/pkparse.c **** #if defined(MBEDTLS_RSA_C)
1422:Source\mbedtls_open\library/pkparse.c ****     if( ( pk_info = mbedtls_pk_info_from_type( MBEDTLS_PK_RSA ) ) == NULL )
 3464              		.loc 1 1422 0
 3465 00fa 0120     		movs	r0, #1
 3466 00fc FFF7FEFF 		bl	mbedtls_pk_info_from_type
 3467              	.LVL551:
 3468 0100 0028     		cmp	r0, #0
 3469 0102 21D0     		beq	.L221
1423:Source\mbedtls_open\library/pkparse.c ****         return( MBEDTLS_ERR_PK_UNKNOWN_PK_ALG );
1424:Source\mbedtls_open\library/pkparse.c **** 
1425:Source\mbedtls_open\library/pkparse.c ****     if( ( ret = mbedtls_pk_setup( ctx, pk_info ) ) != 0 )
 3470              		.loc 1 1425 0
 3471 0104 0100     		movs	r1, r0
 3472 0106 2800     		movs	r0, r5
 3473              	.LVL552:
 3474 0108 FFF7FEFF 		bl	mbedtls_pk_setup
 3475              	.LVL553:
 3476 010c 0028     		cmp	r0, #0
 3477 010e 1FD1     		bne	.L211
1426:Source\mbedtls_open\library/pkparse.c ****         return( ret );
1427:Source\mbedtls_open\library/pkparse.c **** 
1428:Source\mbedtls_open\library/pkparse.c ****     p = (unsigned char *)key;
 3478              		.loc 1 1428 0
 3479 0110 0F96     		str	r6, [sp, #60]
1429:Source\mbedtls_open\library/pkparse.c ****     ret = pk_get_rsapubkey( &p, p + keylen, mbedtls_pk_rsa( *ctx ) );
 3480              		.loc 1 1429 0
 3481 0112 F719     		adds	r7, r6, r7
 3482              	.LVL554:
 3483 0114 09AB     		add	r3, sp, #36
 3484 0116 2A00     		movs	r2, r5
 3485 0118 03CA     		ldmia	r2!, {r0, r1}
 3486 011a 03C3     		stmia	r3!, {r0, r1}
 3487              	.LVL555:
 3488 011c 6A68     		ldr	r2, [r5, #4]
 3489 011e 3900     		movs	r1, r7
 3490 0120 0FA8     		add	r0, sp, #60
 3491 0122 FFF7FEFF 		bl	pk_get_rsapubkey
 3492              	.LVL556:
 3493 0126 041E     		subs	r4, r0, #0
 3494              	.LVL557:
1430:Source\mbedtls_open\library/pkparse.c ****     if( ret == 0 )
 3495              		.loc 1 1430 0
 3496 0128 10D0     		beq	.L223
1431:Source\mbedtls_open\library/pkparse.c ****     {
1432:Source\mbedtls_open\library/pkparse.c ****         return( ret );
1433:Source\mbedtls_open\library/pkparse.c ****     }
1434:Source\mbedtls_open\library/pkparse.c ****     mbedtls_pk_free( ctx );
 3497              		.loc 1 1434 0
ARM GAS  C:\Users\Phuong\AppData\Local\Temp\ccG6FMOL.s 			page 91


 3498 012a 2800     		movs	r0, r5
 3499              	.LVL558:
 3500 012c FFF7FEFF 		bl	mbedtls_pk_free
 3501              	.LVL559:
1435:Source\mbedtls_open\library/pkparse.c ****     if( ret != ( MBEDTLS_ERR_PK_INVALID_PUBKEY + MBEDTLS_ERR_ASN1_UNEXPECTED_TAG ) )
 3502              		.loc 1 1435 0
 3503 0130 0D4B     		ldr	r3, .L225+20
 3504 0132 9C42     		cmp	r4, r3
 3505 0134 0BD1     		bne	.L224
1436:Source\mbedtls_open\library/pkparse.c ****     {
1437:Source\mbedtls_open\library/pkparse.c ****         return( ret );
1438:Source\mbedtls_open\library/pkparse.c ****     }
1439:Source\mbedtls_open\library/pkparse.c **** #endif /* MBEDTLS_RSA_C */
1440:Source\mbedtls_open\library/pkparse.c ****     p = (unsigned char *) key;
 3506              		.loc 1 1440 0
 3507 0136 0F96     		str	r6, [sp, #60]
1441:Source\mbedtls_open\library/pkparse.c **** 
1442:Source\mbedtls_open\library/pkparse.c ****     ret = mbedtls_pk_parse_subpubkey( &p, p + keylen, ctx );
 3508              		.loc 1 1442 0
 3509 0138 2A00     		movs	r2, r5
 3510 013a 3900     		movs	r1, r7
 3511 013c 0FA8     		add	r0, sp, #60
 3512 013e FFF7FEFF 		bl	mbedtls_pk_parse_subpubkey
 3513              	.LVL560:
1443:Source\mbedtls_open\library/pkparse.c **** 
1444:Source\mbedtls_open\library/pkparse.c ****     return( ret );
 3514              		.loc 1 1444 0
 3515 0142 05E0     		b	.L211
 3516              	.LVL561:
 3517              	.L219:
1375:Source\mbedtls_open\library/pkparse.c **** 
 3518              		.loc 1 1375 0
 3519 0144 0948     		ldr	r0, .L225+24
 3520              	.LVL562:
 3521 0146 03E0     		b	.L211
 3522              	.LVL563:
 3523              	.L221:
1423:Source\mbedtls_open\library/pkparse.c **** 
 3524              		.loc 1 1423 0
 3525 0148 0848     		ldr	r0, .L225+24
 3526              	.LVL564:
 3527 014a 01E0     		b	.L211
 3528              	.LVL565:
 3529              	.L223:
 3530 014c 00E0     		b	.L211
 3531              	.LVL566:
 3532              	.L224:
1437:Source\mbedtls_open\library/pkparse.c ****     }
 3533              		.loc 1 1437 0
 3534 014e 2000     		movs	r0, r4
 3535              	.LVL567:
 3536              	.L211:
1445:Source\mbedtls_open\library/pkparse.c **** }
 3537              		.loc 1 1445 0
 3538 0150 11B0     		add	sp, sp, #68
 3539              		@ sp needed
 3540              	.LVL568:
ARM GAS  C:\Users\Phuong\AppData\Local\Temp\ccG6FMOL.s 			page 92


 3541              	.LVL569:
 3542 0152 F0BD     		pop	{r4, r5, r6, r7, pc}
 3543              	.L226:
 3544              		.align	2
 3545              	.L225:
 3546 0154 24010000 		.word	.LC22
 3547 0158 44010000 		.word	.LC24
 3548 015c 80EFFFFF 		.word	-4224
 3549 0160 64010000 		.word	.LC26
 3550 0164 80010000 		.word	.LC28
 3551 0168 9EC4FFFF 		.word	-15202
 3552 016c 80C3FFFF 		.word	-15488
 3553              		.cfi_endproc
 3554              	.LFE25:
 3555              		.size	mbedtls_pk_parse_public_key, .-mbedtls_pk_parse_public_key
 3556              		.section	.rodata.str1.4,"aMS",%progbits,1
 3557              		.align	2
 3558              	.LC0:
 3559 0000 2A8648CE 		.ascii	"*\206H\316=\001\001\000"
 3559      3D010100 
 3560              	.LC2:
 3561 0008 2A864886 		.ascii	"*\206H\206\367\015\001\014\001\001\000"
 3561      F70D010C 
 3561      010100
 3562 0013 00       		.space	1
 3563              	.LC4:
 3564 0014 2A864886 		.ascii	"*\206H\206\367\015\001\005\015\000"
 3564      F70D0105 
 3564      0D00
 3565 001e 0000     		.space	2
 3566              	.LC6:
 3567 0020 2D2D2D2D 		.ascii	"-----END RSA PRIVATE KEY-----\000"
 3567      2D454E44 
 3567      20525341 
 3567      20505249 
 3567      56415445 
 3568 003e 0000     		.space	2
 3569              	.LC8:
 3570 0040 2D2D2D2D 		.ascii	"-----BEGIN RSA PRIVATE KEY-----\000"
 3570      2D424547 
 3570      494E2052 
 3570      53412050 
 3570      52495641 
 3571              	.LC10:
 3572 0060 2D2D2D2D 		.ascii	"-----END EC PRIVATE KEY-----\000"
 3572      2D454E44 
 3572      20454320 
 3572      50524956 
 3572      41544520 
 3573 007d 000000   		.space	3
 3574              	.LC12:
 3575 0080 2D2D2D2D 		.ascii	"-----BEGIN EC PRIVATE KEY-----\000"
 3575      2D424547 
 3575      494E2045 
 3575      43205052 
 3575      49564154 
 3576 009f 00       		.space	1
ARM GAS  C:\Users\Phuong\AppData\Local\Temp\ccG6FMOL.s 			page 93


 3577              	.LC14:
 3578 00a0 2D2D2D2D 		.ascii	"-----END PRIVATE KEY-----\000"
 3578      2D454E44 
 3578      20505249 
 3578      56415445 
 3578      204B4559 
 3579 00ba 0000     		.space	2
 3580              	.LC16:
 3581 00bc 2D2D2D2D 		.ascii	"-----BEGIN PRIVATE KEY-----\000"
 3581      2D424547 
 3581      494E2050 
 3581      52495641 
 3581      5445204B 
 3582              	.LC18:
 3583 00d8 2D2D2D2D 		.ascii	"-----END ENCRYPTED PRIVATE KEY-----\000"
 3583      2D454E44 
 3583      20454E43 
 3583      52595054 
 3583      45442050 
 3584              	.LC20:
 3585 00fc 2D2D2D2D 		.ascii	"-----BEGIN ENCRYPTED PRIVATE KEY-----\000"
 3585      2D424547 
 3585      494E2045 
 3585      4E435259 
 3585      50544544 
 3586 0122 0000     		.space	2
 3587              	.LC22:
 3588 0124 2D2D2D2D 		.ascii	"-----END RSA PUBLIC KEY-----\000"
 3588      2D454E44 
 3588      20525341 
 3588      20505542 
 3588      4C494320 
 3589 0141 000000   		.space	3
 3590              	.LC24:
 3591 0144 2D2D2D2D 		.ascii	"-----BEGIN RSA PUBLIC KEY-----\000"
 3591      2D424547 
 3591      494E2052 
 3591      53412050 
 3591      55424C49 
 3592 0163 00       		.space	1
 3593              	.LC26:
 3594 0164 2D2D2D2D 		.ascii	"-----END PUBLIC KEY-----\000"
 3594      2D454E44 
 3594      20505542 
 3594      4C494320 
 3594      4B45592D 
 3595 017d 000000   		.space	3
 3596              	.LC28:
 3597 0180 2D2D2D2D 		.ascii	"-----BEGIN PUBLIC KEY-----\000"
 3597      2D424547 
 3597      494E2050 
 3597      55424C49 
 3597      43204B45 
 3598              		.text
 3599              	.Letext0:
 3600              		.file 2 "c:\\program files (x86)\\cypress\\psoc creator\\4.2\\psoc creator\\import\\gnu\\arm\\5.4.
 3601              		.file 3 "c:\\program files (x86)\\cypress\\psoc creator\\4.2\\psoc creator\\import\\gnu\\arm\\5.4.
ARM GAS  C:\Users\Phuong\AppData\Local\Temp\ccG6FMOL.s 			page 94


 3602              		.file 4 ".\\Source\\mbedtls_open\\include/mbedtls/md.h"
 3603              		.file 5 "c:\\program files (x86)\\cypress\\psoc creator\\4.2\\psoc creator\\import\\gnu\\arm\\5.4.
 3604              		.file 6 ".\\Source\\mbedtls_open\\include/mbedtls/bignum.h"
 3605              		.file 7 ".\\Source\\mbedtls_open\\include/mbedtls/rsa.h"
 3606              		.file 8 ".\\Source\\mbedtls_open\\include/mbedtls/ecp.h"
 3607              		.file 9 ".\\Source\\mbedtls_open\\include/mbedtls/pk.h"
 3608              		.file 10 ".\\Source\\mbedtls_open\\include/mbedtls/asn1.h"
 3609              		.file 11 ".\\Source\\mbedtls_open\\include/mbedtls/cipher.h"
 3610              		.file 12 ".\\Source\\mbedtls_open\\include/mbedtls/pem.h"
 3611              		.file 13 ".\\Source\\mbedtls_open\\include/mbedtls/oid.h"
 3612              		.file 14 "c:\\program files (x86)\\cypress\\psoc creator\\4.2\\psoc creator\\import\\gnu\\arm\\5.4
 3613              		.file 15 ".\\Source\\mbedtls_open\\include/mbedtls/pkcs12.h"
 3614              		.file 16 ".\\Source\\mbedtls_open\\include/mbedtls/pkcs5.h"
 3615              		.file 17 "c:\\program files (x86)\\cypress\\psoc creator\\4.2\\psoc creator\\import\\gnu\\arm\\5.4
 3616              		.file 18 ".\\Source\\mbedtls_open\\include/mbedtls/platform_util.h"
 3617              		.section	.debug_info,"",%progbits
 3618              	.Ldebug_info0:
 3619 0000 74250000 		.4byte	0x2574
 3620 0004 0400     		.2byte	0x4
 3621 0006 00000000 		.4byte	.Ldebug_abbrev0
 3622 000a 04       		.byte	0x4
 3623 000b 01       		.uleb128 0x1
 3624 000c C6030000 		.4byte	.LASF227
 3625 0010 0C       		.byte	0xc
 3626 0011 2A0C0000 		.4byte	.LASF228
 3627 0015 71060000 		.4byte	.LASF229
 3628 0019 18000000 		.4byte	.Ldebug_ranges0+0x18
 3629 001d 00000000 		.4byte	0
 3630 0021 00000000 		.4byte	.Ldebug_line0
 3631 0025 02       		.uleb128 0x2
 3632 0026 01       		.byte	0x1
 3633 0027 06       		.byte	0x6
 3634 0028 0C120000 		.4byte	.LASF0
 3635 002c 02       		.uleb128 0x2
 3636 002d 01       		.byte	0x1
 3637 002e 08       		.byte	0x8
 3638 002f F3100000 		.4byte	.LASF1
 3639 0033 02       		.uleb128 0x2
 3640 0034 02       		.byte	0x2
 3641 0035 05       		.byte	0x5
 3642 0036 1B0E0000 		.4byte	.LASF2
 3643 003a 02       		.uleb128 0x2
 3644 003b 02       		.byte	0x2
 3645 003c 07       		.byte	0x7
 3646 003d 4E120000 		.4byte	.LASF3
 3647 0041 02       		.uleb128 0x2
 3648 0042 04       		.byte	0x4
 3649 0043 05       		.byte	0x5
 3650 0044 4F0E0000 		.4byte	.LASF4
 3651 0048 03       		.uleb128 0x3
 3652 0049 18110000 		.4byte	.LASF9
 3653 004d 02       		.byte	0x2
 3654 004e 41       		.byte	0x41
 3655 004f 53000000 		.4byte	0x53
 3656 0053 02       		.uleb128 0x2
 3657 0054 04       		.byte	0x4
 3658 0055 07       		.byte	0x7
ARM GAS  C:\Users\Phuong\AppData\Local\Temp\ccG6FMOL.s 			page 95


 3659 0056 3C100000 		.4byte	.LASF5
 3660 005a 02       		.uleb128 0x2
 3661 005b 08       		.byte	0x8
 3662 005c 05       		.byte	0x5
 3663 005d 000B0000 		.4byte	.LASF6
 3664 0061 02       		.uleb128 0x2
 3665 0062 08       		.byte	0x8
 3666 0063 07       		.byte	0x7
 3667 0064 BF040000 		.4byte	.LASF7
 3668 0068 04       		.uleb128 0x4
 3669 0069 04       		.byte	0x4
 3670 006a 05       		.byte	0x5
 3671 006b 696E7400 		.ascii	"int\000"
 3672 006f 02       		.uleb128 0x2
 3673 0070 04       		.byte	0x4
 3674 0071 07       		.byte	0x7
 3675 0072 D0000000 		.4byte	.LASF8
 3676 0076 03       		.uleb128 0x3
 3677 0077 80070000 		.4byte	.LASF10
 3678 007b 03       		.byte	0x3
 3679 007c D8       		.byte	0xd8
 3680 007d 6F000000 		.4byte	0x6f
 3681 0081 02       		.uleb128 0x2
 3682 0082 08       		.byte	0x8
 3683 0083 04       		.byte	0x4
 3684 0084 850D0000 		.4byte	.LASF11
 3685 0088 05       		.uleb128 0x5
 3686 0089 01       		.byte	0x1
 3687 008a 2C000000 		.4byte	0x2c
 3688 008e 04       		.byte	0x4
 3689 008f 38       		.byte	0x38
 3690 0090 D1000000 		.4byte	0xd1
 3691 0094 06       		.uleb128 0x6
 3692 0095 BB0B0000 		.4byte	.LASF12
 3693 0099 00       		.byte	0
 3694 009a 06       		.uleb128 0x6
 3695 009b EA0F0000 		.4byte	.LASF13
 3696 009f 01       		.byte	0x1
 3697 00a0 06       		.uleb128 0x6
 3698 00a1 F90F0000 		.4byte	.LASF14
 3699 00a5 02       		.byte	0x2
 3700 00a6 06       		.uleb128 0x6
 3701 00a7 08100000 		.4byte	.LASF15
 3702 00ab 03       		.byte	0x3
 3703 00ac 06       		.uleb128 0x6
 3704 00ad 990F0000 		.4byte	.LASF16
 3705 00b1 04       		.byte	0x4
 3706 00b2 06       		.uleb128 0x6
 3707 00b3 CA010000 		.4byte	.LASF17
 3708 00b7 05       		.byte	0x5
 3709 00b8 06       		.uleb128 0x6
 3710 00b9 DC070000 		.4byte	.LASF18
 3711 00bd 06       		.byte	0x6
 3712 00be 06       		.uleb128 0x6
 3713 00bf 92120000 		.4byte	.LASF19
 3714 00c3 07       		.byte	0x7
 3715 00c4 06       		.uleb128 0x6
ARM GAS  C:\Users\Phuong\AppData\Local\Temp\ccG6FMOL.s 			page 96


 3716 00c5 11050000 		.4byte	.LASF20
 3717 00c9 08       		.byte	0x8
 3718 00ca 06       		.uleb128 0x6
 3719 00cb 24120000 		.4byte	.LASF21
 3720 00cf 09       		.byte	0x9
 3721 00d0 00       		.byte	0
 3722 00d1 03       		.uleb128 0x3
 3723 00d2 A8000000 		.4byte	.LASF22
 3724 00d6 04       		.byte	0x4
 3725 00d7 43       		.byte	0x43
 3726 00d8 88000000 		.4byte	0x88
 3727 00dc 07       		.uleb128 0x7
 3728 00dd 04       		.byte	0x4
 3729 00de 03       		.uleb128 0x3
 3730 00df 2B030000 		.4byte	.LASF23
 3731 00e3 05       		.byte	0x5
 3732 00e4 30       		.byte	0x30
 3733 00e5 48000000 		.4byte	0x48
 3734 00e9 03       		.uleb128 0x3
 3735 00ea 16070000 		.4byte	.LASF24
 3736 00ee 06       		.byte	0x6
 3737 00ef A6       		.byte	0xa6
 3738 00f0 DE000000 		.4byte	0xde
 3739 00f4 08       		.uleb128 0x8
 3740 00f5 18120000 		.4byte	.LASF25
 3741 00f9 0C       		.byte	0xc
 3742 00fa 06       		.byte	0x6
 3743 00fb B4       		.byte	0xb4
 3744 00fc 1F010000 		.4byte	0x11f
 3745 0100 09       		.uleb128 0x9
 3746 0101 7300     		.ascii	"s\000"
 3747 0103 06       		.byte	0x6
 3748 0104 B6       		.byte	0xb6
 3749 0105 68000000 		.4byte	0x68
 3750 0109 00       		.byte	0
 3751 010a 09       		.uleb128 0x9
 3752 010b 6E00     		.ascii	"n\000"
 3753 010d 06       		.byte	0x6
 3754 010e B7       		.byte	0xb7
 3755 010f 76000000 		.4byte	0x76
 3756 0113 04       		.byte	0x4
 3757 0114 09       		.uleb128 0x9
 3758 0115 7000     		.ascii	"p\000"
 3759 0117 06       		.byte	0x6
 3760 0118 B8       		.byte	0xb8
 3761 0119 1F010000 		.4byte	0x11f
 3762 011d 08       		.byte	0x8
 3763 011e 00       		.byte	0
 3764 011f 0A       		.uleb128 0xa
 3765 0120 04       		.byte	0x4
 3766 0121 E9000000 		.4byte	0xe9
 3767 0125 03       		.uleb128 0x3
 3768 0126 18120000 		.4byte	.LASF25
 3769 012a 06       		.byte	0x6
 3770 012b BA       		.byte	0xba
 3771 012c F4000000 		.4byte	0xf4
 3772 0130 08       		.uleb128 0x8
ARM GAS  C:\Users\Phuong\AppData\Local\Temp\ccG6FMOL.s 			page 97


 3773 0131 390D0000 		.4byte	.LASF26
 3774 0135 AC       		.byte	0xac
 3775 0136 07       		.byte	0x7
 3776 0137 5F       		.byte	0x5f
 3777 0138 F7010000 		.4byte	0x1f7
 3778 013c 09       		.uleb128 0x9
 3779 013d 76657200 		.ascii	"ver\000"
 3780 0141 07       		.byte	0x7
 3781 0142 61       		.byte	0x61
 3782 0143 68000000 		.4byte	0x68
 3783 0147 00       		.byte	0
 3784 0148 09       		.uleb128 0x9
 3785 0149 6C656E00 		.ascii	"len\000"
 3786 014d 07       		.byte	0x7
 3787 014e 62       		.byte	0x62
 3788 014f 76000000 		.4byte	0x76
 3789 0153 04       		.byte	0x4
 3790 0154 09       		.uleb128 0x9
 3791 0155 4E00     		.ascii	"N\000"
 3792 0157 07       		.byte	0x7
 3793 0158 64       		.byte	0x64
 3794 0159 25010000 		.4byte	0x125
 3795 015d 08       		.byte	0x8
 3796 015e 09       		.uleb128 0x9
 3797 015f 4500     		.ascii	"E\000"
 3798 0161 07       		.byte	0x7
 3799 0162 65       		.byte	0x65
 3800 0163 25010000 		.4byte	0x125
 3801 0167 14       		.byte	0x14
 3802 0168 09       		.uleb128 0x9
 3803 0169 4400     		.ascii	"D\000"
 3804 016b 07       		.byte	0x7
 3805 016c 67       		.byte	0x67
 3806 016d 25010000 		.4byte	0x125
 3807 0171 20       		.byte	0x20
 3808 0172 09       		.uleb128 0x9
 3809 0173 5000     		.ascii	"P\000"
 3810 0175 07       		.byte	0x7
 3811 0176 68       		.byte	0x68
 3812 0177 25010000 		.4byte	0x125
 3813 017b 2C       		.byte	0x2c
 3814 017c 09       		.uleb128 0x9
 3815 017d 5100     		.ascii	"Q\000"
 3816 017f 07       		.byte	0x7
 3817 0180 69       		.byte	0x69
 3818 0181 25010000 		.4byte	0x125
 3819 0185 38       		.byte	0x38
 3820 0186 09       		.uleb128 0x9
 3821 0187 445000   		.ascii	"DP\000"
 3822 018a 07       		.byte	0x7
 3823 018b 6B       		.byte	0x6b
 3824 018c 25010000 		.4byte	0x125
 3825 0190 44       		.byte	0x44
 3826 0191 09       		.uleb128 0x9
 3827 0192 445100   		.ascii	"DQ\000"
 3828 0195 07       		.byte	0x7
 3829 0196 6C       		.byte	0x6c
ARM GAS  C:\Users\Phuong\AppData\Local\Temp\ccG6FMOL.s 			page 98


 3830 0197 25010000 		.4byte	0x125
 3831 019b 50       		.byte	0x50
 3832 019c 09       		.uleb128 0x9
 3833 019d 515000   		.ascii	"QP\000"
 3834 01a0 07       		.byte	0x7
 3835 01a1 6D       		.byte	0x6d
 3836 01a2 25010000 		.4byte	0x125
 3837 01a6 5C       		.byte	0x5c
 3838 01a7 09       		.uleb128 0x9
 3839 01a8 524E00   		.ascii	"RN\000"
 3840 01ab 07       		.byte	0x7
 3841 01ac 6F       		.byte	0x6f
 3842 01ad 25010000 		.4byte	0x125
 3843 01b1 68       		.byte	0x68
 3844 01b2 09       		.uleb128 0x9
 3845 01b3 525000   		.ascii	"RP\000"
 3846 01b6 07       		.byte	0x7
 3847 01b7 71       		.byte	0x71
 3848 01b8 25010000 		.4byte	0x125
 3849 01bc 74       		.byte	0x74
 3850 01bd 09       		.uleb128 0x9
 3851 01be 525100   		.ascii	"RQ\000"
 3852 01c1 07       		.byte	0x7
 3853 01c2 72       		.byte	0x72
 3854 01c3 25010000 		.4byte	0x125
 3855 01c7 80       		.byte	0x80
 3856 01c8 09       		.uleb128 0x9
 3857 01c9 566900   		.ascii	"Vi\000"
 3858 01cc 07       		.byte	0x7
 3859 01cd 74       		.byte	0x74
 3860 01ce 25010000 		.4byte	0x125
 3861 01d2 8C       		.byte	0x8c
 3862 01d3 09       		.uleb128 0x9
 3863 01d4 566600   		.ascii	"Vf\000"
 3864 01d7 07       		.byte	0x7
 3865 01d8 75       		.byte	0x75
 3866 01d9 25010000 		.4byte	0x125
 3867 01dd 98       		.byte	0x98
 3868 01de 0B       		.uleb128 0xb
 3869 01df 2E0B0000 		.4byte	.LASF27
 3870 01e3 07       		.byte	0x7
 3871 01e4 77       		.byte	0x77
 3872 01e5 68000000 		.4byte	0x68
 3873 01e9 A4       		.byte	0xa4
 3874 01ea 0B       		.uleb128 0xb
 3875 01eb E20F0000 		.4byte	.LASF28
 3876 01ef 07       		.byte	0x7
 3877 01f0 7A       		.byte	0x7a
 3878 01f1 68000000 		.4byte	0x68
 3879 01f5 A8       		.byte	0xa8
 3880 01f6 00       		.byte	0
 3881 01f7 03       		.uleb128 0x3
 3882 01f8 390D0000 		.4byte	.LASF26
 3883 01fc 07       		.byte	0x7
 3884 01fd 82       		.byte	0x82
 3885 01fe 30010000 		.4byte	0x130
 3886 0202 05       		.uleb128 0x5
ARM GAS  C:\Users\Phuong\AppData\Local\Temp\ccG6FMOL.s 			page 99


 3887 0203 01       		.byte	0x1
 3888 0204 2C000000 		.4byte	0x2c
 3889 0208 08       		.byte	0x8
 3890 0209 45       		.byte	0x45
 3891 020a 63020000 		.4byte	0x263
 3892 020e 06       		.uleb128 0x6
 3893 020f C40D0000 		.4byte	.LASF29
 3894 0213 00       		.byte	0
 3895 0214 06       		.uleb128 0x6
 3896 0215 5C0F0000 		.4byte	.LASF30
 3897 0219 01       		.byte	0x1
 3898 021a 06       		.uleb128 0x6
 3899 021b 5A020000 		.4byte	.LASF31
 3900 021f 02       		.byte	0x2
 3901 0220 06       		.uleb128 0x6
 3902 0221 360E0000 		.4byte	.LASF32
 3903 0225 03       		.byte	0x3
 3904 0226 06       		.uleb128 0x6
 3905 0227 68050000 		.4byte	.LASF33
 3906 022b 04       		.byte	0x4
 3907 022c 06       		.uleb128 0x6
 3908 022d A90A0000 		.4byte	.LASF34
 3909 0231 05       		.byte	0x5
 3910 0232 06       		.uleb128 0x6
 3911 0233 6C0E0000 		.4byte	.LASF35
 3912 0237 06       		.byte	0x6
 3913 0238 06       		.uleb128 0x6
 3914 0239 D0050000 		.4byte	.LASF36
 3915 023d 07       		.byte	0x7
 3916 023e 06       		.uleb128 0x6
 3917 023f AD0D0000 		.4byte	.LASF37
 3918 0243 08       		.byte	0x8
 3919 0244 06       		.uleb128 0x6
 3920 0245 DB020000 		.4byte	.LASF38
 3921 0249 09       		.byte	0x9
 3922 024a 06       		.uleb128 0x6
 3923 024b 0B060000 		.4byte	.LASF39
 3924 024f 0A       		.byte	0xa
 3925 0250 06       		.uleb128 0x6
 3926 0251 7F110000 		.4byte	.LASF40
 3927 0255 0B       		.byte	0xb
 3928 0256 06       		.uleb128 0x6
 3929 0257 95030000 		.4byte	.LASF41
 3930 025b 0C       		.byte	0xc
 3931 025c 06       		.uleb128 0x6
 3932 025d EE070000 		.4byte	.LASF42
 3933 0261 0D       		.byte	0xd
 3934 0262 00       		.byte	0
 3935 0263 03       		.uleb128 0x3
 3936 0264 39120000 		.4byte	.LASF43
 3937 0268 08       		.byte	0x8
 3938 0269 54       		.byte	0x54
 3939 026a 02020000 		.4byte	0x202
 3940 026e 02       		.uleb128 0x2
 3941 026f 01       		.byte	0x1
 3942 0270 08       		.byte	0x8
 3943 0271 49090000 		.4byte	.LASF44
ARM GAS  C:\Users\Phuong\AppData\Local\Temp\ccG6FMOL.s 			page 100


 3944 0275 08       		.uleb128 0x8
 3945 0276 91040000 		.4byte	.LASF45
 3946 027a 24       		.byte	0x24
 3947 027b 08       		.byte	0x8
 3948 027c 73       		.byte	0x73
 3949 027d A0020000 		.4byte	0x2a0
 3950 0281 09       		.uleb128 0x9
 3951 0282 5800     		.ascii	"X\000"
 3952 0284 08       		.byte	0x8
 3953 0285 75       		.byte	0x75
 3954 0286 25010000 		.4byte	0x125
 3955 028a 00       		.byte	0
 3956 028b 09       		.uleb128 0x9
 3957 028c 5900     		.ascii	"Y\000"
 3958 028e 08       		.byte	0x8
 3959 028f 76       		.byte	0x76
 3960 0290 25010000 		.4byte	0x125
 3961 0294 0C       		.byte	0xc
 3962 0295 09       		.uleb128 0x9
 3963 0296 5A00     		.ascii	"Z\000"
 3964 0298 08       		.byte	0x8
 3965 0299 77       		.byte	0x77
 3966 029a 25010000 		.4byte	0x125
 3967 029e 18       		.byte	0x18
 3968 029f 00       		.byte	0
 3969 02a0 03       		.uleb128 0x3
 3970 02a1 91040000 		.4byte	.LASF45
 3971 02a5 08       		.byte	0x8
 3972 02a6 79       		.byte	0x79
 3973 02a7 75020000 		.4byte	0x275
 3974 02ab 08       		.uleb128 0x8
 3975 02ac DC120000 		.4byte	.LASF46
 3976 02b0 7C       		.byte	0x7c
 3977 02b1 08       		.byte	0x8
 3978 02b2 A0       		.byte	0xa0
 3979 02b3 5D030000 		.4byte	0x35d
 3980 02b7 09       		.uleb128 0x9
 3981 02b8 696400   		.ascii	"id\000"
 3982 02bb 08       		.byte	0x8
 3983 02bc A2       		.byte	0xa2
 3984 02bd 63020000 		.4byte	0x263
 3985 02c1 00       		.byte	0
 3986 02c2 09       		.uleb128 0x9
 3987 02c3 5000     		.ascii	"P\000"
 3988 02c5 08       		.byte	0x8
 3989 02c6 A3       		.byte	0xa3
 3990 02c7 25010000 		.4byte	0x125
 3991 02cb 04       		.byte	0x4
 3992 02cc 09       		.uleb128 0x9
 3993 02cd 4100     		.ascii	"A\000"
 3994 02cf 08       		.byte	0x8
 3995 02d0 A4       		.byte	0xa4
 3996 02d1 25010000 		.4byte	0x125
 3997 02d5 10       		.byte	0x10
 3998 02d6 09       		.uleb128 0x9
 3999 02d7 4200     		.ascii	"B\000"
 4000 02d9 08       		.byte	0x8
ARM GAS  C:\Users\Phuong\AppData\Local\Temp\ccG6FMOL.s 			page 101


 4001 02da A6       		.byte	0xa6
 4002 02db 25010000 		.4byte	0x125
 4003 02df 1C       		.byte	0x1c
 4004 02e0 09       		.uleb128 0x9
 4005 02e1 4700     		.ascii	"G\000"
 4006 02e3 08       		.byte	0x8
 4007 02e4 A8       		.byte	0xa8
 4008 02e5 A0020000 		.4byte	0x2a0
 4009 02e9 28       		.byte	0x28
 4010 02ea 09       		.uleb128 0x9
 4011 02eb 4E00     		.ascii	"N\000"
 4012 02ed 08       		.byte	0x8
 4013 02ee A9       		.byte	0xa9
 4014 02ef 25010000 		.4byte	0x125
 4015 02f3 4C       		.byte	0x4c
 4016 02f4 0B       		.uleb128 0xb
 4017 02f5 ED100000 		.4byte	.LASF47
 4018 02f9 08       		.byte	0x8
 4019 02fa AA       		.byte	0xaa
 4020 02fb 76000000 		.4byte	0x76
 4021 02ff 58       		.byte	0x58
 4022 0300 0B       		.uleb128 0xb
 4023 0301 AE0B0000 		.4byte	.LASF48
 4024 0305 08       		.byte	0x8
 4025 0306 AB       		.byte	0xab
 4026 0307 76000000 		.4byte	0x76
 4027 030b 5C       		.byte	0x5c
 4028 030c 09       		.uleb128 0x9
 4029 030d 6800     		.ascii	"h\000"
 4030 030f 08       		.byte	0x8
 4031 0310 AE       		.byte	0xae
 4032 0311 6F000000 		.4byte	0x6f
 4033 0315 60       		.byte	0x60
 4034 0316 0B       		.uleb128 0xb
 4035 0317 55020000 		.4byte	.LASF49
 4036 031b 08       		.byte	0x8
 4037 031c AF       		.byte	0xaf
 4038 031d 72030000 		.4byte	0x372
 4039 0321 64       		.byte	0x64
 4040 0322 0B       		.uleb128 0xb
 4041 0323 58040000 		.4byte	.LASF50
 4042 0327 08       		.byte	0x8
 4043 0328 B1       		.byte	0xb1
 4044 0329 92030000 		.4byte	0x392
 4045 032d 68       		.byte	0x68
 4046 032e 0B       		.uleb128 0xb
 4047 032f 06130000 		.4byte	.LASF51
 4048 0333 08       		.byte	0x8
 4049 0334 B2       		.byte	0xb2
 4050 0335 92030000 		.4byte	0x392
 4051 0339 6C       		.byte	0x6c
 4052 033a 0B       		.uleb128 0xb
 4053 033b B40B0000 		.4byte	.LASF52
 4054 033f 08       		.byte	0x8
 4055 0340 B3       		.byte	0xb3
 4056 0341 DC000000 		.4byte	0xdc
 4057 0345 70       		.byte	0x70
ARM GAS  C:\Users\Phuong\AppData\Local\Temp\ccG6FMOL.s 			page 102


 4058 0346 09       		.uleb128 0x9
 4059 0347 5400     		.ascii	"T\000"
 4060 0349 08       		.byte	0x8
 4061 034a B4       		.byte	0xb4
 4062 034b 8C030000 		.4byte	0x38c
 4063 034f 74       		.byte	0x74
 4064 0350 0B       		.uleb128 0xb
 4065 0351 99080000 		.4byte	.LASF53
 4066 0355 08       		.byte	0x8
 4067 0356 B5       		.byte	0xb5
 4068 0357 76000000 		.4byte	0x76
 4069 035b 78       		.byte	0x78
 4070 035c 00       		.byte	0
 4071 035d 0C       		.uleb128 0xc
 4072 035e 68000000 		.4byte	0x68
 4073 0362 6C030000 		.4byte	0x36c
 4074 0366 0D       		.uleb128 0xd
 4075 0367 6C030000 		.4byte	0x36c
 4076 036b 00       		.byte	0
 4077 036c 0A       		.uleb128 0xa
 4078 036d 04       		.byte	0x4
 4079 036e 25010000 		.4byte	0x125
 4080 0372 0A       		.uleb128 0xa
 4081 0373 04       		.byte	0x4
 4082 0374 5D030000 		.4byte	0x35d
 4083 0378 0C       		.uleb128 0xc
 4084 0379 68000000 		.4byte	0x68
 4085 037d 8C030000 		.4byte	0x38c
 4086 0381 0D       		.uleb128 0xd
 4087 0382 8C030000 		.4byte	0x38c
 4088 0386 0D       		.uleb128 0xd
 4089 0387 DC000000 		.4byte	0xdc
 4090 038b 00       		.byte	0
 4091 038c 0A       		.uleb128 0xa
 4092 038d 04       		.byte	0x4
 4093 038e A0020000 		.4byte	0x2a0
 4094 0392 0A       		.uleb128 0xa
 4095 0393 04       		.byte	0x4
 4096 0394 78030000 		.4byte	0x378
 4097 0398 03       		.uleb128 0x3
 4098 0399 DC120000 		.4byte	.LASF46
 4099 039d 08       		.byte	0x8
 4100 039e B7       		.byte	0xb7
 4101 039f AB020000 		.4byte	0x2ab
 4102 03a3 0E       		.uleb128 0xe
 4103 03a4 84020000 		.4byte	.LASF54
 4104 03a8 AC       		.byte	0xac
 4105 03a9 08       		.byte	0x8
 4106 03aa 3F01     		.2byte	0x13f
 4107 03ac D4030000 		.4byte	0x3d4
 4108 03b0 0F       		.uleb128 0xf
 4109 03b1 67727000 		.ascii	"grp\000"
 4110 03b5 08       		.byte	0x8
 4111 03b6 4101     		.2byte	0x141
 4112 03b8 98030000 		.4byte	0x398
 4113 03bc 00       		.byte	0
 4114 03bd 0F       		.uleb128 0xf
ARM GAS  C:\Users\Phuong\AppData\Local\Temp\ccG6FMOL.s 			page 103


 4115 03be 6400     		.ascii	"d\000"
 4116 03c0 08       		.byte	0x8
 4117 03c1 4201     		.2byte	0x142
 4118 03c3 25010000 		.4byte	0x125
 4119 03c7 7C       		.byte	0x7c
 4120 03c8 0F       		.uleb128 0xf
 4121 03c9 5100     		.ascii	"Q\000"
 4122 03cb 08       		.byte	0x8
 4123 03cc 4301     		.2byte	0x143
 4124 03ce A0020000 		.4byte	0x2a0
 4125 03d2 88       		.byte	0x88
 4126 03d3 00       		.byte	0
 4127 03d4 10       		.uleb128 0x10
 4128 03d5 84020000 		.4byte	.LASF54
 4129 03d9 08       		.byte	0x8
 4130 03da 4501     		.2byte	0x145
 4131 03dc A3030000 		.4byte	0x3a3
 4132 03e0 05       		.uleb128 0x5
 4133 03e1 01       		.byte	0x1
 4134 03e2 2C000000 		.4byte	0x2c
 4135 03e6 09       		.byte	0x9
 4136 03e7 4C       		.byte	0x4c
 4137 03e8 17040000 		.4byte	0x417
 4138 03ec 06       		.uleb128 0x6
 4139 03ed B1080000 		.4byte	.LASF55
 4140 03f1 00       		.byte	0
 4141 03f2 06       		.uleb128 0x6
 4142 03f3 9F010000 		.4byte	.LASF56
 4143 03f7 01       		.byte	0x1
 4144 03f8 06       		.uleb128 0x6
 4145 03f9 23050000 		.4byte	.LASF57
 4146 03fd 02       		.byte	0x2
 4147 03fe 06       		.uleb128 0x6
 4148 03ff 58000000 		.4byte	.LASF58
 4149 0403 03       		.byte	0x3
 4150 0404 06       		.uleb128 0x6
 4151 0405 A0080000 		.4byte	.LASF59
 4152 0409 04       		.byte	0x4
 4153 040a 06       		.uleb128 0x6
 4154 040b E7050000 		.4byte	.LASF60
 4155 040f 05       		.byte	0x5
 4156 0410 06       		.uleb128 0x6
 4157 0411 FB040000 		.4byte	.LASF61
 4158 0415 06       		.byte	0x6
 4159 0416 00       		.byte	0
 4160 0417 03       		.uleb128 0x3
 4161 0418 F7090000 		.4byte	.LASF62
 4162 041c 09       		.byte	0x9
 4163 041d 54       		.byte	0x54
 4164 041e E0030000 		.4byte	0x3e0
 4165 0422 03       		.uleb128 0x3
 4166 0423 0C0D0000 		.4byte	.LASF63
 4167 0427 09       		.byte	0x9
 4168 0428 7B       		.byte	0x7b
 4169 0429 2D040000 		.4byte	0x42d
 4170 042d 11       		.uleb128 0x11
 4171 042e 0C0D0000 		.4byte	.LASF63
ARM GAS  C:\Users\Phuong\AppData\Local\Temp\ccG6FMOL.s 			page 104


 4172 0432 08       		.uleb128 0x8
 4173 0433 5E040000 		.4byte	.LASF64
 4174 0437 08       		.byte	0x8
 4175 0438 09       		.byte	0x9
 4176 0439 80       		.byte	0x80
 4177 043a 57040000 		.4byte	0x457
 4178 043e 0B       		.uleb128 0xb
 4179 043f F80D0000 		.4byte	.LASF65
 4180 0443 09       		.byte	0x9
 4181 0444 82       		.byte	0x82
 4182 0445 57040000 		.4byte	0x457
 4183 0449 00       		.byte	0
 4184 044a 0B       		.uleb128 0xb
 4185 044b E6100000 		.4byte	.LASF66
 4186 044f 09       		.byte	0x9
 4187 0450 83       		.byte	0x83
 4188 0451 DC000000 		.4byte	0xdc
 4189 0455 04       		.byte	0x4
 4190 0456 00       		.byte	0
 4191 0457 0A       		.uleb128 0xa
 4192 0458 04       		.byte	0x4
 4193 0459 5D040000 		.4byte	0x45d
 4194 045d 12       		.uleb128 0x12
 4195 045e 22040000 		.4byte	0x422
 4196 0462 03       		.uleb128 0x3
 4197 0463 5E040000 		.4byte	.LASF64
 4198 0467 09       		.byte	0x9
 4199 0468 84       		.byte	0x84
 4200 0469 32040000 		.4byte	0x432
 4201 046d 0A       		.uleb128 0xa
 4202 046e 04       		.byte	0x4
 4203 046f 73040000 		.4byte	0x473
 4204 0473 12       		.uleb128 0x12
 4205 0474 2C000000 		.4byte	0x2c
 4206 0478 0A       		.uleb128 0xa
 4207 0479 04       		.byte	0x4
 4208 047a 2C000000 		.4byte	0x2c
 4209 047e 08       		.uleb128 0x8
 4210 047f A60E0000 		.4byte	.LASF67
 4211 0483 0C       		.byte	0xc
 4212 0484 0A       		.byte	0xa
 4213 0485 86       		.byte	0x86
 4214 0486 AD040000 		.4byte	0x4ad
 4215 048a 09       		.uleb128 0x9
 4216 048b 74616700 		.ascii	"tag\000"
 4217 048f 0A       		.byte	0xa
 4218 0490 88       		.byte	0x88
 4219 0491 68000000 		.4byte	0x68
 4220 0495 00       		.byte	0
 4221 0496 09       		.uleb128 0x9
 4222 0497 6C656E00 		.ascii	"len\000"
 4223 049b 0A       		.byte	0xa
 4224 049c 89       		.byte	0x89
 4225 049d 76000000 		.4byte	0x76
 4226 04a1 04       		.byte	0x4
 4227 04a2 09       		.uleb128 0x9
 4228 04a3 7000     		.ascii	"p\000"
ARM GAS  C:\Users\Phuong\AppData\Local\Temp\ccG6FMOL.s 			page 105


 4229 04a5 0A       		.byte	0xa
 4230 04a6 8A       		.byte	0x8a
 4231 04a7 78040000 		.4byte	0x478
 4232 04ab 08       		.byte	0x8
 4233 04ac 00       		.byte	0
 4234 04ad 03       		.uleb128 0x3
 4235 04ae A60E0000 		.4byte	.LASF67
 4236 04b2 0A       		.byte	0xa
 4237 04b3 8C       		.byte	0x8c
 4238 04b4 7E040000 		.4byte	0x47e
 4239 04b8 05       		.uleb128 0x5
 4240 04b9 01       		.byte	0x1
 4241 04ba 2C000000 		.4byte	0x2c
 4242 04be 0B       		.byte	0xb
 4243 04bf 65       		.byte	0x65
 4244 04c0 81060000 		.4byte	0x681
 4245 04c4 06       		.uleb128 0x6
 4246 04c5 500C0000 		.4byte	.LASF68
 4247 04c9 00       		.byte	0
 4248 04ca 06       		.uleb128 0x6
 4249 04cb F0000000 		.4byte	.LASF69
 4250 04cf 01       		.byte	0x1
 4251 04d0 06       		.uleb128 0x6
 4252 04d1 47010000 		.4byte	.LASF70
 4253 04d5 02       		.byte	0x2
 4254 04d6 06       		.uleb128 0x6
 4255 04d7 090A0000 		.4byte	.LASF71
 4256 04db 03       		.byte	0x3
 4257 04dc 06       		.uleb128 0x6
 4258 04dd F5020000 		.4byte	.LASF72
 4259 04e1 04       		.byte	0x4
 4260 04e2 06       		.uleb128 0x6
 4261 04e3 E0040000 		.4byte	.LASF73
 4262 04e7 05       		.byte	0x5
 4263 04e8 06       		.uleb128 0x6
 4264 04e9 1E0D0000 		.4byte	.LASF74
 4265 04ed 06       		.byte	0x6
 4266 04ee 06       		.uleb128 0x6
 4267 04ef 65070000 		.4byte	.LASF75
 4268 04f3 07       		.byte	0x7
 4269 04f4 06       		.uleb128 0x6
 4270 04f5 62010000 		.4byte	.LASF76
 4271 04f9 08       		.byte	0x8
 4272 04fa 06       		.uleb128 0x6
 4273 04fb 78130000 		.4byte	.LASF77
 4274 04ff 09       		.byte	0x9
 4275 0500 06       		.uleb128 0x6
 4276 0501 6B0C0000 		.4byte	.LASF78
 4277 0505 0A       		.byte	0xa
 4278 0506 06       		.uleb128 0x6
 4279 0507 C1090000 		.4byte	.LASF79
 4280 050b 0B       		.byte	0xb
 4281 050c 06       		.uleb128 0x6
 4282 050d 81100000 		.4byte	.LASF80
 4283 0511 0C       		.byte	0xc
 4284 0512 06       		.uleb128 0x6
 4285 0513 470B0000 		.4byte	.LASF81
ARM GAS  C:\Users\Phuong\AppData\Local\Temp\ccG6FMOL.s 			page 106


 4286 0517 0D       		.byte	0xd
 4287 0518 06       		.uleb128 0x6
 4288 0519 F1110000 		.4byte	.LASF82
 4289 051d 0E       		.byte	0xe
 4290 051e 06       		.uleb128 0x6
 4291 051f 34050000 		.4byte	.LASF83
 4292 0523 0F       		.byte	0xf
 4293 0524 06       		.uleb128 0x6
 4294 0525 44130000 		.4byte	.LASF84
 4295 0529 10       		.byte	0x10
 4296 052a 06       		.uleb128 0x6
 4297 052b BB020000 		.4byte	.LASF85
 4298 052f 11       		.byte	0x11
 4299 0530 06       		.uleb128 0x6
 4300 0531 790B0000 		.4byte	.LASF86
 4301 0535 12       		.byte	0x12
 4302 0536 06       		.uleb128 0x6
 4303 0537 71040000 		.4byte	.LASF87
 4304 053b 13       		.byte	0x13
 4305 053c 06       		.uleb128 0x6
 4306 053d 27070000 		.4byte	.LASF88
 4307 0541 14       		.byte	0x14
 4308 0542 06       		.uleb128 0x6
 4309 0543 D80D0000 		.4byte	.LASF89
 4310 0547 15       		.byte	0x15
 4311 0548 06       		.uleb128 0x6
 4312 0549 C1080000 		.4byte	.LASF90
 4313 054d 16       		.byte	0x16
 4314 054e 06       		.uleb128 0x6
 4315 054f 830E0000 		.4byte	.LASF91
 4316 0553 17       		.byte	0x17
 4317 0554 06       		.uleb128 0x6
 4318 0555 890C0000 		.4byte	.LASF92
 4319 0559 18       		.byte	0x18
 4320 055a 06       		.uleb128 0x6
 4321 055b 0C020000 		.4byte	.LASF93
 4322 055f 19       		.byte	0x19
 4323 0560 06       		.uleb128 0x6
 4324 0561 0E0B0000 		.4byte	.LASF94
 4325 0565 1A       		.byte	0x1a
 4326 0566 06       		.uleb128 0x6
 4327 0567 98110000 		.4byte	.LASF95
 4328 056b 1B       		.byte	0x1b
 4329 056c 06       		.uleb128 0x6
 4330 056d B10C0000 		.4byte	.LASF96
 4331 0571 1C       		.byte	0x1c
 4332 0572 06       		.uleb128 0x6
 4333 0573 24130000 		.4byte	.LASF97
 4334 0577 1D       		.byte	0x1d
 4335 0578 06       		.uleb128 0x6
 4336 0579 87070000 		.4byte	.LASF98
 4337 057d 1E       		.byte	0x1e
 4338 057e 06       		.uleb128 0x6
 4339 057f 6C000000 		.4byte	.LASF99
 4340 0583 1F       		.byte	0x1f
 4341 0584 06       		.uleb128 0x6
 4342 0585 DB0B0000 		.4byte	.LASF100
ARM GAS  C:\Users\Phuong\AppData\Local\Temp\ccG6FMOL.s 			page 107


 4343 0589 20       		.byte	0x20
 4344 058a 06       		.uleb128 0x6
 4345 058b 3B0F0000 		.4byte	.LASF101
 4346 058f 21       		.byte	0x21
 4347 0590 06       		.uleb128 0x6
 4348 0591 10030000 		.4byte	.LASF102
 4349 0595 22       		.byte	0x22
 4350 0596 06       		.uleb128 0x6
 4351 0597 C1070000 		.4byte	.LASF103
 4352 059b 23       		.byte	0x23
 4353 059c 06       		.uleb128 0x6
 4354 059d 20100000 		.4byte	.LASF104
 4355 05a1 24       		.byte	0x24
 4356 05a2 06       		.uleb128 0x6
 4357 05a3 A4120000 		.4byte	.LASF105
 4358 05a7 25       		.byte	0x25
 4359 05a8 06       		.uleb128 0x6
 4360 05a9 D5110000 		.4byte	.LASF106
 4361 05ad 26       		.byte	0x26
 4362 05ae 06       		.uleb128 0x6
 4363 05af 8C000000 		.4byte	.LASF107
 4364 05b3 27       		.byte	0x27
 4365 05b4 06       		.uleb128 0x6
 4366 05b5 4E090000 		.4byte	.LASF108
 4367 05b9 28       		.byte	0x28
 4368 05ba 06       		.uleb128 0x6
 4369 05bb A3040000 		.4byte	.LASF109
 4370 05bf 29       		.byte	0x29
 4371 05c0 06       		.uleb128 0x6
 4372 05c1 D30E0000 		.4byte	.LASF110
 4373 05c5 2A       		.byte	0x2a
 4374 05c6 06       		.uleb128 0x6
 4375 05c7 E50A0000 		.4byte	.LASF111
 4376 05cb 2B       		.byte	0x2b
 4377 05cc 06       		.uleb128 0x6
 4378 05cd 000E0000 		.4byte	.LASF112
 4379 05d1 2C       		.byte	0x2c
 4380 05d2 06       		.uleb128 0x6
 4381 05d3 16090000 		.4byte	.LASF113
 4382 05d7 2D       		.byte	0x2d
 4383 05d8 06       		.uleb128 0x6
 4384 05d9 E1080000 		.4byte	.LASF114
 4385 05dd 2E       		.byte	0x2e
 4386 05de 06       		.uleb128 0x6
 4387 05df 1B0F0000 		.4byte	.LASF115
 4388 05e3 2F       		.byte	0x2f
 4389 05e4 06       		.uleb128 0x6
 4390 05e5 240A0000 		.4byte	.LASF116
 4391 05e9 30       		.byte	0x30
 4392 05ea 06       		.uleb128 0x6
 4393 05eb DC010000 		.4byte	.LASF117
 4394 05ef 31       		.byte	0x31
 4395 05f0 06       		.uleb128 0x6
 4396 05f1 C20A0000 		.4byte	.LASF118
 4397 05f5 32       		.byte	0x32
 4398 05f6 06       		.uleb128 0x6
 4399 05f7 79030000 		.4byte	.LASF119
ARM GAS  C:\Users\Phuong\AppData\Local\Temp\ccG6FMOL.s 			page 108


 4400 05fb 33       		.byte	0x33
 4401 05fc 06       		.uleb128 0x6
 4402 05fd B4050000 		.4byte	.LASF120
 4403 0601 34       		.byte	0x34
 4404 0602 06       		.uleb128 0x6
 4405 0603 910D0000 		.4byte	.LASF121
 4406 0607 35       		.byte	0x35
 4407 0608 06       		.uleb128 0x6
 4408 0609 4D080000 		.4byte	.LASF122
 4409 060d 36       		.byte	0x36
 4410 060e 06       		.uleb128 0x6
 4411 060f 80010000 		.4byte	.LASF123
 4412 0613 37       		.byte	0x37
 4413 0614 06       		.uleb128 0x6
 4414 0615 96130000 		.4byte	.LASF124
 4415 0619 38       		.byte	0x38
 4416 061a 06       		.uleb128 0x6
 4417 061b 6E0A0000 		.4byte	.LASF125
 4418 061f 39       		.byte	0x39
 4419 0620 06       		.uleb128 0x6
 4420 0621 8D0A0000 		.4byte	.LASF126
 4421 0625 3A       		.byte	0x3a
 4422 0626 06       		.uleb128 0x6
 4423 0627 CA100000 		.4byte	.LASF127
 4424 062b 3B       		.byte	0x3b
 4425 062c 06       		.uleb128 0x6
 4426 062d F90B0000 		.4byte	.LASF128
 4427 0631 3C       		.byte	0x3c
 4428 0632 06       		.uleb128 0x6
 4429 0633 C0120000 		.4byte	.LASF129
 4430 0637 3D       		.byte	0x3d
 4431 0638 06       		.uleb128 0x6
 4432 0639 3B060000 		.4byte	.LASF130
 4433 063d 3E       		.byte	0x3e
 4434 063e 06       		.uleb128 0x6
 4435 063f 16000000 		.4byte	.LASF131
 4436 0643 3F       		.byte	0x3f
 4437 0644 06       		.uleb128 0x6
 4438 0645 69080000 		.4byte	.LASF132
 4439 0649 40       		.byte	0x40
 4440 064a 06       		.uleb128 0x6
 4441 064b B70E0000 		.4byte	.LASF133
 4442 064f 41       		.byte	0x41
 4443 0650 06       		.uleb128 0x6
 4444 0651 8E090000 		.4byte	.LASF134
 4445 0655 42       		.byte	0x42
 4446 0656 06       		.uleb128 0x6
 4447 0657 81050000 		.4byte	.LASF135
 4448 065b 43       		.byte	0x43
 4449 065c 06       		.uleb128 0x6
 4450 065d 6A0D0000 		.4byte	.LASF136
 4451 0661 44       		.byte	0x44
 4452 0662 06       		.uleb128 0x6
 4453 0663 1B080000 		.4byte	.LASF137
 4454 0667 45       		.byte	0x45
 4455 0668 06       		.uleb128 0x6
 4456 0669 D10C0000 		.4byte	.LASF138
ARM GAS  C:\Users\Phuong\AppData\Local\Temp\ccG6FMOL.s 			page 109


 4457 066d 46       		.byte	0x46
 4458 066e 06       		.uleb128 0x6
 4459 066f 64110000 		.4byte	.LASF139
 4460 0673 47       		.byte	0x47
 4461 0674 06       		.uleb128 0x6
 4462 0675 AE030000 		.4byte	.LASF140
 4463 0679 48       		.byte	0x48
 4464 067a 06       		.uleb128 0x6
 4465 067b C10F0000 		.4byte	.LASF141
 4466 067f 49       		.byte	0x49
 4467 0680 00       		.byte	0
 4468 0681 03       		.uleb128 0x3
 4469 0682 BA000000 		.4byte	.LASF142
 4470 0686 0B       		.byte	0xb
 4471 0687 B0       		.byte	0xb0
 4472 0688 B8040000 		.4byte	0x4b8
 4473 068c 02       		.uleb128 0x2
 4474 068d 04       		.byte	0x4
 4475 068e 07       		.byte	0x7
 4476 068f 17100000 		.4byte	.LASF143
 4477 0693 08       		.uleb128 0x8
 4478 0694 34030000 		.4byte	.LASF144
 4479 0698 0C       		.byte	0xc
 4480 0699 0C       		.byte	0xc
 4481 069a 36       		.byte	0x36
 4482 069b C4060000 		.4byte	0x6c4
 4483 069f 09       		.uleb128 0x9
 4484 06a0 62756600 		.ascii	"buf\000"
 4485 06a4 0C       		.byte	0xc
 4486 06a5 38       		.byte	0x38
 4487 06a6 78040000 		.4byte	0x478
 4488 06aa 00       		.byte	0
 4489 06ab 0B       		.uleb128 0xb
 4490 06ac B1090000 		.4byte	.LASF145
 4491 06b0 0C       		.byte	0xc
 4492 06b1 39       		.byte	0x39
 4493 06b2 76000000 		.4byte	0x76
 4494 06b6 04       		.byte	0x4
 4495 06b7 0B       		.uleb128 0xb
 4496 06b8 C0110000 		.4byte	.LASF146
 4497 06bc 0C       		.byte	0xc
 4498 06bd 3A       		.byte	0x3a
 4499 06be 78040000 		.4byte	0x478
 4500 06c2 08       		.byte	0x8
 4501 06c3 00       		.byte	0
 4502 06c4 03       		.uleb128 0x3
 4503 06c5 34030000 		.4byte	.LASF144
 4504 06c9 0C       		.byte	0xc
 4505 06ca 3C       		.byte	0x3c
 4506 06cb 93060000 		.4byte	0x693
 4507 06cf 13       		.uleb128 0x13
 4508 06d0 85080000 		.4byte	.LASF147
 4509 06d4 09       		.byte	0x9
 4510 06d5 9B       		.byte	0x9b
 4511 06d6 EA060000 		.4byte	0x6ea
 4512 06da 03       		.byte	0x3
 4513 06db EA060000 		.4byte	0x6ea
ARM GAS  C:\Users\Phuong\AppData\Local\Temp\ccG6FMOL.s 			page 110


 4514 06df 14       		.uleb128 0x14
 4515 06e0 706B00   		.ascii	"pk\000"
 4516 06e3 09       		.byte	0x9
 4517 06e4 9B       		.byte	0x9b
 4518 06e5 F0060000 		.4byte	0x6f0
 4519 06e9 00       		.byte	0
 4520 06ea 0A       		.uleb128 0xa
 4521 06eb 04       		.byte	0x4
 4522 06ec F7010000 		.4byte	0x1f7
 4523 06f0 12       		.uleb128 0x12
 4524 06f1 62040000 		.4byte	0x462
 4525 06f5 13       		.uleb128 0x13
 4526 06f6 1B010000 		.4byte	.LASF148
 4527 06fa 09       		.byte	0x9
 4528 06fb A8       		.byte	0xa8
 4529 06fc 10070000 		.4byte	0x710
 4530 0700 03       		.byte	0x3
 4531 0701 10070000 		.4byte	0x710
 4532 0705 14       		.uleb128 0x14
 4533 0706 706B00   		.ascii	"pk\000"
 4534 0709 09       		.byte	0x9
 4535 070a A8       		.byte	0xa8
 4536 070b F0060000 		.4byte	0x6f0
 4537 070f 00       		.byte	0
 4538 0710 0A       		.uleb128 0xa
 4539 0711 04       		.byte	0x4
 4540 0712 D4030000 		.4byte	0x3d4
 4541 0716 15       		.uleb128 0x15
 4542 0717 2B060000 		.4byte	.LASF150
 4543 071b 01       		.byte	0x1
 4544 071c AC       		.byte	0xac
 4545 071d 68000000 		.4byte	0x68
 4546 0721 00000000 		.4byte	.LFB11
 4547 0725 64000000 		.4byte	.LFE11-.LFB11
 4548 0729 01       		.uleb128 0x1
 4549 072a 9C       		.byte	0x9c
 4550 072b 86070000 		.4byte	0x786
 4551 072f 16       		.uleb128 0x16
 4552 0730 7000     		.ascii	"p\000"
 4553 0732 01       		.byte	0x1
 4554 0733 AC       		.byte	0xac
 4555 0734 86070000 		.4byte	0x786
 4556 0738 00000000 		.4byte	.LLST0
 4557 073c 16       		.uleb128 0x16
 4558 073d 656E6400 		.ascii	"end\000"
 4559 0741 01       		.byte	0x1
 4560 0742 AC       		.byte	0xac
 4561 0743 6D040000 		.4byte	0x46d
 4562 0747 58000000 		.4byte	.LLST1
 4563 074b 17       		.uleb128 0x17
 4564 074c 32000000 		.4byte	.LASF149
 4565 0750 01       		.byte	0x1
 4566 0751 AD       		.byte	0xad
 4567 0752 8C070000 		.4byte	0x78c
 4568 0756 9A000000 		.4byte	.LLST2
 4569 075a 18       		.uleb128 0x18
 4570 075b 72657400 		.ascii	"ret\000"
ARM GAS  C:\Users\Phuong\AppData\Local\Temp\ccG6FMOL.s 			page 111


 4571 075f 01       		.byte	0x1
 4572 0760 AF       		.byte	0xaf
 4573 0761 68000000 		.4byte	0x68
 4574 0765 C6000000 		.4byte	.LLST3
 4575 0769 19       		.uleb128 0x19
 4576 076a 26000000 		.4byte	.LVL4
 4577 076e 7F230000 		.4byte	0x237f
 4578 0772 1A       		.uleb128 0x1a
 4579 0773 01       		.uleb128 0x1
 4580 0774 50       		.byte	0x50
 4581 0775 02       		.uleb128 0x2
 4582 0776 74       		.byte	0x74
 4583 0777 00       		.sleb128 0
 4584 0778 1A       		.uleb128 0x1a
 4585 0779 01       		.uleb128 0x1
 4586 077a 51       		.byte	0x51
 4587 077b 02       		.uleb128 0x2
 4588 077c 76       		.byte	0x76
 4589 077d 00       		.sleb128 0
 4590 077e 1A       		.uleb128 0x1a
 4591 077f 01       		.uleb128 0x1
 4592 0780 52       		.byte	0x52
 4593 0781 02       		.uleb128 0x2
 4594 0782 75       		.byte	0x75
 4595 0783 04       		.sleb128 4
 4596 0784 00       		.byte	0
 4597 0785 00       		.byte	0
 4598 0786 0A       		.uleb128 0xa
 4599 0787 04       		.byte	0x4
 4600 0788 78040000 		.4byte	0x478
 4601 078c 0A       		.uleb128 0xa
 4602 078d 04       		.byte	0x4
 4603 078e AD040000 		.4byte	0x4ad
 4604 0792 1B       		.uleb128 0x1b
 4605 0793 48030000 		.4byte	.LASF151
 4606 0797 01       		.byte	0x1
 4607 0798 3602     		.2byte	0x236
 4608 079a 68000000 		.4byte	0x68
 4609 079e 00000000 		.4byte	.LFB18
 4610 07a2 68000000 		.4byte	.LFE18-.LFB18
 4611 07a6 01       		.uleb128 0x1
 4612 07a7 9C       		.byte	0x9c
 4613 07a8 64080000 		.4byte	0x864
 4614 07ac 1C       		.uleb128 0x1c
 4615 07ad 7000     		.ascii	"p\000"
 4616 07af 01       		.byte	0x1
 4617 07b0 3602     		.2byte	0x236
 4618 07b2 86070000 		.4byte	0x786
 4619 07b6 FE000000 		.4byte	.LLST4
 4620 07ba 1C       		.uleb128 0x1c
 4621 07bb 656E6400 		.ascii	"end\000"
 4622 07bf 01       		.byte	0x1
 4623 07c0 3702     		.2byte	0x237
 4624 07c2 6D040000 		.4byte	0x46d
 4625 07c6 2A010000 		.4byte	.LLST5
 4626 07ca 1D       		.uleb128 0x1d
 4627 07cb DE0A0000 		.4byte	.LASF152
ARM GAS  C:\Users\Phuong\AppData\Local\Temp\ccG6FMOL.s 			page 112


 4628 07cf 01       		.byte	0x1
 4629 07d0 3802     		.2byte	0x238
 4630 07d2 64080000 		.4byte	0x864
 4631 07d6 56010000 		.4byte	.LLST6
 4632 07da 1D       		.uleb128 0x1d
 4633 07db 32000000 		.4byte	.LASF149
 4634 07df 01       		.byte	0x1
 4635 07e0 3802     		.2byte	0x238
 4636 07e2 8C070000 		.4byte	0x78c
 4637 07e6 82010000 		.4byte	.LLST7
 4638 07ea 1E       		.uleb128 0x1e
 4639 07eb 72657400 		.ascii	"ret\000"
 4640 07ef 01       		.byte	0x1
 4641 07f0 3A02     		.2byte	0x23a
 4642 07f2 68000000 		.4byte	0x68
 4643 07f6 AE010000 		.4byte	.LLST8
 4644 07fa 1F       		.uleb128 0x1f
 4645 07fb B8110000 		.4byte	.LASF153
 4646 07ff 01       		.byte	0x1
 4647 0800 3B02     		.2byte	0x23b
 4648 0802 AD040000 		.4byte	0x4ad
 4649 0806 02       		.uleb128 0x2
 4650 0807 91       		.byte	0x91
 4651 0808 5C       		.sleb128 -36
 4652 0809 20       		.uleb128 0x20
 4653 080a 16000000 		.4byte	.LVL21
 4654 080e 8A230000 		.4byte	0x238a
 4655 0812 27080000 		.4byte	0x827
 4656 0816 1A       		.uleb128 0x1a
 4657 0817 01       		.uleb128 0x1
 4658 0818 50       		.byte	0x50
 4659 0819 02       		.uleb128 0x2
 4660 081a 74       		.byte	0x74
 4661 081b 00       		.sleb128 0
 4662 081c 1A       		.uleb128 0x1a
 4663 081d 01       		.uleb128 0x1
 4664 081e 51       		.byte	0x51
 4665 081f 01       		.uleb128 0x1
 4666 0820 30       		.byte	0x30
 4667 0821 1A       		.uleb128 0x1a
 4668 0822 01       		.uleb128 0x1
 4669 0823 52       		.byte	0x52
 4670 0824 01       		.uleb128 0x1
 4671 0825 3C       		.byte	0x3c
 4672 0826 00       		.byte	0
 4673 0827 20       		.uleb128 0x20
 4674 0828 22000000 		.4byte	.LVL22
 4675 082c 93230000 		.4byte	0x2393
 4676 0830 4D080000 		.4byte	0x84d
 4677 0834 1A       		.uleb128 0x1a
 4678 0835 01       		.uleb128 0x1
 4679 0836 50       		.byte	0x50
 4680 0837 02       		.uleb128 0x2
 4681 0838 76       		.byte	0x76
 4682 0839 00       		.sleb128 0
 4683 083a 1A       		.uleb128 0x1a
 4684 083b 01       		.uleb128 0x1
ARM GAS  C:\Users\Phuong\AppData\Local\Temp\ccG6FMOL.s 			page 113


 4685 083c 51       		.byte	0x51
 4686 083d 02       		.uleb128 0x2
 4687 083e 77       		.byte	0x77
 4688 083f 00       		.sleb128 0
 4689 0840 1A       		.uleb128 0x1a
 4690 0841 01       		.uleb128 0x1
 4691 0842 52       		.byte	0x52
 4692 0843 02       		.uleb128 0x2
 4693 0844 91       		.byte	0x91
 4694 0845 5C       		.sleb128 -36
 4695 0846 1A       		.uleb128 0x1a
 4696 0847 01       		.uleb128 0x1
 4697 0848 53       		.byte	0x53
 4698 0849 02       		.uleb128 0x2
 4699 084a 74       		.byte	0x74
 4700 084b 00       		.sleb128 0
 4701 084c 00       		.byte	0
 4702 084d 19       		.uleb128 0x19
 4703 084e 36000000 		.4byte	.LVL26
 4704 0852 9F230000 		.4byte	0x239f
 4705 0856 1A       		.uleb128 0x1a
 4706 0857 01       		.uleb128 0x1
 4707 0858 50       		.byte	0x50
 4708 0859 02       		.uleb128 0x2
 4709 085a 91       		.byte	0x91
 4710 085b 5C       		.sleb128 -36
 4711 085c 1A       		.uleb128 0x1a
 4712 085d 01       		.uleb128 0x1
 4713 085e 51       		.byte	0x51
 4714 085f 02       		.uleb128 0x2
 4715 0860 75       		.byte	0x75
 4716 0861 00       		.sleb128 0
 4717 0862 00       		.byte	0
 4718 0863 00       		.byte	0
 4719 0864 0A       		.uleb128 0xa
 4720 0865 04       		.byte	0x4
 4721 0866 17040000 		.4byte	0x417
 4722 086a 1B       		.uleb128 0x1b
 4723 086b 750F0000 		.4byte	.LASF154
 4724 086f 01       		.byte	0x1
 4725 0870 FF01     		.2byte	0x1ff
 4726 0872 68000000 		.4byte	0x68
 4727 0876 00000000 		.4byte	.LFB17
 4728 087a EC000000 		.4byte	.LFE17-.LFB17
 4729 087e 01       		.uleb128 0x1
 4730 087f 9C       		.byte	0x9c
 4731 0880 EA090000 		.4byte	0x9ea
 4732 0884 1C       		.uleb128 0x1c
 4733 0885 7000     		.ascii	"p\000"
 4734 0887 01       		.byte	0x1
 4735 0888 FF01     		.2byte	0x1ff
 4736 088a 86070000 		.4byte	0x786
 4737 088e DB010000 		.4byte	.LLST9
 4738 0892 1C       		.uleb128 0x1c
 4739 0893 656E6400 		.ascii	"end\000"
 4740 0897 01       		.byte	0x1
 4741 0898 0002     		.2byte	0x200
ARM GAS  C:\Users\Phuong\AppData\Local\Temp\ccG6FMOL.s 			page 114


 4742 089a 6D040000 		.4byte	0x46d
 4743 089e 07020000 		.4byte	.LLST10
 4744 08a2 1C       		.uleb128 0x1c
 4745 08a3 72736100 		.ascii	"rsa\000"
 4746 08a7 01       		.byte	0x1
 4747 08a8 0102     		.2byte	0x201
 4748 08aa EA060000 		.4byte	0x6ea
 4749 08ae 33020000 		.4byte	.LLST11
 4750 08b2 1E       		.uleb128 0x1e
 4751 08b3 72657400 		.ascii	"ret\000"
 4752 08b7 01       		.byte	0x1
 4753 08b8 0302     		.2byte	0x203
 4754 08ba 68000000 		.4byte	0x68
 4755 08be 5F020000 		.4byte	.LLST12
 4756 08c2 21       		.uleb128 0x21
 4757 08c3 6C656E00 		.ascii	"len\000"
 4758 08c7 01       		.byte	0x1
 4759 08c8 0402     		.2byte	0x204
 4760 08ca 76000000 		.4byte	0x76
 4761 08ce 02       		.uleb128 0x2
 4762 08cf 91       		.byte	0x91
 4763 08d0 6C       		.sleb128 -20
 4764 08d1 20       		.uleb128 0x20
 4765 08d2 12000000 		.4byte	.LVL33
 4766 08d6 7F230000 		.4byte	0x237f
 4767 08da F7080000 		.4byte	0x8f7
 4768 08de 1A       		.uleb128 0x1a
 4769 08df 01       		.uleb128 0x1
 4770 08e0 50       		.byte	0x50
 4771 08e1 02       		.uleb128 0x2
 4772 08e2 76       		.byte	0x76
 4773 08e3 00       		.sleb128 0
 4774 08e4 1A       		.uleb128 0x1a
 4775 08e5 01       		.uleb128 0x1
 4776 08e6 51       		.byte	0x51
 4777 08e7 02       		.uleb128 0x2
 4778 08e8 74       		.byte	0x74
 4779 08e9 00       		.sleb128 0
 4780 08ea 1A       		.uleb128 0x1a
 4781 08eb 01       		.uleb128 0x1
 4782 08ec 52       		.byte	0x52
 4783 08ed 02       		.uleb128 0x2
 4784 08ee 91       		.byte	0x91
 4785 08ef 6C       		.sleb128 -20
 4786 08f0 1A       		.uleb128 0x1a
 4787 08f1 01       		.uleb128 0x1
 4788 08f2 53       		.byte	0x53
 4789 08f3 02       		.uleb128 0x2
 4790 08f4 08       		.byte	0x8
 4791 08f5 30       		.byte	0x30
 4792 08f6 00       		.byte	0
 4793 08f7 20       		.uleb128 0x20
 4794 08f8 36000000 		.4byte	.LVL37
 4795 08fc 7F230000 		.4byte	0x237f
 4796 0900 1C090000 		.4byte	0x91c
 4797 0904 1A       		.uleb128 0x1a
 4798 0905 01       		.uleb128 0x1
ARM GAS  C:\Users\Phuong\AppData\Local\Temp\ccG6FMOL.s 			page 115


 4799 0906 50       		.byte	0x50
 4800 0907 02       		.uleb128 0x2
 4801 0908 76       		.byte	0x76
 4802 0909 00       		.sleb128 0
 4803 090a 1A       		.uleb128 0x1a
 4804 090b 01       		.uleb128 0x1
 4805 090c 51       		.byte	0x51
 4806 090d 02       		.uleb128 0x2
 4807 090e 74       		.byte	0x74
 4808 090f 00       		.sleb128 0
 4809 0910 1A       		.uleb128 0x1a
 4810 0911 01       		.uleb128 0x1
 4811 0912 52       		.byte	0x52
 4812 0913 02       		.uleb128 0x2
 4813 0914 91       		.byte	0x91
 4814 0915 6C       		.sleb128 -20
 4815 0916 1A       		.uleb128 0x1a
 4816 0917 01       		.uleb128 0x1
 4817 0918 53       		.byte	0x53
 4818 0919 01       		.uleb128 0x1
 4819 091a 32       		.byte	0x32
 4820 091b 00       		.byte	0
 4821 091c 20       		.uleb128 0x20
 4822 091d 5C000000 		.4byte	.LVL41
 4823 0921 AB230000 		.4byte	0x23ab
 4824 0925 5F090000 		.4byte	0x95f
 4825 0929 1A       		.uleb128 0x1a
 4826 092a 01       		.uleb128 0x1
 4827 092b 50       		.byte	0x50
 4828 092c 02       		.uleb128 0x2
 4829 092d 75       		.byte	0x75
 4830 092e 00       		.sleb128 0
 4831 092f 1A       		.uleb128 0x1a
 4832 0930 01       		.uleb128 0x1
 4833 0931 53       		.byte	0x53
 4834 0932 01       		.uleb128 0x1
 4835 0933 30       		.byte	0x30
 4836 0934 1A       		.uleb128 0x1a
 4837 0935 02       		.uleb128 0x2
 4838 0936 7D       		.byte	0x7d
 4839 0937 00       		.sleb128 0
 4840 0938 01       		.uleb128 0x1
 4841 0939 30       		.byte	0x30
 4842 093a 1A       		.uleb128 0x1a
 4843 093b 02       		.uleb128 0x2
 4844 093c 7D       		.byte	0x7d
 4845 093d 04       		.sleb128 4
 4846 093e 01       		.uleb128 0x1
 4847 093f 30       		.byte	0x30
 4848 0940 1A       		.uleb128 0x1a
 4849 0941 02       		.uleb128 0x2
 4850 0942 7D       		.byte	0x7d
 4851 0943 08       		.sleb128 8
 4852 0944 01       		.uleb128 0x1
 4853 0945 30       		.byte	0x30
 4854 0946 1A       		.uleb128 0x1a
 4855 0947 02       		.uleb128 0x2
ARM GAS  C:\Users\Phuong\AppData\Local\Temp\ccG6FMOL.s 			page 116


 4856 0948 7D       		.byte	0x7d
 4857 0949 0C       		.sleb128 12
 4858 094a 01       		.uleb128 0x1
 4859 094b 30       		.byte	0x30
 4860 094c 1A       		.uleb128 0x1a
 4861 094d 02       		.uleb128 0x2
 4862 094e 7D       		.byte	0x7d
 4863 094f 10       		.sleb128 16
 4864 0950 01       		.uleb128 0x1
 4865 0951 30       		.byte	0x30
 4866 0952 1A       		.uleb128 0x1a
 4867 0953 02       		.uleb128 0x2
 4868 0954 7D       		.byte	0x7d
 4869 0955 14       		.sleb128 20
 4870 0956 01       		.uleb128 0x1
 4871 0957 30       		.byte	0x30
 4872 0958 1A       		.uleb128 0x1a
 4873 0959 02       		.uleb128 0x2
 4874 095a 7D       		.byte	0x7d
 4875 095b 18       		.sleb128 24
 4876 095c 01       		.uleb128 0x1
 4877 095d 30       		.byte	0x30
 4878 095e 00       		.byte	0
 4879 095f 20       		.uleb128 0x20
 4880 0960 76000000 		.4byte	.LVL43
 4881 0964 7F230000 		.4byte	0x237f
 4882 0968 84090000 		.4byte	0x984
 4883 096c 1A       		.uleb128 0x1a
 4884 096d 01       		.uleb128 0x1
 4885 096e 50       		.byte	0x50
 4886 096f 02       		.uleb128 0x2
 4887 0970 76       		.byte	0x76
 4888 0971 00       		.sleb128 0
 4889 0972 1A       		.uleb128 0x1a
 4890 0973 01       		.uleb128 0x1
 4891 0974 51       		.byte	0x51
 4892 0975 02       		.uleb128 0x2
 4893 0976 74       		.byte	0x74
 4894 0977 00       		.sleb128 0
 4895 0978 1A       		.uleb128 0x1a
 4896 0979 01       		.uleb128 0x1
 4897 097a 52       		.byte	0x52
 4898 097b 02       		.uleb128 0x2
 4899 097c 91       		.byte	0x91
 4900 097d 6C       		.sleb128 -20
 4901 097e 1A       		.uleb128 0x1a
 4902 097f 01       		.uleb128 0x1
 4903 0980 53       		.byte	0x53
 4904 0981 01       		.uleb128 0x1
 4905 0982 32       		.byte	0x32
 4906 0983 00       		.byte	0
 4907 0984 20       		.uleb128 0x20
 4908 0985 A0000000 		.4byte	.LVL47
 4909 0989 AB230000 		.4byte	0x23ab
 4910 098d C5090000 		.4byte	0x9c5
 4911 0991 1A       		.uleb128 0x1a
 4912 0992 01       		.uleb128 0x1
ARM GAS  C:\Users\Phuong\AppData\Local\Temp\ccG6FMOL.s 			page 117


 4913 0993 50       		.byte	0x50
 4914 0994 02       		.uleb128 0x2
 4915 0995 75       		.byte	0x75
 4916 0996 00       		.sleb128 0
 4917 0997 1A       		.uleb128 0x1a
 4918 0998 01       		.uleb128 0x1
 4919 0999 51       		.byte	0x51
 4920 099a 01       		.uleb128 0x1
 4921 099b 30       		.byte	0x30
 4922 099c 1A       		.uleb128 0x1a
 4923 099d 01       		.uleb128 0x1
 4924 099e 52       		.byte	0x52
 4925 099f 01       		.uleb128 0x1
 4926 09a0 30       		.byte	0x30
 4927 09a1 1A       		.uleb128 0x1a
 4928 09a2 01       		.uleb128 0x1
 4929 09a3 53       		.byte	0x53
 4930 09a4 01       		.uleb128 0x1
 4931 09a5 30       		.byte	0x30
 4932 09a6 1A       		.uleb128 0x1a
 4933 09a7 02       		.uleb128 0x2
 4934 09a8 7D       		.byte	0x7d
 4935 09a9 00       		.sleb128 0
 4936 09aa 01       		.uleb128 0x1
 4937 09ab 30       		.byte	0x30
 4938 09ac 1A       		.uleb128 0x1a
 4939 09ad 02       		.uleb128 0x2
 4940 09ae 7D       		.byte	0x7d
 4941 09af 04       		.sleb128 4
 4942 09b0 01       		.uleb128 0x1
 4943 09b1 30       		.byte	0x30
 4944 09b2 1A       		.uleb128 0x1a
 4945 09b3 02       		.uleb128 0x2
 4946 09b4 7D       		.byte	0x7d
 4947 09b5 08       		.sleb128 8
 4948 09b6 01       		.uleb128 0x1
 4949 09b7 30       		.byte	0x30
 4950 09b8 1A       		.uleb128 0x1a
 4951 09b9 02       		.uleb128 0x2
 4952 09ba 7D       		.byte	0x7d
 4953 09bb 0C       		.sleb128 12
 4954 09bc 01       		.uleb128 0x1
 4955 09bd 30       		.byte	0x30
 4956 09be 1A       		.uleb128 0x1a
 4957 09bf 02       		.uleb128 0x2
 4958 09c0 7D       		.byte	0x7d
 4959 09c1 10       		.sleb128 16
 4960 09c2 01       		.uleb128 0x1
 4961 09c3 30       		.byte	0x30
 4962 09c4 00       		.byte	0
 4963 09c5 20       		.uleb128 0x20
 4964 09c6 B4000000 		.4byte	.LVL49
 4965 09ca B6230000 		.4byte	0x23b6
 4966 09ce D9090000 		.4byte	0x9d9
 4967 09d2 1A       		.uleb128 0x1a
 4968 09d3 01       		.uleb128 0x1
 4969 09d4 50       		.byte	0x50
ARM GAS  C:\Users\Phuong\AppData\Local\Temp\ccG6FMOL.s 			page 118


 4970 09d5 02       		.uleb128 0x2
 4971 09d6 75       		.byte	0x75
 4972 09d7 00       		.sleb128 0
 4973 09d8 00       		.byte	0
 4974 09d9 19       		.uleb128 0x19
 4975 09da BE000000 		.4byte	.LVL50
 4976 09de C2230000 		.4byte	0x23c2
 4977 09e2 1A       		.uleb128 0x1a
 4978 09e3 01       		.uleb128 0x1
 4979 09e4 50       		.byte	0x50
 4980 09e5 02       		.uleb128 0x2
 4981 09e6 75       		.byte	0x75
 4982 09e7 00       		.sleb128 0
 4983 09e8 00       		.byte	0
 4984 09e9 00       		.byte	0
 4985 09ea 15       		.uleb128 0x15
 4986 09eb EE120000 		.4byte	.LASF155
 4987 09ef 01       		.byte	0x1
 4988 09f0 E4       		.byte	0xe4
 4989 09f1 68000000 		.4byte	0x68
 4990 09f5 00000000 		.4byte	.LFB12
 4991 09f9 40020000 		.4byte	.LFE12-.LFB12
 4992 09fd 01       		.uleb128 0x1
 4993 09fe 9C       		.byte	0x9c
 4994 09ff CA0C0000 		.4byte	0xcca
 4995 0a03 17       		.uleb128 0x17
 4996 0a04 32000000 		.4byte	.LASF149
 4997 0a08 01       		.byte	0x1
 4998 0a09 E4       		.byte	0xe4
 4999 0a0a CA0C0000 		.4byte	0xcca
 5000 0a0e 0D030000 		.4byte	.LLST13
 5001 0a12 16       		.uleb128 0x16
 5002 0a13 67727000 		.ascii	"grp\000"
 5003 0a17 01       		.byte	0x1
 5004 0a18 E4       		.byte	0xe4
 5005 0a19 D50C0000 		.4byte	0xcd5
 5006 0a1d 2E030000 		.4byte	.LLST14
 5007 0a21 18       		.uleb128 0x18
 5008 0a22 72657400 		.ascii	"ret\000"
 5009 0a26 01       		.byte	0x1
 5010 0a27 E6       		.byte	0xe6
 5011 0a28 68000000 		.4byte	0x68
 5012 0a2c 5A030000 		.4byte	.LLST15
 5013 0a30 22       		.uleb128 0x22
 5014 0a31 7000     		.ascii	"p\000"
 5015 0a33 01       		.byte	0x1
 5016 0a34 E7       		.byte	0xe7
 5017 0a35 78040000 		.4byte	0x478
 5018 0a39 02       		.uleb128 0x2
 5019 0a3a 91       		.byte	0x91
 5020 0a3b 5C       		.sleb128 -36
 5021 0a3c 18       		.uleb128 0x18
 5022 0a3d 656E6400 		.ascii	"end\000"
 5023 0a41 01       		.byte	0x1
 5024 0a42 E8       		.byte	0xe8
 5025 0a43 DB0C0000 		.4byte	0xcdb
 5026 0a47 07040000 		.4byte	.LLST16
ARM GAS  C:\Users\Phuong\AppData\Local\Temp\ccG6FMOL.s 			page 119


 5027 0a4b 23       		.uleb128 0x23
 5028 0a4c 640A0000 		.4byte	.LASF156
 5029 0a50 01       		.byte	0x1
 5030 0a51 E9       		.byte	0xe9
 5031 0a52 6D040000 		.4byte	0x46d
 5032 0a56 1A040000 		.4byte	.LLST17
 5033 0a5a 23       		.uleb128 0x23
 5034 0a5b D6040000 		.4byte	.LASF157
 5035 0a5f 01       		.byte	0x1
 5036 0a60 E9       		.byte	0xe9
 5037 0a61 6D040000 		.4byte	0x46d
 5038 0a65 43040000 		.4byte	.LLST18
 5039 0a69 22       		.uleb128 0x22
 5040 0a6a 6C656E00 		.ascii	"len\000"
 5041 0a6e 01       		.byte	0x1
 5042 0a6f EA       		.byte	0xea
 5043 0a70 76000000 		.4byte	0x76
 5044 0a74 02       		.uleb128 0x2
 5045 0a75 91       		.byte	0x91
 5046 0a76 58       		.sleb128 -40
 5047 0a77 22       		.uleb128 0x22
 5048 0a78 76657200 		.ascii	"ver\000"
 5049 0a7c 01       		.byte	0x1
 5050 0a7d EB       		.byte	0xeb
 5051 0a7e 68000000 		.4byte	0x68
 5052 0a82 02       		.uleb128 0x2
 5053 0a83 91       		.byte	0x91
 5054 0a84 54       		.sleb128 -44
 5055 0a85 20       		.uleb128 0x20
 5056 0a86 1E000000 		.4byte	.LVL64
 5057 0a8a CE230000 		.4byte	0x23ce
 5058 0a8e A50A0000 		.4byte	0xaa5
 5059 0a92 1A       		.uleb128 0x1a
 5060 0a93 01       		.uleb128 0x1
 5061 0a94 50       		.byte	0x50
 5062 0a95 02       		.uleb128 0x2
 5063 0a96 91       		.byte	0x91
 5064 0a97 5C       		.sleb128 -36
 5065 0a98 1A       		.uleb128 0x1a
 5066 0a99 01       		.uleb128 0x1
 5067 0a9a 51       		.byte	0x51
 5068 0a9b 02       		.uleb128 0x2
 5069 0a9c 75       		.byte	0x75
 5070 0a9d 00       		.sleb128 0
 5071 0a9e 1A       		.uleb128 0x1a
 5072 0a9f 01       		.uleb128 0x1
 5073 0aa0 52       		.byte	0x52
 5074 0aa1 02       		.uleb128 0x2
 5075 0aa2 91       		.byte	0x91
 5076 0aa3 54       		.sleb128 -44
 5077 0aa4 00       		.byte	0
 5078 0aa5 20       		.uleb128 0x20
 5079 0aa6 3E000000 		.4byte	.LVL66
 5080 0aaa 7F230000 		.4byte	0x237f
 5081 0aae CB0A0000 		.4byte	0xacb
 5082 0ab2 1A       		.uleb128 0x1a
 5083 0ab3 01       		.uleb128 0x1
ARM GAS  C:\Users\Phuong\AppData\Local\Temp\ccG6FMOL.s 			page 120


 5084 0ab4 50       		.byte	0x50
 5085 0ab5 02       		.uleb128 0x2
 5086 0ab6 91       		.byte	0x91
 5087 0ab7 5C       		.sleb128 -36
 5088 0ab8 1A       		.uleb128 0x1a
 5089 0ab9 01       		.uleb128 0x1
 5090 0aba 51       		.byte	0x51
 5091 0abb 02       		.uleb128 0x2
 5092 0abc 75       		.byte	0x75
 5093 0abd 00       		.sleb128 0
 5094 0abe 1A       		.uleb128 0x1a
 5095 0abf 01       		.uleb128 0x1
 5096 0ac0 52       		.byte	0x52
 5097 0ac1 02       		.uleb128 0x2
 5098 0ac2 91       		.byte	0x91
 5099 0ac3 58       		.sleb128 -40
 5100 0ac4 1A       		.uleb128 0x1a
 5101 0ac5 01       		.uleb128 0x1
 5102 0ac6 53       		.byte	0x53
 5103 0ac7 02       		.uleb128 0x2
 5104 0ac8 08       		.byte	0x8
 5105 0ac9 30       		.byte	0x30
 5106 0aca 00       		.byte	0
 5107 0acb 20       		.uleb128 0x20
 5108 0acc 5A000000 		.4byte	.LVL70
 5109 0ad0 7F230000 		.4byte	0x237f
 5110 0ad4 F00A0000 		.4byte	0xaf0
 5111 0ad8 1A       		.uleb128 0x1a
 5112 0ad9 01       		.uleb128 0x1
 5113 0ada 50       		.byte	0x50
 5114 0adb 02       		.uleb128 0x2
 5115 0adc 91       		.byte	0x91
 5116 0add 5C       		.sleb128 -36
 5117 0ade 1A       		.uleb128 0x1a
 5118 0adf 01       		.uleb128 0x1
 5119 0ae0 51       		.byte	0x51
 5120 0ae1 02       		.uleb128 0x2
 5121 0ae2 78       		.byte	0x78
 5122 0ae3 00       		.sleb128 0
 5123 0ae4 1A       		.uleb128 0x1a
 5124 0ae5 01       		.uleb128 0x1
 5125 0ae6 52       		.byte	0x52
 5126 0ae7 02       		.uleb128 0x2
 5127 0ae8 91       		.byte	0x91
 5128 0ae9 58       		.sleb128 -40
 5129 0aea 1A       		.uleb128 0x1a
 5130 0aeb 01       		.uleb128 0x1
 5131 0aec 53       		.byte	0x53
 5132 0aed 01       		.uleb128 0x1
 5133 0aee 36       		.byte	0x36
 5134 0aef 00       		.byte	0
 5135 0af0 20       		.uleb128 0x20
 5136 0af1 76000000 		.4byte	.LVL72
 5137 0af5 D9230000 		.4byte	0x23d9
 5138 0af9 130B0000 		.4byte	0xb13
 5139 0afd 1A       		.uleb128 0x1a
 5140 0afe 01       		.uleb128 0x1
ARM GAS  C:\Users\Phuong\AppData\Local\Temp\ccG6FMOL.s 			page 121


 5141 0aff 50       		.byte	0x50
 5142 0b00 02       		.uleb128 0x2
 5143 0b01 79       		.byte	0x79
 5144 0b02 00       		.sleb128 0
 5145 0b03 1A       		.uleb128 0x1a
 5146 0b04 01       		.uleb128 0x1
 5147 0b05 51       		.byte	0x51
 5148 0b06 05       		.uleb128 0x5
 5149 0b07 03       		.byte	0x3
 5150 0b08 00000000 		.4byte	.LC0
 5151 0b0c 1A       		.uleb128 0x1a
 5152 0b0d 01       		.uleb128 0x1
 5153 0b0e 52       		.byte	0x52
 5154 0b0f 02       		.uleb128 0x2
 5155 0b10 77       		.byte	0x77
 5156 0b11 00       		.sleb128 0
 5157 0b12 00       		.byte	0
 5158 0b13 20       		.uleb128 0x20
 5159 0b14 8C000000 		.4byte	.LVL73
 5160 0b18 E4230000 		.4byte	0x23e4
 5161 0b1c 330B0000 		.4byte	0xb33
 5162 0b20 1A       		.uleb128 0x1a
 5163 0b21 01       		.uleb128 0x1
 5164 0b22 50       		.byte	0x50
 5165 0b23 02       		.uleb128 0x2
 5166 0b24 91       		.byte	0x91
 5167 0b25 5C       		.sleb128 -36
 5168 0b26 1A       		.uleb128 0x1a
 5169 0b27 01       		.uleb128 0x1
 5170 0b28 51       		.byte	0x51
 5171 0b29 02       		.uleb128 0x2
 5172 0b2a 78       		.byte	0x78
 5173 0b2b 00       		.sleb128 0
 5174 0b2c 1A       		.uleb128 0x1a
 5175 0b2d 01       		.uleb128 0x1
 5176 0b2e 52       		.byte	0x52
 5177 0b2f 02       		.uleb128 0x2
 5178 0b30 77       		.byte	0x77
 5179 0b31 00       		.sleb128 0
 5180 0b32 00       		.byte	0
 5181 0b33 20       		.uleb128 0x20
 5182 0b34 9C000000 		.4byte	.LVL75
 5183 0b38 F0230000 		.4byte	0x23f0
 5184 0b3c 470B0000 		.4byte	0xb47
 5185 0b40 1A       		.uleb128 0x1a
 5186 0b41 01       		.uleb128 0x1
 5187 0b42 50       		.byte	0x50
 5188 0b43 02       		.uleb128 0x2
 5189 0b44 77       		.byte	0x77
 5190 0b45 00       		.sleb128 0
 5191 0b46 00       		.byte	0
 5192 0b47 20       		.uleb128 0x20
 5193 0b48 B2000000 		.4byte	.LVL76
 5194 0b4c 7F230000 		.4byte	0x237f
 5195 0b50 6D0B0000 		.4byte	0xb6d
 5196 0b54 1A       		.uleb128 0x1a
 5197 0b55 01       		.uleb128 0x1
ARM GAS  C:\Users\Phuong\AppData\Local\Temp\ccG6FMOL.s 			page 122


 5198 0b56 50       		.byte	0x50
 5199 0b57 02       		.uleb128 0x2
 5200 0b58 91       		.byte	0x91
 5201 0b59 5C       		.sleb128 -36
 5202 0b5a 1A       		.uleb128 0x1a
 5203 0b5b 01       		.uleb128 0x1
 5204 0b5c 51       		.byte	0x51
 5205 0b5d 02       		.uleb128 0x2
 5206 0b5e 75       		.byte	0x75
 5207 0b5f 00       		.sleb128 0
 5208 0b60 1A       		.uleb128 0x1a
 5209 0b61 01       		.uleb128 0x1
 5210 0b62 52       		.byte	0x52
 5211 0b63 02       		.uleb128 0x2
 5212 0b64 91       		.byte	0x91
 5213 0b65 58       		.sleb128 -40
 5214 0b66 1A       		.uleb128 0x1a
 5215 0b67 01       		.uleb128 0x1
 5216 0b68 53       		.byte	0x53
 5217 0b69 02       		.uleb128 0x2
 5218 0b6a 08       		.byte	0x8
 5219 0b6b 30       		.byte	0x30
 5220 0b6c 00       		.byte	0
 5221 0b6d 20       		.uleb128 0x20
 5222 0b6e CE000000 		.4byte	.LVL80
 5223 0b72 7F230000 		.4byte	0x237f
 5224 0b76 920B0000 		.4byte	0xb92
 5225 0b7a 1A       		.uleb128 0x1a
 5226 0b7b 01       		.uleb128 0x1
 5227 0b7c 50       		.byte	0x50
 5228 0b7d 02       		.uleb128 0x2
 5229 0b7e 91       		.byte	0x91
 5230 0b7f 5C       		.sleb128 -36
 5231 0b80 1A       		.uleb128 0x1a
 5232 0b81 01       		.uleb128 0x1
 5233 0b82 51       		.byte	0x51
 5234 0b83 02       		.uleb128 0x2
 5235 0b84 78       		.byte	0x78
 5236 0b85 00       		.sleb128 0
 5237 0b86 1A       		.uleb128 0x1a
 5238 0b87 01       		.uleb128 0x1
 5239 0b88 52       		.byte	0x52
 5240 0b89 02       		.uleb128 0x2
 5241 0b8a 91       		.byte	0x91
 5242 0b8b 58       		.sleb128 -40
 5243 0b8c 1A       		.uleb128 0x1a
 5244 0b8d 01       		.uleb128 0x1
 5245 0b8e 53       		.byte	0x53
 5246 0b8f 01       		.uleb128 0x1
 5247 0b90 34       		.byte	0x34
 5248 0b91 00       		.byte	0
 5249 0b92 20       		.uleb128 0x20
 5250 0b93 DE000000 		.4byte	.LVL82
 5251 0b97 FC230000 		.4byte	0x23fc
 5252 0b9b A60B0000 		.4byte	0xba6
 5253 0b9f 1A       		.uleb128 0x1a
 5254 0ba0 01       		.uleb128 0x1
ARM GAS  C:\Users\Phuong\AppData\Local\Temp\ccG6FMOL.s 			page 123


 5255 0ba1 50       		.byte	0x50
 5256 0ba2 02       		.uleb128 0x2
 5257 0ba3 74       		.byte	0x74
 5258 0ba4 10       		.sleb128 16
 5259 0ba5 00       		.byte	0
 5260 0ba6 20       		.uleb128 0x20
 5261 0ba7 FE000000 		.4byte	.LVL84
 5262 0bab 7F230000 		.4byte	0x237f
 5263 0baf CB0B0000 		.4byte	0xbcb
 5264 0bb3 1A       		.uleb128 0x1a
 5265 0bb4 01       		.uleb128 0x1
 5266 0bb5 50       		.byte	0x50
 5267 0bb6 02       		.uleb128 0x2
 5268 0bb7 91       		.byte	0x91
 5269 0bb8 5C       		.sleb128 -36
 5270 0bb9 1A       		.uleb128 0x1a
 5271 0bba 01       		.uleb128 0x1
 5272 0bbb 51       		.byte	0x51
 5273 0bbc 02       		.uleb128 0x2
 5274 0bbd 78       		.byte	0x78
 5275 0bbe 00       		.sleb128 0
 5276 0bbf 1A       		.uleb128 0x1a
 5277 0bc0 01       		.uleb128 0x1
 5278 0bc1 52       		.byte	0x52
 5279 0bc2 02       		.uleb128 0x2
 5280 0bc3 91       		.byte	0x91
 5281 0bc4 58       		.sleb128 -40
 5282 0bc5 1A       		.uleb128 0x1a
 5283 0bc6 01       		.uleb128 0x1
 5284 0bc7 53       		.byte	0x53
 5285 0bc8 01       		.uleb128 0x1
 5286 0bc9 34       		.byte	0x34
 5287 0bca 00       		.byte	0
 5288 0bcb 20       		.uleb128 0x20
 5289 0bcc 0E010000 		.4byte	.LVL86
 5290 0bd0 FC230000 		.4byte	0x23fc
 5291 0bd4 DF0B0000 		.4byte	0xbdf
 5292 0bd8 1A       		.uleb128 0x1a
 5293 0bd9 01       		.uleb128 0x1
 5294 0bda 50       		.byte	0x50
 5295 0bdb 02       		.uleb128 0x2
 5296 0bdc 74       		.byte	0x74
 5297 0bdd 1C       		.sleb128 28
 5298 0bde 00       		.byte	0
 5299 0bdf 20       		.uleb128 0x20
 5300 0be0 2E010000 		.4byte	.LVL88
 5301 0be4 7F230000 		.4byte	0x237f
 5302 0be8 040C0000 		.4byte	0xc04
 5303 0bec 1A       		.uleb128 0x1a
 5304 0bed 01       		.uleb128 0x1
 5305 0bee 50       		.byte	0x50
 5306 0bef 02       		.uleb128 0x2
 5307 0bf0 91       		.byte	0x91
 5308 0bf1 5C       		.sleb128 -36
 5309 0bf2 1A       		.uleb128 0x1a
 5310 0bf3 01       		.uleb128 0x1
 5311 0bf4 51       		.byte	0x51
ARM GAS  C:\Users\Phuong\AppData\Local\Temp\ccG6FMOL.s 			page 124


 5312 0bf5 02       		.uleb128 0x2
 5313 0bf6 78       		.byte	0x78
 5314 0bf7 00       		.sleb128 0
 5315 0bf8 1A       		.uleb128 0x1a
 5316 0bf9 01       		.uleb128 0x1
 5317 0bfa 52       		.byte	0x52
 5318 0bfb 02       		.uleb128 0x2
 5319 0bfc 91       		.byte	0x91
 5320 0bfd 58       		.sleb128 -40
 5321 0bfe 1A       		.uleb128 0x1a
 5322 0bff 01       		.uleb128 0x1
 5323 0c00 53       		.byte	0x53
 5324 0c01 01       		.uleb128 0x1
 5325 0c02 33       		.byte	0x33
 5326 0c03 00       		.byte	0
 5327 0c04 20       		.uleb128 0x20
 5328 0c05 4E010000 		.4byte	.LVL90
 5329 0c09 7F230000 		.4byte	0x237f
 5330 0c0d 290C0000 		.4byte	0xc29
 5331 0c11 1A       		.uleb128 0x1a
 5332 0c12 01       		.uleb128 0x1
 5333 0c13 50       		.byte	0x50
 5334 0c14 02       		.uleb128 0x2
 5335 0c15 91       		.byte	0x91
 5336 0c16 5C       		.sleb128 -36
 5337 0c17 1A       		.uleb128 0x1a
 5338 0c18 01       		.uleb128 0x1
 5339 0c19 51       		.byte	0x51
 5340 0c1a 02       		.uleb128 0x2
 5341 0c1b 75       		.byte	0x75
 5342 0c1c 00       		.sleb128 0
 5343 0c1d 1A       		.uleb128 0x1a
 5344 0c1e 01       		.uleb128 0x1
 5345 0c1f 52       		.byte	0x52
 5346 0c20 02       		.uleb128 0x2
 5347 0c21 91       		.byte	0x91
 5348 0c22 58       		.sleb128 -40
 5349 0c23 1A       		.uleb128 0x1a
 5350 0c24 01       		.uleb128 0x1
 5351 0c25 53       		.byte	0x53
 5352 0c26 01       		.uleb128 0x1
 5353 0c27 34       		.byte	0x34
 5354 0c28 00       		.byte	0
 5355 0c29 20       		.uleb128 0x20
 5356 0c2a 66010000 		.4byte	.LVL92
 5357 0c2e 08240000 		.4byte	0x2408
 5358 0c32 430C0000 		.4byte	0xc43
 5359 0c36 1A       		.uleb128 0x1a
 5360 0c37 01       		.uleb128 0x1
 5361 0c38 50       		.byte	0x50
 5362 0c39 02       		.uleb128 0x2
 5363 0c3a 74       		.byte	0x74
 5364 0c3b 00       		.sleb128 0
 5365 0c3c 1A       		.uleb128 0x1a
 5366 0c3d 01       		.uleb128 0x1
 5367 0c3e 51       		.byte	0x51
 5368 0c3f 02       		.uleb128 0x2
ARM GAS  C:\Users\Phuong\AppData\Local\Temp\ccG6FMOL.s 			page 125


 5369 0c40 74       		.byte	0x74
 5370 0c41 28       		.sleb128 40
 5371 0c42 00       		.byte	0
 5372 0c43 20       		.uleb128 0x20
 5373 0c44 82010000 		.4byte	.LVL94
 5374 0c48 14240000 		.4byte	0x2414
 5375 0c4c 570C0000 		.4byte	0xc57
 5376 0c50 1A       		.uleb128 0x1a
 5377 0c51 01       		.uleb128 0x1
 5378 0c52 50       		.byte	0x50
 5379 0c53 02       		.uleb128 0x2
 5380 0c54 77       		.byte	0x77
 5381 0c55 00       		.sleb128 0
 5382 0c56 00       		.byte	0
 5383 0c57 20       		.uleb128 0x20
 5384 0c58 98010000 		.4byte	.LVL95
 5385 0c5c FC230000 		.4byte	0x23fc
 5386 0c60 6B0C0000 		.4byte	0xc6b
 5387 0c64 1A       		.uleb128 0x1a
 5388 0c65 01       		.uleb128 0x1
 5389 0c66 50       		.byte	0x50
 5390 0c67 02       		.uleb128 0x2
 5391 0c68 74       		.byte	0x74
 5392 0c69 28       		.sleb128 40
 5393 0c6a 00       		.byte	0
 5394 0c6b 20       		.uleb128 0x20
 5395 0c6c AA010000 		.4byte	.LVL96
 5396 0c70 20240000 		.4byte	0x2420
 5397 0c74 7F0C0000 		.4byte	0xc7f
 5398 0c78 1A       		.uleb128 0x1a
 5399 0c79 01       		.uleb128 0x1
 5400 0c7a 50       		.byte	0x50
 5401 0c7b 02       		.uleb128 0x2
 5402 0c7c 74       		.byte	0x74
 5403 0c7d 34       		.sleb128 52
 5404 0c7e 00       		.byte	0
 5405 0c7f 20       		.uleb128 0x20
 5406 0c80 B8010000 		.4byte	.LVL97
 5407 0c84 20240000 		.4byte	0x2420
 5408 0c88 990C0000 		.4byte	0xc99
 5409 0c8c 1A       		.uleb128 0x1a
 5410 0c8d 01       		.uleb128 0x1
 5411 0c8e 50       		.byte	0x50
 5412 0c8f 03       		.uleb128 0x3
 5413 0c90 74       		.byte	0x74
 5414 0c91 C000     		.sleb128 64
 5415 0c93 1A       		.uleb128 0x1a
 5416 0c94 01       		.uleb128 0x1
 5417 0c95 51       		.byte	0x51
 5418 0c96 01       		.uleb128 0x1
 5419 0c97 31       		.byte	0x31
 5420 0c98 00       		.byte	0
 5421 0c99 20       		.uleb128 0x20
 5422 0c9a D4010000 		.4byte	.LVL98
 5423 0c9e E4230000 		.4byte	0x23e4
 5424 0ca2 B90C0000 		.4byte	0xcb9
 5425 0ca6 1A       		.uleb128 0x1a
ARM GAS  C:\Users\Phuong\AppData\Local\Temp\ccG6FMOL.s 			page 126


 5426 0ca7 01       		.uleb128 0x1
 5427 0ca8 50       		.byte	0x50
 5428 0ca9 02       		.uleb128 0x2
 5429 0caa 91       		.byte	0x91
 5430 0cab 5C       		.sleb128 -36
 5431 0cac 1A       		.uleb128 0x1a
 5432 0cad 01       		.uleb128 0x1
 5433 0cae 51       		.byte	0x51
 5434 0caf 02       		.uleb128 0x2
 5435 0cb0 75       		.byte	0x75
 5436 0cb1 00       		.sleb128 0
 5437 0cb2 1A       		.uleb128 0x1a
 5438 0cb3 01       		.uleb128 0x1
 5439 0cb4 52       		.byte	0x52
 5440 0cb5 02       		.uleb128 0x2
 5441 0cb6 77       		.byte	0x77
 5442 0cb7 00       		.sleb128 0
 5443 0cb8 00       		.byte	0
 5444 0cb9 19       		.uleb128 0x19
 5445 0cba E4010000 		.4byte	.LVL100
 5446 0cbe F0230000 		.4byte	0x23f0
 5447 0cc2 1A       		.uleb128 0x1a
 5448 0cc3 01       		.uleb128 0x1
 5449 0cc4 50       		.byte	0x50
 5450 0cc5 02       		.uleb128 0x2
 5451 0cc6 77       		.byte	0x77
 5452 0cc7 00       		.sleb128 0
 5453 0cc8 00       		.byte	0
 5454 0cc9 00       		.byte	0
 5455 0cca 0A       		.uleb128 0xa
 5456 0ccb 04       		.byte	0x4
 5457 0ccc D00C0000 		.4byte	0xcd0
 5458 0cd0 12       		.uleb128 0x12
 5459 0cd1 AD040000 		.4byte	0x4ad
 5460 0cd5 0A       		.uleb128 0xa
 5461 0cd6 04       		.byte	0x4
 5462 0cd7 98030000 		.4byte	0x398
 5463 0cdb 12       		.uleb128 0x12
 5464 0cdc 6D040000 		.4byte	0x46d
 5465 0ce0 1B       		.uleb128 0x1b
 5466 0ce1 36080000 		.4byte	.LASF158
 5467 0ce5 01       		.byte	0x1
 5468 0ce6 7501     		.2byte	0x175
 5469 0ce8 68000000 		.4byte	0x68
 5470 0cec 00000000 		.4byte	.LFB13
 5471 0cf0 D4000000 		.4byte	.LFE13-.LFB13
 5472 0cf4 01       		.uleb128 0x1
 5473 0cf5 9C       		.byte	0x9c
 5474 0cf6 860E0000 		.4byte	0xe86
 5475 0cfa 1C       		.uleb128 0x1c
 5476 0cfb 67727000 		.ascii	"grp\000"
 5477 0cff 01       		.byte	0x1
 5478 0d00 7501     		.2byte	0x175
 5479 0d02 860E0000 		.4byte	0xe86
 5480 0d06 6C040000 		.4byte	.LLST19
 5481 0d0a 1D       		.uleb128 0x1d
 5482 0d0b AA090000 		.4byte	.LASF159
ARM GAS  C:\Users\Phuong\AppData\Local\Temp\ccG6FMOL.s 			page 127


 5483 0d0f 01       		.byte	0x1
 5484 0d10 7501     		.2byte	0x175
 5485 0d12 910E0000 		.4byte	0xe91
 5486 0d16 98040000 		.4byte	.LLST20
 5487 0d1a 1E       		.uleb128 0x1e
 5488 0d1b 72657400 		.ascii	"ret\000"
 5489 0d1f 01       		.byte	0x1
 5490 0d20 7701     		.2byte	0x177
 5491 0d22 68000000 		.4byte	0x68
 5492 0d26 C4040000 		.4byte	.LLST21
 5493 0d2a 21       		.uleb128 0x21
 5494 0d2b 72656600 		.ascii	"ref\000"
 5495 0d2f 01       		.byte	0x1
 5496 0d30 7801     		.2byte	0x178
 5497 0d32 98030000 		.4byte	0x398
 5498 0d36 03       		.uleb128 0x3
 5499 0d37 91       		.byte	0x91
 5500 0d38 EC7E     		.sleb128 -148
 5501 0d3a 1E       		.uleb128 0x1e
 5502 0d3b 696400   		.ascii	"id\000"
 5503 0d3e 01       		.byte	0x1
 5504 0d3f 7901     		.2byte	0x179
 5505 0d41 970E0000 		.4byte	0xe97
 5506 0d45 04050000 		.4byte	.LLST22
 5507 0d49 24       		.uleb128 0x24
 5508 0d4a F20E0000 		.4byte	.LASF161
 5509 0d4e 01       		.byte	0x1
 5510 0d4f 9301     		.2byte	0x193
 5511 0d51 B0000000 		.4byte	.L61
 5512 0d55 20       		.uleb128 0x20
 5513 0d56 12000000 		.4byte	.LVL113
 5514 0d5a 2C240000 		.4byte	0x242c
 5515 0d5e 6A0D0000 		.4byte	0xd6a
 5516 0d62 1A       		.uleb128 0x1a
 5517 0d63 01       		.uleb128 0x1
 5518 0d64 50       		.byte	0x50
 5519 0d65 03       		.uleb128 0x3
 5520 0d66 91       		.byte	0x91
 5521 0d67 EC7E     		.sleb128 -148
 5522 0d69 00       		.byte	0
 5523 0d6a 25       		.uleb128 0x25
 5524 0d6b 16000000 		.4byte	.LVL114
 5525 0d6f 38240000 		.4byte	0x2438
 5526 0d73 20       		.uleb128 0x20
 5527 0d74 22000000 		.4byte	.LVL117
 5528 0d78 44240000 		.4byte	0x2444
 5529 0d7c 880D0000 		.4byte	0xd88
 5530 0d80 1A       		.uleb128 0x1a
 5531 0d81 01       		.uleb128 0x1
 5532 0d82 50       		.byte	0x50
 5533 0d83 03       		.uleb128 0x3
 5534 0d84 91       		.byte	0x91
 5535 0d85 EC7E     		.sleb128 -148
 5536 0d87 00       		.byte	0
 5537 0d88 20       		.uleb128 0x20
 5538 0d89 2A000000 		.4byte	.LVL118
 5539 0d8d 50240000 		.4byte	0x2450
ARM GAS  C:\Users\Phuong\AppData\Local\Temp\ccG6FMOL.s 			page 128


 5540 0d91 9D0D0000 		.4byte	0xd9d
 5541 0d95 1A       		.uleb128 0x1a
 5542 0d96 01       		.uleb128 0x1
 5543 0d97 50       		.byte	0x50
 5544 0d98 03       		.uleb128 0x3
 5545 0d99 91       		.byte	0x91
 5546 0d9a EC7E     		.sleb128 -148
 5547 0d9c 00       		.byte	0
 5548 0d9d 20       		.uleb128 0x20
 5549 0d9e 46000000 		.4byte	.LVL121
 5550 0da2 5C240000 		.4byte	0x245c
 5551 0da6 B80D0000 		.4byte	0xdb8
 5552 0daa 1A       		.uleb128 0x1a
 5553 0dab 01       		.uleb128 0x1
 5554 0dac 50       		.byte	0x50
 5555 0dad 02       		.uleb128 0x2
 5556 0dae 76       		.byte	0x76
 5557 0daf 04       		.sleb128 4
 5558 0db0 1A       		.uleb128 0x1a
 5559 0db1 01       		.uleb128 0x1
 5560 0db2 51       		.byte	0x51
 5561 0db3 03       		.uleb128 0x3
 5562 0db4 91       		.byte	0x91
 5563 0db5 F07E     		.sleb128 -144
 5564 0db7 00       		.byte	0
 5565 0db8 20       		.uleb128 0x20
 5566 0db9 54000000 		.4byte	.LVL122
 5567 0dbd 5C240000 		.4byte	0x245c
 5568 0dc1 D30D0000 		.4byte	0xdd3
 5569 0dc5 1A       		.uleb128 0x1a
 5570 0dc6 01       		.uleb128 0x1
 5571 0dc7 50       		.byte	0x50
 5572 0dc8 02       		.uleb128 0x2
 5573 0dc9 76       		.byte	0x76
 5574 0dca 10       		.sleb128 16
 5575 0dcb 1A       		.uleb128 0x1a
 5576 0dcc 01       		.uleb128 0x1
 5577 0dcd 51       		.byte	0x51
 5578 0dce 03       		.uleb128 0x3
 5579 0dcf 91       		.byte	0x91
 5580 0dd0 FC7E     		.sleb128 -132
 5581 0dd2 00       		.byte	0
 5582 0dd3 20       		.uleb128 0x20
 5583 0dd4 62000000 		.4byte	.LVL123
 5584 0dd8 5C240000 		.4byte	0x245c
 5585 0ddc EE0D0000 		.4byte	0xdee
 5586 0de0 1A       		.uleb128 0x1a
 5587 0de1 01       		.uleb128 0x1
 5588 0de2 50       		.byte	0x50
 5589 0de3 02       		.uleb128 0x2
 5590 0de4 76       		.byte	0x76
 5591 0de5 1C       		.sleb128 28
 5592 0de6 1A       		.uleb128 0x1a
 5593 0de7 01       		.uleb128 0x1
 5594 0de8 51       		.byte	0x51
 5595 0de9 03       		.uleb128 0x3
 5596 0dea 91       		.byte	0x91
ARM GAS  C:\Users\Phuong\AppData\Local\Temp\ccG6FMOL.s 			page 129


 5597 0deb 887F     		.sleb128 -120
 5598 0ded 00       		.byte	0
 5599 0dee 20       		.uleb128 0x20
 5600 0def 70000000 		.4byte	.LVL124
 5601 0df3 5C240000 		.4byte	0x245c
 5602 0df7 0A0E0000 		.4byte	0xe0a
 5603 0dfb 1A       		.uleb128 0x1a
 5604 0dfc 01       		.uleb128 0x1
 5605 0dfd 50       		.byte	0x50
 5606 0dfe 03       		.uleb128 0x3
 5607 0dff 76       		.byte	0x76
 5608 0e00 CC00     		.sleb128 76
 5609 0e02 1A       		.uleb128 0x1a
 5610 0e03 01       		.uleb128 0x1
 5611 0e04 51       		.byte	0x51
 5612 0e05 03       		.uleb128 0x3
 5613 0e06 91       		.byte	0x91
 5614 0e07 B87F     		.sleb128 -72
 5615 0e09 00       		.byte	0
 5616 0e0a 20       		.uleb128 0x20
 5617 0e0b 7E000000 		.4byte	.LVL125
 5618 0e0f 5C240000 		.4byte	0x245c
 5619 0e13 250E0000 		.4byte	0xe25
 5620 0e17 1A       		.uleb128 0x1a
 5621 0e18 01       		.uleb128 0x1
 5622 0e19 50       		.byte	0x50
 5623 0e1a 02       		.uleb128 0x2
 5624 0e1b 76       		.byte	0x76
 5625 0e1c 28       		.sleb128 40
 5626 0e1d 1A       		.uleb128 0x1a
 5627 0e1e 01       		.uleb128 0x1
 5628 0e1f 51       		.byte	0x51
 5629 0e20 03       		.uleb128 0x3
 5630 0e21 91       		.byte	0x91
 5631 0e22 947F     		.sleb128 -108
 5632 0e24 00       		.byte	0
 5633 0e25 20       		.uleb128 0x20
 5634 0e26 8C000000 		.4byte	.LVL126
 5635 0e2a 5C240000 		.4byte	0x245c
 5636 0e2e 410E0000 		.4byte	0xe41
 5637 0e32 1A       		.uleb128 0x1a
 5638 0e33 01       		.uleb128 0x1
 5639 0e34 50       		.byte	0x50
 5640 0e35 03       		.uleb128 0x3
 5641 0e36 76       		.byte	0x76
 5642 0e37 C000     		.sleb128 64
 5643 0e39 1A       		.uleb128 0x1a
 5644 0e3a 01       		.uleb128 0x1
 5645 0e3b 51       		.byte	0x51
 5646 0e3c 03       		.uleb128 0x3
 5647 0e3d 91       		.byte	0x91
 5648 0e3e AC7F     		.sleb128 -84
 5649 0e40 00       		.byte	0
 5650 0e41 20       		.uleb128 0x20
 5651 0e42 9A000000 		.4byte	.LVL127
 5652 0e46 68240000 		.4byte	0x2468
 5653 0e4a 5A0E0000 		.4byte	0xe5a
ARM GAS  C:\Users\Phuong\AppData\Local\Temp\ccG6FMOL.s 			page 130


 5654 0e4e 1A       		.uleb128 0x1a
 5655 0e4f 01       		.uleb128 0x1
 5656 0e50 50       		.byte	0x50
 5657 0e51 02       		.uleb128 0x2
 5658 0e52 76       		.byte	0x76
 5659 0e53 34       		.sleb128 52
 5660 0e54 1A       		.uleb128 0x1a
 5661 0e55 01       		.uleb128 0x1
 5662 0e56 51       		.byte	0x51
 5663 0e57 01       		.uleb128 0x1
 5664 0e58 30       		.byte	0x30
 5665 0e59 00       		.byte	0
 5666 0e5a 20       		.uleb128 0x20
 5667 0e5b A4000000 		.4byte	.LVL128
 5668 0e5f 68240000 		.4byte	0x2468
 5669 0e63 740E0000 		.4byte	0xe74
 5670 0e67 1A       		.uleb128 0x1a
 5671 0e68 01       		.uleb128 0x1
 5672 0e69 50       		.byte	0x50
 5673 0e6a 03       		.uleb128 0x3
 5674 0e6b 91       		.byte	0x91
 5675 0e6c A07F     		.sleb128 -96
 5676 0e6e 1A       		.uleb128 0x1a
 5677 0e6f 01       		.uleb128 0x1
 5678 0e70 51       		.byte	0x51
 5679 0e71 01       		.uleb128 0x1
 5680 0e72 30       		.byte	0x30
 5681 0e73 00       		.byte	0
 5682 0e74 19       		.uleb128 0x19
 5683 0e75 B6000000 		.4byte	.LVL130
 5684 0e79 44240000 		.4byte	0x2444
 5685 0e7d 1A       		.uleb128 0x1a
 5686 0e7e 01       		.uleb128 0x1
 5687 0e7f 50       		.byte	0x50
 5688 0e80 03       		.uleb128 0x3
 5689 0e81 91       		.byte	0x91
 5690 0e82 EC7E     		.sleb128 -148
 5691 0e84 00       		.byte	0
 5692 0e85 00       		.byte	0
 5693 0e86 0A       		.uleb128 0xa
 5694 0e87 04       		.byte	0x4
 5695 0e88 8C0E0000 		.4byte	0xe8c
 5696 0e8c 12       		.uleb128 0x12
 5697 0e8d 98030000 		.4byte	0x398
 5698 0e91 0A       		.uleb128 0xa
 5699 0e92 04       		.byte	0x4
 5700 0e93 63020000 		.4byte	0x263
 5701 0e97 0A       		.uleb128 0xa
 5702 0e98 04       		.byte	0x4
 5703 0e99 9D0E0000 		.4byte	0xe9d
 5704 0e9d 12       		.uleb128 0x12
 5705 0e9e 63020000 		.4byte	0x263
 5706 0ea2 1B       		.uleb128 0x1b
 5707 0ea3 3A020000 		.4byte	.LASF160
 5708 0ea7 01       		.byte	0x1
 5709 0ea8 A101     		.2byte	0x1a1
 5710 0eaa 68000000 		.4byte	0x68
ARM GAS  C:\Users\Phuong\AppData\Local\Temp\ccG6FMOL.s 			page 131


 5711 0eae 00000000 		.4byte	.LFB14
 5712 0eb2 30000000 		.4byte	.LFE14-.LFB14
 5713 0eb6 01       		.uleb128 0x1
 5714 0eb7 9C       		.byte	0x9c
 5715 0eb8 650F0000 		.4byte	0xf65
 5716 0ebc 1D       		.uleb128 0x1d
 5717 0ebd 32000000 		.4byte	.LASF149
 5718 0ec1 01       		.byte	0x1
 5719 0ec2 A101     		.2byte	0x1a1
 5720 0ec4 CA0C0000 		.4byte	0xcca
 5721 0ec8 22050000 		.4byte	.LLST23
 5722 0ecc 1D       		.uleb128 0x1d
 5723 0ecd AA090000 		.4byte	.LASF159
 5724 0ed1 01       		.byte	0x1
 5725 0ed2 A201     		.2byte	0x1a2
 5726 0ed4 910E0000 		.4byte	0xe91
 5727 0ed8 4E050000 		.4byte	.LLST24
 5728 0edc 1E       		.uleb128 0x1e
 5729 0edd 72657400 		.ascii	"ret\000"
 5730 0ee1 01       		.byte	0x1
 5731 0ee2 A401     		.2byte	0x1a4
 5732 0ee4 68000000 		.4byte	0x68
 5733 0ee8 7A050000 		.4byte	.LLST25
 5734 0eec 21       		.uleb128 0x21
 5735 0eed 67727000 		.ascii	"grp\000"
 5736 0ef1 01       		.byte	0x1
 5737 0ef2 A501     		.2byte	0x1a5
 5738 0ef4 98030000 		.4byte	0x398
 5739 0ef8 03       		.uleb128 0x3
 5740 0ef9 91       		.byte	0x91
 5741 0efa F47E     		.sleb128 -140
 5742 0efc 24       		.uleb128 0x24
 5743 0efd F20E0000 		.4byte	.LASF161
 5744 0f01 01       		.byte	0x1
 5745 0f02 AE01     		.2byte	0x1ae
 5746 0f04 24000000 		.4byte	.L69
 5747 0f08 20       		.uleb128 0x20
 5748 0f09 0E000000 		.4byte	.LVL138
 5749 0f0d 2C240000 		.4byte	0x242c
 5750 0f11 1D0F0000 		.4byte	0xf1d
 5751 0f15 1A       		.uleb128 0x1a
 5752 0f16 01       		.uleb128 0x1
 5753 0f17 50       		.byte	0x50
 5754 0f18 03       		.uleb128 0x3
 5755 0f19 91       		.byte	0x91
 5756 0f1a F47E     		.sleb128 -140
 5757 0f1c 00       		.byte	0
 5758 0f1d 20       		.uleb128 0x20
 5759 0f1e 16000000 		.4byte	.LVL139
 5760 0f22 EA090000 		.4byte	0x9ea
 5761 0f26 380F0000 		.4byte	0xf38
 5762 0f2a 1A       		.uleb128 0x1a
 5763 0f2b 01       		.uleb128 0x1
 5764 0f2c 50       		.byte	0x50
 5765 0f2d 02       		.uleb128 0x2
 5766 0f2e 74       		.byte	0x74
 5767 0f2f 00       		.sleb128 0
ARM GAS  C:\Users\Phuong\AppData\Local\Temp\ccG6FMOL.s 			page 132


 5768 0f30 1A       		.uleb128 0x1a
 5769 0f31 01       		.uleb128 0x1
 5770 0f32 51       		.byte	0x51
 5771 0f33 03       		.uleb128 0x3
 5772 0f34 91       		.byte	0x91
 5773 0f35 F47E     		.sleb128 -140
 5774 0f37 00       		.byte	0
 5775 0f38 20       		.uleb128 0x20
 5776 0f39 22000000 		.4byte	.LVL142
 5777 0f3d E00C0000 		.4byte	0xce0
 5778 0f41 530F0000 		.4byte	0xf53
 5779 0f45 1A       		.uleb128 0x1a
 5780 0f46 01       		.uleb128 0x1
 5781 0f47 50       		.byte	0x50
 5782 0f48 03       		.uleb128 0x3
 5783 0f49 91       		.byte	0x91
 5784 0f4a F47E     		.sleb128 -140
 5785 0f4c 1A       		.uleb128 0x1a
 5786 0f4d 01       		.uleb128 0x1
 5787 0f4e 51       		.byte	0x51
 5788 0f4f 02       		.uleb128 0x2
 5789 0f50 75       		.byte	0x75
 5790 0f51 00       		.sleb128 0
 5791 0f52 00       		.byte	0
 5792 0f53 19       		.uleb128 0x19
 5793 0f54 2A000000 		.4byte	.LVL145
 5794 0f58 44240000 		.4byte	0x2444
 5795 0f5c 1A       		.uleb128 0x1a
 5796 0f5d 01       		.uleb128 0x1
 5797 0f5e 50       		.byte	0x50
 5798 0f5f 03       		.uleb128 0x3
 5799 0f60 91       		.byte	0x91
 5800 0f61 F47E     		.sleb128 -140
 5801 0f63 00       		.byte	0
 5802 0f64 00       		.byte	0
 5803 0f65 1B       		.uleb128 0x1b
 5804 0f66 4E100000 		.4byte	.LASF162
 5805 0f6a 01       		.byte	0x1
 5806 0f6b BD01     		.2byte	0x1bd
 5807 0f6d 68000000 		.4byte	0x68
 5808 0f71 00000000 		.4byte	.LFB15
 5809 0f75 54000000 		.4byte	.LFE15-.LFB15
 5810 0f79 01       		.uleb128 0x1
 5811 0f7a 9C       		.byte	0x9c
 5812 0f7b FE0F0000 		.4byte	0xffe
 5813 0f7f 1D       		.uleb128 0x1d
 5814 0f80 32000000 		.4byte	.LASF149
 5815 0f84 01       		.byte	0x1
 5816 0f85 BD01     		.2byte	0x1bd
 5817 0f87 CA0C0000 		.4byte	0xcca
 5818 0f8b B9050000 		.4byte	.LLST26
 5819 0f8f 1C       		.uleb128 0x1c
 5820 0f90 67727000 		.ascii	"grp\000"
 5821 0f94 01       		.byte	0x1
 5822 0f95 BD01     		.2byte	0x1bd
 5823 0f97 D50C0000 		.4byte	0xcd5
 5824 0f9b F3050000 		.4byte	.LLST27
ARM GAS  C:\Users\Phuong\AppData\Local\Temp\ccG6FMOL.s 			page 133


 5825 0f9f 1E       		.uleb128 0x1e
 5826 0fa0 72657400 		.ascii	"ret\000"
 5827 0fa4 01       		.byte	0x1
 5828 0fa5 BF01     		.2byte	0x1bf
 5829 0fa7 68000000 		.4byte	0x68
 5830 0fab 35060000 		.4byte	.LLST28
 5831 0faf 1F       		.uleb128 0x1f
 5832 0fb0 AA090000 		.4byte	.LASF159
 5833 0fb4 01       		.byte	0x1
 5834 0fb5 C001     		.2byte	0x1c0
 5835 0fb7 63020000 		.4byte	0x263
 5836 0fbb 02       		.uleb128 0x2
 5837 0fbc 91       		.byte	0x91
 5838 0fbd 77       		.sleb128 -9
 5839 0fbe 20       		.uleb128 0x20
 5840 0fbf 14000000 		.4byte	.LVL150
 5841 0fc3 74240000 		.4byte	0x2474
 5842 0fc7 D90F0000 		.4byte	0xfd9
 5843 0fcb 1A       		.uleb128 0x1a
 5844 0fcc 01       		.uleb128 0x1
 5845 0fcd 50       		.byte	0x50
 5846 0fce 03       		.uleb128 0x3
 5847 0fcf F3       		.byte	0xf3
 5848 0fd0 01       		.uleb128 0x1
 5849 0fd1 50       		.byte	0x50
 5850 0fd2 1A       		.uleb128 0x1a
 5851 0fd3 01       		.uleb128 0x1
 5852 0fd4 51       		.byte	0x51
 5853 0fd5 02       		.uleb128 0x2
 5854 0fd6 7D       		.byte	0x7d
 5855 0fd7 07       		.sleb128 7
 5856 0fd8 00       		.byte	0
 5857 0fd9 20       		.uleb128 0x20
 5858 0fda 22000000 		.4byte	.LVL153
 5859 0fde A20E0000 		.4byte	0xea2
 5860 0fe2 ED0F0000 		.4byte	0xfed
 5861 0fe6 1A       		.uleb128 0x1a
 5862 0fe7 01       		.uleb128 0x1
 5863 0fe8 51       		.byte	0x51
 5864 0fe9 02       		.uleb128 0x2
 5865 0fea 7D       		.byte	0x7d
 5866 0feb 07       		.sleb128 7
 5867 0fec 00       		.byte	0
 5868 0fed 19       		.uleb128 0x19
 5869 0fee 40000000 		.4byte	.LVL155
 5870 0ff2 50240000 		.4byte	0x2450
 5871 0ff6 1A       		.uleb128 0x1a
 5872 0ff7 01       		.uleb128 0x1
 5873 0ff8 50       		.byte	0x50
 5874 0ff9 02       		.uleb128 0x2
 5875 0ffa 74       		.byte	0x74
 5876 0ffb 00       		.sleb128 0
 5877 0ffc 00       		.byte	0
 5878 0ffd 00       		.byte	0
 5879 0ffe 1B       		.uleb128 0x1b
 5880 0fff CB0B0000 		.4byte	.LASF163
 5881 1003 01       		.byte	0x1
ARM GAS  C:\Users\Phuong\AppData\Local\Temp\ccG6FMOL.s 			page 134


 5882 1004 E401     		.2byte	0x1e4
 5883 1006 68000000 		.4byte	0x68
 5884 100a 00000000 		.4byte	.LFB16
 5885 100e 2A000000 		.4byte	.LFE16-.LFB16
 5886 1012 01       		.uleb128 0x1
 5887 1013 9C       		.byte	0x9c
 5888 1014 87100000 		.4byte	0x1087
 5889 1018 1C       		.uleb128 0x1c
 5890 1019 7000     		.ascii	"p\000"
 5891 101b 01       		.byte	0x1
 5892 101c E401     		.2byte	0x1e4
 5893 101e 86070000 		.4byte	0x786
 5894 1022 53060000 		.4byte	.LLST29
 5895 1026 1C       		.uleb128 0x1c
 5896 1027 656E6400 		.ascii	"end\000"
 5897 102b 01       		.byte	0x1
 5898 102c E401     		.2byte	0x1e4
 5899 102e 6D040000 		.4byte	0x46d
 5900 1032 7F060000 		.4byte	.LLST30
 5901 1036 1C       		.uleb128 0x1c
 5902 1037 6B657900 		.ascii	"key\000"
 5903 103b 01       		.byte	0x1
 5904 103c E501     		.2byte	0x1e5
 5905 103e 10070000 		.4byte	0x710
 5906 1042 AA060000 		.4byte	.LLST31
 5907 1046 1E       		.uleb128 0x1e
 5908 1047 72657400 		.ascii	"ret\000"
 5909 104b 01       		.byte	0x1
 5910 104c E701     		.2byte	0x1e7
 5911 104e 68000000 		.4byte	0x68
 5912 1052 E4060000 		.4byte	.LLST32
 5913 1056 20       		.uleb128 0x20
 5914 1057 1A000000 		.4byte	.LVL162
 5915 105b 08240000 		.4byte	0x2408
 5916 105f 70100000 		.4byte	0x1070
 5917 1063 1A       		.uleb128 0x1a
 5918 1064 01       		.uleb128 0x1
 5919 1065 50       		.byte	0x50
 5920 1066 02       		.uleb128 0x2
 5921 1067 74       		.byte	0x74
 5922 1068 00       		.sleb128 0
 5923 1069 1A       		.uleb128 0x1a
 5924 106a 01       		.uleb128 0x1
 5925 106b 51       		.byte	0x51
 5926 106c 02       		.uleb128 0x2
 5927 106d 76       		.byte	0x76
 5928 106e 00       		.sleb128 0
 5929 106f 00       		.byte	0
 5930 1070 19       		.uleb128 0x19
 5931 1071 26000000 		.4byte	.LVL164
 5932 1075 80240000 		.4byte	0x2480
 5933 1079 1A       		.uleb128 0x1a
 5934 107a 01       		.uleb128 0x1
 5935 107b 50       		.byte	0x50
 5936 107c 02       		.uleb128 0x2
 5937 107d 74       		.byte	0x74
 5938 107e 00       		.sleb128 0
ARM GAS  C:\Users\Phuong\AppData\Local\Temp\ccG6FMOL.s 			page 135


 5939 107f 1A       		.uleb128 0x1a
 5940 1080 01       		.uleb128 0x1
 5941 1081 51       		.byte	0x51
 5942 1082 02       		.uleb128 0x2
 5943 1083 76       		.byte	0x76
 5944 1084 00       		.sleb128 0
 5945 1085 00       		.byte	0
 5946 1086 00       		.byte	0
 5947 1087 1B       		.uleb128 0x1b
 5948 1088 77090000 		.4byte	.LASF164
 5949 108c 01       		.byte	0x1
 5950 108d 9602     		.2byte	0x296
 5951 108f 68000000 		.4byte	0x68
 5952 1093 00000000 		.4byte	.LFB20
 5953 1097 FC010000 		.4byte	.LFE20-.LFB20
 5954 109b 01       		.uleb128 0x1
 5955 109c 9C       		.byte	0x9c
 5956 109d 27140000 		.4byte	0x1427
 5957 10a1 1C       		.uleb128 0x1c
 5958 10a2 72736100 		.ascii	"rsa\000"
 5959 10a6 01       		.byte	0x1
 5960 10a7 9602     		.2byte	0x296
 5961 10a9 EA060000 		.4byte	0x6ea
 5962 10ad 02070000 		.4byte	.LLST33
 5963 10b1 1C       		.uleb128 0x1c
 5964 10b2 6B657900 		.ascii	"key\000"
 5965 10b6 01       		.byte	0x1
 5966 10b7 9702     		.2byte	0x297
 5967 10b9 6D040000 		.4byte	0x46d
 5968 10bd 2E070000 		.4byte	.LLST34
 5969 10c1 1D       		.uleb128 0x1d
 5970 10c2 42090000 		.4byte	.LASF165
 5971 10c6 01       		.byte	0x1
 5972 10c7 9802     		.2byte	0x298
 5973 10c9 76000000 		.4byte	0x76
 5974 10cd 5A070000 		.4byte	.LLST35
 5975 10d1 1E       		.uleb128 0x1e
 5976 10d2 72657400 		.ascii	"ret\000"
 5977 10d6 01       		.byte	0x1
 5978 10d7 9A02     		.2byte	0x29a
 5979 10d9 68000000 		.4byte	0x68
 5980 10dd 9F070000 		.4byte	.LLST36
 5981 10e1 1F       		.uleb128 0x1f
 5982 10e2 DD000000 		.4byte	.LASF166
 5983 10e6 01       		.byte	0x1
 5984 10e7 9A02     		.2byte	0x29a
 5985 10e9 68000000 		.4byte	0x68
 5986 10ed 02       		.uleb128 0x2
 5987 10ee 91       		.byte	0x91
 5988 10ef 6C       		.sleb128 -20
 5989 10f0 21       		.uleb128 0x21
 5990 10f1 6C656E00 		.ascii	"len\000"
 5991 10f5 01       		.byte	0x1
 5992 10f6 9B02     		.2byte	0x29b
 5993 10f8 76000000 		.4byte	0x76
 5994 10fc 02       		.uleb128 0x2
 5995 10fd 91       		.byte	0x91
ARM GAS  C:\Users\Phuong\AppData\Local\Temp\ccG6FMOL.s 			page 136


 5996 10fe 68       		.sleb128 -24
 5997 10ff 21       		.uleb128 0x21
 5998 1100 7000     		.ascii	"p\000"
 5999 1102 01       		.byte	0x1
 6000 1103 9C02     		.2byte	0x29c
 6001 1105 78040000 		.4byte	0x478
 6002 1109 02       		.uleb128 0x2
 6003 110a 91       		.byte	0x91
 6004 110b 64       		.sleb128 -28
 6005 110c 1E       		.uleb128 0x1e
 6006 110d 656E6400 		.ascii	"end\000"
 6007 1111 01       		.byte	0x1
 6008 1112 9C02     		.2byte	0x29c
 6009 1114 78040000 		.4byte	0x478
 6010 1118 3B090000 		.4byte	.LLST37
 6011 111c 21       		.uleb128 0x21
 6012 111d 5400     		.ascii	"T\000"
 6013 111f 01       		.byte	0x1
 6014 1120 9E02     		.2byte	0x29e
 6015 1122 25010000 		.4byte	0x125
 6016 1126 02       		.uleb128 0x2
 6017 1127 91       		.byte	0x91
 6018 1128 58       		.sleb128 -40
 6019 1129 24       		.uleb128 0x24
 6020 112a F20E0000 		.4byte	.LASF161
 6021 112e 01       		.byte	0x1
 6022 112f FE02     		.2byte	0x2fe
 6023 1131 BC010000 		.4byte	.L87
 6024 1135 20       		.uleb128 0x20
 6025 1136 10000000 		.4byte	.LVL171
 6026 113a 8C240000 		.4byte	0x248c
 6027 113e 49110000 		.4byte	0x1149
 6028 1142 1A       		.uleb128 0x1a
 6029 1143 01       		.uleb128 0x1
 6030 1144 50       		.byte	0x50
 6031 1145 02       		.uleb128 0x2
 6032 1146 91       		.byte	0x91
 6033 1147 58       		.sleb128 -40
 6034 1148 00       		.byte	0
 6035 1149 20       		.uleb128 0x20
 6036 114a 1E000000 		.4byte	.LVL173
 6037 114e 7F230000 		.4byte	0x237f
 6038 1152 72110000 		.4byte	0x1172
 6039 1156 1A       		.uleb128 0x1a
 6040 1157 01       		.uleb128 0x1
 6041 1158 50       		.byte	0x50
 6042 1159 02       		.uleb128 0x2
 6043 115a 91       		.byte	0x91
 6044 115b 64       		.sleb128 -28
 6045 115c 1A       		.uleb128 0x1a
 6046 115d 01       		.uleb128 0x1
 6047 115e 51       		.byte	0x51
 6048 115f 05       		.uleb128 0x5
 6049 1160 76       		.byte	0x76
 6050 1161 00       		.sleb128 0
 6051 1162 74       		.byte	0x74
 6052 1163 00       		.sleb128 0
ARM GAS  C:\Users\Phuong\AppData\Local\Temp\ccG6FMOL.s 			page 137


 6053 1164 22       		.byte	0x22
 6054 1165 1A       		.uleb128 0x1a
 6055 1166 01       		.uleb128 0x1
 6056 1167 52       		.byte	0x52
 6057 1168 02       		.uleb128 0x2
 6058 1169 91       		.byte	0x91
 6059 116a 68       		.sleb128 -24
 6060 116b 1A       		.uleb128 0x1a
 6061 116c 01       		.uleb128 0x1
 6062 116d 53       		.byte	0x53
 6063 116e 02       		.uleb128 0x2
 6064 116f 08       		.byte	0x8
 6065 1170 30       		.byte	0x30
 6066 1171 00       		.byte	0
 6067 1172 20       		.uleb128 0x20
 6068 1173 3E000000 		.4byte	.LVL178
 6069 1177 CE230000 		.4byte	0x23ce
 6070 117b 92110000 		.4byte	0x1192
 6071 117f 1A       		.uleb128 0x1a
 6072 1180 01       		.uleb128 0x1
 6073 1181 50       		.byte	0x50
 6074 1182 02       		.uleb128 0x2
 6075 1183 91       		.byte	0x91
 6076 1184 64       		.sleb128 -28
 6077 1185 1A       		.uleb128 0x1a
 6078 1186 01       		.uleb128 0x1
 6079 1187 51       		.byte	0x51
 6080 1188 02       		.uleb128 0x2
 6081 1189 76       		.byte	0x76
 6082 118a 00       		.sleb128 0
 6083 118b 1A       		.uleb128 0x1a
 6084 118c 01       		.uleb128 0x1
 6085 118d 52       		.byte	0x52
 6086 118e 02       		.uleb128 0x2
 6087 118f 91       		.byte	0x91
 6088 1190 6C       		.sleb128 -20
 6089 1191 00       		.byte	0
 6090 1192 20       		.uleb128 0x20
 6091 1193 5E000000 		.4byte	.LVL182
 6092 1197 7F230000 		.4byte	0x237f
 6093 119b B2110000 		.4byte	0x11b2
 6094 119f 1A       		.uleb128 0x1a
 6095 11a0 01       		.uleb128 0x1
 6096 11a1 50       		.byte	0x50
 6097 11a2 02       		.uleb128 0x2
 6098 11a3 91       		.byte	0x91
 6099 11a4 64       		.sleb128 -28
 6100 11a5 1A       		.uleb128 0x1a
 6101 11a6 01       		.uleb128 0x1
 6102 11a7 51       		.byte	0x51
 6103 11a8 02       		.uleb128 0x2
 6104 11a9 76       		.byte	0x76
 6105 11aa 00       		.sleb128 0
 6106 11ab 1A       		.uleb128 0x1a
 6107 11ac 01       		.uleb128 0x1
 6108 11ad 52       		.byte	0x52
 6109 11ae 02       		.uleb128 0x2
ARM GAS  C:\Users\Phuong\AppData\Local\Temp\ccG6FMOL.s 			page 138


 6110 11af 91       		.byte	0x91
 6111 11b0 68       		.sleb128 -24
 6112 11b1 00       		.byte	0
 6113 11b2 20       		.uleb128 0x20
 6114 11b3 7E000000 		.4byte	.LVL185
 6115 11b7 AB230000 		.4byte	0x23ab
 6116 11bb F5110000 		.4byte	0x11f5
 6117 11bf 1A       		.uleb128 0x1a
 6118 11c0 01       		.uleb128 0x1
 6119 11c1 50       		.byte	0x50
 6120 11c2 02       		.uleb128 0x2
 6121 11c3 75       		.byte	0x75
 6122 11c4 00       		.sleb128 0
 6123 11c5 1A       		.uleb128 0x1a
 6124 11c6 01       		.uleb128 0x1
 6125 11c7 53       		.byte	0x53
 6126 11c8 01       		.uleb128 0x1
 6127 11c9 30       		.byte	0x30
 6128 11ca 1A       		.uleb128 0x1a
 6129 11cb 02       		.uleb128 0x2
 6130 11cc 7D       		.byte	0x7d
 6131 11cd 00       		.sleb128 0
 6132 11ce 01       		.uleb128 0x1
 6133 11cf 30       		.byte	0x30
 6134 11d0 1A       		.uleb128 0x1a
 6135 11d1 02       		.uleb128 0x2
 6136 11d2 7D       		.byte	0x7d
 6137 11d3 04       		.sleb128 4
 6138 11d4 01       		.uleb128 0x1
 6139 11d5 30       		.byte	0x30
 6140 11d6 1A       		.uleb128 0x1a
 6141 11d7 02       		.uleb128 0x2
 6142 11d8 7D       		.byte	0x7d
 6143 11d9 08       		.sleb128 8
 6144 11da 01       		.uleb128 0x1
 6145 11db 30       		.byte	0x30
 6146 11dc 1A       		.uleb128 0x1a
 6147 11dd 02       		.uleb128 0x2
 6148 11de 7D       		.byte	0x7d
 6149 11df 0C       		.sleb128 12
 6150 11e0 01       		.uleb128 0x1
 6151 11e1 30       		.byte	0x30
 6152 11e2 1A       		.uleb128 0x1a
 6153 11e3 02       		.uleb128 0x2
 6154 11e4 7D       		.byte	0x7d
 6155 11e5 10       		.sleb128 16
 6156 11e6 01       		.uleb128 0x1
 6157 11e7 30       		.byte	0x30
 6158 11e8 1A       		.uleb128 0x1a
 6159 11e9 02       		.uleb128 0x2
 6160 11ea 7D       		.byte	0x7d
 6161 11eb 14       		.sleb128 20
 6162 11ec 01       		.uleb128 0x1
 6163 11ed 30       		.byte	0x30
 6164 11ee 1A       		.uleb128 0x1a
 6165 11ef 02       		.uleb128 0x2
 6166 11f0 7D       		.byte	0x7d
ARM GAS  C:\Users\Phuong\AppData\Local\Temp\ccG6FMOL.s 			page 139


 6167 11f1 18       		.sleb128 24
 6168 11f2 01       		.uleb128 0x1
 6169 11f3 30       		.byte	0x30
 6170 11f4 00       		.byte	0
 6171 11f5 20       		.uleb128 0x20
 6172 11f6 9A000000 		.4byte	.LVL188
 6173 11fa 7F230000 		.4byte	0x237f
 6174 11fe 1A120000 		.4byte	0x121a
 6175 1202 1A       		.uleb128 0x1a
 6176 1203 01       		.uleb128 0x1
 6177 1204 50       		.byte	0x50
 6178 1205 02       		.uleb128 0x2
 6179 1206 91       		.byte	0x91
 6180 1207 64       		.sleb128 -28
 6181 1208 1A       		.uleb128 0x1a
 6182 1209 01       		.uleb128 0x1
 6183 120a 51       		.byte	0x51
 6184 120b 02       		.uleb128 0x2
 6185 120c 76       		.byte	0x76
 6186 120d 00       		.sleb128 0
 6187 120e 1A       		.uleb128 0x1a
 6188 120f 01       		.uleb128 0x1
 6189 1210 52       		.byte	0x52
 6190 1211 02       		.uleb128 0x2
 6191 1212 91       		.byte	0x91
 6192 1213 68       		.sleb128 -24
 6193 1214 1A       		.uleb128 0x1a
 6194 1215 01       		.uleb128 0x1
 6195 1216 53       		.byte	0x53
 6196 1217 01       		.uleb128 0x1
 6197 1218 32       		.byte	0x32
 6198 1219 00       		.byte	0
 6199 121a 20       		.uleb128 0x20
 6200 121b BE000000 		.4byte	.LVL191
 6201 121f AB230000 		.4byte	0x23ab
 6202 1223 5B120000 		.4byte	0x125b
 6203 1227 1A       		.uleb128 0x1a
 6204 1228 01       		.uleb128 0x1
 6205 1229 50       		.byte	0x50
 6206 122a 02       		.uleb128 0x2
 6207 122b 75       		.byte	0x75
 6208 122c 00       		.sleb128 0
 6209 122d 1A       		.uleb128 0x1a
 6210 122e 01       		.uleb128 0x1
 6211 122f 51       		.byte	0x51
 6212 1230 01       		.uleb128 0x1
 6213 1231 30       		.byte	0x30
 6214 1232 1A       		.uleb128 0x1a
 6215 1233 01       		.uleb128 0x1
 6216 1234 52       		.byte	0x52
 6217 1235 01       		.uleb128 0x1
 6218 1236 30       		.byte	0x30
 6219 1237 1A       		.uleb128 0x1a
 6220 1238 01       		.uleb128 0x1
 6221 1239 53       		.byte	0x53
 6222 123a 01       		.uleb128 0x1
 6223 123b 30       		.byte	0x30
ARM GAS  C:\Users\Phuong\AppData\Local\Temp\ccG6FMOL.s 			page 140


 6224 123c 1A       		.uleb128 0x1a
 6225 123d 02       		.uleb128 0x2
 6226 123e 7D       		.byte	0x7d
 6227 123f 00       		.sleb128 0
 6228 1240 01       		.uleb128 0x1
 6229 1241 30       		.byte	0x30
 6230 1242 1A       		.uleb128 0x1a
 6231 1243 02       		.uleb128 0x2
 6232 1244 7D       		.byte	0x7d
 6233 1245 04       		.sleb128 4
 6234 1246 01       		.uleb128 0x1
 6235 1247 30       		.byte	0x30
 6236 1248 1A       		.uleb128 0x1a
 6237 1249 02       		.uleb128 0x2
 6238 124a 7D       		.byte	0x7d
 6239 124b 08       		.sleb128 8
 6240 124c 01       		.uleb128 0x1
 6241 124d 30       		.byte	0x30
 6242 124e 1A       		.uleb128 0x1a
 6243 124f 02       		.uleb128 0x2
 6244 1250 7D       		.byte	0x7d
 6245 1251 0C       		.sleb128 12
 6246 1252 01       		.uleb128 0x1
 6247 1253 30       		.byte	0x30
 6248 1254 1A       		.uleb128 0x1a
 6249 1255 02       		.uleb128 0x2
 6250 1256 7D       		.byte	0x7d
 6251 1257 10       		.sleb128 16
 6252 1258 01       		.uleb128 0x1
 6253 1259 30       		.byte	0x30
 6254 125a 00       		.byte	0
 6255 125b 20       		.uleb128 0x20
 6256 125c DA000000 		.4byte	.LVL194
 6257 1260 7F230000 		.4byte	0x237f
 6258 1264 80120000 		.4byte	0x1280
 6259 1268 1A       		.uleb128 0x1a
 6260 1269 01       		.uleb128 0x1
 6261 126a 50       		.byte	0x50
 6262 126b 02       		.uleb128 0x2
 6263 126c 91       		.byte	0x91
 6264 126d 64       		.sleb128 -28
 6265 126e 1A       		.uleb128 0x1a
 6266 126f 01       		.uleb128 0x1
 6267 1270 51       		.byte	0x51
 6268 1271 02       		.uleb128 0x2
 6269 1272 76       		.byte	0x76
 6270 1273 00       		.sleb128 0
 6271 1274 1A       		.uleb128 0x1a
 6272 1275 01       		.uleb128 0x1
 6273 1276 52       		.byte	0x52
 6274 1277 02       		.uleb128 0x2
 6275 1278 91       		.byte	0x91
 6276 1279 68       		.sleb128 -24
 6277 127a 1A       		.uleb128 0x1a
 6278 127b 01       		.uleb128 0x1
 6279 127c 53       		.byte	0x53
 6280 127d 01       		.uleb128 0x1
ARM GAS  C:\Users\Phuong\AppData\Local\Temp\ccG6FMOL.s 			page 141


 6281 127e 32       		.byte	0x32
 6282 127f 00       		.byte	0
 6283 1280 20       		.uleb128 0x20
 6284 1281 FC000000 		.4byte	.LVL197
 6285 1285 AB230000 		.4byte	0x23ab
 6286 1289 C1120000 		.4byte	0x12c1
 6287 128d 1A       		.uleb128 0x1a
 6288 128e 01       		.uleb128 0x1
 6289 128f 50       		.byte	0x50
 6290 1290 02       		.uleb128 0x2
 6291 1291 75       		.byte	0x75
 6292 1292 00       		.sleb128 0
 6293 1293 1A       		.uleb128 0x1a
 6294 1294 01       		.uleb128 0x1
 6295 1295 51       		.byte	0x51
 6296 1296 01       		.uleb128 0x1
 6297 1297 30       		.byte	0x30
 6298 1298 1A       		.uleb128 0x1a
 6299 1299 01       		.uleb128 0x1
 6300 129a 52       		.byte	0x52
 6301 129b 01       		.uleb128 0x1
 6302 129c 30       		.byte	0x30
 6303 129d 1A       		.uleb128 0x1a
 6304 129e 01       		.uleb128 0x1
 6305 129f 53       		.byte	0x53
 6306 12a0 01       		.uleb128 0x1
 6307 12a1 30       		.byte	0x30
 6308 12a2 1A       		.uleb128 0x1a
 6309 12a3 02       		.uleb128 0x2
 6310 12a4 7D       		.byte	0x7d
 6311 12a5 00       		.sleb128 0
 6312 12a6 01       		.uleb128 0x1
 6313 12a7 30       		.byte	0x30
 6314 12a8 1A       		.uleb128 0x1a
 6315 12a9 02       		.uleb128 0x2
 6316 12aa 7D       		.byte	0x7d
 6317 12ab 04       		.sleb128 4
 6318 12ac 01       		.uleb128 0x1
 6319 12ad 30       		.byte	0x30
 6320 12ae 1A       		.uleb128 0x1a
 6321 12af 02       		.uleb128 0x2
 6322 12b0 7D       		.byte	0x7d
 6323 12b1 08       		.sleb128 8
 6324 12b2 01       		.uleb128 0x1
 6325 12b3 30       		.byte	0x30
 6326 12b4 1A       		.uleb128 0x1a
 6327 12b5 02       		.uleb128 0x2
 6328 12b6 7D       		.byte	0x7d
 6329 12b7 14       		.sleb128 20
 6330 12b8 01       		.uleb128 0x1
 6331 12b9 30       		.byte	0x30
 6332 12ba 1A       		.uleb128 0x1a
 6333 12bb 02       		.uleb128 0x2
 6334 12bc 7D       		.byte	0x7d
 6335 12bd 18       		.sleb128 24
 6336 12be 01       		.uleb128 0x1
 6337 12bf 30       		.byte	0x30
ARM GAS  C:\Users\Phuong\AppData\Local\Temp\ccG6FMOL.s 			page 142


 6338 12c0 00       		.byte	0
 6339 12c1 20       		.uleb128 0x20
 6340 12c2 16010000 		.4byte	.LVL200
 6341 12c6 7F230000 		.4byte	0x237f
 6342 12ca E6120000 		.4byte	0x12e6
 6343 12ce 1A       		.uleb128 0x1a
 6344 12cf 01       		.uleb128 0x1
 6345 12d0 50       		.byte	0x50
 6346 12d1 02       		.uleb128 0x2
 6347 12d2 91       		.byte	0x91
 6348 12d3 64       		.sleb128 -28
 6349 12d4 1A       		.uleb128 0x1a
 6350 12d5 01       		.uleb128 0x1
 6351 12d6 51       		.byte	0x51
 6352 12d7 02       		.uleb128 0x2
 6353 12d8 76       		.byte	0x76
 6354 12d9 00       		.sleb128 0
 6355 12da 1A       		.uleb128 0x1a
 6356 12db 01       		.uleb128 0x1
 6357 12dc 52       		.byte	0x52
 6358 12dd 02       		.uleb128 0x2
 6359 12de 91       		.byte	0x91
 6360 12df 68       		.sleb128 -24
 6361 12e0 1A       		.uleb128 0x1a
 6362 12e1 01       		.uleb128 0x1
 6363 12e2 53       		.byte	0x53
 6364 12e3 01       		.uleb128 0x1
 6365 12e4 32       		.byte	0x32
 6366 12e5 00       		.byte	0
 6367 12e6 20       		.uleb128 0x20
 6368 12e7 36010000 		.4byte	.LVL203
 6369 12eb AB230000 		.4byte	0x23ab
 6370 12ef 28130000 		.4byte	0x1328
 6371 12f3 1A       		.uleb128 0x1a
 6372 12f4 01       		.uleb128 0x1
 6373 12f5 50       		.byte	0x50
 6374 12f6 02       		.uleb128 0x2
 6375 12f7 75       		.byte	0x75
 6376 12f8 00       		.sleb128 0
 6377 12f9 1A       		.uleb128 0x1a
 6378 12fa 01       		.uleb128 0x1
 6379 12fb 51       		.byte	0x51
 6380 12fc 01       		.uleb128 0x1
 6381 12fd 30       		.byte	0x30
 6382 12fe 1A       		.uleb128 0x1a
 6383 12ff 01       		.uleb128 0x1
 6384 1300 52       		.byte	0x52
 6385 1301 01       		.uleb128 0x1
 6386 1302 30       		.byte	0x30
 6387 1303 1A       		.uleb128 0x1a
 6388 1304 02       		.uleb128 0x2
 6389 1305 7D       		.byte	0x7d
 6390 1306 04       		.sleb128 4
 6391 1307 01       		.uleb128 0x1
 6392 1308 30       		.byte	0x30
 6393 1309 1A       		.uleb128 0x1a
 6394 130a 02       		.uleb128 0x2
ARM GAS  C:\Users\Phuong\AppData\Local\Temp\ccG6FMOL.s 			page 143


 6395 130b 7D       		.byte	0x7d
 6396 130c 08       		.sleb128 8
 6397 130d 01       		.uleb128 0x1
 6398 130e 30       		.byte	0x30
 6399 130f 1A       		.uleb128 0x1a
 6400 1310 02       		.uleb128 0x2
 6401 1311 7D       		.byte	0x7d
 6402 1312 0C       		.sleb128 12
 6403 1313 01       		.uleb128 0x1
 6404 1314 30       		.byte	0x30
 6405 1315 1A       		.uleb128 0x1a
 6406 1316 02       		.uleb128 0x2
 6407 1317 7D       		.byte	0x7d
 6408 1318 10       		.sleb128 16
 6409 1319 01       		.uleb128 0x1
 6410 131a 30       		.byte	0x30
 6411 131b 1A       		.uleb128 0x1a
 6412 131c 02       		.uleb128 0x2
 6413 131d 7D       		.byte	0x7d
 6414 131e 14       		.sleb128 20
 6415 131f 01       		.uleb128 0x1
 6416 1320 30       		.byte	0x30
 6417 1321 1A       		.uleb128 0x1a
 6418 1322 02       		.uleb128 0x2
 6419 1323 7D       		.byte	0x7d
 6420 1324 18       		.sleb128 24
 6421 1325 01       		.uleb128 0x1
 6422 1326 30       		.byte	0x30
 6423 1327 00       		.byte	0
 6424 1328 20       		.uleb128 0x20
 6425 1329 50010000 		.4byte	.LVL206
 6426 132d 7F230000 		.4byte	0x237f
 6427 1331 4D130000 		.4byte	0x134d
 6428 1335 1A       		.uleb128 0x1a
 6429 1336 01       		.uleb128 0x1
 6430 1337 50       		.byte	0x50
 6431 1338 02       		.uleb128 0x2
 6432 1339 91       		.byte	0x91
 6433 133a 64       		.sleb128 -28
 6434 133b 1A       		.uleb128 0x1a
 6435 133c 01       		.uleb128 0x1
 6436 133d 51       		.byte	0x51
 6437 133e 02       		.uleb128 0x2
 6438 133f 76       		.byte	0x76
 6439 1340 00       		.sleb128 0
 6440 1341 1A       		.uleb128 0x1a
 6441 1342 01       		.uleb128 0x1
 6442 1343 52       		.byte	0x52
 6443 1344 02       		.uleb128 0x2
 6444 1345 91       		.byte	0x91
 6445 1346 68       		.sleb128 -24
 6446 1347 1A       		.uleb128 0x1a
 6447 1348 01       		.uleb128 0x1
 6448 1349 53       		.byte	0x53
 6449 134a 01       		.uleb128 0x1
 6450 134b 32       		.byte	0x32
 6451 134c 00       		.byte	0
ARM GAS  C:\Users\Phuong\AppData\Local\Temp\ccG6FMOL.s 			page 144


 6452 134d 20       		.uleb128 0x20
 6453 134e 72010000 		.4byte	.LVL209
 6454 1352 AB230000 		.4byte	0x23ab
 6455 1356 8E130000 		.4byte	0x138e
 6456 135a 1A       		.uleb128 0x1a
 6457 135b 01       		.uleb128 0x1
 6458 135c 50       		.byte	0x50
 6459 135d 02       		.uleb128 0x2
 6460 135e 75       		.byte	0x75
 6461 135f 00       		.sleb128 0
 6462 1360 1A       		.uleb128 0x1a
 6463 1361 01       		.uleb128 0x1
 6464 1362 51       		.byte	0x51
 6465 1363 01       		.uleb128 0x1
 6466 1364 30       		.byte	0x30
 6467 1365 1A       		.uleb128 0x1a
 6468 1366 01       		.uleb128 0x1
 6469 1367 52       		.byte	0x52
 6470 1368 01       		.uleb128 0x1
 6471 1369 30       		.byte	0x30
 6472 136a 1A       		.uleb128 0x1a
 6473 136b 01       		.uleb128 0x1
 6474 136c 53       		.byte	0x53
 6475 136d 01       		.uleb128 0x1
 6476 136e 30       		.byte	0x30
 6477 136f 1A       		.uleb128 0x1a
 6478 1370 02       		.uleb128 0x2
 6479 1371 7D       		.byte	0x7d
 6480 1372 00       		.sleb128 0
 6481 1373 01       		.uleb128 0x1
 6482 1374 30       		.byte	0x30
 6483 1375 1A       		.uleb128 0x1a
 6484 1376 02       		.uleb128 0x2
 6485 1377 7D       		.byte	0x7d
 6486 1378 0C       		.sleb128 12
 6487 1379 01       		.uleb128 0x1
 6488 137a 30       		.byte	0x30
 6489 137b 1A       		.uleb128 0x1a
 6490 137c 02       		.uleb128 0x2
 6491 137d 7D       		.byte	0x7d
 6492 137e 10       		.sleb128 16
 6493 137f 01       		.uleb128 0x1
 6494 1380 30       		.byte	0x30
 6495 1381 1A       		.uleb128 0x1a
 6496 1382 02       		.uleb128 0x2
 6497 1383 7D       		.byte	0x7d
 6498 1384 14       		.sleb128 20
 6499 1385 01       		.uleb128 0x1
 6500 1386 30       		.byte	0x30
 6501 1387 1A       		.uleb128 0x1a
 6502 1388 02       		.uleb128 0x2
 6503 1389 7D       		.byte	0x7d
 6504 138a 18       		.sleb128 24
 6505 138b 01       		.uleb128 0x1
 6506 138c 30       		.byte	0x30
 6507 138d 00       		.byte	0
 6508 138e 20       		.uleb128 0x20
ARM GAS  C:\Users\Phuong\AppData\Local\Temp\ccG6FMOL.s 			page 145


 6509 138f 86010000 		.4byte	.LVL212
 6510 1393 B6230000 		.4byte	0x23b6
 6511 1397 A2130000 		.4byte	0x13a2
 6512 139b 1A       		.uleb128 0x1a
 6513 139c 01       		.uleb128 0x1
 6514 139d 50       		.byte	0x50
 6515 139e 02       		.uleb128 0x2
 6516 139f 75       		.byte	0x75
 6517 13a0 00       		.sleb128 0
 6518 13a1 00       		.byte	0
 6519 13a2 20       		.uleb128 0x20
 6520 13a3 94010000 		.4byte	.LVL215
 6521 13a7 E4230000 		.4byte	0x23e4
 6522 13ab C2130000 		.4byte	0x13c2
 6523 13af 1A       		.uleb128 0x1a
 6524 13b0 01       		.uleb128 0x1
 6525 13b1 50       		.byte	0x50
 6526 13b2 02       		.uleb128 0x2
 6527 13b3 91       		.byte	0x91
 6528 13b4 64       		.sleb128 -28
 6529 13b5 1A       		.uleb128 0x1a
 6530 13b6 01       		.uleb128 0x1
 6531 13b7 51       		.byte	0x51
 6532 13b8 02       		.uleb128 0x2
 6533 13b9 76       		.byte	0x76
 6534 13ba 00       		.sleb128 0
 6535 13bb 1A       		.uleb128 0x1a
 6536 13bc 01       		.uleb128 0x1
 6537 13bd 52       		.byte	0x52
 6538 13be 02       		.uleb128 0x2
 6539 13bf 91       		.byte	0x91
 6540 13c0 58       		.sleb128 -40
 6541 13c1 00       		.byte	0
 6542 13c2 20       		.uleb128 0x20
 6543 13c3 A2010000 		.4byte	.LVL218
 6544 13c7 E4230000 		.4byte	0x23e4
 6545 13cb E2130000 		.4byte	0x13e2
 6546 13cf 1A       		.uleb128 0x1a
 6547 13d0 01       		.uleb128 0x1
 6548 13d1 50       		.byte	0x50
 6549 13d2 02       		.uleb128 0x2
 6550 13d3 91       		.byte	0x91
 6551 13d4 64       		.sleb128 -28
 6552 13d5 1A       		.uleb128 0x1a
 6553 13d6 01       		.uleb128 0x1
 6554 13d7 51       		.byte	0x51
 6555 13d8 02       		.uleb128 0x2
 6556 13d9 76       		.byte	0x76
 6557 13da 00       		.sleb128 0
 6558 13db 1A       		.uleb128 0x1a
 6559 13dc 01       		.uleb128 0x1
 6560 13dd 52       		.byte	0x52
 6561 13de 02       		.uleb128 0x2
 6562 13df 91       		.byte	0x91
 6563 13e0 58       		.sleb128 -40
 6564 13e1 00       		.byte	0
 6565 13e2 20       		.uleb128 0x20
ARM GAS  C:\Users\Phuong\AppData\Local\Temp\ccG6FMOL.s 			page 146


 6566 13e3 B0010000 		.4byte	.LVL221
 6567 13e7 E4230000 		.4byte	0x23e4
 6568 13eb 02140000 		.4byte	0x1402
 6569 13ef 1A       		.uleb128 0x1a
 6570 13f0 01       		.uleb128 0x1
 6571 13f1 50       		.byte	0x50
 6572 13f2 02       		.uleb128 0x2
 6573 13f3 91       		.byte	0x91
 6574 13f4 64       		.sleb128 -28
 6575 13f5 1A       		.uleb128 0x1a
 6576 13f6 01       		.uleb128 0x1
 6577 13f7 51       		.byte	0x51
 6578 13f8 02       		.uleb128 0x2
 6579 13f9 76       		.byte	0x76
 6580 13fa 00       		.sleb128 0
 6581 13fb 1A       		.uleb128 0x1a
 6582 13fc 01       		.uleb128 0x1
 6583 13fd 52       		.byte	0x52
 6584 13fe 02       		.uleb128 0x2
 6585 13ff 91       		.byte	0x91
 6586 1400 58       		.sleb128 -40
 6587 1401 00       		.byte	0
 6588 1402 20       		.uleb128 0x20
 6589 1403 C2010000 		.4byte	.LVL224
 6590 1407 97240000 		.4byte	0x2497
 6591 140b 16140000 		.4byte	0x1416
 6592 140f 1A       		.uleb128 0x1a
 6593 1410 01       		.uleb128 0x1
 6594 1411 50       		.byte	0x50
 6595 1412 02       		.uleb128 0x2
 6596 1413 91       		.byte	0x91
 6597 1414 58       		.sleb128 -40
 6598 1415 00       		.byte	0
 6599 1416 19       		.uleb128 0x19
 6600 1417 DC010000 		.4byte	.LVL227
 6601 141b A2240000 		.4byte	0x24a2
 6602 141f 1A       		.uleb128 0x1a
 6603 1420 01       		.uleb128 0x1
 6604 1421 50       		.byte	0x50
 6605 1422 02       		.uleb128 0x2
 6606 1423 75       		.byte	0x75
 6607 1424 00       		.sleb128 0
 6608 1425 00       		.byte	0
 6609 1426 00       		.byte	0
 6610 1427 1B       		.uleb128 0x1b
 6611 1428 00000000 		.4byte	.LASF167
 6612 142c 01       		.byte	0x1
 6613 142d 1503     		.2byte	0x315
 6614 142f 68000000 		.4byte	0x68
 6615 1433 00000000 		.4byte	.LFB21
 6616 1437 B4010000 		.4byte	.LFE21-.LFB21
 6617 143b 01       		.uleb128 0x1
 6618 143c 9C       		.byte	0x9c
 6619 143d EC160000 		.4byte	0x16ec
 6620 1441 1C       		.uleb128 0x1c
 6621 1442 65636B00 		.ascii	"eck\000"
 6622 1446 01       		.byte	0x1
ARM GAS  C:\Users\Phuong\AppData\Local\Temp\ccG6FMOL.s 			page 147


 6623 1447 1503     		.2byte	0x315
 6624 1449 10070000 		.4byte	0x710
 6625 144d 74090000 		.4byte	.LLST38
 6626 1451 1C       		.uleb128 0x1c
 6627 1452 6B657900 		.ascii	"key\000"
 6628 1456 01       		.byte	0x1
 6629 1457 1603     		.2byte	0x316
 6630 1459 6D040000 		.4byte	0x46d
 6631 145d A0090000 		.4byte	.LLST39
 6632 1461 1D       		.uleb128 0x1d
 6633 1462 42090000 		.4byte	.LASF165
 6634 1466 01       		.byte	0x1
 6635 1467 1703     		.2byte	0x317
 6636 1469 76000000 		.4byte	0x76
 6637 146d D9090000 		.4byte	.LLST40
 6638 1471 1E       		.uleb128 0x1e
 6639 1472 72657400 		.ascii	"ret\000"
 6640 1476 01       		.byte	0x1
 6641 1477 1903     		.2byte	0x319
 6642 1479 68000000 		.4byte	0x68
 6643 147d FA090000 		.4byte	.LLST41
 6644 1481 1F       		.uleb128 0x1f
 6645 1482 DD000000 		.4byte	.LASF166
 6646 1486 01       		.byte	0x1
 6647 1487 1A03     		.2byte	0x31a
 6648 1489 68000000 		.4byte	0x68
 6649 148d 02       		.uleb128 0x2
 6650 148e 91       		.byte	0x91
 6651 148f 64       		.sleb128 -28
 6652 1490 26       		.uleb128 0x26
 6653 1491 4D0D0000 		.4byte	.LASF168
 6654 1495 01       		.byte	0x1
 6655 1496 1A03     		.2byte	0x31a
 6656 1498 68000000 		.4byte	0x68
 6657 149c BF0B0000 		.4byte	.LLST42
 6658 14a0 21       		.uleb128 0x21
 6659 14a1 6C656E00 		.ascii	"len\000"
 6660 14a5 01       		.byte	0x1
 6661 14a6 1B03     		.2byte	0x31b
 6662 14a8 76000000 		.4byte	0x76
 6663 14ac 02       		.uleb128 0x2
 6664 14ad 91       		.byte	0x91
 6665 14ae 60       		.sleb128 -32
 6666 14af 1F       		.uleb128 0x1f
 6667 14b0 32000000 		.4byte	.LASF149
 6668 14b4 01       		.byte	0x1
 6669 14b5 1C03     		.2byte	0x31c
 6670 14b7 AD040000 		.4byte	0x4ad
 6671 14bb 02       		.uleb128 0x2
 6672 14bc 91       		.byte	0x91
 6673 14bd 54       		.sleb128 -44
 6674 14be 21       		.uleb128 0x21
 6675 14bf 7000     		.ascii	"p\000"
 6676 14c1 01       		.byte	0x1
 6677 14c2 1D03     		.2byte	0x31d
 6678 14c4 78040000 		.4byte	0x478
 6679 14c8 02       		.uleb128 0x2
ARM GAS  C:\Users\Phuong\AppData\Local\Temp\ccG6FMOL.s 			page 148


 6680 14c9 91       		.byte	0x91
 6681 14ca 50       		.sleb128 -48
 6682 14cb 1E       		.uleb128 0x1e
 6683 14cc 656E6400 		.ascii	"end\000"
 6684 14d0 01       		.byte	0x1
 6685 14d1 1E03     		.2byte	0x31e
 6686 14d3 78040000 		.4byte	0x478
 6687 14d7 EA0B0000 		.4byte	.LLST43
 6688 14db 26       		.uleb128 0x26
 6689 14dc AC0C0000 		.4byte	.LASF169
 6690 14e0 01       		.byte	0x1
 6691 14e1 1F03     		.2byte	0x31f
 6692 14e3 78040000 		.4byte	0x478
 6693 14e7 250C0000 		.4byte	.LLST44
 6694 14eb 20       		.uleb128 0x20
 6695 14ec 14000000 		.4byte	.LVL237
 6696 14f0 7F230000 		.4byte	0x237f
 6697 14f4 16150000 		.4byte	0x1516
 6698 14f8 1A       		.uleb128 0x1a
 6699 14f9 01       		.uleb128 0x1
 6700 14fa 50       		.byte	0x50
 6701 14fb 02       		.uleb128 0x2
 6702 14fc 91       		.byte	0x91
 6703 14fd 50       		.sleb128 -48
 6704 14fe 1A       		.uleb128 0x1a
 6705 14ff 01       		.uleb128 0x1
 6706 1500 51       		.byte	0x51
 6707 1501 07       		.uleb128 0x7
 6708 1502 F3       		.byte	0xf3
 6709 1503 01       		.uleb128 0x1
 6710 1504 51       		.byte	0x51
 6711 1505 F3       		.byte	0xf3
 6712 1506 01       		.uleb128 0x1
 6713 1507 52       		.byte	0x52
 6714 1508 22       		.byte	0x22
 6715 1509 1A       		.uleb128 0x1a
 6716 150a 01       		.uleb128 0x1
 6717 150b 52       		.byte	0x52
 6718 150c 02       		.uleb128 0x2
 6719 150d 91       		.byte	0x91
 6720 150e 60       		.sleb128 -32
 6721 150f 1A       		.uleb128 0x1a
 6722 1510 01       		.uleb128 0x1
 6723 1511 53       		.byte	0x53
 6724 1512 02       		.uleb128 0x2
 6725 1513 08       		.byte	0x8
 6726 1514 30       		.byte	0x30
 6727 1515 00       		.byte	0
 6728 1516 20       		.uleb128 0x20
 6729 1517 34000000 		.4byte	.LVL242
 6730 151b CE230000 		.4byte	0x23ce
 6731 151f 36150000 		.4byte	0x1536
 6732 1523 1A       		.uleb128 0x1a
 6733 1524 01       		.uleb128 0x1
 6734 1525 50       		.byte	0x50
 6735 1526 02       		.uleb128 0x2
 6736 1527 91       		.byte	0x91
ARM GAS  C:\Users\Phuong\AppData\Local\Temp\ccG6FMOL.s 			page 149


 6737 1528 50       		.sleb128 -48
 6738 1529 1A       		.uleb128 0x1a
 6739 152a 01       		.uleb128 0x1
 6740 152b 51       		.byte	0x51
 6741 152c 02       		.uleb128 0x2
 6742 152d 77       		.byte	0x77
 6743 152e 00       		.sleb128 0
 6744 152f 1A       		.uleb128 0x1a
 6745 1530 01       		.uleb128 0x1
 6746 1531 52       		.byte	0x52
 6747 1532 02       		.uleb128 0x2
 6748 1533 91       		.byte	0x91
 6749 1534 64       		.sleb128 -28
 6750 1535 00       		.byte	0
 6751 1536 20       		.uleb128 0x20
 6752 1537 54000000 		.4byte	.LVL246
 6753 153b 7F230000 		.4byte	0x237f
 6754 153f 56150000 		.4byte	0x1556
 6755 1543 1A       		.uleb128 0x1a
 6756 1544 01       		.uleb128 0x1
 6757 1545 50       		.byte	0x50
 6758 1546 02       		.uleb128 0x2
 6759 1547 91       		.byte	0x91
 6760 1548 50       		.sleb128 -48
 6761 1549 1A       		.uleb128 0x1a
 6762 154a 01       		.uleb128 0x1
 6763 154b 51       		.byte	0x51
 6764 154c 02       		.uleb128 0x2
 6765 154d 77       		.byte	0x77
 6766 154e 00       		.sleb128 0
 6767 154f 1A       		.uleb128 0x1a
 6768 1550 01       		.uleb128 0x1
 6769 1551 52       		.byte	0x52
 6770 1552 02       		.uleb128 0x2
 6771 1553 91       		.byte	0x91
 6772 1554 60       		.sleb128 -32
 6773 1555 00       		.byte	0
 6774 1556 20       		.uleb128 0x20
 6775 1557 6E000000 		.4byte	.LVL250
 6776 155b FC230000 		.4byte	0x23fc
 6777 155f 6A150000 		.4byte	0x156a
 6778 1563 1A       		.uleb128 0x1a
 6779 1564 01       		.uleb128 0x1
 6780 1565 50       		.byte	0x50
 6781 1566 02       		.uleb128 0x2
 6782 1567 76       		.byte	0x76
 6783 1568 00       		.sleb128 0
 6784 1569 00       		.byte	0
 6785 156a 20       		.uleb128 0x20
 6786 156b 78000000 		.4byte	.LVL253
 6787 156f AE240000 		.4byte	0x24ae
 6788 1573 7E150000 		.4byte	0x157e
 6789 1577 1A       		.uleb128 0x1a
 6790 1578 01       		.uleb128 0x1
 6791 1579 50       		.byte	0x50
 6792 157a 02       		.uleb128 0x2
 6793 157b 74       		.byte	0x74
ARM GAS  C:\Users\Phuong\AppData\Local\Temp\ccG6FMOL.s 			page 150


 6794 157c 00       		.sleb128 0
 6795 157d 00       		.byte	0
 6796 157e 20       		.uleb128 0x20
 6797 157f 98000000 		.4byte	.LVL257
 6798 1583 7F230000 		.4byte	0x237f
 6799 1587 A4150000 		.4byte	0x15a4
 6800 158b 1A       		.uleb128 0x1a
 6801 158c 01       		.uleb128 0x1
 6802 158d 50       		.byte	0x50
 6803 158e 02       		.uleb128 0x2
 6804 158f 91       		.byte	0x91
 6805 1590 50       		.sleb128 -48
 6806 1591 1A       		.uleb128 0x1a
 6807 1592 01       		.uleb128 0x1
 6808 1593 51       		.byte	0x51
 6809 1594 02       		.uleb128 0x2
 6810 1595 77       		.byte	0x77
 6811 1596 00       		.sleb128 0
 6812 1597 1A       		.uleb128 0x1a
 6813 1598 01       		.uleb128 0x1
 6814 1599 52       		.byte	0x52
 6815 159a 02       		.uleb128 0x2
 6816 159b 91       		.byte	0x91
 6817 159c 60       		.sleb128 -32
 6818 159d 1A       		.uleb128 0x1a
 6819 159e 01       		.uleb128 0x1
 6820 159f 53       		.byte	0x53
 6821 15a0 02       		.uleb128 0x2
 6822 15a1 08       		.byte	0x8
 6823 15a2 A0       		.byte	0xa0
 6824 15a3 00       		.byte	0
 6825 15a4 20       		.uleb128 0x20
 6826 15a5 AE000000 		.4byte	.LVL260
 6827 15a9 16070000 		.4byte	0x716
 6828 15ad BE150000 		.4byte	0x15be
 6829 15b1 1A       		.uleb128 0x1a
 6830 15b2 01       		.uleb128 0x1
 6831 15b3 50       		.byte	0x50
 6832 15b4 02       		.uleb128 0x2
 6833 15b5 91       		.byte	0x91
 6834 15b6 50       		.sleb128 -48
 6835 15b7 1A       		.uleb128 0x1a
 6836 15b8 01       		.uleb128 0x1
 6837 15b9 52       		.byte	0x52
 6838 15ba 02       		.uleb128 0x2
 6839 15bb 91       		.byte	0x91
 6840 15bc 54       		.sleb128 -44
 6841 15bd 00       		.byte	0
 6842 15be 20       		.uleb128 0x20
 6843 15bf BA000000 		.4byte	.LVL263
 6844 15c3 650F0000 		.4byte	0xf65
 6845 15c7 D8150000 		.4byte	0x15d8
 6846 15cb 1A       		.uleb128 0x1a
 6847 15cc 01       		.uleb128 0x1
 6848 15cd 50       		.byte	0x50
 6849 15ce 02       		.uleb128 0x2
 6850 15cf 91       		.byte	0x91
ARM GAS  C:\Users\Phuong\AppData\Local\Temp\ccG6FMOL.s 			page 151


 6851 15d0 54       		.sleb128 -44
 6852 15d1 1A       		.uleb128 0x1a
 6853 15d2 01       		.uleb128 0x1
 6854 15d3 51       		.byte	0x51
 6855 15d4 02       		.uleb128 0x2
 6856 15d5 74       		.byte	0x74
 6857 15d6 00       		.sleb128 0
 6858 15d7 00       		.byte	0
 6859 15d8 20       		.uleb128 0x20
 6860 15d9 C4000000 		.4byte	.LVL266
 6861 15dd AE240000 		.4byte	0x24ae
 6862 15e1 EC150000 		.4byte	0x15ec
 6863 15e5 1A       		.uleb128 0x1a
 6864 15e6 01       		.uleb128 0x1
 6865 15e7 50       		.byte	0x50
 6866 15e8 02       		.uleb128 0x2
 6867 15e9 74       		.byte	0x74
 6868 15ea 00       		.sleb128 0
 6869 15eb 00       		.byte	0
 6870 15ec 20       		.uleb128 0x20
 6871 15ed D4000000 		.4byte	.LVL269
 6872 15f1 AE240000 		.4byte	0x24ae
 6873 15f5 00160000 		.4byte	0x1600
 6874 15f9 1A       		.uleb128 0x1a
 6875 15fa 01       		.uleb128 0x1
 6876 15fb 50       		.byte	0x50
 6877 15fc 02       		.uleb128 0x2
 6878 15fd 74       		.byte	0x74
 6879 15fe 00       		.sleb128 0
 6880 15ff 00       		.byte	0
 6881 1600 20       		.uleb128 0x20
 6882 1601 EC000000 		.4byte	.LVL272
 6883 1605 7F230000 		.4byte	0x237f
 6884 1609 26160000 		.4byte	0x1626
 6885 160d 1A       		.uleb128 0x1a
 6886 160e 01       		.uleb128 0x1
 6887 160f 50       		.byte	0x50
 6888 1610 02       		.uleb128 0x2
 6889 1611 91       		.byte	0x91
 6890 1612 50       		.sleb128 -48
 6891 1613 1A       		.uleb128 0x1a
 6892 1614 01       		.uleb128 0x1
 6893 1615 51       		.byte	0x51
 6894 1616 02       		.uleb128 0x2
 6895 1617 77       		.byte	0x77
 6896 1618 00       		.sleb128 0
 6897 1619 1A       		.uleb128 0x1a
 6898 161a 01       		.uleb128 0x1
 6899 161b 52       		.byte	0x52
 6900 161c 02       		.uleb128 0x2
 6901 161d 91       		.byte	0x91
 6902 161e 60       		.sleb128 -32
 6903 161f 1A       		.uleb128 0x1a
 6904 1620 01       		.uleb128 0x1
 6905 1621 53       		.byte	0x53
 6906 1622 02       		.uleb128 0x2
 6907 1623 08       		.byte	0x8
ARM GAS  C:\Users\Phuong\AppData\Local\Temp\ccG6FMOL.s 			page 152


 6908 1624 A1       		.byte	0xa1
 6909 1625 00       		.byte	0
 6910 1626 20       		.uleb128 0x20
 6911 1627 04010000 		.4byte	.LVL276
 6912 162b BA240000 		.4byte	0x24ba
 6913 162f 46160000 		.4byte	0x1646
 6914 1633 1A       		.uleb128 0x1a
 6915 1634 01       		.uleb128 0x1
 6916 1635 50       		.byte	0x50
 6917 1636 02       		.uleb128 0x2
 6918 1637 91       		.byte	0x91
 6919 1638 50       		.sleb128 -48
 6920 1639 1A       		.uleb128 0x1a
 6921 163a 01       		.uleb128 0x1
 6922 163b 51       		.byte	0x51
 6923 163c 02       		.uleb128 0x2
 6924 163d 75       		.byte	0x75
 6925 163e 00       		.sleb128 0
 6926 163f 1A       		.uleb128 0x1a
 6927 1640 01       		.uleb128 0x1
 6928 1641 52       		.byte	0x52
 6929 1642 02       		.uleb128 0x2
 6930 1643 91       		.byte	0x91
 6931 1644 60       		.sleb128 -32
 6932 1645 00       		.byte	0
 6933 1646 20       		.uleb128 0x20
 6934 1647 26010000 		.4byte	.LVL280
 6935 164b FE0F0000 		.4byte	0xffe
 6936 164f 66160000 		.4byte	0x1666
 6937 1653 1A       		.uleb128 0x1a
 6938 1654 01       		.uleb128 0x1
 6939 1655 50       		.byte	0x50
 6940 1656 02       		.uleb128 0x2
 6941 1657 91       		.byte	0x91
 6942 1658 50       		.sleb128 -48
 6943 1659 1A       		.uleb128 0x1a
 6944 165a 01       		.uleb128 0x1
 6945 165b 51       		.byte	0x51
 6946 165c 02       		.uleb128 0x2
 6947 165d 75       		.byte	0x75
 6948 165e 00       		.sleb128 0
 6949 165f 1A       		.uleb128 0x1a
 6950 1660 01       		.uleb128 0x1
 6951 1661 52       		.byte	0x52
 6952 1662 02       		.uleb128 0x2
 6953 1663 74       		.byte	0x74
 6954 1664 00       		.sleb128 0
 6955 1665 00       		.byte	0
 6956 1666 20       		.uleb128 0x20
 6957 1667 40010000 		.4byte	.LVL283
 6958 166b AE240000 		.4byte	0x24ae
 6959 166f 7A160000 		.4byte	0x167a
 6960 1673 1A       		.uleb128 0x1a
 6961 1674 01       		.uleb128 0x1
 6962 1675 50       		.byte	0x50
 6963 1676 02       		.uleb128 0x2
 6964 1677 74       		.byte	0x74
ARM GAS  C:\Users\Phuong\AppData\Local\Temp\ccG6FMOL.s 			page 153


 6965 1678 00       		.sleb128 0
 6966 1679 00       		.byte	0
 6967 167a 20       		.uleb128 0x20
 6968 167b 6A010000 		.4byte	.LVL290
 6969 167f C6240000 		.4byte	0x24c6
 6970 1683 AD160000 		.4byte	0x16ad
 6971 1687 1A       		.uleb128 0x1a
 6972 1688 01       		.uleb128 0x1
 6973 1689 50       		.byte	0x50
 6974 168a 02       		.uleb128 0x2
 6975 168b 74       		.byte	0x74
 6976 168c 00       		.sleb128 0
 6977 168d 1A       		.uleb128 0x1a
 6978 168e 01       		.uleb128 0x1
 6979 168f 51       		.byte	0x51
 6980 1690 03       		.uleb128 0x3
 6981 1691 74       		.byte	0x74
 6982 1692 8801     		.sleb128 136
 6983 1694 1A       		.uleb128 0x1a
 6984 1695 01       		.uleb128 0x1
 6985 1696 52       		.byte	0x52
 6986 1697 02       		.uleb128 0x2
 6987 1698 76       		.byte	0x76
 6988 1699 00       		.sleb128 0
 6989 169a 1A       		.uleb128 0x1a
 6990 169b 01       		.uleb128 0x1
 6991 169c 53       		.byte	0x53
 6992 169d 02       		.uleb128 0x2
 6993 169e 74       		.byte	0x74
 6994 169f 28       		.sleb128 40
 6995 16a0 1A       		.uleb128 0x1a
 6996 16a1 02       		.uleb128 0x2
 6997 16a2 7D       		.byte	0x7d
 6998 16a3 00       		.sleb128 0
 6999 16a4 01       		.uleb128 0x1
 7000 16a5 30       		.byte	0x30
 7001 16a6 1A       		.uleb128 0x1a
 7002 16a7 02       		.uleb128 0x2
 7003 16a8 7D       		.byte	0x7d
 7004 16a9 04       		.sleb128 4
 7005 16aa 01       		.uleb128 0x1
 7006 16ab 30       		.byte	0x30
 7007 16ac 00       		.byte	0
 7008 16ad 20       		.uleb128 0x20
 7009 16ae 74010000 		.4byte	.LVL293
 7010 16b2 AE240000 		.4byte	0x24ae
 7011 16b6 C1160000 		.4byte	0x16c1
 7012 16ba 1A       		.uleb128 0x1a
 7013 16bb 01       		.uleb128 0x1
 7014 16bc 50       		.byte	0x50
 7015 16bd 02       		.uleb128 0x2
 7016 16be 74       		.byte	0x74
 7017 16bf 00       		.sleb128 0
 7018 16c0 00       		.byte	0
 7019 16c1 20       		.uleb128 0x20
 7020 16c2 82010000 		.4byte	.LVL296
 7021 16c6 D2240000 		.4byte	0x24d2
ARM GAS  C:\Users\Phuong\AppData\Local\Temp\ccG6FMOL.s 			page 154


 7022 16ca DB160000 		.4byte	0x16db
 7023 16ce 1A       		.uleb128 0x1a
 7024 16cf 01       		.uleb128 0x1
 7025 16d0 50       		.byte	0x50
 7026 16d1 02       		.uleb128 0x2
 7027 16d2 74       		.byte	0x74
 7028 16d3 00       		.sleb128 0
 7029 16d4 1A       		.uleb128 0x1a
 7030 16d5 01       		.uleb128 0x1
 7031 16d6 51       		.byte	0x51
 7032 16d7 02       		.uleb128 0x2
 7033 16d8 76       		.byte	0x76
 7034 16d9 00       		.sleb128 0
 7035 16da 00       		.byte	0
 7036 16db 19       		.uleb128 0x19
 7037 16dc 8C010000 		.4byte	.LVL299
 7038 16e0 AE240000 		.4byte	0x24ae
 7039 16e4 1A       		.uleb128 0x1a
 7040 16e5 01       		.uleb128 0x1
 7041 16e6 50       		.byte	0x50
 7042 16e7 02       		.uleb128 0x2
 7043 16e8 74       		.byte	0x74
 7044 16e9 00       		.sleb128 0
 7045 16ea 00       		.byte	0
 7046 16eb 00       		.byte	0
 7047 16ec 1B       		.uleb128 0x1b
 7048 16ed 98020000 		.4byte	.LASF170
 7049 16f1 01       		.byte	0x1
 7050 16f2 9F03     		.2byte	0x39f
 7051 16f4 68000000 		.4byte	0x68
 7052 16f8 00000000 		.4byte	.LFB22
 7053 16fc 28010000 		.4byte	.LFE22-.LFB22
 7054 1700 01       		.uleb128 0x1
 7055 1701 9C       		.byte	0x9c
 7056 1702 AC180000 		.4byte	0x18ac
 7057 1706 1C       		.uleb128 0x1c
 7058 1707 706B00   		.ascii	"pk\000"
 7059 170a 01       		.byte	0x1
 7060 170b A003     		.2byte	0x3a0
 7061 170d AC180000 		.4byte	0x18ac
 7062 1711 590C0000 		.4byte	.LLST45
 7063 1715 1C       		.uleb128 0x1c
 7064 1716 6B657900 		.ascii	"key\000"
 7065 171a 01       		.byte	0x1
 7066 171b A103     		.2byte	0x3a1
 7067 171d 6D040000 		.4byte	0x46d
 7068 1721 850C0000 		.4byte	.LLST46
 7069 1725 1D       		.uleb128 0x1d
 7070 1726 42090000 		.4byte	.LASF165
 7071 172a 01       		.byte	0x1
 7072 172b A203     		.2byte	0x3a2
 7073 172d 76000000 		.4byte	0x76
 7074 1731 BE0C0000 		.4byte	.LLST47
 7075 1735 1E       		.uleb128 0x1e
 7076 1736 72657400 		.ascii	"ret\000"
 7077 173a 01       		.byte	0x1
 7078 173b A403     		.2byte	0x3a4
ARM GAS  C:\Users\Phuong\AppData\Local\Temp\ccG6FMOL.s 			page 155


 7079 173d 68000000 		.4byte	0x68
 7080 1741 DF0C0000 		.4byte	.LLST48
 7081 1745 1F       		.uleb128 0x1f
 7082 1746 DD000000 		.4byte	.LASF166
 7083 174a 01       		.byte	0x1
 7084 174b A403     		.2byte	0x3a4
 7085 174d 68000000 		.4byte	0x68
 7086 1751 02       		.uleb128 0x2
 7087 1752 91       		.byte	0x91
 7088 1753 6C       		.sleb128 -20
 7089 1754 21       		.uleb128 0x21
 7090 1755 6C656E00 		.ascii	"len\000"
 7091 1759 01       		.byte	0x1
 7092 175a A503     		.2byte	0x3a5
 7093 175c 76000000 		.4byte	0x76
 7094 1760 02       		.uleb128 0x2
 7095 1761 91       		.byte	0x91
 7096 1762 68       		.sleb128 -24
 7097 1763 1F       		.uleb128 0x1f
 7098 1764 32000000 		.4byte	.LASF149
 7099 1768 01       		.byte	0x1
 7100 1769 A603     		.2byte	0x3a6
 7101 176b AD040000 		.4byte	0x4ad
 7102 176f 02       		.uleb128 0x2
 7103 1770 91       		.byte	0x91
 7104 1771 5C       		.sleb128 -36
 7105 1772 21       		.uleb128 0x21
 7106 1773 7000     		.ascii	"p\000"
 7107 1775 01       		.byte	0x1
 7108 1776 A703     		.2byte	0x3a7
 7109 1778 78040000 		.4byte	0x478
 7110 177c 02       		.uleb128 0x2
 7111 177d 91       		.byte	0x91
 7112 177e 58       		.sleb128 -40
 7113 177f 1E       		.uleb128 0x1e
 7114 1780 656E6400 		.ascii	"end\000"
 7115 1784 01       		.byte	0x1
 7116 1785 A803     		.2byte	0x3a8
 7117 1787 78040000 		.4byte	0x478
 7118 178b 810D0000 		.4byte	.LLST49
 7119 178f 1F       		.uleb128 0x1f
 7120 1790 DE0A0000 		.4byte	.LASF152
 7121 1794 01       		.byte	0x1
 7122 1795 A903     		.2byte	0x3a9
 7123 1797 17040000 		.4byte	0x417
 7124 179b 02       		.uleb128 0x2
 7125 179c 91       		.byte	0x91
 7126 179d 57       		.sleb128 -41
 7127 179e 26       		.uleb128 0x26
 7128 179f F80D0000 		.4byte	.LASF65
 7129 17a3 01       		.byte	0x1
 7130 17a4 AA03     		.2byte	0x3aa
 7131 17a6 57040000 		.4byte	0x457
 7132 17aa D20D0000 		.4byte	.LLST50
 7133 17ae 20       		.uleb128 0x20
 7134 17af 1C000000 		.4byte	.LVL313
 7135 17b3 7F230000 		.4byte	0x237f
ARM GAS  C:\Users\Phuong\AppData\Local\Temp\ccG6FMOL.s 			page 156


 7136 17b7 D9170000 		.4byte	0x17d9
 7137 17bb 1A       		.uleb128 0x1a
 7138 17bc 01       		.uleb128 0x1
 7139 17bd 50       		.byte	0x50
 7140 17be 02       		.uleb128 0x2
 7141 17bf 91       		.byte	0x91
 7142 17c0 58       		.sleb128 -40
 7143 17c1 1A       		.uleb128 0x1a
 7144 17c2 01       		.uleb128 0x1
 7145 17c3 51       		.byte	0x51
 7146 17c4 07       		.uleb128 0x7
 7147 17c5 F3       		.byte	0xf3
 7148 17c6 01       		.uleb128 0x1
 7149 17c7 51       		.byte	0x51
 7150 17c8 F3       		.byte	0xf3
 7151 17c9 01       		.uleb128 0x1
 7152 17ca 52       		.byte	0x52
 7153 17cb 22       		.byte	0x22
 7154 17cc 1A       		.uleb128 0x1a
 7155 17cd 01       		.uleb128 0x1
 7156 17ce 52       		.byte	0x52
 7157 17cf 02       		.uleb128 0x2
 7158 17d0 91       		.byte	0x91
 7159 17d1 68       		.sleb128 -24
 7160 17d2 1A       		.uleb128 0x1a
 7161 17d3 01       		.uleb128 0x1
 7162 17d4 53       		.byte	0x53
 7163 17d5 02       		.uleb128 0x2
 7164 17d6 08       		.byte	0x8
 7165 17d7 30       		.byte	0x30
 7166 17d8 00       		.byte	0
 7167 17d9 20       		.uleb128 0x20
 7168 17da 3A000000 		.4byte	.LVL316
 7169 17de CE230000 		.4byte	0x23ce
 7170 17e2 F9170000 		.4byte	0x17f9
 7171 17e6 1A       		.uleb128 0x1a
 7172 17e7 01       		.uleb128 0x1
 7173 17e8 50       		.byte	0x50
 7174 17e9 02       		.uleb128 0x2
 7175 17ea 91       		.byte	0x91
 7176 17eb 58       		.sleb128 -40
 7177 17ec 1A       		.uleb128 0x1a
 7178 17ed 01       		.uleb128 0x1
 7179 17ee 51       		.byte	0x51
 7180 17ef 02       		.uleb128 0x2
 7181 17f0 76       		.byte	0x76
 7182 17f1 00       		.sleb128 0
 7183 17f2 1A       		.uleb128 0x1a
 7184 17f3 01       		.uleb128 0x1
 7185 17f4 52       		.byte	0x52
 7186 17f5 02       		.uleb128 0x2
 7187 17f6 91       		.byte	0x91
 7188 17f7 6C       		.sleb128 -20
 7189 17f8 00       		.byte	0
 7190 17f9 20       		.uleb128 0x20
 7191 17fa 5E000000 		.4byte	.LVL318
 7192 17fe 92070000 		.4byte	0x792
ARM GAS  C:\Users\Phuong\AppData\Local\Temp\ccG6FMOL.s 			page 157


 7193 1802 1F180000 		.4byte	0x181f
 7194 1806 1A       		.uleb128 0x1a
 7195 1807 01       		.uleb128 0x1
 7196 1808 50       		.byte	0x50
 7197 1809 02       		.uleb128 0x2
 7198 180a 91       		.byte	0x91
 7199 180b 58       		.sleb128 -40
 7200 180c 1A       		.uleb128 0x1a
 7201 180d 01       		.uleb128 0x1
 7202 180e 51       		.byte	0x51
 7203 180f 02       		.uleb128 0x2
 7204 1810 76       		.byte	0x76
 7205 1811 00       		.sleb128 0
 7206 1812 1A       		.uleb128 0x1a
 7207 1813 01       		.uleb128 0x1
 7208 1814 52       		.byte	0x52
 7209 1815 02       		.uleb128 0x2
 7210 1816 91       		.byte	0x91
 7211 1817 57       		.sleb128 -41
 7212 1818 1A       		.uleb128 0x1a
 7213 1819 01       		.uleb128 0x1
 7214 181a 53       		.byte	0x53
 7215 181b 02       		.uleb128 0x2
 7216 181c 91       		.byte	0x91
 7217 181d 5C       		.sleb128 -36
 7218 181e 00       		.byte	0
 7219 181f 20       		.uleb128 0x20
 7220 1820 74000000 		.4byte	.LVL320
 7221 1824 7F230000 		.4byte	0x237f
 7222 1828 44180000 		.4byte	0x1844
 7223 182c 1A       		.uleb128 0x1a
 7224 182d 01       		.uleb128 0x1
 7225 182e 50       		.byte	0x50
 7226 182f 02       		.uleb128 0x2
 7227 1830 91       		.byte	0x91
 7228 1831 58       		.sleb128 -40
 7229 1832 1A       		.uleb128 0x1a
 7230 1833 01       		.uleb128 0x1
 7231 1834 51       		.byte	0x51
 7232 1835 02       		.uleb128 0x2
 7233 1836 76       		.byte	0x76
 7234 1837 00       		.sleb128 0
 7235 1838 1A       		.uleb128 0x1a
 7236 1839 01       		.uleb128 0x1
 7237 183a 52       		.byte	0x52
 7238 183b 02       		.uleb128 0x2
 7239 183c 91       		.byte	0x91
 7240 183d 68       		.sleb128 -24
 7241 183e 1A       		.uleb128 0x1a
 7242 183f 01       		.uleb128 0x1
 7243 1840 53       		.byte	0x53
 7244 1841 01       		.uleb128 0x1
 7245 1842 34       		.byte	0x34
 7246 1843 00       		.byte	0
 7247 1844 25       		.uleb128 0x25
 7248 1845 8E000000 		.4byte	.LVL322
 7249 1849 DE240000 		.4byte	0x24de
ARM GAS  C:\Users\Phuong\AppData\Local\Temp\ccG6FMOL.s 			page 158


 7250 184d 20       		.uleb128 0x20
 7251 184e 9A000000 		.4byte	.LVL324
 7252 1852 E9240000 		.4byte	0x24e9
 7253 1856 61180000 		.4byte	0x1861
 7254 185a 1A       		.uleb128 0x1a
 7255 185b 01       		.uleb128 0x1
 7256 185c 50       		.byte	0x50
 7257 185d 02       		.uleb128 0x2
 7258 185e 74       		.byte	0x74
 7259 185f 00       		.sleb128 0
 7260 1860 00       		.byte	0
 7261 1861 25       		.uleb128 0x25
 7262 1862 BA000000 		.4byte	.LVL326
 7263 1866 87100000 		.4byte	0x1087
 7264 186a 20       		.uleb128 0x20
 7265 186b C4000000 		.4byte	.LVL329
 7266 186f F4240000 		.4byte	0x24f4
 7267 1873 7E180000 		.4byte	0x187e
 7268 1877 1A       		.uleb128 0x1a
 7269 1878 01       		.uleb128 0x1
 7270 1879 50       		.byte	0x50
 7271 187a 02       		.uleb128 0x2
 7272 187b 74       		.byte	0x74
 7273 187c 00       		.sleb128 0
 7274 187d 00       		.byte	0
 7275 187e 20       		.uleb128 0x20
 7276 187f E0000000 		.4byte	.LVL332
 7277 1883 650F0000 		.4byte	0xf65
 7278 1887 92180000 		.4byte	0x1892
 7279 188b 1A       		.uleb128 0x1a
 7280 188c 01       		.uleb128 0x1
 7281 188d 50       		.byte	0x50
 7282 188e 02       		.uleb128 0x2
 7283 188f 91       		.byte	0x91
 7284 1890 5C       		.sleb128 -36
 7285 1891 00       		.byte	0
 7286 1892 25       		.uleb128 0x25
 7287 1893 F6000000 		.4byte	.LVL335
 7288 1897 27140000 		.4byte	0x1427
 7289 189b 19       		.uleb128 0x19
 7290 189c 00010000 		.4byte	.LVL338
 7291 18a0 F4240000 		.4byte	0x24f4
 7292 18a4 1A       		.uleb128 0x1a
 7293 18a5 01       		.uleb128 0x1
 7294 18a6 50       		.byte	0x50
 7295 18a7 02       		.uleb128 0x2
 7296 18a8 74       		.byte	0x74
 7297 18a9 00       		.sleb128 0
 7298 18aa 00       		.byte	0
 7299 18ab 00       		.byte	0
 7300 18ac 0A       		.uleb128 0xa
 7301 18ad 04       		.byte	0x4
 7302 18ae 62040000 		.4byte	0x462
 7303 18b2 1B       		.uleb128 0x1b
 7304 18b3 FA0E0000 		.4byte	.LASF171
 7305 18b7 01       		.byte	0x1
 7306 18b8 FE03     		.2byte	0x3fe
ARM GAS  C:\Users\Phuong\AppData\Local\Temp\ccG6FMOL.s 			page 159


 7307 18ba 68000000 		.4byte	0x68
 7308 18be 00000000 		.4byte	.LFB23
 7309 18c2 74010000 		.4byte	.LFE23-.LFB23
 7310 18c6 01       		.uleb128 0x1
 7311 18c7 9C       		.byte	0x9c
 7312 18c8 221B0000 		.4byte	0x1b22
 7313 18cc 1C       		.uleb128 0x1c
 7314 18cd 706B00   		.ascii	"pk\000"
 7315 18d0 01       		.byte	0x1
 7316 18d1 FF03     		.2byte	0x3ff
 7317 18d3 AC180000 		.4byte	0x18ac
 7318 18d7 FB0D0000 		.4byte	.LLST51
 7319 18db 1C       		.uleb128 0x1c
 7320 18dc 6B657900 		.ascii	"key\000"
 7321 18e0 01       		.byte	0x1
 7322 18e1 0004     		.2byte	0x400
 7323 18e3 78040000 		.4byte	0x478
 7324 18e7 3D0E0000 		.4byte	.LLST52
 7325 18eb 1D       		.uleb128 0x1d
 7326 18ec 42090000 		.4byte	.LASF165
 7327 18f0 01       		.byte	0x1
 7328 18f1 0004     		.2byte	0x400
 7329 18f3 76000000 		.4byte	0x76
 7330 18f7 900E0000 		.4byte	.LLST53
 7331 18fb 1C       		.uleb128 0x1c
 7332 18fc 70776400 		.ascii	"pwd\000"
 7333 1900 01       		.byte	0x1
 7334 1901 0104     		.2byte	0x401
 7335 1903 6D040000 		.4byte	0x46d
 7336 1907 CA0E0000 		.4byte	.LLST54
 7337 190b 27       		.uleb128 0x27
 7338 190c 40010000 		.4byte	.LASF172
 7339 1910 01       		.byte	0x1
 7340 1911 0104     		.2byte	0x401
 7341 1913 76000000 		.4byte	0x76
 7342 1917 02       		.uleb128 0x2
 7343 1918 91       		.byte	0x91
 7344 1919 00       		.sleb128 0
 7345 191a 1E       		.uleb128 0x1e
 7346 191b 72657400 		.ascii	"ret\000"
 7347 191f 01       		.byte	0x1
 7348 1920 0304     		.2byte	0x403
 7349 1922 68000000 		.4byte	0x68
 7350 1926 F60E0000 		.4byte	.LLST55
 7351 192a 26       		.uleb128 0x26
 7352 192b 520F0000 		.4byte	.LASF173
 7353 192f 01       		.byte	0x1
 7354 1930 0304     		.2byte	0x403
 7355 1932 68000000 		.4byte	0x68
 7356 1936 AF0F0000 		.4byte	.LLST56
 7357 193a 21       		.uleb128 0x21
 7358 193b 6C656E00 		.ascii	"len\000"
 7359 193f 01       		.byte	0x1
 7360 1940 0404     		.2byte	0x404
 7361 1942 76000000 		.4byte	0x76
 7362 1946 02       		.uleb128 0x2
 7363 1947 91       		.byte	0x91
ARM GAS  C:\Users\Phuong\AppData\Local\Temp\ccG6FMOL.s 			page 160


 7364 1948 64       		.sleb128 -28
 7365 1949 1E       		.uleb128 0x1e
 7366 194a 62756600 		.ascii	"buf\000"
 7367 194e 01       		.byte	0x1
 7368 194f 0504     		.2byte	0x405
 7369 1951 78040000 		.4byte	0x478
 7370 1955 E50F0000 		.4byte	.LLST57
 7371 1959 21       		.uleb128 0x21
 7372 195a 7000     		.ascii	"p\000"
 7373 195c 01       		.byte	0x1
 7374 195d 0604     		.2byte	0x406
 7375 195f 78040000 		.4byte	0x478
 7376 1963 02       		.uleb128 0x2
 7377 1964 91       		.byte	0x91
 7378 1965 60       		.sleb128 -32
 7379 1966 1E       		.uleb128 0x1e
 7380 1967 656E6400 		.ascii	"end\000"
 7381 196b 01       		.byte	0x1
 7382 196c 0604     		.2byte	0x406
 7383 196e 78040000 		.4byte	0x478
 7384 1972 03100000 		.4byte	.LLST58
 7385 1976 1F       		.uleb128 0x1f
 7386 1977 6D030000 		.4byte	.LASF174
 7387 197b 01       		.byte	0x1
 7388 197c 0704     		.2byte	0x407
 7389 197e AD040000 		.4byte	0x4ad
 7390 1982 02       		.uleb128 0x2
 7391 1983 91       		.byte	0x91
 7392 1984 54       		.sleb128 -44
 7393 1985 1F       		.uleb128 0x1f
 7394 1986 E5000000 		.4byte	.LASF175
 7395 198a 01       		.byte	0x1
 7396 198b 0704     		.2byte	0x407
 7397 198d AD040000 		.4byte	0x4ad
 7398 1991 02       		.uleb128 0x2
 7399 1992 91       		.byte	0x91
 7400 1993 48       		.sleb128 -56
 7401 1994 1F       		.uleb128 0x1f
 7402 1995 6C090000 		.4byte	.LASF176
 7403 1999 01       		.byte	0x1
 7404 199a 0904     		.2byte	0x409
 7405 199c 81060000 		.4byte	0x681
 7406 19a0 02       		.uleb128 0x2
 7407 19a1 91       		.byte	0x91
 7408 19a2 47       		.sleb128 -57
 7409 19a3 1F       		.uleb128 0x1f
 7410 19a4 24060000 		.4byte	.LASF177
 7411 19a8 01       		.byte	0x1
 7412 19a9 0A04     		.2byte	0x40a
 7413 19ab D1000000 		.4byte	0xd1
 7414 19af 02       		.uleb128 0x2
 7415 19b0 91       		.byte	0x91
 7416 19b1 46       		.sleb128 -58
 7417 19b2 20       		.uleb128 0x20
 7418 19b3 1E000000 		.4byte	.LVL350
 7419 19b7 7F230000 		.4byte	0x237f
 7420 19bb DD190000 		.4byte	0x19dd
ARM GAS  C:\Users\Phuong\AppData\Local\Temp\ccG6FMOL.s 			page 161


 7421 19bf 1A       		.uleb128 0x1a
 7422 19c0 01       		.uleb128 0x1
 7423 19c1 50       		.byte	0x50
 7424 19c2 02       		.uleb128 0x2
 7425 19c3 91       		.byte	0x91
 7426 19c4 60       		.sleb128 -32
 7427 19c5 1A       		.uleb128 0x1a
 7428 19c6 01       		.uleb128 0x1
 7429 19c7 51       		.byte	0x51
 7430 19c8 07       		.uleb128 0x7
 7431 19c9 F3       		.byte	0xf3
 7432 19ca 01       		.uleb128 0x1
 7433 19cb 51       		.byte	0x51
 7434 19cc F3       		.byte	0xf3
 7435 19cd 01       		.uleb128 0x1
 7436 19ce 52       		.byte	0x52
 7437 19cf 22       		.byte	0x22
 7438 19d0 1A       		.uleb128 0x1a
 7439 19d1 01       		.uleb128 0x1
 7440 19d2 52       		.byte	0x52
 7441 19d3 02       		.uleb128 0x2
 7442 19d4 91       		.byte	0x91
 7443 19d5 64       		.sleb128 -28
 7444 19d6 1A       		.uleb128 0x1a
 7445 19d7 01       		.uleb128 0x1
 7446 19d8 53       		.byte	0x53
 7447 19d9 02       		.uleb128 0x2
 7448 19da 08       		.byte	0x8
 7449 19db 30       		.byte	0x30
 7450 19dc 00       		.byte	0
 7451 19dd 20       		.uleb128 0x20
 7452 19de 40000000 		.4byte	.LVL356
 7453 19e2 93230000 		.4byte	0x2393
 7454 19e6 031A0000 		.4byte	0x1a03
 7455 19ea 1A       		.uleb128 0x1a
 7456 19eb 01       		.uleb128 0x1
 7457 19ec 50       		.byte	0x50
 7458 19ed 02       		.uleb128 0x2
 7459 19ee 91       		.byte	0x91
 7460 19ef 60       		.sleb128 -32
 7461 19f0 1A       		.uleb128 0x1a
 7462 19f1 01       		.uleb128 0x1
 7463 19f2 51       		.byte	0x51
 7464 19f3 02       		.uleb128 0x2
 7465 19f4 76       		.byte	0x76
 7466 19f5 00       		.sleb128 0
 7467 19f6 1A       		.uleb128 0x1a
 7468 19f7 01       		.uleb128 0x1
 7469 19f8 52       		.byte	0x52
 7470 19f9 02       		.uleb128 0x2
 7471 19fa 91       		.byte	0x91
 7472 19fb 54       		.sleb128 -44
 7473 19fc 1A       		.uleb128 0x1a
 7474 19fd 01       		.uleb128 0x1
 7475 19fe 53       		.byte	0x53
 7476 19ff 02       		.uleb128 0x2
 7477 1a00 91       		.byte	0x91
ARM GAS  C:\Users\Phuong\AppData\Local\Temp\ccG6FMOL.s 			page 162


 7478 1a01 48       		.sleb128 -56
 7479 1a02 00       		.byte	0
 7480 1a03 20       		.uleb128 0x20
 7481 1a04 58000000 		.4byte	.LVL360
 7482 1a08 7F230000 		.4byte	0x237f
 7483 1a0c 281A0000 		.4byte	0x1a28
 7484 1a10 1A       		.uleb128 0x1a
 7485 1a11 01       		.uleb128 0x1
 7486 1a12 50       		.byte	0x50
 7487 1a13 02       		.uleb128 0x2
 7488 1a14 91       		.byte	0x91
 7489 1a15 60       		.sleb128 -32
 7490 1a16 1A       		.uleb128 0x1a
 7491 1a17 01       		.uleb128 0x1
 7492 1a18 51       		.byte	0x51
 7493 1a19 02       		.uleb128 0x2
 7494 1a1a 76       		.byte	0x76
 7495 1a1b 00       		.sleb128 0
 7496 1a1c 1A       		.uleb128 0x1a
 7497 1a1d 01       		.uleb128 0x1
 7498 1a1e 52       		.byte	0x52
 7499 1a1f 02       		.uleb128 0x2
 7500 1a20 91       		.byte	0x91
 7501 1a21 64       		.sleb128 -28
 7502 1a22 1A       		.uleb128 0x1a
 7503 1a23 01       		.uleb128 0x1
 7504 1a24 53       		.byte	0x53
 7505 1a25 01       		.uleb128 0x1
 7506 1a26 34       		.byte	0x34
 7507 1a27 00       		.byte	0
 7508 1a28 20       		.uleb128 0x20
 7509 1a29 74000000 		.4byte	.LVL365
 7510 1a2d FF240000 		.4byte	0x24ff
 7511 1a31 481A0000 		.4byte	0x1a48
 7512 1a35 1A       		.uleb128 0x1a
 7513 1a36 01       		.uleb128 0x1
 7514 1a37 50       		.byte	0x50
 7515 1a38 02       		.uleb128 0x2
 7516 1a39 91       		.byte	0x91
 7517 1a3a 54       		.sleb128 -44
 7518 1a3b 1A       		.uleb128 0x1a
 7519 1a3c 01       		.uleb128 0x1
 7520 1a3d 51       		.byte	0x51
 7521 1a3e 02       		.uleb128 0x2
 7522 1a3f 91       		.byte	0x91
 7523 1a40 46       		.sleb128 -58
 7524 1a41 1A       		.uleb128 0x1a
 7525 1a42 01       		.uleb128 0x1
 7526 1a43 52       		.byte	0x52
 7527 1a44 02       		.uleb128 0x2
 7528 1a45 91       		.byte	0x91
 7529 1a46 47       		.sleb128 -57
 7530 1a47 00       		.byte	0
 7531 1a48 20       		.uleb128 0x20
 7532 1a49 9C000000 		.4byte	.LVL366
 7533 1a4d 0B250000 		.4byte	0x250b
 7534 1a51 771A0000 		.4byte	0x1a77
ARM GAS  C:\Users\Phuong\AppData\Local\Temp\ccG6FMOL.s 			page 163


 7535 1a55 1A       		.uleb128 0x1a
 7536 1a56 01       		.uleb128 0x1
 7537 1a57 50       		.byte	0x50
 7538 1a58 02       		.uleb128 0x2
 7539 1a59 91       		.byte	0x91
 7540 1a5a 48       		.sleb128 -56
 7541 1a5b 1A       		.uleb128 0x1a
 7542 1a5c 01       		.uleb128 0x1
 7543 1a5d 51       		.byte	0x51
 7544 1a5e 01       		.uleb128 0x1
 7545 1a5f 30       		.byte	0x30
 7546 1a60 1A       		.uleb128 0x1a
 7547 1a61 02       		.uleb128 0x2
 7548 1a62 7D       		.byte	0x7d
 7549 1a63 00       		.sleb128 0
 7550 1a64 02       		.uleb128 0x2
 7551 1a65 75       		.byte	0x75
 7552 1a66 00       		.sleb128 0
 7553 1a67 1A       		.uleb128 0x1a
 7554 1a68 02       		.uleb128 0x2
 7555 1a69 7D       		.byte	0x7d
 7556 1a6a 04       		.sleb128 4
 7557 1a6b 03       		.uleb128 0x3
 7558 1a6c 91       		.byte	0x91
 7559 1a6d 00       		.sleb128 0
 7560 1a6e 06       		.byte	0x6
 7561 1a6f 1A       		.uleb128 0x1a
 7562 1a70 02       		.uleb128 0x2
 7563 1a71 7D       		.byte	0x7d
 7564 1a72 10       		.sleb128 16
 7565 1a73 02       		.uleb128 0x2
 7566 1a74 76       		.byte	0x76
 7567 1a75 00       		.sleb128 0
 7568 1a76 00       		.byte	0
 7569 1a77 20       		.uleb128 0x20
 7570 1a78 BA000000 		.4byte	.LVL368
 7571 1a7c D9230000 		.4byte	0x23d9
 7572 1a80 941A0000 		.4byte	0x1a94
 7573 1a84 1A       		.uleb128 0x1a
 7574 1a85 01       		.uleb128 0x1
 7575 1a86 50       		.byte	0x50
 7576 1a87 05       		.uleb128 0x5
 7577 1a88 03       		.byte	0x3
 7578 1a89 08000000 		.4byte	.LC2
 7579 1a8d 1A       		.uleb128 0x1a
 7580 1a8e 01       		.uleb128 0x1
 7581 1a8f 52       		.byte	0x52
 7582 1a90 02       		.uleb128 0x2
 7583 1a91 77       		.byte	0x77
 7584 1a92 00       		.sleb128 0
 7585 1a93 00       		.byte	0
 7586 1a94 20       		.uleb128 0x20
 7587 1a95 DE000000 		.4byte	.LVL369
 7588 1a99 16250000 		.4byte	0x2516
 7589 1a9d C11A0000 		.4byte	0x1ac1
 7590 1aa1 1A       		.uleb128 0x1a
 7591 1aa2 01       		.uleb128 0x1
ARM GAS  C:\Users\Phuong\AppData\Local\Temp\ccG6FMOL.s 			page 164


 7592 1aa3 50       		.byte	0x50
 7593 1aa4 02       		.uleb128 0x2
 7594 1aa5 91       		.byte	0x91
 7595 1aa6 48       		.sleb128 -56
 7596 1aa7 1A       		.uleb128 0x1a
 7597 1aa8 01       		.uleb128 0x1
 7598 1aa9 51       		.byte	0x51
 7599 1aaa 01       		.uleb128 0x1
 7600 1aab 30       		.byte	0x30
 7601 1aac 1A       		.uleb128 0x1a
 7602 1aad 01       		.uleb128 0x1
 7603 1aae 52       		.byte	0x52
 7604 1aaf 02       		.uleb128 0x2
 7605 1ab0 75       		.byte	0x75
 7606 1ab1 00       		.sleb128 0
 7607 1ab2 1A       		.uleb128 0x1a
 7608 1ab3 01       		.uleb128 0x1
 7609 1ab4 53       		.byte	0x53
 7610 1ab5 03       		.uleb128 0x3
 7611 1ab6 91       		.byte	0x91
 7612 1ab7 00       		.sleb128 0
 7613 1ab8 06       		.byte	0x6
 7614 1ab9 1A       		.uleb128 0x1a
 7615 1aba 02       		.uleb128 0x2
 7616 1abb 7D       		.byte	0x7d
 7617 1abc 08       		.sleb128 8
 7618 1abd 02       		.uleb128 0x2
 7619 1abe 76       		.byte	0x76
 7620 1abf 00       		.sleb128 0
 7621 1ac0 00       		.byte	0
 7622 1ac1 20       		.uleb128 0x20
 7623 1ac2 FA000000 		.4byte	.LVL371
 7624 1ac6 D9230000 		.4byte	0x23d9
 7625 1aca DE1A0000 		.4byte	0x1ade
 7626 1ace 1A       		.uleb128 0x1a
 7627 1acf 01       		.uleb128 0x1
 7628 1ad0 50       		.byte	0x50
 7629 1ad1 05       		.uleb128 0x5
 7630 1ad2 03       		.byte	0x3
 7631 1ad3 14000000 		.4byte	.LC4
 7632 1ad7 1A       		.uleb128 0x1a
 7633 1ad8 01       		.uleb128 0x1
 7634 1ad9 52       		.byte	0x52
 7635 1ada 02       		.uleb128 0x2
 7636 1adb 77       		.byte	0x77
 7637 1adc 00       		.sleb128 0
 7638 1add 00       		.byte	0
 7639 1ade 20       		.uleb128 0x20
 7640 1adf 1E010000 		.4byte	.LVL372
 7641 1ae3 21250000 		.4byte	0x2521
 7642 1ae7 0B1B0000 		.4byte	0x1b0b
 7643 1aeb 1A       		.uleb128 0x1a
 7644 1aec 01       		.uleb128 0x1
 7645 1aed 50       		.byte	0x50
 7646 1aee 02       		.uleb128 0x2
 7647 1aef 91       		.byte	0x91
 7648 1af0 48       		.sleb128 -56
ARM GAS  C:\Users\Phuong\AppData\Local\Temp\ccG6FMOL.s 			page 165


 7649 1af1 1A       		.uleb128 0x1a
 7650 1af2 01       		.uleb128 0x1
 7651 1af3 51       		.byte	0x51
 7652 1af4 01       		.uleb128 0x1
 7653 1af5 30       		.byte	0x30
 7654 1af6 1A       		.uleb128 0x1a
 7655 1af7 01       		.uleb128 0x1
 7656 1af8 52       		.byte	0x52
 7657 1af9 02       		.uleb128 0x2
 7658 1afa 75       		.byte	0x75
 7659 1afb 00       		.sleb128 0
 7660 1afc 1A       		.uleb128 0x1a
 7661 1afd 01       		.uleb128 0x1
 7662 1afe 53       		.byte	0x53
 7663 1aff 03       		.uleb128 0x3
 7664 1b00 91       		.byte	0x91
 7665 1b01 00       		.sleb128 0
 7666 1b02 06       		.byte	0x6
 7667 1b03 1A       		.uleb128 0x1a
 7668 1b04 02       		.uleb128 0x2
 7669 1b05 7D       		.byte	0x7d
 7670 1b06 08       		.sleb128 8
 7671 1b07 02       		.uleb128 0x2
 7672 1b08 76       		.byte	0x76
 7673 1b09 00       		.sleb128 0
 7674 1b0a 00       		.byte	0
 7675 1b0b 19       		.uleb128 0x19
 7676 1b0c 44010000 		.4byte	.LVL378
 7677 1b10 EC160000 		.4byte	0x16ec
 7678 1b14 1A       		.uleb128 0x1a
 7679 1b15 01       		.uleb128 0x1
 7680 1b16 50       		.byte	0x50
 7681 1b17 02       		.uleb128 0x2
 7682 1b18 74       		.byte	0x74
 7683 1b19 00       		.sleb128 0
 7684 1b1a 1A       		.uleb128 0x1a
 7685 1b1b 01       		.uleb128 0x1
 7686 1b1c 51       		.byte	0x51
 7687 1b1d 02       		.uleb128 0x2
 7688 1b1e 76       		.byte	0x76
 7689 1b1f 00       		.sleb128 0
 7690 1b20 00       		.byte	0
 7691 1b21 00       		.byte	0
 7692 1b22 28       		.uleb128 0x28
 7693 1b23 DC090000 		.4byte	.LASF179
 7694 1b27 01       		.byte	0x1
 7695 1b28 5702     		.2byte	0x257
 7696 1b2a 68000000 		.4byte	0x68
 7697 1b2e 00000000 		.4byte	.LFB19
 7698 1b32 08010000 		.4byte	.LFE19-.LFB19
 7699 1b36 01       		.uleb128 0x1
 7700 1b37 9C       		.byte	0x9c
 7701 1b38 991C0000 		.4byte	0x1c99
 7702 1b3c 1C       		.uleb128 0x1c
 7703 1b3d 7000     		.ascii	"p\000"
 7704 1b3f 01       		.byte	0x1
 7705 1b40 5702     		.2byte	0x257
ARM GAS  C:\Users\Phuong\AppData\Local\Temp\ccG6FMOL.s 			page 166


 7706 1b42 86070000 		.4byte	0x786
 7707 1b46 49100000 		.4byte	.LLST59
 7708 1b4a 1C       		.uleb128 0x1c
 7709 1b4b 656E6400 		.ascii	"end\000"
 7710 1b4f 01       		.byte	0x1
 7711 1b50 5702     		.2byte	0x257
 7712 1b52 6D040000 		.4byte	0x46d
 7713 1b56 75100000 		.4byte	.LLST60
 7714 1b5a 1C       		.uleb128 0x1c
 7715 1b5b 706B00   		.ascii	"pk\000"
 7716 1b5e 01       		.byte	0x1
 7717 1b5f 5802     		.2byte	0x258
 7718 1b61 AC180000 		.4byte	0x18ac
 7719 1b65 AC100000 		.4byte	.LLST61
 7720 1b69 1E       		.uleb128 0x1e
 7721 1b6a 72657400 		.ascii	"ret\000"
 7722 1b6e 01       		.byte	0x1
 7723 1b6f 5A02     		.2byte	0x25a
 7724 1b71 68000000 		.4byte	0x68
 7725 1b75 D8100000 		.4byte	.LLST62
 7726 1b79 21       		.uleb128 0x21
 7727 1b7a 6C656E00 		.ascii	"len\000"
 7728 1b7e 01       		.byte	0x1
 7729 1b7f 5B02     		.2byte	0x25b
 7730 1b81 76000000 		.4byte	0x76
 7731 1b85 02       		.uleb128 0x2
 7732 1b86 91       		.byte	0x91
 7733 1b87 64       		.sleb128 -28
 7734 1b88 1F       		.uleb128 0x1f
 7735 1b89 2F020000 		.4byte	.LASF178
 7736 1b8d 01       		.byte	0x1
 7737 1b8e 5C02     		.2byte	0x25c
 7738 1b90 AD040000 		.4byte	0x4ad
 7739 1b94 02       		.uleb128 0x2
 7740 1b95 91       		.byte	0x91
 7741 1b96 58       		.sleb128 -40
 7742 1b97 1F       		.uleb128 0x1f
 7743 1b98 DE0A0000 		.4byte	.LASF152
 7744 1b9c 01       		.byte	0x1
 7745 1b9d 5D02     		.2byte	0x25d
 7746 1b9f 17040000 		.4byte	0x417
 7747 1ba3 02       		.uleb128 0x2
 7748 1ba4 91       		.byte	0x91
 7749 1ba5 57       		.sleb128 -41
 7750 1ba6 26       		.uleb128 0x26
 7751 1ba7 F80D0000 		.4byte	.LASF65
 7752 1bab 01       		.byte	0x1
 7753 1bac 5E02     		.2byte	0x25e
 7754 1bae 57040000 		.4byte	0x457
 7755 1bb2 8D110000 		.4byte	.LLST63
 7756 1bb6 20       		.uleb128 0x20
 7757 1bb7 18000000 		.4byte	.LVL389
 7758 1bbb 7F230000 		.4byte	0x237f
 7759 1bbf DD1B0000 		.4byte	0x1bdd
 7760 1bc3 1A       		.uleb128 0x1a
 7761 1bc4 01       		.uleb128 0x1
 7762 1bc5 50       		.byte	0x50
ARM GAS  C:\Users\Phuong\AppData\Local\Temp\ccG6FMOL.s 			page 167


 7763 1bc6 02       		.uleb128 0x2
 7764 1bc7 76       		.byte	0x76
 7765 1bc8 00       		.sleb128 0
 7766 1bc9 1A       		.uleb128 0x1a
 7767 1bca 01       		.uleb128 0x1
 7768 1bcb 51       		.byte	0x51
 7769 1bcc 03       		.uleb128 0x3
 7770 1bcd F3       		.byte	0xf3
 7771 1bce 01       		.uleb128 0x1
 7772 1bcf 51       		.byte	0x51
 7773 1bd0 1A       		.uleb128 0x1a
 7774 1bd1 01       		.uleb128 0x1
 7775 1bd2 52       		.byte	0x52
 7776 1bd3 02       		.uleb128 0x2
 7777 1bd4 91       		.byte	0x91
 7778 1bd5 64       		.sleb128 -28
 7779 1bd6 1A       		.uleb128 0x1a
 7780 1bd7 01       		.uleb128 0x1
 7781 1bd8 53       		.byte	0x53
 7782 1bd9 02       		.uleb128 0x2
 7783 1bda 08       		.byte	0x8
 7784 1bdb 30       		.byte	0x30
 7785 1bdc 00       		.byte	0
 7786 1bdd 20       		.uleb128 0x20
 7787 1bde 3C000000 		.4byte	.LVL395
 7788 1be2 92070000 		.4byte	0x792
 7789 1be6 031C0000 		.4byte	0x1c03
 7790 1bea 1A       		.uleb128 0x1a
 7791 1beb 01       		.uleb128 0x1
 7792 1bec 50       		.byte	0x50
 7793 1bed 02       		.uleb128 0x2
 7794 1bee 76       		.byte	0x76
 7795 1bef 00       		.sleb128 0
 7796 1bf0 1A       		.uleb128 0x1a
 7797 1bf1 01       		.uleb128 0x1
 7798 1bf2 51       		.byte	0x51
 7799 1bf3 02       		.uleb128 0x2
 7800 1bf4 77       		.byte	0x77
 7801 1bf5 00       		.sleb128 0
 7802 1bf6 1A       		.uleb128 0x1a
 7803 1bf7 01       		.uleb128 0x1
 7804 1bf8 52       		.byte	0x52
 7805 1bf9 02       		.uleb128 0x2
 7806 1bfa 91       		.byte	0x91
 7807 1bfb 57       		.sleb128 -41
 7808 1bfc 1A       		.uleb128 0x1a
 7809 1bfd 01       		.uleb128 0x1
 7810 1bfe 53       		.byte	0x53
 7811 1bff 02       		.uleb128 0x2
 7812 1c00 91       		.byte	0x91
 7813 1c01 58       		.sleb128 -40
 7814 1c02 00       		.byte	0
 7815 1c03 20       		.uleb128 0x20
 7816 1c04 4A000000 		.4byte	.LVL397
 7817 1c08 BA240000 		.4byte	0x24ba
 7818 1c0c 231C0000 		.4byte	0x1c23
 7819 1c10 1A       		.uleb128 0x1a
ARM GAS  C:\Users\Phuong\AppData\Local\Temp\ccG6FMOL.s 			page 168


 7820 1c11 01       		.uleb128 0x1
 7821 1c12 50       		.byte	0x50
 7822 1c13 02       		.uleb128 0x2
 7823 1c14 76       		.byte	0x76
 7824 1c15 00       		.sleb128 0
 7825 1c16 1A       		.uleb128 0x1a
 7826 1c17 01       		.uleb128 0x1
 7827 1c18 51       		.byte	0x51
 7828 1c19 02       		.uleb128 0x2
 7829 1c1a 77       		.byte	0x77
 7830 1c1b 00       		.sleb128 0
 7831 1c1c 1A       		.uleb128 0x1a
 7832 1c1d 01       		.uleb128 0x1
 7833 1c1e 52       		.byte	0x52
 7834 1c1f 02       		.uleb128 0x2
 7835 1c20 91       		.byte	0x91
 7836 1c21 64       		.sleb128 -28
 7837 1c22 00       		.byte	0
 7838 1c23 25       		.uleb128 0x25
 7839 1c24 6C000000 		.4byte	.LVL401
 7840 1c28 DE240000 		.4byte	0x24de
 7841 1c2c 20       		.uleb128 0x20
 7842 1c2d 78000000 		.4byte	.LVL403
 7843 1c31 E9240000 		.4byte	0x24e9
 7844 1c35 401C0000 		.4byte	0x1c40
 7845 1c39 1A       		.uleb128 0x1a
 7846 1c3a 01       		.uleb128 0x1
 7847 1c3b 50       		.byte	0x50
 7848 1c3c 02       		.uleb128 0x2
 7849 1c3d 74       		.byte	0x74
 7850 1c3e 00       		.sleb128 0
 7851 1c3f 00       		.byte	0
 7852 1c40 20       		.uleb128 0x20
 7853 1c41 98000000 		.4byte	.LVL405
 7854 1c45 6A080000 		.4byte	0x86a
 7855 1c49 5A1C0000 		.4byte	0x1c5a
 7856 1c4d 1A       		.uleb128 0x1a
 7857 1c4e 01       		.uleb128 0x1
 7858 1c4f 50       		.byte	0x50
 7859 1c50 02       		.uleb128 0x2
 7860 1c51 76       		.byte	0x76
 7861 1c52 00       		.sleb128 0
 7862 1c53 1A       		.uleb128 0x1a
 7863 1c54 01       		.uleb128 0x1
 7864 1c55 51       		.byte	0x51
 7865 1c56 02       		.uleb128 0x2
 7866 1c57 77       		.byte	0x77
 7867 1c58 00       		.sleb128 0
 7868 1c59 00       		.byte	0
 7869 1c5a 20       		.uleb128 0x20
 7870 1c5b B4000000 		.4byte	.LVL408
 7871 1c5f 650F0000 		.4byte	0xf65
 7872 1c63 6E1C0000 		.4byte	0x1c6e
 7873 1c67 1A       		.uleb128 0x1a
 7874 1c68 01       		.uleb128 0x1
 7875 1c69 50       		.byte	0x50
 7876 1c6a 02       		.uleb128 0x2
ARM GAS  C:\Users\Phuong\AppData\Local\Temp\ccG6FMOL.s 			page 169


 7877 1c6b 91       		.byte	0x91
 7878 1c6c 58       		.sleb128 -40
 7879 1c6d 00       		.byte	0
 7880 1c6e 20       		.uleb128 0x20
 7881 1c6f CA000000 		.4byte	.LVL411
 7882 1c73 FE0F0000 		.4byte	0xffe
 7883 1c77 881C0000 		.4byte	0x1c88
 7884 1c7b 1A       		.uleb128 0x1a
 7885 1c7c 01       		.uleb128 0x1
 7886 1c7d 50       		.byte	0x50
 7887 1c7e 02       		.uleb128 0x2
 7888 1c7f 76       		.byte	0x76
 7889 1c80 00       		.sleb128 0
 7890 1c81 1A       		.uleb128 0x1a
 7891 1c82 01       		.uleb128 0x1
 7892 1c83 51       		.byte	0x51
 7893 1c84 02       		.uleb128 0x2
 7894 1c85 77       		.byte	0x77
 7895 1c86 00       		.sleb128 0
 7896 1c87 00       		.byte	0
 7897 1c88 19       		.uleb128 0x19
 7898 1c89 E6000000 		.4byte	.LVL415
 7899 1c8d F4240000 		.4byte	0x24f4
 7900 1c91 1A       		.uleb128 0x1a
 7901 1c92 01       		.uleb128 0x1
 7902 1c93 50       		.byte	0x50
 7903 1c94 02       		.uleb128 0x2
 7904 1c95 74       		.byte	0x74
 7905 1c96 00       		.sleb128 0
 7906 1c97 00       		.byte	0
 7907 1c98 00       		.byte	0
 7908 1c99 28       		.uleb128 0x28
 7909 1c9a 9C100000 		.4byte	.LASF180
 7910 1c9e 01       		.byte	0x1
 7911 1c9f 7604     		.2byte	0x476
 7912 1ca1 68000000 		.4byte	0x68
 7913 1ca5 00000000 		.4byte	.LFB24
 7914 1ca9 D4020000 		.4byte	.LFE24-.LFB24
 7915 1cad 01       		.uleb128 0x1
 7916 1cae 9C       		.byte	0x9c
 7917 1caf 19210000 		.4byte	0x2119
 7918 1cb3 1C       		.uleb128 0x1c
 7919 1cb4 706B00   		.ascii	"pk\000"
 7920 1cb7 01       		.byte	0x1
 7921 1cb8 7604     		.2byte	0x476
 7922 1cba AC180000 		.4byte	0x18ac
 7923 1cbe B6110000 		.4byte	.LLST64
 7924 1cc2 1C       		.uleb128 0x1c
 7925 1cc3 6B657900 		.ascii	"key\000"
 7926 1cc7 01       		.byte	0x1
 7927 1cc8 7704     		.2byte	0x477
 7928 1cca 6D040000 		.4byte	0x46d
 7929 1cce E2110000 		.4byte	.LLST65
 7930 1cd2 1D       		.uleb128 0x1d
 7931 1cd3 42090000 		.4byte	.LASF165
 7932 1cd7 01       		.byte	0x1
 7933 1cd8 7704     		.2byte	0x477
ARM GAS  C:\Users\Phuong\AppData\Local\Temp\ccG6FMOL.s 			page 170


 7934 1cda 76000000 		.4byte	0x76
 7935 1cde 0E120000 		.4byte	.LLST66
 7936 1ce2 1C       		.uleb128 0x1c
 7937 1ce3 70776400 		.ascii	"pwd\000"
 7938 1ce7 01       		.byte	0x1
 7939 1ce8 7804     		.2byte	0x478
 7940 1cea 6D040000 		.4byte	0x46d
 7941 1cee 3A120000 		.4byte	.LLST67
 7942 1cf2 27       		.uleb128 0x27
 7943 1cf3 40010000 		.4byte	.LASF172
 7944 1cf7 01       		.byte	0x1
 7945 1cf8 7804     		.2byte	0x478
 7946 1cfa 76000000 		.4byte	0x76
 7947 1cfe 02       		.uleb128 0x2
 7948 1cff 91       		.byte	0x91
 7949 1d00 00       		.sleb128 0
 7950 1d01 1E       		.uleb128 0x1e
 7951 1d02 72657400 		.ascii	"ret\000"
 7952 1d06 01       		.byte	0x1
 7953 1d07 7A04     		.2byte	0x47a
 7954 1d09 68000000 		.4byte	0x68
 7955 1d0d E3120000 		.4byte	.LLST68
 7956 1d11 26       		.uleb128 0x26
 7957 1d12 F80D0000 		.4byte	.LASF65
 7958 1d16 01       		.byte	0x1
 7959 1d17 7B04     		.2byte	0x47b
 7960 1d19 57040000 		.4byte	0x457
 7961 1d1d 9C140000 		.4byte	.LLST69
 7962 1d21 21       		.uleb128 0x21
 7963 1d22 6C656E00 		.ascii	"len\000"
 7964 1d26 01       		.byte	0x1
 7965 1d27 7E04     		.2byte	0x47e
 7966 1d29 76000000 		.4byte	0x76
 7967 1d2d 02       		.uleb128 0x2
 7968 1d2e 91       		.byte	0x91
 7969 1d2f 64       		.sleb128 -28
 7970 1d30 21       		.uleb128 0x21
 7971 1d31 70656D00 		.ascii	"pem\000"
 7972 1d35 01       		.byte	0x1
 7973 1d36 7F04     		.2byte	0x47f
 7974 1d38 C4060000 		.4byte	0x6c4
 7975 1d3c 02       		.uleb128 0x2
 7976 1d3d 91       		.byte	0x91
 7977 1d3e 58       		.sleb128 -40
 7978 1d3f 29       		.uleb128 0x29
 7979 1d40 00000000 		.4byte	.Ldebug_ranges0+0
 7980 1d44 F21D0000 		.4byte	0x1df2
 7981 1d48 26       		.uleb128 0x26
 7982 1d49 B8090000 		.4byte	.LASF181
 7983 1d4d 01       		.byte	0x1
 7984 1d4e FD04     		.2byte	0x4fd
 7985 1d50 78040000 		.4byte	0x478
 7986 1d54 FC140000 		.4byte	.LLST70
 7987 1d58 20       		.uleb128 0x20
 7988 1d59 B6010000 		.4byte	.LVL477
 7989 1d5d 2C250000 		.4byte	0x252c
 7990 1d61 711D0000 		.4byte	0x1d71
ARM GAS  C:\Users\Phuong\AppData\Local\Temp\ccG6FMOL.s 			page 171


 7991 1d65 1A       		.uleb128 0x1a
 7992 1d66 01       		.uleb128 0x1
 7993 1d67 50       		.byte	0x50
 7994 1d68 01       		.uleb128 0x1
 7995 1d69 31       		.byte	0x31
 7996 1d6a 1A       		.uleb128 0x1a
 7997 1d6b 01       		.uleb128 0x1
 7998 1d6c 51       		.byte	0x51
 7999 1d6d 02       		.uleb128 0x2
 8000 1d6e 77       		.byte	0x77
 8001 1d6f 00       		.sleb128 0
 8002 1d70 00       		.byte	0
 8003 1d71 20       		.uleb128 0x20
 8004 1d72 C4010000 		.4byte	.LVL478
 8005 1d76 37250000 		.4byte	0x2537
 8006 1d7a 931D0000 		.4byte	0x1d93
 8007 1d7e 1A       		.uleb128 0x1a
 8008 1d7f 01       		.uleb128 0x1
 8009 1d80 50       		.byte	0x50
 8010 1d81 04       		.uleb128 0x4
 8011 1d82 91       		.byte	0x91
 8012 1d83 B47F     		.sleb128 -76
 8013 1d85 06       		.byte	0x6
 8014 1d86 1A       		.uleb128 0x1a
 8015 1d87 01       		.uleb128 0x1
 8016 1d88 51       		.byte	0x51
 8017 1d89 02       		.uleb128 0x2
 8018 1d8a 75       		.byte	0x75
 8019 1d8b 00       		.sleb128 0
 8020 1d8c 1A       		.uleb128 0x1a
 8021 1d8d 01       		.uleb128 0x1
 8022 1d8e 52       		.byte	0x52
 8023 1d8f 02       		.uleb128 0x2
 8024 1d90 77       		.byte	0x77
 8025 1d91 00       		.sleb128 0
 8026 1d92 00       		.byte	0
 8027 1d93 20       		.uleb128 0x20
 8028 1d94 D4010000 		.4byte	.LVL479
 8029 1d98 B2180000 		.4byte	0x18b2
 8030 1d9c C31D0000 		.4byte	0x1dc3
 8031 1da0 1A       		.uleb128 0x1a
 8032 1da1 01       		.uleb128 0x1
 8033 1da2 50       		.byte	0x50
 8034 1da3 02       		.uleb128 0x2
 8035 1da4 76       		.byte	0x76
 8036 1da5 00       		.sleb128 0
 8037 1da6 1A       		.uleb128 0x1a
 8038 1da7 01       		.uleb128 0x1
 8039 1da8 51       		.byte	0x51
 8040 1da9 04       		.uleb128 0x4
 8041 1daa 91       		.byte	0x91
 8042 1dab B47F     		.sleb128 -76
 8043 1dad 06       		.byte	0x6
 8044 1dae 1A       		.uleb128 0x1a
 8045 1daf 01       		.uleb128 0x1
 8046 1db0 52       		.byte	0x52
 8047 1db1 02       		.uleb128 0x2
ARM GAS  C:\Users\Phuong\AppData\Local\Temp\ccG6FMOL.s 			page 172


 8048 1db2 77       		.byte	0x77
 8049 1db3 00       		.sleb128 0
 8050 1db4 1A       		.uleb128 0x1a
 8051 1db5 01       		.uleb128 0x1
 8052 1db6 53       		.byte	0x53
 8053 1db7 02       		.uleb128 0x2
 8054 1db8 74       		.byte	0x74
 8055 1db9 00       		.sleb128 0
 8056 1dba 1A       		.uleb128 0x1a
 8057 1dbb 02       		.uleb128 0x2
 8058 1dbc 7D       		.byte	0x7d
 8059 1dbd 00       		.sleb128 0
 8060 1dbe 03       		.uleb128 0x3
 8061 1dbf 91       		.byte	0x91
 8062 1dc0 00       		.sleb128 0
 8063 1dc1 06       		.byte	0x6
 8064 1dc2 00       		.byte	0
 8065 1dc3 20       		.uleb128 0x20
 8066 1dc4 DE010000 		.4byte	.LVL482
 8067 1dc8 40250000 		.4byte	0x2540
 8068 1dcc DF1D0000 		.4byte	0x1ddf
 8069 1dd0 1A       		.uleb128 0x1a
 8070 1dd1 01       		.uleb128 0x1
 8071 1dd2 50       		.byte	0x50
 8072 1dd3 04       		.uleb128 0x4
 8073 1dd4 91       		.byte	0x91
 8074 1dd5 B47F     		.sleb128 -76
 8075 1dd7 06       		.byte	0x6
 8076 1dd8 1A       		.uleb128 0x1a
 8077 1dd9 01       		.uleb128 0x1
 8078 1dda 51       		.byte	0x51
 8079 1ddb 02       		.uleb128 0x2
 8080 1ddc 77       		.byte	0x77
 8081 1ddd 00       		.sleb128 0
 8082 1dde 00       		.byte	0
 8083 1ddf 19       		.uleb128 0x19
 8084 1de0 E4010000 		.4byte	.LVL483
 8085 1de4 4B250000 		.4byte	0x254b
 8086 1de8 1A       		.uleb128 0x1a
 8087 1de9 01       		.uleb128 0x1
 8088 1dea 50       		.byte	0x50
 8089 1deb 04       		.uleb128 0x4
 8090 1dec 91       		.byte	0x91
 8091 1ded B47F     		.sleb128 -76
 8092 1def 06       		.byte	0x6
 8093 1df0 00       		.byte	0
 8094 1df1 00       		.byte	0
 8095 1df2 20       		.uleb128 0x20
 8096 1df3 12000000 		.4byte	.LVL426
 8097 1df7 56250000 		.4byte	0x2556
 8098 1dfb 061E0000 		.4byte	0x1e06
 8099 1dff 1A       		.uleb128 0x1a
 8100 1e00 01       		.uleb128 0x1
 8101 1e01 50       		.byte	0x50
 8102 1e02 02       		.uleb128 0x2
 8103 1e03 91       		.byte	0x91
 8104 1e04 58       		.sleb128 -40
ARM GAS  C:\Users\Phuong\AppData\Local\Temp\ccG6FMOL.s 			page 173


 8105 1e05 00       		.byte	0
 8106 1e06 20       		.uleb128 0x20
 8107 1e07 36000000 		.4byte	.LVL427
 8108 1e0b 61250000 		.4byte	0x2561
 8109 1e0f 481E0000 		.4byte	0x1e48
 8110 1e13 1A       		.uleb128 0x1a
 8111 1e14 01       		.uleb128 0x1
 8112 1e15 50       		.byte	0x50
 8113 1e16 02       		.uleb128 0x2
 8114 1e17 91       		.byte	0x91
 8115 1e18 58       		.sleb128 -40
 8116 1e19 1A       		.uleb128 0x1a
 8117 1e1a 01       		.uleb128 0x1
 8118 1e1b 51       		.byte	0x51
 8119 1e1c 05       		.uleb128 0x5
 8120 1e1d 03       		.byte	0x3
 8121 1e1e 40000000 		.4byte	.LC8
 8122 1e22 1A       		.uleb128 0x1a
 8123 1e23 01       		.uleb128 0x1
 8124 1e24 52       		.byte	0x52
 8125 1e25 05       		.uleb128 0x5
 8126 1e26 03       		.byte	0x3
 8127 1e27 20000000 		.4byte	.LC6
 8128 1e2b 1A       		.uleb128 0x1a
 8129 1e2c 01       		.uleb128 0x1
 8130 1e2d 53       		.byte	0x53
 8131 1e2e 02       		.uleb128 0x2
 8132 1e2f 75       		.byte	0x75
 8133 1e30 00       		.sleb128 0
 8134 1e31 1A       		.uleb128 0x1a
 8135 1e32 02       		.uleb128 0x2
 8136 1e33 7D       		.byte	0x7d
 8137 1e34 00       		.sleb128 0
 8138 1e35 02       		.uleb128 0x2
 8139 1e36 74       		.byte	0x74
 8140 1e37 00       		.sleb128 0
 8141 1e38 1A       		.uleb128 0x1a
 8142 1e39 02       		.uleb128 0x2
 8143 1e3a 7D       		.byte	0x7d
 8144 1e3b 04       		.sleb128 4
 8145 1e3c 03       		.uleb128 0x3
 8146 1e3d 91       		.byte	0x91
 8147 1e3e 00       		.sleb128 0
 8148 1e3f 06       		.byte	0x6
 8149 1e40 1A       		.uleb128 0x1a
 8150 1e41 02       		.uleb128 0x2
 8151 1e42 7D       		.byte	0x7d
 8152 1e43 08       		.sleb128 8
 8153 1e44 02       		.uleb128 0x2
 8154 1e45 91       		.byte	0x91
 8155 1e46 64       		.sleb128 -28
 8156 1e47 00       		.byte	0
 8157 1e48 25       		.uleb128 0x25
 8158 1e49 48000000 		.4byte	.LVL431
 8159 1e4d DE240000 		.4byte	0x24de
 8160 1e51 20       		.uleb128 0x20
 8161 1e52 50000000 		.4byte	.LVL434
ARM GAS  C:\Users\Phuong\AppData\Local\Temp\ccG6FMOL.s 			page 174


 8162 1e56 E9240000 		.4byte	0x24e9
 8163 1e5a 651E0000 		.4byte	0x1e65
 8164 1e5e 1A       		.uleb128 0x1a
 8165 1e5f 01       		.uleb128 0x1
 8166 1e60 50       		.byte	0x50
 8167 1e61 02       		.uleb128 0x2
 8168 1e62 76       		.byte	0x76
 8169 1e63 00       		.sleb128 0
 8170 1e64 00       		.byte	0
 8171 1e65 25       		.uleb128 0x25
 8172 1e66 66000000 		.4byte	.LVL437
 8173 1e6a 87100000 		.4byte	0x1087
 8174 1e6e 20       		.uleb128 0x20
 8175 1e6f 70000000 		.4byte	.LVL440
 8176 1e73 F4240000 		.4byte	0x24f4
 8177 1e77 821E0000 		.4byte	0x1e82
 8178 1e7b 1A       		.uleb128 0x1a
 8179 1e7c 01       		.uleb128 0x1
 8180 1e7d 50       		.byte	0x50
 8181 1e7e 02       		.uleb128 0x2
 8182 1e7f 76       		.byte	0x76
 8183 1e80 00       		.sleb128 0
 8184 1e81 00       		.byte	0
 8185 1e82 20       		.uleb128 0x20
 8186 1e83 76000000 		.4byte	.LVL441
 8187 1e87 6C250000 		.4byte	0x256c
 8188 1e8b 961E0000 		.4byte	0x1e96
 8189 1e8f 1A       		.uleb128 0x1a
 8190 1e90 01       		.uleb128 0x1
 8191 1e91 50       		.byte	0x50
 8192 1e92 02       		.uleb128 0x2
 8193 1e93 91       		.byte	0x91
 8194 1e94 58       		.sleb128 -40
 8195 1e95 00       		.byte	0
 8196 1e96 20       		.uleb128 0x20
 8197 1e97 B6000000 		.4byte	.LVL444
 8198 1e9b 61250000 		.4byte	0x2561
 8199 1e9f D81E0000 		.4byte	0x1ed8
 8200 1ea3 1A       		.uleb128 0x1a
 8201 1ea4 01       		.uleb128 0x1
 8202 1ea5 50       		.byte	0x50
 8203 1ea6 02       		.uleb128 0x2
 8204 1ea7 91       		.byte	0x91
 8205 1ea8 58       		.sleb128 -40
 8206 1ea9 1A       		.uleb128 0x1a
 8207 1eaa 01       		.uleb128 0x1
 8208 1eab 51       		.byte	0x51
 8209 1eac 05       		.uleb128 0x5
 8210 1ead 03       		.byte	0x3
 8211 1eae 80000000 		.4byte	.LC12
 8212 1eb2 1A       		.uleb128 0x1a
 8213 1eb3 01       		.uleb128 0x1
 8214 1eb4 52       		.byte	0x52
 8215 1eb5 05       		.uleb128 0x5
 8216 1eb6 03       		.byte	0x3
 8217 1eb7 60000000 		.4byte	.LC10
 8218 1ebb 1A       		.uleb128 0x1a
ARM GAS  C:\Users\Phuong\AppData\Local\Temp\ccG6FMOL.s 			page 175


 8219 1ebc 01       		.uleb128 0x1
 8220 1ebd 53       		.byte	0x53
 8221 1ebe 02       		.uleb128 0x2
 8222 1ebf 75       		.byte	0x75
 8223 1ec0 00       		.sleb128 0
 8224 1ec1 1A       		.uleb128 0x1a
 8225 1ec2 02       		.uleb128 0x2
 8226 1ec3 7D       		.byte	0x7d
 8227 1ec4 00       		.sleb128 0
 8228 1ec5 02       		.uleb128 0x2
 8229 1ec6 74       		.byte	0x74
 8230 1ec7 00       		.sleb128 0
 8231 1ec8 1A       		.uleb128 0x1a
 8232 1ec9 02       		.uleb128 0x2
 8233 1eca 7D       		.byte	0x7d
 8234 1ecb 04       		.sleb128 4
 8235 1ecc 03       		.uleb128 0x3
 8236 1ecd 91       		.byte	0x91
 8237 1ece 00       		.sleb128 0
 8238 1ecf 06       		.byte	0x6
 8239 1ed0 1A       		.uleb128 0x1a
 8240 1ed1 02       		.uleb128 0x2
 8241 1ed2 7D       		.byte	0x7d
 8242 1ed3 08       		.sleb128 8
 8243 1ed4 02       		.uleb128 0x2
 8244 1ed5 91       		.byte	0x91
 8245 1ed6 64       		.sleb128 -28
 8246 1ed7 00       		.byte	0
 8247 1ed8 25       		.uleb128 0x25
 8248 1ed9 C0000000 		.4byte	.LVL446
 8249 1edd DE240000 		.4byte	0x24de
 8250 1ee1 20       		.uleb128 0x20
 8251 1ee2 C8000000 		.4byte	.LVL449
 8252 1ee6 E9240000 		.4byte	0x24e9
 8253 1eea F51E0000 		.4byte	0x1ef5
 8254 1eee 1A       		.uleb128 0x1a
 8255 1eef 01       		.uleb128 0x1
 8256 1ef0 50       		.byte	0x50
 8257 1ef1 02       		.uleb128 0x2
 8258 1ef2 76       		.byte	0x76
 8259 1ef3 00       		.sleb128 0
 8260 1ef4 00       		.byte	0
 8261 1ef5 25       		.uleb128 0x25
 8262 1ef6 DE000000 		.4byte	.LVL452
 8263 1efa 27140000 		.4byte	0x1427
 8264 1efe 20       		.uleb128 0x20
 8265 1eff E8000000 		.4byte	.LVL455
 8266 1f03 F4240000 		.4byte	0x24f4
 8267 1f07 121F0000 		.4byte	0x1f12
 8268 1f0b 1A       		.uleb128 0x1a
 8269 1f0c 01       		.uleb128 0x1
 8270 1f0d 50       		.byte	0x50
 8271 1f0e 02       		.uleb128 0x2
 8272 1f0f 76       		.byte	0x76
 8273 1f10 00       		.sleb128 0
 8274 1f11 00       		.byte	0
 8275 1f12 20       		.uleb128 0x20
ARM GAS  C:\Users\Phuong\AppData\Local\Temp\ccG6FMOL.s 			page 176


 8276 1f13 EE000000 		.4byte	.LVL456
 8277 1f17 6C250000 		.4byte	0x256c
 8278 1f1b 261F0000 		.4byte	0x1f26
 8279 1f1f 1A       		.uleb128 0x1a
 8280 1f20 01       		.uleb128 0x1
 8281 1f21 50       		.byte	0x50
 8282 1f22 02       		.uleb128 0x2
 8283 1f23 91       		.byte	0x91
 8284 1f24 58       		.sleb128 -40
 8285 1f25 00       		.byte	0
 8286 1f26 20       		.uleb128 0x20
 8287 1f27 2E010000 		.4byte	.LVL459
 8288 1f2b 61250000 		.4byte	0x2561
 8289 1f2f 651F0000 		.4byte	0x1f65
 8290 1f33 1A       		.uleb128 0x1a
 8291 1f34 01       		.uleb128 0x1
 8292 1f35 50       		.byte	0x50
 8293 1f36 02       		.uleb128 0x2
 8294 1f37 91       		.byte	0x91
 8295 1f38 58       		.sleb128 -40
 8296 1f39 1A       		.uleb128 0x1a
 8297 1f3a 01       		.uleb128 0x1
 8298 1f3b 51       		.byte	0x51
 8299 1f3c 05       		.uleb128 0x5
 8300 1f3d 03       		.byte	0x3
 8301 1f3e BC000000 		.4byte	.LC16
 8302 1f42 1A       		.uleb128 0x1a
 8303 1f43 01       		.uleb128 0x1
 8304 1f44 52       		.byte	0x52
 8305 1f45 05       		.uleb128 0x5
 8306 1f46 03       		.byte	0x3
 8307 1f47 A0000000 		.4byte	.LC14
 8308 1f4b 1A       		.uleb128 0x1a
 8309 1f4c 01       		.uleb128 0x1
 8310 1f4d 53       		.byte	0x53
 8311 1f4e 02       		.uleb128 0x2
 8312 1f4f 75       		.byte	0x75
 8313 1f50 00       		.sleb128 0
 8314 1f51 1A       		.uleb128 0x1a
 8315 1f52 02       		.uleb128 0x2
 8316 1f53 7D       		.byte	0x7d
 8317 1f54 00       		.sleb128 0
 8318 1f55 01       		.uleb128 0x1
 8319 1f56 30       		.byte	0x30
 8320 1f57 1A       		.uleb128 0x1a
 8321 1f58 02       		.uleb128 0x2
 8322 1f59 7D       		.byte	0x7d
 8323 1f5a 04       		.sleb128 4
 8324 1f5b 01       		.uleb128 0x1
 8325 1f5c 30       		.byte	0x30
 8326 1f5d 1A       		.uleb128 0x1a
 8327 1f5e 02       		.uleb128 0x2
 8328 1f5f 7D       		.byte	0x7d
 8329 1f60 08       		.sleb128 8
 8330 1f61 02       		.uleb128 0x2
 8331 1f62 91       		.byte	0x91
 8332 1f63 64       		.sleb128 -28
ARM GAS  C:\Users\Phuong\AppData\Local\Temp\ccG6FMOL.s 			page 177


 8333 1f64 00       		.byte	0
 8334 1f65 20       		.uleb128 0x20
 8335 1f66 3C010000 		.4byte	.LVL461
 8336 1f6a EC160000 		.4byte	0x16ec
 8337 1f6e 791F0000 		.4byte	0x1f79
 8338 1f72 1A       		.uleb128 0x1a
 8339 1f73 01       		.uleb128 0x1
 8340 1f74 50       		.byte	0x50
 8341 1f75 02       		.uleb128 0x2
 8342 1f76 76       		.byte	0x76
 8343 1f77 00       		.sleb128 0
 8344 1f78 00       		.byte	0
 8345 1f79 20       		.uleb128 0x20
 8346 1f7a 46010000 		.4byte	.LVL464
 8347 1f7e F4240000 		.4byte	0x24f4
 8348 1f82 8D1F0000 		.4byte	0x1f8d
 8349 1f86 1A       		.uleb128 0x1a
 8350 1f87 01       		.uleb128 0x1
 8351 1f88 50       		.byte	0x50
 8352 1f89 02       		.uleb128 0x2
 8353 1f8a 76       		.byte	0x76
 8354 1f8b 00       		.sleb128 0
 8355 1f8c 00       		.byte	0
 8356 1f8d 20       		.uleb128 0x20
 8357 1f8e 4C010000 		.4byte	.LVL465
 8358 1f92 6C250000 		.4byte	0x256c
 8359 1f96 A11F0000 		.4byte	0x1fa1
 8360 1f9a 1A       		.uleb128 0x1a
 8361 1f9b 01       		.uleb128 0x1
 8362 1f9c 50       		.byte	0x50
 8363 1f9d 02       		.uleb128 0x2
 8364 1f9e 91       		.byte	0x91
 8365 1f9f 58       		.sleb128 -40
 8366 1fa0 00       		.byte	0
 8367 1fa1 20       		.uleb128 0x20
 8368 1fa2 7C010000 		.4byte	.LVL468
 8369 1fa6 61250000 		.4byte	0x2561
 8370 1faa E01F0000 		.4byte	0x1fe0
 8371 1fae 1A       		.uleb128 0x1a
 8372 1faf 01       		.uleb128 0x1
 8373 1fb0 50       		.byte	0x50
 8374 1fb1 02       		.uleb128 0x2
 8375 1fb2 91       		.byte	0x91
 8376 1fb3 58       		.sleb128 -40
 8377 1fb4 1A       		.uleb128 0x1a
 8378 1fb5 01       		.uleb128 0x1
 8379 1fb6 51       		.byte	0x51
 8380 1fb7 05       		.uleb128 0x5
 8381 1fb8 03       		.byte	0x3
 8382 1fb9 FC000000 		.4byte	.LC20
 8383 1fbd 1A       		.uleb128 0x1a
 8384 1fbe 01       		.uleb128 0x1
 8385 1fbf 52       		.byte	0x52
 8386 1fc0 05       		.uleb128 0x5
 8387 1fc1 03       		.byte	0x3
 8388 1fc2 D8000000 		.4byte	.LC18
 8389 1fc6 1A       		.uleb128 0x1a
ARM GAS  C:\Users\Phuong\AppData\Local\Temp\ccG6FMOL.s 			page 178


 8390 1fc7 01       		.uleb128 0x1
 8391 1fc8 53       		.byte	0x53
 8392 1fc9 02       		.uleb128 0x2
 8393 1fca 75       		.byte	0x75
 8394 1fcb 00       		.sleb128 0
 8395 1fcc 1A       		.uleb128 0x1a
 8396 1fcd 02       		.uleb128 0x2
 8397 1fce 7D       		.byte	0x7d
 8398 1fcf 00       		.sleb128 0
 8399 1fd0 01       		.uleb128 0x1
 8400 1fd1 30       		.byte	0x30
 8401 1fd2 1A       		.uleb128 0x1a
 8402 1fd3 02       		.uleb128 0x2
 8403 1fd4 7D       		.byte	0x7d
 8404 1fd5 04       		.sleb128 4
 8405 1fd6 01       		.uleb128 0x1
 8406 1fd7 30       		.byte	0x30
 8407 1fd8 1A       		.uleb128 0x1a
 8408 1fd9 02       		.uleb128 0x2
 8409 1fda 7D       		.byte	0x7d
 8410 1fdb 08       		.sleb128 8
 8411 1fdc 02       		.uleb128 0x2
 8412 1fdd 91       		.byte	0x91
 8413 1fde 64       		.sleb128 -28
 8414 1fdf 00       		.byte	0
 8415 1fe0 20       		.uleb128 0x20
 8416 1fe1 90010000 		.4byte	.LVL470
 8417 1fe5 B2180000 		.4byte	0x18b2
 8418 1fe9 02200000 		.4byte	0x2002
 8419 1fed 1A       		.uleb128 0x1a
 8420 1fee 01       		.uleb128 0x1
 8421 1fef 50       		.byte	0x50
 8422 1ff0 02       		.uleb128 0x2
 8423 1ff1 76       		.byte	0x76
 8424 1ff2 00       		.sleb128 0
 8425 1ff3 1A       		.uleb128 0x1a
 8426 1ff4 01       		.uleb128 0x1
 8427 1ff5 53       		.byte	0x53
 8428 1ff6 02       		.uleb128 0x2
 8429 1ff7 74       		.byte	0x74
 8430 1ff8 00       		.sleb128 0
 8431 1ff9 1A       		.uleb128 0x1a
 8432 1ffa 02       		.uleb128 0x2
 8433 1ffb 7D       		.byte	0x7d
 8434 1ffc 00       		.sleb128 0
 8435 1ffd 03       		.uleb128 0x3
 8436 1ffe 91       		.byte	0x91
 8437 1fff 00       		.sleb128 0
 8438 2000 06       		.byte	0x6
 8439 2001 00       		.byte	0
 8440 2002 20       		.uleb128 0x20
 8441 2003 9A010000 		.4byte	.LVL473
 8442 2007 F4240000 		.4byte	0x24f4
 8443 200b 16200000 		.4byte	0x2016
 8444 200f 1A       		.uleb128 0x1a
 8445 2010 01       		.uleb128 0x1
 8446 2011 50       		.byte	0x50
ARM GAS  C:\Users\Phuong\AppData\Local\Temp\ccG6FMOL.s 			page 179


 8447 2012 02       		.uleb128 0x2
 8448 2013 76       		.byte	0x76
 8449 2014 00       		.sleb128 0
 8450 2015 00       		.byte	0
 8451 2016 20       		.uleb128 0x20
 8452 2017 A0010000 		.4byte	.LVL474
 8453 201b 6C250000 		.4byte	0x256c
 8454 201f 2A200000 		.4byte	0x202a
 8455 2023 1A       		.uleb128 0x1a
 8456 2024 01       		.uleb128 0x1
 8457 2025 50       		.byte	0x50
 8458 2026 02       		.uleb128 0x2
 8459 2027 91       		.byte	0x91
 8460 2028 58       		.sleb128 -40
 8461 2029 00       		.byte	0
 8462 202a 20       		.uleb128 0x20
 8463 202b EE010000 		.4byte	.LVL484
 8464 202f F4240000 		.4byte	0x24f4
 8465 2033 3E200000 		.4byte	0x203e
 8466 2037 1A       		.uleb128 0x1a
 8467 2038 01       		.uleb128 0x1
 8468 2039 50       		.byte	0x50
 8469 203a 02       		.uleb128 0x2
 8470 203b 76       		.byte	0x76
 8471 203c 00       		.sleb128 0
 8472 203d 00       		.byte	0
 8473 203e 20       		.uleb128 0x20
 8474 203f FE010000 		.4byte	.LVL485
 8475 2043 EC160000 		.4byte	0x16ec
 8476 2047 5E200000 		.4byte	0x205e
 8477 204b 1A       		.uleb128 0x1a
 8478 204c 01       		.uleb128 0x1
 8479 204d 50       		.byte	0x50
 8480 204e 02       		.uleb128 0x2
 8481 204f 76       		.byte	0x76
 8482 2050 00       		.sleb128 0
 8483 2051 1A       		.uleb128 0x1a
 8484 2052 01       		.uleb128 0x1
 8485 2053 51       		.byte	0x51
 8486 2054 02       		.uleb128 0x2
 8487 2055 75       		.byte	0x75
 8488 2056 00       		.sleb128 0
 8489 2057 1A       		.uleb128 0x1a
 8490 2058 01       		.uleb128 0x1
 8491 2059 52       		.byte	0x52
 8492 205a 02       		.uleb128 0x2
 8493 205b 77       		.byte	0x77
 8494 205c 00       		.sleb128 0
 8495 205d 00       		.byte	0
 8496 205e 20       		.uleb128 0x20
 8497 205f 08020000 		.4byte	.LVL487
 8498 2063 F4240000 		.4byte	0x24f4
 8499 2067 72200000 		.4byte	0x2072
 8500 206b 1A       		.uleb128 0x1a
 8501 206c 01       		.uleb128 0x1
 8502 206d 50       		.byte	0x50
 8503 206e 02       		.uleb128 0x2
ARM GAS  C:\Users\Phuong\AppData\Local\Temp\ccG6FMOL.s 			page 180


 8504 206f 76       		.byte	0x76
 8505 2070 00       		.sleb128 0
 8506 2071 00       		.byte	0
 8507 2072 20       		.uleb128 0x20
 8508 2073 0E020000 		.4byte	.LVL488
 8509 2077 DE240000 		.4byte	0x24de
 8510 207b 85200000 		.4byte	0x2085
 8511 207f 1A       		.uleb128 0x1a
 8512 2080 01       		.uleb128 0x1
 8513 2081 50       		.byte	0x50
 8514 2082 01       		.uleb128 0x1
 8515 2083 31       		.byte	0x31
 8516 2084 00       		.byte	0
 8517 2085 20       		.uleb128 0x20
 8518 2086 16020000 		.4byte	.LVL491
 8519 208a E9240000 		.4byte	0x24e9
 8520 208e 99200000 		.4byte	0x2099
 8521 2092 1A       		.uleb128 0x1a
 8522 2093 01       		.uleb128 0x1
 8523 2094 50       		.byte	0x50
 8524 2095 02       		.uleb128 0x2
 8525 2096 76       		.byte	0x76
 8526 2097 00       		.sleb128 0
 8527 2098 00       		.byte	0
 8528 2099 20       		.uleb128 0x20
 8529 209a 2C020000 		.4byte	.LVL493
 8530 209e 87100000 		.4byte	0x1087
 8531 20a2 B3200000 		.4byte	0x20b3
 8532 20a6 1A       		.uleb128 0x1a
 8533 20a7 01       		.uleb128 0x1
 8534 20a8 51       		.byte	0x51
 8535 20a9 02       		.uleb128 0x2
 8536 20aa 75       		.byte	0x75
 8537 20ab 00       		.sleb128 0
 8538 20ac 1A       		.uleb128 0x1a
 8539 20ad 01       		.uleb128 0x1
 8540 20ae 52       		.byte	0x52
 8541 20af 02       		.uleb128 0x2
 8542 20b0 77       		.byte	0x77
 8543 20b1 00       		.sleb128 0
 8544 20b2 00       		.byte	0
 8545 20b3 20       		.uleb128 0x20
 8546 20b4 36020000 		.4byte	.LVL495
 8547 20b8 F4240000 		.4byte	0x24f4
 8548 20bc C7200000 		.4byte	0x20c7
 8549 20c0 1A       		.uleb128 0x1a
 8550 20c1 01       		.uleb128 0x1
 8551 20c2 50       		.byte	0x50
 8552 20c3 02       		.uleb128 0x2
 8553 20c4 76       		.byte	0x76
 8554 20c5 00       		.sleb128 0
 8555 20c6 00       		.byte	0
 8556 20c7 20       		.uleb128 0x20
 8557 20c8 3C020000 		.4byte	.LVL496
 8558 20cc DE240000 		.4byte	0x24de
 8559 20d0 DA200000 		.4byte	0x20da
 8560 20d4 1A       		.uleb128 0x1a
ARM GAS  C:\Users\Phuong\AppData\Local\Temp\ccG6FMOL.s 			page 181


 8561 20d5 01       		.uleb128 0x1
 8562 20d6 50       		.byte	0x50
 8563 20d7 01       		.uleb128 0x1
 8564 20d8 32       		.byte	0x32
 8565 20d9 00       		.byte	0
 8566 20da 20       		.uleb128 0x20
 8567 20db 44020000 		.4byte	.LVL499
 8568 20df E9240000 		.4byte	0x24e9
 8569 20e3 EE200000 		.4byte	0x20ee
 8570 20e7 1A       		.uleb128 0x1a
 8571 20e8 01       		.uleb128 0x1
 8572 20e9 50       		.byte	0x50
 8573 20ea 02       		.uleb128 0x2
 8574 20eb 76       		.byte	0x76
 8575 20ec 00       		.sleb128 0
 8576 20ed 00       		.byte	0
 8577 20ee 20       		.uleb128 0x20
 8578 20ef 5A020000 		.4byte	.LVL501
 8579 20f3 27140000 		.4byte	0x1427
 8580 20f7 08210000 		.4byte	0x2108
 8581 20fb 1A       		.uleb128 0x1a
 8582 20fc 01       		.uleb128 0x1
 8583 20fd 51       		.byte	0x51
 8584 20fe 02       		.uleb128 0x2
 8585 20ff 75       		.byte	0x75
 8586 2100 00       		.sleb128 0
 8587 2101 1A       		.uleb128 0x1a
 8588 2102 01       		.uleb128 0x1
 8589 2103 52       		.byte	0x52
 8590 2104 02       		.uleb128 0x2
 8591 2105 77       		.byte	0x77
 8592 2106 00       		.sleb128 0
 8593 2107 00       		.byte	0
 8594 2108 19       		.uleb128 0x19
 8595 2109 64020000 		.4byte	.LVL503
 8596 210d F4240000 		.4byte	0x24f4
 8597 2111 1A       		.uleb128 0x1a
 8598 2112 01       		.uleb128 0x1
 8599 2113 50       		.byte	0x50
 8600 2114 02       		.uleb128 0x2
 8601 2115 76       		.byte	0x76
 8602 2116 00       		.sleb128 0
 8603 2117 00       		.byte	0
 8604 2118 00       		.byte	0
 8605 2119 28       		.uleb128 0x28
 8606 211a AE010000 		.4byte	.LASF182
 8607 211e 01       		.byte	0x1
 8608 211f 4405     		.2byte	0x544
 8609 2121 68000000 		.4byte	0x68
 8610 2125 00000000 		.4byte	.LFB25
 8611 2129 70010000 		.4byte	.LFE25-.LFB25
 8612 212d 01       		.uleb128 0x1
 8613 212e 9C       		.byte	0x9c
 8614 212f 7F230000 		.4byte	0x237f
 8615 2133 1C       		.uleb128 0x1c
 8616 2134 63747800 		.ascii	"ctx\000"
 8617 2138 01       		.byte	0x1
ARM GAS  C:\Users\Phuong\AppData\Local\Temp\ccG6FMOL.s 			page 182


 8618 2139 4405     		.2byte	0x544
 8619 213b AC180000 		.4byte	0x18ac
 8620 213f 34150000 		.4byte	.LLST71
 8621 2143 1C       		.uleb128 0x1c
 8622 2144 6B657900 		.ascii	"key\000"
 8623 2148 01       		.byte	0x1
 8624 2149 4505     		.2byte	0x545
 8625 214b 6D040000 		.4byte	0x46d
 8626 214f 60150000 		.4byte	.LLST72
 8627 2153 1D       		.uleb128 0x1d
 8628 2154 42090000 		.4byte	.LASF165
 8629 2158 01       		.byte	0x1
 8630 2159 4505     		.2byte	0x545
 8631 215b 76000000 		.4byte	0x76
 8632 215f 8C150000 		.4byte	.LLST73
 8633 2163 1E       		.uleb128 0x1e
 8634 2164 72657400 		.ascii	"ret\000"
 8635 2168 01       		.byte	0x1
 8636 2169 4705     		.2byte	0x547
 8637 216b 68000000 		.4byte	0x68
 8638 216f D1150000 		.4byte	.LLST74
 8639 2173 21       		.uleb128 0x21
 8640 2174 7000     		.ascii	"p\000"
 8641 2176 01       		.byte	0x1
 8642 2177 4805     		.2byte	0x548
 8643 2179 78040000 		.4byte	0x478
 8644 217d 02       		.uleb128 0x2
 8645 217e 91       		.byte	0x91
 8646 217f 64       		.sleb128 -28
 8647 2180 26       		.uleb128 0x26
 8648 2181 F80D0000 		.4byte	.LASF65
 8649 2185 01       		.byte	0x1
 8650 2186 4A05     		.2byte	0x54a
 8651 2188 57040000 		.4byte	0x457
 8652 218c 68160000 		.4byte	.LLST75
 8653 2190 21       		.uleb128 0x21
 8654 2191 6C656E00 		.ascii	"len\000"
 8655 2195 01       		.byte	0x1
 8656 2196 4D05     		.2byte	0x54d
 8657 2198 76000000 		.4byte	0x76
 8658 219c 02       		.uleb128 0x2
 8659 219d 91       		.byte	0x91
 8660 219e 60       		.sleb128 -32
 8661 219f 21       		.uleb128 0x21
 8662 21a0 70656D00 		.ascii	"pem\000"
 8663 21a4 01       		.byte	0x1
 8664 21a5 4E05     		.2byte	0x54e
 8665 21a7 C4060000 		.4byte	0x6c4
 8666 21ab 02       		.uleb128 0x2
 8667 21ac 91       		.byte	0x91
 8668 21ad 54       		.sleb128 -44
 8669 21ae 20       		.uleb128 0x20
 8670 21af 10000000 		.4byte	.LVL528
 8671 21b3 56250000 		.4byte	0x2556
 8672 21b7 C2210000 		.4byte	0x21c2
 8673 21bb 1A       		.uleb128 0x1a
 8674 21bc 01       		.uleb128 0x1
ARM GAS  C:\Users\Phuong\AppData\Local\Temp\ccG6FMOL.s 			page 183


 8675 21bd 50       		.byte	0x50
 8676 21be 02       		.uleb128 0x2
 8677 21bf 91       		.byte	0x91
 8678 21c0 54       		.sleb128 -44
 8679 21c1 00       		.byte	0
 8680 21c2 20       		.uleb128 0x20
 8681 21c3 34000000 		.4byte	.LVL529
 8682 21c7 61250000 		.4byte	0x2561
 8683 21cb 01220000 		.4byte	0x2201
 8684 21cf 1A       		.uleb128 0x1a
 8685 21d0 01       		.uleb128 0x1
 8686 21d1 50       		.byte	0x50
 8687 21d2 02       		.uleb128 0x2
 8688 21d3 91       		.byte	0x91
 8689 21d4 54       		.sleb128 -44
 8690 21d5 1A       		.uleb128 0x1a
 8691 21d6 01       		.uleb128 0x1
 8692 21d7 51       		.byte	0x51
 8693 21d8 05       		.uleb128 0x5
 8694 21d9 03       		.byte	0x3
 8695 21da 44010000 		.4byte	.LC24
 8696 21de 1A       		.uleb128 0x1a
 8697 21df 01       		.uleb128 0x1
 8698 21e0 52       		.byte	0x52
 8699 21e1 05       		.uleb128 0x5
 8700 21e2 03       		.byte	0x3
 8701 21e3 24010000 		.4byte	.LC22
 8702 21e7 1A       		.uleb128 0x1a
 8703 21e8 01       		.uleb128 0x1
 8704 21e9 53       		.byte	0x53
 8705 21ea 02       		.uleb128 0x2
 8706 21eb 76       		.byte	0x76
 8707 21ec 00       		.sleb128 0
 8708 21ed 1A       		.uleb128 0x1a
 8709 21ee 02       		.uleb128 0x2
 8710 21ef 7D       		.byte	0x7d
 8711 21f0 00       		.sleb128 0
 8712 21f1 01       		.uleb128 0x1
 8713 21f2 30       		.byte	0x30
 8714 21f3 1A       		.uleb128 0x1a
 8715 21f4 02       		.uleb128 0x2
 8716 21f5 7D       		.byte	0x7d
 8717 21f6 04       		.sleb128 4
 8718 21f7 01       		.uleb128 0x1
 8719 21f8 30       		.byte	0x30
 8720 21f9 1A       		.uleb128 0x1a
 8721 21fa 02       		.uleb128 0x2
 8722 21fb 7D       		.byte	0x7d
 8723 21fc 08       		.sleb128 8
 8724 21fd 02       		.uleb128 0x2
 8725 21fe 91       		.byte	0x91
 8726 21ff 60       		.sleb128 -32
 8727 2200 00       		.byte	0
 8728 2201 20       		.uleb128 0x20
 8729 2202 4C000000 		.4byte	.LVL533
 8730 2206 DE240000 		.4byte	0x24de
 8731 220a 14220000 		.4byte	0x2214
ARM GAS  C:\Users\Phuong\AppData\Local\Temp\ccG6FMOL.s 			page 184


 8732 220e 1A       		.uleb128 0x1a
 8733 220f 01       		.uleb128 0x1
 8734 2210 50       		.byte	0x50
 8735 2211 01       		.uleb128 0x1
 8736 2212 31       		.byte	0x31
 8737 2213 00       		.byte	0
 8738 2214 20       		.uleb128 0x20
 8739 2215 58000000 		.4byte	.LVL535
 8740 2219 E9240000 		.4byte	0x24e9
 8741 221d 28220000 		.4byte	0x2228
 8742 2221 1A       		.uleb128 0x1a
 8743 2222 01       		.uleb128 0x1
 8744 2223 50       		.byte	0x50
 8745 2224 02       		.uleb128 0x2
 8746 2225 75       		.byte	0x75
 8747 2226 00       		.sleb128 0
 8748 2227 00       		.byte	0
 8749 2228 20       		.uleb128 0x20
 8750 2229 76000000 		.4byte	.LVL537
 8751 222d 6A080000 		.4byte	0x86a
 8752 2231 3C220000 		.4byte	0x223c
 8753 2235 1A       		.uleb128 0x1a
 8754 2236 01       		.uleb128 0x1
 8755 2237 50       		.byte	0x50
 8756 2238 02       		.uleb128 0x2
 8757 2239 91       		.byte	0x91
 8758 223a 64       		.sleb128 -28
 8759 223b 00       		.byte	0
 8760 223c 20       		.uleb128 0x20
 8761 223d 80000000 		.4byte	.LVL540
 8762 2241 F4240000 		.4byte	0x24f4
 8763 2245 50220000 		.4byte	0x2250
 8764 2249 1A       		.uleb128 0x1a
 8765 224a 01       		.uleb128 0x1
 8766 224b 50       		.byte	0x50
 8767 224c 02       		.uleb128 0x2
 8768 224d 75       		.byte	0x75
 8769 224e 00       		.sleb128 0
 8770 224f 00       		.byte	0
 8771 2250 20       		.uleb128 0x20
 8772 2251 86000000 		.4byte	.LVL541
 8773 2255 6C250000 		.4byte	0x256c
 8774 2259 64220000 		.4byte	0x2264
 8775 225d 1A       		.uleb128 0x1a
 8776 225e 01       		.uleb128 0x1
 8777 225f 50       		.byte	0x50
 8778 2260 02       		.uleb128 0x2
 8779 2261 91       		.byte	0x91
 8780 2262 54       		.sleb128 -44
 8781 2263 00       		.byte	0
 8782 2264 20       		.uleb128 0x20
 8783 2265 96000000 		.4byte	.LVL542
 8784 2269 6C250000 		.4byte	0x256c
 8785 226d 78220000 		.4byte	0x2278
 8786 2271 1A       		.uleb128 0x1a
 8787 2272 01       		.uleb128 0x1
 8788 2273 50       		.byte	0x50
ARM GAS  C:\Users\Phuong\AppData\Local\Temp\ccG6FMOL.s 			page 185


 8789 2274 02       		.uleb128 0x2
 8790 2275 91       		.byte	0x91
 8791 2276 54       		.sleb128 -44
 8792 2277 00       		.byte	0
 8793 2278 20       		.uleb128 0x20
 8794 2279 BE000000 		.4byte	.LVL543
 8795 227d 61250000 		.4byte	0x2561
 8796 2281 B7220000 		.4byte	0x22b7
 8797 2285 1A       		.uleb128 0x1a
 8798 2286 01       		.uleb128 0x1
 8799 2287 50       		.byte	0x50
 8800 2288 02       		.uleb128 0x2
 8801 2289 91       		.byte	0x91
 8802 228a 54       		.sleb128 -44
 8803 228b 1A       		.uleb128 0x1a
 8804 228c 01       		.uleb128 0x1
 8805 228d 51       		.byte	0x51
 8806 228e 05       		.uleb128 0x5
 8807 228f 03       		.byte	0x3
 8808 2290 80010000 		.4byte	.LC28
 8809 2294 1A       		.uleb128 0x1a
 8810 2295 01       		.uleb128 0x1
 8811 2296 52       		.byte	0x52
 8812 2297 05       		.uleb128 0x5
 8813 2298 03       		.byte	0x3
 8814 2299 64010000 		.4byte	.LC26
 8815 229d 1A       		.uleb128 0x1a
 8816 229e 01       		.uleb128 0x1
 8817 229f 53       		.byte	0x53
 8818 22a0 02       		.uleb128 0x2
 8819 22a1 76       		.byte	0x76
 8820 22a2 00       		.sleb128 0
 8821 22a3 1A       		.uleb128 0x1a
 8822 22a4 02       		.uleb128 0x2
 8823 22a5 7D       		.byte	0x7d
 8824 22a6 00       		.sleb128 0
 8825 22a7 01       		.uleb128 0x1
 8826 22a8 30       		.byte	0x30
 8827 22a9 1A       		.uleb128 0x1a
 8828 22aa 02       		.uleb128 0x2
 8829 22ab 7D       		.byte	0x7d
 8830 22ac 04       		.sleb128 4
 8831 22ad 01       		.uleb128 0x1
 8832 22ae 30       		.byte	0x30
 8833 22af 1A       		.uleb128 0x1a
 8834 22b0 02       		.uleb128 0x2
 8835 22b1 7D       		.byte	0x7d
 8836 22b2 08       		.sleb128 8
 8837 22b3 02       		.uleb128 0x2
 8838 22b4 91       		.byte	0x91
 8839 22b5 60       		.sleb128 -32
 8840 22b6 00       		.byte	0
 8841 22b7 20       		.uleb128 0x20
 8842 22b8 D8000000 		.4byte	.LVL545
 8843 22bc 221B0000 		.4byte	0x1b22
 8844 22c0 D1220000 		.4byte	0x22d1
 8845 22c4 1A       		.uleb128 0x1a
ARM GAS  C:\Users\Phuong\AppData\Local\Temp\ccG6FMOL.s 			page 186


 8846 22c5 01       		.uleb128 0x1
 8847 22c6 50       		.byte	0x50
 8848 22c7 02       		.uleb128 0x2
 8849 22c8 91       		.byte	0x91
 8850 22c9 64       		.sleb128 -28
 8851 22ca 1A       		.uleb128 0x1a
 8852 22cb 01       		.uleb128 0x1
 8853 22cc 52       		.byte	0x52
 8854 22cd 02       		.uleb128 0x2
 8855 22ce 75       		.byte	0x75
 8856 22cf 00       		.sleb128 0
 8857 22d0 00       		.byte	0
 8858 22d1 20       		.uleb128 0x20
 8859 22d2 E0000000 		.4byte	.LVL548
 8860 22d6 6C250000 		.4byte	0x256c
 8861 22da E5220000 		.4byte	0x22e5
 8862 22de 1A       		.uleb128 0x1a
 8863 22df 01       		.uleb128 0x1
 8864 22e0 50       		.byte	0x50
 8865 22e1 02       		.uleb128 0x2
 8866 22e2 91       		.byte	0x91
 8867 22e3 54       		.sleb128 -44
 8868 22e4 00       		.byte	0
 8869 22e5 20       		.uleb128 0x20
 8870 22e6 F0000000 		.4byte	.LVL549
 8871 22ea 6C250000 		.4byte	0x256c
 8872 22ee F9220000 		.4byte	0x22f9
 8873 22f2 1A       		.uleb128 0x1a
 8874 22f3 01       		.uleb128 0x1
 8875 22f4 50       		.byte	0x50
 8876 22f5 02       		.uleb128 0x2
 8877 22f6 91       		.byte	0x91
 8878 22f7 54       		.sleb128 -44
 8879 22f8 00       		.byte	0
 8880 22f9 20       		.uleb128 0x20
 8881 22fa FA000000 		.4byte	.LVL550
 8882 22fe 6C250000 		.4byte	0x256c
 8883 2302 0D230000 		.4byte	0x230d
 8884 2306 1A       		.uleb128 0x1a
 8885 2307 01       		.uleb128 0x1
 8886 2308 50       		.byte	0x50
 8887 2309 02       		.uleb128 0x2
 8888 230a 91       		.byte	0x91
 8889 230b 54       		.sleb128 -44
 8890 230c 00       		.byte	0
 8891 230d 20       		.uleb128 0x20
 8892 230e 00010000 		.4byte	.LVL551
 8893 2312 DE240000 		.4byte	0x24de
 8894 2316 20230000 		.4byte	0x2320
 8895 231a 1A       		.uleb128 0x1a
 8896 231b 01       		.uleb128 0x1
 8897 231c 50       		.byte	0x50
 8898 231d 01       		.uleb128 0x1
 8899 231e 31       		.byte	0x31
 8900 231f 00       		.byte	0
 8901 2320 20       		.uleb128 0x20
 8902 2321 0C010000 		.4byte	.LVL553
ARM GAS  C:\Users\Phuong\AppData\Local\Temp\ccG6FMOL.s 			page 187


 8903 2325 E9240000 		.4byte	0x24e9
 8904 2329 34230000 		.4byte	0x2334
 8905 232d 1A       		.uleb128 0x1a
 8906 232e 01       		.uleb128 0x1
 8907 232f 50       		.byte	0x50
 8908 2330 02       		.uleb128 0x2
 8909 2331 75       		.byte	0x75
 8910 2332 00       		.sleb128 0
 8911 2333 00       		.byte	0
 8912 2334 20       		.uleb128 0x20
 8913 2335 26010000 		.4byte	.LVL556
 8914 2339 6A080000 		.4byte	0x86a
 8915 233d 4E230000 		.4byte	0x234e
 8916 2341 1A       		.uleb128 0x1a
 8917 2342 01       		.uleb128 0x1
 8918 2343 50       		.byte	0x50
 8919 2344 02       		.uleb128 0x2
 8920 2345 91       		.byte	0x91
 8921 2346 64       		.sleb128 -28
 8922 2347 1A       		.uleb128 0x1a
 8923 2348 01       		.uleb128 0x1
 8924 2349 51       		.byte	0x51
 8925 234a 02       		.uleb128 0x2
 8926 234b 77       		.byte	0x77
 8927 234c 00       		.sleb128 0
 8928 234d 00       		.byte	0
 8929 234e 20       		.uleb128 0x20
 8930 234f 30010000 		.4byte	.LVL559
 8931 2353 F4240000 		.4byte	0x24f4
 8932 2357 62230000 		.4byte	0x2362
 8933 235b 1A       		.uleb128 0x1a
 8934 235c 01       		.uleb128 0x1
 8935 235d 50       		.byte	0x50
 8936 235e 02       		.uleb128 0x2
 8937 235f 75       		.byte	0x75
 8938 2360 00       		.sleb128 0
 8939 2361 00       		.byte	0
 8940 2362 19       		.uleb128 0x19
 8941 2363 42010000 		.4byte	.LVL560
 8942 2367 221B0000 		.4byte	0x1b22
 8943 236b 1A       		.uleb128 0x1a
 8944 236c 01       		.uleb128 0x1
 8945 236d 50       		.byte	0x50
 8946 236e 02       		.uleb128 0x2
 8947 236f 91       		.byte	0x91
 8948 2370 64       		.sleb128 -28
 8949 2371 1A       		.uleb128 0x1a
 8950 2372 01       		.uleb128 0x1
 8951 2373 51       		.byte	0x51
 8952 2374 02       		.uleb128 0x2
 8953 2375 77       		.byte	0x77
 8954 2376 00       		.sleb128 0
 8955 2377 1A       		.uleb128 0x1a
 8956 2378 01       		.uleb128 0x1
 8957 2379 52       		.byte	0x52
 8958 237a 02       		.uleb128 0x2
 8959 237b 75       		.byte	0x75
ARM GAS  C:\Users\Phuong\AppData\Local\Temp\ccG6FMOL.s 			page 188


 8960 237c 00       		.sleb128 0
 8961 237d 00       		.byte	0
 8962 237e 00       		.byte	0
 8963 237f 2A       		.uleb128 0x2a
 8964 2380 06080000 		.4byte	.LASF183
 8965 2384 06080000 		.4byte	.LASF183
 8966 2388 0A       		.byte	0xa
 8967 2389 CB       		.byte	0xcb
 8968 238a 2B       		.uleb128 0x2b
 8969 238b F20B0000 		.4byte	.LASF220
 8970 238f F20B0000 		.4byte	.LASF220
 8971 2393 2C       		.uleb128 0x2c
 8972 2394 990B0000 		.4byte	.LASF184
 8973 2398 990B0000 		.4byte	.LASF184
 8974 239c 0A       		.byte	0xa
 8975 239d 3201     		.2byte	0x132
 8976 239f 2C       		.uleb128 0x2c
 8977 23a0 0D130000 		.4byte	.LASF185
 8978 23a4 0D130000 		.4byte	.LASF185
 8979 23a8 0D       		.byte	0xd
 8980 23a9 CA01     		.2byte	0x1ca
 8981 23ab 2A       		.uleb128 0x2a
 8982 23ac 04010000 		.4byte	.LASF186
 8983 23b0 04010000 		.4byte	.LASF186
 8984 23b4 07       		.byte	0x7
 8985 23b5 EA       		.byte	0xea
 8986 23b6 2C       		.uleb128 0x2c
 8987 23b7 01090000 		.4byte	.LASF187
 8988 23bb 01090000 		.4byte	.LASF187
 8989 23bf 07       		.byte	0x7
 8990 23c0 1101     		.2byte	0x111
 8991 23c2 2C       		.uleb128 0x2c
 8992 23c3 B1100000 		.4byte	.LASF188
 8993 23c7 B1100000 		.4byte	.LASF188
 8994 23cb 07       		.byte	0x7
 8995 23cc B801     		.2byte	0x1b8
 8996 23ce 2A       		.uleb128 0x2a
 8997 23cf 37110000 		.4byte	.LASF189
 8998 23d3 37110000 		.4byte	.LASF189
 8999 23d7 0A       		.byte	0xa
 9000 23d8 E7       		.byte	0xe7
 9001 23d9 2A       		.uleb128 0x2a
 9002 23da EB0E0000 		.4byte	.LASF190
 9003 23de EB0E0000 		.4byte	.LASF190
 9004 23e2 0E       		.byte	0xe
 9005 23e3 16       		.byte	0x16
 9006 23e4 2C       		.uleb128 0x2c
 9007 23e5 150C0000 		.4byte	.LASF191
 9008 23e9 150C0000 		.4byte	.LASF191
 9009 23ed 0A       		.byte	0xa
 9010 23ee 2101     		.2byte	0x121
 9011 23f0 2C       		.uleb128 0x2c
 9012 23f1 860F0000 		.4byte	.LASF192
 9013 23f5 860F0000 		.4byte	.LASF192
 9014 23f9 06       		.byte	0x6
 9015 23fa 5801     		.2byte	0x158
 9016 23fc 2C       		.uleb128 0x2c
ARM GAS  C:\Users\Phuong\AppData\Local\Temp\ccG6FMOL.s 			page 189


 9017 23fd 4C110000 		.4byte	.LASF193
 9018 2401 4C110000 		.4byte	.LASF193
 9019 2405 06       		.byte	0x6
 9020 2406 AF01     		.2byte	0x1af
 9021 2408 2C       		.uleb128 0x2c
 9022 2409 47070000 		.4byte	.LASF194
 9023 240d 47070000 		.4byte	.LASF194
 9024 2411 08       		.byte	0x8
 9025 2412 7202     		.2byte	0x272
 9026 2414 2C       		.uleb128 0x2c
 9027 2415 81120000 		.4byte	.LASF195
 9028 2419 81120000 		.4byte	.LASF195
 9029 241d 06       		.byte	0x6
 9030 241e 5F01     		.2byte	0x15f
 9031 2420 2C       		.uleb128 0x2c
 9032 2421 250E0000 		.4byte	.LASF196
 9033 2425 250E0000 		.4byte	.LASF196
 9034 2429 06       		.byte	0x6
 9035 242a 2A01     		.2byte	0x12a
 9036 242c 2C       		.uleb128 0x2c
 9037 242d 620B0000 		.4byte	.LASF197
 9038 2431 620B0000 		.4byte	.LASF197
 9039 2435 08       		.byte	0x8
 9040 2436 DB01     		.2byte	0x1db
 9041 2438 2C       		.uleb128 0x2c
 9042 2439 A90F0000 		.4byte	.LASF198
 9043 243d A90F0000 		.4byte	.LASF198
 9044 2441 08       		.byte	0x8
 9045 2442 A801     		.2byte	0x1a8
 9046 2444 2C       		.uleb128 0x2c
 9047 2445 56030000 		.4byte	.LASF199
 9048 2449 56030000 		.4byte	.LASF199
 9049 244d 08       		.byte	0x8
 9050 244e EF01     		.2byte	0x1ef
 9051 2450 2C       		.uleb128 0x2c
 9052 2451 29010000 		.4byte	.LASF200
 9053 2455 29010000 		.4byte	.LASF200
 9054 2459 08       		.byte	0x8
 9055 245a AA02     		.2byte	0x2aa
 9056 245c 2C       		.uleb128 0x2c
 9057 245d 580E0000 		.4byte	.LASF201
 9058 2461 580E0000 		.4byte	.LASF201
 9059 2465 06       		.byte	0x6
 9060 2466 EB01     		.2byte	0x1eb
 9061 2468 2C       		.uleb128 0x2c
 9062 2469 23110000 		.4byte	.LASF202
 9063 246d 23110000 		.4byte	.LASF202
 9064 2471 06       		.byte	0x6
 9065 2472 3401     		.2byte	0x134
 9066 2474 2C       		.uleb128 0x2c
 9067 2475 01110000 		.4byte	.LASF203
 9068 2479 01110000 		.4byte	.LASF203
 9069 247d 0D       		.byte	0xd
 9070 247e E101     		.2byte	0x1e1
 9071 2480 2C       		.uleb128 0x2c
 9072 2481 4F050000 		.4byte	.LASF204
 9073 2485 4F050000 		.4byte	.LASF204
ARM GAS  C:\Users\Phuong\AppData\Local\Temp\ccG6FMOL.s 			page 190


 9074 2489 08       		.byte	0x8
 9075 248a 5A03     		.2byte	0x35a
 9076 248c 2A       		.uleb128 0x2a
 9077 248d B5130000 		.4byte	.LASF205
 9078 2491 B5130000 		.4byte	.LASF205
 9079 2495 06       		.byte	0x6
 9080 2496 C3       		.byte	0xc3
 9081 2497 2A       		.uleb128 0x2a
 9082 2498 590D0000 		.4byte	.LASF206
 9083 249c 590D0000 		.4byte	.LASF206
 9084 24a0 06       		.byte	0x6
 9085 24a1 CA       		.byte	0xca
 9086 24a2 2C       		.uleb128 0x2c
 9087 24a3 FA050000 		.4byte	.LASF207
 9088 24a7 FA050000 		.4byte	.LASF207
 9089 24ab 07       		.byte	0x7
 9090 24ac 5D04     		.2byte	0x45d
 9091 24ae 2C       		.uleb128 0x2c
 9092 24af 61120000 		.4byte	.LASF208
 9093 24b3 61120000 		.4byte	.LASF208
 9094 24b7 08       		.byte	0x8
 9095 24b8 F501     		.2byte	0x1f5
 9096 24ba 2C       		.uleb128 0x2c
 9097 24bb 440A0000 		.4byte	.LASF209
 9098 24bf 440A0000 		.4byte	.LASF209
 9099 24c3 0A       		.byte	0xa
 9100 24c4 0301     		.2byte	0x103
 9101 24c6 2C       		.uleb128 0x2c
 9102 24c7 C5110000 		.4byte	.LASF210
 9103 24cb C5110000 		.4byte	.LASF210
 9104 24cf 08       		.byte	0x8
 9105 24d0 E602     		.2byte	0x2e6
 9106 24d2 2C       		.uleb128 0x2c
 9107 24d3 A7070000 		.4byte	.LASF211
 9108 24d7 A7070000 		.4byte	.LASF211
 9109 24db 08       		.byte	0x8
 9110 24dc 6B03     		.2byte	0x36b
 9111 24de 2A       		.uleb128 0x2a
 9112 24df 57060000 		.4byte	.LASF212
 9113 24e3 57060000 		.4byte	.LASF212
 9114 24e7 09       		.byte	0x9
 9115 24e8 C3       		.byte	0xc3
 9116 24e9 2A       		.uleb128 0x2a
 9117 24ea 73020000 		.4byte	.LASF213
 9118 24ee 73020000 		.4byte	.LASF213
 9119 24f2 09       		.byte	0x9
 9120 24f3 E9       		.byte	0xe9
 9121 24f4 2A       		.uleb128 0x2a
 9122 24f5 71100000 		.4byte	.LASF214
 9123 24f9 71100000 		.4byte	.LASF214
 9124 24fd 09       		.byte	0x9
 9125 24fe CD       		.byte	0xcd
 9126 24ff 2C       		.uleb128 0x2c
 9127 2500 39000000 		.4byte	.LASF215
 9128 2504 39000000 		.4byte	.LASF215
 9129 2508 0D       		.byte	0xd
 9130 2509 5502     		.2byte	0x255
ARM GAS  C:\Users\Phuong\AppData\Local\Temp\ccG6FMOL.s 			page 191


 9131 250b 2A       		.uleb128 0x2a
 9132 250c 5E100000 		.4byte	.LASF216
 9133 2510 5E100000 		.4byte	.LASF216
 9134 2514 0F       		.byte	0xf
 9135 2515 54       		.byte	0x54
 9136 2516 2A       		.uleb128 0x2a
 9137 2517 EC0C0000 		.4byte	.LASF217
 9138 251b EC0C0000 		.4byte	.LASF217
 9139 251f 0F       		.byte	0xf
 9140 2520 3F       		.byte	0x3f
 9141 2521 2A       		.uleb128 0x2a
 9142 2522 F8010000 		.4byte	.LASF218
 9143 2526 F8010000 		.4byte	.LASF218
 9144 252a 10       		.byte	0x10
 9145 252b 3C       		.byte	0x3c
 9146 252c 2A       		.uleb128 0x2a
 9147 252d 7A120000 		.4byte	.LASF219
 9148 2531 7A120000 		.4byte	.LASF219
 9149 2535 11       		.byte	0x11
 9150 2536 56       		.byte	0x56
 9151 2537 2B       		.uleb128 0x2b
 9152 2538 640C0000 		.4byte	.LASF221
 9153 253c 640C0000 		.4byte	.LASF221
 9154 2540 2A       		.uleb128 0x2a
 9155 2541 5F130000 		.4byte	.LASF222
 9156 2545 5F130000 		.4byte	.LASF222
 9157 2549 12       		.byte	0x12
 9158 254a 42       		.byte	0x42
 9159 254b 2A       		.uleb128 0x2a
 9160 254c 94080000 		.4byte	.LASF223
 9161 2550 94080000 		.4byte	.LASF223
 9162 2554 11       		.byte	0x11
 9163 2555 59       		.byte	0x59
 9164 2556 2A       		.uleb128 0x2a
 9165 2557 31090000 		.4byte	.LASF224
 9166 255b 31090000 		.4byte	.LASF224
 9167 255f 0C       		.byte	0xc
 9168 2560 43       		.byte	0x43
 9169 2561 2A       		.uleb128 0x2a
 9170 2562 9C050000 		.4byte	.LASF225
 9171 2566 9C050000 		.4byte	.LASF225
 9172 256a 0C       		.byte	0xc
 9173 256b 5B       		.byte	0x5b
 9174 256c 2A       		.uleb128 0x2a
 9175 256d 360B0000 		.4byte	.LASF226
 9176 2571 360B0000 		.4byte	.LASF226
 9177 2575 0C       		.byte	0xc
 9178 2576 65       		.byte	0x65
 9179 2577 00       		.byte	0
 9180              		.section	.debug_abbrev,"",%progbits
 9181              	.Ldebug_abbrev0:
 9182 0000 01       		.uleb128 0x1
 9183 0001 11       		.uleb128 0x11
 9184 0002 01       		.byte	0x1
 9185 0003 25       		.uleb128 0x25
 9186 0004 0E       		.uleb128 0xe
 9187 0005 13       		.uleb128 0x13
ARM GAS  C:\Users\Phuong\AppData\Local\Temp\ccG6FMOL.s 			page 192


 9188 0006 0B       		.uleb128 0xb
 9189 0007 03       		.uleb128 0x3
 9190 0008 0E       		.uleb128 0xe
 9191 0009 1B       		.uleb128 0x1b
 9192 000a 0E       		.uleb128 0xe
 9193 000b 55       		.uleb128 0x55
 9194 000c 17       		.uleb128 0x17
 9195 000d 11       		.uleb128 0x11
 9196 000e 01       		.uleb128 0x1
 9197 000f 10       		.uleb128 0x10
 9198 0010 17       		.uleb128 0x17
 9199 0011 00       		.byte	0
 9200 0012 00       		.byte	0
 9201 0013 02       		.uleb128 0x2
 9202 0014 24       		.uleb128 0x24
 9203 0015 00       		.byte	0
 9204 0016 0B       		.uleb128 0xb
 9205 0017 0B       		.uleb128 0xb
 9206 0018 3E       		.uleb128 0x3e
 9207 0019 0B       		.uleb128 0xb
 9208 001a 03       		.uleb128 0x3
 9209 001b 0E       		.uleb128 0xe
 9210 001c 00       		.byte	0
 9211 001d 00       		.byte	0
 9212 001e 03       		.uleb128 0x3
 9213 001f 16       		.uleb128 0x16
 9214 0020 00       		.byte	0
 9215 0021 03       		.uleb128 0x3
 9216 0022 0E       		.uleb128 0xe
 9217 0023 3A       		.uleb128 0x3a
 9218 0024 0B       		.uleb128 0xb
 9219 0025 3B       		.uleb128 0x3b
 9220 0026 0B       		.uleb128 0xb
 9221 0027 49       		.uleb128 0x49
 9222 0028 13       		.uleb128 0x13
 9223 0029 00       		.byte	0
 9224 002a 00       		.byte	0
 9225 002b 04       		.uleb128 0x4
 9226 002c 24       		.uleb128 0x24
 9227 002d 00       		.byte	0
 9228 002e 0B       		.uleb128 0xb
 9229 002f 0B       		.uleb128 0xb
 9230 0030 3E       		.uleb128 0x3e
 9231 0031 0B       		.uleb128 0xb
 9232 0032 03       		.uleb128 0x3
 9233 0033 08       		.uleb128 0x8
 9234 0034 00       		.byte	0
 9235 0035 00       		.byte	0
 9236 0036 05       		.uleb128 0x5
 9237 0037 04       		.uleb128 0x4
 9238 0038 01       		.byte	0x1
 9239 0039 0B       		.uleb128 0xb
 9240 003a 0B       		.uleb128 0xb
 9241 003b 49       		.uleb128 0x49
 9242 003c 13       		.uleb128 0x13
 9243 003d 3A       		.uleb128 0x3a
 9244 003e 0B       		.uleb128 0xb
ARM GAS  C:\Users\Phuong\AppData\Local\Temp\ccG6FMOL.s 			page 193


 9245 003f 3B       		.uleb128 0x3b
 9246 0040 0B       		.uleb128 0xb
 9247 0041 01       		.uleb128 0x1
 9248 0042 13       		.uleb128 0x13
 9249 0043 00       		.byte	0
 9250 0044 00       		.byte	0
 9251 0045 06       		.uleb128 0x6
 9252 0046 28       		.uleb128 0x28
 9253 0047 00       		.byte	0
 9254 0048 03       		.uleb128 0x3
 9255 0049 0E       		.uleb128 0xe
 9256 004a 1C       		.uleb128 0x1c
 9257 004b 0B       		.uleb128 0xb
 9258 004c 00       		.byte	0
 9259 004d 00       		.byte	0
 9260 004e 07       		.uleb128 0x7
 9261 004f 0F       		.uleb128 0xf
 9262 0050 00       		.byte	0
 9263 0051 0B       		.uleb128 0xb
 9264 0052 0B       		.uleb128 0xb
 9265 0053 00       		.byte	0
 9266 0054 00       		.byte	0
 9267 0055 08       		.uleb128 0x8
 9268 0056 13       		.uleb128 0x13
 9269 0057 01       		.byte	0x1
 9270 0058 03       		.uleb128 0x3
 9271 0059 0E       		.uleb128 0xe
 9272 005a 0B       		.uleb128 0xb
 9273 005b 0B       		.uleb128 0xb
 9274 005c 3A       		.uleb128 0x3a
 9275 005d 0B       		.uleb128 0xb
 9276 005e 3B       		.uleb128 0x3b
 9277 005f 0B       		.uleb128 0xb
 9278 0060 01       		.uleb128 0x1
 9279 0061 13       		.uleb128 0x13
 9280 0062 00       		.byte	0
 9281 0063 00       		.byte	0
 9282 0064 09       		.uleb128 0x9
 9283 0065 0D       		.uleb128 0xd
 9284 0066 00       		.byte	0
 9285 0067 03       		.uleb128 0x3
 9286 0068 08       		.uleb128 0x8
 9287 0069 3A       		.uleb128 0x3a
 9288 006a 0B       		.uleb128 0xb
 9289 006b 3B       		.uleb128 0x3b
 9290 006c 0B       		.uleb128 0xb
 9291 006d 49       		.uleb128 0x49
 9292 006e 13       		.uleb128 0x13
 9293 006f 38       		.uleb128 0x38
 9294 0070 0B       		.uleb128 0xb
 9295 0071 00       		.byte	0
 9296 0072 00       		.byte	0
 9297 0073 0A       		.uleb128 0xa
 9298 0074 0F       		.uleb128 0xf
 9299 0075 00       		.byte	0
 9300 0076 0B       		.uleb128 0xb
 9301 0077 0B       		.uleb128 0xb
ARM GAS  C:\Users\Phuong\AppData\Local\Temp\ccG6FMOL.s 			page 194


 9302 0078 49       		.uleb128 0x49
 9303 0079 13       		.uleb128 0x13
 9304 007a 00       		.byte	0
 9305 007b 00       		.byte	0
 9306 007c 0B       		.uleb128 0xb
 9307 007d 0D       		.uleb128 0xd
 9308 007e 00       		.byte	0
 9309 007f 03       		.uleb128 0x3
 9310 0080 0E       		.uleb128 0xe
 9311 0081 3A       		.uleb128 0x3a
 9312 0082 0B       		.uleb128 0xb
 9313 0083 3B       		.uleb128 0x3b
 9314 0084 0B       		.uleb128 0xb
 9315 0085 49       		.uleb128 0x49
 9316 0086 13       		.uleb128 0x13
 9317 0087 38       		.uleb128 0x38
 9318 0088 0B       		.uleb128 0xb
 9319 0089 00       		.byte	0
 9320 008a 00       		.byte	0
 9321 008b 0C       		.uleb128 0xc
 9322 008c 15       		.uleb128 0x15
 9323 008d 01       		.byte	0x1
 9324 008e 27       		.uleb128 0x27
 9325 008f 19       		.uleb128 0x19
 9326 0090 49       		.uleb128 0x49
 9327 0091 13       		.uleb128 0x13
 9328 0092 01       		.uleb128 0x1
 9329 0093 13       		.uleb128 0x13
 9330 0094 00       		.byte	0
 9331 0095 00       		.byte	0
 9332 0096 0D       		.uleb128 0xd
 9333 0097 05       		.uleb128 0x5
 9334 0098 00       		.byte	0
 9335 0099 49       		.uleb128 0x49
 9336 009a 13       		.uleb128 0x13
 9337 009b 00       		.byte	0
 9338 009c 00       		.byte	0
 9339 009d 0E       		.uleb128 0xe
 9340 009e 13       		.uleb128 0x13
 9341 009f 01       		.byte	0x1
 9342 00a0 03       		.uleb128 0x3
 9343 00a1 0E       		.uleb128 0xe
 9344 00a2 0B       		.uleb128 0xb
 9345 00a3 0B       		.uleb128 0xb
 9346 00a4 3A       		.uleb128 0x3a
 9347 00a5 0B       		.uleb128 0xb
 9348 00a6 3B       		.uleb128 0x3b
 9349 00a7 05       		.uleb128 0x5
 9350 00a8 01       		.uleb128 0x1
 9351 00a9 13       		.uleb128 0x13
 9352 00aa 00       		.byte	0
 9353 00ab 00       		.byte	0
 9354 00ac 0F       		.uleb128 0xf
 9355 00ad 0D       		.uleb128 0xd
 9356 00ae 00       		.byte	0
 9357 00af 03       		.uleb128 0x3
 9358 00b0 08       		.uleb128 0x8
ARM GAS  C:\Users\Phuong\AppData\Local\Temp\ccG6FMOL.s 			page 195


 9359 00b1 3A       		.uleb128 0x3a
 9360 00b2 0B       		.uleb128 0xb
 9361 00b3 3B       		.uleb128 0x3b
 9362 00b4 05       		.uleb128 0x5
 9363 00b5 49       		.uleb128 0x49
 9364 00b6 13       		.uleb128 0x13
 9365 00b7 38       		.uleb128 0x38
 9366 00b8 0B       		.uleb128 0xb
 9367 00b9 00       		.byte	0
 9368 00ba 00       		.byte	0
 9369 00bb 10       		.uleb128 0x10
 9370 00bc 16       		.uleb128 0x16
 9371 00bd 00       		.byte	0
 9372 00be 03       		.uleb128 0x3
 9373 00bf 0E       		.uleb128 0xe
 9374 00c0 3A       		.uleb128 0x3a
 9375 00c1 0B       		.uleb128 0xb
 9376 00c2 3B       		.uleb128 0x3b
 9377 00c3 05       		.uleb128 0x5
 9378 00c4 49       		.uleb128 0x49
 9379 00c5 13       		.uleb128 0x13
 9380 00c6 00       		.byte	0
 9381 00c7 00       		.byte	0
 9382 00c8 11       		.uleb128 0x11
 9383 00c9 13       		.uleb128 0x13
 9384 00ca 00       		.byte	0
 9385 00cb 03       		.uleb128 0x3
 9386 00cc 0E       		.uleb128 0xe
 9387 00cd 3C       		.uleb128 0x3c
 9388 00ce 19       		.uleb128 0x19
 9389 00cf 00       		.byte	0
 9390 00d0 00       		.byte	0
 9391 00d1 12       		.uleb128 0x12
 9392 00d2 26       		.uleb128 0x26
 9393 00d3 00       		.byte	0
 9394 00d4 49       		.uleb128 0x49
 9395 00d5 13       		.uleb128 0x13
 9396 00d6 00       		.byte	0
 9397 00d7 00       		.byte	0
 9398 00d8 13       		.uleb128 0x13
 9399 00d9 2E       		.uleb128 0x2e
 9400 00da 01       		.byte	0x1
 9401 00db 03       		.uleb128 0x3
 9402 00dc 0E       		.uleb128 0xe
 9403 00dd 3A       		.uleb128 0x3a
 9404 00de 0B       		.uleb128 0xb
 9405 00df 3B       		.uleb128 0x3b
 9406 00e0 0B       		.uleb128 0xb
 9407 00e1 27       		.uleb128 0x27
 9408 00e2 19       		.uleb128 0x19
 9409 00e3 49       		.uleb128 0x49
 9410 00e4 13       		.uleb128 0x13
 9411 00e5 20       		.uleb128 0x20
 9412 00e6 0B       		.uleb128 0xb
 9413 00e7 01       		.uleb128 0x1
 9414 00e8 13       		.uleb128 0x13
 9415 00e9 00       		.byte	0
ARM GAS  C:\Users\Phuong\AppData\Local\Temp\ccG6FMOL.s 			page 196


 9416 00ea 00       		.byte	0
 9417 00eb 14       		.uleb128 0x14
 9418 00ec 05       		.uleb128 0x5
 9419 00ed 00       		.byte	0
 9420 00ee 03       		.uleb128 0x3
 9421 00ef 08       		.uleb128 0x8
 9422 00f0 3A       		.uleb128 0x3a
 9423 00f1 0B       		.uleb128 0xb
 9424 00f2 3B       		.uleb128 0x3b
 9425 00f3 0B       		.uleb128 0xb
 9426 00f4 49       		.uleb128 0x49
 9427 00f5 13       		.uleb128 0x13
 9428 00f6 00       		.byte	0
 9429 00f7 00       		.byte	0
 9430 00f8 15       		.uleb128 0x15
 9431 00f9 2E       		.uleb128 0x2e
 9432 00fa 01       		.byte	0x1
 9433 00fb 03       		.uleb128 0x3
 9434 00fc 0E       		.uleb128 0xe
 9435 00fd 3A       		.uleb128 0x3a
 9436 00fe 0B       		.uleb128 0xb
 9437 00ff 3B       		.uleb128 0x3b
 9438 0100 0B       		.uleb128 0xb
 9439 0101 27       		.uleb128 0x27
 9440 0102 19       		.uleb128 0x19
 9441 0103 49       		.uleb128 0x49
 9442 0104 13       		.uleb128 0x13
 9443 0105 11       		.uleb128 0x11
 9444 0106 01       		.uleb128 0x1
 9445 0107 12       		.uleb128 0x12
 9446 0108 06       		.uleb128 0x6
 9447 0109 40       		.uleb128 0x40
 9448 010a 18       		.uleb128 0x18
 9449 010b 9742     		.uleb128 0x2117
 9450 010d 19       		.uleb128 0x19
 9451 010e 01       		.uleb128 0x1
 9452 010f 13       		.uleb128 0x13
 9453 0110 00       		.byte	0
 9454 0111 00       		.byte	0
 9455 0112 16       		.uleb128 0x16
 9456 0113 05       		.uleb128 0x5
 9457 0114 00       		.byte	0
 9458 0115 03       		.uleb128 0x3
 9459 0116 08       		.uleb128 0x8
 9460 0117 3A       		.uleb128 0x3a
 9461 0118 0B       		.uleb128 0xb
 9462 0119 3B       		.uleb128 0x3b
 9463 011a 0B       		.uleb128 0xb
 9464 011b 49       		.uleb128 0x49
 9465 011c 13       		.uleb128 0x13
 9466 011d 02       		.uleb128 0x2
 9467 011e 17       		.uleb128 0x17
 9468 011f 00       		.byte	0
 9469 0120 00       		.byte	0
 9470 0121 17       		.uleb128 0x17
 9471 0122 05       		.uleb128 0x5
 9472 0123 00       		.byte	0
ARM GAS  C:\Users\Phuong\AppData\Local\Temp\ccG6FMOL.s 			page 197


 9473 0124 03       		.uleb128 0x3
 9474 0125 0E       		.uleb128 0xe
 9475 0126 3A       		.uleb128 0x3a
 9476 0127 0B       		.uleb128 0xb
 9477 0128 3B       		.uleb128 0x3b
 9478 0129 0B       		.uleb128 0xb
 9479 012a 49       		.uleb128 0x49
 9480 012b 13       		.uleb128 0x13
 9481 012c 02       		.uleb128 0x2
 9482 012d 17       		.uleb128 0x17
 9483 012e 00       		.byte	0
 9484 012f 00       		.byte	0
 9485 0130 18       		.uleb128 0x18
 9486 0131 34       		.uleb128 0x34
 9487 0132 00       		.byte	0
 9488 0133 03       		.uleb128 0x3
 9489 0134 08       		.uleb128 0x8
 9490 0135 3A       		.uleb128 0x3a
 9491 0136 0B       		.uleb128 0xb
 9492 0137 3B       		.uleb128 0x3b
 9493 0138 0B       		.uleb128 0xb
 9494 0139 49       		.uleb128 0x49
 9495 013a 13       		.uleb128 0x13
 9496 013b 02       		.uleb128 0x2
 9497 013c 17       		.uleb128 0x17
 9498 013d 00       		.byte	0
 9499 013e 00       		.byte	0
 9500 013f 19       		.uleb128 0x19
 9501 0140 898201   		.uleb128 0x4109
 9502 0143 01       		.byte	0x1
 9503 0144 11       		.uleb128 0x11
 9504 0145 01       		.uleb128 0x1
 9505 0146 31       		.uleb128 0x31
 9506 0147 13       		.uleb128 0x13
 9507 0148 00       		.byte	0
 9508 0149 00       		.byte	0
 9509 014a 1A       		.uleb128 0x1a
 9510 014b 8A8201   		.uleb128 0x410a
 9511 014e 00       		.byte	0
 9512 014f 02       		.uleb128 0x2
 9513 0150 18       		.uleb128 0x18
 9514 0151 9142     		.uleb128 0x2111
 9515 0153 18       		.uleb128 0x18
 9516 0154 00       		.byte	0
 9517 0155 00       		.byte	0
 9518 0156 1B       		.uleb128 0x1b
 9519 0157 2E       		.uleb128 0x2e
 9520 0158 01       		.byte	0x1
 9521 0159 03       		.uleb128 0x3
 9522 015a 0E       		.uleb128 0xe
 9523 015b 3A       		.uleb128 0x3a
 9524 015c 0B       		.uleb128 0xb
 9525 015d 3B       		.uleb128 0x3b
 9526 015e 05       		.uleb128 0x5
 9527 015f 27       		.uleb128 0x27
 9528 0160 19       		.uleb128 0x19
 9529 0161 49       		.uleb128 0x49
ARM GAS  C:\Users\Phuong\AppData\Local\Temp\ccG6FMOL.s 			page 198


 9530 0162 13       		.uleb128 0x13
 9531 0163 11       		.uleb128 0x11
 9532 0164 01       		.uleb128 0x1
 9533 0165 12       		.uleb128 0x12
 9534 0166 06       		.uleb128 0x6
 9535 0167 40       		.uleb128 0x40
 9536 0168 18       		.uleb128 0x18
 9537 0169 9742     		.uleb128 0x2117
 9538 016b 19       		.uleb128 0x19
 9539 016c 01       		.uleb128 0x1
 9540 016d 13       		.uleb128 0x13
 9541 016e 00       		.byte	0
 9542 016f 00       		.byte	0
 9543 0170 1C       		.uleb128 0x1c
 9544 0171 05       		.uleb128 0x5
 9545 0172 00       		.byte	0
 9546 0173 03       		.uleb128 0x3
 9547 0174 08       		.uleb128 0x8
 9548 0175 3A       		.uleb128 0x3a
 9549 0176 0B       		.uleb128 0xb
 9550 0177 3B       		.uleb128 0x3b
 9551 0178 05       		.uleb128 0x5
 9552 0179 49       		.uleb128 0x49
 9553 017a 13       		.uleb128 0x13
 9554 017b 02       		.uleb128 0x2
 9555 017c 17       		.uleb128 0x17
 9556 017d 00       		.byte	0
 9557 017e 00       		.byte	0
 9558 017f 1D       		.uleb128 0x1d
 9559 0180 05       		.uleb128 0x5
 9560 0181 00       		.byte	0
 9561 0182 03       		.uleb128 0x3
 9562 0183 0E       		.uleb128 0xe
 9563 0184 3A       		.uleb128 0x3a
 9564 0185 0B       		.uleb128 0xb
 9565 0186 3B       		.uleb128 0x3b
 9566 0187 05       		.uleb128 0x5
 9567 0188 49       		.uleb128 0x49
 9568 0189 13       		.uleb128 0x13
 9569 018a 02       		.uleb128 0x2
 9570 018b 17       		.uleb128 0x17
 9571 018c 00       		.byte	0
 9572 018d 00       		.byte	0
 9573 018e 1E       		.uleb128 0x1e
 9574 018f 34       		.uleb128 0x34
 9575 0190 00       		.byte	0
 9576 0191 03       		.uleb128 0x3
 9577 0192 08       		.uleb128 0x8
 9578 0193 3A       		.uleb128 0x3a
 9579 0194 0B       		.uleb128 0xb
 9580 0195 3B       		.uleb128 0x3b
 9581 0196 05       		.uleb128 0x5
 9582 0197 49       		.uleb128 0x49
 9583 0198 13       		.uleb128 0x13
 9584 0199 02       		.uleb128 0x2
 9585 019a 17       		.uleb128 0x17
 9586 019b 00       		.byte	0
ARM GAS  C:\Users\Phuong\AppData\Local\Temp\ccG6FMOL.s 			page 199


 9587 019c 00       		.byte	0
 9588 019d 1F       		.uleb128 0x1f
 9589 019e 34       		.uleb128 0x34
 9590 019f 00       		.byte	0
 9591 01a0 03       		.uleb128 0x3
 9592 01a1 0E       		.uleb128 0xe
 9593 01a2 3A       		.uleb128 0x3a
 9594 01a3 0B       		.uleb128 0xb
 9595 01a4 3B       		.uleb128 0x3b
 9596 01a5 05       		.uleb128 0x5
 9597 01a6 49       		.uleb128 0x49
 9598 01a7 13       		.uleb128 0x13
 9599 01a8 02       		.uleb128 0x2
 9600 01a9 18       		.uleb128 0x18
 9601 01aa 00       		.byte	0
 9602 01ab 00       		.byte	0
 9603 01ac 20       		.uleb128 0x20
 9604 01ad 898201   		.uleb128 0x4109
 9605 01b0 01       		.byte	0x1
 9606 01b1 11       		.uleb128 0x11
 9607 01b2 01       		.uleb128 0x1
 9608 01b3 31       		.uleb128 0x31
 9609 01b4 13       		.uleb128 0x13
 9610 01b5 01       		.uleb128 0x1
 9611 01b6 13       		.uleb128 0x13
 9612 01b7 00       		.byte	0
 9613 01b8 00       		.byte	0
 9614 01b9 21       		.uleb128 0x21
 9615 01ba 34       		.uleb128 0x34
 9616 01bb 00       		.byte	0
 9617 01bc 03       		.uleb128 0x3
 9618 01bd 08       		.uleb128 0x8
 9619 01be 3A       		.uleb128 0x3a
 9620 01bf 0B       		.uleb128 0xb
 9621 01c0 3B       		.uleb128 0x3b
 9622 01c1 05       		.uleb128 0x5
 9623 01c2 49       		.uleb128 0x49
 9624 01c3 13       		.uleb128 0x13
 9625 01c4 02       		.uleb128 0x2
 9626 01c5 18       		.uleb128 0x18
 9627 01c6 00       		.byte	0
 9628 01c7 00       		.byte	0
 9629 01c8 22       		.uleb128 0x22
 9630 01c9 34       		.uleb128 0x34
 9631 01ca 00       		.byte	0
 9632 01cb 03       		.uleb128 0x3
 9633 01cc 08       		.uleb128 0x8
 9634 01cd 3A       		.uleb128 0x3a
 9635 01ce 0B       		.uleb128 0xb
 9636 01cf 3B       		.uleb128 0x3b
 9637 01d0 0B       		.uleb128 0xb
 9638 01d1 49       		.uleb128 0x49
 9639 01d2 13       		.uleb128 0x13
 9640 01d3 02       		.uleb128 0x2
 9641 01d4 18       		.uleb128 0x18
 9642 01d5 00       		.byte	0
 9643 01d6 00       		.byte	0
ARM GAS  C:\Users\Phuong\AppData\Local\Temp\ccG6FMOL.s 			page 200


 9644 01d7 23       		.uleb128 0x23
 9645 01d8 34       		.uleb128 0x34
 9646 01d9 00       		.byte	0
 9647 01da 03       		.uleb128 0x3
 9648 01db 0E       		.uleb128 0xe
 9649 01dc 3A       		.uleb128 0x3a
 9650 01dd 0B       		.uleb128 0xb
 9651 01de 3B       		.uleb128 0x3b
 9652 01df 0B       		.uleb128 0xb
 9653 01e0 49       		.uleb128 0x49
 9654 01e1 13       		.uleb128 0x13
 9655 01e2 02       		.uleb128 0x2
 9656 01e3 17       		.uleb128 0x17
 9657 01e4 00       		.byte	0
 9658 01e5 00       		.byte	0
 9659 01e6 24       		.uleb128 0x24
 9660 01e7 0A       		.uleb128 0xa
 9661 01e8 00       		.byte	0
 9662 01e9 03       		.uleb128 0x3
 9663 01ea 0E       		.uleb128 0xe
 9664 01eb 3A       		.uleb128 0x3a
 9665 01ec 0B       		.uleb128 0xb
 9666 01ed 3B       		.uleb128 0x3b
 9667 01ee 05       		.uleb128 0x5
 9668 01ef 11       		.uleb128 0x11
 9669 01f0 01       		.uleb128 0x1
 9670 01f1 00       		.byte	0
 9671 01f2 00       		.byte	0
 9672 01f3 25       		.uleb128 0x25
 9673 01f4 898201   		.uleb128 0x4109
 9674 01f7 00       		.byte	0
 9675 01f8 11       		.uleb128 0x11
 9676 01f9 01       		.uleb128 0x1
 9677 01fa 31       		.uleb128 0x31
 9678 01fb 13       		.uleb128 0x13
 9679 01fc 00       		.byte	0
 9680 01fd 00       		.byte	0
 9681 01fe 26       		.uleb128 0x26
 9682 01ff 34       		.uleb128 0x34
 9683 0200 00       		.byte	0
 9684 0201 03       		.uleb128 0x3
 9685 0202 0E       		.uleb128 0xe
 9686 0203 3A       		.uleb128 0x3a
 9687 0204 0B       		.uleb128 0xb
 9688 0205 3B       		.uleb128 0x3b
 9689 0206 05       		.uleb128 0x5
 9690 0207 49       		.uleb128 0x49
 9691 0208 13       		.uleb128 0x13
 9692 0209 02       		.uleb128 0x2
 9693 020a 17       		.uleb128 0x17
 9694 020b 00       		.byte	0
 9695 020c 00       		.byte	0
 9696 020d 27       		.uleb128 0x27
 9697 020e 05       		.uleb128 0x5
 9698 020f 00       		.byte	0
 9699 0210 03       		.uleb128 0x3
 9700 0211 0E       		.uleb128 0xe
ARM GAS  C:\Users\Phuong\AppData\Local\Temp\ccG6FMOL.s 			page 201


 9701 0212 3A       		.uleb128 0x3a
 9702 0213 0B       		.uleb128 0xb
 9703 0214 3B       		.uleb128 0x3b
 9704 0215 05       		.uleb128 0x5
 9705 0216 49       		.uleb128 0x49
 9706 0217 13       		.uleb128 0x13
 9707 0218 02       		.uleb128 0x2
 9708 0219 18       		.uleb128 0x18
 9709 021a 00       		.byte	0
 9710 021b 00       		.byte	0
 9711 021c 28       		.uleb128 0x28
 9712 021d 2E       		.uleb128 0x2e
 9713 021e 01       		.byte	0x1
 9714 021f 3F       		.uleb128 0x3f
 9715 0220 19       		.uleb128 0x19
 9716 0221 03       		.uleb128 0x3
 9717 0222 0E       		.uleb128 0xe
 9718 0223 3A       		.uleb128 0x3a
 9719 0224 0B       		.uleb128 0xb
 9720 0225 3B       		.uleb128 0x3b
 9721 0226 05       		.uleb128 0x5
 9722 0227 27       		.uleb128 0x27
 9723 0228 19       		.uleb128 0x19
 9724 0229 49       		.uleb128 0x49
 9725 022a 13       		.uleb128 0x13
 9726 022b 11       		.uleb128 0x11
 9727 022c 01       		.uleb128 0x1
 9728 022d 12       		.uleb128 0x12
 9729 022e 06       		.uleb128 0x6
 9730 022f 40       		.uleb128 0x40
 9731 0230 18       		.uleb128 0x18
 9732 0231 9742     		.uleb128 0x2117
 9733 0233 19       		.uleb128 0x19
 9734 0234 01       		.uleb128 0x1
 9735 0235 13       		.uleb128 0x13
 9736 0236 00       		.byte	0
 9737 0237 00       		.byte	0
 9738 0238 29       		.uleb128 0x29
 9739 0239 0B       		.uleb128 0xb
 9740 023a 01       		.byte	0x1
 9741 023b 55       		.uleb128 0x55
 9742 023c 17       		.uleb128 0x17
 9743 023d 01       		.uleb128 0x1
 9744 023e 13       		.uleb128 0x13
 9745 023f 00       		.byte	0
 9746 0240 00       		.byte	0
 9747 0241 2A       		.uleb128 0x2a
 9748 0242 2E       		.uleb128 0x2e
 9749 0243 00       		.byte	0
 9750 0244 3F       		.uleb128 0x3f
 9751 0245 19       		.uleb128 0x19
 9752 0246 3C       		.uleb128 0x3c
 9753 0247 19       		.uleb128 0x19
 9754 0248 6E       		.uleb128 0x6e
 9755 0249 0E       		.uleb128 0xe
 9756 024a 03       		.uleb128 0x3
 9757 024b 0E       		.uleb128 0xe
ARM GAS  C:\Users\Phuong\AppData\Local\Temp\ccG6FMOL.s 			page 202


 9758 024c 3A       		.uleb128 0x3a
 9759 024d 0B       		.uleb128 0xb
 9760 024e 3B       		.uleb128 0x3b
 9761 024f 0B       		.uleb128 0xb
 9762 0250 00       		.byte	0
 9763 0251 00       		.byte	0
 9764 0252 2B       		.uleb128 0x2b
 9765 0253 2E       		.uleb128 0x2e
 9766 0254 00       		.byte	0
 9767 0255 3F       		.uleb128 0x3f
 9768 0256 19       		.uleb128 0x19
 9769 0257 3C       		.uleb128 0x3c
 9770 0258 19       		.uleb128 0x19
 9771 0259 6E       		.uleb128 0x6e
 9772 025a 0E       		.uleb128 0xe
 9773 025b 03       		.uleb128 0x3
 9774 025c 0E       		.uleb128 0xe
 9775 025d 00       		.byte	0
 9776 025e 00       		.byte	0
 9777 025f 2C       		.uleb128 0x2c
 9778 0260 2E       		.uleb128 0x2e
 9779 0261 00       		.byte	0
 9780 0262 3F       		.uleb128 0x3f
 9781 0263 19       		.uleb128 0x19
 9782 0264 3C       		.uleb128 0x3c
 9783 0265 19       		.uleb128 0x19
 9784 0266 6E       		.uleb128 0x6e
 9785 0267 0E       		.uleb128 0xe
 9786 0268 03       		.uleb128 0x3
 9787 0269 0E       		.uleb128 0xe
 9788 026a 3A       		.uleb128 0x3a
 9789 026b 0B       		.uleb128 0xb
 9790 026c 3B       		.uleb128 0x3b
 9791 026d 05       		.uleb128 0x5
 9792 026e 00       		.byte	0
 9793 026f 00       		.byte	0
 9794 0270 00       		.byte	0
 9795              		.section	.debug_loc,"",%progbits
 9796              	.Ldebug_loc0:
 9797              	.LLST0:
 9798 0000 00000000 		.4byte	.LVL0
 9799 0004 22000000 		.4byte	.LVL3
 9800 0008 0100     		.2byte	0x1
 9801 000a 50       		.byte	0x50
 9802 000b 22000000 		.4byte	.LVL3
 9803 000f 48000000 		.4byte	.LVL8
 9804 0013 0100     		.2byte	0x1
 9805 0015 54       		.byte	0x54
 9806 0016 48000000 		.4byte	.LVL8
 9807 001a 4A000000 		.4byte	.LVL9
 9808 001e 0100     		.2byte	0x1
 9809 0020 50       		.byte	0x50
 9810 0021 4A000000 		.4byte	.LVL9
 9811 0025 4C000000 		.4byte	.LVL10
 9812 0029 0100     		.2byte	0x1
 9813 002b 54       		.byte	0x54
 9814 002c 4C000000 		.4byte	.LVL10
ARM GAS  C:\Users\Phuong\AppData\Local\Temp\ccG6FMOL.s 			page 203


 9815 0030 4E000000 		.4byte	.LVL11
 9816 0034 0100     		.2byte	0x1
 9817 0036 50       		.byte	0x50
 9818 0037 4E000000 		.4byte	.LVL11
 9819 003b 52000000 		.4byte	.LVL14
 9820 003f 0100     		.2byte	0x1
 9821 0041 54       		.byte	0x54
 9822 0042 52000000 		.4byte	.LVL14
 9823 0046 64000000 		.4byte	.LFE11
 9824 004a 0400     		.2byte	0x4
 9825 004c F3       		.byte	0xf3
 9826 004d 01       		.uleb128 0x1
 9827 004e 50       		.byte	0x50
 9828 004f 9F       		.byte	0x9f
 9829 0050 00000000 		.4byte	0
 9830 0054 00000000 		.4byte	0
 9831              	.LLST1:
 9832 0058 00000000 		.4byte	.LVL0
 9833 005c 20000000 		.4byte	.LVL2
 9834 0060 0100     		.2byte	0x1
 9835 0062 51       		.byte	0x51
 9836 0063 20000000 		.4byte	.LVL2
 9837 0067 48000000 		.4byte	.LVL8
 9838 006b 0100     		.2byte	0x1
 9839 006d 56       		.byte	0x56
 9840 006e 48000000 		.4byte	.LVL8
 9841 0072 50000000 		.4byte	.LVL12
 9842 0076 0100     		.2byte	0x1
 9843 0078 51       		.byte	0x51
 9844 0079 50000000 		.4byte	.LVL12
 9845 007d 52000000 		.4byte	.LVL16
 9846 0081 0100     		.2byte	0x1
 9847 0083 56       		.byte	0x56
 9848 0084 52000000 		.4byte	.LVL16
 9849 0088 64000000 		.4byte	.LFE11
 9850 008c 0400     		.2byte	0x4
 9851 008e F3       		.byte	0xf3
 9852 008f 01       		.uleb128 0x1
 9853 0090 51       		.byte	0x51
 9854 0091 9F       		.byte	0x9f
 9855 0092 00000000 		.4byte	0
 9856 0096 00000000 		.4byte	0
 9857              	.LLST2:
 9858 009a 00000000 		.4byte	.LVL0
 9859 009e 0C000000 		.4byte	.LVL1
 9860 00a2 0100     		.2byte	0x1
 9861 00a4 52       		.byte	0x52
 9862 00a5 0C000000 		.4byte	.LVL1
 9863 00a9 52000000 		.4byte	.LVL15
 9864 00ad 0100     		.2byte	0x1
 9865 00af 55       		.byte	0x55
 9866 00b0 52000000 		.4byte	.LVL15
 9867 00b4 64000000 		.4byte	.LFE11
 9868 00b8 0400     		.2byte	0x4
 9869 00ba F3       		.byte	0xf3
 9870 00bb 01       		.uleb128 0x1
 9871 00bc 52       		.byte	0x52
ARM GAS  C:\Users\Phuong\AppData\Local\Temp\ccG6FMOL.s 			page 204


 9872 00bd 9F       		.byte	0x9f
 9873 00be 00000000 		.4byte	0
 9874 00c2 00000000 		.4byte	0
 9875              	.LLST3:
 9876 00c6 26000000 		.4byte	.LVL4
 9877 00ca 30000000 		.4byte	.LVL5
 9878 00ce 0100     		.2byte	0x1
 9879 00d0 50       		.byte	0x50
 9880 00d1 30000000 		.4byte	.LVL5
 9881 00d5 32000000 		.4byte	.LVL6
 9882 00d9 0500     		.2byte	0x5
 9883 00db 70       		.byte	0x70
 9884 00dc 80FA00   		.sleb128 15616
 9885 00df 9F       		.byte	0x9f
 9886 00e0 32000000 		.4byte	.LVL6
 9887 00e4 46000000 		.4byte	.LVL7
 9888 00e8 0100     		.2byte	0x1
 9889 00ea 50       		.byte	0x50
 9890 00eb 50000000 		.4byte	.LVL12
 9891 00ef 52000000 		.4byte	.LVL13
 9892 00f3 0100     		.2byte	0x1
 9893 00f5 50       		.byte	0x50
 9894 00f6 00000000 		.4byte	0
 9895 00fa 00000000 		.4byte	0
 9896              	.LLST4:
 9897 00fe 00000000 		.4byte	.LVL17
 9898 0102 12000000 		.4byte	.LVL20
 9899 0106 0100     		.2byte	0x1
 9900 0108 50       		.byte	0x50
 9901 0109 12000000 		.4byte	.LVL20
 9902 010d 5E000000 		.4byte	.LVL29
 9903 0111 0100     		.2byte	0x1
 9904 0113 56       		.byte	0x56
 9905 0114 5E000000 		.4byte	.LVL29
 9906 0118 68000000 		.4byte	.LFE18
 9907 011c 0400     		.2byte	0x4
 9908 011e F3       		.byte	0xf3
 9909 011f 01       		.uleb128 0x1
 9910 0120 50       		.byte	0x50
 9911 0121 9F       		.byte	0x9f
 9912 0122 00000000 		.4byte	0
 9913 0126 00000000 		.4byte	0
 9914              	.LLST5:
 9915 012a 00000000 		.4byte	.LVL17
 9916 012e 10000000 		.4byte	.LVL19
 9917 0132 0100     		.2byte	0x1
 9918 0134 51       		.byte	0x51
 9919 0135 10000000 		.4byte	.LVL19
 9920 0139 5E000000 		.4byte	.LVL30
 9921 013d 0100     		.2byte	0x1
 9922 013f 57       		.byte	0x57
 9923 0140 5E000000 		.4byte	.LVL30
 9924 0144 68000000 		.4byte	.LFE18
 9925 0148 0400     		.2byte	0x4
 9926 014a F3       		.byte	0xf3
 9927 014b 01       		.uleb128 0x1
 9928 014c 51       		.byte	0x51
ARM GAS  C:\Users\Phuong\AppData\Local\Temp\ccG6FMOL.s 			page 205


 9929 014d 9F       		.byte	0x9f
 9930 014e 00000000 		.4byte	0
 9931 0152 00000000 		.4byte	0
 9932              	.LLST6:
 9933 0156 00000000 		.4byte	.LVL17
 9934 015a 0E000000 		.4byte	.LVL18
 9935 015e 0100     		.2byte	0x1
 9936 0160 52       		.byte	0x52
 9937 0161 0E000000 		.4byte	.LVL18
 9938 0165 5E000000 		.4byte	.LVL28
 9939 0169 0100     		.2byte	0x1
 9940 016b 55       		.byte	0x55
 9941 016c 5E000000 		.4byte	.LVL28
 9942 0170 68000000 		.4byte	.LFE18
 9943 0174 0400     		.2byte	0x4
 9944 0176 F3       		.byte	0xf3
 9945 0177 01       		.uleb128 0x1
 9946 0178 52       		.byte	0x52
 9947 0179 9F       		.byte	0x9f
 9948 017a 00000000 		.4byte	0
 9949 017e 00000000 		.4byte	0
 9950              	.LLST7:
 9951 0182 00000000 		.4byte	.LVL17
 9952 0186 15000000 		.4byte	.LVL21-1
 9953 018a 0100     		.2byte	0x1
 9954 018c 53       		.byte	0x53
 9955 018d 15000000 		.4byte	.LVL21-1
 9956 0191 5E000000 		.4byte	.LVL27
 9957 0195 0100     		.2byte	0x1
 9958 0197 54       		.byte	0x54
 9959 0198 5E000000 		.4byte	.LVL27
 9960 019c 68000000 		.4byte	.LFE18
 9961 01a0 0400     		.2byte	0x4
 9962 01a2 F3       		.byte	0xf3
 9963 01a3 01       		.uleb128 0x1
 9964 01a4 53       		.byte	0x53
 9965 01a5 9F       		.byte	0x9f
 9966 01a6 00000000 		.4byte	0
 9967 01aa 00000000 		.4byte	0
 9968              	.LLST8:
 9969 01ae 22000000 		.4byte	.LVL22
 9970 01b2 2C000000 		.4byte	.LVL23
 9971 01b6 0100     		.2byte	0x1
 9972 01b8 50       		.byte	0x50
 9973 01b9 2C000000 		.4byte	.LVL23
 9974 01bd 2E000000 		.4byte	.LVL24
 9975 01c1 0500     		.2byte	0x5
 9976 01c3 70       		.byte	0x70
 9977 01c4 80F500   		.sleb128 14976
 9978 01c7 9F       		.byte	0x9f
 9979 01c8 2E000000 		.4byte	.LVL24
 9980 01cc 32000000 		.4byte	.LVL25
 9981 01d0 0100     		.2byte	0x1
 9982 01d2 50       		.byte	0x50
 9983 01d3 00000000 		.4byte	0
 9984 01d7 00000000 		.4byte	0
 9985              	.LLST9:
ARM GAS  C:\Users\Phuong\AppData\Local\Temp\ccG6FMOL.s 			page 206


 9986 01db 00000000 		.4byte	.LVL31
 9987 01df 11000000 		.4byte	.LVL33-1
 9988 01e3 0100     		.2byte	0x1
 9989 01e5 50       		.byte	0x50
 9990 01e6 11000000 		.4byte	.LVL33-1
 9991 01ea E0000000 		.4byte	.LVL59
 9992 01ee 0100     		.2byte	0x1
 9993 01f0 56       		.byte	0x56
 9994 01f1 E0000000 		.4byte	.LVL59
 9995 01f5 EC000000 		.4byte	.LFE17
 9996 01f9 0400     		.2byte	0x4
 9997 01fb F3       		.byte	0xf3
 9998 01fc 01       		.uleb128 0x1
 9999 01fd 50       		.byte	0x50
 10000 01fe 9F       		.byte	0x9f
 10001 01ff 00000000 		.4byte	0
 10002 0203 00000000 		.4byte	0
 10003              	.LLST10:
 10004 0207 00000000 		.4byte	.LVL31
 10005 020b 11000000 		.4byte	.LVL33-1
 10006 020f 0100     		.2byte	0x1
 10007 0211 51       		.byte	0x51
 10008 0212 11000000 		.4byte	.LVL33-1
 10009 0216 E0000000 		.4byte	.LVL57
 10010 021a 0100     		.2byte	0x1
 10011 021c 54       		.byte	0x54
 10012 021d E0000000 		.4byte	.LVL57
 10013 0221 EC000000 		.4byte	.LFE17
 10014 0225 0400     		.2byte	0x4
 10015 0227 F3       		.byte	0xf3
 10016 0228 01       		.uleb128 0x1
 10017 0229 51       		.byte	0x51
 10018 022a 9F       		.byte	0x9f
 10019 022b 00000000 		.4byte	0
 10020 022f 00000000 		.4byte	0
 10021              	.LLST11:
 10022 0233 00000000 		.4byte	.LVL31
 10023 0237 0E000000 		.4byte	.LVL32
 10024 023b 0100     		.2byte	0x1
 10025 023d 52       		.byte	0x52
 10026 023e 0E000000 		.4byte	.LVL32
 10027 0242 E0000000 		.4byte	.LVL58
 10028 0246 0100     		.2byte	0x1
 10029 0248 55       		.byte	0x55
 10030 0249 E0000000 		.4byte	.LVL58
 10031 024d EC000000 		.4byte	.LFE17
 10032 0251 0400     		.2byte	0x4
 10033 0253 F3       		.byte	0xf3
 10034 0254 01       		.uleb128 0x1
 10035 0255 52       		.byte	0x52
 10036 0256 9F       		.byte	0x9f
 10037 0257 00000000 		.4byte	0
 10038 025b 00000000 		.4byte	0
 10039              	.LLST12:
 10040 025f 12000000 		.4byte	.LVL33
 10041 0263 1C000000 		.4byte	.LVL34
 10042 0267 0100     		.2byte	0x1
ARM GAS  C:\Users\Phuong\AppData\Local\Temp\ccG6FMOL.s 			page 207


 10043 0269 50       		.byte	0x50
 10044 026a 1C000000 		.4byte	.LVL34
 10045 026e 1E000000 		.4byte	.LVL35
 10046 0272 0500     		.2byte	0x5
 10047 0274 70       		.byte	0x70
 10048 0275 80F600   		.sleb128 15104
 10049 0278 9F       		.byte	0x9f
 10050 0279 1E000000 		.4byte	.LVL35
 10051 027d 32000000 		.4byte	.LVL36
 10052 0281 0100     		.2byte	0x1
 10053 0283 50       		.byte	0x50
 10054 0284 36000000 		.4byte	.LVL37
 10055 0288 40000000 		.4byte	.LVL38
 10056 028c 0100     		.2byte	0x1
 10057 028e 50       		.byte	0x50
 10058 028f 40000000 		.4byte	.LVL38
 10059 0293 42000000 		.4byte	.LVL39
 10060 0297 0500     		.2byte	0x5
 10061 0299 70       		.byte	0x70
 10062 029a 80F600   		.sleb128 15104
 10063 029d 9F       		.byte	0x9f
 10064 029e 42000000 		.4byte	.LVL39
 10065 02a2 58000000 		.4byte	.LVL40
 10066 02a6 0100     		.2byte	0x1
 10067 02a8 50       		.byte	0x50
 10068 02a9 5C000000 		.4byte	.LVL41
 10069 02ad 72000000 		.4byte	.LVL42
 10070 02b1 0100     		.2byte	0x1
 10071 02b3 50       		.byte	0x50
 10072 02b4 76000000 		.4byte	.LVL43
 10073 02b8 80000000 		.4byte	.LVL44
 10074 02bc 0100     		.2byte	0x1
 10075 02be 50       		.byte	0x50
 10076 02bf 80000000 		.4byte	.LVL44
 10077 02c3 82000000 		.4byte	.LVL45
 10078 02c7 0500     		.2byte	0x5
 10079 02c9 70       		.byte	0x70
 10080 02ca 80F600   		.sleb128 15104
 10081 02cd 9F       		.byte	0x9f
 10082 02ce 82000000 		.4byte	.LVL45
 10083 02d2 9C000000 		.4byte	.LVL46
 10084 02d6 0100     		.2byte	0x1
 10085 02d8 50       		.byte	0x50
 10086 02d9 A0000000 		.4byte	.LVL47
 10087 02dd B0000000 		.4byte	.LVL48
 10088 02e1 0100     		.2byte	0x1
 10089 02e3 50       		.byte	0x50
 10090 02e4 CC000000 		.4byte	.LVL51
 10091 02e8 CE000000 		.4byte	.LVL52
 10092 02ec 0100     		.2byte	0x1
 10093 02ee 50       		.byte	0x50
 10094 02ef D0000000 		.4byte	.LVL53
 10095 02f3 D2000000 		.4byte	.LVL54
 10096 02f7 0100     		.2byte	0x1
 10097 02f9 50       		.byte	0x50
 10098 02fa D4000000 		.4byte	.LVL55
 10099 02fe D6000000 		.4byte	.LVL56
ARM GAS  C:\Users\Phuong\AppData\Local\Temp\ccG6FMOL.s 			page 208


 10100 0302 0100     		.2byte	0x1
 10101 0304 50       		.byte	0x50
 10102 0305 00000000 		.4byte	0
 10103 0309 00000000 		.4byte	0
 10104              	.LLST13:
 10105 030d 00000000 		.4byte	.LVL60
 10106 0311 1A000000 		.4byte	.LVL63
 10107 0315 0100     		.2byte	0x1
 10108 0317 50       		.byte	0x50
 10109 0318 1A000000 		.4byte	.LVL63
 10110 031c 40020000 		.4byte	.LFE12
 10111 0320 0400     		.2byte	0x4
 10112 0322 F3       		.byte	0xf3
 10113 0323 01       		.uleb128 0x1
 10114 0324 50       		.byte	0x50
 10115 0325 9F       		.byte	0x9f
 10116 0326 00000000 		.4byte	0
 10117 032a 00000000 		.4byte	0
 10118              	.LLST14:
 10119 032e 00000000 		.4byte	.LVL60
 10120 0332 18000000 		.4byte	.LVL62
 10121 0336 0100     		.2byte	0x1
 10122 0338 51       		.byte	0x51
 10123 0339 18000000 		.4byte	.LVL62
 10124 033d 22020000 		.4byte	.LVL108
 10125 0341 0100     		.2byte	0x1
 10126 0343 54       		.byte	0x54
 10127 0344 22020000 		.4byte	.LVL108
 10128 0348 40020000 		.4byte	.LFE12
 10129 034c 0400     		.2byte	0x4
 10130 034e F3       		.byte	0xf3
 10131 034f 01       		.uleb128 0x1
 10132 0350 51       		.byte	0x51
 10133 0351 9F       		.byte	0x9f
 10134 0352 00000000 		.4byte	0
 10135 0356 00000000 		.4byte	0
 10136              	.LLST15:
 10137 035a 1E000000 		.4byte	.LVL64
 10138 035e 3A000000 		.4byte	.LVL65
 10139 0362 0100     		.2byte	0x1
 10140 0364 50       		.byte	0x50
 10141 0365 3E000000 		.4byte	.LVL66
 10142 0369 56000000 		.4byte	.LVL69
 10143 036d 0100     		.2byte	0x1
 10144 036f 50       		.byte	0x50
 10145 0370 5A000000 		.4byte	.LVL70
 10146 0374 72000000 		.4byte	.LVL71
 10147 0378 0100     		.2byte	0x1
 10148 037a 50       		.byte	0x50
 10149 037b 8C000000 		.4byte	.LVL73
 10150 037f 98000000 		.4byte	.LVL74
 10151 0383 0100     		.2byte	0x1
 10152 0385 50       		.byte	0x50
 10153 0386 B2000000 		.4byte	.LVL76
 10154 038a CA000000 		.4byte	.LVL79
 10155 038e 0100     		.2byte	0x1
 10156 0390 50       		.byte	0x50
ARM GAS  C:\Users\Phuong\AppData\Local\Temp\ccG6FMOL.s 			page 209


 10157 0391 CE000000 		.4byte	.LVL80
 10158 0395 D4000000 		.4byte	.LVL81
 10159 0399 0100     		.2byte	0x1
 10160 039b 50       		.byte	0x50
 10161 039c DE000000 		.4byte	.LVL82
 10162 03a0 FA000000 		.4byte	.LVL83
 10163 03a4 0100     		.2byte	0x1
 10164 03a6 50       		.byte	0x50
 10165 03a7 FE000000 		.4byte	.LVL84
 10166 03ab 04010000 		.4byte	.LVL85
 10167 03af 0100     		.2byte	0x1
 10168 03b1 50       		.byte	0x50
 10169 03b2 0E010000 		.4byte	.LVL86
 10170 03b6 2A010000 		.4byte	.LVL87
 10171 03ba 0100     		.2byte	0x1
 10172 03bc 50       		.byte	0x50
 10173 03bd 2E010000 		.4byte	.LVL88
 10174 03c1 4A010000 		.4byte	.LVL89
 10175 03c5 0100     		.2byte	0x1
 10176 03c7 50       		.byte	0x50
 10177 03c8 4E010000 		.4byte	.LVL90
 10178 03cc 62010000 		.4byte	.LVL91
 10179 03d0 0100     		.2byte	0x1
 10180 03d2 50       		.byte	0x50
 10181 03d3 66010000 		.4byte	.LVL92
 10182 03d7 7E010000 		.4byte	.LVL93
 10183 03db 0100     		.2byte	0x1
 10184 03dd 50       		.byte	0x50
 10185 03de D4010000 		.4byte	.LVL98
 10186 03e2 E0010000 		.4byte	.LVL99
 10187 03e6 0100     		.2byte	0x1
 10188 03e8 50       		.byte	0x50
 10189 03e9 E8010000 		.4byte	.LVL101
 10190 03ed F8010000 		.4byte	.LVL103
 10191 03f1 0100     		.2byte	0x1
 10192 03f3 50       		.byte	0x50
 10193 03f4 00020000 		.4byte	.LVL104
 10194 03f8 10020000 		.4byte	.LVL106
 10195 03fc 0100     		.2byte	0x1
 10196 03fe 50       		.byte	0x50
 10197 03ff 00000000 		.4byte	0
 10198 0403 00000000 		.4byte	0
 10199              	.LLST16:
 10200 0407 14000000 		.4byte	.LVL61
 10201 040b 22020000 		.4byte	.LVL109
 10202 040f 0100     		.2byte	0x1
 10203 0411 55       		.byte	0x55
 10204 0412 00000000 		.4byte	0
 10205 0416 00000000 		.4byte	0
 10206              	.LLST17:
 10207 041a 4E000000 		.4byte	.LVL67
 10208 041e 50000000 		.4byte	.LVL68
 10209 0422 0100     		.2byte	0x1
 10210 0424 53       		.byte	0x53
 10211 0425 50000000 		.4byte	.LVL68
 10212 0429 C2000000 		.4byte	.LVL77
 10213 042d 0100     		.2byte	0x1
ARM GAS  C:\Users\Phuong\AppData\Local\Temp\ccG6FMOL.s 			page 210


 10214 042f 58       		.byte	0x58
 10215 0430 F0010000 		.4byte	.LVL102
 10216 0434 04020000 		.4byte	.LVL105
 10217 0438 0100     		.2byte	0x1
 10218 043a 58       		.byte	0x58
 10219 043b 00000000 		.4byte	0
 10220 043f 00000000 		.4byte	0
 10221              	.LLST18:
 10222 0443 C2000000 		.4byte	.LVL77
 10223 0447 C4000000 		.4byte	.LVL78
 10224 044b 0100     		.2byte	0x1
 10225 044d 53       		.byte	0x53
 10226 044e C4000000 		.4byte	.LVL78
 10227 0452 E8010000 		.4byte	.LVL101
 10228 0456 0100     		.2byte	0x1
 10229 0458 58       		.byte	0x58
 10230 0459 04020000 		.4byte	.LVL105
 10231 045d 1E020000 		.4byte	.LVL107
 10232 0461 0100     		.2byte	0x1
 10233 0463 58       		.byte	0x58
 10234 0464 00000000 		.4byte	0
 10235 0468 00000000 		.4byte	0
 10236              	.LLST19:
 10237 046c 00000000 		.4byte	.LVL110
 10238 0470 0E000000 		.4byte	.LVL112
 10239 0474 0100     		.2byte	0x1
 10240 0476 50       		.byte	0x50
 10241 0477 0E000000 		.4byte	.LVL112
 10242 047b CA000000 		.4byte	.LVL134
 10243 047f 0100     		.2byte	0x1
 10244 0481 56       		.byte	0x56
 10245 0482 CA000000 		.4byte	.LVL134
 10246 0486 D4000000 		.4byte	.LFE13
 10247 048a 0400     		.2byte	0x4
 10248 048c F3       		.byte	0xf3
 10249 048d 01       		.uleb128 0x1
 10250 048e 50       		.byte	0x50
 10251 048f 9F       		.byte	0x9f
 10252 0490 00000000 		.4byte	0
 10253 0494 00000000 		.4byte	0
 10254              	.LLST20:
 10255 0498 00000000 		.4byte	.LVL110
 10256 049c 11000000 		.4byte	.LVL113-1
 10257 04a0 0100     		.2byte	0x1
 10258 04a2 51       		.byte	0x51
 10259 04a3 11000000 		.4byte	.LVL113-1
 10260 04a7 CA000000 		.4byte	.LVL135
 10261 04ab 0100     		.2byte	0x1
 10262 04ad 57       		.byte	0x57
 10263 04ae CA000000 		.4byte	.LVL135
 10264 04b2 D4000000 		.4byte	.LFE13
 10265 04b6 0400     		.2byte	0x4
 10266 04b8 F3       		.byte	0xf3
 10267 04b9 01       		.uleb128 0x1
 10268 04ba 51       		.byte	0x51
 10269 04bb 9F       		.byte	0x9f
 10270 04bc 00000000 		.4byte	0
ARM GAS  C:\Users\Phuong\AppData\Local\Temp\ccG6FMOL.s 			page 211


 10271 04c0 00000000 		.4byte	0
 10272              	.LLST21:
 10273 04c4 0C000000 		.4byte	.LVL111
 10274 04c8 1C000000 		.4byte	.LVL116
 10275 04cc 0200     		.2byte	0x2
 10276 04ce 30       		.byte	0x30
 10277 04cf 9F       		.byte	0x9f
 10278 04d0 1C000000 		.4byte	.LVL116
 10279 04d4 2C000000 		.4byte	.LVL119
 10280 04d8 0100     		.2byte	0x1
 10281 04da 55       		.byte	0x55
 10282 04db 2C000000 		.4byte	.LVL119
 10283 04df 40000000 		.4byte	.LVL120
 10284 04e3 0100     		.2byte	0x1
 10285 04e5 50       		.byte	0x50
 10286 04e6 40000000 		.4byte	.LVL120
 10287 04ea CA000000 		.4byte	.LVL133
 10288 04ee 0100     		.2byte	0x1
 10289 04f0 55       		.byte	0x55
 10290 04f1 CA000000 		.4byte	.LVL133
 10291 04f5 D4000000 		.4byte	.LFE13
 10292 04f9 0100     		.2byte	0x1
 10293 04fb 50       		.byte	0x50
 10294 04fc 00000000 		.4byte	0
 10295 0500 00000000 		.4byte	0
 10296              	.LLST22:
 10297 0504 18000000 		.4byte	.LVL115
 10298 0508 1C000000 		.4byte	.LVL116
 10299 050c 0100     		.2byte	0x1
 10300 050e 50       		.byte	0x50
 10301 050f 1C000000 		.4byte	.LVL116
 10302 0513 CA000000 		.4byte	.LVL132
 10303 0517 0100     		.2byte	0x1
 10304 0519 54       		.byte	0x54
 10305 051a 00000000 		.4byte	0
 10306 051e 00000000 		.4byte	0
 10307              	.LLST23:
 10308 0522 00000000 		.4byte	.LVL136
 10309 0526 0A000000 		.4byte	.LVL137
 10310 052a 0100     		.2byte	0x1
 10311 052c 50       		.byte	0x50
 10312 052d 0A000000 		.4byte	.LVL137
 10313 0531 18000000 		.4byte	.LVL140
 10314 0535 0100     		.2byte	0x1
 10315 0537 54       		.byte	0x54
 10316 0538 18000000 		.4byte	.LVL140
 10317 053c 30000000 		.4byte	.LFE14
 10318 0540 0400     		.2byte	0x4
 10319 0542 F3       		.byte	0xf3
 10320 0543 01       		.uleb128 0x1
 10321 0544 50       		.byte	0x50
 10322 0545 9F       		.byte	0x9f
 10323 0546 00000000 		.4byte	0
 10324 054a 00000000 		.4byte	0
 10325              	.LLST24:
 10326 054e 00000000 		.4byte	.LVL136
 10327 0552 0D000000 		.4byte	.LVL138-1
ARM GAS  C:\Users\Phuong\AppData\Local\Temp\ccG6FMOL.s 			page 212


 10328 0556 0100     		.2byte	0x1
 10329 0558 51       		.byte	0x51
 10330 0559 0D000000 		.4byte	.LVL138-1
 10331 055d 2E000000 		.4byte	.LVL147
 10332 0561 0100     		.2byte	0x1
 10333 0563 55       		.byte	0x55
 10334 0564 2E000000 		.4byte	.LVL147
 10335 0568 30000000 		.4byte	.LFE14
 10336 056c 0400     		.2byte	0x4
 10337 056e F3       		.byte	0xf3
 10338 056f 01       		.uleb128 0x1
 10339 0570 51       		.byte	0x51
 10340 0571 9F       		.byte	0x9f
 10341 0572 00000000 		.4byte	0
 10342 0576 00000000 		.4byte	0
 10343              	.LLST25:
 10344 057a 18000000 		.4byte	.LVL140
 10345 057e 1E000000 		.4byte	.LVL141
 10346 0582 0100     		.2byte	0x1
 10347 0584 50       		.byte	0x50
 10348 0585 1E000000 		.4byte	.LVL141
 10349 0589 24000000 		.4byte	.LVL143
 10350 058d 0100     		.2byte	0x1
 10351 058f 54       		.byte	0x54
 10352 0590 24000000 		.4byte	.LVL143
 10353 0594 26000000 		.4byte	.LVL144
 10354 0598 0100     		.2byte	0x1
 10355 059a 50       		.byte	0x50
 10356 059b 26000000 		.4byte	.LVL144
 10357 059f 2E000000 		.4byte	.LVL146
 10358 05a3 0100     		.2byte	0x1
 10359 05a5 54       		.byte	0x54
 10360 05a6 2E000000 		.4byte	.LVL146
 10361 05aa 30000000 		.4byte	.LFE14
 10362 05ae 0100     		.2byte	0x1
 10363 05b0 50       		.byte	0x50
 10364 05b1 00000000 		.4byte	0
 10365 05b5 00000000 		.4byte	0
 10366              	.LLST26:
 10367 05b9 00000000 		.4byte	.LVL148
 10368 05bd 13000000 		.4byte	.LVL150-1
 10369 05c1 0100     		.2byte	0x1
 10370 05c3 50       		.byte	0x50
 10371 05c4 13000000 		.4byte	.LVL150-1
 10372 05c8 1A000000 		.4byte	.LVL151
 10373 05cc 0400     		.2byte	0x4
 10374 05ce F3       		.byte	0xf3
 10375 05cf 01       		.uleb128 0x1
 10376 05d0 50       		.byte	0x50
 10377 05d1 9F       		.byte	0x9f
 10378 05d2 1A000000 		.4byte	.LVL151
 10379 05d6 21000000 		.4byte	.LVL153-1
 10380 05da 0100     		.2byte	0x1
 10381 05dc 50       		.byte	0x50
 10382 05dd 21000000 		.4byte	.LVL153-1
 10383 05e1 54000000 		.4byte	.LFE15
 10384 05e5 0400     		.2byte	0x4
ARM GAS  C:\Users\Phuong\AppData\Local\Temp\ccG6FMOL.s 			page 213


 10385 05e7 F3       		.byte	0xf3
 10386 05e8 01       		.uleb128 0x1
 10387 05e9 50       		.byte	0x50
 10388 05ea 9F       		.byte	0x9f
 10389 05eb 00000000 		.4byte	0
 10390 05ef 00000000 		.4byte	0
 10391              	.LLST27:
 10392 05f3 00000000 		.4byte	.LVL148
 10393 05f7 10000000 		.4byte	.LVL149
 10394 05fb 0100     		.2byte	0x1
 10395 05fd 51       		.byte	0x51
 10396 05fe 10000000 		.4byte	.LVL149
 10397 0602 1A000000 		.4byte	.LVL151
 10398 0606 0100     		.2byte	0x1
 10399 0608 54       		.byte	0x54
 10400 0609 1A000000 		.4byte	.LVL151
 10401 060d 1E000000 		.4byte	.LVL152
 10402 0611 0100     		.2byte	0x1
 10403 0613 51       		.byte	0x51
 10404 0614 1E000000 		.4byte	.LVL152
 10405 0618 4A000000 		.4byte	.LVL157
 10406 061c 0100     		.2byte	0x1
 10407 061e 54       		.byte	0x54
 10408 061f 4A000000 		.4byte	.LVL157
 10409 0623 54000000 		.4byte	.LFE15
 10410 0627 0400     		.2byte	0x4
 10411 0629 F3       		.byte	0xf3
 10412 062a 01       		.uleb128 0x1
 10413 062b 51       		.byte	0x51
 10414 062c 9F       		.byte	0x9f
 10415 062d 00000000 		.4byte	0
 10416 0631 00000000 		.4byte	0
 10417              	.LLST28:
 10418 0635 22000000 		.4byte	.LVL153
 10419 0639 26000000 		.4byte	.LVL154
 10420 063d 0100     		.2byte	0x1
 10421 063f 50       		.byte	0x50
 10422 0640 40000000 		.4byte	.LVL155
 10423 0644 42000000 		.4byte	.LVL156
 10424 0648 0100     		.2byte	0x1
 10425 064a 50       		.byte	0x50
 10426 064b 00000000 		.4byte	0
 10427 064f 00000000 		.4byte	0
 10428              	.LLST29:
 10429 0653 00000000 		.4byte	.LVL158
 10430 0657 16000000 		.4byte	.LVL161
 10431 065b 0100     		.2byte	0x1
 10432 065d 50       		.byte	0x50
 10433 065e 16000000 		.4byte	.LVL161
 10434 0662 28000000 		.4byte	.LVL166
 10435 0666 0100     		.2byte	0x1
 10436 0668 55       		.byte	0x55
 10437 0669 28000000 		.4byte	.LVL166
 10438 066d 2A000000 		.4byte	.LFE16
 10439 0671 0400     		.2byte	0x4
 10440 0673 F3       		.byte	0xf3
 10441 0674 01       		.uleb128 0x1
ARM GAS  C:\Users\Phuong\AppData\Local\Temp\ccG6FMOL.s 			page 214


 10442 0675 50       		.byte	0x50
 10443 0676 9F       		.byte	0x9f
 10444 0677 00000000 		.4byte	0
 10445 067b 00000000 		.4byte	0
 10446              	.LLST30:
 10447 067f 00000000 		.4byte	.LVL158
 10448 0683 14000000 		.4byte	.LVL160
 10449 0687 0100     		.2byte	0x1
 10450 0689 51       		.byte	0x51
 10451 068a 14000000 		.4byte	.LVL160
 10452 068e 28000000 		.4byte	.LVL168
 10453 0692 0100     		.2byte	0x1
 10454 0694 57       		.byte	0x57
 10455 0695 28000000 		.4byte	.LVL168
 10456 0699 2A000000 		.4byte	.LFE16
 10457 069d 0300     		.2byte	0x3
 10458 069f F3       		.byte	0xf3
 10459 06a0 01       		.uleb128 0x1
 10460 06a1 50       		.byte	0x50
 10461 06a2 00000000 		.4byte	0
 10462 06a6 00000000 		.4byte	0
 10463              	.LLST31:
 10464 06aa 00000000 		.4byte	.LVL158
 10465 06ae 12000000 		.4byte	.LVL159
 10466 06b2 0100     		.2byte	0x1
 10467 06b4 52       		.byte	0x52
 10468 06b5 12000000 		.4byte	.LVL159
 10469 06b9 28000000 		.4byte	.LVL165
 10470 06bd 0100     		.2byte	0x1
 10471 06bf 54       		.byte	0x54
 10472 06c0 28000000 		.4byte	.LVL165
 10473 06c4 28000000 		.4byte	.LVL167
 10474 06c8 0400     		.2byte	0x4
 10475 06ca 76       		.byte	0x76
 10476 06cb F87E     		.sleb128 -136
 10477 06cd 9F       		.byte	0x9f
 10478 06ce 28000000 		.4byte	.LVL167
 10479 06d2 2A000000 		.4byte	.LFE16
 10480 06d6 0400     		.2byte	0x4
 10481 06d8 F3       		.byte	0xf3
 10482 06d9 01       		.uleb128 0x1
 10483 06da 52       		.byte	0x52
 10484 06db 9F       		.byte	0x9f
 10485 06dc 00000000 		.4byte	0
 10486 06e0 00000000 		.4byte	0
 10487              	.LLST32:
 10488 06e4 1A000000 		.4byte	.LVL162
 10489 06e8 22000000 		.4byte	.LVL163
 10490 06ec 0100     		.2byte	0x1
 10491 06ee 50       		.byte	0x50
 10492 06ef 26000000 		.4byte	.LVL164
 10493 06f3 2A000000 		.4byte	.LFE16
 10494 06f7 0100     		.2byte	0x1
 10495 06f9 50       		.byte	0x50
 10496 06fa 00000000 		.4byte	0
 10497 06fe 00000000 		.4byte	0
 10498              	.LLST33:
ARM GAS  C:\Users\Phuong\AppData\Local\Temp\ccG6FMOL.s 			page 215


 10499 0702 00000000 		.4byte	.LVL169
 10500 0706 0C000000 		.4byte	.LVL170
 10501 070a 0100     		.2byte	0x1
 10502 070c 50       		.byte	0x50
 10503 070d 0C000000 		.4byte	.LVL170
 10504 0711 E8010000 		.4byte	.LVL232
 10505 0715 0100     		.2byte	0x1
 10506 0717 55       		.byte	0x55
 10507 0718 E8010000 		.4byte	.LVL232
 10508 071c FC010000 		.4byte	.LFE20
 10509 0720 0400     		.2byte	0x4
 10510 0722 F3       		.byte	0xf3
 10511 0723 01       		.uleb128 0x1
 10512 0724 50       		.byte	0x50
 10513 0725 9F       		.byte	0x9f
 10514 0726 00000000 		.4byte	0
 10515 072a 00000000 		.4byte	0
 10516              	.LLST34:
 10517 072e 00000000 		.4byte	.LVL169
 10518 0732 0F000000 		.4byte	.LVL171-1
 10519 0736 0100     		.2byte	0x1
 10520 0738 51       		.byte	0x51
 10521 0739 0F000000 		.4byte	.LVL171-1
 10522 073d 34000000 		.4byte	.LVL176
 10523 0741 0100     		.2byte	0x1
 10524 0743 56       		.byte	0x56
 10525 0744 34000000 		.4byte	.LVL176
 10526 0748 FC010000 		.4byte	.LFE20
 10527 074c 0400     		.2byte	0x4
 10528 074e F3       		.byte	0xf3
 10529 074f 01       		.uleb128 0x1
 10530 0750 51       		.byte	0x51
 10531 0751 9F       		.byte	0x9f
 10532 0752 00000000 		.4byte	0
 10533 0756 00000000 		.4byte	0
 10534              	.LLST35:
 10535 075a 00000000 		.4byte	.LVL169
 10536 075e 0F000000 		.4byte	.LVL171-1
 10537 0762 0100     		.2byte	0x1
 10538 0764 52       		.byte	0x52
 10539 0765 0F000000 		.4byte	.LVL171-1
 10540 0769 60000000 		.4byte	.LVL183
 10541 076d 0100     		.2byte	0x1
 10542 076f 54       		.byte	0x54
 10543 0770 60000000 		.4byte	.LVL183
 10544 0774 E0010000 		.4byte	.LVL228
 10545 0778 0400     		.2byte	0x4
 10546 077a F3       		.byte	0xf3
 10547 077b 01       		.uleb128 0x1
 10548 077c 52       		.byte	0x52
 10549 077d 9F       		.byte	0x9f
 10550 077e E0010000 		.4byte	.LVL228
 10551 0782 E4010000 		.4byte	.LVL230
 10552 0786 0100     		.2byte	0x1
 10553 0788 54       		.byte	0x54
 10554 0789 E4010000 		.4byte	.LVL230
 10555 078d FC010000 		.4byte	.LFE20
ARM GAS  C:\Users\Phuong\AppData\Local\Temp\ccG6FMOL.s 			page 216


 10556 0791 0400     		.2byte	0x4
 10557 0793 F3       		.byte	0xf3
 10558 0794 01       		.uleb128 0x1
 10559 0795 52       		.byte	0x52
 10560 0796 9F       		.byte	0x9f
 10561 0797 00000000 		.4byte	0
 10562 079b 00000000 		.4byte	0
 10563              	.LLST36:
 10564 079f 1E000000 		.4byte	.LVL173
 10565 07a3 28000000 		.4byte	.LVL174
 10566 07a7 0100     		.2byte	0x1
 10567 07a9 50       		.byte	0x50
 10568 07aa 28000000 		.4byte	.LVL174
 10569 07ae 2A000000 		.4byte	.LVL175
 10570 07b2 0500     		.2byte	0x5
 10571 07b4 70       		.byte	0x70
 10572 07b5 80FA00   		.sleb128 15616
 10573 07b8 9F       		.byte	0x9f
 10574 07b9 2A000000 		.4byte	.LVL175
 10575 07bd 3A000000 		.4byte	.LVL177
 10576 07c1 0100     		.2byte	0x1
 10577 07c3 50       		.byte	0x50
 10578 07c4 3E000000 		.4byte	.LVL178
 10579 07c8 48000000 		.4byte	.LVL179
 10580 07cc 0100     		.2byte	0x1
 10581 07ce 50       		.byte	0x50
 10582 07cf 48000000 		.4byte	.LVL179
 10583 07d3 4A000000 		.4byte	.LVL180
 10584 07d7 0500     		.2byte	0x5
 10585 07d9 70       		.byte	0x70
 10586 07da 80FA00   		.sleb128 15616
 10587 07dd 9F       		.byte	0x9f
 10588 07de 4A000000 		.4byte	.LVL180
 10589 07e2 5A000000 		.4byte	.LVL181
 10590 07e6 0100     		.2byte	0x1
 10591 07e8 50       		.byte	0x50
 10592 07e9 60000000 		.4byte	.LVL183
 10593 07ed 7A000000 		.4byte	.LVL184
 10594 07f1 0100     		.2byte	0x1
 10595 07f3 50       		.byte	0x50
 10596 07f4 7A000000 		.4byte	.LVL184
 10597 07f8 80000000 		.4byte	.LVL186
 10598 07fc 0100     		.2byte	0x1
 10599 07fe 54       		.byte	0x54
 10600 07ff 80000000 		.4byte	.LVL186
 10601 0803 96000000 		.4byte	.LVL187
 10602 0807 0100     		.2byte	0x1
 10603 0809 50       		.byte	0x50
 10604 080a 96000000 		.4byte	.LVL187
 10605 080e 9C000000 		.4byte	.LVL189
 10606 0812 0100     		.2byte	0x1
 10607 0814 54       		.byte	0x54
 10608 0815 9C000000 		.4byte	.LVL189
 10609 0819 BA000000 		.4byte	.LVL190
 10610 081d 0100     		.2byte	0x1
 10611 081f 50       		.byte	0x50
 10612 0820 BA000000 		.4byte	.LVL190
ARM GAS  C:\Users\Phuong\AppData\Local\Temp\ccG6FMOL.s 			page 217


 10613 0824 C0000000 		.4byte	.LVL192
 10614 0828 0100     		.2byte	0x1
 10615 082a 54       		.byte	0x54
 10616 082b C0000000 		.4byte	.LVL192
 10617 082f D6000000 		.4byte	.LVL193
 10618 0833 0100     		.2byte	0x1
 10619 0835 50       		.byte	0x50
 10620 0836 D6000000 		.4byte	.LVL193
 10621 083a DC000000 		.4byte	.LVL195
 10622 083e 0100     		.2byte	0x1
 10623 0840 54       		.byte	0x54
 10624 0841 DC000000 		.4byte	.LVL195
 10625 0845 F8000000 		.4byte	.LVL196
 10626 0849 0100     		.2byte	0x1
 10627 084b 50       		.byte	0x50
 10628 084c F8000000 		.4byte	.LVL196
 10629 0850 FE000000 		.4byte	.LVL198
 10630 0854 0100     		.2byte	0x1
 10631 0856 54       		.byte	0x54
 10632 0857 FE000000 		.4byte	.LVL198
 10633 085b 12010000 		.4byte	.LVL199
 10634 085f 0100     		.2byte	0x1
 10635 0861 50       		.byte	0x50
 10636 0862 12010000 		.4byte	.LVL199
 10637 0866 18010000 		.4byte	.LVL201
 10638 086a 0100     		.2byte	0x1
 10639 086c 54       		.byte	0x54
 10640 086d 18010000 		.4byte	.LVL201
 10641 0871 32010000 		.4byte	.LVL202
 10642 0875 0100     		.2byte	0x1
 10643 0877 50       		.byte	0x50
 10644 0878 32010000 		.4byte	.LVL202
 10645 087c 38010000 		.4byte	.LVL204
 10646 0880 0100     		.2byte	0x1
 10647 0882 54       		.byte	0x54
 10648 0883 38010000 		.4byte	.LVL204
 10649 0887 4C010000 		.4byte	.LVL205
 10650 088b 0100     		.2byte	0x1
 10651 088d 50       		.byte	0x50
 10652 088e 4C010000 		.4byte	.LVL205
 10653 0892 52010000 		.4byte	.LVL207
 10654 0896 0100     		.2byte	0x1
 10655 0898 54       		.byte	0x54
 10656 0899 52010000 		.4byte	.LVL207
 10657 089d 6E010000 		.4byte	.LVL208
 10658 08a1 0100     		.2byte	0x1
 10659 08a3 50       		.byte	0x50
 10660 08a4 6E010000 		.4byte	.LVL208
 10661 08a8 74010000 		.4byte	.LVL210
 10662 08ac 0100     		.2byte	0x1
 10663 08ae 54       		.byte	0x54
 10664 08af 74010000 		.4byte	.LVL210
 10665 08b3 82010000 		.4byte	.LVL211
 10666 08b7 0100     		.2byte	0x1
 10667 08b9 50       		.byte	0x50
 10668 08ba 82010000 		.4byte	.LVL211
 10669 08be 88010000 		.4byte	.LVL213
ARM GAS  C:\Users\Phuong\AppData\Local\Temp\ccG6FMOL.s 			page 218


 10670 08c2 0100     		.2byte	0x1
 10671 08c4 54       		.byte	0x54
 10672 08c5 88010000 		.4byte	.LVL213
 10673 08c9 90010000 		.4byte	.LVL214
 10674 08cd 0100     		.2byte	0x1
 10675 08cf 50       		.byte	0x50
 10676 08d0 90010000 		.4byte	.LVL214
 10677 08d4 96010000 		.4byte	.LVL216
 10678 08d8 0100     		.2byte	0x1
 10679 08da 54       		.byte	0x54
 10680 08db 96010000 		.4byte	.LVL216
 10681 08df 9E010000 		.4byte	.LVL217
 10682 08e3 0100     		.2byte	0x1
 10683 08e5 50       		.byte	0x50
 10684 08e6 9E010000 		.4byte	.LVL217
 10685 08ea A4010000 		.4byte	.LVL219
 10686 08ee 0100     		.2byte	0x1
 10687 08f0 54       		.byte	0x54
 10688 08f1 A4010000 		.4byte	.LVL219
 10689 08f5 AC010000 		.4byte	.LVL220
 10690 08f9 0100     		.2byte	0x1
 10691 08fb 50       		.byte	0x50
 10692 08fc AC010000 		.4byte	.LVL220
 10693 0900 B2010000 		.4byte	.LVL222
 10694 0904 0100     		.2byte	0x1
 10695 0906 54       		.byte	0x54
 10696 0907 B2010000 		.4byte	.LVL222
 10697 090b BC010000 		.4byte	.LVL223
 10698 090f 0100     		.2byte	0x1
 10699 0911 50       		.byte	0x50
 10700 0912 BC010000 		.4byte	.LVL223
 10701 0916 E0010000 		.4byte	.LVL228
 10702 091a 0100     		.2byte	0x1
 10703 091c 54       		.byte	0x54
 10704 091d E0010000 		.4byte	.LVL228
 10705 0921 E2010000 		.4byte	.LVL229
 10706 0925 0100     		.2byte	0x1
 10707 0927 50       		.byte	0x50
 10708 0928 E4010000 		.4byte	.LVL230
 10709 092c E6010000 		.4byte	.LVL231
 10710 0930 0100     		.2byte	0x1
 10711 0932 54       		.byte	0x54
 10712 0933 00000000 		.4byte	0
 10713 0937 00000000 		.4byte	0
 10714              	.LLST37:
 10715 093b 14000000 		.4byte	.LVL172
 10716 093f 1D000000 		.4byte	.LVL173-1
 10717 0943 0100     		.2byte	0x1
 10718 0945 51       		.byte	0x51
 10719 0946 1D000000 		.4byte	.LVL173-1
 10720 094a 34000000 		.4byte	.LVL176
 10721 094e 0600     		.2byte	0x6
 10722 0950 76       		.byte	0x76
 10723 0951 00       		.sleb128 0
 10724 0952 74       		.byte	0x74
 10725 0953 00       		.sleb128 0
 10726 0954 22       		.byte	0x22
ARM GAS  C:\Users\Phuong\AppData\Local\Temp\ccG6FMOL.s 			page 219


 10727 0955 9F       		.byte	0x9f
 10728 0956 34000000 		.4byte	.LVL176
 10729 095a 3D000000 		.4byte	.LVL178-1
 10730 095e 0100     		.2byte	0x1
 10731 0960 53       		.byte	0x53
 10732 0961 3D000000 		.4byte	.LVL178-1
 10733 0965 E6010000 		.4byte	.LVL231
 10734 0969 0100     		.2byte	0x1
 10735 096b 56       		.byte	0x56
 10736 096c 00000000 		.4byte	0
 10737 0970 00000000 		.4byte	0
 10738              	.LLST38:
 10739 0974 00000000 		.4byte	.LVL233
 10740 0978 10000000 		.4byte	.LVL236
 10741 097c 0100     		.2byte	0x1
 10742 097e 50       		.byte	0x50
 10743 097f 10000000 		.4byte	.LVL236
 10744 0983 A0010000 		.4byte	.LVL308
 10745 0987 0100     		.2byte	0x1
 10746 0989 54       		.byte	0x54
 10747 098a A0010000 		.4byte	.LVL308
 10748 098e B4010000 		.4byte	.LFE21
 10749 0992 0400     		.2byte	0x4
 10750 0994 F3       		.byte	0xf3
 10751 0995 01       		.uleb128 0x1
 10752 0996 50       		.byte	0x50
 10753 0997 9F       		.byte	0x9f
 10754 0998 00000000 		.4byte	0
 10755 099c 00000000 		.4byte	0
 10756              	.LLST39:
 10757 09a0 00000000 		.4byte	.LVL233
 10758 09a4 0A000000 		.4byte	.LVL234
 10759 09a8 0100     		.2byte	0x1
 10760 09aa 51       		.byte	0x51
 10761 09ab 0A000000 		.4byte	.LVL234
 10762 09af 10000000 		.4byte	.LVL236
 10763 09b3 0200     		.2byte	0x2
 10764 09b5 91       		.byte	0x91
 10765 09b6 50       		.sleb128 -48
 10766 09b7 10000000 		.4byte	.LVL236
 10767 09bb 13000000 		.4byte	.LVL237-1
 10768 09bf 0200     		.2byte	0x2
 10769 09c1 70       		.byte	0x70
 10770 09c2 00       		.sleb128 0
 10771 09c3 13000000 		.4byte	.LVL237-1
 10772 09c7 B4010000 		.4byte	.LFE21
 10773 09cb 0400     		.2byte	0x4
 10774 09cd F3       		.byte	0xf3
 10775 09ce 01       		.uleb128 0x1
 10776 09cf 51       		.byte	0x51
 10777 09d0 9F       		.byte	0x9f
 10778 09d1 00000000 		.4byte	0
 10779 09d5 00000000 		.4byte	0
 10780              	.LLST40:
 10781 09d9 00000000 		.4byte	.LVL233
 10782 09dd 0E000000 		.4byte	.LVL235
 10783 09e1 0100     		.2byte	0x1
ARM GAS  C:\Users\Phuong\AppData\Local\Temp\ccG6FMOL.s 			page 220


 10784 09e3 52       		.byte	0x52
 10785 09e4 0E000000 		.4byte	.LVL235
 10786 09e8 B4010000 		.4byte	.LFE21
 10787 09ec 0400     		.2byte	0x4
 10788 09ee F3       		.byte	0xf3
 10789 09ef 01       		.uleb128 0x1
 10790 09f0 52       		.byte	0x52
 10791 09f1 9F       		.byte	0x9f
 10792 09f2 00000000 		.4byte	0
 10793 09f6 00000000 		.4byte	0
 10794              	.LLST41:
 10795 09fa 14000000 		.4byte	.LVL237
 10796 09fe 1E000000 		.4byte	.LVL238
 10797 0a02 0100     		.2byte	0x1
 10798 0a04 50       		.byte	0x50
 10799 0a05 1E000000 		.4byte	.LVL238
 10800 0a09 20000000 		.4byte	.LVL239
 10801 0a0d 0500     		.2byte	0x5
 10802 0a0f 70       		.byte	0x70
 10803 0a10 80FA00   		.sleb128 15616
 10804 0a13 9F       		.byte	0x9f
 10805 0a14 20000000 		.4byte	.LVL239
 10806 0a18 30000000 		.4byte	.LVL241
 10807 0a1c 0100     		.2byte	0x1
 10808 0a1e 50       		.byte	0x50
 10809 0a1f 34000000 		.4byte	.LVL242
 10810 0a23 3E000000 		.4byte	.LVL243
 10811 0a27 0100     		.2byte	0x1
 10812 0a29 50       		.byte	0x50
 10813 0a2a 3E000000 		.4byte	.LVL243
 10814 0a2e 40000000 		.4byte	.LVL244
 10815 0a32 0500     		.2byte	0x5
 10816 0a34 70       		.byte	0x70
 10817 0a35 80FA00   		.sleb128 15616
 10818 0a38 9F       		.byte	0x9f
 10819 0a39 40000000 		.4byte	.LVL244
 10820 0a3d 50000000 		.4byte	.LVL245
 10821 0a41 0100     		.2byte	0x1
 10822 0a43 50       		.byte	0x50
 10823 0a44 54000000 		.4byte	.LVL246
 10824 0a48 5E000000 		.4byte	.LVL247
 10825 0a4c 0100     		.2byte	0x1
 10826 0a4e 50       		.byte	0x50
 10827 0a4f 5E000000 		.4byte	.LVL247
 10828 0a53 60000000 		.4byte	.LVL248
 10829 0a57 0500     		.2byte	0x5
 10830 0a59 70       		.byte	0x70
 10831 0a5a 80FA00   		.sleb128 15616
 10832 0a5d 9F       		.byte	0x9f
 10833 0a5e 60000000 		.4byte	.LVL248
 10834 0a62 6A000000 		.4byte	.LVL249
 10835 0a66 0100     		.2byte	0x1
 10836 0a68 50       		.byte	0x50
 10837 0a69 70000000 		.4byte	.LVL251
 10838 0a6d 74000000 		.4byte	.LVL252
 10839 0a71 0100     		.2byte	0x1
 10840 0a73 50       		.byte	0x50
ARM GAS  C:\Users\Phuong\AppData\Local\Temp\ccG6FMOL.s 			page 221


 10841 0a74 74000000 		.4byte	.LVL252
 10842 0a78 7E000000 		.4byte	.LVL254
 10843 0a7c 0100     		.2byte	0x1
 10844 0a7e 55       		.byte	0x55
 10845 0a7f 7E000000 		.4byte	.LVL254
 10846 0a83 94000000 		.4byte	.LVL256
 10847 0a87 0100     		.2byte	0x1
 10848 0a89 50       		.byte	0x50
 10849 0a8a 94000000 		.4byte	.LVL256
 10850 0a8e 9A000000 		.4byte	.LVL258
 10851 0a92 0100     		.2byte	0x1
 10852 0a94 55       		.byte	0x55
 10853 0a95 9A000000 		.4byte	.LVL258
 10854 0a99 AA000000 		.4byte	.LVL259
 10855 0a9d 0100     		.2byte	0x1
 10856 0a9f 50       		.byte	0x50
 10857 0aa0 AA000000 		.4byte	.LVL259
 10858 0aa4 B0000000 		.4byte	.LVL261
 10859 0aa8 0100     		.2byte	0x1
 10860 0aaa 55       		.byte	0x55
 10861 0aab B0000000 		.4byte	.LVL261
 10862 0aaf B6000000 		.4byte	.LVL262
 10863 0ab3 0100     		.2byte	0x1
 10864 0ab5 50       		.byte	0x50
 10865 0ab6 B6000000 		.4byte	.LVL262
 10866 0aba BC000000 		.4byte	.LVL264
 10867 0abe 0100     		.2byte	0x1
 10868 0ac0 55       		.byte	0x55
 10869 0ac1 BC000000 		.4byte	.LVL264
 10870 0ac5 C0000000 		.4byte	.LVL265
 10871 0ac9 0100     		.2byte	0x1
 10872 0acb 50       		.byte	0x50
 10873 0acc C0000000 		.4byte	.LVL265
 10874 0ad0 C8000000 		.4byte	.LVL267
 10875 0ad4 0100     		.2byte	0x1
 10876 0ad6 55       		.byte	0x55
 10877 0ad7 C8000000 		.4byte	.LVL267
 10878 0adb D0000000 		.4byte	.LVL268
 10879 0adf 0100     		.2byte	0x1
 10880 0ae1 50       		.byte	0x50
 10881 0ae2 D0000000 		.4byte	.LVL268
 10882 0ae6 DA000000 		.4byte	.LVL270
 10883 0aea 0100     		.2byte	0x1
 10884 0aec 55       		.byte	0x55
 10885 0aed DA000000 		.4byte	.LVL270
 10886 0af1 E8000000 		.4byte	.LVL271
 10887 0af5 0100     		.2byte	0x1
 10888 0af7 50       		.byte	0x50
 10889 0af8 E8000000 		.4byte	.LVL271
 10890 0afc EE000000 		.4byte	.LVL273
 10891 0b00 0100     		.2byte	0x1
 10892 0b02 55       		.byte	0x55
 10893 0b03 EE000000 		.4byte	.LVL273
 10894 0b07 00010000 		.4byte	.LVL275
 10895 0b0b 0100     		.2byte	0x1
 10896 0b0d 50       		.byte	0x50
 10897 0b0e 04010000 		.4byte	.LVL276
ARM GAS  C:\Users\Phuong\AppData\Local\Temp\ccG6FMOL.s 			page 222


 10898 0b12 0E010000 		.4byte	.LVL277
 10899 0b16 0100     		.2byte	0x1
 10900 0b18 50       		.byte	0x50
 10901 0b19 0E010000 		.4byte	.LVL277
 10902 0b1d 10010000 		.4byte	.LVL278
 10903 0b21 0500     		.2byte	0x5
 10904 0b23 70       		.byte	0x70
 10905 0b24 80FA00   		.sleb128 15616
 10906 0b27 9F       		.byte	0x9f
 10907 0b28 10010000 		.4byte	.LVL278
 10908 0b2c 22010000 		.4byte	.LVL279
 10909 0b30 0100     		.2byte	0x1
 10910 0b32 50       		.byte	0x50
 10911 0b33 26010000 		.4byte	.LVL280
 10912 0b37 3C010000 		.4byte	.LVL282
 10913 0b3b 0100     		.2byte	0x1
 10914 0b3d 50       		.byte	0x50
 10915 0b3e 3C010000 		.4byte	.LVL282
 10916 0b42 46010000 		.4byte	.LVL284
 10917 0b46 0100     		.2byte	0x1
 10918 0b48 55       		.byte	0x55
 10919 0b49 46010000 		.4byte	.LVL284
 10920 0b4d 66010000 		.4byte	.LVL289
 10921 0b51 0100     		.2byte	0x1
 10922 0b53 50       		.byte	0x50
 10923 0b54 6C010000 		.4byte	.LVL291
 10924 0b58 70010000 		.4byte	.LVL292
 10925 0b5c 0100     		.2byte	0x1
 10926 0b5e 50       		.byte	0x50
 10927 0b5f 70010000 		.4byte	.LVL292
 10928 0b63 7A010000 		.4byte	.LVL294
 10929 0b67 0100     		.2byte	0x1
 10930 0b69 55       		.byte	0x55
 10931 0b6a 7A010000 		.4byte	.LVL294
 10932 0b6e 7E010000 		.4byte	.LVL295
 10933 0b72 0100     		.2byte	0x1
 10934 0b74 50       		.byte	0x50
 10935 0b75 84010000 		.4byte	.LVL297
 10936 0b79 88010000 		.4byte	.LVL298
 10937 0b7d 0100     		.2byte	0x1
 10938 0b7f 50       		.byte	0x50
 10939 0b80 88010000 		.4byte	.LVL298
 10940 0b84 90010000 		.4byte	.LVL300
 10941 0b88 0100     		.2byte	0x1
 10942 0b8a 55       		.byte	0x55
 10943 0b8b 90010000 		.4byte	.LVL300
 10944 0b8f 92010000 		.4byte	.LVL301
 10945 0b93 0100     		.2byte	0x1
 10946 0b95 50       		.byte	0x50
 10947 0b96 94010000 		.4byte	.LVL302
 10948 0b9a 96010000 		.4byte	.LVL303
 10949 0b9e 0100     		.2byte	0x1
 10950 0ba0 50       		.byte	0x50
 10951 0ba1 98010000 		.4byte	.LVL304
 10952 0ba5 9A010000 		.4byte	.LVL305
 10953 0ba9 0100     		.2byte	0x1
 10954 0bab 50       		.byte	0x50
ARM GAS  C:\Users\Phuong\AppData\Local\Temp\ccG6FMOL.s 			page 223


 10955 0bac 9C010000 		.4byte	.LVL306
 10956 0bb0 9E010000 		.4byte	.LVL307
 10957 0bb4 0100     		.2byte	0x1
 10958 0bb6 50       		.byte	0x50
 10959 0bb7 00000000 		.4byte	0
 10960 0bbb 00000000 		.4byte	0
 10961              	.LLST42:
 10962 0bbf 88000000 		.4byte	.LVL255
 10963 0bc3 50010000 		.4byte	.LVL287
 10964 0bc7 0200     		.2byte	0x2
 10965 0bc9 30       		.byte	0x30
 10966 0bca 9F       		.byte	0x9f
 10967 0bcb 50010000 		.4byte	.LVL287
 10968 0bcf 5A010000 		.4byte	.LVL288
 10969 0bd3 0100     		.2byte	0x1
 10970 0bd5 53       		.byte	0x53
 10971 0bd6 94010000 		.4byte	.LVL302
 10972 0bda 9C010000 		.4byte	.LVL306
 10973 0bde 0200     		.2byte	0x2
 10974 0be0 30       		.byte	0x30
 10975 0be1 9F       		.byte	0x9f
 10976 0be2 00000000 		.4byte	0
 10977 0be6 00000000 		.4byte	0
 10978              	.LLST43:
 10979 0bea 0A000000 		.4byte	.LVL234
 10980 0bee 13000000 		.4byte	.LVL237-1
 10981 0bf2 0100     		.2byte	0x1
 10982 0bf4 51       		.byte	0x51
 10983 0bf5 13000000 		.4byte	.LVL237-1
 10984 0bf9 2A000000 		.4byte	.LVL240
 10985 0bfd 0800     		.2byte	0x8
 10986 0bff F3       		.byte	0xf3
 10987 0c00 01       		.uleb128 0x1
 10988 0c01 51       		.byte	0x51
 10989 0c02 F3       		.byte	0xf3
 10990 0c03 01       		.uleb128 0x1
 10991 0c04 52       		.byte	0x52
 10992 0c05 22       		.byte	0x22
 10993 0c06 9F       		.byte	0x9f
 10994 0c07 2A000000 		.4byte	.LVL240
 10995 0c0b 33000000 		.4byte	.LVL242-1
 10996 0c0f 0100     		.2byte	0x1
 10997 0c11 53       		.byte	0x53
 10998 0c12 33000000 		.4byte	.LVL242-1
 10999 0c16 9E010000 		.4byte	.LVL307
 11000 0c1a 0100     		.2byte	0x1
 11001 0c1c 57       		.byte	0x57
 11002 0c1d 00000000 		.4byte	0
 11003 0c21 00000000 		.4byte	0
 11004              	.LLST44:
 11005 0c25 FA000000 		.4byte	.LVL274
 11006 0c29 03010000 		.4byte	.LVL276-1
 11007 0c2d 0100     		.2byte	0x1
 11008 0c2f 53       		.byte	0x53
 11009 0c30 03010000 		.4byte	.LVL276-1
 11010 0c34 34010000 		.4byte	.LVL281
 11011 0c38 0100     		.2byte	0x1
ARM GAS  C:\Users\Phuong\AppData\Local\Temp\ccG6FMOL.s 			page 224


 11012 0c3a 55       		.byte	0x55
 11013 0c3b 4A010000 		.4byte	.LVL285
 11014 0c3f 4E010000 		.4byte	.LVL286
 11015 0c43 0100     		.2byte	0x1
 11016 0c45 55       		.byte	0x55
 11017 0c46 94010000 		.4byte	.LVL302
 11018 0c4a 9C010000 		.4byte	.LVL306
 11019 0c4e 0100     		.2byte	0x1
 11020 0c50 55       		.byte	0x55
 11021 0c51 00000000 		.4byte	0
 11022 0c55 00000000 		.4byte	0
 11023              	.LLST45:
 11024 0c59 00000000 		.4byte	.LVL309
 11025 0c5d 18000000 		.4byte	.LVL312
 11026 0c61 0100     		.2byte	0x1
 11027 0c63 50       		.byte	0x50
 11028 0c64 18000000 		.4byte	.LVL312
 11029 0c68 16010000 		.4byte	.LVL343
 11030 0c6c 0100     		.2byte	0x1
 11031 0c6e 54       		.byte	0x54
 11032 0c6f 16010000 		.4byte	.LVL343
 11033 0c73 28010000 		.4byte	.LFE22
 11034 0c77 0400     		.2byte	0x4
 11035 0c79 F3       		.byte	0xf3
 11036 0c7a 01       		.uleb128 0x1
 11037 0c7b 50       		.byte	0x50
 11038 0c7c 9F       		.byte	0x9f
 11039 0c7d 00000000 		.4byte	0
 11040 0c81 00000000 		.4byte	0
 11041              	.LLST46:
 11042 0c85 00000000 		.4byte	.LVL309
 11043 0c89 0A000000 		.4byte	.LVL310
 11044 0c8d 0100     		.2byte	0x1
 11045 0c8f 51       		.byte	0x51
 11046 0c90 0A000000 		.4byte	.LVL310
 11047 0c94 18000000 		.4byte	.LVL312
 11048 0c98 0200     		.2byte	0x2
 11049 0c9a 91       		.byte	0x91
 11050 0c9b 58       		.sleb128 -40
 11051 0c9c 18000000 		.4byte	.LVL312
 11052 0ca0 1B000000 		.4byte	.LVL313-1
 11053 0ca4 0200     		.2byte	0x2
 11054 0ca6 70       		.byte	0x70
 11055 0ca7 00       		.sleb128 0
 11056 0ca8 1B000000 		.4byte	.LVL313-1
 11057 0cac 28010000 		.4byte	.LFE22
 11058 0cb0 0400     		.2byte	0x4
 11059 0cb2 F3       		.byte	0xf3
 11060 0cb3 01       		.uleb128 0x1
 11061 0cb4 51       		.byte	0x51
 11062 0cb5 9F       		.byte	0x9f
 11063 0cb6 00000000 		.4byte	0
 11064 0cba 00000000 		.4byte	0
 11065              	.LLST47:
 11066 0cbe 00000000 		.4byte	.LVL309
 11067 0cc2 0C000000 		.4byte	.LVL311
 11068 0cc6 0100     		.2byte	0x1
ARM GAS  C:\Users\Phuong\AppData\Local\Temp\ccG6FMOL.s 			page 225


 11069 0cc8 52       		.byte	0x52
 11070 0cc9 0C000000 		.4byte	.LVL311
 11071 0ccd 28010000 		.4byte	.LFE22
 11072 0cd1 0400     		.2byte	0x4
 11073 0cd3 F3       		.byte	0xf3
 11074 0cd4 01       		.uleb128 0x1
 11075 0cd5 52       		.byte	0x52
 11076 0cd6 9F       		.byte	0x9f
 11077 0cd7 00000000 		.4byte	0
 11078 0cdb 00000000 		.4byte	0
 11079              	.LLST48:
 11080 0cdf 1C000000 		.4byte	.LVL313
 11081 0ce3 36000000 		.4byte	.LVL315
 11082 0ce7 0100     		.2byte	0x1
 11083 0ce9 50       		.byte	0x50
 11084 0cea 3A000000 		.4byte	.LVL316
 11085 0cee 5A000000 		.4byte	.LVL317
 11086 0cf2 0100     		.2byte	0x1
 11087 0cf4 50       		.byte	0x50
 11088 0cf5 5E000000 		.4byte	.LVL318
 11089 0cf9 70000000 		.4byte	.LVL319
 11090 0cfd 0100     		.2byte	0x1
 11091 0cff 50       		.byte	0x50
 11092 0d00 74000000 		.4byte	.LVL320
 11093 0d04 8A000000 		.4byte	.LVL321
 11094 0d08 0100     		.2byte	0x1
 11095 0d0a 50       		.byte	0x50
 11096 0d0b 9A000000 		.4byte	.LVL324
 11097 0d0f B0000000 		.4byte	.LVL325
 11098 0d13 0100     		.2byte	0x1
 11099 0d15 50       		.byte	0x50
 11100 0d16 BC000000 		.4byte	.LVL327
 11101 0d1a C0000000 		.4byte	.LVL328
 11102 0d1e 0100     		.2byte	0x1
 11103 0d20 50       		.byte	0x50
 11104 0d21 C0000000 		.4byte	.LVL328
 11105 0d25 C8000000 		.4byte	.LVL330
 11106 0d29 0100     		.2byte	0x1
 11107 0d2b 56       		.byte	0x56
 11108 0d2c C8000000 		.4byte	.LVL330
 11109 0d30 D8000000 		.4byte	.LVL331
 11110 0d34 0100     		.2byte	0x1
 11111 0d36 50       		.byte	0x50
 11112 0d37 E2000000 		.4byte	.LVL333
 11113 0d3b EC000000 		.4byte	.LVL334
 11114 0d3f 0100     		.2byte	0x1
 11115 0d41 50       		.byte	0x50
 11116 0d42 EC000000 		.4byte	.LVL334
 11117 0d46 F8000000 		.4byte	.LVL336
 11118 0d4a 0100     		.2byte	0x1
 11119 0d4c 56       		.byte	0x56
 11120 0d4d F8000000 		.4byte	.LVL336
 11121 0d51 FC000000 		.4byte	.LVL337
 11122 0d55 0100     		.2byte	0x1
 11123 0d57 50       		.byte	0x50
 11124 0d58 FC000000 		.4byte	.LVL337
 11125 0d5c 04010000 		.4byte	.LVL339
ARM GAS  C:\Users\Phuong\AppData\Local\Temp\ccG6FMOL.s 			page 226


 11126 0d60 0100     		.2byte	0x1
 11127 0d62 56       		.byte	0x56
 11128 0d63 04010000 		.4byte	.LVL339
 11129 0d67 08010000 		.4byte	.LVL340
 11130 0d6b 0100     		.2byte	0x1
 11131 0d6d 50       		.byte	0x50
 11132 0d6e 0C010000 		.4byte	.LVL341
 11133 0d72 12010000 		.4byte	.LVL342
 11134 0d76 0100     		.2byte	0x1
 11135 0d78 50       		.byte	0x50
 11136 0d79 00000000 		.4byte	0
 11137 0d7d 00000000 		.4byte	0
 11138              	.LLST49:
 11139 0d81 0A000000 		.4byte	.LVL310
 11140 0d85 1B000000 		.4byte	.LVL313-1
 11141 0d89 0100     		.2byte	0x1
 11142 0d8b 51       		.byte	0x51
 11143 0d8c 1B000000 		.4byte	.LVL313-1
 11144 0d90 30000000 		.4byte	.LVL314
 11145 0d94 0800     		.2byte	0x8
 11146 0d96 F3       		.byte	0xf3
 11147 0d97 01       		.uleb128 0x1
 11148 0d98 51       		.byte	0x51
 11149 0d99 F3       		.byte	0xf3
 11150 0d9a 01       		.uleb128 0x1
 11151 0d9b 52       		.byte	0x52
 11152 0d9c 22       		.byte	0x22
 11153 0d9d 9F       		.byte	0x9f
 11154 0d9e 30000000 		.4byte	.LVL314
 11155 0da2 39000000 		.4byte	.LVL316-1
 11156 0da6 0100     		.2byte	0x1
 11157 0da8 53       		.byte	0x53
 11158 0da9 39000000 		.4byte	.LVL316-1
 11159 0dad BC000000 		.4byte	.LVL327
 11160 0db1 0100     		.2byte	0x1
 11161 0db3 56       		.byte	0x56
 11162 0db4 C8000000 		.4byte	.LVL330
 11163 0db8 E2000000 		.4byte	.LVL333
 11164 0dbc 0100     		.2byte	0x1
 11165 0dbe 56       		.byte	0x56
 11166 0dbf 04010000 		.4byte	.LVL339
 11167 0dc3 12010000 		.4byte	.LVL342
 11168 0dc7 0100     		.2byte	0x1
 11169 0dc9 56       		.byte	0x56
 11170 0dca 00000000 		.4byte	0
 11171 0dce 00000000 		.4byte	0
 11172              	.LLST50:
 11173 0dd2 8E000000 		.4byte	.LVL322
 11174 0dd6 96000000 		.4byte	.LVL323
 11175 0dda 0100     		.2byte	0x1
 11176 0ddc 50       		.byte	0x50
 11177 0ddd 96000000 		.4byte	.LVL323
 11178 0de1 99000000 		.4byte	.LVL324-1
 11179 0de5 0100     		.2byte	0x1
 11180 0de7 51       		.byte	0x51
 11181 0de8 08010000 		.4byte	.LVL340
 11182 0dec 0C010000 		.4byte	.LVL341
ARM GAS  C:\Users\Phuong\AppData\Local\Temp\ccG6FMOL.s 			page 227


 11183 0df0 0100     		.2byte	0x1
 11184 0df2 50       		.byte	0x50
 11185 0df3 00000000 		.4byte	0
 11186 0df7 00000000 		.4byte	0
 11187              	.LLST51:
 11188 0dfb 00000000 		.4byte	.LVL344
 11189 0dff 1A000000 		.4byte	.LVL349
 11190 0e03 0100     		.2byte	0x1
 11191 0e05 50       		.byte	0x50
 11192 0e06 1A000000 		.4byte	.LVL349
 11193 0e0a 46010000 		.4byte	.LVL379
 11194 0e0e 0100     		.2byte	0x1
 11195 0e10 54       		.byte	0x54
 11196 0e11 46010000 		.4byte	.LVL379
 11197 0e15 48010000 		.4byte	.LVL380
 11198 0e19 0100     		.2byte	0x1
 11199 0e1b 50       		.byte	0x50
 11200 0e1c 48010000 		.4byte	.LVL380
 11201 0e20 52010000 		.4byte	.LVL385
 11202 0e24 0100     		.2byte	0x1
 11203 0e26 54       		.byte	0x54
 11204 0e27 52010000 		.4byte	.LVL385
 11205 0e2b 74010000 		.4byte	.LFE23
 11206 0e2f 0400     		.2byte	0x4
 11207 0e31 F3       		.byte	0xf3
 11208 0e32 01       		.uleb128 0x1
 11209 0e33 50       		.byte	0x50
 11210 0e34 9F       		.byte	0x9f
 11211 0e35 00000000 		.4byte	0
 11212 0e39 00000000 		.4byte	0
 11213              	.LLST52:
 11214 0e3d 00000000 		.4byte	.LVL344
 11215 0e41 0C000000 		.4byte	.LVL346
 11216 0e45 0100     		.2byte	0x1
 11217 0e47 51       		.byte	0x51
 11218 0e48 0C000000 		.4byte	.LVL346
 11219 0e4c 1A000000 		.4byte	.LVL349
 11220 0e50 0200     		.2byte	0x2
 11221 0e52 91       		.byte	0x91
 11222 0e53 60       		.sleb128 -32
 11223 0e54 1A000000 		.4byte	.LVL349
 11224 0e58 1D000000 		.4byte	.LVL350-1
 11225 0e5c 0200     		.2byte	0x2
 11226 0e5e 70       		.byte	0x70
 11227 0e5f 00       		.sleb128 0
 11228 0e60 1D000000 		.4byte	.LVL350-1
 11229 0e64 46010000 		.4byte	.LVL379
 11230 0e68 0400     		.2byte	0x4
 11231 0e6a F3       		.byte	0xf3
 11232 0e6b 01       		.uleb128 0x1
 11233 0e6c 51       		.byte	0x51
 11234 0e6d 9F       		.byte	0x9f
 11235 0e6e 46010000 		.4byte	.LVL379
 11236 0e72 4A010000 		.4byte	.LVL381
 11237 0e76 0200     		.2byte	0x2
 11238 0e78 91       		.byte	0x91
 11239 0e79 60       		.sleb128 -32
ARM GAS  C:\Users\Phuong\AppData\Local\Temp\ccG6FMOL.s 			page 228


 11240 0e7a 4A010000 		.4byte	.LVL381
 11241 0e7e 74010000 		.4byte	.LFE23
 11242 0e82 0400     		.2byte	0x4
 11243 0e84 F3       		.byte	0xf3
 11244 0e85 01       		.uleb128 0x1
 11245 0e86 51       		.byte	0x51
 11246 0e87 9F       		.byte	0x9f
 11247 0e88 00000000 		.4byte	0
 11248 0e8c 00000000 		.4byte	0
 11249              	.LLST53:
 11250 0e90 00000000 		.4byte	.LVL344
 11251 0e94 18000000 		.4byte	.LVL348
 11252 0e98 0100     		.2byte	0x1
 11253 0e9a 52       		.byte	0x52
 11254 0e9b 18000000 		.4byte	.LVL348
 11255 0e9f 46010000 		.4byte	.LVL379
 11256 0ea3 0400     		.2byte	0x4
 11257 0ea5 F3       		.byte	0xf3
 11258 0ea6 01       		.uleb128 0x1
 11259 0ea7 52       		.byte	0x52
 11260 0ea8 9F       		.byte	0x9f
 11261 0ea9 46010000 		.4byte	.LVL379
 11262 0ead 4A010000 		.4byte	.LVL381
 11263 0eb1 0100     		.2byte	0x1
 11264 0eb3 52       		.byte	0x52
 11265 0eb4 4A010000 		.4byte	.LVL381
 11266 0eb8 74010000 		.4byte	.LFE23
 11267 0ebc 0400     		.2byte	0x4
 11268 0ebe F3       		.byte	0xf3
 11269 0ebf 01       		.uleb128 0x1
 11270 0ec0 52       		.byte	0x52
 11271 0ec1 9F       		.byte	0x9f
 11272 0ec2 00000000 		.4byte	0
 11273 0ec6 00000000 		.4byte	0
 11274              	.LLST54:
 11275 0eca 00000000 		.4byte	.LVL344
 11276 0ece 0E000000 		.4byte	.LVL347
 11277 0ed2 0100     		.2byte	0x1
 11278 0ed4 53       		.byte	0x53
 11279 0ed5 0E000000 		.4byte	.LVL347
 11280 0ed9 52010000 		.4byte	.LVL386
 11281 0edd 0100     		.2byte	0x1
 11282 0edf 55       		.byte	0x55
 11283 0ee0 52010000 		.4byte	.LVL386
 11284 0ee4 74010000 		.4byte	.LFE23
 11285 0ee8 0400     		.2byte	0x4
 11286 0eea F3       		.byte	0xf3
 11287 0eeb 01       		.uleb128 0x1
 11288 0eec 53       		.byte	0x53
 11289 0eed 9F       		.byte	0x9f
 11290 0eee 00000000 		.4byte	0
 11291 0ef2 00000000 		.4byte	0
 11292              	.LLST55:
 11293 0ef6 1E000000 		.4byte	.LVL350
 11294 0efa 28000000 		.4byte	.LVL351
 11295 0efe 0100     		.2byte	0x1
 11296 0f00 50       		.byte	0x50
ARM GAS  C:\Users\Phuong\AppData\Local\Temp\ccG6FMOL.s 			page 229


 11297 0f01 28000000 		.4byte	.LVL351
 11298 0f05 2A000000 		.4byte	.LVL352
 11299 0f09 0500     		.2byte	0x5
 11300 0f0b 70       		.byte	0x70
 11301 0f0c 80FA00   		.sleb128 15616
 11302 0f0f 9F       		.byte	0x9f
 11303 0f10 2A000000 		.4byte	.LVL352
 11304 0f14 3C000000 		.4byte	.LVL355
 11305 0f18 0100     		.2byte	0x1
 11306 0f1a 50       		.byte	0x50
 11307 0f1b 40000000 		.4byte	.LVL356
 11308 0f1f 4A000000 		.4byte	.LVL357
 11309 0f23 0100     		.2byte	0x1
 11310 0f25 50       		.byte	0x50
 11311 0f26 4A000000 		.4byte	.LVL357
 11312 0f2a 4C000000 		.4byte	.LVL358
 11313 0f2e 0500     		.2byte	0x5
 11314 0f30 70       		.byte	0x70
 11315 0f31 80FA00   		.sleb128 15616
 11316 0f34 9F       		.byte	0x9f
 11317 0f35 4C000000 		.4byte	.LVL358
 11318 0f39 54000000 		.4byte	.LVL359
 11319 0f3d 0100     		.2byte	0x1
 11320 0f3f 50       		.byte	0x50
 11321 0f40 58000000 		.4byte	.LVL360
 11322 0f44 62000000 		.4byte	.LVL361
 11323 0f48 0100     		.2byte	0x1
 11324 0f4a 50       		.byte	0x50
 11325 0f4b 62000000 		.4byte	.LVL361
 11326 0f4f 64000000 		.4byte	.LVL362
 11327 0f53 0500     		.2byte	0x5
 11328 0f55 70       		.byte	0x70
 11329 0f56 80FA00   		.sleb128 15616
 11330 0f59 9F       		.byte	0x9f
 11331 0f5a 64000000 		.4byte	.LVL362
 11332 0f5e 70000000 		.4byte	.LVL364
 11333 0f62 0100     		.2byte	0x1
 11334 0f64 50       		.byte	0x50
 11335 0f65 9C000000 		.4byte	.LVL366
 11336 0f69 A8000000 		.4byte	.LVL367
 11337 0f6d 0100     		.2byte	0x1
 11338 0f6f 50       		.byte	0x50
 11339 0f70 DE000000 		.4byte	.LVL369
 11340 0f74 EC000000 		.4byte	.LVL370
 11341 0f78 0100     		.2byte	0x1
 11342 0f7a 50       		.byte	0x50
 11343 0f7b 1E010000 		.4byte	.LVL372
 11344 0f7f 2A010000 		.4byte	.LVL373
 11345 0f83 0100     		.2byte	0x1
 11346 0f85 50       		.byte	0x50
 11347 0f86 2C010000 		.4byte	.LVL374
 11348 0f8a 30010000 		.4byte	.LVL375
 11349 0f8e 0100     		.2byte	0x1
 11350 0f90 50       		.byte	0x50
 11351 0f91 34010000 		.4byte	.LVL376
 11352 0f95 36010000 		.4byte	.LVL377
 11353 0f99 0100     		.2byte	0x1
ARM GAS  C:\Users\Phuong\AppData\Local\Temp\ccG6FMOL.s 			page 230


 11354 0f9b 50       		.byte	0x50
 11355 0f9c 4A010000 		.4byte	.LVL381
 11356 0fa0 4C010000 		.4byte	.LVL382
 11357 0fa4 0100     		.2byte	0x1
 11358 0fa6 50       		.byte	0x50
 11359 0fa7 00000000 		.4byte	0
 11360 0fab 00000000 		.4byte	0
 11361              	.LLST56:
 11362 0faf 08000000 		.4byte	.LVL345
 11363 0fb3 36010000 		.4byte	.LVL377
 11364 0fb7 0200     		.2byte	0x2
 11365 0fb9 30       		.byte	0x30
 11366 0fba 9F       		.byte	0x9f
 11367 0fbb 36010000 		.4byte	.LVL377
 11368 0fbf 43010000 		.4byte	.LVL378-1
 11369 0fc3 0100     		.2byte	0x1
 11370 0fc5 53       		.byte	0x53
 11371 0fc6 46010000 		.4byte	.LVL379
 11372 0fca 4E010000 		.4byte	.LVL383
 11373 0fce 0200     		.2byte	0x2
 11374 0fd0 30       		.byte	0x30
 11375 0fd1 9F       		.byte	0x9f
 11376 0fd2 4E010000 		.4byte	.LVL383
 11377 0fd6 50010000 		.4byte	.LVL384
 11378 0fda 0100     		.2byte	0x1
 11379 0fdc 53       		.byte	0x53
 11380 0fdd 00000000 		.4byte	0
 11381 0fe1 00000000 		.4byte	0
 11382              	.LLST57:
 11383 0fe5 66000000 		.4byte	.LVL363
 11384 0fe9 46010000 		.4byte	.LVL379
 11385 0fed 0100     		.2byte	0x1
 11386 0fef 56       		.byte	0x56
 11387 0ff0 4A010000 		.4byte	.LVL381
 11388 0ff4 50010000 		.4byte	.LVL384
 11389 0ff8 0100     		.2byte	0x1
 11390 0ffa 56       		.byte	0x56
 11391 0ffb 00000000 		.4byte	0
 11392 0fff 00000000 		.4byte	0
 11393              	.LLST58:
 11394 1003 0C000000 		.4byte	.LVL346
 11395 1007 1D000000 		.4byte	.LVL350-1
 11396 100b 0100     		.2byte	0x1
 11397 100d 51       		.byte	0x51
 11398 100e 1D000000 		.4byte	.LVL350-1
 11399 1012 34000000 		.4byte	.LVL353
 11400 1016 0800     		.2byte	0x8
 11401 1018 F3       		.byte	0xf3
 11402 1019 01       		.uleb128 0x1
 11403 101a 51       		.byte	0x51
 11404 101b F3       		.byte	0xf3
 11405 101c 01       		.uleb128 0x1
 11406 101d 52       		.byte	0x52
 11407 101e 22       		.byte	0x22
 11408 101f 9F       		.byte	0x9f
 11409 1020 34000000 		.4byte	.LVL353
 11410 1024 36000000 		.4byte	.LVL354
ARM GAS  C:\Users\Phuong\AppData\Local\Temp\ccG6FMOL.s 			page 231


 11411 1028 0100     		.2byte	0x1
 11412 102a 53       		.byte	0x53
 11413 102b 36000000 		.4byte	.LVL354
 11414 102f 66000000 		.4byte	.LVL363
 11415 1033 0100     		.2byte	0x1
 11416 1035 56       		.byte	0x56
 11417 1036 46010000 		.4byte	.LVL379
 11418 103a 4A010000 		.4byte	.LVL381
 11419 103e 0100     		.2byte	0x1
 11420 1040 51       		.byte	0x51
 11421 1041 00000000 		.4byte	0
 11422 1045 00000000 		.4byte	0
 11423              	.LLST59:
 11424 1049 00000000 		.4byte	.LVL387
 11425 104d 17000000 		.4byte	.LVL389-1
 11426 1051 0100     		.2byte	0x1
 11427 1053 50       		.byte	0x50
 11428 1054 17000000 		.4byte	.LVL389-1
 11429 1058 F6000000 		.4byte	.LVL423
 11430 105c 0100     		.2byte	0x1
 11431 105e 56       		.byte	0x56
 11432 105f F6000000 		.4byte	.LVL423
 11433 1063 08010000 		.4byte	.LFE19
 11434 1067 0400     		.2byte	0x4
 11435 1069 F3       		.byte	0xf3
 11436 106a 01       		.uleb128 0x1
 11437 106b 50       		.byte	0x50
 11438 106c 9F       		.byte	0x9f
 11439 106d 00000000 		.4byte	0
 11440 1071 00000000 		.4byte	0
 11441              	.LLST60:
 11442 1075 00000000 		.4byte	.LVL387
 11443 1079 17000000 		.4byte	.LVL389-1
 11444 107d 0100     		.2byte	0x1
 11445 107f 51       		.byte	0x51
 11446 1080 17000000 		.4byte	.LVL389-1
 11447 1084 2E000000 		.4byte	.LVL392
 11448 1088 0400     		.2byte	0x4
 11449 108a F3       		.byte	0xf3
 11450 108b 01       		.uleb128 0x1
 11451 108c 51       		.byte	0x51
 11452 108d 9F       		.byte	0x9f
 11453 108e 2E000000 		.4byte	.LVL392
 11454 1092 30000000 		.4byte	.LVL393
 11455 1096 0100     		.2byte	0x1
 11456 1098 53       		.byte	0x53
 11457 1099 30000000 		.4byte	.LVL393
 11458 109d F4000000 		.4byte	.LVL421
 11459 10a1 0100     		.2byte	0x1
 11460 10a3 57       		.byte	0x57
 11461 10a4 00000000 		.4byte	0
 11462 10a8 00000000 		.4byte	0
 11463              	.LLST61:
 11464 10ac 00000000 		.4byte	.LVL387
 11465 10b0 0A000000 		.4byte	.LVL388
 11466 10b4 0100     		.2byte	0x1
 11467 10b6 52       		.byte	0x52
ARM GAS  C:\Users\Phuong\AppData\Local\Temp\ccG6FMOL.s 			page 232


 11468 10b7 0A000000 		.4byte	.LVL388
 11469 10bb F6000000 		.4byte	.LVL422
 11470 10bf 0100     		.2byte	0x1
 11471 10c1 54       		.byte	0x54
 11472 10c2 F6000000 		.4byte	.LVL422
 11473 10c6 08010000 		.4byte	.LFE19
 11474 10ca 0400     		.2byte	0x4
 11475 10cc F3       		.byte	0xf3
 11476 10cd 01       		.uleb128 0x1
 11477 10ce 52       		.byte	0x52
 11478 10cf 9F       		.byte	0x9f
 11479 10d0 00000000 		.4byte	0
 11480 10d4 00000000 		.4byte	0
 11481              	.LLST62:
 11482 10d8 18000000 		.4byte	.LVL389
 11483 10dc 22000000 		.4byte	.LVL390
 11484 10e0 0100     		.2byte	0x1
 11485 10e2 50       		.byte	0x50
 11486 10e3 22000000 		.4byte	.LVL390
 11487 10e7 24000000 		.4byte	.LVL391
 11488 10eb 0500     		.2byte	0x5
 11489 10ed 70       		.byte	0x70
 11490 10ee 80FA00   		.sleb128 15616
 11491 10f1 9F       		.byte	0x9f
 11492 10f2 24000000 		.4byte	.LVL391
 11493 10f6 38000000 		.4byte	.LVL394
 11494 10fa 0100     		.2byte	0x1
 11495 10fc 50       		.byte	0x50
 11496 10fd 3C000000 		.4byte	.LVL395
 11497 1101 46000000 		.4byte	.LVL396
 11498 1105 0100     		.2byte	0x1
 11499 1107 50       		.byte	0x50
 11500 1108 4A000000 		.4byte	.LVL397
 11501 110c 54000000 		.4byte	.LVL398
 11502 1110 0100     		.2byte	0x1
 11503 1112 50       		.byte	0x50
 11504 1113 54000000 		.4byte	.LVL398
 11505 1117 56000000 		.4byte	.LVL399
 11506 111b 0500     		.2byte	0x5
 11507 111d 70       		.byte	0x70
 11508 111e 80F600   		.sleb128 15104
 11509 1121 9F       		.byte	0x9f
 11510 1122 56000000 		.4byte	.LVL399
 11511 1126 68000000 		.4byte	.LVL400
 11512 112a 0100     		.2byte	0x1
 11513 112c 50       		.byte	0x50
 11514 112d 78000000 		.4byte	.LVL403
 11515 1131 8E000000 		.4byte	.LVL404
 11516 1135 0100     		.2byte	0x1
 11517 1137 50       		.byte	0x50
 11518 1138 9A000000 		.4byte	.LVL406
 11519 113c AC000000 		.4byte	.LVL407
 11520 1140 0100     		.2byte	0x1
 11521 1142 50       		.byte	0x50
 11522 1143 B6000000 		.4byte	.LVL409
 11523 1147 C0000000 		.4byte	.LVL410
 11524 114b 0100     		.2byte	0x1
ARM GAS  C:\Users\Phuong\AppData\Local\Temp\ccG6FMOL.s 			page 233


 11525 114d 50       		.byte	0x50
 11526 114e C0000000 		.4byte	.LVL410
 11527 1152 CC000000 		.4byte	.LVL412
 11528 1156 0100     		.2byte	0x1
 11529 1158 55       		.byte	0x55
 11530 1159 CC000000 		.4byte	.LVL412
 11531 115d D0000000 		.4byte	.LVL413
 11532 1161 0100     		.2byte	0x1
 11533 1163 50       		.byte	0x50
 11534 1164 D0000000 		.4byte	.LVL413
 11535 1168 EA000000 		.4byte	.LVL416
 11536 116c 0100     		.2byte	0x1
 11537 116e 55       		.byte	0x55
 11538 116f EA000000 		.4byte	.LVL416
 11539 1173 EC000000 		.4byte	.LVL417
 11540 1177 0100     		.2byte	0x1
 11541 1179 50       		.byte	0x50
 11542 117a F2000000 		.4byte	.LVL420
 11543 117e F4000000 		.4byte	.LVL421
 11544 1182 0100     		.2byte	0x1
 11545 1184 55       		.byte	0x55
 11546 1185 00000000 		.4byte	0
 11547 1189 00000000 		.4byte	0
 11548              	.LLST63:
 11549 118d 6C000000 		.4byte	.LVL401
 11550 1191 74000000 		.4byte	.LVL402
 11551 1195 0100     		.2byte	0x1
 11552 1197 50       		.byte	0x50
 11553 1198 74000000 		.4byte	.LVL402
 11554 119c 77000000 		.4byte	.LVL403-1
 11555 11a0 0100     		.2byte	0x1
 11556 11a2 51       		.byte	0x51
 11557 11a3 EE000000 		.4byte	.LVL418
 11558 11a7 F0000000 		.4byte	.LVL419
 11559 11ab 0100     		.2byte	0x1
 11560 11ad 50       		.byte	0x50
 11561 11ae 00000000 		.4byte	0
 11562 11b2 00000000 		.4byte	0
 11563              	.LLST64:
 11564 11b6 00000000 		.4byte	.LVL424
 11565 11ba 0E000000 		.4byte	.LVL425
 11566 11be 0100     		.2byte	0x1
 11567 11c0 50       		.byte	0x50
 11568 11c1 0E000000 		.4byte	.LVL425
 11569 11c5 94020000 		.4byte	.LVL524
 11570 11c9 0100     		.2byte	0x1
 11571 11cb 56       		.byte	0x56
 11572 11cc 94020000 		.4byte	.LVL524
 11573 11d0 D4020000 		.4byte	.LFE24
 11574 11d4 0400     		.2byte	0x4
 11575 11d6 F3       		.byte	0xf3
 11576 11d7 01       		.uleb128 0x1
 11577 11d8 50       		.byte	0x50
 11578 11d9 9F       		.byte	0x9f
 11579 11da 00000000 		.4byte	0
 11580 11de 00000000 		.4byte	0
 11581              	.LLST65:
ARM GAS  C:\Users\Phuong\AppData\Local\Temp\ccG6FMOL.s 			page 234


 11582 11e2 00000000 		.4byte	.LVL424
 11583 11e6 11000000 		.4byte	.LVL426-1
 11584 11ea 0100     		.2byte	0x1
 11585 11ec 51       		.byte	0x51
 11586 11ed 11000000 		.4byte	.LVL426-1
 11587 11f1 94020000 		.4byte	.LVL523
 11588 11f5 0100     		.2byte	0x1
 11589 11f7 55       		.byte	0x55
 11590 11f8 94020000 		.4byte	.LVL523
 11591 11fc D4020000 		.4byte	.LFE24
 11592 1200 0400     		.2byte	0x4
 11593 1202 F3       		.byte	0xf3
 11594 1203 01       		.uleb128 0x1
 11595 1204 51       		.byte	0x51
 11596 1205 9F       		.byte	0x9f
 11597 1206 00000000 		.4byte	0
 11598 120a 00000000 		.4byte	0
 11599              	.LLST66:
 11600 120e 00000000 		.4byte	.LVL424
 11601 1212 11000000 		.4byte	.LVL426-1
 11602 1216 0100     		.2byte	0x1
 11603 1218 52       		.byte	0x52
 11604 1219 11000000 		.4byte	.LVL426-1
 11605 121d 94020000 		.4byte	.LVL525
 11606 1221 0100     		.2byte	0x1
 11607 1223 57       		.byte	0x57
 11608 1224 94020000 		.4byte	.LVL525
 11609 1228 D4020000 		.4byte	.LFE24
 11610 122c 0400     		.2byte	0x4
 11611 122e F3       		.byte	0xf3
 11612 122f 01       		.uleb128 0x1
 11613 1230 52       		.byte	0x52
 11614 1231 9F       		.byte	0x9f
 11615 1232 00000000 		.4byte	0
 11616 1236 00000000 		.4byte	0
 11617              	.LLST67:
 11618 123a 00000000 		.4byte	.LVL424
 11619 123e 11000000 		.4byte	.LVL426-1
 11620 1242 0100     		.2byte	0x1
 11621 1244 53       		.byte	0x53
 11622 1245 11000000 		.4byte	.LVL426-1
 11623 1249 52000000 		.4byte	.LVL435
 11624 124d 0100     		.2byte	0x1
 11625 124f 54       		.byte	0x54
 11626 1250 52000000 		.4byte	.LVL435
 11627 1254 7A000000 		.4byte	.LVL442
 11628 1258 0400     		.2byte	0x4
 11629 125a F3       		.byte	0xf3
 11630 125b 01       		.uleb128 0x1
 11631 125c 53       		.byte	0x53
 11632 125d 9F       		.byte	0x9f
 11633 125e 7A000000 		.4byte	.LVL442
 11634 1262 CA000000 		.4byte	.LVL450
 11635 1266 0100     		.2byte	0x1
 11636 1268 54       		.byte	0x54
 11637 1269 CA000000 		.4byte	.LVL450
 11638 126d F2000000 		.4byte	.LVL457
ARM GAS  C:\Users\Phuong\AppData\Local\Temp\ccG6FMOL.s 			page 235


 11639 1271 0400     		.2byte	0x4
 11640 1273 F3       		.byte	0xf3
 11641 1274 01       		.uleb128 0x1
 11642 1275 53       		.byte	0x53
 11643 1276 9F       		.byte	0x9f
 11644 1277 F2000000 		.4byte	.LVL457
 11645 127b 3E010000 		.4byte	.LVL462
 11646 127f 0100     		.2byte	0x1
 11647 1281 54       		.byte	0x54
 11648 1282 3E010000 		.4byte	.LVL462
 11649 1286 50010000 		.4byte	.LVL466
 11650 128a 0400     		.2byte	0x4
 11651 128c F3       		.byte	0xf3
 11652 128d 01       		.uleb128 0x1
 11653 128e 53       		.byte	0x53
 11654 128f 9F       		.byte	0x9f
 11655 1290 50010000 		.4byte	.LVL466
 11656 1294 92010000 		.4byte	.LVL471
 11657 1298 0100     		.2byte	0x1
 11658 129a 54       		.byte	0x54
 11659 129b 92010000 		.4byte	.LVL471
 11660 129f A4010000 		.4byte	.LVL475
 11661 12a3 0400     		.2byte	0x4
 11662 12a5 F3       		.byte	0xf3
 11663 12a6 01       		.uleb128 0x1
 11664 12a7 53       		.byte	0x53
 11665 12a8 9F       		.byte	0x9f
 11666 12a9 A4010000 		.4byte	.LVL475
 11667 12ad D6010000 		.4byte	.LVL480
 11668 12b1 0100     		.2byte	0x1
 11669 12b3 54       		.byte	0x54
 11670 12b4 D6010000 		.4byte	.LVL480
 11671 12b8 68020000 		.4byte	.LVL504
 11672 12bc 0400     		.2byte	0x4
 11673 12be F3       		.byte	0xf3
 11674 12bf 01       		.uleb128 0x1
 11675 12c0 53       		.byte	0x53
 11676 12c1 9F       		.byte	0x9f
 11677 12c2 68020000 		.4byte	.LVL504
 11678 12c6 80020000 		.4byte	.LVL516
 11679 12ca 0100     		.2byte	0x1
 11680 12cc 54       		.byte	0x54
 11681 12cd 80020000 		.4byte	.LVL516
 11682 12d1 D4020000 		.4byte	.LFE24
 11683 12d5 0400     		.2byte	0x4
 11684 12d7 F3       		.byte	0xf3
 11685 12d8 01       		.uleb128 0x1
 11686 12d9 53       		.byte	0x53
 11687 12da 9F       		.byte	0x9f
 11688 12db 00000000 		.4byte	0
 11689 12df 00000000 		.4byte	0
 11690              	.LLST68:
 11691 12e3 36000000 		.4byte	.LVL427
 11692 12e7 38000000 		.4byte	.LVL428
 11693 12eb 0100     		.2byte	0x1
 11694 12ed 50       		.byte	0x50
 11695 12ee 3E000000 		.4byte	.LVL429
ARM GAS  C:\Users\Phuong\AppData\Local\Temp\ccG6FMOL.s 			page 236


 11696 12f2 44000000 		.4byte	.LVL430
 11697 12f6 0100     		.2byte	0x1
 11698 12f8 50       		.byte	0x50
 11699 12f9 44000000 		.4byte	.LVL430
 11700 12fd 47000000 		.4byte	.LVL431-1
 11701 1301 0300     		.2byte	0x3
 11702 1303 70       		.byte	0x70
 11703 1304 7F       		.sleb128 -1
 11704 1305 9F       		.byte	0x9f
 11705 1306 52000000 		.4byte	.LVL435
 11706 130a 5C000000 		.4byte	.LVL436
 11707 130e 0100     		.2byte	0x1
 11708 1310 50       		.byte	0x50
 11709 1311 5C000000 		.4byte	.LVL436
 11710 1315 68000000 		.4byte	.LVL438
 11711 1319 0100     		.2byte	0x1
 11712 131b 54       		.byte	0x54
 11713 131c 68000000 		.4byte	.LVL438
 11714 1320 6C000000 		.4byte	.LVL439
 11715 1324 0100     		.2byte	0x1
 11716 1326 50       		.byte	0x50
 11717 1327 6C000000 		.4byte	.LVL439
 11718 132b 7A000000 		.4byte	.LVL442
 11719 132f 0100     		.2byte	0x1
 11720 1331 54       		.byte	0x54
 11721 1332 7A000000 		.4byte	.LVL442
 11722 1336 B2000000 		.4byte	.LVL443
 11723 133a 0100     		.2byte	0x1
 11724 133c 50       		.byte	0x50
 11725 133d B6000000 		.4byte	.LVL444
 11726 1341 BC000000 		.4byte	.LVL445
 11727 1345 0100     		.2byte	0x1
 11728 1347 50       		.byte	0x50
 11729 1348 BC000000 		.4byte	.LVL445
 11730 134c BF000000 		.4byte	.LVL446-1
 11731 1350 0300     		.2byte	0x3
 11732 1352 70       		.byte	0x70
 11733 1353 7E       		.sleb128 -2
 11734 1354 9F       		.byte	0x9f
 11735 1355 CA000000 		.4byte	.LVL450
 11736 1359 D4000000 		.4byte	.LVL451
 11737 135d 0100     		.2byte	0x1
 11738 135f 50       		.byte	0x50
 11739 1360 D4000000 		.4byte	.LVL451
 11740 1364 E0000000 		.4byte	.LVL453
 11741 1368 0100     		.2byte	0x1
 11742 136a 54       		.byte	0x54
 11743 136b E0000000 		.4byte	.LVL453
 11744 136f E4000000 		.4byte	.LVL454
 11745 1373 0100     		.2byte	0x1
 11746 1375 50       		.byte	0x50
 11747 1376 E4000000 		.4byte	.LVL454
 11748 137a F2000000 		.4byte	.LVL457
 11749 137e 0100     		.2byte	0x1
 11750 1380 54       		.byte	0x54
 11751 1381 F2000000 		.4byte	.LVL457
 11752 1385 2A010000 		.4byte	.LVL458
ARM GAS  C:\Users\Phuong\AppData\Local\Temp\ccG6FMOL.s 			page 237


 11753 1389 0100     		.2byte	0x1
 11754 138b 50       		.byte	0x50
 11755 138c 2E010000 		.4byte	.LVL459
 11756 1390 38010000 		.4byte	.LVL460
 11757 1394 0100     		.2byte	0x1
 11758 1396 50       		.byte	0x50
 11759 1397 3E010000 		.4byte	.LVL462
 11760 139b 42010000 		.4byte	.LVL463
 11761 139f 0100     		.2byte	0x1
 11762 13a1 50       		.byte	0x50
 11763 13a2 42010000 		.4byte	.LVL463
 11764 13a6 50010000 		.4byte	.LVL466
 11765 13aa 0100     		.2byte	0x1
 11766 13ac 54       		.byte	0x54
 11767 13ad 50010000 		.4byte	.LVL466
 11768 13b1 78010000 		.4byte	.LVL467
 11769 13b5 0100     		.2byte	0x1
 11770 13b7 50       		.byte	0x50
 11771 13b8 7C010000 		.4byte	.LVL468
 11772 13bc 8C010000 		.4byte	.LVL469
 11773 13c0 0100     		.2byte	0x1
 11774 13c2 50       		.byte	0x50
 11775 13c3 92010000 		.4byte	.LVL471
 11776 13c7 96010000 		.4byte	.LVL472
 11777 13cb 0100     		.2byte	0x1
 11778 13cd 50       		.byte	0x50
 11779 13ce 96010000 		.4byte	.LVL472
 11780 13d2 A4010000 		.4byte	.LVL475
 11781 13d6 0100     		.2byte	0x1
 11782 13d8 54       		.byte	0x54
 11783 13d9 A4010000 		.4byte	.LVL475
 11784 13dd B2010000 		.4byte	.LVL476
 11785 13e1 0100     		.2byte	0x1
 11786 13e3 50       		.byte	0x50
 11787 13e4 D6010000 		.4byte	.LVL480
 11788 13e8 DA010000 		.4byte	.LVL481
 11789 13ec 0100     		.2byte	0x1
 11790 13ee 50       		.byte	0x50
 11791 13ef DA010000 		.4byte	.LVL481
 11792 13f3 FE010000 		.4byte	.LVL485
 11793 13f7 0100     		.2byte	0x1
 11794 13f9 54       		.byte	0x54
 11795 13fa FE010000 		.4byte	.LVL485
 11796 13fe 04020000 		.4byte	.LVL486
 11797 1402 0100     		.2byte	0x1
 11798 1404 50       		.byte	0x50
 11799 1405 16020000 		.4byte	.LVL491
 11800 1409 22020000 		.4byte	.LVL492
 11801 140d 0100     		.2byte	0x1
 11802 140f 50       		.byte	0x50
 11803 1410 2C020000 		.4byte	.LVL493
 11804 1414 32020000 		.4byte	.LVL494
 11805 1418 0100     		.2byte	0x1
 11806 141a 50       		.byte	0x50
 11807 141b 44020000 		.4byte	.LVL499
 11808 141f 50020000 		.4byte	.LVL500
 11809 1423 0100     		.2byte	0x1
ARM GAS  C:\Users\Phuong\AppData\Local\Temp\ccG6FMOL.s 			page 238


 11810 1425 50       		.byte	0x50
 11811 1426 5A020000 		.4byte	.LVL501
 11812 142a 60020000 		.4byte	.LVL502
 11813 142e 0100     		.2byte	0x1
 11814 1430 50       		.byte	0x50
 11815 1431 68020000 		.4byte	.LVL504
 11816 1435 6A020000 		.4byte	.LVL505
 11817 1439 0100     		.2byte	0x1
 11818 143b 50       		.byte	0x50
 11819 143c 6C020000 		.4byte	.LVL506
 11820 1440 6E020000 		.4byte	.LVL507
 11821 1444 0100     		.2byte	0x1
 11822 1446 50       		.byte	0x50
 11823 1447 70020000 		.4byte	.LVL508
 11824 144b 72020000 		.4byte	.LVL509
 11825 144f 0100     		.2byte	0x1
 11826 1451 50       		.byte	0x50
 11827 1452 74020000 		.4byte	.LVL510
 11828 1456 76020000 		.4byte	.LVL511
 11829 145a 0100     		.2byte	0x1
 11830 145c 50       		.byte	0x50
 11831 145d 78020000 		.4byte	.LVL512
 11832 1461 7A020000 		.4byte	.LVL513
 11833 1465 0100     		.2byte	0x1
 11834 1467 50       		.byte	0x50
 11835 1468 80020000 		.4byte	.LVL516
 11836 146c 88020000 		.4byte	.LVL517
 11837 1470 0100     		.2byte	0x1
 11838 1472 54       		.byte	0x54
 11839 1473 88020000 		.4byte	.LVL517
 11840 1477 8A020000 		.4byte	.LVL518
 11841 147b 0100     		.2byte	0x1
 11842 147d 50       		.byte	0x50
 11843 147e 8C020000 		.4byte	.LVL519
 11844 1482 8E020000 		.4byte	.LVL520
 11845 1486 0100     		.2byte	0x1
 11846 1488 50       		.byte	0x50
 11847 1489 90020000 		.4byte	.LVL521
 11848 148d 92020000 		.4byte	.LVL522
 11849 1491 0100     		.2byte	0x1
 11850 1493 50       		.byte	0x50
 11851 1494 00000000 		.4byte	0
 11852 1498 00000000 		.4byte	0
 11853              	.LLST69:
 11854 149c 4A000000 		.4byte	.LVL432
 11855 14a0 4C000000 		.4byte	.LVL433
 11856 14a4 0100     		.2byte	0x1
 11857 14a6 50       		.byte	0x50
 11858 14a7 4C000000 		.4byte	.LVL433
 11859 14ab 4F000000 		.4byte	.LVL434-1
 11860 14af 0100     		.2byte	0x1
 11861 14b1 51       		.byte	0x51
 11862 14b2 C2000000 		.4byte	.LVL447
 11863 14b6 C4000000 		.4byte	.LVL448
 11864 14ba 0100     		.2byte	0x1
 11865 14bc 50       		.byte	0x50
 11866 14bd C4000000 		.4byte	.LVL448
ARM GAS  C:\Users\Phuong\AppData\Local\Temp\ccG6FMOL.s 			page 239


 11867 14c1 C7000000 		.4byte	.LVL449-1
 11868 14c5 0100     		.2byte	0x1
 11869 14c7 51       		.byte	0x51
 11870 14c8 10020000 		.4byte	.LVL489
 11871 14cc 12020000 		.4byte	.LVL490
 11872 14d0 0100     		.2byte	0x1
 11873 14d2 50       		.byte	0x50
 11874 14d3 12020000 		.4byte	.LVL490
 11875 14d7 15020000 		.4byte	.LVL491-1
 11876 14db 0100     		.2byte	0x1
 11877 14dd 51       		.byte	0x51
 11878 14de 3E020000 		.4byte	.LVL497
 11879 14e2 40020000 		.4byte	.LVL498
 11880 14e6 0100     		.2byte	0x1
 11881 14e8 50       		.byte	0x50
 11882 14e9 40020000 		.4byte	.LVL498
 11883 14ed 43020000 		.4byte	.LVL499-1
 11884 14f1 0100     		.2byte	0x1
 11885 14f3 51       		.byte	0x51
 11886 14f4 00000000 		.4byte	0
 11887 14f8 00000000 		.4byte	0
 11888              	.LLST70:
 11889 14fc B6010000 		.4byte	.LVL477
 11890 1500 C3010000 		.4byte	.LVL478-1
 11891 1504 0100     		.2byte	0x1
 11892 1506 50       		.byte	0x50
 11893 1507 C3010000 		.4byte	.LVL478-1
 11894 150b 68020000 		.4byte	.LVL504
 11895 150f 0300     		.2byte	0x3
 11896 1511 91       		.byte	0x91
 11897 1512 B47F     		.sleb128 -76
 11898 1514 7C020000 		.4byte	.LVL514
 11899 1518 7E020000 		.4byte	.LVL515
 11900 151c 0100     		.2byte	0x1
 11901 151e 50       		.byte	0x50
 11902 151f 80020000 		.4byte	.LVL516
 11903 1523 92020000 		.4byte	.LVL522
 11904 1527 0300     		.2byte	0x3
 11905 1529 91       		.byte	0x91
 11906 152a B47F     		.sleb128 -76
 11907 152c 00000000 		.4byte	0
 11908 1530 00000000 		.4byte	0
 11909              	.LLST71:
 11910 1534 00000000 		.4byte	.LVL526
 11911 1538 0C000000 		.4byte	.LVL527
 11912 153c 0100     		.2byte	0x1
 11913 153e 50       		.byte	0x50
 11914 153f 0C000000 		.4byte	.LVL527
 11915 1543 52010000 		.4byte	.LVL568
 11916 1547 0100     		.2byte	0x1
 11917 1549 55       		.byte	0x55
 11918 154a 52010000 		.4byte	.LVL568
 11919 154e 70010000 		.4byte	.LFE25
 11920 1552 0400     		.2byte	0x4
 11921 1554 F3       		.byte	0xf3
 11922 1555 01       		.uleb128 0x1
 11923 1556 50       		.byte	0x50
ARM GAS  C:\Users\Phuong\AppData\Local\Temp\ccG6FMOL.s 			page 240


 11924 1557 9F       		.byte	0x9f
 11925 1558 00000000 		.4byte	0
 11926 155c 00000000 		.4byte	0
 11927              	.LLST72:
 11928 1560 00000000 		.4byte	.LVL526
 11929 1564 0F000000 		.4byte	.LVL528-1
 11930 1568 0100     		.2byte	0x1
 11931 156a 51       		.byte	0x51
 11932 156b 0F000000 		.4byte	.LVL528-1
 11933 156f 52010000 		.4byte	.LVL569
 11934 1573 0100     		.2byte	0x1
 11935 1575 56       		.byte	0x56
 11936 1576 52010000 		.4byte	.LVL569
 11937 157a 70010000 		.4byte	.LFE25
 11938 157e 0400     		.2byte	0x4
 11939 1580 F3       		.byte	0xf3
 11940 1581 01       		.uleb128 0x1
 11941 1582 51       		.byte	0x51
 11942 1583 9F       		.byte	0x9f
 11943 1584 00000000 		.4byte	0
 11944 1588 00000000 		.4byte	0
 11945              	.LLST73:
 11946 158c 00000000 		.4byte	.LVL526
 11947 1590 0F000000 		.4byte	.LVL528-1
 11948 1594 0100     		.2byte	0x1
 11949 1596 52       		.byte	0x52
 11950 1597 0F000000 		.4byte	.LVL528-1
 11951 159b 14010000 		.4byte	.LVL554
 11952 159f 0100     		.2byte	0x1
 11953 15a1 57       		.byte	0x57
 11954 15a2 14010000 		.4byte	.LVL554
 11955 15a6 44010000 		.4byte	.LVL561
 11956 15aa 0400     		.2byte	0x4
 11957 15ac F3       		.byte	0xf3
 11958 15ad 01       		.uleb128 0x1
 11959 15ae 52       		.byte	0x52
 11960 15af 9F       		.byte	0x9f
 11961 15b0 44010000 		.4byte	.LVL561
 11962 15b4 4C010000 		.4byte	.LVL565
 11963 15b8 0100     		.2byte	0x1
 11964 15ba 57       		.byte	0x57
 11965 15bb 4C010000 		.4byte	.LVL565
 11966 15bf 70010000 		.4byte	.LFE25
 11967 15c3 0400     		.2byte	0x4
 11968 15c5 F3       		.byte	0xf3
 11969 15c6 01       		.uleb128 0x1
 11970 15c7 52       		.byte	0x52
 11971 15c8 9F       		.byte	0x9f
 11972 15c9 00000000 		.4byte	0
 11973 15cd 00000000 		.4byte	0
 11974              	.LLST74:
 11975 15d1 36000000 		.4byte	.LVL530
 11976 15d5 38000000 		.4byte	.LVL531
 11977 15d9 0100     		.2byte	0x1
 11978 15db 50       		.byte	0x50
 11979 15dc 3E000000 		.4byte	.LVL532
 11980 15e0 58000000 		.4byte	.LVL535
ARM GAS  C:\Users\Phuong\AppData\Local\Temp\ccG6FMOL.s 			page 241


 11981 15e4 0100     		.2byte	0x1
 11982 15e6 54       		.byte	0x54
 11983 15e7 58000000 		.4byte	.LVL535
 11984 15eb 6E000000 		.4byte	.LVL536
 11985 15ef 0100     		.2byte	0x1
 11986 15f1 50       		.byte	0x50
 11987 15f2 78000000 		.4byte	.LVL538
 11988 15f6 7C000000 		.4byte	.LVL539
 11989 15fa 0100     		.2byte	0x1
 11990 15fc 50       		.byte	0x50
 11991 15fd 7C000000 		.4byte	.LVL539
 11992 1601 DA000000 		.4byte	.LVL546
 11993 1605 0100     		.2byte	0x1
 11994 1607 54       		.byte	0x54
 11995 1608 DA000000 		.4byte	.LVL546
 11996 160c DC000000 		.4byte	.LVL547
 11997 1610 0100     		.2byte	0x1
 11998 1612 50       		.byte	0x50
 11999 1613 DC000000 		.4byte	.LVL547
 12000 1617 0C010000 		.4byte	.LVL553
 12001 161b 0100     		.2byte	0x1
 12002 161d 54       		.byte	0x54
 12003 161e 0C010000 		.4byte	.LVL553
 12004 1622 1C010000 		.4byte	.LVL555
 12005 1626 0100     		.2byte	0x1
 12006 1628 50       		.byte	0x50
 12007 1629 28010000 		.4byte	.LVL557
 12008 162d 2C010000 		.4byte	.LVL558
 12009 1631 0100     		.2byte	0x1
 12010 1633 50       		.byte	0x50
 12011 1634 2C010000 		.4byte	.LVL558
 12012 1638 42010000 		.4byte	.LVL560
 12013 163c 0100     		.2byte	0x1
 12014 163e 54       		.byte	0x54
 12015 163f 44010000 		.4byte	.LVL561
 12016 1643 4C010000 		.4byte	.LVL565
 12017 1647 0100     		.2byte	0x1
 12018 1649 54       		.byte	0x54
 12019 164a 4C010000 		.4byte	.LVL565
 12020 164e 4E010000 		.4byte	.LVL566
 12021 1652 0100     		.2byte	0x1
 12022 1654 50       		.byte	0x50
 12023 1655 4E010000 		.4byte	.LVL566
 12024 1659 50010000 		.4byte	.LVL567
 12025 165d 0100     		.2byte	0x1
 12026 165f 54       		.byte	0x54
 12027 1660 00000000 		.4byte	0
 12028 1664 00000000 		.4byte	0
 12029              	.LLST75:
 12030 1668 4C000000 		.4byte	.LVL533
 12031 166c 54000000 		.4byte	.LVL534
 12032 1670 0100     		.2byte	0x1
 12033 1672 50       		.byte	0x50
 12034 1673 54000000 		.4byte	.LVL534
 12035 1677 57000000 		.4byte	.LVL535-1
 12036 167b 0100     		.2byte	0x1
 12037 167d 51       		.byte	0x51
ARM GAS  C:\Users\Phuong\AppData\Local\Temp\ccG6FMOL.s 			page 242


 12038 167e 00010000 		.4byte	.LVL551
 12039 1682 08010000 		.4byte	.LVL552
 12040 1686 0100     		.2byte	0x1
 12041 1688 50       		.byte	0x50
 12042 1689 08010000 		.4byte	.LVL552
 12043 168d 0B010000 		.4byte	.LVL553-1
 12044 1691 0100     		.2byte	0x1
 12045 1693 51       		.byte	0x51
 12046 1694 44010000 		.4byte	.LVL561
 12047 1698 46010000 		.4byte	.LVL562
 12048 169c 0100     		.2byte	0x1
 12049 169e 50       		.byte	0x50
 12050 169f 48010000 		.4byte	.LVL563
 12051 16a3 4A010000 		.4byte	.LVL564
 12052 16a7 0100     		.2byte	0x1
 12053 16a9 50       		.byte	0x50
 12054 16aa 00000000 		.4byte	0
 12055 16ae 00000000 		.4byte	0
 12056              		.section	.debug_aranges,"",%progbits
 12057 0000 8C000000 		.4byte	0x8c
 12058 0004 0200     		.2byte	0x2
 12059 0006 00000000 		.4byte	.Ldebug_info0
 12060 000a 04       		.byte	0x4
 12061 000b 00       		.byte	0
 12062 000c 0000     		.2byte	0
 12063 000e 0000     		.2byte	0
 12064 0010 00000000 		.4byte	.LFB11
 12065 0014 64000000 		.4byte	.LFE11-.LFB11
 12066 0018 00000000 		.4byte	.LFB18
 12067 001c 68000000 		.4byte	.LFE18-.LFB18
 12068 0020 00000000 		.4byte	.LFB17
 12069 0024 EC000000 		.4byte	.LFE17-.LFB17
 12070 0028 00000000 		.4byte	.LFB12
 12071 002c 40020000 		.4byte	.LFE12-.LFB12
 12072 0030 00000000 		.4byte	.LFB13
 12073 0034 D4000000 		.4byte	.LFE13-.LFB13
 12074 0038 00000000 		.4byte	.LFB14
 12075 003c 30000000 		.4byte	.LFE14-.LFB14
 12076 0040 00000000 		.4byte	.LFB15
 12077 0044 54000000 		.4byte	.LFE15-.LFB15
 12078 0048 00000000 		.4byte	.LFB16
 12079 004c 2A000000 		.4byte	.LFE16-.LFB16
 12080 0050 00000000 		.4byte	.LFB20
 12081 0054 FC010000 		.4byte	.LFE20-.LFB20
 12082 0058 00000000 		.4byte	.LFB21
 12083 005c B4010000 		.4byte	.LFE21-.LFB21
 12084 0060 00000000 		.4byte	.LFB22
 12085 0064 28010000 		.4byte	.LFE22-.LFB22
 12086 0068 00000000 		.4byte	.LFB23
 12087 006c 74010000 		.4byte	.LFE23-.LFB23
 12088 0070 00000000 		.4byte	.LFB19
 12089 0074 08010000 		.4byte	.LFE19-.LFB19
 12090 0078 00000000 		.4byte	.LFB24
 12091 007c D4020000 		.4byte	.LFE24-.LFB24
 12092 0080 00000000 		.4byte	.LFB25
 12093 0084 70010000 		.4byte	.LFE25-.LFB25
 12094 0088 00000000 		.4byte	0
ARM GAS  C:\Users\Phuong\AppData\Local\Temp\ccG6FMOL.s 			page 243


 12095 008c 00000000 		.4byte	0
 12096              		.section	.debug_ranges,"",%progbits
 12097              	.Ldebug_ranges0:
 12098 0000 AA010000 		.4byte	.LBB27
 12099 0004 E4010000 		.4byte	.LBE27
 12100 0008 78020000 		.4byte	.LBB28
 12101 000c 80020000 		.4byte	.LBE28
 12102 0010 00000000 		.4byte	0
 12103 0014 00000000 		.4byte	0
 12104 0018 00000000 		.4byte	.LFB11
 12105 001c 64000000 		.4byte	.LFE11
 12106 0020 00000000 		.4byte	.LFB18
 12107 0024 68000000 		.4byte	.LFE18
 12108 0028 00000000 		.4byte	.LFB17
 12109 002c EC000000 		.4byte	.LFE17
 12110 0030 00000000 		.4byte	.LFB12
 12111 0034 40020000 		.4byte	.LFE12
 12112 0038 00000000 		.4byte	.LFB13
 12113 003c D4000000 		.4byte	.LFE13
 12114 0040 00000000 		.4byte	.LFB14
 12115 0044 30000000 		.4byte	.LFE14
 12116 0048 00000000 		.4byte	.LFB15
 12117 004c 54000000 		.4byte	.LFE15
 12118 0050 00000000 		.4byte	.LFB16
 12119 0054 2A000000 		.4byte	.LFE16
 12120 0058 00000000 		.4byte	.LFB20
 12121 005c FC010000 		.4byte	.LFE20
 12122 0060 00000000 		.4byte	.LFB21
 12123 0064 B4010000 		.4byte	.LFE21
 12124 0068 00000000 		.4byte	.LFB22
 12125 006c 28010000 		.4byte	.LFE22
 12126 0070 00000000 		.4byte	.LFB23
 12127 0074 74010000 		.4byte	.LFE23
 12128 0078 00000000 		.4byte	.LFB19
 12129 007c 08010000 		.4byte	.LFE19
 12130 0080 00000000 		.4byte	.LFB24
 12131 0084 D4020000 		.4byte	.LFE24
 12132 0088 00000000 		.4byte	.LFB25
 12133 008c 70010000 		.4byte	.LFE25
 12134 0090 00000000 		.4byte	0
 12135 0094 00000000 		.4byte	0
 12136              		.section	.debug_line,"",%progbits
 12137              	.Ldebug_line0:
 12138 0000 03070000 		.section	.debug_str,"MS",%progbits,1
 12138      0200E102 
 12138      00000201 
 12138      FB0E0D00 
 12138      01010101 
 12139              	.LASF167:
 12140 0000 706B5F70 		.ascii	"pk_parse_key_sec1_der\000"
 12140      61727365 
 12140      5F6B6579 
 12140      5F736563 
 12140      315F6465 
 12141              	.LASF131:
 12142 0016 4D424544 		.ascii	"MBEDTLS_CIPHER_ARIA_256_GCM\000"
 12142      544C535F 
ARM GAS  C:\Users\Phuong\AppData\Local\Temp\ccG6FMOL.s 			page 244


 12142      43495048 
 12142      45525F41 
 12142      5249415F 
 12143              	.LASF149:
 12144 0032 70617261 		.ascii	"params\000"
 12144      6D7300
 12145              	.LASF215:
 12146 0039 6D626564 		.ascii	"mbedtls_oid_get_pkcs12_pbe_alg\000"
 12146      746C735F 
 12146      6F69645F 
 12146      6765745F 
 12146      706B6373 
 12147              	.LASF58:
 12148 0058 4D424544 		.ascii	"MBEDTLS_PK_ECKEY_DH\000"
 12148      544C535F 
 12148      504B5F45 
 12148      434B4559 
 12148      5F444800 
 12149              	.LASF99:
 12150 006c 4D424544 		.ascii	"MBEDTLS_CIPHER_CAMELLIA_256_GCM\000"
 12150      544C535F 
 12150      43495048 
 12150      45525F43 
 12150      414D454C 
 12151              	.LASF107:
 12152 008c 4D424544 		.ascii	"MBEDTLS_CIPHER_BLOWFISH_CBC\000"
 12152      544C535F 
 12152      43495048 
 12152      45525F42 
 12152      4C4F5746 
 12153              	.LASF22:
 12154 00a8 6D626564 		.ascii	"mbedtls_md_type_t\000"
 12154      746C735F 
 12154      6D645F74 
 12154      7970655F 
 12154      7400
 12155              	.LASF142:
 12156 00ba 6D626564 		.ascii	"mbedtls_cipher_type_t\000"
 12156      746C735F 
 12156      63697068 
 12156      65725F74 
 12156      7970655F 
 12157              	.LASF8:
 12158 00d0 756E7369 		.ascii	"unsigned int\000"
 12158      676E6564 
 12158      20696E74 
 12158      00
 12159              	.LASF166:
 12160 00dd 76657273 		.ascii	"version\000"
 12160      696F6E00 
 12161              	.LASF175:
 12162 00e5 7062655F 		.ascii	"pbe_params\000"
 12162      70617261 
 12162      6D7300
 12163              	.LASF69:
 12164 00f0 4D424544 		.ascii	"MBEDTLS_CIPHER_NULL\000"
 12164      544C535F 
ARM GAS  C:\Users\Phuong\AppData\Local\Temp\ccG6FMOL.s 			page 245


 12164      43495048 
 12164      45525F4E 
 12164      554C4C00 
 12165              	.LASF186:
 12166 0104 6D626564 		.ascii	"mbedtls_rsa_import_raw\000"
 12166      746C735F 
 12166      7273615F 
 12166      696D706F 
 12166      72745F72 
 12167              	.LASF148:
 12168 011b 6D626564 		.ascii	"mbedtls_pk_ec\000"
 12168      746C735F 
 12168      706B5F65 
 12168      6300
 12169              	.LASF200:
 12170 0129 6D626564 		.ascii	"mbedtls_ecp_group_load\000"
 12170      746C735F 
 12170      6563705F 
 12170      67726F75 
 12170      705F6C6F 
 12171              	.LASF172:
 12172 0140 7077646C 		.ascii	"pwdlen\000"
 12172      656E00
 12173              	.LASF70:
 12174 0147 4D424544 		.ascii	"MBEDTLS_CIPHER_AES_128_ECB\000"
 12174      544C535F 
 12174      43495048 
 12174      45525F41 
 12174      45535F31 
 12175              	.LASF76:
 12176 0162 4D424544 		.ascii	"MBEDTLS_CIPHER_AES_128_CFB128\000"
 12176      544C535F 
 12176      43495048 
 12176      45525F41 
 12176      45535F31 
 12177              	.LASF123:
 12178 0180 4D424544 		.ascii	"MBEDTLS_CIPHER_ARIA_128_CFB128\000"
 12178      544C535F 
 12178      43495048 
 12178      45525F41 
 12178      5249415F 
 12179              	.LASF56:
 12180 019f 4D424544 		.ascii	"MBEDTLS_PK_RSA\000"
 12180      544C535F 
 12180      504B5F52 
 12180      534100
 12181              	.LASF182:
 12182 01ae 6D626564 		.ascii	"mbedtls_pk_parse_public_key\000"
 12182      746C735F 
 12182      706B5F70 
 12182      61727365 
 12182      5F707562 
 12183              	.LASF17:
 12184 01ca 4D424544 		.ascii	"MBEDTLS_MD_SHA224\000"
 12184      544C535F 
 12184      4D445F53 
 12184      48413232 
ARM GAS  C:\Users\Phuong\AppData\Local\Temp\ccG6FMOL.s 			page 246


 12184      3400
 12185              	.LASF117:
 12186 01dc 4D424544 		.ascii	"MBEDTLS_CIPHER_ARIA_128_ECB\000"
 12186      544C535F 
 12186      43495048 
 12186      45525F41 
 12186      5249415F 
 12187              	.LASF218:
 12188 01f8 6D626564 		.ascii	"mbedtls_pkcs5_pbes2\000"
 12188      746C735F 
 12188      706B6373 
 12188      355F7062 
 12188      65733200 
 12189              	.LASF93:
 12190 020c 4D424544 		.ascii	"MBEDTLS_CIPHER_CAMELLIA_256_CFB128\000"
 12190      544C535F 
 12190      43495048 
 12190      45525F43 
 12190      414D454C 
 12191              	.LASF178:
 12192 022f 616C675F 		.ascii	"alg_params\000"
 12192      70617261 
 12192      6D7300
 12193              	.LASF160:
 12194 023a 706B5F67 		.ascii	"pk_group_id_from_specified\000"
 12194      726F7570 
 12194      5F69645F 
 12194      66726F6D 
 12194      5F737065 
 12195              	.LASF49:
 12196 0255 6D6F6470 		.ascii	"modp\000"
 12196      00
 12197              	.LASF31:
 12198 025a 4D424544 		.ascii	"MBEDTLS_ECP_DP_SECP224R1\000"
 12198      544C535F 
 12198      4543505F 
 12198      44505F53 
 12198      45435032 
 12199              	.LASF213:
 12200 0273 6D626564 		.ascii	"mbedtls_pk_setup\000"
 12200      746C735F 
 12200      706B5F73 
 12200      65747570 
 12200      00
 12201              	.LASF54:
 12202 0284 6D626564 		.ascii	"mbedtls_ecp_keypair\000"
 12202      746C735F 
 12202      6563705F 
 12202      6B657970 
 12202      61697200 
 12203              	.LASF170:
 12204 0298 706B5F70 		.ascii	"pk_parse_key_pkcs8_unencrypted_der\000"
 12204      61727365 
 12204      5F6B6579 
 12204      5F706B63 
 12204      73385F75 
 12205              	.LASF85:
ARM GAS  C:\Users\Phuong\AppData\Local\Temp\ccG6FMOL.s 			page 247


 12206 02bb 4D424544 		.ascii	"MBEDTLS_CIPHER_CAMELLIA_128_ECB\000"
 12206      544C535F 
 12206      43495048 
 12206      45525F43 
 12206      414D454C 
 12207              	.LASF38:
 12208 02db 4D424544 		.ascii	"MBEDTLS_ECP_DP_CURVE25519\000"
 12208      544C535F 
 12208      4543505F 
 12208      44505F43 
 12208      55525645 
 12209              	.LASF72:
 12210 02f5 4D424544 		.ascii	"MBEDTLS_CIPHER_AES_256_ECB\000"
 12210      544C535F 
 12210      43495048 
 12210      45525F41 
 12210      45535F32 
 12211              	.LASF102:
 12212 0310 4D424544 		.ascii	"MBEDTLS_CIPHER_DES_EDE_ECB\000"
 12212      544C535F 
 12212      43495048 
 12212      45525F44 
 12212      45535F45 
 12213              	.LASF23:
 12214 032b 75696E74 		.ascii	"uint32_t\000"
 12214      33325F74 
 12214      00
 12215              	.LASF144:
 12216 0334 6D626564 		.ascii	"mbedtls_pem_context\000"
 12216      746C735F 
 12216      70656D5F 
 12216      636F6E74 
 12216      65787400 
 12217              	.LASF151:
 12218 0348 706B5F67 		.ascii	"pk_get_pk_alg\000"
 12218      65745F70 
 12218      6B5F616C 
 12218      6700
 12219              	.LASF199:
 12220 0356 6D626564 		.ascii	"mbedtls_ecp_group_free\000"
 12220      746C735F 
 12220      6563705F 
 12220      67726F75 
 12220      705F6672 
 12221              	.LASF174:
 12222 036d 7062655F 		.ascii	"pbe_alg_oid\000"
 12222      616C675F 
 12222      6F696400 
 12223              	.LASF119:
 12224 0379 4D424544 		.ascii	"MBEDTLS_CIPHER_ARIA_256_ECB\000"
 12224      544C535F 
 12224      43495048 
 12224      45525F41 
 12224      5249415F 
 12225              	.LASF41:
 12226 0395 4D424544 		.ascii	"MBEDTLS_ECP_DP_SECP256K1\000"
 12226      544C535F 
ARM GAS  C:\Users\Phuong\AppData\Local\Temp\ccG6FMOL.s 			page 248


 12226      4543505F 
 12226      44505F53 
 12226      45435032 
 12227              	.LASF140:
 12228 03ae 4D424544 		.ascii	"MBEDTLS_CIPHER_CHACHA20\000"
 12228      544C535F 
 12228      43495048 
 12228      45525F43 
 12228      48414348 
 12229              	.LASF227:
 12230 03c6 474E5520 		.ascii	"GNU C11 5.4.1 20160609 (release) [ARM/embedded-5-br"
 12230      43313120 
 12230      352E342E 
 12230      31203230 
 12230      31363036 
 12231 03f9 616E6368 		.ascii	"anch revision 237715] -mcpu=cortex-m0plus -mthumb -"
 12231      20726576 
 12231      6973696F 
 12231      6E203233 
 12231      37373135 
 12232 042c 67202D4F 		.ascii	"g -Og -ffunction-sections -ffat-lto-objects\000"
 12232      67202D66 
 12232      66756E63 
 12232      74696F6E 
 12232      2D736563 
 12233              	.LASF50:
 12234 0458 745F7072 		.ascii	"t_pre\000"
 12234      6500
 12235              	.LASF64:
 12236 045e 6D626564 		.ascii	"mbedtls_pk_context\000"
 12236      746C735F 
 12236      706B5F63 
 12236      6F6E7465 
 12236      787400
 12237              	.LASF87:
 12238 0471 4D424544 		.ascii	"MBEDTLS_CIPHER_CAMELLIA_256_ECB\000"
 12238      544C535F 
 12238      43495048 
 12238      45525F43 
 12238      414D454C 
 12239              	.LASF45:
 12240 0491 6D626564 		.ascii	"mbedtls_ecp_point\000"
 12240      746C735F 
 12240      6563705F 
 12240      706F696E 
 12240      7400
 12241              	.LASF109:
 12242 04a3 4D424544 		.ascii	"MBEDTLS_CIPHER_BLOWFISH_CTR\000"
 12242      544C535F 
 12242      43495048 
 12242      45525F42 
 12242      4C4F5746 
 12243              	.LASF7:
 12244 04bf 6C6F6E67 		.ascii	"long long unsigned int\000"
 12244      206C6F6E 
 12244      6720756E 
 12244      7369676E 
ARM GAS  C:\Users\Phuong\AppData\Local\Temp\ccG6FMOL.s 			page 249


 12244      65642069 
 12245              	.LASF157:
 12246 04d6 656E645F 		.ascii	"end_curve\000"
 12246      63757276 
 12246      6500
 12247              	.LASF73:
 12248 04e0 4D424544 		.ascii	"MBEDTLS_CIPHER_AES_128_CBC\000"
 12248      544C535F 
 12248      43495048 
 12248      45525F41 
 12248      45535F31 
 12249              	.LASF61:
 12250 04fb 4D424544 		.ascii	"MBEDTLS_PK_RSASSA_PSS\000"
 12250      544C535F 
 12250      504B5F52 
 12250      53415353 
 12250      415F5053 
 12251              	.LASF20:
 12252 0511 4D424544 		.ascii	"MBEDTLS_MD_SHA512\000"
 12252      544C535F 
 12252      4D445F53 
 12252      48413531 
 12252      3200
 12253              	.LASF57:
 12254 0523 4D424544 		.ascii	"MBEDTLS_PK_ECKEY\000"
 12254      544C535F 
 12254      504B5F45 
 12254      434B4559 
 12254      00
 12255              	.LASF83:
 12256 0534 4D424544 		.ascii	"MBEDTLS_CIPHER_AES_192_GCM\000"
 12256      544C535F 
 12256      43495048 
 12256      45525F41 
 12256      45535F31 
 12257              	.LASF204:
 12258 054f 6D626564 		.ascii	"mbedtls_ecp_check_pubkey\000"
 12258      746C735F 
 12258      6563705F 
 12258      63686563 
 12258      6B5F7075 
 12259              	.LASF33:
 12260 0568 4D424544 		.ascii	"MBEDTLS_ECP_DP_SECP384R1\000"
 12260      544C535F 
 12260      4543505F 
 12260      44505F53 
 12260      45435033 
 12261              	.LASF135:
 12262 0581 4D424544 		.ascii	"MBEDTLS_CIPHER_AES_128_OFB\000"
 12262      544C535F 
 12262      43495048 
 12262      45525F41 
 12262      45535F31 
 12263              	.LASF225:
 12264 059c 6D626564 		.ascii	"mbedtls_pem_read_buffer\000"
 12264      746C735F 
 12264      70656D5F 
ARM GAS  C:\Users\Phuong\AppData\Local\Temp\ccG6FMOL.s 			page 250


 12264      72656164 
 12264      5F627566 
 12265              	.LASF120:
 12266 05b4 4D424544 		.ascii	"MBEDTLS_CIPHER_ARIA_128_CBC\000"
 12266      544C535F 
 12266      43495048 
 12266      45525F41 
 12266      5249415F 
 12267              	.LASF36:
 12268 05d0 4D424544 		.ascii	"MBEDTLS_ECP_DP_BP384R1\000"
 12268      544C535F 
 12268      4543505F 
 12268      44505F42 
 12268      50333834 
 12269              	.LASF60:
 12270 05e7 4D424544 		.ascii	"MBEDTLS_PK_RSA_ALT\000"
 12270      544C535F 
 12270      504B5F52 
 12270      53415F41 
 12270      4C5400
 12271              	.LASF207:
 12272 05fa 6D626564 		.ascii	"mbedtls_rsa_free\000"
 12272      746C735F 
 12272      7273615F 
 12272      66726565 
 12272      00
 12273              	.LASF39:
 12274 060b 4D424544 		.ascii	"MBEDTLS_ECP_DP_SECP192K1\000"
 12274      544C535F 
 12274      4543505F 
 12274      44505F53 
 12274      45435031 
 12275              	.LASF177:
 12276 0624 6D645F61 		.ascii	"md_alg\000"
 12276      6C6700
 12277              	.LASF150:
 12278 062b 706B5F67 		.ascii	"pk_get_ecparams\000"
 12278      65745F65 
 12278      63706172 
 12278      616D7300 
 12279              	.LASF130:
 12280 063b 4D424544 		.ascii	"MBEDTLS_CIPHER_ARIA_192_GCM\000"
 12280      544C535F 
 12280      43495048 
 12280      45525F41 
 12280      5249415F 
 12281              	.LASF212:
 12282 0657 6D626564 		.ascii	"mbedtls_pk_info_from_type\000"
 12282      746C735F 
 12282      706B5F69 
 12282      6E666F5F 
 12282      66726F6D 
 12283              	.LASF229:
 12284 0671 433A5C55 		.ascii	"C:\\Users\\Phuong\\Documents\\PSoC Creator\\Dec0820"
 12284      73657273 
 12284      5C506875 
 12284      6F6E675C 
ARM GAS  C:\Users\Phuong\AppData\Local\Temp\ccG6FMOL.s 			page 251


 12284      446F6375 
 12285 069f 31385C69 		.ascii	"18\\iot-sdk-iot-dev\\PSOC6_FreeRTOS+LwIP+MbedTLS_Az"
 12285      6F742D73 
 12285      646B2D69 
 12285      6F742D64 
 12285      65765C50 
 12286 06d0 7572652D 		.ascii	"ure-IOT-Hub-Demo\\PSOC6_FreeRTOS+LwIP+MbedTLS_Azure"
 12286      494F542D 
 12286      4875622D 
 12286      44656D6F 
 12286      5C50534F 
 12287 0702 2D494F54 		.ascii	"-IOT-Hub-Demo.cydsn\000"
 12287      2D487562 
 12287      2D44656D 
 12287      6F2E6379 
 12287      64736E00 
 12288              	.LASF24:
 12289 0716 6D626564 		.ascii	"mbedtls_mpi_uint\000"
 12289      746C735F 
 12289      6D70695F 
 12289      75696E74 
 12289      00
 12290              	.LASF88:
 12291 0727 4D424544 		.ascii	"MBEDTLS_CIPHER_CAMELLIA_128_CBC\000"
 12291      544C535F 
 12291      43495048 
 12291      45525F43 
 12291      414D454C 
 12292              	.LASF194:
 12293 0747 6D626564 		.ascii	"mbedtls_ecp_point_read_binary\000"
 12293      746C735F 
 12293      6563705F 
 12293      706F696E 
 12293      745F7265 
 12294              	.LASF75:
 12295 0765 4D424544 		.ascii	"MBEDTLS_CIPHER_AES_256_CBC\000"
 12295      544C535F 
 12295      43495048 
 12295      45525F41 
 12295      45535F32 
 12296              	.LASF10:
 12297 0780 73697A65 		.ascii	"size_t\000"
 12297      5F7400
 12298              	.LASF98:
 12299 0787 4D424544 		.ascii	"MBEDTLS_CIPHER_CAMELLIA_192_GCM\000"
 12299      544C535F 
 12299      43495048 
 12299      45525F43 
 12299      414D454C 
 12300              	.LASF211:
 12301 07a7 6D626564 		.ascii	"mbedtls_ecp_check_privkey\000"
 12301      746C735F 
 12301      6563705F 
 12301      63686563 
 12301      6B5F7072 
 12302              	.LASF103:
 12303 07c1 4D424544 		.ascii	"MBEDTLS_CIPHER_DES_EDE_CBC\000"
ARM GAS  C:\Users\Phuong\AppData\Local\Temp\ccG6FMOL.s 			page 252


 12303      544C535F 
 12303      43495048 
 12303      45525F44 
 12303      45535F45 
 12304              	.LASF18:
 12305 07dc 4D424544 		.ascii	"MBEDTLS_MD_SHA256\000"
 12305      544C535F 
 12305      4D445F53 
 12305      48413235 
 12305      3600
 12306              	.LASF42:
 12307 07ee 4D424544 		.ascii	"MBEDTLS_ECP_DP_CURVE448\000"
 12307      544C535F 
 12307      4543505F 
 12307      44505F43 
 12307      55525645 
 12308              	.LASF183:
 12309 0806 6D626564 		.ascii	"mbedtls_asn1_get_tag\000"
 12309      746C735F 
 12309      61736E31 
 12309      5F676574 
 12309      5F746167 
 12310              	.LASF137:
 12311 081b 4D424544 		.ascii	"MBEDTLS_CIPHER_AES_256_OFB\000"
 12311      544C535F 
 12311      43495048 
 12311      45525F41 
 12311      45535F32 
 12312              	.LASF158:
 12313 0836 706B5F67 		.ascii	"pk_group_id_from_group\000"
 12313      726F7570 
 12313      5F69645F 
 12313      66726F6D 
 12313      5F67726F 
 12314              	.LASF122:
 12315 084d 4D424544 		.ascii	"MBEDTLS_CIPHER_ARIA_256_CBC\000"
 12315      544C535F 
 12315      43495048 
 12315      45525F41 
 12315      5249415F 
 12316              	.LASF132:
 12317 0869 4D424544 		.ascii	"MBEDTLS_CIPHER_ARIA_128_CCM\000"
 12317      544C535F 
 12317      43495048 
 12317      45525F41 
 12317      5249415F 
 12318              	.LASF147:
 12319 0885 6D626564 		.ascii	"mbedtls_pk_rsa\000"
 12319      746C735F 
 12319      706B5F72 
 12319      736100
 12320              	.LASF223:
 12321 0894 66726565 		.ascii	"free\000"
 12321      00
 12322              	.LASF53:
 12323 0899 545F7369 		.ascii	"T_size\000"
 12323      7A6500
ARM GAS  C:\Users\Phuong\AppData\Local\Temp\ccG6FMOL.s 			page 253


 12324              	.LASF59:
 12325 08a0 4D424544 		.ascii	"MBEDTLS_PK_ECDSA\000"
 12325      544C535F 
 12325      504B5F45 
 12325      43445341 
 12325      00
 12326              	.LASF55:
 12327 08b1 4D424544 		.ascii	"MBEDTLS_PK_NONE\000"
 12327      544C535F 
 12327      504B5F4E 
 12327      4F4E4500 
 12328              	.LASF90:
 12329 08c1 4D424544 		.ascii	"MBEDTLS_CIPHER_CAMELLIA_256_CBC\000"
 12329      544C535F 
 12329      43495048 
 12329      45525F43 
 12329      414D454C 
 12330              	.LASF114:
 12331 08e1 4D424544 		.ascii	"MBEDTLS_CIPHER_CAMELLIA_128_CCM\000"
 12331      544C535F 
 12331      43495048 
 12331      45525F43 
 12331      414D454C 
 12332              	.LASF187:
 12333 0901 6D626564 		.ascii	"mbedtls_rsa_complete\000"
 12333      746C735F 
 12333      7273615F 
 12333      636F6D70 
 12333      6C657465 
 12334              	.LASF113:
 12335 0916 4D424544 		.ascii	"MBEDTLS_CIPHER_AES_256_CCM\000"
 12335      544C535F 
 12335      43495048 
 12335      45525F41 
 12335      45535F32 
 12336              	.LASF224:
 12337 0931 6D626564 		.ascii	"mbedtls_pem_init\000"
 12337      746C735F 
 12337      70656D5F 
 12337      696E6974 
 12337      00
 12338              	.LASF165:
 12339 0942 6B65796C 		.ascii	"keylen\000"
 12339      656E00
 12340              	.LASF44:
 12341 0949 63686172 		.ascii	"char\000"
 12341      00
 12342              	.LASF108:
 12343 094e 4D424544 		.ascii	"MBEDTLS_CIPHER_BLOWFISH_CFB64\000"
 12343      544C535F 
 12343      43495048 
 12343      45525F42 
 12343      4C4F5746 
 12344              	.LASF176:
 12345 096c 63697068 		.ascii	"cipher_alg\000"
 12345      65725F61 
 12345      6C6700
ARM GAS  C:\Users\Phuong\AppData\Local\Temp\ccG6FMOL.s 			page 254


 12346              	.LASF164:
 12347 0977 706B5F70 		.ascii	"pk_parse_key_pkcs1_der\000"
 12347      61727365 
 12347      5F6B6579 
 12347      5F706B63 
 12347      73315F64 
 12348              	.LASF134:
 12349 098e 4D424544 		.ascii	"MBEDTLS_CIPHER_ARIA_256_CCM\000"
 12349      544C535F 
 12349      43495048 
 12349      45525F41 
 12349      5249415F 
 12350              	.LASF159:
 12351 09aa 6772705F 		.ascii	"grp_id\000"
 12351      696400
 12352              	.LASF145:
 12353 09b1 6275666C 		.ascii	"buflen\000"
 12353      656E00
 12354              	.LASF181:
 12355 09b8 6B65795F 		.ascii	"key_copy\000"
 12355      636F7079 
 12355      00
 12356              	.LASF79:
 12357 09c1 4D424544 		.ascii	"MBEDTLS_CIPHER_AES_128_CTR\000"
 12357      544C535F 
 12357      43495048 
 12357      45525F41 
 12357      45535F31 
 12358              	.LASF179:
 12359 09dc 6D626564 		.ascii	"mbedtls_pk_parse_subpubkey\000"
 12359      746C735F 
 12359      706B5F70 
 12359      61727365 
 12359      5F737562 
 12360              	.LASF62:
 12361 09f7 6D626564 		.ascii	"mbedtls_pk_type_t\000"
 12361      746C735F 
 12361      706B5F74 
 12361      7970655F 
 12361      7400
 12362              	.LASF71:
 12363 0a09 4D424544 		.ascii	"MBEDTLS_CIPHER_AES_192_ECB\000"
 12363      544C535F 
 12363      43495048 
 12363      45525F41 
 12363      45535F31 
 12364              	.LASF116:
 12365 0a24 4D424544 		.ascii	"MBEDTLS_CIPHER_CAMELLIA_256_CCM\000"
 12365      544C535F 
 12365      43495048 
 12365      45525F43 
 12365      414D454C 
 12366              	.LASF209:
 12367 0a44 6D626564 		.ascii	"mbedtls_asn1_get_bitstring_null\000"
 12367      746C735F 
 12367      61736E31 
 12367      5F676574 
ARM GAS  C:\Users\Phuong\AppData\Local\Temp\ccG6FMOL.s 			page 255


 12367      5F626974 
 12368              	.LASF156:
 12369 0a64 656E645F 		.ascii	"end_field\000"
 12369      6669656C 
 12369      6400
 12370              	.LASF125:
 12371 0a6e 4D424544 		.ascii	"MBEDTLS_CIPHER_ARIA_256_CFB128\000"
 12371      544C535F 
 12371      43495048 
 12371      45525F41 
 12371      5249415F 
 12372              	.LASF126:
 12373 0a8d 4D424544 		.ascii	"MBEDTLS_CIPHER_ARIA_128_CTR\000"
 12373      544C535F 
 12373      43495048 
 12373      45525F41 
 12373      5249415F 
 12374              	.LASF34:
 12375 0aa9 4D424544 		.ascii	"MBEDTLS_ECP_DP_SECP521R1\000"
 12375      544C535F 
 12375      4543505F 
 12375      44505F53 
 12375      45435035 
 12376              	.LASF118:
 12377 0ac2 4D424544 		.ascii	"MBEDTLS_CIPHER_ARIA_192_ECB\000"
 12377      544C535F 
 12377      43495048 
 12377      45525F41 
 12377      5249415F 
 12378              	.LASF152:
 12379 0ade 706B5F61 		.ascii	"pk_alg\000"
 12379      6C6700
 12380              	.LASF111:
 12381 0ae5 4D424544 		.ascii	"MBEDTLS_CIPHER_AES_128_CCM\000"
 12381      544C535F 
 12381      43495048 
 12381      45525F41 
 12381      45535F31 
 12382              	.LASF6:
 12383 0b00 6C6F6E67 		.ascii	"long long int\000"
 12383      206C6F6E 
 12383      6720696E 
 12383      7400
 12384              	.LASF94:
 12385 0b0e 4D424544 		.ascii	"MBEDTLS_CIPHER_CAMELLIA_128_CTR\000"
 12385      544C535F 
 12385      43495048 
 12385      45525F43 
 12385      414D454C 
 12386              	.LASF27:
 12387 0b2e 70616464 		.ascii	"padding\000"
 12387      696E6700 
 12388              	.LASF226:
 12389 0b36 6D626564 		.ascii	"mbedtls_pem_free\000"
 12389      746C735F 
 12389      70656D5F 
 12389      66726565 
ARM GAS  C:\Users\Phuong\AppData\Local\Temp\ccG6FMOL.s 			page 256


 12389      00
 12390              	.LASF81:
 12391 0b47 4D424544 		.ascii	"MBEDTLS_CIPHER_AES_256_CTR\000"
 12391      544C535F 
 12391      43495048 
 12391      45525F41 
 12391      45535F32 
 12392              	.LASF197:
 12393 0b62 6D626564 		.ascii	"mbedtls_ecp_group_init\000"
 12393      746C735F 
 12393      6563705F 
 12393      67726F75 
 12393      705F696E 
 12394              	.LASF86:
 12395 0b79 4D424544 		.ascii	"MBEDTLS_CIPHER_CAMELLIA_192_ECB\000"
 12395      544C535F 
 12395      43495048 
 12395      45525F43 
 12395      414D454C 
 12396              	.LASF184:
 12397 0b99 6D626564 		.ascii	"mbedtls_asn1_get_alg\000"
 12397      746C735F 
 12397      61736E31 
 12397      5F676574 
 12397      5F616C67 
 12398              	.LASF48:
 12399 0bae 6E626974 		.ascii	"nbits\000"
 12399      7300
 12400              	.LASF52:
 12401 0bb4 745F6461 		.ascii	"t_data\000"
 12401      746100
 12402              	.LASF12:
 12403 0bbb 4D424544 		.ascii	"MBEDTLS_MD_NONE\000"
 12403      544C535F 
 12403      4D445F4E 
 12403      4F4E4500 
 12404              	.LASF163:
 12405 0bcb 706B5F67 		.ascii	"pk_get_ecpubkey\000"
 12405      65745F65 
 12405      63707562 
 12405      6B657900 
 12406              	.LASF100:
 12407 0bdb 4D424544 		.ascii	"MBEDTLS_CIPHER_DES_ECB\000"
 12407      544C535F 
 12407      43495048 
 12407      45525F44 
 12407      45535F45 
 12408              	.LASF220:
 12409 0bf2 6D656D73 		.ascii	"memset\000"
 12409      657400
 12410              	.LASF128:
 12411 0bf9 4D424544 		.ascii	"MBEDTLS_CIPHER_ARIA_256_CTR\000"
 12411      544C535F 
 12411      43495048 
 12411      45525F41 
 12411      5249415F 
 12412              	.LASF191:
ARM GAS  C:\Users\Phuong\AppData\Local\Temp\ccG6FMOL.s 			page 257


 12413 0c15 6D626564 		.ascii	"mbedtls_asn1_get_mpi\000"
 12413      746C735F 
 12413      61736E31 
 12413      5F676574 
 12413      5F6D7069 
 12414              	.LASF228:
 12415 0c2a 536F7572 		.ascii	"Source\\mbedtls_open\\library\\pkparse.c\000"
 12415      63655C6D 
 12415      62656474 
 12415      6C735F6F 
 12415      70656E5C 
 12416              	.LASF68:
 12417 0c50 4D424544 		.ascii	"MBEDTLS_CIPHER_NONE\000"
 12417      544C535F 
 12417      43495048 
 12417      45525F4E 
 12417      4F4E4500 
 12418              	.LASF221:
 12419 0c64 6D656D63 		.ascii	"memcpy\000"
 12419      707900
 12420              	.LASF78:
 12421 0c6b 4D424544 		.ascii	"MBEDTLS_CIPHER_AES_256_CFB128\000"
 12421      544C535F 
 12421      43495048 
 12421      45525F41 
 12421      45535F32 
 12422              	.LASF92:
 12423 0c89 4D424544 		.ascii	"MBEDTLS_CIPHER_CAMELLIA_192_CFB128\000"
 12423      544C535F 
 12423      43495048 
 12423      45525F43 
 12423      414D454C 
 12424              	.LASF169:
 12425 0cac 656E6432 		.ascii	"end2\000"
 12425      00
 12426              	.LASF96:
 12427 0cb1 4D424544 		.ascii	"MBEDTLS_CIPHER_CAMELLIA_256_CTR\000"
 12427      544C535F 
 12427      43495048 
 12427      45525F43 
 12427      414D454C 
 12428              	.LASF138:
 12429 0cd1 4D424544 		.ascii	"MBEDTLS_CIPHER_AES_128_XTS\000"
 12429      544C535F 
 12429      43495048 
 12429      45525F41 
 12429      45535F31 
 12430              	.LASF217:
 12431 0cec 6D626564 		.ascii	"mbedtls_pkcs12_pbe_sha1_rc4_128\000"
 12431      746C735F 
 12431      706B6373 
 12431      31325F70 
 12431      62655F73 
 12432              	.LASF63:
 12433 0d0c 6D626564 		.ascii	"mbedtls_pk_info_t\000"
 12433      746C735F 
 12433      706B5F69 
ARM GAS  C:\Users\Phuong\AppData\Local\Temp\ccG6FMOL.s 			page 258


 12433      6E666F5F 
 12433      7400
 12434              	.LASF74:
 12435 0d1e 4D424544 		.ascii	"MBEDTLS_CIPHER_AES_192_CBC\000"
 12435      544C535F 
 12435      43495048 
 12435      45525F41 
 12435      45535F31 
 12436              	.LASF26:
 12437 0d39 6D626564 		.ascii	"mbedtls_rsa_context\000"
 12437      746C735F 
 12437      7273615F 
 12437      636F6E74 
 12437      65787400 
 12438              	.LASF168:
 12439 0d4d 7075626B 		.ascii	"pubkey_done\000"
 12439      65795F64 
 12439      6F6E6500 
 12440              	.LASF206:
 12441 0d59 6D626564 		.ascii	"mbedtls_mpi_free\000"
 12441      746C735F 
 12441      6D70695F 
 12441      66726565 
 12441      00
 12442              	.LASF136:
 12443 0d6a 4D424544 		.ascii	"MBEDTLS_CIPHER_AES_192_OFB\000"
 12443      544C535F 
 12443      43495048 
 12443      45525F41 
 12443      45535F31 
 12444              	.LASF11:
 12445 0d85 6C6F6E67 		.ascii	"long double\000"
 12445      20646F75 
 12445      626C6500 
 12446              	.LASF121:
 12447 0d91 4D424544 		.ascii	"MBEDTLS_CIPHER_ARIA_192_CBC\000"
 12447      544C535F 
 12447      43495048 
 12447      45525F41 
 12447      5249415F 
 12448              	.LASF37:
 12449 0dad 4D424544 		.ascii	"MBEDTLS_ECP_DP_BP512R1\000"
 12449      544C535F 
 12449      4543505F 
 12449      44505F42 
 12449      50353132 
 12450              	.LASF29:
 12451 0dc4 4D424544 		.ascii	"MBEDTLS_ECP_DP_NONE\000"
 12451      544C535F 
 12451      4543505F 
 12451      44505F4E 
 12451      4F4E4500 
 12452              	.LASF89:
 12453 0dd8 4D424544 		.ascii	"MBEDTLS_CIPHER_CAMELLIA_192_CBC\000"
 12453      544C535F 
 12453      43495048 
 12453      45525F43 
ARM GAS  C:\Users\Phuong\AppData\Local\Temp\ccG6FMOL.s 			page 259


 12453      414D454C 
 12454              	.LASF65:
 12455 0df8 706B5F69 		.ascii	"pk_info\000"
 12455      6E666F00 
 12456              	.LASF112:
 12457 0e00 4D424544 		.ascii	"MBEDTLS_CIPHER_AES_192_CCM\000"
 12457      544C535F 
 12457      43495048 
 12457      45525F41 
 12457      45535F31 
 12458              	.LASF2:
 12459 0e1b 73686F72 		.ascii	"short int\000"
 12459      7420696E 
 12459      7400
 12460              	.LASF196:
 12461 0e25 6D626564 		.ascii	"mbedtls_mpi_lset\000"
 12461      746C735F 
 12461      6D70695F 
 12461      6C736574 
 12461      00
 12462              	.LASF32:
 12463 0e36 4D424544 		.ascii	"MBEDTLS_ECP_DP_SECP256R1\000"
 12463      544C535F 
 12463      4543505F 
 12463      44505F53 
 12463      45435032 
 12464              	.LASF4:
 12465 0e4f 6C6F6E67 		.ascii	"long int\000"
 12465      20696E74 
 12465      00
 12466              	.LASF201:
 12467 0e58 6D626564 		.ascii	"mbedtls_mpi_cmp_mpi\000"
 12467      746C735F 
 12467      6D70695F 
 12467      636D705F 
 12467      6D706900 
 12468              	.LASF35:
 12469 0e6c 4D424544 		.ascii	"MBEDTLS_ECP_DP_BP256R1\000"
 12469      544C535F 
 12469      4543505F 
 12469      44505F42 
 12469      50323536 
 12470              	.LASF91:
 12471 0e83 4D424544 		.ascii	"MBEDTLS_CIPHER_CAMELLIA_128_CFB128\000"
 12471      544C535F 
 12471      43495048 
 12471      45525F43 
 12471      414D454C 
 12472              	.LASF67:
 12473 0ea6 6D626564 		.ascii	"mbedtls_asn1_buf\000"
 12473      746C735F 
 12473      61736E31 
 12473      5F627566 
 12473      00
 12474              	.LASF133:
 12475 0eb7 4D424544 		.ascii	"MBEDTLS_CIPHER_ARIA_192_CCM\000"
 12475      544C535F 
ARM GAS  C:\Users\Phuong\AppData\Local\Temp\ccG6FMOL.s 			page 260


 12475      43495048 
 12475      45525F41 
 12475      5249415F 
 12476              	.LASF110:
 12477 0ed3 4D424544 		.ascii	"MBEDTLS_CIPHER_ARC4_128\000"
 12477      544C535F 
 12477      43495048 
 12477      45525F41 
 12477      5243345F 
 12478              	.LASF190:
 12479 0eeb 6D656D63 		.ascii	"memcmp\000"
 12479      6D7000
 12480              	.LASF161:
 12481 0ef2 636C6561 		.ascii	"cleanup\000"
 12481      6E757000 
 12482              	.LASF171:
 12483 0efa 706B5F70 		.ascii	"pk_parse_key_pkcs8_encrypted_der\000"
 12483      61727365 
 12483      5F6B6579 
 12483      5F706B63 
 12483      73385F65 
 12484              	.LASF115:
 12485 0f1b 4D424544 		.ascii	"MBEDTLS_CIPHER_CAMELLIA_192_CCM\000"
 12485      544C535F 
 12485      43495048 
 12485      45525F43 
 12485      414D454C 
 12486              	.LASF101:
 12487 0f3b 4D424544 		.ascii	"MBEDTLS_CIPHER_DES_CBC\000"
 12487      544C535F 
 12487      43495048 
 12487      45525F44 
 12487      45535F43 
 12488              	.LASF173:
 12489 0f52 64656372 		.ascii	"decrypted\000"
 12489      79707465 
 12489      6400
 12490              	.LASF30:
 12491 0f5c 4D424544 		.ascii	"MBEDTLS_ECP_DP_SECP192R1\000"
 12491      544C535F 
 12491      4543505F 
 12491      44505F53 
 12491      45435031 
 12492              	.LASF154:
 12493 0f75 706B5F67 		.ascii	"pk_get_rsapubkey\000"
 12493      65745F72 
 12493      73617075 
 12493      626B6579 
 12493      00
 12494              	.LASF192:
 12495 0f86 6D626564 		.ascii	"mbedtls_mpi_bitlen\000"
 12495      746C735F 
 12495      6D70695F 
 12495      6269746C 
 12495      656E00
 12496              	.LASF16:
 12497 0f99 4D424544 		.ascii	"MBEDTLS_MD_SHA1\000"
ARM GAS  C:\Users\Phuong\AppData\Local\Temp\ccG6FMOL.s 			page 261


 12497      544C535F 
 12497      4D445F53 
 12497      48413100 
 12498              	.LASF198:
 12499 0fa9 6D626564 		.ascii	"mbedtls_ecp_grp_id_list\000"
 12499      746C735F 
 12499      6563705F 
 12499      6772705F 
 12499      69645F6C 
 12500              	.LASF141:
 12501 0fc1 4D424544 		.ascii	"MBEDTLS_CIPHER_CHACHA20_POLY1305\000"
 12501      544C535F 
 12501      43495048 
 12501      45525F43 
 12501      48414348 
 12502              	.LASF28:
 12503 0fe2 68617368 		.ascii	"hash_id\000"
 12503      5F696400 
 12504              	.LASF13:
 12505 0fea 4D424544 		.ascii	"MBEDTLS_MD_MD2\000"
 12505      544C535F 
 12505      4D445F4D 
 12505      443200
 12506              	.LASF14:
 12507 0ff9 4D424544 		.ascii	"MBEDTLS_MD_MD4\000"
 12507      544C535F 
 12507      4D445F4D 
 12507      443400
 12508              	.LASF15:
 12509 1008 4D424544 		.ascii	"MBEDTLS_MD_MD5\000"
 12509      544C535F 
 12509      4D445F4D 
 12509      443500
 12510              	.LASF143:
 12511 1017 73697A65 		.ascii	"sizetype\000"
 12511      74797065 
 12511      00
 12512              	.LASF104:
 12513 1020 4D424544 		.ascii	"MBEDTLS_CIPHER_DES_EDE3_ECB\000"
 12513      544C535F 
 12513      43495048 
 12513      45525F44 
 12513      45535F45 
 12514              	.LASF5:
 12515 103c 6C6F6E67 		.ascii	"long unsigned int\000"
 12515      20756E73 
 12515      69676E65 
 12515      6420696E 
 12515      7400
 12516              	.LASF162:
 12517 104e 706B5F75 		.ascii	"pk_use_ecparams\000"
 12517      73655F65 
 12517      63706172 
 12517      616D7300 
 12518              	.LASF216:
 12519 105e 6D626564 		.ascii	"mbedtls_pkcs12_pbe\000"
 12519      746C735F 
ARM GAS  C:\Users\Phuong\AppData\Local\Temp\ccG6FMOL.s 			page 262


 12519      706B6373 
 12519      31325F70 
 12519      626500
 12520              	.LASF214:
 12521 1071 6D626564 		.ascii	"mbedtls_pk_free\000"
 12521      746C735F 
 12521      706B5F66 
 12521      72656500 
 12522              	.LASF80:
 12523 1081 4D424544 		.ascii	"MBEDTLS_CIPHER_AES_192_CTR\000"
 12523      544C535F 
 12523      43495048 
 12523      45525F41 
 12523      45535F31 
 12524              	.LASF180:
 12525 109c 6D626564 		.ascii	"mbedtls_pk_parse_key\000"
 12525      746C735F 
 12525      706B5F70 
 12525      61727365 
 12525      5F6B6579 
 12526              	.LASF188:
 12527 10b1 6D626564 		.ascii	"mbedtls_rsa_check_pubkey\000"
 12527      746C735F 
 12527      7273615F 
 12527      63686563 
 12527      6B5F7075 
 12528              	.LASF127:
 12529 10ca 4D424544 		.ascii	"MBEDTLS_CIPHER_ARIA_192_CTR\000"
 12529      544C535F 
 12529      43495048 
 12529      45525F41 
 12529      5249415F 
 12530              	.LASF66:
 12531 10e6 706B5F63 		.ascii	"pk_ctx\000"
 12531      747800
 12532              	.LASF47:
 12533 10ed 70626974 		.ascii	"pbits\000"
 12533      7300
 12534              	.LASF1:
 12535 10f3 756E7369 		.ascii	"unsigned char\000"
 12535      676E6564 
 12535      20636861 
 12535      7200
 12536              	.LASF203:
 12537 1101 6D626564 		.ascii	"mbedtls_oid_get_ec_grp\000"
 12537      746C735F 
 12537      6F69645F 
 12537      6765745F 
 12537      65635F67 
 12538              	.LASF9:
 12539 1118 5F5F7569 		.ascii	"__uint32_t\000"
 12539      6E743332 
 12539      5F7400
 12540              	.LASF202:
 12541 1123 6D626564 		.ascii	"mbedtls_mpi_get_bit\000"
 12541      746C735F 
 12541      6D70695F 
ARM GAS  C:\Users\Phuong\AppData\Local\Temp\ccG6FMOL.s 			page 263


 12541      6765745F 
 12541      62697400 
 12542              	.LASF189:
 12543 1137 6D626564 		.ascii	"mbedtls_asn1_get_int\000"
 12543      746C735F 
 12543      61736E31 
 12543      5F676574 
 12543      5F696E74 
 12544              	.LASF193:
 12545 114c 6D626564 		.ascii	"mbedtls_mpi_read_binary\000"
 12545      746C735F 
 12545      6D70695F 
 12545      72656164 
 12545      5F62696E 
 12546              	.LASF139:
 12547 1164 4D424544 		.ascii	"MBEDTLS_CIPHER_AES_256_XTS\000"
 12547      544C535F 
 12547      43495048 
 12547      45525F41 
 12547      45535F32 
 12548              	.LASF40:
 12549 117f 4D424544 		.ascii	"MBEDTLS_ECP_DP_SECP224K1\000"
 12549      544C535F 
 12549      4543505F 
 12549      44505F53 
 12549      45435032 
 12550              	.LASF95:
 12551 1198 4D424544 		.ascii	"MBEDTLS_CIPHER_CAMELLIA_192_CTR\000"
 12551      544C535F 
 12551      43495048 
 12551      45525F43 
 12551      414D454C 
 12552              	.LASF153:
 12553 11b8 616C675F 		.ascii	"alg_oid\000"
 12553      6F696400 
 12554              	.LASF146:
 12555 11c0 696E666F 		.ascii	"info\000"
 12555      00
 12556              	.LASF210:
 12557 11c5 6D626564 		.ascii	"mbedtls_ecp_mul\000"
 12557      746C735F 
 12557      6563705F 
 12557      6D756C00 
 12558              	.LASF106:
 12559 11d5 4D424544 		.ascii	"MBEDTLS_CIPHER_BLOWFISH_ECB\000"
 12559      544C535F 
 12559      43495048 
 12559      45525F42 
 12559      4C4F5746 
 12560              	.LASF82:
 12561 11f1 4D424544 		.ascii	"MBEDTLS_CIPHER_AES_128_GCM\000"
 12561      544C535F 
 12561      43495048 
 12561      45525F41 
 12561      45535F31 
 12562              	.LASF0:
 12563 120c 7369676E 		.ascii	"signed char\000"
ARM GAS  C:\Users\Phuong\AppData\Local\Temp\ccG6FMOL.s 			page 264


 12563      65642063 
 12563      68617200 
 12564              	.LASF25:
 12565 1218 6D626564 		.ascii	"mbedtls_mpi\000"
 12565      746C735F 
 12565      6D706900 
 12566              	.LASF21:
 12567 1224 4D424544 		.ascii	"MBEDTLS_MD_RIPEMD160\000"
 12567      544C535F 
 12567      4D445F52 
 12567      4950454D 
 12567      44313630 
 12568              	.LASF43:
 12569 1239 6D626564 		.ascii	"mbedtls_ecp_group_id\000"
 12569      746C735F 
 12569      6563705F 
 12569      67726F75 
 12569      705F6964 
 12570              	.LASF3:
 12571 124e 73686F72 		.ascii	"short unsigned int\000"
 12571      7420756E 
 12571      7369676E 
 12571      65642069 
 12571      6E7400
 12572              	.LASF208:
 12573 1261 6D626564 		.ascii	"mbedtls_ecp_keypair_free\000"
 12573      746C735F 
 12573      6563705F 
 12573      6B657970 
 12573      6169725F 
 12574              	.LASF219:
 12575 127a 63616C6C 		.ascii	"calloc\000"
 12575      6F6300
 12576              	.LASF195:
 12577 1281 6D626564 		.ascii	"mbedtls_mpi_size\000"
 12577      746C735F 
 12577      6D70695F 
 12577      73697A65 
 12577      00
 12578              	.LASF19:
 12579 1292 4D424544 		.ascii	"MBEDTLS_MD_SHA384\000"
 12579      544C535F 
 12579      4D445F53 
 12579      48413338 
 12579      3400
 12580              	.LASF105:
 12581 12a4 4D424544 		.ascii	"MBEDTLS_CIPHER_DES_EDE3_CBC\000"
 12581      544C535F 
 12581      43495048 
 12581      45525F44 
 12581      45535F45 
 12582              	.LASF129:
 12583 12c0 4D424544 		.ascii	"MBEDTLS_CIPHER_ARIA_128_GCM\000"
 12583      544C535F 
 12583      43495048 
 12583      45525F41 
 12583      5249415F 
ARM GAS  C:\Users\Phuong\AppData\Local\Temp\ccG6FMOL.s 			page 265


 12584              	.LASF46:
 12585 12dc 6D626564 		.ascii	"mbedtls_ecp_group\000"
 12585      746C735F 
 12585      6563705F 
 12585      67726F75 
 12585      7000
 12586              	.LASF155:
 12587 12ee 706B5F67 		.ascii	"pk_group_from_specified\000"
 12587      726F7570 
 12587      5F66726F 
 12587      6D5F7370 
 12587      65636966 
 12588              	.LASF51:
 12589 1306 745F706F 		.ascii	"t_post\000"
 12589      737400
 12590              	.LASF185:
 12591 130d 6D626564 		.ascii	"mbedtls_oid_get_pk_alg\000"
 12591      746C735F 
 12591      6F69645F 
 12591      6765745F 
 12591      706B5F61 
 12592              	.LASF97:
 12593 1324 4D424544 		.ascii	"MBEDTLS_CIPHER_CAMELLIA_128_GCM\000"
 12593      544C535F 
 12593      43495048 
 12593      45525F43 
 12593      414D454C 
 12594              	.LASF84:
 12595 1344 4D424544 		.ascii	"MBEDTLS_CIPHER_AES_256_GCM\000"
 12595      544C535F 
 12595      43495048 
 12595      45525F41 
 12595      45535F32 
 12596              	.LASF222:
 12597 135f 6D626564 		.ascii	"mbedtls_platform_zeroize\000"
 12597      746C735F 
 12597      706C6174 
 12597      666F726D 
 12597      5F7A6572 
 12598              	.LASF77:
 12599 1378 4D424544 		.ascii	"MBEDTLS_CIPHER_AES_192_CFB128\000"
 12599      544C535F 
 12599      43495048 
 12599      45525F41 
 12599      45535F31 
 12600              	.LASF124:
 12601 1396 4D424544 		.ascii	"MBEDTLS_CIPHER_ARIA_192_CFB128\000"
 12601      544C535F 
 12601      43495048 
 12601      45525F41 
 12601      5249415F 
 12602              	.LASF205:
 12603 13b5 6D626564 		.ascii	"mbedtls_mpi_init\000"
 12603      746C735F 
 12603      6D70695F 
 12603      696E6974 
 12603      00
ARM GAS  C:\Users\Phuong\AppData\Local\Temp\ccG6FMOL.s 			page 266


 12604              		.ident	"GCC: (GNU Tools for ARM Embedded Processors) 5.4.1 20160609 (release) [ARM/embedded-5-bran
