ARM GAS  C:\Users\Phuong\AppData\Local\Temp\ccarqF69.s 			page 1


   1              		.syntax unified
   2              		.cpu cortex-m0plus
   3              		.fpu softvfp
   4              		.eabi_attribute 20, 1
   5              		.eabi_attribute 21, 1
   6              		.eabi_attribute 23, 3
   7              		.eabi_attribute 24, 1
   8              		.eabi_attribute 25, 1
   9              		.eabi_attribute 26, 1
  10              		.eabi_attribute 30, 1
  11              		.eabi_attribute 34, 0
  12              		.eabi_attribute 18, 4
  13              		.thumb
  14              		.syntax unified
  15              		.file	"platform_freertos.c"
  16              		.text
  17              	.Ltext0:
  18              		.cfi_sections	.debug_frame
  19              		.section	.text.platform_init,"ax",%progbits
  20              		.align	2
  21              		.global	platform_init
  22              		.code	16
  23              		.thumb_func
  24              		.type	platform_init, %function
  25              	platform_init:
  26              	.LFB0:
  27              		.file 1 "Source\\azure_iot_sdk\\c-utility\\adapters\\platform_freertos.c"
   1:Source\azure_iot_sdk\c-utility\adapters/platform_freertos.c **** // Copyright (C) Firmwave Ltd., All rights reserved.
   2:Source\azure_iot_sdk\c-utility\adapters/platform_freertos.c **** // Licensed under the MIT license. See LICENSE file in the project root for full license informatio
   3:Source\azure_iot_sdk\c-utility\adapters/platform_freertos.c **** 
   4:Source\azure_iot_sdk\c-utility\adapters/platform_freertos.c **** #include "azure_c_shared_utility/platform.h"
   5:Source\azure_iot_sdk\c-utility\adapters/platform_freertos.c **** #include "azure_c_shared_utility/xio.h"
   6:Source\azure_iot_sdk\c-utility\adapters/platform_freertos.c **** #include "azure_c_shared_utility/tlsio_mbedtls.h"
   7:Source\azure_iot_sdk\c-utility\adapters/platform_freertos.c **** #include "azure_c_shared_utility/threadapi.h"
   8:Source\azure_iot_sdk\c-utility\adapters/platform_freertos.c **** 
   9:Source\azure_iot_sdk\c-utility\adapters/platform_freertos.c **** //#include "debug.h"
  10:Source\azure_iot_sdk\c-utility\adapters/platform_freertos.c **** 
  11:Source\azure_iot_sdk\c-utility\adapters/platform_freertos.c **** int platform_init(void)
  12:Source\azure_iot_sdk\c-utility\adapters/platform_freertos.c **** {
  28              		.loc 1 12 0
  29              		.cfi_startproc
  30              		@ args = 0, pretend = 0, frame = 0
  31              		@ frame_needed = 0, uses_anonymous_args = 0
  32              		@ link register save eliminated.
  13:Source\azure_iot_sdk\c-utility\adapters/platform_freertos.c ****     //TODO Add proper network events synchronization
  14:Source\azure_iot_sdk\c-utility\adapters/platform_freertos.c ****    // ThreadAPI_Sleep(10000);
  15:Source\azure_iot_sdk\c-utility\adapters/platform_freertos.c ****     return 0;
  16:Source\azure_iot_sdk\c-utility\adapters/platform_freertos.c **** }
  33              		.loc 1 16 0
  34 0000 0020     		movs	r0, #0
  35              		@ sp needed
  36 0002 7047     		bx	lr
  37              		.cfi_endproc
  38              	.LFE0:
  39              		.size	platform_init, .-platform_init
  40              		.section	.text.platform_get_default_tlsio,"ax",%progbits
  41              		.align	2
ARM GAS  C:\Users\Phuong\AppData\Local\Temp\ccarqF69.s 			page 2


  42              		.global	platform_get_default_tlsio
  43              		.code	16
  44              		.thumb_func
  45              		.type	platform_get_default_tlsio, %function
  46              	platform_get_default_tlsio:
  47              	.LFB1:
  17:Source\azure_iot_sdk\c-utility\adapters/platform_freertos.c **** 
  18:Source\azure_iot_sdk\c-utility\adapters/platform_freertos.c **** const IO_INTERFACE_DESCRIPTION* platform_get_default_tlsio(void)
  19:Source\azure_iot_sdk\c-utility\adapters/platform_freertos.c **** {
  48              		.loc 1 19 0
  49              		.cfi_startproc
  50              		@ args = 0, pretend = 0, frame = 0
  51              		@ frame_needed = 0, uses_anonymous_args = 0
  52 0000 10B5     		push	{r4, lr}
  53              		.cfi_def_cfa_offset 8
  54              		.cfi_offset 4, -8
  55              		.cfi_offset 14, -4
  20:Source\azure_iot_sdk\c-utility\adapters/platform_freertos.c ****     return tlsio_mbedtls_get_interface_description();
  56              		.loc 1 20 0
  57 0002 FFF7FEFF 		bl	tlsio_mbedtls_get_interface_description
  58              	.LVL0:
  21:Source\azure_iot_sdk\c-utility\adapters/platform_freertos.c **** }
  59              		.loc 1 21 0
  60              		@ sp needed
  61 0006 10BD     		pop	{r4, pc}
  62              		.cfi_endproc
  63              	.LFE1:
  64              		.size	platform_get_default_tlsio, .-platform_get_default_tlsio
  65              		.section	.text.platform_get_platform_info,"ax",%progbits
  66              		.align	2
  67              		.global	platform_get_platform_info
  68              		.code	16
  69              		.thumb_func
  70              		.type	platform_get_platform_info, %function
  71              	platform_get_platform_info:
  72              	.LFB2:
  22:Source\azure_iot_sdk\c-utility\adapters/platform_freertos.c **** 
  23:Source\azure_iot_sdk\c-utility\adapters/platform_freertos.c **** STRING_HANDLE platform_get_platform_info(void)
  24:Source\azure_iot_sdk\c-utility\adapters/platform_freertos.c **** {
  73              		.loc 1 24 0
  74              		.cfi_startproc
  75              		@ args = 0, pretend = 0, frame = 0
  76              		@ frame_needed = 0, uses_anonymous_args = 0
  77 0000 10B5     		push	{r4, lr}
  78              		.cfi_def_cfa_offset 8
  79              		.cfi_offset 4, -8
  80              		.cfi_offset 14, -4
  25:Source\azure_iot_sdk\c-utility\adapters/platform_freertos.c ****     // Expected format: "(<runtime name>; <operating system name>; <platform>)"
  26:Source\azure_iot_sdk\c-utility\adapters/platform_freertos.c **** 
  27:Source\azure_iot_sdk\c-utility\adapters/platform_freertos.c ****     return STRING_construct("(native; freertos; undefined)");
  81              		.loc 1 27 0
  82 0002 0248     		ldr	r0, .L4
  83 0004 FFF7FEFF 		bl	STRING_construct
  84              	.LVL1:
  28:Source\azure_iot_sdk\c-utility\adapters/platform_freertos.c **** }
  85              		.loc 1 28 0
  86              		@ sp needed
ARM GAS  C:\Users\Phuong\AppData\Local\Temp\ccarqF69.s 			page 3


  87 0008 10BD     		pop	{r4, pc}
  88              	.L5:
  89 000a C046     		.align	2
  90              	.L4:
  91 000c 00000000 		.word	.LC0
  92              		.cfi_endproc
  93              	.LFE2:
  94              		.size	platform_get_platform_info, .-platform_get_platform_info
  95              		.section	.text.platform_deinit,"ax",%progbits
  96              		.align	2
  97              		.global	platform_deinit
  98              		.code	16
  99              		.thumb_func
 100              		.type	platform_deinit, %function
 101              	platform_deinit:
 102              	.LFB3:
  29:Source\azure_iot_sdk\c-utility\adapters/platform_freertos.c **** 
  30:Source\azure_iot_sdk\c-utility\adapters/platform_freertos.c **** void platform_deinit(void)
  31:Source\azure_iot_sdk\c-utility\adapters/platform_freertos.c **** {
 103              		.loc 1 31 0
 104              		.cfi_startproc
 105              		@ args = 0, pretend = 0, frame = 0
 106              		@ frame_needed = 0, uses_anonymous_args = 0
 107              		@ link register save eliminated.
  32:Source\azure_iot_sdk\c-utility\adapters/platform_freertos.c ****     //TRACE_INFO("Deinitializing platform \r\n");
  33:Source\azure_iot_sdk\c-utility\adapters/platform_freertos.c ****     //while(1) {};
  34:Source\azure_iot_sdk\c-utility\adapters/platform_freertos.c **** }
 108              		.loc 1 34 0
 109              		@ sp needed
 110 0000 7047     		bx	lr
 111              		.cfi_endproc
 112              	.LFE3:
 113              		.size	platform_deinit, .-platform_deinit
 114 0002 C046     		.section	.rodata.str1.4,"aMS",%progbits,1
 115              		.align	2
 116              	.LC0:
 117 0000 286E6174 		.ascii	"(native; freertos; undefined)\000"
 117      6976653B 
 117      20667265 
 117      6572746F 
 117      733B2075 
 118              		.text
 119              	.Letext0:
 120              		.file 2 "c:\\program files (x86)\\cypress\\psoc creator\\4.2\\psoc creator\\import\\gnu\\arm\\5.4.
 121              		.file 3 ".\\Source\\azure_iot_sdk\\c-utility\\inc/azure_c_shared_utility/strings_types.h"
 122              		.file 4 ".\\Source\\azure_iot_sdk\\c-utility\\inc/azure_c_shared_utility/optionhandler.h"
 123              		.file 5 ".\\Source\\azure_iot_sdk\\c-utility\\inc/azure_c_shared_utility/xio.h"
 124              		.file 6 ".\\Source\\azure_iot_sdk\\c-utility\\inc/azure_c_shared_utility/strings.h"