ARM GAS  C:\Users\Phuong\AppData\Local\Temp\ccUsk3Ea.s 			page 1


   1              		.syntax unified
   2              		.cpu cortex-m0plus
   3              		.fpu softvfp
   4              		.eabi_attribute 20, 1
   5              		.eabi_attribute 21, 1
   6              		.eabi_attribute 23, 3
   7              		.eabi_attribute 24, 1
   8              		.eabi_attribute 25, 1
   9              		.eabi_attribute 26, 1
  10              		.eabi_attribute 30, 1
  11              		.eabi_attribute 34, 0
  12              		.eabi_attribute 18, 4
  13              		.thumb
  14              		.syntax unified
  15              		.file	"port.c"
  16              		.text
  17              	.Ltext0:
  18              		.cfi_sections	.debug_frame
  19              		.section	.text.prvTaskExitError,"ax",%progbits
  20              		.align	2
  21              		.code	16
  22              		.thumb_func
  23              		.type	prvTaskExitError, %function
  24              	prvTaskExitError:
  25              	.LFB37:
  26              		.file 1 "Source\\FreeRTOS\\10.0.1\\Source\\portable\\GCC\\CM0\\port.c"
   1:Source\FreeRTOS\10.0.1\Source\portable\GCC\CM0/port.c **** /*
   2:Source\FreeRTOS\10.0.1\Source\portable\GCC\CM0/port.c ****  * FreeRTOS Kernel V10.0.1
   3:Source\FreeRTOS\10.0.1\Source\portable\GCC\CM0/port.c ****  * Copyright (C) 2017 Amazon.com, Inc. or its affiliates.  All Rights Reserved.
   4:Source\FreeRTOS\10.0.1\Source\portable\GCC\CM0/port.c ****  *
   5:Source\FreeRTOS\10.0.1\Source\portable\GCC\CM0/port.c ****  * Permission is hereby granted, free of charge, to any person obtaining a copy of
   6:Source\FreeRTOS\10.0.1\Source\portable\GCC\CM0/port.c ****  * this software and associated documentation files (the "Software"), to deal in
   7:Source\FreeRTOS\10.0.1\Source\portable\GCC\CM0/port.c ****  * the Software without restriction, including without limitation the rights to
   8:Source\FreeRTOS\10.0.1\Source\portable\GCC\CM0/port.c ****  * use, copy, modify, merge, publish, distribute, sublicense, and/or sell copies of
   9:Source\FreeRTOS\10.0.1\Source\portable\GCC\CM0/port.c ****  * the Software, and to permit persons to whom the Software is furnished to do so,
  10:Source\FreeRTOS\10.0.1\Source\portable\GCC\CM0/port.c ****  * subject to the following conditions:
  11:Source\FreeRTOS\10.0.1\Source\portable\GCC\CM0/port.c ****  *
  12:Source\FreeRTOS\10.0.1\Source\portable\GCC\CM0/port.c ****  * The above copyright notice and this permission notice shall be included in all
  13:Source\FreeRTOS\10.0.1\Source\portable\GCC\CM0/port.c ****  * copies or substantial portions of the Software.
  14:Source\FreeRTOS\10.0.1\Source\portable\GCC\CM0/port.c ****  *
  15:Source\FreeRTOS\10.0.1\Source\portable\GCC\CM0/port.c ****  * THE SOFTWARE IS PROVIDED "AS IS", WITHOUT WARRANTY OF ANY KIND, EXPRESS OR
  16:Source\FreeRTOS\10.0.1\Source\portable\GCC\CM0/port.c ****  * IMPLIED, INCLUDING BUT NOT LIMITED TO THE WARRANTIES OF MERCHANTABILITY, FITNESS
  17:Source\FreeRTOS\10.0.1\Source\portable\GCC\CM0/port.c ****  * FOR A PARTICULAR PURPOSE AND NONINFRINGEMENT. IN NO EVENT SHALL THE AUTHORS OR
  18:Source\FreeRTOS\10.0.1\Source\portable\GCC\CM0/port.c ****  * COPYRIGHT HOLDERS BE LIABLE FOR ANY CLAIM, DAMAGES OR OTHER LIABILITY, WHETHER
  19:Source\FreeRTOS\10.0.1\Source\portable\GCC\CM0/port.c ****  * IN AN ACTION OF CONTRACT, TORT OR OTHERWISE, ARISING FROM, OUT OF OR IN
  20:Source\FreeRTOS\10.0.1\Source\portable\GCC\CM0/port.c ****  * CONNECTION WITH THE SOFTWARE OR THE USE OR OTHER DEALINGS IN THE SOFTWARE.
  21:Source\FreeRTOS\10.0.1\Source\portable\GCC\CM0/port.c ****  *
  22:Source\FreeRTOS\10.0.1\Source\portable\GCC\CM0/port.c ****  * http://www.FreeRTOS.org
  23:Source\FreeRTOS\10.0.1\Source\portable\GCC\CM0/port.c ****  * http://aws.amazon.com/freertos
  24:Source\FreeRTOS\10.0.1\Source\portable\GCC\CM0/port.c ****  *
  25:Source\FreeRTOS\10.0.1\Source\portable\GCC\CM0/port.c ****  * 1 tab == 4 spaces!
  26:Source\FreeRTOS\10.0.1\Source\portable\GCC\CM0/port.c ****  */
  27:Source\FreeRTOS\10.0.1\Source\portable\GCC\CM0/port.c **** 
  28:Source\FreeRTOS\10.0.1\Source\portable\GCC\CM0/port.c **** /*-----------------------------------------------------------
  29:Source\FreeRTOS\10.0.1\Source\portable\GCC\CM0/port.c ****  * Implementation of functions defined in portable.h for the ARM CM0 port.
  30:Source\FreeRTOS\10.0.1\Source\portable\GCC\CM0/port.c ****  *----------------------------------------------------------*/
  31:Source\FreeRTOS\10.0.1\Source\portable\GCC\CM0/port.c **** 
ARM GAS  C:\Users\Phuong\AppData\Local\Temp\ccUsk3Ea.s 			page 2


  32:Source\FreeRTOS\10.0.1\Source\portable\GCC\CM0/port.c **** /* Scheduler includes. */
  33:Source\FreeRTOS\10.0.1\Source\portable\GCC\CM0/port.c **** #include "FreeRTOS.h"
  34:Source\FreeRTOS\10.0.1\Source\portable\GCC\CM0/port.c **** #include "task.h"
  35:Source\FreeRTOS\10.0.1\Source\portable\GCC\CM0/port.c **** 
  36:Source\FreeRTOS\10.0.1\Source\portable\GCC\CM0/port.c **** /* Constants required to manipulate the NVIC. */
  37:Source\FreeRTOS\10.0.1\Source\portable\GCC\CM0/port.c **** #define portNVIC_SYSTICK_CTRL			( ( volatile uint32_t * ) 0xe000e010 )
  38:Source\FreeRTOS\10.0.1\Source\portable\GCC\CM0/port.c **** #define portNVIC_SYSTICK_LOAD			( ( volatile uint32_t * ) 0xe000e014 )
  39:Source\FreeRTOS\10.0.1\Source\portable\GCC\CM0/port.c **** #define portNVIC_SYSTICK_CURRENT_VALUE	( ( volatile uint32_t * ) 0xe000e018 )
  40:Source\FreeRTOS\10.0.1\Source\portable\GCC\CM0/port.c **** #define portNVIC_INT_CTRL				( ( volatile uint32_t *) 0xe000ed04 )
  41:Source\FreeRTOS\10.0.1\Source\portable\GCC\CM0/port.c **** #define portNVIC_SYSPRI2				( ( volatile uint32_t *) 0xe000ed20 )
  42:Source\FreeRTOS\10.0.1\Source\portable\GCC\CM0/port.c **** #define portNVIC_SYSTICK_CLK			0x00000004
  43:Source\FreeRTOS\10.0.1\Source\portable\GCC\CM0/port.c **** #define portNVIC_SYSTICK_INT			0x00000002
  44:Source\FreeRTOS\10.0.1\Source\portable\GCC\CM0/port.c **** #define portNVIC_SYSTICK_ENABLE			0x00000001
  45:Source\FreeRTOS\10.0.1\Source\portable\GCC\CM0/port.c **** #define portNVIC_PENDSVSET				0x10000000
  46:Source\FreeRTOS\10.0.1\Source\portable\GCC\CM0/port.c **** #define portMIN_INTERRUPT_PRIORITY		( 255UL )
  47:Source\FreeRTOS\10.0.1\Source\portable\GCC\CM0/port.c **** #define portNVIC_PENDSV_PRI				( portMIN_INTERRUPT_PRIORITY << 16UL )
  48:Source\FreeRTOS\10.0.1\Source\portable\GCC\CM0/port.c **** #define portNVIC_SYSTICK_PRI			( portMIN_INTERRUPT_PRIORITY << 24UL )
  49:Source\FreeRTOS\10.0.1\Source\portable\GCC\CM0/port.c **** 
  50:Source\FreeRTOS\10.0.1\Source\portable\GCC\CM0/port.c **** /* Constants required to set up the initial stack. */
  51:Source\FreeRTOS\10.0.1\Source\portable\GCC\CM0/port.c **** #define portINITIAL_XPSR			( 0x01000000 )
  52:Source\FreeRTOS\10.0.1\Source\portable\GCC\CM0/port.c **** 
  53:Source\FreeRTOS\10.0.1\Source\portable\GCC\CM0/port.c **** /* Let the user override the pre-loading of the initial LR with the address of
  54:Source\FreeRTOS\10.0.1\Source\portable\GCC\CM0/port.c **** prvTaskExitError() in case it messes up unwinding of the stack in the
  55:Source\FreeRTOS\10.0.1\Source\portable\GCC\CM0/port.c **** debugger. */
  56:Source\FreeRTOS\10.0.1\Source\portable\GCC\CM0/port.c **** #ifdef configTASK_RETURN_ADDRESS
  57:Source\FreeRTOS\10.0.1\Source\portable\GCC\CM0/port.c **** 	#define portTASK_RETURN_ADDRESS	configTASK_RETURN_ADDRESS
  58:Source\FreeRTOS\10.0.1\Source\portable\GCC\CM0/port.c **** #else
  59:Source\FreeRTOS\10.0.1\Source\portable\GCC\CM0/port.c **** 	#define portTASK_RETURN_ADDRESS	prvTaskExitError
  60:Source\FreeRTOS\10.0.1\Source\portable\GCC\CM0/port.c **** #endif
  61:Source\FreeRTOS\10.0.1\Source\portable\GCC\CM0/port.c **** 
  62:Source\FreeRTOS\10.0.1\Source\portable\GCC\CM0/port.c **** /*
  63:Source\FreeRTOS\10.0.1\Source\portable\GCC\CM0/port.c ****  * Setup the timer to generate the tick interrupts.
  64:Source\FreeRTOS\10.0.1\Source\portable\GCC\CM0/port.c ****  */
  65:Source\FreeRTOS\10.0.1\Source\portable\GCC\CM0/port.c **** static void prvSetupTimerInterrupt( void );
  66:Source\FreeRTOS\10.0.1\Source\portable\GCC\CM0/port.c **** 
  67:Source\FreeRTOS\10.0.1\Source\portable\GCC\CM0/port.c **** /*
  68:Source\FreeRTOS\10.0.1\Source\portable\GCC\CM0/port.c ****  * Exception handlers.
  69:Source\FreeRTOS\10.0.1\Source\portable\GCC\CM0/port.c ****  */
  70:Source\FreeRTOS\10.0.1\Source\portable\GCC\CM0/port.c **** void xPortPendSVHandler( void ) __attribute__ (( naked ));
  71:Source\FreeRTOS\10.0.1\Source\portable\GCC\CM0/port.c **** void xPortSysTickHandler( void );
  72:Source\FreeRTOS\10.0.1\Source\portable\GCC\CM0/port.c **** void vPortSVCHandler( void );
  73:Source\FreeRTOS\10.0.1\Source\portable\GCC\CM0/port.c **** 
  74:Source\FreeRTOS\10.0.1\Source\portable\GCC\CM0/port.c **** /*
  75:Source\FreeRTOS\10.0.1\Source\portable\GCC\CM0/port.c ****  * Start first task is a separate function so it can be tested in isolation.
  76:Source\FreeRTOS\10.0.1\Source\portable\GCC\CM0/port.c ****  */
  77:Source\FreeRTOS\10.0.1\Source\portable\GCC\CM0/port.c **** static void vPortStartFirstTask( void ) __attribute__ (( naked ));
  78:Source\FreeRTOS\10.0.1\Source\portable\GCC\CM0/port.c **** 
  79:Source\FreeRTOS\10.0.1\Source\portable\GCC\CM0/port.c **** /*
  80:Source\FreeRTOS\10.0.1\Source\portable\GCC\CM0/port.c ****  * Used to catch tasks that attempt to return from their implementing function.
  81:Source\FreeRTOS\10.0.1\Source\portable\GCC\CM0/port.c ****  */
  82:Source\FreeRTOS\10.0.1\Source\portable\GCC\CM0/port.c **** static void prvTaskExitError( void );
  83:Source\FreeRTOS\10.0.1\Source\portable\GCC\CM0/port.c **** 
  84:Source\FreeRTOS\10.0.1\Source\portable\GCC\CM0/port.c **** /*-----------------------------------------------------------*/
  85:Source\FreeRTOS\10.0.1\Source\portable\GCC\CM0/port.c **** 
  86:Source\FreeRTOS\10.0.1\Source\portable\GCC\CM0/port.c **** /* Each task maintains its own interrupt status in the critical nesting
  87:Source\FreeRTOS\10.0.1\Source\portable\GCC\CM0/port.c **** variable. */
  88:Source\FreeRTOS\10.0.1\Source\portable\GCC\CM0/port.c **** static UBaseType_t uxCriticalNesting = 0xaaaaaaaa;
ARM GAS  C:\Users\Phuong\AppData\Local\Temp\ccUsk3Ea.s 			page 3


  89:Source\FreeRTOS\10.0.1\Source\portable\GCC\CM0/port.c **** 
  90:Source\FreeRTOS\10.0.1\Source\portable\GCC\CM0/port.c **** /*-----------------------------------------------------------*/
  91:Source\FreeRTOS\10.0.1\Source\portable\GCC\CM0/port.c **** 
  92:Source\FreeRTOS\10.0.1\Source\portable\GCC\CM0/port.c **** /*
  93:Source\FreeRTOS\10.0.1\Source\portable\GCC\CM0/port.c ****  * See header file for description.
  94:Source\FreeRTOS\10.0.1\Source\portable\GCC\CM0/port.c ****  */
  95:Source\FreeRTOS\10.0.1\Source\portable\GCC\CM0/port.c **** StackType_t *pxPortInitialiseStack( StackType_t *pxTopOfStack, TaskFunction_t pxCode, void *pvParam
  96:Source\FreeRTOS\10.0.1\Source\portable\GCC\CM0/port.c **** {
  97:Source\FreeRTOS\10.0.1\Source\portable\GCC\CM0/port.c **** 	/* Simulate the stack frame as it would be created by a context switch
  98:Source\FreeRTOS\10.0.1\Source\portable\GCC\CM0/port.c **** 	interrupt. */
  99:Source\FreeRTOS\10.0.1\Source\portable\GCC\CM0/port.c **** 	pxTopOfStack--; /* Offset added to account for the way the MCU uses the stack on entry/exit of int
 100:Source\FreeRTOS\10.0.1\Source\portable\GCC\CM0/port.c **** 	*pxTopOfStack = portINITIAL_XPSR;	/* xPSR */
 101:Source\FreeRTOS\10.0.1\Source\portable\GCC\CM0/port.c **** 	pxTopOfStack--;
 102:Source\FreeRTOS\10.0.1\Source\portable\GCC\CM0/port.c **** 	*pxTopOfStack = ( StackType_t ) pxCode;	/* PC */
 103:Source\FreeRTOS\10.0.1\Source\portable\GCC\CM0/port.c **** 	pxTopOfStack--;
 104:Source\FreeRTOS\10.0.1\Source\portable\GCC\CM0/port.c **** 	*pxTopOfStack = ( StackType_t ) portTASK_RETURN_ADDRESS;	/* LR */
 105:Source\FreeRTOS\10.0.1\Source\portable\GCC\CM0/port.c **** 	pxTopOfStack -= 5;	/* R12, R3, R2 and R1. */
 106:Source\FreeRTOS\10.0.1\Source\portable\GCC\CM0/port.c **** 	*pxTopOfStack = ( StackType_t ) pvParameters;	/* R0 */
 107:Source\FreeRTOS\10.0.1\Source\portable\GCC\CM0/port.c **** 	pxTopOfStack -= 8; /* R11..R4. */
 108:Source\FreeRTOS\10.0.1\Source\portable\GCC\CM0/port.c **** 
 109:Source\FreeRTOS\10.0.1\Source\portable\GCC\CM0/port.c **** 	return pxTopOfStack;
 110:Source\FreeRTOS\10.0.1\Source\portable\GCC\CM0/port.c **** }
 111:Source\FreeRTOS\10.0.1\Source\portable\GCC\CM0/port.c **** /*-----------------------------------------------------------*/
 112:Source\FreeRTOS\10.0.1\Source\portable\GCC\CM0/port.c **** 
 113:Source\FreeRTOS\10.0.1\Source\portable\GCC\CM0/port.c **** static void prvTaskExitError( void )
 114:Source\FreeRTOS\10.0.1\Source\portable\GCC\CM0/port.c **** {
  27              		.loc 1 114 0
  28              		.cfi_startproc
  29              		@ args = 0, pretend = 0, frame = 8
  30              		@ frame_needed = 0, uses_anonymous_args = 0
  31              		@ link register save eliminated.
  32 0000 82B0     		sub	sp, sp, #8
  33              		.cfi_def_cfa_offset 8
 115:Source\FreeRTOS\10.0.1\Source\portable\GCC\CM0/port.c **** volatile uint32_t ulDummy = 0UL;
  34              		.loc 1 115 0
  35 0002 0023     		movs	r3, #0
  36 0004 0193     		str	r3, [sp, #4]
 116:Source\FreeRTOS\10.0.1\Source\portable\GCC\CM0/port.c **** 
 117:Source\FreeRTOS\10.0.1\Source\portable\GCC\CM0/port.c **** 	/* A function that implements a task must not exit or attempt to return to
 118:Source\FreeRTOS\10.0.1\Source\portable\GCC\CM0/port.c **** 	its caller as there is nothing to return to.  If a task wants to exit it
 119:Source\FreeRTOS\10.0.1\Source\portable\GCC\CM0/port.c **** 	should instead call vTaskDelete( NULL ).
 120:Source\FreeRTOS\10.0.1\Source\portable\GCC\CM0/port.c **** 
 121:Source\FreeRTOS\10.0.1\Source\portable\GCC\CM0/port.c **** 	Artificially force an assert() to be triggered if configASSERT() is
 122:Source\FreeRTOS\10.0.1\Source\portable\GCC\CM0/port.c **** 	defined, then stop here so application writers can catch the error. */
 123:Source\FreeRTOS\10.0.1\Source\portable\GCC\CM0/port.c **** 	configASSERT( uxCriticalNesting == ~0UL );
  37              		.loc 1 123 0
  38 0006 064B     		ldr	r3, .L5
  39 0008 1B68     		ldr	r3, [r3]
  40 000a 0133     		adds	r3, r3, #1
  41 000c 01D0     		beq	.L2
  42              		.loc 1 123 0 is_stmt 0 discriminator 1
  43              		.syntax divided
  44              	@ 123 "Source\FreeRTOS\10.0.1\Source\portable\GCC\CM0\port.c" 1
  45 000e 72B6     		 cpsid i 
  46              	@ 0 "" 2
  47              		.thumb
  48              		.syntax unified
ARM GAS  C:\Users\Phuong\AppData\Local\Temp\ccUsk3Ea.s 			page 4


  49              	.L3:
  50 0010 FEE7     		b	.L3
  51              	.L2:
 124:Source\FreeRTOS\10.0.1\Source\portable\GCC\CM0/port.c **** 	portDISABLE_INTERRUPTS();
  52              		.loc 1 124 0 is_stmt 1
  53              		.syntax divided
  54              	@ 124 "Source\FreeRTOS\10.0.1\Source\portable\GCC\CM0\port.c" 1
  55 0012 72B6     		 cpsid i 
  56              	@ 0 "" 2
  57              		.thumb
  58              		.syntax unified
  59              	.L4:
 125:Source\FreeRTOS\10.0.1\Source\portable\GCC\CM0/port.c **** 	while( ulDummy == 0 )
  60              		.loc 1 125 0 discriminator 1
  61 0014 019B     		ldr	r3, [sp, #4]
  62 0016 002B     		cmp	r3, #0
  63 0018 FCD0     		beq	.L4
 126:Source\FreeRTOS\10.0.1\Source\portable\GCC\CM0/port.c **** 	{
 127:Source\FreeRTOS\10.0.1\Source\portable\GCC\CM0/port.c **** 		/* This file calls prvTaskExitError() after the scheduler has been
 128:Source\FreeRTOS\10.0.1\Source\portable\GCC\CM0/port.c **** 		started to remove a compiler warning about the function being defined
 129:Source\FreeRTOS\10.0.1\Source\portable\GCC\CM0/port.c **** 		but never called.  ulDummy is used purely to quieten other warnings
 130:Source\FreeRTOS\10.0.1\Source\portable\GCC\CM0/port.c **** 		about code appearing after this function is called - making ulDummy
 131:Source\FreeRTOS\10.0.1\Source\portable\GCC\CM0/port.c **** 		volatile makes the compiler think the function could return and
 132:Source\FreeRTOS\10.0.1\Source\portable\GCC\CM0/port.c **** 		therefore not output an 'unreachable code' warning for code that appears
 133:Source\FreeRTOS\10.0.1\Source\portable\GCC\CM0/port.c **** 		after it. */
 134:Source\FreeRTOS\10.0.1\Source\portable\GCC\CM0/port.c **** 	}
 135:Source\FreeRTOS\10.0.1\Source\portable\GCC\CM0/port.c **** }
  64              		.loc 1 135 0
  65 001a 02B0     		add	sp, sp, #8
  66              		@ sp needed
  67 001c 7047     		bx	lr
  68              	.L6:
  69 001e C046     		.align	2
  70              	.L5:
  71 0020 00000000 		.word	.LANCHOR0
  72              		.cfi_endproc
  73              	.LFE37:
  74              		.size	prvTaskExitError, .-prvTaskExitError
  75              		.section	.text.vPortStartFirstTask,"ax",%progbits
  76              		.align	2
  77              		.code	16
  78              		.thumb_func
  79              		.type	vPortStartFirstTask, %function
  80              	vPortStartFirstTask:
  81              	.LFB39:
 136:Source\FreeRTOS\10.0.1\Source\portable\GCC\CM0/port.c **** /*-----------------------------------------------------------*/
 137:Source\FreeRTOS\10.0.1\Source\portable\GCC\CM0/port.c **** 
 138:Source\FreeRTOS\10.0.1\Source\portable\GCC\CM0/port.c **** void vPortSVCHandler( void )
 139:Source\FreeRTOS\10.0.1\Source\portable\GCC\CM0/port.c **** {
 140:Source\FreeRTOS\10.0.1\Source\portable\GCC\CM0/port.c **** 	/* This function is no longer used, but retained for backward
 141:Source\FreeRTOS\10.0.1\Source\portable\GCC\CM0/port.c **** 	compatibility. */
 142:Source\FreeRTOS\10.0.1\Source\portable\GCC\CM0/port.c **** }
 143:Source\FreeRTOS\10.0.1\Source\portable\GCC\CM0/port.c **** /*-----------------------------------------------------------*/
 144:Source\FreeRTOS\10.0.1\Source\portable\GCC\CM0/port.c **** 
 145:Source\FreeRTOS\10.0.1\Source\portable\GCC\CM0/port.c **** void vPortStartFirstTask( void )
 146:Source\FreeRTOS\10.0.1\Source\portable\GCC\CM0/port.c **** {
  82              		.loc 1 146 0
ARM GAS  C:\Users\Phuong\AppData\Local\Temp\ccUsk3Ea.s 			page 5


  83              		.cfi_startproc
  84              		@ Naked Function: prologue and epilogue provided by programmer.
  85              		@ args = 0, pretend = 0, frame = 0
  86              		@ frame_needed = 0, uses_anonymous_args = 0
 147:Source\FreeRTOS\10.0.1\Source\portable\GCC\CM0/port.c **** 	/* The MSP stack is not reset as, unlike on M3/4 parts, there is no vector
 148:Source\FreeRTOS\10.0.1\Source\portable\GCC\CM0/port.c **** 	table offset register that can be used to locate the initial stack value.
 149:Source\FreeRTOS\10.0.1\Source\portable\GCC\CM0/port.c **** 	Not all M0 parts have the application vector table at address 0. */
 150:Source\FreeRTOS\10.0.1\Source\portable\GCC\CM0/port.c **** 	__asm volatile(
  87              		.loc 1 150 0
  88              		.syntax divided
  89              	@ 150 "Source\FreeRTOS\10.0.1\Source\portable\GCC\CM0\port.c" 1
  90              			.syntax unified				
  91 0000 0B4A     		ldr  r2, pxCurrentTCBConst2	
  92 0002 1368     		ldr  r3, [r2]				
  93 0004 1868     		ldr  r0, [r3]				
  94 0006 2030     		adds r0, #32					
  95 0008 80F30988 		msr  psp, r0					
  96 000c 0220     		movs r0, #2					
  97 000e 80F31488 		msr  CONTROL, r0				
  98 0012 BFF36F8F 		isb							
  99 0016 3FBC     		pop  {r0-r5}					
 100 0018 AE46     		mov  lr, r5					
 101 001a 08BC     		pop  {r3}					
 102 001c 04BC     		pop  {r2}					
 103 001e 62B6     		cpsie i						
 104 0020 1847     		bx   r3						
 105              									
 106 0022 C046C046 		.align 4					
 106      C046C046 
 106      C046C046 
 106      C046
 107 0030 00000000 	pxCurrentTCBConst2: .word pxCurrentTCB	  
 108              	@ 0 "" 2
 151:Source\FreeRTOS\10.0.1\Source\portable\GCC\CM0/port.c **** 	"	.syntax unified				\n"
 152:Source\FreeRTOS\10.0.1\Source\portable\GCC\CM0/port.c **** 	"	ldr  r2, pxCurrentTCBConst2	\n" /* Obtain location of pxCurrentTCB. */
 153:Source\FreeRTOS\10.0.1\Source\portable\GCC\CM0/port.c **** 	"	ldr  r3, [r2]				\n"
 154:Source\FreeRTOS\10.0.1\Source\portable\GCC\CM0/port.c **** 	"	ldr  r0, [r3]				\n" /* The first item in pxCurrentTCB is the task top of stack. */
 155:Source\FreeRTOS\10.0.1\Source\portable\GCC\CM0/port.c **** 	"	adds r0, #32					\n" /* Discard everything up to r0. */
 156:Source\FreeRTOS\10.0.1\Source\portable\GCC\CM0/port.c **** 	"	msr  psp, r0					\n" /* This is now the new top of stack to use in the task. */
 157:Source\FreeRTOS\10.0.1\Source\portable\GCC\CM0/port.c **** 	"	movs r0, #2					\n" /* Switch to the psp stack. */
 158:Source\FreeRTOS\10.0.1\Source\portable\GCC\CM0/port.c **** 	"	msr  CONTROL, r0				\n"
 159:Source\FreeRTOS\10.0.1\Source\portable\GCC\CM0/port.c **** 	"	isb							\n"
 160:Source\FreeRTOS\10.0.1\Source\portable\GCC\CM0/port.c **** 	"	pop  {r0-r5}					\n" /* Pop the registers that are saved automatically. */
 161:Source\FreeRTOS\10.0.1\Source\portable\GCC\CM0/port.c **** 	"	mov  lr, r5					\n" /* lr is now in r5. */
 162:Source\FreeRTOS\10.0.1\Source\portable\GCC\CM0/port.c **** 	"	pop  {r3}					\n" /* Return address is now in r3. */
 163:Source\FreeRTOS\10.0.1\Source\portable\GCC\CM0/port.c **** 	"	pop  {r2}					\n" /* Pop and discard XPSR. */
 164:Source\FreeRTOS\10.0.1\Source\portable\GCC\CM0/port.c **** 	"	cpsie i						\n" /* The first task has its context and interrupts can be enabled. */
 165:Source\FreeRTOS\10.0.1\Source\portable\GCC\CM0/port.c **** 	"	bx   r3						\n" /* Finally, jump to the user defined task code. */
 166:Source\FreeRTOS\10.0.1\Source\portable\GCC\CM0/port.c **** 	"								\n"
 167:Source\FreeRTOS\10.0.1\Source\portable\GCC\CM0/port.c **** 	"	.align 4					\n"
 168:Source\FreeRTOS\10.0.1\Source\portable\GCC\CM0/port.c **** 	"pxCurrentTCBConst2: .word pxCurrentTCB	  "
 169:Source\FreeRTOS\10.0.1\Source\portable\GCC\CM0/port.c **** 				  );
 170:Source\FreeRTOS\10.0.1\Source\portable\GCC\CM0/port.c **** }
 109              		.loc 1 170 0
 110              		.thumb
 111              		.syntax unified
 112              		.cfi_endproc
ARM GAS  C:\Users\Phuong\AppData\Local\Temp\ccUsk3Ea.s 			page 6


 113              	.LFE39:
 114              		.size	vPortStartFirstTask, .-vPortStartFirstTask
 115              		.global	__aeabi_uidiv
 116              		.section	.text.prvSetupTimerInterrupt,"ax",%progbits
 117              		.align	2
 118              		.code	16
 119              		.thumb_func
 120              		.type	prvSetupTimerInterrupt, %function
 121              	prvSetupTimerInterrupt:
 122              	.LFB49:
 171:Source\FreeRTOS\10.0.1\Source\portable\GCC\CM0/port.c **** /*-----------------------------------------------------------*/
 172:Source\FreeRTOS\10.0.1\Source\portable\GCC\CM0/port.c **** 
 173:Source\FreeRTOS\10.0.1\Source\portable\GCC\CM0/port.c **** /*
 174:Source\FreeRTOS\10.0.1\Source\portable\GCC\CM0/port.c ****  * See header file for description.
 175:Source\FreeRTOS\10.0.1\Source\portable\GCC\CM0/port.c ****  */
 176:Source\FreeRTOS\10.0.1\Source\portable\GCC\CM0/port.c **** BaseType_t xPortStartScheduler( void )
 177:Source\FreeRTOS\10.0.1\Source\portable\GCC\CM0/port.c **** {
 178:Source\FreeRTOS\10.0.1\Source\portable\GCC\CM0/port.c **** 	/* Make PendSV, CallSV and SysTick the same priroity as the kernel. */
 179:Source\FreeRTOS\10.0.1\Source\portable\GCC\CM0/port.c **** 	*(portNVIC_SYSPRI2) |= portNVIC_PENDSV_PRI;
 180:Source\FreeRTOS\10.0.1\Source\portable\GCC\CM0/port.c **** 	*(portNVIC_SYSPRI2) |= portNVIC_SYSTICK_PRI;
 181:Source\FreeRTOS\10.0.1\Source\portable\GCC\CM0/port.c **** 
 182:Source\FreeRTOS\10.0.1\Source\portable\GCC\CM0/port.c **** 	/* Start the timer that generates the tick ISR.  Interrupts are disabled
 183:Source\FreeRTOS\10.0.1\Source\portable\GCC\CM0/port.c **** 	here already. */
 184:Source\FreeRTOS\10.0.1\Source\portable\GCC\CM0/port.c **** 	prvSetupTimerInterrupt();
 185:Source\FreeRTOS\10.0.1\Source\portable\GCC\CM0/port.c **** 
 186:Source\FreeRTOS\10.0.1\Source\portable\GCC\CM0/port.c **** 	/* Initialise the critical nesting count ready for the first task. */
 187:Source\FreeRTOS\10.0.1\Source\portable\GCC\CM0/port.c **** 	uxCriticalNesting = 0;
 188:Source\FreeRTOS\10.0.1\Source\portable\GCC\CM0/port.c **** 
 189:Source\FreeRTOS\10.0.1\Source\portable\GCC\CM0/port.c **** 	/* Start the first task. */
 190:Source\FreeRTOS\10.0.1\Source\portable\GCC\CM0/port.c **** 	vPortStartFirstTask();
 191:Source\FreeRTOS\10.0.1\Source\portable\GCC\CM0/port.c **** 
 192:Source\FreeRTOS\10.0.1\Source\portable\GCC\CM0/port.c **** 	/* Should never get here as the tasks will now be executing!  Call the task
 193:Source\FreeRTOS\10.0.1\Source\portable\GCC\CM0/port.c **** 	exit error function to prevent compiler warnings about a static function
 194:Source\FreeRTOS\10.0.1\Source\portable\GCC\CM0/port.c **** 	not being called in the case that the application writer overrides this
 195:Source\FreeRTOS\10.0.1\Source\portable\GCC\CM0/port.c **** 	functionality by defining configTASK_RETURN_ADDRESS.  Call
 196:Source\FreeRTOS\10.0.1\Source\portable\GCC\CM0/port.c **** 	vTaskSwitchContext() so link time optimisation does not remove the
 197:Source\FreeRTOS\10.0.1\Source\portable\GCC\CM0/port.c **** 	symbol. */
 198:Source\FreeRTOS\10.0.1\Source\portable\GCC\CM0/port.c **** 	vTaskSwitchContext();
 199:Source\FreeRTOS\10.0.1\Source\portable\GCC\CM0/port.c **** 	prvTaskExitError();
 200:Source\FreeRTOS\10.0.1\Source\portable\GCC\CM0/port.c **** 
 201:Source\FreeRTOS\10.0.1\Source\portable\GCC\CM0/port.c **** 	/* Should not get here! */
 202:Source\FreeRTOS\10.0.1\Source\portable\GCC\CM0/port.c **** 	return 0;
 203:Source\FreeRTOS\10.0.1\Source\portable\GCC\CM0/port.c **** }
 204:Source\FreeRTOS\10.0.1\Source\portable\GCC\CM0/port.c **** /*-----------------------------------------------------------*/
 205:Source\FreeRTOS\10.0.1\Source\portable\GCC\CM0/port.c **** 
 206:Source\FreeRTOS\10.0.1\Source\portable\GCC\CM0/port.c **** void vPortEndScheduler( void )
 207:Source\FreeRTOS\10.0.1\Source\portable\GCC\CM0/port.c **** {
 208:Source\FreeRTOS\10.0.1\Source\portable\GCC\CM0/port.c **** 	/* Not implemented in ports where there is nothing to return to.
 209:Source\FreeRTOS\10.0.1\Source\portable\GCC\CM0/port.c **** 	Artificially force an assert. */
 210:Source\FreeRTOS\10.0.1\Source\portable\GCC\CM0/port.c **** 	configASSERT( uxCriticalNesting == 1000UL );
 211:Source\FreeRTOS\10.0.1\Source\portable\GCC\CM0/port.c **** }
 212:Source\FreeRTOS\10.0.1\Source\portable\GCC\CM0/port.c **** /*-----------------------------------------------------------*/
 213:Source\FreeRTOS\10.0.1\Source\portable\GCC\CM0/port.c **** 
 214:Source\FreeRTOS\10.0.1\Source\portable\GCC\CM0/port.c **** void vPortYield( void )
 215:Source\FreeRTOS\10.0.1\Source\portable\GCC\CM0/port.c **** {
 216:Source\FreeRTOS\10.0.1\Source\portable\GCC\CM0/port.c **** 	/* Set a PendSV to request a context switch. */
 217:Source\FreeRTOS\10.0.1\Source\portable\GCC\CM0/port.c **** 	*( portNVIC_INT_CTRL ) = portNVIC_PENDSVSET;
ARM GAS  C:\Users\Phuong\AppData\Local\Temp\ccUsk3Ea.s 			page 7


 218:Source\FreeRTOS\10.0.1\Source\portable\GCC\CM0/port.c **** 
 219:Source\FreeRTOS\10.0.1\Source\portable\GCC\CM0/port.c **** 	/* Barriers are normally not required but do ensure the code is completely
 220:Source\FreeRTOS\10.0.1\Source\portable\GCC\CM0/port.c **** 	within the specified behaviour for the architecture. */
 221:Source\FreeRTOS\10.0.1\Source\portable\GCC\CM0/port.c **** 	__asm volatile( "dsb" ::: "memory" );
 222:Source\FreeRTOS\10.0.1\Source\portable\GCC\CM0/port.c **** 	__asm volatile( "isb" );
 223:Source\FreeRTOS\10.0.1\Source\portable\GCC\CM0/port.c **** }
 224:Source\FreeRTOS\10.0.1\Source\portable\GCC\CM0/port.c **** /*-----------------------------------------------------------*/
 225:Source\FreeRTOS\10.0.1\Source\portable\GCC\CM0/port.c **** 
 226:Source\FreeRTOS\10.0.1\Source\portable\GCC\CM0/port.c **** void vPortEnterCritical( void )
 227:Source\FreeRTOS\10.0.1\Source\portable\GCC\CM0/port.c **** {
 228:Source\FreeRTOS\10.0.1\Source\portable\GCC\CM0/port.c ****     portDISABLE_INTERRUPTS();
 229:Source\FreeRTOS\10.0.1\Source\portable\GCC\CM0/port.c ****     uxCriticalNesting++;
 230:Source\FreeRTOS\10.0.1\Source\portable\GCC\CM0/port.c **** 	__asm volatile( "dsb" ::: "memory" );
 231:Source\FreeRTOS\10.0.1\Source\portable\GCC\CM0/port.c **** 	__asm volatile( "isb" );
 232:Source\FreeRTOS\10.0.1\Source\portable\GCC\CM0/port.c **** }
 233:Source\FreeRTOS\10.0.1\Source\portable\GCC\CM0/port.c **** /*-----------------------------------------------------------*/
 234:Source\FreeRTOS\10.0.1\Source\portable\GCC\CM0/port.c **** 
 235:Source\FreeRTOS\10.0.1\Source\portable\GCC\CM0/port.c **** void vPortExitCritical( void )
 236:Source\FreeRTOS\10.0.1\Source\portable\GCC\CM0/port.c **** {
 237:Source\FreeRTOS\10.0.1\Source\portable\GCC\CM0/port.c **** 	configASSERT( uxCriticalNesting );
 238:Source\FreeRTOS\10.0.1\Source\portable\GCC\CM0/port.c ****     uxCriticalNesting--;
 239:Source\FreeRTOS\10.0.1\Source\portable\GCC\CM0/port.c ****     if( uxCriticalNesting == 0 )
 240:Source\FreeRTOS\10.0.1\Source\portable\GCC\CM0/port.c ****     {
 241:Source\FreeRTOS\10.0.1\Source\portable\GCC\CM0/port.c ****         portENABLE_INTERRUPTS();
 242:Source\FreeRTOS\10.0.1\Source\portable\GCC\CM0/port.c ****     }
 243:Source\FreeRTOS\10.0.1\Source\portable\GCC\CM0/port.c **** }
 244:Source\FreeRTOS\10.0.1\Source\portable\GCC\CM0/port.c **** /*-----------------------------------------------------------*/
 245:Source\FreeRTOS\10.0.1\Source\portable\GCC\CM0/port.c **** 
 246:Source\FreeRTOS\10.0.1\Source\portable\GCC\CM0/port.c **** uint32_t ulSetInterruptMaskFromISR( void )
 247:Source\FreeRTOS\10.0.1\Source\portable\GCC\CM0/port.c **** {
 248:Source\FreeRTOS\10.0.1\Source\portable\GCC\CM0/port.c **** 	__asm volatile(
 249:Source\FreeRTOS\10.0.1\Source\portable\GCC\CM0/port.c **** 					" mrs r0, PRIMASK	\n"
 250:Source\FreeRTOS\10.0.1\Source\portable\GCC\CM0/port.c **** 					" cpsid i			\n"
 251:Source\FreeRTOS\10.0.1\Source\portable\GCC\CM0/port.c **** 					" bx lr				  "
 252:Source\FreeRTOS\10.0.1\Source\portable\GCC\CM0/port.c **** 					::: "memory"
 253:Source\FreeRTOS\10.0.1\Source\portable\GCC\CM0/port.c **** 				  );
 254:Source\FreeRTOS\10.0.1\Source\portable\GCC\CM0/port.c **** 
 255:Source\FreeRTOS\10.0.1\Source\portable\GCC\CM0/port.c **** #if !defined (__ARMCC_VERSION) && (__ARMCC_VERSION >= 6010050)
 256:Source\FreeRTOS\10.0.1\Source\portable\GCC\CM0/port.c **** 	/* To avoid compiler warnings.  The return statement will nevere be reached,
 257:Source\FreeRTOS\10.0.1\Source\portable\GCC\CM0/port.c **** 	but some compilers warn if it is not included, while others won't compile if
 258:Source\FreeRTOS\10.0.1\Source\portable\GCC\CM0/port.c **** 	it is. */
 259:Source\FreeRTOS\10.0.1\Source\portable\GCC\CM0/port.c **** 	return 0;
 260:Source\FreeRTOS\10.0.1\Source\portable\GCC\CM0/port.c **** #endif
 261:Source\FreeRTOS\10.0.1\Source\portable\GCC\CM0/port.c **** }
 262:Source\FreeRTOS\10.0.1\Source\portable\GCC\CM0/port.c **** /*-----------------------------------------------------------*/
 263:Source\FreeRTOS\10.0.1\Source\portable\GCC\CM0/port.c **** 
 264:Source\FreeRTOS\10.0.1\Source\portable\GCC\CM0/port.c **** void vClearInterruptMaskFromISR( __attribute__( ( unused ) ) uint32_t ulMask )
 265:Source\FreeRTOS\10.0.1\Source\portable\GCC\CM0/port.c **** {
 266:Source\FreeRTOS\10.0.1\Source\portable\GCC\CM0/port.c **** 	__asm volatile(
 267:Source\FreeRTOS\10.0.1\Source\portable\GCC\CM0/port.c **** 					" msr PRIMASK, r0	\n"
 268:Source\FreeRTOS\10.0.1\Source\portable\GCC\CM0/port.c **** 					" bx lr				  "
 269:Source\FreeRTOS\10.0.1\Source\portable\GCC\CM0/port.c **** 					::: "memory"
 270:Source\FreeRTOS\10.0.1\Source\portable\GCC\CM0/port.c **** 				  );
 271:Source\FreeRTOS\10.0.1\Source\portable\GCC\CM0/port.c **** 
 272:Source\FreeRTOS\10.0.1\Source\portable\GCC\CM0/port.c **** #if !defined (__ARMCC_VERSION) && (__ARMCC_VERSION >= 6010050)
 273:Source\FreeRTOS\10.0.1\Source\portable\GCC\CM0/port.c **** 	/* Just to avoid compiler warning.  ulMask is used from the asm code but
 274:Source\FreeRTOS\10.0.1\Source\portable\GCC\CM0/port.c **** 	the compiler can't see that.  Some compilers generate warnings without the
ARM GAS  C:\Users\Phuong\AppData\Local\Temp\ccUsk3Ea.s 			page 8


 275:Source\FreeRTOS\10.0.1\Source\portable\GCC\CM0/port.c **** 	following line, while others generate warnings if the line is included. */
 276:Source\FreeRTOS\10.0.1\Source\portable\GCC\CM0/port.c **** 	( void ) ulMask;
 277:Source\FreeRTOS\10.0.1\Source\portable\GCC\CM0/port.c **** #endif
 278:Source\FreeRTOS\10.0.1\Source\portable\GCC\CM0/port.c **** }
 279:Source\FreeRTOS\10.0.1\Source\portable\GCC\CM0/port.c **** /*-----------------------------------------------------------*/
 280:Source\FreeRTOS\10.0.1\Source\portable\GCC\CM0/port.c **** 
 281:Source\FreeRTOS\10.0.1\Source\portable\GCC\CM0/port.c **** void xPortPendSVHandler( void )
 282:Source\FreeRTOS\10.0.1\Source\portable\GCC\CM0/port.c **** {
 283:Source\FreeRTOS\10.0.1\Source\portable\GCC\CM0/port.c **** 	/* This is a naked function. */
 284:Source\FreeRTOS\10.0.1\Source\portable\GCC\CM0/port.c **** 
 285:Source\FreeRTOS\10.0.1\Source\portable\GCC\CM0/port.c **** 	__asm volatile
 286:Source\FreeRTOS\10.0.1\Source\portable\GCC\CM0/port.c **** 	(
 287:Source\FreeRTOS\10.0.1\Source\portable\GCC\CM0/port.c **** 	"	.syntax unified						\n"
 288:Source\FreeRTOS\10.0.1\Source\portable\GCC\CM0/port.c **** 	"	mrs r0, psp							\n"
 289:Source\FreeRTOS\10.0.1\Source\portable\GCC\CM0/port.c **** 	"										\n"
 290:Source\FreeRTOS\10.0.1\Source\portable\GCC\CM0/port.c **** 	"	ldr	r3, pxCurrentTCBConst			\n" /* Get the location of the current TCB. */
 291:Source\FreeRTOS\10.0.1\Source\portable\GCC\CM0/port.c **** 	"	ldr	r2, [r3]						\n"
 292:Source\FreeRTOS\10.0.1\Source\portable\GCC\CM0/port.c **** 	"										\n"
 293:Source\FreeRTOS\10.0.1\Source\portable\GCC\CM0/port.c **** 	"	subs r0, r0, #32					\n" /* Make space for the remaining low registers. */
 294:Source\FreeRTOS\10.0.1\Source\portable\GCC\CM0/port.c **** 	"	str r0, [r2]						\n" /* Save the new top of stack. */
 295:Source\FreeRTOS\10.0.1\Source\portable\GCC\CM0/port.c **** 	"	stmia r0!, {r4-r7}					\n" /* Store the low registers that are not saved automatically. */
 296:Source\FreeRTOS\10.0.1\Source\portable\GCC\CM0/port.c **** 	" 	mov r4, r8							\n" /* Store the high registers. */
 297:Source\FreeRTOS\10.0.1\Source\portable\GCC\CM0/port.c **** 	" 	mov r5, r9							\n"
 298:Source\FreeRTOS\10.0.1\Source\portable\GCC\CM0/port.c **** 	" 	mov r6, r10							\n"
 299:Source\FreeRTOS\10.0.1\Source\portable\GCC\CM0/port.c **** 	" 	mov r7, r11							\n"
 300:Source\FreeRTOS\10.0.1\Source\portable\GCC\CM0/port.c **** 	" 	stmia r0!, {r4-r7}					\n"
 301:Source\FreeRTOS\10.0.1\Source\portable\GCC\CM0/port.c **** 	"										\n"
 302:Source\FreeRTOS\10.0.1\Source\portable\GCC\CM0/port.c **** 	"	push {r3, r14}						\n"
 303:Source\FreeRTOS\10.0.1\Source\portable\GCC\CM0/port.c **** 	"	cpsid i								\n"
 304:Source\FreeRTOS\10.0.1\Source\portable\GCC\CM0/port.c **** 	"	bl vTaskSwitchContext				\n"
 305:Source\FreeRTOS\10.0.1\Source\portable\GCC\CM0/port.c **** 	"	cpsie i								\n"
 306:Source\FreeRTOS\10.0.1\Source\portable\GCC\CM0/port.c **** 	"	pop {r2, r3}						\n" /* lr goes in r3. r2 now holds tcb pointer. */
 307:Source\FreeRTOS\10.0.1\Source\portable\GCC\CM0/port.c **** 	"										\n"
 308:Source\FreeRTOS\10.0.1\Source\portable\GCC\CM0/port.c **** 	"	ldr r1, [r2]						\n"
 309:Source\FreeRTOS\10.0.1\Source\portable\GCC\CM0/port.c **** 	"	ldr r0, [r1]						\n" /* The first item in pxCurrentTCB is the task top of stack. */
 310:Source\FreeRTOS\10.0.1\Source\portable\GCC\CM0/port.c **** 	"	adds r0, r0, #16					\n" /* Move to the high registers. */
 311:Source\FreeRTOS\10.0.1\Source\portable\GCC\CM0/port.c **** 	"	ldmia r0!, {r4-r7}					\n" /* Pop the high registers. */
 312:Source\FreeRTOS\10.0.1\Source\portable\GCC\CM0/port.c **** 	" 	mov r8, r4							\n"
 313:Source\FreeRTOS\10.0.1\Source\portable\GCC\CM0/port.c **** 	" 	mov r9, r5							\n"
 314:Source\FreeRTOS\10.0.1\Source\portable\GCC\CM0/port.c **** 	" 	mov r10, r6							\n"
 315:Source\FreeRTOS\10.0.1\Source\portable\GCC\CM0/port.c **** 	" 	mov r11, r7							\n"
 316:Source\FreeRTOS\10.0.1\Source\portable\GCC\CM0/port.c **** 	"										\n"
 317:Source\FreeRTOS\10.0.1\Source\portable\GCC\CM0/port.c **** 	"	msr psp, r0							\n" /* Remember the new top of stack for the task. */
 318:Source\FreeRTOS\10.0.1\Source\portable\GCC\CM0/port.c **** 	"										\n"
 319:Source\FreeRTOS\10.0.1\Source\portable\GCC\CM0/port.c **** 	"	subs r0, r0, #32					\n" /* Go back for the low registers that are not automatically restored. *
 320:Source\FreeRTOS\10.0.1\Source\portable\GCC\CM0/port.c **** 	" 	ldmia r0!, {r4-r7}					\n" /* Pop low registers.  */
 321:Source\FreeRTOS\10.0.1\Source\portable\GCC\CM0/port.c **** 	"										\n"
 322:Source\FreeRTOS\10.0.1\Source\portable\GCC\CM0/port.c **** 	"	bx r3								\n"
 323:Source\FreeRTOS\10.0.1\Source\portable\GCC\CM0/port.c **** 	"										\n"
 324:Source\FreeRTOS\10.0.1\Source\portable\GCC\CM0/port.c **** 	"	.align 4							\n"
 325:Source\FreeRTOS\10.0.1\Source\portable\GCC\CM0/port.c **** 	"pxCurrentTCBConst: .word pxCurrentTCB	  "
 326:Source\FreeRTOS\10.0.1\Source\portable\GCC\CM0/port.c **** 	);
 327:Source\FreeRTOS\10.0.1\Source\portable\GCC\CM0/port.c **** }
 328:Source\FreeRTOS\10.0.1\Source\portable\GCC\CM0/port.c **** /*-----------------------------------------------------------*/
 329:Source\FreeRTOS\10.0.1\Source\portable\GCC\CM0/port.c **** 
 330:Source\FreeRTOS\10.0.1\Source\portable\GCC\CM0/port.c **** void xPortSysTickHandler( void )
 331:Source\FreeRTOS\10.0.1\Source\portable\GCC\CM0/port.c **** {
ARM GAS  C:\Users\Phuong\AppData\Local\Temp\ccUsk3Ea.s 			page 9


 332:Source\FreeRTOS\10.0.1\Source\portable\GCC\CM0/port.c **** uint32_t ulPreviousMask;
 333:Source\FreeRTOS\10.0.1\Source\portable\GCC\CM0/port.c **** 
 334:Source\FreeRTOS\10.0.1\Source\portable\GCC\CM0/port.c **** 	ulPreviousMask = portSET_INTERRUPT_MASK_FROM_ISR();
 335:Source\FreeRTOS\10.0.1\Source\portable\GCC\CM0/port.c **** 	{
 336:Source\FreeRTOS\10.0.1\Source\portable\GCC\CM0/port.c **** 		/* Increment the RTOS tick. */
 337:Source\FreeRTOS\10.0.1\Source\portable\GCC\CM0/port.c **** 		if( xTaskIncrementTick() != pdFALSE )
 338:Source\FreeRTOS\10.0.1\Source\portable\GCC\CM0/port.c **** 		{
 339:Source\FreeRTOS\10.0.1\Source\portable\GCC\CM0/port.c **** 			/* Pend a context switch. */
 340:Source\FreeRTOS\10.0.1\Source\portable\GCC\CM0/port.c **** 			*(portNVIC_INT_CTRL) = portNVIC_PENDSVSET;
 341:Source\FreeRTOS\10.0.1\Source\portable\GCC\CM0/port.c **** 		}
 342:Source\FreeRTOS\10.0.1\Source\portable\GCC\CM0/port.c **** 	}
 343:Source\FreeRTOS\10.0.1\Source\portable\GCC\CM0/port.c **** 	portCLEAR_INTERRUPT_MASK_FROM_ISR( ulPreviousMask );
 344:Source\FreeRTOS\10.0.1\Source\portable\GCC\CM0/port.c **** }
 345:Source\FreeRTOS\10.0.1\Source\portable\GCC\CM0/port.c **** /*-----------------------------------------------------------*/
 346:Source\FreeRTOS\10.0.1\Source\portable\GCC\CM0/port.c **** 
 347:Source\FreeRTOS\10.0.1\Source\portable\GCC\CM0/port.c **** /*
 348:Source\FreeRTOS\10.0.1\Source\portable\GCC\CM0/port.c ****  * Setup the systick timer to generate the tick interrupts at the required
 349:Source\FreeRTOS\10.0.1\Source\portable\GCC\CM0/port.c ****  * frequency.
 350:Source\FreeRTOS\10.0.1\Source\portable\GCC\CM0/port.c ****  */
 351:Source\FreeRTOS\10.0.1\Source\portable\GCC\CM0/port.c **** void prvSetupTimerInterrupt( void )
 352:Source\FreeRTOS\10.0.1\Source\portable\GCC\CM0/port.c **** {
 123              		.loc 1 352 0
 124              		.cfi_startproc
 125              		@ args = 0, pretend = 0, frame = 0
 126              		@ frame_needed = 0, uses_anonymous_args = 0
 127 0000 10B5     		push	{r4, lr}
 128              		.cfi_def_cfa_offset 8
 129              		.cfi_offset 4, -8
 130              		.cfi_offset 14, -4
 353:Source\FreeRTOS\10.0.1\Source\portable\GCC\CM0/port.c **** 	/* Stop and reset the SysTick. */
 354:Source\FreeRTOS\10.0.1\Source\portable\GCC\CM0/port.c **** 	*(portNVIC_SYSTICK_CTRL) = 0UL;
 131              		.loc 1 354 0
 132 0002 084C     		ldr	r4, .L9
 133 0004 0023     		movs	r3, #0
 134 0006 2360     		str	r3, [r4]
 355:Source\FreeRTOS\10.0.1\Source\portable\GCC\CM0/port.c **** 	*(portNVIC_SYSTICK_CURRENT_VALUE) = 0UL;
 135              		.loc 1 355 0
 136 0008 074A     		ldr	r2, .L9+4
 137 000a 1360     		str	r3, [r2]
 356:Source\FreeRTOS\10.0.1\Source\portable\GCC\CM0/port.c **** 
 357:Source\FreeRTOS\10.0.1\Source\portable\GCC\CM0/port.c **** 	/* Configure SysTick to interrupt at the requested rate. */
 358:Source\FreeRTOS\10.0.1\Source\portable\GCC\CM0/port.c **** 	*(portNVIC_SYSTICK_LOAD) = ( configCPU_CLOCK_HZ / configTICK_RATE_HZ ) - 1UL;
 138              		.loc 1 358 0
 139 000c 074B     		ldr	r3, .L9+8
 140 000e 1868     		ldr	r0, [r3]
 141 0010 FA21     		movs	r1, #250
 142 0012 8900     		lsls	r1, r1, #2
 143 0014 FFF7FEFF 		bl	__aeabi_uidiv
 144              	.LVL0:
 145 0018 0138     		subs	r0, r0, #1
 146 001a 054B     		ldr	r3, .L9+12
 147 001c 1860     		str	r0, [r3]
 359:Source\FreeRTOS\10.0.1\Source\portable\GCC\CM0/port.c **** 	*(portNVIC_SYSTICK_CTRL) = portNVIC_SYSTICK_CLK | portNVIC_SYSTICK_INT | portNVIC_SYSTICK_ENABLE;
 148              		.loc 1 359 0
 149 001e 0723     		movs	r3, #7
 150 0020 2360     		str	r3, [r4]
 360:Source\FreeRTOS\10.0.1\Source\portable\GCC\CM0/port.c **** }
ARM GAS  C:\Users\Phuong\AppData\Local\Temp\ccUsk3Ea.s 			page 10


 151              		.loc 1 360 0
 152              		@ sp needed
 153 0022 10BD     		pop	{r4, pc}
 154              	.L10:
 155              		.align	2
 156              	.L9:
 157 0024 10E000E0 		.word	-536813552
 158 0028 18E000E0 		.word	-536813544
 159 002c 00000000 		.word	SystemCoreClock
 160 0030 14E000E0 		.word	-536813548
 161              		.cfi_endproc
 162              	.LFE49:
 163              		.size	prvSetupTimerInterrupt, .-prvSetupTimerInterrupt
 164              		.section	.text.pxPortInitialiseStack,"ax",%progbits
 165              		.align	2
 166              		.global	pxPortInitialiseStack
 167              		.code	16
 168              		.thumb_func
 169              		.type	pxPortInitialiseStack, %function
 170              	pxPortInitialiseStack:
 171              	.LFB36:
  96:Source\FreeRTOS\10.0.1\Source\portable\GCC\CM0/port.c **** 	/* Simulate the stack frame as it would be created by a context switch
 172              		.loc 1 96 0
 173              		.cfi_startproc
 174              		@ args = 0, pretend = 0, frame = 0
 175              		@ frame_needed = 0, uses_anonymous_args = 0
 176              	.LVL1:
 177 0000 10B5     		push	{r4, lr}
 178              		.cfi_def_cfa_offset 8
 179              		.cfi_offset 4, -8
 180              		.cfi_offset 14, -4
 181              	.LVL2:
 100:Source\FreeRTOS\10.0.1\Source\portable\GCC\CM0/port.c **** 	pxTopOfStack--;
 182              		.loc 1 100 0
 183 0002 031F     		subs	r3, r0, #4
 184              	.LVL3:
 185 0004 8024     		movs	r4, #128
 186 0006 6404     		lsls	r4, r4, #17
 187 0008 1C60     		str	r4, [r3]
 188              	.LVL4:
 102:Source\FreeRTOS\10.0.1\Source\portable\GCC\CM0/port.c **** 	pxTopOfStack--;
 189              		.loc 1 102 0
 190 000a 043B     		subs	r3, r3, #4
 191 000c 1960     		str	r1, [r3]
 192              	.LVL5:
 104:Source\FreeRTOS\10.0.1\Source\portable\GCC\CM0/port.c **** 	pxTopOfStack -= 5;	/* R12, R3, R2 and R1. */
 193              		.loc 1 104 0
 194 000e 043B     		subs	r3, r3, #4
 195 0010 0249     		ldr	r1, .L12
 196              	.LVL6:
 197 0012 1960     		str	r1, [r3]
 198              	.LVL7:
 106:Source\FreeRTOS\10.0.1\Source\portable\GCC\CM0/port.c **** 	pxTopOfStack -= 8; /* R11..R4. */
 199              		.loc 1 106 0
 200 0014 143B     		subs	r3, r3, #20
 201              	.LVL8:
 202 0016 1A60     		str	r2, [r3]
ARM GAS  C:\Users\Phuong\AppData\Local\Temp\ccUsk3Ea.s 			page 11


 107:Source\FreeRTOS\10.0.1\Source\portable\GCC\CM0/port.c **** 
 203              		.loc 1 107 0
 204 0018 4038     		subs	r0, r0, #64
 205              	.LVL9:
 110:Source\FreeRTOS\10.0.1\Source\portable\GCC\CM0/port.c **** /*-----------------------------------------------------------*/
 206              		.loc 1 110 0
 207              		@ sp needed
 208 001a 10BD     		pop	{r4, pc}
 209              	.L13:
 210              		.align	2
 211              	.L12:
 212 001c 00000000 		.word	prvTaskExitError
 213              		.cfi_endproc
 214              	.LFE36:
 215              		.size	pxPortInitialiseStack, .-pxPortInitialiseStack
 216              		.section	.text.SVC_Handler,"ax",%progbits
 217              		.align	2
 218              		.global	SVC_Handler
 219              		.code	16
 220              		.thumb_func
 221              		.type	SVC_Handler, %function
 222              	SVC_Handler:
 223              	.LFB38:
 139:Source\FreeRTOS\10.0.1\Source\portable\GCC\CM0/port.c **** 	/* This function is no longer used, but retained for backward
 224              		.loc 1 139 0
 225              		.cfi_startproc
 226              		@ args = 0, pretend = 0, frame = 0
 227              		@ frame_needed = 0, uses_anonymous_args = 0
 228              		@ link register save eliminated.
 142:Source\FreeRTOS\10.0.1\Source\portable\GCC\CM0/port.c **** /*-----------------------------------------------------------*/
 229              		.loc 1 142 0
 230              		@ sp needed
 231 0000 7047     		bx	lr
 232              		.cfi_endproc
 233              	.LFE38:
 234              		.size	SVC_Handler, .-SVC_Handler
 235 0002 C046     		.section	.text.xPortStartScheduler,"ax",%progbits
 236              		.align	2
 237              		.global	xPortStartScheduler
 238              		.code	16
 239              		.thumb_func
 240              		.type	xPortStartScheduler, %function
 241              	xPortStartScheduler:
 242              	.LFB40:
 177:Source\FreeRTOS\10.0.1\Source\portable\GCC\CM0/port.c **** 	/* Make PendSV, CallSV and SysTick the same priroity as the kernel. */
 243              		.loc 1 177 0
 244              		.cfi_startproc
 245              		@ args = 0, pretend = 0, frame = 0
 246              		@ frame_needed = 0, uses_anonymous_args = 0
 247 0000 10B5     		push	{r4, lr}
 248              		.cfi_def_cfa_offset 8
 249              		.cfi_offset 4, -8
 250              		.cfi_offset 14, -4
 179:Source\FreeRTOS\10.0.1\Source\portable\GCC\CM0/port.c **** 	*(portNVIC_SYSPRI2) |= portNVIC_SYSTICK_PRI;
 251              		.loc 1 179 0
 252 0002 0C4B     		ldr	r3, .L16
 253 0004 1A68     		ldr	r2, [r3]
ARM GAS  C:\Users\Phuong\AppData\Local\Temp\ccUsk3Ea.s 			page 12


 254 0006 FF21     		movs	r1, #255
 255 0008 0904     		lsls	r1, r1, #16
 256 000a 0A43     		orrs	r2, r1
 257 000c 1A60     		str	r2, [r3]
 180:Source\FreeRTOS\10.0.1\Source\portable\GCC\CM0/port.c **** 
 258              		.loc 1 180 0
 259 000e 1A68     		ldr	r2, [r3]
 260 0010 FF21     		movs	r1, #255
 261 0012 0906     		lsls	r1, r1, #24
 262 0014 0A43     		orrs	r2, r1
 263 0016 1A60     		str	r2, [r3]
 184:Source\FreeRTOS\10.0.1\Source\portable\GCC\CM0/port.c **** 
 264              		.loc 1 184 0
 265 0018 FFF7FEFF 		bl	prvSetupTimerInterrupt
 266              	.LVL10:
 187:Source\FreeRTOS\10.0.1\Source\portable\GCC\CM0/port.c **** 
 267              		.loc 1 187 0
 268 001c 0022     		movs	r2, #0
 269 001e 064B     		ldr	r3, .L16+4
 270 0020 1A60     		str	r2, [r3]
 190:Source\FreeRTOS\10.0.1\Source\portable\GCC\CM0/port.c **** 
 271              		.loc 1 190 0
 272 0022 FFF7FEFF 		bl	vPortStartFirstTask
 273              	.LVL11:
 198:Source\FreeRTOS\10.0.1\Source\portable\GCC\CM0/port.c **** 	prvTaskExitError();
 274              		.loc 1 198 0
 275 0026 FFF7FEFF 		bl	vTaskSwitchContext
 276              	.LVL12:
 199:Source\FreeRTOS\10.0.1\Source\portable\GCC\CM0/port.c **** 
 277              		.loc 1 199 0
 278 002a FFF7FEFF 		bl	prvTaskExitError
 279              	.LVL13:
 203:Source\FreeRTOS\10.0.1\Source\portable\GCC\CM0/port.c **** /*-----------------------------------------------------------*/
 280              		.loc 1 203 0
 281 002e 0020     		movs	r0, #0
 282              		@ sp needed
 283 0030 10BD     		pop	{r4, pc}
 284              	.L17:
 285 0032 C046     		.align	2
 286              	.L16:
 287 0034 20ED00E0 		.word	-536810208
 288 0038 00000000 		.word	.LANCHOR0
 289              		.cfi_endproc
 290              	.LFE40:
 291              		.size	xPortStartScheduler, .-xPortStartScheduler
 292              		.section	.text.vPortEndScheduler,"ax",%progbits
 293              		.align	2
 294              		.global	vPortEndScheduler
 295              		.code	16
 296              		.thumb_func
 297              		.type	vPortEndScheduler, %function
 298              	vPortEndScheduler:
 299              	.LFB41:
 207:Source\FreeRTOS\10.0.1\Source\portable\GCC\CM0/port.c **** 	/* Not implemented in ports where there is nothing to return to.
 300              		.loc 1 207 0
 301              		.cfi_startproc
 302              		@ args = 0, pretend = 0, frame = 0
ARM GAS  C:\Users\Phuong\AppData\Local\Temp\ccUsk3Ea.s 			page 13


 303              		@ frame_needed = 0, uses_anonymous_args = 0
 304              		@ link register save eliminated.
 210:Source\FreeRTOS\10.0.1\Source\portable\GCC\CM0/port.c **** }
 305              		.loc 1 210 0
 306 0000 044B     		ldr	r3, .L21
 307 0002 1A68     		ldr	r2, [r3]
 308 0004 FA23     		movs	r3, #250
 309 0006 9B00     		lsls	r3, r3, #2
 310 0008 9A42     		cmp	r2, r3
 311 000a 01D0     		beq	.L18
 210:Source\FreeRTOS\10.0.1\Source\portable\GCC\CM0/port.c **** }
 312              		.loc 1 210 0 is_stmt 0 discriminator 1
 313              		.syntax divided
 314              	@ 210 "Source\FreeRTOS\10.0.1\Source\portable\GCC\CM0\port.c" 1
 315 000c 72B6     		 cpsid i 
 316              	@ 0 "" 2
 317              		.thumb
 318              		.syntax unified
 319              	.L20:
 320 000e FEE7     		b	.L20
 321              	.L18:
 211:Source\FreeRTOS\10.0.1\Source\portable\GCC\CM0/port.c **** /*-----------------------------------------------------------*/
 322              		.loc 1 211 0 is_stmt 1
 323              		@ sp needed
 324 0010 7047     		bx	lr
 325              	.L22:
 326 0012 C046     		.align	2
 327              	.L21:
 328 0014 00000000 		.word	.LANCHOR0
 329              		.cfi_endproc
 330              	.LFE41:
 331              		.size	vPortEndScheduler, .-vPortEndScheduler
 332              		.section	.text.vPortYield,"ax",%progbits
 333              		.align	2
 334              		.global	vPortYield
 335              		.code	16
 336              		.thumb_func
 337              		.type	vPortYield, %function
 338              	vPortYield:
 339              	.LFB42:
 215:Source\FreeRTOS\10.0.1\Source\portable\GCC\CM0/port.c **** 	/* Set a PendSV to request a context switch. */
 340              		.loc 1 215 0
 341              		.cfi_startproc
 342              		@ args = 0, pretend = 0, frame = 0
 343              		@ frame_needed = 0, uses_anonymous_args = 0
 344              		@ link register save eliminated.
 217:Source\FreeRTOS\10.0.1\Source\portable\GCC\CM0/port.c **** 
 345              		.loc 1 217 0
 346 0000 8022     		movs	r2, #128
 347 0002 5205     		lsls	r2, r2, #21
 348 0004 034B     		ldr	r3, .L24
 349 0006 1A60     		str	r2, [r3]
 221:Source\FreeRTOS\10.0.1\Source\portable\GCC\CM0/port.c **** 	__asm volatile( "isb" );
 350              		.loc 1 221 0
 351              		.syntax divided
 352              	@ 221 "Source\FreeRTOS\10.0.1\Source\portable\GCC\CM0\port.c" 1
 353 0008 BFF34F8F 		dsb
ARM GAS  C:\Users\Phuong\AppData\Local\Temp\ccUsk3Ea.s 			page 14


 354              	@ 0 "" 2
 222:Source\FreeRTOS\10.0.1\Source\portable\GCC\CM0/port.c **** }
 355              		.loc 1 222 0
 356              	@ 222 "Source\FreeRTOS\10.0.1\Source\portable\GCC\CM0\port.c" 1
 357 000c BFF36F8F 		isb
 358              	@ 0 "" 2
 223:Source\FreeRTOS\10.0.1\Source\portable\GCC\CM0/port.c **** /*-----------------------------------------------------------*/
 359              		.loc 1 223 0
 360              		.thumb
 361              		.syntax unified
 362              		@ sp needed
 363 0010 7047     		bx	lr
 364              	.L25:
 365 0012 C046     		.align	2
 366              	.L24:
 367 0014 04ED00E0 		.word	-536810236
 368              		.cfi_endproc
 369              	.LFE42:
 370              		.size	vPortYield, .-vPortYield
 371              		.section	.text.vPortEnterCritical,"ax",%progbits
 372              		.align	2
 373              		.global	vPortEnterCritical
 374              		.code	16
 375              		.thumb_func
 376              		.type	vPortEnterCritical, %function
 377              	vPortEnterCritical:
 378              	.LFB43:
 227:Source\FreeRTOS\10.0.1\Source\portable\GCC\CM0/port.c ****     portDISABLE_INTERRUPTS();
 379              		.loc 1 227 0
 380              		.cfi_startproc
 381              		@ args = 0, pretend = 0, frame = 0
 382              		@ frame_needed = 0, uses_anonymous_args = 0
 383              		@ link register save eliminated.
 228:Source\FreeRTOS\10.0.1\Source\portable\GCC\CM0/port.c ****     uxCriticalNesting++;
 384              		.loc 1 228 0
 385              		.syntax divided
 386              	@ 228 "Source\FreeRTOS\10.0.1\Source\portable\GCC\CM0\port.c" 1
 387 0000 72B6     		 cpsid i 
 388              	@ 0 "" 2
 229:Source\FreeRTOS\10.0.1\Source\portable\GCC\CM0/port.c **** 	__asm volatile( "dsb" ::: "memory" );
 389              		.loc 1 229 0
 390              		.thumb
 391              		.syntax unified
 392 0002 044A     		ldr	r2, .L27
 393 0004 1368     		ldr	r3, [r2]
 394 0006 0133     		adds	r3, r3, #1
 395 0008 1360     		str	r3, [r2]
 230:Source\FreeRTOS\10.0.1\Source\portable\GCC\CM0/port.c **** 	__asm volatile( "isb" );
 396              		.loc 1 230 0
 397              		.syntax divided
 398              	@ 230 "Source\FreeRTOS\10.0.1\Source\portable\GCC\CM0\port.c" 1
 399 000a BFF34F8F 		dsb
 400              	@ 0 "" 2
 231:Source\FreeRTOS\10.0.1\Source\portable\GCC\CM0/port.c **** }
 401              		.loc 1 231 0
 402              	@ 231 "Source\FreeRTOS\10.0.1\Source\portable\GCC\CM0\port.c" 1
 403 000e BFF36F8F 		isb
ARM GAS  C:\Users\Phuong\AppData\Local\Temp\ccUsk3Ea.s 			page 15


 404              	@ 0 "" 2
 232:Source\FreeRTOS\10.0.1\Source\portable\GCC\CM0/port.c **** /*-----------------------------------------------------------*/
 405              		.loc 1 232 0
 406              		.thumb
 407              		.syntax unified
 408              		@ sp needed
 409 0012 7047     		bx	lr
 410              	.L28:
 411              		.align	2
 412              	.L27:
 413 0014 00000000 		.word	.LANCHOR0
 414              		.cfi_endproc
 415              	.LFE43:
 416              		.size	vPortEnterCritical, .-vPortEnterCritical
 417              		.section	.text.vPortExitCritical,"ax",%progbits
 418              		.align	2
 419              		.global	vPortExitCritical
 420              		.code	16
 421              		.thumb_func
 422              		.type	vPortExitCritical, %function
 423              	vPortExitCritical:
 424              	.LFB44:
 236:Source\FreeRTOS\10.0.1\Source\portable\GCC\CM0/port.c **** 	configASSERT( uxCriticalNesting );
 425              		.loc 1 236 0
 426              		.cfi_startproc
 427              		@ args = 0, pretend = 0, frame = 0
 428              		@ frame_needed = 0, uses_anonymous_args = 0
 429              		@ link register save eliminated.
 237:Source\FreeRTOS\10.0.1\Source\portable\GCC\CM0/port.c ****     uxCriticalNesting--;
 430              		.loc 1 237 0
 431 0000 064B     		ldr	r3, .L33
 432 0002 1B68     		ldr	r3, [r3]
 433 0004 002B     		cmp	r3, #0
 434 0006 01D1     		bne	.L30
 237:Source\FreeRTOS\10.0.1\Source\portable\GCC\CM0/port.c ****     uxCriticalNesting--;
 435              		.loc 1 237 0 is_stmt 0 discriminator 1
 436              		.syntax divided
 437              	@ 237 "Source\FreeRTOS\10.0.1\Source\portable\GCC\CM0\port.c" 1
 438 0008 72B6     		 cpsid i 
 439              	@ 0 "" 2
 440              		.thumb
 441              		.syntax unified
 442              	.L31:
 443 000a FEE7     		b	.L31
 444              	.L30:
 238:Source\FreeRTOS\10.0.1\Source\portable\GCC\CM0/port.c ****     if( uxCriticalNesting == 0 )
 445              		.loc 1 238 0 is_stmt 1
 446 000c 013B     		subs	r3, r3, #1
 447 000e 034A     		ldr	r2, .L33
 448 0010 1360     		str	r3, [r2]
 239:Source\FreeRTOS\10.0.1\Source\portable\GCC\CM0/port.c ****     {
 449              		.loc 1 239 0
 450 0012 002B     		cmp	r3, #0
 451 0014 00D1     		bne	.L29
 241:Source\FreeRTOS\10.0.1\Source\portable\GCC\CM0/port.c ****     }
 452              		.loc 1 241 0
 453              		.syntax divided
ARM GAS  C:\Users\Phuong\AppData\Local\Temp\ccUsk3Ea.s 			page 16


 454              	@ 241 "Source\FreeRTOS\10.0.1\Source\portable\GCC\CM0\port.c" 1
 455 0016 62B6     		 cpsie i 
 456              	@ 0 "" 2
 457              		.thumb
 458              		.syntax unified
 459              	.L29:
 243:Source\FreeRTOS\10.0.1\Source\portable\GCC\CM0/port.c **** /*-----------------------------------------------------------*/
 460              		.loc 1 243 0
 461              		@ sp needed
 462 0018 7047     		bx	lr
 463              	.L34:
 464 001a C046     		.align	2
 465              	.L33:
 466 001c 00000000 		.word	.LANCHOR0
 467              		.cfi_endproc
 468              	.LFE44:
 469              		.size	vPortExitCritical, .-vPortExitCritical
 470              		.section	.text.ulSetInterruptMaskFromISR,"ax",%progbits
 471              		.align	2
 472              		.global	ulSetInterruptMaskFromISR
 473              		.code	16
 474              		.thumb_func
 475              		.type	ulSetInterruptMaskFromISR, %function
 476              	ulSetInterruptMaskFromISR:
 477              	.LFB45:
 247:Source\FreeRTOS\10.0.1\Source\portable\GCC\CM0/port.c **** 	__asm volatile(
 478              		.loc 1 247 0
 479              		.cfi_startproc
 480              		@ Naked Function: prologue and epilogue provided by programmer.
 481              		@ args = 0, pretend = 0, frame = 0
 482              		@ frame_needed = 0, uses_anonymous_args = 0
 248:Source\FreeRTOS\10.0.1\Source\portable\GCC\CM0/port.c **** 					" mrs r0, PRIMASK	\n"
 483              		.loc 1 248 0
 484              		.syntax divided
 485              	@ 248 "Source\FreeRTOS\10.0.1\Source\portable\GCC\CM0\port.c" 1
 486 0000 EFF31080 		 mrs r0, PRIMASK	
 487 0004 72B6     	 cpsid i			
 488 0006 7047     	 bx lr				  
 489              	@ 0 "" 2
 261:Source\FreeRTOS\10.0.1\Source\portable\GCC\CM0/port.c **** /*-----------------------------------------------------------*/
 490              		.loc 1 261 0
 491              		.thumb
 492              		.syntax unified
 493              		.cfi_endproc
 494              	.LFE45:
 495              		.size	ulSetInterruptMaskFromISR, .-ulSetInterruptMaskFromISR
 496              		.section	.text.vClearInterruptMaskFromISR,"ax",%progbits
 497              		.align	2
 498              		.global	vClearInterruptMaskFromISR
 499              		.code	16
 500              		.thumb_func
 501              		.type	vClearInterruptMaskFromISR, %function
 502              	vClearInterruptMaskFromISR:
 503              	.LFB46:
 265:Source\FreeRTOS\10.0.1\Source\portable\GCC\CM0/port.c **** 	__asm volatile(
 504              		.loc 1 265 0
 505              		.cfi_startproc
ARM GAS  C:\Users\Phuong\AppData\Local\Temp\ccUsk3Ea.s 			page 17


 506              		@ Naked Function: prologue and epilogue provided by programmer.
 507              		@ args = 0, pretend = 0, frame = 0
 508              		@ frame_needed = 0, uses_anonymous_args = 0
 509              	.LVL14:
 266:Source\FreeRTOS\10.0.1\Source\portable\GCC\CM0/port.c **** 					" msr PRIMASK, r0	\n"
 510              		.loc 1 266 0
 511              		.syntax divided
 512              	@ 266 "Source\FreeRTOS\10.0.1\Source\portable\GCC\CM0\port.c" 1
 513 0000 80F31088 		 msr PRIMASK, r0	
 514 0004 7047     	 bx lr				  
 515              	@ 0 "" 2
 278:Source\FreeRTOS\10.0.1\Source\portable\GCC\CM0/port.c **** /*-----------------------------------------------------------*/
 516              		.loc 1 278 0
 517              		.thumb
 518              		.syntax unified
 519              		.cfi_endproc
 520              	.LFE46:
 521              		.size	vClearInterruptMaskFromISR, .-vClearInterruptMaskFromISR
 522 0006 C046     		.section	.text.PendSV_Handler,"ax",%progbits
 523              		.align	2
 524              		.global	PendSV_Handler
 525              		.code	16
 526              		.thumb_func
 527              		.type	PendSV_Handler, %function
 528              	PendSV_Handler:
 529              	.LFB47:
 282:Source\FreeRTOS\10.0.1\Source\portable\GCC\CM0/port.c **** 	/* This is a naked function. */
 530              		.loc 1 282 0
 531              		.cfi_startproc
 532              		@ Naked Function: prologue and epilogue provided by programmer.
 533              		@ args = 0, pretend = 0, frame = 0
 534              		@ frame_needed = 0, uses_anonymous_args = 0
 285:Source\FreeRTOS\10.0.1\Source\portable\GCC\CM0/port.c **** 	(
 535              		.loc 1 285 0
 536              		.syntax divided
 537              	@ 285 "Source\FreeRTOS\10.0.1\Source\portable\GCC\CM0\port.c" 1
 538              			.syntax unified						
 539 0000 EFF30980 		mrs r0, psp							
 540              											
 541 0004 0E4B     		ldr	r3, pxCurrentTCBConst			
 542 0006 1A68     		ldr	r2, [r3]						
 543              											
 544 0008 2038     		subs r0, r0, #32					
 545 000a 1060     		str r0, [r2]						
 546 000c F0C0     		stmia r0!, {r4-r7}					
 547 000e 4446     	 	mov r4, r8							
 548 0010 4D46     	 	mov r5, r9							
 549 0012 5646     	 	mov r6, r10							
 550 0014 5F46     	 	mov r7, r11							
 551 0016 F0C0     	 	stmia r0!, {r4-r7}					
 552              											
 553 0018 08B5     		push {r3, r14}						
 554 001a 72B6     		cpsid i								
 555 001c FFF7FEFF 		bl vTaskSwitchContext				
 556 0020 62B6     		cpsie i								
 557 0022 0CBC     		pop {r2, r3}						
 558              											
ARM GAS  C:\Users\Phuong\AppData\Local\Temp\ccUsk3Ea.s 			page 18


 559 0024 1168     		ldr r1, [r2]						
 560 0026 0868     		ldr r0, [r1]						
 561 0028 1030     		adds r0, r0, #16					
 562 002a F0C8     		ldmia r0!, {r4-r7}					
 563 002c A046     	 	mov r8, r4							
 564 002e A946     	 	mov r9, r5							
 565 0030 B246     	 	mov r10, r6							
 566 0032 BB46     	 	mov r11, r7							
 567              											
 568 0034 80F30988 		msr psp, r0							
 569              											
 570 0038 2038     		subs r0, r0, #32					
 571 003a F0C8     	 	ldmia r0!, {r4-r7}					
 572              											
 573 003c 1847     		bx r3								
 574              											
 575 003e C046     		.align 4							
 576 0040 00000000 	pxCurrentTCBConst: .word pxCurrentTCB	  
 577              	@ 0 "" 2
 327:Source\FreeRTOS\10.0.1\Source\portable\GCC\CM0/port.c **** /*-----------------------------------------------------------*/
 578              		.loc 1 327 0
 579              		.thumb
 580              		.syntax unified
 581              		.cfi_endproc
 582              	.LFE47:
 583              		.size	PendSV_Handler, .-PendSV_Handler
 584              		.section	.text.SysTick_Handler,"ax",%progbits
 585              		.align	2
 586              		.global	SysTick_Handler
 587              		.code	16
 588              		.thumb_func
 589              		.type	SysTick_Handler, %function
 590              	SysTick_Handler:
 591              	.LFB48:
 331:Source\FreeRTOS\10.0.1\Source\portable\GCC\CM0/port.c **** uint32_t ulPreviousMask;
 592              		.loc 1 331 0
 593              		.cfi_startproc
 594              		@ args = 0, pretend = 0, frame = 0
 595              		@ frame_needed = 0, uses_anonymous_args = 0
 596 0000 10B5     		push	{r4, lr}
 597              		.cfi_def_cfa_offset 8
 598              		.cfi_offset 4, -8
 599              		.cfi_offset 14, -4
 334:Source\FreeRTOS\10.0.1\Source\portable\GCC\CM0/port.c **** 	{
 600              		.loc 1 334 0
 601 0002 FFF7FEFF 		bl	ulSetInterruptMaskFromISR
 602              	.LVL15:
 603 0006 0400     		movs	r4, r0
 604              	.LVL16:
 337:Source\FreeRTOS\10.0.1\Source\portable\GCC\CM0/port.c **** 		{
 605              		.loc 1 337 0
 606 0008 FFF7FEFF 		bl	xTaskIncrementTick
 607              	.LVL17:
 608 000c 0028     		cmp	r0, #0
 609 000e 03D0     		beq	.L39
 340:Source\FreeRTOS\10.0.1\Source\portable\GCC\CM0/port.c **** 		}
 610              		.loc 1 340 0
ARM GAS  C:\Users\Phuong\AppData\Local\Temp\ccUsk3Ea.s 			page 19


 611 0010 8022     		movs	r2, #128
 612 0012 5205     		lsls	r2, r2, #21
 613 0014 024B     		ldr	r3, .L40
 614 0016 1A60     		str	r2, [r3]
 615              	.L39:
 343:Source\FreeRTOS\10.0.1\Source\portable\GCC\CM0/port.c **** }
 616              		.loc 1 343 0
 617 0018 2000     		movs	r0, r4
 618 001a FFF7FEFF 		bl	vClearInterruptMaskFromISR
 619              	.LVL18:
 344:Source\FreeRTOS\10.0.1\Source\portable\GCC\CM0/port.c **** /*-----------------------------------------------------------*/
 620              		.loc 1 344 0
 621              		@ sp needed
 622              	.LVL19:
 623 001e 10BD     		pop	{r4, pc}
 624              	.L41:
 625              		.align	2
 626              	.L40:
 627 0020 04ED00E0 		.word	-536810236
 628              		.cfi_endproc
 629              	.LFE48:
 630              		.size	SysTick_Handler, .-SysTick_Handler
 631              		.data
 632              		.align	2
 633              		.set	.LANCHOR0,. + 0
 634              		.type	uxCriticalNesting, %object
 635              		.size	uxCriticalNesting, 4
 636              	uxCriticalNesting:
 637 0000 AAAAAAAA 		.word	-1431655766
 638              		.text
 639              	.Letext0:
 640              		.file 2 "c:\\program files (x86)\\cypress\\psoc creator\\4.2\\psoc creator\\import\\gnu\\arm\\5.4.
 641              		.file 3 "c:\\program files (x86)\\cypress\\psoc creator\\4.2\\psoc creator\\import\\gnu\\arm\\5.4.
 642              		.file 4 ".\\Source\\FreeRTOS\\10.0.1\\Source\\include/projdefs.h"
 643              		.file 5 ".\\Source\\FreeRTOS\\10.0.1\\Source\\portable\\GCC\\CM0/portmacro.h"
 644              		.file 6 ".\\Source\\FreeRTOS\\10.0.1\\Source\\include/task.h"
 645              		.file 7 "./system_psoc62.h"