ARM GAS  C:\Users\Phuong\AppData\Local\Temp\ccGaiFxI.s 			page 1


   1              		.syntax unified
   2              		.cpu cortex-m0plus
   3              		.fpu softvfp
   4              		.eabi_attribute 20, 1
   5              		.eabi_attribute 21, 1
   6              		.eabi_attribute 23, 3
   7              		.eabi_attribute 24, 1
   8              		.eabi_attribute 25, 1
   9              		.eabi_attribute 26, 1
  10              		.eabi_attribute 30, 1
  11              		.eabi_attribute 34, 0
  12              		.eabi_attribute 18, 4
  13              		.thumb
  14              		.syntax unified
  15              		.file	"raw.c"
  16              		.text
  17              	.Ltext0:
  18              		.cfi_sections	.debug_frame
  19              		.section	.text.raw_input_match,"ax",%progbits
  20              		.align	2
  21              		.code	16
  22              		.thumb_func
  23              		.type	raw_input_match, %function
  24              	raw_input_match:
  25              	.LFB53:
  26              		.file 1 "Source\\LwIP\\src\\core\\raw.c"
   1:Source\LwIP\src\core/raw.c **** /**
   2:Source\LwIP\src\core/raw.c ****  * @file
   3:Source\LwIP\src\core/raw.c ****  * Implementation of raw protocol PCBs for low-level handling of
   4:Source\LwIP\src\core/raw.c ****  * different types of protocols besides (or overriding) those
   5:Source\LwIP\src\core/raw.c ****  * already available in lwIP.\n
   6:Source\LwIP\src\core/raw.c ****  * See also @ref raw_raw
   7:Source\LwIP\src\core/raw.c ****  * 
   8:Source\LwIP\src\core/raw.c ****  * @defgroup raw_raw RAW
   9:Source\LwIP\src\core/raw.c ****  * @ingroup callbackstyle_api
  10:Source\LwIP\src\core/raw.c ****  * Implementation of raw protocol PCBs for low-level handling of
  11:Source\LwIP\src\core/raw.c ****  * different types of protocols besides (or overriding) those
  12:Source\LwIP\src\core/raw.c ****  * already available in lwIP.\n
  13:Source\LwIP\src\core/raw.c ****  * @see @ref raw_api
  14:Source\LwIP\src\core/raw.c ****  */
  15:Source\LwIP\src\core/raw.c **** 
  16:Source\LwIP\src\core/raw.c **** /*
  17:Source\LwIP\src\core/raw.c ****  * Copyright (c) 2001-2004 Swedish Institute of Computer Science.
  18:Source\LwIP\src\core/raw.c ****  * All rights reserved.
  19:Source\LwIP\src\core/raw.c ****  *
  20:Source\LwIP\src\core/raw.c ****  * Redistribution and use in source and binary forms, with or without modification,
  21:Source\LwIP\src\core/raw.c ****  * are permitted provided that the following conditions are met:
  22:Source\LwIP\src\core/raw.c ****  *
  23:Source\LwIP\src\core/raw.c ****  * 1. Redistributions of source code must retain the above copyright notice,
  24:Source\LwIP\src\core/raw.c ****  *    this list of conditions and the following disclaimer.
  25:Source\LwIP\src\core/raw.c ****  * 2. Redistributions in binary form must reproduce the above copyright notice,
  26:Source\LwIP\src\core/raw.c ****  *    this list of conditions and the following disclaimer in the documentation
  27:Source\LwIP\src\core/raw.c ****  *    and/or other materials provided with the distribution.
  28:Source\LwIP\src\core/raw.c ****  * 3. The name of the author may not be used to endorse or promote products
  29:Source\LwIP\src\core/raw.c ****  *    derived from this software without specific prior written permission.
  30:Source\LwIP\src\core/raw.c ****  *
  31:Source\LwIP\src\core/raw.c ****  * THIS SOFTWARE IS PROVIDED BY THE AUTHOR ``AS IS'' AND ANY EXPRESS OR IMPLIED
ARM GAS  C:\Users\Phuong\AppData\Local\Temp\ccGaiFxI.s 			page 2


  32:Source\LwIP\src\core/raw.c ****  * WARRANTIES, INCLUDING, BUT NOT LIMITED TO, THE IMPLIED WARRANTIES OF
  33:Source\LwIP\src\core/raw.c ****  * MERCHANTABILITY AND FITNESS FOR A PARTICULAR PURPOSE ARE DISCLAIMED. IN NO EVENT
  34:Source\LwIP\src\core/raw.c ****  * SHALL THE AUTHOR BE LIABLE FOR ANY DIRECT, INDIRECT, INCIDENTAL, SPECIAL,
  35:Source\LwIP\src\core/raw.c ****  * EXEMPLARY, OR CONSEQUENTIAL DAMAGES (INCLUDING, BUT NOT LIMITED TO, PROCUREMENT
  36:Source\LwIP\src\core/raw.c ****  * OF SUBSTITUTE GOODS OR SERVICES; LOSS OF USE, DATA, OR PROFITS; OR BUSINESS
  37:Source\LwIP\src\core/raw.c ****  * INTERRUPTION) HOWEVER CAUSED AND ON ANY THEORY OF LIABILITY, WHETHER IN
  38:Source\LwIP\src\core/raw.c ****  * CONTRACT, STRICT LIABILITY, OR TORT (INCLUDING NEGLIGENCE OR OTHERWISE) ARISING
  39:Source\LwIP\src\core/raw.c ****  * IN ANY WAY OUT OF THE USE OF THIS SOFTWARE, EVEN IF ADVISED OF THE POSSIBILITY
  40:Source\LwIP\src\core/raw.c ****  * OF SUCH DAMAGE.
  41:Source\LwIP\src\core/raw.c ****  *
  42:Source\LwIP\src\core/raw.c ****  * This file is part of the lwIP TCP/IP stack.
  43:Source\LwIP\src\core/raw.c ****  *
  44:Source\LwIP\src\core/raw.c ****  * Author: Adam Dunkels <adam@sics.se>
  45:Source\LwIP\src\core/raw.c ****  *
  46:Source\LwIP\src\core/raw.c ****  */
  47:Source\LwIP\src\core/raw.c **** 
  48:Source\LwIP\src\core/raw.c **** #include "lwip/opt.h"
  49:Source\LwIP\src\core/raw.c **** 
  50:Source\LwIP\src\core/raw.c **** #if LWIP_RAW /* don't build if not configured for use in lwipopts.h */
  51:Source\LwIP\src\core/raw.c **** 
  52:Source\LwIP\src\core/raw.c **** #include "lwip/def.h"
  53:Source\LwIP\src\core/raw.c **** #include "lwip/memp.h"
  54:Source\LwIP\src\core/raw.c **** #include "lwip/ip_addr.h"
  55:Source\LwIP\src\core/raw.c **** #include "lwip/netif.h"
  56:Source\LwIP\src\core/raw.c **** #include "lwip/raw.h"
  57:Source\LwIP\src\core/raw.c **** #include "lwip/stats.h"
  58:Source\LwIP\src\core/raw.c **** #include "lwip/ip6.h"
  59:Source\LwIP\src\core/raw.c **** #include "lwip/ip6_addr.h"
  60:Source\LwIP\src\core/raw.c **** #include "lwip/inet_chksum.h"
  61:Source\LwIP\src\core/raw.c **** 
  62:Source\LwIP\src\core/raw.c **** #include <string.h>
  63:Source\LwIP\src\core/raw.c **** 
  64:Source\LwIP\src\core/raw.c **** /** The list of RAW PCBs */
  65:Source\LwIP\src\core/raw.c **** static struct raw_pcb *raw_pcbs;
  66:Source\LwIP\src\core/raw.c **** 
  67:Source\LwIP\src\core/raw.c **** static u8_t
  68:Source\LwIP\src\core/raw.c **** raw_input_match(struct raw_pcb *pcb, u8_t broadcast)
  69:Source\LwIP\src\core/raw.c **** {
  27              		.loc 1 69 0
  28              		.cfi_startproc
  29              		@ args = 0, pretend = 0, frame = 0
  30              		@ frame_needed = 0, uses_anonymous_args = 0
  31              		@ link register save eliminated.
  32              	.LVL0:
  70:Source\LwIP\src\core/raw.c ****   LWIP_UNUSED_ARG(broadcast); /* in IPv6 only case */
  71:Source\LwIP\src\core/raw.c **** 
  72:Source\LwIP\src\core/raw.c **** #if LWIP_IPV4 && LWIP_IPV6
  73:Source\LwIP\src\core/raw.c ****   /* Dual-stack: PCBs listening to any IP type also listen to any IP address */
  74:Source\LwIP\src\core/raw.c ****   if (IP_IS_ANY_TYPE_VAL(pcb->local_ip)) {
  75:Source\LwIP\src\core/raw.c **** #if IP_SOF_BROADCAST_RECV
  76:Source\LwIP\src\core/raw.c ****     if ((broadcast != 0) && !ip_get_option(pcb, SOF_BROADCAST)) {
  77:Source\LwIP\src\core/raw.c ****       return 0;
  78:Source\LwIP\src\core/raw.c ****     }
  79:Source\LwIP\src\core/raw.c **** #endif /* IP_SOF_BROADCAST_RECV */
  80:Source\LwIP\src\core/raw.c ****     return 1;
  81:Source\LwIP\src\core/raw.c ****   }
  82:Source\LwIP\src\core/raw.c **** #endif /* LWIP_IPV4 && LWIP_IPV6 */
ARM GAS  C:\Users\Phuong\AppData\Local\Temp\ccGaiFxI.s 			page 3


  83:Source\LwIP\src\core/raw.c **** 
  84:Source\LwIP\src\core/raw.c ****   /* Only need to check PCB if incoming IP version matches PCB IP version */
  85:Source\LwIP\src\core/raw.c ****   if (IP_ADDR_PCB_VERSION_MATCH_EXACT(pcb, ip_current_dest_addr())) {
  86:Source\LwIP\src\core/raw.c **** #if LWIP_IPV4
  87:Source\LwIP\src\core/raw.c ****     /* Special case: IPv4 broadcast: receive all broadcasts
  88:Source\LwIP\src\core/raw.c ****      * Note: broadcast variable can only be 1 if it is an IPv4 broadcast */
  89:Source\LwIP\src\core/raw.c ****     if (broadcast != 0) {
  33              		.loc 1 89 0
  34 0000 0029     		cmp	r1, #0
  35 0002 06D0     		beq	.L2
  90:Source\LwIP\src\core/raw.c **** #if IP_SOF_BROADCAST_RECV
  91:Source\LwIP\src\core/raw.c ****       if (ip_get_option(pcb, SOF_BROADCAST))
  92:Source\LwIP\src\core/raw.c **** #endif /* IP_SOF_BROADCAST_RECV */
  93:Source\LwIP\src\core/raw.c ****       {
  94:Source\LwIP\src\core/raw.c ****         if (ip4_addr_isany(ip_2_ip4(&pcb->local_ip))) {
  36              		.loc 1 94 0
  37 0004 0028     		cmp	r0, #0
  38 0006 0FD0     		beq	.L4
  39              		.loc 1 94 0 is_stmt 0 discriminator 1
  40 0008 0368     		ldr	r3, [r0]
  41 000a 002B     		cmp	r3, #0
  42 000c 0ED0     		beq	.L5
  95:Source\LwIP\src\core/raw.c ****           return 1;
  96:Source\LwIP\src\core/raw.c ****         }
  97:Source\LwIP\src\core/raw.c ****       }
  98:Source\LwIP\src\core/raw.c ****     } else
  99:Source\LwIP\src\core/raw.c **** #endif /* LWIP_IPV4 */
 100:Source\LwIP\src\core/raw.c ****     /* Handle IPv4 and IPv6: catch all or exact match */
 101:Source\LwIP\src\core/raw.c ****     if (ip_addr_isany(&pcb->local_ip) ||
 102:Source\LwIP\src\core/raw.c ****        ip_addr_cmp(&pcb->local_ip, ip_current_dest_addr())) {
 103:Source\LwIP\src\core/raw.c ****       return 1;
 104:Source\LwIP\src\core/raw.c ****     }
 105:Source\LwIP\src\core/raw.c ****   }
 106:Source\LwIP\src\core/raw.c **** 
 107:Source\LwIP\src\core/raw.c ****   return 0;
  43              		.loc 1 107 0 is_stmt 1
  44 000e 0020     		movs	r0, #0
  45              	.LVL1:
  46 0010 13E0     		b	.L3
  47              	.LVL2:
  48              	.L2:
 101:Source\LwIP\src\core/raw.c ****        ip_addr_cmp(&pcb->local_ip, ip_current_dest_addr())) {
  49              		.loc 1 101 0
  50 0012 0028     		cmp	r0, #0
  51 0014 0CD0     		beq	.L6
 101:Source\LwIP\src\core/raw.c ****        ip_addr_cmp(&pcb->local_ip, ip_current_dest_addr())) {
  52              		.loc 1 101 0 is_stmt 0 discriminator 1
  53 0016 0368     		ldr	r3, [r0]
  54 0018 002B     		cmp	r3, #0
  55 001a 0BD0     		beq	.L7
 102:Source\LwIP\src\core/raw.c ****       return 1;
  56              		.loc 1 102 0 is_stmt 1 discriminator 2
  57 001c 074A     		ldr	r2, .L9
  58 001e 5269     		ldr	r2, [r2, #20]
 101:Source\LwIP\src\core/raw.c ****        ip_addr_cmp(&pcb->local_ip, ip_current_dest_addr())) {
  59              		.loc 1 101 0 discriminator 2
  60 0020 9342     		cmp	r3, r2
ARM GAS  C:\Users\Phuong\AppData\Local\Temp\ccGaiFxI.s 			page 4


  61 0022 09D0     		beq	.L8
  62              		.loc 1 107 0
  63 0024 0020     		movs	r0, #0
  64              	.LVL3:
  65 0026 08E0     		b	.L3
  66              	.LVL4:
  67              	.L4:
  95:Source\LwIP\src\core/raw.c ****           return 1;
  68              		.loc 1 95 0
  69 0028 0120     		movs	r0, #1
  70              	.LVL5:
  71 002a 06E0     		b	.L3
  72              	.LVL6:
  73              	.L5:
  74 002c 0120     		movs	r0, #1
  75              	.LVL7:
  76 002e 04E0     		b	.L3
  77              	.LVL8:
  78              	.L6:
 103:Source\LwIP\src\core/raw.c ****     }
  79              		.loc 1 103 0
  80 0030 0120     		movs	r0, #1
  81              	.LVL9:
  82 0032 02E0     		b	.L3
  83              	.LVL10:
  84              	.L7:
  85 0034 0120     		movs	r0, #1
  86              	.LVL11:
  87 0036 00E0     		b	.L3
  88              	.LVL12:
  89              	.L8:
  90 0038 0120     		movs	r0, #1
  91              	.LVL13:
  92              	.L3:
 108:Source\LwIP\src\core/raw.c **** }
  93              		.loc 1 108 0
  94              		@ sp needed
  95 003a 7047     		bx	lr
  96              	.L10:
  97              		.align	2
  98              	.L9:
  99 003c 00000000 		.word	ip_data
 100              		.cfi_endproc
 101              	.LFE53:
 102              		.size	raw_input_match, .-raw_input_match
 103              		.section	.text.raw_input,"ax",%progbits
 104              		.align	2
 105              		.global	raw_input
 106              		.code	16
 107              		.thumb_func
 108              		.type	raw_input, %function
 109              	raw_input:
 110              	.LFB54:
 109:Source\LwIP\src\core/raw.c **** 
 110:Source\LwIP\src\core/raw.c **** /**
 111:Source\LwIP\src\core/raw.c ****  * Determine if in incoming IP packet is covered by a RAW PCB
 112:Source\LwIP\src\core/raw.c ****  * and if so, pass it to a user-provided receive callback function.
ARM GAS  C:\Users\Phuong\AppData\Local\Temp\ccGaiFxI.s 			page 5


 113:Source\LwIP\src\core/raw.c ****  *
 114:Source\LwIP\src\core/raw.c ****  * Given an incoming IP datagram (as a chain of pbufs) this function
 115:Source\LwIP\src\core/raw.c ****  * finds a corresponding RAW PCB and calls the corresponding receive
 116:Source\LwIP\src\core/raw.c ****  * callback function.
 117:Source\LwIP\src\core/raw.c ****  *
 118:Source\LwIP\src\core/raw.c ****  * @param p pbuf to be demultiplexed to a RAW PCB.
 119:Source\LwIP\src\core/raw.c ****  * @param inp network interface on which the datagram was received.
 120:Source\LwIP\src\core/raw.c ****  * @return - 1 if the packet has been eaten by a RAW PCB receive
 121:Source\LwIP\src\core/raw.c ****  *           callback function. The caller MAY NOT not reference the
 122:Source\LwIP\src\core/raw.c ****  *           packet any longer, and MAY NOT call pbuf_free().
 123:Source\LwIP\src\core/raw.c ****  * @return - 0 if packet is not eaten (pbuf is still referenced by the
 124:Source\LwIP\src\core/raw.c ****  *           caller).
 125:Source\LwIP\src\core/raw.c ****  *
 126:Source\LwIP\src\core/raw.c ****  */
 127:Source\LwIP\src\core/raw.c **** u8_t
 128:Source\LwIP\src\core/raw.c **** raw_input(struct pbuf *p, struct netif *inp)
 129:Source\LwIP\src\core/raw.c **** {
 111              		.loc 1 129 0
 112              		.cfi_startproc
 113              		@ args = 0, pretend = 0, frame = 8
 114              		@ frame_needed = 0, uses_anonymous_args = 0
 115              	.LVL14:
 116 0000 F0B5     		push	{r4, r5, r6, r7, lr}
 117              		.cfi_def_cfa_offset 20
 118              		.cfi_offset 4, -20
 119              		.cfi_offset 5, -16
 120              		.cfi_offset 6, -12
 121              		.cfi_offset 7, -8
 122              		.cfi_offset 14, -4
 123 0002 5746     		mov	r7, r10
 124 0004 4E46     		mov	r6, r9
 125 0006 C0B4     		push	{r6, r7}
 126              		.cfi_def_cfa_offset 28
 127              		.cfi_offset 9, -28
 128              		.cfi_offset 10, -24
 129 0008 83B0     		sub	sp, sp, #12
 130              		.cfi_def_cfa_offset 40
 131 000a 8146     		mov	r9, r0
 132              	.LVL15:
 130:Source\LwIP\src\core/raw.c ****   struct raw_pcb *pcb, *prev;
 131:Source\LwIP\src\core/raw.c ****   s16_t proto;
 132:Source\LwIP\src\core/raw.c ****   u8_t eaten = 0;
 133:Source\LwIP\src\core/raw.c ****   u8_t broadcast = ip_addr_isbroadcast(ip_current_dest_addr(), ip_current_netif());
 133              		.loc 1 133 0
 134 000c 1E4B     		ldr	r3, .L17
 135 000e 5869     		ldr	r0, [r3, #20]
 136              	.LVL16:
 137 0010 1968     		ldr	r1, [r3]
 138              	.LVL17:
 139 0012 FFF7FEFF 		bl	ip4_addr_isbroadcast_u32
 140              	.LVL18:
 141 0016 0190     		str	r0, [sp, #4]
 142              	.LVL19:
 134:Source\LwIP\src\core/raw.c **** 
 135:Source\LwIP\src\core/raw.c ****   LWIP_UNUSED_ARG(inp);
 136:Source\LwIP\src\core/raw.c **** 
 137:Source\LwIP\src\core/raw.c **** #if LWIP_IPV6
ARM GAS  C:\Users\Phuong\AppData\Local\Temp\ccGaiFxI.s 			page 6


 138:Source\LwIP\src\core/raw.c **** #if LWIP_IPV4
 139:Source\LwIP\src\core/raw.c ****   if (IP_HDR_GET_VERSION(p->payload) == 6)
 140:Source\LwIP\src\core/raw.c **** #endif /* LWIP_IPV4 */
 141:Source\LwIP\src\core/raw.c ****   {
 142:Source\LwIP\src\core/raw.c ****     struct ip6_hdr *ip6hdr = (struct ip6_hdr *)p->payload;
 143:Source\LwIP\src\core/raw.c ****     proto = IP6H_NEXTH(ip6hdr);
 144:Source\LwIP\src\core/raw.c ****   }
 145:Source\LwIP\src\core/raw.c **** #if LWIP_IPV4
 146:Source\LwIP\src\core/raw.c ****   else
 147:Source\LwIP\src\core/raw.c **** #endif /* LWIP_IPV4 */
 148:Source\LwIP\src\core/raw.c **** #endif /* LWIP_IPV6 */
 149:Source\LwIP\src\core/raw.c **** #if LWIP_IPV4
 150:Source\LwIP\src\core/raw.c ****   {
 151:Source\LwIP\src\core/raw.c ****     proto = IPH_PROTO((struct ip_hdr *)p->payload);
 143              		.loc 1 151 0
 144 0018 4B46     		mov	r3, r9
 145 001a 5B68     		ldr	r3, [r3, #4]
 146 001c 5E7A     		ldrb	r6, [r3, #9]
 147              	.LVL20:
 152:Source\LwIP\src\core/raw.c ****   }
 153:Source\LwIP\src\core/raw.c **** #endif /* LWIP_IPV4 */
 154:Source\LwIP\src\core/raw.c **** 
 155:Source\LwIP\src\core/raw.c ****   prev = NULL;
 156:Source\LwIP\src\core/raw.c ****   pcb = raw_pcbs;
 148              		.loc 1 156 0
 149 001e 1B4B     		ldr	r3, .L17+4
 150 0020 1C68     		ldr	r4, [r3]
 151              	.LVL21:
 132:Source\LwIP\src\core/raw.c ****   u8_t broadcast = ip_addr_isbroadcast(ip_current_dest_addr(), ip_current_netif());
 152              		.loc 1 132 0
 153 0022 0027     		movs	r7, #0
 155:Source\LwIP\src\core/raw.c ****   pcb = raw_pcbs;
 154              		.loc 1 155 0
 155 0024 0025     		movs	r5, #0
 157:Source\LwIP\src\core/raw.c ****   /* loop through all raw pcbs until the packet is eaten by one */
 158:Source\LwIP\src\core/raw.c ****   /* this allows multiple pcbs to match against the packet by design */
 159:Source\LwIP\src\core/raw.c ****   while ((eaten == 0) && (pcb != NULL)) {
 156              		.loc 1 159 0
 157 0026 24E0     		b	.L12
 158              	.LVL22:
 159              	.L15:
 160:Source\LwIP\src\core/raw.c ****     if ((pcb->protocol == proto) && raw_input_match(pcb, broadcast)) {
 160              		.loc 1 160 0
 161 0028 237C     		ldrb	r3, [r4, #16]
 162 002a 9E42     		cmp	r6, r3
 163 002c 1FD1     		bne	.L13
 164              		.loc 1 160 0 is_stmt 0 discriminator 1
 165 002e 0199     		ldr	r1, [sp, #4]
 166 0030 2000     		movs	r0, r4
 167 0032 FFF7FEFF 		bl	raw_input_match
 168              	.LVL23:
 169 0036 0028     		cmp	r0, #0
 170 0038 19D0     		beq	.L13
 161:Source\LwIP\src\core/raw.c ****       /* receive callback function available? */
 162:Source\LwIP\src\core/raw.c ****       if (pcb->recv != NULL) {
 171              		.loc 1 162 0 is_stmt 1
 172 003a 6369     		ldr	r3, [r4, #20]
ARM GAS  C:\Users\Phuong\AppData\Local\Temp\ccGaiFxI.s 			page 7


 173 003c 9A46     		mov	r10, r3
 174 003e 002B     		cmp	r3, #0
 175 0040 15D0     		beq	.L13
 176              	.LVL24:
 177              	.LBB2:
 163:Source\LwIP\src\core/raw.c **** #ifndef LWIP_NOASSERT
 164:Source\LwIP\src\core/raw.c ****         void* old_payload = p->payload;
 165:Source\LwIP\src\core/raw.c **** #endif
 166:Source\LwIP\src\core/raw.c ****         /* the receive callback function did not eat the packet? */
 167:Source\LwIP\src\core/raw.c ****         eaten = pcb->recv(pcb->recv_arg, pcb, p, ip_current_src_addr());
 178              		.loc 1 167 0
 179 0042 134B     		ldr	r3, .L17+8
 180 0044 4A46     		mov	r2, r9
 181 0046 2100     		movs	r1, r4
 182 0048 A069     		ldr	r0, [r4, #24]
 183 004a D047     		blx	r10
 184              	.LVL25:
 185 004c 071E     		subs	r7, r0, #0
 186              	.LVL26:
 168:Source\LwIP\src\core/raw.c ****         if (eaten != 0) {
 187              		.loc 1 168 0
 188 004e 0ED0     		beq	.L13
 189              	.LVL27:
 169:Source\LwIP\src\core/raw.c ****           /* receive function ate the packet */
 170:Source\LwIP\src\core/raw.c ****           p = NULL;
 171:Source\LwIP\src\core/raw.c ****           eaten = 1;
 172:Source\LwIP\src\core/raw.c ****           if (prev != NULL) {
 190              		.loc 1 172 0
 191 0050 002D     		cmp	r5, #0
 192 0052 09D0     		beq	.L16
 173:Source\LwIP\src\core/raw.c ****           /* move the pcb to the front of raw_pcbs so that is
 174:Source\LwIP\src\core/raw.c ****              found faster next time */
 175:Source\LwIP\src\core/raw.c ****             prev->next = pcb->next;
 193              		.loc 1 175 0
 194 0054 E368     		ldr	r3, [r4, #12]
 195 0056 EB60     		str	r3, [r5, #12]
 176:Source\LwIP\src\core/raw.c ****             pcb->next = raw_pcbs;
 196              		.loc 1 176 0
 197 0058 0C4B     		ldr	r3, .L17+4
 198 005a 1A68     		ldr	r2, [r3]
 199 005c E260     		str	r2, [r4, #12]
 177:Source\LwIP\src\core/raw.c ****             raw_pcbs = pcb;
 200              		.loc 1 177 0
 201 005e 1C60     		str	r4, [r3]
 171:Source\LwIP\src\core/raw.c ****           if (prev != NULL) {
 202              		.loc 1 171 0
 203 0060 0127     		movs	r7, #1
 170:Source\LwIP\src\core/raw.c ****           eaten = 1;
 204              		.loc 1 170 0
 205 0062 0023     		movs	r3, #0
 206 0064 9946     		mov	r9, r3
 207 0066 02E0     		b	.L13
 208              	.L16:
 171:Source\LwIP\src\core/raw.c ****           if (prev != NULL) {
 209              		.loc 1 171 0
 210 0068 0127     		movs	r7, #1
 170:Source\LwIP\src\core/raw.c ****           eaten = 1;
ARM GAS  C:\Users\Phuong\AppData\Local\Temp\ccGaiFxI.s 			page 8


 211              		.loc 1 170 0
 212 006a 0023     		movs	r3, #0
 213 006c 9946     		mov	r9, r3
 214              	.LVL28:
 215              	.L13:
 216              	.LBE2:
 178:Source\LwIP\src\core/raw.c ****           }
 179:Source\LwIP\src\core/raw.c ****         } else {
 180:Source\LwIP\src\core/raw.c ****           /* sanity-check that the receive callback did not alter the pbuf */
 181:Source\LwIP\src\core/raw.c ****           LWIP_ASSERT("raw pcb recv callback altered pbuf payload pointer without eating packet",
 182:Source\LwIP\src\core/raw.c ****             p->payload == old_payload);
 183:Source\LwIP\src\core/raw.c ****         }
 184:Source\LwIP\src\core/raw.c ****       }
 185:Source\LwIP\src\core/raw.c ****       /* no receive callback function was set for this raw PCB */
 186:Source\LwIP\src\core/raw.c ****     }
 187:Source\LwIP\src\core/raw.c ****     /* drop the packet */
 188:Source\LwIP\src\core/raw.c ****     prev = pcb;
 217              		.loc 1 188 0
 218 006e 2500     		movs	r5, r4
 189:Source\LwIP\src\core/raw.c ****     pcb = pcb->next;
 219              		.loc 1 189 0
 220 0070 E468     		ldr	r4, [r4, #12]
 221              	.LVL29:
 222              	.L12:
 159:Source\LwIP\src\core/raw.c ****     if ((pcb->protocol == proto) && raw_input_match(pcb, broadcast)) {
 223              		.loc 1 159 0
 224 0072 002F     		cmp	r7, #0
 225 0074 01D1     		bne	.L14
 159:Source\LwIP\src\core/raw.c ****     if ((pcb->protocol == proto) && raw_input_match(pcb, broadcast)) {
 226              		.loc 1 159 0 is_stmt 0 discriminator 1
 227 0076 002C     		cmp	r4, #0
 228 0078 D6D1     		bne	.L15
 229              	.L14:
 190:Source\LwIP\src\core/raw.c ****   }
 191:Source\LwIP\src\core/raw.c ****   return eaten;
 192:Source\LwIP\src\core/raw.c **** }
 230              		.loc 1 192 0 is_stmt 1
 231 007a 3800     		movs	r0, r7
 232 007c 03B0     		add	sp, sp, #12
 233              		@ sp needed
 234              	.LVL30:
 235              	.LVL31:
 236              	.LVL32:
 237              	.LVL33:
 238              	.LVL34:
 239 007e 0CBC     		pop	{r2, r3}
 240 0080 9146     		mov	r9, r2
 241 0082 9A46     		mov	r10, r3
 242 0084 F0BD     		pop	{r4, r5, r6, r7, pc}
 243              	.L18:
 244 0086 C046     		.align	2
 245              	.L17:
 246 0088 00000000 		.word	ip_data
 247 008c 00000000 		.word	.LANCHOR0
 248 0090 10000000 		.word	ip_data+16
 249              		.cfi_endproc
 250              	.LFE54:
ARM GAS  C:\Users\Phuong\AppData\Local\Temp\ccGaiFxI.s 			page 9


 251              		.size	raw_input, .-raw_input
 252              		.section	.text.raw_bind,"ax",%progbits
 253              		.align	2
 254              		.global	raw_bind
 255              		.code	16
 256              		.thumb_func
 257              		.type	raw_bind, %function
 258              	raw_bind:
 259              	.LFB55:
 193:Source\LwIP\src\core/raw.c **** 
 194:Source\LwIP\src\core/raw.c **** /**
 195:Source\LwIP\src\core/raw.c ****  * @ingroup raw_raw
 196:Source\LwIP\src\core/raw.c ****  * Bind a RAW PCB.
 197:Source\LwIP\src\core/raw.c ****  *
 198:Source\LwIP\src\core/raw.c ****  * @param pcb RAW PCB to be bound with a local address ipaddr.
 199:Source\LwIP\src\core/raw.c ****  * @param ipaddr local IP address to bind with. Use IP4_ADDR_ANY to
 200:Source\LwIP\src\core/raw.c ****  * bind to all local interfaces.
 201:Source\LwIP\src\core/raw.c ****  *
 202:Source\LwIP\src\core/raw.c ****  * @return lwIP error code.
 203:Source\LwIP\src\core/raw.c ****  * - ERR_OK. Successful. No error occurred.
 204:Source\LwIP\src\core/raw.c ****  * - ERR_USE. The specified IP address is already bound to by
 205:Source\LwIP\src\core/raw.c ****  * another RAW PCB.
 206:Source\LwIP\src\core/raw.c ****  *
 207:Source\LwIP\src\core/raw.c ****  * @see raw_disconnect()
 208:Source\LwIP\src\core/raw.c ****  */
 209:Source\LwIP\src\core/raw.c **** err_t
 210:Source\LwIP\src\core/raw.c **** raw_bind(struct raw_pcb *pcb, const ip_addr_t *ipaddr)
 211:Source\LwIP\src\core/raw.c **** {
 260              		.loc 1 211 0
 261              		.cfi_startproc
 262              		@ args = 0, pretend = 0, frame = 0
 263              		@ frame_needed = 0, uses_anonymous_args = 0
 264              		@ link register save eliminated.
 265              	.LVL35:
 212:Source\LwIP\src\core/raw.c ****   if ((pcb == NULL) || (ipaddr == NULL)) {
 266              		.loc 1 212 0
 267 0000 0028     		cmp	r0, #0
 268 0002 08D0     		beq	.L22
 269              		.loc 1 212 0 is_stmt 0 discriminator 1
 270 0004 0029     		cmp	r1, #0
 271 0006 09D0     		beq	.L23
 213:Source\LwIP\src\core/raw.c ****     return ERR_VAL;
 214:Source\LwIP\src\core/raw.c ****   }
 215:Source\LwIP\src\core/raw.c ****   ip_addr_set_ipaddr(&pcb->local_ip, ipaddr);
 272              		.loc 1 215 0 is_stmt 1
 273 0008 01D0     		beq	.L24
 274              		.loc 1 215 0 is_stmt 0 discriminator 1
 275 000a 0B68     		ldr	r3, [r1]
 276 000c 00E0     		b	.L21
 277              	.L24:
 278              		.loc 1 215 0
 279 000e 0023     		movs	r3, #0
 280              	.L21:
 281              		.loc 1 215 0 discriminator 4
 282 0010 0360     		str	r3, [r0]
 216:Source\LwIP\src\core/raw.c ****   return ERR_OK;
 283              		.loc 1 216 0 is_stmt 1 discriminator 4
ARM GAS  C:\Users\Phuong\AppData\Local\Temp\ccGaiFxI.s 			page 10


 284 0012 0020     		movs	r0, #0
 285              	.LVL36:
 286 0014 04E0     		b	.L20
 287              	.LVL37:
 288              	.L22:
 213:Source\LwIP\src\core/raw.c ****     return ERR_VAL;
 289              		.loc 1 213 0
 290 0016 0620     		movs	r0, #6
 291              	.LVL38:
 292 0018 4042     		rsbs	r0, r0, #0
 293 001a 01E0     		b	.L20
 294              	.LVL39:
 295              	.L23:
 296 001c 0620     		movs	r0, #6
 297              	.LVL40:
 298 001e 4042     		rsbs	r0, r0, #0
 299              	.L20:
 217:Source\LwIP\src\core/raw.c **** }
 300              		.loc 1 217 0
 301              		@ sp needed
 302 0020 7047     		bx	lr
 303              		.cfi_endproc
 304              	.LFE55:
 305              		.size	raw_bind, .-raw_bind
 306 0022 C046     		.section	.text.raw_connect,"ax",%progbits
 307              		.align	2
 308              		.global	raw_connect
 309              		.code	16
 310              		.thumb_func
 311              		.type	raw_connect, %function
 312              	raw_connect:
 313              	.LFB56:
 218:Source\LwIP\src\core/raw.c **** 
 219:Source\LwIP\src\core/raw.c **** /**
 220:Source\LwIP\src\core/raw.c ****  * @ingroup raw_raw
 221:Source\LwIP\src\core/raw.c ****  * Connect an RAW PCB. This function is required by upper layers
 222:Source\LwIP\src\core/raw.c ****  * of lwip. Using the raw api you could use raw_sendto() instead
 223:Source\LwIP\src\core/raw.c ****  *
 224:Source\LwIP\src\core/raw.c ****  * This will associate the RAW PCB with the remote address.
 225:Source\LwIP\src\core/raw.c ****  *
 226:Source\LwIP\src\core/raw.c ****  * @param pcb RAW PCB to be connected with remote address ipaddr and port.
 227:Source\LwIP\src\core/raw.c ****  * @param ipaddr remote IP address to connect with.
 228:Source\LwIP\src\core/raw.c ****  *
 229:Source\LwIP\src\core/raw.c ****  * @return lwIP error code
 230:Source\LwIP\src\core/raw.c ****  *
 231:Source\LwIP\src\core/raw.c ****  * @see raw_disconnect() and raw_sendto()
 232:Source\LwIP\src\core/raw.c ****  */
 233:Source\LwIP\src\core/raw.c **** err_t
 234:Source\LwIP\src\core/raw.c **** raw_connect(struct raw_pcb *pcb, const ip_addr_t *ipaddr)
 235:Source\LwIP\src\core/raw.c **** {
 314              		.loc 1 235 0
 315              		.cfi_startproc
 316              		@ args = 0, pretend = 0, frame = 0
 317              		@ frame_needed = 0, uses_anonymous_args = 0
 318              		@ link register save eliminated.
 319              	.LVL41:
 236:Source\LwIP\src\core/raw.c ****   if ((pcb == NULL) || (ipaddr == NULL)) {
ARM GAS  C:\Users\Phuong\AppData\Local\Temp\ccGaiFxI.s 			page 11


 320              		.loc 1 236 0
 321 0000 0028     		cmp	r0, #0
 322 0002 08D0     		beq	.L28
 323              		.loc 1 236 0 is_stmt 0 discriminator 1
 324 0004 0029     		cmp	r1, #0
 325 0006 09D0     		beq	.L29
 237:Source\LwIP\src\core/raw.c ****     return ERR_VAL;
 238:Source\LwIP\src\core/raw.c ****   }
 239:Source\LwIP\src\core/raw.c ****   ip_addr_set_ipaddr(&pcb->remote_ip, ipaddr);
 326              		.loc 1 239 0 is_stmt 1
 327 0008 01D0     		beq	.L30
 328              		.loc 1 239 0 is_stmt 0 discriminator 1
 329 000a 0B68     		ldr	r3, [r1]
 330 000c 00E0     		b	.L27
 331              	.L30:
 332              		.loc 1 239 0
 333 000e 0023     		movs	r3, #0
 334              	.L27:
 335              		.loc 1 239 0 discriminator 4
 336 0010 4360     		str	r3, [r0, #4]
 240:Source\LwIP\src\core/raw.c ****   return ERR_OK;
 337              		.loc 1 240 0 is_stmt 1 discriminator 4
 338 0012 0020     		movs	r0, #0
 339              	.LVL42:
 340 0014 04E0     		b	.L26
 341              	.LVL43:
 342              	.L28:
 237:Source\LwIP\src\core/raw.c ****     return ERR_VAL;
 343              		.loc 1 237 0
 344 0016 0620     		movs	r0, #6
 345              	.LVL44:
 346 0018 4042     		rsbs	r0, r0, #0
 347 001a 01E0     		b	.L26
 348              	.LVL45:
 349              	.L29:
 350 001c 0620     		movs	r0, #6
 351              	.LVL46:
 352 001e 4042     		rsbs	r0, r0, #0
 353              	.L26:
 241:Source\LwIP\src\core/raw.c **** }
 354              		.loc 1 241 0
 355              		@ sp needed
 356 0020 7047     		bx	lr
 357              		.cfi_endproc
 358              	.LFE56:
 359              		.size	raw_connect, .-raw_connect
 360 0022 C046     		.section	.text.raw_recv,"ax",%progbits
 361              		.align	2
 362              		.global	raw_recv
 363              		.code	16
 364              		.thumb_func
 365              		.type	raw_recv, %function
 366              	raw_recv:
 367              	.LFB57:
 242:Source\LwIP\src\core/raw.c **** 
 243:Source\LwIP\src\core/raw.c **** /**
 244:Source\LwIP\src\core/raw.c ****  * @ingroup raw_raw
ARM GAS  C:\Users\Phuong\AppData\Local\Temp\ccGaiFxI.s 			page 12


 245:Source\LwIP\src\core/raw.c ****  * Set the callback function for received packets that match the
 246:Source\LwIP\src\core/raw.c ****  * raw PCB's protocol and binding.
 247:Source\LwIP\src\core/raw.c ****  *
 248:Source\LwIP\src\core/raw.c ****  * The callback function MUST either
 249:Source\LwIP\src\core/raw.c ****  * - eat the packet by calling pbuf_free() and returning non-zero. The
 250:Source\LwIP\src\core/raw.c ****  *   packet will not be passed to other raw PCBs or other protocol layers.
 251:Source\LwIP\src\core/raw.c ****  * - not free the packet, and return zero. The packet will be matched
 252:Source\LwIP\src\core/raw.c ****  *   against further PCBs and/or forwarded to another protocol layers.
 253:Source\LwIP\src\core/raw.c ****  */
 254:Source\LwIP\src\core/raw.c **** void
 255:Source\LwIP\src\core/raw.c **** raw_recv(struct raw_pcb *pcb, raw_recv_fn recv, void *recv_arg)
 256:Source\LwIP\src\core/raw.c **** {
 368              		.loc 1 256 0
 369              		.cfi_startproc
 370              		@ args = 0, pretend = 0, frame = 0
 371              		@ frame_needed = 0, uses_anonymous_args = 0
 372              		@ link register save eliminated.
 373              	.LVL47:
 257:Source\LwIP\src\core/raw.c ****   /* remember recv() callback and user data */
 258:Source\LwIP\src\core/raw.c ****   pcb->recv = recv;
 374              		.loc 1 258 0
 375 0000 4161     		str	r1, [r0, #20]
 259:Source\LwIP\src\core/raw.c ****   pcb->recv_arg = recv_arg;
 376              		.loc 1 259 0
 377 0002 8261     		str	r2, [r0, #24]
 260:Source\LwIP\src\core/raw.c **** }
 378              		.loc 1 260 0
 379              		@ sp needed
 380 0004 7047     		bx	lr
 381              		.cfi_endproc
 382              	.LFE57:
 383              		.size	raw_recv, .-raw_recv
 384              		.section	.text.raw_sendto,"ax",%progbits
 385              		.align	2
 386              		.global	raw_sendto
 387              		.code	16
 388              		.thumb_func
 389              		.type	raw_sendto, %function
 390              	raw_sendto:
 391              	.LFB58:
 261:Source\LwIP\src\core/raw.c **** 
 262:Source\LwIP\src\core/raw.c **** /**
 263:Source\LwIP\src\core/raw.c ****  * @ingroup raw_raw
 264:Source\LwIP\src\core/raw.c ****  * Send the raw IP packet to the given address. Note that actually you cannot
 265:Source\LwIP\src\core/raw.c ****  * modify the IP headers (this is inconsistent with the receive callback where
 266:Source\LwIP\src\core/raw.c ****  * you actually get the IP headers), you can only specify the IP payload here.
 267:Source\LwIP\src\core/raw.c ****  * It requires some more changes in lwIP. (there will be a raw_send() function
 268:Source\LwIP\src\core/raw.c ****  * then.)
 269:Source\LwIP\src\core/raw.c ****  *
 270:Source\LwIP\src\core/raw.c ****  * @param pcb the raw pcb which to send
 271:Source\LwIP\src\core/raw.c ****  * @param p the IP payload to send
 272:Source\LwIP\src\core/raw.c ****  * @param ipaddr the destination address of the IP packet
 273:Source\LwIP\src\core/raw.c ****  *
 274:Source\LwIP\src\core/raw.c ****  */
 275:Source\LwIP\src\core/raw.c **** err_t
 276:Source\LwIP\src\core/raw.c **** raw_sendto(struct raw_pcb *pcb, struct pbuf *p, const ip_addr_t *ipaddr)
 277:Source\LwIP\src\core/raw.c **** {
ARM GAS  C:\Users\Phuong\AppData\Local\Temp\ccGaiFxI.s 			page 13


 392              		.loc 1 277 0
 393              		.cfi_startproc
 394              		@ args = 0, pretend = 0, frame = 0
 395              		@ frame_needed = 0, uses_anonymous_args = 0
 396              	.LVL48:
 397 0000 F0B5     		push	{r4, r5, r6, r7, lr}
 398              		.cfi_def_cfa_offset 20
 399              		.cfi_offset 4, -20
 400              		.cfi_offset 5, -16
 401              		.cfi_offset 6, -12
 402              		.cfi_offset 7, -8
 403              		.cfi_offset 14, -4
 404 0002 85B0     		sub	sp, sp, #20
 405              		.cfi_def_cfa_offset 40
 406 0004 0400     		movs	r4, r0
 407 0006 0D00     		movs	r5, r1
 408 0008 1700     		movs	r7, r2
 278:Source\LwIP\src\core/raw.c ****   err_t err;
 279:Source\LwIP\src\core/raw.c ****   struct netif *netif;
 280:Source\LwIP\src\core/raw.c ****   const ip_addr_t *src_ip;
 281:Source\LwIP\src\core/raw.c ****   struct pbuf *q; /* q will be sent down the stack */
 282:Source\LwIP\src\core/raw.c ****   s16_t header_size;
 283:Source\LwIP\src\core/raw.c **** 
 284:Source\LwIP\src\core/raw.c ****   if ((pcb == NULL) || (ipaddr == NULL) || !IP_ADDR_PCB_VERSION_MATCH(pcb, ipaddr)) {
 409              		.loc 1 284 0
 410 000a 0028     		cmp	r0, #0
 411 000c 46D0     		beq	.L39
 412              		.loc 1 284 0 is_stmt 0 discriminator 1
 413 000e 002A     		cmp	r2, #0
 414 0010 47D0     		beq	.L40
 415              	.LVL49:
 285:Source\LwIP\src\core/raw.c ****     return ERR_VAL;
 286:Source\LwIP\src\core/raw.c ****   }
 287:Source\LwIP\src\core/raw.c **** 
 288:Source\LwIP\src\core/raw.c ****   LWIP_DEBUGF(RAW_DEBUG | LWIP_DBG_TRACE, ("raw_sendto\n"));
 289:Source\LwIP\src\core/raw.c **** 
 290:Source\LwIP\src\core/raw.c ****   header_size = (
 291:Source\LwIP\src\core/raw.c **** #if LWIP_IPV4 && LWIP_IPV6
 292:Source\LwIP\src\core/raw.c ****     IP_IS_V6(ipaddr) ? IP6_HLEN : IP_HLEN);
 293:Source\LwIP\src\core/raw.c **** #elif LWIP_IPV4
 294:Source\LwIP\src\core/raw.c ****     IP_HLEN);
 295:Source\LwIP\src\core/raw.c **** #else
 296:Source\LwIP\src\core/raw.c ****     IP6_HLEN);
 297:Source\LwIP\src\core/raw.c **** #endif
 298:Source\LwIP\src\core/raw.c **** 
 299:Source\LwIP\src\core/raw.c ****   /* not enough space to add an IP header to first pbuf in given p chain? */
 300:Source\LwIP\src\core/raw.c ****   if (pbuf_header(p, header_size)) {
 416              		.loc 1 300 0 is_stmt 1
 417 0012 1421     		movs	r1, #20
 418              	.LVL50:
 419 0014 2800     		movs	r0, r5
 420              	.LVL51:
 421 0016 FFF7FEFF 		bl	pbuf_header
 422              	.LVL52:
 423 001a 0028     		cmp	r0, #0
 424 001c 0DD0     		beq	.L34
 301:Source\LwIP\src\core/raw.c ****     /* allocate header in new pbuf */
ARM GAS  C:\Users\Phuong\AppData\Local\Temp\ccGaiFxI.s 			page 14


 302:Source\LwIP\src\core/raw.c ****     q = pbuf_alloc(PBUF_IP, 0, PBUF_RAM);
 425              		.loc 1 302 0
 426 001e 0022     		movs	r2, #0
 427 0020 0021     		movs	r1, #0
 428 0022 0120     		movs	r0, #1
 429 0024 FFF7FEFF 		bl	pbuf_alloc
 430              	.LVL53:
 431 0028 061E     		subs	r6, r0, #0
 432              	.LVL54:
 303:Source\LwIP\src\core/raw.c ****     /* new header pbuf could not be allocated? */
 304:Source\LwIP\src\core/raw.c ****     if (q == NULL) {
 433              		.loc 1 304 0
 434 002a 3DD0     		beq	.L41
 305:Source\LwIP\src\core/raw.c ****       LWIP_DEBUGF(RAW_DEBUG | LWIP_DBG_TRACE | LWIP_DBG_LEVEL_SERIOUS, ("raw_sendto: could not allo
 306:Source\LwIP\src\core/raw.c ****       return ERR_MEM;
 307:Source\LwIP\src\core/raw.c ****     }
 308:Source\LwIP\src\core/raw.c ****     if (p->tot_len != 0) {
 435              		.loc 1 308 0
 436 002c 2B89     		ldrh	r3, [r5, #8]
 437 002e 002B     		cmp	r3, #0
 438 0030 0BD0     		beq	.L35
 309:Source\LwIP\src\core/raw.c ****       /* chain header q in front of given pbuf p */
 310:Source\LwIP\src\core/raw.c ****       pbuf_chain(q, p);
 439              		.loc 1 310 0
 440 0032 2900     		movs	r1, r5
 441 0034 FFF7FEFF 		bl	pbuf_chain
 442              	.LVL55:
 443 0038 07E0     		b	.L35
 444              	.LVL56:
 445              	.L34:
 311:Source\LwIP\src\core/raw.c ****     }
 312:Source\LwIP\src\core/raw.c ****     /* { first pbuf q points to header pbuf } */
 313:Source\LwIP\src\core/raw.c ****     LWIP_DEBUGF(RAW_DEBUG, ("raw_sendto: added header pbuf %p before given pbuf %p\n", (void *)q, (
 314:Source\LwIP\src\core/raw.c ****   } else {
 315:Source\LwIP\src\core/raw.c ****     /* first pbuf q equals given pbuf */
 316:Source\LwIP\src\core/raw.c ****     q = p;
 317:Source\LwIP\src\core/raw.c ****     if (pbuf_header(q, -header_size)) {
 446              		.loc 1 317 0
 447 003a 1421     		movs	r1, #20
 448 003c 4942     		rsbs	r1, r1, #0
 449 003e 2800     		movs	r0, r5
 450 0040 FFF7FEFF 		bl	pbuf_header
 451              	.LVL57:
 452 0044 0028     		cmp	r0, #0
 453 0046 32D1     		bne	.L42
 316:Source\LwIP\src\core/raw.c ****     if (pbuf_header(q, -header_size)) {
 454              		.loc 1 316 0
 455 0048 2E00     		movs	r6, r5
 456              	.LVL58:
 457              	.L35:
 318:Source\LwIP\src\core/raw.c ****       LWIP_ASSERT("Can't restore header we just removed!", 0);
 319:Source\LwIP\src\core/raw.c ****       return ERR_MEM;
 320:Source\LwIP\src\core/raw.c ****     }
 321:Source\LwIP\src\core/raw.c ****   }
 322:Source\LwIP\src\core/raw.c **** 
 323:Source\LwIP\src\core/raw.c ****   if(IP_IS_ANY_TYPE_VAL(pcb->local_ip)) {
 324:Source\LwIP\src\core/raw.c ****     /* Don't call ip_route() with IP_ANY_TYPE */
ARM GAS  C:\Users\Phuong\AppData\Local\Temp\ccGaiFxI.s 			page 15


 325:Source\LwIP\src\core/raw.c ****     netif = ip_route(IP46_ADDR_ANY(IP_GET_TYPE(ipaddr)), ipaddr);
 326:Source\LwIP\src\core/raw.c ****   } else {
 327:Source\LwIP\src\core/raw.c ****     netif = ip_route(&pcb->local_ip, ipaddr);
 458              		.loc 1 327 0
 459 004a 3800     		movs	r0, r7
 460 004c FFF7FEFF 		bl	ip4_route
 461              	.LVL59:
 328:Source\LwIP\src\core/raw.c ****   }
 329:Source\LwIP\src\core/raw.c **** 
 330:Source\LwIP\src\core/raw.c ****   if (netif == NULL) {
 462              		.loc 1 330 0
 463 0050 0028     		cmp	r0, #0
 464 0052 07D1     		bne	.L36
 331:Source\LwIP\src\core/raw.c ****     LWIP_DEBUGF(RAW_DEBUG | LWIP_DBG_LEVEL_WARNING, ("raw_sendto: No route to "));
 332:Source\LwIP\src\core/raw.c ****     ip_addr_debug_print(RAW_DEBUG | LWIP_DBG_LEVEL_WARNING, ipaddr);
 333:Source\LwIP\src\core/raw.c ****     /* free any temporary header pbuf allocated by pbuf_header() */
 334:Source\LwIP\src\core/raw.c ****     if (q != p) {
 465              		.loc 1 334 0
 466 0054 AE42     		cmp	r6, r5
 467 0056 2DD0     		beq	.L43
 335:Source\LwIP\src\core/raw.c ****       pbuf_free(q);
 468              		.loc 1 335 0
 469 0058 3000     		movs	r0, r6
 470              	.LVL60:
 471 005a FFF7FEFF 		bl	pbuf_free
 472              	.LVL61:
 336:Source\LwIP\src\core/raw.c ****     }
 337:Source\LwIP\src\core/raw.c ****     return ERR_RTE;
 473              		.loc 1 337 0
 474 005e 0420     		movs	r0, #4
 475 0060 4042     		rsbs	r0, r0, #0
 476 0062 2AE0     		b	.L33
 477              	.LVL62:
 478              	.L36:
 338:Source\LwIP\src\core/raw.c ****   }
 339:Source\LwIP\src\core/raw.c **** 
 340:Source\LwIP\src\core/raw.c **** #if IP_SOF_BROADCAST
 341:Source\LwIP\src\core/raw.c ****   if (IP_IS_V4(ipaddr))
 342:Source\LwIP\src\core/raw.c ****   {
 343:Source\LwIP\src\core/raw.c ****     /* broadcast filter? */
 344:Source\LwIP\src\core/raw.c ****     if (!ip_get_option(pcb, SOF_BROADCAST) && ip_addr_isbroadcast(ipaddr, netif)) {
 345:Source\LwIP\src\core/raw.c ****       LWIP_DEBUGF(RAW_DEBUG | LWIP_DBG_LEVEL_WARNING, ("raw_sendto: SOF_BROADCAST not enabled on pc
 346:Source\LwIP\src\core/raw.c ****       /* free any temporary header pbuf allocated by pbuf_header() */
 347:Source\LwIP\src\core/raw.c ****       if (q != p) {
 348:Source\LwIP\src\core/raw.c ****         pbuf_free(q);
 349:Source\LwIP\src\core/raw.c ****       }
 350:Source\LwIP\src\core/raw.c ****       return ERR_VAL;
 351:Source\LwIP\src\core/raw.c ****     }
 352:Source\LwIP\src\core/raw.c ****   }
 353:Source\LwIP\src\core/raw.c **** #endif /* IP_SOF_BROADCAST */
 354:Source\LwIP\src\core/raw.c **** 
 355:Source\LwIP\src\core/raw.c ****   if (ip_addr_isany(&pcb->local_ip)) {
 479              		.loc 1 355 0
 480 0064 211E     		subs	r1, r4, #0
 481 0066 02D0     		beq	.L37
 482              	.LVL63:
 483              		.loc 1 355 0 is_stmt 0 discriminator 1
ARM GAS  C:\Users\Phuong\AppData\Local\Temp\ccGaiFxI.s 			page 16


 484 0068 2368     		ldr	r3, [r4]
 485 006a 002B     		cmp	r3, #0
 486 006c 04D1     		bne	.L38
 487              	.L37:
 356:Source\LwIP\src\core/raw.c ****     /* use outgoing network interface IP address as source address */
 357:Source\LwIP\src\core/raw.c ****     src_ip = ip_netif_get_local_ip(netif, ipaddr);
 488              		.loc 1 357 0 is_stmt 1
 489 006e 0028     		cmp	r0, #0
 490 0070 01D0     		beq	.L44
 491              		.loc 1 357 0 is_stmt 0 discriminator 1
 492 0072 011D     		adds	r1, r0, #4
 493              	.LVL64:
 494 0074 00E0     		b	.L38
 495              	.LVL65:
 496              	.L44:
 497              		.loc 1 357 0
 498 0076 0021     		movs	r1, #0
 499              	.LVL66:
 500              	.L38:
 358:Source\LwIP\src\core/raw.c **** #if LWIP_IPV6
 359:Source\LwIP\src\core/raw.c ****     if (src_ip == NULL) {
 360:Source\LwIP\src\core/raw.c ****       if (q != p) {
 361:Source\LwIP\src\core/raw.c ****         pbuf_free(q);
 362:Source\LwIP\src\core/raw.c ****       }
 363:Source\LwIP\src\core/raw.c ****       return ERR_RTE;
 364:Source\LwIP\src\core/raw.c ****     }
 365:Source\LwIP\src\core/raw.c **** #endif /* LWIP_IPV6 */
 366:Source\LwIP\src\core/raw.c ****   } else {
 367:Source\LwIP\src\core/raw.c ****     /* use RAW PCB local IP address as source address */
 368:Source\LwIP\src\core/raw.c ****     src_ip = &pcb->local_ip;
 369:Source\LwIP\src\core/raw.c ****   }
 370:Source\LwIP\src\core/raw.c **** 
 371:Source\LwIP\src\core/raw.c **** #if LWIP_IPV6
 372:Source\LwIP\src\core/raw.c ****   /* If requested, based on the IPV6_CHECKSUM socket option per RFC3542,
 373:Source\LwIP\src\core/raw.c ****      compute the checksum and update the checksum in the payload. */
 374:Source\LwIP\src\core/raw.c ****   if (IP_IS_V6(ipaddr) && pcb->chksum_reqd) {
 375:Source\LwIP\src\core/raw.c ****     u16_t chksum = ip6_chksum_pseudo(p, pcb->protocol, p->tot_len, ip_2_ip6(src_ip), ip_2_ip6(ipadd
 376:Source\LwIP\src\core/raw.c ****     LWIP_ASSERT("Checksum must fit into first pbuf", p->len >= (pcb->chksum_offset + 2));
 377:Source\LwIP\src\core/raw.c ****     SMEMCPY(((u8_t *)p->payload) + pcb->chksum_offset, &chksum, sizeof(u16_t));
 378:Source\LwIP\src\core/raw.c ****   }
 379:Source\LwIP\src\core/raw.c **** #endif
 380:Source\LwIP\src\core/raw.c **** 
 381:Source\LwIP\src\core/raw.c ****   NETIF_SET_HWADDRHINT(netif, &pcb->addr_hint);
 382:Source\LwIP\src\core/raw.c ****   err = ip_output_if(q, src_ip, ipaddr, pcb->ttl, pcb->tos, pcb->protocol, netif);
 501              		.loc 1 382 0 is_stmt 1
 502 0078 A37A     		ldrb	r3, [r4, #10]
 503 007a 627A     		ldrb	r2, [r4, #9]
 504 007c 247C     		ldrb	r4, [r4, #16]
 505              	.LVL67:
 506 007e 0290     		str	r0, [sp, #8]
 507 0080 0194     		str	r4, [sp, #4]
 508 0082 0092     		str	r2, [sp]
 509 0084 3A00     		movs	r2, r7
 510 0086 3000     		movs	r0, r6
 511              	.LVL68:
 512 0088 FFF7FEFF 		bl	ip4_output_if
 513              	.LVL69:
ARM GAS  C:\Users\Phuong\AppData\Local\Temp\ccGaiFxI.s 			page 17


 514 008c 0400     		movs	r4, r0
 515              	.LVL70:
 383:Source\LwIP\src\core/raw.c ****   NETIF_SET_HWADDRHINT(netif, NULL);
 384:Source\LwIP\src\core/raw.c **** 
 385:Source\LwIP\src\core/raw.c ****   /* did we chain a header earlier? */
 386:Source\LwIP\src\core/raw.c ****   if (q != p) {
 516              		.loc 1 386 0
 517 008e AE42     		cmp	r6, r5
 518 0090 13D0     		beq	.L45
 387:Source\LwIP\src\core/raw.c ****     /* free the header */
 388:Source\LwIP\src\core/raw.c ****     pbuf_free(q);
 519              		.loc 1 388 0
 520 0092 3000     		movs	r0, r6
 521              	.LVL71:
 522 0094 FFF7FEFF 		bl	pbuf_free
 523              	.LVL72:
 389:Source\LwIP\src\core/raw.c ****   }
 390:Source\LwIP\src\core/raw.c ****   return err;
 524              		.loc 1 390 0
 525 0098 2000     		movs	r0, r4
 526 009a 0EE0     		b	.L33
 527              	.LVL73:
 528              	.L39:
 285:Source\LwIP\src\core/raw.c ****   }
 529              		.loc 1 285 0
 530 009c 0620     		movs	r0, #6
 531              	.LVL74:
 532 009e 4042     		rsbs	r0, r0, #0
 533 00a0 0BE0     		b	.L33
 534              	.LVL75:
 535              	.L40:
 536 00a2 0620     		movs	r0, #6
 537              	.LVL76:
 538 00a4 4042     		rsbs	r0, r0, #0
 539 00a6 08E0     		b	.L33
 540              	.LVL77:
 541              	.L41:
 306:Source\LwIP\src\core/raw.c ****     }
 542              		.loc 1 306 0
 543 00a8 0120     		movs	r0, #1
 544              	.LVL78:
 545 00aa 4042     		rsbs	r0, r0, #0
 546 00ac 05E0     		b	.L33
 547              	.LVL79:
 548              	.L42:
 319:Source\LwIP\src\core/raw.c ****     }
 549              		.loc 1 319 0
 550 00ae 0120     		movs	r0, #1
 551 00b0 4042     		rsbs	r0, r0, #0
 552 00b2 02E0     		b	.L33
 553              	.LVL80:
 554              	.L43:
 337:Source\LwIP\src\core/raw.c ****   }
 555              		.loc 1 337 0
 556 00b4 0420     		movs	r0, #4
 557              	.LVL81:
 558 00b6 4042     		rsbs	r0, r0, #0
ARM GAS  C:\Users\Phuong\AppData\Local\Temp\ccGaiFxI.s 			page 18


 559 00b8 FFE7     		b	.L33
 560              	.LVL82:
 561              	.L45:
 562              	.L33:
 391:Source\LwIP\src\core/raw.c **** }
 563              		.loc 1 391 0
 564 00ba 05B0     		add	sp, sp, #20
 565              		@ sp needed
 566              	.LVL83:
 567              	.LVL84:
 568 00bc F0BD     		pop	{r4, r5, r6, r7, pc}
 569              		.cfi_endproc
 570              	.LFE58:
 571              		.size	raw_sendto, .-raw_sendto
 572 00be C046     		.section	.text.raw_send,"ax",%progbits
 573              		.align	2
 574              		.global	raw_send
 575              		.code	16
 576              		.thumb_func
 577              		.type	raw_send, %function
 578              	raw_send:
 579              	.LFB59:
 392:Source\LwIP\src\core/raw.c **** 
 393:Source\LwIP\src\core/raw.c **** /**
 394:Source\LwIP\src\core/raw.c ****  * @ingroup raw_raw
 395:Source\LwIP\src\core/raw.c ****  * Send the raw IP packet to the address given by raw_connect()
 396:Source\LwIP\src\core/raw.c ****  *
 397:Source\LwIP\src\core/raw.c ****  * @param pcb the raw pcb which to send
 398:Source\LwIP\src\core/raw.c ****  * @param p the IP payload to send
 399:Source\LwIP\src\core/raw.c ****  *
 400:Source\LwIP\src\core/raw.c ****  */
 401:Source\LwIP\src\core/raw.c **** err_t
 402:Source\LwIP\src\core/raw.c **** raw_send(struct raw_pcb *pcb, struct pbuf *p)
 403:Source\LwIP\src\core/raw.c **** {
 580              		.loc 1 403 0
 581              		.cfi_startproc
 582              		@ args = 0, pretend = 0, frame = 0
 583              		@ frame_needed = 0, uses_anonymous_args = 0
 584              	.LVL85:
 585 0000 10B5     		push	{r4, lr}
 586              		.cfi_def_cfa_offset 8
 587              		.cfi_offset 4, -8
 588              		.cfi_offset 14, -4
 404:Source\LwIP\src\core/raw.c ****   return raw_sendto(pcb, p, &pcb->remote_ip);
 589              		.loc 1 404 0
 590 0002 021D     		adds	r2, r0, #4
 591 0004 FFF7FEFF 		bl	raw_sendto
 592              	.LVL86:
 405:Source\LwIP\src\core/raw.c **** }
 593              		.loc 1 405 0
 594              		@ sp needed
 595 0008 10BD     		pop	{r4, pc}
 596              		.cfi_endproc
 597              	.LFE59:
 598              		.size	raw_send, .-raw_send
 599 000a C046     		.section	.text.raw_remove,"ax",%progbits
 600              		.align	2
ARM GAS  C:\Users\Phuong\AppData\Local\Temp\ccGaiFxI.s 			page 19


 601              		.global	raw_remove
 602              		.code	16
 603              		.thumb_func
 604              		.type	raw_remove, %function
 605              	raw_remove:
 606              	.LFB60:
 406:Source\LwIP\src\core/raw.c **** 
 407:Source\LwIP\src\core/raw.c **** /**
 408:Source\LwIP\src\core/raw.c ****  * @ingroup raw_raw
 409:Source\LwIP\src\core/raw.c ****  * Remove an RAW PCB.
 410:Source\LwIP\src\core/raw.c ****  *
 411:Source\LwIP\src\core/raw.c ****  * @param pcb RAW PCB to be removed. The PCB is removed from the list of
 412:Source\LwIP\src\core/raw.c ****  * RAW PCB's and the data structure is freed from memory.
 413:Source\LwIP\src\core/raw.c ****  *
 414:Source\LwIP\src\core/raw.c ****  * @see raw_new()
 415:Source\LwIP\src\core/raw.c ****  */
 416:Source\LwIP\src\core/raw.c **** void
 417:Source\LwIP\src\core/raw.c **** raw_remove(struct raw_pcb *pcb)
 418:Source\LwIP\src\core/raw.c **** {
 607              		.loc 1 418 0
 608              		.cfi_startproc
 609              		@ args = 0, pretend = 0, frame = 0
 610              		@ frame_needed = 0, uses_anonymous_args = 0
 611              	.LVL87:
 612 0000 10B5     		push	{r4, lr}
 613              		.cfi_def_cfa_offset 8
 614              		.cfi_offset 4, -8
 615              		.cfi_offset 14, -4
 616 0002 0100     		movs	r1, r0
 419:Source\LwIP\src\core/raw.c ****   struct raw_pcb *pcb2;
 420:Source\LwIP\src\core/raw.c ****   /* pcb to be removed is first in list? */
 421:Source\LwIP\src\core/raw.c ****   if (raw_pcbs == pcb) {
 617              		.loc 1 421 0
 618 0004 0B4B     		ldr	r3, .L53
 619 0006 1A68     		ldr	r2, [r3]
 620 0008 8242     		cmp	r2, r0
 621 000a 0DD1     		bne	.L48
 422:Source\LwIP\src\core/raw.c ****     /* make list start at 2nd pcb */
 423:Source\LwIP\src\core/raw.c ****     raw_pcbs = raw_pcbs->next;
 622              		.loc 1 423 0
 623 000c D268     		ldr	r2, [r2, #12]
 624 000e 1A60     		str	r2, [r3]
 625 0010 0CE0     		b	.L49
 626              	.LVL88:
 627              	.L50:
 424:Source\LwIP\src\core/raw.c ****     /* pcb not 1st in list */
 425:Source\LwIP\src\core/raw.c ****   } else {
 426:Source\LwIP\src\core/raw.c ****     for (pcb2 = raw_pcbs; pcb2 != NULL; pcb2 = pcb2->next) {
 427:Source\LwIP\src\core/raw.c ****       /* find pcb in raw_pcbs list */
 428:Source\LwIP\src\core/raw.c ****       if (pcb2->next != NULL && pcb2->next == pcb) {
 628              		.loc 1 428 0
 629 0012 D368     		ldr	r3, [r2, #12]
 630 0014 002B     		cmp	r3, #0
 631 0016 04D0     		beq	.L51
 632              		.loc 1 428 0 is_stmt 0 discriminator 1
 633 0018 9942     		cmp	r1, r3
 634 001a 04D1     		bne	.L52
ARM GAS  C:\Users\Phuong\AppData\Local\Temp\ccGaiFxI.s 			page 20


 429:Source\LwIP\src\core/raw.c ****         /* remove pcb from list */
 430:Source\LwIP\src\core/raw.c ****         pcb2->next = pcb->next;
 635              		.loc 1 430 0 is_stmt 1
 636 001c CB68     		ldr	r3, [r1, #12]
 637 001e D360     		str	r3, [r2, #12]
 431:Source\LwIP\src\core/raw.c ****         break;
 638              		.loc 1 431 0
 639 0020 04E0     		b	.L49
 640              	.L51:
 641 0022 1A00     		movs	r2, r3
 642              	.LVL89:
 643 0024 00E0     		b	.L48
 644              	.LVL90:
 645              	.L52:
 646 0026 1A00     		movs	r2, r3
 647              	.LVL91:
 648              	.L48:
 426:Source\LwIP\src\core/raw.c ****       /* find pcb in raw_pcbs list */
 649              		.loc 1 426 0 discriminator 1
 650 0028 002A     		cmp	r2, #0
 651 002a F2D1     		bne	.L50
 652              	.LVL92:
 653              	.L49:
 432:Source\LwIP\src\core/raw.c ****       }
 433:Source\LwIP\src\core/raw.c ****     }
 434:Source\LwIP\src\core/raw.c ****   }
 435:Source\LwIP\src\core/raw.c ****   memp_free(MEMP_RAW_PCB, pcb);
 654              		.loc 1 435 0
 655 002c 0020     		movs	r0, #0
 656              	.LVL93:
 657 002e FFF7FEFF 		bl	memp_free
 658              	.LVL94:
 436:Source\LwIP\src\core/raw.c **** }
 659              		.loc 1 436 0
 660              		@ sp needed
 661 0032 10BD     		pop	{r4, pc}
 662              	.L54:
 663              		.align	2
 664              	.L53:
 665 0034 00000000 		.word	.LANCHOR0
 666              		.cfi_endproc
 667              	.LFE60:
 668              		.size	raw_remove, .-raw_remove
 669              		.section	.text.raw_new,"ax",%progbits
 670              		.align	2
 671              		.global	raw_new
 672              		.code	16
 673              		.thumb_func
 674              		.type	raw_new, %function
 675              	raw_new:
 676              	.LFB61:
 437:Source\LwIP\src\core/raw.c **** 
 438:Source\LwIP\src\core/raw.c **** /**
 439:Source\LwIP\src\core/raw.c ****  * @ingroup raw_raw
 440:Source\LwIP\src\core/raw.c ****  * Create a RAW PCB.
 441:Source\LwIP\src\core/raw.c ****  *
 442:Source\LwIP\src\core/raw.c ****  * @return The RAW PCB which was created. NULL if the PCB data structure
ARM GAS  C:\Users\Phuong\AppData\Local\Temp\ccGaiFxI.s 			page 21


 443:Source\LwIP\src\core/raw.c ****  * could not be allocated.
 444:Source\LwIP\src\core/raw.c ****  *
 445:Source\LwIP\src\core/raw.c ****  * @param proto the protocol number of the IPs payload (e.g. IP_PROTO_ICMP)
 446:Source\LwIP\src\core/raw.c ****  *
 447:Source\LwIP\src\core/raw.c ****  * @see raw_remove()
 448:Source\LwIP\src\core/raw.c ****  */
 449:Source\LwIP\src\core/raw.c **** struct raw_pcb *
 450:Source\LwIP\src\core/raw.c **** raw_new(u8_t proto)
 451:Source\LwIP\src\core/raw.c **** {
 677              		.loc 1 451 0
 678              		.cfi_startproc
 679              		@ args = 0, pretend = 0, frame = 0
 680              		@ frame_needed = 0, uses_anonymous_args = 0
 681              	.LVL95:
 682 0000 70B5     		push	{r4, r5, r6, lr}
 683              		.cfi_def_cfa_offset 16
 684              		.cfi_offset 4, -16
 685              		.cfi_offset 5, -12
 686              		.cfi_offset 6, -8
 687              		.cfi_offset 14, -4
 688 0002 0500     		movs	r5, r0
 452:Source\LwIP\src\core/raw.c ****   struct raw_pcb *pcb;
 453:Source\LwIP\src\core/raw.c **** 
 454:Source\LwIP\src\core/raw.c ****   LWIP_DEBUGF(RAW_DEBUG | LWIP_DBG_TRACE, ("raw_new\n"));
 455:Source\LwIP\src\core/raw.c **** 
 456:Source\LwIP\src\core/raw.c ****   pcb = (struct raw_pcb *)memp_malloc(MEMP_RAW_PCB);
 689              		.loc 1 456 0
 690 0004 E422     		movs	r2, #228
 691 0006 5200     		lsls	r2, r2, #1
 692 0008 0949     		ldr	r1, .L57
 693 000a 0020     		movs	r0, #0
 694              	.LVL96:
 695 000c FFF7FEFF 		bl	memp_malloc_fn
 696              	.LVL97:
 697 0010 041E     		subs	r4, r0, #0
 698              	.LVL98:
 457:Source\LwIP\src\core/raw.c ****   /* could allocate RAW PCB? */
 458:Source\LwIP\src\core/raw.c ****   if (pcb != NULL) {
 699              		.loc 1 458 0
 700 0012 0AD0     		beq	.L56
 459:Source\LwIP\src\core/raw.c ****     /* initialize PCB to all zeroes */
 460:Source\LwIP\src\core/raw.c ****     memset(pcb, 0, sizeof(struct raw_pcb));
 701              		.loc 1 460 0
 702 0014 1C22     		movs	r2, #28
 703 0016 0021     		movs	r1, #0
 704 0018 FFF7FEFF 		bl	memset
 705              	.LVL99:
 461:Source\LwIP\src\core/raw.c ****     pcb->protocol = proto;
 706              		.loc 1 461 0
 707 001c 2574     		strb	r5, [r4, #16]
 462:Source\LwIP\src\core/raw.c ****     pcb->ttl = RAW_TTL;
 708              		.loc 1 462 0
 709 001e FF23     		movs	r3, #255
 710 0020 A372     		strb	r3, [r4, #10]
 463:Source\LwIP\src\core/raw.c ****     pcb->next = raw_pcbs;
 711              		.loc 1 463 0
 712 0022 044B     		ldr	r3, .L57+4
ARM GAS  C:\Users\Phuong\AppData\Local\Temp\ccGaiFxI.s 			page 22


 713 0024 1A68     		ldr	r2, [r3]
 714 0026 E260     		str	r2, [r4, #12]
 464:Source\LwIP\src\core/raw.c ****     raw_pcbs = pcb;
 715              		.loc 1 464 0
 716 0028 1C60     		str	r4, [r3]
 717              	.L56:
 465:Source\LwIP\src\core/raw.c ****   }
 466:Source\LwIP\src\core/raw.c ****   return pcb;
 467:Source\LwIP\src\core/raw.c **** }
 718              		.loc 1 467 0
 719 002a 2000     		movs	r0, r4
 720              		@ sp needed
 721              	.LVL100:
 722 002c 70BD     		pop	{r4, r5, r6, pc}
 723              	.L58:
 724 002e C046     		.align	2
 725              	.L57:
 726 0030 00000000 		.word	.LC5
 727 0034 00000000 		.word	.LANCHOR0
 728              		.cfi_endproc
 729              	.LFE61:
 730              		.size	raw_new, .-raw_new
 731              		.section	.text.raw_new_ip_type,"ax",%progbits
 732              		.align	2
 733              		.global	raw_new_ip_type
 734              		.code	16
 735              		.thumb_func
 736              		.type	raw_new_ip_type, %function
 737              	raw_new_ip_type:
 738              	.LFB62:
 468:Source\LwIP\src\core/raw.c **** 
 469:Source\LwIP\src\core/raw.c **** /**
 470:Source\LwIP\src\core/raw.c ****  * @ingroup raw_raw
 471:Source\LwIP\src\core/raw.c ****  * Create a RAW PCB for specific IP type.
 472:Source\LwIP\src\core/raw.c ****  *
 473:Source\LwIP\src\core/raw.c ****  * @return The RAW PCB which was created. NULL if the PCB data structure
 474:Source\LwIP\src\core/raw.c ****  * could not be allocated.
 475:Source\LwIP\src\core/raw.c ****  *
 476:Source\LwIP\src\core/raw.c ****  * @param type IP address type, see @ref lwip_ip_addr_type definitions.
 477:Source\LwIP\src\core/raw.c ****  * If you want to listen to IPv4 and IPv6 (dual-stack) packets,
 478:Source\LwIP\src\core/raw.c ****  * supply @ref IPADDR_TYPE_ANY as argument and bind to @ref IP_ANY_TYPE.
 479:Source\LwIP\src\core/raw.c ****  * @param proto the protocol number (next header) of the IPv6 packet payload
 480:Source\LwIP\src\core/raw.c ****  *              (e.g. IP6_NEXTH_ICMP6)
 481:Source\LwIP\src\core/raw.c ****  *
 482:Source\LwIP\src\core/raw.c ****  * @see raw_remove()
 483:Source\LwIP\src\core/raw.c ****  */
 484:Source\LwIP\src\core/raw.c **** struct raw_pcb *
 485:Source\LwIP\src\core/raw.c **** raw_new_ip_type(u8_t type, u8_t proto)
 486:Source\LwIP\src\core/raw.c **** {
 739              		.loc 1 486 0
 740              		.cfi_startproc
 741              		@ args = 0, pretend = 0, frame = 0
 742              		@ frame_needed = 0, uses_anonymous_args = 0
 743              	.LVL101:
 744 0000 10B5     		push	{r4, lr}
 745              		.cfi_def_cfa_offset 8
 746              		.cfi_offset 4, -8
ARM GAS  C:\Users\Phuong\AppData\Local\Temp\ccGaiFxI.s 			page 23


 747              		.cfi_offset 14, -4
 487:Source\LwIP\src\core/raw.c ****   struct raw_pcb *pcb;
 488:Source\LwIP\src\core/raw.c ****   pcb = raw_new(proto);
 748              		.loc 1 488 0
 749 0002 0800     		movs	r0, r1
 750              	.LVL102:
 751 0004 FFF7FEFF 		bl	raw_new
 752              	.LVL103:
 489:Source\LwIP\src\core/raw.c **** #if LWIP_IPV4 && LWIP_IPV6
 490:Source\LwIP\src\core/raw.c ****   if (pcb != NULL) {
 491:Source\LwIP\src\core/raw.c ****     IP_SET_TYPE_VAL(pcb->local_ip,  type);
 492:Source\LwIP\src\core/raw.c ****     IP_SET_TYPE_VAL(pcb->remote_ip, type);
 493:Source\LwIP\src\core/raw.c ****   }
 494:Source\LwIP\src\core/raw.c **** #else /* LWIP_IPV4 && LWIP_IPV6 */
 495:Source\LwIP\src\core/raw.c ****   LWIP_UNUSED_ARG(type);
 496:Source\LwIP\src\core/raw.c **** #endif /* LWIP_IPV4 && LWIP_IPV6 */
 497:Source\LwIP\src\core/raw.c ****   return pcb;
 498:Source\LwIP\src\core/raw.c **** }
 753              		.loc 1 498 0
 754              		@ sp needed
 755 0008 10BD     		pop	{r4, pc}
 756              		.cfi_endproc
 757              	.LFE62:
 758              		.size	raw_new_ip_type, .-raw_new_ip_type
 759 000a C046     		.section	.text.raw_netif_ip_addr_changed,"ax",%progbits
 760              		.align	2
 761              		.global	raw_netif_ip_addr_changed
 762              		.code	16
 763              		.thumb_func
 764              		.type	raw_netif_ip_addr_changed, %function
 765              	raw_netif_ip_addr_changed:
 766              	.LFB63:
 499:Source\LwIP\src\core/raw.c **** 
 500:Source\LwIP\src\core/raw.c **** /** This function is called from netif.c when address is changed
 501:Source\LwIP\src\core/raw.c ****  *
 502:Source\LwIP\src\core/raw.c ****  * @param old_addr IP address of the netif before change
 503:Source\LwIP\src\core/raw.c ****  * @param new_addr IP address of the netif after change
 504:Source\LwIP\src\core/raw.c ****  */
 505:Source\LwIP\src\core/raw.c **** void raw_netif_ip_addr_changed(const ip_addr_t* old_addr, const ip_addr_t* new_addr)
 506:Source\LwIP\src\core/raw.c **** {
 767              		.loc 1 506 0
 768              		.cfi_startproc
 769              		@ args = 0, pretend = 0, frame = 0
 770              		@ frame_needed = 0, uses_anonymous_args = 0
 771              	.LVL104:
 772 0000 10B5     		push	{r4, lr}
 773              		.cfi_def_cfa_offset 8
 774              		.cfi_offset 4, -8
 775              		.cfi_offset 14, -4
 507:Source\LwIP\src\core/raw.c ****   struct raw_pcb* rpcb;
 508:Source\LwIP\src\core/raw.c **** 
 509:Source\LwIP\src\core/raw.c ****   if (!ip_addr_isany(old_addr) && !ip_addr_isany(new_addr)) {
 776              		.loc 1 509 0
 777 0002 0028     		cmp	r0, #0
 778 0004 13D0     		beq	.L60
 779              		.loc 1 509 0 is_stmt 0 discriminator 1
 780 0006 0368     		ldr	r3, [r0]
ARM GAS  C:\Users\Phuong\AppData\Local\Temp\ccGaiFxI.s 			page 24


 781 0008 002B     		cmp	r3, #0
 782 000a 10D0     		beq	.L60
 783              		.loc 1 509 0 discriminator 2
 784 000c 0029     		cmp	r1, #0
 785 000e 0ED0     		beq	.L60
 786              		.loc 1 509 0 discriminator 3
 787 0010 0B68     		ldr	r3, [r1]
 788 0012 002B     		cmp	r3, #0
 789 0014 0BD0     		beq	.L60
 510:Source\LwIP\src\core/raw.c ****     for (rpcb = raw_pcbs; rpcb != NULL; rpcb = rpcb->next) {
 790              		.loc 1 510 0 is_stmt 1
 791 0016 064B     		ldr	r3, .L65
 792 0018 1B68     		ldr	r3, [r3]
 793              	.LVL105:
 794 001a 06E0     		b	.L62
 795              	.L64:
 511:Source\LwIP\src\core/raw.c ****       /* PCB bound to current local interface address? */
 512:Source\LwIP\src\core/raw.c ****       if (ip_addr_cmp(&rpcb->local_ip, old_addr)) {
 796              		.loc 1 512 0
 797 001c 1A68     		ldr	r2, [r3]
 798 001e 0468     		ldr	r4, [r0]
 799 0020 A242     		cmp	r2, r4
 800 0022 01D1     		bne	.L63
 513:Source\LwIP\src\core/raw.c ****         /* The PCB is bound to the old ipaddr and
 514:Source\LwIP\src\core/raw.c ****          * is set to bound to the new one instead */
 515:Source\LwIP\src\core/raw.c ****         ip_addr_copy(rpcb->local_ip, *new_addr);
 801              		.loc 1 515 0
 802 0024 0A68     		ldr	r2, [r1]
 803 0026 1A60     		str	r2, [r3]
 804              	.L63:
 510:Source\LwIP\src\core/raw.c ****       /* PCB bound to current local interface address? */
 805              		.loc 1 510 0 discriminator 2
 806 0028 DB68     		ldr	r3, [r3, #12]
 807              	.LVL106:
 808              	.L62:
 510:Source\LwIP\src\core/raw.c ****       /* PCB bound to current local interface address? */
 809              		.loc 1 510 0 is_stmt 0 discriminator 1
 810 002a 002B     		cmp	r3, #0
 811 002c F6D1     		bne	.L64
 812              	.LVL107:
 813              	.L60:
 516:Source\LwIP\src\core/raw.c ****       }
 517:Source\LwIP\src\core/raw.c ****     }
 518:Source\LwIP\src\core/raw.c ****   }
 519:Source\LwIP\src\core/raw.c **** }
 814              		.loc 1 519 0 is_stmt 1
 815              		@ sp needed
 816 002e 10BD     		pop	{r4, pc}
 817              	.L66:
 818              		.align	2
 819              	.L65:
 820 0030 00000000 		.word	.LANCHOR0
 821              		.cfi_endproc
 822              	.LFE63:
 823              		.size	raw_netif_ip_addr_changed, .-raw_netif_ip_addr_changed
 824              		.section	.rodata.str1.4,"aMS",%progbits,1
 825              		.align	2
ARM GAS  C:\Users\Phuong\AppData\Local\Temp\ccGaiFxI.s 			page 25


 826              	.LC5:
 827 0000 536F7572 		.ascii	"Source\\LwIP\\src\\core\\raw.c\000"
 827      63655C4C 
 827      7749505C 
 827      7372635C 
 827      636F7265 
 828              		.bss
 829              		.align	2
 830              		.set	.LANCHOR0,. + 0
 831              		.type	raw_pcbs, %object
 832              		.size	raw_pcbs, 4
 833              	raw_pcbs:
 834 0000 00000000 		.space	4
 835              		.text
 836              	.Letext0:
 837              		.file 2 "c:\\program files (x86)\\cypress\\psoc creator\\4.2\\psoc creator\\import\\gnu\\arm\\5.4.
 838              		.file 3 "c:\\program files (x86)\\cypress\\psoc creator\\4.2\\psoc creator\\import\\gnu\\arm\\5.4.
 839              		.file 4 ".\\Source\\LwIP\\src\\include/arch/cc.h"
 840              		.file 5 ".\\Source\\LwIP\\src\\include/lwip/ip4_addr.h"
 841              		.file 6 ".\\Source\\LwIP\\src\\include/lwip/ip_addr.h"
 842              		.file 7 ".\\Source\\LwIP\\src\\include/lwip/err.h"
 843              		.file 8 ".\\Source\\LwIP\\src\\include/lwip/memp.h"
 844              		.file 9 ".\\Source\\LwIP\\src\\include/lwip/pbuf.h"
 845              		.file 10 ".\\Source\\LwIP\\src\\include/lwip/netif.h"
 846              		.file 11 ".\\Source\\LwIP\\src\\include/lwip/prot/ip4.h"
 847              		.file 12 ".\\Source\\LwIP\\src\\include/lwip/ip.h"
 848              		.file 13 ".\\Source\\LwIP\\src\\include/lwip/raw.h"
 849              		.file 14 ".\\Source\\LwIP\\src\\include/lwip/ip4.h"