ARM GAS  C:\Users\Phuong\AppData\Local\Temp\ccbgGR22.s 			page 1


   1              		.syntax unified
   2              		.cpu cortex-m0plus
   3              		.fpu softvfp
   4              		.eabi_attribute 20, 1
   5              		.eabi_attribute 21, 1
   6              		.eabi_attribute 23, 3
   7              		.eabi_attribute 24, 1
   8              		.eabi_attribute 25, 1
   9              		.eabi_attribute 26, 1
  10              		.eabi_attribute 30, 1
  11              		.eabi_attribute 34, 0
  12              		.eabi_attribute 18, 4
  13              		.thumb
  14              		.syntax unified
  15              		.file	"ripemd160.c"
  16              		.text
  17              	.Ltext0:
  18              		.cfi_sections	.debug_frame
  19              		.section	.text.mbedtls_ripemd160_init,"ax",%progbits
  20              		.align	2
  21              		.global	mbedtls_ripemd160_init
  22              		.code	16
  23              		.thumb_func
  24              		.type	mbedtls_ripemd160_init, %function
  25              	mbedtls_ripemd160_init:
  26              	.LFB1:
  27              		.file 1 "Source\\mbedtls_open\\library\\ripemd160.c"
   1:Source\mbedtls_open\library/ripemd160.c **** /*
   2:Source\mbedtls_open\library/ripemd160.c ****  *  RIPE MD-160 implementation
   3:Source\mbedtls_open\library/ripemd160.c ****  *
   4:Source\mbedtls_open\library/ripemd160.c ****  *  Copyright (C) 2006-2015, ARM Limited, All Rights Reserved
   5:Source\mbedtls_open\library/ripemd160.c ****  *  SPDX-License-Identifier: Apache-2.0
   6:Source\mbedtls_open\library/ripemd160.c ****  *
   7:Source\mbedtls_open\library/ripemd160.c ****  *  Licensed under the Apache License, Version 2.0 (the "License"); you may
   8:Source\mbedtls_open\library/ripemd160.c ****  *  not use this file except in compliance with the License.
   9:Source\mbedtls_open\library/ripemd160.c ****  *  You may obtain a copy of the License at
  10:Source\mbedtls_open\library/ripemd160.c ****  *
  11:Source\mbedtls_open\library/ripemd160.c ****  *  http://www.apache.org/licenses/LICENSE-2.0
  12:Source\mbedtls_open\library/ripemd160.c ****  *
  13:Source\mbedtls_open\library/ripemd160.c ****  *  Unless required by applicable law or agreed to in writing, software
  14:Source\mbedtls_open\library/ripemd160.c ****  *  distributed under the License is distributed on an "AS IS" BASIS, WITHOUT
  15:Source\mbedtls_open\library/ripemd160.c ****  *  WARRANTIES OR CONDITIONS OF ANY KIND, either express or implied.
  16:Source\mbedtls_open\library/ripemd160.c ****  *  See the License for the specific language governing permissions and
  17:Source\mbedtls_open\library/ripemd160.c ****  *  limitations under the License.
  18:Source\mbedtls_open\library/ripemd160.c ****  *
  19:Source\mbedtls_open\library/ripemd160.c ****  *  This file is part of mbed TLS (https://tls.mbed.org)
  20:Source\mbedtls_open\library/ripemd160.c ****  */
  21:Source\mbedtls_open\library/ripemd160.c **** 
  22:Source\mbedtls_open\library/ripemd160.c **** /*
  23:Source\mbedtls_open\library/ripemd160.c ****  *  The RIPEMD-160 algorithm was designed by RIPE in 1996
  24:Source\mbedtls_open\library/ripemd160.c ****  *  http://homes.esat.kuleuven.be/~bosselae/mbedtls_ripemd160.html
  25:Source\mbedtls_open\library/ripemd160.c ****  *  http://ehash.iaik.tugraz.at/wiki/RIPEMD-160
  26:Source\mbedtls_open\library/ripemd160.c ****  */
  27:Source\mbedtls_open\library/ripemd160.c **** 
  28:Source\mbedtls_open\library/ripemd160.c **** #if !defined(MBEDTLS_CONFIG_FILE)
  29:Source\mbedtls_open\library/ripemd160.c **** #include "mbedtls/config.h"
  30:Source\mbedtls_open\library/ripemd160.c **** #else
ARM GAS  C:\Users\Phuong\AppData\Local\Temp\ccbgGR22.s 			page 2


  31:Source\mbedtls_open\library/ripemd160.c **** #include MBEDTLS_CONFIG_FILE
  32:Source\mbedtls_open\library/ripemd160.c **** #endif
  33:Source\mbedtls_open\library/ripemd160.c **** 
  34:Source\mbedtls_open\library/ripemd160.c **** #if defined(MBEDTLS_RIPEMD160_C)
  35:Source\mbedtls_open\library/ripemd160.c **** 
  36:Source\mbedtls_open\library/ripemd160.c **** #include "mbedtls/ripemd160.h"
  37:Source\mbedtls_open\library/ripemd160.c **** #include "mbedtls/platform_util.h"
  38:Source\mbedtls_open\library/ripemd160.c **** 
  39:Source\mbedtls_open\library/ripemd160.c **** #include <string.h>
  40:Source\mbedtls_open\library/ripemd160.c **** 
  41:Source\mbedtls_open\library/ripemd160.c **** #if defined(MBEDTLS_SELF_TEST)
  42:Source\mbedtls_open\library/ripemd160.c **** #if defined(MBEDTLS_PLATFORM_C)
  43:Source\mbedtls_open\library/ripemd160.c **** #include "mbedtls/platform.h"
  44:Source\mbedtls_open\library/ripemd160.c **** #else
  45:Source\mbedtls_open\library/ripemd160.c **** #include <stdio.h>
  46:Source\mbedtls_open\library/ripemd160.c **** #define mbedtls_printf printf
  47:Source\mbedtls_open\library/ripemd160.c **** #endif /* MBEDTLS_PLATFORM_C */
  48:Source\mbedtls_open\library/ripemd160.c **** #endif /* MBEDTLS_SELF_TEST */
  49:Source\mbedtls_open\library/ripemd160.c **** 
  50:Source\mbedtls_open\library/ripemd160.c **** #if !defined(MBEDTLS_RIPEMD160_ALT)
  51:Source\mbedtls_open\library/ripemd160.c **** 
  52:Source\mbedtls_open\library/ripemd160.c **** /*
  53:Source\mbedtls_open\library/ripemd160.c ****  * 32-bit integer manipulation macros (little endian)
  54:Source\mbedtls_open\library/ripemd160.c ****  */
  55:Source\mbedtls_open\library/ripemd160.c **** #ifndef GET_UINT32_LE
  56:Source\mbedtls_open\library/ripemd160.c **** #define GET_UINT32_LE(n,b,i)                            \
  57:Source\mbedtls_open\library/ripemd160.c **** {                                                       \
  58:Source\mbedtls_open\library/ripemd160.c ****     (n) = ( (uint32_t) (b)[(i)    ]       )             \
  59:Source\mbedtls_open\library/ripemd160.c ****         | ( (uint32_t) (b)[(i) + 1] <<  8 )             \
  60:Source\mbedtls_open\library/ripemd160.c ****         | ( (uint32_t) (b)[(i) + 2] << 16 )             \
  61:Source\mbedtls_open\library/ripemd160.c ****         | ( (uint32_t) (b)[(i) + 3] << 24 );            \
  62:Source\mbedtls_open\library/ripemd160.c **** }
  63:Source\mbedtls_open\library/ripemd160.c **** #endif
  64:Source\mbedtls_open\library/ripemd160.c **** 
  65:Source\mbedtls_open\library/ripemd160.c **** #ifndef PUT_UINT32_LE
  66:Source\mbedtls_open\library/ripemd160.c **** #define PUT_UINT32_LE(n,b,i)                                    \
  67:Source\mbedtls_open\library/ripemd160.c **** {                                                               \
  68:Source\mbedtls_open\library/ripemd160.c ****     (b)[(i)    ] = (unsigned char) ( ( (n)       ) & 0xFF );    \
  69:Source\mbedtls_open\library/ripemd160.c ****     (b)[(i) + 1] = (unsigned char) ( ( (n) >>  8 ) & 0xFF );    \
  70:Source\mbedtls_open\library/ripemd160.c ****     (b)[(i) + 2] = (unsigned char) ( ( (n) >> 16 ) & 0xFF );    \
  71:Source\mbedtls_open\library/ripemd160.c ****     (b)[(i) + 3] = (unsigned char) ( ( (n) >> 24 ) & 0xFF );    \
  72:Source\mbedtls_open\library/ripemd160.c **** }
  73:Source\mbedtls_open\library/ripemd160.c **** #endif
  74:Source\mbedtls_open\library/ripemd160.c **** 
  75:Source\mbedtls_open\library/ripemd160.c **** void mbedtls_ripemd160_init( mbedtls_ripemd160_context *ctx )
  76:Source\mbedtls_open\library/ripemd160.c **** {
  28              		.loc 1 76 0
  29              		.cfi_startproc
  30              		@ args = 0, pretend = 0, frame = 0
  31              		@ frame_needed = 0, uses_anonymous_args = 0
  32              	.LVL0:
  33 0000 10B5     		push	{r4, lr}
  34              		.cfi_def_cfa_offset 8
  35              		.cfi_offset 4, -8
  36              		.cfi_offset 14, -4
  77:Source\mbedtls_open\library/ripemd160.c ****     memset( ctx, 0, sizeof( mbedtls_ripemd160_context ) );
  37              		.loc 1 77 0
ARM GAS  C:\Users\Phuong\AppData\Local\Temp\ccbgGR22.s 			page 3


  38 0002 5C22     		movs	r2, #92
  39 0004 0021     		movs	r1, #0
  40 0006 FFF7FEFF 		bl	memset
  41              	.LVL1:
  78:Source\mbedtls_open\library/ripemd160.c **** }
  42              		.loc 1 78 0
  43              		@ sp needed
  44 000a 10BD     		pop	{r4, pc}
  45              		.cfi_endproc
  46              	.LFE1:
  47              		.size	mbedtls_ripemd160_init, .-mbedtls_ripemd160_init
  48              		.section	.text.mbedtls_ripemd160_free,"ax",%progbits
  49              		.align	2
  50              		.global	mbedtls_ripemd160_free
  51              		.code	16
  52              		.thumb_func
  53              		.type	mbedtls_ripemd160_free, %function
  54              	mbedtls_ripemd160_free:
  55              	.LFB2:
  79:Source\mbedtls_open\library/ripemd160.c **** 
  80:Source\mbedtls_open\library/ripemd160.c **** void mbedtls_ripemd160_free( mbedtls_ripemd160_context *ctx )
  81:Source\mbedtls_open\library/ripemd160.c **** {
  56              		.loc 1 81 0
  57              		.cfi_startproc
  58              		@ args = 0, pretend = 0, frame = 0
  59              		@ frame_needed = 0, uses_anonymous_args = 0
  60              	.LVL2:
  61 0000 10B5     		push	{r4, lr}
  62              		.cfi_def_cfa_offset 8
  63              		.cfi_offset 4, -8
  64              		.cfi_offset 14, -4
  82:Source\mbedtls_open\library/ripemd160.c ****     if( ctx == NULL )
  65              		.loc 1 82 0
  66 0002 0028     		cmp	r0, #0
  67 0004 02D0     		beq	.L2
  83:Source\mbedtls_open\library/ripemd160.c ****         return;
  84:Source\mbedtls_open\library/ripemd160.c **** 
  85:Source\mbedtls_open\library/ripemd160.c ****     mbedtls_platform_zeroize( ctx, sizeof( mbedtls_ripemd160_context ) );
  68              		.loc 1 85 0
  69 0006 5C21     		movs	r1, #92
  70 0008 FFF7FEFF 		bl	mbedtls_platform_zeroize
  71              	.LVL3:
  72              	.L2:
  86:Source\mbedtls_open\library/ripemd160.c **** }
  73              		.loc 1 86 0
  74              		@ sp needed
  75 000c 10BD     		pop	{r4, pc}
  76              		.cfi_endproc
  77              	.LFE2:
  78              		.size	mbedtls_ripemd160_free, .-mbedtls_ripemd160_free
  79 000e C046     		.section	.text.mbedtls_ripemd160_clone,"ax",%progbits
  80              		.align	2
  81              		.global	mbedtls_ripemd160_clone
  82              		.code	16
  83              		.thumb_func
  84              		.type	mbedtls_ripemd160_clone, %function
  85              	mbedtls_ripemd160_clone:
ARM GAS  C:\Users\Phuong\AppData\Local\Temp\ccbgGR22.s 			page 4


  86              	.LFB3:
  87:Source\mbedtls_open\library/ripemd160.c **** 
  88:Source\mbedtls_open\library/ripemd160.c **** void mbedtls_ripemd160_clone( mbedtls_ripemd160_context *dst,
  89:Source\mbedtls_open\library/ripemd160.c ****                         const mbedtls_ripemd160_context *src )
  90:Source\mbedtls_open\library/ripemd160.c **** {
  87              		.loc 1 90 0
  88              		.cfi_startproc
  89              		@ args = 0, pretend = 0, frame = 0
  90              		@ frame_needed = 0, uses_anonymous_args = 0
  91              	.LVL4:
  92 0000 10B5     		push	{r4, lr}
  93              		.cfi_def_cfa_offset 8
  94              		.cfi_offset 4, -8
  95              		.cfi_offset 14, -4
  91:Source\mbedtls_open\library/ripemd160.c ****     *dst = *src;
  96              		.loc 1 91 0
  97 0002 5C22     		movs	r2, #92
  98 0004 FFF7FEFF 		bl	memcpy
  99              	.LVL5:
  92:Source\mbedtls_open\library/ripemd160.c **** }
 100              		.loc 1 92 0
 101              		@ sp needed
 102 0008 10BD     		pop	{r4, pc}
 103              		.cfi_endproc
 104              	.LFE3:
 105              		.size	mbedtls_ripemd160_clone, .-mbedtls_ripemd160_clone
 106 000a C046     		.section	.text.mbedtls_ripemd160_starts_ret,"ax",%progbits
 107              		.align	2
 108              		.global	mbedtls_ripemd160_starts_ret
 109              		.code	16
 110              		.thumb_func
 111              		.type	mbedtls_ripemd160_starts_ret, %function
 112              	mbedtls_ripemd160_starts_ret:
 113              	.LFB4:
  93:Source\mbedtls_open\library/ripemd160.c **** 
  94:Source\mbedtls_open\library/ripemd160.c **** /*
  95:Source\mbedtls_open\library/ripemd160.c ****  * RIPEMD-160 context setup
  96:Source\mbedtls_open\library/ripemd160.c ****  */
  97:Source\mbedtls_open\library/ripemd160.c **** int mbedtls_ripemd160_starts_ret( mbedtls_ripemd160_context *ctx )
  98:Source\mbedtls_open\library/ripemd160.c **** {
 114              		.loc 1 98 0
 115              		.cfi_startproc
 116              		@ args = 0, pretend = 0, frame = 0
 117              		@ frame_needed = 0, uses_anonymous_args = 0
 118              		@ link register save eliminated.
 119              	.LVL6:
  99:Source\mbedtls_open\library/ripemd160.c ****     ctx->total[0] = 0;
 120              		.loc 1 99 0
 121 0000 0023     		movs	r3, #0
 122 0002 0360     		str	r3, [r0]
 100:Source\mbedtls_open\library/ripemd160.c ****     ctx->total[1] = 0;
 123              		.loc 1 100 0
 124 0004 4360     		str	r3, [r0, #4]
 101:Source\mbedtls_open\library/ripemd160.c **** 
 102:Source\mbedtls_open\library/ripemd160.c ****     ctx->state[0] = 0x67452301;
 125              		.loc 1 102 0
 126 0006 064B     		ldr	r3, .L6
ARM GAS  C:\Users\Phuong\AppData\Local\Temp\ccbgGR22.s 			page 5


 127 0008 8360     		str	r3, [r0, #8]
 103:Source\mbedtls_open\library/ripemd160.c ****     ctx->state[1] = 0xEFCDAB89;
 128              		.loc 1 103 0
 129 000a 064B     		ldr	r3, .L6+4
 130 000c C360     		str	r3, [r0, #12]
 104:Source\mbedtls_open\library/ripemd160.c ****     ctx->state[2] = 0x98BADCFE;
 131              		.loc 1 104 0
 132 000e 064B     		ldr	r3, .L6+8
 133 0010 0361     		str	r3, [r0, #16]
 105:Source\mbedtls_open\library/ripemd160.c ****     ctx->state[3] = 0x10325476;
 134              		.loc 1 105 0
 135 0012 064B     		ldr	r3, .L6+12
 136 0014 4361     		str	r3, [r0, #20]
 106:Source\mbedtls_open\library/ripemd160.c ****     ctx->state[4] = 0xC3D2E1F0;
 137              		.loc 1 106 0
 138 0016 064B     		ldr	r3, .L6+16
 139 0018 8361     		str	r3, [r0, #24]
 107:Source\mbedtls_open\library/ripemd160.c **** 
 108:Source\mbedtls_open\library/ripemd160.c ****     return( 0 );
 109:Source\mbedtls_open\library/ripemd160.c **** }
 140              		.loc 1 109 0
 141 001a 0020     		movs	r0, #0
 142              	.LVL7:
 143              		@ sp needed
 144 001c 7047     		bx	lr
 145              	.L7:
 146 001e C046     		.align	2
 147              	.L6:
 148 0020 01234567 		.word	1732584193
 149 0024 89ABCDEF 		.word	-271733879
 150 0028 FEDCBA98 		.word	-1732584194
 151 002c 76543210 		.word	271733878
 152 0030 F0E1D2C3 		.word	-1009589776
 153              		.cfi_endproc
 154              	.LFE4:
 155              		.size	mbedtls_ripemd160_starts_ret, .-mbedtls_ripemd160_starts_ret
 156              		.section	.text.mbedtls_ripemd160_starts,"ax",%progbits
 157              		.align	2
 158              		.global	mbedtls_ripemd160_starts
 159              		.code	16
 160              		.thumb_func
 161              		.type	mbedtls_ripemd160_starts, %function
 162              	mbedtls_ripemd160_starts:
 163              	.LFB5:
 110:Source\mbedtls_open\library/ripemd160.c **** 
 111:Source\mbedtls_open\library/ripemd160.c **** #if !defined(MBEDTLS_DEPRECATED_REMOVED)
 112:Source\mbedtls_open\library/ripemd160.c **** void mbedtls_ripemd160_starts( mbedtls_ripemd160_context *ctx )
 113:Source\mbedtls_open\library/ripemd160.c **** {
 164              		.loc 1 113 0
 165              		.cfi_startproc
 166              		@ args = 0, pretend = 0, frame = 0
 167              		@ frame_needed = 0, uses_anonymous_args = 0
 168              	.LVL8:
 169 0000 10B5     		push	{r4, lr}
 170              		.cfi_def_cfa_offset 8
 171              		.cfi_offset 4, -8
 172              		.cfi_offset 14, -4
ARM GAS  C:\Users\Phuong\AppData\Local\Temp\ccbgGR22.s 			page 6


 114:Source\mbedtls_open\library/ripemd160.c ****     mbedtls_ripemd160_starts_ret( ctx );
 173              		.loc 1 114 0
 174 0002 FFF7FEFF 		bl	mbedtls_ripemd160_starts_ret
 175              	.LVL9:
 115:Source\mbedtls_open\library/ripemd160.c **** }
 176              		.loc 1 115 0
 177              		@ sp needed
 178 0006 10BD     		pop	{r4, pc}
 179              		.cfi_endproc
 180              	.LFE5:
 181              		.size	mbedtls_ripemd160_starts, .-mbedtls_ripemd160_starts
 182              		.section	.text.mbedtls_internal_ripemd160_process,"ax",%progbits
 183              		.align	2
 184              		.global	mbedtls_internal_ripemd160_process
 185              		.code	16
 186              		.thumb_func
 187              		.type	mbedtls_internal_ripemd160_process, %function
 188              	mbedtls_internal_ripemd160_process:
 189              	.LFB6:
 116:Source\mbedtls_open\library/ripemd160.c **** #endif
 117:Source\mbedtls_open\library/ripemd160.c **** 
 118:Source\mbedtls_open\library/ripemd160.c **** #if !defined(MBEDTLS_RIPEMD160_PROCESS_ALT)
 119:Source\mbedtls_open\library/ripemd160.c **** /*
 120:Source\mbedtls_open\library/ripemd160.c ****  * Process one block
 121:Source\mbedtls_open\library/ripemd160.c ****  */
 122:Source\mbedtls_open\library/ripemd160.c **** int mbedtls_internal_ripemd160_process( mbedtls_ripemd160_context *ctx,
 123:Source\mbedtls_open\library/ripemd160.c ****                                         const unsigned char data[64] )
 124:Source\mbedtls_open\library/ripemd160.c **** {
 190              		.loc 1 124 0
 191              		.cfi_startproc
 192              		@ args = 0, pretend = 0, frame = 88
 193              		@ frame_needed = 0, uses_anonymous_args = 0
 194              	.LVL10:
 195 0000 F0B5     		push	{r4, r5, r6, r7, lr}
 196              		.cfi_def_cfa_offset 20
 197              		.cfi_offset 4, -20
 198              		.cfi_offset 5, -16
 199              		.cfi_offset 6, -12
 200              		.cfi_offset 7, -8
 201              		.cfi_offset 14, -4
 202 0002 5F46     		mov	r7, fp
 203 0004 5646     		mov	r6, r10
 204 0006 4D46     		mov	r5, r9
 205 0008 4446     		mov	r4, r8
 206 000a F0B4     		push	{r4, r5, r6, r7}
 207              		.cfi_def_cfa_offset 36
 208              		.cfi_offset 8, -36
 209              		.cfi_offset 9, -32
 210              		.cfi_offset 10, -28
 211              		.cfi_offset 11, -24
 212 000c 97B0     		sub	sp, sp, #92
 213              		.cfi_def_cfa_offset 128
 214 000e 0700     		movs	r7, r0
 215 0010 0B00     		movs	r3, r1
 125:Source\mbedtls_open\library/ripemd160.c ****     uint32_t A, B, C, D, E, Ap, Bp, Cp, Dp, Ep, X[16];
 126:Source\mbedtls_open\library/ripemd160.c **** 
 127:Source\mbedtls_open\library/ripemd160.c ****     GET_UINT32_LE( X[ 0], data,  0 );
ARM GAS  C:\Users\Phuong\AppData\Local\Temp\ccbgGR22.s 			page 7


 216              		.loc 1 127 0
 217 0012 0878     		ldrb	r0, [r1]
 218              	.LVL11:
 219 0014 4A78     		ldrb	r2, [r1, #1]
 220 0016 1202     		lsls	r2, r2, #8
 221 0018 0243     		orrs	r2, r0
 222 001a 8978     		ldrb	r1, [r1, #2]
 223              	.LVL12:
 224 001c 0904     		lsls	r1, r1, #16
 225 001e 0A43     		orrs	r2, r1
 226 0020 D878     		ldrb	r0, [r3, #3]
 227 0022 0006     		lsls	r0, r0, #24
 228 0024 0243     		orrs	r2, r0
 229 0026 1600     		movs	r6, r2
 128:Source\mbedtls_open\library/ripemd160.c ****     GET_UINT32_LE( X[ 1], data,  4 );
 230              		.loc 1 128 0
 231 0028 1C79     		ldrb	r4, [r3, #4]
 232 002a 5A79     		ldrb	r2, [r3, #5]
 233 002c 1202     		lsls	r2, r2, #8
 234 002e 2243     		orrs	r2, r4
 235 0030 9979     		ldrb	r1, [r3, #6]
 236 0032 0904     		lsls	r1, r1, #16
 237 0034 0A43     		orrs	r2, r1
 238 0036 DC79     		ldrb	r4, [r3, #7]
 239 0038 2406     		lsls	r4, r4, #24
 240 003a 2243     		orrs	r2, r4
 241 003c 0092     		str	r2, [sp]
 129:Source\mbedtls_open\library/ripemd160.c ****     GET_UINT32_LE( X[ 2], data,  8 );
 242              		.loc 1 129 0
 243 003e 1A7A     		ldrb	r2, [r3, #8]
 244 0040 587A     		ldrb	r0, [r3, #9]
 245 0042 0002     		lsls	r0, r0, #8
 246 0044 1043     		orrs	r0, r2
 247 0046 997A     		ldrb	r1, [r3, #10]
 248 0048 0904     		lsls	r1, r1, #16
 249 004a 0843     		orrs	r0, r1
 250 004c DA7A     		ldrb	r2, [r3, #11]
 251 004e 1206     		lsls	r2, r2, #24
 252 0050 1043     		orrs	r0, r2
 253 0052 0190     		str	r0, [sp, #4]
 130:Source\mbedtls_open\library/ripemd160.c ****     GET_UINT32_LE( X[ 3], data, 12 );
 254              		.loc 1 130 0
 255 0054 1D7B     		ldrb	r5, [r3, #12]
 256 0056 5A7B     		ldrb	r2, [r3, #13]
 257 0058 1202     		lsls	r2, r2, #8
 258 005a 2A43     		orrs	r2, r5
 259 005c 997B     		ldrb	r1, [r3, #14]
 260 005e 0904     		lsls	r1, r1, #16
 261 0060 0A43     		orrs	r2, r1
 262 0062 DD7B     		ldrb	r5, [r3, #15]
 263 0064 2D06     		lsls	r5, r5, #24
 264 0066 2A43     		orrs	r2, r5
 265 0068 0292     		str	r2, [sp, #8]
 131:Source\mbedtls_open\library/ripemd160.c ****     GET_UINT32_LE( X[ 4], data, 16 );
 266              		.loc 1 131 0
 267 006a 197C     		ldrb	r1, [r3, #16]
 268 006c 5A7C     		ldrb	r2, [r3, #17]
ARM GAS  C:\Users\Phuong\AppData\Local\Temp\ccbgGR22.s 			page 8


 269 006e 1202     		lsls	r2, r2, #8
 270 0070 0A43     		orrs	r2, r1
 271 0072 987C     		ldrb	r0, [r3, #18]
 272 0074 0004     		lsls	r0, r0, #16
 273 0076 0243     		orrs	r2, r0
 274 0078 D97C     		ldrb	r1, [r3, #19]
 275 007a 0906     		lsls	r1, r1, #24
 276 007c 1400     		movs	r4, r2
 277 007e 0C43     		orrs	r4, r1
 278 0080 0394     		str	r4, [sp, #12]
 132:Source\mbedtls_open\library/ripemd160.c ****     GET_UINT32_LE( X[ 5], data, 20 );
 279              		.loc 1 132 0
 280 0082 197D     		ldrb	r1, [r3, #20]
 281 0084 5A7D     		ldrb	r2, [r3, #21]
 282 0086 1202     		lsls	r2, r2, #8
 283 0088 0A43     		orrs	r2, r1
 284 008a 997D     		ldrb	r1, [r3, #22]
 285 008c 0904     		lsls	r1, r1, #16
 286 008e 0A43     		orrs	r2, r1
 287 0090 D97D     		ldrb	r1, [r3, #23]
 288 0092 0906     		lsls	r1, r1, #24
 289 0094 1500     		movs	r5, r2
 290 0096 0D43     		orrs	r5, r1
 291 0098 0495     		str	r5, [sp, #16]
 133:Source\mbedtls_open\library/ripemd160.c ****     GET_UINT32_LE( X[ 6], data, 24 );
 292              		.loc 1 133 0
 293 009a 197E     		ldrb	r1, [r3, #24]
 294 009c 5A7E     		ldrb	r2, [r3, #25]
 295 009e 1202     		lsls	r2, r2, #8
 296 00a0 0A43     		orrs	r2, r1
 297 00a2 987E     		ldrb	r0, [r3, #26]
 298 00a4 0004     		lsls	r0, r0, #16
 299 00a6 0243     		orrs	r2, r0
 300 00a8 D97E     		ldrb	r1, [r3, #27]
 301 00aa 0906     		lsls	r1, r1, #24
 302 00ac 0A43     		orrs	r2, r1
 303 00ae 0592     		str	r2, [sp, #20]
 134:Source\mbedtls_open\library/ripemd160.c ****     GET_UINT32_LE( X[ 7], data, 28 );
 304              		.loc 1 134 0
 305 00b0 197F     		ldrb	r1, [r3, #28]
 306 00b2 5A7F     		ldrb	r2, [r3, #29]
 307 00b4 1202     		lsls	r2, r2, #8
 308 00b6 0A43     		orrs	r2, r1
 309 00b8 987F     		ldrb	r0, [r3, #30]
 310 00ba 0004     		lsls	r0, r0, #16
 311 00bc 0243     		orrs	r2, r0
 312 00be D97F     		ldrb	r1, [r3, #31]
 313 00c0 0906     		lsls	r1, r1, #24
 314 00c2 1400     		movs	r4, r2
 315 00c4 0C43     		orrs	r4, r1
 316 00c6 0694     		str	r4, [sp, #24]
 135:Source\mbedtls_open\library/ripemd160.c ****     GET_UINT32_LE( X[ 8], data, 32 );
 317              		.loc 1 135 0
 318 00c8 2022     		movs	r2, #32
 319 00ca 995C     		ldrb	r1, [r3, r2]
 320 00cc 0132     		adds	r2, r2, #1
 321 00ce 9A5C     		ldrb	r2, [r3, r2]
ARM GAS  C:\Users\Phuong\AppData\Local\Temp\ccbgGR22.s 			page 9


 322 00d0 1202     		lsls	r2, r2, #8
 323 00d2 1143     		orrs	r1, r2
 324 00d4 2222     		movs	r2, #34
 325 00d6 9A5C     		ldrb	r2, [r3, r2]
 326 00d8 1204     		lsls	r2, r2, #16
 327 00da 0A43     		orrs	r2, r1
 328 00dc 2321     		movs	r1, #35
 329 00de 5D5C     		ldrb	r5, [r3, r1]
 330 00e0 2D06     		lsls	r5, r5, #24
 331 00e2 1100     		movs	r1, r2
 332 00e4 2943     		orrs	r1, r5
 333 00e6 0791     		str	r1, [sp, #28]
 136:Source\mbedtls_open\library/ripemd160.c ****     GET_UINT32_LE( X[ 9], data, 36 );
 334              		.loc 1 136 0
 335 00e8 2422     		movs	r2, #36
 336 00ea 9A5C     		ldrb	r2, [r3, r2]
 337 00ec 2521     		movs	r1, #37
 338 00ee 595C     		ldrb	r1, [r3, r1]
 339 00f0 0902     		lsls	r1, r1, #8
 340 00f2 1000     		movs	r0, r2
 341 00f4 0843     		orrs	r0, r1
 342 00f6 2622     		movs	r2, #38
 343 00f8 995C     		ldrb	r1, [r3, r2]
 344 00fa 0904     		lsls	r1, r1, #16
 345 00fc 0143     		orrs	r1, r0
 346 00fe 0132     		adds	r2, r2, #1
 347 0100 9A5C     		ldrb	r2, [r3, r2]
 348 0102 1206     		lsls	r2, r2, #24
 349 0104 1143     		orrs	r1, r2
 350 0106 0891     		str	r1, [sp, #32]
 137:Source\mbedtls_open\library/ripemd160.c ****     GET_UINT32_LE( X[10], data, 40 );
 351              		.loc 1 137 0
 352 0108 2822     		movs	r2, #40
 353 010a 995C     		ldrb	r1, [r3, r2]
 354 010c 0132     		adds	r2, r2, #1
 355 010e 985C     		ldrb	r0, [r3, r2]
 356 0110 0002     		lsls	r0, r0, #8
 357 0112 0D00     		movs	r5, r1
 358 0114 0543     		orrs	r5, r0
 359 0116 0132     		adds	r2, r2, #1
 360 0118 985C     		ldrb	r0, [r3, r2]
 361 011a 0004     		lsls	r0, r0, #16
 362 011c 2843     		orrs	r0, r5
 363 011e 0132     		adds	r2, r2, #1
 364 0120 995C     		ldrb	r1, [r3, r2]
 365 0122 0906     		lsls	r1, r1, #24
 366 0124 0500     		movs	r5, r0
 367 0126 0D43     		orrs	r5, r1
 368 0128 0995     		str	r5, [sp, #36]
 138:Source\mbedtls_open\library/ripemd160.c ****     GET_UINT32_LE( X[11], data, 44 );
 369              		.loc 1 138 0
 370 012a 0132     		adds	r2, r2, #1
 371 012c 995C     		ldrb	r1, [r3, r2]
 372 012e 0132     		adds	r2, r2, #1
 373 0130 9A5C     		ldrb	r2, [r3, r2]
 374 0132 1202     		lsls	r2, r2, #8
 375 0134 0800     		movs	r0, r1
ARM GAS  C:\Users\Phuong\AppData\Local\Temp\ccbgGR22.s 			page 10


 376 0136 1043     		orrs	r0, r2
 377 0138 2E22     		movs	r2, #46
 378 013a 9A5C     		ldrb	r2, [r3, r2]
 379 013c 1204     		lsls	r2, r2, #16
 380 013e 0243     		orrs	r2, r0
 381 0140 2F21     		movs	r1, #47
 382 0142 595C     		ldrb	r1, [r3, r1]
 383 0144 0906     		lsls	r1, r1, #24
 384 0146 0A43     		orrs	r2, r1
 385 0148 0A92     		str	r2, [sp, #40]
 139:Source\mbedtls_open\library/ripemd160.c ****     GET_UINT32_LE( X[12], data, 48 );
 386              		.loc 1 139 0
 387 014a 3022     		movs	r2, #48
 388 014c 985C     		ldrb	r0, [r3, r2]
 389 014e 0132     		adds	r2, r2, #1
 390 0150 9A5C     		ldrb	r2, [r3, r2]
 391 0152 1202     		lsls	r2, r2, #8
 392 0154 1043     		orrs	r0, r2
 393 0156 3222     		movs	r2, #50
 394 0158 9A5C     		ldrb	r2, [r3, r2]
 395 015a 1204     		lsls	r2, r2, #16
 396 015c 0243     		orrs	r2, r0
 397 015e 3321     		movs	r1, #51
 398 0160 585C     		ldrb	r0, [r3, r1]
 399 0162 0006     		lsls	r0, r0, #24
 400 0164 1500     		movs	r5, r2
 401 0166 0543     		orrs	r5, r0
 402 0168 0B95     		str	r5, [sp, #44]
 140:Source\mbedtls_open\library/ripemd160.c ****     GET_UINT32_LE( X[13], data, 52 );
 403              		.loc 1 140 0
 404 016a 3422     		movs	r2, #52
 405 016c 985C     		ldrb	r0, [r3, r2]
 406 016e 0132     		adds	r2, r2, #1
 407 0170 9A5C     		ldrb	r2, [r3, r2]
 408 0172 1202     		lsls	r2, r2, #8
 409 0174 1043     		orrs	r0, r2
 410 0176 3622     		movs	r2, #54
 411 0178 9A5C     		ldrb	r2, [r3, r2]
 412 017a 1204     		lsls	r2, r2, #16
 413 017c 0243     		orrs	r2, r0
 414 017e 3721     		movs	r1, #55
 415 0180 585C     		ldrb	r0, [r3, r1]
 416 0182 0006     		lsls	r0, r0, #24
 417 0184 0243     		orrs	r2, r0
 418 0186 0C92     		str	r2, [sp, #48]
 141:Source\mbedtls_open\library/ripemd160.c ****     GET_UINT32_LE( X[14], data, 56 );
 419              		.loc 1 141 0
 420 0188 3822     		movs	r2, #56
 421 018a 9C5C     		ldrb	r4, [r3, r2]
 422 018c 0132     		adds	r2, r2, #1
 423 018e 9A5C     		ldrb	r2, [r3, r2]
 424 0190 1202     		lsls	r2, r2, #8
 425 0192 2100     		movs	r1, r4
 426 0194 1143     		orrs	r1, r2
 427 0196 3A22     		movs	r2, #58
 428 0198 9A5C     		ldrb	r2, [r3, r2]
 429 019a 1204     		lsls	r2, r2, #16
ARM GAS  C:\Users\Phuong\AppData\Local\Temp\ccbgGR22.s 			page 11


 430 019c 0A43     		orrs	r2, r1
 431 019e 3B21     		movs	r1, #59
 432 01a0 5C5C     		ldrb	r4, [r3, r1]
 433 01a2 2406     		lsls	r4, r4, #24
 434 01a4 1000     		movs	r0, r2
 435 01a6 2043     		orrs	r0, r4
 436 01a8 0D90     		str	r0, [sp, #52]
 142:Source\mbedtls_open\library/ripemd160.c ****     GET_UINT32_LE( X[15], data, 60 );
 437              		.loc 1 142 0
 438 01aa 3C22     		movs	r2, #60
 439 01ac 995C     		ldrb	r1, [r3, r2]
 440 01ae 0132     		adds	r2, r2, #1
 441 01b0 9A5C     		ldrb	r2, [r3, r2]
 442 01b2 1202     		lsls	r2, r2, #8
 443 01b4 1143     		orrs	r1, r2
 444 01b6 0C00     		movs	r4, r1
 445 01b8 3E22     		movs	r2, #62
 446 01ba 9A5C     		ldrb	r2, [r3, r2]
 447 01bc 1104     		lsls	r1, r2, #16
 448 01be 0C43     		orrs	r4, r1
 449 01c0 2200     		movs	r2, r4
 450 01c2 3F21     		movs	r1, #63
 451 01c4 5C5C     		ldrb	r4, [r3, r1]
 452 01c6 2406     		lsls	r4, r4, #24
 453 01c8 1300     		movs	r3, r2
 454              	.LVL13:
 455 01ca 2343     		orrs	r3, r4
 456 01cc 0E93     		str	r3, [sp, #56]
 457              	.LVL14:
 143:Source\mbedtls_open\library/ripemd160.c **** 
 144:Source\mbedtls_open\library/ripemd160.c ****     A = Ap = ctx->state[0];
 145:Source\mbedtls_open\library/ripemd160.c ****     B = Bp = ctx->state[1];
 146:Source\mbedtls_open\library/ripemd160.c ****     C = Cp = ctx->state[2];
 147:Source\mbedtls_open\library/ripemd160.c ****     D = Dp = ctx->state[3];
 148:Source\mbedtls_open\library/ripemd160.c ****     E = Ep = ctx->state[4];
 149:Source\mbedtls_open\library/ripemd160.c **** 
 150:Source\mbedtls_open\library/ripemd160.c **** #define F1( x, y, z )   ( x ^ y ^ z )
 151:Source\mbedtls_open\library/ripemd160.c **** #define F2( x, y, z )   ( ( x & y ) | ( ~x & z ) )
 152:Source\mbedtls_open\library/ripemd160.c **** #define F3( x, y, z )   ( ( x | ~y ) ^ z )
 153:Source\mbedtls_open\library/ripemd160.c **** #define F4( x, y, z )   ( ( x & z ) | ( y & ~z ) )
 154:Source\mbedtls_open\library/ripemd160.c **** #define F5( x, y, z )   ( x ^ ( y | ~z ) )
 155:Source\mbedtls_open\library/ripemd160.c **** 
 156:Source\mbedtls_open\library/ripemd160.c **** #define S( x, n ) ( ( x << n ) | ( x >> (32 - n) ) )
 157:Source\mbedtls_open\library/ripemd160.c **** 
 158:Source\mbedtls_open\library/ripemd160.c **** #define P( a, b, c, d, e, r, s, f, k )      \
 159:Source\mbedtls_open\library/ripemd160.c ****     a += f( b, c, d ) + X[r] + k;           \
 160:Source\mbedtls_open\library/ripemd160.c ****     a = S( a, s ) + e;                      \
 161:Source\mbedtls_open\library/ripemd160.c ****     c = S( c, 10 );
 162:Source\mbedtls_open\library/ripemd160.c **** 
 163:Source\mbedtls_open\library/ripemd160.c **** #define P2( a, b, c, d, e, r, s, rp, sp )   \
 164:Source\mbedtls_open\library/ripemd160.c ****     P( a, b, c, d, e, r, s, F, K );         \
 165:Source\mbedtls_open\library/ripemd160.c ****     P( a ## p, b ## p, c ## p, d ## p, e ## p, rp, sp, Fp, Kp );
 166:Source\mbedtls_open\library/ripemd160.c **** 
 167:Source\mbedtls_open\library/ripemd160.c **** #define F   F1
 168:Source\mbedtls_open\library/ripemd160.c **** #define K   0x00000000
 169:Source\mbedtls_open\library/ripemd160.c **** #define Fp  F5
 170:Source\mbedtls_open\library/ripemd160.c **** #define Kp  0x50A28BE6
ARM GAS  C:\Users\Phuong\AppData\Local\Temp\ccbgGR22.s 			page 12


 171:Source\mbedtls_open\library/ripemd160.c ****     P2( A, B, C, D, E,  0, 11,  5,  8 );
 458              		.loc 1 171 0
 459 01ce FB68     		ldr	r3, [r7, #12]
 460 01d0 3D69     		ldr	r5, [r7, #16]
 461 01d2 6B40     		eors	r3, r5
 462 01d4 1800     		movs	r0, r3
 463 01d6 7B69     		ldr	r3, [r7, #20]
 464 01d8 5840     		eors	r0, r3
 465 01da 0F96     		str	r6, [sp, #60]
 466 01dc B446     		mov	ip, r6
 467 01de 6044     		add	r0, r0, ip
 468 01e0 BB68     		ldr	r3, [r7, #8]
 469 01e2 9C46     		mov	ip, r3
 470 01e4 6044     		add	r0, r0, ip
 471              	.LVL15:
 472 01e6 1523     		movs	r3, #21
 473 01e8 D841     		rors	r0, r0, r3
 474              	.LVL16:
 475 01ea BB69     		ldr	r3, [r7, #24]
 476 01ec 9C46     		mov	ip, r3
 477 01ee 6044     		add	r0, r0, ip
 478              	.LVL17:
 479 01f0 1623     		movs	r3, #22
 480 01f2 2E00     		movs	r6, r5
 481 01f4 DE41     		rors	r6, r6, r3
 482 01f6 B146     		mov	r9, r6
 483              	.LVL18:
 484 01f8 7E69     		ldr	r6, [r7, #20]
 485              	.LVL19:
 486 01fa F243     		mvns	r2, r6
 487 01fc 2A43     		orrs	r2, r5
 488 01fe FE68     		ldr	r6, [r7, #12]
 489 0200 7240     		eors	r2, r6
 490 0202 049D     		ldr	r5, [sp, #16]
 491 0204 AC46     		mov	ip, r5
 492 0206 6244     		add	r2, r2, ip
 493 0208 BE68     		ldr	r6, [r7, #8]
 494 020a B446     		mov	ip, r6
 495 020c 6244     		add	r2, r2, ip
 496 020e FE4E     		ldr	r6, .L10
 497 0210 B446     		mov	ip, r6
 498 0212 6244     		add	r2, r2, ip
 499              	.LVL20:
 500 0214 1826     		movs	r6, #24
 501 0216 F241     		rors	r2, r2, r6
 502              	.LVL21:
 503 0218 BE69     		ldr	r6, [r7, #24]
 504 021a B446     		mov	ip, r6
 505              	.LVL22:
 506 021c 6244     		add	r2, r2, ip
 507              	.LVL23:
 172:Source\mbedtls_open\library/ripemd160.c ****     P2( E, A, B, C, D,  1, 14, 14,  9 );
 508              		.loc 1 172 0
 509 021e FD68     		ldr	r5, [r7, #12]
 510 0220 4540     		eors	r5, r0
 511 0222 4E46     		mov	r6, r9
 512 0224 7540     		eors	r5, r6
ARM GAS  C:\Users\Phuong\AppData\Local\Temp\ccbgGR22.s 			page 13


 513 0226 0099     		ldr	r1, [sp]
 514 0228 8C46     		mov	ip, r1
 515 022a 6544     		add	r5, r5, ip
 516 022c BE69     		ldr	r6, [r7, #24]
 517 022e B446     		mov	ip, r6
 518 0230 6544     		add	r5, r5, ip
 519              	.LVL24:
 520 0232 1226     		movs	r6, #18
 521 0234 F541     		rors	r5, r5, r6
 522              	.LVL25:
 523 0236 7E69     		ldr	r6, [r7, #20]
 524 0238 B446     		mov	ip, r6
 525 023a 6544     		add	r5, r5, ip
 526              	.LVL26:
 527 023c FE68     		ldr	r6, [r7, #12]
 528 023e DE41     		rors	r6, r6, r3
 529 0240 B046     		mov	r8, r6
 530              	.LVL27:
 531 0242 4E46     		mov	r6, r9
 532              	.LVL28:
 533 0244 F143     		mvns	r1, r6
 534 0246 FE68     		ldr	r6, [r7, #12]
 535 0248 3143     		orrs	r1, r6
 536 024a 5140     		eors	r1, r2
 537 024c 0D9E     		ldr	r6, [sp, #52]
 538 024e B446     		mov	ip, r6
 539 0250 6144     		add	r1, r1, ip
 540 0252 BE69     		ldr	r6, [r7, #24]
 541 0254 B446     		mov	ip, r6
 542 0256 6144     		add	r1, r1, ip
 543 0258 EB4E     		ldr	r6, .L10
 544 025a B446     		mov	ip, r6
 545 025c 6144     		add	r1, r1, ip
 546              	.LVL29:
 547 025e 1726     		movs	r6, #23
 548 0260 F141     		rors	r1, r1, r6
 549              	.LVL30:
 550 0262 7E69     		ldr	r6, [r7, #20]
 551 0264 B446     		mov	ip, r6
 552              	.LVL31:
 553 0266 6144     		add	r1, r1, ip
 554              	.LVL32:
 173:Source\mbedtls_open\library/ripemd160.c ****     P2( D, E, A, B, C,  2, 15,  7,  9 );
 555              		.loc 1 173 0
 556 0268 0400     		movs	r4, r0
 557 026a 6C40     		eors	r4, r5
 558 026c 4646     		mov	r6, r8
 559 026e 7440     		eors	r4, r6
 560 0270 019E     		ldr	r6, [sp, #4]
 561 0272 B446     		mov	ip, r6
 562 0274 6444     		add	r4, r4, ip
 563 0276 7E69     		ldr	r6, [r7, #20]
 564 0278 B446     		mov	ip, r6
 565 027a 6444     		add	r4, r4, ip
 566              	.LVL33:
 567 027c 1126     		movs	r6, #17
 568 027e F441     		rors	r4, r4, r6
ARM GAS  C:\Users\Phuong\AppData\Local\Temp\ccbgGR22.s 			page 14


 569              	.LVL34:
 570 0280 4C44     		add	r4, r4, r9
 571              	.LVL35:
 572 0282 D841     		rors	r0, r0, r3
 573              	.LVL36:
 574 0284 8346     		mov	fp, r0
 575              	.LVL37:
 576 0286 4046     		mov	r0, r8
 577              	.LVL38:
 578 0288 C043     		mvns	r0, r0
 579 028a 1043     		orrs	r0, r2
 580 028c 4840     		eors	r0, r1
 581 028e 069E     		ldr	r6, [sp, #24]
 582 0290 B446     		mov	ip, r6
 583 0292 6044     		add	r0, r0, ip
 584 0294 7E69     		ldr	r6, [r7, #20]
 585 0296 B446     		mov	ip, r6
 586 0298 6044     		add	r0, r0, ip
 587 029a DB4E     		ldr	r6, .L10
 588 029c B446     		mov	ip, r6
 589 029e 6044     		add	r0, r0, ip
 590              	.LVL39:
 591 02a0 1726     		movs	r6, #23
 592 02a2 F041     		rors	r0, r0, r6
 593              	.LVL40:
 594 02a4 0600     		movs	r6, r0
 595 02a6 4E44     		add	r6, r6, r9
 596 02a8 1096     		str	r6, [sp, #64]
 597              	.LVL41:
 598 02aa DA41     		rors	r2, r2, r3
 599              	.LVL42:
 174:Source\mbedtls_open\library/ripemd160.c ****     P2( C, D, E, A, B,  3, 12,  0, 11 );
 600              		.loc 1 174 0
 601 02ac 2800     		movs	r0, r5
 602 02ae 6040     		eors	r0, r4
 603 02b0 0600     		movs	r6, r0
 604              	.LVL43:
 605 02b2 5846     		mov	r0, fp
 606 02b4 4640     		eors	r6, r0
 607 02b6 0298     		ldr	r0, [sp, #8]
 608 02b8 8446     		mov	ip, r0
 609 02ba 6644     		add	r6, r6, ip
 610 02bc 4E44     		add	r6, r6, r9
 611              	.LVL44:
 612 02be 1420     		movs	r0, #20
 613 02c0 C641     		rors	r6, r6, r0
 614              	.LVL45:
 615 02c2 B246     		mov	r10, r6
 616 02c4 C244     		add	r10, r10, r8
 617              	.LVL46:
 618 02c6 2800     		movs	r0, r5
 619 02c8 D841     		rors	r0, r0, r3
 620 02ca 1190     		str	r0, [sp, #68]
 621              	.LVL47:
 622 02cc 1392     		str	r2, [sp, #76]
 623 02ce D543     		mvns	r5, r2
 624 02d0 0D43     		orrs	r5, r1
ARM GAS  C:\Users\Phuong\AppData\Local\Temp\ccbgGR22.s 			page 15


 625 02d2 109E     		ldr	r6, [sp, #64]
 626 02d4 7540     		eors	r5, r6
 627 02d6 0F9E     		ldr	r6, [sp, #60]
 628 02d8 B446     		mov	ip, r6
 629 02da 6544     		add	r5, r5, ip
 630 02dc 4D44     		add	r5, r5, r9
 631 02de CA48     		ldr	r0, .L10
 632              	.LVL48:
 633 02e0 8446     		mov	ip, r0
 634 02e2 6544     		add	r5, r5, ip
 635              	.LVL49:
 636 02e4 1520     		movs	r0, #21
 637 02e6 C541     		rors	r5, r5, r0
 638              	.LVL50:
 639 02e8 4544     		add	r5, r5, r8
 640              	.LVL51:
 641 02ea D941     		rors	r1, r1, r3
 642              	.LVL52:
 175:Source\mbedtls_open\library/ripemd160.c ****     P2( B, C, D, E, A,  4,  5,  9, 13 );
 643              		.loc 1 175 0
 644 02ec 5046     		mov	r0, r10
 645 02ee 6040     		eors	r0, r4
 646 02f0 119A     		ldr	r2, [sp, #68]
 647              	.LVL53:
 648 02f2 5040     		eors	r0, r2
 649 02f4 8146     		mov	r9, r0
 650 02f6 0398     		ldr	r0, [sp, #12]
 651 02f8 8446     		mov	ip, r0
 652 02fa E144     		add	r9, r9, ip
 653 02fc C144     		add	r9, r9, r8
 654              	.LVL54:
 655 02fe 4846     		mov	r0, r9
 656 0300 1B22     		movs	r2, #27
 657 0302 D041     		rors	r0, r0, r2
 658 0304 8146     		mov	r9, r0
 659              	.LVL55:
 660 0306 D944     		add	r9, r9, fp
 661              	.LVL56:
 662 0308 DC41     		rors	r4, r4, r3
 663              	.LVL57:
 664 030a 2600     		movs	r6, r4
 665              	.LVL58:
 666 030c CC43     		mvns	r4, r1
 667              	.LVL59:
 668 030e 109A     		ldr	r2, [sp, #64]
 669 0310 1443     		orrs	r4, r2
 670 0312 6C40     		eors	r4, r5
 671 0314 0898     		ldr	r0, [sp, #32]
 672 0316 8446     		mov	ip, r0
 673 0318 6444     		add	r4, r4, ip
 674 031a 4444     		add	r4, r4, r8
 675 031c BA4A     		ldr	r2, .L10
 676 031e 9446     		mov	ip, r2
 677 0320 6444     		add	r4, r4, ip
 678              	.LVL60:
 679 0322 1322     		movs	r2, #19
 680 0324 D441     		rors	r4, r4, r2
ARM GAS  C:\Users\Phuong\AppData\Local\Temp\ccbgGR22.s 			page 16


 681              	.LVL61:
 682 0326 1398     		ldr	r0, [sp, #76]
 683              	.LVL62:
 684 0328 8446     		mov	ip, r0
 685              	.LVL63:
 686 032a 6444     		add	r4, r4, ip
 687 032c 1294     		str	r4, [sp, #72]
 688              	.LVL64:
 689 032e 109C     		ldr	r4, [sp, #64]
 690              	.LVL65:
 691 0330 DC41     		rors	r4, r4, r3
 692 0332 2000     		movs	r0, r4
 693              	.LVL66:
 176:Source\mbedtls_open\library/ripemd160.c ****     P2( A, B, C, D, E,  5,  8,  2, 15 );
 694              		.loc 1 176 0
 695 0334 4C46     		mov	r4, r9
 696 0336 5246     		mov	r2, r10
 697 0338 5440     		eors	r4, r2
 698 033a 2200     		movs	r2, r4
 699 033c 3400     		movs	r4, r6
 700 033e 7240     		eors	r2, r6
 701 0340 9446     		mov	ip, r2
 702 0342 049E     		ldr	r6, [sp, #16]
 703              	.LVL67:
 704 0344 B046     		mov	r8, r6
 705 0346 C444     		add	ip, ip, r8
 706 0348 DC44     		add	ip, ip, fp
 707              	.LVL68:
 708 034a 6246     		mov	r2, ip
 709 034c 1826     		movs	r6, #24
 710 034e F241     		rors	r2, r2, r6
 711 0350 9446     		mov	ip, r2
 712              	.LVL69:
 713 0352 119A     		ldr	r2, [sp, #68]
 714 0354 9046     		mov	r8, r2
 715 0356 C444     		add	ip, ip, r8
 716              	.LVL70:
 717 0358 5646     		mov	r6, r10
 718 035a DE41     		rors	r6, r6, r3
 719 035c 1096     		str	r6, [sp, #64]
 720              	.LVL71:
 721 035e C243     		mvns	r2, r0
 722 0360 2A43     		orrs	r2, r5
 723 0362 129E     		ldr	r6, [sp, #72]
 724              	.LVL72:
 725 0364 7240     		eors	r2, r6
 726 0366 9246     		mov	r10, r2
 727 0368 019E     		ldr	r6, [sp, #4]
 728 036a B046     		mov	r8, r6
 729 036c C244     		add	r10, r10, r8
 730 036e 139E     		ldr	r6, [sp, #76]
 731 0370 B346     		mov	fp, r6
 732 0372 D344     		add	fp, fp, r10
 733 0374 5A46     		mov	r2, fp
 734 0376 A44E     		ldr	r6, .L10
 735 0378 B046     		mov	r8, r6
 736 037a 4244     		add	r2, r2, r8
ARM GAS  C:\Users\Phuong\AppData\Local\Temp\ccbgGR22.s 			page 17


 737              	.LVL73:
 738 037c 1126     		movs	r6, #17
 739 037e F241     		rors	r2, r2, r6
 740              	.LVL74:
 741 0380 9246     		mov	r10, r2
 742 0382 8A44     		add	r10, r10, r1
 743              	.LVL75:
 744 0384 DD41     		rors	r5, r5, r3
 745              	.LVL76:
 177:Source\mbedtls_open\library/ripemd160.c ****     P2( E, A, B, C, D,  6,  7, 11, 15 );
 746              		.loc 1 177 0
 747 0386 4A46     		mov	r2, r9
 748 0388 6646     		mov	r6, ip
 749 038a 7240     		eors	r2, r6
 750 038c 109E     		ldr	r6, [sp, #64]
 751 038e 7240     		eors	r2, r6
 752 0390 059E     		ldr	r6, [sp, #20]
 753 0392 B046     		mov	r8, r6
 754 0394 4244     		add	r2, r2, r8
 755 0396 119E     		ldr	r6, [sp, #68]
 756 0398 B046     		mov	r8, r6
 757 039a 4244     		add	r2, r2, r8
 758              	.LVL77:
 759 039c 1926     		movs	r6, #25
 760 039e F241     		rors	r2, r2, r6
 761              	.LVL78:
 762 03a0 1494     		str	r4, [sp, #80]
 763 03a2 A046     		mov	r8, r4
 764 03a4 1400     		movs	r4, r2
 765              	.LVL79:
 766 03a6 4444     		add	r4, r4, r8
 767 03a8 1194     		str	r4, [sp, #68]
 768              	.LVL80:
 769 03aa 4C46     		mov	r4, r9
 770              	.LVL81:
 771 03ac DC41     		rors	r4, r4, r3
 772 03ae A146     		mov	r9, r4
 773              	.LVL82:
 774 03b0 EC43     		mvns	r4, r5
 775              	.LVL83:
 776 03b2 129A     		ldr	r2, [sp, #72]
 777 03b4 1443     		orrs	r4, r2
 778 03b6 5246     		mov	r2, r10
 779 03b8 5440     		eors	r4, r2
 780 03ba A046     		mov	r8, r4
 781              	.LVL84:
 782 03bc 0A9C     		ldr	r4, [sp, #40]
 783 03be A346     		mov	fp, r4
 784 03c0 D844     		add	r8, r8, fp
 785 03c2 4144     		add	r1, r1, r8
 786              	.LVL85:
 787 03c4 904A     		ldr	r2, .L10
 788 03c6 9046     		mov	r8, r2
 789 03c8 4144     		add	r1, r1, r8
 790              	.LVL86:
 791 03ca 1122     		movs	r2, #17
 792 03cc D141     		rors	r1, r1, r2
ARM GAS  C:\Users\Phuong\AppData\Local\Temp\ccbgGR22.s 			page 18


 793              	.LVL87:
 794 03ce 4118     		adds	r1, r0, r1
 795              	.LVL88:
 796 03d0 129A     		ldr	r2, [sp, #72]
 797 03d2 DA41     		rors	r2, r2, r3
 798 03d4 1392     		str	r2, [sp, #76]
 799              	.LVL89:
 178:Source\mbedtls_open\library/ripemd160.c ****     P2( D, E, A, B, C,  7,  9,  4,  5 );
 800              		.loc 1 178 0
 801 03d6 6446     		mov	r4, ip
 802 03d8 119A     		ldr	r2, [sp, #68]
 803              	.LVL90:
 804 03da 5440     		eors	r4, r2
 805 03dc 4A46     		mov	r2, r9
 806 03de 5440     		eors	r4, r2
 807 03e0 A346     		mov	fp, r4
 808 03e2 069C     		ldr	r4, [sp, #24]
 809 03e4 A046     		mov	r8, r4
 810 03e6 C344     		add	fp, fp, r8
 811 03e8 149C     		ldr	r4, [sp, #80]
 812 03ea A046     		mov	r8, r4
 813 03ec C344     		add	fp, fp, r8
 814              	.LVL91:
 815 03ee 5C46     		mov	r4, fp
 816 03f0 1722     		movs	r2, #23
 817 03f2 D441     		rors	r4, r4, r2
 818 03f4 A346     		mov	fp, r4
 819              	.LVL92:
 820 03f6 109C     		ldr	r4, [sp, #64]
 821 03f8 A046     		mov	r8, r4
 822 03fa C344     		add	fp, fp, r8
 823              	.LVL93:
 824 03fc 6446     		mov	r4, ip
 825 03fe DC41     		rors	r4, r4, r3
 826 0400 1294     		str	r4, [sp, #72]
 827              	.LVL94:
 828 0402 139A     		ldr	r2, [sp, #76]
 829 0404 D243     		mvns	r2, r2
 830 0406 1400     		movs	r4, r2
 831              	.LVL95:
 832 0408 5246     		mov	r2, r10
 833 040a 1443     		orrs	r4, r2
 834 040c 4C40     		eors	r4, r1
 835 040e A046     		mov	r8, r4
 836 0410 039C     		ldr	r4, [sp, #12]
 837 0412 A446     		mov	ip, r4
 838 0414 E044     		add	r8, r8, ip
 839 0416 4044     		add	r0, r0, r8
 840              	.LVL96:
 841 0418 7B4A     		ldr	r2, .L10
 842 041a 9446     		mov	ip, r2
 843 041c 6044     		add	r0, r0, ip
 844              	.LVL97:
 845 041e 1B22     		movs	r2, #27
 846 0420 D041     		rors	r0, r0, r2
 847              	.LVL98:
 848 0422 8046     		mov	r8, r0
ARM GAS  C:\Users\Phuong\AppData\Local\Temp\ccbgGR22.s 			page 19


 849 0424 A844     		add	r8, r8, r5
 850              	.LVL99:
 851 0426 5046     		mov	r0, r10
 852 0428 D841     		rors	r0, r0, r3
 853              	.LVL100:
 179:Source\mbedtls_open\library/ripemd160.c ****     P2( C, D, E, A, B,  8, 11, 13,  7 );
 854              		.loc 1 179 0
 855 042a 5C46     		mov	r4, fp
 856 042c 119A     		ldr	r2, [sp, #68]
 857 042e 5440     		eors	r4, r2
 858 0430 129A     		ldr	r2, [sp, #72]
 859 0432 5440     		eors	r4, r2
 860 0434 A246     		mov	r10, r4
 861 0436 079C     		ldr	r4, [sp, #28]
 862 0438 A446     		mov	ip, r4
 863 043a E244     		add	r10, r10, ip
 864 043c 109C     		ldr	r4, [sp, #64]
 865 043e A446     		mov	ip, r4
 866 0440 E244     		add	r10, r10, ip
 867              	.LVL101:
 868 0442 5446     		mov	r4, r10
 869 0444 1522     		movs	r2, #21
 870 0446 D441     		rors	r4, r4, r2
 871 0448 A246     		mov	r10, r4
 872              	.LVL102:
 873 044a CA44     		add	r10, r10, r9
 874              	.LVL103:
 875 044c 119A     		ldr	r2, [sp, #68]
 876 044e DA41     		rors	r2, r2, r3
 877 0450 1092     		str	r2, [sp, #64]
 878              	.LVL104:
 879 0452 C243     		mvns	r2, r0
 880              	.LVL105:
 881 0454 0A43     		orrs	r2, r1
 882 0456 4446     		mov	r4, r8
 883 0458 6240     		eors	r2, r4
 884 045a 0C9C     		ldr	r4, [sp, #48]
 885 045c A446     		mov	ip, r4
 886 045e 6244     		add	r2, r2, ip
 887 0460 AA18     		adds	r2, r5, r2
 888 0462 694D     		ldr	r5, .L10
 889              	.LVL106:
 890 0464 AC46     		mov	ip, r5
 891 0466 6244     		add	r2, r2, ip
 892              	.LVL107:
 893 0468 F241     		rors	r2, r2, r6
 894              	.LVL108:
 895 046a 1500     		movs	r5, r2
 896 046c 139A     		ldr	r2, [sp, #76]
 897 046e 9446     		mov	ip, r2
 898 0470 6544     		add	r5, r5, ip
 899 0472 1195     		str	r5, [sp, #68]
 900              	.LVL109:
 901 0474 D941     		rors	r1, r1, r3
 902              	.LVL110:
 903 0476 0C00     		movs	r4, r1
 904              	.LVL111:
ARM GAS  C:\Users\Phuong\AppData\Local\Temp\ccbgGR22.s 			page 20


 180:Source\mbedtls_open\library/ripemd160.c ****     P2( B, C, D, E, A,  9, 13,  6,  7 );
 905              		.loc 1 180 0
 906 0478 5D46     		mov	r5, fp
 907              	.LVL112:
 908 047a 5146     		mov	r1, r10
 909              	.LVL113:
 910 047c 4D40     		eors	r5, r1
 911 047e 1099     		ldr	r1, [sp, #64]
 912 0480 4D40     		eors	r5, r1
 913 0482 0899     		ldr	r1, [sp, #32]
 914 0484 8C46     		mov	ip, r1
 915 0486 6544     		add	r5, r5, ip
 916 0488 4D44     		add	r5, r5, r9
 917              	.LVL114:
 918 048a 1321     		movs	r1, #19
 919 048c CD41     		rors	r5, r5, r1
 920              	.LVL115:
 921 048e 1299     		ldr	r1, [sp, #72]
 922 0490 8C46     		mov	ip, r1
 923 0492 6544     		add	r5, r5, ip
 924              	.LVL116:
 925 0494 5946     		mov	r1, fp
 926 0496 D941     		rors	r1, r1, r3
 927 0498 8B46     		mov	fp, r1
 928              	.LVL117:
 929 049a 1394     		str	r4, [sp, #76]
 930              	.LVL118:
 931 049c E143     		mvns	r1, r4
 932              	.LVL119:
 933 049e 4446     		mov	r4, r8
 934              	.LVL120:
 935 04a0 2143     		orrs	r1, r4
 936 04a2 119C     		ldr	r4, [sp, #68]
 937 04a4 6140     		eors	r1, r4
 938 04a6 8946     		mov	r9, r1
 939 04a8 059C     		ldr	r4, [sp, #20]
 940 04aa A446     		mov	ip, r4
 941 04ac E144     		add	r9, r9, ip
 942 04ae 9446     		mov	ip, r2
 943 04b0 CC44     		add	ip, ip, r9
 944 04b2 6446     		mov	r4, ip
 945 04b4 5449     		ldr	r1, .L10
 946 04b6 8C46     		mov	ip, r1
 947 04b8 6444     		add	r4, r4, ip
 948              	.LVL121:
 949 04ba F441     		rors	r4, r4, r6
 950              	.LVL122:
 951 04bc 0419     		adds	r4, r0, r4
 952              	.LVL123:
 953 04be 4146     		mov	r1, r8
 954 04c0 D941     		rors	r1, r1, r3
 955 04c2 8946     		mov	r9, r1
 956              	.LVL124:
 181:Source\mbedtls_open\library/ripemd160.c ****     P2( A, B, C, D, E, 10, 14, 15,  8 );
 957              		.loc 1 181 0
 958 04c4 5146     		mov	r1, r10
 959              	.LVL125:
ARM GAS  C:\Users\Phuong\AppData\Local\Temp\ccbgGR22.s 			page 21


 960 04c6 6940     		eors	r1, r5
 961 04c8 5A46     		mov	r2, fp
 962 04ca 5140     		eors	r1, r2
 963 04cc 8846     		mov	r8, r1
 964 04ce 0999     		ldr	r1, [sp, #36]
 965 04d0 8C46     		mov	ip, r1
 966 04d2 E044     		add	r8, r8, ip
 967 04d4 129A     		ldr	r2, [sp, #72]
 968 04d6 9446     		mov	ip, r2
 969 04d8 C444     		add	ip, ip, r8
 970              	.LVL126:
 971 04da 6146     		mov	r1, ip
 972 04dc 1222     		movs	r2, #18
 973 04de D141     		rors	r1, r1, r2
 974 04e0 8C46     		mov	ip, r1
 975              	.LVL127:
 976 04e2 1099     		ldr	r1, [sp, #64]
 977 04e4 8846     		mov	r8, r1
 978              	.LVL128:
 979 04e6 C444     		add	ip, ip, r8
 980              	.LVL129:
 981 04e8 5146     		mov	r1, r10
 982 04ea D941     		rors	r1, r1, r3
 983 04ec 1291     		str	r1, [sp, #72]
 984              	.LVL130:
 985 04ee 4A46     		mov	r2, r9
 986 04f0 D243     		mvns	r2, r2
 987 04f2 1100     		movs	r1, r2
 988              	.LVL131:
 989 04f4 119A     		ldr	r2, [sp, #68]
 990 04f6 1143     		orrs	r1, r2
 991 04f8 6140     		eors	r1, r4
 992 04fa 8846     		mov	r8, r1
 993 04fc 0E99     		ldr	r1, [sp, #56]
 994 04fe 8A46     		mov	r10, r1
 995 0500 D044     		add	r8, r8, r10
 996 0502 4044     		add	r0, r0, r8
 997              	.LVL132:
 998 0504 404A     		ldr	r2, .L10
 999 0506 9046     		mov	r8, r2
 1000 0508 4044     		add	r0, r0, r8
 1001              	.LVL133:
 1002 050a 1822     		movs	r2, #24
 1003 050c D041     		rors	r0, r0, r2
 1004              	.LVL134:
 1005 050e 139A     		ldr	r2, [sp, #76]
 1006 0510 9046     		mov	r8, r2
 1007 0512 4044     		add	r0, r0, r8
 1008              	.LVL135:
 1009 0514 119A     		ldr	r2, [sp, #68]
 1010 0516 DA41     		rors	r2, r2, r3
 1011 0518 9246     		mov	r10, r2
 1012              	.LVL136:
 182:Source\mbedtls_open\library/ripemd160.c ****     P2( E, A, B, C, D, 11, 15,  8, 11 );
 1013              		.loc 1 182 0
 1014 051a 6246     		mov	r2, ip
 1015              	.LVL137:
ARM GAS  C:\Users\Phuong\AppData\Local\Temp\ccbgGR22.s 			page 22


 1016 051c 6A40     		eors	r2, r5
 1017 051e 1299     		ldr	r1, [sp, #72]
 1018 0520 4A40     		eors	r2, r1
 1019 0522 0A99     		ldr	r1, [sp, #40]
 1020 0524 8846     		mov	r8, r1
 1021 0526 4244     		add	r2, r2, r8
 1022 0528 1099     		ldr	r1, [sp, #64]
 1023 052a 8846     		mov	r8, r1
 1024 052c 4244     		add	r2, r2, r8
 1025              	.LVL138:
 1026 052e 1121     		movs	r1, #17
 1027 0530 CA41     		rors	r2, r2, r1
 1028              	.LVL139:
 1029 0532 5A44     		add	r2, r2, fp
 1030              	.LVL140:
 1031 0534 DD41     		rors	r5, r5, r3
 1032              	.LVL141:
 1033 0536 1095     		str	r5, [sp, #64]
 1034              	.LVL142:
 1035 0538 5546     		mov	r5, r10
 1036              	.LVL143:
 1037 053a ED43     		mvns	r5, r5
 1038 053c 2543     		orrs	r5, r4
 1039 053e 4540     		eors	r5, r0
 1040 0540 0799     		ldr	r1, [sp, #28]
 1041 0542 8846     		mov	r8, r1
 1042 0544 4544     		add	r5, r5, r8
 1043 0546 1399     		ldr	r1, [sp, #76]
 1044 0548 4919     		adds	r1, r1, r5
 1045 054a 2F4D     		ldr	r5, .L10
 1046 054c A846     		mov	r8, r5
 1047 054e 4144     		add	r1, r1, r8
 1048              	.LVL144:
 1049 0550 1525     		movs	r5, #21
 1050 0552 E941     		rors	r1, r1, r5
 1051              	.LVL145:
 1052 0554 4944     		add	r1, r1, r9
 1053              	.LVL146:
 1054 0556 DC41     		rors	r4, r4, r3
 1055              	.LVL147:
 1056 0558 1194     		str	r4, [sp, #68]
 1057              	.LVL148:
 183:Source\mbedtls_open\library/ripemd160.c ****     P2( D, E, A, B, C, 12,  6,  1, 14 );
 1058              		.loc 1 183 0
 1059 055a 6546     		mov	r5, ip
 1060 055c 5540     		eors	r5, r2
 1061 055e 109C     		ldr	r4, [sp, #64]
 1062              	.LVL149:
 1063 0560 6540     		eors	r5, r4
 1064 0562 0B9C     		ldr	r4, [sp, #44]
 1065 0564 A046     		mov	r8, r4
 1066 0566 4544     		add	r5, r5, r8
 1067 0568 5D44     		add	r5, r5, fp
 1068              	.LVL150:
 1069 056a 1A24     		movs	r4, #26
 1070 056c E541     		rors	r5, r5, r4
 1071              	.LVL151:
ARM GAS  C:\Users\Phuong\AppData\Local\Temp\ccbgGR22.s 			page 23


 1072 056e 129C     		ldr	r4, [sp, #72]
 1073 0570 A346     		mov	fp, r4
 1074              	.LVL152:
 1075 0572 AB44     		add	fp, fp, r5
 1076              	.LVL153:
 1077 0574 6546     		mov	r5, ip
 1078 0576 DD41     		rors	r5, r5, r3
 1079 0578 AC46     		mov	ip, r5
 1080              	.LVL154:
 1081 057a 119C     		ldr	r4, [sp, #68]
 1082 057c E543     		mvns	r5, r4
 1083              	.LVL155:
 1084 057e 0543     		orrs	r5, r0
 1085 0580 4D40     		eors	r5, r1
 1086 0582 009C     		ldr	r4, [sp]
 1087 0584 A046     		mov	r8, r4
 1088 0586 4544     		add	r5, r5, r8
 1089 0588 4D44     		add	r5, r5, r9
 1090 058a 1F4C     		ldr	r4, .L10
 1091 058c A046     		mov	r8, r4
 1092 058e 4544     		add	r5, r5, r8
 1093              	.LVL156:
 1094 0590 1224     		movs	r4, #18
 1095 0592 E541     		rors	r5, r5, r4
 1096              	.LVL157:
 1097 0594 5544     		add	r5, r5, r10
 1098 0596 A846     		mov	r8, r5
 1099              	.LVL158:
 1100 0598 D841     		rors	r0, r0, r3
 1101              	.LVL159:
 1102 059a 0400     		movs	r4, r0
 1103              	.LVL160:
 184:Source\mbedtls_open\library/ripemd160.c ****     P2( C, D, E, A, B, 13,  7, 10, 14 );
 1104              		.loc 1 184 0
 1105 059c 5D46     		mov	r5, fp
 1106              	.LVL161:
 1107 059e 5540     		eors	r5, r2
 1108 05a0 6046     		mov	r0, ip
 1109              	.LVL162:
 1110 05a2 4540     		eors	r5, r0
 1111 05a4 0C98     		ldr	r0, [sp, #48]
 1112 05a6 8146     		mov	r9, r0
 1113 05a8 4D44     		add	r5, r5, r9
 1114 05aa 1298     		ldr	r0, [sp, #72]
 1115 05ac 8146     		mov	r9, r0
 1116 05ae 4D44     		add	r5, r5, r9
 1117              	.LVL163:
 1118 05b0 F541     		rors	r5, r5, r6
 1119              	.LVL164:
 1120 05b2 1098     		ldr	r0, [sp, #64]
 1121 05b4 8146     		mov	r9, r0
 1122 05b6 4D44     		add	r5, r5, r9
 1123              	.LVL165:
 1124 05b8 DA41     		rors	r2, r2, r3
 1125              	.LVL166:
 1126 05ba 1292     		str	r2, [sp, #72]
 1127              	.LVL167:
ARM GAS  C:\Users\Phuong\AppData\Local\Temp\ccbgGR22.s 			page 24


 1128 05bc 1494     		str	r4, [sp, #80]
 1129 05be E243     		mvns	r2, r4
 1130              	.LVL168:
 1131 05c0 0A43     		orrs	r2, r1
 1132 05c2 4046     		mov	r0, r8
 1133 05c4 4240     		eors	r2, r0
 1134 05c6 099C     		ldr	r4, [sp, #36]
 1135              	.LVL169:
 1136 05c8 A146     		mov	r9, r4
 1137 05ca 4A44     		add	r2, r2, r9
 1138 05cc 5244     		add	r2, r2, r10
 1139 05ce 0E48     		ldr	r0, .L10
 1140 05d0 8146     		mov	r9, r0
 1141 05d2 4A44     		add	r2, r2, r9
 1142              	.LVL170:
 1143 05d4 1220     		movs	r0, #18
 1144 05d6 C241     		rors	r2, r2, r0
 1145              	.LVL171:
 1146 05d8 9246     		mov	r10, r2
 1147              	.LVL172:
 1148 05da 1198     		ldr	r0, [sp, #68]
 1149 05dc 8146     		mov	r9, r0
 1150 05de CA44     		add	r10, r10, r9
 1151 05e0 5046     		mov	r0, r10
 1152 05e2 1390     		str	r0, [sp, #76]
 1153              	.LVL173:
 1154 05e4 D941     		rors	r1, r1, r3
 1155              	.LVL174:
 1156 05e6 8A46     		mov	r10, r1
 1157              	.LVL175:
 185:Source\mbedtls_open\library/ripemd160.c ****     P2( B, C, D, E, A, 14,  9,  3, 12 );
 1158              		.loc 1 185 0
 1159 05e8 5946     		mov	r1, fp
 1160              	.LVL176:
 1161 05ea 6940     		eors	r1, r5
 1162 05ec 129A     		ldr	r2, [sp, #72]
 1163 05ee 5140     		eors	r1, r2
 1164 05f0 0D98     		ldr	r0, [sp, #52]
 1165              	.LVL177:
 1166 05f2 8146     		mov	r9, r0
 1167 05f4 4944     		add	r1, r1, r9
 1168 05f6 1098     		ldr	r0, [sp, #64]
 1169 05f8 8146     		mov	r9, r0
 1170 05fa 4944     		add	r1, r1, r9
 1171              	.LVL178:
 1172 05fc 1722     		movs	r2, #23
 1173 05fe D141     		rors	r1, r1, r2
 1174              	.LVL179:
 1175 0600 6144     		add	r1, r1, ip
 1176              	.LVL180:
 1177 0602 5846     		mov	r0, fp
 1178 0604 D841     		rors	r0, r0, r3
 1179 0606 01E0     		b	.L11
 1180              	.L12:
 1181              		.align	2
 1182              	.L10:
 1183 0608 E68BA250 		.word	1352829926
ARM GAS  C:\Users\Phuong\AppData\Local\Temp\ccbgGR22.s 			page 25


 1184              	.L11:
 1185              	.LVL181:
 1186 060c 5246     		mov	r2, r10
 1187 060e D243     		mvns	r2, r2
 1188 0610 1400     		movs	r4, r2
 1189 0612 4246     		mov	r2, r8
 1190 0614 1443     		orrs	r4, r2
 1191 0616 139A     		ldr	r2, [sp, #76]
 1192 0618 5440     		eors	r4, r2
 1193 061a A346     		mov	fp, r4
 1194 061c 029C     		ldr	r4, [sp, #8]
 1195 061e A146     		mov	r9, r4
 1196 0620 CB44     		add	fp, fp, r9
 1197 0622 119C     		ldr	r4, [sp, #68]
 1198 0624 5C44     		add	r4, r4, fp
 1199 0626 FE4A     		ldr	r2, .L13
 1200 0628 9146     		mov	r9, r2
 1201 062a 4C44     		add	r4, r4, r9
 1202              	.LVL182:
 1203 062c 1422     		movs	r2, #20
 1204 062e D441     		rors	r4, r4, r2
 1205              	.LVL183:
 1206 0630 149A     		ldr	r2, [sp, #80]
 1207 0632 9146     		mov	r9, r2
 1208              	.LVL184:
 1209 0634 4C44     		add	r4, r4, r9
 1210              	.LVL185:
 1211 0636 4246     		mov	r2, r8
 1212 0638 DA41     		rors	r2, r2, r3
 1213 063a 9346     		mov	fp, r2
 1214              	.LVL186:
 186:Source\mbedtls_open\library/ripemd160.c ****     P2( A, B, C, D, E, 15,  8, 12,  6 );
 1215              		.loc 1 186 0
 1216 063c 2A00     		movs	r2, r5
 1217              	.LVL187:
 1218 063e 4A40     		eors	r2, r1
 1219 0640 1090     		str	r0, [sp, #64]
 1220 0642 4240     		eors	r2, r0
 1221 0644 9046     		mov	r8, r2
 1222 0646 0E98     		ldr	r0, [sp, #56]
 1223              	.LVL188:
 1224 0648 8146     		mov	r9, r0
 1225 064a C844     		add	r8, r8, r9
 1226 064c C444     		add	ip, ip, r8
 1227              	.LVL189:
 1228 064e 6246     		mov	r2, ip
 1229 0650 1820     		movs	r0, #24
 1230 0652 C241     		rors	r2, r2, r0
 1231 0654 9446     		mov	ip, r2
 1232              	.LVL190:
 1233 0656 1298     		ldr	r0, [sp, #72]
 1234 0658 8146     		mov	r9, r0
 1235 065a CC44     		add	ip, ip, r9
 1236              	.LVL191:
 1237 065c DD41     		rors	r5, r5, r3
 1238              	.LVL192:
 1239 065e A846     		mov	r8, r5
ARM GAS  C:\Users\Phuong\AppData\Local\Temp\ccbgGR22.s 			page 26


 1240              	.LVL193:
 1241 0660 5A46     		mov	r2, fp
 1242 0662 D543     		mvns	r5, r2
 1243              	.LVL194:
 1244 0664 1398     		ldr	r0, [sp, #76]
 1245 0666 0543     		orrs	r5, r0
 1246 0668 6540     		eors	r5, r4
 1247 066a 0B98     		ldr	r0, [sp, #44]
 1248 066c 8146     		mov	r9, r0
 1249 066e 4D44     		add	r5, r5, r9
 1250 0670 149A     		ldr	r2, [sp, #80]
 1251 0672 5019     		adds	r0, r2, r5
 1252 0674 EA4A     		ldr	r2, .L13
 1253 0676 9146     		mov	r9, r2
 1254 0678 4844     		add	r0, r0, r9
 1255              	.LVL195:
 1256 067a 1A22     		movs	r2, #26
 1257 067c D041     		rors	r0, r0, r2
 1258              	.LVL196:
 1259 067e 5044     		add	r0, r0, r10
 1260              	.LVL197:
 1261 0680 139A     		ldr	r2, [sp, #76]
 1262 0682 DA41     		rors	r2, r2, r3
 1263 0684 1192     		str	r2, [sp, #68]
 1264              	.LVL198:
 187:Source\mbedtls_open\library/ripemd160.c **** #undef F
 188:Source\mbedtls_open\library/ripemd160.c **** #undef K
 189:Source\mbedtls_open\library/ripemd160.c **** #undef Fp
 190:Source\mbedtls_open\library/ripemd160.c **** #undef Kp
 191:Source\mbedtls_open\library/ripemd160.c **** 
 192:Source\mbedtls_open\library/ripemd160.c **** #define F   F2
 193:Source\mbedtls_open\library/ripemd160.c **** #define K   0x5A827999
 194:Source\mbedtls_open\library/ripemd160.c **** #define Fp  F4
 195:Source\mbedtls_open\library/ripemd160.c **** #define Kp  0x5C4DD124
 196:Source\mbedtls_open\library/ripemd160.c ****     P2( E, A, B, C, D,  7,  7,  6,  9 );
 1265              		.loc 1 196 0
 1266 0686 4246     		mov	r2, r8
 1267              	.LVL199:
 1268 0688 4A40     		eors	r2, r1
 1269 068a 6546     		mov	r5, ip
 1270 068c 2A40     		ands	r2, r5
 1271 068e 4546     		mov	r5, r8
 1272 0690 6A40     		eors	r2, r5
 1273 0692 069D     		ldr	r5, [sp, #24]
 1274 0694 A946     		mov	r9, r5
 1275 0696 4A44     		add	r2, r2, r9
 1276 0698 129D     		ldr	r5, [sp, #72]
 1277 069a A946     		mov	r9, r5
 1278 069c 4A44     		add	r2, r2, r9
 1279 069e E14D     		ldr	r5, .L13+4
 1280 06a0 A946     		mov	r9, r5
 1281 06a2 4A44     		add	r2, r2, r9
 1282              	.LVL200:
 1283 06a4 F241     		rors	r2, r2, r6
 1284              	.LVL201:
 1285 06a6 109D     		ldr	r5, [sp, #64]
 1286              	.LVL202:
ARM GAS  C:\Users\Phuong\AppData\Local\Temp\ccbgGR22.s 			page 27


 1287 06a8 A946     		mov	r9, r5
 1288              	.LVL203:
 1289 06aa 4A44     		add	r2, r2, r9
 1290 06ac 1292     		str	r2, [sp, #72]
 1291              	.LVL204:
 1292 06ae D941     		rors	r1, r1, r3
 1293              	.LVL205:
 1294 06b0 0A00     		movs	r2, r1
 1295              	.LVL206:
 1296 06b2 2500     		movs	r5, r4
 1297 06b4 4540     		eors	r5, r0
 1298 06b6 1199     		ldr	r1, [sp, #68]
 1299              	.LVL207:
 1300 06b8 0D40     		ands	r5, r1
 1301 06ba 6540     		eors	r5, r4
 1302 06bc 0599     		ldr	r1, [sp, #20]
 1303 06be 8946     		mov	r9, r1
 1304 06c0 4D44     		add	r5, r5, r9
 1305 06c2 5544     		add	r5, r5, r10
 1306 06c4 D849     		ldr	r1, .L13+8
 1307 06c6 8946     		mov	r9, r1
 1308 06c8 4D44     		add	r5, r5, r9
 1309              	.LVL208:
 1310 06ca 1721     		movs	r1, #23
 1311 06cc CD41     		rors	r5, r5, r1
 1312              	.LVL209:
 1313 06ce 5D44     		add	r5, r5, fp
 1314              	.LVL210:
 1315 06d0 DC41     		rors	r4, r4, r3
 1316              	.LVL211:
 1317 06d2 A246     		mov	r10, r4
 1318              	.LVL212:
 197:Source\mbedtls_open\library/ripemd160.c ****     P2( D, E, A, B, C,  4,  6, 11, 13 );
 1319              		.loc 1 197 0
 1320 06d4 6446     		mov	r4, ip
 1321              	.LVL213:
 1322 06d6 5440     		eors	r4, r2
 1323 06d8 1299     		ldr	r1, [sp, #72]
 1324 06da 0C40     		ands	r4, r1
 1325 06dc 1492     		str	r2, [sp, #80]
 1326 06de 5440     		eors	r4, r2
 1327 06e0 0399     		ldr	r1, [sp, #12]
 1328 06e2 8946     		mov	r9, r1
 1329 06e4 4C44     		add	r4, r4, r9
 1330 06e6 1099     		ldr	r1, [sp, #64]
 1331 06e8 8946     		mov	r9, r1
 1332 06ea 4C44     		add	r4, r4, r9
 1333 06ec CD49     		ldr	r1, .L13+4
 1334 06ee 8946     		mov	r9, r1
 1335 06f0 4C44     		add	r4, r4, r9
 1336              	.LVL214:
 1337 06f2 1A21     		movs	r1, #26
 1338 06f4 CC41     		rors	r4, r4, r1
 1339              	.LVL215:
 1340 06f6 4444     		add	r4, r4, r8
 1341              	.LVL216:
 1342 06f8 6146     		mov	r1, ip
ARM GAS  C:\Users\Phuong\AppData\Local\Temp\ccbgGR22.s 			page 28


 1343 06fa D941     		rors	r1, r1, r3
 1344 06fc 1091     		str	r1, [sp, #64]
 1345              	.LVL217:
 1346 06fe 0100     		movs	r1, r0
 1347              	.LVL218:
 1348 0700 6940     		eors	r1, r5
 1349 0702 5246     		mov	r2, r10
 1350              	.LVL219:
 1351 0704 1140     		ands	r1, r2
 1352 0706 4140     		eors	r1, r0
 1353 0708 8946     		mov	r9, r1
 1354 070a 0A99     		ldr	r1, [sp, #40]
 1355 070c 8C46     		mov	ip, r1
 1356 070e E144     		add	r9, r9, ip
 1357 0710 CB44     		add	fp, fp, r9
 1358              	.LVL220:
 1359 0712 C54A     		ldr	r2, .L13+8
 1360 0714 9446     		mov	ip, r2
 1361 0716 E344     		add	fp, fp, ip
 1362              	.LVL221:
 1363 0718 5946     		mov	r1, fp
 1364 071a 1322     		movs	r2, #19
 1365 071c D141     		rors	r1, r1, r2
 1366 071e 8B46     		mov	fp, r1
 1367              	.LVL222:
 1368 0720 1199     		ldr	r1, [sp, #68]
 1369 0722 8C46     		mov	ip, r1
 1370 0724 E344     		add	fp, fp, ip
 1371              	.LVL223:
 1372 0726 D841     		rors	r0, r0, r3
 1373              	.LVL224:
 1374 0728 1390     		str	r0, [sp, #76]
 1375              	.LVL225:
 198:Source\mbedtls_open\library/ripemd160.c ****     P2( C, D, E, A, B, 13,  8,  3, 15 );
 1376              		.loc 1 198 0
 1377 072a 1099     		ldr	r1, [sp, #64]
 1378 072c 0800     		movs	r0, r1
 1379              	.LVL226:
 1380 072e 129A     		ldr	r2, [sp, #72]
 1381 0730 5040     		eors	r0, r2
 1382 0732 2040     		ands	r0, r4
 1383 0734 4840     		eors	r0, r1
 1384 0736 0C99     		ldr	r1, [sp, #48]
 1385 0738 8946     		mov	r9, r1
 1386 073a 4844     		add	r0, r0, r9
 1387 073c 4044     		add	r0, r0, r8
 1388 073e B94A     		ldr	r2, .L13+4
 1389 0740 9446     		mov	ip, r2
 1390 0742 6044     		add	r0, r0, ip
 1391              	.LVL227:
 1392 0744 1822     		movs	r2, #24
 1393 0746 D041     		rors	r0, r0, r2
 1394              	.LVL228:
 1395 0748 149A     		ldr	r2, [sp, #80]
 1396 074a 9446     		mov	ip, r2
 1397              	.LVL229:
 1398 074c 6044     		add	r0, r0, ip
ARM GAS  C:\Users\Phuong\AppData\Local\Temp\ccbgGR22.s 			page 29


 1399              	.LVL230:
 1400 074e 129A     		ldr	r2, [sp, #72]
 1401 0750 DA41     		rors	r2, r2, r3
 1402 0752 9146     		mov	r9, r2
 1403              	.LVL231:
 1404 0754 5A46     		mov	r2, fp
 1405              	.LVL232:
 1406 0756 6A40     		eors	r2, r5
 1407 0758 1399     		ldr	r1, [sp, #76]
 1408 075a 0A40     		ands	r2, r1
 1409 075c 6A40     		eors	r2, r5
 1410 075e 0299     		ldr	r1, [sp, #8]
 1411 0760 8C46     		mov	ip, r1
 1412 0762 6244     		add	r2, r2, ip
 1413 0764 1199     		ldr	r1, [sp, #68]
 1414 0766 8C46     		mov	ip, r1
 1415 0768 6244     		add	r2, r2, ip
 1416 076a AF49     		ldr	r1, .L13+8
 1417 076c 8C46     		mov	ip, r1
 1418 076e 6244     		add	r2, r2, ip
 1419              	.LVL233:
 1420 0770 1121     		movs	r1, #17
 1421 0772 CA41     		rors	r2, r2, r1
 1422              	.LVL234:
 1423 0774 5244     		add	r2, r2, r10
 1424              	.LVL235:
 1425 0776 DD41     		rors	r5, r5, r3
 1426              	.LVL236:
 1427 0778 A846     		mov	r8, r5
 1428              	.LVL237:
 199:Source\mbedtls_open\library/ripemd160.c ****     P2( B, C, D, E, A,  1, 13,  7,  7 );
 1429              		.loc 1 199 0
 1430 077a 4D46     		mov	r5, r9
 1431              	.LVL238:
 1432 077c 6540     		eors	r5, r4
 1433 077e 0540     		ands	r5, r0
 1434 0780 4946     		mov	r1, r9
 1435 0782 4D40     		eors	r5, r1
 1436 0784 0099     		ldr	r1, [sp]
 1437 0786 8C46     		mov	ip, r1
 1438 0788 6544     		add	r5, r5, ip
 1439 078a 1499     		ldr	r1, [sp, #80]
 1440 078c 4919     		adds	r1, r1, r5
 1441 078e A54D     		ldr	r5, .L13+4
 1442 0790 AC46     		mov	ip, r5
 1443 0792 6144     		add	r1, r1, ip
 1444              	.LVL239:
 1445 0794 1325     		movs	r5, #19
 1446 0796 E941     		rors	r1, r1, r5
 1447              	.LVL240:
 1448 0798 109D     		ldr	r5, [sp, #64]
 1449 079a AC46     		mov	ip, r5
 1450              	.LVL241:
 1451 079c 6144     		add	r1, r1, ip
 1452              	.LVL242:
 1453 079e DC41     		rors	r4, r4, r3
 1454              	.LVL243:
ARM GAS  C:\Users\Phuong\AppData\Local\Temp\ccbgGR22.s 			page 30


 1455 07a0 1194     		str	r4, [sp, #68]
 1456              	.LVL244:
 1457 07a2 5D46     		mov	r5, fp
 1458 07a4 5540     		eors	r5, r2
 1459 07a6 4446     		mov	r4, r8
 1460              	.LVL245:
 1461 07a8 2540     		ands	r5, r4
 1462 07aa 5C46     		mov	r4, fp
 1463 07ac 6540     		eors	r5, r4
 1464 07ae 069C     		ldr	r4, [sp, #24]
 1465 07b0 A446     		mov	ip, r4
 1466 07b2 6544     		add	r5, r5, ip
 1467 07b4 5544     		add	r5, r5, r10
 1468 07b6 9C4C     		ldr	r4, .L13+8
 1469 07b8 A446     		mov	ip, r4
 1470 07ba 6544     		add	r5, r5, ip
 1471              	.LVL246:
 1472 07bc F541     		rors	r5, r5, r6
 1473              	.LVL247:
 1474 07be 139C     		ldr	r4, [sp, #76]
 1475              	.LVL248:
 1476 07c0 A446     		mov	ip, r4
 1477              	.LVL249:
 1478 07c2 AA46     		mov	r10, r5
 1479              	.LVL250:
 1480 07c4 E244     		add	r10, r10, ip
 1481 07c6 5446     		mov	r4, r10
 1482 07c8 1494     		str	r4, [sp, #80]
 1483              	.LVL251:
 1484 07ca 5C46     		mov	r4, fp
 1485              	.LVL252:
 1486 07cc DC41     		rors	r4, r4, r3
 1487 07ce 1294     		str	r4, [sp, #72]
 1488              	.LVL253:
 200:Source\mbedtls_open\library/ripemd160.c ****     P2( A, B, C, D, E, 10, 11,  0, 12 );
 1489              		.loc 1 200 0
 1490 07d0 0400     		movs	r4, r0
 1491              	.LVL254:
 1492 07d2 119D     		ldr	r5, [sp, #68]
 1493 07d4 6C40     		eors	r4, r5
 1494 07d6 0C40     		ands	r4, r1
 1495 07d8 6C40     		eors	r4, r5
 1496 07da A246     		mov	r10, r4
 1497              	.LVL255:
 1498 07dc 099C     		ldr	r4, [sp, #36]
 1499 07de A446     		mov	ip, r4
 1500 07e0 E244     		add	r10, r10, ip
 1501 07e2 109C     		ldr	r4, [sp, #64]
 1502 07e4 A446     		mov	ip, r4
 1503 07e6 D444     		add	ip, ip, r10
 1504 07e8 8E4C     		ldr	r4, .L13+4
 1505 07ea A246     		mov	r10, r4
 1506 07ec D444     		add	ip, ip, r10
 1507              	.LVL256:
 1508 07ee 6446     		mov	r4, ip
 1509 07f0 1525     		movs	r5, #21
 1510 07f2 EC41     		rors	r4, r4, r5
ARM GAS  C:\Users\Phuong\AppData\Local\Temp\ccbgGR22.s 			page 31


 1511 07f4 A446     		mov	ip, r4
 1512              	.LVL257:
 1513 07f6 CC44     		add	ip, ip, r9
 1514              	.LVL258:
 1515 07f8 D841     		rors	r0, r0, r3
 1516              	.LVL259:
 1517 07fa 8246     		mov	r10, r0
 1518              	.LVL260:
 1519 07fc 1000     		movs	r0, r2
 1520              	.LVL261:
 1521 07fe 149C     		ldr	r4, [sp, #80]
 1522 0800 6040     		eors	r0, r4
 1523 0802 129D     		ldr	r5, [sp, #72]
 1524 0804 2840     		ands	r0, r5
 1525 0806 5040     		eors	r0, r2
 1526 0808 0F9C     		ldr	r4, [sp, #60]
 1527 080a A346     		mov	fp, r4
 1528 080c 5844     		add	r0, r0, fp
 1529 080e 139C     		ldr	r4, [sp, #76]
 1530 0810 A346     		mov	fp, r4
 1531 0812 5844     		add	r0, r0, fp
 1532 0814 844D     		ldr	r5, .L13+8
 1533 0816 AB46     		mov	fp, r5
 1534 0818 5844     		add	r0, r0, fp
 1535              	.LVL262:
 1536 081a 1425     		movs	r5, #20
 1537 081c E841     		rors	r0, r0, r5
 1538              	.LVL263:
 1539 081e 4044     		add	r0, r0, r8
 1540              	.LVL264:
 1541 0820 DA41     		rors	r2, r2, r3
 1542              	.LVL265:
 1543 0822 1092     		str	r2, [sp, #64]
 1544              	.LVL266:
 201:Source\mbedtls_open\library/ripemd160.c ****     P2( E, A, B, C, D,  6,  9, 13,  8 );
 1545              		.loc 1 201 0
 1546 0824 5246     		mov	r2, r10
 1547              	.LVL267:
 1548 0826 4A40     		eors	r2, r1
 1549 0828 6546     		mov	r5, ip
 1550 082a 2A40     		ands	r2, r5
 1551 082c 5546     		mov	r5, r10
 1552 082e 6A40     		eors	r2, r5
 1553 0830 059C     		ldr	r4, [sp, #20]
 1554 0832 A346     		mov	fp, r4
 1555 0834 5A44     		add	r2, r2, fp
 1556 0836 4A44     		add	r2, r2, r9
 1557 0838 7A4D     		ldr	r5, .L13+4
 1558 083a A946     		mov	r9, r5
 1559              	.LVL268:
 1560 083c 4A44     		add	r2, r2, r9
 1561              	.LVL269:
 1562 083e 1725     		movs	r5, #23
 1563 0840 EA41     		rors	r2, r2, r5
 1564              	.LVL270:
 1565 0842 9346     		mov	fp, r2
 1566 0844 119C     		ldr	r4, [sp, #68]
ARM GAS  C:\Users\Phuong\AppData\Local\Temp\ccbgGR22.s 			page 32


 1567 0846 A146     		mov	r9, r4
 1568 0848 CB44     		add	fp, fp, r9
 1569 084a 5D46     		mov	r5, fp
 1570 084c 1395     		str	r5, [sp, #76]
 1571              	.LVL271:
 1572 084e 0A00     		movs	r2, r1
 1573 0850 DA41     		rors	r2, r2, r3
 1574 0852 9146     		mov	r9, r2
 1575              	.LVL272:
 1576 0854 149C     		ldr	r4, [sp, #80]
 1577 0856 2200     		movs	r2, r4
 1578              	.LVL273:
 1579 0858 4240     		eors	r2, r0
 1580 085a 1100     		movs	r1, r2
 1581 085c 109A     		ldr	r2, [sp, #64]
 1582 085e 1140     		ands	r1, r2
 1583 0860 6140     		eors	r1, r4
 1584 0862 0C9A     		ldr	r2, [sp, #48]
 1585 0864 9346     		mov	fp, r2
 1586 0866 5944     		add	r1, r1, fp
 1587 0868 4144     		add	r1, r1, r8
 1588 086a 6F4D     		ldr	r5, .L13+8
 1589              	.LVL274:
 1590 086c A846     		mov	r8, r5
 1591              	.LVL275:
 1592 086e 4144     		add	r1, r1, r8
 1593              	.LVL276:
 1594 0870 1825     		movs	r5, #24
 1595 0872 E941     		rors	r1, r1, r5
 1596              	.LVL277:
 1597 0874 129D     		ldr	r5, [sp, #72]
 1598 0876 AB46     		mov	fp, r5
 1599 0878 5944     		add	r1, r1, fp
 1600              	.LVL278:
 1601 087a 2500     		movs	r5, r4
 1602 087c DD41     		rors	r5, r5, r3
 1603 087e A846     		mov	r8, r5
 1604              	.LVL279:
 202:Source\mbedtls_open\library/ripemd160.c ****     P2( D, E, A, B, C, 15,  7,  5,  9 );
 1605              		.loc 1 202 0
 1606 0880 6546     		mov	r5, ip
 1607              	.LVL280:
 1608 0882 4A46     		mov	r2, r9
 1609 0884 5540     		eors	r5, r2
 1610 0886 139C     		ldr	r4, [sp, #76]
 1611 0888 2540     		ands	r5, r4
 1612 088a 5540     		eors	r5, r2
 1613 088c 0E9A     		ldr	r2, [sp, #56]
 1614 088e 9346     		mov	fp, r2
 1615 0890 5D44     		add	r5, r5, fp
 1616 0892 119A     		ldr	r2, [sp, #68]
 1617 0894 5419     		adds	r4, r2, r5
 1618 0896 634D     		ldr	r5, .L13+4
 1619 0898 AB46     		mov	fp, r5
 1620 089a 5C44     		add	r4, r4, fp
 1621              	.LVL281:
 1622 089c F441     		rors	r4, r4, r6
ARM GAS  C:\Users\Phuong\AppData\Local\Temp\ccbgGR22.s 			page 33


 1623              	.LVL282:
 1624 089e 5444     		add	r4, r4, r10
 1625              	.LVL283:
 1626 08a0 6546     		mov	r5, ip
 1627 08a2 DD41     		rors	r5, r5, r3
 1628 08a4 AC46     		mov	ip, r5
 1629              	.LVL284:
 1630 08a6 0500     		movs	r5, r0
 1631              	.LVL285:
 1632 08a8 4D40     		eors	r5, r1
 1633 08aa 4246     		mov	r2, r8
 1634 08ac 1540     		ands	r5, r2
 1635 08ae 4540     		eors	r5, r0
 1636 08b0 049A     		ldr	r2, [sp, #16]
 1637 08b2 9346     		mov	fp, r2
 1638 08b4 5D44     		add	r5, r5, fp
 1639 08b6 129A     		ldr	r2, [sp, #72]
 1640 08b8 9346     		mov	fp, r2
 1641 08ba 5D44     		add	r5, r5, fp
 1642 08bc 5A4A     		ldr	r2, .L13+8
 1643 08be 9346     		mov	fp, r2
 1644 08c0 5D44     		add	r5, r5, fp
 1645              	.LVL286:
 1646 08c2 1722     		movs	r2, #23
 1647 08c4 D541     		rors	r5, r5, r2
 1648              	.LVL287:
 1649 08c6 109A     		ldr	r2, [sp, #64]
 1650 08c8 9346     		mov	fp, r2
 1651              	.LVL288:
 1652 08ca 2A00     		movs	r2, r5
 1653 08cc 5A44     		add	r2, r2, fp
 1654              	.LVL289:
 1655 08ce D841     		rors	r0, r0, r3
 1656              	.LVL290:
 1657 08d0 1290     		str	r0, [sp, #72]
 1658              	.LVL291:
 203:Source\mbedtls_open\library/ripemd160.c ****     P2( C, D, E, A, B,  3, 15, 10, 11 );
 1659              		.loc 1 203 0
 1660 08d2 6546     		mov	r5, ip
 1661 08d4 1398     		ldr	r0, [sp, #76]
 1662              	.LVL292:
 1663 08d6 4540     		eors	r5, r0
 1664 08d8 2800     		movs	r0, r5
 1665 08da 2040     		ands	r0, r4
 1666 08dc 6546     		mov	r5, ip
 1667 08de 6840     		eors	r0, r5
 1668 08e0 029D     		ldr	r5, [sp, #8]
 1669 08e2 AB46     		mov	fp, r5
 1670 08e4 5844     		add	r0, r0, fp
 1671 08e6 5044     		add	r0, r0, r10
 1672 08e8 4E4D     		ldr	r5, .L13+4
 1673 08ea AA46     		mov	r10, r5
 1674              	.LVL293:
 1675 08ec 5044     		add	r0, r0, r10
 1676              	.LVL294:
 1677 08ee 1125     		movs	r5, #17
 1678 08f0 E841     		rors	r0, r0, r5
ARM GAS  C:\Users\Phuong\AppData\Local\Temp\ccbgGR22.s 			page 34


 1679              	.LVL295:
 1680 08f2 4844     		add	r0, r0, r9
 1681              	.LVL296:
 1682 08f4 139D     		ldr	r5, [sp, #76]
 1683 08f6 DD41     		rors	r5, r5, r3
 1684 08f8 AB46     		mov	fp, r5
 1685              	.LVL297:
 1686 08fa 0D00     		movs	r5, r1
 1687              	.LVL298:
 1688 08fc 1192     		str	r2, [sp, #68]
 1689 08fe 5540     		eors	r5, r2
 1690 0900 2A00     		movs	r2, r5
 1691              	.LVL299:
 1692 0902 129D     		ldr	r5, [sp, #72]
 1693 0904 2A40     		ands	r2, r5
 1694 0906 4A40     		eors	r2, r1
 1695 0908 099D     		ldr	r5, [sp, #36]
 1696 090a AA46     		mov	r10, r5
 1697 090c 5244     		add	r2, r2, r10
 1698 090e 109D     		ldr	r5, [sp, #64]
 1699 0910 AA46     		mov	r10, r5
 1700 0912 5244     		add	r2, r2, r10
 1701 0914 444D     		ldr	r5, .L13+8
 1702 0916 AA46     		mov	r10, r5
 1703 0918 5244     		add	r2, r2, r10
 1704              	.LVL300:
 1705 091a 1525     		movs	r5, #21
 1706 091c EA41     		rors	r2, r2, r5
 1707              	.LVL301:
 1708 091e 4244     		add	r2, r2, r8
 1709              	.LVL302:
 1710 0920 0D00     		movs	r5, r1
 1711 0922 DD41     		rors	r5, r5, r3
 1712 0924 1095     		str	r5, [sp, #64]
 1713              	.LVL303:
 204:Source\mbedtls_open\library/ripemd160.c ****     P2( B, C, D, E, A, 12,  7, 14,  7 );
 1714              		.loc 1 204 0
 1715 0926 5946     		mov	r1, fp
 1716 0928 6140     		eors	r1, r4
 1717 092a 0140     		ands	r1, r0
 1718 092c 5D46     		mov	r5, fp
 1719              	.LVL304:
 1720 092e 6940     		eors	r1, r5
 1721 0930 0B9D     		ldr	r5, [sp, #44]
 1722 0932 AA46     		mov	r10, r5
 1723 0934 5144     		add	r1, r1, r10
 1724 0936 4944     		add	r1, r1, r9
 1725 0938 3A4D     		ldr	r5, .L13+4
 1726 093a A946     		mov	r9, r5
 1727              	.LVL305:
 1728 093c 4944     		add	r1, r1, r9
 1729              	.LVL306:
 1730 093e F141     		rors	r1, r1, r6
 1731              	.LVL307:
 1732 0940 0D00     		movs	r5, r1
 1733 0942 6544     		add	r5, r5, ip
 1734 0944 1395     		str	r5, [sp, #76]
ARM GAS  C:\Users\Phuong\AppData\Local\Temp\ccbgGR22.s 			page 35


 1735              	.LVL308:
 1736 0946 DC41     		rors	r4, r4, r3
 1737              	.LVL309:
 1738 0948 A246     		mov	r10, r4
 1739              	.LVL310:
 1740 094a 1199     		ldr	r1, [sp, #68]
 1741 094c 0C00     		movs	r4, r1
 1742              	.LVL311:
 1743 094e 5440     		eors	r4, r2
 1744 0950 109D     		ldr	r5, [sp, #64]
 1745              	.LVL312:
 1746 0952 2C40     		ands	r4, r5
 1747 0954 4C40     		eors	r4, r1
 1748 0956 0D9D     		ldr	r5, [sp, #52]
 1749 0958 A946     		mov	r9, r5
 1750 095a 4C44     		add	r4, r4, r9
 1751 095c 4444     		add	r4, r4, r8
 1752 095e 3249     		ldr	r1, .L13+8
 1753 0960 8846     		mov	r8, r1
 1754              	.LVL313:
 1755 0962 4444     		add	r4, r4, r8
 1756              	.LVL314:
 1757 0964 F441     		rors	r4, r4, r6
 1758              	.LVL315:
 1759 0966 129D     		ldr	r5, [sp, #72]
 1760 0968 A846     		mov	r8, r5
 1761 096a 4444     		add	r4, r4, r8
 1762              	.LVL316:
 1763 096c 1199     		ldr	r1, [sp, #68]
 1764 096e D941     		rors	r1, r1, r3
 1765 0970 8946     		mov	r9, r1
 1766              	.LVL317:
 205:Source\mbedtls_open\library/ripemd160.c ****     P2( A, B, C, D, E,  0, 12, 15,  7 );
 1767              		.loc 1 205 0
 1768 0972 5146     		mov	r1, r10
 1769              	.LVL318:
 1770 0974 4140     		eors	r1, r0
 1771 0976 0D00     		movs	r5, r1
 1772 0978 1399     		ldr	r1, [sp, #76]
 1773 097a 0D40     		ands	r5, r1
 1774 097c 5146     		mov	r1, r10
 1775 097e 4D40     		eors	r5, r1
 1776 0980 0F99     		ldr	r1, [sp, #60]
 1777 0982 8846     		mov	r8, r1
 1778 0984 4544     		add	r5, r5, r8
 1779 0986 6544     		add	r5, r5, ip
 1780 0988 2649     		ldr	r1, .L13+4
 1781 098a 8C46     		mov	ip, r1
 1782              	.LVL319:
 1783 098c 6544     		add	r5, r5, ip
 1784              	.LVL320:
 1785 098e 1421     		movs	r1, #20
 1786 0990 CD41     		rors	r5, r5, r1
 1787              	.LVL321:
 1788 0992 5D44     		add	r5, r5, fp
 1789              	.LVL322:
 1790 0994 D841     		rors	r0, r0, r3
ARM GAS  C:\Users\Phuong\AppData\Local\Temp\ccbgGR22.s 			page 36


 1791              	.LVL323:
 1792 0996 8046     		mov	r8, r0
 1793              	.LVL324:
 1794 0998 1000     		movs	r0, r2
 1795              	.LVL325:
 1796 099a 6040     		eors	r0, r4
 1797 099c 4946     		mov	r1, r9
 1798 099e 0840     		ands	r0, r1
 1799 09a0 5040     		eors	r0, r2
 1800 09a2 0E99     		ldr	r1, [sp, #56]
 1801 09a4 8C46     		mov	ip, r1
 1802 09a6 6044     		add	r0, r0, ip
 1803 09a8 1299     		ldr	r1, [sp, #72]
 1804 09aa 8C46     		mov	ip, r1
 1805 09ac 6044     		add	r0, r0, ip
 1806 09ae 1E49     		ldr	r1, .L13+8
 1807 09b0 8C46     		mov	ip, r1
 1808 09b2 6044     		add	r0, r0, ip
 1809              	.LVL326:
 1810 09b4 F041     		rors	r0, r0, r6
 1811              	.LVL327:
 1812 09b6 1099     		ldr	r1, [sp, #64]
 1813              	.LVL328:
 1814 09b8 8C46     		mov	ip, r1
 1815              	.LVL329:
 1816 09ba 6044     		add	r0, r0, ip
 1817 09bc 0100     		movs	r1, r0
 1818              	.LVL330:
 1819 09be 1000     		movs	r0, r2
 1820              	.LVL331:
 1821 09c0 D841     		rors	r0, r0, r3
 1822 09c2 1290     		str	r0, [sp, #72]
 1823              	.LVL332:
 206:Source\mbedtls_open\library/ripemd160.c ****     P2( E, A, B, C, D,  9, 15,  8, 12 );
 1824              		.loc 1 206 0
 1825 09c4 4046     		mov	r0, r8
 1826              	.LVL333:
 1827 09c6 139A     		ldr	r2, [sp, #76]
 1828 09c8 5040     		eors	r0, r2
 1829 09ca 0200     		movs	r2, r0
 1830 09cc 2A40     		ands	r2, r5
 1831 09ce 4046     		mov	r0, r8
 1832 09d0 4240     		eors	r2, r0
 1833 09d2 0898     		ldr	r0, [sp, #32]
 1834 09d4 8446     		mov	ip, r0
 1835 09d6 6244     		add	r2, r2, ip
 1836 09d8 5A44     		add	r2, r2, fp
 1837 09da 1248     		ldr	r0, .L13+4
 1838 09dc 8446     		mov	ip, r0
 1839 09de 6244     		add	r2, r2, ip
 1840              	.LVL334:
 1841 09e0 1120     		movs	r0, #17
 1842 09e2 C241     		rors	r2, r2, r0
 1843              	.LVL335:
 1844 09e4 5244     		add	r2, r2, r10
 1845              	.LVL336:
 1846 09e6 1398     		ldr	r0, [sp, #76]
ARM GAS  C:\Users\Phuong\AppData\Local\Temp\ccbgGR22.s 			page 37


 1847 09e8 D841     		rors	r0, r0, r3
 1848 09ea 8346     		mov	fp, r0
 1849              	.LVL337:
 1850 09ec 2000     		movs	r0, r4
 1851              	.LVL338:
 1852 09ee 1191     		str	r1, [sp, #68]
 1853 09f0 4840     		eors	r0, r1
 1854 09f2 0100     		movs	r1, r0
 1855              	.LVL339:
 1856 09f4 1298     		ldr	r0, [sp, #72]
 1857 09f6 0140     		ands	r1, r0
 1858 09f8 6140     		eors	r1, r4
 1859 09fa 0798     		ldr	r0, [sp, #28]
 1860 09fc 8446     		mov	ip, r0
 1861 09fe 6144     		add	r1, r1, ip
 1862 0a00 1098     		ldr	r0, [sp, #64]
 1863 0a02 8446     		mov	ip, r0
 1864 0a04 6144     		add	r1, r1, ip
 1865 0a06 0848     		ldr	r0, .L13+8
 1866 0a08 8446     		mov	ip, r0
 1867 0a0a 6144     		add	r1, r1, ip
 1868              	.LVL340:
 1869 0a0c 1420     		movs	r0, #20
 1870 0a0e C141     		rors	r1, r1, r0
 1871              	.LVL341:
 1872 0a10 4944     		add	r1, r1, r9
 1873              	.LVL342:
 1874 0a12 DC41     		rors	r4, r4, r3
 1875              	.LVL343:
 1876 0a14 1394     		str	r4, [sp, #76]
 1877              	.LVL344:
 207:Source\mbedtls_open\library/ripemd160.c ****     P2( D, E, A, B, C,  5,  9, 12,  7 );
 1878              		.loc 1 207 0
 1879 0a16 5C46     		mov	r4, fp
 1880              	.LVL345:
 1881 0a18 6C40     		eors	r4, r5
 1882 0a1a 1440     		ands	r4, r2
 1883 0a1c 5846     		mov	r0, fp
 1884 0a1e 05E0     		b	.L14
 1885              	.L15:
 1886              		.align	2
 1887              	.L13:
 1888 0a20 E68BA250 		.word	1352829926
 1889 0a24 9979825A 		.word	1518500249
 1890 0a28 24D14D5C 		.word	1548603684
 1891              	.L14:
 1892 0a2c 4440     		eors	r4, r0
 1893 0a2e 0498     		ldr	r0, [sp, #16]
 1894 0a30 8446     		mov	ip, r0
 1895 0a32 6444     		add	r4, r4, ip
 1896 0a34 5444     		add	r4, r4, r10
 1897 0a36 FD48     		ldr	r0, .L16
 1898 0a38 8446     		mov	ip, r0
 1899 0a3a 6444     		add	r4, r4, ip
 1900              	.LVL346:
 1901 0a3c 1720     		movs	r0, #23
 1902 0a3e C441     		rors	r4, r4, r0
ARM GAS  C:\Users\Phuong\AppData\Local\Temp\ccbgGR22.s 			page 38


 1903              	.LVL347:
 1904 0a40 A246     		mov	r10, r4
 1905              	.LVL348:
 1906 0a42 C244     		add	r10, r10, r8
 1907              	.LVL349:
 1908 0a44 DD41     		rors	r5, r5, r3
 1909              	.LVL350:
 1910 0a46 1095     		str	r5, [sp, #64]
 1911              	.LVL351:
 1912 0a48 119D     		ldr	r5, [sp, #68]
 1913              	.LVL352:
 1914 0a4a 2C00     		movs	r4, r5
 1915 0a4c 4C40     		eors	r4, r1
 1916 0a4e 1398     		ldr	r0, [sp, #76]
 1917 0a50 0440     		ands	r4, r0
 1918 0a52 6C40     		eors	r4, r5
 1919 0a54 0B9D     		ldr	r5, [sp, #44]
 1920 0a56 AC46     		mov	ip, r5
 1921 0a58 6444     		add	r4, r4, ip
 1922 0a5a 4C44     		add	r4, r4, r9
 1923 0a5c F448     		ldr	r0, .L16+4
 1924 0a5e 8446     		mov	ip, r0
 1925 0a60 6444     		add	r4, r4, ip
 1926              	.LVL353:
 1927 0a62 F441     		rors	r4, r4, r6
 1928              	.LVL354:
 1929 0a64 1298     		ldr	r0, [sp, #72]
 1930              	.LVL355:
 1931 0a66 8446     		mov	ip, r0
 1932              	.LVL356:
 1933 0a68 6444     		add	r4, r4, ip
 1934              	.LVL357:
 1935 0a6a 1198     		ldr	r0, [sp, #68]
 1936 0a6c D841     		rors	r0, r0, r3
 1937 0a6e 8146     		mov	r9, r0
 1938              	.LVL358:
 208:Source\mbedtls_open\library/ripemd160.c ****     P2( C, D, E, A, B,  2, 11,  4,  6 );
 1939              		.loc 1 208 0
 1940 0a70 1000     		movs	r0, r2
 1941              	.LVL359:
 1942 0a72 109D     		ldr	r5, [sp, #64]
 1943 0a74 6840     		eors	r0, r5
 1944 0a76 5546     		mov	r5, r10
 1945 0a78 2840     		ands	r0, r5
 1946 0a7a 109D     		ldr	r5, [sp, #64]
 1947 0a7c 6840     		eors	r0, r5
 1948 0a7e 019D     		ldr	r5, [sp, #4]
 1949 0a80 AC46     		mov	ip, r5
 1950 0a82 6044     		add	r0, r0, ip
 1951 0a84 4044     		add	r0, r0, r8
 1952 0a86 E94D     		ldr	r5, .L16
 1953 0a88 AC46     		mov	ip, r5
 1954 0a8a 6044     		add	r0, r0, ip
 1955              	.LVL360:
 1956 0a8c 1525     		movs	r5, #21
 1957 0a8e E841     		rors	r0, r0, r5
 1958              	.LVL361:
ARM GAS  C:\Users\Phuong\AppData\Local\Temp\ccbgGR22.s 			page 39


 1959 0a90 5844     		add	r0, r0, fp
 1960              	.LVL362:
 1961 0a92 DA41     		rors	r2, r2, r3
 1962              	.LVL363:
 1963 0a94 9046     		mov	r8, r2
 1964              	.LVL364:
 1965 0a96 0A00     		movs	r2, r1
 1966              	.LVL365:
 1967 0a98 6240     		eors	r2, r4
 1968 0a9a 4D46     		mov	r5, r9
 1969 0a9c 2A40     		ands	r2, r5
 1970 0a9e 4A40     		eors	r2, r1
 1971 0aa0 039D     		ldr	r5, [sp, #12]
 1972 0aa2 AC46     		mov	ip, r5
 1973 0aa4 6244     		add	r2, r2, ip
 1974 0aa6 129D     		ldr	r5, [sp, #72]
 1975 0aa8 AC46     		mov	ip, r5
 1976 0aaa 6244     		add	r2, r2, ip
 1977 0aac E04D     		ldr	r5, .L16+4
 1978 0aae AC46     		mov	ip, r5
 1979 0ab0 6244     		add	r2, r2, ip
 1980              	.LVL366:
 1981 0ab2 1A25     		movs	r5, #26
 1982 0ab4 EA41     		rors	r2, r2, r5
 1983              	.LVL367:
 1984 0ab6 139D     		ldr	r5, [sp, #76]
 1985 0ab8 AC46     		mov	ip, r5
 1986              	.LVL368:
 1987 0aba 6244     		add	r2, r2, ip
 1988 0abc 1192     		str	r2, [sp, #68]
 1989              	.LVL369:
 1990 0abe D941     		rors	r1, r1, r3
 1991              	.LVL370:
 1992 0ac0 0A00     		movs	r2, r1
 1993              	.LVL371:
 209:Source\mbedtls_open\library/ripemd160.c ****     P2( B, C, D, E, A, 14,  7,  9, 15 );
 1994              		.loc 1 209 0
 1995 0ac2 5146     		mov	r1, r10
 1996              	.LVL372:
 1997 0ac4 4546     		mov	r5, r8
 1998 0ac6 6940     		eors	r1, r5
 1999 0ac8 0140     		ands	r1, r0
 2000 0aca 6940     		eors	r1, r5
 2001 0acc 0D9D     		ldr	r5, [sp, #52]
 2002 0ace AC46     		mov	ip, r5
 2003 0ad0 6144     		add	r1, r1, ip
 2004 0ad2 5944     		add	r1, r1, fp
 2005 0ad4 D54D     		ldr	r5, .L16
 2006 0ad6 AC46     		mov	ip, r5
 2007 0ad8 6144     		add	r1, r1, ip
 2008              	.LVL373:
 2009 0ada F141     		rors	r1, r1, r6
 2010              	.LVL374:
 2011 0adc 8B46     		mov	fp, r1
 2012              	.LVL375:
 2013 0ade 1099     		ldr	r1, [sp, #64]
 2014 0ae0 8C46     		mov	ip, r1
ARM GAS  C:\Users\Phuong\AppData\Local\Temp\ccbgGR22.s 			page 40


 2015 0ae2 E344     		add	fp, fp, ip
 2016              	.LVL376:
 2017 0ae4 5146     		mov	r1, r10
 2018 0ae6 D941     		rors	r1, r1, r3
 2019 0ae8 1291     		str	r1, [sp, #72]
 2020              	.LVL377:
 2021 0aea 2100     		movs	r1, r4
 2022              	.LVL378:
 2023 0aec 119D     		ldr	r5, [sp, #68]
 2024 0aee 6940     		eors	r1, r5
 2025 0af0 1492     		str	r2, [sp, #80]
 2026 0af2 1140     		ands	r1, r2
 2027 0af4 6140     		eors	r1, r4
 2028 0af6 089D     		ldr	r5, [sp, #32]
 2029 0af8 AC46     		mov	ip, r5
 2030 0afa 6144     		add	r1, r1, ip
 2031 0afc 139D     		ldr	r5, [sp, #76]
 2032 0afe AC46     		mov	ip, r5
 2033 0b00 6144     		add	r1, r1, ip
 2034 0b02 CB4D     		ldr	r5, .L16+4
 2035 0b04 AC46     		mov	ip, r5
 2036 0b06 6144     		add	r1, r1, ip
 2037              	.LVL379:
 2038 0b08 1125     		movs	r5, #17
 2039 0b0a E941     		rors	r1, r1, r5
 2040              	.LVL380:
 2041 0b0c 4944     		add	r1, r1, r9
 2042              	.LVL381:
 2043 0b0e DC41     		rors	r4, r4, r3
 2044              	.LVL382:
 210:Source\mbedtls_open\library/ripemd160.c ****     P2( A, B, C, D, E, 11, 13,  1, 13 );
 2045              		.loc 1 210 0
 2046 0b10 129D     		ldr	r5, [sp, #72]
 2047 0b12 4540     		eors	r5, r0
 2048 0b14 5A46     		mov	r2, fp
 2049              	.LVL383:
 2050 0b16 1540     		ands	r5, r2
 2051 0b18 129A     		ldr	r2, [sp, #72]
 2052 0b1a 5540     		eors	r5, r2
 2053 0b1c AC46     		mov	ip, r5
 2054 0b1e 0A9D     		ldr	r5, [sp, #40]
 2055 0b20 AA46     		mov	r10, r5
 2056 0b22 D444     		add	ip, ip, r10
 2057 0b24 109A     		ldr	r2, [sp, #64]
 2058 0b26 1500     		movs	r5, r2
 2059 0b28 6544     		add	r5, r5, ip
 2060 0b2a C04A     		ldr	r2, .L16
 2061 0b2c 9446     		mov	ip, r2
 2062 0b2e 6544     		add	r5, r5, ip
 2063              	.LVL384:
 2064 0b30 1322     		movs	r2, #19
 2065 0b32 D541     		rors	r5, r5, r2
 2066              	.LVL385:
 2067 0b34 2A00     		movs	r2, r5
 2068 0b36 4244     		add	r2, r2, r8
 2069 0b38 9446     		mov	ip, r2
 2070              	.LVL386:
ARM GAS  C:\Users\Phuong\AppData\Local\Temp\ccbgGR22.s 			page 41


 2071 0b3a D841     		rors	r0, r0, r3
 2072              	.LVL387:
 2073 0b3c 1090     		str	r0, [sp, #64]
 2074              	.LVL388:
 2075 0b3e 119A     		ldr	r2, [sp, #68]
 2076              	.LVL389:
 2077 0b40 1000     		movs	r0, r2
 2078              	.LVL390:
 2079 0b42 4840     		eors	r0, r1
 2080 0b44 0500     		movs	r5, r0
 2081 0b46 2540     		ands	r5, r4
 2082 0b48 5540     		eors	r5, r2
 2083 0b4a 0098     		ldr	r0, [sp]
 2084 0b4c 8246     		mov	r10, r0
 2085 0b4e 5544     		add	r5, r5, r10
 2086 0b50 4D44     		add	r5, r5, r9
 2087 0b52 B74A     		ldr	r2, .L16+4
 2088 0b54 9146     		mov	r9, r2
 2089              	.LVL391:
 2090 0b56 4D44     		add	r5, r5, r9
 2091              	.LVL392:
 2092 0b58 1322     		movs	r2, #19
 2093 0b5a D541     		rors	r5, r5, r2
 2094              	.LVL393:
 2095 0b5c 1498     		ldr	r0, [sp, #80]
 2096 0b5e 8146     		mov	r9, r0
 2097 0b60 A944     		add	r9, r9, r5
 2098              	.LVL394:
 2099 0b62 119A     		ldr	r2, [sp, #68]
 2100 0b64 DA41     		rors	r2, r2, r3
 2101 0b66 1192     		str	r2, [sp, #68]
 2102              	.LVL395:
 211:Source\mbedtls_open\library/ripemd160.c ****     P2( E, A, B, C, D,  8, 12,  2, 11 );
 2103              		.loc 1 211 0
 2104 0b68 6246     		mov	r2, ip
 2105              	.LVL396:
 2106 0b6a D543     		mvns	r5, r2
 2107 0b6c 5A46     		mov	r2, fp
 2108 0b6e 1098     		ldr	r0, [sp, #64]
 2109 0b70 4240     		eors	r2, r0
 2110 0b72 6046     		mov	r0, ip
 2111 0b74 0240     		ands	r2, r0
 2112 0b76 1098     		ldr	r0, [sp, #64]
 2113 0b78 4240     		eors	r2, r0
 2114 0b7a 0798     		ldr	r0, [sp, #28]
 2115 0b7c 8246     		mov	r10, r0
 2116 0b7e 5244     		add	r2, r2, r10
 2117 0b80 4244     		add	r2, r2, r8
 2118 0b82 AA48     		ldr	r0, .L16
 2119 0b84 8046     		mov	r8, r0
 2120              	.LVL397:
 2121 0b86 4244     		add	r2, r2, r8
 2122              	.LVL398:
 2123 0b88 1420     		movs	r0, #20
 2124 0b8a C241     		rors	r2, r2, r0
 2125              	.LVL399:
 2126 0b8c 9046     		mov	r8, r2
ARM GAS  C:\Users\Phuong\AppData\Local\Temp\ccbgGR22.s 			page 42


 2127 0b8e 129A     		ldr	r2, [sp, #72]
 2128 0b90 9246     		mov	r10, r2
 2129 0b92 D044     		add	r8, r8, r10
 2130              	.LVL400:
 2131 0b94 5A46     		mov	r2, fp
 2132 0b96 DA41     		rors	r2, r2, r3
 2133 0b98 9346     		mov	fp, r2
 2134              	.LVL401:
 2135 0b9a 4A46     		mov	r2, r9
 2136              	.LVL402:
 2137 0b9c 4A40     		eors	r2, r1
 2138 0b9e 1198     		ldr	r0, [sp, #68]
 2139 0ba0 0240     		ands	r2, r0
 2140 0ba2 4A40     		eors	r2, r1
 2141 0ba4 0198     		ldr	r0, [sp, #4]
 2142 0ba6 8246     		mov	r10, r0
 2143 0ba8 5244     		add	r2, r2, r10
 2144 0baa 1498     		ldr	r0, [sp, #80]
 2145 0bac 8246     		mov	r10, r0
 2146 0bae 5244     		add	r2, r2, r10
 2147 0bb0 9F48     		ldr	r0, .L16+4
 2148 0bb2 8246     		mov	r10, r0
 2149 0bb4 5244     		add	r2, r2, r10
 2150              	.LVL403:
 2151 0bb6 1520     		movs	r0, #21
 2152 0bb8 C241     		rors	r2, r2, r0
 2153              	.LVL404:
 2154 0bba A018     		adds	r0, r4, r2
 2155 0bbc 1390     		str	r0, [sp, #76]
 2156              	.LVL405:
 2157 0bbe D941     		rors	r1, r1, r3
 2158              	.LVL406:
 2159 0bc0 1491     		str	r1, [sp, #80]
 2160              	.LVL407:
 212:Source\mbedtls_open\library/ripemd160.c **** #undef F
 213:Source\mbedtls_open\library/ripemd160.c **** #undef K
 214:Source\mbedtls_open\library/ripemd160.c **** #undef Fp
 215:Source\mbedtls_open\library/ripemd160.c **** #undef Kp
 216:Source\mbedtls_open\library/ripemd160.c **** 
 217:Source\mbedtls_open\library/ripemd160.c **** #define F   F3
 218:Source\mbedtls_open\library/ripemd160.c **** #define K   0x6ED9EBA1
 219:Source\mbedtls_open\library/ripemd160.c **** #define Fp  F3
 220:Source\mbedtls_open\library/ripemd160.c **** #define Kp  0x6D703EF3
 221:Source\mbedtls_open\library/ripemd160.c ****     P2( D, E, A, B, C,  3, 11, 15,  9 );
 2161              		.loc 1 221 0
 2162 0bc2 4246     		mov	r2, r8
 2163 0bc4 1543     		orrs	r5, r2
 2164 0bc6 5A46     		mov	r2, fp
 2165 0bc8 5540     		eors	r5, r2
 2166 0bca 0298     		ldr	r0, [sp, #8]
 2167              	.LVL408:
 2168 0bcc 8246     		mov	r10, r0
 2169 0bce 5544     		add	r5, r5, r10
 2170 0bd0 129A     		ldr	r2, [sp, #72]
 2171 0bd2 9246     		mov	r10, r2
 2172 0bd4 5544     		add	r5, r5, r10
 2173 0bd6 974A     		ldr	r2, .L16+8
ARM GAS  C:\Users\Phuong\AppData\Local\Temp\ccbgGR22.s 			page 43


 2174 0bd8 9246     		mov	r10, r2
 2175 0bda 5544     		add	r5, r5, r10
 2176              	.LVL409:
 2177 0bdc 1522     		movs	r2, #21
 2178 0bde D541     		rors	r5, r5, r2
 2179              	.LVL410:
 2180 0be0 1099     		ldr	r1, [sp, #64]
 2181              	.LVL411:
 2182 0be2 8A46     		mov	r10, r1
 2183              	.LVL412:
 2184 0be4 5544     		add	r5, r5, r10
 2185              	.LVL413:
 2186 0be6 6246     		mov	r2, ip
 2187 0be8 DA41     		rors	r2, r2, r3
 2188 0bea 1100     		movs	r1, r2
 2189              	.LVL414:
 2190 0bec 4A46     		mov	r2, r9
 2191 0bee D243     		mvns	r2, r2
 2192 0bf0 1398     		ldr	r0, [sp, #76]
 2193 0bf2 0243     		orrs	r2, r0
 2194 0bf4 1498     		ldr	r0, [sp, #80]
 2195 0bf6 4240     		eors	r2, r0
 2196 0bf8 9446     		mov	ip, r2
 2197 0bfa 0E9A     		ldr	r2, [sp, #56]
 2198 0bfc 9246     		mov	r10, r2
 2199 0bfe D444     		add	ip, ip, r10
 2200 0c00 6444     		add	r4, r4, ip
 2201              	.LVL415:
 2202 0c02 8D4A     		ldr	r2, .L16+12
 2203 0c04 9446     		mov	ip, r2
 2204 0c06 6444     		add	r4, r4, ip
 2205              	.LVL416:
 2206 0c08 1722     		movs	r2, #23
 2207 0c0a D441     		rors	r4, r4, r2
 2208              	.LVL417:
 2209 0c0c 119A     		ldr	r2, [sp, #68]
 2210 0c0e 9446     		mov	ip, r2
 2211 0c10 6444     		add	r4, r4, ip
 2212              	.LVL418:
 2213 0c12 4A46     		mov	r2, r9
 2214 0c14 DA41     		rors	r2, r2, r3
 2215 0c16 9146     		mov	r9, r2
 2216              	.LVL419:
 222:Source\mbedtls_open\library/ripemd160.c ****     P2( C, D, E, A, B, 10, 13,  5,  7 );
 2217              		.loc 1 222 0
 2218 0c18 4246     		mov	r2, r8
 2219              	.LVL420:
 2220 0c1a D243     		mvns	r2, r2
 2221 0c1c 2A43     		orrs	r2, r5
 2222 0c1e 1291     		str	r1, [sp, #72]
 2223 0c20 4A40     		eors	r2, r1
 2224 0c22 9446     		mov	ip, r2
 2225 0c24 099A     		ldr	r2, [sp, #36]
 2226 0c26 9246     		mov	r10, r2
 2227 0c28 D444     		add	ip, ip, r10
 2228 0c2a 109A     		ldr	r2, [sp, #64]
 2229 0c2c 6244     		add	r2, r2, ip
ARM GAS  C:\Users\Phuong\AppData\Local\Temp\ccbgGR22.s 			page 44


 2230 0c2e 1000     		movs	r0, r2
 2231 0c30 804A     		ldr	r2, .L16+8
 2232 0c32 9446     		mov	ip, r2
 2233 0c34 6044     		add	r0, r0, ip
 2234              	.LVL421:
 2235 0c36 1322     		movs	r2, #19
 2236 0c38 D041     		rors	r0, r0, r2
 2237              	.LVL422:
 2238 0c3a 5844     		add	r0, r0, fp
 2239              	.LVL423:
 2240 0c3c 4246     		mov	r2, r8
 2241 0c3e DA41     		rors	r2, r2, r3
 2242 0c40 9446     		mov	ip, r2
 2243              	.LVL424:
 2244 0c42 139A     		ldr	r2, [sp, #76]
 2245              	.LVL425:
 2246 0c44 D243     		mvns	r2, r2
 2247 0c46 2243     		orrs	r2, r4
 2248 0c48 4946     		mov	r1, r9
 2249              	.LVL426:
 2250 0c4a 4A40     		eors	r2, r1
 2251 0c4c 9046     		mov	r8, r2
 2252 0c4e 049A     		ldr	r2, [sp, #16]
 2253 0c50 9246     		mov	r10, r2
 2254 0c52 D044     		add	r8, r8, r10
 2255 0c54 119A     		ldr	r2, [sp, #68]
 2256 0c56 9246     		mov	r10, r2
 2257 0c58 D044     		add	r8, r8, r10
 2258 0c5a 7749     		ldr	r1, .L16+12
 2259 0c5c 8A46     		mov	r10, r1
 2260 0c5e D044     		add	r8, r8, r10
 2261              	.LVL427:
 2262 0c60 4246     		mov	r2, r8
 2263 0c62 F241     		rors	r2, r2, r6
 2264 0c64 9046     		mov	r8, r2
 2265              	.LVL428:
 2266 0c66 149A     		ldr	r2, [sp, #80]
 2267 0c68 9246     		mov	r10, r2
 2268 0c6a D044     		add	r8, r8, r10
 2269              	.LVL429:
 2270 0c6c 139E     		ldr	r6, [sp, #76]
 2271 0c6e DE41     		rors	r6, r6, r3
 2272 0c70 1096     		str	r6, [sp, #64]
 2273              	.LVL430:
 223:Source\mbedtls_open\library/ripemd160.c ****     P2( B, C, D, E, A, 14,  6,  1, 15 );
 2274              		.loc 1 223 0
 2275 0c72 EA43     		mvns	r2, r5
 2276 0c74 0243     		orrs	r2, r0
 2277 0c76 6646     		mov	r6, ip
 2278              	.LVL431:
 2279 0c78 7240     		eors	r2, r6
 2280 0c7a 0D9E     		ldr	r6, [sp, #52]
 2281 0c7c B246     		mov	r10, r6
 2282 0c7e 5244     		add	r2, r2, r10
 2283 0c80 5A44     		add	r2, r2, fp
 2284 0c82 6C49     		ldr	r1, .L16+8
 2285 0c84 8A46     		mov	r10, r1
ARM GAS  C:\Users\Phuong\AppData\Local\Temp\ccbgGR22.s 			page 45


 2286 0c86 5244     		add	r2, r2, r10
 2287              	.LVL432:
 2288 0c88 1A21     		movs	r1, #26
 2289 0c8a CA41     		rors	r2, r2, r1
 2290              	.LVL433:
 2291 0c8c 129E     		ldr	r6, [sp, #72]
 2292 0c8e B246     		mov	r10, r6
 2293              	.LVL434:
 2294 0c90 5244     		add	r2, r2, r10
 2295              	.LVL435:
 2296 0c92 2E00     		movs	r6, r5
 2297 0c94 DE41     		rors	r6, r6, r3
 2298 0c96 B346     		mov	fp, r6
 2299              	.LVL436:
 2300 0c98 E543     		mvns	r5, r4
 2301 0c9a 4146     		mov	r1, r8
 2302 0c9c 0D43     		orrs	r5, r1
 2303 0c9e 109E     		ldr	r6, [sp, #64]
 2304              	.LVL437:
 2305 0ca0 7540     		eors	r5, r6
 2306 0ca2 009E     		ldr	r6, [sp]
 2307 0ca4 B246     		mov	r10, r6
 2308 0ca6 5544     		add	r5, r5, r10
 2309 0ca8 1499     		ldr	r1, [sp, #80]
 2310 0caa 8A46     		mov	r10, r1
 2311 0cac 5544     		add	r5, r5, r10
 2312 0cae 6249     		ldr	r1, .L16+12
 2313 0cb0 8A46     		mov	r10, r1
 2314 0cb2 5544     		add	r5, r5, r10
 2315              	.LVL438:
 2316 0cb4 1121     		movs	r1, #17
 2317 0cb6 CD41     		rors	r5, r5, r1
 2318              	.LVL439:
 2319 0cb8 4D44     		add	r5, r5, r9
 2320              	.LVL440:
 2321 0cba DC41     		rors	r4, r4, r3
 2322              	.LVL441:
 2323 0cbc 2100     		movs	r1, r4
 2324              	.LVL442:
 224:Source\mbedtls_open\library/ripemd160.c ****     P2( A, B, C, D, E,  4,  7,  3, 11 );
 2325              		.loc 1 224 0
 2326 0cbe C343     		mvns	r3, r0
 2327 0cc0 1343     		orrs	r3, r2
 2328 0cc2 5C46     		mov	r4, fp
 2329 0cc4 6340     		eors	r3, r4
 2330 0cc6 039C     		ldr	r4, [sp, #12]
 2331 0cc8 A246     		mov	r10, r4
 2332 0cca 5344     		add	r3, r3, r10
 2333 0ccc 129C     		ldr	r4, [sp, #72]
 2334 0cce A246     		mov	r10, r4
 2335 0cd0 5344     		add	r3, r3, r10
 2336 0cd2 584C     		ldr	r4, .L16+8
 2337 0cd4 A246     		mov	r10, r4
 2338 0cd6 5344     		add	r3, r3, r10
 2339              	.LVL443:
 2340 0cd8 1924     		movs	r4, #25
 2341 0cda E341     		rors	r3, r3, r4
ARM GAS  C:\Users\Phuong\AppData\Local\Temp\ccbgGR22.s 			page 46


 2342              	.LVL444:
 2343 0cdc 6344     		add	r3, r3, ip
 2344 0cde 1E00     		movs	r6, r3
 2345              	.LVL445:
 2346 0ce0 1623     		movs	r3, #22
 2347              	.LVL446:
 2348 0ce2 D841     		rors	r0, r0, r3
 2349              	.LVL447:
 2350 0ce4 1190     		str	r0, [sp, #68]
 2351              	.LVL448:
 2352 0ce6 4446     		mov	r4, r8
 2353 0ce8 E043     		mvns	r0, r4
 2354              	.LVL449:
 2355 0cea 2843     		orrs	r0, r5
 2356 0cec 1391     		str	r1, [sp, #76]
 2357 0cee 4840     		eors	r0, r1
 2358 0cf0 029C     		ldr	r4, [sp, #8]
 2359 0cf2 A246     		mov	r10, r4
 2360 0cf4 5044     		add	r0, r0, r10
 2361 0cf6 4844     		add	r0, r0, r9
 2362 0cf8 4F49     		ldr	r1, .L16+12
 2363              	.LVL450:
 2364 0cfa 8946     		mov	r9, r1
 2365              	.LVL451:
 2366 0cfc 4844     		add	r0, r0, r9
 2367              	.LVL452:
 2368 0cfe 1521     		movs	r1, #21
 2369 0d00 C841     		rors	r0, r0, r1
 2370              	.LVL453:
 2371 0d02 1099     		ldr	r1, [sp, #64]
 2372 0d04 8946     		mov	r9, r1
 2373 0d06 4844     		add	r0, r0, r9
 2374              	.LVL454:
 2375 0d08 4446     		mov	r4, r8
 2376 0d0a DC41     		rors	r4, r4, r3
 2377 0d0c 1494     		str	r4, [sp, #80]
 2378              	.LVL455:
 225:Source\mbedtls_open\library/ripemd160.c ****     P2( E, A, B, C, D,  9, 14,  7,  8 );
 2379              		.loc 1 225 0
 2380 0d0e D443     		mvns	r4, r2
 2381              	.LVL456:
 2382 0d10 3443     		orrs	r4, r6
 2383 0d12 1199     		ldr	r1, [sp, #68]
 2384 0d14 4C40     		eors	r4, r1
 2385 0d16 0899     		ldr	r1, [sp, #32]
 2386 0d18 8846     		mov	r8, r1
 2387 0d1a 4444     		add	r4, r4, r8
 2388 0d1c 6444     		add	r4, r4, ip
 2389 0d1e 4549     		ldr	r1, .L16+8
 2390 0d20 8C46     		mov	ip, r1
 2391              	.LVL457:
 2392 0d22 6444     		add	r4, r4, ip
 2393              	.LVL458:
 2394 0d24 1221     		movs	r1, #18
 2395 0d26 CC41     		rors	r4, r4, r1
 2396              	.LVL459:
 2397 0d28 5C44     		add	r4, r4, fp
ARM GAS  C:\Users\Phuong\AppData\Local\Temp\ccbgGR22.s 			page 47


 2398              	.LVL460:
 2399 0d2a DA41     		rors	r2, r2, r3
 2400              	.LVL461:
 2401 0d2c 9046     		mov	r8, r2
 2402              	.LVL462:
 2403 0d2e EA43     		mvns	r2, r5
 2404              	.LVL463:
 2405 0d30 0243     		orrs	r2, r0
 2406 0d32 1499     		ldr	r1, [sp, #80]
 2407 0d34 4A40     		eors	r2, r1
 2408 0d36 0699     		ldr	r1, [sp, #24]
 2409 0d38 8C46     		mov	ip, r1
 2410 0d3a 6244     		add	r2, r2, ip
 2411 0d3c 4946     		mov	r1, r9
 2412 0d3e 8918     		adds	r1, r1, r2
 2413 0d40 3D4A     		ldr	r2, .L16+12
 2414 0d42 9446     		mov	ip, r2
 2415 0d44 6144     		add	r1, r1, ip
 2416              	.LVL464:
 2417 0d46 1822     		movs	r2, #24
 2418 0d48 D141     		rors	r1, r1, r2
 2419              	.LVL465:
 2420 0d4a 139A     		ldr	r2, [sp, #76]
 2421 0d4c 9446     		mov	ip, r2
 2422              	.LVL466:
 2423 0d4e 6144     		add	r1, r1, ip
 2424              	.LVL467:
 2425 0d50 DD41     		rors	r5, r5, r3
 2426              	.LVL468:
 2427 0d52 1095     		str	r5, [sp, #64]
 2428              	.LVL469:
 226:Source\mbedtls_open\library/ripemd160.c ****     P2( D, E, A, B, C, 15,  9, 14,  6 );
 2429              		.loc 1 226 0
 2430 0d54 F543     		mvns	r5, r6
 2431              	.LVL470:
 2432 0d56 2543     		orrs	r5, r4
 2433 0d58 4246     		mov	r2, r8
 2434 0d5a 5540     		eors	r5, r2
 2435 0d5c 0E9A     		ldr	r2, [sp, #56]
 2436 0d5e 9246     		mov	r10, r2
 2437 0d60 5544     		add	r5, r5, r10
 2438 0d62 5D44     		add	r5, r5, fp
 2439 0d64 334A     		ldr	r2, .L16+8
 2440 0d66 AA18     		adds	r2, r5, r2
 2441              	.LVL471:
 2442 0d68 1725     		movs	r5, #23
 2443 0d6a EA41     		rors	r2, r2, r5
 2444              	.LVL472:
 2445 0d6c 119D     		ldr	r5, [sp, #68]
 2446 0d6e AC46     		mov	ip, r5
 2447 0d70 9444     		add	ip, ip, r2
 2448              	.LVL473:
 2449 0d72 DE41     		rors	r6, r6, r3
 2450              	.LVL474:
 2451 0d74 1296     		str	r6, [sp, #72]
 2452              	.LVL475:
 2453 0d76 C243     		mvns	r2, r0
ARM GAS  C:\Users\Phuong\AppData\Local\Temp\ccbgGR22.s 			page 48


 2454 0d78 0A43     		orrs	r2, r1
 2455 0d7a 109D     		ldr	r5, [sp, #64]
 2456 0d7c 6A40     		eors	r2, r5
 2457 0d7e 0D9D     		ldr	r5, [sp, #52]
 2458 0d80 AA46     		mov	r10, r5
 2459 0d82 5244     		add	r2, r2, r10
 2460 0d84 139D     		ldr	r5, [sp, #76]
 2461 0d86 A946     		mov	r9, r5
 2462 0d88 4A44     		add	r2, r2, r9
 2463 0d8a 2B4D     		ldr	r5, .L16+12
 2464 0d8c A946     		mov	r9, r5
 2465 0d8e 4A44     		add	r2, r2, r9
 2466              	.LVL476:
 2467 0d90 1A25     		movs	r5, #26
 2468 0d92 EA41     		rors	r2, r2, r5
 2469              	.LVL477:
 2470 0d94 149E     		ldr	r6, [sp, #80]
 2471              	.LVL478:
 2472 0d96 B146     		mov	r9, r6
 2473              	.LVL479:
 2474 0d98 4A44     		add	r2, r2, r9
 2475 0d9a 1392     		str	r2, [sp, #76]
 2476              	.LVL480:
 2477 0d9c D841     		rors	r0, r0, r3
 2478              	.LVL481:
 2479 0d9e 0500     		movs	r5, r0
 2480              	.LVL482:
 227:Source\mbedtls_open\library/ripemd160.c ****     P2( C, D, E, A, B,  8, 13,  6,  6 );
 2481              		.loc 1 227 0
 2482 0da0 E043     		mvns	r0, r4
 2483              	.LVL483:
 2484 0da2 6246     		mov	r2, ip
 2485              	.LVL484:
 2486 0da4 1043     		orrs	r0, r2
 2487 0da6 129A     		ldr	r2, [sp, #72]
 2488 0da8 5040     		eors	r0, r2
 2489 0daa 079A     		ldr	r2, [sp, #28]
 2490 0dac 9246     		mov	r10, r2
 2491 0dae 5044     		add	r0, r0, r10
 2492 0db0 119A     		ldr	r2, [sp, #68]
 2493 0db2 9146     		mov	r9, r2
 2494 0db4 4844     		add	r0, r0, r9
 2495 0db6 1F4A     		ldr	r2, .L16+8
 2496 0db8 9146     		mov	r9, r2
 2497 0dba 4844     		add	r0, r0, r9
 2498              	.LVL485:
 2499 0dbc 1322     		movs	r2, #19
 2500 0dbe D041     		rors	r0, r0, r2
 2501              	.LVL486:
 2502 0dc0 8146     		mov	r9, r0
 2503              	.LVL487:
 2504 0dc2 C144     		add	r9, r9, r8
 2505              	.LVL488:
 2506 0dc4 DC41     		rors	r4, r4, r3
 2507              	.LVL489:
 2508 0dc6 C843     		mvns	r0, r1
 2509 0dc8 139A     		ldr	r2, [sp, #76]
ARM GAS  C:\Users\Phuong\AppData\Local\Temp\ccbgGR22.s 			page 49


 2510 0dca 1043     		orrs	r0, r2
 2511 0dcc 6840     		eors	r0, r5
 2512 0dce 059A     		ldr	r2, [sp, #20]
 2513 0dd0 9346     		mov	fp, r2
 2514 0dd2 5844     		add	r0, r0, fp
 2515 0dd4 B246     		mov	r10, r6
 2516 0dd6 5044     		add	r0, r0, r10
 2517 0dd8 174A     		ldr	r2, .L16+12
 2518 0dda 9246     		mov	r10, r2
 2519 0ddc 5044     		add	r0, r0, r10
 2520              	.LVL490:
 2521 0dde 1A22     		movs	r2, #26
 2522 0de0 D041     		rors	r0, r0, r2
 2523              	.LVL491:
 2524 0de2 109A     		ldr	r2, [sp, #64]
 2525 0de4 9346     		mov	fp, r2
 2526 0de6 8344     		add	fp, fp, r0
 2527              	.LVL492:
 2528 0de8 D941     		rors	r1, r1, r3
 2529              	.LVL493:
 228:Source\mbedtls_open\library/ripemd160.c ****     P2( B, C, D, E, A,  1, 15,  9, 14 );
 2530              		.loc 1 228 0
 2531 0dea 6046     		mov	r0, ip
 2532 0dec C043     		mvns	r0, r0
 2533 0dee 4A46     		mov	r2, r9
 2534 0df0 1043     		orrs	r0, r2
 2535 0df2 6040     		eors	r0, r4
 2536 0df4 009A     		ldr	r2, [sp]
 2537 0df6 9246     		mov	r10, r2
 2538 0df8 5044     		add	r0, r0, r10
 2539 0dfa 4044     		add	r0, r0, r8
 2540 0dfc 0D4A     		ldr	r2, .L16+8
 2541 0dfe 9046     		mov	r8, r2
 2542              	.LVL494:
 2543 0e00 4044     		add	r0, r0, r8
 2544              	.LVL495:
 2545 0e02 1122     		movs	r2, #17
 2546 0e04 D041     		rors	r0, r0, r2
 2547              	.LVL496:
 2548 0e06 129E     		ldr	r6, [sp, #72]
 2549 0e08 B046     		mov	r8, r6
 2550 0e0a 4044     		add	r0, r0, r8
 2551              	.LVL497:
 2552 0e0c 6246     		mov	r2, ip
 2553 0e0e DA41     		rors	r2, r2, r3
 2554 0e10 1192     		str	r2, [sp, #68]
 2555              	.LVL498:
 2556 0e12 139E     		ldr	r6, [sp, #76]
 2557 0e14 F243     		mvns	r2, r6
 2558              	.LVL499:
 2559 0e16 5E46     		mov	r6, fp
 2560 0e18 3243     		orrs	r2, r6
 2561 0e1a 4A40     		eors	r2, r1
 2562 0e1c 9046     		mov	r8, r2
 2563 0e1e 089A     		ldr	r2, [sp, #32]
 2564 0e20 9246     		mov	r10, r2
 2565 0e22 D044     		add	r8, r8, r10
ARM GAS  C:\Users\Phuong\AppData\Local\Temp\ccbgGR22.s 			page 50


 2566 0e24 109A     		ldr	r2, [sp, #64]
 2567 0e26 9246     		mov	r10, r2
 2568 0e28 D044     		add	r8, r8, r10
 2569 0e2a 07E0     		b	.L17
 2570              	.L18:
 2571              		.align	2
 2572              	.L16:
 2573 0e2c 9979825A 		.word	1518500249
 2574 0e30 24D14D5C 		.word	1548603684
 2575 0e34 A1EBD96E 		.word	1859775393
 2576 0e38 F33E706D 		.word	1836072691
 2577              	.L17:
 2578 0e3c FE4E     		ldr	r6, .L19
 2579 0e3e B246     		mov	r10, r6
 2580 0e40 D044     		add	r8, r8, r10
 2581              	.LVL500:
 2582 0e42 4246     		mov	r2, r8
 2583 0e44 1226     		movs	r6, #18
 2584 0e46 F241     		rors	r2, r2, r6
 2585 0e48 9046     		mov	r8, r2
 2586              	.LVL501:
 2587 0e4a A844     		add	r8, r8, r5
 2588              	.LVL502:
 2589 0e4c 139E     		ldr	r6, [sp, #76]
 2590 0e4e DE41     		rors	r6, r6, r3
 2591 0e50 1096     		str	r6, [sp, #64]
 2592              	.LVL503:
 229:Source\mbedtls_open\library/ripemd160.c ****     P2( A, B, C, D, E,  2, 14, 11, 12 );
 2593              		.loc 1 229 0
 2594 0e52 4E46     		mov	r6, r9
 2595              	.LVL504:
 2596 0e54 F643     		mvns	r6, r6
 2597 0e56 3200     		movs	r2, r6
 2598 0e58 0243     		orrs	r2, r0
 2599 0e5a 119E     		ldr	r6, [sp, #68]
 2600 0e5c 7240     		eors	r2, r6
 2601 0e5e 9246     		mov	r10, r2
 2602 0e60 019A     		ldr	r2, [sp, #4]
 2603 0e62 9446     		mov	ip, r2
 2604 0e64 E244     		add	r10, r10, ip
 2605 0e66 129A     		ldr	r2, [sp, #72]
 2606 0e68 5244     		add	r2, r2, r10
 2607 0e6a 1600     		movs	r6, r2
 2608 0e6c F34A     		ldr	r2, .L19+4
 2609 0e6e 9446     		mov	ip, r2
 2610 0e70 6644     		add	r6, r6, ip
 2611              	.LVL505:
 2612 0e72 1222     		movs	r2, #18
 2613 0e74 D641     		rors	r6, r6, r2
 2614              	.LVL506:
 2615 0e76 A219     		adds	r2, r4, r6
 2616 0e78 1292     		str	r2, [sp, #72]
 2617              	.LVL507:
 2618 0e7a 4A46     		mov	r2, r9
 2619              	.LVL508:
 2620 0e7c DA41     		rors	r2, r2, r3
 2621 0e7e 1392     		str	r2, [sp, #76]
ARM GAS  C:\Users\Phuong\AppData\Local\Temp\ccbgGR22.s 			page 51


 2622              	.LVL509:
 2623 0e80 5A46     		mov	r2, fp
 2624              	.LVL510:
 2625 0e82 D243     		mvns	r2, r2
 2626 0e84 4646     		mov	r6, r8
 2627 0e86 3243     		orrs	r2, r6
 2628 0e88 109E     		ldr	r6, [sp, #64]
 2629 0e8a 7240     		eors	r2, r6
 2630 0e8c 9146     		mov	r9, r2
 2631 0e8e 0A9A     		ldr	r2, [sp, #40]
 2632 0e90 9246     		mov	r10, r2
 2633 0e92 D144     		add	r9, r9, r10
 2634 0e94 4D44     		add	r5, r5, r9
 2635              	.LVL511:
 2636 0e96 E84E     		ldr	r6, .L19
 2637 0e98 B446     		mov	ip, r6
 2638 0e9a 6544     		add	r5, r5, ip
 2639              	.LVL512:
 2640 0e9c 1426     		movs	r6, #20
 2641 0e9e F541     		rors	r5, r5, r6
 2642              	.LVL513:
 2643 0ea0 A946     		mov	r9, r5
 2644 0ea2 8944     		add	r9, r9, r1
 2645              	.LVL514:
 2646 0ea4 5D46     		mov	r5, fp
 2647 0ea6 DD41     		rors	r5, r5, r3
 2648 0ea8 1495     		str	r5, [sp, #80]
 2649              	.LVL515:
 230:Source\mbedtls_open\library/ripemd160.c ****     P2( E, A, B, C, D,  7,  8,  8, 13 );
 2650              		.loc 1 230 0
 2651 0eaa C643     		mvns	r6, r0
 2652 0eac 3500     		movs	r5, r6
 2653              	.LVL516:
 2654 0eae 129A     		ldr	r2, [sp, #72]
 2655 0eb0 1543     		orrs	r5, r2
 2656 0eb2 2A00     		movs	r2, r5
 2657 0eb4 139D     		ldr	r5, [sp, #76]
 2658 0eb6 6A40     		eors	r2, r5
 2659 0eb8 9346     		mov	fp, r2
 2660 0eba 069D     		ldr	r5, [sp, #24]
 2661 0ebc AC46     		mov	ip, r5
 2662 0ebe E344     		add	fp, fp, ip
 2663 0ec0 5C44     		add	r4, r4, fp
 2664              	.LVL517:
 2665 0ec2 DE4E     		ldr	r6, .L19+4
 2666 0ec4 B446     		mov	ip, r6
 2667 0ec6 6444     		add	r4, r4, ip
 2668              	.LVL518:
 2669 0ec8 1826     		movs	r6, #24
 2670 0eca F441     		rors	r4, r4, r6
 2671              	.LVL519:
 2672 0ecc 119D     		ldr	r5, [sp, #68]
 2673 0ece AC46     		mov	ip, r5
 2674 0ed0 6444     		add	r4, r4, ip
 2675              	.LVL520:
 2676 0ed2 D841     		rors	r0, r0, r3
 2677              	.LVL521:
ARM GAS  C:\Users\Phuong\AppData\Local\Temp\ccbgGR22.s 			page 52


 2678 0ed4 4646     		mov	r6, r8
 2679 0ed6 F643     		mvns	r6, r6
 2680 0ed8 3500     		movs	r5, r6
 2681 0eda 4E46     		mov	r6, r9
 2682 0edc 3543     		orrs	r5, r6
 2683 0ede 149A     		ldr	r2, [sp, #80]
 2684 0ee0 5540     		eors	r5, r2
 2685 0ee2 AB46     		mov	fp, r5
 2686 0ee4 079D     		ldr	r5, [sp, #28]
 2687 0ee6 AA46     		mov	r10, r5
 2688 0ee8 D344     		add	fp, fp, r10
 2689 0eea 5944     		add	r1, r1, fp
 2690              	.LVL522:
 2691 0eec D24E     		ldr	r6, .L19
 2692 0eee B446     		mov	ip, r6
 2693 0ef0 6144     		add	r1, r1, ip
 2694              	.LVL523:
 2695 0ef2 1326     		movs	r6, #19
 2696 0ef4 F141     		rors	r1, r1, r6
 2697              	.LVL524:
 2698 0ef6 8B46     		mov	fp, r1
 2699 0ef8 1099     		ldr	r1, [sp, #64]
 2700 0efa 8C46     		mov	ip, r1
 2701 0efc E344     		add	fp, fp, ip
 2702              	.LVL525:
 2703 0efe 4146     		mov	r1, r8
 2704 0f00 D941     		rors	r1, r1, r3
 2705 0f02 1591     		str	r1, [sp, #84]
 2706              	.LVL526:
 231:Source\mbedtls_open\library/ripemd160.c ****     P2( D, E, A, B, C,  0, 13, 12,  5 );
 2707              		.loc 1 231 0
 2708 0f04 129D     		ldr	r5, [sp, #72]
 2709 0f06 EE43     		mvns	r6, r5
 2710 0f08 3500     		movs	r5, r6
 2711 0f0a 2543     		orrs	r5, r4
 2712 0f0c 4540     		eors	r5, r0
 2713 0f0e A846     		mov	r8, r5
 2714 0f10 0F9A     		ldr	r2, [sp, #60]
 2715 0f12 9446     		mov	ip, r2
 2716 0f14 E044     		add	r8, r8, ip
 2717 0f16 119E     		ldr	r6, [sp, #68]
 2718 0f18 B446     		mov	ip, r6
 2719 0f1a E044     		add	r8, r8, ip
 2720 0f1c C749     		ldr	r1, .L19+4
 2721              	.LVL527:
 2722 0f1e 8C46     		mov	ip, r1
 2723 0f20 E044     		add	r8, r8, ip
 2724              	.LVL528:
 2725 0f22 4546     		mov	r5, r8
 2726 0f24 1321     		movs	r1, #19
 2727 0f26 CD41     		rors	r5, r5, r1
 2728 0f28 A846     		mov	r8, r5
 2729              	.LVL529:
 2730 0f2a 139D     		ldr	r5, [sp, #76]
 2731 0f2c AC46     		mov	ip, r5
 2732              	.LVL530:
 2733 0f2e E044     		add	r8, r8, ip
ARM GAS  C:\Users\Phuong\AppData\Local\Temp\ccbgGR22.s 			page 53


 2734              	.LVL531:
 2735 0f30 129E     		ldr	r6, [sp, #72]
 2736 0f32 DE41     		rors	r6, r6, r3
 2737 0f34 1196     		str	r6, [sp, #68]
 2738              	.LVL532:
 2739 0f36 4946     		mov	r1, r9
 2740 0f38 CE43     		mvns	r6, r1
 2741              	.LVL533:
 2742 0f3a 5946     		mov	r1, fp
 2743 0f3c 0E43     		orrs	r6, r1
 2744 0f3e 159D     		ldr	r5, [sp, #84]
 2745 0f40 6E40     		eors	r6, r5
 2746 0f42 0B9D     		ldr	r5, [sp, #44]
 2747 0f44 AC46     		mov	ip, r5
 2748 0f46 6644     		add	r6, r6, ip
 2749 0f48 109A     		ldr	r2, [sp, #64]
 2750 0f4a 9219     		adds	r2, r2, r6
 2751 0f4c BA49     		ldr	r1, .L19
 2752 0f4e 8C46     		mov	ip, r1
 2753 0f50 6244     		add	r2, r2, ip
 2754              	.LVL534:
 2755 0f52 1B26     		movs	r6, #27
 2756 0f54 F241     		rors	r2, r2, r6
 2757              	.LVL535:
 2758 0f56 9246     		mov	r10, r2
 2759 0f58 149A     		ldr	r2, [sp, #80]
 2760 0f5a 9446     		mov	ip, r2
 2761 0f5c E244     		add	r10, r10, ip
 2762              	.LVL536:
 2763 0f5e 4D46     		mov	r5, r9
 2764 0f60 DD41     		rors	r5, r5, r3
 2765 0f62 2A00     		movs	r2, r5
 2766              	.LVL537:
 232:Source\mbedtls_open\library/ripemd160.c ****     P2( C, D, E, A, B,  6,  6,  2, 14 );
 2767              		.loc 1 232 0
 2768 0f64 E143     		mvns	r1, r4
 2769 0f66 0D00     		movs	r5, r1
 2770 0f68 4146     		mov	r1, r8
 2771 0f6a 0D43     		orrs	r5, r1
 2772 0f6c 2900     		movs	r1, r5
 2773 0f6e 119D     		ldr	r5, [sp, #68]
 2774 0f70 6940     		eors	r1, r5
 2775 0f72 8946     		mov	r9, r1
 2776 0f74 059D     		ldr	r5, [sp, #20]
 2777 0f76 AC46     		mov	ip, r5
 2778 0f78 E144     		add	r9, r9, ip
 2779 0f7a 139D     		ldr	r5, [sp, #76]
 2780 0f7c AC46     		mov	ip, r5
 2781 0f7e E144     		add	r9, r9, ip
 2782 0f80 AE49     		ldr	r1, .L19+4
 2783 0f82 8C46     		mov	ip, r1
 2784 0f84 E144     		add	r9, r9, ip
 2785              	.LVL538:
 2786 0f86 4946     		mov	r1, r9
 2787 0f88 1A25     		movs	r5, #26
 2788 0f8a E941     		rors	r1, r1, r5
 2789 0f8c 8946     		mov	r9, r1
ARM GAS  C:\Users\Phuong\AppData\Local\Temp\ccbgGR22.s 			page 54


 2790              	.LVL539:
 2791 0f8e 8144     		add	r9, r9, r0
 2792 0f90 4946     		mov	r1, r9
 2793 0f92 1091     		str	r1, [sp, #64]
 2794              	.LVL540:
 2795 0f94 DC41     		rors	r4, r4, r3
 2796              	.LVL541:
 2797 0f96 1294     		str	r4, [sp, #72]
 2798              	.LVL542:
 2799 0f98 5946     		mov	r1, fp
 2800              	.LVL543:
 2801 0f9a C943     		mvns	r1, r1
 2802 0f9c 5446     		mov	r4, r10
 2803              	.LVL544:
 2804 0f9e 2143     		orrs	r1, r4
 2805 0fa0 5140     		eors	r1, r2
 2806 0fa2 8C46     		mov	ip, r1
 2807 0fa4 019C     		ldr	r4, [sp, #4]
 2808 0fa6 A146     		mov	r9, r4
 2809              	.LVL545:
 2810 0fa8 CC44     		add	ip, ip, r9
 2811 0faa 149C     		ldr	r4, [sp, #80]
 2812 0fac 6444     		add	r4, r4, ip
 2813 0fae 2500     		movs	r5, r4
 2814 0fb0 A149     		ldr	r1, .L19
 2815 0fb2 8C46     		mov	ip, r1
 2816 0fb4 6544     		add	r5, r5, ip
 2817              	.LVL546:
 2818 0fb6 1221     		movs	r1, #18
 2819 0fb8 CD41     		rors	r5, r5, r1
 2820              	.LVL547:
 2821 0fba AC46     		mov	ip, r5
 2822              	.LVL548:
 2823 0fbc 159D     		ldr	r5, [sp, #84]
 2824 0fbe A946     		mov	r9, r5
 2825 0fc0 CC44     		add	ip, ip, r9
 2826              	.LVL549:
 2827 0fc2 5946     		mov	r1, fp
 2828 0fc4 D941     		rors	r1, r1, r3
 2829 0fc6 0D00     		movs	r5, r1
 2830              	.LVL550:
 233:Source\mbedtls_open\library/ripemd160.c ****     P2( B, C, D, E, A, 13,  5, 10, 13 );
 2831              		.loc 1 233 0
 2832 0fc8 4146     		mov	r1, r8
 2833              	.LVL551:
 2834 0fca C943     		mvns	r1, r1
 2835 0fcc 109C     		ldr	r4, [sp, #64]
 2836 0fce 2143     		orrs	r1, r4
 2837 0fd0 129C     		ldr	r4, [sp, #72]
 2838 0fd2 6140     		eors	r1, r4
 2839 0fd4 8B46     		mov	fp, r1
 2840 0fd6 0C9C     		ldr	r4, [sp, #48]
 2841 0fd8 A146     		mov	r9, r4
 2842 0fda CB44     		add	fp, fp, r9
 2843 0fdc 5844     		add	r0, r0, fp
 2844              	.LVL552:
 2845 0fde 9749     		ldr	r1, .L19+4
ARM GAS  C:\Users\Phuong\AppData\Local\Temp\ccbgGR22.s 			page 55


 2846 0fe0 8946     		mov	r9, r1
 2847 0fe2 4844     		add	r0, r0, r9
 2848              	.LVL553:
 2849 0fe4 F041     		rors	r0, r0, r6
 2850              	.LVL554:
 2851 0fe6 119C     		ldr	r4, [sp, #68]
 2852 0fe8 A346     		mov	fp, r4
 2853 0fea 8344     		add	fp, fp, r0
 2854              	.LVL555:
 2855 0fec 4046     		mov	r0, r8
 2856 0fee D841     		rors	r0, r0, r3
 2857              	.LVL556:
 2858 0ff0 5146     		mov	r1, r10
 2859 0ff2 C943     		mvns	r1, r1
 2860 0ff4 6446     		mov	r4, ip
 2861 0ff6 2143     		orrs	r1, r4
 2862 0ff8 6940     		eors	r1, r5
 2863 0ffa 8846     		mov	r8, r1
 2864 0ffc 099C     		ldr	r4, [sp, #36]
 2865 0ffe A146     		mov	r9, r4
 2866 1000 C844     		add	r8, r8, r9
 2867 1002 1599     		ldr	r1, [sp, #84]
 2868 1004 4144     		add	r1, r1, r8
 2869 1006 8C4C     		ldr	r4, .L19
 2870 1008 A046     		mov	r8, r4
 2871 100a 4144     		add	r1, r1, r8
 2872              	.LVL557:
 2873 100c 1324     		movs	r4, #19
 2874 100e E141     		rors	r1, r1, r4
 2875              	.LVL558:
 2876 1010 8846     		mov	r8, r1
 2877              	.LVL559:
 2878 1012 9044     		add	r8, r8, r2
 2879              	.LVL560:
 2880 1014 5146     		mov	r1, r10
 2881 1016 D941     		rors	r1, r1, r3
 2882 1018 1391     		str	r1, [sp, #76]
 2883              	.LVL561:
 234:Source\mbedtls_open\library/ripemd160.c ****     P2( A, B, C, D, E, 11, 12,  0, 13 );
 2884              		.loc 1 234 0
 2885 101a 1099     		ldr	r1, [sp, #64]
 2886              	.LVL562:
 2887 101c C943     		mvns	r1, r1
 2888 101e 5C46     		mov	r4, fp
 2889 1020 2143     		orrs	r1, r4
 2890 1022 1490     		str	r0, [sp, #80]
 2891 1024 4140     		eors	r1, r0
 2892 1026 8A46     		mov	r10, r1
 2893 1028 0A99     		ldr	r1, [sp, #40]
 2894 102a 8946     		mov	r9, r1
 2895 102c CA44     		add	r10, r10, r9
 2896 102e 1199     		ldr	r1, [sp, #68]
 2897 1030 8946     		mov	r9, r1
 2898 1032 CA44     		add	r10, r10, r9
 2899 1034 8149     		ldr	r1, .L19+4
 2900 1036 8946     		mov	r9, r1
 2901 1038 CA44     		add	r10, r10, r9
ARM GAS  C:\Users\Phuong\AppData\Local\Temp\ccbgGR22.s 			page 56


 2902              	.LVL563:
 2903 103a 5146     		mov	r1, r10
 2904 103c 1424     		movs	r4, #20
 2905 103e E141     		rors	r1, r1, r4
 2906 1040 8A46     		mov	r10, r1
 2907              	.LVL564:
 2908 1042 1298     		ldr	r0, [sp, #72]
 2909              	.LVL565:
 2910 1044 8146     		mov	r9, r0
 2911              	.LVL566:
 2912 1046 CA44     		add	r10, r10, r9
 2913 1048 5446     		mov	r4, r10
 2914 104a 1194     		str	r4, [sp, #68]
 2915              	.LVL567:
 2916 104c 1099     		ldr	r1, [sp, #64]
 2917 104e D941     		rors	r1, r1, r3
 2918              	.LVL568:
 2919 1050 6446     		mov	r4, ip
 2920              	.LVL569:
 2921 1052 E443     		mvns	r4, r4
 2922 1054 4046     		mov	r0, r8
 2923 1056 0443     		orrs	r4, r0
 2924 1058 1398     		ldr	r0, [sp, #76]
 2925 105a 4440     		eors	r4, r0
 2926 105c A146     		mov	r9, r4
 2927 105e 0F9C     		ldr	r4, [sp, #60]
 2928 1060 A246     		mov	r10, r4
 2929              	.LVL570:
 2930 1062 D144     		add	r9, r9, r10
 2931 1064 4A44     		add	r2, r2, r9
 2932              	.LVL571:
 2933 1066 7448     		ldr	r0, .L19
 2934 1068 8146     		mov	r9, r0
 2935 106a 4A44     		add	r2, r2, r9
 2936              	.LVL572:
 2937 106c 1320     		movs	r0, #19
 2938 106e C241     		rors	r2, r2, r0
 2939              	.LVL573:
 2940 1070 AA18     		adds	r2, r5, r2
 2941              	.LVL574:
 2942 1072 6446     		mov	r4, ip
 2943 1074 DC41     		rors	r4, r4, r3
 2944 1076 A446     		mov	ip, r4
 2945              	.LVL575:
 235:Source\mbedtls_open\library/ripemd160.c ****     P2( E, A, B, C, D,  5,  7,  4,  7 );
 2946              		.loc 1 235 0
 2947 1078 5846     		mov	r0, fp
 2948 107a C043     		mvns	r0, r0
 2949 107c 0400     		movs	r4, r0
 2950              	.LVL576:
 2951 107e 1198     		ldr	r0, [sp, #68]
 2952 1080 0443     		orrs	r4, r0
 2953 1082 1591     		str	r1, [sp, #84]
 2954 1084 4C40     		eors	r4, r1
 2955 1086 A146     		mov	r9, r4
 2956 1088 0499     		ldr	r1, [sp, #16]
 2957              	.LVL577:
ARM GAS  C:\Users\Phuong\AppData\Local\Temp\ccbgGR22.s 			page 57


 2958 108a 8A46     		mov	r10, r1
 2959 108c D144     		add	r9, r9, r10
 2960 108e 1299     		ldr	r1, [sp, #72]
 2961 1090 4944     		add	r1, r1, r9
 2962 1092 0C00     		movs	r4, r1
 2963 1094 6948     		ldr	r0, .L19+4
 2964 1096 8146     		mov	r9, r0
 2965 1098 4C44     		add	r4, r4, r9
 2966              	.LVL578:
 2967 109a 1920     		movs	r0, #25
 2968 109c C441     		rors	r4, r4, r0
 2969              	.LVL579:
 2970 109e A146     		mov	r9, r4
 2971              	.LVL580:
 2972 10a0 149C     		ldr	r4, [sp, #80]
 2973 10a2 A246     		mov	r10, r4
 2974 10a4 D144     		add	r9, r9, r10
 2975              	.LVL581:
 2976 10a6 5946     		mov	r1, fp
 2977 10a8 D941     		rors	r1, r1, r3
 2978 10aa 8B46     		mov	fp, r1
 2979              	.LVL582:
 2980 10ac 4046     		mov	r0, r8
 2981 10ae C443     		mvns	r4, r0
 2982 10b0 1443     		orrs	r4, r2
 2983 10b2 6046     		mov	r0, ip
 2984 10b4 4440     		eors	r4, r0
 2985 10b6 0399     		ldr	r1, [sp, #12]
 2986              	.LVL583:
 2987 10b8 8A46     		mov	r10, r1
 2988 10ba 5444     		add	r4, r4, r10
 2989 10bc 2D19     		adds	r5, r5, r4
 2990              	.LVL584:
 2991 10be 5E48     		ldr	r0, .L19
 2992 10c0 8246     		mov	r10, r0
 2993 10c2 5544     		add	r5, r5, r10
 2994              	.LVL585:
 2995 10c4 1920     		movs	r0, #25
 2996 10c6 C541     		rors	r5, r5, r0
 2997              	.LVL586:
 2998 10c8 1398     		ldr	r0, [sp, #76]
 2999 10ca 8246     		mov	r10, r0
 3000 10cc 5544     		add	r5, r5, r10
 3001              	.LVL587:
 3002 10ce 4146     		mov	r1, r8
 3003 10d0 D941     		rors	r1, r1, r3
 3004 10d2 8846     		mov	r8, r1
 3005              	.LVL588:
 236:Source\mbedtls_open\library/ripemd160.c ****     P2( D, E, A, B, C, 12,  5, 13,  5 );
 3006              		.loc 1 236 0
 3007 10d4 1198     		ldr	r0, [sp, #68]
 3008 10d6 C443     		mvns	r4, r0
 3009 10d8 4846     		mov	r0, r9
 3010 10da 0443     		orrs	r4, r0
 3011 10dc 5846     		mov	r0, fp
 3012 10de 4440     		eors	r4, r0
 3013 10e0 0B99     		ldr	r1, [sp, #44]
ARM GAS  C:\Users\Phuong\AppData\Local\Temp\ccbgGR22.s 			page 58


 3014              	.LVL589:
 3015 10e2 8A46     		mov	r10, r1
 3016 10e4 5444     		add	r4, r4, r10
 3017 10e6 1499     		ldr	r1, [sp, #80]
 3018 10e8 8A46     		mov	r10, r1
 3019 10ea 5444     		add	r4, r4, r10
 3020 10ec 5348     		ldr	r0, .L19+4
 3021 10ee 8246     		mov	r10, r0
 3022 10f0 5444     		add	r4, r4, r10
 3023              	.LVL590:
 3024 10f2 F441     		rors	r4, r4, r6
 3025              	.LVL591:
 3026 10f4 1598     		ldr	r0, [sp, #84]
 3027              	.LVL592:
 3028 10f6 8246     		mov	r10, r0
 3029              	.LVL593:
 3030 10f8 5444     		add	r4, r4, r10
 3031              	.LVL594:
 3032 10fa 1198     		ldr	r0, [sp, #68]
 3033 10fc D841     		rors	r0, r0, r3
 3034 10fe 1490     		str	r0, [sp, #80]
 3035              	.LVL595:
 3036 1100 D043     		mvns	r0, r2
 3037              	.LVL596:
 3038 1102 2843     		orrs	r0, r5
 3039 1104 4146     		mov	r1, r8
 3040 1106 4840     		eors	r0, r1
 3041 1108 0C99     		ldr	r1, [sp, #48]
 3042 110a 8A46     		mov	r10, r1
 3043 110c 5044     		add	r0, r0, r10
 3044 110e 1399     		ldr	r1, [sp, #76]
 3045 1110 0918     		adds	r1, r1, r0
 3046 1112 4948     		ldr	r0, .L19
 3047 1114 8246     		mov	r10, r0
 3048 1116 5144     		add	r1, r1, r10
 3049              	.LVL597:
 3050 1118 F141     		rors	r1, r1, r6
 3051              	.LVL598:
 3052 111a 0800     		movs	r0, r1
 3053              	.LVL599:
 3054 111c 6044     		add	r0, r0, ip
 3055 111e 1290     		str	r0, [sp, #72]
 3056              	.LVL600:
 3057 1120 DA41     		rors	r2, r2, r3
 3058              	.LVL601:
 3059 1122 1092     		str	r2, [sp, #64]
 3060              	.LVL602:
 237:Source\mbedtls_open\library/ripemd160.c **** #undef F
 238:Source\mbedtls_open\library/ripemd160.c **** #undef K
 239:Source\mbedtls_open\library/ripemd160.c **** #undef Fp
 240:Source\mbedtls_open\library/ripemd160.c **** #undef Kp
 241:Source\mbedtls_open\library/ripemd160.c **** 
 242:Source\mbedtls_open\library/ripemd160.c **** #define F   F4
 243:Source\mbedtls_open\library/ripemd160.c **** #define K   0x8F1BBCDC
 244:Source\mbedtls_open\library/ripemd160.c **** #define Fp  F2
 245:Source\mbedtls_open\library/ripemd160.c **** #define Kp  0x7A6D76E9
 246:Source\mbedtls_open\library/ripemd160.c ****     P2( C, D, E, A, B,  1, 11,  8, 15 );
ARM GAS  C:\Users\Phuong\AppData\Local\Temp\ccbgGR22.s 			page 59


 3061              		.loc 1 246 0
 3062 1124 4846     		mov	r0, r9
 3063              	.LVL603:
 3064 1126 6040     		eors	r0, r4
 3065 1128 149A     		ldr	r2, [sp, #80]
 3066              	.LVL604:
 3067 112a 1040     		ands	r0, r2
 3068 112c 4946     		mov	r1, r9
 3069 112e 4840     		eors	r0, r1
 3070 1130 0099     		ldr	r1, [sp]
 3071 1132 8A46     		mov	r10, r1
 3072 1134 5044     		add	r0, r0, r10
 3073 1136 159A     		ldr	r2, [sp, #84]
 3074 1138 9246     		mov	r10, r2
 3075 113a 5044     		add	r0, r0, r10
 3076 113c 404A     		ldr	r2, .L19+8
 3077 113e 9246     		mov	r10, r2
 3078 1140 5044     		add	r0, r0, r10
 3079              	.LVL605:
 3080 1142 1522     		movs	r2, #21
 3081 1144 D041     		rors	r0, r0, r2
 3082              	.LVL606:
 3083 1146 0100     		movs	r1, r0
 3084 1148 5944     		add	r1, r1, fp
 3085 114a 1191     		str	r1, [sp, #68]
 3086              	.LVL607:
 3087 114c 4A46     		mov	r2, r9
 3088 114e DA41     		rors	r2, r2, r3
 3089 1150 1392     		str	r2, [sp, #76]
 3090              	.LVL608:
 3091 1152 2A00     		movs	r2, r5
 3092              	.LVL609:
 3093 1154 1098     		ldr	r0, [sp, #64]
 3094 1156 4240     		eors	r2, r0
 3095 1158 1100     		movs	r1, r2
 3096              	.LVL610:
 3097 115a 129A     		ldr	r2, [sp, #72]
 3098 115c 1140     		ands	r1, r2
 3099 115e 4140     		eors	r1, r0
 3100 1160 079A     		ldr	r2, [sp, #28]
 3101 1162 9246     		mov	r10, r2
 3102 1164 5144     		add	r1, r1, r10
 3103 1166 6144     		add	r1, r1, ip
 3104 1168 364A     		ldr	r2, .L19+12
 3105 116a 9446     		mov	ip, r2
 3106              	.LVL611:
 3107 116c 6144     		add	r1, r1, ip
 3108              	.LVL612:
 3109 116e 1122     		movs	r2, #17
 3110 1170 D141     		rors	r1, r1, r2
 3111              	.LVL613:
 3112 1172 0800     		movs	r0, r1
 3113 1174 4044     		add	r0, r0, r8
 3114 1176 8446     		mov	ip, r0
 3115              	.LVL614:
 3116 1178 DD41     		rors	r5, r5, r3
 3117              	.LVL615:
ARM GAS  C:\Users\Phuong\AppData\Local\Temp\ccbgGR22.s 			page 60


 3118 117a 2800     		movs	r0, r5
 3119              	.LVL616:
 247:Source\mbedtls_open\library/ripemd160.c ****     P2( B, C, D, E, A,  9, 12,  6,  5 );
 3120              		.loc 1 247 0
 3121 117c 2500     		movs	r5, r4
 3122 117e 1199     		ldr	r1, [sp, #68]
 3123 1180 4D40     		eors	r5, r1
 3124 1182 2900     		movs	r1, r5
 3125 1184 139D     		ldr	r5, [sp, #76]
 3126 1186 2940     		ands	r1, r5
 3127 1188 6140     		eors	r1, r4
 3128 118a 089A     		ldr	r2, [sp, #32]
 3129 118c 9246     		mov	r10, r2
 3130 118e 5144     		add	r1, r1, r10
 3131 1190 5944     		add	r1, r1, fp
 3132 1192 2B4D     		ldr	r5, .L19+8
 3133 1194 AA46     		mov	r10, r5
 3134 1196 5144     		add	r1, r1, r10
 3135              	.LVL617:
 3136 1198 1425     		movs	r5, #20
 3137 119a E941     		rors	r1, r1, r5
 3138              	.LVL618:
 3139 119c 149A     		ldr	r2, [sp, #80]
 3140 119e 9246     		mov	r10, r2
 3141              	.LVL619:
 3142 11a0 5144     		add	r1, r1, r10
 3143              	.LVL620:
 3144 11a2 DC41     		rors	r4, r4, r3
 3145              	.LVL621:
 3146 11a4 A346     		mov	fp, r4
 3147              	.LVL622:
 3148 11a6 129C     		ldr	r4, [sp, #72]
 3149              	.LVL623:
 3150 11a8 4440     		eors	r4, r0
 3151 11aa 6546     		mov	r5, ip
 3152 11ac 2C40     		ands	r4, r5
 3153 11ae 1490     		str	r0, [sp, #80]
 3154              	.LVL624:
 3155 11b0 4440     		eors	r4, r0
 3156 11b2 059D     		ldr	r5, [sp, #20]
 3157 11b4 AA46     		mov	r10, r5
 3158 11b6 5444     		add	r4, r4, r10
 3159 11b8 4444     		add	r4, r4, r8
 3160 11ba 224D     		ldr	r5, .L19+12
 3161 11bc A846     		mov	r8, r5
 3162              	.LVL625:
 3163 11be 4444     		add	r4, r4, r8
 3164              	.LVL626:
 3165 11c0 F441     		rors	r4, r4, r6
 3166              	.LVL627:
 3167 11c2 A046     		mov	r8, r4
 3168 11c4 109C     		ldr	r4, [sp, #64]
 3169 11c6 A146     		mov	r9, r4
 3170 11c8 C844     		add	r8, r8, r9
 3171              	.LVL628:
 3172 11ca 129D     		ldr	r5, [sp, #72]
 3173 11cc DD41     		rors	r5, r5, r3
ARM GAS  C:\Users\Phuong\AppData\Local\Temp\ccbgGR22.s 			page 61


 3174 11ce 2C00     		movs	r4, r5
 3175              	.LVL629:
 248:Source\mbedtls_open\library/ripemd160.c ****     P2( A, B, C, D, E, 11, 14,  4,  8 );
 3176              		.loc 1 248 0
 3177 11d0 119D     		ldr	r5, [sp, #68]
 3178 11d2 4D40     		eors	r5, r1
 3179 11d4 5846     		mov	r0, fp
 3180              	.LVL630:
 3181 11d6 0540     		ands	r5, r0
 3182 11d8 1198     		ldr	r0, [sp, #68]
 3183 11da 4540     		eors	r5, r0
 3184 11dc AA46     		mov	r10, r5
 3185 11de 0A9D     		ldr	r5, [sp, #40]
 3186 11e0 A946     		mov	r9, r5
 3187 11e2 CA44     		add	r10, r10, r9
 3188 11e4 9146     		mov	r9, r2
 3189 11e6 CA44     		add	r10, r10, r9
 3190 11e8 1548     		ldr	r0, .L19+8
 3191 11ea 8146     		mov	r9, r0
 3192 11ec CA44     		add	r10, r10, r9
 3193              	.LVL631:
 3194 11ee 5546     		mov	r5, r10
 3195 11f0 1220     		movs	r0, #18
 3196 11f2 C541     		rors	r5, r5, r0
 3197 11f4 AA46     		mov	r10, r5
 3198              	.LVL632:
 3199 11f6 139D     		ldr	r5, [sp, #76]
 3200 11f8 A946     		mov	r9, r5
 3201              	.LVL633:
 3202 11fa CA44     		add	r10, r10, r9
 3203              	.LVL634:
 3204 11fc 1198     		ldr	r0, [sp, #68]
 3205 11fe D841     		rors	r0, r0, r3
 3206 1200 1290     		str	r0, [sp, #72]
 3207              	.LVL635:
 3208 1202 6046     		mov	r0, ip
 3209              	.LVL636:
 3210 1204 6040     		eors	r0, r4
 3211 1206 4546     		mov	r5, r8
 3212 1208 2840     		ands	r0, r5
 3213 120a 6040     		eors	r0, r4
 3214 120c 039D     		ldr	r5, [sp, #12]
 3215 120e A946     		mov	r9, r5
 3216 1210 4844     		add	r0, r0, r9
 3217 1212 109A     		ldr	r2, [sp, #64]
 3218 1214 1218     		adds	r2, r2, r0
 3219 1216 0B48     		ldr	r0, .L19+12
 3220 1218 8146     		mov	r9, r0
 3221 121a 4A44     		add	r2, r2, r9
 3222              	.LVL637:
 3223 121c 1820     		movs	r0, #24
 3224 121e C241     		rors	r2, r2, r0
 3225              	.LVL638:
 3226 1220 149D     		ldr	r5, [sp, #80]
 3227 1222 A946     		mov	r9, r5
 3228              	.LVL639:
 3229 1224 4A44     		add	r2, r2, r9
ARM GAS  C:\Users\Phuong\AppData\Local\Temp\ccbgGR22.s 			page 62


 3230              	.LVL640:
 3231 1226 6046     		mov	r0, ip
 3232 1228 D841     		rors	r0, r0, r3
 3233 122a 1090     		str	r0, [sp, #64]
 3234              	.LVL641:
 249:Source\mbedtls_open\library/ripemd160.c ****     P2( E, A, B, C, D, 10, 15,  1, 11 );
 3235              		.loc 1 249 0
 3236 122c 5546     		mov	r5, r10
 3237 122e 4D40     		eors	r5, r1
 3238 1230 2800     		movs	r0, r5
 3239              	.LVL642:
 3240 1232 129D     		ldr	r5, [sp, #72]
 3241 1234 08E0     		b	.L20
 3242              	.L21:
 3243 1236 C046     		.align	2
 3244              	.L19:
 3245 1238 F33E706D 		.word	1836072691
 3246 123c A1EBD96E 		.word	1859775393
 3247 1240 DCBC1B8F 		.word	-1894007588
 3248 1244 E9766D7A 		.word	2053994217
 3249              	.L20:
 3250 1248 2840     		ands	r0, r5
 3251 124a 4840     		eors	r0, r1
 3252 124c 8446     		mov	ip, r0
 3253 124e 099D     		ldr	r5, [sp, #36]
 3254 1250 A946     		mov	r9, r5
 3255 1252 CC44     		add	ip, ip, r9
 3256 1254 139D     		ldr	r5, [sp, #76]
 3257 1256 A946     		mov	r9, r5
 3258 1258 E144     		add	r9, r9, ip
 3259 125a FE48     		ldr	r0, .L22
 3260 125c 8446     		mov	ip, r0
 3261 125e E144     		add	r9, r9, ip
 3262              	.LVL643:
 3263 1260 4846     		mov	r0, r9
 3264 1262 1125     		movs	r5, #17
 3265 1264 E841     		rors	r0, r0, r5
 3266 1266 8146     		mov	r9, r0
 3267              	.LVL644:
 3268 1268 D944     		add	r9, r9, fp
 3269              	.LVL645:
 3270 126a D941     		rors	r1, r1, r3
 3271              	.LVL646:
 3272 126c 1391     		str	r1, [sp, #76]
 3273              	.LVL647:
 3274 126e 4046     		mov	r0, r8
 3275 1270 109D     		ldr	r5, [sp, #64]
 3276 1272 6840     		eors	r0, r5
 3277 1274 0100     		movs	r1, r0
 3278              	.LVL648:
 3279 1276 1140     		ands	r1, r2
 3280 1278 6940     		eors	r1, r5
 3281 127a 009D     		ldr	r5, [sp]
 3282 127c AC46     		mov	ip, r5
 3283 127e 6144     		add	r1, r1, ip
 3284 1280 1498     		ldr	r0, [sp, #80]
 3285 1282 4518     		adds	r5, r0, r1
ARM GAS  C:\Users\Phuong\AppData\Local\Temp\ccbgGR22.s 			page 63


 3286 1284 F448     		ldr	r0, .L22+4
 3287 1286 8446     		mov	ip, r0
 3288 1288 6544     		add	r5, r5, ip
 3289              	.LVL649:
 3290 128a 1520     		movs	r0, #21
 3291 128c C541     		rors	r5, r5, r0
 3292              	.LVL650:
 3293 128e 6519     		adds	r5, r4, r5
 3294              	.LVL651:
 3295 1290 4046     		mov	r0, r8
 3296 1292 D841     		rors	r0, r0, r3
 3297 1294 1190     		str	r0, [sp, #68]
 3298              	.LVL652:
 250:Source\mbedtls_open\library/ripemd160.c ****     P2( D, E, A, B, C,  0, 14,  3, 14 );
 3299              		.loc 1 250 0
 3300 1296 5046     		mov	r0, r10
 3301              	.LVL653:
 3302 1298 4946     		mov	r1, r9
 3303 129a 4840     		eors	r0, r1
 3304 129c 1399     		ldr	r1, [sp, #76]
 3305 129e 0840     		ands	r0, r1
 3306 12a0 5146     		mov	r1, r10
 3307 12a2 4840     		eors	r0, r1
 3308 12a4 8446     		mov	ip, r0
 3309 12a6 0F99     		ldr	r1, [sp, #60]
 3310 12a8 8846     		mov	r8, r1
 3311 12aa C444     		add	ip, ip, r8
 3312 12ac E344     		add	fp, fp, ip
 3313              	.LVL654:
 3314 12ae E948     		ldr	r0, .L22
 3315 12b0 8446     		mov	ip, r0
 3316 12b2 E344     		add	fp, fp, ip
 3317              	.LVL655:
 3318 12b4 5846     		mov	r0, fp
 3319 12b6 1221     		movs	r1, #18
 3320 12b8 C841     		rors	r0, r0, r1
 3321 12ba 8346     		mov	fp, r0
 3322              	.LVL656:
 3323 12bc 1299     		ldr	r1, [sp, #72]
 3324 12be 8C46     		mov	ip, r1
 3325 12c0 E344     		add	fp, fp, ip
 3326              	.LVL657:
 3327 12c2 5046     		mov	r0, r10
 3328 12c4 D841     		rors	r0, r0, r3
 3329 12c6 1490     		str	r0, [sp, #80]
 3330              	.LVL658:
 3331 12c8 1000     		movs	r0, r2
 3332              	.LVL659:
 3333 12ca 1199     		ldr	r1, [sp, #68]
 3334 12cc 4840     		eors	r0, r1
 3335 12ce 2840     		ands	r0, r5
 3336 12d0 4840     		eors	r0, r1
 3337 12d2 8446     		mov	ip, r0
 3338 12d4 0299     		ldr	r1, [sp, #8]
 3339 12d6 8846     		mov	r8, r1
 3340 12d8 C444     		add	ip, ip, r8
 3341 12da 6444     		add	r4, r4, ip
ARM GAS  C:\Users\Phuong\AppData\Local\Temp\ccbgGR22.s 			page 64


 3342              	.LVL660:
 3343 12dc DE48     		ldr	r0, .L22+4
 3344 12de 8446     		mov	ip, r0
 3345 12e0 6444     		add	r4, r4, ip
 3346              	.LVL661:
 3347 12e2 1220     		movs	r0, #18
 3348 12e4 C441     		rors	r4, r4, r0
 3349              	.LVL662:
 3350 12e6 1098     		ldr	r0, [sp, #64]
 3351 12e8 8446     		mov	ip, r0
 3352 12ea 6444     		add	r4, r4, ip
 3353              	.LVL663:
 3354 12ec DA41     		rors	r2, r2, r3
 3355              	.LVL664:
 251:Source\mbedtls_open\library/ripemd160.c ****     P2( C, D, E, A, B,  8, 15, 11, 14 );
 3356              		.loc 1 251 0
 3357 12ee 5846     		mov	r0, fp
 3358 12f0 4946     		mov	r1, r9
 3359 12f2 4840     		eors	r0, r1
 3360 12f4 1499     		ldr	r1, [sp, #80]
 3361 12f6 0840     		ands	r0, r1
 3362 12f8 4946     		mov	r1, r9
 3363 12fa 4840     		eors	r0, r1
 3364 12fc 8446     		mov	ip, r0
 3365 12fe 0799     		ldr	r1, [sp, #28]
 3366 1300 8846     		mov	r8, r1
 3367 1302 C444     		add	ip, ip, r8
 3368 1304 1299     		ldr	r1, [sp, #72]
 3369 1306 8846     		mov	r8, r1
 3370 1308 C444     		add	ip, ip, r8
 3371 130a D248     		ldr	r0, .L22
 3372 130c 8046     		mov	r8, r0
 3373 130e C444     		add	ip, ip, r8
 3374              	.LVL665:
 3375 1310 6046     		mov	r0, ip
 3376 1312 1121     		movs	r1, #17
 3377 1314 C841     		rors	r0, r0, r1
 3378 1316 8446     		mov	ip, r0
 3379              	.LVL666:
 3380 1318 1399     		ldr	r1, [sp, #76]
 3381 131a 8846     		mov	r8, r1
 3382              	.LVL667:
 3383 131c C444     		add	ip, ip, r8
 3384              	.LVL668:
 3385 131e 4846     		mov	r0, r9
 3386 1320 D841     		rors	r0, r0, r3
 3387 1322 8146     		mov	r9, r0
 3388              	.LVL669:
 3389 1324 2800     		movs	r0, r5
 3390              	.LVL670:
 3391 1326 5040     		eors	r0, r2
 3392 1328 2040     		ands	r0, r4
 3393 132a 5040     		eors	r0, r2
 3394 132c 8046     		mov	r8, r0
 3395 132e 0A99     		ldr	r1, [sp, #40]
 3396 1330 8A46     		mov	r10, r1
 3397 1332 D044     		add	r8, r8, r10
ARM GAS  C:\Users\Phuong\AppData\Local\Temp\ccbgGR22.s 			page 65


 3398 1334 1098     		ldr	r0, [sp, #64]
 3399 1336 4044     		add	r0, r0, r8
 3400 1338 C749     		ldr	r1, .L22+4
 3401 133a 8846     		mov	r8, r1
 3402 133c 4044     		add	r0, r0, r8
 3403              	.LVL671:
 3404 133e 1221     		movs	r1, #18
 3405 1340 C841     		rors	r0, r0, r1
 3406              	.LVL672:
 3407 1342 1199     		ldr	r1, [sp, #68]
 3408 1344 8846     		mov	r8, r1
 3409              	.LVL673:
 3410 1346 4044     		add	r0, r0, r8
 3411 1348 1290     		str	r0, [sp, #72]
 3412              	.LVL674:
 3413 134a DD41     		rors	r5, r5, r3
 3414              	.LVL675:
 252:Source\mbedtls_open\library/ripemd160.c ****     P2( B, C, D, E, A, 12,  9, 15,  6 );
 3415              		.loc 1 252 0
 3416 134c 5946     		mov	r1, fp
 3417 134e 6046     		mov	r0, ip
 3418              	.LVL676:
 3419 1350 4140     		eors	r1, r0
 3420 1352 4846     		mov	r0, r9
 3421 1354 0140     		ands	r1, r0
 3422 1356 5846     		mov	r0, fp
 3423 1358 4140     		eors	r1, r0
 3424 135a 8846     		mov	r8, r1
 3425 135c 0B99     		ldr	r1, [sp, #44]
 3426 135e 8A46     		mov	r10, r1
 3427 1360 D044     		add	r8, r8, r10
 3428 1362 1399     		ldr	r1, [sp, #76]
 3429 1364 8A46     		mov	r10, r1
 3430 1366 D044     		add	r8, r8, r10
 3431 1368 BA48     		ldr	r0, .L22
 3432 136a 8246     		mov	r10, r0
 3433 136c D044     		add	r8, r8, r10
 3434              	.LVL677:
 3435 136e 4146     		mov	r1, r8
 3436 1370 1720     		movs	r0, #23
 3437 1372 C141     		rors	r1, r1, r0
 3438 1374 8846     		mov	r8, r1
 3439              	.LVL678:
 3440 1376 1498     		ldr	r0, [sp, #80]
 3441 1378 8246     		mov	r10, r0
 3442              	.LVL679:
 3443 137a D044     		add	r8, r8, r10
 3444              	.LVL680:
 3445 137c 5946     		mov	r1, fp
 3446 137e D941     		rors	r1, r1, r3
 3447 1380 1391     		str	r1, [sp, #76]
 3448              	.LVL681:
 3449 1382 2100     		movs	r1, r4
 3450              	.LVL682:
 3451 1384 6940     		eors	r1, r5
 3452 1386 1298     		ldr	r0, [sp, #72]
 3453 1388 0140     		ands	r1, r0
ARM GAS  C:\Users\Phuong\AppData\Local\Temp\ccbgGR22.s 			page 66


 3454 138a 6940     		eors	r1, r5
 3455 138c 8B46     		mov	fp, r1
 3456 138e 0E99     		ldr	r1, [sp, #56]
 3457 1390 8A46     		mov	r10, r1
 3458 1392 D344     		add	fp, fp, r10
 3459 1394 1199     		ldr	r1, [sp, #68]
 3460 1396 5944     		add	r1, r1, fp
 3461 1398 AF48     		ldr	r0, .L22+4
 3462 139a 8246     		mov	r10, r0
 3463 139c 5144     		add	r1, r1, r10
 3464              	.LVL683:
 3465 139e 1A20     		movs	r0, #26
 3466 13a0 C141     		rors	r1, r1, r0
 3467              	.LVL684:
 3468 13a2 5118     		adds	r1, r2, r1
 3469              	.LVL685:
 3470 13a4 DC41     		rors	r4, r4, r3
 3471              	.LVL686:
 3472 13a6 1094     		str	r4, [sp, #64]
 3473              	.LVL687:
 253:Source\mbedtls_open\library/ripemd160.c ****     P2( A, B, C, D, E,  4,  8,  0, 14 );
 3474              		.loc 1 253 0
 3475 13a8 4446     		mov	r4, r8
 3476              	.LVL688:
 3477 13aa 6046     		mov	r0, ip
 3478 13ac 4440     		eors	r4, r0
 3479 13ae 2000     		movs	r0, r4
 3480 13b0 139C     		ldr	r4, [sp, #76]
 3481 13b2 2040     		ands	r0, r4
 3482 13b4 6446     		mov	r4, ip
 3483 13b6 6040     		eors	r0, r4
 3484 13b8 8346     		mov	fp, r0
 3485 13ba 039C     		ldr	r4, [sp, #12]
 3486 13bc A246     		mov	r10, r4
 3487 13be D344     		add	fp, fp, r10
 3488 13c0 1498     		ldr	r0, [sp, #80]
 3489 13c2 8246     		mov	r10, r0
 3490 13c4 DA44     		add	r10, r10, fp
 3491 13c6 A348     		ldr	r0, .L22
 3492 13c8 8346     		mov	fp, r0
 3493 13ca DA44     		add	r10, r10, fp
 3494              	.LVL689:
 3495 13cc 5046     		mov	r0, r10
 3496 13ce 1824     		movs	r4, #24
 3497 13d0 E041     		rors	r0, r0, r4
 3498 13d2 8246     		mov	r10, r0
 3499              	.LVL690:
 3500 13d4 CA44     		add	r10, r10, r9
 3501              	.LVL691:
 3502 13d6 6446     		mov	r4, ip
 3503 13d8 DC41     		rors	r4, r4, r3
 3504 13da 1494     		str	r4, [sp, #80]
 3505              	.LVL692:
 3506 13dc 1298     		ldr	r0, [sp, #72]
 3507 13de 109C     		ldr	r4, [sp, #64]
 3508              	.LVL693:
 3509 13e0 6040     		eors	r0, r4
ARM GAS  C:\Users\Phuong\AppData\Local\Temp\ccbgGR22.s 			page 67


 3510 13e2 0840     		ands	r0, r1
 3511 13e4 6040     		eors	r0, r4
 3512 13e6 8446     		mov	ip, r0
 3513 13e8 0F9C     		ldr	r4, [sp, #60]
 3514 13ea A346     		mov	fp, r4
 3515 13ec DC44     		add	ip, ip, fp
 3516 13ee 6244     		add	r2, r2, ip
 3517              	.LVL694:
 3518 13f0 9948     		ldr	r0, .L22+4
 3519 13f2 8446     		mov	ip, r0
 3520 13f4 6244     		add	r2, r2, ip
 3521              	.LVL695:
 3522 13f6 1220     		movs	r0, #18
 3523 13f8 C241     		rors	r2, r2, r0
 3524              	.LVL696:
 3525 13fa AA18     		adds	r2, r5, r2
 3526              	.LVL697:
 3527 13fc 129C     		ldr	r4, [sp, #72]
 3528 13fe DC41     		rors	r4, r4, r3
 3529 1400 1194     		str	r4, [sp, #68]
 3530              	.LVL698:
 254:Source\mbedtls_open\library/ripemd160.c ****     P2( E, A, B, C, D, 13,  9,  5,  6 );
 3531              		.loc 1 254 0
 3532 1402 4446     		mov	r4, r8
 3533              	.LVL699:
 3534 1404 5046     		mov	r0, r10
 3535 1406 4440     		eors	r4, r0
 3536 1408 2000     		movs	r0, r4
 3537 140a 149C     		ldr	r4, [sp, #80]
 3538 140c 2040     		ands	r0, r4
 3539 140e 4446     		mov	r4, r8
 3540 1410 6040     		eors	r0, r4
 3541 1412 8446     		mov	ip, r0
 3542 1414 0C9C     		ldr	r4, [sp, #48]
 3543 1416 A346     		mov	fp, r4
 3544 1418 DC44     		add	ip, ip, fp
 3545 141a E144     		add	r9, r9, ip
 3546              	.LVL700:
 3547 141c 8D48     		ldr	r0, .L22
 3548 141e 8446     		mov	ip, r0
 3549 1420 E144     		add	r9, r9, ip
 3550              	.LVL701:
 3551 1422 4846     		mov	r0, r9
 3552 1424 1724     		movs	r4, #23
 3553 1426 E041     		rors	r0, r0, r4
 3554 1428 8146     		mov	r9, r0
 3555              	.LVL702:
 3556 142a 139C     		ldr	r4, [sp, #76]
 3557 142c A446     		mov	ip, r4
 3558 142e E144     		add	r9, r9, ip
 3559              	.LVL703:
 3560 1430 4046     		mov	r0, r8
 3561 1432 D841     		rors	r0, r0, r3
 3562 1434 8046     		mov	r8, r0
 3563              	.LVL704:
 3564 1436 0800     		movs	r0, r1
 3565              	.LVL705:
ARM GAS  C:\Users\Phuong\AppData\Local\Temp\ccbgGR22.s 			page 68


 3566 1438 119C     		ldr	r4, [sp, #68]
 3567 143a 6040     		eors	r0, r4
 3568 143c 1040     		ands	r0, r2
 3569 143e 6040     		eors	r0, r4
 3570 1440 8446     		mov	ip, r0
 3571 1442 049C     		ldr	r4, [sp, #16]
 3572 1444 A346     		mov	fp, r4
 3573 1446 DC44     		add	ip, ip, fp
 3574 1448 6544     		add	r5, r5, ip
 3575              	.LVL706:
 3576 144a 8348     		ldr	r0, .L22+4
 3577 144c 8446     		mov	ip, r0
 3578 144e 6544     		add	r5, r5, ip
 3579              	.LVL707:
 3580 1450 1A20     		movs	r0, #26
 3581 1452 C541     		rors	r5, r5, r0
 3582              	.LVL708:
 3583 1454 1098     		ldr	r0, [sp, #64]
 3584 1456 8446     		mov	ip, r0
 3585 1458 6544     		add	r5, r5, ip
 3586              	.LVL709:
 3587 145a D941     		rors	r1, r1, r3
 3588              	.LVL710:
 255:Source\mbedtls_open\library/ripemd160.c ****     P2( D, E, A, B, C,  3, 14, 12,  9 );
 3589              		.loc 1 255 0
 3590 145c 4846     		mov	r0, r9
 3591 145e 5446     		mov	r4, r10
 3592 1460 6040     		eors	r0, r4
 3593 1462 4446     		mov	r4, r8
 3594 1464 2040     		ands	r0, r4
 3595 1466 5446     		mov	r4, r10
 3596 1468 6040     		eors	r0, r4
 3597 146a 8346     		mov	fp, r0
 3598 146c 029C     		ldr	r4, [sp, #8]
 3599 146e A446     		mov	ip, r4
 3600 1470 E344     		add	fp, fp, ip
 3601 1472 139C     		ldr	r4, [sp, #76]
 3602 1474 A446     		mov	ip, r4
 3603 1476 E344     		add	fp, fp, ip
 3604 1478 7648     		ldr	r0, .L22
 3605 147a 8446     		mov	ip, r0
 3606 147c E344     		add	fp, fp, ip
 3607              	.LVL711:
 3608 147e 5846     		mov	r0, fp
 3609 1480 1224     		movs	r4, #18
 3610 1482 E041     		rors	r0, r0, r4
 3611 1484 8346     		mov	fp, r0
 3612              	.LVL712:
 3613 1486 149C     		ldr	r4, [sp, #80]
 3614 1488 A446     		mov	ip, r4
 3615              	.LVL713:
 3616 148a E344     		add	fp, fp, ip
 3617              	.LVL714:
 3618 148c 5046     		mov	r0, r10
 3619 148e D841     		rors	r0, r0, r3
 3620 1490 1290     		str	r0, [sp, #72]
 3621              	.LVL715:
ARM GAS  C:\Users\Phuong\AppData\Local\Temp\ccbgGR22.s 			page 69


 3622 1492 1000     		movs	r0, r2
 3623              	.LVL716:
 3624 1494 4840     		eors	r0, r1
 3625 1496 2840     		ands	r0, r5
 3626 1498 4840     		eors	r0, r1
 3627 149a 8446     		mov	ip, r0
 3628 149c 0B9C     		ldr	r4, [sp, #44]
 3629 149e A246     		mov	r10, r4
 3630 14a0 D444     		add	ip, ip, r10
 3631 14a2 1098     		ldr	r0, [sp, #64]
 3632 14a4 6044     		add	r0, r0, ip
 3633 14a6 0400     		movs	r4, r0
 3634 14a8 6B48     		ldr	r0, .L22+4
 3635 14aa 8446     		mov	ip, r0
 3636 14ac 6444     		add	r4, r4, ip
 3637              	.LVL717:
 3638 14ae 1720     		movs	r0, #23
 3639 14b0 C441     		rors	r4, r4, r0
 3640              	.LVL718:
 3641 14b2 1198     		ldr	r0, [sp, #68]
 3642 14b4 8446     		mov	ip, r0
 3643              	.LVL719:
 3644 14b6 6444     		add	r4, r4, ip
 3645              	.LVL720:
 3646 14b8 DA41     		rors	r2, r2, r3
 3647              	.LVL721:
 3648 14ba 1092     		str	r2, [sp, #64]
 3649              	.LVL722:
 256:Source\mbedtls_open\library/ripemd160.c ****     P2( C, D, E, A, B,  7,  5,  2, 12 );
 3650              		.loc 1 256 0
 3651 14bc 4846     		mov	r0, r9
 3652 14be 5A46     		mov	r2, fp
 3653              	.LVL723:
 3654 14c0 5040     		eors	r0, r2
 3655 14c2 129A     		ldr	r2, [sp, #72]
 3656 14c4 1040     		ands	r0, r2
 3657 14c6 4A46     		mov	r2, r9
 3658 14c8 5040     		eors	r0, r2
 3659 14ca 8446     		mov	ip, r0
 3660 14cc 069A     		ldr	r2, [sp, #24]
 3661 14ce 9246     		mov	r10, r2
 3662 14d0 D444     		add	ip, ip, r10
 3663 14d2 149A     		ldr	r2, [sp, #80]
 3664 14d4 9246     		mov	r10, r2
 3665 14d6 D444     		add	ip, ip, r10
 3666 14d8 5E48     		ldr	r0, .L22
 3667 14da 8246     		mov	r10, r0
 3668 14dc D444     		add	ip, ip, r10
 3669              	.LVL724:
 3670 14de 6046     		mov	r0, ip
 3671 14e0 F041     		rors	r0, r0, r6
 3672 14e2 8446     		mov	ip, r0
 3673              	.LVL725:
 3674 14e4 C444     		add	ip, ip, r8
 3675              	.LVL726:
 3676 14e6 4A46     		mov	r2, r9
 3677 14e8 DA41     		rors	r2, r2, r3
ARM GAS  C:\Users\Phuong\AppData\Local\Temp\ccbgGR22.s 			page 70


 3678 14ea 1392     		str	r2, [sp, #76]
 3679              	.LVL727:
 3680 14ec 2800     		movs	r0, r5
 3681 14ee 109A     		ldr	r2, [sp, #64]
 3682              	.LVL728:
 3683 14f0 5040     		eors	r0, r2
 3684 14f2 2040     		ands	r0, r4
 3685 14f4 5040     		eors	r0, r2
 3686 14f6 8146     		mov	r9, r0
 3687 14f8 019A     		ldr	r2, [sp, #4]
 3688 14fa 9246     		mov	r10, r2
 3689 14fc D144     		add	r9, r9, r10
 3690 14fe 119A     		ldr	r2, [sp, #68]
 3691 1500 1000     		movs	r0, r2
 3692 1502 4844     		add	r0, r0, r9
 3693 1504 544A     		ldr	r2, .L22+4
 3694 1506 9146     		mov	r9, r2
 3695 1508 4844     		add	r0, r0, r9
 3696              	.LVL729:
 3697 150a 1422     		movs	r2, #20
 3698 150c D041     		rors	r0, r0, r2
 3699              	.LVL730:
 3700 150e 0A18     		adds	r2, r1, r0
 3701 1510 1592     		str	r2, [sp, #84]
 3702              	.LVL731:
 3703 1512 DD41     		rors	r5, r5, r3
 3704              	.LVL732:
 257:Source\mbedtls_open\library/ripemd160.c ****     P2( B, C, D, E, A, 15,  6, 13,  9 );
 3705              		.loc 1 257 0
 3706 1514 6246     		mov	r2, ip
 3707              	.LVL733:
 3708 1516 5846     		mov	r0, fp
 3709 1518 4240     		eors	r2, r0
 3710 151a 1000     		movs	r0, r2
 3711 151c 139A     		ldr	r2, [sp, #76]
 3712 151e 1040     		ands	r0, r2
 3713 1520 5A46     		mov	r2, fp
 3714 1522 5040     		eors	r0, r2
 3715 1524 8146     		mov	r9, r0
 3716 1526 0E9A     		ldr	r2, [sp, #56]
 3717 1528 9246     		mov	r10, r2
 3718 152a D144     		add	r9, r9, r10
 3719 152c C844     		add	r8, r8, r9
 3720              	.LVL734:
 3721 152e 4948     		ldr	r0, .L22
 3722 1530 8146     		mov	r9, r0
 3723 1532 C844     		add	r8, r8, r9
 3724              	.LVL735:
 3725 1534 4046     		mov	r0, r8
 3726 1536 1A22     		movs	r2, #26
 3727 1538 D041     		rors	r0, r0, r2
 3728 153a 8046     		mov	r8, r0
 3729              	.LVL736:
 3730 153c 1298     		ldr	r0, [sp, #72]
 3731 153e 8146     		mov	r9, r0
 3732 1540 C844     		add	r8, r8, r9
 3733              	.LVL737:
ARM GAS  C:\Users\Phuong\AppData\Local\Temp\ccbgGR22.s 			page 71


 3734 1542 5A46     		mov	r2, fp
 3735 1544 DA41     		rors	r2, r2, r3
 3736 1546 1492     		str	r2, [sp, #80]
 3737              	.LVL738:
 3738 1548 2000     		movs	r0, r4
 3739 154a 6840     		eors	r0, r5
 3740 154c 159A     		ldr	r2, [sp, #84]
 3741              	.LVL739:
 3742 154e 1040     		ands	r0, r2
 3743 1550 6840     		eors	r0, r5
 3744 1552 8346     		mov	fp, r0
 3745 1554 0C9A     		ldr	r2, [sp, #48]
 3746 1556 9246     		mov	r10, r2
 3747 1558 D344     		add	fp, fp, r10
 3748 155a 5944     		add	r1, r1, fp
 3749              	.LVL740:
 3750 155c 3E48     		ldr	r0, .L22+4
 3751 155e 8146     		mov	r9, r0
 3752 1560 4944     		add	r1, r1, r9
 3753              	.LVL741:
 3754 1562 1720     		movs	r0, #23
 3755 1564 C141     		rors	r1, r1, r0
 3756              	.LVL742:
 3757 1566 8A46     		mov	r10, r1
 3758 1568 1098     		ldr	r0, [sp, #64]
 3759 156a 8146     		mov	r9, r0
 3760 156c CA44     		add	r10, r10, r9
 3761 156e 5046     		mov	r0, r10
 3762 1570 1190     		str	r0, [sp, #68]
 3763              	.LVL743:
 3764 1572 DC41     		rors	r4, r4, r3
 3765              	.LVL744:
 258:Source\mbedtls_open\library/ripemd160.c ****     P2( A, B, C, D, E, 14,  8,  9, 12 );
 3766              		.loc 1 258 0
 3767 1574 6046     		mov	r0, ip
 3768              	.LVL745:
 3769 1576 4246     		mov	r2, r8
 3770 1578 5040     		eors	r0, r2
 3771 157a 149A     		ldr	r2, [sp, #80]
 3772 157c 1040     		ands	r0, r2
 3773 157e 6246     		mov	r2, ip
 3774 1580 5040     		eors	r0, r2
 3775 1582 8146     		mov	r9, r0
 3776 1584 0D9A     		ldr	r2, [sp, #52]
 3777 1586 9246     		mov	r10, r2
 3778              	.LVL746:
 3779 1588 D144     		add	r9, r9, r10
 3780 158a 1299     		ldr	r1, [sp, #72]
 3781 158c 8A46     		mov	r10, r1
 3782 158e CA44     		add	r10, r10, r9
 3783 1590 3048     		ldr	r0, .L22
 3784 1592 8146     		mov	r9, r0
 3785 1594 CA44     		add	r10, r10, r9
 3786              	.LVL747:
 3787 1596 5046     		mov	r0, r10
 3788 1598 1822     		movs	r2, #24
 3789 159a D041     		rors	r0, r0, r2
ARM GAS  C:\Users\Phuong\AppData\Local\Temp\ccbgGR22.s 			page 72


 3790 159c 8246     		mov	r10, r0
 3791              	.LVL748:
 3792 159e 139A     		ldr	r2, [sp, #76]
 3793 15a0 9146     		mov	r9, r2
 3794              	.LVL749:
 3795 15a2 CA44     		add	r10, r10, r9
 3796              	.LVL750:
 3797 15a4 6046     		mov	r0, ip
 3798 15a6 D841     		rors	r0, r0, r3
 3799 15a8 8346     		mov	fp, r0
 3800              	.LVL751:
 3801 15aa 1599     		ldr	r1, [sp, #84]
 3802 15ac 0800     		movs	r0, r1
 3803              	.LVL752:
 3804 15ae 6040     		eors	r0, r4
 3805 15b0 119A     		ldr	r2, [sp, #68]
 3806 15b2 1040     		ands	r0, r2
 3807 15b4 6040     		eors	r0, r4
 3808 15b6 8446     		mov	ip, r0
 3809 15b8 089A     		ldr	r2, [sp, #32]
 3810 15ba 9146     		mov	r9, r2
 3811 15bc CC44     		add	ip, ip, r9
 3812 15be 109A     		ldr	r2, [sp, #64]
 3813 15c0 6244     		add	r2, r2, ip
 3814 15c2 2548     		ldr	r0, .L22+4
 3815 15c4 8446     		mov	ip, r0
 3816 15c6 6244     		add	r2, r2, ip
 3817              	.LVL753:
 3818 15c8 1420     		movs	r0, #20
 3819 15ca C241     		rors	r2, r2, r0
 3820              	.LVL754:
 3821 15cc AA18     		adds	r2, r5, r2
 3822              	.LVL755:
 3823 15ce D941     		rors	r1, r1, r3
 3824 15d0 1091     		str	r1, [sp, #64]
 3825              	.LVL756:
 259:Source\mbedtls_open\library/ripemd160.c ****     P2( E, A, B, C, D,  5,  6,  7,  5 );
 3826              		.loc 1 259 0
 3827 15d2 5046     		mov	r0, r10
 3828 15d4 4146     		mov	r1, r8
 3829              	.LVL757:
 3830 15d6 4840     		eors	r0, r1
 3831 15d8 5946     		mov	r1, fp
 3832 15da 0840     		ands	r0, r1
 3833 15dc 4146     		mov	r1, r8
 3834 15de 4840     		eors	r0, r1
 3835 15e0 8146     		mov	r9, r0
 3836 15e2 0498     		ldr	r0, [sp, #16]
 3837 15e4 8446     		mov	ip, r0
 3838 15e6 E144     		add	r9, r9, ip
 3839 15e8 1398     		ldr	r0, [sp, #76]
 3840 15ea 8446     		mov	ip, r0
 3841 15ec E144     		add	r9, r9, ip
 3842 15ee 1948     		ldr	r0, .L22
 3843 15f0 8446     		mov	ip, r0
 3844 15f2 E144     		add	r9, r9, ip
 3845              	.LVL758:
ARM GAS  C:\Users\Phuong\AppData\Local\Temp\ccbgGR22.s 			page 73


 3846 15f4 4846     		mov	r0, r9
 3847 15f6 1A21     		movs	r1, #26
 3848 15f8 C841     		rors	r0, r0, r1
 3849 15fa 8146     		mov	r9, r0
 3850              	.LVL759:
 3851 15fc 1498     		ldr	r0, [sp, #80]
 3852 15fe 8446     		mov	ip, r0
 3853              	.LVL760:
 3854 1600 E144     		add	r9, r9, ip
 3855              	.LVL761:
 3856 1602 4046     		mov	r0, r8
 3857 1604 D841     		rors	r0, r0, r3
 3858 1606 1590     		str	r0, [sp, #84]
 3859              	.LVL762:
 3860 1608 1198     		ldr	r0, [sp, #68]
 3861              	.LVL763:
 3862 160a 1099     		ldr	r1, [sp, #64]
 3863 160c 4840     		eors	r0, r1
 3864 160e 1040     		ands	r0, r2
 3865 1610 4840     		eors	r0, r1
 3866 1612 8046     		mov	r8, r0
 3867 1614 0698     		ldr	r0, [sp, #24]
 3868 1616 8446     		mov	ip, r0
 3869 1618 E044     		add	r8, r8, ip
 3870 161a 4544     		add	r5, r5, r8
 3871              	.LVL764:
 3872 161c 0E49     		ldr	r1, .L22+4
 3873 161e 8C46     		mov	ip, r1
 3874 1620 6544     		add	r5, r5, ip
 3875              	.LVL765:
 3876 1622 F541     		rors	r5, r5, r6
 3877              	.LVL766:
 3878 1624 A846     		mov	r8, r5
 3879 1626 A044     		add	r8, r8, r4
 3880              	.LVL767:
 3881 1628 1198     		ldr	r0, [sp, #68]
 3882 162a D841     		rors	r0, r0, r3
 3883 162c 1190     		str	r0, [sp, #68]
 3884              	.LVL768:
 260:Source\mbedtls_open\library/ripemd160.c ****     P2( D, E, A, B, C,  6,  5, 10, 15 );
 3885              		.loc 1 260 0
 3886 162e 5546     		mov	r5, r10
 3887 1630 4846     		mov	r0, r9
 3888              	.LVL769:
 3889 1632 4540     		eors	r5, r0
 3890 1634 1598     		ldr	r0, [sp, #84]
 3891 1636 0540     		ands	r5, r0
 3892 1638 5046     		mov	r0, r10
 3893 163a 4540     		eors	r5, r0
 3894 163c 0598     		ldr	r0, [sp, #20]
 3895 163e 8446     		mov	ip, r0
 3896 1640 6544     		add	r5, r5, ip
 3897 1642 1498     		ldr	r0, [sp, #80]
 3898 1644 8446     		mov	ip, r0
 3899 1646 6544     		add	r5, r5, ip
 3900 1648 0248     		ldr	r0, .L22
 3901 164a 8446     		mov	ip, r0
ARM GAS  C:\Users\Phuong\AppData\Local\Temp\ccbgGR22.s 			page 74


 3902 164c 6544     		add	r5, r5, ip
 3903              	.LVL770:
 3904 164e F541     		rors	r5, r5, r6
 3905              	.LVL771:
 3906 1650 5D44     		add	r5, r5, fp
 3907 1652 03E0     		b	.L23
 3908              	.L24:
 3909              		.align	2
 3910              	.L22:
 3911 1654 DCBC1B8F 		.word	-1894007588
 3912 1658 E9766D7A 		.word	2053994217
 3913              	.L23:
 3914 165c AC46     		mov	ip, r5
 3915              	.LVL772:
 3916 165e 5546     		mov	r5, r10
 3917              	.LVL773:
 3918 1660 DD41     		rors	r5, r5, r3
 3919 1662 1395     		str	r5, [sp, #76]
 3920              	.LVL774:
 3921 1664 1500     		movs	r5, r2
 3922              	.LVL775:
 3923 1666 1199     		ldr	r1, [sp, #68]
 3924 1668 4D40     		eors	r5, r1
 3925 166a 4046     		mov	r0, r8
 3926 166c 0540     		ands	r5, r0
 3927 166e 4D40     		eors	r5, r1
 3928 1670 0998     		ldr	r0, [sp, #36]
 3929 1672 8246     		mov	r10, r0
 3930 1674 5544     		add	r5, r5, r10
 3931 1676 6519     		adds	r5, r4, r5
 3932 1678 FE4C     		ldr	r4, .L25
 3933              	.LVL776:
 3934 167a A246     		mov	r10, r4
 3935 167c 5544     		add	r5, r5, r10
 3936              	.LVL777:
 3937 167e 1124     		movs	r4, #17
 3938 1680 E541     		rors	r5, r5, r4
 3939              	.LVL778:
 3940 1682 1098     		ldr	r0, [sp, #64]
 3941 1684 8246     		mov	r10, r0
 3942 1686 5544     		add	r5, r5, r10
 3943 1688 2900     		movs	r1, r5
 3944              	.LVL779:
 3945 168a DA41     		rors	r2, r2, r3
 3946              	.LVL780:
 3947 168c 1292     		str	r2, [sp, #72]
 3948              	.LVL781:
 261:Source\mbedtls_open\library/ripemd160.c ****     P2( C, D, E, A, B,  2, 12, 14,  8 );
 3949              		.loc 1 261 0
 3950 168e 4C46     		mov	r4, r9
 3951 1690 6046     		mov	r0, ip
 3952 1692 4440     		eors	r4, r0
 3953 1694 1398     		ldr	r0, [sp, #76]
 3954 1696 0440     		ands	r4, r0
 3955 1698 4846     		mov	r0, r9
 3956 169a 4440     		eors	r4, r0
 3957 169c 019A     		ldr	r2, [sp, #4]
ARM GAS  C:\Users\Phuong\AppData\Local\Temp\ccbgGR22.s 			page 75


 3958              	.LVL782:
 3959 169e 9246     		mov	r10, r2
 3960 16a0 5444     		add	r4, r4, r10
 3961 16a2 5C44     		add	r4, r4, fp
 3962 16a4 F44A     		ldr	r2, .L25+4
 3963 16a6 9246     		mov	r10, r2
 3964 16a8 5444     		add	r4, r4, r10
 3965              	.LVL783:
 3966 16aa 1422     		movs	r2, #20
 3967 16ac D441     		rors	r4, r4, r2
 3968              	.LVL784:
 3969 16ae 159D     		ldr	r5, [sp, #84]
 3970 16b0 AA46     		mov	r10, r5
 3971              	.LVL785:
 3972 16b2 5444     		add	r4, r4, r10
 3973              	.LVL786:
 3974 16b4 4846     		mov	r0, r9
 3975 16b6 D841     		rors	r0, r0, r3
 3976 16b8 1490     		str	r0, [sp, #80]
 3977              	.LVL787:
 3978 16ba 4246     		mov	r2, r8
 3979 16bc 1298     		ldr	r0, [sp, #72]
 3980              	.LVL788:
 3981 16be 4240     		eors	r2, r0
 3982 16c0 0A40     		ands	r2, r1
 3983 16c2 4240     		eors	r2, r0
 3984 16c4 9146     		mov	r9, r2
 3985 16c6 0D9A     		ldr	r2, [sp, #52]
 3986 16c8 9246     		mov	r10, r2
 3987 16ca D144     		add	r9, r9, r10
 3988 16cc 109A     		ldr	r2, [sp, #64]
 3989 16ce 9246     		mov	r10, r2
 3990 16d0 CA44     		add	r10, r10, r9
 3991 16d2 5046     		mov	r0, r10
 3992 16d4 E74A     		ldr	r2, .L25
 3993 16d6 9146     		mov	r9, r2
 3994 16d8 4844     		add	r0, r0, r9
 3995              	.LVL789:
 3996 16da 1822     		movs	r2, #24
 3997 16dc D041     		rors	r0, r0, r2
 3998              	.LVL790:
 3999 16de 8146     		mov	r9, r0
 4000              	.LVL791:
 4001 16e0 119A     		ldr	r2, [sp, #68]
 4002 16e2 9246     		mov	r10, r2
 4003              	.LVL792:
 4004 16e4 D144     		add	r9, r9, r10
 4005              	.LVL793:
 4006 16e6 4246     		mov	r2, r8
 4007 16e8 DA41     		rors	r2, r2, r3
 4008 16ea 9046     		mov	r8, r2
 4009              	.LVL794:
 262:Source\mbedtls_open\library/ripemd160.c **** #undef F
 263:Source\mbedtls_open\library/ripemd160.c **** #undef K
 264:Source\mbedtls_open\library/ripemd160.c **** #undef Fp
 265:Source\mbedtls_open\library/ripemd160.c **** #undef Kp
 266:Source\mbedtls_open\library/ripemd160.c **** 
ARM GAS  C:\Users\Phuong\AppData\Local\Temp\ccbgGR22.s 			page 76


 267:Source\mbedtls_open\library/ripemd160.c **** #define F   F5
 268:Source\mbedtls_open\library/ripemd160.c **** #define K   0xA953FD4E
 269:Source\mbedtls_open\library/ripemd160.c **** #define Fp  F1
 270:Source\mbedtls_open\library/ripemd160.c **** #define Kp  0x00000000
 271:Source\mbedtls_open\library/ripemd160.c ****     P2( B, C, D, E, A,  4,  9, 12,  8 );
 4010              		.loc 1 271 0
 4011 16ec 149A     		ldr	r2, [sp, #80]
 4012              	.LVL795:
 4013 16ee D043     		mvns	r0, r2
 4014 16f0 6246     		mov	r2, ip
 4015 16f2 1043     		orrs	r0, r2
 4016 16f4 6040     		eors	r0, r4
 4017 16f6 039A     		ldr	r2, [sp, #12]
 4018 16f8 9246     		mov	r10, r2
 4019 16fa 5044     		add	r0, r0, r10
 4020 16fc AA46     		mov	r10, r5
 4021 16fe 5044     		add	r0, r0, r10
 4022 1700 DE4A     		ldr	r2, .L25+8
 4023 1702 9246     		mov	r10, r2
 4024 1704 5044     		add	r0, r0, r10
 4025              	.LVL796:
 4026 1706 1722     		movs	r2, #23
 4027 1708 D041     		rors	r0, r0, r2
 4028              	.LVL797:
 4029 170a 139D     		ldr	r5, [sp, #76]
 4030 170c AA46     		mov	r10, r5
 4031              	.LVL798:
 4032 170e 5044     		add	r0, r0, r10
 4033              	.LVL799:
 4034 1710 6246     		mov	r2, ip
 4035 1712 DA41     		rors	r2, r2, r3
 4036 1714 1092     		str	r2, [sp, #64]
 4037              	.LVL800:
 4038 1716 4A46     		mov	r2, r9
 4039              	.LVL801:
 4040 1718 1591     		str	r1, [sp, #84]
 4041 171a 4A40     		eors	r2, r1
 4042 171c 4546     		mov	r5, r8
 4043 171e 6A40     		eors	r2, r5
 4044 1720 9346     		mov	fp, r2
 4045 1722 0B9A     		ldr	r2, [sp, #44]
 4046 1724 9246     		mov	r10, r2
 4047 1726 D344     		add	fp, fp, r10
 4048 1728 119A     		ldr	r2, [sp, #68]
 4049 172a 5A44     		add	r2, r2, fp
 4050 172c 1100     		movs	r1, r2
 4051              	.LVL802:
 4052 172e 1825     		movs	r5, #24
 4053 1730 E941     		rors	r1, r1, r5
 4054              	.LVL803:
 4055 1732 8B46     		mov	fp, r1
 4056 1734 1299     		ldr	r1, [sp, #72]
 4057 1736 8C46     		mov	ip, r1
 4058 1738 E344     		add	fp, fp, ip
 4059              	.LVL804:
 4060 173a 159D     		ldr	r5, [sp, #84]
 4061 173c DD41     		rors	r5, r5, r3
ARM GAS  C:\Users\Phuong\AppData\Local\Temp\ccbgGR22.s 			page 77


 4062              	.LVL805:
 272:Source\mbedtls_open\library/ripemd160.c ****     P2( A, B, C, D, E,  0, 15, 15,  5 );
 4063              		.loc 1 272 0
 4064 173e 1099     		ldr	r1, [sp, #64]
 4065 1740 C943     		mvns	r1, r1
 4066 1742 2143     		orrs	r1, r4
 4067 1744 4140     		eors	r1, r0
 4068 1746 0F9A     		ldr	r2, [sp, #60]
 4069 1748 9246     		mov	r10, r2
 4070 174a 5144     		add	r1, r1, r10
 4071 174c 139A     		ldr	r2, [sp, #76]
 4072 174e 9446     		mov	ip, r2
 4073 1750 6144     		add	r1, r1, ip
 4074 1752 CA4A     		ldr	r2, .L25+8
 4075 1754 9246     		mov	r10, r2
 4076 1756 5144     		add	r1, r1, r10
 4077              	.LVL806:
 4078 1758 1122     		movs	r2, #17
 4079 175a D141     		rors	r1, r1, r2
 4080              	.LVL807:
 4081 175c 149A     		ldr	r2, [sp, #80]
 4082 175e 9246     		mov	r10, r2
 4083              	.LVL808:
 4084 1760 8C46     		mov	ip, r1
 4085 1762 D444     		add	ip, ip, r10
 4086 1764 6246     		mov	r2, ip
 4087 1766 1192     		str	r2, [sp, #68]
 4088              	.LVL809:
 4089 1768 DC41     		rors	r4, r4, r3
 4090              	.LVL810:
 4091 176a 4946     		mov	r1, r9
 4092 176c 5A46     		mov	r2, fp
 4093              	.LVL811:
 4094 176e 5140     		eors	r1, r2
 4095 1770 6940     		eors	r1, r5
 4096 1772 8A46     		mov	r10, r1
 4097 1774 0E99     		ldr	r1, [sp, #56]
 4098 1776 8C46     		mov	ip, r1
 4099              	.LVL812:
 4100 1778 E244     		add	r10, r10, ip
 4101 177a 129A     		ldr	r2, [sp, #72]
 4102 177c 5244     		add	r2, r2, r10
 4103              	.LVL813:
 4104 177e F241     		rors	r2, r2, r6
 4105              	.LVL814:
 4106 1780 9246     		mov	r10, r2
 4107              	.LVL815:
 4108 1782 C244     		add	r10, r10, r8
 4109              	.LVL816:
 4110 1784 4946     		mov	r1, r9
 4111 1786 D941     		rors	r1, r1, r3
 4112 1788 1291     		str	r1, [sp, #72]
 4113              	.LVL817:
 273:Source\mbedtls_open\library/ripemd160.c ****     P2( E, A, B, C, D,  5,  5, 10, 12 );
 4114              		.loc 1 273 0
 4115 178a E243     		mvns	r2, r4
 4116 178c 0243     		orrs	r2, r0
ARM GAS  C:\Users\Phuong\AppData\Local\Temp\ccbgGR22.s 			page 78


 4117 178e 1199     		ldr	r1, [sp, #68]
 4118              	.LVL818:
 4119 1790 4A40     		eors	r2, r1
 4120 1792 0499     		ldr	r1, [sp, #16]
 4121 1794 8C46     		mov	ip, r1
 4122 1796 6244     		add	r2, r2, ip
 4123 1798 1499     		ldr	r1, [sp, #80]
 4124 179a 8C46     		mov	ip, r1
 4125 179c 6244     		add	r2, r2, ip
 4126 179e B749     		ldr	r1, .L25+8
 4127 17a0 8C46     		mov	ip, r1
 4128 17a2 6244     		add	r2, r2, ip
 4129              	.LVL819:
 4130 17a4 F241     		rors	r2, r2, r6
 4131              	.LVL820:
 4132 17a6 1099     		ldr	r1, [sp, #64]
 4133              	.LVL821:
 4134 17a8 8C46     		mov	ip, r1
 4135              	.LVL822:
 4136 17aa 6244     		add	r2, r2, ip
 4137              	.LVL823:
 4138 17ac D841     		rors	r0, r0, r3
 4139              	.LVL824:
 4140 17ae 1390     		str	r0, [sp, #76]
 4141              	.LVL825:
 4142 17b0 5846     		mov	r0, fp
 4143              	.LVL826:
 4144 17b2 5146     		mov	r1, r10
 4145 17b4 4840     		eors	r0, r1
 4146 17b6 1299     		ldr	r1, [sp, #72]
 4147 17b8 4840     		eors	r0, r1
 4148 17ba 8146     		mov	r9, r0
 4149 17bc 0999     		ldr	r1, [sp, #36]
 4150 17be 8C46     		mov	ip, r1
 4151 17c0 E144     		add	r9, r9, ip
 4152 17c2 C844     		add	r8, r8, r9
 4153              	.LVL827:
 4154 17c4 4046     		mov	r0, r8
 4155 17c6 1421     		movs	r1, #20
 4156 17c8 C841     		rors	r0, r0, r1
 4157 17ca 8046     		mov	r8, r0
 4158              	.LVL828:
 4159 17cc A844     		add	r8, r8, r5
 4160              	.LVL829:
 4161 17ce 5846     		mov	r0, fp
 4162 17d0 D841     		rors	r0, r0, r3
 4163 17d2 8346     		mov	fp, r0
 4164              	.LVL830:
 274:Source\mbedtls_open\library/ripemd160.c ****     P2( D, E, A, B, C,  9, 11,  4,  9 );
 4165              		.loc 1 274 0
 4166 17d4 1399     		ldr	r1, [sp, #76]
 4167 17d6 C843     		mvns	r0, r1
 4168              	.LVL831:
 4169 17d8 1199     		ldr	r1, [sp, #68]
 4170 17da 0843     		orrs	r0, r1
 4171 17dc 5040     		eors	r0, r2
 4172 17de 8146     		mov	r9, r0
ARM GAS  C:\Users\Phuong\AppData\Local\Temp\ccbgGR22.s 			page 79


 4173 17e0 0899     		ldr	r1, [sp, #32]
 4174 17e2 8C46     		mov	ip, r1
 4175 17e4 E144     		add	r9, r9, ip
 4176 17e6 1098     		ldr	r0, [sp, #64]
 4177 17e8 8446     		mov	ip, r0
 4178 17ea CC44     		add	ip, ip, r9
 4179 17ec A348     		ldr	r0, .L25+8
 4180 17ee 8146     		mov	r9, r0
 4181 17f0 CC44     		add	ip, ip, r9
 4182              	.LVL832:
 4183 17f2 6046     		mov	r0, ip
 4184 17f4 1521     		movs	r1, #21
 4185 17f6 C841     		rors	r0, r0, r1
 4186 17f8 8446     		mov	ip, r0
 4187              	.LVL833:
 4188 17fa A444     		add	ip, ip, r4
 4189              	.LVL834:
 4190 17fc 1198     		ldr	r0, [sp, #68]
 4191 17fe D841     		rors	r0, r0, r3
 4192 1800 1090     		str	r0, [sp, #64]
 4193              	.LVL835:
 4194 1802 4046     		mov	r0, r8
 4195              	.LVL836:
 4196 1804 5146     		mov	r1, r10
 4197 1806 4840     		eors	r0, r1
 4198 1808 0100     		movs	r1, r0
 4199 180a 5846     		mov	r0, fp
 4200 180c 4140     		eors	r1, r0
 4201 180e 0398     		ldr	r0, [sp, #12]
 4202 1810 8146     		mov	r9, r0
 4203 1812 4944     		add	r1, r1, r9
 4204 1814 6D18     		adds	r5, r5, r1
 4205              	.LVL837:
 4206 1816 1720     		movs	r0, #23
 4207 1818 C541     		rors	r5, r5, r0
 4208              	.LVL838:
 4209 181a 1298     		ldr	r0, [sp, #72]
 4210 181c 8146     		mov	r9, r0
 4211 181e 4D44     		add	r5, r5, r9
 4212 1820 0395     		str	r5, [sp, #12]
 4213              	.LVL839:
 4214 1822 5046     		mov	r0, r10
 4215 1824 D841     		rors	r0, r0, r3
 4216 1826 8246     		mov	r10, r0
 4217              	.LVL840:
 275:Source\mbedtls_open\library/ripemd160.c ****     P2( C, D, E, A, B,  7,  6,  1, 12 );
 4218              		.loc 1 275 0
 4219 1828 109D     		ldr	r5, [sp, #64]
 4220              	.LVL841:
 4221 182a E943     		mvns	r1, r5
 4222 182c 1143     		orrs	r1, r2
 4223 182e 6546     		mov	r5, ip
 4224 1830 6940     		eors	r1, r5
 4225 1832 0698     		ldr	r0, [sp, #24]
 4226              	.LVL842:
 4227 1834 8146     		mov	r9, r0
 4228 1836 4944     		add	r1, r1, r9
ARM GAS  C:\Users\Phuong\AppData\Local\Temp\ccbgGR22.s 			page 80


 4229 1838 6418     		adds	r4, r4, r1
 4230              	.LVL843:
 4231 183a 904D     		ldr	r5, .L25+8
 4232 183c A946     		mov	r9, r5
 4233 183e 4C44     		add	r4, r4, r9
 4234              	.LVL844:
 4235 1840 1A25     		movs	r5, #26
 4236 1842 EC41     		rors	r4, r4, r5
 4237              	.LVL845:
 4238 1844 1399     		ldr	r1, [sp, #76]
 4239 1846 8946     		mov	r9, r1
 4240 1848 4C44     		add	r4, r4, r9
 4241              	.LVL846:
 4242 184a DA41     		rors	r2, r2, r3
 4243              	.LVL847:
 4244 184c 1192     		str	r2, [sp, #68]
 4245              	.LVL848:
 4246 184e 4046     		mov	r0, r8
 4247 1850 039A     		ldr	r2, [sp, #12]
 4248              	.LVL849:
 4249 1852 5040     		eors	r0, r2
 4250 1854 0100     		movs	r1, r0
 4251 1856 5546     		mov	r5, r10
 4252 1858 6940     		eors	r1, r5
 4253 185a 0098     		ldr	r0, [sp]
 4254 185c 8146     		mov	r9, r0
 4255 185e 4944     		add	r1, r1, r9
 4256 1860 1298     		ldr	r0, [sp, #72]
 4257 1862 8146     		mov	r9, r0
 4258 1864 4944     		add	r1, r1, r9
 4259              	.LVL850:
 4260 1866 1425     		movs	r5, #20
 4261 1868 E941     		rors	r1, r1, r5
 4262              	.LVL851:
 4263 186a 0A00     		movs	r2, r1
 4264 186c 5A44     		add	r2, r2, fp
 4265              	.LVL852:
 4266 186e 4046     		mov	r0, r8
 4267 1870 D841     		rors	r0, r0, r3
 4268 1872 0100     		movs	r1, r0
 4269              	.LVL853:
 276:Source\mbedtls_open\library/ripemd160.c ****     P2( B, C, D, E, A, 12,  8,  5,  5 );
 4270              		.loc 1 276 0
 4271 1874 1198     		ldr	r0, [sp, #68]
 4272              	.LVL854:
 4273 1876 C543     		mvns	r5, r0
 4274 1878 2800     		movs	r0, r5
 4275 187a 6546     		mov	r5, ip
 4276 187c 2843     		orrs	r0, r5
 4277 187e 6040     		eors	r0, r4
 4278 1880 8046     		mov	r8, r0
 4279 1882 0B98     		ldr	r0, [sp, #44]
 4280 1884 8146     		mov	r9, r0
 4281 1886 C844     		add	r8, r8, r9
 4282 1888 1398     		ldr	r0, [sp, #76]
 4283 188a 4044     		add	r0, r0, r8
 4284 188c 7B4D     		ldr	r5, .L25+8
ARM GAS  C:\Users\Phuong\AppData\Local\Temp\ccbgGR22.s 			page 81


 4285 188e A846     		mov	r8, r5
 4286 1890 4044     		add	r0, r0, r8
 4287              	.LVL855:
 4288 1892 1825     		movs	r5, #24
 4289 1894 E841     		rors	r0, r0, r5
 4290              	.LVL856:
 4291 1896 109D     		ldr	r5, [sp, #64]
 4292 1898 A946     		mov	r9, r5
 4293 189a 4844     		add	r0, r0, r9
 4294              	.LVL857:
 4295 189c 6546     		mov	r5, ip
 4296 189e DD41     		rors	r5, r5, r3
 4297 18a0 AC46     		mov	ip, r5
 4298              	.LVL858:
 4299 18a2 039D     		ldr	r5, [sp, #12]
 4300              	.LVL859:
 4301 18a4 5540     		eors	r5, r2
 4302 18a6 0B91     		str	r1, [sp, #44]
 4303 18a8 4D40     		eors	r5, r1
 4304 18aa A846     		mov	r8, r5
 4305 18ac 0499     		ldr	r1, [sp, #16]
 4306              	.LVL860:
 4307 18ae 8946     		mov	r9, r1
 4308 18b0 C844     		add	r8, r8, r9
 4309 18b2 C344     		add	fp, fp, r8
 4310              	.LVL861:
 4311 18b4 5D46     		mov	r5, fp
 4312 18b6 F541     		rors	r5, r5, r6
 4313 18b8 AB46     		mov	fp, r5
 4314              	.LVL862:
 4315 18ba D344     		add	fp, fp, r10
 4316              	.LVL863:
 4317 18bc 039D     		ldr	r5, [sp, #12]
 4318 18be DD41     		rors	r5, r5, r3
 4319 18c0 A846     		mov	r8, r5
 4320              	.LVL864:
 277:Source\mbedtls_open\library/ripemd160.c ****     P2( A, B, C, D, E,  2, 13,  8, 14 );
 4321              		.loc 1 277 0
 4322 18c2 6546     		mov	r5, ip
 4323              	.LVL865:
 4324 18c4 ED43     		mvns	r5, r5
 4325 18c6 2543     		orrs	r5, r4
 4326 18c8 4540     		eors	r5, r0
 4327 18ca 0199     		ldr	r1, [sp, #4]
 4328 18cc 8946     		mov	r9, r1
 4329 18ce 4D44     		add	r5, r5, r9
 4330 18d0 1099     		ldr	r1, [sp, #64]
 4331 18d2 8946     		mov	r9, r1
 4332 18d4 4D44     		add	r5, r5, r9
 4333 18d6 6949     		ldr	r1, .L25+8
 4334 18d8 8946     		mov	r9, r1
 4335 18da 4D44     		add	r5, r5, r9
 4336              	.LVL866:
 4337 18dc 1321     		movs	r1, #19
 4338 18de CD41     		rors	r5, r5, r1
 4339              	.LVL867:
 4340 18e0 1199     		ldr	r1, [sp, #68]
ARM GAS  C:\Users\Phuong\AppData\Local\Temp\ccbgGR22.s 			page 82


 4341 18e2 4919     		adds	r1, r1, r5
 4342 18e4 0491     		str	r1, [sp, #16]
 4343              	.LVL868:
 4344 18e6 2500     		movs	r5, r4
 4345 18e8 DD41     		rors	r5, r5, r3
 4346 18ea 2900     		movs	r1, r5
 4347              	.LVL869:
 4348 18ec 5D46     		mov	r5, fp
 4349 18ee 5540     		eors	r5, r2
 4350 18f0 2C00     		movs	r4, r5
 4351 18f2 4546     		mov	r5, r8
 4352 18f4 6C40     		eors	r4, r5
 4353 18f6 079D     		ldr	r5, [sp, #28]
 4354 18f8 A946     		mov	r9, r5
 4355 18fa 4C44     		add	r4, r4, r9
 4356 18fc 5444     		add	r4, r4, r10
 4357              	.LVL870:
 4358 18fe 1225     		movs	r5, #18
 4359 1900 EC41     		rors	r4, r4, r5
 4360              	.LVL871:
 4361 1902 0B9D     		ldr	r5, [sp, #44]
 4362 1904 A946     		mov	r9, r5
 4363 1906 4C44     		add	r4, r4, r9
 4364 1908 0394     		str	r4, [sp, #12]
 4365              	.LVL872:
 4366 190a 1500     		movs	r5, r2
 4367 190c DD41     		rors	r5, r5, r3
 4368 190e AA46     		mov	r10, r5
 4369              	.LVL873:
 278:Source\mbedtls_open\library/ripemd160.c ****     P2( E, A, B, C, D, 10, 12,  7,  6 );
 4370              		.loc 1 278 0
 4371 1910 1091     		str	r1, [sp, #64]
 4372 1912 C943     		mvns	r1, r1
 4373              	.LVL874:
 4374 1914 0143     		orrs	r1, r0
 4375 1916 049C     		ldr	r4, [sp, #16]
 4376              	.LVL875:
 4377 1918 6140     		eors	r1, r4
 4378 191a 099D     		ldr	r5, [sp, #36]
 4379              	.LVL876:
 4380 191c A946     		mov	r9, r5
 4381 191e 4944     		add	r1, r1, r9
 4382 1920 119A     		ldr	r2, [sp, #68]
 4383 1922 5218     		adds	r2, r2, r1
 4384 1924 554D     		ldr	r5, .L25+8
 4385 1926 A946     		mov	r9, r5
 4386 1928 4A44     		add	r2, r2, r9
 4387              	.LVL877:
 4388 192a 1425     		movs	r5, #20
 4389 192c EA41     		rors	r2, r2, r5
 4390              	.LVL878:
 4391 192e 6244     		add	r2, r2, ip
 4392              	.LVL879:
 4393 1930 D841     		rors	r0, r0, r3
 4394              	.LVL880:
 4395 1932 0490     		str	r0, [sp, #16]
 4396              	.LVL881:
ARM GAS  C:\Users\Phuong\AppData\Local\Temp\ccbgGR22.s 			page 83


 4397 1934 5D46     		mov	r5, fp
 4398 1936 0399     		ldr	r1, [sp, #12]
 4399 1938 4D40     		eors	r5, r1
 4400 193a 2900     		movs	r1, r5
 4401 193c 5546     		mov	r5, r10
 4402 193e 6940     		eors	r1, r5
 4403 1940 069D     		ldr	r5, [sp, #24]
 4404 1942 A946     		mov	r9, r5
 4405 1944 4944     		add	r1, r1, r9
 4406 1946 0B9D     		ldr	r5, [sp, #44]
 4407 1948 A946     		mov	r9, r5
 4408 194a 4944     		add	r1, r1, r9
 4409              	.LVL882:
 4410 194c 1A25     		movs	r5, #26
 4411 194e E941     		rors	r1, r1, r5
 4412              	.LVL883:
 4413 1950 0800     		movs	r0, r1
 4414              	.LVL884:
 4415 1952 4044     		add	r0, r0, r8
 4416              	.LVL885:
 4417 1954 5D46     		mov	r5, fp
 4418 1956 DD41     		rors	r5, r5, r3
 4419 1958 2900     		movs	r1, r5
 4420              	.LVL886:
 279:Source\mbedtls_open\library/ripemd160.c ****     P2( D, E, A, B, C, 14,  5,  6,  8 );
 4421              		.loc 1 279 0
 4422 195a 049D     		ldr	r5, [sp, #16]
 4423 195c ED43     		mvns	r5, r5
 4424 195e 2543     		orrs	r5, r4
 4425 1960 5540     		eors	r5, r2
 4426 1962 AB46     		mov	fp, r5
 4427 1964 0D9D     		ldr	r5, [sp, #52]
 4428 1966 A946     		mov	r9, r5
 4429 1968 CB44     		add	fp, fp, r9
 4430 196a DC44     		add	ip, ip, fp
 4431              	.LVL887:
 4432 196c 434D     		ldr	r5, .L25+8
 4433 196e A946     		mov	r9, r5
 4434 1970 CC44     		add	ip, ip, r9
 4435              	.LVL888:
 4436 1972 6546     		mov	r5, ip
 4437 1974 F541     		rors	r5, r5, r6
 4438 1976 AC46     		mov	ip, r5
 4439              	.LVL889:
 4440 1978 109D     		ldr	r5, [sp, #64]
 4441 197a A946     		mov	r9, r5
 4442 197c CC44     		add	ip, ip, r9
 4443              	.LVL890:
 4444 197e 2500     		movs	r5, r4
 4445 1980 DD41     		rors	r5, r5, r3
 4446 1982 AB46     		mov	fp, r5
 4447              	.LVL891:
 4448 1984 039D     		ldr	r5, [sp, #12]
 4449              	.LVL892:
 4450 1986 4540     		eors	r5, r0
 4451 1988 0691     		str	r1, [sp, #24]
 4452 198a 4D40     		eors	r5, r1
ARM GAS  C:\Users\Phuong\AppData\Local\Temp\ccbgGR22.s 			page 84


 4453 198c 0599     		ldr	r1, [sp, #20]
 4454              	.LVL893:
 4455 198e 8946     		mov	r9, r1
 4456 1990 4D44     		add	r5, r5, r9
 4457 1992 4544     		add	r5, r5, r8
 4458              	.LVL894:
 4459 1994 1821     		movs	r1, #24
 4460 1996 CD41     		rors	r5, r5, r1
 4461              	.LVL895:
 4462 1998 2900     		movs	r1, r5
 4463 199a 5144     		add	r1, r1, r10
 4464 199c 0991     		str	r1, [sp, #36]
 4465              	.LVL896:
 4466 199e 039C     		ldr	r4, [sp, #12]
 4467 19a0 DC41     		rors	r4, r4, r3
 4468 19a2 A046     		mov	r8, r4
 4469              	.LVL897:
 280:Source\mbedtls_open\library/ripemd160.c ****     P2( C, D, E, A, B,  1, 12,  2, 13 );
 4470              		.loc 1 280 0
 4471 19a4 5D46     		mov	r5, fp
 4472 19a6 EC43     		mvns	r4, r5
 4473              	.LVL898:
 4474 19a8 1443     		orrs	r4, r2
 4475 19aa 6546     		mov	r5, ip
 4476 19ac 6C40     		eors	r4, r5
 4477 19ae 0099     		ldr	r1, [sp]
 4478              	.LVL899:
 4479 19b0 8946     		mov	r9, r1
 4480 19b2 4C44     		add	r4, r4, r9
 4481 19b4 109D     		ldr	r5, [sp, #64]
 4482 19b6 A946     		mov	r9, r5
 4483 19b8 4C44     		add	r4, r4, r9
 4484 19ba 304D     		ldr	r5, .L25+8
 4485 19bc A946     		mov	r9, r5
 4486 19be 4C44     		add	r4, r4, r9
 4487              	.LVL900:
 4488 19c0 1425     		movs	r5, #20
 4489 19c2 EC41     		rors	r4, r4, r5
 4490              	.LVL901:
 4491 19c4 0499     		ldr	r1, [sp, #16]
 4492 19c6 8946     		mov	r9, r1
 4493              	.LVL902:
 4494 19c8 4C44     		add	r4, r4, r9
 4495              	.LVL903:
 4496 19ca DA41     		rors	r2, r2, r3
 4497              	.LVL904:
 4498 19cc 0092     		str	r2, [sp]
 4499              	.LVL905:
 4500 19ce 0200     		movs	r2, r0
 4501              	.LVL906:
 4502 19d0 0999     		ldr	r1, [sp, #36]
 4503 19d2 4A40     		eors	r2, r1
 4504 19d4 4546     		mov	r5, r8
 4505 19d6 6A40     		eors	r2, r5
 4506 19d8 0199     		ldr	r1, [sp, #4]
 4507 19da 8946     		mov	r9, r1
 4508 19dc 4A44     		add	r2, r2, r9
ARM GAS  C:\Users\Phuong\AppData\Local\Temp\ccbgGR22.s 			page 85


 4509 19de 5244     		add	r2, r2, r10
 4510              	.LVL907:
 4511 19e0 1325     		movs	r5, #19
 4512 19e2 EA41     		rors	r2, r2, r5
 4513              	.LVL908:
 4514 19e4 069D     		ldr	r5, [sp, #24]
 4515 19e6 A946     		mov	r9, r5
 4516 19e8 4A44     		add	r2, r2, r9
 4517              	.LVL909:
 4518 19ea 0100     		movs	r1, r0
 4519 19ec D941     		rors	r1, r1, r3
 4520 19ee 8A46     		mov	r10, r1
 4521              	.LVL910:
 281:Source\mbedtls_open\library/ripemd160.c ****     P2( B, C, D, E, A,  3, 13, 13,  6 );
 4522              		.loc 1 281 0
 4523 19f0 009D     		ldr	r5, [sp]
 4524 19f2 E943     		mvns	r1, r5
 4525              	.LVL911:
 4526 19f4 6546     		mov	r5, ip
 4527 19f6 2943     		orrs	r1, r5
 4528 19f8 6140     		eors	r1, r4
 4529 19fa 029D     		ldr	r5, [sp, #8]
 4530 19fc A946     		mov	r9, r5
 4531 19fe 4944     		add	r1, r1, r9
 4532 1a00 0498     		ldr	r0, [sp, #16]
 4533 1a02 4018     		adds	r0, r0, r1
 4534 1a04 1D49     		ldr	r1, .L25+8
 4535 1a06 8946     		mov	r9, r1
 4536 1a08 4844     		add	r0, r0, r9
 4537              	.LVL912:
 4538 1a0a 1321     		movs	r1, #19
 4539 1a0c C841     		rors	r0, r0, r1
 4540              	.LVL913:
 4541 1a0e 5844     		add	r0, r0, fp
 4542 1a10 0190     		str	r0, [sp, #4]
 4543              	.LVL914:
 4544 1a12 6046     		mov	r0, ip
 4545              	.LVL915:
 4546 1a14 D841     		rors	r0, r0, r3
 4547 1a16 8446     		mov	ip, r0
 4548              	.LVL916:
 4549 1a18 099D     		ldr	r5, [sp, #36]
 4550 1a1a 2800     		movs	r0, r5
 4551              	.LVL917:
 4552 1a1c 5040     		eors	r0, r2
 4553 1a1e 0100     		movs	r1, r0
 4554 1a20 5046     		mov	r0, r10
 4555 1a22 4140     		eors	r1, r0
 4556 1a24 0C98     		ldr	r0, [sp, #48]
 4557 1a26 8146     		mov	r9, r0
 4558 1a28 4944     		add	r1, r1, r9
 4559 1a2a 0698     		ldr	r0, [sp, #24]
 4560 1a2c 8146     		mov	r9, r0
 4561 1a2e 4944     		add	r1, r1, r9
 4562              	.LVL918:
 4563 1a30 1A20     		movs	r0, #26
 4564 1a32 C141     		rors	r1, r1, r0
ARM GAS  C:\Users\Phuong\AppData\Local\Temp\ccbgGR22.s 			page 86


 4565              	.LVL919:
 4566 1a34 4144     		add	r1, r1, r8
 4567              	.LVL920:
 4568 1a36 2800     		movs	r0, r5
 4569 1a38 D841     		rors	r0, r0, r3
 4570 1a3a 0490     		str	r0, [sp, #16]
 4571              	.LVL921:
 282:Source\mbedtls_open\library/ripemd160.c ****     P2( A, B, C, D, E,  8, 14, 14,  5 );
 4572              		.loc 1 282 0
 4573 1a3c 6046     		mov	r0, ip
 4574              	.LVL922:
 4575 1a3e C543     		mvns	r5, r0
 4576 1a40 2543     		orrs	r5, r4
 4577 1a42 0198     		ldr	r0, [sp, #4]
 4578 1a44 4540     		eors	r5, r0
 4579 1a46 0798     		ldr	r0, [sp, #28]
 4580 1a48 8146     		mov	r9, r0
 4581 1a4a 4D44     		add	r5, r5, r9
 4582 1a4c 5D44     		add	r5, r5, fp
 4583 1a4e 0B48     		ldr	r0, .L25+8
 4584 1a50 8146     		mov	r9, r0
 4585 1a52 4D44     		add	r5, r5, r9
 4586              	.LVL923:
 4587 1a54 1220     		movs	r0, #18
 4588 1a56 C541     		rors	r5, r5, r0
 4589              	.LVL924:
 4590 1a58 0098     		ldr	r0, [sp]
 4591 1a5a 8146     		mov	r9, r0
 4592              	.LVL925:
 4593 1a5c 4D44     		add	r5, r5, r9
 4594              	.LVL926:
 4595 1a5e DC41     		rors	r4, r4, r3
 4596              	.LVL927:
 4597 1a60 A346     		mov	fp, r4
 4598              	.LVL928:
 4599 1a62 1400     		movs	r4, r2
 4600              	.LVL929:
 4601 1a64 4C40     		eors	r4, r1
 4602 1a66 0498     		ldr	r0, [sp, #16]
 4603 1a68 4440     		eors	r4, r0
 4604 1a6a 0D98     		ldr	r0, [sp, #52]
 4605 1a6c 8146     		mov	r9, r0
 4606 1a6e 4C44     		add	r4, r4, r9
 4607 1a70 06E0     		b	.L26
 4608              	.L27:
 4609 1a72 C046     		.align	2
 4610              	.L25:
 4611 1a74 E9766D7A 		.word	2053994217
 4612 1a78 DCBC1B8F 		.word	-1894007588
 4613 1a7c 4EFD53A9 		.word	-1454113458
 4614              	.L26:
 4615 1a80 4444     		add	r4, r4, r8
 4616              	.LVL930:
 4617 1a82 F441     		rors	r4, r4, r6
 4618              	.LVL931:
 4619 1a84 5444     		add	r4, r4, r10
 4620 1a86 0394     		str	r4, [sp, #12]
ARM GAS  C:\Users\Phuong\AppData\Local\Temp\ccbgGR22.s 			page 87


 4621              	.LVL932:
 4622 1a88 1400     		movs	r4, r2
 4623              	.LVL933:
 4624 1a8a DC41     		rors	r4, r4, r3
 4625 1a8c A046     		mov	r8, r4
 4626              	.LVL934:
 283:Source\mbedtls_open\library/ripemd160.c ****     P2( E, A, B, C, D, 11, 11,  0, 15 );
 4627              		.loc 1 283 0
 4628 1a8e 5C46     		mov	r4, fp
 4629              	.LVL935:
 4630 1a90 E243     		mvns	r2, r4
 4631 1a92 0198     		ldr	r0, [sp, #4]
 4632 1a94 0243     		orrs	r2, r0
 4633 1a96 6A40     		eors	r2, r5
 4634 1a98 0A98     		ldr	r0, [sp, #40]
 4635 1a9a 8146     		mov	r9, r0
 4636 1a9c 4A44     		add	r2, r2, r9
 4637 1a9e 009C     		ldr	r4, [sp]
 4638 1aa0 A146     		mov	r9, r4
 4639 1aa2 4A44     		add	r2, r2, r9
 4640 1aa4 564C     		ldr	r4, .L28
 4641 1aa6 A146     		mov	r9, r4
 4642 1aa8 4A44     		add	r2, r2, r9
 4643              	.LVL936:
 4644 1aaa 1524     		movs	r4, #21
 4645 1aac E241     		rors	r2, r2, r4
 4646              	.LVL937:
 4647 1aae 1400     		movs	r4, r2
 4648 1ab0 6444     		add	r4, r4, ip
 4649 1ab2 0694     		str	r4, [sp, #24]
 4650              	.LVL938:
 4651 1ab4 019C     		ldr	r4, [sp, #4]
 4652              	.LVL939:
 4653 1ab6 DC41     		rors	r4, r4, r3
 4654 1ab8 0094     		str	r4, [sp]
 4655              	.LVL940:
 4656 1aba 0C00     		movs	r4, r1
 4657              	.LVL941:
 4658 1abc 039A     		ldr	r2, [sp, #12]
 4659 1abe 5440     		eors	r4, r2
 4660 1ac0 2000     		movs	r0, r4
 4661 1ac2 4446     		mov	r4, r8
 4662 1ac4 6040     		eors	r0, r4
 4663 1ac6 0F9C     		ldr	r4, [sp, #60]
 4664 1ac8 A146     		mov	r9, r4
 4665 1aca 4844     		add	r0, r0, r9
 4666 1acc 5044     		add	r0, r0, r10
 4667              	.LVL942:
 4668 1ace 1124     		movs	r4, #17
 4669 1ad0 E041     		rors	r0, r0, r4
 4670              	.LVL943:
 4671 1ad2 049A     		ldr	r2, [sp, #16]
 4672 1ad4 9146     		mov	r9, r2
 4673 1ad6 4844     		add	r0, r0, r9
 4674              	.LVL944:
 4675 1ad8 0C00     		movs	r4, r1
 4676 1ada DC41     		rors	r4, r4, r3
ARM GAS  C:\Users\Phuong\AppData\Local\Temp\ccbgGR22.s 			page 88


 4677 1adc 0194     		str	r4, [sp, #4]
 4678              	.LVL945:
 284:Source\mbedtls_open\library/ripemd160.c ****     P2( D, E, A, B, C,  6,  8,  3, 13 );
 4679              		.loc 1 284 0
 4680 1ade 009C     		ldr	r4, [sp]
 4681              	.LVL946:
 4682 1ae0 E143     		mvns	r1, r4
 4683 1ae2 2943     		orrs	r1, r5
 4684 1ae4 069C     		ldr	r4, [sp, #24]
 4685 1ae6 6140     		eors	r1, r4
 4686 1ae8 059C     		ldr	r4, [sp, #20]
 4687 1aea A146     		mov	r9, r4
 4688 1aec 4944     		add	r1, r1, r9
 4689 1aee 6144     		add	r1, r1, ip
 4690 1af0 434C     		ldr	r4, .L28
 4691 1af2 A446     		mov	ip, r4
 4692              	.LVL947:
 4693 1af4 6144     		add	r1, r1, ip
 4694              	.LVL948:
 4695 1af6 1824     		movs	r4, #24
 4696 1af8 E141     		rors	r1, r1, r4
 4697              	.LVL949:
 4698 1afa 5944     		add	r1, r1, fp
 4699              	.LVL950:
 4700 1afc DD41     		rors	r5, r5, r3
 4701              	.LVL951:
 4702 1afe 0495     		str	r5, [sp, #16]
 4703              	.LVL952:
 4704 1b00 039C     		ldr	r4, [sp, #12]
 4705 1b02 4440     		eors	r4, r0
 4706 1b04 2500     		movs	r5, r4
 4707              	.LVL953:
 4708 1b06 019C     		ldr	r4, [sp, #4]
 4709 1b08 6540     		eors	r5, r4
 4710 1b0a AC46     		mov	ip, r5
 4711 1b0c 029C     		ldr	r4, [sp, #8]
 4712 1b0e A146     		mov	r9, r4
 4713 1b10 CC44     		add	ip, ip, r9
 4714 1b12 9146     		mov	r9, r2
 4715 1b14 CC44     		add	ip, ip, r9
 4716              	.LVL954:
 4717 1b16 6546     		mov	r5, ip
 4718 1b18 1322     		movs	r2, #19
 4719 1b1a D541     		rors	r5, r5, r2
 4720 1b1c AC46     		mov	ip, r5
 4721              	.LVL955:
 4722 1b1e C444     		add	ip, ip, r8
 4723              	.LVL956:
 4724 1b20 039D     		ldr	r5, [sp, #12]
 4725 1b22 DD41     		rors	r5, r5, r3
 4726 1b24 AA46     		mov	r10, r5
 4727              	.LVL957:
 285:Source\mbedtls_open\library/ripemd160.c ****     P2( C, D, E, A, B, 15,  5,  9, 11 );
 4728              		.loc 1 285 0
 4729 1b26 049A     		ldr	r2, [sp, #16]
 4730 1b28 D443     		mvns	r4, r2
 4731 1b2a 069D     		ldr	r5, [sp, #24]
ARM GAS  C:\Users\Phuong\AppData\Local\Temp\ccbgGR22.s 			page 89


 4732              	.LVL958:
 4733 1b2c 2C43     		orrs	r4, r5
 4734 1b2e 4C40     		eors	r4, r1
 4735 1b30 0E9A     		ldr	r2, [sp, #56]
 4736 1b32 9146     		mov	r9, r2
 4737 1b34 4C44     		add	r4, r4, r9
 4738 1b36 5C44     		add	r4, r4, fp
 4739 1b38 314A     		ldr	r2, .L28
 4740 1b3a 9146     		mov	r9, r2
 4741 1b3c 4C44     		add	r4, r4, r9
 4742              	.LVL959:
 4743 1b3e F441     		rors	r4, r4, r6
 4744              	.LVL960:
 4745 1b40 009E     		ldr	r6, [sp]
 4746 1b42 B146     		mov	r9, r6
 4747 1b44 4C44     		add	r4, r4, r9
 4748              	.LVL961:
 4749 1b46 2E00     		movs	r6, r5
 4750 1b48 DE41     		rors	r6, r6, r3
 4751 1b4a 3200     		movs	r2, r6
 4752              	.LVL962:
 4753 1b4c 6546     		mov	r5, ip
 4754 1b4e 4540     		eors	r5, r0
 4755 1b50 5646     		mov	r6, r10
 4756 1b52 7540     		eors	r5, r6
 4757 1b54 AB46     		mov	fp, r5
 4758 1b56 089E     		ldr	r6, [sp, #32]
 4759 1b58 B146     		mov	r9, r6
 4760 1b5a CB44     		add	fp, fp, r9
 4761 1b5c D844     		add	r8, r8, fp
 4762              	.LVL963:
 4763 1b5e 4546     		mov	r5, r8
 4764 1b60 1526     		movs	r6, #21
 4765 1b62 F541     		rors	r5, r5, r6
 4766 1b64 A846     		mov	r8, r5
 4767              	.LVL964:
 4768 1b66 019E     		ldr	r6, [sp, #4]
 4769 1b68 B146     		mov	r9, r6
 4770 1b6a C844     		add	r8, r8, r9
 4771              	.LVL965:
 4772 1b6c 0500     		movs	r5, r0
 4773 1b6e DD41     		rors	r5, r5, r3
 4774 1b70 AB46     		mov	fp, r5
 4775              	.LVL966:
 286:Source\mbedtls_open\library/ripemd160.c ****     P2( B, C, D, E, A, 13,  6, 11, 11 );
 4776              		.loc 1 286 0
 4777 1b72 D043     		mvns	r0, r2
 4778 1b74 0843     		orrs	r0, r1
 4779 1b76 6040     		eors	r0, r4
 4780 1b78 0C9E     		ldr	r6, [sp, #48]
 4781 1b7a B146     		mov	r9, r6
 4782 1b7c 4844     		add	r0, r0, r9
 4783 1b7e 009E     		ldr	r6, [sp]
 4784 1b80 B146     		mov	r9, r6
 4785 1b82 4844     		add	r0, r0, r9
 4786 1b84 1E4D     		ldr	r5, .L28
 4787              	.LVL967:
ARM GAS  C:\Users\Phuong\AppData\Local\Temp\ccbgGR22.s 			page 90


 4788 1b86 A946     		mov	r9, r5
 4789 1b88 4844     		add	r0, r0, r9
 4790              	.LVL968:
 4791 1b8a 1A25     		movs	r5, #26
 4792 1b8c E841     		rors	r0, r0, r5
 4793              	.LVL969:
 4794 1b8e 049D     		ldr	r5, [sp, #16]
 4795 1b90 A946     		mov	r9, r5
 4796              	.LVL970:
 4797 1b92 4844     		add	r0, r0, r9
 4798              	.LVL971:
 4799 1b94 D941     		rors	r1, r1, r3
 4800              	.LVL972:
 4801 1b96 0091     		str	r1, [sp]
 4802              	.LVL973:
 4803 1b98 6146     		mov	r1, ip
 4804              	.LVL974:
 4805 1b9a 4546     		mov	r5, r8
 4806 1b9c 6940     		eors	r1, r5
 4807 1b9e 5D46     		mov	r5, fp
 4808 1ba0 6940     		eors	r1, r5
 4809 1ba2 0A9E     		ldr	r6, [sp, #40]
 4810 1ba4 B146     		mov	r9, r6
 4811 1ba6 4944     		add	r1, r1, r9
 4812 1ba8 019E     		ldr	r6, [sp, #4]
 4813 1baa B146     		mov	r9, r6
 4814 1bac 4944     		add	r1, r1, r9
 4815              	.LVL975:
 4816 1bae 1525     		movs	r5, #21
 4817 1bb0 E941     		rors	r1, r1, r5
 4818              	.LVL976:
 4819 1bb2 5144     		add	r1, r1, r10
 4820              	.LVL977:
 4821 1bb4 6546     		mov	r5, ip
 4822 1bb6 DD41     		rors	r5, r5, r3
 4823 1bb8 2B00     		movs	r3, r5
 4824              	.LVL978:
 287:Source\mbedtls_open\library/ripemd160.c **** #undef F
 288:Source\mbedtls_open\library/ripemd160.c **** #undef K
 289:Source\mbedtls_open\library/ripemd160.c **** #undef Fp
 290:Source\mbedtls_open\library/ripemd160.c **** #undef Kp
 291:Source\mbedtls_open\library/ripemd160.c **** 
 292:Source\mbedtls_open\library/ripemd160.c ****     C             = ctx->state[1] + C + Dp;
 4825              		.loc 1 292 0
 4826 1bba FD68     		ldr	r5, [r7, #12]
 4827 1bbc AC46     		mov	ip, r5
 4828 1bbe 6444     		add	r4, r4, ip
 4829              	.LVL979:
 4830 1bc0 1B19     		adds	r3, r3, r4
 4831              	.LVL980:
 293:Source\mbedtls_open\library/ripemd160.c ****     ctx->state[1] = ctx->state[2] + D + Ep;
 4832              		.loc 1 293 0
 4833 1bc2 3C69     		ldr	r4, [r7, #16]
 4834 1bc4 009E     		ldr	r6, [sp]
 4835 1bc6 B446     		mov	ip, r6
 4836 1bc8 6444     		add	r4, r4, ip
 4837 1bca 2600     		movs	r6, r4
ARM GAS  C:\Users\Phuong\AppData\Local\Temp\ccbgGR22.s 			page 91


 4838 1bcc 5E44     		add	r6, r6, fp
 4839 1bce FE60     		str	r6, [r7, #12]
 294:Source\mbedtls_open\library/ripemd160.c ****     ctx->state[2] = ctx->state[3] + E + Ap;
 4840              		.loc 1 294 0
 4841 1bd0 7C69     		ldr	r4, [r7, #20]
 4842 1bd2 A446     		mov	ip, r4
 4843 1bd4 6244     		add	r2, r2, ip
 4844              	.LVL981:
 4845 1bd6 5244     		add	r2, r2, r10
 4846 1bd8 3A61     		str	r2, [r7, #16]
 295:Source\mbedtls_open\library/ripemd160.c ****     ctx->state[3] = ctx->state[4] + A + Bp;
 4847              		.loc 1 295 0
 4848 1bda BA69     		ldr	r2, [r7, #24]
 4849 1bdc 9446     		mov	ip, r2
 4850 1bde 049A     		ldr	r2, [sp, #16]
 4851 1be0 6244     		add	r2, r2, ip
 4852 1be2 8918     		adds	r1, r1, r2
 4853              	.LVL982:
 4854 1be4 7961     		str	r1, [r7, #20]
 296:Source\mbedtls_open\library/ripemd160.c ****     ctx->state[4] = ctx->state[0] + B + Cp;
 4855              		.loc 1 296 0
 4856 1be6 BA68     		ldr	r2, [r7, #8]
 4857 1be8 1218     		adds	r2, r2, r0
 4858 1bea 4244     		add	r2, r2, r8
 4859 1bec BA61     		str	r2, [r7, #24]
 297:Source\mbedtls_open\library/ripemd160.c ****     ctx->state[0] = C;
 4860              		.loc 1 297 0
 4861 1bee BB60     		str	r3, [r7, #8]
 298:Source\mbedtls_open\library/ripemd160.c **** 
 299:Source\mbedtls_open\library/ripemd160.c ****     return( 0 );
 300:Source\mbedtls_open\library/ripemd160.c **** }
 4862              		.loc 1 300 0
 4863 1bf0 0020     		movs	r0, #0
 4864              	.LVL983:
 4865 1bf2 17B0     		add	sp, sp, #92
 4866              	.LVL984:
 4867              		@ sp needed
 4868              	.LVL985:
 4869              	.LVL986:
 4870              	.LVL987:
 4871              	.LVL988:
 4872 1bf4 3CBC     		pop	{r2, r3, r4, r5}
 4873 1bf6 9046     		mov	r8, r2
 4874 1bf8 9946     		mov	r9, r3
 4875 1bfa A246     		mov	r10, r4
 4876 1bfc AB46     		mov	fp, r5
 4877 1bfe F0BD     		pop	{r4, r5, r6, r7, pc}
 4878              	.L29:
 4879              		.align	2
 4880              	.L28:
 4881 1c00 4EFD53A9 		.word	-1454113458
 4882              		.cfi_endproc
 4883              	.LFE6:
 4884              		.size	mbedtls_internal_ripemd160_process, .-mbedtls_internal_ripemd160_process
 4885              		.section	.text.mbedtls_ripemd160_process,"ax",%progbits
 4886              		.align	2
 4887              		.global	mbedtls_ripemd160_process
ARM GAS  C:\Users\Phuong\AppData\Local\Temp\ccbgGR22.s 			page 92


 4888              		.code	16
 4889              		.thumb_func
 4890              		.type	mbedtls_ripemd160_process, %function
 4891              	mbedtls_ripemd160_process:
 4892              	.LFB7:
 301:Source\mbedtls_open\library/ripemd160.c **** 
 302:Source\mbedtls_open\library/ripemd160.c **** #if !defined(MBEDTLS_DEPRECATED_REMOVED)
 303:Source\mbedtls_open\library/ripemd160.c **** void mbedtls_ripemd160_process( mbedtls_ripemd160_context *ctx,
 304:Source\mbedtls_open\library/ripemd160.c ****                                 const unsigned char data[64] )
 305:Source\mbedtls_open\library/ripemd160.c **** {
 4893              		.loc 1 305 0
 4894              		.cfi_startproc
 4895              		@ args = 0, pretend = 0, frame = 0
 4896              		@ frame_needed = 0, uses_anonymous_args = 0
 4897              	.LVL989:
 4898 0000 10B5     		push	{r4, lr}
 4899              		.cfi_def_cfa_offset 8
 4900              		.cfi_offset 4, -8
 4901              		.cfi_offset 14, -4
 306:Source\mbedtls_open\library/ripemd160.c ****     mbedtls_internal_ripemd160_process( ctx, data );
 4902              		.loc 1 306 0
 4903 0002 FFF7FEFF 		bl	mbedtls_internal_ripemd160_process
 4904              	.LVL990:
 307:Source\mbedtls_open\library/ripemd160.c **** }
 4905              		.loc 1 307 0
 4906              		@ sp needed
 4907 0006 10BD     		pop	{r4, pc}
 4908              		.cfi_endproc
 4909              	.LFE7:
 4910              		.size	mbedtls_ripemd160_process, .-mbedtls_ripemd160_process
 4911              		.section	.text.mbedtls_ripemd160_update_ret,"ax",%progbits
 4912              		.align	2
 4913              		.global	mbedtls_ripemd160_update_ret
 4914              		.code	16
 4915              		.thumb_func
 4916              		.type	mbedtls_ripemd160_update_ret, %function
 4917              	mbedtls_ripemd160_update_ret:
 4918              	.LFB8:
 308:Source\mbedtls_open\library/ripemd160.c **** #endif
 309:Source\mbedtls_open\library/ripemd160.c **** #endif /* !MBEDTLS_RIPEMD160_PROCESS_ALT */
 310:Source\mbedtls_open\library/ripemd160.c **** 
 311:Source\mbedtls_open\library/ripemd160.c **** /*
 312:Source\mbedtls_open\library/ripemd160.c ****  * RIPEMD-160 process buffer
 313:Source\mbedtls_open\library/ripemd160.c ****  */
 314:Source\mbedtls_open\library/ripemd160.c **** int mbedtls_ripemd160_update_ret( mbedtls_ripemd160_context *ctx,
 315:Source\mbedtls_open\library/ripemd160.c ****                                   const unsigned char *input,
 316:Source\mbedtls_open\library/ripemd160.c ****                                   size_t ilen )
 317:Source\mbedtls_open\library/ripemd160.c **** {
 4919              		.loc 1 317 0
 4920              		.cfi_startproc
 4921              		@ args = 0, pretend = 0, frame = 0
 4922              		@ frame_needed = 0, uses_anonymous_args = 0
 4923              	.LVL991:
 4924 0000 F8B5     		push	{r3, r4, r5, r6, r7, lr}
 4925              		.cfi_def_cfa_offset 24
 4926              		.cfi_offset 3, -24
 4927              		.cfi_offset 4, -20
ARM GAS  C:\Users\Phuong\AppData\Local\Temp\ccbgGR22.s 			page 93


 4928              		.cfi_offset 5, -16
 4929              		.cfi_offset 6, -12
 4930              		.cfi_offset 7, -8
 4931              		.cfi_offset 14, -4
 4932 0002 4F46     		mov	r7, r9
 4933 0004 4646     		mov	r6, r8
 4934 0006 C0B4     		push	{r6, r7}
 4935              		.cfi_def_cfa_offset 32
 4936              		.cfi_offset 8, -32
 4937              		.cfi_offset 9, -28
 4938 0008 0600     		movs	r6, r0
 4939 000a 0D00     		movs	r5, r1
 4940 000c 141E     		subs	r4, r2, #0
 318:Source\mbedtls_open\library/ripemd160.c ****     int ret;
 319:Source\mbedtls_open\library/ripemd160.c ****     size_t fill;
 320:Source\mbedtls_open\library/ripemd160.c ****     uint32_t left;
 321:Source\mbedtls_open\library/ripemd160.c **** 
 322:Source\mbedtls_open\library/ripemd160.c ****     if( ilen == 0 )
 4941              		.loc 1 322 0
 4942 000e 38D0     		beq	.L37
 323:Source\mbedtls_open\library/ripemd160.c ****         return( 0 );
 324:Source\mbedtls_open\library/ripemd160.c **** 
 325:Source\mbedtls_open\library/ripemd160.c ****     left = ctx->total[0] & 0x3F;
 4943              		.loc 1 325 0
 4944 0010 0368     		ldr	r3, [r0]
 4945 0012 3F27     		movs	r7, #63
 4946 0014 1F40     		ands	r7, r3
 4947              	.LVL992:
 326:Source\mbedtls_open\library/ripemd160.c ****     fill = 64 - left;
 4948              		.loc 1 326 0
 4949 0016 4022     		movs	r2, #64
 4950              	.LVL993:
 4951 0018 D21B     		subs	r2, r2, r7
 4952 001a 9046     		mov	r8, r2
 4953              	.LVL994:
 327:Source\mbedtls_open\library/ripemd160.c **** 
 328:Source\mbedtls_open\library/ripemd160.c ****     ctx->total[0] += (uint32_t) ilen;
 4954              		.loc 1 328 0
 4955 001c E318     		adds	r3, r4, r3
 4956 001e 0360     		str	r3, [r0]
 329:Source\mbedtls_open\library/ripemd160.c ****     ctx->total[0] &= 0xFFFFFFFF;
 330:Source\mbedtls_open\library/ripemd160.c **** 
 331:Source\mbedtls_open\library/ripemd160.c ****     if( ctx->total[0] < (uint32_t) ilen )
 4957              		.loc 1 331 0
 4958 0020 9C42     		cmp	r4, r3
 4959 0022 02D9     		bls	.L33
 332:Source\mbedtls_open\library/ripemd160.c ****         ctx->total[1]++;
 4960              		.loc 1 332 0
 4961 0024 4368     		ldr	r3, [r0, #4]
 4962 0026 0133     		adds	r3, r3, #1
 4963 0028 4360     		str	r3, [r0, #4]
 4964              	.L33:
 333:Source\mbedtls_open\library/ripemd160.c **** 
 334:Source\mbedtls_open\library/ripemd160.c ****     if( left && ilen >= fill )
 4965              		.loc 1 334 0
 4966 002a 002F     		cmp	r7, #0
 4967 002c 1DD0     		beq	.L35
ARM GAS  C:\Users\Phuong\AppData\Local\Temp\ccbgGR22.s 			page 94


 4968              		.loc 1 334 0 is_stmt 0 discriminator 1
 4969 002e 4445     		cmp	r4, r8
 4970 0030 1BD3     		bcc	.L35
 335:Source\mbedtls_open\library/ripemd160.c ****     {
 336:Source\mbedtls_open\library/ripemd160.c ****         memcpy( (void *) (ctx->buffer + left), input, fill );
 4971              		.loc 1 336 0 is_stmt 1
 4972 0032 1C23     		movs	r3, #28
 4973 0034 9946     		mov	r9, r3
 4974 0036 B144     		add	r9, r9, r6
 4975 0038 3800     		movs	r0, r7
 4976              	.LVL995:
 4977 003a 4844     		add	r0, r0, r9
 4978 003c 4246     		mov	r2, r8
 4979              	.LVL996:
 4980 003e 2900     		movs	r1, r5
 4981              	.LVL997:
 4982 0040 FFF7FEFF 		bl	memcpy
 4983              	.LVL998:
 337:Source\mbedtls_open\library/ripemd160.c **** 
 338:Source\mbedtls_open\library/ripemd160.c ****         if( ( ret = mbedtls_internal_ripemd160_process( ctx, ctx->buffer ) ) != 0 )
 4984              		.loc 1 338 0
 4985 0044 4946     		mov	r1, r9
 4986 0046 3000     		movs	r0, r6
 4987 0048 FFF7FEFF 		bl	mbedtls_internal_ripemd160_process
 4988              	.LVL999:
 4989 004c 0028     		cmp	r0, #0
 4990 004e 1BD1     		bne	.L32
 339:Source\mbedtls_open\library/ripemd160.c ****             return( ret );
 340:Source\mbedtls_open\library/ripemd160.c **** 
 341:Source\mbedtls_open\library/ripemd160.c ****         input += fill;
 4991              		.loc 1 341 0
 4992 0050 4544     		add	r5, r5, r8
 4993              	.LVL1000:
 342:Source\mbedtls_open\library/ripemd160.c ****         ilen  -= fill;
 4994              		.loc 1 342 0
 4995 0052 4346     		mov	r3, r8
 4996 0054 E41A     		subs	r4, r4, r3
 4997              	.LVL1001:
 343:Source\mbedtls_open\library/ripemd160.c ****         left = 0;
 4998              		.loc 1 343 0
 4999 0056 0027     		movs	r7, #0
 5000 0058 07E0     		b	.L35
 5001              	.LVL1002:
 5002              	.L36:
 344:Source\mbedtls_open\library/ripemd160.c ****     }
 345:Source\mbedtls_open\library/ripemd160.c **** 
 346:Source\mbedtls_open\library/ripemd160.c ****     while( ilen >= 64 )
 347:Source\mbedtls_open\library/ripemd160.c ****     {
 348:Source\mbedtls_open\library/ripemd160.c ****         if( ( ret = mbedtls_internal_ripemd160_process( ctx, input ) ) != 0 )
 5003              		.loc 1 348 0
 5004 005a 2900     		movs	r1, r5
 5005 005c 3000     		movs	r0, r6
 5006 005e FFF7FEFF 		bl	mbedtls_internal_ripemd160_process
 5007              	.LVL1003:
 5008 0062 0028     		cmp	r0, #0
 5009 0064 10D1     		bne	.L32
 349:Source\mbedtls_open\library/ripemd160.c ****             return( ret );
ARM GAS  C:\Users\Phuong\AppData\Local\Temp\ccbgGR22.s 			page 95


 350:Source\mbedtls_open\library/ripemd160.c **** 
 351:Source\mbedtls_open\library/ripemd160.c ****         input += 64;
 5010              		.loc 1 351 0
 5011 0066 4035     		adds	r5, r5, #64
 5012              	.LVL1004:
 352:Source\mbedtls_open\library/ripemd160.c ****         ilen  -= 64;
 5013              		.loc 1 352 0
 5014 0068 403C     		subs	r4, r4, #64
 5015              	.LVL1005:
 5016              	.L35:
 346:Source\mbedtls_open\library/ripemd160.c ****     {
 5017              		.loc 1 346 0
 5018 006a 3F2C     		cmp	r4, #63
 5019 006c F5D8     		bhi	.L36
 353:Source\mbedtls_open\library/ripemd160.c ****     }
 354:Source\mbedtls_open\library/ripemd160.c **** 
 355:Source\mbedtls_open\library/ripemd160.c ****     if( ilen > 0 )
 5020              		.loc 1 355 0
 5021 006e 002C     		cmp	r4, #0
 5022 0070 09D0     		beq	.L40
 356:Source\mbedtls_open\library/ripemd160.c ****     {
 357:Source\mbedtls_open\library/ripemd160.c ****         memcpy( (void *) (ctx->buffer + left), input, ilen );
 5023              		.loc 1 357 0
 5024 0072 1C36     		adds	r6, r6, #28
 5025              	.LVL1006:
 5026 0074 F019     		adds	r0, r6, r7
 5027 0076 2200     		movs	r2, r4
 5028 0078 2900     		movs	r1, r5
 5029 007a FFF7FEFF 		bl	memcpy
 5030              	.LVL1007:
 358:Source\mbedtls_open\library/ripemd160.c ****     }
 359:Source\mbedtls_open\library/ripemd160.c **** 
 360:Source\mbedtls_open\library/ripemd160.c ****     return( 0 );
 5031              		.loc 1 360 0
 5032 007e 0020     		movs	r0, #0
 5033 0080 02E0     		b	.L32
 5034              	.LVL1008:
 5035              	.L37:
 323:Source\mbedtls_open\library/ripemd160.c **** 
 5036              		.loc 1 323 0
 5037 0082 0020     		movs	r0, #0
 5038              	.LVL1009:
 5039 0084 00E0     		b	.L32
 5040              	.LVL1010:
 5041              	.L40:
 5042              		.loc 1 360 0
 5043 0086 0020     		movs	r0, #0
 5044              	.LVL1011:
 5045              	.L32:
 361:Source\mbedtls_open\library/ripemd160.c **** }
 5046              		.loc 1 361 0
 5047              		@ sp needed
 5048              	.LVL1012:
 5049              	.LVL1013:
 5050 0088 0CBC     		pop	{r2, r3}
 5051 008a 9046     		mov	r8, r2
 5052 008c 9946     		mov	r9, r3
ARM GAS  C:\Users\Phuong\AppData\Local\Temp\ccbgGR22.s 			page 96


 5053 008e F8BD     		pop	{r3, r4, r5, r6, r7, pc}
 5054              		.cfi_endproc
 5055              	.LFE8:
 5056              		.size	mbedtls_ripemd160_update_ret, .-mbedtls_ripemd160_update_ret
 5057              		.section	.text.mbedtls_ripemd160_update,"ax",%progbits
 5058              		.align	2
 5059              		.global	mbedtls_ripemd160_update
 5060              		.code	16
 5061              		.thumb_func
 5062              		.type	mbedtls_ripemd160_update, %function
 5063              	mbedtls_ripemd160_update:
 5064              	.LFB9:
 362:Source\mbedtls_open\library/ripemd160.c **** 
 363:Source\mbedtls_open\library/ripemd160.c **** #if !defined(MBEDTLS_DEPRECATED_REMOVED)
 364:Source\mbedtls_open\library/ripemd160.c **** void mbedtls_ripemd160_update( mbedtls_ripemd160_context *ctx,
 365:Source\mbedtls_open\library/ripemd160.c ****                                const unsigned char *input,
 366:Source\mbedtls_open\library/ripemd160.c ****                                size_t ilen )
 367:Source\mbedtls_open\library/ripemd160.c **** {
 5065              		.loc 1 367 0
 5066              		.cfi_startproc
 5067              		@ args = 0, pretend = 0, frame = 0
 5068              		@ frame_needed = 0, uses_anonymous_args = 0
 5069              	.LVL1014:
 5070 0000 10B5     		push	{r4, lr}
 5071              		.cfi_def_cfa_offset 8
 5072              		.cfi_offset 4, -8
 5073              		.cfi_offset 14, -4
 368:Source\mbedtls_open\library/ripemd160.c ****     mbedtls_ripemd160_update_ret( ctx, input, ilen );
 5074              		.loc 1 368 0
 5075 0002 FFF7FEFF 		bl	mbedtls_ripemd160_update_ret
 5076              	.LVL1015:
 369:Source\mbedtls_open\library/ripemd160.c **** }
 5077              		.loc 1 369 0
 5078              		@ sp needed
 5079 0006 10BD     		pop	{r4, pc}
 5080              		.cfi_endproc
 5081              	.LFE9:
 5082              		.size	mbedtls_ripemd160_update, .-mbedtls_ripemd160_update
 5083              		.section	.text.mbedtls_ripemd160_finish_ret,"ax",%progbits
 5084              		.align	2
 5085              		.global	mbedtls_ripemd160_finish_ret
 5086              		.code	16
 5087              		.thumb_func
 5088              		.type	mbedtls_ripemd160_finish_ret, %function
 5089              	mbedtls_ripemd160_finish_ret:
 5090              	.LFB10:
 370:Source\mbedtls_open\library/ripemd160.c **** #endif
 371:Source\mbedtls_open\library/ripemd160.c **** 
 372:Source\mbedtls_open\library/ripemd160.c **** static const unsigned char ripemd160_padding[64] =
 373:Source\mbedtls_open\library/ripemd160.c **** {
 374:Source\mbedtls_open\library/ripemd160.c ****  0x80, 0, 0, 0, 0, 0, 0, 0, 0, 0, 0, 0, 0, 0, 0, 0,
 375:Source\mbedtls_open\library/ripemd160.c ****     0, 0, 0, 0, 0, 0, 0, 0, 0, 0, 0, 0, 0, 0, 0, 0,
 376:Source\mbedtls_open\library/ripemd160.c ****     0, 0, 0, 0, 0, 0, 0, 0, 0, 0, 0, 0, 0, 0, 0, 0,
 377:Source\mbedtls_open\library/ripemd160.c ****     0, 0, 0, 0, 0, 0, 0, 0, 0, 0, 0, 0, 0, 0, 0, 0
 378:Source\mbedtls_open\library/ripemd160.c **** };
 379:Source\mbedtls_open\library/ripemd160.c **** 
 380:Source\mbedtls_open\library/ripemd160.c **** /*
ARM GAS  C:\Users\Phuong\AppData\Local\Temp\ccbgGR22.s 			page 97


 381:Source\mbedtls_open\library/ripemd160.c ****  * RIPEMD-160 final digest
 382:Source\mbedtls_open\library/ripemd160.c ****  */
 383:Source\mbedtls_open\library/ripemd160.c **** int mbedtls_ripemd160_finish_ret( mbedtls_ripemd160_context *ctx,
 384:Source\mbedtls_open\library/ripemd160.c ****                                   unsigned char output[20] )
 385:Source\mbedtls_open\library/ripemd160.c **** {
 5091              		.loc 1 385 0
 5092              		.cfi_startproc
 5093              		@ args = 0, pretend = 0, frame = 8
 5094              		@ frame_needed = 0, uses_anonymous_args = 0
 5095              	.LVL1016:
 5096 0000 70B5     		push	{r4, r5, r6, lr}
 5097              		.cfi_def_cfa_offset 16
 5098              		.cfi_offset 4, -16
 5099              		.cfi_offset 5, -12
 5100              		.cfi_offset 6, -8
 5101              		.cfi_offset 14, -4
 5102 0002 82B0     		sub	sp, sp, #8
 5103              		.cfi_def_cfa_offset 24
 5104 0004 0400     		movs	r4, r0
 5105 0006 0D00     		movs	r5, r1
 386:Source\mbedtls_open\library/ripemd160.c ****     int ret;
 387:Source\mbedtls_open\library/ripemd160.c ****     uint32_t last, padn;
 388:Source\mbedtls_open\library/ripemd160.c ****     uint32_t high, low;
 389:Source\mbedtls_open\library/ripemd160.c ****     unsigned char msglen[8];
 390:Source\mbedtls_open\library/ripemd160.c **** 
 391:Source\mbedtls_open\library/ripemd160.c ****     high = ( ctx->total[0] >> 29 )
 5106              		.loc 1 391 0
 5107 0008 0168     		ldr	r1, [r0]
 5108              	.LVL1017:
 5109 000a 4A0F     		lsrs	r2, r1, #29
 392:Source\mbedtls_open\library/ripemd160.c ****          | ( ctx->total[1] <<  3 );
 5110              		.loc 1 392 0
 5111 000c 4368     		ldr	r3, [r0, #4]
 5112 000e DB00     		lsls	r3, r3, #3
 391:Source\mbedtls_open\library/ripemd160.c ****          | ( ctx->total[1] <<  3 );
 5113              		.loc 1 391 0
 5114 0010 1343     		orrs	r3, r2
 5115              	.LVL1018:
 393:Source\mbedtls_open\library/ripemd160.c ****     low  = ( ctx->total[0] <<  3 );
 5116              		.loc 1 393 0
 5117 0012 CA00     		lsls	r2, r1, #3
 5118              	.LVL1019:
 394:Source\mbedtls_open\library/ripemd160.c **** 
 395:Source\mbedtls_open\library/ripemd160.c ****     PUT_UINT32_LE( low,  msglen, 0 );
 5119              		.loc 1 395 0
 5120 0014 6846     		mov	r0, sp
 5121              	.LVL1020:
 5122 0016 0270     		strb	r2, [r0]
 5123 0018 100A     		lsrs	r0, r2, #8
 5124 001a 6E46     		mov	r6, sp
 5125 001c 7070     		strb	r0, [r6, #1]
 5126 001e 100C     		lsrs	r0, r2, #16
 5127 0020 B070     		strb	r0, [r6, #2]
 5128 0022 120E     		lsrs	r2, r2, #24
 5129              	.LVL1021:
 5130 0024 F270     		strb	r2, [r6, #3]
 396:Source\mbedtls_open\library/ripemd160.c ****     PUT_UINT32_LE( high, msglen, 4 );
ARM GAS  C:\Users\Phuong\AppData\Local\Temp\ccbgGR22.s 			page 98


 5131              		.loc 1 396 0
 5132 0026 3371     		strb	r3, [r6, #4]
 5133 0028 1A0A     		lsrs	r2, r3, #8
 5134 002a 7271     		strb	r2, [r6, #5]
 5135 002c 1A0C     		lsrs	r2, r3, #16
 5136 002e B271     		strb	r2, [r6, #6]
 5137 0030 1B0E     		lsrs	r3, r3, #24
 5138              	.LVL1022:
 5139 0032 F371     		strb	r3, [r6, #7]
 397:Source\mbedtls_open\library/ripemd160.c **** 
 398:Source\mbedtls_open\library/ripemd160.c ****     last = ctx->total[0] & 0x3F;
 5140              		.loc 1 398 0
 5141 0034 3F22     		movs	r2, #63
 5142 0036 1140     		ands	r1, r2
 5143              	.LVL1023:
 399:Source\mbedtls_open\library/ripemd160.c ****     padn = ( last < 56 ) ? ( 56 - last ) : ( 120 - last );
 5144              		.loc 1 399 0
 5145 0038 3729     		cmp	r1, #55
 5146 003a 02D8     		bhi	.L43
 5147              		.loc 1 399 0 is_stmt 0 discriminator 1
 5148 003c 073A     		subs	r2, r2, #7
 5149 003e 521A     		subs	r2, r2, r1
 5150 0040 01E0     		b	.L44
 5151              	.L43:
 5152              		.loc 1 399 0 discriminator 2
 5153 0042 7822     		movs	r2, #120
 5154 0044 521A     		subs	r2, r2, r1
 5155              	.L44:
 5156              	.LVL1024:
 400:Source\mbedtls_open\library/ripemd160.c **** 
 401:Source\mbedtls_open\library/ripemd160.c ****     ret = mbedtls_ripemd160_update_ret( ctx, ripemd160_padding, padn );
 5157              		.loc 1 401 0 is_stmt 1 discriminator 4
 5158 0046 1E49     		ldr	r1, .L48
 5159              	.LVL1025:
 5160 0048 2000     		movs	r0, r4
 5161 004a FFF7FEFF 		bl	mbedtls_ripemd160_update_ret
 5162              	.LVL1026:
 402:Source\mbedtls_open\library/ripemd160.c ****     if( ret != 0 )
 5163              		.loc 1 402 0 discriminator 4
 5164 004e 0028     		cmp	r0, #0
 5165 0050 33D1     		bne	.L45
 403:Source\mbedtls_open\library/ripemd160.c ****         return( ret );
 404:Source\mbedtls_open\library/ripemd160.c **** 
 405:Source\mbedtls_open\library/ripemd160.c ****     ret = mbedtls_ripemd160_update_ret( ctx, msglen, 8 );
 5166              		.loc 1 405 0
 5167 0052 0822     		movs	r2, #8
 5168 0054 6946     		mov	r1, sp
 5169 0056 2000     		movs	r0, r4
 5170              	.LVL1027:
 5171 0058 FFF7FEFF 		bl	mbedtls_ripemd160_update_ret
 5172              	.LVL1028:
 406:Source\mbedtls_open\library/ripemd160.c ****     if( ret != 0 )
 5173              		.loc 1 406 0
 5174 005c 0028     		cmp	r0, #0
 5175 005e 2CD1     		bne	.L45
 407:Source\mbedtls_open\library/ripemd160.c ****         return( ret );
 408:Source\mbedtls_open\library/ripemd160.c **** 
ARM GAS  C:\Users\Phuong\AppData\Local\Temp\ccbgGR22.s 			page 99


 409:Source\mbedtls_open\library/ripemd160.c ****     PUT_UINT32_LE( ctx->state[0], output,  0 );
 5176              		.loc 1 409 0
 5177 0060 237A     		ldrb	r3, [r4, #8]
 5178 0062 2B70     		strb	r3, [r5]
 5179 0064 A368     		ldr	r3, [r4, #8]
 5180 0066 1B0A     		lsrs	r3, r3, #8
 5181 0068 6B70     		strb	r3, [r5, #1]
 5182 006a A37A     		ldrb	r3, [r4, #10]
 5183 006c AB70     		strb	r3, [r5, #2]
 5184 006e E37A     		ldrb	r3, [r4, #11]
 5185 0070 EB70     		strb	r3, [r5, #3]
 410:Source\mbedtls_open\library/ripemd160.c ****     PUT_UINT32_LE( ctx->state[1], output,  4 );
 5186              		.loc 1 410 0
 5187 0072 237B     		ldrb	r3, [r4, #12]
 5188 0074 2B71     		strb	r3, [r5, #4]
 5189 0076 E368     		ldr	r3, [r4, #12]
 5190 0078 1B0A     		lsrs	r3, r3, #8
 5191 007a 6B71     		strb	r3, [r5, #5]
 5192 007c A37B     		ldrb	r3, [r4, #14]
 5193 007e AB71     		strb	r3, [r5, #6]
 5194 0080 E37B     		ldrb	r3, [r4, #15]
 5195 0082 EB71     		strb	r3, [r5, #7]
 411:Source\mbedtls_open\library/ripemd160.c ****     PUT_UINT32_LE( ctx->state[2], output,  8 );
 5196              		.loc 1 411 0
 5197 0084 237C     		ldrb	r3, [r4, #16]
 5198 0086 2B72     		strb	r3, [r5, #8]
 5199 0088 2369     		ldr	r3, [r4, #16]
 5200 008a 1B0A     		lsrs	r3, r3, #8
 5201 008c 6B72     		strb	r3, [r5, #9]
 5202 008e A37C     		ldrb	r3, [r4, #18]
 5203 0090 AB72     		strb	r3, [r5, #10]
 5204 0092 E37C     		ldrb	r3, [r4, #19]
 5205 0094 EB72     		strb	r3, [r5, #11]
 412:Source\mbedtls_open\library/ripemd160.c ****     PUT_UINT32_LE( ctx->state[3], output, 12 );
 5206              		.loc 1 412 0
 5207 0096 237D     		ldrb	r3, [r4, #20]
 5208 0098 2B73     		strb	r3, [r5, #12]
 5209 009a 6369     		ldr	r3, [r4, #20]
 5210 009c 1B0A     		lsrs	r3, r3, #8
 5211 009e 6B73     		strb	r3, [r5, #13]
 5212 00a0 A37D     		ldrb	r3, [r4, #22]
 5213 00a2 AB73     		strb	r3, [r5, #14]
 5214 00a4 E37D     		ldrb	r3, [r4, #23]
 5215 00a6 EB73     		strb	r3, [r5, #15]
 413:Source\mbedtls_open\library/ripemd160.c ****     PUT_UINT32_LE( ctx->state[4], output, 16 );
 5216              		.loc 1 413 0
 5217 00a8 237E     		ldrb	r3, [r4, #24]
 5218 00aa 2B74     		strb	r3, [r5, #16]
 5219 00ac A369     		ldr	r3, [r4, #24]
 5220 00ae 1B0A     		lsrs	r3, r3, #8
 5221 00b0 6B74     		strb	r3, [r5, #17]
 5222 00b2 A37E     		ldrb	r3, [r4, #26]
 5223 00b4 AB74     		strb	r3, [r5, #18]
 5224 00b6 E37E     		ldrb	r3, [r4, #27]
 5225 00b8 EB74     		strb	r3, [r5, #19]
 5226              	.L45:
 414:Source\mbedtls_open\library/ripemd160.c **** 
ARM GAS  C:\Users\Phuong\AppData\Local\Temp\ccbgGR22.s 			page 100


 415:Source\mbedtls_open\library/ripemd160.c ****     return( 0 );
 416:Source\mbedtls_open\library/ripemd160.c **** }
 5227              		.loc 1 416 0
 5228 00ba 02B0     		add	sp, sp, #8
 5229              		@ sp needed
 5230              	.LVL1029:
 5231              	.LVL1030:
 5232 00bc 70BD     		pop	{r4, r5, r6, pc}
 5233              	.L49:
 5234 00be C046     		.align	2
 5235              	.L48:
 5236 00c0 00000000 		.word	.LANCHOR0
 5237              		.cfi_endproc
 5238              	.LFE10:
 5239              		.size	mbedtls_ripemd160_finish_ret, .-mbedtls_ripemd160_finish_ret
 5240              		.section	.text.mbedtls_ripemd160_finish,"ax",%progbits
 5241              		.align	2
 5242              		.global	mbedtls_ripemd160_finish
 5243              		.code	16
 5244              		.thumb_func
 5245              		.type	mbedtls_ripemd160_finish, %function
 5246              	mbedtls_ripemd160_finish:
 5247              	.LFB11:
 417:Source\mbedtls_open\library/ripemd160.c **** 
 418:Source\mbedtls_open\library/ripemd160.c **** #if !defined(MBEDTLS_DEPRECATED_REMOVED)
 419:Source\mbedtls_open\library/ripemd160.c **** void mbedtls_ripemd160_finish( mbedtls_ripemd160_context *ctx,
 420:Source\mbedtls_open\library/ripemd160.c ****                                unsigned char output[20] )
 421:Source\mbedtls_open\library/ripemd160.c **** {
 5248              		.loc 1 421 0
 5249              		.cfi_startproc
 5250              		@ args = 0, pretend = 0, frame = 0
 5251              		@ frame_needed = 0, uses_anonymous_args = 0
 5252              	.LVL1031:
 5253 0000 10B5     		push	{r4, lr}
 5254              		.cfi_def_cfa_offset 8
 5255              		.cfi_offset 4, -8
 5256              		.cfi_offset 14, -4
 422:Source\mbedtls_open\library/ripemd160.c ****     mbedtls_ripemd160_finish_ret( ctx, output );
 5257              		.loc 1 422 0
 5258 0002 FFF7FEFF 		bl	mbedtls_ripemd160_finish_ret
 5259              	.LVL1032:
 423:Source\mbedtls_open\library/ripemd160.c **** }
 5260              		.loc 1 423 0
 5261              		@ sp needed
 5262 0006 10BD     		pop	{r4, pc}
 5263              		.cfi_endproc
 5264              	.LFE11:
 5265              		.size	mbedtls_ripemd160_finish, .-mbedtls_ripemd160_finish
 5266              		.section	.text.mbedtls_ripemd160_ret,"ax",%progbits
 5267              		.align	2
 5268              		.global	mbedtls_ripemd160_ret
 5269              		.code	16
 5270              		.thumb_func
 5271              		.type	mbedtls_ripemd160_ret, %function
 5272              	mbedtls_ripemd160_ret:
 5273              	.LFB12:
 424:Source\mbedtls_open\library/ripemd160.c **** #endif
ARM GAS  C:\Users\Phuong\AppData\Local\Temp\ccbgGR22.s 			page 101


 425:Source\mbedtls_open\library/ripemd160.c **** 
 426:Source\mbedtls_open\library/ripemd160.c **** #endif /* ! MBEDTLS_RIPEMD160_ALT */
 427:Source\mbedtls_open\library/ripemd160.c **** 
 428:Source\mbedtls_open\library/ripemd160.c **** /*
 429:Source\mbedtls_open\library/ripemd160.c ****  * output = RIPEMD-160( input buffer )
 430:Source\mbedtls_open\library/ripemd160.c ****  */
 431:Source\mbedtls_open\library/ripemd160.c **** int mbedtls_ripemd160_ret( const unsigned char *input,
 432:Source\mbedtls_open\library/ripemd160.c ****                            size_t ilen,
 433:Source\mbedtls_open\library/ripemd160.c ****                            unsigned char output[20] )
 434:Source\mbedtls_open\library/ripemd160.c **** {
 5274              		.loc 1 434 0
 5275              		.cfi_startproc
 5276              		@ args = 0, pretend = 0, frame = 96
 5277              		@ frame_needed = 0, uses_anonymous_args = 0
 5278              	.LVL1033:
 5279 0000 F0B5     		push	{r4, r5, r6, r7, lr}
 5280              		.cfi_def_cfa_offset 20
 5281              		.cfi_offset 4, -20
 5282              		.cfi_offset 5, -16
 5283              		.cfi_offset 6, -12
 5284              		.cfi_offset 7, -8
 5285              		.cfi_offset 14, -4
 5286 0002 99B0     		sub	sp, sp, #100
 5287              		.cfi_def_cfa_offset 120
 5288 0004 0500     		movs	r5, r0
 5289 0006 0E00     		movs	r6, r1
 5290 0008 1700     		movs	r7, r2
 435:Source\mbedtls_open\library/ripemd160.c ****     int ret;
 436:Source\mbedtls_open\library/ripemd160.c ****     mbedtls_ripemd160_context ctx;
 437:Source\mbedtls_open\library/ripemd160.c **** 
 438:Source\mbedtls_open\library/ripemd160.c ****     mbedtls_ripemd160_init( &ctx );
 5291              		.loc 1 438 0
 5292 000a 01A8     		add	r0, sp, #4
 5293              	.LVL1034:
 5294 000c FFF7FEFF 		bl	mbedtls_ripemd160_init
 5295              	.LVL1035:
 439:Source\mbedtls_open\library/ripemd160.c **** 
 440:Source\mbedtls_open\library/ripemd160.c ****     if( ( ret = mbedtls_ripemd160_starts_ret( &ctx ) ) != 0 )
 5296              		.loc 1 440 0
 5297 0010 01A8     		add	r0, sp, #4
 5298 0012 FFF7FEFF 		bl	mbedtls_ripemd160_starts_ret
 5299              	.LVL1036:
 5300 0016 041E     		subs	r4, r0, #0
 5301              	.LVL1037:
 5302 0018 0BD1     		bne	.L52
 441:Source\mbedtls_open\library/ripemd160.c ****         goto exit;
 442:Source\mbedtls_open\library/ripemd160.c **** 
 443:Source\mbedtls_open\library/ripemd160.c ****     if( ( ret = mbedtls_ripemd160_update_ret( &ctx, input, ilen ) ) != 0 )
 5303              		.loc 1 443 0
 5304 001a 3200     		movs	r2, r6
 5305 001c 2900     		movs	r1, r5
 5306 001e 01A8     		add	r0, sp, #4
 5307              	.LVL1038:
 5308 0020 FFF7FEFF 		bl	mbedtls_ripemd160_update_ret
 5309              	.LVL1039:
 5310 0024 041E     		subs	r4, r0, #0
 5311              	.LVL1040:
ARM GAS  C:\Users\Phuong\AppData\Local\Temp\ccbgGR22.s 			page 102


 5312 0026 04D1     		bne	.L52
 444:Source\mbedtls_open\library/ripemd160.c ****         goto exit;
 445:Source\mbedtls_open\library/ripemd160.c **** 
 446:Source\mbedtls_open\library/ripemd160.c ****     if( ( ret = mbedtls_ripemd160_finish_ret( &ctx, output ) ) != 0 )
 5313              		.loc 1 446 0
 5314 0028 3900     		movs	r1, r7
 5315 002a 01A8     		add	r0, sp, #4
 5316              	.LVL1041:
 5317 002c FFF7FEFF 		bl	mbedtls_ripemd160_finish_ret
 5318              	.LVL1042:
 5319 0030 0400     		movs	r4, r0
 5320              	.LVL1043:
 5321              	.L52:
 447:Source\mbedtls_open\library/ripemd160.c ****         goto exit;
 448:Source\mbedtls_open\library/ripemd160.c **** 
 449:Source\mbedtls_open\library/ripemd160.c **** exit:
 450:Source\mbedtls_open\library/ripemd160.c ****     mbedtls_ripemd160_free( &ctx );
 5322              		.loc 1 450 0
 5323 0032 01A8     		add	r0, sp, #4
 5324              	.LVL1044:
 5325 0034 FFF7FEFF 		bl	mbedtls_ripemd160_free
 5326              	.LVL1045:
 451:Source\mbedtls_open\library/ripemd160.c **** 
 452:Source\mbedtls_open\library/ripemd160.c ****     return( ret );
 453:Source\mbedtls_open\library/ripemd160.c **** }
 5327              		.loc 1 453 0
 5328 0038 2000     		movs	r0, r4
 5329 003a 19B0     		add	sp, sp, #100
 5330              		@ sp needed
 5331              	.LVL1046:
 5332              	.LVL1047:
 5333              	.LVL1048:
 5334              	.LVL1049:
 5335 003c F0BD     		pop	{r4, r5, r6, r7, pc}
 5336              		.cfi_endproc
 5337              	.LFE12:
 5338              		.size	mbedtls_ripemd160_ret, .-mbedtls_ripemd160_ret
 5339 003e C046     		.section	.text.mbedtls_ripemd160,"ax",%progbits
 5340              		.align	2
 5341              		.global	mbedtls_ripemd160
 5342              		.code	16
 5343              		.thumb_func
 5344              		.type	mbedtls_ripemd160, %function
 5345              	mbedtls_ripemd160:
 5346              	.LFB13:
 454:Source\mbedtls_open\library/ripemd160.c **** 
 455:Source\mbedtls_open\library/ripemd160.c **** #if !defined(MBEDTLS_DEPRECATED_REMOVED)
 456:Source\mbedtls_open\library/ripemd160.c **** void mbedtls_ripemd160( const unsigned char *input,
 457:Source\mbedtls_open\library/ripemd160.c ****                         size_t ilen,
 458:Source\mbedtls_open\library/ripemd160.c ****                         unsigned char output[20] )
 459:Source\mbedtls_open\library/ripemd160.c **** {
 5347              		.loc 1 459 0
 5348              		.cfi_startproc
 5349              		@ args = 0, pretend = 0, frame = 0
 5350              		@ frame_needed = 0, uses_anonymous_args = 0
 5351              	.LVL1050:
 5352 0000 10B5     		push	{r4, lr}
ARM GAS  C:\Users\Phuong\AppData\Local\Temp\ccbgGR22.s 			page 103


 5353              		.cfi_def_cfa_offset 8
 5354              		.cfi_offset 4, -8
 5355              		.cfi_offset 14, -4
 460:Source\mbedtls_open\library/ripemd160.c ****     mbedtls_ripemd160_ret( input, ilen, output );
 5356              		.loc 1 460 0
 5357 0002 FFF7FEFF 		bl	mbedtls_ripemd160_ret
 5358              	.LVL1051:
 461:Source\mbedtls_open\library/ripemd160.c **** }
 5359              		.loc 1 461 0
 5360              		@ sp needed
 5361 0006 10BD     		pop	{r4, pc}
 5362              		.cfi_endproc
 5363              	.LFE13:
 5364              		.size	mbedtls_ripemd160, .-mbedtls_ripemd160
 5365              		.section	.text.mbedtls_ripemd160_self_test,"ax",%progbits
 5366              		.align	2
 5367              		.global	mbedtls_ripemd160_self_test
 5368              		.code	16
 5369              		.thumb_func
 5370              		.type	mbedtls_ripemd160_self_test, %function
 5371              	mbedtls_ripemd160_self_test:
 5372              	.LFB14:
 462:Source\mbedtls_open\library/ripemd160.c **** #endif
 463:Source\mbedtls_open\library/ripemd160.c **** 
 464:Source\mbedtls_open\library/ripemd160.c **** #if defined(MBEDTLS_SELF_TEST)
 465:Source\mbedtls_open\library/ripemd160.c **** /*
 466:Source\mbedtls_open\library/ripemd160.c ****  * Test vectors from the RIPEMD-160 paper and
 467:Source\mbedtls_open\library/ripemd160.c ****  * http://homes.esat.kuleuven.be/~bosselae/mbedtls_ripemd160.html#HMAC
 468:Source\mbedtls_open\library/ripemd160.c ****  */
 469:Source\mbedtls_open\library/ripemd160.c **** #define TESTS   8
 470:Source\mbedtls_open\library/ripemd160.c **** static const unsigned char ripemd160_test_str[TESTS][81] =
 471:Source\mbedtls_open\library/ripemd160.c **** {
 472:Source\mbedtls_open\library/ripemd160.c ****     { "" },
 473:Source\mbedtls_open\library/ripemd160.c ****     { "a" },
 474:Source\mbedtls_open\library/ripemd160.c ****     { "abc" },
 475:Source\mbedtls_open\library/ripemd160.c ****     { "message digest" },
 476:Source\mbedtls_open\library/ripemd160.c ****     { "abcdefghijklmnopqrstuvwxyz" },
 477:Source\mbedtls_open\library/ripemd160.c ****     { "abcdbcdecdefdefgefghfghighijhijkijkljklmklmnlmnomnopnopq" },
 478:Source\mbedtls_open\library/ripemd160.c ****     { "ABCDEFGHIJKLMNOPQRSTUVWXYZabcdefghijklmnopqrstuvwxyz0123456789" },
 479:Source\mbedtls_open\library/ripemd160.c ****     { "12345678901234567890123456789012345678901234567890123456789012"
 480:Source\mbedtls_open\library/ripemd160.c ****       "345678901234567890" },
 481:Source\mbedtls_open\library/ripemd160.c **** };
 482:Source\mbedtls_open\library/ripemd160.c **** 
 483:Source\mbedtls_open\library/ripemd160.c **** static const size_t ripemd160_test_strlen[TESTS] =
 484:Source\mbedtls_open\library/ripemd160.c **** {
 485:Source\mbedtls_open\library/ripemd160.c ****     0, 1, 3, 14, 26, 56, 62, 80
 486:Source\mbedtls_open\library/ripemd160.c **** };
 487:Source\mbedtls_open\library/ripemd160.c **** 
 488:Source\mbedtls_open\library/ripemd160.c **** static const unsigned char ripemd160_test_md[TESTS][20] =
 489:Source\mbedtls_open\library/ripemd160.c **** {
 490:Source\mbedtls_open\library/ripemd160.c ****     { 0x9c, 0x11, 0x85, 0xa5, 0xc5, 0xe9, 0xfc, 0x54, 0x61, 0x28,
 491:Source\mbedtls_open\library/ripemd160.c ****       0x08, 0x97, 0x7e, 0xe8, 0xf5, 0x48, 0xb2, 0x25, 0x8d, 0x31 },
 492:Source\mbedtls_open\library/ripemd160.c ****     { 0x0b, 0xdc, 0x9d, 0x2d, 0x25, 0x6b, 0x3e, 0xe9, 0xda, 0xae,
 493:Source\mbedtls_open\library/ripemd160.c ****       0x34, 0x7b, 0xe6, 0xf4, 0xdc, 0x83, 0x5a, 0x46, 0x7f, 0xfe },
 494:Source\mbedtls_open\library/ripemd160.c ****     { 0x8e, 0xb2, 0x08, 0xf7, 0xe0, 0x5d, 0x98, 0x7a, 0x9b, 0x04,
 495:Source\mbedtls_open\library/ripemd160.c ****       0x4a, 0x8e, 0x98, 0xc6, 0xb0, 0x87, 0xf1, 0x5a, 0x0b, 0xfc },
 496:Source\mbedtls_open\library/ripemd160.c ****     { 0x5d, 0x06, 0x89, 0xef, 0x49, 0xd2, 0xfa, 0xe5, 0x72, 0xb8,
ARM GAS  C:\Users\Phuong\AppData\Local\Temp\ccbgGR22.s 			page 104


 497:Source\mbedtls_open\library/ripemd160.c ****       0x81, 0xb1, 0x23, 0xa8, 0x5f, 0xfa, 0x21, 0x59, 0x5f, 0x36 },
 498:Source\mbedtls_open\library/ripemd160.c ****     { 0xf7, 0x1c, 0x27, 0x10, 0x9c, 0x69, 0x2c, 0x1b, 0x56, 0xbb,
 499:Source\mbedtls_open\library/ripemd160.c ****       0xdc, 0xeb, 0x5b, 0x9d, 0x28, 0x65, 0xb3, 0x70, 0x8d, 0xbc },
 500:Source\mbedtls_open\library/ripemd160.c ****     { 0x12, 0xa0, 0x53, 0x38, 0x4a, 0x9c, 0x0c, 0x88, 0xe4, 0x05,
 501:Source\mbedtls_open\library/ripemd160.c ****       0xa0, 0x6c, 0x27, 0xdc, 0xf4, 0x9a, 0xda, 0x62, 0xeb, 0x2b },
 502:Source\mbedtls_open\library/ripemd160.c ****     { 0xb0, 0xe2, 0x0b, 0x6e, 0x31, 0x16, 0x64, 0x02, 0x86, 0xed,
 503:Source\mbedtls_open\library/ripemd160.c ****       0x3a, 0x87, 0xa5, 0x71, 0x30, 0x79, 0xb2, 0x1f, 0x51, 0x89 },
 504:Source\mbedtls_open\library/ripemd160.c ****     { 0x9b, 0x75, 0x2e, 0x45, 0x57, 0x3d, 0x4b, 0x39, 0xf4, 0xdb,
 505:Source\mbedtls_open\library/ripemd160.c ****       0xd3, 0x32, 0x3c, 0xab, 0x82, 0xbf, 0x63, 0x32, 0x6b, 0xfb },
 506:Source\mbedtls_open\library/ripemd160.c **** };
 507:Source\mbedtls_open\library/ripemd160.c **** 
 508:Source\mbedtls_open\library/ripemd160.c **** /*
 509:Source\mbedtls_open\library/ripemd160.c ****  * Checkup routine
 510:Source\mbedtls_open\library/ripemd160.c ****  */
 511:Source\mbedtls_open\library/ripemd160.c **** int mbedtls_ripemd160_self_test( int verbose )
 512:Source\mbedtls_open\library/ripemd160.c **** {
 5373              		.loc 1 512 0
 5374              		.cfi_startproc
 5375              		@ args = 0, pretend = 0, frame = 24
 5376              		@ frame_needed = 0, uses_anonymous_args = 0
 5377              	.LVL1052:
 5378 0000 70B5     		push	{r4, r5, r6, lr}
 5379              		.cfi_def_cfa_offset 16
 5380              		.cfi_offset 4, -16
 5381              		.cfi_offset 5, -12
 5382              		.cfi_offset 6, -8
 5383              		.cfi_offset 14, -4
 5384 0002 86B0     		sub	sp, sp, #24
 5385              		.cfi_def_cfa_offset 40
 5386 0004 0500     		movs	r5, r0
 5387              	.LVL1053:
 513:Source\mbedtls_open\library/ripemd160.c ****     int i, ret = 0;
 514:Source\mbedtls_open\library/ripemd160.c ****     unsigned char output[20];
 515:Source\mbedtls_open\library/ripemd160.c **** 
 516:Source\mbedtls_open\library/ripemd160.c ****     memset( output, 0, sizeof output );
 5388              		.loc 1 516 0
 5389 0006 1422     		movs	r2, #20
 5390 0008 0021     		movs	r1, #0
 5391 000a 01A8     		add	r0, sp, #4
 5392              	.LVL1054:
 5393 000c FFF7FEFF 		bl	memset
 5394              	.LVL1055:
 517:Source\mbedtls_open\library/ripemd160.c **** 
 518:Source\mbedtls_open\library/ripemd160.c ****     for( i = 0; i < TESTS; i++ )
 5395              		.loc 1 518 0
 5396 0010 0024     		movs	r4, #0
 5397 0012 27E0     		b	.L55
 5398              	.LVL1056:
 5399              	.L59:
 519:Source\mbedtls_open\library/ripemd160.c ****     {
 520:Source\mbedtls_open\library/ripemd160.c ****         if( verbose != 0 )
 5400              		.loc 1 520 0
 5401 0014 002D     		cmp	r5, #0
 5402 0016 03D0     		beq	.L56
 521:Source\mbedtls_open\library/ripemd160.c ****             mbedtls_printf( "  RIPEMD-160 test #%d: ", i + 1 );
 5403              		.loc 1 521 0
 5404 0018 611C     		adds	r1, r4, #1
ARM GAS  C:\Users\Phuong\AppData\Local\Temp\ccbgGR22.s 			page 105


 5405 001a 1D48     		ldr	r0, .L64
 5406 001c FFF7FEFF 		bl	printf
 5407              	.LVL1057:
 5408              	.L56:
 522:Source\mbedtls_open\library/ripemd160.c **** 
 523:Source\mbedtls_open\library/ripemd160.c ****         ret = mbedtls_ripemd160_ret( ripemd160_test_str[i],
 5409              		.loc 1 523 0
 5410 0020 E000     		lsls	r0, r4, #3
 5411 0022 0019     		adds	r0, r0, r4
 5412 0024 C300     		lsls	r3, r0, #3
 5413 0026 C018     		adds	r0, r0, r3
 5414 0028 1A4B     		ldr	r3, .L64+4
 5415 002a 4033     		adds	r3, r3, #64
 5416 002c 1818     		adds	r0, r3, r0
 5417 002e A300     		lsls	r3, r4, #2
 5418 0030 194A     		ldr	r2, .L64+8
 5419 0032 D318     		adds	r3, r2, r3
 5420 0034 996C     		ldr	r1, [r3, #72]
 5421 0036 01AA     		add	r2, sp, #4
 5422 0038 FFF7FEFF 		bl	mbedtls_ripemd160_ret
 5423              	.LVL1058:
 5424 003c 061E     		subs	r6, r0, #0
 5425              	.LVL1059:
 524:Source\mbedtls_open\library/ripemd160.c ****                                      ripemd160_test_strlen[i], output );
 525:Source\mbedtls_open\library/ripemd160.c ****         if( ret != 0 )
 5426              		.loc 1 525 0
 5427 003e 1BD1     		bne	.L57
 526:Source\mbedtls_open\library/ripemd160.c ****             goto fail;
 527:Source\mbedtls_open\library/ripemd160.c **** 
 528:Source\mbedtls_open\library/ripemd160.c ****         if( memcmp( output, ripemd160_test_md[i], 20 ) != 0 )
 5428              		.loc 1 528 0
 5429 0040 A200     		lsls	r2, r4, #2
 5430 0042 1219     		adds	r2, r2, r4
 5431 0044 9300     		lsls	r3, r2, #2
 5432 0046 1449     		ldr	r1, .L64+8
 5433 0048 6831     		adds	r1, r1, #104
 5434 004a C918     		adds	r1, r1, r3
 5435 004c 1422     		movs	r2, #20
 5436 004e 01A8     		add	r0, sp, #4
 5437              	.LVL1060:
 5438 0050 FFF7FEFF 		bl	memcmp
 5439              	.LVL1061:
 5440 0054 0028     		cmp	r0, #0
 5441 0056 0ED1     		bne	.L61
 529:Source\mbedtls_open\library/ripemd160.c ****         {
 530:Source\mbedtls_open\library/ripemd160.c ****             ret = 1;
 531:Source\mbedtls_open\library/ripemd160.c ****             goto fail;
 532:Source\mbedtls_open\library/ripemd160.c ****         }
 533:Source\mbedtls_open\library/ripemd160.c **** 
 534:Source\mbedtls_open\library/ripemd160.c ****         if( verbose != 0 )
 5442              		.loc 1 534 0
 5443 0058 002D     		cmp	r5, #0
 5444 005a 02D0     		beq	.L58
 535:Source\mbedtls_open\library/ripemd160.c ****             mbedtls_printf( "passed\n" );
 5445              		.loc 1 535 0
 5446 005c 0F48     		ldr	r0, .L64+12
 5447 005e FFF7FEFF 		bl	puts
ARM GAS  C:\Users\Phuong\AppData\Local\Temp\ccbgGR22.s 			page 106


 5448              	.LVL1062:
 5449              	.L58:
 518:Source\mbedtls_open\library/ripemd160.c ****     {
 5450              		.loc 1 518 0 discriminator 2
 5451 0062 0134     		adds	r4, r4, #1
 5452              	.LVL1063:
 5453              	.L55:
 518:Source\mbedtls_open\library/ripemd160.c ****     {
 5454              		.loc 1 518 0 is_stmt 0 discriminator 1
 5455 0064 072C     		cmp	r4, #7
 5456 0066 D5DD     		ble	.L59
 536:Source\mbedtls_open\library/ripemd160.c ****     }
 537:Source\mbedtls_open\library/ripemd160.c **** 
 538:Source\mbedtls_open\library/ripemd160.c ****     if( verbose != 0 )
 5457              		.loc 1 538 0 is_stmt 1
 5458 0068 002D     		cmp	r5, #0
 5459 006a 0CD0     		beq	.L62
 539:Source\mbedtls_open\library/ripemd160.c ****         mbedtls_printf( "\n" );
 5460              		.loc 1 539 0
 5461 006c 0A20     		movs	r0, #10
 5462 006e FFF7FEFF 		bl	putchar
 5463              	.LVL1064:
 540:Source\mbedtls_open\library/ripemd160.c **** 
 541:Source\mbedtls_open\library/ripemd160.c ****     return( 0 );
 5464              		.loc 1 541 0
 5465 0072 0020     		movs	r0, #0
 5466 0074 0AE0     		b	.L60
 5467              	.LVL1065:
 5468              	.L61:
 530:Source\mbedtls_open\library/ripemd160.c ****             goto fail;
 5469              		.loc 1 530 0
 5470 0076 0126     		movs	r6, #1
 5471              	.LVL1066:
 5472              	.L57:
 542:Source\mbedtls_open\library/ripemd160.c **** 
 543:Source\mbedtls_open\library/ripemd160.c **** fail:
 544:Source\mbedtls_open\library/ripemd160.c ****     if( verbose != 0 )
 5473              		.loc 1 544 0
 5474 0078 002D     		cmp	r5, #0
 5475 007a 06D0     		beq	.L63
 545:Source\mbedtls_open\library/ripemd160.c ****         mbedtls_printf( "failed\n" );
 5476              		.loc 1 545 0
 5477 007c 0848     		ldr	r0, .L64+16
 5478 007e FFF7FEFF 		bl	puts
 5479              	.LVL1067:
 546:Source\mbedtls_open\library/ripemd160.c **** 
 547:Source\mbedtls_open\library/ripemd160.c ****     return( ret );
 5480              		.loc 1 547 0
 5481 0082 3000     		movs	r0, r6
 5482 0084 02E0     		b	.L60
 5483              	.LVL1068:
 5484              	.L62:
 541:Source\mbedtls_open\library/ripemd160.c **** 
 5485              		.loc 1 541 0
 5486 0086 0020     		movs	r0, #0
 5487 0088 00E0     		b	.L60
 5488              	.LVL1069:
ARM GAS  C:\Users\Phuong\AppData\Local\Temp\ccbgGR22.s 			page 107


 5489              	.L63:
 5490              		.loc 1 547 0
 5491 008a 3000     		movs	r0, r6
 5492              	.LVL1070:
 5493              	.L60:
 548:Source\mbedtls_open\library/ripemd160.c **** }
 5494              		.loc 1 548 0
 5495 008c 06B0     		add	sp, sp, #24
 5496              		@ sp needed
 5497              	.LVL1071:
 5498              	.LVL1072:
 5499 008e 70BD     		pop	{r4, r5, r6, pc}
 5500              	.L65:
 5501              		.align	2
 5502              	.L64:
 5503 0090 00000000 		.word	.LC1
 5504 0094 00000000 		.word	.LANCHOR0
 5505 0098 80020000 		.word	.LANCHOR1
 5506 009c 18000000 		.word	.LC5
 5507 00a0 20000000 		.word	.LC7
 5508              		.cfi_endproc
 5509              	.LFE14:
 5510              		.size	mbedtls_ripemd160_self_test, .-mbedtls_ripemd160_self_test
 5511              		.section	.rodata
 5512              		.align	2
 5513              		.set	.LANCHOR0,. + 0
 5514              		.set	.LANCHOR1,. + 640
 5515              		.type	ripemd160_padding, %object
 5516              		.size	ripemd160_padding, 64
 5517              	ripemd160_padding:
 5518 0000 80       		.byte	-128
 5519 0001 00       		.byte	0
 5520 0002 00       		.byte	0
 5521 0003 00       		.byte	0
 5522 0004 00       		.byte	0
 5523 0005 00       		.byte	0
 5524 0006 00       		.byte	0
 5525 0007 00       		.byte	0
 5526 0008 00       		.byte	0
 5527 0009 00       		.byte	0
 5528 000a 00       		.byte	0
 5529 000b 00       		.byte	0
 5530 000c 00       		.byte	0
 5531 000d 00       		.byte	0
 5532 000e 00       		.byte	0
 5533 000f 00       		.byte	0
 5534 0010 00       		.byte	0
 5535 0011 00       		.byte	0
 5536 0012 00       		.byte	0
 5537 0013 00       		.byte	0
 5538 0014 00       		.byte	0
 5539 0015 00       		.byte	0
 5540 0016 00       		.byte	0
 5541 0017 00       		.byte	0
 5542 0018 00       		.byte	0
 5543 0019 00       		.byte	0
 5544 001a 00       		.byte	0
ARM GAS  C:\Users\Phuong\AppData\Local\Temp\ccbgGR22.s 			page 108


 5545 001b 00       		.byte	0
 5546 001c 00       		.byte	0
 5547 001d 00       		.byte	0
 5548 001e 00       		.byte	0
 5549 001f 00       		.byte	0
 5550 0020 00       		.byte	0
 5551 0021 00       		.byte	0
 5552 0022 00       		.byte	0
 5553 0023 00       		.byte	0
 5554 0024 00       		.byte	0
 5555 0025 00       		.byte	0
 5556 0026 00       		.byte	0
 5557 0027 00       		.byte	0
 5558 0028 00       		.byte	0
 5559 0029 00       		.byte	0
 5560 002a 00       		.byte	0
 5561 002b 00       		.byte	0
 5562 002c 00       		.byte	0
 5563 002d 00       		.byte	0
 5564 002e 00       		.byte	0
 5565 002f 00       		.byte	0
 5566 0030 00       		.byte	0
 5567 0031 00       		.byte	0
 5568 0032 00       		.byte	0
 5569 0033 00       		.byte	0
 5570 0034 00       		.byte	0
 5571 0035 00       		.byte	0
 5572 0036 00       		.byte	0
 5573 0037 00       		.byte	0
 5574 0038 00       		.byte	0
 5575 0039 00       		.byte	0
 5576 003a 00       		.byte	0
 5577 003b 00       		.byte	0
 5578 003c 00       		.byte	0
 5579 003d 00       		.byte	0
 5580 003e 00       		.byte	0
 5581 003f 00       		.byte	0
 5582              		.type	ripemd160_test_str, %object
 5583              		.size	ripemd160_test_str, 648
 5584              	ripemd160_test_str:
 5585 0040 00       		.ascii	"\000"
 5586 0041 00000000 		.space	80
 5586      00000000 
 5586      00000000 
 5586      00000000 
 5586      00000000 
 5587 0091 6100     		.ascii	"a\000"
 5588 0093 00000000 		.space	79
 5588      00000000 
 5588      00000000 
 5588      00000000 
 5588      00000000 
 5589 00e2 61626300 		.ascii	"abc\000"
 5590 00e6 00000000 		.space	77
 5590      00000000 
 5590      00000000 
 5590      00000000 
ARM GAS  C:\Users\Phuong\AppData\Local\Temp\ccbgGR22.s 			page 109


 5590      00000000 
 5591 0133 6D657373 		.ascii	"message digest\000"
 5591      61676520 
 5591      64696765 
 5591      737400
 5592 0142 00000000 		.space	66
 5592      00000000 
 5592      00000000 
 5592      00000000 
 5592      00000000 
 5593 0184 61626364 		.ascii	"abcdefghijklmnopqrstuvwxyz\000"
 5593      65666768 
 5593      696A6B6C 
 5593      6D6E6F70 
 5593      71727374 
 5594 019f 00000000 		.space	54
 5594      00000000 
 5594      00000000 
 5594      00000000 
 5594      00000000 
 5595 01d5 61626364 		.ascii	"abcdbcdecdefdefgefghfghighijhijkijkljklmklmnlmnomno"
 5595      62636465 
 5595      63646566 
 5595      64656667 
 5595      65666768 
 5596 0208 706E6F70 		.ascii	"pnopq\000"
 5596      7100
 5597 020e 00000000 		.space	24
 5597      00000000 
 5597      00000000 
 5597      00000000 
 5597      00000000 
 5598 0226 41424344 		.ascii	"ABCDEFGHIJKLMNOPQRSTUVWXYZabcdefghijklmnopqrstuvwxy"
 5598      45464748 
 5598      494A4B4C 
 5598      4D4E4F50 
 5598      51525354 
 5599 0259 7A303132 		.ascii	"z0123456789\000"
 5599      33343536 
 5599      37383900 
 5600 0265 00000000 		.space	18
 5600      00000000 
 5600      00000000 
 5600      00000000 
 5600      0000
 5601 0277 31323334 		.ascii	"123456789012345678901234567890123456789012345678901"
 5601      35363738 
 5601      39303132 
 5601      33343536 
 5601      37383930 
 5602 02aa 32333435 		.ascii	"23456789012345678901234567890\000"
 5602      36373839 
 5602      30313233 
 5602      34353637 
 5602      38393031 
 5603              		.type	ripemd160_test_strlen, %object
 5604              		.size	ripemd160_test_strlen, 32
ARM GAS  C:\Users\Phuong\AppData\Local\Temp\ccbgGR22.s 			page 110


 5605              	ripemd160_test_strlen:
 5606 02c8 00000000 		.word	0
 5607 02cc 01000000 		.word	1
 5608 02d0 03000000 		.word	3
 5609 02d4 0E000000 		.word	14
 5610 02d8 1A000000 		.word	26
 5611 02dc 38000000 		.word	56
 5612 02e0 3E000000 		.word	62
 5613 02e4 50000000 		.word	80
 5614              		.type	ripemd160_test_md, %object
 5615              		.size	ripemd160_test_md, 160
 5616              	ripemd160_test_md:
 5617 02e8 9C       		.byte	-100
 5618 02e9 11       		.byte	17
 5619 02ea 85       		.byte	-123
 5620 02eb A5       		.byte	-91
 5621 02ec C5       		.byte	-59
 5622 02ed E9       		.byte	-23
 5623 02ee FC       		.byte	-4
 5624 02ef 54       		.byte	84
 5625 02f0 61       		.byte	97
 5626 02f1 28       		.byte	40
 5627 02f2 08       		.byte	8
 5628 02f3 97       		.byte	-105
 5629 02f4 7E       		.byte	126
 5630 02f5 E8       		.byte	-24
 5631 02f6 F5       		.byte	-11
 5632 02f7 48       		.byte	72
 5633 02f8 B2       		.byte	-78
 5634 02f9 25       		.byte	37
 5635 02fa 8D       		.byte	-115
 5636 02fb 31       		.byte	49
 5637 02fc 0B       		.byte	11
 5638 02fd DC       		.byte	-36
 5639 02fe 9D       		.byte	-99
 5640 02ff 2D       		.byte	45
 5641 0300 25       		.byte	37
 5642 0301 6B       		.byte	107
 5643 0302 3E       		.byte	62
 5644 0303 E9       		.byte	-23
 5645 0304 DA       		.byte	-38
 5646 0305 AE       		.byte	-82
 5647 0306 34       		.byte	52
 5648 0307 7B       		.byte	123
 5649 0308 E6       		.byte	-26
 5650 0309 F4       		.byte	-12
 5651 030a DC       		.byte	-36
 5652 030b 83       		.byte	-125
 5653 030c 5A       		.byte	90
 5654 030d 46       		.byte	70
 5655 030e 7F       		.byte	127
 5656 030f FE       		.byte	-2
 5657 0310 8E       		.byte	-114
 5658 0311 B2       		.byte	-78
 5659 0312 08       		.byte	8
 5660 0313 F7       		.byte	-9
 5661 0314 E0       		.byte	-32
ARM GAS  C:\Users\Phuong\AppData\Local\Temp\ccbgGR22.s 			page 111


 5662 0315 5D       		.byte	93
 5663 0316 98       		.byte	-104
 5664 0317 7A       		.byte	122
 5665 0318 9B       		.byte	-101
 5666 0319 04       		.byte	4
 5667 031a 4A       		.byte	74
 5668 031b 8E       		.byte	-114
 5669 031c 98       		.byte	-104
 5670 031d C6       		.byte	-58
 5671 031e B0       		.byte	-80
 5672 031f 87       		.byte	-121
 5673 0320 F1       		.byte	-15
 5674 0321 5A       		.byte	90
 5675 0322 0B       		.byte	11
 5676 0323 FC       		.byte	-4
 5677 0324 5D       		.byte	93
 5678 0325 06       		.byte	6
 5679 0326 89       		.byte	-119
 5680 0327 EF       		.byte	-17
 5681 0328 49       		.byte	73
 5682 0329 D2       		.byte	-46
 5683 032a FA       		.byte	-6
 5684 032b E5       		.byte	-27
 5685 032c 72       		.byte	114
 5686 032d B8       		.byte	-72
 5687 032e 81       		.byte	-127
 5688 032f B1       		.byte	-79
 5689 0330 23       		.byte	35
 5690 0331 A8       		.byte	-88
 5691 0332 5F       		.byte	95
 5692 0333 FA       		.byte	-6
 5693 0334 21       		.byte	33
 5694 0335 59       		.byte	89
 5695 0336 5F       		.byte	95
 5696 0337 36       		.byte	54
 5697 0338 F7       		.byte	-9
 5698 0339 1C       		.byte	28
 5699 033a 27       		.byte	39
 5700 033b 10       		.byte	16
 5701 033c 9C       		.byte	-100
 5702 033d 69       		.byte	105
 5703 033e 2C       		.byte	44
 5704 033f 1B       		.byte	27
 5705 0340 56       		.byte	86
 5706 0341 BB       		.byte	-69
 5707 0342 DC       		.byte	-36
 5708 0343 EB       		.byte	-21
 5709 0344 5B       		.byte	91
 5710 0345 9D       		.byte	-99
 5711 0346 28       		.byte	40
 5712 0347 65       		.byte	101
 5713 0348 B3       		.byte	-77
 5714 0349 70       		.byte	112
 5715 034a 8D       		.byte	-115
 5716 034b BC       		.byte	-68
 5717 034c 12       		.byte	18
 5718 034d A0       		.byte	-96
ARM GAS  C:\Users\Phuong\AppData\Local\Temp\ccbgGR22.s 			page 112


 5719 034e 53       		.byte	83
 5720 034f 38       		.byte	56
 5721 0350 4A       		.byte	74
 5722 0351 9C       		.byte	-100
 5723 0352 0C       		.byte	12
 5724 0353 88       		.byte	-120
 5725 0354 E4       		.byte	-28
 5726 0355 05       		.byte	5
 5727 0356 A0       		.byte	-96
 5728 0357 6C       		.byte	108
 5729 0358 27       		.byte	39
 5730 0359 DC       		.byte	-36
 5731 035a F4       		.byte	-12
 5732 035b 9A       		.byte	-102
 5733 035c DA       		.byte	-38
 5734 035d 62       		.byte	98
 5735 035e EB       		.byte	-21
 5736 035f 2B       		.byte	43
 5737 0360 B0       		.byte	-80
 5738 0361 E2       		.byte	-30
 5739 0362 0B       		.byte	11
 5740 0363 6E       		.byte	110
 5741 0364 31       		.byte	49
 5742 0365 16       		.byte	22
 5743 0366 64       		.byte	100
 5744 0367 02       		.byte	2
 5745 0368 86       		.byte	-122
 5746 0369 ED       		.byte	-19
 5747 036a 3A       		.byte	58
 5748 036b 87       		.byte	-121
 5749 036c A5       		.byte	-91
 5750 036d 71       		.byte	113
 5751 036e 30       		.byte	48
 5752 036f 79       		.byte	121
 5753 0370 B2       		.byte	-78
 5754 0371 1F       		.byte	31
 5755 0372 51       		.byte	81
 5756 0373 89       		.byte	-119
 5757 0374 9B       		.byte	-101
 5758 0375 75       		.byte	117
 5759 0376 2E       		.byte	46
 5760 0377 45       		.byte	69
 5761 0378 57       		.byte	87
 5762 0379 3D       		.byte	61
 5763 037a 4B       		.byte	75
 5764 037b 39       		.byte	57
 5765 037c F4       		.byte	-12
 5766 037d DB       		.byte	-37
 5767 037e D3       		.byte	-45
 5768 037f 32       		.byte	50
 5769 0380 3C       		.byte	60
 5770 0381 AB       		.byte	-85
 5771 0382 82       		.byte	-126
 5772 0383 BF       		.byte	-65
 5773 0384 63       		.byte	99
 5774 0385 32       		.byte	50
 5775 0386 6B       		.byte	107
ARM GAS  C:\Users\Phuong\AppData\Local\Temp\ccbgGR22.s 			page 113


 5776 0387 FB       		.byte	-5
 5777              		.section	.rodata.str1.4,"aMS",%progbits,1
 5778              		.align	2
 5779              	.LC1:
 5780 0000 20205249 		.ascii	"  RIPEMD-160 test #%d: \000"
 5780      50454D44 
 5780      2D313630 
 5780      20746573 
 5780      74202325 
 5781              	.LC5:
 5782 0018 70617373 		.ascii	"passed\000"
 5782      656400
 5783 001f 00       		.space	1
 5784              	.LC7:
 5785 0020 6661696C 		.ascii	"failed\000"
 5785      656400
 5786              		.text
 5787              	.Letext0:
 5788              		.file 2 "c:\\program files (x86)\\cypress\\psoc creator\\4.2\\psoc creator\\import\\gnu\\arm\\5.4.
 5789              		.file 3 "c:\\program files (x86)\\cypress\\psoc creator\\4.2\\psoc creator\\import\\gnu\\arm\\5.4.
 5790              		.file 4 "c:\\program files (x86)\\cypress\\psoc creator\\4.2\\psoc creator\\import\\gnu\\arm\\5.4.
 5791              		.file 5 ".\\Source\\mbedtls_open\\include/mbedtls/ripemd160.h"
 5792              		.file 6 ".\\Source\\mbedtls_open\\include/mbedtls/platform_util.h"
 5793              		.file 7 "c:\\program files (x86)\\cypress\\psoc creator\\4.2\\psoc creator\\import\\gnu\\arm\\5.4.
 5794              		.file 8 "c:\\program files (x86)\\cypress\\psoc creator\\4.2\\psoc creator\\import\\gnu\\arm\\5.4.
 5795              		.file 9 "<built-in>"
 5796              		.section	.debug_info,"",%progbits
 5797              	.Ldebug_info0:
 5798 0000 B1090000 		.4byte	0x9b1
 5799 0004 0400     		.2byte	0x4
 5800 0006 00000000 		.4byte	.Ldebug_abbrev0
 5801 000a 04       		.byte	0x4
 5802 000b 01       		.uleb128 0x1
 5803 000c 2C030000 		.4byte	.LASF59
 5804 0010 0C       		.byte	0xc
 5805 0011 3E040000 		.4byte	.LASF60
 5806 0015 31020000 		.4byte	.LASF61
 5807 0019 00000000 		.4byte	.Ldebug_ranges0+0
 5808 001d 00000000 		.4byte	0
 5809 0021 00000000 		.4byte	.Ldebug_line0
 5810 0025 02       		.uleb128 0x2
 5811 0026 01       		.byte	0x1
 5812 0027 06       		.byte	0x6
 5813 0028 AA000000 		.4byte	.LASF0
 5814 002c 02       		.uleb128 0x2
 5815 002d 01       		.byte	0x1
 5816 002e 08       		.byte	0x8
 5817 002f DD020000 		.4byte	.LASF1
 5818 0033 02       		.uleb128 0x2
 5819 0034 02       		.byte	0x2
 5820 0035 05       		.byte	0x5
 5821 0036 EB020000 		.4byte	.LASF2
 5822 003a 02       		.uleb128 0x2
 5823 003b 02       		.byte	0x2
 5824 003c 07       		.byte	0x7
 5825 003d 95010000 		.4byte	.LASF3
 5826 0041 02       		.uleb128 0x2
ARM GAS  C:\Users\Phuong\AppData\Local\Temp\ccbgGR22.s 			page 114


 5827 0042 04       		.byte	0x4
 5828 0043 05       		.byte	0x5
 5829 0044 D3000000 		.4byte	.LASF4
 5830 0048 03       		.uleb128 0x3
 5831 0049 3C010000 		.4byte	.LASF9
 5832 004d 02       		.byte	0x2
 5833 004e 41       		.byte	0x41
 5834 004f 53000000 		.4byte	0x53
 5835 0053 02       		.uleb128 0x2
 5836 0054 04       		.byte	0x4
 5837 0055 07       		.byte	0x7
 5838 0056 54010000 		.4byte	.LASF5
 5839 005a 02       		.uleb128 0x2
 5840 005b 08       		.byte	0x8
 5841 005c 05       		.byte	0x5
 5842 005d 9C000000 		.4byte	.LASF6
 5843 0061 02       		.uleb128 0x2
 5844 0062 08       		.byte	0x8
 5845 0063 07       		.byte	0x7
 5846 0064 28000000 		.4byte	.LASF7
 5847 0068 04       		.uleb128 0x4
 5848 0069 04       		.byte	0x4
 5849 006a 05       		.byte	0x5
 5850 006b 696E7400 		.ascii	"int\000"
 5851 006f 02       		.uleb128 0x2
 5852 0070 04       		.byte	0x4
 5853 0071 07       		.byte	0x7
 5854 0072 47010000 		.4byte	.LASF8
 5855 0076 03       		.uleb128 0x3
 5856 0077 21000000 		.4byte	.LASF10
 5857 007b 03       		.byte	0x3
 5858 007c D8       		.byte	0xd8
 5859 007d 6F000000 		.4byte	0x6f
 5860 0081 02       		.uleb128 0x2
 5861 0082 08       		.byte	0x8
 5862 0083 04       		.byte	0x4
 5863 0084 0B020000 		.4byte	.LASF11
 5864 0088 03       		.uleb128 0x3
 5865 0089 1E030000 		.4byte	.LASF12
 5866 008d 04       		.byte	0x4
 5867 008e 30       		.byte	0x30
 5868 008f 48000000 		.4byte	0x48
 5869 0093 05       		.uleb128 0x5
 5870 0094 07000000 		.4byte	.LASF17
 5871 0098 5C       		.byte	0x5c
 5872 0099 05       		.byte	0x5
 5873 009a 31       		.byte	0x31
 5874 009b C4000000 		.4byte	0xc4
 5875 009f 06       		.uleb128 0x6
 5876 00a0 CA010000 		.4byte	.LASF13
 5877 00a4 05       		.byte	0x5
 5878 00a5 33       		.byte	0x33
 5879 00a6 C4000000 		.4byte	0xc4
 5880 00aa 00       		.byte	0
 5881 00ab 06       		.uleb128 0x6
 5882 00ac CD000000 		.4byte	.LASF14
 5883 00b0 05       		.byte	0x5
ARM GAS  C:\Users\Phuong\AppData\Local\Temp\ccbgGR22.s 			page 115


 5884 00b1 34       		.byte	0x34
 5885 00b2 DB000000 		.4byte	0xdb
 5886 00b6 08       		.byte	0x8
 5887 00b7 06       		.uleb128 0x6
 5888 00b8 E4030000 		.4byte	.LASF15
 5889 00bc 05       		.byte	0x5
 5890 00bd 35       		.byte	0x35
 5891 00be EB000000 		.4byte	0xeb
 5892 00c2 1C       		.byte	0x1c
 5893 00c3 00       		.byte	0
 5894 00c4 07       		.uleb128 0x7
 5895 00c5 88000000 		.4byte	0x88
 5896 00c9 D4000000 		.4byte	0xd4
 5897 00cd 08       		.uleb128 0x8
 5898 00ce D4000000 		.4byte	0xd4
 5899 00d2 01       		.byte	0x1
 5900 00d3 00       		.byte	0
 5901 00d4 02       		.uleb128 0x2
 5902 00d5 04       		.byte	0x4
 5903 00d6 07       		.byte	0x7
 5904 00d7 F0010000 		.4byte	.LASF16
 5905 00db 07       		.uleb128 0x7
 5906 00dc 88000000 		.4byte	0x88
 5907 00e0 EB000000 		.4byte	0xeb
 5908 00e4 08       		.uleb128 0x8
 5909 00e5 D4000000 		.4byte	0xd4
 5910 00e9 04       		.byte	0x4
 5911 00ea 00       		.byte	0
 5912 00eb 07       		.uleb128 0x7
 5913 00ec 2C000000 		.4byte	0x2c
 5914 00f0 FB000000 		.4byte	0xfb
 5915 00f4 08       		.uleb128 0x8
 5916 00f5 D4000000 		.4byte	0xd4
 5917 00f9 3F       		.byte	0x3f
 5918 00fa 00       		.byte	0
 5919 00fb 03       		.uleb128 0x3
 5920 00fc 07000000 		.4byte	.LASF17
 5921 0100 05       		.byte	0x5
 5922 0101 37       		.byte	0x37
 5923 0102 93000000 		.4byte	0x93
 5924 0106 09       		.uleb128 0x9
 5925 0107 04       		.byte	0x4
 5926 0108 2C000000 		.4byte	0x2c
 5927 010c 02       		.uleb128 0x2
 5928 010d 01       		.byte	0x1
 5929 010e 08       		.byte	0x8
 5930 010f BE030000 		.4byte	.LASF18
 5931 0113 0A       		.uleb128 0xa
 5932 0114 B6000000 		.4byte	.LASF19
 5933 0118 01       		.byte	0x1
 5934 0119 4B       		.byte	0x4b
 5935 011a 00000000 		.4byte	.LFB1
 5936 011e 0C000000 		.4byte	.LFE1-.LFB1
 5937 0122 01       		.uleb128 0x1
 5938 0123 9C       		.byte	0x9c
 5939 0124 54010000 		.4byte	0x154
 5940 0128 0B       		.uleb128 0xb
ARM GAS  C:\Users\Phuong\AppData\Local\Temp\ccbgGR22.s 			page 116


 5941 0129 63747800 		.ascii	"ctx\000"
 5942 012d 01       		.byte	0x1
 5943 012e 4B       		.byte	0x4b
 5944 012f 54010000 		.4byte	0x154
 5945 0133 00000000 		.4byte	.LLST0
 5946 0137 0C       		.uleb128 0xc
 5947 0138 0A000000 		.4byte	.LVL1
 5948 013c 63090000 		.4byte	0x963
 5949 0140 0D       		.uleb128 0xd
 5950 0141 01       		.uleb128 0x1
 5951 0142 50       		.byte	0x50
 5952 0143 03       		.uleb128 0x3
 5953 0144 F3       		.byte	0xf3
 5954 0145 01       		.uleb128 0x1
 5955 0146 50       		.byte	0x50
 5956 0147 0D       		.uleb128 0xd
 5957 0148 01       		.uleb128 0x1
 5958 0149 51       		.byte	0x51
 5959 014a 01       		.uleb128 0x1
 5960 014b 30       		.byte	0x30
 5961 014c 0D       		.uleb128 0xd
 5962 014d 01       		.uleb128 0x1
 5963 014e 52       		.byte	0x52
 5964 014f 02       		.uleb128 0x2
 5965 0150 08       		.byte	0x8
 5966 0151 5C       		.byte	0x5c
 5967 0152 00       		.byte	0
 5968 0153 00       		.byte	0
 5969 0154 09       		.uleb128 0x9
 5970 0155 04       		.byte	0x4
 5971 0156 FB000000 		.4byte	0xfb
 5972 015a 0A       		.uleb128 0xa
 5973 015b DC000000 		.4byte	.LASF20
 5974 015f 01       		.byte	0x1
 5975 0160 50       		.byte	0x50
 5976 0161 00000000 		.4byte	.LFB2
 5977 0165 0E000000 		.4byte	.LFE2-.LFB2
 5978 0169 01       		.uleb128 0x1
 5979 016a 9C       		.byte	0x9c
 5980 016b 96010000 		.4byte	0x196
 5981 016f 0B       		.uleb128 0xb
 5982 0170 63747800 		.ascii	"ctx\000"
 5983 0174 01       		.byte	0x1
 5984 0175 50       		.byte	0x50
 5985 0176 54010000 		.4byte	0x154
 5986 017a 21000000 		.4byte	.LLST1
 5987 017e 0C       		.uleb128 0xc
 5988 017f 0C000000 		.4byte	.LVL3
 5989 0183 6C090000 		.4byte	0x96c
 5990 0187 0D       		.uleb128 0xd
 5991 0188 01       		.uleb128 0x1
 5992 0189 50       		.byte	0x50
 5993 018a 03       		.uleb128 0x3
 5994 018b F3       		.byte	0xf3
 5995 018c 01       		.uleb128 0x1
 5996 018d 50       		.byte	0x50
 5997 018e 0D       		.uleb128 0xd
ARM GAS  C:\Users\Phuong\AppData\Local\Temp\ccbgGR22.s 			page 117


 5998 018f 01       		.uleb128 0x1
 5999 0190 51       		.byte	0x51
 6000 0191 02       		.uleb128 0x2
 6001 0192 08       		.byte	0x8
 6002 0193 5C       		.byte	0x5c
 6003 0194 00       		.byte	0
 6004 0195 00       		.byte	0
 6005 0196 0A       		.uleb128 0xa
 6006 0197 66010000 		.4byte	.LASF21
 6007 019b 01       		.byte	0x1
 6008 019c 58       		.byte	0x58
 6009 019d 00000000 		.4byte	.LFB3
 6010 01a1 0A000000 		.4byte	.LFE3-.LFB3
 6011 01a5 01       		.uleb128 0x1
 6012 01a6 9C       		.byte	0x9c
 6013 01a7 E8010000 		.4byte	0x1e8
 6014 01ab 0B       		.uleb128 0xb
 6015 01ac 64737400 		.ascii	"dst\000"
 6016 01b0 01       		.byte	0x1
 6017 01b1 58       		.byte	0x58
 6018 01b2 54010000 		.4byte	0x154
 6019 01b6 42000000 		.4byte	.LLST2
 6020 01ba 0B       		.uleb128 0xb
 6021 01bb 73726300 		.ascii	"src\000"
 6022 01bf 01       		.byte	0x1
 6023 01c0 59       		.byte	0x59
 6024 01c1 E8010000 		.4byte	0x1e8
 6025 01c5 63000000 		.4byte	.LLST3
 6026 01c9 0C       		.uleb128 0xc
 6027 01ca 08000000 		.4byte	.LVL5
 6028 01ce 77090000 		.4byte	0x977
 6029 01d2 0D       		.uleb128 0xd
 6030 01d3 01       		.uleb128 0x1
 6031 01d4 50       		.byte	0x50
 6032 01d5 03       		.uleb128 0x3
 6033 01d6 F3       		.byte	0xf3
 6034 01d7 01       		.uleb128 0x1
 6035 01d8 50       		.byte	0x50
 6036 01d9 0D       		.uleb128 0xd
 6037 01da 01       		.uleb128 0x1
 6038 01db 51       		.byte	0x51
 6039 01dc 03       		.uleb128 0x3
 6040 01dd F3       		.byte	0xf3
 6041 01de 01       		.uleb128 0x1
 6042 01df 51       		.byte	0x51
 6043 01e0 0D       		.uleb128 0xd
 6044 01e1 01       		.uleb128 0x1
 6045 01e2 52       		.byte	0x52
 6046 01e3 02       		.uleb128 0x2
 6047 01e4 08       		.byte	0x8
 6048 01e5 5C       		.byte	0x5c
 6049 01e6 00       		.byte	0
 6050 01e7 00       		.byte	0
 6051 01e8 09       		.uleb128 0x9
 6052 01e9 04       		.byte	0x4
 6053 01ea EE010000 		.4byte	0x1ee
 6054 01ee 0E       		.uleb128 0xe
ARM GAS  C:\Users\Phuong\AppData\Local\Temp\ccbgGR22.s 			page 118


 6055 01ef FB000000 		.4byte	0xfb
 6056 01f3 0F       		.uleb128 0xf
 6057 01f4 3F000000 		.4byte	.LASF23
 6058 01f8 01       		.byte	0x1
 6059 01f9 61       		.byte	0x61
 6060 01fa 68000000 		.4byte	0x68
 6061 01fe 00000000 		.4byte	.LFB4
 6062 0202 34000000 		.4byte	.LFE4-.LFB4
 6063 0206 01       		.uleb128 0x1
 6064 0207 9C       		.byte	0x9c
 6065 0208 1C020000 		.4byte	0x21c
 6066 020c 0B       		.uleb128 0xb
 6067 020d 63747800 		.ascii	"ctx\000"
 6068 0211 01       		.byte	0x1
 6069 0212 61       		.byte	0x61
 6070 0213 54010000 		.4byte	0x154
 6071 0217 84000000 		.4byte	.LLST4
 6072 021b 00       		.byte	0
 6073 021c 0A       		.uleb128 0xa
 6074 021d D7010000 		.4byte	.LASF22
 6075 0221 01       		.byte	0x1
 6076 0222 70       		.byte	0x70
 6077 0223 00000000 		.4byte	.LFB5
 6078 0227 08000000 		.4byte	.LFE5-.LFB5
 6079 022b 01       		.uleb128 0x1
 6080 022c 9C       		.byte	0x9c
 6081 022d 52020000 		.4byte	0x252
 6082 0231 0B       		.uleb128 0xb
 6083 0232 63747800 		.ascii	"ctx\000"
 6084 0236 01       		.byte	0x1
 6085 0237 70       		.byte	0x70
 6086 0238 54010000 		.4byte	0x154
 6087 023c A5000000 		.4byte	.LLST5
 6088 0240 0C       		.uleb128 0xc
 6089 0241 06000000 		.4byte	.LVL9
 6090 0245 F3010000 		.4byte	0x1f3
 6091 0249 0D       		.uleb128 0xd
 6092 024a 01       		.uleb128 0x1
 6093 024b 50       		.byte	0x50
 6094 024c 03       		.uleb128 0x3
 6095 024d F3       		.byte	0xf3
 6096 024e 01       		.uleb128 0x1
 6097 024f 50       		.byte	0x50
 6098 0250 00       		.byte	0
 6099 0251 00       		.byte	0
 6100 0252 0F       		.uleb128 0xf
 6101 0253 79000000 		.4byte	.LASF24
 6102 0257 01       		.byte	0x1
 6103 0258 7A       		.byte	0x7a
 6104 0259 68000000 		.4byte	0x68
 6105 025d 00000000 		.4byte	.LFB6
 6106 0261 041C0000 		.4byte	.LFE6-.LFB6
 6107 0265 01       		.uleb128 0x1
 6108 0266 9C       		.byte	0x9c
 6109 0267 1A030000 		.4byte	0x31a
 6110 026b 0B       		.uleb128 0xb
 6111 026c 63747800 		.ascii	"ctx\000"
ARM GAS  C:\Users\Phuong\AppData\Local\Temp\ccbgGR22.s 			page 119


 6112 0270 01       		.byte	0x1
 6113 0271 7A       		.byte	0x7a
 6114 0272 54010000 		.4byte	0x154
 6115 0276 C6000000 		.4byte	.LLST6
 6116 027a 10       		.uleb128 0x10
 6117 027b 90010000 		.4byte	.LASF25
 6118 027f 01       		.byte	0x1
 6119 0280 7B       		.byte	0x7b
 6120 0281 1A030000 		.4byte	0x31a
 6121 0285 F2000000 		.4byte	.LLST7
 6122 0289 11       		.uleb128 0x11
 6123 028a 4100     		.ascii	"A\000"
 6124 028c 01       		.byte	0x1
 6125 028d 7D       		.byte	0x7d
 6126 028e 88000000 		.4byte	0x88
 6127 0292 1E010000 		.4byte	.LLST8
 6128 0296 11       		.uleb128 0x11
 6129 0297 4200     		.ascii	"B\000"
 6130 0299 01       		.byte	0x1
 6131 029a 7D       		.byte	0x7d
 6132 029b 88000000 		.4byte	0x88
 6133 029f 3C070000 		.4byte	.LLST9
 6134 02a3 11       		.uleb128 0x11
 6135 02a4 4300     		.ascii	"C\000"
 6136 02a6 01       		.byte	0x1
 6137 02a7 7D       		.byte	0x7d
 6138 02a8 88000000 		.4byte	0x88
 6139 02ac 7B0C0000 		.4byte	.LLST10
 6140 02b0 11       		.uleb128 0x11
 6141 02b1 4400     		.ascii	"D\000"
 6142 02b3 01       		.byte	0x1
 6143 02b4 7D       		.byte	0x7d
 6144 02b5 88000000 		.4byte	0x88
 6145 02b9 F0110000 		.4byte	.LLST11
 6146 02bd 11       		.uleb128 0x11
 6147 02be 4500     		.ascii	"E\000"
 6148 02c0 01       		.byte	0x1
 6149 02c1 7D       		.byte	0x7d
 6150 02c2 88000000 		.4byte	0x88
 6151 02c6 5D170000 		.4byte	.LLST12
 6152 02ca 11       		.uleb128 0x11
 6153 02cb 417000   		.ascii	"Ap\000"
 6154 02ce 01       		.byte	0x1
 6155 02cf 7D       		.byte	0x7d
 6156 02d0 88000000 		.4byte	0x88
 6157 02d4 6A1C0000 		.4byte	.LLST13
 6158 02d8 11       		.uleb128 0x11
 6159 02d9 427000   		.ascii	"Bp\000"
 6160 02dc 01       		.byte	0x1
 6161 02dd 7D       		.byte	0x7d
 6162 02de 88000000 		.4byte	0x88
 6163 02e2 29210000 		.4byte	.LLST14
 6164 02e6 11       		.uleb128 0x11
 6165 02e7 437000   		.ascii	"Cp\000"
 6166 02ea 01       		.byte	0x1
 6167 02eb 7D       		.byte	0x7d
 6168 02ec 88000000 		.4byte	0x88
ARM GAS  C:\Users\Phuong\AppData\Local\Temp\ccbgGR22.s 			page 120


 6169 02f0 72260000 		.4byte	.LLST15
 6170 02f4 11       		.uleb128 0x11
 6171 02f5 447000   		.ascii	"Dp\000"
 6172 02f8 01       		.byte	0x1
 6173 02f9 7D       		.byte	0x7d
 6174 02fa 88000000 		.4byte	0x88
 6175 02fe 892B0000 		.4byte	.LLST16
 6176 0302 11       		.uleb128 0x11
 6177 0303 457000   		.ascii	"Ep\000"
 6178 0306 01       		.byte	0x1
 6179 0307 7D       		.byte	0x7d
 6180 0308 88000000 		.4byte	0x88
 6181 030c A1300000 		.4byte	.LLST17
 6182 0310 12       		.uleb128 0x12
 6183 0311 5800     		.ascii	"X\000"
 6184 0313 01       		.byte	0x1
 6185 0314 7D       		.byte	0x7d
 6186 0315 25030000 		.4byte	0x325
 6187 0319 00       		.byte	0
 6188 031a 09       		.uleb128 0x9
 6189 031b 04       		.byte	0x4
 6190 031c 20030000 		.4byte	0x320
 6191 0320 0E       		.uleb128 0xe
 6192 0321 2C000000 		.4byte	0x2c
 6193 0325 07       		.uleb128 0x7
 6194 0326 88000000 		.4byte	0x88
 6195 032a 35030000 		.4byte	0x335
 6196 032e 08       		.uleb128 0x8
 6197 032f D4000000 		.4byte	0xd4
 6198 0333 0F       		.byte	0xf
 6199 0334 00       		.byte	0
 6200 0335 13       		.uleb128 0x13
 6201 0336 17020000 		.4byte	.LASF26
 6202 033a 01       		.byte	0x1
 6203 033b 2F01     		.2byte	0x12f
 6204 033d 00000000 		.4byte	.LFB7
 6205 0341 08000000 		.4byte	.LFE7-.LFB7
 6206 0345 01       		.uleb128 0x1
 6207 0346 9C       		.byte	0x9c
 6208 0347 84030000 		.4byte	0x384
 6209 034b 14       		.uleb128 0x14
 6210 034c 63747800 		.ascii	"ctx\000"
 6211 0350 01       		.byte	0x1
 6212 0351 2F01     		.2byte	0x12f
 6213 0353 54010000 		.4byte	0x154
 6214 0357 A9340000 		.4byte	.LLST18
 6215 035b 15       		.uleb128 0x15
 6216 035c 90010000 		.4byte	.LASF25
 6217 0360 01       		.byte	0x1
 6218 0361 3001     		.2byte	0x130
 6219 0363 1A030000 		.4byte	0x31a
 6220 0367 CA340000 		.4byte	.LLST19
 6221 036b 0C       		.uleb128 0xc
 6222 036c 06000000 		.4byte	.LVL990
 6223 0370 52020000 		.4byte	0x252
 6224 0374 0D       		.uleb128 0xd
 6225 0375 01       		.uleb128 0x1
ARM GAS  C:\Users\Phuong\AppData\Local\Temp\ccbgGR22.s 			page 121


 6226 0376 50       		.byte	0x50
 6227 0377 03       		.uleb128 0x3
 6228 0378 F3       		.byte	0xf3
 6229 0379 01       		.uleb128 0x1
 6230 037a 50       		.byte	0x50
 6231 037b 0D       		.uleb128 0xd
 6232 037c 01       		.uleb128 0x1
 6233 037d 51       		.byte	0x51
 6234 037e 03       		.uleb128 0x3
 6235 037f F3       		.byte	0xf3
 6236 0380 01       		.uleb128 0x1
 6237 0381 51       		.byte	0x51
 6238 0382 00       		.byte	0
 6239 0383 00       		.byte	0
 6240 0384 16       		.uleb128 0x16
 6241 0385 A8010000 		.4byte	.LASF27
 6242 0389 01       		.byte	0x1
 6243 038a 3A01     		.2byte	0x13a
 6244 038c 68000000 		.4byte	0x68
 6245 0390 00000000 		.4byte	.LFB8
 6246 0394 90000000 		.4byte	.LFE8-.LFB8
 6247 0398 01       		.uleb128 0x1
 6248 0399 9C       		.byte	0x9c
 6249 039a 75040000 		.4byte	0x475
 6250 039e 14       		.uleb128 0x14
 6251 039f 63747800 		.ascii	"ctx\000"
 6252 03a3 01       		.byte	0x1
 6253 03a4 3A01     		.2byte	0x13a
 6254 03a6 54010000 		.4byte	0x154
 6255 03aa EB340000 		.4byte	.LLST20
 6256 03ae 15       		.uleb128 0x15
 6257 03af 18030000 		.4byte	.LASF28
 6258 03b3 01       		.byte	0x1
 6259 03b4 3B01     		.2byte	0x13b
 6260 03b6 1A030000 		.4byte	0x31a
 6261 03ba 3A350000 		.4byte	.LLST21
 6262 03be 15       		.uleb128 0x15
 6263 03bf 39040000 		.4byte	.LASF29
 6264 03c3 01       		.byte	0x1
 6265 03c4 3C01     		.2byte	0x13c
 6266 03c6 76000000 		.4byte	0x76
 6267 03ca 6E350000 		.4byte	.LLST22
 6268 03ce 17       		.uleb128 0x17
 6269 03cf 72657400 		.ascii	"ret\000"
 6270 03d3 01       		.byte	0x1
 6271 03d4 3E01     		.2byte	0x13e
 6272 03d6 68000000 		.4byte	0x68
 6273 03da A2350000 		.4byte	.LLST23
 6274 03de 18       		.uleb128 0x18
 6275 03df FC020000 		.4byte	.LASF30
 6276 03e3 01       		.byte	0x1
 6277 03e4 3F01     		.2byte	0x13f
 6278 03e6 76000000 		.4byte	0x76
 6279 03ea C0350000 		.4byte	.LLST24
 6280 03ee 18       		.uleb128 0x18
 6281 03ef 6B040000 		.4byte	.LASF31
 6282 03f3 01       		.byte	0x1
ARM GAS  C:\Users\Phuong\AppData\Local\Temp\ccbgGR22.s 			page 122


 6283 03f4 4001     		.2byte	0x140
 6284 03f6 88000000 		.4byte	0x88
 6285 03fa E9350000 		.4byte	.LLST25
 6286 03fe 19       		.uleb128 0x19
 6287 03ff 44000000 		.4byte	.LVL998
 6288 0403 77090000 		.4byte	0x977
 6289 0407 21040000 		.4byte	0x421
 6290 040b 0D       		.uleb128 0xd
 6291 040c 01       		.uleb128 0x1
 6292 040d 50       		.byte	0x50
 6293 040e 05       		.uleb128 0x5
 6294 040f 79       		.byte	0x79
 6295 0410 00       		.sleb128 0
 6296 0411 77       		.byte	0x77
 6297 0412 00       		.sleb128 0
 6298 0413 22       		.byte	0x22
 6299 0414 0D       		.uleb128 0xd
 6300 0415 01       		.uleb128 0x1
 6301 0416 51       		.byte	0x51
 6302 0417 02       		.uleb128 0x2
 6303 0418 75       		.byte	0x75
 6304 0419 00       		.sleb128 0
 6305 041a 0D       		.uleb128 0xd
 6306 041b 01       		.uleb128 0x1
 6307 041c 52       		.byte	0x52
 6308 041d 02       		.uleb128 0x2
 6309 041e 78       		.byte	0x78
 6310 041f 00       		.sleb128 0
 6311 0420 00       		.byte	0
 6312 0421 19       		.uleb128 0x19
 6313 0422 4C000000 		.4byte	.LVL999
 6314 0426 52020000 		.4byte	0x252
 6315 042a 3B040000 		.4byte	0x43b
 6316 042e 0D       		.uleb128 0xd
 6317 042f 01       		.uleb128 0x1
 6318 0430 50       		.byte	0x50
 6319 0431 02       		.uleb128 0x2
 6320 0432 76       		.byte	0x76
 6321 0433 00       		.sleb128 0
 6322 0434 0D       		.uleb128 0xd
 6323 0435 01       		.uleb128 0x1
 6324 0436 51       		.byte	0x51
 6325 0437 02       		.uleb128 0x2
 6326 0438 79       		.byte	0x79
 6327 0439 00       		.sleb128 0
 6328 043a 00       		.byte	0
 6329 043b 19       		.uleb128 0x19
 6330 043c 62000000 		.4byte	.LVL1003
 6331 0440 52020000 		.4byte	0x252
 6332 0444 55040000 		.4byte	0x455
 6333 0448 0D       		.uleb128 0xd
 6334 0449 01       		.uleb128 0x1
 6335 044a 50       		.byte	0x50
 6336 044b 02       		.uleb128 0x2
 6337 044c 76       		.byte	0x76
 6338 044d 00       		.sleb128 0
 6339 044e 0D       		.uleb128 0xd
ARM GAS  C:\Users\Phuong\AppData\Local\Temp\ccbgGR22.s 			page 123


 6340 044f 01       		.uleb128 0x1
 6341 0450 51       		.byte	0x51
 6342 0451 02       		.uleb128 0x2
 6343 0452 75       		.byte	0x75
 6344 0453 00       		.sleb128 0
 6345 0454 00       		.byte	0
 6346 0455 0C       		.uleb128 0xc
 6347 0456 7E000000 		.4byte	.LVL1007
 6348 045a 77090000 		.4byte	0x977
 6349 045e 0D       		.uleb128 0xd
 6350 045f 01       		.uleb128 0x1
 6351 0460 50       		.byte	0x50
 6352 0461 05       		.uleb128 0x5
 6353 0462 76       		.byte	0x76
 6354 0463 00       		.sleb128 0
 6355 0464 77       		.byte	0x77
 6356 0465 00       		.sleb128 0
 6357 0466 22       		.byte	0x22
 6358 0467 0D       		.uleb128 0xd
 6359 0468 01       		.uleb128 0x1
 6360 0469 51       		.byte	0x51
 6361 046a 02       		.uleb128 0x2
 6362 046b 75       		.byte	0x75
 6363 046c 00       		.sleb128 0
 6364 046d 0D       		.uleb128 0xd
 6365 046e 01       		.uleb128 0x1
 6366 046f 52       		.byte	0x52
 6367 0470 02       		.uleb128 0x2
 6368 0471 74       		.byte	0x74
 6369 0472 00       		.sleb128 0
 6370 0473 00       		.byte	0
 6371 0474 00       		.byte	0
 6372 0475 13       		.uleb128 0x13
 6373 0476 11010000 		.4byte	.LASF32
 6374 047a 01       		.byte	0x1
 6375 047b 6C01     		.2byte	0x16c
 6376 047d 00000000 		.4byte	.LFB9
 6377 0481 08000000 		.4byte	.LFE9-.LFB9
 6378 0485 01       		.uleb128 0x1
 6379 0486 9C       		.byte	0x9c
 6380 0487 DB040000 		.4byte	0x4db
 6381 048b 14       		.uleb128 0x14
 6382 048c 63747800 		.ascii	"ctx\000"
 6383 0490 01       		.byte	0x1
 6384 0491 6C01     		.2byte	0x16c
 6385 0493 54010000 		.4byte	0x154
 6386 0497 1E360000 		.4byte	.LLST26
 6387 049b 15       		.uleb128 0x15
 6388 049c 18030000 		.4byte	.LASF28
 6389 04a0 01       		.byte	0x1
 6390 04a1 6D01     		.2byte	0x16d
 6391 04a3 1A030000 		.4byte	0x31a
 6392 04a7 3F360000 		.4byte	.LLST27
 6393 04ab 15       		.uleb128 0x15
 6394 04ac 39040000 		.4byte	.LASF29
 6395 04b0 01       		.byte	0x1
 6396 04b1 6E01     		.2byte	0x16e
ARM GAS  C:\Users\Phuong\AppData\Local\Temp\ccbgGR22.s 			page 124


 6397 04b3 76000000 		.4byte	0x76
 6398 04b7 60360000 		.4byte	.LLST28
 6399 04bb 0C       		.uleb128 0xc
 6400 04bc 06000000 		.4byte	.LVL1015
 6401 04c0 84030000 		.4byte	0x384
 6402 04c4 0D       		.uleb128 0xd
 6403 04c5 01       		.uleb128 0x1
 6404 04c6 50       		.byte	0x50
 6405 04c7 03       		.uleb128 0x3
 6406 04c8 F3       		.byte	0xf3
 6407 04c9 01       		.uleb128 0x1
 6408 04ca 50       		.byte	0x50
 6409 04cb 0D       		.uleb128 0xd
 6410 04cc 01       		.uleb128 0x1
 6411 04cd 51       		.byte	0x51
 6412 04ce 03       		.uleb128 0x3
 6413 04cf F3       		.byte	0xf3
 6414 04d0 01       		.uleb128 0x1
 6415 04d1 51       		.byte	0x51
 6416 04d2 0D       		.uleb128 0xd
 6417 04d3 01       		.uleb128 0x1
 6418 04d4 52       		.byte	0x52
 6419 04d5 03       		.uleb128 0x3
 6420 04d6 F3       		.byte	0xf3
 6421 04d7 01       		.uleb128 0x1
 6422 04d8 52       		.byte	0x52
 6423 04d9 00       		.byte	0
 6424 04da 00       		.byte	0
 6425 04db 16       		.uleb128 0x16
 6426 04dc 5C000000 		.4byte	.LASF33
 6427 04e0 01       		.byte	0x1
 6428 04e1 7F01     		.2byte	0x17f
 6429 04e3 68000000 		.4byte	0x68
 6430 04e7 00000000 		.4byte	.LFB10
 6431 04eb C4000000 		.4byte	.LFE10-.LFB10
 6432 04ef 01       		.uleb128 0x1
 6433 04f0 9C       		.byte	0x9c
 6434 04f1 AD050000 		.4byte	0x5ad
 6435 04f5 14       		.uleb128 0x14
 6436 04f6 63747800 		.ascii	"ctx\000"
 6437 04fa 01       		.byte	0x1
 6438 04fb 7F01     		.2byte	0x17f
 6439 04fd 54010000 		.4byte	0x154
 6440 0501 81360000 		.4byte	.LLST29
 6441 0505 15       		.uleb128 0x15
 6442 0506 D0010000 		.4byte	.LASF34
 6443 050a 01       		.byte	0x1
 6444 050b 8001     		.2byte	0x180
 6445 050d 06010000 		.4byte	0x106
 6446 0511 AD360000 		.4byte	.LLST30
 6447 0515 17       		.uleb128 0x17
 6448 0516 72657400 		.ascii	"ret\000"
 6449 051a 01       		.byte	0x1
 6450 051b 8201     		.2byte	0x182
 6451 051d 68000000 		.4byte	0x68
 6452 0521 D9360000 		.4byte	.LLST31
 6453 0525 18       		.uleb128 0x18
ARM GAS  C:\Users\Phuong\AppData\Local\Temp\ccbgGR22.s 			page 125


 6454 0526 C5010000 		.4byte	.LASF35
 6455 052a 01       		.byte	0x1
 6456 052b 8301     		.2byte	0x183
 6457 052d 88000000 		.4byte	0x88
 6458 0531 F7360000 		.4byte	.LLST32
 6459 0535 18       		.uleb128 0x18
 6460 0536 70040000 		.4byte	.LASF36
 6461 053a 01       		.byte	0x1
 6462 053b 8301     		.2byte	0x183
 6463 053d 88000000 		.4byte	0x88
 6464 0541 0A370000 		.4byte	.LLST33
 6465 0545 18       		.uleb128 0x18
 6466 0546 EB030000 		.4byte	.LASF37
 6467 054a 01       		.byte	0x1
 6468 054b 8401     		.2byte	0x184
 6469 054d 88000000 		.4byte	0x88
 6470 0551 1D370000 		.4byte	.LLST34
 6471 0555 17       		.uleb128 0x17
 6472 0556 6C6F7700 		.ascii	"low\000"
 6473 055a 01       		.byte	0x1
 6474 055b 8401     		.2byte	0x184
 6475 055d 88000000 		.4byte	0x88
 6476 0561 30370000 		.4byte	.LLST35
 6477 0565 1A       		.uleb128 0x1a
 6478 0566 D6020000 		.4byte	.LASF38
 6479 056a 01       		.byte	0x1
 6480 056b 8501     		.2byte	0x185
 6481 056d AD050000 		.4byte	0x5ad
 6482 0571 02       		.uleb128 0x2
 6483 0572 91       		.byte	0x91
 6484 0573 68       		.sleb128 -24
 6485 0574 19       		.uleb128 0x19
 6486 0575 4E000000 		.4byte	.LVL1026
 6487 0579 84030000 		.4byte	0x384
 6488 057d 91050000 		.4byte	0x591
 6489 0581 0D       		.uleb128 0xd
 6490 0582 01       		.uleb128 0x1
 6491 0583 50       		.byte	0x50
 6492 0584 02       		.uleb128 0x2
 6493 0585 74       		.byte	0x74
 6494 0586 00       		.sleb128 0
 6495 0587 0D       		.uleb128 0xd
 6496 0588 01       		.uleb128 0x1
 6497 0589 51       		.byte	0x51
 6498 058a 05       		.uleb128 0x5
 6499 058b 03       		.byte	0x3
 6500 058c 00000000 		.4byte	.LANCHOR0
 6501 0590 00       		.byte	0
 6502 0591 0C       		.uleb128 0xc
 6503 0592 5C000000 		.4byte	.LVL1028
 6504 0596 84030000 		.4byte	0x384
 6505 059a 0D       		.uleb128 0xd
 6506 059b 01       		.uleb128 0x1
 6507 059c 50       		.byte	0x50
 6508 059d 02       		.uleb128 0x2
 6509 059e 74       		.byte	0x74
 6510 059f 00       		.sleb128 0
ARM GAS  C:\Users\Phuong\AppData\Local\Temp\ccbgGR22.s 			page 126


 6511 05a0 0D       		.uleb128 0xd
 6512 05a1 01       		.uleb128 0x1
 6513 05a2 51       		.byte	0x51
 6514 05a3 02       		.uleb128 0x2
 6515 05a4 76       		.byte	0x76
 6516 05a5 00       		.sleb128 0
 6517 05a6 0D       		.uleb128 0xd
 6518 05a7 01       		.uleb128 0x1
 6519 05a8 52       		.byte	0x52
 6520 05a9 01       		.uleb128 0x1
 6521 05aa 38       		.byte	0x38
 6522 05ab 00       		.byte	0
 6523 05ac 00       		.byte	0
 6524 05ad 07       		.uleb128 0x7
 6525 05ae 2C000000 		.4byte	0x2c
 6526 05b2 BD050000 		.4byte	0x5bd
 6527 05b6 08       		.uleb128 0x8
 6528 05b7 D4000000 		.4byte	0xd4
 6529 05bb 07       		.byte	0x7
 6530 05bc 00       		.byte	0
 6531 05bd 13       		.uleb128 0x13
 6532 05be F7030000 		.4byte	.LASF39
 6533 05c2 01       		.byte	0x1
 6534 05c3 A301     		.2byte	0x1a3
 6535 05c5 00000000 		.4byte	.LFB11
 6536 05c9 08000000 		.4byte	.LFE11-.LFB11
 6537 05cd 01       		.uleb128 0x1
 6538 05ce 9C       		.byte	0x9c
 6539 05cf 0C060000 		.4byte	0x60c
 6540 05d3 14       		.uleb128 0x14
 6541 05d4 63747800 		.ascii	"ctx\000"
 6542 05d8 01       		.byte	0x1
 6543 05d9 A301     		.2byte	0x1a3
 6544 05db 54010000 		.4byte	0x154
 6545 05df 52370000 		.4byte	.LLST36
 6546 05e3 15       		.uleb128 0x15
 6547 05e4 D0010000 		.4byte	.LASF34
 6548 05e8 01       		.byte	0x1
 6549 05e9 A401     		.2byte	0x1a4
 6550 05eb 06010000 		.4byte	0x106
 6551 05ef 73370000 		.4byte	.LLST37
 6552 05f3 0C       		.uleb128 0xc
 6553 05f4 06000000 		.4byte	.LVL1032
 6554 05f8 DB040000 		.4byte	0x4db
 6555 05fc 0D       		.uleb128 0xd
 6556 05fd 01       		.uleb128 0x1
 6557 05fe 50       		.byte	0x50
 6558 05ff 03       		.uleb128 0x3
 6559 0600 F3       		.byte	0xf3
 6560 0601 01       		.uleb128 0x1
 6561 0602 50       		.byte	0x50
 6562 0603 0D       		.uleb128 0xd
 6563 0604 01       		.uleb128 0x1
 6564 0605 51       		.byte	0x51
 6565 0606 03       		.uleb128 0x3
 6566 0607 F3       		.byte	0xf3
 6567 0608 01       		.uleb128 0x1
ARM GAS  C:\Users\Phuong\AppData\Local\Temp\ccbgGR22.s 			page 127


 6568 0609 51       		.byte	0x51
 6569 060a 00       		.byte	0
 6570 060b 00       		.byte	0
 6571 060c 16       		.uleb128 0x16
 6572 060d 91040000 		.4byte	.LASF40
 6573 0611 01       		.byte	0x1
 6574 0612 AF01     		.2byte	0x1af
 6575 0614 68000000 		.4byte	0x68
 6576 0618 00000000 		.4byte	.LFB12
 6577 061c 3E000000 		.4byte	.LFE12-.LFB12
 6578 0620 01       		.uleb128 0x1
 6579 0621 9C       		.byte	0x9c
 6580 0622 FA060000 		.4byte	0x6fa
 6581 0626 15       		.uleb128 0x15
 6582 0627 18030000 		.4byte	.LASF28
 6583 062b 01       		.byte	0x1
 6584 062c AF01     		.2byte	0x1af
 6585 062e 1A030000 		.4byte	0x31a
 6586 0632 94370000 		.4byte	.LLST38
 6587 0636 15       		.uleb128 0x15
 6588 0637 39040000 		.4byte	.LASF29
 6589 063b 01       		.byte	0x1
 6590 063c B001     		.2byte	0x1b0
 6591 063e 76000000 		.4byte	0x76
 6592 0642 C0370000 		.4byte	.LLST39
 6593 0646 15       		.uleb128 0x15
 6594 0647 D0010000 		.4byte	.LASF34
 6595 064b 01       		.byte	0x1
 6596 064c B101     		.2byte	0x1b1
 6597 064e 06010000 		.4byte	0x106
 6598 0652 EC370000 		.4byte	.LLST40
 6599 0656 17       		.uleb128 0x17
 6600 0657 72657400 		.ascii	"ret\000"
 6601 065b 01       		.byte	0x1
 6602 065c B301     		.2byte	0x1b3
 6603 065e 68000000 		.4byte	0x68
 6604 0662 18380000 		.4byte	.LLST41
 6605 0666 1B       		.uleb128 0x1b
 6606 0667 63747800 		.ascii	"ctx\000"
 6607 066b 01       		.byte	0x1
 6608 066c B401     		.2byte	0x1b4
 6609 066e FB000000 		.4byte	0xfb
 6610 0672 03       		.uleb128 0x3
 6611 0673 91       		.byte	0x91
 6612 0674 8C7F     		.sleb128 -116
 6613 0676 1C       		.uleb128 0x1c
 6614 0677 13030000 		.4byte	.LASF44
 6615 067b 01       		.byte	0x1
 6616 067c C101     		.2byte	0x1c1
 6617 067e 32000000 		.4byte	.L52
 6618 0682 19       		.uleb128 0x19
 6619 0683 10000000 		.4byte	.LVL1035
 6620 0687 13010000 		.4byte	0x113
 6621 068b 97060000 		.4byte	0x697
 6622 068f 0D       		.uleb128 0xd
 6623 0690 01       		.uleb128 0x1
 6624 0691 50       		.byte	0x50
ARM GAS  C:\Users\Phuong\AppData\Local\Temp\ccbgGR22.s 			page 128


 6625 0692 03       		.uleb128 0x3
 6626 0693 91       		.byte	0x91
 6627 0694 8C7F     		.sleb128 -116
 6628 0696 00       		.byte	0
 6629 0697 19       		.uleb128 0x19
 6630 0698 16000000 		.4byte	.LVL1036
 6631 069c F3010000 		.4byte	0x1f3
 6632 06a0 AC060000 		.4byte	0x6ac
 6633 06a4 0D       		.uleb128 0xd
 6634 06a5 01       		.uleb128 0x1
 6635 06a6 50       		.byte	0x50
 6636 06a7 03       		.uleb128 0x3
 6637 06a8 91       		.byte	0x91
 6638 06a9 8C7F     		.sleb128 -116
 6639 06ab 00       		.byte	0
 6640 06ac 19       		.uleb128 0x19
 6641 06ad 24000000 		.4byte	.LVL1039
 6642 06b1 84030000 		.4byte	0x384
 6643 06b5 CD060000 		.4byte	0x6cd
 6644 06b9 0D       		.uleb128 0xd
 6645 06ba 01       		.uleb128 0x1
 6646 06bb 50       		.byte	0x50
 6647 06bc 03       		.uleb128 0x3
 6648 06bd 91       		.byte	0x91
 6649 06be 8C7F     		.sleb128 -116
 6650 06c0 0D       		.uleb128 0xd
 6651 06c1 01       		.uleb128 0x1
 6652 06c2 51       		.byte	0x51
 6653 06c3 02       		.uleb128 0x2
 6654 06c4 75       		.byte	0x75
 6655 06c5 00       		.sleb128 0
 6656 06c6 0D       		.uleb128 0xd
 6657 06c7 01       		.uleb128 0x1
 6658 06c8 52       		.byte	0x52
 6659 06c9 02       		.uleb128 0x2
 6660 06ca 76       		.byte	0x76
 6661 06cb 00       		.sleb128 0
 6662 06cc 00       		.byte	0
 6663 06cd 19       		.uleb128 0x19
 6664 06ce 30000000 		.4byte	.LVL1042
 6665 06d2 DB040000 		.4byte	0x4db
 6666 06d6 E8060000 		.4byte	0x6e8
 6667 06da 0D       		.uleb128 0xd
 6668 06db 01       		.uleb128 0x1
 6669 06dc 50       		.byte	0x50
 6670 06dd 03       		.uleb128 0x3
 6671 06de 91       		.byte	0x91
 6672 06df 8C7F     		.sleb128 -116
 6673 06e1 0D       		.uleb128 0xd
 6674 06e2 01       		.uleb128 0x1
 6675 06e3 51       		.byte	0x51
 6676 06e4 02       		.uleb128 0x2
 6677 06e5 77       		.byte	0x77
 6678 06e6 00       		.sleb128 0
 6679 06e7 00       		.byte	0
 6680 06e8 0C       		.uleb128 0xc
 6681 06e9 38000000 		.4byte	.LVL1045
ARM GAS  C:\Users\Phuong\AppData\Local\Temp\ccbgGR22.s 			page 129


 6682 06ed 5A010000 		.4byte	0x15a
 6683 06f1 0D       		.uleb128 0xd
 6684 06f2 01       		.uleb128 0x1
 6685 06f3 50       		.byte	0x50
 6686 06f4 03       		.uleb128 0x3
 6687 06f5 91       		.byte	0x91
 6688 06f6 8C7F     		.sleb128 -116
 6689 06f8 00       		.byte	0
 6690 06f9 00       		.byte	0
 6691 06fa 13       		.uleb128 0x13
 6692 06fb 2A010000 		.4byte	.LASF41
 6693 06ff 01       		.byte	0x1
 6694 0700 C801     		.2byte	0x1c8
 6695 0702 00000000 		.4byte	.LFB13
 6696 0706 08000000 		.4byte	.LFE13-.LFB13
 6697 070a 01       		.uleb128 0x1
 6698 070b 9C       		.byte	0x9c
 6699 070c 60070000 		.4byte	0x760
 6700 0710 15       		.uleb128 0x15
 6701 0711 18030000 		.4byte	.LASF28
 6702 0715 01       		.byte	0x1
 6703 0716 C801     		.2byte	0x1c8
 6704 0718 1A030000 		.4byte	0x31a
 6705 071c 6D380000 		.4byte	.LLST42
 6706 0720 15       		.uleb128 0x15
 6707 0721 39040000 		.4byte	.LASF29
 6708 0725 01       		.byte	0x1
 6709 0726 C901     		.2byte	0x1c9
 6710 0728 76000000 		.4byte	0x76
 6711 072c 8E380000 		.4byte	.LLST43
 6712 0730 15       		.uleb128 0x15
 6713 0731 D0010000 		.4byte	.LASF34
 6714 0735 01       		.byte	0x1
 6715 0736 CA01     		.2byte	0x1ca
 6716 0738 06010000 		.4byte	0x106
 6717 073c AF380000 		.4byte	.LLST44
 6718 0740 0C       		.uleb128 0xc
 6719 0741 06000000 		.4byte	.LVL1051
 6720 0745 0C060000 		.4byte	0x60c
 6721 0749 0D       		.uleb128 0xd
 6722 074a 01       		.uleb128 0x1
 6723 074b 50       		.byte	0x50
 6724 074c 03       		.uleb128 0x3
 6725 074d F3       		.byte	0xf3
 6726 074e 01       		.uleb128 0x1
 6727 074f 50       		.byte	0x50
 6728 0750 0D       		.uleb128 0xd
 6729 0751 01       		.uleb128 0x1
 6730 0752 51       		.byte	0x51
 6731 0753 03       		.uleb128 0x3
 6732 0754 F3       		.byte	0xf3
 6733 0755 01       		.uleb128 0x1
 6734 0756 51       		.byte	0x51
 6735 0757 0D       		.uleb128 0xd
 6736 0758 01       		.uleb128 0x1
 6737 0759 52       		.byte	0x52
 6738 075a 03       		.uleb128 0x3
ARM GAS  C:\Users\Phuong\AppData\Local\Temp\ccbgGR22.s 			page 130


 6739 075b F3       		.byte	0xf3
 6740 075c 01       		.uleb128 0x1
 6741 075d 52       		.byte	0x52
 6742 075e 00       		.byte	0
 6743 075f 00       		.byte	0
 6744 0760 16       		.uleb128 0x16
 6745 0761 75040000 		.4byte	.LASF42
 6746 0765 01       		.byte	0x1
 6747 0766 FF01     		.2byte	0x1ff
 6748 0768 68000000 		.4byte	0x68
 6749 076c 00000000 		.4byte	.LFB14
 6750 0770 A4000000 		.4byte	.LFE14-.LFB14
 6751 0774 01       		.uleb128 0x1
 6752 0775 9C       		.byte	0x9c
 6753 0776 A6080000 		.4byte	0x8a6
 6754 077a 15       		.uleb128 0x15
 6755 077b DC030000 		.4byte	.LASF43
 6756 077f 01       		.byte	0x1
 6757 0780 FF01     		.2byte	0x1ff
 6758 0782 68000000 		.4byte	0x68
 6759 0786 D0380000 		.4byte	.LLST45
 6760 078a 17       		.uleb128 0x17
 6761 078b 6900     		.ascii	"i\000"
 6762 078d 01       		.byte	0x1
 6763 078e 0102     		.2byte	0x201
 6764 0790 68000000 		.4byte	0x68
 6765 0794 FC380000 		.4byte	.LLST46
 6766 0798 17       		.uleb128 0x17
 6767 0799 72657400 		.ascii	"ret\000"
 6768 079d 01       		.byte	0x1
 6769 079e 0102     		.2byte	0x201
 6770 07a0 68000000 		.4byte	0x68
 6771 07a4 1B390000 		.4byte	.LLST47
 6772 07a8 1A       		.uleb128 0x1a
 6773 07a9 D0010000 		.4byte	.LASF34
 6774 07ad 01       		.byte	0x1
 6775 07ae 0202     		.2byte	0x202
 6776 07b0 A6080000 		.4byte	0x8a6
 6777 07b4 02       		.uleb128 0x2
 6778 07b5 91       		.byte	0x91
 6779 07b6 5C       		.sleb128 -36
 6780 07b7 1C       		.uleb128 0x1c
 6781 07b8 27030000 		.4byte	.LASF45
 6782 07bc 01       		.byte	0x1
 6783 07bd 1F02     		.2byte	0x21f
 6784 07bf 78000000 		.4byte	.L57
 6785 07c3 19       		.uleb128 0x19
 6786 07c4 10000000 		.4byte	.LVL1055
 6787 07c8 63090000 		.4byte	0x963
 6788 07cc E1070000 		.4byte	0x7e1
 6789 07d0 0D       		.uleb128 0xd
 6790 07d1 01       		.uleb128 0x1
 6791 07d2 50       		.byte	0x50
 6792 07d3 02       		.uleb128 0x2
 6793 07d4 91       		.byte	0x91
 6794 07d5 5C       		.sleb128 -36
 6795 07d6 0D       		.uleb128 0xd
ARM GAS  C:\Users\Phuong\AppData\Local\Temp\ccbgGR22.s 			page 131


 6796 07d7 01       		.uleb128 0x1
 6797 07d8 51       		.byte	0x51
 6798 07d9 01       		.uleb128 0x1
 6799 07da 30       		.byte	0x30
 6800 07db 0D       		.uleb128 0xd
 6801 07dc 01       		.uleb128 0x1
 6802 07dd 52       		.byte	0x52
 6803 07de 01       		.uleb128 0x1
 6804 07df 44       		.byte	0x44
 6805 07e0 00       		.byte	0
 6806 07e1 19       		.uleb128 0x19
 6807 07e2 20000000 		.4byte	.LVL1057
 6808 07e6 80090000 		.4byte	0x980
 6809 07ea FE070000 		.4byte	0x7fe
 6810 07ee 0D       		.uleb128 0xd
 6811 07ef 01       		.uleb128 0x1
 6812 07f0 50       		.byte	0x50
 6813 07f1 05       		.uleb128 0x5
 6814 07f2 03       		.byte	0x3
 6815 07f3 00000000 		.4byte	.LC1
 6816 07f7 0D       		.uleb128 0xd
 6817 07f8 01       		.uleb128 0x1
 6818 07f9 51       		.byte	0x51
 6819 07fa 02       		.uleb128 0x2
 6820 07fb 74       		.byte	0x74
 6821 07fc 01       		.sleb128 1
 6822 07fd 00       		.byte	0
 6823 07fe 19       		.uleb128 0x19
 6824 07ff 3C000000 		.4byte	.LVL1058
 6825 0803 0C060000 		.4byte	0x60c
 6826 0807 3C080000 		.4byte	0x83c
 6827 080b 0D       		.uleb128 0xd
 6828 080c 01       		.uleb128 0x1
 6829 080d 50       		.byte	0x50
 6830 080e 17       		.uleb128 0x17
 6831 080f 74       		.byte	0x74
 6832 0810 00       		.sleb128 0
 6833 0811 33       		.byte	0x33
 6834 0812 24       		.byte	0x24
 6835 0813 74       		.byte	0x74
 6836 0814 00       		.sleb128 0
 6837 0815 33       		.byte	0x33
 6838 0816 24       		.byte	0x24
 6839 0817 74       		.byte	0x74
 6840 0818 00       		.sleb128 0
 6841 0819 22       		.byte	0x22
 6842 081a 33       		.byte	0x33
 6843 081b 24       		.byte	0x24
 6844 081c 22       		.byte	0x22
 6845 081d 74       		.byte	0x74
 6846 081e 00       		.sleb128 0
 6847 081f 22       		.byte	0x22
 6848 0820 03       		.byte	0x3
 6849 0821 40000000 		.4byte	.LANCHOR0+64
 6850 0825 22       		.byte	0x22
 6851 0826 0D       		.uleb128 0xd
 6852 0827 01       		.uleb128 0x1
ARM GAS  C:\Users\Phuong\AppData\Local\Temp\ccbgGR22.s 			page 132


 6853 0828 51       		.byte	0x51
 6854 0829 0B       		.uleb128 0xb
 6855 082a 74       		.byte	0x74
 6856 082b 00       		.sleb128 0
 6857 082c 32       		.byte	0x32
 6858 082d 24       		.byte	0x24
 6859 082e 03       		.byte	0x3
 6860 082f C8020000 		.4byte	.LANCHOR1+72
 6861 0833 22       		.byte	0x22
 6862 0834 06       		.byte	0x6
 6863 0835 0D       		.uleb128 0xd
 6864 0836 01       		.uleb128 0x1
 6865 0837 52       		.byte	0x52
 6866 0838 02       		.uleb128 0x2
 6867 0839 91       		.byte	0x91
 6868 083a 5C       		.sleb128 -36
 6869 083b 00       		.byte	0
 6870 083c 19       		.uleb128 0x19
 6871 083d 54000000 		.4byte	.LVL1061
 6872 0841 8B090000 		.4byte	0x98b
 6873 0845 68080000 		.4byte	0x868
 6874 0849 0D       		.uleb128 0xd
 6875 084a 01       		.uleb128 0x1
 6876 084b 50       		.byte	0x50
 6877 084c 02       		.uleb128 0x2
 6878 084d 91       		.byte	0x91
 6879 084e 5C       		.sleb128 -36
 6880 084f 0D       		.uleb128 0xd
 6881 0850 01       		.uleb128 0x1
 6882 0851 51       		.byte	0x51
 6883 0852 0F       		.uleb128 0xf
 6884 0853 74       		.byte	0x74
 6885 0854 00       		.sleb128 0
 6886 0855 32       		.byte	0x32
 6887 0856 24       		.byte	0x24
 6888 0857 74       		.byte	0x74
 6889 0858 00       		.sleb128 0
 6890 0859 22       		.byte	0x22
 6891 085a 32       		.byte	0x32
 6892 085b 24       		.byte	0x24
 6893 085c 03       		.byte	0x3
 6894 085d E8020000 		.4byte	.LANCHOR1+104
 6895 0861 22       		.byte	0x22
 6896 0862 0D       		.uleb128 0xd
 6897 0863 01       		.uleb128 0x1
 6898 0864 52       		.byte	0x52
 6899 0865 01       		.uleb128 0x1
 6900 0866 44       		.byte	0x44
 6901 0867 00       		.byte	0
 6902 0868 19       		.uleb128 0x19
 6903 0869 62000000 		.4byte	.LVL1062
 6904 086d 96090000 		.4byte	0x996
 6905 0871 7F080000 		.4byte	0x87f
 6906 0875 0D       		.uleb128 0xd
 6907 0876 01       		.uleb128 0x1
 6908 0877 50       		.byte	0x50
 6909 0878 05       		.uleb128 0x5
ARM GAS  C:\Users\Phuong\AppData\Local\Temp\ccbgGR22.s 			page 133


 6910 0879 03       		.byte	0x3
 6911 087a 18000000 		.4byte	.LC5
 6912 087e 00       		.byte	0
 6913 087f 19       		.uleb128 0x19
 6914 0880 72000000 		.4byte	.LVL1064
 6915 0884 A5090000 		.4byte	0x9a5
 6916 0888 92080000 		.4byte	0x892
 6917 088c 0D       		.uleb128 0xd
 6918 088d 01       		.uleb128 0x1
 6919 088e 50       		.byte	0x50
 6920 088f 01       		.uleb128 0x1
 6921 0890 3A       		.byte	0x3a
 6922 0891 00       		.byte	0
 6923 0892 0C       		.uleb128 0xc
 6924 0893 82000000 		.4byte	.LVL1067
 6925 0897 96090000 		.4byte	0x996
 6926 089b 0D       		.uleb128 0xd
 6927 089c 01       		.uleb128 0x1
 6928 089d 50       		.byte	0x50
 6929 089e 05       		.uleb128 0x5
 6930 089f 03       		.byte	0x3
 6931 08a0 20000000 		.4byte	.LC7
 6932 08a4 00       		.byte	0
 6933 08a5 00       		.byte	0
 6934 08a6 07       		.uleb128 0x7
 6935 08a7 2C000000 		.4byte	0x2c
 6936 08ab B6080000 		.4byte	0x8b6
 6937 08af 08       		.uleb128 0x8
 6938 08b0 D4000000 		.4byte	0xd4
 6939 08b4 13       		.byte	0x13
 6940 08b5 00       		.byte	0
 6941 08b6 07       		.uleb128 0x7
 6942 08b7 20030000 		.4byte	0x320
 6943 08bb C6080000 		.4byte	0x8c6
 6944 08bf 08       		.uleb128 0x8
 6945 08c0 D4000000 		.4byte	0xd4
 6946 08c4 3F       		.byte	0x3f
 6947 08c5 00       		.byte	0
 6948 08c6 1A       		.uleb128 0x1a
 6949 08c7 F9010000 		.4byte	.LASF46
 6950 08cb 01       		.byte	0x1
 6951 08cc 7401     		.2byte	0x174
 6952 08ce D8080000 		.4byte	0x8d8
 6953 08d2 05       		.uleb128 0x5
 6954 08d3 03       		.byte	0x3
 6955 08d4 00000000 		.4byte	ripemd160_padding
 6956 08d8 0E       		.uleb128 0xe
 6957 08d9 B6080000 		.4byte	0x8b6
 6958 08dd 07       		.uleb128 0x7
 6959 08de 20030000 		.4byte	0x320
 6960 08e2 F3080000 		.4byte	0x8f3
 6961 08e6 08       		.uleb128 0x8
 6962 08e7 D4000000 		.4byte	0xd4
 6963 08eb 07       		.byte	0x7
 6964 08ec 08       		.uleb128 0x8
 6965 08ed D4000000 		.4byte	0xd4
 6966 08f1 50       		.byte	0x50
ARM GAS  C:\Users\Phuong\AppData\Local\Temp\ccbgGR22.s 			page 134


 6967 08f2 00       		.byte	0
 6968 08f3 1A       		.uleb128 0x1a
 6969 08f4 10040000 		.4byte	.LASF47
 6970 08f8 01       		.byte	0x1
 6971 08f9 D601     		.2byte	0x1d6
 6972 08fb 05090000 		.4byte	0x905
 6973 08ff 05       		.uleb128 0x5
 6974 0900 03       		.byte	0x3
 6975 0901 40000000 		.4byte	ripemd160_test_str
 6976 0905 0E       		.uleb128 0xe
 6977 0906 DD080000 		.4byte	0x8dd
 6978 090a 07       		.uleb128 0x7
 6979 090b 1A090000 		.4byte	0x91a
 6980 090f 1A090000 		.4byte	0x91a
 6981 0913 08       		.uleb128 0x8
 6982 0914 D4000000 		.4byte	0xd4
 6983 0918 07       		.byte	0x7
 6984 0919 00       		.byte	0
 6985 091a 0E       		.uleb128 0xe
 6986 091b 76000000 		.4byte	0x76
 6987 091f 1A       		.uleb128 0x1a
 6988 0920 23040000 		.4byte	.LASF48
 6989 0924 01       		.byte	0x1
 6990 0925 E301     		.2byte	0x1e3
 6991 0927 31090000 		.4byte	0x931
 6992 092b 05       		.uleb128 0x5
 6993 092c 03       		.byte	0x3
 6994 092d C8020000 		.4byte	ripemd160_test_strlen
 6995 0931 0E       		.uleb128 0xe
 6996 0932 0A090000 		.4byte	0x90a
 6997 0936 07       		.uleb128 0x7
 6998 0937 20030000 		.4byte	0x320
 6999 093b 4C090000 		.4byte	0x94c
 7000 093f 08       		.uleb128 0x8
 7001 0940 D4000000 		.4byte	0xd4
 7002 0944 07       		.byte	0x7
 7003 0945 08       		.uleb128 0x8
 7004 0946 D4000000 		.4byte	0xd4
 7005 094a 13       		.byte	0x13
 7006 094b 00       		.byte	0
 7007 094c 1A       		.uleb128 0x1a
 7008 094d 01030000 		.4byte	.LASF49
 7009 0951 01       		.byte	0x1
 7010 0952 E801     		.2byte	0x1e8
 7011 0954 5E090000 		.4byte	0x95e
 7012 0958 05       		.uleb128 0x5
 7013 0959 03       		.byte	0x3
 7014 095a E8020000 		.4byte	ripemd160_test_md
 7015 095e 0E       		.uleb128 0xe
 7016 095f 36090000 		.4byte	0x936
 7017 0963 1D       		.uleb128 0x1d
 7018 0964 F5020000 		.4byte	.LASF50
 7019 0968 F5020000 		.4byte	.LASF50
 7020 096c 1E       		.uleb128 0x1e
 7021 096d C3030000 		.4byte	.LASF52
 7022 0971 C3030000 		.4byte	.LASF52
 7023 0975 06       		.byte	0x6
ARM GAS  C:\Users\Phuong\AppData\Local\Temp\ccbgGR22.s 			page 135


 7024 0976 42       		.byte	0x42
 7025 0977 1D       		.uleb128 0x1d
 7026 0978 02010000 		.4byte	.LASF51
 7027 097c 02010000 		.4byte	.LASF51
 7028 0980 1E       		.uleb128 0x1e
 7029 0981 00000000 		.4byte	.LASF53
 7030 0985 00000000 		.4byte	.LASF53
 7031 0989 07       		.byte	0x7
 7032 098a BB       		.byte	0xbb
 7033 098b 1E       		.uleb128 0x1e
 7034 098c F0030000 		.4byte	.LASF54
 7035 0990 F0030000 		.4byte	.LASF54
 7036 0994 08       		.byte	0x8
 7037 0995 16       		.byte	0x16
 7038 0996 1F       		.uleb128 0x1f
 7039 0997 66040000 		.4byte	.LASF55
 7040 099b F3000000 		.4byte	.LASF57
 7041 099f 09       		.byte	0x9
 7042 09a0 00       		.byte	0
 7043 09a1 66040000 		.4byte	.LASF55
 7044 09a5 1F       		.uleb128 0x1f
 7045 09a6 09010000 		.4byte	.LASF56
 7046 09aa 7E010000 		.4byte	.LASF58
 7047 09ae 09       		.byte	0x9
 7048 09af 00       		.byte	0
 7049 09b0 09010000 		.4byte	.LASF56
 7050 09b4 00       		.byte	0
 7051              		.section	.debug_abbrev,"",%progbits
 7052              	.Ldebug_abbrev0:
 7053 0000 01       		.uleb128 0x1
 7054 0001 11       		.uleb128 0x11
 7055 0002 01       		.byte	0x1
 7056 0003 25       		.uleb128 0x25
 7057 0004 0E       		.uleb128 0xe
 7058 0005 13       		.uleb128 0x13
 7059 0006 0B       		.uleb128 0xb
 7060 0007 03       		.uleb128 0x3
 7061 0008 0E       		.uleb128 0xe
 7062 0009 1B       		.uleb128 0x1b
 7063 000a 0E       		.uleb128 0xe
 7064 000b 55       		.uleb128 0x55
 7065 000c 17       		.uleb128 0x17
 7066 000d 11       		.uleb128 0x11
 7067 000e 01       		.uleb128 0x1
 7068 000f 10       		.uleb128 0x10
 7069 0010 17       		.uleb128 0x17
 7070 0011 00       		.byte	0
 7071 0012 00       		.byte	0
 7072 0013 02       		.uleb128 0x2
 7073 0014 24       		.uleb128 0x24
 7074 0015 00       		.byte	0
 7075 0016 0B       		.uleb128 0xb
 7076 0017 0B       		.uleb128 0xb
 7077 0018 3E       		.uleb128 0x3e
 7078 0019 0B       		.uleb128 0xb
 7079 001a 03       		.uleb128 0x3
 7080 001b 0E       		.uleb128 0xe
ARM GAS  C:\Users\Phuong\AppData\Local\Temp\ccbgGR22.s 			page 136


 7081 001c 00       		.byte	0
 7082 001d 00       		.byte	0
 7083 001e 03       		.uleb128 0x3
 7084 001f 16       		.uleb128 0x16
 7085 0020 00       		.byte	0
 7086 0021 03       		.uleb128 0x3
 7087 0022 0E       		.uleb128 0xe
 7088 0023 3A       		.uleb128 0x3a
 7089 0024 0B       		.uleb128 0xb
 7090 0025 3B       		.uleb128 0x3b
 7091 0026 0B       		.uleb128 0xb
 7092 0027 49       		.uleb128 0x49
 7093 0028 13       		.uleb128 0x13
 7094 0029 00       		.byte	0
 7095 002a 00       		.byte	0
 7096 002b 04       		.uleb128 0x4
 7097 002c 24       		.uleb128 0x24
 7098 002d 00       		.byte	0
 7099 002e 0B       		.uleb128 0xb
 7100 002f 0B       		.uleb128 0xb
 7101 0030 3E       		.uleb128 0x3e
 7102 0031 0B       		.uleb128 0xb
 7103 0032 03       		.uleb128 0x3
 7104 0033 08       		.uleb128 0x8
 7105 0034 00       		.byte	0
 7106 0035 00       		.byte	0
 7107 0036 05       		.uleb128 0x5
 7108 0037 13       		.uleb128 0x13
 7109 0038 01       		.byte	0x1
 7110 0039 03       		.uleb128 0x3
 7111 003a 0E       		.uleb128 0xe
 7112 003b 0B       		.uleb128 0xb
 7113 003c 0B       		.uleb128 0xb
 7114 003d 3A       		.uleb128 0x3a
 7115 003e 0B       		.uleb128 0xb
 7116 003f 3B       		.uleb128 0x3b
 7117 0040 0B       		.uleb128 0xb
 7118 0041 01       		.uleb128 0x1
 7119 0042 13       		.uleb128 0x13
 7120 0043 00       		.byte	0
 7121 0044 00       		.byte	0
 7122 0045 06       		.uleb128 0x6
 7123 0046 0D       		.uleb128 0xd
 7124 0047 00       		.byte	0
 7125 0048 03       		.uleb128 0x3
 7126 0049 0E       		.uleb128 0xe
 7127 004a 3A       		.uleb128 0x3a
 7128 004b 0B       		.uleb128 0xb
 7129 004c 3B       		.uleb128 0x3b
 7130 004d 0B       		.uleb128 0xb
 7131 004e 49       		.uleb128 0x49
 7132 004f 13       		.uleb128 0x13
 7133 0050 38       		.uleb128 0x38
 7134 0051 0B       		.uleb128 0xb
 7135 0052 00       		.byte	0
 7136 0053 00       		.byte	0
 7137 0054 07       		.uleb128 0x7
ARM GAS  C:\Users\Phuong\AppData\Local\Temp\ccbgGR22.s 			page 137


 7138 0055 01       		.uleb128 0x1
 7139 0056 01       		.byte	0x1
 7140 0057 49       		.uleb128 0x49
 7141 0058 13       		.uleb128 0x13
 7142 0059 01       		.uleb128 0x1
 7143 005a 13       		.uleb128 0x13
 7144 005b 00       		.byte	0
 7145 005c 00       		.byte	0
 7146 005d 08       		.uleb128 0x8
 7147 005e 21       		.uleb128 0x21
 7148 005f 00       		.byte	0
 7149 0060 49       		.uleb128 0x49
 7150 0061 13       		.uleb128 0x13
 7151 0062 2F       		.uleb128 0x2f
 7152 0063 0B       		.uleb128 0xb
 7153 0064 00       		.byte	0
 7154 0065 00       		.byte	0
 7155 0066 09       		.uleb128 0x9
 7156 0067 0F       		.uleb128 0xf
 7157 0068 00       		.byte	0
 7158 0069 0B       		.uleb128 0xb
 7159 006a 0B       		.uleb128 0xb
 7160 006b 49       		.uleb128 0x49
 7161 006c 13       		.uleb128 0x13
 7162 006d 00       		.byte	0
 7163 006e 00       		.byte	0
 7164 006f 0A       		.uleb128 0xa
 7165 0070 2E       		.uleb128 0x2e
 7166 0071 01       		.byte	0x1
 7167 0072 3F       		.uleb128 0x3f
 7168 0073 19       		.uleb128 0x19
 7169 0074 03       		.uleb128 0x3
 7170 0075 0E       		.uleb128 0xe
 7171 0076 3A       		.uleb128 0x3a
 7172 0077 0B       		.uleb128 0xb
 7173 0078 3B       		.uleb128 0x3b
 7174 0079 0B       		.uleb128 0xb
 7175 007a 27       		.uleb128 0x27
 7176 007b 19       		.uleb128 0x19
 7177 007c 11       		.uleb128 0x11
 7178 007d 01       		.uleb128 0x1
 7179 007e 12       		.uleb128 0x12
 7180 007f 06       		.uleb128 0x6
 7181 0080 40       		.uleb128 0x40
 7182 0081 18       		.uleb128 0x18
 7183 0082 9742     		.uleb128 0x2117
 7184 0084 19       		.uleb128 0x19
 7185 0085 01       		.uleb128 0x1
 7186 0086 13       		.uleb128 0x13
 7187 0087 00       		.byte	0
 7188 0088 00       		.byte	0
 7189 0089 0B       		.uleb128 0xb
 7190 008a 05       		.uleb128 0x5
 7191 008b 00       		.byte	0
 7192 008c 03       		.uleb128 0x3
 7193 008d 08       		.uleb128 0x8
 7194 008e 3A       		.uleb128 0x3a
ARM GAS  C:\Users\Phuong\AppData\Local\Temp\ccbgGR22.s 			page 138


 7195 008f 0B       		.uleb128 0xb
 7196 0090 3B       		.uleb128 0x3b
 7197 0091 0B       		.uleb128 0xb
 7198 0092 49       		.uleb128 0x49
 7199 0093 13       		.uleb128 0x13
 7200 0094 02       		.uleb128 0x2
 7201 0095 17       		.uleb128 0x17
 7202 0096 00       		.byte	0
 7203 0097 00       		.byte	0
 7204 0098 0C       		.uleb128 0xc
 7205 0099 898201   		.uleb128 0x4109
 7206 009c 01       		.byte	0x1
 7207 009d 11       		.uleb128 0x11
 7208 009e 01       		.uleb128 0x1
 7209 009f 31       		.uleb128 0x31
 7210 00a0 13       		.uleb128 0x13
 7211 00a1 00       		.byte	0
 7212 00a2 00       		.byte	0
 7213 00a3 0D       		.uleb128 0xd
 7214 00a4 8A8201   		.uleb128 0x410a
 7215 00a7 00       		.byte	0
 7216 00a8 02       		.uleb128 0x2
 7217 00a9 18       		.uleb128 0x18
 7218 00aa 9142     		.uleb128 0x2111
 7219 00ac 18       		.uleb128 0x18
 7220 00ad 00       		.byte	0
 7221 00ae 00       		.byte	0
 7222 00af 0E       		.uleb128 0xe
 7223 00b0 26       		.uleb128 0x26
 7224 00b1 00       		.byte	0
 7225 00b2 49       		.uleb128 0x49
 7226 00b3 13       		.uleb128 0x13
 7227 00b4 00       		.byte	0
 7228 00b5 00       		.byte	0
 7229 00b6 0F       		.uleb128 0xf
 7230 00b7 2E       		.uleb128 0x2e
 7231 00b8 01       		.byte	0x1
 7232 00b9 3F       		.uleb128 0x3f
 7233 00ba 19       		.uleb128 0x19
 7234 00bb 03       		.uleb128 0x3
 7235 00bc 0E       		.uleb128 0xe
 7236 00bd 3A       		.uleb128 0x3a
 7237 00be 0B       		.uleb128 0xb
 7238 00bf 3B       		.uleb128 0x3b
 7239 00c0 0B       		.uleb128 0xb
 7240 00c1 27       		.uleb128 0x27
 7241 00c2 19       		.uleb128 0x19
 7242 00c3 49       		.uleb128 0x49
 7243 00c4 13       		.uleb128 0x13
 7244 00c5 11       		.uleb128 0x11
 7245 00c6 01       		.uleb128 0x1
 7246 00c7 12       		.uleb128 0x12
 7247 00c8 06       		.uleb128 0x6
 7248 00c9 40       		.uleb128 0x40
 7249 00ca 18       		.uleb128 0x18
 7250 00cb 9742     		.uleb128 0x2117
 7251 00cd 19       		.uleb128 0x19
ARM GAS  C:\Users\Phuong\AppData\Local\Temp\ccbgGR22.s 			page 139


 7252 00ce 01       		.uleb128 0x1
 7253 00cf 13       		.uleb128 0x13
 7254 00d0 00       		.byte	0
 7255 00d1 00       		.byte	0
 7256 00d2 10       		.uleb128 0x10
 7257 00d3 05       		.uleb128 0x5
 7258 00d4 00       		.byte	0
 7259 00d5 03       		.uleb128 0x3
 7260 00d6 0E       		.uleb128 0xe
 7261 00d7 3A       		.uleb128 0x3a
 7262 00d8 0B       		.uleb128 0xb
 7263 00d9 3B       		.uleb128 0x3b
 7264 00da 0B       		.uleb128 0xb
 7265 00db 49       		.uleb128 0x49
 7266 00dc 13       		.uleb128 0x13
 7267 00dd 02       		.uleb128 0x2
 7268 00de 17       		.uleb128 0x17
 7269 00df 00       		.byte	0
 7270 00e0 00       		.byte	0
 7271 00e1 11       		.uleb128 0x11
 7272 00e2 34       		.uleb128 0x34
 7273 00e3 00       		.byte	0
 7274 00e4 03       		.uleb128 0x3
 7275 00e5 08       		.uleb128 0x8
 7276 00e6 3A       		.uleb128 0x3a
 7277 00e7 0B       		.uleb128 0xb
 7278 00e8 3B       		.uleb128 0x3b
 7279 00e9 0B       		.uleb128 0xb
 7280 00ea 49       		.uleb128 0x49
 7281 00eb 13       		.uleb128 0x13
 7282 00ec 02       		.uleb128 0x2
 7283 00ed 17       		.uleb128 0x17
 7284 00ee 00       		.byte	0
 7285 00ef 00       		.byte	0
 7286 00f0 12       		.uleb128 0x12
 7287 00f1 34       		.uleb128 0x34
 7288 00f2 00       		.byte	0
 7289 00f3 03       		.uleb128 0x3
 7290 00f4 08       		.uleb128 0x8
 7291 00f5 3A       		.uleb128 0x3a
 7292 00f6 0B       		.uleb128 0xb
 7293 00f7 3B       		.uleb128 0x3b
 7294 00f8 0B       		.uleb128 0xb
 7295 00f9 49       		.uleb128 0x49
 7296 00fa 13       		.uleb128 0x13
 7297 00fb 00       		.byte	0
 7298 00fc 00       		.byte	0
 7299 00fd 13       		.uleb128 0x13
 7300 00fe 2E       		.uleb128 0x2e
 7301 00ff 01       		.byte	0x1
 7302 0100 3F       		.uleb128 0x3f
 7303 0101 19       		.uleb128 0x19
 7304 0102 03       		.uleb128 0x3
 7305 0103 0E       		.uleb128 0xe
 7306 0104 3A       		.uleb128 0x3a
 7307 0105 0B       		.uleb128 0xb
 7308 0106 3B       		.uleb128 0x3b
ARM GAS  C:\Users\Phuong\AppData\Local\Temp\ccbgGR22.s 			page 140


 7309 0107 05       		.uleb128 0x5
 7310 0108 27       		.uleb128 0x27
 7311 0109 19       		.uleb128 0x19
 7312 010a 11       		.uleb128 0x11
 7313 010b 01       		.uleb128 0x1
 7314 010c 12       		.uleb128 0x12
 7315 010d 06       		.uleb128 0x6
 7316 010e 40       		.uleb128 0x40
 7317 010f 18       		.uleb128 0x18
 7318 0110 9742     		.uleb128 0x2117
 7319 0112 19       		.uleb128 0x19
 7320 0113 01       		.uleb128 0x1
 7321 0114 13       		.uleb128 0x13
 7322 0115 00       		.byte	0
 7323 0116 00       		.byte	0
 7324 0117 14       		.uleb128 0x14
 7325 0118 05       		.uleb128 0x5
 7326 0119 00       		.byte	0
 7327 011a 03       		.uleb128 0x3
 7328 011b 08       		.uleb128 0x8
 7329 011c 3A       		.uleb128 0x3a
 7330 011d 0B       		.uleb128 0xb
 7331 011e 3B       		.uleb128 0x3b
 7332 011f 05       		.uleb128 0x5
 7333 0120 49       		.uleb128 0x49
 7334 0121 13       		.uleb128 0x13
 7335 0122 02       		.uleb128 0x2
 7336 0123 17       		.uleb128 0x17
 7337 0124 00       		.byte	0
 7338 0125 00       		.byte	0
 7339 0126 15       		.uleb128 0x15
 7340 0127 05       		.uleb128 0x5
 7341 0128 00       		.byte	0
 7342 0129 03       		.uleb128 0x3
 7343 012a 0E       		.uleb128 0xe
 7344 012b 3A       		.uleb128 0x3a
 7345 012c 0B       		.uleb128 0xb
 7346 012d 3B       		.uleb128 0x3b
 7347 012e 05       		.uleb128 0x5
 7348 012f 49       		.uleb128 0x49
 7349 0130 13       		.uleb128 0x13
 7350 0131 02       		.uleb128 0x2
 7351 0132 17       		.uleb128 0x17
 7352 0133 00       		.byte	0
 7353 0134 00       		.byte	0
 7354 0135 16       		.uleb128 0x16
 7355 0136 2E       		.uleb128 0x2e
 7356 0137 01       		.byte	0x1
 7357 0138 3F       		.uleb128 0x3f
 7358 0139 19       		.uleb128 0x19
 7359 013a 03       		.uleb128 0x3
 7360 013b 0E       		.uleb128 0xe
 7361 013c 3A       		.uleb128 0x3a
 7362 013d 0B       		.uleb128 0xb
 7363 013e 3B       		.uleb128 0x3b
 7364 013f 05       		.uleb128 0x5
 7365 0140 27       		.uleb128 0x27
ARM GAS  C:\Users\Phuong\AppData\Local\Temp\ccbgGR22.s 			page 141


 7366 0141 19       		.uleb128 0x19
 7367 0142 49       		.uleb128 0x49
 7368 0143 13       		.uleb128 0x13
 7369 0144 11       		.uleb128 0x11
 7370 0145 01       		.uleb128 0x1
 7371 0146 12       		.uleb128 0x12
 7372 0147 06       		.uleb128 0x6
 7373 0148 40       		.uleb128 0x40
 7374 0149 18       		.uleb128 0x18
 7375 014a 9742     		.uleb128 0x2117
 7376 014c 19       		.uleb128 0x19
 7377 014d 01       		.uleb128 0x1
 7378 014e 13       		.uleb128 0x13
 7379 014f 00       		.byte	0
 7380 0150 00       		.byte	0
 7381 0151 17       		.uleb128 0x17
 7382 0152 34       		.uleb128 0x34
 7383 0153 00       		.byte	0
 7384 0154 03       		.uleb128 0x3
 7385 0155 08       		.uleb128 0x8
 7386 0156 3A       		.uleb128 0x3a
 7387 0157 0B       		.uleb128 0xb
 7388 0158 3B       		.uleb128 0x3b
 7389 0159 05       		.uleb128 0x5
 7390 015a 49       		.uleb128 0x49
 7391 015b 13       		.uleb128 0x13
 7392 015c 02       		.uleb128 0x2
 7393 015d 17       		.uleb128 0x17
 7394 015e 00       		.byte	0
 7395 015f 00       		.byte	0
 7396 0160 18       		.uleb128 0x18
 7397 0161 34       		.uleb128 0x34
 7398 0162 00       		.byte	0
 7399 0163 03       		.uleb128 0x3
 7400 0164 0E       		.uleb128 0xe
 7401 0165 3A       		.uleb128 0x3a
 7402 0166 0B       		.uleb128 0xb
 7403 0167 3B       		.uleb128 0x3b
 7404 0168 05       		.uleb128 0x5
 7405 0169 49       		.uleb128 0x49
 7406 016a 13       		.uleb128 0x13
 7407 016b 02       		.uleb128 0x2
 7408 016c 17       		.uleb128 0x17
 7409 016d 00       		.byte	0
 7410 016e 00       		.byte	0
 7411 016f 19       		.uleb128 0x19
 7412 0170 898201   		.uleb128 0x4109
 7413 0173 01       		.byte	0x1
 7414 0174 11       		.uleb128 0x11
 7415 0175 01       		.uleb128 0x1
 7416 0176 31       		.uleb128 0x31
 7417 0177 13       		.uleb128 0x13
 7418 0178 01       		.uleb128 0x1
 7419 0179 13       		.uleb128 0x13
 7420 017a 00       		.byte	0
 7421 017b 00       		.byte	0
 7422 017c 1A       		.uleb128 0x1a
ARM GAS  C:\Users\Phuong\AppData\Local\Temp\ccbgGR22.s 			page 142


 7423 017d 34       		.uleb128 0x34
 7424 017e 00       		.byte	0
 7425 017f 03       		.uleb128 0x3
 7426 0180 0E       		.uleb128 0xe
 7427 0181 3A       		.uleb128 0x3a
 7428 0182 0B       		.uleb128 0xb
 7429 0183 3B       		.uleb128 0x3b
 7430 0184 05       		.uleb128 0x5
 7431 0185 49       		.uleb128 0x49
 7432 0186 13       		.uleb128 0x13
 7433 0187 02       		.uleb128 0x2
 7434 0188 18       		.uleb128 0x18
 7435 0189 00       		.byte	0
 7436 018a 00       		.byte	0
 7437 018b 1B       		.uleb128 0x1b
 7438 018c 34       		.uleb128 0x34
 7439 018d 00       		.byte	0
 7440 018e 03       		.uleb128 0x3
 7441 018f 08       		.uleb128 0x8
 7442 0190 3A       		.uleb128 0x3a
 7443 0191 0B       		.uleb128 0xb
 7444 0192 3B       		.uleb128 0x3b
 7445 0193 05       		.uleb128 0x5
 7446 0194 49       		.uleb128 0x49
 7447 0195 13       		.uleb128 0x13
 7448 0196 02       		.uleb128 0x2
 7449 0197 18       		.uleb128 0x18
 7450 0198 00       		.byte	0
 7451 0199 00       		.byte	0
 7452 019a 1C       		.uleb128 0x1c
 7453 019b 0A       		.uleb128 0xa
 7454 019c 00       		.byte	0
 7455 019d 03       		.uleb128 0x3
 7456 019e 0E       		.uleb128 0xe
 7457 019f 3A       		.uleb128 0x3a
 7458 01a0 0B       		.uleb128 0xb
 7459 01a1 3B       		.uleb128 0x3b
 7460 01a2 05       		.uleb128 0x5
 7461 01a3 11       		.uleb128 0x11
 7462 01a4 01       		.uleb128 0x1
 7463 01a5 00       		.byte	0
 7464 01a6 00       		.byte	0
 7465 01a7 1D       		.uleb128 0x1d
 7466 01a8 2E       		.uleb128 0x2e
 7467 01a9 00       		.byte	0
 7468 01aa 3F       		.uleb128 0x3f
 7469 01ab 19       		.uleb128 0x19
 7470 01ac 3C       		.uleb128 0x3c
 7471 01ad 19       		.uleb128 0x19
 7472 01ae 6E       		.uleb128 0x6e
 7473 01af 0E       		.uleb128 0xe
 7474 01b0 03       		.uleb128 0x3
 7475 01b1 0E       		.uleb128 0xe
 7476 01b2 00       		.byte	0
 7477 01b3 00       		.byte	0
 7478 01b4 1E       		.uleb128 0x1e
 7479 01b5 2E       		.uleb128 0x2e
ARM GAS  C:\Users\Phuong\AppData\Local\Temp\ccbgGR22.s 			page 143


 7480 01b6 00       		.byte	0
 7481 01b7 3F       		.uleb128 0x3f
 7482 01b8 19       		.uleb128 0x19
 7483 01b9 3C       		.uleb128 0x3c
 7484 01ba 19       		.uleb128 0x19
 7485 01bb 6E       		.uleb128 0x6e
 7486 01bc 0E       		.uleb128 0xe
 7487 01bd 03       		.uleb128 0x3
 7488 01be 0E       		.uleb128 0xe
 7489 01bf 3A       		.uleb128 0x3a
 7490 01c0 0B       		.uleb128 0xb
 7491 01c1 3B       		.uleb128 0x3b
 7492 01c2 0B       		.uleb128 0xb
 7493 01c3 00       		.byte	0
 7494 01c4 00       		.byte	0
 7495 01c5 1F       		.uleb128 0x1f
 7496 01c6 2E       		.uleb128 0x2e
 7497 01c7 00       		.byte	0
 7498 01c8 3F       		.uleb128 0x3f
 7499 01c9 19       		.uleb128 0x19
 7500 01ca 3C       		.uleb128 0x3c
 7501 01cb 19       		.uleb128 0x19
 7502 01cc 6E       		.uleb128 0x6e
 7503 01cd 0E       		.uleb128 0xe
 7504 01ce 03       		.uleb128 0x3
 7505 01cf 0E       		.uleb128 0xe
 7506 01d0 3A       		.uleb128 0x3a
 7507 01d1 0B       		.uleb128 0xb
 7508 01d2 3B       		.uleb128 0x3b
 7509 01d3 0B       		.uleb128 0xb
 7510 01d4 6E       		.uleb128 0x6e
 7511 01d5 0E       		.uleb128 0xe
 7512 01d6 00       		.byte	0
 7513 01d7 00       		.byte	0
 7514 01d8 00       		.byte	0
 7515              		.section	.debug_loc,"",%progbits
 7516              	.Ldebug_loc0:
 7517              	.LLST0:
 7518 0000 00000000 		.4byte	.LVL0
 7519 0004 09000000 		.4byte	.LVL1-1
 7520 0008 0100     		.2byte	0x1
 7521 000a 50       		.byte	0x50
 7522 000b 09000000 		.4byte	.LVL1-1
 7523 000f 0C000000 		.4byte	.LFE1
 7524 0013 0400     		.2byte	0x4
 7525 0015 F3       		.byte	0xf3
 7526 0016 01       		.uleb128 0x1
 7527 0017 50       		.byte	0x50
 7528 0018 9F       		.byte	0x9f
 7529 0019 00000000 		.4byte	0
 7530 001d 00000000 		.4byte	0
 7531              	.LLST1:
 7532 0021 00000000 		.4byte	.LVL2
 7533 0025 0B000000 		.4byte	.LVL3-1
 7534 0029 0100     		.2byte	0x1
 7535 002b 50       		.byte	0x50
 7536 002c 0B000000 		.4byte	.LVL3-1
ARM GAS  C:\Users\Phuong\AppData\Local\Temp\ccbgGR22.s 			page 144


 7537 0030 0E000000 		.4byte	.LFE2
 7538 0034 0400     		.2byte	0x4
 7539 0036 F3       		.byte	0xf3
 7540 0037 01       		.uleb128 0x1
 7541 0038 50       		.byte	0x50
 7542 0039 9F       		.byte	0x9f
 7543 003a 00000000 		.4byte	0
 7544 003e 00000000 		.4byte	0
 7545              	.LLST2:
 7546 0042 00000000 		.4byte	.LVL4
 7547 0046 07000000 		.4byte	.LVL5-1
 7548 004a 0100     		.2byte	0x1
 7549 004c 50       		.byte	0x50
 7550 004d 07000000 		.4byte	.LVL5-1
 7551 0051 0A000000 		.4byte	.LFE3
 7552 0055 0400     		.2byte	0x4
 7553 0057 F3       		.byte	0xf3
 7554 0058 01       		.uleb128 0x1
 7555 0059 50       		.byte	0x50
 7556 005a 9F       		.byte	0x9f
 7557 005b 00000000 		.4byte	0
 7558 005f 00000000 		.4byte	0
 7559              	.LLST3:
 7560 0063 00000000 		.4byte	.LVL4
 7561 0067 07000000 		.4byte	.LVL5-1
 7562 006b 0100     		.2byte	0x1
 7563 006d 51       		.byte	0x51
 7564 006e 07000000 		.4byte	.LVL5-1
 7565 0072 0A000000 		.4byte	.LFE3
 7566 0076 0400     		.2byte	0x4
 7567 0078 F3       		.byte	0xf3
 7568 0079 01       		.uleb128 0x1
 7569 007a 51       		.byte	0x51
 7570 007b 9F       		.byte	0x9f
 7571 007c 00000000 		.4byte	0
 7572 0080 00000000 		.4byte	0
 7573              	.LLST4:
 7574 0084 00000000 		.4byte	.LVL6
 7575 0088 1C000000 		.4byte	.LVL7
 7576 008c 0100     		.2byte	0x1
 7577 008e 50       		.byte	0x50
 7578 008f 1C000000 		.4byte	.LVL7
 7579 0093 34000000 		.4byte	.LFE4
 7580 0097 0400     		.2byte	0x4
 7581 0099 F3       		.byte	0xf3
 7582 009a 01       		.uleb128 0x1
 7583 009b 50       		.byte	0x50
 7584 009c 9F       		.byte	0x9f
 7585 009d 00000000 		.4byte	0
 7586 00a1 00000000 		.4byte	0
 7587              	.LLST5:
 7588 00a5 00000000 		.4byte	.LVL8
 7589 00a9 05000000 		.4byte	.LVL9-1
 7590 00ad 0100     		.2byte	0x1
 7591 00af 50       		.byte	0x50
 7592 00b0 05000000 		.4byte	.LVL9-1
 7593 00b4 08000000 		.4byte	.LFE5
ARM GAS  C:\Users\Phuong\AppData\Local\Temp\ccbgGR22.s 			page 145


 7594 00b8 0400     		.2byte	0x4
 7595 00ba F3       		.byte	0xf3
 7596 00bb 01       		.uleb128 0x1
 7597 00bc 50       		.byte	0x50
 7598 00bd 9F       		.byte	0x9f
 7599 00be 00000000 		.4byte	0
 7600 00c2 00000000 		.4byte	0
 7601              	.LLST6:
 7602 00c6 00000000 		.4byte	.LVL10
 7603 00ca 14000000 		.4byte	.LVL11
 7604 00ce 0100     		.2byte	0x1
 7605 00d0 50       		.byte	0x50
 7606 00d1 14000000 		.4byte	.LVL11
 7607 00d5 F41B0000 		.4byte	.LVL985
 7608 00d9 0100     		.2byte	0x1
 7609 00db 57       		.byte	0x57
 7610 00dc F41B0000 		.4byte	.LVL985
 7611 00e0 041C0000 		.4byte	.LFE6
 7612 00e4 0400     		.2byte	0x4
 7613 00e6 F3       		.byte	0xf3
 7614 00e7 01       		.uleb128 0x1
 7615 00e8 50       		.byte	0x50
 7616 00e9 9F       		.byte	0x9f
 7617 00ea 00000000 		.4byte	0
 7618 00ee 00000000 		.4byte	0
 7619              	.LLST7:
 7620 00f2 00000000 		.4byte	.LVL10
 7621 00f6 1C000000 		.4byte	.LVL12
 7622 00fa 0100     		.2byte	0x1
 7623 00fc 51       		.byte	0x51
 7624 00fd 1C000000 		.4byte	.LVL12
 7625 0101 CA010000 		.4byte	.LVL13
 7626 0105 0100     		.2byte	0x1
 7627 0107 53       		.byte	0x53
 7628 0108 CA010000 		.4byte	.LVL13
 7629 010c 041C0000 		.4byte	.LFE6
 7630 0110 0400     		.2byte	0x4
 7631 0112 F3       		.byte	0xf3
 7632 0113 01       		.uleb128 0x1
 7633 0114 51       		.byte	0x51
 7634 0115 9F       		.byte	0x9f
 7635 0116 00000000 		.4byte	0
 7636 011a 00000000 		.4byte	0
 7637              	.LLST8:
 7638 011e CE010000 		.4byte	.LVL14
 7639 0122 E6010000 		.4byte	.LVL15
 7640 0126 0200     		.2byte	0x2
 7641 0128 77       		.byte	0x77
 7642 0129 08       		.sleb128 8
 7643 012a E6010000 		.4byte	.LVL15
 7644 012e EA010000 		.4byte	.LVL16
 7645 0132 0100     		.2byte	0x1
 7646 0134 50       		.byte	0x50
 7647 0135 EA010000 		.4byte	.LVL16
 7648 0139 F0010000 		.4byte	.LVL17
 7649 013d 1300     		.2byte	0x13
 7650 013f 77       		.byte	0x77
ARM GAS  C:\Users\Phuong\AppData\Local\Temp\ccbgGR22.s 			page 146


 7651 0140 0C       		.sleb128 12
 7652 0141 06       		.byte	0x6
 7653 0142 77       		.byte	0x77
 7654 0143 10       		.sleb128 16
 7655 0144 06       		.byte	0x6
 7656 0145 27       		.byte	0x27
 7657 0146 77       		.byte	0x77
 7658 0147 14       		.sleb128 20
 7659 0148 06       		.byte	0x6
 7660 0149 27       		.byte	0x27
 7661 014a 77       		.byte	0x77
 7662 014b 08       		.sleb128 8
 7663 014c 06       		.byte	0x6
 7664 014d 22       		.byte	0x22
 7665 014e 76       		.byte	0x76
 7666 014f 00       		.sleb128 0
 7667 0150 22       		.byte	0x22
 7668 0151 9F       		.byte	0x9f
 7669 0152 F0010000 		.4byte	.LVL17
 7670 0156 84020000 		.4byte	.LVL36
 7671 015a 0100     		.2byte	0x1
 7672 015c 50       		.byte	0x50
 7673 015d 84020000 		.4byte	.LVL36
 7674 0161 86020000 		.4byte	.LVL37
 7675 0165 2300     		.2byte	0x23
 7676 0167 77       		.byte	0x77
 7677 0168 0C       		.sleb128 12
 7678 0169 06       		.byte	0x6
 7679 016a 77       		.byte	0x77
 7680 016b 10       		.sleb128 16
 7681 016c 06       		.byte	0x6
 7682 016d 27       		.byte	0x27
 7683 016e 77       		.byte	0x77
 7684 016f 14       		.sleb128 20
 7685 0170 06       		.byte	0x6
 7686 0171 27       		.byte	0x27
 7687 0172 77       		.byte	0x77
 7688 0173 08       		.sleb128 8
 7689 0174 06       		.byte	0x6
 7690 0175 22       		.byte	0x22
 7691 0176 91       		.byte	0x91
 7692 0177 BC7F     		.sleb128 -68
 7693 0179 06       		.byte	0x6
 7694 017a 22       		.byte	0x22
 7695 017b 45       		.byte	0x45
 7696 017c 14       		.byte	0x14
 7697 017d 14       		.byte	0x14
 7698 017e 1F       		.byte	0x1f
 7699 017f 23       		.byte	0x23
 7700 0180 20       		.uleb128 0x20
 7701 0181 24       		.byte	0x24
 7702 0182 17       		.byte	0x17
 7703 0183 25       		.byte	0x25
 7704 0184 21       		.byte	0x21
 7705 0185 77       		.byte	0x77
 7706 0186 18       		.sleb128 24
 7707 0187 06       		.byte	0x6
ARM GAS  C:\Users\Phuong\AppData\Local\Temp\ccbgGR22.s 			page 147


 7708 0188 22       		.byte	0x22
 7709 0189 9F       		.byte	0x9f
 7710 018a 86020000 		.4byte	.LVL37
 7711 018e 88020000 		.4byte	.LVL38
 7712 0192 0100     		.2byte	0x1
 7713 0194 50       		.byte	0x50
 7714 0195 88020000 		.4byte	.LVL38
 7715 0199 4A030000 		.4byte	.LVL68
 7716 019d 0100     		.2byte	0x1
 7717 019f 5B       		.byte	0x5b
 7718 01a0 4A030000 		.4byte	.LVL68
 7719 01a4 52030000 		.4byte	.LVL69
 7720 01a8 0100     		.2byte	0x1
 7721 01aa 5C       		.byte	0x5c
 7722 01ab 52030000 		.4byte	.LVL69
 7723 01af 58030000 		.4byte	.LVL70
 7724 01b3 1100     		.2byte	0x11
 7725 01b5 79       		.byte	0x79
 7726 01b6 00       		.sleb128 0
 7727 01b7 7A       		.byte	0x7a
 7728 01b8 00       		.sleb128 0
 7729 01b9 27       		.byte	0x27
 7730 01ba 74       		.byte	0x74
 7731 01bb 00       		.sleb128 0
 7732 01bc 27       		.byte	0x27
 7733 01bd 7B       		.byte	0x7b
 7734 01be 00       		.sleb128 0
 7735 01bf 22       		.byte	0x22
 7736 01c0 91       		.byte	0x91
 7737 01c1 907F     		.sleb128 -112
 7738 01c3 06       		.byte	0x6
 7739 01c4 22       		.byte	0x22
 7740 01c5 9F       		.byte	0x9f
 7741 01c6 58030000 		.4byte	.LVL70
 7742 01ca 02040000 		.4byte	.LVL94
 7743 01ce 0100     		.2byte	0x1
 7744 01d0 5C       		.byte	0x5c
 7745 01d1 02040000 		.4byte	.LVL94
 7746 01d5 08040000 		.4byte	.LVL95
 7747 01d9 0100     		.2byte	0x1
 7748 01db 54       		.byte	0x54
 7749 01dc 08040000 		.4byte	.LVL95
 7750 01e0 DA040000 		.4byte	.LVL126
 7751 01e4 0200     		.2byte	0x2
 7752 01e6 91       		.byte	0x91
 7753 01e7 48       		.sleb128 -56
 7754 01e8 DA040000 		.4byte	.LVL126
 7755 01ec E2040000 		.4byte	.LVL127
 7756 01f0 0100     		.2byte	0x1
 7757 01f2 5C       		.byte	0x5c
 7758 01f3 E2040000 		.4byte	.LVL127
 7759 01f7 E6040000 		.4byte	.LVL128
 7760 01fb 0700     		.2byte	0x7
 7761 01fd 91       		.byte	0x91
 7762 01fe 48       		.sleb128 -56
 7763 01ff 06       		.byte	0x6
 7764 0200 78       		.byte	0x78
ARM GAS  C:\Users\Phuong\AppData\Local\Temp\ccbgGR22.s 			page 148


 7765 0201 00       		.sleb128 0
 7766 0202 22       		.byte	0x22
 7767 0203 9F       		.byte	0x9f
 7768 0204 E6040000 		.4byte	.LVL128
 7769 0208 E8040000 		.4byte	.LVL129
 7770 020c 1200     		.2byte	0x12
 7771 020e 7A       		.byte	0x7a
 7772 020f 00       		.sleb128 0
 7773 0210 75       		.byte	0x75
 7774 0211 00       		.sleb128 0
 7775 0212 27       		.byte	0x27
 7776 0213 7B       		.byte	0x7b
 7777 0214 00       		.sleb128 0
 7778 0215 27       		.byte	0x27
 7779 0216 91       		.byte	0x91
 7780 0217 48       		.sleb128 -56
 7781 0218 06       		.byte	0x6
 7782 0219 22       		.byte	0x22
 7783 021a 91       		.byte	0x91
 7784 021b A47F     		.sleb128 -92
 7785 021d 06       		.byte	0x6
 7786 021e 22       		.byte	0x22
 7787 021f 9F       		.byte	0x9f
 7788 0220 E8040000 		.4byte	.LVL129
 7789 0224 7A050000 		.4byte	.LVL154
 7790 0228 0100     		.2byte	0x1
 7791 022a 5C       		.byte	0x5c
 7792 022b 7A050000 		.4byte	.LVL154
 7793 022f 7E050000 		.4byte	.LVL155
 7794 0233 0100     		.2byte	0x1
 7795 0235 55       		.byte	0x55
 7796 0236 7E050000 		.4byte	.LVL155
 7797 023a 56060000 		.4byte	.LVL190
 7798 023e 0100     		.2byte	0x1
 7799 0240 5C       		.byte	0x5c
 7800 0241 5C060000 		.4byte	.LVL191
 7801 0245 FE060000 		.4byte	.LVL217
 7802 0249 0100     		.2byte	0x1
 7803 024b 5C       		.byte	0x5c
 7804 024c FE060000 		.4byte	.LVL217
 7805 0250 00070000 		.4byte	.LVL218
 7806 0254 0100     		.2byte	0x1
 7807 0256 51       		.byte	0x51
 7808 0257 00070000 		.4byte	.LVL218
 7809 025b EE070000 		.4byte	.LVL256
 7810 025f 0200     		.2byte	0x2
 7811 0261 91       		.byte	0x91
 7812 0262 40       		.sleb128 -64
 7813 0263 EE070000 		.4byte	.LVL256
 7814 0267 F6070000 		.4byte	.LVL257
 7815 026b 0100     		.2byte	0x1
 7816 026d 5C       		.byte	0x5c
 7817 026e F6070000 		.4byte	.LVL257
 7818 0272 F8070000 		.4byte	.LVL258
 7819 0276 1A00     		.2byte	0x1a
 7820 0278 70       		.byte	0x70
 7821 0279 00       		.sleb128 0
ARM GAS  C:\Users\Phuong\AppData\Local\Temp\ccbgGR22.s 			page 149


 7822 027a 91       		.byte	0x91
 7823 027b 44       		.sleb128 -60
 7824 027c 06       		.byte	0x6
 7825 027d 27       		.byte	0x27
 7826 027e 71       		.byte	0x71
 7827 027f 00       		.sleb128 0
 7828 0280 1A       		.byte	0x1a
 7829 0281 91       		.byte	0x91
 7830 0282 44       		.sleb128 -60
 7831 0283 06       		.byte	0x6
 7832 0284 27       		.byte	0x27
 7833 0285 7A       		.byte	0x7a
 7834 0286 00       		.sleb128 0
 7835 0287 22       		.byte	0x22
 7836 0288 91       		.byte	0x91
 7837 0289 A47F     		.sleb128 -92
 7838 028b 06       		.byte	0x6
 7839 028c 22       		.byte	0x22
 7840 028d 91       		.byte	0x91
 7841 028e 40       		.sleb128 -64
 7842 028f 06       		.byte	0x6
 7843 0290 22       		.byte	0x22
 7844 0291 9F       		.byte	0x9f
 7845 0292 F8070000 		.4byte	.LVL258
 7846 0296 A6080000 		.4byte	.LVL284
 7847 029a 0100     		.2byte	0x1
 7848 029c 5C       		.byte	0x5c
 7849 029d A6080000 		.4byte	.LVL284
 7850 02a1 A8080000 		.4byte	.LVL285
 7851 02a5 0100     		.2byte	0x1
 7852 02a7 55       		.byte	0x55
 7853 02a8 A8080000 		.4byte	.LVL285
 7854 02ac 8C090000 		.4byte	.LVL319
 7855 02b0 0100     		.2byte	0x1
 7856 02b2 5C       		.byte	0x5c
 7857 02b3 8E090000 		.4byte	.LVL320
 7858 02b7 92090000 		.4byte	.LVL321
 7859 02bb 0100     		.2byte	0x1
 7860 02bd 55       		.byte	0x55
 7861 02be 94090000 		.4byte	.LVL322
 7862 02c2 460A0000 		.4byte	.LVL350
 7863 02c6 0100     		.2byte	0x1
 7864 02c8 55       		.byte	0x55
 7865 02c9 480A0000 		.4byte	.LVL351
 7866 02cd 4A0A0000 		.4byte	.LVL352
 7867 02d1 0100     		.2byte	0x1
 7868 02d3 55       		.byte	0x55
 7869 02d4 4A0A0000 		.4byte	.LVL352
 7870 02d8 300B0000 		.4byte	.LVL384
 7871 02dc 0200     		.2byte	0x2
 7872 02de 91       		.byte	0x91
 7873 02df 40       		.sleb128 -64
 7874 02e0 300B0000 		.4byte	.LVL384
 7875 02e4 340B0000 		.4byte	.LVL385
 7876 02e8 0100     		.2byte	0x1
 7877 02ea 55       		.byte	0x55
 7878 02eb 340B0000 		.4byte	.LVL385
ARM GAS  C:\Users\Phuong\AppData\Local\Temp\ccbgGR22.s 			page 150


 7879 02ef 3A0B0000 		.4byte	.LVL386
 7880 02f3 1A00     		.2byte	0x1a
 7881 02f5 91       		.byte	0x91
 7882 02f6 48       		.sleb128 -56
 7883 02f7 06       		.byte	0x6
 7884 02f8 70       		.byte	0x70
 7885 02f9 00       		.sleb128 0
 7886 02fa 27       		.byte	0x27
 7887 02fb 7B       		.byte	0x7b
 7888 02fc 00       		.sleb128 0
 7889 02fd 1A       		.byte	0x1a
 7890 02fe 91       		.byte	0x91
 7891 02ff 48       		.sleb128 -56
 7892 0300 06       		.byte	0x6
 7893 0301 27       		.byte	0x27
 7894 0302 7C       		.byte	0x7c
 7895 0303 00       		.sleb128 0
 7896 0304 22       		.byte	0x22
 7897 0305 91       		.byte	0x91
 7898 0306 A87F     		.sleb128 -88
 7899 0308 06       		.byte	0x6
 7900 0309 22       		.byte	0x22
 7901 030a 91       		.byte	0x91
 7902 030b 40       		.sleb128 -64
 7903 030c 06       		.byte	0x6
 7904 030d 22       		.byte	0x22
 7905 030e 9F       		.byte	0x9f
 7906 030f 3A0B0000 		.4byte	.LVL386
 7907 0313 400B0000 		.4byte	.LVL389
 7908 0317 0100     		.2byte	0x1
 7909 0319 52       		.byte	0x52
 7910 031a 400B0000 		.4byte	.LVL389
 7911 031e EC0B0000 		.4byte	.LVL414
 7912 0322 0100     		.2byte	0x1
 7913 0324 5C       		.byte	0x5c
 7914 0325 EC0B0000 		.4byte	.LVL414
 7915 0329 4A0C0000 		.4byte	.LVL426
 7916 032d 0100     		.2byte	0x1
 7917 032f 51       		.byte	0x51
 7918 0330 4A0C0000 		.4byte	.LVL426
 7919 0334 D80C0000 		.4byte	.LVL443
 7920 0338 0200     		.2byte	0x2
 7921 033a 91       		.byte	0x91
 7922 033b 48       		.sleb128 -56
 7923 033c D80C0000 		.4byte	.LVL443
 7924 0340 DC0C0000 		.4byte	.LVL444
 7925 0344 0100     		.2byte	0x1
 7926 0346 53       		.byte	0x53
 7927 0347 DC0C0000 		.4byte	.LVL444
 7928 034b E00C0000 		.4byte	.LVL445
 7929 034f 1600     		.2byte	0x16
 7930 0351 70       		.byte	0x70
 7931 0352 00       		.sleb128 0
 7932 0353 20       		.byte	0x20
 7933 0354 72       		.byte	0x72
 7934 0355 00       		.sleb128 0
 7935 0356 21       		.byte	0x21
ARM GAS  C:\Users\Phuong\AppData\Local\Temp\ccbgGR22.s 			page 151


 7936 0357 7B       		.byte	0x7b
 7937 0358 00       		.sleb128 0
 7938 0359 27       		.byte	0x27
 7939 035a 7A       		.byte	0x7a
 7940 035b 00       		.sleb128 0
 7941 035c 22       		.byte	0x22
 7942 035d 91       		.byte	0x91
 7943 035e 8C7F     		.sleb128 -116
 7944 0360 06       		.byte	0x6
 7945 0361 22       		.byte	0x22
 7946 0362 91       		.byte	0x91
 7947 0363 48       		.sleb128 -56
 7948 0364 06       		.byte	0x6
 7949 0365 22       		.byte	0x22
 7950 0366 9F       		.byte	0x9f
 7951 0367 E00C0000 		.4byte	.LVL445
 7952 036b E20C0000 		.4byte	.LVL446
 7953 036f 0100     		.2byte	0x1
 7954 0371 53       		.byte	0x53
 7955 0372 E20C0000 		.4byte	.LVL446
 7956 0376 740D0000 		.4byte	.LVL474
 7957 037a 0100     		.2byte	0x1
 7958 037c 56       		.byte	0x56
 7959 037d 760D0000 		.4byte	.LVL475
 7960 0381 960D0000 		.4byte	.LVL478
 7961 0385 0100     		.2byte	0x1
 7962 0387 56       		.byte	0x56
 7963 0388 960D0000 		.4byte	.LVL478
 7964 038c 720E0000 		.4byte	.LVL505
 7965 0390 0200     		.2byte	0x2
 7966 0392 91       		.byte	0x91
 7967 0393 48       		.sleb128 -56
 7968 0394 720E0000 		.4byte	.LVL505
 7969 0398 760E0000 		.4byte	.LVL506
 7970 039c 0100     		.2byte	0x1
 7971 039e 56       		.byte	0x56
 7972 039f 760E0000 		.4byte	.LVL506
 7973 03a3 7A0E0000 		.4byte	.LVL507
 7974 03a7 0A00     		.2byte	0xa
 7975 03a9 91       		.byte	0x91
 7976 03aa 48       		.sleb128 -56
 7977 03ab 06       		.byte	0x6
 7978 03ac 7A       		.byte	0x7a
 7979 03ad 00       		.sleb128 0
 7980 03ae 22       		.byte	0x22
 7981 03af 7C       		.byte	0x7c
 7982 03b0 00       		.sleb128 0
 7983 03b1 22       		.byte	0x22
 7984 03b2 9F       		.byte	0x9f
 7985 03b3 7A0E0000 		.4byte	.LVL507
 7986 03b7 7C0E0000 		.4byte	.LVL508
 7987 03bb 0100     		.2byte	0x1
 7988 03bd 52       		.byte	0x52
 7989 03be 7C0E0000 		.4byte	.LVL508
 7990 03c2 360F0000 		.4byte	.LVL532
 7991 03c6 0200     		.2byte	0x2
 7992 03c8 91       		.byte	0x91
ARM GAS  C:\Users\Phuong\AppData\Local\Temp\ccbgGR22.s 			page 152


 7993 03c9 48       		.sleb128 -56
 7994 03ca 360F0000 		.4byte	.LVL532
 7995 03ce 3A0F0000 		.4byte	.LVL533
 7996 03d2 0100     		.2byte	0x1
 7997 03d4 56       		.byte	0x56
 7998 03d5 3A0F0000 		.4byte	.LVL533
 7999 03d9 3A100000 		.4byte	.LVL563
 8000 03dd 0200     		.2byte	0x2
 8001 03df 91       		.byte	0x91
 8002 03e0 44       		.sleb128 -60
 8003 03e1 3A100000 		.4byte	.LVL563
 8004 03e5 42100000 		.4byte	.LVL564
 8005 03e9 0100     		.2byte	0x1
 8006 03eb 5A       		.byte	0x5a
 8007 03ec 42100000 		.4byte	.LVL564
 8008 03f0 44100000 		.4byte	.LVL565
 8009 03f4 1700     		.2byte	0x17
 8010 03f6 91       		.byte	0x91
 8011 03f7 40       		.sleb128 -64
 8012 03f8 06       		.byte	0x6
 8013 03f9 20       		.byte	0x20
 8014 03fa 7B       		.byte	0x7b
 8015 03fb 00       		.sleb128 0
 8016 03fc 21       		.byte	0x21
 8017 03fd 70       		.byte	0x70
 8018 03fe 00       		.sleb128 0
 8019 03ff 27       		.byte	0x27
 8020 0400 79       		.byte	0x79
 8021 0401 00       		.sleb128 0
 8022 0402 22       		.byte	0x22
 8023 0403 91       		.byte	0x91
 8024 0404 A87F     		.sleb128 -88
 8025 0406 06       		.byte	0x6
 8026 0407 22       		.byte	0x22
 8027 0408 91       		.byte	0x91
 8028 0409 44       		.sleb128 -60
 8029 040a 06       		.byte	0x6
 8030 040b 22       		.byte	0x22
 8031 040c 9F       		.byte	0x9f
 8032 040d 44100000 		.4byte	.LVL565
 8033 0411 46100000 		.4byte	.LVL566
 8034 0415 1800     		.2byte	0x18
 8035 0417 91       		.byte	0x91
 8036 0418 40       		.sleb128 -64
 8037 0419 06       		.byte	0x6
 8038 041a 20       		.byte	0x20
 8039 041b 7B       		.byte	0x7b
 8040 041c 00       		.sleb128 0
 8041 041d 21       		.byte	0x21
 8042 041e 91       		.byte	0x91
 8043 041f 50       		.sleb128 -48
 8044 0420 06       		.byte	0x6
 8045 0421 27       		.byte	0x27
 8046 0422 79       		.byte	0x79
 8047 0423 00       		.sleb128 0
 8048 0424 22       		.byte	0x22
 8049 0425 91       		.byte	0x91
ARM GAS  C:\Users\Phuong\AppData\Local\Temp\ccbgGR22.s 			page 153


 8050 0426 A87F     		.sleb128 -88
 8051 0428 06       		.byte	0x6
 8052 0429 22       		.byte	0x22
 8053 042a 91       		.byte	0x91
 8054 042b 44       		.sleb128 -60
 8055 042c 06       		.byte	0x6
 8056 042d 22       		.byte	0x22
 8057 042e 9F       		.byte	0x9f
 8058 042f 46100000 		.4byte	.LVL566
 8059 0433 4C100000 		.4byte	.LVL567
 8060 0437 1B00     		.2byte	0x1b
 8061 0439 91       		.byte	0x91
 8062 043a 40       		.sleb128 -64
 8063 043b 06       		.byte	0x6
 8064 043c 20       		.byte	0x20
 8065 043d 7B       		.byte	0x7b
 8066 043e 00       		.sleb128 0
 8067 043f 21       		.byte	0x21
 8068 0440 91       		.byte	0x91
 8069 0441 50       		.sleb128 -48
 8070 0442 06       		.byte	0x6
 8071 0443 27       		.byte	0x27
 8072 0444 91       		.byte	0x91
 8073 0445 A87F     		.sleb128 -88
 8074 0447 06       		.byte	0x6
 8075 0448 22       		.byte	0x22
 8076 0449 91       		.byte	0x91
 8077 044a 44       		.sleb128 -60
 8078 044b 06       		.byte	0x6
 8079 044c 22       		.byte	0x22
 8080 044d 23       		.byte	0x23
 8081 044e A1D7E7F6 		.uleb128 0x6ed9eba1
 8081      06
 8082 0453 9F       		.byte	0x9f
 8083 0454 4C100000 		.4byte	.LVL567
 8084 0458 52100000 		.4byte	.LVL569
 8085 045c 0100     		.2byte	0x1
 8086 045e 54       		.byte	0x54
 8087 045f 52100000 		.4byte	.LVL569
 8088 0463 62100000 		.4byte	.LVL570
 8089 0467 0100     		.2byte	0x1
 8090 0469 5A       		.byte	0x5a
 8091 046a 62100000 		.4byte	.LVL570
 8092 046e 00110000 		.4byte	.LVL595
 8093 0472 0200     		.2byte	0x2
 8094 0474 91       		.byte	0x91
 8095 0475 44       		.sleb128 -60
 8096 0476 00110000 		.4byte	.LVL595
 8097 047a 02110000 		.4byte	.LVL596
 8098 047e 0100     		.2byte	0x1
 8099 0480 50       		.byte	0x50
 8100 0481 02110000 		.4byte	.LVL596
 8101 0485 B0110000 		.4byte	.LVL624
 8102 0489 0200     		.2byte	0x2
 8103 048b 91       		.byte	0x91
 8104 048c 50       		.sleb128 -48
 8105 048d B0110000 		.4byte	.LVL624
ARM GAS  C:\Users\Phuong\AppData\Local\Temp\ccbgGR22.s 			page 154


 8106 0491 EE110000 		.4byte	.LVL631
 8107 0495 0100     		.2byte	0x1
 8108 0497 52       		.byte	0x52
 8109 0498 EE110000 		.4byte	.LVL631
 8110 049c F6110000 		.4byte	.LVL632
 8111 04a0 0100     		.2byte	0x1
 8112 04a2 5A       		.byte	0x5a
 8113 04a3 F6110000 		.4byte	.LVL632
 8114 04a7 FA110000 		.4byte	.LVL633
 8115 04ab 1900     		.2byte	0x19
 8116 04ad 91       		.byte	0x91
 8117 04ae 44       		.sleb128 -60
 8118 04af 06       		.byte	0x6
 8119 04b0 71       		.byte	0x71
 8120 04b1 00       		.sleb128 0
 8121 04b2 27       		.byte	0x27
 8122 04b3 7B       		.byte	0x7b
 8123 04b4 00       		.sleb128 0
 8124 04b5 1A       		.byte	0x1a
 8125 04b6 91       		.byte	0x91
 8126 04b7 44       		.sleb128 -60
 8127 04b8 06       		.byte	0x6
 8128 04b9 27       		.byte	0x27
 8129 04ba 79       		.byte	0x79
 8130 04bb 00       		.sleb128 0
 8131 04bc 22       		.byte	0x22
 8132 04bd 91       		.byte	0x91
 8133 04be A87F     		.sleb128 -88
 8134 04c0 06       		.byte	0x6
 8135 04c1 22       		.byte	0x22
 8136 04c2 72       		.byte	0x72
 8137 04c3 00       		.sleb128 0
 8138 04c4 22       		.byte	0x22
 8139 04c5 9F       		.byte	0x9f
 8140 04c6 FA110000 		.4byte	.LVL633
 8141 04ca FC110000 		.4byte	.LVL634
 8142 04ce 1C00     		.2byte	0x1c
 8143 04d0 91       		.byte	0x91
 8144 04d1 44       		.sleb128 -60
 8145 04d2 06       		.byte	0x6
 8146 04d3 71       		.byte	0x71
 8147 04d4 00       		.sleb128 0
 8148 04d5 27       		.byte	0x27
 8149 04d6 7B       		.byte	0x7b
 8150 04d7 00       		.sleb128 0
 8151 04d8 1A       		.byte	0x1a
 8152 04d9 91       		.byte	0x91
 8153 04da 44       		.sleb128 -60
 8154 04db 06       		.byte	0x6
 8155 04dc 27       		.byte	0x27
 8156 04dd 91       		.byte	0x91
 8157 04de A87F     		.sleb128 -88
 8158 04e0 06       		.byte	0x6
 8159 04e1 22       		.byte	0x22
 8160 04e2 72       		.byte	0x72
 8161 04e3 00       		.sleb128 0
 8162 04e4 22       		.byte	0x22
ARM GAS  C:\Users\Phuong\AppData\Local\Temp\ccbgGR22.s 			page 155


 8163 04e5 0C       		.byte	0xc
 8164 04e6 2443E470 		.4byte	0x70e44324
 8165 04ea 1C       		.byte	0x1c
 8166 04eb 9F       		.byte	0x9f
 8167 04ec FC110000 		.4byte	.LVL634
 8168 04f0 C8120000 		.4byte	.LVL658
 8169 04f4 0100     		.2byte	0x1
 8170 04f6 5A       		.byte	0x5a
 8171 04f7 C8120000 		.4byte	.LVL658
 8172 04fb CA120000 		.4byte	.LVL659
 8173 04ff 0100     		.2byte	0x1
 8174 0501 50       		.byte	0x50
 8175 0502 CA120000 		.4byte	.LVL659
 8176 0506 CC130000 		.4byte	.LVL689
 8177 050a 0200     		.2byte	0x2
 8178 050c 91       		.byte	0x91
 8179 050d 50       		.sleb128 -48
 8180 050e CC130000 		.4byte	.LVL689
 8181 0512 D4130000 		.4byte	.LVL690
 8182 0516 0100     		.2byte	0x1
 8183 0518 5A       		.byte	0x5a
 8184 0519 D4130000 		.4byte	.LVL690
 8185 051d D6130000 		.4byte	.LVL691
 8186 0521 1900     		.2byte	0x19
 8187 0523 78       		.byte	0x78
 8188 0524 00       		.sleb128 0
 8189 0525 7C       		.byte	0x7c
 8190 0526 00       		.sleb128 0
 8191 0527 27       		.byte	0x27
 8192 0528 91       		.byte	0x91
 8193 0529 4C       		.sleb128 -52
 8194 052a 06       		.byte	0x6
 8195 052b 1A       		.byte	0x1a
 8196 052c 7C       		.byte	0x7c
 8197 052d 00       		.sleb128 0
 8198 052e 27       		.byte	0x27
 8199 052f 7B       		.byte	0x7b
 8200 0530 00       		.sleb128 0
 8201 0531 22       		.byte	0x22
 8202 0532 91       		.byte	0x91
 8203 0533 8C7F     		.sleb128 -116
 8204 0535 06       		.byte	0x6
 8205 0536 22       		.byte	0x22
 8206 0537 91       		.byte	0x91
 8207 0538 50       		.sleb128 -48
 8208 0539 06       		.byte	0x6
 8209 053a 22       		.byte	0x22
 8210 053b 9F       		.byte	0x9f
 8211 053c D6130000 		.4byte	.LVL691
 8212 0540 92140000 		.4byte	.LVL715
 8213 0544 0100     		.2byte	0x1
 8214 0546 5A       		.byte	0x5a
 8215 0547 92140000 		.4byte	.LVL715
 8216 054b 94140000 		.4byte	.LVL716
 8217 054f 0100     		.2byte	0x1
 8218 0551 50       		.byte	0x50
 8219 0552 94140000 		.4byte	.LVL716
ARM GAS  C:\Users\Phuong\AppData\Local\Temp\ccbgGR22.s 			page 156


 8220 0556 96150000 		.4byte	.LVL747
 8221 055a 0200     		.2byte	0x2
 8222 055c 91       		.byte	0x91
 8223 055d 48       		.sleb128 -56
 8224 055e 96150000 		.4byte	.LVL747
 8225 0562 9E150000 		.4byte	.LVL748
 8226 0566 0100     		.2byte	0x1
 8227 0568 5A       		.byte	0x5a
 8228 0569 9E150000 		.4byte	.LVL748
 8229 056d A2150000 		.4byte	.LVL749
 8230 0571 1900     		.2byte	0x19
 8231 0573 7C       		.byte	0x7c
 8232 0574 00       		.sleb128 0
 8233 0575 78       		.byte	0x78
 8234 0576 00       		.sleb128 0
 8235 0577 27       		.byte	0x27
 8236 0578 91       		.byte	0x91
 8237 0579 50       		.sleb128 -48
 8238 057a 06       		.byte	0x6
 8239 057b 1A       		.byte	0x1a
 8240 057c 7C       		.byte	0x7c
 8241 057d 00       		.sleb128 0
 8242 057e 27       		.byte	0x27
 8243 057f 79       		.byte	0x79
 8244 0580 00       		.sleb128 0
 8245 0581 22       		.byte	0x22
 8246 0582 91       		.byte	0x91
 8247 0583 B47F     		.sleb128 -76
 8248 0585 06       		.byte	0x6
 8249 0586 22       		.byte	0x22
 8250 0587 91       		.byte	0x91
 8251 0588 48       		.sleb128 -56
 8252 0589 06       		.byte	0x6
 8253 058a 22       		.byte	0x22
 8254 058b 9F       		.byte	0x9f
 8255 058c A2150000 		.4byte	.LVL749
 8256 0590 A4150000 		.4byte	.LVL750
 8257 0594 1C00     		.2byte	0x1c
 8258 0596 7C       		.byte	0x7c
 8259 0597 00       		.sleb128 0
 8260 0598 78       		.byte	0x78
 8261 0599 00       		.sleb128 0
 8262 059a 27       		.byte	0x27
 8263 059b 91       		.byte	0x91
 8264 059c 50       		.sleb128 -48
 8265 059d 06       		.byte	0x6
 8266 059e 1A       		.byte	0x1a
 8267 059f 7C       		.byte	0x7c
 8268 05a0 00       		.sleb128 0
 8269 05a1 27       		.byte	0x27
 8270 05a2 91       		.byte	0x91
 8271 05a3 B47F     		.sleb128 -76
 8272 05a5 06       		.byte	0x6
 8273 05a6 22       		.byte	0x22
 8274 05a7 91       		.byte	0x91
 8275 05a8 48       		.sleb128 -56
 8276 05a9 06       		.byte	0x6
ARM GAS  C:\Users\Phuong\AppData\Local\Temp\ccbgGR22.s 			page 157


 8277 05aa 22       		.byte	0x22
 8278 05ab 0C       		.byte	0xc
 8279 05ac 2443E470 		.4byte	0x70e44324
 8280 05b0 1C       		.byte	0x1c
 8281 05b1 9F       		.byte	0x9f
 8282 05b2 A4150000 		.4byte	.LVL750
 8283 05b6 64160000 		.4byte	.LVL774
 8284 05ba 0100     		.2byte	0x1
 8285 05bc 5A       		.byte	0x5a
 8286 05bd 64160000 		.4byte	.LVL774
 8287 05c1 66160000 		.4byte	.LVL775
 8288 05c5 0100     		.2byte	0x1
 8289 05c7 55       		.byte	0x55
 8290 05c8 66160000 		.4byte	.LVL775
 8291 05cc 58170000 		.4byte	.LVL806
 8292 05d0 0200     		.2byte	0x2
 8293 05d2 91       		.byte	0x91
 8294 05d3 4C       		.sleb128 -52
 8295 05d4 58170000 		.4byte	.LVL806
 8296 05d8 5C170000 		.4byte	.LVL807
 8297 05dc 0100     		.2byte	0x1
 8298 05de 51       		.byte	0x51
 8299 05df 5C170000 		.4byte	.LVL807
 8300 05e3 60170000 		.4byte	.LVL808
 8301 05e7 1700     		.2byte	0x17
 8302 05e9 91       		.byte	0x91
 8303 05ea 40       		.sleb128 -64
 8304 05eb 06       		.byte	0x6
 8305 05ec 20       		.byte	0x20
 8306 05ed 74       		.byte	0x74
 8307 05ee 00       		.sleb128 0
 8308 05ef 21       		.byte	0x21
 8309 05f0 70       		.byte	0x70
 8310 05f1 00       		.sleb128 0
 8311 05f2 27       		.byte	0x27
 8312 05f3 7A       		.byte	0x7a
 8313 05f4 00       		.sleb128 0
 8314 05f5 22       		.byte	0x22
 8315 05f6 91       		.byte	0x91
 8316 05f7 BC7F     		.sleb128 -68
 8317 05f9 06       		.byte	0x6
 8318 05fa 22       		.byte	0x22
 8319 05fb 91       		.byte	0x91
 8320 05fc 4C       		.sleb128 -52
 8321 05fd 06       		.byte	0x6
 8322 05fe 22       		.byte	0x22
 8323 05ff 9F       		.byte	0x9f
 8324 0600 60170000 		.4byte	.LVL808
 8325 0604 68170000 		.4byte	.LVL809
 8326 0608 1A00     		.2byte	0x1a
 8327 060a 91       		.byte	0x91
 8328 060b 40       		.sleb128 -64
 8329 060c 06       		.byte	0x6
 8330 060d 20       		.byte	0x20
 8331 060e 74       		.byte	0x74
 8332 060f 00       		.sleb128 0
 8333 0610 21       		.byte	0x21
ARM GAS  C:\Users\Phuong\AppData\Local\Temp\ccbgGR22.s 			page 158


 8334 0611 70       		.byte	0x70
 8335 0612 00       		.sleb128 0
 8336 0613 27       		.byte	0x27
 8337 0614 91       		.byte	0x91
 8338 0615 BC7F     		.sleb128 -68
 8339 0617 06       		.byte	0x6
 8340 0618 22       		.byte	0x22
 8341 0619 91       		.byte	0x91
 8342 061a 4C       		.sleb128 -52
 8343 061b 06       		.byte	0x6
 8344 061c 22       		.byte	0x22
 8345 061d 0C       		.byte	0xc
 8346 061e B202AC56 		.4byte	0x56ac02b2
 8347 0622 1C       		.byte	0x1c
 8348 0623 9F       		.byte	0x9f
 8349 0624 68170000 		.4byte	.LVL809
 8350 0628 6E170000 		.4byte	.LVL811
 8351 062c 0100     		.2byte	0x1
 8352 062e 52       		.byte	0x52
 8353 062f 6E170000 		.4byte	.LVL811
 8354 0633 78170000 		.4byte	.LVL812
 8355 0637 0100     		.2byte	0x1
 8356 0639 5C       		.byte	0x5c
 8357 063a 78170000 		.4byte	.LVL812
 8358 063e 02180000 		.4byte	.LVL835
 8359 0642 0200     		.2byte	0x2
 8360 0644 91       		.byte	0x91
 8361 0645 44       		.sleb128 -60
 8362 0646 02180000 		.4byte	.LVL835
 8363 064a 04180000 		.4byte	.LVL836
 8364 064e 0100     		.2byte	0x1
 8365 0650 50       		.byte	0x50
 8366 0651 04180000 		.4byte	.LVL836
 8367 0655 DC180000 		.4byte	.LVL866
 8368 0659 0200     		.2byte	0x2
 8369 065b 91       		.byte	0x91
 8370 065c 40       		.sleb128 -64
 8371 065d DC180000 		.4byte	.LVL866
 8372 0661 E0180000 		.4byte	.LVL867
 8373 0665 0100     		.2byte	0x1
 8374 0667 55       		.byte	0x55
 8375 0668 E0180000 		.4byte	.LVL867
 8376 066c E6180000 		.4byte	.LVL868
 8377 0670 1600     		.2byte	0x16
 8378 0672 7C       		.byte	0x7c
 8379 0673 00       		.sleb128 0
 8380 0674 20       		.byte	0x20
 8381 0675 74       		.byte	0x74
 8382 0676 00       		.sleb128 0
 8383 0677 21       		.byte	0x21
 8384 0678 70       		.byte	0x70
 8385 0679 00       		.sleb128 0
 8386 067a 27       		.byte	0x27
 8387 067b 79       		.byte	0x79
 8388 067c 00       		.sleb128 0
 8389 067d 22       		.byte	0x22
 8390 067e 91       		.byte	0x91
ARM GAS  C:\Users\Phuong\AppData\Local\Temp\ccbgGR22.s 			page 159


 8391 067f 847F     		.sleb128 -124
 8392 0681 06       		.byte	0x6
 8393 0682 22       		.byte	0x22
 8394 0683 91       		.byte	0x91
 8395 0684 40       		.sleb128 -64
 8396 0685 06       		.byte	0x6
 8397 0686 22       		.byte	0x22
 8398 0687 9F       		.byte	0x9f
 8399 0688 E6180000 		.4byte	.LVL868
 8400 068c EC180000 		.4byte	.LVL869
 8401 0690 0100     		.2byte	0x1
 8402 0692 51       		.byte	0x51
 8403 0693 EC180000 		.4byte	.LVL869
 8404 0697 34190000 		.4byte	.LVL881
 8405 069b 0300     		.2byte	0x3
 8406 069d 91       		.byte	0x91
 8407 069e 907F     		.sleb128 -112
 8408 06a0 34190000 		.4byte	.LVL881
 8409 06a4 84190000 		.4byte	.LVL891
 8410 06a8 0100     		.2byte	0x1
 8411 06aa 54       		.byte	0x54
 8412 06ab 84190000 		.4byte	.LVL891
 8413 06af 86190000 		.4byte	.LVL892
 8414 06b3 0100     		.2byte	0x1
 8415 06b5 55       		.byte	0x55
 8416 06b6 86190000 		.4byte	.LVL892
 8417 06ba 541A0000 		.4byte	.LVL923
 8418 06be 0100     		.2byte	0x1
 8419 06c0 5B       		.byte	0x5b
 8420 06c1 541A0000 		.4byte	.LVL923
 8421 06c5 581A0000 		.4byte	.LVL924
 8422 06c9 0100     		.2byte	0x1
 8423 06cb 55       		.byte	0x55
 8424 06cc 581A0000 		.4byte	.LVL924
 8425 06d0 5C1A0000 		.4byte	.LVL925
 8426 06d4 1700     		.2byte	0x17
 8427 06d6 7C       		.byte	0x7c
 8428 06d7 00       		.sleb128 0
 8429 06d8 20       		.byte	0x20
 8430 06d9 74       		.byte	0x74
 8431 06da 00       		.sleb128 0
 8432 06db 21       		.byte	0x21
 8433 06dc 91       		.byte	0x91
 8434 06dd 847F     		.sleb128 -124
 8435 06df 06       		.byte	0x6
 8436 06e0 27       		.byte	0x27
 8437 06e1 79       		.byte	0x79
 8438 06e2 00       		.sleb128 0
 8439 06e3 22       		.byte	0x22
 8440 06e4 91       		.byte	0x91
 8441 06e5 9C7F     		.sleb128 -100
 8442 06e7 06       		.byte	0x6
 8443 06e8 22       		.byte	0x22
 8444 06e9 7B       		.byte	0x7b
 8445 06ea 00       		.sleb128 0
 8446 06eb 22       		.byte	0x22
 8447 06ec 9F       		.byte	0x9f
ARM GAS  C:\Users\Phuong\AppData\Local\Temp\ccbgGR22.s 			page 160


 8448 06ed 5C1A0000 		.4byte	.LVL925
 8449 06f1 5E1A0000 		.4byte	.LVL926
 8450 06f5 1A00     		.2byte	0x1a
 8451 06f7 7C       		.byte	0x7c
 8452 06f8 00       		.sleb128 0
 8453 06f9 20       		.byte	0x20
 8454 06fa 74       		.byte	0x74
 8455 06fb 00       		.sleb128 0
 8456 06fc 21       		.byte	0x21
 8457 06fd 91       		.byte	0x91
 8458 06fe 847F     		.sleb128 -124
 8459 0700 06       		.byte	0x6
 8460 0701 27       		.byte	0x27
 8461 0702 91       		.byte	0x91
 8462 0703 9C7F     		.sleb128 -100
 8463 0705 06       		.byte	0x6
 8464 0706 22       		.byte	0x22
 8465 0707 7B       		.byte	0x7b
 8466 0708 00       		.sleb128 0
 8467 0709 22       		.byte	0x22
 8468 070a 0C       		.byte	0xc
 8469 070b B202AC56 		.4byte	0x56ac02b2
 8470 070f 1C       		.byte	0x1c
 8471 0710 9F       		.byte	0x9f
 8472 0711 5E1A0000 		.4byte	.LVL926
 8473 0715 FE1A0000 		.4byte	.LVL951
 8474 0719 0100     		.2byte	0x1
 8475 071b 55       		.byte	0x55
 8476 071c 001B0000 		.4byte	.LVL952
 8477 0720 061B0000 		.4byte	.LVL953
 8478 0724 0100     		.2byte	0x1
 8479 0726 55       		.byte	0x55
 8480 0727 061B0000 		.4byte	.LVL953
 8481 072b 041C0000 		.4byte	.LFE6
 8482 072f 0300     		.2byte	0x3
 8483 0731 91       		.byte	0x91
 8484 0732 907F     		.sleb128 -112
 8485 0734 00000000 		.4byte	0
 8486 0738 00000000 		.4byte	0
 8487              	.LLST9:
 8488 073c CE010000 		.4byte	.LVL14
 8489 0740 42020000 		.4byte	.LVL27
 8490 0744 0200     		.2byte	0x2
 8491 0746 77       		.byte	0x77
 8492 0747 0C       		.sleb128 12
 8493 0748 42020000 		.4byte	.LVL27
 8494 074c 44020000 		.4byte	.LVL28
 8495 0750 0100     		.2byte	0x1
 8496 0752 56       		.byte	0x56
 8497 0753 44020000 		.4byte	.LVL28
 8498 0757 FE020000 		.4byte	.LVL54
 8499 075b 0100     		.2byte	0x1
 8500 075d 58       		.byte	0x58
 8501 075e FE020000 		.4byte	.LVL54
 8502 0762 06030000 		.4byte	.LVL55
 8503 0766 0100     		.2byte	0x1
 8504 0768 59       		.byte	0x59
ARM GAS  C:\Users\Phuong\AppData\Local\Temp\ccbgGR22.s 			page 161


 8505 0769 06030000 		.4byte	.LVL55
 8506 076d 08030000 		.4byte	.LVL56
 8507 0771 1000     		.2byte	0x10
 8508 0773 7A       		.byte	0x7a
 8509 0774 00       		.sleb128 0
 8510 0775 74       		.byte	0x74
 8511 0776 00       		.sleb128 0
 8512 0777 27       		.byte	0x27
 8513 0778 91       		.byte	0x91
 8514 0779 44       		.sleb128 -60
 8515 077a 06       		.byte	0x6
 8516 077b 27       		.byte	0x27
 8517 077c 78       		.byte	0x78
 8518 077d 00       		.sleb128 0
 8519 077e 22       		.byte	0x22
 8520 077f 7C       		.byte	0x7c
 8521 0780 00       		.sleb128 0
 8522 0781 22       		.byte	0x22
 8523 0782 9F       		.byte	0x9f
 8524 0783 08030000 		.4byte	.LVL56
 8525 0787 B0030000 		.4byte	.LVL82
 8526 078b 0100     		.2byte	0x1
 8527 078d 59       		.byte	0x59
 8528 078e B0030000 		.4byte	.LVL82
 8529 0792 B2030000 		.4byte	.LVL83
 8530 0796 0100     		.2byte	0x1
 8531 0798 54       		.byte	0x54
 8532 0799 B2030000 		.4byte	.LVL83
 8533 079d 8A040000 		.4byte	.LVL114
 8534 07a1 0100     		.2byte	0x1
 8535 07a3 59       		.byte	0x59
 8536 07a4 8A040000 		.4byte	.LVL114
 8537 07a8 8E040000 		.4byte	.LVL115
 8538 07ac 0100     		.2byte	0x1
 8539 07ae 55       		.byte	0x55
 8540 07af 8E040000 		.4byte	.LVL115
 8541 07b3 94040000 		.4byte	.LVL116
 8542 07b7 1200     		.2byte	0x12
 8543 07b9 7B       		.byte	0x7b
 8544 07ba 00       		.sleb128 0
 8545 07bb 7A       		.byte	0x7a
 8546 07bc 00       		.sleb128 0
 8547 07bd 27       		.byte	0x27
 8548 07be 91       		.byte	0x91
 8549 07bf 40       		.sleb128 -64
 8550 07c0 06       		.byte	0x6
 8551 07c1 27       		.byte	0x27
 8552 07c2 79       		.byte	0x79
 8553 07c3 00       		.sleb128 0
 8554 07c4 22       		.byte	0x22
 8555 07c5 91       		.byte	0x91
 8556 07c6 A07F     		.sleb128 -96
 8557 07c8 06       		.byte	0x6
 8558 07c9 22       		.byte	0x22
 8559 07ca 9F       		.byte	0x9f
 8560 07cb 94040000 		.4byte	.LVL116
 8561 07cf 36050000 		.4byte	.LVL141
ARM GAS  C:\Users\Phuong\AppData\Local\Temp\ccbgGR22.s 			page 162


 8562 07d3 0100     		.2byte	0x1
 8563 07d5 55       		.byte	0x55
 8564 07d6 38050000 		.4byte	.LVL142
 8565 07da 3A050000 		.4byte	.LVL143
 8566 07de 0100     		.2byte	0x1
 8567 07e0 55       		.byte	0x55
 8568 07e1 3A050000 		.4byte	.LVL143
 8569 07e5 FC050000 		.4byte	.LVL178
 8570 07e9 0200     		.2byte	0x2
 8571 07eb 91       		.byte	0x91
 8572 07ec 40       		.sleb128 -64
 8573 07ed FC050000 		.4byte	.LVL178
 8574 07f1 00060000 		.4byte	.LVL179
 8575 07f5 0100     		.2byte	0x1
 8576 07f7 51       		.byte	0x51
 8577 07f8 00060000 		.4byte	.LVL179
 8578 07fc 02060000 		.4byte	.LVL180
 8579 0800 1300     		.2byte	0x13
 8580 0802 7B       		.byte	0x7b
 8581 0803 00       		.sleb128 0
 8582 0804 75       		.byte	0x75
 8583 0805 00       		.sleb128 0
 8584 0806 27       		.byte	0x27
 8585 0807 91       		.byte	0x91
 8586 0808 48       		.sleb128 -56
 8587 0809 06       		.byte	0x6
 8588 080a 27       		.byte	0x27
 8589 080b 91       		.byte	0x91
 8590 080c 40       		.sleb128 -64
 8591 080d 06       		.byte	0x6
 8592 080e 22       		.byte	0x22
 8593 080f 91       		.byte	0x91
 8594 0810 B47F     		.sleb128 -76
 8595 0812 06       		.byte	0x6
 8596 0813 22       		.byte	0x22
 8597 0814 9F       		.byte	0x9f
 8598 0815 02060000 		.4byte	.LVL180
 8599 0819 B0060000 		.4byte	.LVL205
 8600 081d 0100     		.2byte	0x1
 8601 081f 51       		.byte	0x51
 8602 0820 B2060000 		.4byte	.LVL206
 8603 0824 B8060000 		.4byte	.LVL207
 8604 0828 0100     		.2byte	0x1
 8605 082a 51       		.byte	0x51
 8606 082b B8060000 		.4byte	.LVL207
 8607 082f 04070000 		.4byte	.LVL219
 8608 0833 0100     		.2byte	0x1
 8609 0835 52       		.byte	0x52
 8610 0836 04070000 		.4byte	.LVL219
 8611 083a 94070000 		.4byte	.LVL239
 8612 083e 0200     		.2byte	0x2
 8613 0840 91       		.byte	0x91
 8614 0841 50       		.sleb128 -48
 8615 0842 94070000 		.4byte	.LVL239
 8616 0846 98070000 		.4byte	.LVL240
 8617 084a 0100     		.2byte	0x1
 8618 084c 51       		.byte	0x51
ARM GAS  C:\Users\Phuong\AppData\Local\Temp\ccbgGR22.s 			page 163


 8619 084d 98070000 		.4byte	.LVL240
 8620 0851 9C070000 		.4byte	.LVL241
 8621 0855 1700     		.2byte	0x17
 8622 0857 79       		.byte	0x79
 8623 0858 00       		.sleb128 0
 8624 0859 74       		.byte	0x74
 8625 085a 00       		.sleb128 0
 8626 085b 27       		.byte	0x27
 8627 085c 70       		.byte	0x70
 8628 085d 00       		.sleb128 0
 8629 085e 1A       		.byte	0x1a
 8630 085f 79       		.byte	0x79
 8631 0860 00       		.sleb128 0
 8632 0861 27       		.byte	0x27
 8633 0862 7C       		.byte	0x7c
 8634 0863 00       		.sleb128 0
 8635 0864 22       		.byte	0x22
 8636 0865 7D       		.byte	0x7d
 8637 0866 00       		.sleb128 0
 8638 0867 06       		.byte	0x6
 8639 0868 22       		.byte	0x22
 8640 0869 91       		.byte	0x91
 8641 086a 50       		.sleb128 -48
 8642 086b 06       		.byte	0x6
 8643 086c 22       		.byte	0x22
 8644 086d 9F       		.byte	0x9f
 8645 086e 9C070000 		.4byte	.LVL241
 8646 0872 9E070000 		.4byte	.LVL242
 8647 0876 1A00     		.2byte	0x1a
 8648 0878 79       		.byte	0x79
 8649 0879 00       		.sleb128 0
 8650 087a 74       		.byte	0x74
 8651 087b 00       		.sleb128 0
 8652 087c 27       		.byte	0x27
 8653 087d 70       		.byte	0x70
 8654 087e 00       		.sleb128 0
 8655 087f 1A       		.byte	0x1a
 8656 0880 79       		.byte	0x79
 8657 0881 00       		.sleb128 0
 8658 0882 27       		.byte	0x27
 8659 0883 7D       		.byte	0x7d
 8660 0884 00       		.sleb128 0
 8661 0885 06       		.byte	0x6
 8662 0886 22       		.byte	0x22
 8663 0887 91       		.byte	0x91
 8664 0888 50       		.sleb128 -48
 8665 0889 06       		.byte	0x6
 8666 088a 22       		.byte	0x22
 8667 088b 23       		.byte	0x23
 8668 088c 99F389D4 		.uleb128 0x5a827999
 8668      05
 8669 0891 9F       		.byte	0x9f
 8670 0892 9E070000 		.4byte	.LVL242
 8671 0896 54080000 		.4byte	.LVL272
 8672 089a 0100     		.2byte	0x1
 8673 089c 51       		.byte	0x51
 8674 089d 54080000 		.4byte	.LVL272
ARM GAS  C:\Users\Phuong\AppData\Local\Temp\ccbgGR22.s 			page 164


 8675 08a1 58080000 		.4byte	.LVL273
 8676 08a5 0100     		.2byte	0x1
 8677 08a7 52       		.byte	0x52
 8678 08a8 58080000 		.4byte	.LVL273
 8679 08ac 3C090000 		.4byte	.LVL305
 8680 08b0 0100     		.2byte	0x1
 8681 08b2 59       		.byte	0x59
 8682 08b3 3E090000 		.4byte	.LVL306
 8683 08b7 40090000 		.4byte	.LVL307
 8684 08bb 0100     		.2byte	0x1
 8685 08bd 51       		.byte	0x51
 8686 08be 46090000 		.4byte	.LVL308
 8687 08c2 52090000 		.4byte	.LVL312
 8688 08c6 0100     		.2byte	0x1
 8689 08c8 55       		.byte	0x55
 8690 08c9 52090000 		.4byte	.LVL312
 8691 08cd EC090000 		.4byte	.LVL337
 8692 08d1 0200     		.2byte	0x2
 8693 08d3 91       		.byte	0x91
 8694 08d4 4C       		.sleb128 -52
 8695 08d5 EC090000 		.4byte	.LVL337
 8696 08d9 EE090000 		.4byte	.LVL338
 8697 08dd 0100     		.2byte	0x1
 8698 08df 50       		.byte	0x50
 8699 08e0 EE090000 		.4byte	.LVL338
 8700 08e4 DA0A0000 		.4byte	.LVL373
 8701 08e8 0100     		.2byte	0x1
 8702 08ea 5B       		.byte	0x5b
 8703 08eb DA0A0000 		.4byte	.LVL373
 8704 08ef DC0A0000 		.4byte	.LVL374
 8705 08f3 0100     		.2byte	0x1
 8706 08f5 51       		.byte	0x51
 8707 08f6 DC0A0000 		.4byte	.LVL374
 8708 08fa DE0A0000 		.4byte	.LVL375
 8709 08fe 1700     		.2byte	0x17
 8710 0900 7A       		.byte	0x7a
 8711 0901 00       		.sleb128 0
 8712 0902 78       		.byte	0x78
 8713 0903 00       		.sleb128 0
 8714 0904 27       		.byte	0x27
 8715 0905 70       		.byte	0x70
 8716 0906 00       		.sleb128 0
 8717 0907 1A       		.byte	0x1a
 8718 0908 78       		.byte	0x78
 8719 0909 00       		.sleb128 0
 8720 090a 27       		.byte	0x27
 8721 090b 75       		.byte	0x75
 8722 090c 00       		.sleb128 0
 8723 090d 22       		.byte	0x22
 8724 090e 91       		.byte	0x91
 8725 090f B47F     		.sleb128 -76
 8726 0911 06       		.byte	0x6
 8727 0912 22       		.byte	0x22
 8728 0913 7B       		.byte	0x7b
 8729 0914 00       		.sleb128 0
 8730 0915 22       		.byte	0x22
 8731 0916 9F       		.byte	0x9f
ARM GAS  C:\Users\Phuong\AppData\Local\Temp\ccbgGR22.s 			page 165


 8732 0917 E40A0000 		.4byte	.LVL376
 8733 091b 9A0B0000 		.4byte	.LVL401
 8734 091f 0100     		.2byte	0x1
 8735 0921 5B       		.byte	0x5b
 8736 0922 9A0B0000 		.4byte	.LVL401
 8737 0926 9C0B0000 		.4byte	.LVL402
 8738 092a 0100     		.2byte	0x1
 8739 092c 52       		.byte	0x52
 8740 092d 9C0B0000 		.4byte	.LVL402
 8741 0931 880C0000 		.4byte	.LVL432
 8742 0935 0100     		.2byte	0x1
 8743 0937 5B       		.byte	0x5b
 8744 0938 880C0000 		.4byte	.LVL432
 8745 093c 8C0C0000 		.4byte	.LVL433
 8746 0940 0100     		.2byte	0x1
 8747 0942 52       		.byte	0x52
 8748 0943 8C0C0000 		.4byte	.LVL433
 8749 0947 900C0000 		.4byte	.LVL434
 8750 094b 1500     		.2byte	0x15
 8751 094d 75       		.byte	0x75
 8752 094e 00       		.sleb128 0
 8753 094f 20       		.byte	0x20
 8754 0950 70       		.byte	0x70
 8755 0951 00       		.sleb128 0
 8756 0952 21       		.byte	0x21
 8757 0953 7C       		.byte	0x7c
 8758 0954 00       		.sleb128 0
 8759 0955 27       		.byte	0x27
 8760 0956 7A       		.byte	0x7a
 8761 0957 00       		.sleb128 0
 8762 0958 22       		.byte	0x22
 8763 0959 91       		.byte	0x91
 8764 095a B47F     		.sleb128 -76
 8765 095c 06       		.byte	0x6
 8766 095d 22       		.byte	0x22
 8767 095e 7B       		.byte	0x7b
 8768 095f 00       		.sleb128 0
 8769 0960 22       		.byte	0x22
 8770 0961 9F       		.byte	0x9f
 8771 0962 900C0000 		.4byte	.LVL434
 8772 0966 920C0000 		.4byte	.LVL435
 8773 096a 1800     		.2byte	0x18
 8774 096c 75       		.byte	0x75
 8775 096d 00       		.sleb128 0
 8776 096e 20       		.byte	0x20
 8777 096f 70       		.byte	0x70
 8778 0970 00       		.sleb128 0
 8779 0971 21       		.byte	0x21
 8780 0972 7C       		.byte	0x7c
 8781 0973 00       		.sleb128 0
 8782 0974 27       		.byte	0x27
 8783 0975 91       		.byte	0x91
 8784 0976 B47F     		.sleb128 -76
 8785 0978 06       		.byte	0x6
 8786 0979 22       		.byte	0x22
 8787 097a 7B       		.byte	0x7b
 8788 097b 00       		.sleb128 0
ARM GAS  C:\Users\Phuong\AppData\Local\Temp\ccbgGR22.s 			page 166


 8789 097c 22       		.byte	0x22
 8790 097d 23       		.byte	0x23
 8791 097e A1D7E7F6 		.uleb128 0x6ed9eba1
 8791      06
 8792 0983 9F       		.byte	0x9f
 8793 0984 920C0000 		.4byte	.LVL435
 8794 0988 2C0D0000 		.4byte	.LVL461
 8795 098c 0100     		.2byte	0x1
 8796 098e 52       		.byte	0x52
 8797 098f 2E0D0000 		.4byte	.LVL462
 8798 0993 300D0000 		.4byte	.LVL463
 8799 0997 0100     		.2byte	0x1
 8800 0999 52       		.byte	0x52
 8801 099a 300D0000 		.4byte	.LVL463
 8802 099e 000E0000 		.4byte	.LVL494
 8803 09a2 0100     		.2byte	0x1
 8804 09a4 58       		.byte	0x58
 8805 09a5 020E0000 		.4byte	.LVL495
 8806 09a9 060E0000 		.4byte	.LVL496
 8807 09ad 0100     		.2byte	0x1
 8808 09af 50       		.byte	0x50
 8809 09b0 0C0E0000 		.4byte	.LVL497
 8810 09b4 DE0F0000 		.4byte	.LVL552
 8811 09b8 0100     		.2byte	0x1
 8812 09ba 50       		.byte	0x50
 8813 09bb E40F0000 		.4byte	.LVL553
 8814 09bf E60F0000 		.4byte	.LVL554
 8815 09c3 0100     		.2byte	0x1
 8816 09c5 50       		.byte	0x50
 8817 09c6 EC0F0000 		.4byte	.LVL555
 8818 09ca AC100000 		.4byte	.LVL582
 8819 09ce 0100     		.2byte	0x1
 8820 09d0 5B       		.byte	0x5b
 8821 09d1 AC100000 		.4byte	.LVL582
 8822 09d5 B8100000 		.4byte	.LVL583
 8823 09d9 0100     		.2byte	0x1
 8824 09db 51       		.byte	0x51
 8825 09dc B8100000 		.4byte	.LVL583
 8826 09e0 98110000 		.4byte	.LVL617
 8827 09e4 0100     		.2byte	0x1
 8828 09e6 5B       		.byte	0x5b
 8829 09e7 98110000 		.4byte	.LVL617
 8830 09eb 9C110000 		.4byte	.LVL618
 8831 09ef 0100     		.2byte	0x1
 8832 09f1 51       		.byte	0x51
 8833 09f2 9C110000 		.4byte	.LVL618
 8834 09f6 A0110000 		.4byte	.LVL619
 8835 09fa 1900     		.2byte	0x19
 8836 09fc 74       		.byte	0x74
 8837 09fd 00       		.sleb128 0
 8838 09fe 91       		.byte	0x91
 8839 09ff 44       		.sleb128 -60
 8840 0a00 06       		.byte	0x6
 8841 0a01 27       		.byte	0x27
 8842 0a02 91       		.byte	0x91
 8843 0a03 4C       		.sleb128 -52
 8844 0a04 06       		.byte	0x6
ARM GAS  C:\Users\Phuong\AppData\Local\Temp\ccbgGR22.s 			page 167


 8845 0a05 1A       		.byte	0x1a
 8846 0a06 74       		.byte	0x74
 8847 0a07 00       		.sleb128 0
 8848 0a08 27       		.byte	0x27
 8849 0a09 7A       		.byte	0x7a
 8850 0a0a 00       		.sleb128 0
 8851 0a0b 22       		.byte	0x22
 8852 0a0c 91       		.byte	0x91
 8853 0a0d A07F     		.sleb128 -96
 8854 0a0f 06       		.byte	0x6
 8855 0a10 22       		.byte	0x22
 8856 0a11 7B       		.byte	0x7b
 8857 0a12 00       		.sleb128 0
 8858 0a13 22       		.byte	0x22
 8859 0a14 9F       		.byte	0x9f
 8860 0a15 A0110000 		.4byte	.LVL619
 8861 0a19 A2110000 		.4byte	.LVL620
 8862 0a1d 1C00     		.2byte	0x1c
 8863 0a1f 74       		.byte	0x74
 8864 0a20 00       		.sleb128 0
 8865 0a21 91       		.byte	0x91
 8866 0a22 44       		.sleb128 -60
 8867 0a23 06       		.byte	0x6
 8868 0a24 27       		.byte	0x27
 8869 0a25 91       		.byte	0x91
 8870 0a26 4C       		.sleb128 -52
 8871 0a27 06       		.byte	0x6
 8872 0a28 1A       		.byte	0x1a
 8873 0a29 74       		.byte	0x74
 8874 0a2a 00       		.sleb128 0
 8875 0a2b 27       		.byte	0x27
 8876 0a2c 91       		.byte	0x91
 8877 0a2d A07F     		.sleb128 -96
 8878 0a2f 06       		.byte	0x6
 8879 0a30 22       		.byte	0x22
 8880 0a31 7B       		.byte	0x7b
 8881 0a32 00       		.sleb128 0
 8882 0a33 22       		.byte	0x22
 8883 0a34 0C       		.byte	0xc
 8884 0a35 2443E470 		.4byte	0x70e44324
 8885 0a39 1C       		.byte	0x1c
 8886 0a3a 9F       		.byte	0x9f
 8887 0a3b A2110000 		.4byte	.LVL620
 8888 0a3f 6C120000 		.4byte	.LVL646
 8889 0a43 0100     		.2byte	0x1
 8890 0a45 51       		.byte	0x51
 8891 0a46 6E120000 		.4byte	.LVL647
 8892 0a4a 76120000 		.4byte	.LVL648
 8893 0a4e 0100     		.2byte	0x1
 8894 0a50 51       		.byte	0x51
 8895 0a51 76120000 		.4byte	.LVL648
 8896 0a55 6E130000 		.4byte	.LVL677
 8897 0a59 0200     		.2byte	0x2
 8898 0a5b 91       		.byte	0x91
 8899 0a5c 4C       		.sleb128 -52
 8900 0a5d 6E130000 		.4byte	.LVL677
 8901 0a61 76130000 		.4byte	.LVL678
ARM GAS  C:\Users\Phuong\AppData\Local\Temp\ccbgGR22.s 			page 168


 8902 0a65 0100     		.2byte	0x1
 8903 0a67 58       		.byte	0x58
 8904 0a68 76130000 		.4byte	.LVL678
 8905 0a6c 7A130000 		.4byte	.LVL679
 8906 0a70 1800     		.2byte	0x18
 8907 0a72 7B       		.byte	0x7b
 8908 0a73 00       		.sleb128 0
 8909 0a74 7C       		.byte	0x7c
 8910 0a75 00       		.sleb128 0
 8911 0a76 27       		.byte	0x27
 8912 0a77 79       		.byte	0x79
 8913 0a78 00       		.sleb128 0
 8914 0a79 1A       		.byte	0x1a
 8915 0a7a 7B       		.byte	0x7b
 8916 0a7b 00       		.sleb128 0
 8917 0a7c 27       		.byte	0x27
 8918 0a7d 7A       		.byte	0x7a
 8919 0a7e 00       		.sleb128 0
 8920 0a7f 22       		.byte	0x22
 8921 0a80 91       		.byte	0x91
 8922 0a81 AC7F     		.sleb128 -84
 8923 0a83 06       		.byte	0x6
 8924 0a84 22       		.byte	0x22
 8925 0a85 91       		.byte	0x91
 8926 0a86 4C       		.sleb128 -52
 8927 0a87 06       		.byte	0x6
 8928 0a88 22       		.byte	0x22
 8929 0a89 9F       		.byte	0x9f
 8930 0a8a 7A130000 		.4byte	.LVL679
 8931 0a8e 7C130000 		.4byte	.LVL680
 8932 0a92 1B00     		.2byte	0x1b
 8933 0a94 7B       		.byte	0x7b
 8934 0a95 00       		.sleb128 0
 8935 0a96 7C       		.byte	0x7c
 8936 0a97 00       		.sleb128 0
 8937 0a98 27       		.byte	0x27
 8938 0a99 79       		.byte	0x79
 8939 0a9a 00       		.sleb128 0
 8940 0a9b 1A       		.byte	0x1a
 8941 0a9c 7B       		.byte	0x7b
 8942 0a9d 00       		.sleb128 0
 8943 0a9e 27       		.byte	0x27
 8944 0a9f 91       		.byte	0x91
 8945 0aa0 AC7F     		.sleb128 -84
 8946 0aa2 06       		.byte	0x6
 8947 0aa3 22       		.byte	0x22
 8948 0aa4 91       		.byte	0x91
 8949 0aa5 4C       		.sleb128 -52
 8950 0aa6 06       		.byte	0x6
 8951 0aa7 22       		.byte	0x22
 8952 0aa8 0C       		.byte	0xc
 8953 0aa9 2443E470 		.4byte	0x70e44324
 8954 0aad 1C       		.byte	0x1c
 8955 0aae 9F       		.byte	0x9f
 8956 0aaf 7C130000 		.4byte	.LVL680
 8957 0ab3 36140000 		.4byte	.LVL704
 8958 0ab7 0100     		.2byte	0x1
ARM GAS  C:\Users\Phuong\AppData\Local\Temp\ccbgGR22.s 			page 169


 8959 0ab9 58       		.byte	0x58
 8960 0aba 36140000 		.4byte	.LVL704
 8961 0abe 38140000 		.4byte	.LVL705
 8962 0ac2 0100     		.2byte	0x1
 8963 0ac4 50       		.byte	0x50
 8964 0ac5 38140000 		.4byte	.LVL705
 8965 0ac9 2E150000 		.4byte	.LVL734
 8966 0acd 0100     		.2byte	0x1
 8967 0acf 58       		.byte	0x58
 8968 0ad0 34150000 		.4byte	.LVL735
 8969 0ad4 3C150000 		.4byte	.LVL736
 8970 0ad8 0100     		.2byte	0x1
 8971 0ada 58       		.byte	0x58
 8972 0adb 42150000 		.4byte	.LVL737
 8973 0adf 08160000 		.4byte	.LVL762
 8974 0ae3 0100     		.2byte	0x1
 8975 0ae5 58       		.byte	0x58
 8976 0ae6 08160000 		.4byte	.LVL762
 8977 0aea 0A160000 		.4byte	.LVL763
 8978 0aee 0100     		.2byte	0x1
 8979 0af0 50       		.byte	0x50
 8980 0af1 0A160000 		.4byte	.LVL763
 8981 0af5 06170000 		.4byte	.LVL796
 8982 0af9 0200     		.2byte	0x2
 8983 0afb 91       		.byte	0x91
 8984 0afc 54       		.sleb128 -44
 8985 0afd 06170000 		.4byte	.LVL796
 8986 0b01 0A170000 		.4byte	.LVL797
 8987 0b05 0100     		.2byte	0x1
 8988 0b07 50       		.byte	0x50
 8989 0b08 0A170000 		.4byte	.LVL797
 8990 0b0c 0E170000 		.4byte	.LVL798
 8991 0b10 1700     		.2byte	0x17
 8992 0b12 91       		.byte	0x91
 8993 0b13 50       		.sleb128 -48
 8994 0b14 06       		.byte	0x6
 8995 0b15 20       		.byte	0x20
 8996 0b16 7C       		.byte	0x7c
 8997 0b17 00       		.sleb128 0
 8998 0b18 21       		.byte	0x21
 8999 0b19 74       		.byte	0x74
 9000 0b1a 00       		.sleb128 0
 9001 0b1b 27       		.byte	0x27
 9002 0b1c 7A       		.byte	0x7a
 9003 0b1d 00       		.sleb128 0
 9004 0b1e 22       		.byte	0x22
 9005 0b1f 91       		.byte	0x91
 9006 0b20 8C7F     		.sleb128 -116
 9007 0b22 06       		.byte	0x6
 9008 0b23 22       		.byte	0x22
 9009 0b24 91       		.byte	0x91
 9010 0b25 54       		.sleb128 -44
 9011 0b26 06       		.byte	0x6
 9012 0b27 22       		.byte	0x22
 9013 0b28 9F       		.byte	0x9f
 9014 0b29 0E170000 		.4byte	.LVL798
 9015 0b2d 10170000 		.4byte	.LVL799
ARM GAS  C:\Users\Phuong\AppData\Local\Temp\ccbgGR22.s 			page 170


 9016 0b31 1A00     		.2byte	0x1a
 9017 0b33 91       		.byte	0x91
 9018 0b34 50       		.sleb128 -48
 9019 0b35 06       		.byte	0x6
 9020 0b36 20       		.byte	0x20
 9021 0b37 7C       		.byte	0x7c
 9022 0b38 00       		.sleb128 0
 9023 0b39 21       		.byte	0x21
 9024 0b3a 74       		.byte	0x74
 9025 0b3b 00       		.sleb128 0
 9026 0b3c 27       		.byte	0x27
 9027 0b3d 91       		.byte	0x91
 9028 0b3e 8C7F     		.sleb128 -116
 9029 0b40 06       		.byte	0x6
 9030 0b41 22       		.byte	0x22
 9031 0b42 91       		.byte	0x91
 9032 0b43 54       		.sleb128 -44
 9033 0b44 06       		.byte	0x6
 9034 0b45 22       		.byte	0x22
 9035 0b46 0C       		.byte	0xc
 9036 0b47 B202AC56 		.4byte	0x56ac02b2
 9037 0b4b 1C       		.byte	0x1c
 9038 0b4c 9F       		.byte	0x9f
 9039 0b4d 10170000 		.4byte	.LVL799
 9040 0b51 AE170000 		.4byte	.LVL824
 9041 0b55 0100     		.2byte	0x1
 9042 0b57 50       		.byte	0x50
 9043 0b58 B0170000 		.4byte	.LVL825
 9044 0b5c B2170000 		.4byte	.LVL826
 9045 0b60 0100     		.2byte	0x1
 9046 0b62 50       		.byte	0x50
 9047 0b63 B2170000 		.4byte	.LVL826
 9048 0b67 92180000 		.4byte	.LVL855
 9049 0b6b 0200     		.2byte	0x2
 9050 0b6d 91       		.byte	0x91
 9051 0b6e 4C       		.sleb128 -52
 9052 0b6f 92180000 		.4byte	.LVL855
 9053 0b73 96180000 		.4byte	.LVL856
 9054 0b77 0100     		.2byte	0x1
 9055 0b79 50       		.byte	0x50
 9056 0b7a 96180000 		.4byte	.LVL856
 9057 0b7e 9C180000 		.4byte	.LVL857
 9058 0b82 1700     		.2byte	0x17
 9059 0b84 91       		.byte	0x91
 9060 0b85 44       		.sleb128 -60
 9061 0b86 06       		.byte	0x6
 9062 0b87 20       		.byte	0x20
 9063 0b88 7C       		.byte	0x7c
 9064 0b89 00       		.sleb128 0
 9065 0b8a 21       		.byte	0x21
 9066 0b8b 74       		.byte	0x74
 9067 0b8c 00       		.sleb128 0
 9068 0b8d 27       		.byte	0x27
 9069 0b8e 78       		.byte	0x78
 9070 0b8f 00       		.sleb128 0
 9071 0b90 22       		.byte	0x22
 9072 0b91 91       		.byte	0x91
ARM GAS  C:\Users\Phuong\AppData\Local\Temp\ccbgGR22.s 			page 171


 9073 0b92 AC7F     		.sleb128 -84
 9074 0b94 06       		.byte	0x6
 9075 0b95 22       		.byte	0x22
 9076 0b96 91       		.byte	0x91
 9077 0b97 4C       		.sleb128 -52
 9078 0b98 06       		.byte	0x6
 9079 0b99 22       		.byte	0x22
 9080 0b9a 9F       		.byte	0x9f
 9081 0b9b 9C180000 		.4byte	.LVL857
 9082 0b9f 32190000 		.4byte	.LVL880
 9083 0ba3 0100     		.2byte	0x1
 9084 0ba5 50       		.byte	0x50
 9085 0ba6 34190000 		.4byte	.LVL881
 9086 0baa 52190000 		.4byte	.LVL884
 9087 0bae 0100     		.2byte	0x1
 9088 0bb0 50       		.byte	0x50
 9089 0bb1 52190000 		.4byte	.LVL884
 9090 0bb5 0A1A0000 		.4byte	.LVL912
 9091 0bb9 0300     		.2byte	0x3
 9092 0bbb 91       		.byte	0x91
 9093 0bbc 907F     		.sleb128 -112
 9094 0bbe 0A1A0000 		.4byte	.LVL912
 9095 0bc2 0E1A0000 		.4byte	.LVL913
 9096 0bc6 0100     		.2byte	0x1
 9097 0bc8 50       		.byte	0x50
 9098 0bc9 0E1A0000 		.4byte	.LVL913
 9099 0bcd 121A0000 		.4byte	.LVL914
 9100 0bd1 1800     		.2byte	0x18
 9101 0bd3 7D       		.byte	0x7d
 9102 0bd4 00       		.sleb128 0
 9103 0bd5 06       		.byte	0x6
 9104 0bd6 20       		.byte	0x20
 9105 0bd7 7C       		.byte	0x7c
 9106 0bd8 00       		.sleb128 0
 9107 0bd9 21       		.byte	0x21
 9108 0bda 74       		.byte	0x74
 9109 0bdb 00       		.sleb128 0
 9110 0bdc 27       		.byte	0x27
 9111 0bdd 79       		.byte	0x79
 9112 0bde 00       		.sleb128 0
 9113 0bdf 22       		.byte	0x22
 9114 0be0 91       		.byte	0x91
 9115 0be1 887F     		.sleb128 -120
 9116 0be3 06       		.byte	0x6
 9117 0be4 22       		.byte	0x22
 9118 0be5 91       		.byte	0x91
 9119 0be6 907F     		.sleb128 -112
 9120 0be8 06       		.byte	0x6
 9121 0be9 22       		.byte	0x22
 9122 0bea 9F       		.byte	0x9f
 9123 0beb 121A0000 		.4byte	.LVL914
 9124 0bef 141A0000 		.4byte	.LVL915
 9125 0bf3 0100     		.2byte	0x1
 9126 0bf5 50       		.byte	0x50
 9127 0bf6 141A0000 		.4byte	.LVL915
 9128 0bfa BA1A0000 		.4byte	.LVL940
 9129 0bfe 0300     		.2byte	0x3
ARM GAS  C:\Users\Phuong\AppData\Local\Temp\ccbgGR22.s 			page 172


 9130 0c00 91       		.byte	0x91
 9131 0c01 847F     		.sleb128 -124
 9132 0c03 BA1A0000 		.4byte	.LVL940
 9133 0c07 BC1A0000 		.4byte	.LVL941
 9134 0c0b 0100     		.2byte	0x1
 9135 0c0d 54       		.byte	0x54
 9136 0c0e BC1A0000 		.4byte	.LVL941
 9137 0c12 8A1B0000 		.4byte	.LVL968
 9138 0c16 0200     		.2byte	0x2
 9139 0c18 7D       		.byte	0x7d
 9140 0c19 00       		.sleb128 0
 9141 0c1a 8A1B0000 		.4byte	.LVL968
 9142 0c1e 8E1B0000 		.4byte	.LVL969
 9143 0c22 0100     		.2byte	0x1
 9144 0c24 50       		.byte	0x50
 9145 0c25 8E1B0000 		.4byte	.LVL969
 9146 0c29 921B0000 		.4byte	.LVL970
 9147 0c2d 1600     		.2byte	0x16
 9148 0c2f 72       		.byte	0x72
 9149 0c30 00       		.sleb128 0
 9150 0c31 20       		.byte	0x20
 9151 0c32 71       		.byte	0x71
 9152 0c33 00       		.sleb128 0
 9153 0c34 21       		.byte	0x21
 9154 0c35 74       		.byte	0x74
 9155 0c36 00       		.sleb128 0
 9156 0c37 27       		.byte	0x27
 9157 0c38 79       		.byte	0x79
 9158 0c39 00       		.sleb128 0
 9159 0c3a 22       		.byte	0x22
 9160 0c3b 91       		.byte	0x91
 9161 0c3c B07F     		.sleb128 -80
 9162 0c3e 06       		.byte	0x6
 9163 0c3f 22       		.byte	0x22
 9164 0c40 7D       		.byte	0x7d
 9165 0c41 00       		.sleb128 0
 9166 0c42 06       		.byte	0x6
 9167 0c43 22       		.byte	0x22
 9168 0c44 9F       		.byte	0x9f
 9169 0c45 921B0000 		.4byte	.LVL970
 9170 0c49 941B0000 		.4byte	.LVL971
 9171 0c4d 1900     		.2byte	0x19
 9172 0c4f 72       		.byte	0x72
 9173 0c50 00       		.sleb128 0
 9174 0c51 20       		.byte	0x20
 9175 0c52 71       		.byte	0x71
 9176 0c53 00       		.sleb128 0
 9177 0c54 21       		.byte	0x21
 9178 0c55 74       		.byte	0x74
 9179 0c56 00       		.sleb128 0
 9180 0c57 27       		.byte	0x27
 9181 0c58 91       		.byte	0x91
 9182 0c59 B07F     		.sleb128 -80
 9183 0c5b 06       		.byte	0x6
 9184 0c5c 22       		.byte	0x22
 9185 0c5d 7D       		.byte	0x7d
 9186 0c5e 00       		.sleb128 0
ARM GAS  C:\Users\Phuong\AppData\Local\Temp\ccbgGR22.s 			page 173


 9187 0c5f 06       		.byte	0x6
 9188 0c60 22       		.byte	0x22
 9189 0c61 0C       		.byte	0xc
 9190 0c62 B202AC56 		.4byte	0x56ac02b2
 9191 0c66 1C       		.byte	0x1c
 9192 0c67 9F       		.byte	0x9f
 9193 0c68 941B0000 		.4byte	.LVL971
 9194 0c6c F21B0000 		.4byte	.LVL983
 9195 0c70 0100     		.2byte	0x1
 9196 0c72 50       		.byte	0x50
 9197 0c73 00000000 		.4byte	0
 9198 0c77 00000000 		.4byte	0
 9199              	.LLST10:
 9200 0c7b CE010000 		.4byte	.LVL14
 9201 0c7f F8010000 		.4byte	.LVL18
 9202 0c83 0200     		.2byte	0x2
 9203 0c85 77       		.byte	0x77
 9204 0c86 10       		.sleb128 16
 9205 0c87 F8010000 		.4byte	.LVL18
 9206 0c8b FA010000 		.4byte	.LVL19
 9207 0c8f 0100     		.2byte	0x1
 9208 0c91 56       		.byte	0x56
 9209 0c92 FA010000 		.4byte	.LVL19
 9210 0c96 BE020000 		.4byte	.LVL44
 9211 0c9a 0100     		.2byte	0x1
 9212 0c9c 59       		.byte	0x59
 9213 0c9d BE020000 		.4byte	.LVL44
 9214 0ca1 C2020000 		.4byte	.LVL45
 9215 0ca5 0100     		.2byte	0x1
 9216 0ca7 56       		.byte	0x56
 9217 0ca8 C2020000 		.4byte	.LVL45
 9218 0cac C6020000 		.4byte	.LVL46
 9219 0cb0 0F00     		.2byte	0xf
 9220 0cb2 75       		.byte	0x75
 9221 0cb3 00       		.sleb128 0
 9222 0cb4 74       		.byte	0x74
 9223 0cb5 00       		.sleb128 0
 9224 0cb6 27       		.byte	0x27
 9225 0cb7 7B       		.byte	0x7b
 9226 0cb8 00       		.sleb128 0
 9227 0cb9 27       		.byte	0x27
 9228 0cba 79       		.byte	0x79
 9229 0cbb 00       		.sleb128 0
 9230 0cbc 22       		.byte	0x22
 9231 0cbd 7C       		.byte	0x7c
 9232 0cbe 00       		.sleb128 0
 9233 0cbf 22       		.byte	0x22
 9234 0cc0 9F       		.byte	0x9f
 9235 0cc1 C6020000 		.4byte	.LVL46
 9236 0cc5 5E030000 		.4byte	.LVL71
 9237 0cc9 0100     		.2byte	0x1
 9238 0ccb 5A       		.byte	0x5a
 9239 0ccc 5E030000 		.4byte	.LVL71
 9240 0cd0 64030000 		.4byte	.LVL72
 9241 0cd4 0100     		.2byte	0x1
 9242 0cd6 56       		.byte	0x56
 9243 0cd7 64030000 		.4byte	.LVL72
ARM GAS  C:\Users\Phuong\AppData\Local\Temp\ccbgGR22.s 			page 174


 9244 0cdb 42040000 		.4byte	.LVL101
 9245 0cdf 0200     		.2byte	0x2
 9246 0ce1 91       		.byte	0x91
 9247 0ce2 40       		.sleb128 -64
 9248 0ce3 42040000 		.4byte	.LVL101
 9249 0ce7 4A040000 		.4byte	.LVL102
 9250 0ceb 0100     		.2byte	0x1
 9251 0ced 5A       		.byte	0x5a
 9252 0cee 4A040000 		.4byte	.LVL102
 9253 0cf2 4C040000 		.4byte	.LVL103
 9254 0cf6 1400     		.2byte	0x14
 9255 0cf8 7B       		.byte	0x7b
 9256 0cf9 00       		.sleb128 0
 9257 0cfa 91       		.byte	0x91
 9258 0cfb 44       		.sleb128 -60
 9259 0cfc 06       		.byte	0x6
 9260 0cfd 27       		.byte	0x27
 9261 0cfe 91       		.byte	0x91
 9262 0cff 48       		.sleb128 -56
 9263 0d00 06       		.byte	0x6
 9264 0d01 27       		.byte	0x27
 9265 0d02 91       		.byte	0x91
 9266 0d03 40       		.sleb128 -64
 9267 0d04 06       		.byte	0x6
 9268 0d05 22       		.byte	0x22
 9269 0d06 91       		.byte	0x91
 9270 0d07 9C7F     		.sleb128 -100
 9271 0d09 06       		.byte	0x6
 9272 0d0a 22       		.byte	0x22
 9273 0d0b 9F       		.byte	0x9f
 9274 0d0c 4C040000 		.4byte	.LVL103
 9275 0d10 EE040000 		.4byte	.LVL130
 9276 0d14 0100     		.2byte	0x1
 9277 0d16 5A       		.byte	0x5a
 9278 0d17 EE040000 		.4byte	.LVL130
 9279 0d1b F4040000 		.4byte	.LVL131
 9280 0d1f 0100     		.2byte	0x1
 9281 0d21 51       		.byte	0x51
 9282 0d22 F4040000 		.4byte	.LVL131
 9283 0d26 B0050000 		.4byte	.LVL163
 9284 0d2a 0200     		.2byte	0x2
 9285 0d2c 91       		.byte	0x91
 9286 0d2d 48       		.sleb128 -56
 9287 0d2e B0050000 		.4byte	.LVL163
 9288 0d32 B2050000 		.4byte	.LVL164
 9289 0d36 0100     		.2byte	0x1
 9290 0d38 55       		.byte	0x55
 9291 0d39 B2050000 		.4byte	.LVL164
 9292 0d3d B8050000 		.4byte	.LVL165
 9293 0d41 1200     		.2byte	0x12
 9294 0d43 7B       		.byte	0x7b
 9295 0d44 00       		.sleb128 0
 9296 0d45 72       		.byte	0x72
 9297 0d46 00       		.sleb128 0
 9298 0d47 27       		.byte	0x27
 9299 0d48 7C       		.byte	0x7c
 9300 0d49 00       		.sleb128 0
ARM GAS  C:\Users\Phuong\AppData\Local\Temp\ccbgGR22.s 			page 175


 9301 0d4a 27       		.byte	0x27
 9302 0d4b 91       		.byte	0x91
 9303 0d4c 48       		.sleb128 -56
 9304 0d4d 06       		.byte	0x6
 9305 0d4e 22       		.byte	0x22
 9306 0d4f 91       		.byte	0x91
 9307 0d50 B07F     		.sleb128 -80
 9308 0d52 06       		.byte	0x6
 9309 0d53 22       		.byte	0x22
 9310 0d54 9F       		.byte	0x9f
 9311 0d55 B8050000 		.4byte	.LVL165
 9312 0d59 5E060000 		.4byte	.LVL192
 9313 0d5d 0100     		.2byte	0x1
 9314 0d5f 55       		.byte	0x55
 9315 0d60 60060000 		.4byte	.LVL193
 9316 0d64 64060000 		.4byte	.LVL194
 9317 0d68 0100     		.2byte	0x1
 9318 0d6a 55       		.byte	0x55
 9319 0d6b 64060000 		.4byte	.LVL194
 9320 0d6f 44070000 		.4byte	.LVL227
 9321 0d73 0100     		.2byte	0x1
 9322 0d75 58       		.byte	0x58
 9323 0d76 44070000 		.4byte	.LVL227
 9324 0d7a 48070000 		.4byte	.LVL228
 9325 0d7e 0100     		.2byte	0x1
 9326 0d80 50       		.byte	0x50
 9327 0d81 48070000 		.4byte	.LVL228
 9328 0d85 4C070000 		.4byte	.LVL229
 9329 0d89 1A00     		.2byte	0x1a
 9330 0d8b 91       		.byte	0x91
 9331 0d8c 40       		.sleb128 -64
 9332 0d8d 06       		.byte	0x6
 9333 0d8e 91       		.byte	0x91
 9334 0d8f 48       		.sleb128 -56
 9335 0d90 06       		.byte	0x6
 9336 0d91 27       		.byte	0x27
 9337 0d92 74       		.byte	0x74
 9338 0d93 00       		.sleb128 0
 9339 0d94 1A       		.byte	0x1a
 9340 0d95 91       		.byte	0x91
 9341 0d96 40       		.sleb128 -64
 9342 0d97 06       		.byte	0x6
 9343 0d98 27       		.byte	0x27
 9344 0d99 7C       		.byte	0x7c
 9345 0d9a 00       		.sleb128 0
 9346 0d9b 22       		.byte	0x22
 9347 0d9c 91       		.byte	0x91
 9348 0d9d B07F     		.sleb128 -80
 9349 0d9f 06       		.byte	0x6
 9350 0da0 22       		.byte	0x22
 9351 0da1 78       		.byte	0x78
 9352 0da2 00       		.sleb128 0
 9353 0da3 22       		.byte	0x22
 9354 0da4 9F       		.byte	0x9f
 9355 0da5 4C070000 		.4byte	.LVL229
 9356 0da9 4E070000 		.4byte	.LVL230
 9357 0dad 1D00     		.2byte	0x1d
ARM GAS  C:\Users\Phuong\AppData\Local\Temp\ccbgGR22.s 			page 176


 9358 0daf 91       		.byte	0x91
 9359 0db0 40       		.sleb128 -64
 9360 0db1 06       		.byte	0x6
 9361 0db2 91       		.byte	0x91
 9362 0db3 48       		.sleb128 -56
 9363 0db4 06       		.byte	0x6
 9364 0db5 27       		.byte	0x27
 9365 0db6 74       		.byte	0x74
 9366 0db7 00       		.sleb128 0
 9367 0db8 1A       		.byte	0x1a
 9368 0db9 91       		.byte	0x91
 9369 0dba 40       		.sleb128 -64
 9370 0dbb 06       		.byte	0x6
 9371 0dbc 27       		.byte	0x27
 9372 0dbd 91       		.byte	0x91
 9373 0dbe B07F     		.sleb128 -80
 9374 0dc0 06       		.byte	0x6
 9375 0dc1 22       		.byte	0x22
 9376 0dc2 78       		.byte	0x78
 9377 0dc3 00       		.sleb128 0
 9378 0dc4 22       		.byte	0x22
 9379 0dc5 23       		.byte	0x23
 9380 0dc6 99F389D4 		.uleb128 0x5a827999
 9380      05
 9381 0dcb 9F       		.byte	0x9f
 9382 0dcc 4E070000 		.4byte	.LVL230
 9383 0dd0 FA070000 		.4byte	.LVL259
 9384 0dd4 0100     		.2byte	0x1
 9385 0dd6 50       		.byte	0x50
 9386 0dd7 FC070000 		.4byte	.LVL260
 9387 0ddb FE070000 		.4byte	.LVL261
 9388 0ddf 0100     		.2byte	0x1
 9389 0de1 50       		.byte	0x50
 9390 0de2 FE070000 		.4byte	.LVL261
 9391 0de6 EC080000 		.4byte	.LVL293
 9392 0dea 0100     		.2byte	0x1
 9393 0dec 5A       		.byte	0x5a
 9394 0ded EE080000 		.4byte	.LVL294
 9395 0df1 F2080000 		.4byte	.LVL295
 9396 0df5 0100     		.2byte	0x1
 9397 0df7 50       		.byte	0x50
 9398 0df8 F4080000 		.4byte	.LVL296
 9399 0dfc 96090000 		.4byte	.LVL323
 9400 0e00 0100     		.2byte	0x1
 9401 0e02 50       		.byte	0x50
 9402 0e03 98090000 		.4byte	.LVL324
 9403 0e07 9A090000 		.4byte	.LVL325
 9404 0e0b 0100     		.2byte	0x1
 9405 0e0d 50       		.byte	0x50
 9406 0e0e 9A090000 		.4byte	.LVL325
 9407 0e12 8C0A0000 		.4byte	.LVL360
 9408 0e16 0100     		.2byte	0x1
 9409 0e18 58       		.byte	0x58
 9410 0e19 8C0A0000 		.4byte	.LVL360
 9411 0e1d 900A0000 		.4byte	.LVL361
 9412 0e21 0100     		.2byte	0x1
 9413 0e23 50       		.byte	0x50
ARM GAS  C:\Users\Phuong\AppData\Local\Temp\ccbgGR22.s 			page 177


 9414 0e24 900A0000 		.4byte	.LVL361
 9415 0e28 920A0000 		.4byte	.LVL362
 9416 0e2c 1900     		.2byte	0x19
 9417 0e2e 72       		.byte	0x72
 9418 0e2f 00       		.sleb128 0
 9419 0e30 91       		.byte	0x91
 9420 0e31 40       		.sleb128 -64
 9421 0e32 06       		.byte	0x6
 9422 0e33 27       		.byte	0x27
 9423 0e34 7A       		.byte	0x7a
 9424 0e35 00       		.sleb128 0
 9425 0e36 1A       		.byte	0x1a
 9426 0e37 91       		.byte	0x91
 9427 0e38 40       		.sleb128 -64
 9428 0e39 06       		.byte	0x6
 9429 0e3a 27       		.byte	0x27
 9430 0e3b 7C       		.byte	0x7c
 9431 0e3c 00       		.sleb128 0
 9432 0e3d 22       		.byte	0x22
 9433 0e3e 91       		.byte	0x91
 9434 0e3f 847F     		.sleb128 -124
 9435 0e41 06       		.byte	0x6
 9436 0e42 22       		.byte	0x22
 9437 0e43 78       		.byte	0x78
 9438 0e44 00       		.sleb128 0
 9439 0e45 22       		.byte	0x22
 9440 0e46 9F       		.byte	0x9f
 9441 0e47 920A0000 		.4byte	.LVL362
 9442 0e4b 3C0B0000 		.4byte	.LVL387
 9443 0e4f 0100     		.2byte	0x1
 9444 0e51 50       		.byte	0x50
 9445 0e52 3E0B0000 		.4byte	.LVL388
 9446 0e56 420B0000 		.4byte	.LVL390
 9447 0e5a 0100     		.2byte	0x1
 9448 0e5c 50       		.byte	0x50
 9449 0e5d 420B0000 		.4byte	.LVL390
 9450 0e61 360C0000 		.4byte	.LVL421
 9451 0e65 0200     		.2byte	0x2
 9452 0e67 91       		.byte	0x91
 9453 0e68 40       		.sleb128 -64
 9454 0e69 360C0000 		.4byte	.LVL421
 9455 0e6d 3A0C0000 		.4byte	.LVL422
 9456 0e71 0100     		.2byte	0x1
 9457 0e73 50       		.byte	0x50
 9458 0e74 3A0C0000 		.4byte	.LVL422
 9459 0e78 3C0C0000 		.4byte	.LVL423
 9460 0e7c 1600     		.2byte	0x16
 9461 0e7e 78       		.byte	0x78
 9462 0e7f 00       		.sleb128 0
 9463 0e80 20       		.byte	0x20
 9464 0e81 75       		.byte	0x75
 9465 0e82 00       		.sleb128 0
 9466 0e83 21       		.byte	0x21
 9467 0e84 71       		.byte	0x71
 9468 0e85 00       		.sleb128 0
 9469 0e86 27       		.byte	0x27
 9470 0e87 7C       		.byte	0x7c
ARM GAS  C:\Users\Phuong\AppData\Local\Temp\ccbgGR22.s 			page 178


 9471 0e88 00       		.sleb128 0
 9472 0e89 22       		.byte	0x22
 9473 0e8a 91       		.byte	0x91
 9474 0e8b A47F     		.sleb128 -92
 9475 0e8d 06       		.byte	0x6
 9476 0e8e 22       		.byte	0x22
 9477 0e8f 91       		.byte	0x91
 9478 0e90 40       		.sleb128 -64
 9479 0e91 06       		.byte	0x6
 9480 0e92 22       		.byte	0x22
 9481 0e93 9F       		.byte	0x9f
 9482 0e94 3C0C0000 		.4byte	.LVL423
 9483 0e98 E40C0000 		.4byte	.LVL447
 9484 0e9c 0100     		.2byte	0x1
 9485 0e9e 50       		.byte	0x50
 9486 0e9f E60C0000 		.4byte	.LVL448
 9487 0ea3 EA0C0000 		.4byte	.LVL449
 9488 0ea7 0100     		.2byte	0x1
 9489 0ea9 50       		.byte	0x50
 9490 0eaa EA0C0000 		.4byte	.LVL449
 9491 0eae BC0D0000 		.4byte	.LVL485
 9492 0eb2 0200     		.2byte	0x2
 9493 0eb4 91       		.byte	0x91
 9494 0eb5 44       		.sleb128 -60
 9495 0eb6 BC0D0000 		.4byte	.LVL485
 9496 0eba C00D0000 		.4byte	.LVL486
 9497 0ebe 0100     		.2byte	0x1
 9498 0ec0 50       		.byte	0x50
 9499 0ec1 C00D0000 		.4byte	.LVL486
 9500 0ec5 C20D0000 		.4byte	.LVL487
 9501 0ec9 1700     		.2byte	0x17
 9502 0ecb 74       		.byte	0x74
 9503 0ecc 00       		.sleb128 0
 9504 0ecd 20       		.byte	0x20
 9505 0ece 7C       		.byte	0x7c
 9506 0ecf 00       		.sleb128 0
 9507 0ed0 21       		.byte	0x21
 9508 0ed1 91       		.byte	0x91
 9509 0ed2 48       		.sleb128 -56
 9510 0ed3 06       		.byte	0x6
 9511 0ed4 27       		.byte	0x27
 9512 0ed5 79       		.byte	0x79
 9513 0ed6 00       		.sleb128 0
 9514 0ed7 22       		.byte	0x22
 9515 0ed8 91       		.byte	0x91
 9516 0ed9 9C7F     		.sleb128 -100
 9517 0edb 06       		.byte	0x6
 9518 0edc 22       		.byte	0x22
 9519 0edd 91       		.byte	0x91
 9520 0ede 44       		.sleb128 -60
 9521 0edf 06       		.byte	0x6
 9522 0ee0 22       		.byte	0x22
 9523 0ee1 9F       		.byte	0x9f
 9524 0ee2 C20D0000 		.4byte	.LVL487
 9525 0ee6 C40D0000 		.4byte	.LVL488
 9526 0eea 1A00     		.2byte	0x1a
 9527 0eec 74       		.byte	0x74
ARM GAS  C:\Users\Phuong\AppData\Local\Temp\ccbgGR22.s 			page 179


 9528 0eed 00       		.sleb128 0
 9529 0eee 20       		.byte	0x20
 9530 0eef 7C       		.byte	0x7c
 9531 0ef0 00       		.sleb128 0
 9532 0ef1 21       		.byte	0x21
 9533 0ef2 91       		.byte	0x91
 9534 0ef3 48       		.sleb128 -56
 9535 0ef4 06       		.byte	0x6
 9536 0ef5 27       		.byte	0x27
 9537 0ef6 91       		.byte	0x91
 9538 0ef7 9C7F     		.sleb128 -100
 9539 0ef9 06       		.byte	0x6
 9540 0efa 22       		.byte	0x22
 9541 0efb 91       		.byte	0x91
 9542 0efc 44       		.sleb128 -60
 9543 0efd 06       		.byte	0x6
 9544 0efe 22       		.byte	0x22
 9545 0eff 23       		.byte	0x23
 9546 0f00 A1D7E7F6 		.uleb128 0x6ed9eba1
 9546      06
 9547 0f05 9F       		.byte	0x9f
 9548 0f06 C40D0000 		.4byte	.LVL488
 9549 0f0a 800E0000 		.4byte	.LVL509
 9550 0f0e 0100     		.2byte	0x1
 9551 0f10 59       		.byte	0x59
 9552 0f11 800E0000 		.4byte	.LVL509
 9553 0f15 820E0000 		.4byte	.LVL510
 9554 0f19 0100     		.2byte	0x1
 9555 0f1b 52       		.byte	0x52
 9556 0f1c 820E0000 		.4byte	.LVL510
 9557 0f20 860F0000 		.4byte	.LVL538
 9558 0f24 0200     		.2byte	0x2
 9559 0f26 91       		.byte	0x91
 9560 0f27 4C       		.sleb128 -52
 9561 0f28 860F0000 		.4byte	.LVL538
 9562 0f2c 8E0F0000 		.4byte	.LVL539
 9563 0f30 0100     		.2byte	0x1
 9564 0f32 59       		.byte	0x59
 9565 0f33 8E0F0000 		.4byte	.LVL539
 9566 0f37 940F0000 		.4byte	.LVL540
 9567 0f3b 1700     		.2byte	0x17
 9568 0f3d 74       		.byte	0x74
 9569 0f3e 00       		.sleb128 0
 9570 0f3f 20       		.byte	0x20
 9571 0f40 78       		.byte	0x78
 9572 0f41 00       		.sleb128 0
 9573 0f42 21       		.byte	0x21
 9574 0f43 91       		.byte	0x91
 9575 0f44 44       		.sleb128 -60
 9576 0f45 06       		.byte	0x6
 9577 0f46 27       		.byte	0x27
 9578 0f47 7C       		.byte	0x7c
 9579 0f48 00       		.sleb128 0
 9580 0f49 22       		.byte	0x22
 9581 0f4a 91       		.byte	0x91
 9582 0f4b 947F     		.sleb128 -108
 9583 0f4d 06       		.byte	0x6
ARM GAS  C:\Users\Phuong\AppData\Local\Temp\ccbgGR22.s 			page 180


 9584 0f4e 22       		.byte	0x22
 9585 0f4f 91       		.byte	0x91
 9586 0f50 4C       		.sleb128 -52
 9587 0f51 06       		.byte	0x6
 9588 0f52 22       		.byte	0x22
 9589 0f53 9F       		.byte	0x9f
 9590 0f54 940F0000 		.4byte	.LVL540
 9591 0f58 9A0F0000 		.4byte	.LVL543
 9592 0f5c 0100     		.2byte	0x1
 9593 0f5e 51       		.byte	0x51
 9594 0f5f 9A0F0000 		.4byte	.LVL543
 9595 0f63 A80F0000 		.4byte	.LVL545
 9596 0f67 0100     		.2byte	0x1
 9597 0f69 59       		.byte	0x59
 9598 0f6a A80F0000 		.4byte	.LVL545
 9599 0f6e 50100000 		.4byte	.LVL568
 9600 0f72 0200     		.2byte	0x2
 9601 0f74 91       		.byte	0x91
 9602 0f75 40       		.sleb128 -64
 9603 0f76 50100000 		.4byte	.LVL568
 9604 0f7a 8A100000 		.4byte	.LVL577
 9605 0f7e 0100     		.2byte	0x1
 9606 0f80 51       		.byte	0x51
 9607 0f81 8A100000 		.4byte	.LVL577
 9608 0f85 42110000 		.4byte	.LVL605
 9609 0f89 0200     		.2byte	0x2
 9610 0f8b 91       		.byte	0x91
 9611 0f8c 54       		.sleb128 -44
 9612 0f8d 42110000 		.4byte	.LVL605
 9613 0f91 46110000 		.4byte	.LVL606
 9614 0f95 0100     		.2byte	0x1
 9615 0f97 50       		.byte	0x50
 9616 0f98 46110000 		.4byte	.LVL606
 9617 0f9c 4C110000 		.4byte	.LVL607
 9618 0fa0 1800     		.2byte	0x18
 9619 0fa2 79       		.byte	0x79
 9620 0fa3 00       		.sleb128 0
 9621 0fa4 74       		.byte	0x74
 9622 0fa5 00       		.sleb128 0
 9623 0fa6 27       		.byte	0x27
 9624 0fa7 91       		.byte	0x91
 9625 0fa8 50       		.sleb128 -48
 9626 0fa9 06       		.byte	0x6
 9627 0faa 1A       		.byte	0x1a
 9628 0fab 79       		.byte	0x79
 9629 0fac 00       		.sleb128 0
 9630 0fad 27       		.byte	0x27
 9631 0fae 7A       		.byte	0x7a
 9632 0faf 00       		.sleb128 0
 9633 0fb0 22       		.byte	0x22
 9634 0fb1 7D       		.byte	0x7d
 9635 0fb2 00       		.sleb128 0
 9636 0fb3 06       		.byte	0x6
 9637 0fb4 22       		.byte	0x22
 9638 0fb5 91       		.byte	0x91
 9639 0fb6 54       		.sleb128 -44
 9640 0fb7 06       		.byte	0x6
ARM GAS  C:\Users\Phuong\AppData\Local\Temp\ccbgGR22.s 			page 181


 9641 0fb8 22       		.byte	0x22
 9642 0fb9 9F       		.byte	0x9f
 9643 0fba 4C110000 		.4byte	.LVL607
 9644 0fbe 5A110000 		.4byte	.LVL610
 9645 0fc2 0100     		.2byte	0x1
 9646 0fc4 51       		.byte	0x51
 9647 0fc5 5A110000 		.4byte	.LVL610
 9648 0fc9 02120000 		.4byte	.LVL635
 9649 0fcd 0200     		.2byte	0x2
 9650 0fcf 91       		.byte	0x91
 9651 0fd0 44       		.sleb128 -60
 9652 0fd1 02120000 		.4byte	.LVL635
 9653 0fd5 04120000 		.4byte	.LVL636
 9654 0fd9 0100     		.2byte	0x1
 9655 0fdb 50       		.byte	0x50
 9656 0fdc 04120000 		.4byte	.LVL636
 9657 0fe0 10130000 		.4byte	.LVL665
 9658 0fe4 0200     		.2byte	0x2
 9659 0fe6 91       		.byte	0x91
 9660 0fe7 48       		.sleb128 -56
 9661 0fe8 10130000 		.4byte	.LVL665
 9662 0fec 18130000 		.4byte	.LVL666
 9663 0ff0 0100     		.2byte	0x1
 9664 0ff2 5C       		.byte	0x5c
 9665 0ff3 18130000 		.4byte	.LVL666
 9666 0ff7 1C130000 		.4byte	.LVL667
 9667 0ffb 1900     		.2byte	0x19
 9668 0ffd 7B       		.byte	0x7b
 9669 0ffe 00       		.sleb128 0
 9670 0fff 79       		.byte	0x79
 9671 1000 00       		.sleb128 0
 9672 1001 27       		.byte	0x27
 9673 1002 91       		.byte	0x91
 9674 1003 50       		.sleb128 -48
 9675 1004 06       		.byte	0x6
 9676 1005 1A       		.byte	0x1a
 9677 1006 79       		.byte	0x79
 9678 1007 00       		.sleb128 0
 9679 1008 27       		.byte	0x27
 9680 1009 78       		.byte	0x78
 9681 100a 00       		.sleb128 0
 9682 100b 22       		.byte	0x22
 9683 100c 91       		.byte	0x91
 9684 100d 9C7F     		.sleb128 -100
 9685 100f 06       		.byte	0x6
 9686 1010 22       		.byte	0x22
 9687 1011 91       		.byte	0x91
 9688 1012 48       		.sleb128 -56
 9689 1013 06       		.byte	0x6
 9690 1014 22       		.byte	0x22
 9691 1015 9F       		.byte	0x9f
 9692 1016 1C130000 		.4byte	.LVL667
 9693 101a 1E130000 		.4byte	.LVL668
 9694 101e 1C00     		.2byte	0x1c
 9695 1020 7B       		.byte	0x7b
 9696 1021 00       		.sleb128 0
 9697 1022 79       		.byte	0x79
ARM GAS  C:\Users\Phuong\AppData\Local\Temp\ccbgGR22.s 			page 182


 9698 1023 00       		.sleb128 0
 9699 1024 27       		.byte	0x27
 9700 1025 91       		.byte	0x91
 9701 1026 50       		.sleb128 -48
 9702 1027 06       		.byte	0x6
 9703 1028 1A       		.byte	0x1a
 9704 1029 79       		.byte	0x79
 9705 102a 00       		.sleb128 0
 9706 102b 27       		.byte	0x27
 9707 102c 91       		.byte	0x91
 9708 102d 9C7F     		.sleb128 -100
 9709 102f 06       		.byte	0x6
 9710 1030 22       		.byte	0x22
 9711 1031 91       		.byte	0x91
 9712 1032 48       		.sleb128 -56
 9713 1033 06       		.byte	0x6
 9714 1034 22       		.byte	0x22
 9715 1035 0C       		.byte	0xc
 9716 1036 2443E470 		.4byte	0x70e44324
 9717 103a 1C       		.byte	0x1c
 9718 103b 9F       		.byte	0x9f
 9719 103c 1E130000 		.4byte	.LVL668
 9720 1040 DC130000 		.4byte	.LVL692
 9721 1044 0100     		.2byte	0x1
 9722 1046 5C       		.byte	0x5c
 9723 1047 DC130000 		.4byte	.LVL692
 9724 104b E0130000 		.4byte	.LVL693
 9725 104f 0100     		.2byte	0x1
 9726 1051 54       		.byte	0x54
 9727 1052 E0130000 		.4byte	.LVL693
 9728 1056 DE140000 		.4byte	.LVL724
 9729 105a 0200     		.2byte	0x2
 9730 105c 91       		.byte	0x91
 9731 105d 50       		.sleb128 -48
 9732 105e DE140000 		.4byte	.LVL724
 9733 1062 E4140000 		.4byte	.LVL725
 9734 1066 0100     		.2byte	0x1
 9735 1068 5C       		.byte	0x5c
 9736 1069 E4140000 		.4byte	.LVL725
 9737 106d E6140000 		.4byte	.LVL726
 9738 1071 1900     		.2byte	0x19
 9739 1073 79       		.byte	0x79
 9740 1074 00       		.sleb128 0
 9741 1075 7B       		.byte	0x7b
 9742 1076 00       		.sleb128 0
 9743 1077 27       		.byte	0x27
 9744 1078 91       		.byte	0x91
 9745 1079 48       		.sleb128 -56
 9746 107a 06       		.byte	0x6
 9747 107b 1A       		.byte	0x1a
 9748 107c 79       		.byte	0x79
 9749 107d 00       		.sleb128 0
 9750 107e 27       		.byte	0x27
 9751 107f 7A       		.byte	0x7a
 9752 1080 00       		.sleb128 0
 9753 1081 22       		.byte	0x22
 9754 1082 91       		.byte	0x91
ARM GAS  C:\Users\Phuong\AppData\Local\Temp\ccbgGR22.s 			page 183


 9755 1083 987F     		.sleb128 -104
 9756 1085 06       		.byte	0x6
 9757 1086 22       		.byte	0x22
 9758 1087 91       		.byte	0x91
 9759 1088 50       		.sleb128 -48
 9760 1089 06       		.byte	0x6
 9761 108a 22       		.byte	0x22
 9762 108b 9F       		.byte	0x9f
 9763 108c E6140000 		.4byte	.LVL726
 9764 1090 AA150000 		.4byte	.LVL751
 9765 1094 0100     		.2byte	0x1
 9766 1096 5C       		.byte	0x5c
 9767 1097 AA150000 		.4byte	.LVL751
 9768 109b AE150000 		.4byte	.LVL752
 9769 109f 0100     		.2byte	0x1
 9770 10a1 50       		.byte	0x50
 9771 10a2 AE150000 		.4byte	.LVL752
 9772 10a6 AA160000 		.4byte	.LVL783
 9773 10aa 0100     		.2byte	0x1
 9774 10ac 5B       		.byte	0x5b
 9775 10ad AA160000 		.4byte	.LVL783
 9776 10b1 AE160000 		.4byte	.LVL784
 9777 10b5 0100     		.2byte	0x1
 9778 10b7 54       		.byte	0x54
 9779 10b8 AE160000 		.4byte	.LVL784
 9780 10bc B2160000 		.4byte	.LVL785
 9781 10c0 1800     		.2byte	0x18
 9782 10c2 79       		.byte	0x79
 9783 10c3 00       		.sleb128 0
 9784 10c4 7C       		.byte	0x7c
 9785 10c5 00       		.sleb128 0
 9786 10c6 27       		.byte	0x27
 9787 10c7 91       		.byte	0x91
 9788 10c8 4C       		.sleb128 -52
 9789 10c9 06       		.byte	0x6
 9790 10ca 1A       		.byte	0x1a
 9791 10cb 79       		.byte	0x79
 9792 10cc 00       		.sleb128 0
 9793 10cd 27       		.byte	0x27
 9794 10ce 7A       		.byte	0x7a
 9795 10cf 00       		.sleb128 0
 9796 10d0 22       		.byte	0x22
 9797 10d1 91       		.byte	0x91
 9798 10d2 847F     		.sleb128 -124
 9799 10d4 06       		.byte	0x6
 9800 10d5 22       		.byte	0x22
 9801 10d6 7B       		.byte	0x7b
 9802 10d7 00       		.sleb128 0
 9803 10d8 22       		.byte	0x22
 9804 10d9 9F       		.byte	0x9f
 9805 10da B2160000 		.4byte	.LVL785
 9806 10de B4160000 		.4byte	.LVL786
 9807 10e2 1B00     		.2byte	0x1b
 9808 10e4 79       		.byte	0x79
 9809 10e5 00       		.sleb128 0
 9810 10e6 7C       		.byte	0x7c
 9811 10e7 00       		.sleb128 0
ARM GAS  C:\Users\Phuong\AppData\Local\Temp\ccbgGR22.s 			page 184


 9812 10e8 27       		.byte	0x27
 9813 10e9 91       		.byte	0x91
 9814 10ea 4C       		.sleb128 -52
 9815 10eb 06       		.byte	0x6
 9816 10ec 1A       		.byte	0x1a
 9817 10ed 79       		.byte	0x79
 9818 10ee 00       		.sleb128 0
 9819 10ef 27       		.byte	0x27
 9820 10f0 91       		.byte	0x91
 9821 10f1 847F     		.sleb128 -124
 9822 10f3 06       		.byte	0x6
 9823 10f4 22       		.byte	0x22
 9824 10f5 7B       		.byte	0x7b
 9825 10f6 00       		.sleb128 0
 9826 10f7 22       		.byte	0x22
 9827 10f8 0C       		.byte	0xc
 9828 10f9 2443E470 		.4byte	0x70e44324
 9829 10fd 1C       		.byte	0x1c
 9830 10fe 9F       		.byte	0x9f
 9831 10ff B4160000 		.4byte	.LVL786
 9832 1103 3A180000 		.4byte	.LVL843
 9833 1107 0100     		.2byte	0x1
 9834 1109 54       		.byte	0x54
 9835 110a 40180000 		.4byte	.LVL844
 9836 110e 44180000 		.4byte	.LVL845
 9837 1112 0100     		.2byte	0x1
 9838 1114 54       		.byte	0x54
 9839 1115 4A180000 		.4byte	.LVL846
 9840 1119 EC180000 		.4byte	.LVL869
 9841 111d 0100     		.2byte	0x1
 9842 111f 54       		.byte	0x54
 9843 1120 EC180000 		.4byte	.LVL869
 9844 1124 14190000 		.4byte	.LVL874
 9845 1128 0100     		.2byte	0x1
 9846 112a 51       		.byte	0x51
 9847 112b 14190000 		.4byte	.LVL874
 9848 112f C0190000 		.4byte	.LVL900
 9849 1133 0200     		.2byte	0x2
 9850 1135 91       		.byte	0x91
 9851 1136 40       		.sleb128 -64
 9852 1137 C0190000 		.4byte	.LVL900
 9853 113b C4190000 		.4byte	.LVL901
 9854 113f 0100     		.2byte	0x1
 9855 1141 54       		.byte	0x54
 9856 1142 C4190000 		.4byte	.LVL901
 9857 1146 C8190000 		.4byte	.LVL902
 9858 114a 1500     		.2byte	0x15
 9859 114c 7B       		.byte	0x7b
 9860 114d 00       		.sleb128 0
 9861 114e 20       		.byte	0x20
 9862 114f 72       		.byte	0x72
 9863 1150 00       		.sleb128 0
 9864 1151 21       		.byte	0x21
 9865 1152 7C       		.byte	0x7c
 9866 1153 00       		.sleb128 0
 9867 1154 27       		.byte	0x27
 9868 1155 79       		.byte	0x79
ARM GAS  C:\Users\Phuong\AppData\Local\Temp\ccbgGR22.s 			page 185


 9869 1156 00       		.sleb128 0
 9870 1157 22       		.byte	0x22
 9871 1158 7D       		.byte	0x7d
 9872 1159 00       		.sleb128 0
 9873 115a 06       		.byte	0x6
 9874 115b 22       		.byte	0x22
 9875 115c 91       		.byte	0x91
 9876 115d 40       		.sleb128 -64
 9877 115e 06       		.byte	0x6
 9878 115f 22       		.byte	0x22
 9879 1160 9F       		.byte	0x9f
 9880 1161 C8190000 		.4byte	.LVL902
 9881 1165 CA190000 		.4byte	.LVL903
 9882 1169 1800     		.2byte	0x18
 9883 116b 7B       		.byte	0x7b
 9884 116c 00       		.sleb128 0
 9885 116d 20       		.byte	0x20
 9886 116e 72       		.byte	0x72
 9887 116f 00       		.sleb128 0
 9888 1170 21       		.byte	0x21
 9889 1171 7C       		.byte	0x7c
 9890 1172 00       		.sleb128 0
 9891 1173 27       		.byte	0x27
 9892 1174 7D       		.byte	0x7d
 9893 1175 00       		.sleb128 0
 9894 1176 06       		.byte	0x6
 9895 1177 22       		.byte	0x22
 9896 1178 91       		.byte	0x91
 9897 1179 40       		.sleb128 -64
 9898 117a 06       		.byte	0x6
 9899 117b 22       		.byte	0x22
 9900 117c 0C       		.byte	0xc
 9901 117d B202AC56 		.4byte	0x56ac02b2
 9902 1181 1C       		.byte	0x1c
 9903 1182 9F       		.byte	0x9f
 9904 1183 CA190000 		.4byte	.LVL903
 9905 1187 601A0000 		.4byte	.LVL927
 9906 118b 0100     		.2byte	0x1
 9907 118d 54       		.byte	0x54
 9908 118e 621A0000 		.4byte	.LVL928
 9909 1192 641A0000 		.4byte	.LVL929
 9910 1196 0100     		.2byte	0x1
 9911 1198 54       		.byte	0x54
 9912 1199 641A0000 		.4byte	.LVL929
 9913 119d 3E1B0000 		.4byte	.LVL959
 9914 11a1 0100     		.2byte	0x1
 9915 11a3 5B       		.byte	0x5b
 9916 11a4 3E1B0000 		.4byte	.LVL959
 9917 11a8 401B0000 		.4byte	.LVL960
 9918 11ac 0100     		.2byte	0x1
 9919 11ae 54       		.byte	0x54
 9920 11af 401B0000 		.4byte	.LVL960
 9921 11b3 461B0000 		.4byte	.LVL961
 9922 11b7 1900     		.2byte	0x19
 9923 11b9 91       		.byte	0x91
 9924 11ba 907F     		.sleb128 -112
 9925 11bc 06       		.byte	0x6
ARM GAS  C:\Users\Phuong\AppData\Local\Temp\ccbgGR22.s 			page 186


 9926 11bd 20       		.byte	0x20
 9927 11be 91       		.byte	0x91
 9928 11bf 987F     		.sleb128 -104
 9929 11c1 06       		.byte	0x6
 9930 11c2 21       		.byte	0x21
 9931 11c3 71       		.byte	0x71
 9932 11c4 00       		.sleb128 0
 9933 11c5 27       		.byte	0x27
 9934 11c6 72       		.byte	0x72
 9935 11c7 00       		.sleb128 0
 9936 11c8 22       		.byte	0x22
 9937 11c9 91       		.byte	0x91
 9938 11ca B87F     		.sleb128 -72
 9939 11cc 06       		.byte	0x6
 9940 11cd 22       		.byte	0x22
 9941 11ce 7B       		.byte	0x7b
 9942 11cf 00       		.sleb128 0
 9943 11d0 22       		.byte	0x22
 9944 11d1 9F       		.byte	0x9f
 9945 11d2 461B0000 		.4byte	.LVL961
 9946 11d6 C01B0000 		.4byte	.LVL979
 9947 11da 0100     		.2byte	0x1
 9948 11dc 54       		.byte	0x54
 9949 11dd C21B0000 		.4byte	.LVL980
 9950 11e1 041C0000 		.4byte	.LFE6
 9951 11e5 0100     		.2byte	0x1
 9952 11e7 53       		.byte	0x53
 9953 11e8 00000000 		.4byte	0
 9954 11ec 00000000 		.4byte	0
 9955              	.LLST11:
 9956 11f0 CE010000 		.4byte	.LVL14
 9957 11f4 7C020000 		.4byte	.LVL33
 9958 11f8 0200     		.2byte	0x2
 9959 11fa 77       		.byte	0x77
 9960 11fb 14       		.sleb128 20
 9961 11fc 7C020000 		.4byte	.LVL33
 9962 1200 80020000 		.4byte	.LVL34
 9963 1204 0100     		.2byte	0x1
 9964 1206 54       		.byte	0x54
 9965 1207 80020000 		.4byte	.LVL34
 9966 120b 82020000 		.4byte	.LVL35
 9967 120f 1200     		.2byte	0x12
 9968 1211 70       		.byte	0x70
 9969 1212 00       		.sleb128 0
 9970 1213 75       		.byte	0x75
 9971 1214 00       		.sleb128 0
 9972 1215 27       		.byte	0x27
 9973 1216 78       		.byte	0x78
 9974 1217 00       		.sleb128 0
 9975 1218 27       		.byte	0x27
 9976 1219 77       		.byte	0x77
 9977 121a 14       		.sleb128 20
 9978 121b 06       		.byte	0x6
 9979 121c 22       		.byte	0x22
 9980 121d 91       		.byte	0x91
 9981 121e 847F     		.sleb128 -124
 9982 1220 06       		.byte	0x6
ARM GAS  C:\Users\Phuong\AppData\Local\Temp\ccbgGR22.s 			page 187


 9983 1221 22       		.byte	0x22
 9984 1222 9F       		.byte	0x9f
 9985 1223 82020000 		.4byte	.LVL35
 9986 1227 0A030000 		.4byte	.LVL57
 9987 122b 0100     		.2byte	0x1
 9988 122d 54       		.byte	0x54
 9989 122e 0C030000 		.4byte	.LVL58
 9990 1232 0E030000 		.4byte	.LVL59
 9991 1236 0100     		.2byte	0x1
 9992 1238 54       		.byte	0x54
 9993 1239 0E030000 		.4byte	.LVL59
 9994 123d 44030000 		.4byte	.LVL67
 9995 1241 0100     		.2byte	0x1
 9996 1243 56       		.byte	0x56
 9997 1244 44030000 		.4byte	.LVL67
 9998 1248 A6030000 		.4byte	.LVL79
 9999 124c 0100     		.2byte	0x1
 10000 124e 54       		.byte	0x54
 10001 124f A6030000 		.4byte	.LVL79
 10002 1253 BC030000 		.4byte	.LVL84
 10003 1257 0100     		.2byte	0x1
 10004 1259 58       		.byte	0x58
 10005 125a BC030000 		.4byte	.LVL84
 10006 125e EE030000 		.4byte	.LVL91
 10007 1262 0200     		.2byte	0x2
 10008 1264 91       		.byte	0x91
 10009 1265 50       		.sleb128 -48
 10010 1266 EE030000 		.4byte	.LVL91
 10011 126a F6030000 		.4byte	.LVL92
 10012 126e 0100     		.2byte	0x1
 10013 1270 5B       		.byte	0x5b
 10014 1271 F6030000 		.4byte	.LVL92
 10015 1275 FC030000 		.4byte	.LVL93
 10016 1279 1300     		.2byte	0x13
 10017 127b 7C       		.byte	0x7c
 10018 127c 00       		.sleb128 0
 10019 127d 91       		.byte	0x91
 10020 127e 44       		.sleb128 -60
 10021 127f 06       		.byte	0x6
 10022 1280 27       		.byte	0x27
 10023 1281 79       		.byte	0x79
 10024 1282 00       		.sleb128 0
 10025 1283 27       		.byte	0x27
 10026 1284 91       		.byte	0x91
 10027 1285 50       		.sleb128 -48
 10028 1286 06       		.byte	0x6
 10029 1287 22       		.byte	0x22
 10030 1288 91       		.byte	0x91
 10031 1289 987F     		.sleb128 -104
 10032 128b 06       		.byte	0x6
 10033 128c 22       		.byte	0x22
 10034 128d 9F       		.byte	0x9f
 10035 128e FC030000 		.4byte	.LVL93
 10036 1292 9A040000 		.4byte	.LVL117
 10037 1296 0100     		.2byte	0x1
 10038 1298 5B       		.byte	0x5b
 10039 1299 9A040000 		.4byte	.LVL117
ARM GAS  C:\Users\Phuong\AppData\Local\Temp\ccbgGR22.s 			page 188


 10040 129d 9E040000 		.4byte	.LVL119
 10041 12a1 0100     		.2byte	0x1
 10042 12a3 51       		.byte	0x51
 10043 12a4 9E040000 		.4byte	.LVL119
 10044 12a8 6A050000 		.4byte	.LVL150
 10045 12ac 0100     		.2byte	0x1
 10046 12ae 5B       		.byte	0x5b
 10047 12af 6A050000 		.4byte	.LVL150
 10048 12b3 6E050000 		.4byte	.LVL151
 10049 12b7 0100     		.2byte	0x1
 10050 12b9 55       		.byte	0x55
 10051 12ba 6E050000 		.4byte	.LVL151
 10052 12be 72050000 		.4byte	.LVL152
 10053 12c2 1000     		.2byte	0x10
 10054 12c4 7C       		.byte	0x7c
 10055 12c5 00       		.sleb128 0
 10056 12c6 72       		.byte	0x72
 10057 12c7 00       		.sleb128 0
 10058 12c8 27       		.byte	0x27
 10059 12c9 91       		.byte	0x91
 10060 12ca 40       		.sleb128 -64
 10061 12cb 06       		.byte	0x6
 10062 12cc 27       		.byte	0x27
 10063 12cd 78       		.byte	0x78
 10064 12ce 00       		.sleb128 0
 10065 12cf 22       		.byte	0x22
 10066 12d0 7B       		.byte	0x7b
 10067 12d1 00       		.sleb128 0
 10068 12d2 22       		.byte	0x22
 10069 12d3 9F       		.byte	0x9f
 10070 12d4 74050000 		.4byte	.LVL153
 10071 12d8 0C060000 		.4byte	.LVL181
 10072 12dc 0100     		.2byte	0x1
 10073 12de 5B       		.byte	0x5b
 10074 12df 0C060000 		.4byte	.LVL181
 10075 12e3 48060000 		.4byte	.LVL188
 10076 12e7 0100     		.2byte	0x1
 10077 12e9 50       		.byte	0x50
 10078 12ea 48060000 		.4byte	.LVL188
 10079 12ee F2060000 		.4byte	.LVL214
 10080 12f2 0200     		.2byte	0x2
 10081 12f4 91       		.byte	0x91
 10082 12f5 40       		.sleb128 -64
 10083 12f6 F2060000 		.4byte	.LVL214
 10084 12fa F6060000 		.4byte	.LVL215
 10085 12fe 0100     		.2byte	0x1
 10086 1300 54       		.byte	0x54
 10087 1301 F6060000 		.4byte	.LVL215
 10088 1305 F8060000 		.4byte	.LVL216
 10089 1309 1900     		.2byte	0x19
 10090 130b 7C       		.byte	0x7c
 10091 130c 00       		.sleb128 0
 10092 130d 72       		.byte	0x72
 10093 130e 00       		.sleb128 0
 10094 130f 27       		.byte	0x27
 10095 1310 91       		.byte	0x91
 10096 1311 48       		.sleb128 -56
ARM GAS  C:\Users\Phuong\AppData\Local\Temp\ccbgGR22.s 			page 189


 10097 1312 06       		.byte	0x6
 10098 1313 1A       		.byte	0x1a
 10099 1314 72       		.byte	0x72
 10100 1315 00       		.sleb128 0
 10101 1316 27       		.byte	0x27
 10102 1317 79       		.byte	0x79
 10103 1318 00       		.sleb128 0
 10104 1319 22       		.byte	0x22
 10105 131a 91       		.byte	0x91
 10106 131b 8C7F     		.sleb128 -116
 10107 131d 06       		.byte	0x6
 10108 131e 22       		.byte	0x22
 10109 131f 91       		.byte	0x91
 10110 1320 40       		.sleb128 -64
 10111 1321 06       		.byte	0x6
 10112 1322 22       		.byte	0x22
 10113 1323 9F       		.byte	0x9f
 10114 1324 F8060000 		.4byte	.LVL216
 10115 1328 A0070000 		.4byte	.LVL243
 10116 132c 0100     		.2byte	0x1
 10117 132e 54       		.byte	0x54
 10118 132f A2070000 		.4byte	.LVL244
 10119 1333 A8070000 		.4byte	.LVL245
 10120 1337 0100     		.2byte	0x1
 10121 1339 54       		.byte	0x54
 10122 133a A8070000 		.4byte	.LVL245
 10123 133e 9C080000 		.4byte	.LVL281
 10124 1342 0200     		.2byte	0x2
 10125 1344 91       		.byte	0x91
 10126 1345 44       		.sleb128 -60
 10127 1346 9C080000 		.4byte	.LVL281
 10128 134a 9E080000 		.4byte	.LVL282
 10129 134e 0100     		.2byte	0x1
 10130 1350 54       		.byte	0x54
 10131 1351 9E080000 		.4byte	.LVL282
 10132 1355 A0080000 		.4byte	.LVL283
 10133 1359 1900     		.2byte	0x19
 10134 135b 7C       		.byte	0x7c
 10135 135c 00       		.sleb128 0
 10136 135d 79       		.byte	0x79
 10137 135e 00       		.sleb128 0
 10138 135f 27       		.byte	0x27
 10139 1360 91       		.byte	0x91
 10140 1361 4C       		.sleb128 -52
 10141 1362 06       		.byte	0x6
 10142 1363 1A       		.byte	0x1a
 10143 1364 79       		.byte	0x79
 10144 1365 00       		.sleb128 0
 10145 1366 27       		.byte	0x27
 10146 1367 75       		.byte	0x75
 10147 1368 00       		.sleb128 0
 10148 1369 22       		.byte	0x22
 10149 136a 91       		.byte	0x91
 10150 136b B87F     		.sleb128 -72
 10151 136d 06       		.byte	0x6
 10152 136e 22       		.byte	0x22
 10153 136f 91       		.byte	0x91
ARM GAS  C:\Users\Phuong\AppData\Local\Temp\ccbgGR22.s 			page 190


 10154 1370 44       		.sleb128 -60
 10155 1371 06       		.byte	0x6
 10156 1372 22       		.byte	0x22
 10157 1373 9F       		.byte	0x9f
 10158 1374 A0080000 		.4byte	.LVL283
 10159 1378 48090000 		.4byte	.LVL309
 10160 137c 0100     		.2byte	0x1
 10161 137e 54       		.byte	0x54
 10162 137f 4A090000 		.4byte	.LVL310
 10163 1383 4E090000 		.4byte	.LVL311
 10164 1387 0100     		.2byte	0x1
 10165 1389 54       		.byte	0x54
 10166 138a 4E090000 		.4byte	.LVL311
 10167 138e 3C0A0000 		.4byte	.LVL346
 10168 1392 0100     		.2byte	0x1
 10169 1394 5A       		.byte	0x5a
 10170 1395 3C0A0000 		.4byte	.LVL346
 10171 1399 400A0000 		.4byte	.LVL347
 10172 139d 0100     		.2byte	0x1
 10173 139f 54       		.byte	0x54
 10174 13a0 400A0000 		.4byte	.LVL347
 10175 13a4 420A0000 		.4byte	.LVL348
 10176 13a8 1700     		.2byte	0x17
 10177 13aa 7B       		.byte	0x7b
 10178 13ab 00       		.sleb128 0
 10179 13ac 75       		.byte	0x75
 10180 13ad 00       		.sleb128 0
 10181 13ae 27       		.byte	0x27
 10182 13af 72       		.byte	0x72
 10183 13b0 00       		.sleb128 0
 10184 13b1 1A       		.byte	0x1a
 10185 13b2 7B       		.byte	0x7b
 10186 13b3 00       		.sleb128 0
 10187 13b4 27       		.byte	0x27
 10188 13b5 7C       		.byte	0x7c
 10189 13b6 00       		.sleb128 0
 10190 13b7 22       		.byte	0x22
 10191 13b8 91       		.byte	0x91
 10192 13b9 907F     		.sleb128 -112
 10193 13bb 06       		.byte	0x6
 10194 13bc 22       		.byte	0x22
 10195 13bd 7A       		.byte	0x7a
 10196 13be 00       		.sleb128 0
 10197 13bf 22       		.byte	0x22
 10198 13c0 9F       		.byte	0x9f
 10199 13c1 440A0000 		.4byte	.LVL349
 10200 13c5 EA0A0000 		.4byte	.LVL377
 10201 13c9 0100     		.2byte	0x1
 10202 13cb 5A       		.byte	0x5a
 10203 13cc EA0A0000 		.4byte	.LVL377
 10204 13d0 EC0A0000 		.4byte	.LVL378
 10205 13d4 0100     		.2byte	0x1
 10206 13d6 51       		.byte	0x51
 10207 13d7 EC0A0000 		.4byte	.LVL378
 10208 13db DC0B0000 		.4byte	.LVL409
 10209 13df 0200     		.2byte	0x2
 10210 13e1 91       		.byte	0x91
ARM GAS  C:\Users\Phuong\AppData\Local\Temp\ccbgGR22.s 			page 191


 10211 13e2 48       		.sleb128 -56
 10212 13e3 DC0B0000 		.4byte	.LVL409
 10213 13e7 E00B0000 		.4byte	.LVL410
 10214 13eb 0100     		.2byte	0x1
 10215 13ed 55       		.byte	0x55
 10216 13ee E00B0000 		.4byte	.LVL410
 10217 13f2 E40B0000 		.4byte	.LVL412
 10218 13f6 1600     		.2byte	0x16
 10219 13f8 7C       		.byte	0x7c
 10220 13f9 00       		.sleb128 0
 10221 13fa 20       		.byte	0x20
 10222 13fb 78       		.byte	0x78
 10223 13fc 00       		.sleb128 0
 10224 13fd 21       		.byte	0x21
 10225 13fe 7B       		.byte	0x7b
 10226 13ff 00       		.sleb128 0
 10227 1400 27       		.byte	0x27
 10228 1401 7A       		.byte	0x7a
 10229 1402 00       		.sleb128 0
 10230 1403 22       		.byte	0x22
 10231 1404 91       		.byte	0x91
 10232 1405 887F     		.sleb128 -120
 10233 1407 06       		.byte	0x6
 10234 1408 22       		.byte	0x22
 10235 1409 91       		.byte	0x91
 10236 140a 48       		.sleb128 -56
 10237 140b 06       		.byte	0x6
 10238 140c 22       		.byte	0x22
 10239 140d 9F       		.byte	0x9f
 10240 140e E40B0000 		.4byte	.LVL412
 10241 1412 E60B0000 		.4byte	.LVL413
 10242 1416 1900     		.2byte	0x19
 10243 1418 7C       		.byte	0x7c
 10244 1419 00       		.sleb128 0
 10245 141a 20       		.byte	0x20
 10246 141b 78       		.byte	0x78
 10247 141c 00       		.sleb128 0
 10248 141d 21       		.byte	0x21
 10249 141e 7B       		.byte	0x7b
 10250 141f 00       		.sleb128 0
 10251 1420 27       		.byte	0x27
 10252 1421 91       		.byte	0x91
 10253 1422 887F     		.sleb128 -120
 10254 1424 06       		.byte	0x6
 10255 1425 22       		.byte	0x22
 10256 1426 91       		.byte	0x91
 10257 1427 48       		.sleb128 -56
 10258 1428 06       		.byte	0x6
 10259 1429 22       		.byte	0x22
 10260 142a 23       		.byte	0x23
 10261 142b A1D7E7F6 		.uleb128 0x6ed9eba1
 10261      06
 10262 1430 9F       		.byte	0x9f
 10263 1431 E60B0000 		.4byte	.LVL413
 10264 1435 980C0000 		.4byte	.LVL436
 10265 1439 0100     		.2byte	0x1
 10266 143b 55       		.byte	0x55
ARM GAS  C:\Users\Phuong\AppData\Local\Temp\ccbgGR22.s 			page 192


 10267 143c 980C0000 		.4byte	.LVL436
 10268 1440 A00C0000 		.4byte	.LVL437
 10269 1444 0100     		.2byte	0x1
 10270 1446 56       		.byte	0x56
 10271 1447 A00C0000 		.4byte	.LVL437
 10272 144b 680D0000 		.4byte	.LVL471
 10273 144f 0100     		.2byte	0x1
 10274 1451 5B       		.byte	0x5b
 10275 1452 680D0000 		.4byte	.LVL471
 10276 1456 6C0D0000 		.4byte	.LVL472
 10277 145a 0100     		.2byte	0x1
 10278 145c 52       		.byte	0x52
 10279 145d 6C0D0000 		.4byte	.LVL472
 10280 1461 720D0000 		.4byte	.LVL473
 10281 1465 1800     		.2byte	0x18
 10282 1467 76       		.byte	0x76
 10283 1468 00       		.sleb128 0
 10284 1469 20       		.byte	0x20
 10285 146a 74       		.byte	0x74
 10286 146b 00       		.sleb128 0
 10287 146c 21       		.byte	0x21
 10288 146d 78       		.byte	0x78
 10289 146e 00       		.sleb128 0
 10290 146f 27       		.byte	0x27
 10291 1470 91       		.byte	0x91
 10292 1471 B87F     		.sleb128 -72
 10293 1473 06       		.byte	0x6
 10294 1474 22       		.byte	0x22
 10295 1475 7B       		.byte	0x7b
 10296 1476 00       		.sleb128 0
 10297 1477 22       		.byte	0x22
 10298 1478 23       		.byte	0x23
 10299 1479 A1D7E7F6 		.uleb128 0x6ed9eba1
 10299      06
 10300 147e 9F       		.byte	0x9f
 10301 147f 720D0000 		.4byte	.LVL473
 10302 1483 120E0000 		.4byte	.LVL498
 10303 1487 0100     		.2byte	0x1
 10304 1489 5C       		.byte	0x5c
 10305 148a 120E0000 		.4byte	.LVL498
 10306 148e 160E0000 		.4byte	.LVL499
 10307 1492 0100     		.2byte	0x1
 10308 1494 52       		.byte	0x52
 10309 1495 160E0000 		.4byte	.LVL499
 10310 1499 220F0000 		.4byte	.LVL528
 10311 149d 0200     		.2byte	0x2
 10312 149f 91       		.byte	0x91
 10313 14a0 44       		.sleb128 -60
 10314 14a1 220F0000 		.4byte	.LVL528
 10315 14a5 2A0F0000 		.4byte	.LVL529
 10316 14a9 0100     		.2byte	0x1
 10317 14ab 58       		.byte	0x58
 10318 14ac 2A0F0000 		.4byte	.LVL529
 10319 14b0 2E0F0000 		.4byte	.LVL530
 10320 14b4 1700     		.2byte	0x17
 10321 14b6 91       		.byte	0x91
 10322 14b7 48       		.sleb128 -56
ARM GAS  C:\Users\Phuong\AppData\Local\Temp\ccbgGR22.s 			page 193


 10323 14b8 06       		.byte	0x6
 10324 14b9 20       		.byte	0x20
 10325 14ba 74       		.byte	0x74
 10326 14bb 00       		.sleb128 0
 10327 14bc 21       		.byte	0x21
 10328 14bd 70       		.byte	0x70
 10329 14be 00       		.sleb128 0
 10330 14bf 27       		.byte	0x27
 10331 14c0 7C       		.byte	0x7c
 10332 14c1 00       		.sleb128 0
 10333 14c2 22       		.byte	0x22
 10334 14c3 91       		.byte	0x91
 10335 14c4 BC7F     		.sleb128 -68
 10336 14c6 06       		.byte	0x6
 10337 14c7 22       		.byte	0x22
 10338 14c8 91       		.byte	0x91
 10339 14c9 44       		.sleb128 -60
 10340 14ca 06       		.byte	0x6
 10341 14cb 22       		.byte	0x22
 10342 14cc 9F       		.byte	0x9f
 10343 14cd 2E0F0000 		.4byte	.LVL530
 10344 14d1 300F0000 		.4byte	.LVL531
 10345 14d5 1A00     		.2byte	0x1a
 10346 14d7 91       		.byte	0x91
 10347 14d8 48       		.sleb128 -56
 10348 14d9 06       		.byte	0x6
 10349 14da 20       		.byte	0x20
 10350 14db 74       		.byte	0x74
 10351 14dc 00       		.sleb128 0
 10352 14dd 21       		.byte	0x21
 10353 14de 70       		.byte	0x70
 10354 14df 00       		.sleb128 0
 10355 14e0 27       		.byte	0x27
 10356 14e1 91       		.byte	0x91
 10357 14e2 BC7F     		.sleb128 -68
 10358 14e4 06       		.byte	0x6
 10359 14e5 22       		.byte	0x22
 10360 14e6 91       		.byte	0x91
 10361 14e7 44       		.sleb128 -60
 10362 14e8 06       		.byte	0x6
 10363 14e9 22       		.byte	0x22
 10364 14ea 23       		.byte	0x23
 10365 14eb A1D7E7F6 		.uleb128 0x6ed9eba1
 10365      06
 10366 14f0 9F       		.byte	0x9f
 10367 14f1 300F0000 		.4byte	.LVL531
 10368 14f5 F00F0000 		.4byte	.LVL556
 10369 14f9 0100     		.2byte	0x1
 10370 14fb 58       		.byte	0x58
 10371 14fc F00F0000 		.4byte	.LVL556
 10372 1500 44100000 		.4byte	.LVL565
 10373 1504 0100     		.2byte	0x1
 10374 1506 50       		.byte	0x50
 10375 1507 44100000 		.4byte	.LVL565
 10376 150b F2100000 		.4byte	.LVL590
 10377 150f 0200     		.2byte	0x2
 10378 1511 91       		.byte	0x91
ARM GAS  C:\Users\Phuong\AppData\Local\Temp\ccbgGR22.s 			page 194


 10379 1512 50       		.sleb128 -48
 10380 1513 F2100000 		.4byte	.LVL590
 10381 1517 F4100000 		.4byte	.LVL591
 10382 151b 0100     		.2byte	0x1
 10383 151d 54       		.byte	0x54
 10384 151e F4100000 		.4byte	.LVL591
 10385 1522 F6100000 		.4byte	.LVL592
 10386 1526 1700     		.2byte	0x17
 10387 1528 91       		.byte	0x91
 10388 1529 44       		.sleb128 -60
 10389 152a 06       		.byte	0x6
 10390 152b 20       		.byte	0x20
 10391 152c 79       		.byte	0x79
 10392 152d 00       		.sleb128 0
 10393 152e 21       		.byte	0x21
 10394 152f 7B       		.byte	0x7b
 10395 1530 00       		.sleb128 0
 10396 1531 27       		.byte	0x27
 10397 1532 70       		.byte	0x70
 10398 1533 00       		.sleb128 0
 10399 1534 22       		.byte	0x22
 10400 1535 91       		.byte	0x91
 10401 1536 AC7F     		.sleb128 -84
 10402 1538 06       		.byte	0x6
 10403 1539 22       		.byte	0x22
 10404 153a 91       		.byte	0x91
 10405 153b 50       		.sleb128 -48
 10406 153c 06       		.byte	0x6
 10407 153d 22       		.byte	0x22
 10408 153e 9F       		.byte	0x9f
 10409 153f F6100000 		.4byte	.LVL592
 10410 1543 F8100000 		.4byte	.LVL593
 10411 1547 1700     		.2byte	0x17
 10412 1549 91       		.byte	0x91
 10413 154a 44       		.sleb128 -60
 10414 154b 06       		.byte	0x6
 10415 154c 20       		.byte	0x20
 10416 154d 79       		.byte	0x79
 10417 154e 00       		.sleb128 0
 10418 154f 21       		.byte	0x21
 10419 1550 7B       		.byte	0x7b
 10420 1551 00       		.sleb128 0
 10421 1552 27       		.byte	0x27
 10422 1553 7A       		.byte	0x7a
 10423 1554 00       		.sleb128 0
 10424 1555 22       		.byte	0x22
 10425 1556 91       		.byte	0x91
 10426 1557 AC7F     		.sleb128 -84
 10427 1559 06       		.byte	0x6
 10428 155a 22       		.byte	0x22
 10429 155b 91       		.byte	0x91
 10430 155c 50       		.sleb128 -48
 10431 155d 06       		.byte	0x6
 10432 155e 22       		.byte	0x22
 10433 155f 9F       		.byte	0x9f
 10434 1560 F8100000 		.4byte	.LVL593
 10435 1564 FA100000 		.4byte	.LVL594
ARM GAS  C:\Users\Phuong\AppData\Local\Temp\ccbgGR22.s 			page 195


 10436 1568 1A00     		.2byte	0x1a
 10437 156a 91       		.byte	0x91
 10438 156b 44       		.sleb128 -60
 10439 156c 06       		.byte	0x6
 10440 156d 20       		.byte	0x20
 10441 156e 79       		.byte	0x79
 10442 156f 00       		.sleb128 0
 10443 1570 21       		.byte	0x21
 10444 1571 7B       		.byte	0x7b
 10445 1572 00       		.sleb128 0
 10446 1573 27       		.byte	0x27
 10447 1574 91       		.byte	0x91
 10448 1575 AC7F     		.sleb128 -84
 10449 1577 06       		.byte	0x6
 10450 1578 22       		.byte	0x22
 10451 1579 91       		.byte	0x91
 10452 157a 50       		.sleb128 -48
 10453 157b 06       		.byte	0x6
 10454 157c 22       		.byte	0x22
 10455 157d 23       		.byte	0x23
 10456 157e A1D7E7F6 		.uleb128 0x6ed9eba1
 10456      06
 10457 1583 9F       		.byte	0x9f
 10458 1584 FA100000 		.4byte	.LVL594
 10459 1588 A4110000 		.4byte	.LVL621
 10460 158c 0100     		.2byte	0x1
 10461 158e 54       		.byte	0x54
 10462 158f A6110000 		.4byte	.LVL622
 10463 1593 A8110000 		.4byte	.LVL623
 10464 1597 0100     		.2byte	0x1
 10465 1599 54       		.byte	0x54
 10466 159a A8110000 		.4byte	.LVL623
 10467 159e AE120000 		.4byte	.LVL654
 10468 15a2 0100     		.2byte	0x1
 10469 15a4 5B       		.byte	0x5b
 10470 15a5 B4120000 		.4byte	.LVL655
 10471 15a9 BC120000 		.4byte	.LVL656
 10472 15ad 0100     		.2byte	0x1
 10473 15af 5B       		.byte	0x5b
 10474 15b0 C2120000 		.4byte	.LVL657
 10475 15b4 82130000 		.4byte	.LVL681
 10476 15b8 0100     		.2byte	0x1
 10477 15ba 5B       		.byte	0x5b
 10478 15bb 82130000 		.4byte	.LVL681
 10479 15bf 84130000 		.4byte	.LVL682
 10480 15c3 0100     		.2byte	0x1
 10481 15c5 51       		.byte	0x51
 10482 15c6 84130000 		.4byte	.LVL682
 10483 15ca 7E140000 		.4byte	.LVL711
 10484 15ce 0200     		.2byte	0x2
 10485 15d0 91       		.byte	0x91
 10486 15d1 4C       		.sleb128 -52
 10487 15d2 7E140000 		.4byte	.LVL711
 10488 15d6 86140000 		.4byte	.LVL712
 10489 15da 0100     		.2byte	0x1
 10490 15dc 5B       		.byte	0x5b
 10491 15dd 86140000 		.4byte	.LVL712
ARM GAS  C:\Users\Phuong\AppData\Local\Temp\ccbgGR22.s 			page 196


 10492 15e1 8A140000 		.4byte	.LVL713
 10493 15e5 1800     		.2byte	0x18
 10494 15e7 79       		.byte	0x79
 10495 15e8 00       		.sleb128 0
 10496 15e9 7A       		.byte	0x7a
 10497 15ea 00       		.sleb128 0
 10498 15eb 27       		.byte	0x27
 10499 15ec 78       		.byte	0x78
 10500 15ed 00       		.sleb128 0
 10501 15ee 1A       		.byte	0x1a
 10502 15ef 7A       		.byte	0x7a
 10503 15f0 00       		.sleb128 0
 10504 15f1 27       		.byte	0x27
 10505 15f2 7C       		.byte	0x7c
 10506 15f3 00       		.sleb128 0
 10507 15f4 22       		.byte	0x22
 10508 15f5 91       		.byte	0x91
 10509 15f6 887F     		.sleb128 -120
 10510 15f8 06       		.byte	0x6
 10511 15f9 22       		.byte	0x22
 10512 15fa 91       		.byte	0x91
 10513 15fb 4C       		.sleb128 -52
 10514 15fc 06       		.byte	0x6
 10515 15fd 22       		.byte	0x22
 10516 15fe 9F       		.byte	0x9f
 10517 15ff 8A140000 		.4byte	.LVL713
 10518 1603 8C140000 		.4byte	.LVL714
 10519 1607 1B00     		.2byte	0x1b
 10520 1609 79       		.byte	0x79
 10521 160a 00       		.sleb128 0
 10522 160b 7A       		.byte	0x7a
 10523 160c 00       		.sleb128 0
 10524 160d 27       		.byte	0x27
 10525 160e 78       		.byte	0x78
 10526 160f 00       		.sleb128 0
 10527 1610 1A       		.byte	0x1a
 10528 1611 7A       		.byte	0x7a
 10529 1612 00       		.sleb128 0
 10530 1613 27       		.byte	0x27
 10531 1614 91       		.byte	0x91
 10532 1615 887F     		.sleb128 -120
 10533 1617 06       		.byte	0x6
 10534 1618 22       		.byte	0x22
 10535 1619 91       		.byte	0x91
 10536 161a 4C       		.sleb128 -52
 10537 161b 06       		.byte	0x6
 10538 161c 22       		.byte	0x22
 10539 161d 0C       		.byte	0xc
 10540 161e 2443E470 		.4byte	0x70e44324
 10541 1622 1C       		.byte	0x1c
 10542 1623 9F       		.byte	0x9f
 10543 1624 8C140000 		.4byte	.LVL714
 10544 1628 48150000 		.4byte	.LVL738
 10545 162c 0100     		.2byte	0x1
 10546 162e 5B       		.byte	0x5b
 10547 162f 48150000 		.4byte	.LVL738
 10548 1633 4E150000 		.4byte	.LVL739
ARM GAS  C:\Users\Phuong\AppData\Local\Temp\ccbgGR22.s 			page 197


 10549 1637 0100     		.2byte	0x1
 10550 1639 52       		.byte	0x52
 10551 163a 4E150000 		.4byte	.LVL739
 10552 163e 4E160000 		.4byte	.LVL770
 10553 1642 0200     		.2byte	0x2
 10554 1644 91       		.byte	0x91
 10555 1645 50       		.sleb128 -48
 10556 1646 4E160000 		.4byte	.LVL770
 10557 164a 50160000 		.4byte	.LVL771
 10558 164e 0100     		.2byte	0x1
 10559 1650 55       		.byte	0x55
 10560 1651 50160000 		.4byte	.LVL771
 10561 1655 5E160000 		.4byte	.LVL772
 10562 1659 1900     		.2byte	0x19
 10563 165b 7A       		.byte	0x7a
 10564 165c 00       		.sleb128 0
 10565 165d 79       		.byte	0x79
 10566 165e 00       		.sleb128 0
 10567 165f 27       		.byte	0x27
 10568 1660 91       		.byte	0x91
 10569 1661 54       		.sleb128 -44
 10570 1662 06       		.byte	0x6
 10571 1663 1A       		.byte	0x1a
 10572 1664 7A       		.byte	0x7a
 10573 1665 00       		.sleb128 0
 10574 1666 27       		.byte	0x27
 10575 1667 70       		.byte	0x70
 10576 1668 00       		.sleb128 0
 10577 1669 22       		.byte	0x22
 10578 166a 91       		.byte	0x91
 10579 166b 947F     		.sleb128 -108
 10580 166d 06       		.byte	0x6
 10581 166e 22       		.byte	0x22
 10582 166f 91       		.byte	0x91
 10583 1670 50       		.sleb128 -48
 10584 1671 06       		.byte	0x6
 10585 1672 22       		.byte	0x22
 10586 1673 9F       		.byte	0x9f
 10587 1674 5E160000 		.4byte	.LVL772
 10588 1678 60160000 		.4byte	.LVL773
 10589 167c 0100     		.2byte	0x1
 10590 167e 55       		.byte	0x55
 10591 167f 60160000 		.4byte	.LVL773
 10592 1683 16170000 		.4byte	.LVL800
 10593 1687 0100     		.2byte	0x1
 10594 1689 5C       		.byte	0x5c
 10595 168a 16170000 		.4byte	.LVL800
 10596 168e 18170000 		.4byte	.LVL801
 10597 1692 0100     		.2byte	0x1
 10598 1694 52       		.byte	0x52
 10599 1695 18170000 		.4byte	.LVL801
 10600 1699 F2170000 		.4byte	.LVL832
 10601 169d 0200     		.2byte	0x2
 10602 169f 91       		.byte	0x91
 10603 16a0 40       		.sleb128 -64
 10604 16a1 F2170000 		.4byte	.LVL832
 10605 16a5 FA170000 		.4byte	.LVL833
ARM GAS  C:\Users\Phuong\AppData\Local\Temp\ccbgGR22.s 			page 198


 10606 16a9 0100     		.2byte	0x1
 10607 16ab 5C       		.byte	0x5c
 10608 16ac FA170000 		.4byte	.LVL833
 10609 16b0 FC170000 		.4byte	.LVL834
 10610 16b4 1800     		.2byte	0x18
 10611 16b6 91       		.byte	0x91
 10612 16b7 4C       		.sleb128 -52
 10613 16b8 06       		.byte	0x6
 10614 16b9 20       		.byte	0x20
 10615 16ba 91       		.byte	0x91
 10616 16bb 44       		.sleb128 -60
 10617 16bc 06       		.byte	0x6
 10618 16bd 21       		.byte	0x21
 10619 16be 72       		.byte	0x72
 10620 16bf 00       		.sleb128 0
 10621 16c0 27       		.byte	0x27
 10622 16c1 79       		.byte	0x79
 10623 16c2 00       		.sleb128 0
 10624 16c3 22       		.byte	0x22
 10625 16c4 91       		.byte	0x91
 10626 16c5 A07F     		.sleb128 -96
 10627 16c7 06       		.byte	0x6
 10628 16c8 22       		.byte	0x22
 10629 16c9 91       		.byte	0x91
 10630 16ca 40       		.sleb128 -64
 10631 16cb 06       		.byte	0x6
 10632 16cc 22       		.byte	0x22
 10633 16cd 9F       		.byte	0x9f
 10634 16ce FC170000 		.4byte	.LVL834
 10635 16d2 A2180000 		.4byte	.LVL858
 10636 16d6 0100     		.2byte	0x1
 10637 16d8 5C       		.byte	0x5c
 10638 16d9 A2180000 		.4byte	.LVL858
 10639 16dd A4180000 		.4byte	.LVL859
 10640 16e1 0100     		.2byte	0x1
 10641 16e3 55       		.byte	0x55
 10642 16e4 A4180000 		.4byte	.LVL859
 10643 16e8 6C190000 		.4byte	.LVL887
 10644 16ec 0100     		.2byte	0x1
 10645 16ee 5C       		.byte	0x5c
 10646 16ef 72190000 		.4byte	.LVL888
 10647 16f3 78190000 		.4byte	.LVL889
 10648 16f7 0100     		.2byte	0x1
 10649 16f9 5C       		.byte	0x5c
 10650 16fa 7E190000 		.4byte	.LVL890
 10651 16fe 181A0000 		.4byte	.LVL916
 10652 1702 0100     		.2byte	0x1
 10653 1704 5C       		.byte	0x5c
 10654 1705 181A0000 		.4byte	.LVL916
 10655 1709 1C1A0000 		.4byte	.LVL917
 10656 170d 0100     		.2byte	0x1
 10657 170f 50       		.byte	0x50
 10658 1710 1C1A0000 		.4byte	.LVL917
 10659 1714 F41A0000 		.4byte	.LVL947
 10660 1718 0100     		.2byte	0x1
 10661 171a 5C       		.byte	0x5c
 10662 171b F61A0000 		.4byte	.LVL948
ARM GAS  C:\Users\Phuong\AppData\Local\Temp\ccbgGR22.s 			page 199


 10663 171f FA1A0000 		.4byte	.LVL949
 10664 1723 0100     		.2byte	0x1
 10665 1725 51       		.byte	0x51
 10666 1726 FC1A0000 		.4byte	.LVL950
 10667 172a 961B0000 		.4byte	.LVL972
 10668 172e 0100     		.2byte	0x1
 10669 1730 51       		.byte	0x51
 10670 1731 981B0000 		.4byte	.LVL973
 10671 1735 9A1B0000 		.4byte	.LVL974
 10672 1739 0100     		.2byte	0x1
 10673 173b 51       		.byte	0x51
 10674 173c 9A1B0000 		.4byte	.LVL974
 10675 1740 F41B0000 		.4byte	.LVL984
 10676 1744 0200     		.2byte	0x2
 10677 1746 7D       		.byte	0x7d
 10678 1747 00       		.sleb128 0
 10679 1748 F41B0000 		.4byte	.LVL984
 10680 174c 041C0000 		.4byte	.LFE6
 10681 1750 0300     		.2byte	0x3
 10682 1752 91       		.byte	0x91
 10683 1753 807F     		.sleb128 -128
 10684 1755 00000000 		.4byte	0
 10685 1759 00000000 		.4byte	0
 10686              	.LLST12:
 10687 175d CE010000 		.4byte	.LVL14
 10688 1761 32020000 		.4byte	.LVL24
 10689 1765 0200     		.2byte	0x2
 10690 1767 77       		.byte	0x77
 10691 1768 18       		.sleb128 24
 10692 1769 32020000 		.4byte	.LVL24
 10693 176d 36020000 		.4byte	.LVL25
 10694 1771 0100     		.2byte	0x1
 10695 1773 55       		.byte	0x55
 10696 1774 36020000 		.4byte	.LVL25
 10697 1778 3C020000 		.4byte	.LVL26
 10698 177c 1100     		.2byte	0x11
 10699 177e 77       		.byte	0x77
 10700 177f 0C       		.sleb128 12
 10701 1780 06       		.byte	0x6
 10702 1781 70       		.byte	0x70
 10703 1782 00       		.sleb128 0
 10704 1783 27       		.byte	0x27
 10705 1784 79       		.byte	0x79
 10706 1785 00       		.sleb128 0
 10707 1786 27       		.byte	0x27
 10708 1787 77       		.byte	0x77
 10709 1788 18       		.sleb128 24
 10710 1789 06       		.byte	0x6
 10711 178a 22       		.byte	0x22
 10712 178b 71       		.byte	0x71
 10713 178c 00       		.sleb128 0
 10714 178d 22       		.byte	0x22
 10715 178e 9F       		.byte	0x9f
 10716 178f 3C020000 		.4byte	.LVL26
 10717 1793 CC020000 		.4byte	.LVL47
 10718 1797 0100     		.2byte	0x1
 10719 1799 55       		.byte	0x55
ARM GAS  C:\Users\Phuong\AppData\Local\Temp\ccbgGR22.s 			page 200


 10720 179a CC020000 		.4byte	.LVL47
 10721 179e E0020000 		.4byte	.LVL48
 10722 17a2 0100     		.2byte	0x1
 10723 17a4 50       		.byte	0x50
 10724 17a5 E0020000 		.4byte	.LVL48
 10725 17a9 9C030000 		.4byte	.LVL77
 10726 17ad 0200     		.2byte	0x2
 10727 17af 91       		.byte	0x91
 10728 17b0 44       		.sleb128 -60
 10729 17b1 9C030000 		.4byte	.LVL77
 10730 17b5 A0030000 		.4byte	.LVL78
 10731 17b9 0100     		.2byte	0x1
 10732 17bb 52       		.byte	0x52
 10733 17bc A0030000 		.4byte	.LVL78
 10734 17c0 AA030000 		.4byte	.LVL80
 10735 17c4 1300     		.2byte	0x13
 10736 17c6 79       		.byte	0x79
 10737 17c7 00       		.sleb128 0
 10738 17c8 7C       		.byte	0x7c
 10739 17c9 00       		.sleb128 0
 10740 17ca 27       		.byte	0x27
 10741 17cb 91       		.byte	0x91
 10742 17cc 40       		.sleb128 -64
 10743 17cd 06       		.byte	0x6
 10744 17ce 27       		.byte	0x27
 10745 17cf 91       		.byte	0x91
 10746 17d0 44       		.sleb128 -60
 10747 17d1 06       		.byte	0x6
 10748 17d2 22       		.byte	0x22
 10749 17d3 91       		.byte	0x91
 10750 17d4 947F     		.sleb128 -108
 10751 17d6 06       		.byte	0x6
 10752 17d7 22       		.byte	0x22
 10753 17d8 9F       		.byte	0x9f
 10754 17d9 AA030000 		.4byte	.LVL80
 10755 17dd AC030000 		.4byte	.LVL81
 10756 17e1 0100     		.2byte	0x1
 10757 17e3 54       		.byte	0x54
 10758 17e4 AC030000 		.4byte	.LVL81
 10759 17e8 52040000 		.4byte	.LVL104
 10760 17ec 0200     		.2byte	0x2
 10761 17ee 91       		.byte	0x91
 10762 17ef 44       		.sleb128 -60
 10763 17f0 52040000 		.4byte	.LVL104
 10764 17f4 54040000 		.4byte	.LVL105
 10765 17f8 0100     		.2byte	0x1
 10766 17fa 52       		.byte	0x52
 10767 17fb 54040000 		.4byte	.LVL105
 10768 17ff 2E050000 		.4byte	.LVL138
 10769 1803 0200     		.2byte	0x2
 10770 1805 91       		.byte	0x91
 10771 1806 40       		.sleb128 -64
 10772 1807 2E050000 		.4byte	.LVL138
 10773 180b 32050000 		.4byte	.LVL139
 10774 180f 0100     		.2byte	0x1
 10775 1811 52       		.byte	0x52
 10776 1812 32050000 		.4byte	.LVL139
ARM GAS  C:\Users\Phuong\AppData\Local\Temp\ccbgGR22.s 			page 201


 10777 1816 34050000 		.4byte	.LVL140
 10778 181a 1300     		.2byte	0x13
 10779 181c 7C       		.byte	0x7c
 10780 181d 00       		.sleb128 0
 10781 181e 75       		.byte	0x75
 10782 181f 00       		.sleb128 0
 10783 1820 27       		.byte	0x27
 10784 1821 91       		.byte	0x91
 10785 1822 48       		.sleb128 -56
 10786 1823 06       		.byte	0x6
 10787 1824 27       		.byte	0x27
 10788 1825 91       		.byte	0x91
 10789 1826 40       		.sleb128 -64
 10790 1827 06       		.byte	0x6
 10791 1828 22       		.byte	0x22
 10792 1829 91       		.byte	0x91
 10793 182a A87F     		.sleb128 -88
 10794 182c 06       		.byte	0x6
 10795 182d 22       		.byte	0x22
 10796 182e 9F       		.byte	0x9f
 10797 182f 34050000 		.4byte	.LVL140
 10798 1833 BA050000 		.4byte	.LVL166
 10799 1837 0100     		.2byte	0x1
 10800 1839 52       		.byte	0x52
 10801 183a BC050000 		.4byte	.LVL167
 10802 183e C0050000 		.4byte	.LVL168
 10803 1842 0100     		.2byte	0x1
 10804 1844 52       		.byte	0x52
 10805 1845 C0050000 		.4byte	.LVL168
 10806 1849 A4060000 		.4byte	.LVL200
 10807 184d 0200     		.2byte	0x2
 10808 184f 91       		.byte	0x91
 10809 1850 48       		.sleb128 -56
 10810 1851 A4060000 		.4byte	.LVL200
 10811 1855 A6060000 		.4byte	.LVL201
 10812 1859 0100     		.2byte	0x1
 10813 185b 52       		.byte	0x52
 10814 185c A6060000 		.4byte	.LVL201
 10815 1860 A8060000 		.4byte	.LVL202
 10816 1864 1800     		.2byte	0x18
 10817 1866 78       		.byte	0x78
 10818 1867 00       		.sleb128 0
 10819 1868 71       		.byte	0x71
 10820 1869 00       		.sleb128 0
 10821 186a 27       		.byte	0x27
 10822 186b 7C       		.byte	0x7c
 10823 186c 00       		.sleb128 0
 10824 186d 1A       		.byte	0x1a
 10825 186e 78       		.byte	0x78
 10826 186f 00       		.sleb128 0
 10827 1870 27       		.byte	0x27
 10828 1871 75       		.byte	0x75
 10829 1872 00       		.sleb128 0
 10830 1873 22       		.byte	0x22
 10831 1874 91       		.byte	0x91
 10832 1875 987F     		.sleb128 -104
 10833 1877 06       		.byte	0x6
ARM GAS  C:\Users\Phuong\AppData\Local\Temp\ccbgGR22.s 			page 202


 10834 1878 22       		.byte	0x22
 10835 1879 91       		.byte	0x91
 10836 187a 48       		.sleb128 -56
 10837 187b 06       		.byte	0x6
 10838 187c 22       		.byte	0x22
 10839 187d 9F       		.byte	0x9f
 10840 187e A8060000 		.4byte	.LVL202
 10841 1882 AA060000 		.4byte	.LVL203
 10842 1886 1800     		.2byte	0x18
 10843 1888 78       		.byte	0x78
 10844 1889 00       		.sleb128 0
 10845 188a 71       		.byte	0x71
 10846 188b 00       		.sleb128 0
 10847 188c 27       		.byte	0x27
 10848 188d 7C       		.byte	0x7c
 10849 188e 00       		.sleb128 0
 10850 188f 1A       		.byte	0x1a
 10851 1890 78       		.byte	0x78
 10852 1891 00       		.sleb128 0
 10853 1892 27       		.byte	0x27
 10854 1893 79       		.byte	0x79
 10855 1894 00       		.sleb128 0
 10856 1895 22       		.byte	0x22
 10857 1896 91       		.byte	0x91
 10858 1897 987F     		.sleb128 -104
 10859 1899 06       		.byte	0x6
 10860 189a 22       		.byte	0x22
 10861 189b 91       		.byte	0x91
 10862 189c 48       		.sleb128 -56
 10863 189d 06       		.byte	0x6
 10864 189e 22       		.byte	0x22
 10865 189f 9F       		.byte	0x9f
 10866 18a0 AA060000 		.4byte	.LVL203
 10867 18a4 AE060000 		.4byte	.LVL204
 10868 18a8 1B00     		.2byte	0x1b
 10869 18aa 78       		.byte	0x78
 10870 18ab 00       		.sleb128 0
 10871 18ac 71       		.byte	0x71
 10872 18ad 00       		.sleb128 0
 10873 18ae 27       		.byte	0x27
 10874 18af 7C       		.byte	0x7c
 10875 18b0 00       		.sleb128 0
 10876 18b1 1A       		.byte	0x1a
 10877 18b2 78       		.byte	0x78
 10878 18b3 00       		.sleb128 0
 10879 18b4 27       		.byte	0x27
 10880 18b5 91       		.byte	0x91
 10881 18b6 987F     		.sleb128 -104
 10882 18b8 06       		.byte	0x6
 10883 18b9 22       		.byte	0x22
 10884 18ba 91       		.byte	0x91
 10885 18bb 48       		.sleb128 -56
 10886 18bc 06       		.byte	0x6
 10887 18bd 22       		.byte	0x22
 10888 18be 23       		.byte	0x23
 10889 18bf 99F389D4 		.uleb128 0x5a827999
 10889      05
ARM GAS  C:\Users\Phuong\AppData\Local\Temp\ccbgGR22.s 			page 203


 10890 18c4 9F       		.byte	0x9f
 10891 18c5 AE060000 		.4byte	.LVL204
 10892 18c9 B2060000 		.4byte	.LVL206
 10893 18cd 0100     		.2byte	0x1
 10894 18cf 52       		.byte	0x52
 10895 18d0 B2060000 		.4byte	.LVL206
 10896 18d4 54070000 		.4byte	.LVL231
 10897 18d8 0200     		.2byte	0x2
 10898 18da 91       		.byte	0x91
 10899 18db 48       		.sleb128 -56
 10900 18dc 54070000 		.4byte	.LVL231
 10901 18e0 56070000 		.4byte	.LVL232
 10902 18e4 0100     		.2byte	0x1
 10903 18e6 52       		.byte	0x52
 10904 18e7 56070000 		.4byte	.LVL232
 10905 18eb 3C080000 		.4byte	.LVL268
 10906 18ef 0100     		.2byte	0x1
 10907 18f1 59       		.byte	0x59
 10908 18f2 3E080000 		.4byte	.LVL269
 10909 18f6 42080000 		.4byte	.LVL270
 10910 18fa 0100     		.2byte	0x1
 10911 18fc 52       		.byte	0x52
 10912 18fd 4E080000 		.4byte	.LVL271
 10913 1901 6C080000 		.4byte	.LVL274
 10914 1905 0100     		.2byte	0x1
 10915 1907 55       		.byte	0x55
 10916 1908 6C080000 		.4byte	.LVL274
 10917 190c FA080000 		.4byte	.LVL297
 10918 1910 0200     		.2byte	0x2
 10919 1912 91       		.byte	0x91
 10920 1913 4C       		.sleb128 -52
 10921 1914 FA080000 		.4byte	.LVL297
 10922 1918 FC080000 		.4byte	.LVL298
 10923 191c 0100     		.2byte	0x1
 10924 191e 55       		.byte	0x55
 10925 191f FC080000 		.4byte	.LVL298
 10926 1923 E0090000 		.4byte	.LVL334
 10927 1927 0100     		.2byte	0x1
 10928 1929 5B       		.byte	0x5b
 10929 192a E0090000 		.4byte	.LVL334
 10930 192e E4090000 		.4byte	.LVL335
 10931 1932 0100     		.2byte	0x1
 10932 1934 52       		.byte	0x52
 10933 1935 E4090000 		.4byte	.LVL335
 10934 1939 E6090000 		.4byte	.LVL336
 10935 193d 1800     		.2byte	0x18
 10936 193f 78       		.byte	0x78
 10937 1940 00       		.sleb128 0
 10938 1941 91       		.byte	0x91
 10939 1942 4C       		.sleb128 -52
 10940 1943 06       		.byte	0x6
 10941 1944 27       		.byte	0x27
 10942 1945 75       		.byte	0x75
 10943 1946 00       		.sleb128 0
 10944 1947 1A       		.byte	0x1a
 10945 1948 78       		.byte	0x78
 10946 1949 00       		.sleb128 0
ARM GAS  C:\Users\Phuong\AppData\Local\Temp\ccbgGR22.s 			page 204


 10947 194a 27       		.byte	0x27
 10948 194b 7C       		.byte	0x7c
 10949 194c 00       		.sleb128 0
 10950 194d 22       		.byte	0x22
 10951 194e 91       		.byte	0x91
 10952 194f A07F     		.sleb128 -96
 10953 1951 06       		.byte	0x6
 10954 1952 22       		.byte	0x22
 10955 1953 7B       		.byte	0x7b
 10956 1954 00       		.sleb128 0
 10957 1955 22       		.byte	0x22
 10958 1956 9F       		.byte	0x9f
 10959 1957 E6090000 		.4byte	.LVL336
 10960 195b 940A0000 		.4byte	.LVL363
 10961 195f 0100     		.2byte	0x1
 10962 1961 52       		.byte	0x52
 10963 1962 960A0000 		.4byte	.LVL364
 10964 1966 980A0000 		.4byte	.LVL365
 10965 196a 0100     		.2byte	0x1
 10966 196c 52       		.byte	0x52
 10967 196d 980A0000 		.4byte	.LVL365
 10968 1971 860B0000 		.4byte	.LVL397
 10969 1975 0100     		.2byte	0x1
 10970 1977 58       		.byte	0x58
 10971 1978 880B0000 		.4byte	.LVL398
 10972 197c 8C0B0000 		.4byte	.LVL399
 10973 1980 0100     		.2byte	0x1
 10974 1982 52       		.byte	0x52
 10975 1983 940B0000 		.4byte	.LVL400
 10976 1987 420C0000 		.4byte	.LVL424
 10977 198b 0100     		.2byte	0x1
 10978 198d 58       		.byte	0x58
 10979 198e 420C0000 		.4byte	.LVL424
 10980 1992 440C0000 		.4byte	.LVL425
 10981 1996 0100     		.2byte	0x1
 10982 1998 52       		.byte	0x52
 10983 1999 440C0000 		.4byte	.LVL425
 10984 199d 220D0000 		.4byte	.LVL457
 10985 19a1 0100     		.2byte	0x1
 10986 19a3 5C       		.byte	0x5c
 10987 19a4 240D0000 		.4byte	.LVL458
 10988 19a8 280D0000 		.4byte	.LVL459
 10989 19ac 0100     		.2byte	0x1
 10990 19ae 54       		.byte	0x54
 10991 19af 2A0D0000 		.4byte	.LVL460
 10992 19b3 C20E0000 		.4byte	.LVL517
 10993 19b7 0100     		.2byte	0x1
 10994 19b9 54       		.byte	0x54
 10995 19ba C80E0000 		.4byte	.LVL518
 10996 19be CC0E0000 		.4byte	.LVL519
 10997 19c2 0100     		.2byte	0x1
 10998 19c4 54       		.byte	0x54
 10999 19c5 D20E0000 		.4byte	.LVL520
 11000 19c9 960F0000 		.4byte	.LVL541
 11001 19cd 0100     		.2byte	0x1
 11002 19cf 54       		.byte	0x54
 11003 19d0 980F0000 		.4byte	.LVL542
ARM GAS  C:\Users\Phuong\AppData\Local\Temp\ccbgGR22.s 			page 205


 11004 19d4 9E0F0000 		.4byte	.LVL544
 11005 19d8 0100     		.2byte	0x1
 11006 19da 54       		.byte	0x54
 11007 19db 9E0F0000 		.4byte	.LVL544
 11008 19df 9A100000 		.4byte	.LVL578
 11009 19e3 0200     		.2byte	0x2
 11010 19e5 91       		.byte	0x91
 11011 19e6 48       		.sleb128 -56
 11012 19e7 9A100000 		.4byte	.LVL578
 11013 19eb 9E100000 		.4byte	.LVL579
 11014 19ef 0100     		.2byte	0x1
 11015 19f1 54       		.byte	0x54
 11016 19f2 9E100000 		.4byte	.LVL579
 11017 19f6 A0100000 		.4byte	.LVL580
 11018 19fa 0600     		.2byte	0x6
 11019 19fc 71       		.byte	0x71
 11020 19fd 00       		.sleb128 0
 11021 19fe 79       		.byte	0x79
 11022 19ff 00       		.sleb128 0
 11023 1a00 22       		.byte	0x22
 11024 1a01 9F       		.byte	0x9f
 11025 1a02 A0100000 		.4byte	.LVL580
 11026 1a06 A6100000 		.4byte	.LVL581
 11027 1a0a 0700     		.2byte	0x7
 11028 1a0c 71       		.byte	0x71
 11029 1a0d A1D7E7F6 		.sleb128 1859775393
 11029      06
 11030 1a12 9F       		.byte	0x9f
 11031 1a13 A6100000 		.4byte	.LVL581
 11032 1a17 52110000 		.4byte	.LVL608
 11033 1a1b 0100     		.2byte	0x1
 11034 1a1d 59       		.byte	0x59
 11035 1a1e 52110000 		.4byte	.LVL608
 11036 1a22 54110000 		.4byte	.LVL609
 11037 1a26 0100     		.2byte	0x1
 11038 1a28 52       		.byte	0x52
 11039 1a29 54110000 		.4byte	.LVL609
 11040 1a2d 60120000 		.4byte	.LVL643
 11041 1a31 0200     		.2byte	0x2
 11042 1a33 91       		.byte	0x91
 11043 1a34 4C       		.sleb128 -52
 11044 1a35 60120000 		.4byte	.LVL643
 11045 1a39 68120000 		.4byte	.LVL644
 11046 1a3d 0100     		.2byte	0x1
 11047 1a3f 59       		.byte	0x59
 11048 1a40 68120000 		.4byte	.LVL644
 11049 1a44 6A120000 		.4byte	.LVL645
 11050 1a48 1900     		.2byte	0x19
 11051 1a4a 7A       		.byte	0x7a
 11052 1a4b 00       		.sleb128 0
 11053 1a4c 71       		.byte	0x71
 11054 1a4d 00       		.sleb128 0
 11055 1a4e 27       		.byte	0x27
 11056 1a4f 91       		.byte	0x91
 11057 1a50 48       		.sleb128 -56
 11058 1a51 06       		.byte	0x6
 11059 1a52 1A       		.byte	0x1a
ARM GAS  C:\Users\Phuong\AppData\Local\Temp\ccbgGR22.s 			page 206


 11060 1a53 71       		.byte	0x71
 11061 1a54 00       		.sleb128 0
 11062 1a55 27       		.byte	0x27
 11063 1a56 7C       		.byte	0x7c
 11064 1a57 00       		.sleb128 0
 11065 1a58 22       		.byte	0x22
 11066 1a59 91       		.byte	0x91
 11067 1a5a A47F     		.sleb128 -92
 11068 1a5c 06       		.byte	0x6
 11069 1a5d 22       		.byte	0x22
 11070 1a5e 91       		.byte	0x91
 11071 1a5f 4C       		.sleb128 -52
 11072 1a60 06       		.byte	0x6
 11073 1a61 22       		.byte	0x22
 11074 1a62 9F       		.byte	0x9f
 11075 1a63 6A120000 		.4byte	.LVL645
 11076 1a67 24130000 		.4byte	.LVL669
 11077 1a6b 0100     		.2byte	0x1
 11078 1a6d 59       		.byte	0x59
 11079 1a6e 24130000 		.4byte	.LVL669
 11080 1a72 26130000 		.4byte	.LVL670
 11081 1a76 0100     		.2byte	0x1
 11082 1a78 50       		.byte	0x50
 11083 1a79 26130000 		.4byte	.LVL670
 11084 1a7d 1C140000 		.4byte	.LVL700
 11085 1a81 0100     		.2byte	0x1
 11086 1a83 59       		.byte	0x59
 11087 1a84 22140000 		.4byte	.LVL701
 11088 1a88 2A140000 		.4byte	.LVL702
 11089 1a8c 0100     		.2byte	0x1
 11090 1a8e 59       		.byte	0x59
 11091 1a8f 30140000 		.4byte	.LVL703
 11092 1a93 EC140000 		.4byte	.LVL727
 11093 1a97 0100     		.2byte	0x1
 11094 1a99 59       		.byte	0x59
 11095 1a9a EC140000 		.4byte	.LVL727
 11096 1a9e F0140000 		.4byte	.LVL728
 11097 1aa2 0100     		.2byte	0x1
 11098 1aa4 52       		.byte	0x52
 11099 1aa5 F0140000 		.4byte	.LVL728
 11100 1aa9 F4150000 		.4byte	.LVL758
 11101 1aad 0200     		.2byte	0x2
 11102 1aaf 91       		.byte	0x91
 11103 1ab0 4C       		.sleb128 -52
 11104 1ab1 F4150000 		.4byte	.LVL758
 11105 1ab5 FC150000 		.4byte	.LVL759
 11106 1ab9 0100     		.2byte	0x1
 11107 1abb 59       		.byte	0x59
 11108 1abc FC150000 		.4byte	.LVL759
 11109 1ac0 00160000 		.4byte	.LVL760
 11110 1ac4 1800     		.2byte	0x18
 11111 1ac6 7A       		.byte	0x7a
 11112 1ac7 00       		.sleb128 0
 11113 1ac8 78       		.byte	0x78
 11114 1ac9 00       		.sleb128 0
 11115 1aca 27       		.byte	0x27
 11116 1acb 7B       		.byte	0x7b
ARM GAS  C:\Users\Phuong\AppData\Local\Temp\ccbgGR22.s 			page 207


 11117 1acc 00       		.sleb128 0
 11118 1acd 1A       		.byte	0x1a
 11119 1ace 78       		.byte	0x78
 11120 1acf 00       		.sleb128 0
 11121 1ad0 27       		.byte	0x27
 11122 1ad1 7C       		.byte	0x7c
 11123 1ad2 00       		.sleb128 0
 11124 1ad3 22       		.byte	0x22
 11125 1ad4 91       		.byte	0x91
 11126 1ad5 907F     		.sleb128 -112
 11127 1ad7 06       		.byte	0x6
 11128 1ad8 22       		.byte	0x22
 11129 1ad9 91       		.byte	0x91
 11130 1ada 4C       		.sleb128 -52
 11131 1adb 06       		.byte	0x6
 11132 1adc 22       		.byte	0x22
 11133 1add 9F       		.byte	0x9f
 11134 1ade 00160000 		.4byte	.LVL760
 11135 1ae2 02160000 		.4byte	.LVL761
 11136 1ae6 1B00     		.2byte	0x1b
 11137 1ae8 7A       		.byte	0x7a
 11138 1ae9 00       		.sleb128 0
 11139 1aea 78       		.byte	0x78
 11140 1aeb 00       		.sleb128 0
 11141 1aec 27       		.byte	0x27
 11142 1aed 7B       		.byte	0x7b
 11143 1aee 00       		.sleb128 0
 11144 1aef 1A       		.byte	0x1a
 11145 1af0 78       		.byte	0x78
 11146 1af1 00       		.sleb128 0
 11147 1af2 27       		.byte	0x27
 11148 1af3 91       		.byte	0x91
 11149 1af4 907F     		.sleb128 -112
 11150 1af6 06       		.byte	0x6
 11151 1af7 22       		.byte	0x22
 11152 1af8 91       		.byte	0x91
 11153 1af9 4C       		.sleb128 -52
 11154 1afa 06       		.byte	0x6
 11155 1afb 22       		.byte	0x22
 11156 1afc 0C       		.byte	0xc
 11157 1afd 2443E470 		.4byte	0x70e44324
 11158 1b01 1C       		.byte	0x1c
 11159 1b02 9F       		.byte	0x9f
 11160 1b03 02160000 		.4byte	.LVL761
 11161 1b07 BA160000 		.4byte	.LVL787
 11162 1b0b 0100     		.2byte	0x1
 11163 1b0d 59       		.byte	0x59
 11164 1b0e BA160000 		.4byte	.LVL787
 11165 1b12 BE160000 		.4byte	.LVL788
 11166 1b16 0100     		.2byte	0x1
 11167 1b18 50       		.byte	0x50
 11168 1b19 BE160000 		.4byte	.LVL788
 11169 1b1d A4170000 		.4byte	.LVL819
 11170 1b21 0200     		.2byte	0x2
 11171 1b23 91       		.byte	0x91
 11172 1b24 50       		.sleb128 -48
 11173 1b25 A4170000 		.4byte	.LVL819
ARM GAS  C:\Users\Phuong\AppData\Local\Temp\ccbgGR22.s 			page 208


 11174 1b29 A6170000 		.4byte	.LVL820
 11175 1b2d 0100     		.2byte	0x1
 11176 1b2f 52       		.byte	0x52
 11177 1b30 A6170000 		.4byte	.LVL820
 11178 1b34 A8170000 		.4byte	.LVL821
 11179 1b38 1700     		.2byte	0x17
 11180 1b3a 74       		.byte	0x74
 11181 1b3b 00       		.sleb128 0
 11182 1b3c 20       		.byte	0x20
 11183 1b3d 70       		.byte	0x70
 11184 1b3e 00       		.sleb128 0
 11185 1b3f 21       		.byte	0x21
 11186 1b40 91       		.byte	0x91
 11187 1b41 44       		.sleb128 -60
 11188 1b42 06       		.byte	0x6
 11189 1b43 27       		.byte	0x27
 11190 1b44 71       		.byte	0x71
 11191 1b45 00       		.sleb128 0
 11192 1b46 22       		.byte	0x22
 11193 1b47 91       		.byte	0x91
 11194 1b48 907F     		.sleb128 -112
 11195 1b4a 06       		.byte	0x6
 11196 1b4b 22       		.byte	0x22
 11197 1b4c 91       		.byte	0x91
 11198 1b4d 50       		.sleb128 -48
 11199 1b4e 06       		.byte	0x6
 11200 1b4f 22       		.byte	0x22
 11201 1b50 9F       		.byte	0x9f
 11202 1b51 A8170000 		.4byte	.LVL821
 11203 1b55 AA170000 		.4byte	.LVL822
 11204 1b59 1700     		.2byte	0x17
 11205 1b5b 74       		.byte	0x74
 11206 1b5c 00       		.sleb128 0
 11207 1b5d 20       		.byte	0x20
 11208 1b5e 70       		.byte	0x70
 11209 1b5f 00       		.sleb128 0
 11210 1b60 21       		.byte	0x21
 11211 1b61 91       		.byte	0x91
 11212 1b62 44       		.sleb128 -60
 11213 1b63 06       		.byte	0x6
 11214 1b64 27       		.byte	0x27
 11215 1b65 7C       		.byte	0x7c
 11216 1b66 00       		.sleb128 0
 11217 1b67 22       		.byte	0x22
 11218 1b68 91       		.byte	0x91
 11219 1b69 907F     		.sleb128 -112
 11220 1b6b 06       		.byte	0x6
 11221 1b6c 22       		.byte	0x22
 11222 1b6d 91       		.byte	0x91
 11223 1b6e 50       		.sleb128 -48
 11224 1b6f 06       		.byte	0x6
 11225 1b70 22       		.byte	0x22
 11226 1b71 9F       		.byte	0x9f
 11227 1b72 AA170000 		.4byte	.LVL822
 11228 1b76 AC170000 		.4byte	.LVL823
 11229 1b7a 1A00     		.2byte	0x1a
 11230 1b7c 74       		.byte	0x74
ARM GAS  C:\Users\Phuong\AppData\Local\Temp\ccbgGR22.s 			page 209


 11231 1b7d 00       		.sleb128 0
 11232 1b7e 20       		.byte	0x20
 11233 1b7f 70       		.byte	0x70
 11234 1b80 00       		.sleb128 0
 11235 1b81 21       		.byte	0x21
 11236 1b82 91       		.byte	0x91
 11237 1b83 44       		.sleb128 -60
 11238 1b84 06       		.byte	0x6
 11239 1b85 27       		.byte	0x27
 11240 1b86 91       		.byte	0x91
 11241 1b87 907F     		.sleb128 -112
 11242 1b89 06       		.byte	0x6
 11243 1b8a 22       		.byte	0x22
 11244 1b8b 91       		.byte	0x91
 11245 1b8c 50       		.sleb128 -48
 11246 1b8d 06       		.byte	0x6
 11247 1b8e 22       		.byte	0x22
 11248 1b8f 0C       		.byte	0xc
 11249 1b90 B202AC56 		.4byte	0x56ac02b2
 11250 1b94 1C       		.byte	0x1c
 11251 1b95 9F       		.byte	0x9f
 11252 1b96 AC170000 		.4byte	.LVL823
 11253 1b9a 4C180000 		.4byte	.LVL847
 11254 1b9e 0100     		.2byte	0x1
 11255 1ba0 52       		.byte	0x52
 11256 1ba1 4E180000 		.4byte	.LVL848
 11257 1ba5 52180000 		.4byte	.LVL849
 11258 1ba9 0100     		.2byte	0x1
 11259 1bab 52       		.byte	0x52
 11260 1bac 52180000 		.4byte	.LVL849
 11261 1bb0 2A190000 		.4byte	.LVL877
 11262 1bb4 0200     		.2byte	0x2
 11263 1bb6 91       		.byte	0x91
 11264 1bb7 44       		.sleb128 -60
 11265 1bb8 2A190000 		.4byte	.LVL877
 11266 1bbc 2E190000 		.4byte	.LVL878
 11267 1bc0 0100     		.2byte	0x1
 11268 1bc2 52       		.byte	0x52
 11269 1bc3 2E190000 		.4byte	.LVL878
 11270 1bc7 30190000 		.4byte	.LVL879
 11271 1bcb 0A00     		.2byte	0xa
 11272 1bcd 91       		.byte	0x91
 11273 1bce 44       		.sleb128 -60
 11274 1bcf 06       		.byte	0x6
 11275 1bd0 71       		.byte	0x71
 11276 1bd1 00       		.sleb128 0
 11277 1bd2 22       		.byte	0x22
 11278 1bd3 79       		.byte	0x79
 11279 1bd4 00       		.sleb128 0
 11280 1bd5 22       		.byte	0x22
 11281 1bd6 9F       		.byte	0x9f
 11282 1bd7 30190000 		.4byte	.LVL879
 11283 1bdb CC190000 		.4byte	.LVL904
 11284 1bdf 0100     		.2byte	0x1
 11285 1be1 52       		.byte	0x52
 11286 1be2 CE190000 		.4byte	.LVL905
 11287 1be6 D0190000 		.4byte	.LVL906
ARM GAS  C:\Users\Phuong\AppData\Local\Temp\ccbgGR22.s 			page 210


 11288 1bea 0100     		.2byte	0x1
 11289 1bec 52       		.byte	0x52
 11290 1bed D0190000 		.4byte	.LVL906
 11291 1bf1 AA1A0000 		.4byte	.LVL936
 11292 1bf5 0200     		.2byte	0x2
 11293 1bf7 7D       		.byte	0x7d
 11294 1bf8 00       		.sleb128 0
 11295 1bf9 AA1A0000 		.4byte	.LVL936
 11296 1bfd AE1A0000 		.4byte	.LVL937
 11297 1c01 0100     		.2byte	0x1
 11298 1c03 52       		.byte	0x52
 11299 1c04 AE1A0000 		.4byte	.LVL937
 11300 1c08 B41A0000 		.4byte	.LVL938
 11301 1c0c 1800     		.2byte	0x18
 11302 1c0e 7B       		.byte	0x7b
 11303 1c0f 00       		.sleb128 0
 11304 1c10 20       		.byte	0x20
 11305 1c11 91       		.byte	0x91
 11306 1c12 847F     		.sleb128 -124
 11307 1c14 06       		.byte	0x6
 11308 1c15 21       		.byte	0x21
 11309 1c16 75       		.byte	0x75
 11310 1c17 00       		.sleb128 0
 11311 1c18 27       		.byte	0x27
 11312 1c19 79       		.byte	0x79
 11313 1c1a 00       		.sleb128 0
 11314 1c1b 22       		.byte	0x22
 11315 1c1c 91       		.byte	0x91
 11316 1c1d A87F     		.sleb128 -88
 11317 1c1f 06       		.byte	0x6
 11318 1c20 22       		.byte	0x22
 11319 1c21 7D       		.byte	0x7d
 11320 1c22 00       		.sleb128 0
 11321 1c23 06       		.byte	0x6
 11322 1c24 22       		.byte	0x22
 11323 1c25 9F       		.byte	0x9f
 11324 1c26 B41A0000 		.4byte	.LVL938
 11325 1c2a B61A0000 		.4byte	.LVL939
 11326 1c2e 0100     		.2byte	0x1
 11327 1c30 54       		.byte	0x54
 11328 1c31 B61A0000 		.4byte	.LVL939
 11329 1c35 4C1B0000 		.4byte	.LVL962
 11330 1c39 0300     		.2byte	0x3
 11331 1c3b 91       		.byte	0x91
 11332 1c3c 987F     		.sleb128 -104
 11333 1c3e 4C1B0000 		.4byte	.LVL962
 11334 1c42 D61B0000 		.4byte	.LVL981
 11335 1c46 0100     		.2byte	0x1
 11336 1c48 52       		.byte	0x52
 11337 1c49 D61B0000 		.4byte	.LVL981
 11338 1c4d 041C0000 		.4byte	.LFE6
 11339 1c51 0F00     		.2byte	0xf
 11340 1c53 91       		.byte	0x91
 11341 1c54 987F     		.sleb128 -104
 11342 1c56 06       		.byte	0x6
 11343 1c57 46       		.byte	0x46
 11344 1c58 14       		.byte	0x14
ARM GAS  C:\Users\Phuong\AppData\Local\Temp\ccbgGR22.s 			page 211


 11345 1c59 14       		.byte	0x14
 11346 1c5a 1F       		.byte	0x1f
 11347 1c5b 23       		.byte	0x23
 11348 1c5c 20       		.uleb128 0x20
 11349 1c5d 24       		.byte	0x24
 11350 1c5e 17       		.byte	0x17
 11351 1c5f 25       		.byte	0x25
 11352 1c60 21       		.byte	0x21
 11353 1c61 9F       		.byte	0x9f
 11354 1c62 00000000 		.4byte	0
 11355 1c66 00000000 		.4byte	0
 11356              	.LLST13:
 11357 1c6a CE010000 		.4byte	.LVL14
 11358 1c6e 14020000 		.4byte	.LVL20
 11359 1c72 0200     		.2byte	0x2
 11360 1c74 77       		.byte	0x77
 11361 1c75 08       		.sleb128 8
 11362 1c76 14020000 		.4byte	.LVL20
 11363 1c7a 18020000 		.4byte	.LVL21
 11364 1c7e 0100     		.2byte	0x1
 11365 1c80 52       		.byte	0x52
 11366 1c81 18020000 		.4byte	.LVL21
 11367 1c85 1C020000 		.4byte	.LVL22
 11368 1c89 1700     		.2byte	0x17
 11369 1c8b 77       		.byte	0x77
 11370 1c8c 14       		.sleb128 20
 11371 1c8d 06       		.byte	0x6
 11372 1c8e 20       		.byte	0x20
 11373 1c8f 77       		.byte	0x77
 11374 1c90 10       		.sleb128 16
 11375 1c91 06       		.byte	0x6
 11376 1c92 21       		.byte	0x21
 11377 1c93 77       		.byte	0x77
 11378 1c94 0C       		.sleb128 12
 11379 1c95 06       		.byte	0x6
 11380 1c96 27       		.byte	0x27
 11381 1c97 75       		.byte	0x75
 11382 1c98 00       		.sleb128 0
 11383 1c99 22       		.byte	0x22
 11384 1c9a 7C       		.byte	0x7c
 11385 1c9b 00       		.sleb128 0
 11386 1c9c 22       		.byte	0x22
 11387 1c9d 77       		.byte	0x77
 11388 1c9e 08       		.sleb128 8
 11389 1c9f 06       		.byte	0x6
 11390 1ca0 22       		.byte	0x22
 11391 1ca1 9F       		.byte	0x9f
 11392 1ca2 1C020000 		.4byte	.LVL22
 11393 1ca6 1E020000 		.4byte	.LVL23
 11394 1caa 1A00     		.2byte	0x1a
 11395 1cac 77       		.byte	0x77
 11396 1cad 14       		.sleb128 20
 11397 1cae 06       		.byte	0x6
 11398 1caf 20       		.byte	0x20
 11399 1cb0 77       		.byte	0x77
 11400 1cb1 10       		.sleb128 16
 11401 1cb2 06       		.byte	0x6
ARM GAS  C:\Users\Phuong\AppData\Local\Temp\ccbgGR22.s 			page 212


 11402 1cb3 21       		.byte	0x21
 11403 1cb4 77       		.byte	0x77
 11404 1cb5 0C       		.sleb128 12
 11405 1cb6 06       		.byte	0x6
 11406 1cb7 27       		.byte	0x27
 11407 1cb8 75       		.byte	0x75
 11408 1cb9 00       		.sleb128 0
 11409 1cba 22       		.byte	0x22
 11410 1cbb 77       		.byte	0x77
 11411 1cbc 08       		.sleb128 8
 11412 1cbd 06       		.byte	0x6
 11413 1cbe 22       		.byte	0x22
 11414 1cbf 23       		.byte	0x23
 11415 1cc0 E6978A85 		.uleb128 0x50a28be6
 11415      05
 11416 1cc5 9F       		.byte	0x9f
 11417 1cc6 1E020000 		.4byte	.LVL23
 11418 1cca F2020000 		.4byte	.LVL53
 11419 1cce 0100     		.2byte	0x1
 11420 1cd0 52       		.byte	0x52
 11421 1cd1 F2020000 		.4byte	.LVL53
 11422 1cd5 7C030000 		.4byte	.LVL73
 11423 1cd9 0200     		.2byte	0x2
 11424 1cdb 91       		.byte	0x91
 11425 1cdc 4C       		.sleb128 -52
 11426 1cdd 7C030000 		.4byte	.LVL73
 11427 1ce1 80030000 		.4byte	.LVL74
 11428 1ce5 0100     		.2byte	0x1
 11429 1ce7 52       		.byte	0x52
 11430 1ce8 80030000 		.4byte	.LVL74
 11431 1cec 84030000 		.4byte	.LVL75
 11432 1cf0 0600     		.2byte	0x6
 11433 1cf2 7B       		.byte	0x7b
 11434 1cf3 00       		.sleb128 0
 11435 1cf4 78       		.byte	0x78
 11436 1cf5 00       		.sleb128 0
 11437 1cf6 22       		.byte	0x22
 11438 1cf7 9F       		.byte	0x9f
 11439 1cf8 84030000 		.4byte	.LVL75
 11440 1cfc 2A040000 		.4byte	.LVL100
 11441 1d00 0100     		.2byte	0x1
 11442 1d02 5A       		.byte	0x5a
 11443 1d03 2A040000 		.4byte	.LVL100
 11444 1d07 04050000 		.4byte	.LVL132
 11445 1d0b 0100     		.2byte	0x1
 11446 1d0d 50       		.byte	0x50
 11447 1d0e 0A050000 		.4byte	.LVL133
 11448 1d12 0E050000 		.4byte	.LVL134
 11449 1d16 0100     		.2byte	0x1
 11450 1d18 50       		.byte	0x50
 11451 1d19 14050000 		.4byte	.LVL135
 11452 1d1d 9A050000 		.4byte	.LVL159
 11453 1d21 0100     		.2byte	0x1
 11454 1d23 50       		.byte	0x50
 11455 1d24 9C050000 		.4byte	.LVL160
 11456 1d28 A2050000 		.4byte	.LVL162
 11457 1d2c 0100     		.2byte	0x1
ARM GAS  C:\Users\Phuong\AppData\Local\Temp\ccbgGR22.s 			page 213


 11458 1d2e 50       		.byte	0x50
 11459 1d2f A2050000 		.4byte	.LVL162
 11460 1d33 C8050000 		.4byte	.LVL169
 11461 1d37 0100     		.2byte	0x1
 11462 1d39 54       		.byte	0x54
 11463 1d3a C8050000 		.4byte	.LVL169
 11464 1d3e 7A060000 		.4byte	.LVL195
 11465 1d42 0200     		.2byte	0x2
 11466 1d44 91       		.byte	0x91
 11467 1d45 50       		.sleb128 -48
 11468 1d46 7A060000 		.4byte	.LVL195
 11469 1d4a 7E060000 		.4byte	.LVL196
 11470 1d4e 0100     		.2byte	0x1
 11471 1d50 50       		.byte	0x50
 11472 1d51 7E060000 		.4byte	.LVL196
 11473 1d55 80060000 		.4byte	.LVL197
 11474 1d59 0A00     		.2byte	0xa
 11475 1d5b 91       		.byte	0x91
 11476 1d5c 50       		.sleb128 -48
 11477 1d5d 06       		.byte	0x6
 11478 1d5e 75       		.byte	0x75
 11479 1d5f 00       		.sleb128 0
 11480 1d60 22       		.byte	0x22
 11481 1d61 79       		.byte	0x79
 11482 1d62 00       		.sleb128 0
 11483 1d63 22       		.byte	0x22
 11484 1d64 9F       		.byte	0x9f
 11485 1d65 80060000 		.4byte	.LVL197
 11486 1d69 28070000 		.4byte	.LVL224
 11487 1d6d 0100     		.2byte	0x1
 11488 1d6f 50       		.byte	0x50
 11489 1d70 2A070000 		.4byte	.LVL225
 11490 1d74 2E070000 		.4byte	.LVL226
 11491 1d78 0100     		.2byte	0x1
 11492 1d7a 50       		.byte	0x50
 11493 1d7b 2E070000 		.4byte	.LVL226
 11494 1d7f 1A080000 		.4byte	.LVL262
 11495 1d83 0200     		.2byte	0x2
 11496 1d85 91       		.byte	0x91
 11497 1d86 4C       		.sleb128 -52
 11498 1d87 1A080000 		.4byte	.LVL262
 11499 1d8b 1E080000 		.4byte	.LVL263
 11500 1d8f 0100     		.2byte	0x1
 11501 1d91 50       		.byte	0x50
 11502 1d92 1E080000 		.4byte	.LVL263
 11503 1d96 20080000 		.4byte	.LVL264
 11504 1d9a 1A00     		.2byte	0x1a
 11505 1d9c 72       		.byte	0x72
 11506 1d9d 00       		.sleb128 0
 11507 1d9e 91       		.byte	0x91
 11508 1d9f 50       		.sleb128 -48
 11509 1da0 06       		.byte	0x6
 11510 1da1 27       		.byte	0x27
 11511 1da2 91       		.byte	0x91
 11512 1da3 48       		.sleb128 -56
 11513 1da4 06       		.byte	0x6
 11514 1da5 1A       		.byte	0x1a
ARM GAS  C:\Users\Phuong\AppData\Local\Temp\ccbgGR22.s 			page 214


 11515 1da6 72       		.byte	0x72
 11516 1da7 00       		.sleb128 0
 11517 1da8 27       		.byte	0x27
 11518 1da9 7B       		.byte	0x7b
 11519 1daa 00       		.sleb128 0
 11520 1dab 22       		.byte	0x22
 11521 1dac 91       		.byte	0x91
 11522 1dad BC7F     		.sleb128 -68
 11523 1daf 06       		.byte	0x6
 11524 1db0 22       		.byte	0x22
 11525 1db1 91       		.byte	0x91
 11526 1db2 4C       		.sleb128 -52
 11527 1db3 06       		.byte	0x6
 11528 1db4 22       		.byte	0x22
 11529 1db5 9F       		.byte	0x9f
 11530 1db6 20080000 		.4byte	.LVL264
 11531 1dba D0080000 		.4byte	.LVL290
 11532 1dbe 0100     		.2byte	0x1
 11533 1dc0 50       		.byte	0x50
 11534 1dc1 D2080000 		.4byte	.LVL291
 11535 1dc5 D6080000 		.4byte	.LVL292
 11536 1dc9 0100     		.2byte	0x1
 11537 1dcb 50       		.byte	0x50
 11538 1dcc D6080000 		.4byte	.LVL292
 11539 1dd0 B4090000 		.4byte	.LVL326
 11540 1dd4 0200     		.2byte	0x2
 11541 1dd6 91       		.byte	0x91
 11542 1dd7 48       		.sleb128 -56
 11543 1dd8 B4090000 		.4byte	.LVL326
 11544 1ddc B6090000 		.4byte	.LVL327
 11545 1de0 0100     		.2byte	0x1
 11546 1de2 50       		.byte	0x50
 11547 1de3 B6090000 		.4byte	.LVL327
 11548 1de7 B8090000 		.4byte	.LVL328
 11549 1deb 1800     		.2byte	0x18
 11550 1ded 72       		.byte	0x72
 11551 1dee 00       		.sleb128 0
 11552 1def 74       		.byte	0x74
 11553 1df0 00       		.sleb128 0
 11554 1df1 27       		.byte	0x27
 11555 1df2 79       		.byte	0x79
 11556 1df3 00       		.sleb128 0
 11557 1df4 1A       		.byte	0x1a
 11558 1df5 72       		.byte	0x72
 11559 1df6 00       		.sleb128 0
 11560 1df7 27       		.byte	0x27
 11561 1df8 71       		.byte	0x71
 11562 1df9 00       		.sleb128 0
 11563 1dfa 22       		.byte	0x22
 11564 1dfb 91       		.byte	0x91
 11565 1dfc B87F     		.sleb128 -72
 11566 1dfe 06       		.byte	0x6
 11567 1dff 22       		.byte	0x22
 11568 1e00 91       		.byte	0x91
 11569 1e01 48       		.sleb128 -56
 11570 1e02 06       		.byte	0x6
 11571 1e03 22       		.byte	0x22
ARM GAS  C:\Users\Phuong\AppData\Local\Temp\ccbgGR22.s 			page 215


 11572 1e04 9F       		.byte	0x9f
 11573 1e05 B8090000 		.4byte	.LVL328
 11574 1e09 BA090000 		.4byte	.LVL329
 11575 1e0d 1800     		.2byte	0x18
 11576 1e0f 72       		.byte	0x72
 11577 1e10 00       		.sleb128 0
 11578 1e11 74       		.byte	0x74
 11579 1e12 00       		.sleb128 0
 11580 1e13 27       		.byte	0x27
 11581 1e14 79       		.byte	0x79
 11582 1e15 00       		.sleb128 0
 11583 1e16 1A       		.byte	0x1a
 11584 1e17 72       		.byte	0x72
 11585 1e18 00       		.sleb128 0
 11586 1e19 27       		.byte	0x27
 11587 1e1a 7C       		.byte	0x7c
 11588 1e1b 00       		.sleb128 0
 11589 1e1c 22       		.byte	0x22
 11590 1e1d 91       		.byte	0x91
 11591 1e1e B87F     		.sleb128 -72
 11592 1e20 06       		.byte	0x6
 11593 1e21 22       		.byte	0x22
 11594 1e22 91       		.byte	0x91
 11595 1e23 48       		.sleb128 -56
 11596 1e24 06       		.byte	0x6
 11597 1e25 22       		.byte	0x22
 11598 1e26 9F       		.byte	0x9f
 11599 1e27 BA090000 		.4byte	.LVL329
 11600 1e2b BE090000 		.4byte	.LVL330
 11601 1e2f 1B00     		.2byte	0x1b
 11602 1e31 72       		.byte	0x72
 11603 1e32 00       		.sleb128 0
 11604 1e33 74       		.byte	0x74
 11605 1e34 00       		.sleb128 0
 11606 1e35 27       		.byte	0x27
 11607 1e36 79       		.byte	0x79
 11608 1e37 00       		.sleb128 0
 11609 1e38 1A       		.byte	0x1a
 11610 1e39 72       		.byte	0x72
 11611 1e3a 00       		.sleb128 0
 11612 1e3b 27       		.byte	0x27
 11613 1e3c 91       		.byte	0x91
 11614 1e3d B87F     		.sleb128 -72
 11615 1e3f 06       		.byte	0x6
 11616 1e40 22       		.byte	0x22
 11617 1e41 91       		.byte	0x91
 11618 1e42 48       		.sleb128 -56
 11619 1e43 06       		.byte	0x6
 11620 1e44 22       		.byte	0x22
 11621 1e45 23       		.byte	0x23
 11622 1e46 A4A2B7E2 		.uleb128 0x5c4dd124
 11622      05
 11623 1e4b 9F       		.byte	0x9f
 11624 1e4c BE090000 		.4byte	.LVL330
 11625 1e50 C0090000 		.4byte	.LVL331
 11626 1e54 0100     		.2byte	0x1
 11627 1e56 50       		.byte	0x50
ARM GAS  C:\Users\Phuong\AppData\Local\Temp\ccbgGR22.s 			page 216


 11628 1e57 C0090000 		.4byte	.LVL331
 11629 1e5b F4090000 		.4byte	.LVL339
 11630 1e5f 0100     		.2byte	0x1
 11631 1e61 51       		.byte	0x51
 11632 1e62 F4090000 		.4byte	.LVL339
 11633 1e66 700A0000 		.4byte	.LVL358
 11634 1e6a 0200     		.2byte	0x2
 11635 1e6c 91       		.byte	0x91
 11636 1e6d 44       		.sleb128 -60
 11637 1e6e 700A0000 		.4byte	.LVL358
 11638 1e72 720A0000 		.4byte	.LVL359
 11639 1e76 0100     		.2byte	0x1
 11640 1e78 50       		.byte	0x50
 11641 1e79 720A0000 		.4byte	.LVL359
 11642 1e7d 560B0000 		.4byte	.LVL391
 11643 1e81 0100     		.2byte	0x1
 11644 1e83 59       		.byte	0x59
 11645 1e84 580B0000 		.4byte	.LVL392
 11646 1e88 5C0B0000 		.4byte	.LVL393
 11647 1e8c 0100     		.2byte	0x1
 11648 1e8e 55       		.byte	0x55
 11649 1e8f 620B0000 		.4byte	.LVL394
 11650 1e93 180C0000 		.4byte	.LVL419
 11651 1e97 0100     		.2byte	0x1
 11652 1e99 59       		.byte	0x59
 11653 1e9a 180C0000 		.4byte	.LVL419
 11654 1e9e 1A0C0000 		.4byte	.LVL420
 11655 1ea2 0100     		.2byte	0x1
 11656 1ea4 52       		.byte	0x52
 11657 1ea5 1A0C0000 		.4byte	.LVL420
 11658 1ea9 FC0C0000 		.4byte	.LVL451
 11659 1ead 0100     		.2byte	0x1
 11660 1eaf 59       		.byte	0x59
 11661 1eb0 FE0C0000 		.4byte	.LVL452
 11662 1eb4 020D0000 		.4byte	.LVL453
 11663 1eb8 0100     		.2byte	0x1
 11664 1eba 50       		.byte	0x50
 11665 1ebb 080D0000 		.4byte	.LVL454
 11666 1ebf 9E0D0000 		.4byte	.LVL481
 11667 1ec3 0100     		.2byte	0x1
 11668 1ec5 50       		.byte	0x50
 11669 1ec6 A00D0000 		.4byte	.LVL482
 11670 1eca A20D0000 		.4byte	.LVL483
 11671 1ece 0100     		.2byte	0x1
 11672 1ed0 50       		.byte	0x50
 11673 1ed1 A20D0000 		.4byte	.LVL483
 11674 1ed5 960E0000 		.4byte	.LVL511
 11675 1ed9 0100     		.2byte	0x1
 11676 1edb 55       		.byte	0x55
 11677 1edc 9C0E0000 		.4byte	.LVL512
 11678 1ee0 A00E0000 		.4byte	.LVL513
 11679 1ee4 0100     		.2byte	0x1
 11680 1ee6 55       		.byte	0x55
 11681 1ee7 A40E0000 		.4byte	.LVL514
 11682 1eeb 640F0000 		.4byte	.LVL537
 11683 1eef 0100     		.2byte	0x1
 11684 1ef1 59       		.byte	0x59
ARM GAS  C:\Users\Phuong\AppData\Local\Temp\ccbgGR22.s 			page 217


 11685 1ef2 640F0000 		.4byte	.LVL537
 11686 1ef6 66100000 		.4byte	.LVL571
 11687 1efa 0100     		.2byte	0x1
 11688 1efc 52       		.byte	0x52
 11689 1efd 6C100000 		.4byte	.LVL572
 11690 1f01 70100000 		.4byte	.LVL573
 11691 1f05 0100     		.2byte	0x1
 11692 1f07 52       		.byte	0x52
 11693 1f08 72100000 		.4byte	.LVL574
 11694 1f0c 22110000 		.4byte	.LVL601
 11695 1f10 0100     		.2byte	0x1
 11696 1f12 52       		.byte	0x52
 11697 1f13 24110000 		.4byte	.LVL602
 11698 1f17 2A110000 		.4byte	.LVL604
 11699 1f1b 0100     		.2byte	0x1
 11700 1f1d 52       		.byte	0x52
 11701 1f1e 2A110000 		.4byte	.LVL604
 11702 1f22 1C120000 		.4byte	.LVL637
 11703 1f26 0200     		.2byte	0x2
 11704 1f28 91       		.byte	0x91
 11705 1f29 40       		.sleb128 -64
 11706 1f2a 1C120000 		.4byte	.LVL637
 11707 1f2e 20120000 		.4byte	.LVL638
 11708 1f32 0100     		.2byte	0x1
 11709 1f34 52       		.byte	0x52
 11710 1f35 20120000 		.4byte	.LVL638
 11711 1f39 24120000 		.4byte	.LVL639
 11712 1f3d 1800     		.2byte	0x18
 11713 1f3f 7C       		.byte	0x7c
 11714 1f40 00       		.sleb128 0
 11715 1f41 74       		.byte	0x74
 11716 1f42 00       		.sleb128 0
 11717 1f43 27       		.byte	0x27
 11718 1f44 78       		.byte	0x78
 11719 1f45 00       		.sleb128 0
 11720 1f46 1A       		.byte	0x1a
 11721 1f47 74       		.byte	0x74
 11722 1f48 00       		.sleb128 0
 11723 1f49 27       		.byte	0x27
 11724 1f4a 79       		.byte	0x79
 11725 1f4b 00       		.sleb128 0
 11726 1f4c 22       		.byte	0x22
 11727 1f4d 91       		.byte	0x91
 11728 1f4e 8C7F     		.sleb128 -116
 11729 1f50 06       		.byte	0x6
 11730 1f51 22       		.byte	0x22
 11731 1f52 91       		.byte	0x91
 11732 1f53 40       		.sleb128 -64
 11733 1f54 06       		.byte	0x6
 11734 1f55 22       		.byte	0x22
 11735 1f56 9F       		.byte	0x9f
 11736 1f57 24120000 		.4byte	.LVL639
 11737 1f5b 26120000 		.4byte	.LVL640
 11738 1f5f 1B00     		.2byte	0x1b
 11739 1f61 7C       		.byte	0x7c
 11740 1f62 00       		.sleb128 0
 11741 1f63 74       		.byte	0x74
ARM GAS  C:\Users\Phuong\AppData\Local\Temp\ccbgGR22.s 			page 218


 11742 1f64 00       		.sleb128 0
 11743 1f65 27       		.byte	0x27
 11744 1f66 78       		.byte	0x78
 11745 1f67 00       		.sleb128 0
 11746 1f68 1A       		.byte	0x1a
 11747 1f69 74       		.byte	0x74
 11748 1f6a 00       		.sleb128 0
 11749 1f6b 27       		.byte	0x27
 11750 1f6c 91       		.byte	0x91
 11751 1f6d 8C7F     		.sleb128 -116
 11752 1f6f 06       		.byte	0x6
 11753 1f70 22       		.byte	0x22
 11754 1f71 91       		.byte	0x91
 11755 1f72 40       		.sleb128 -64
 11756 1f73 06       		.byte	0x6
 11757 1f74 22       		.byte	0x22
 11758 1f75 23       		.byte	0x23
 11759 1f76 E9EDB5D3 		.uleb128 0x7a6d76e9
 11759      07
 11760 1f7b 9F       		.byte	0x9f
 11761 1f7c 26120000 		.4byte	.LVL640
 11762 1f80 F0130000 		.4byte	.LVL694
 11763 1f84 0100     		.2byte	0x1
 11764 1f86 52       		.byte	0x52
 11765 1f87 F6130000 		.4byte	.LVL695
 11766 1f8b FA130000 		.4byte	.LVL696
 11767 1f8f 0100     		.2byte	0x1
 11768 1f91 52       		.byte	0x52
 11769 1f92 FC130000 		.4byte	.LVL697
 11770 1f96 BA140000 		.4byte	.LVL721
 11771 1f9a 0100     		.2byte	0x1
 11772 1f9c 52       		.byte	0x52
 11773 1f9d BC140000 		.4byte	.LVL722
 11774 1fa1 C0140000 		.4byte	.LVL723
 11775 1fa5 0100     		.2byte	0x1
 11776 1fa7 52       		.byte	0x52
 11777 1fa8 C0140000 		.4byte	.LVL723
 11778 1fac C8150000 		.4byte	.LVL753
 11779 1fb0 0200     		.2byte	0x2
 11780 1fb2 91       		.byte	0x91
 11781 1fb3 40       		.sleb128 -64
 11782 1fb4 C8150000 		.4byte	.LVL753
 11783 1fb8 CC150000 		.4byte	.LVL754
 11784 1fbc 0100     		.2byte	0x1
 11785 1fbe 52       		.byte	0x52
 11786 1fbf CC150000 		.4byte	.LVL754
 11787 1fc3 CE150000 		.4byte	.LVL755
 11788 1fc7 1A00     		.2byte	0x1a
 11789 1fc9 91       		.byte	0x91
 11790 1fca 54       		.sleb128 -44
 11791 1fcb 06       		.byte	0x6
 11792 1fcc 74       		.byte	0x74
 11793 1fcd 00       		.sleb128 0
 11794 1fce 27       		.byte	0x27
 11795 1fcf 91       		.byte	0x91
 11796 1fd0 44       		.sleb128 -60
 11797 1fd1 06       		.byte	0x6
ARM GAS  C:\Users\Phuong\AppData\Local\Temp\ccbgGR22.s 			page 219


 11798 1fd2 1A       		.byte	0x1a
 11799 1fd3 74       		.byte	0x74
 11800 1fd4 00       		.sleb128 0
 11801 1fd5 27       		.byte	0x27
 11802 1fd6 7C       		.byte	0x7c
 11803 1fd7 00       		.sleb128 0
 11804 1fd8 22       		.byte	0x22
 11805 1fd9 91       		.byte	0x91
 11806 1fda A07F     		.sleb128 -96
 11807 1fdc 06       		.byte	0x6
 11808 1fdd 22       		.byte	0x22
 11809 1fde 91       		.byte	0x91
 11810 1fdf 40       		.sleb128 -64
 11811 1fe0 06       		.byte	0x6
 11812 1fe1 22       		.byte	0x22
 11813 1fe2 9F       		.byte	0x9f
 11814 1fe3 CE150000 		.4byte	.LVL755
 11815 1fe7 8C160000 		.4byte	.LVL780
 11816 1feb 0100     		.2byte	0x1
 11817 1fed 52       		.byte	0x52
 11818 1fee 8E160000 		.4byte	.LVL781
 11819 1ff2 9E160000 		.4byte	.LVL782
 11820 1ff6 0100     		.2byte	0x1
 11821 1ff8 52       		.byte	0x52
 11822 1ff9 9E160000 		.4byte	.LVL782
 11823 1ffd 7E170000 		.4byte	.LVL813
 11824 2001 0200     		.2byte	0x2
 11825 2003 91       		.byte	0x91
 11826 2004 48       		.sleb128 -56
 11827 2005 7E170000 		.4byte	.LVL813
 11828 2009 80170000 		.4byte	.LVL814
 11829 200d 0100     		.2byte	0x1
 11830 200f 52       		.byte	0x52
 11831 2010 80170000 		.4byte	.LVL814
 11832 2014 82170000 		.4byte	.LVL815
 11833 2018 0700     		.2byte	0x7
 11834 201a 91       		.byte	0x91
 11835 201b 48       		.sleb128 -56
 11836 201c 06       		.byte	0x6
 11837 201d 7A       		.byte	0x7a
 11838 201e 00       		.sleb128 0
 11839 201f 22       		.byte	0x22
 11840 2020 9F       		.byte	0x9f
 11841 2021 82170000 		.4byte	.LVL815
 11842 2025 84170000 		.4byte	.LVL816
 11843 2029 1200     		.2byte	0x12
 11844 202b 79       		.byte	0x79
 11845 202c 00       		.sleb128 0
 11846 202d 7B       		.byte	0x7b
 11847 202e 00       		.sleb128 0
 11848 202f 27       		.byte	0x27
 11849 2030 75       		.byte	0x75
 11850 2031 00       		.sleb128 0
 11851 2032 27       		.byte	0x27
 11852 2033 91       		.byte	0x91
 11853 2034 48       		.sleb128 -56
 11854 2035 06       		.byte	0x6
ARM GAS  C:\Users\Phuong\AppData\Local\Temp\ccbgGR22.s 			page 220


 11855 2036 22       		.byte	0x22
 11856 2037 91       		.byte	0x91
 11857 2038 B87F     		.sleb128 -72
 11858 203a 06       		.byte	0x6
 11859 203b 22       		.byte	0x22
 11860 203c 9F       		.byte	0x9f
 11861 203d 84170000 		.4byte	.LVL816
 11862 2041 28180000 		.4byte	.LVL840
 11863 2045 0100     		.2byte	0x1
 11864 2047 5A       		.byte	0x5a
 11865 2048 28180000 		.4byte	.LVL840
 11866 204c 34180000 		.4byte	.LVL842
 11867 2050 0100     		.2byte	0x1
 11868 2052 50       		.byte	0x50
 11869 2053 34180000 		.4byte	.LVL842
 11870 2057 FE180000 		.4byte	.LVL870
 11871 205b 0100     		.2byte	0x1
 11872 205d 5A       		.byte	0x5a
 11873 205e FE180000 		.4byte	.LVL870
 11874 2062 02190000 		.4byte	.LVL871
 11875 2066 0100     		.2byte	0x1
 11876 2068 54       		.byte	0x54
 11877 2069 02190000 		.4byte	.LVL871
 11878 206d 0A190000 		.4byte	.LVL872
 11879 2071 1100     		.2byte	0x11
 11880 2073 7B       		.byte	0x7b
 11881 2074 00       		.sleb128 0
 11882 2075 72       		.byte	0x72
 11883 2076 00       		.sleb128 0
 11884 2077 27       		.byte	0x27
 11885 2078 78       		.byte	0x78
 11886 2079 00       		.sleb128 0
 11887 207a 27       		.byte	0x27
 11888 207b 7A       		.byte	0x7a
 11889 207c 00       		.sleb128 0
 11890 207d 22       		.byte	0x22
 11891 207e 91       		.byte	0x91
 11892 207f 9C7F     		.sleb128 -100
 11893 2081 06       		.byte	0x6
 11894 2082 22       		.byte	0x22
 11895 2083 9F       		.byte	0x9f
 11896 2084 0A190000 		.4byte	.LVL872
 11897 2088 18190000 		.4byte	.LVL875
 11898 208c 0100     		.2byte	0x1
 11899 208e 54       		.byte	0x54
 11900 208f 18190000 		.4byte	.LVL875
 11901 2093 A4190000 		.4byte	.LVL897
 11902 2097 0300     		.2byte	0x3
 11903 2099 91       		.byte	0x91
 11904 209a 8C7F     		.sleb128 -116
 11905 209c A4190000 		.4byte	.LVL897
 11906 20a0 A8190000 		.4byte	.LVL898
 11907 20a4 0100     		.2byte	0x1
 11908 20a6 54       		.byte	0x54
 11909 20a7 A8190000 		.4byte	.LVL898
 11910 20ab 821A0000 		.4byte	.LVL930
 11911 20af 0100     		.2byte	0x1
ARM GAS  C:\Users\Phuong\AppData\Local\Temp\ccbgGR22.s 			page 221


 11912 20b1 58       		.byte	0x58
 11913 20b2 821A0000 		.4byte	.LVL930
 11914 20b6 841A0000 		.4byte	.LVL931
 11915 20ba 0100     		.2byte	0x1
 11916 20bc 54       		.byte	0x54
 11917 20bd 841A0000 		.4byte	.LVL931
 11918 20c1 881A0000 		.4byte	.LVL932
 11919 20c5 1300     		.2byte	0x13
 11920 20c7 72       		.byte	0x72
 11921 20c8 00       		.sleb128 0
 11922 20c9 71       		.byte	0x71
 11923 20ca 00       		.sleb128 0
 11924 20cb 27       		.byte	0x27
 11925 20cc 91       		.byte	0x91
 11926 20cd 907F     		.sleb128 -112
 11927 20cf 06       		.byte	0x6
 11928 20d0 27       		.byte	0x27
 11929 20d1 78       		.byte	0x78
 11930 20d2 00       		.sleb128 0
 11931 20d3 22       		.byte	0x22
 11932 20d4 91       		.byte	0x91
 11933 20d5 B47F     		.sleb128 -76
 11934 20d7 06       		.byte	0x6
 11935 20d8 22       		.byte	0x22
 11936 20d9 9F       		.byte	0x9f
 11937 20da 881A0000 		.4byte	.LVL932
 11938 20de 8A1A0000 		.4byte	.LVL933
 11939 20e2 0100     		.2byte	0x1
 11940 20e4 54       		.byte	0x54
 11941 20e5 8A1A0000 		.4byte	.LVL933
 11942 20e9 261B0000 		.4byte	.LVL957
 11943 20ed 0300     		.2byte	0x3
 11944 20ef 91       		.byte	0x91
 11945 20f0 8C7F     		.sleb128 -116
 11946 20f2 261B0000 		.4byte	.LVL957
 11947 20f6 2C1B0000 		.4byte	.LVL958
 11948 20fa 0100     		.2byte	0x1
 11949 20fc 55       		.byte	0x55
 11950 20fd 2C1B0000 		.4byte	.LVL958
 11951 2101 F41B0000 		.4byte	.LVL987
 11952 2105 0100     		.2byte	0x1
 11953 2107 5A       		.byte	0x5a
 11954 2108 F41B0000 		.4byte	.LVL987
 11955 210c 041C0000 		.4byte	.LFE6
 11956 2110 0F00     		.2byte	0xf
 11957 2112 91       		.byte	0x91
 11958 2113 8C7F     		.sleb128 -116
 11959 2115 06       		.byte	0x6
 11960 2116 46       		.byte	0x46
 11961 2117 14       		.byte	0x14
 11962 2118 14       		.byte	0x14
 11963 2119 1F       		.byte	0x1f
 11964 211a 23       		.byte	0x23
 11965 211b 20       		.uleb128 0x20
 11966 211c 24       		.byte	0x24
 11967 211d 17       		.byte	0x17
 11968 211e 25       		.byte	0x25
ARM GAS  C:\Users\Phuong\AppData\Local\Temp\ccbgGR22.s 			page 222


 11969 211f 21       		.byte	0x21
 11970 2120 9F       		.byte	0x9f
 11971 2121 00000000 		.4byte	0
 11972 2125 00000000 		.4byte	0
 11973              	.LLST14:
 11974 2129 CE010000 		.4byte	.LVL14
 11975 212d 68020000 		.4byte	.LVL32
 11976 2131 0200     		.2byte	0x2
 11977 2133 77       		.byte	0x77
 11978 2134 0C       		.sleb128 12
 11979 2135 68020000 		.4byte	.LVL32
 11980 2139 22030000 		.4byte	.LVL60
 11981 213d 0100     		.2byte	0x1
 11982 213f 58       		.byte	0x58
 11983 2140 22030000 		.4byte	.LVL60
 11984 2144 26030000 		.4byte	.LVL61
 11985 2148 0100     		.2byte	0x1
 11986 214a 54       		.byte	0x54
 11987 214b 26030000 		.4byte	.LVL61
 11988 214f 28030000 		.4byte	.LVL62
 11989 2153 1400     		.2byte	0x14
 11990 2155 71       		.byte	0x71
 11991 2156 00       		.sleb128 0
 11992 2157 20       		.byte	0x20
 11993 2158 91       		.byte	0x91
 11994 2159 40       		.sleb128 -64
 11995 215a 06       		.byte	0x6
 11996 215b 21       		.byte	0x21
 11997 215c 75       		.byte	0x75
 11998 215d 00       		.sleb128 0
 11999 215e 27       		.byte	0x27
 12000 215f 70       		.byte	0x70
 12001 2160 00       		.sleb128 0
 12002 2161 22       		.byte	0x22
 12003 2162 78       		.byte	0x78
 12004 2163 00       		.sleb128 0
 12005 2164 22       		.byte	0x22
 12006 2165 7C       		.byte	0x7c
 12007 2166 00       		.sleb128 0
 12008 2167 22       		.byte	0x22
 12009 2168 9F       		.byte	0x9f
 12010 2169 28030000 		.4byte	.LVL62
 12011 216d 2A030000 		.4byte	.LVL63
 12012 2171 1600     		.2byte	0x16
 12013 2173 71       		.byte	0x71
 12014 2174 00       		.sleb128 0
 12015 2175 20       		.byte	0x20
 12016 2176 91       		.byte	0x91
 12017 2177 40       		.sleb128 -64
 12018 2178 06       		.byte	0x6
 12019 2179 21       		.byte	0x21
 12020 217a 75       		.byte	0x75
 12021 217b 00       		.sleb128 0
 12022 217c 27       		.byte	0x27
 12023 217d 7C       		.byte	0x7c
 12024 217e 00       		.sleb128 0
 12025 217f 22       		.byte	0x22
ARM GAS  C:\Users\Phuong\AppData\Local\Temp\ccbgGR22.s 			page 223


 12026 2180 91       		.byte	0x91
 12027 2181 A07F     		.sleb128 -96
 12028 2183 06       		.byte	0x6
 12029 2184 22       		.byte	0x22
 12030 2185 78       		.byte	0x78
 12031 2186 00       		.sleb128 0
 12032 2187 22       		.byte	0x22
 12033 2188 9F       		.byte	0x9f
 12034 2189 2A030000 		.4byte	.LVL63
 12035 218d 2E030000 		.4byte	.LVL64
 12036 2191 1900     		.2byte	0x19
 12037 2193 71       		.byte	0x71
 12038 2194 00       		.sleb128 0
 12039 2195 20       		.byte	0x20
 12040 2196 91       		.byte	0x91
 12041 2197 40       		.sleb128 -64
 12042 2198 06       		.byte	0x6
 12043 2199 21       		.byte	0x21
 12044 219a 75       		.byte	0x75
 12045 219b 00       		.sleb128 0
 12046 219c 27       		.byte	0x27
 12047 219d 91       		.byte	0x91
 12048 219e A07F     		.sleb128 -96
 12049 21a0 06       		.byte	0x6
 12050 21a1 22       		.byte	0x22
 12051 21a2 78       		.byte	0x78
 12052 21a3 00       		.sleb128 0
 12053 21a4 22       		.byte	0x22
 12054 21a5 23       		.byte	0x23
 12055 21a6 E6978A85 		.uleb128 0x50a28be6
 12055      05
 12056 21ab 9F       		.byte	0x9f
 12057 21ac 2E030000 		.4byte	.LVL64
 12058 21b0 30030000 		.4byte	.LVL65
 12059 21b4 0100     		.2byte	0x1
 12060 21b6 54       		.byte	0x54
 12061 21b7 30030000 		.4byte	.LVL65
 12062 21bb D6030000 		.4byte	.LVL89
 12063 21bf 0200     		.2byte	0x2
 12064 21c1 91       		.byte	0x91
 12065 21c2 48       		.sleb128 -56
 12066 21c3 D6030000 		.4byte	.LVL89
 12067 21c7 DA030000 		.4byte	.LVL90
 12068 21cb 0100     		.2byte	0x1
 12069 21cd 52       		.byte	0x52
 12070 21ce DA030000 		.4byte	.LVL90
 12071 21d2 9C040000 		.4byte	.LVL118
 12072 21d6 0200     		.2byte	0x2
 12073 21d8 91       		.byte	0x91
 12074 21d9 4C       		.sleb128 -52
 12075 21da 9C040000 		.4byte	.LVL118
 12076 21de BA040000 		.4byte	.LVL121
 12077 21e2 0100     		.2byte	0x1
 12078 21e4 52       		.byte	0x52
 12079 21e5 BA040000 		.4byte	.LVL121
 12080 21e9 BC040000 		.4byte	.LVL122
 12081 21ed 0100     		.2byte	0x1
ARM GAS  C:\Users\Phuong\AppData\Local\Temp\ccbgGR22.s 			page 224


 12082 21ef 54       		.byte	0x54
 12083 21f0 BC040000 		.4byte	.LVL122
 12084 21f4 BE040000 		.4byte	.LVL123
 12085 21f8 0900     		.2byte	0x9
 12086 21fa 71       		.byte	0x71
 12087 21fb 00       		.sleb128 0
 12088 21fc 72       		.byte	0x72
 12089 21fd 00       		.sleb128 0
 12090 21fe 22       		.byte	0x22
 12091 21ff 79       		.byte	0x79
 12092 2200 00       		.sleb128 0
 12093 2201 22       		.byte	0x22
 12094 2202 9F       		.byte	0x9f
 12095 2203 BE040000 		.4byte	.LVL123
 12096 2207 58050000 		.4byte	.LVL147
 12097 220b 0100     		.2byte	0x1
 12098 220d 54       		.byte	0x54
 12099 220e 5A050000 		.4byte	.LVL148
 12100 2212 60050000 		.4byte	.LVL149
 12101 2216 0100     		.2byte	0x1
 12102 2218 54       		.byte	0x54
 12103 2219 60050000 		.4byte	.LVL149
 12104 221d 2C060000 		.4byte	.LVL182
 12105 2221 0200     		.2byte	0x2
 12106 2223 91       		.byte	0x91
 12107 2224 44       		.sleb128 -60
 12108 2225 2C060000 		.4byte	.LVL182
 12109 2229 30060000 		.4byte	.LVL183
 12110 222d 0100     		.2byte	0x1
 12111 222f 54       		.byte	0x54
 12112 2230 30060000 		.4byte	.LVL183
 12113 2234 34060000 		.4byte	.LVL184
 12114 2238 0A00     		.2byte	0xa
 12115 223a 91       		.byte	0x91
 12116 223b 44       		.sleb128 -60
 12117 223c 06       		.byte	0x6
 12118 223d 79       		.byte	0x79
 12119 223e 00       		.sleb128 0
 12120 223f 22       		.byte	0x22
 12121 2240 7B       		.byte	0x7b
 12122 2241 00       		.sleb128 0
 12123 2242 22       		.byte	0x22
 12124 2243 9F       		.byte	0x9f
 12125 2244 34060000 		.4byte	.LVL184
 12126 2248 36060000 		.4byte	.LVL185
 12127 224c 0D00     		.2byte	0xd
 12128 224e 91       		.byte	0x91
 12129 224f 44       		.sleb128 -60
 12130 2250 06       		.byte	0x6
 12131 2251 7B       		.byte	0x7b
 12132 2252 00       		.sleb128 0
 12133 2253 22       		.byte	0x22
 12134 2254 23       		.byte	0x23
 12135 2255 E6978A85 		.uleb128 0x50a28be6
 12135      05
 12136 225a 9F       		.byte	0x9f
 12137 225b 36060000 		.4byte	.LVL185
ARM GAS  C:\Users\Phuong\AppData\Local\Temp\ccbgGR22.s 			page 225


 12138 225f D2060000 		.4byte	.LVL211
 12139 2263 0100     		.2byte	0x1
 12140 2265 54       		.byte	0x54
 12141 2266 D4060000 		.4byte	.LVL212
 12142 226a D6060000 		.4byte	.LVL213
 12143 226e 0100     		.2byte	0x1
 12144 2270 54       		.byte	0x54
 12145 2271 D6060000 		.4byte	.LVL213
 12146 2275 BC070000 		.4byte	.LVL246
 12147 2279 0100     		.2byte	0x1
 12148 227b 5A       		.byte	0x5a
 12149 227c BC070000 		.4byte	.LVL246
 12150 2280 BE070000 		.4byte	.LVL247
 12151 2284 0100     		.2byte	0x1
 12152 2286 55       		.byte	0x55
 12153 2287 BE070000 		.4byte	.LVL247
 12154 228b C0070000 		.4byte	.LVL248
 12155 228f 1700     		.2byte	0x17
 12156 2291 7B       		.byte	0x7b
 12157 2292 00       		.sleb128 0
 12158 2293 72       		.byte	0x72
 12159 2294 00       		.sleb128 0
 12160 2295 27       		.byte	0x27
 12161 2296 78       		.byte	0x78
 12162 2297 00       		.sleb128 0
 12163 2298 1A       		.byte	0x1a
 12164 2299 7B       		.byte	0x7b
 12165 229a 00       		.sleb128 0
 12166 229b 27       		.byte	0x27
 12167 229c 74       		.byte	0x74
 12168 229d 00       		.sleb128 0
 12169 229e 22       		.byte	0x22
 12170 229f 91       		.byte	0x91
 12171 22a0 987F     		.sleb128 -104
 12172 22a2 06       		.byte	0x6
 12173 22a3 22       		.byte	0x22
 12174 22a4 7A       		.byte	0x7a
 12175 22a5 00       		.sleb128 0
 12176 22a6 22       		.byte	0x22
 12177 22a7 9F       		.byte	0x9f
 12178 22a8 C0070000 		.4byte	.LVL248
 12179 22ac C2070000 		.4byte	.LVL249
 12180 22b0 1700     		.2byte	0x17
 12181 22b2 7B       		.byte	0x7b
 12182 22b3 00       		.sleb128 0
 12183 22b4 72       		.byte	0x72
 12184 22b5 00       		.sleb128 0
 12185 22b6 27       		.byte	0x27
 12186 22b7 78       		.byte	0x78
 12187 22b8 00       		.sleb128 0
 12188 22b9 1A       		.byte	0x1a
 12189 22ba 7B       		.byte	0x7b
 12190 22bb 00       		.sleb128 0
 12191 22bc 27       		.byte	0x27
 12192 22bd 7C       		.byte	0x7c
 12193 22be 00       		.sleb128 0
 12194 22bf 22       		.byte	0x22
ARM GAS  C:\Users\Phuong\AppData\Local\Temp\ccbgGR22.s 			page 226


 12195 22c0 91       		.byte	0x91
 12196 22c1 987F     		.sleb128 -104
 12197 22c3 06       		.byte	0x6
 12198 22c4 22       		.byte	0x22
 12199 22c5 7A       		.byte	0x7a
 12200 22c6 00       		.sleb128 0
 12201 22c7 22       		.byte	0x22
 12202 22c8 9F       		.byte	0x9f
 12203 22c9 C2070000 		.4byte	.LVL249
 12204 22cd C4070000 		.4byte	.LVL250
 12205 22d1 1A00     		.2byte	0x1a
 12206 22d3 7B       		.byte	0x7b
 12207 22d4 00       		.sleb128 0
 12208 22d5 72       		.byte	0x72
 12209 22d6 00       		.sleb128 0
 12210 22d7 27       		.byte	0x27
 12211 22d8 78       		.byte	0x78
 12212 22d9 00       		.sleb128 0
 12213 22da 1A       		.byte	0x1a
 12214 22db 7B       		.byte	0x7b
 12215 22dc 00       		.sleb128 0
 12216 22dd 27       		.byte	0x27
 12217 22de 91       		.byte	0x91
 12218 22df 987F     		.sleb128 -104
 12219 22e1 06       		.byte	0x6
 12220 22e2 22       		.byte	0x22
 12221 22e3 7A       		.byte	0x7a
 12222 22e4 00       		.sleb128 0
 12223 22e5 22       		.byte	0x22
 12224 22e6 23       		.byte	0x23
 12225 22e7 A4A2B7E2 		.uleb128 0x5c4dd124
 12225      05
 12226 22ec 9F       		.byte	0x9f
 12227 22ed CA070000 		.4byte	.LVL251
 12228 22f1 CC070000 		.4byte	.LVL252
 12229 22f5 0100     		.2byte	0x1
 12230 22f7 54       		.byte	0x54
 12231 22f8 CC070000 		.4byte	.LVL252
 12232 22fc DC070000 		.4byte	.LVL255
 12233 2300 0100     		.2byte	0x1
 12234 2302 5A       		.byte	0x5a
 12235 2303 DC070000 		.4byte	.LVL255
 12236 2307 80080000 		.4byte	.LVL279
 12237 230b 0200     		.2byte	0x2
 12238 230d 91       		.byte	0x91
 12239 230e 50       		.sleb128 -48
 12240 230f 80080000 		.4byte	.LVL279
 12241 2313 82080000 		.4byte	.LVL280
 12242 2317 0100     		.2byte	0x1
 12243 2319 55       		.byte	0x55
 12244 231a 82080000 		.4byte	.LVL280
 12245 231e 62090000 		.4byte	.LVL313
 12246 2322 0100     		.2byte	0x1
 12247 2324 58       		.byte	0x58
 12248 2325 62090000 		.4byte	.LVL313
 12249 2329 64090000 		.4byte	.LVL314
 12250 232d 0F00     		.2byte	0xf
ARM GAS  C:\Users\Phuong\AppData\Local\Temp\ccbgGR22.s 			page 227


 12251 232f 91       		.byte	0x91
 12252 2330 50       		.sleb128 -48
 12253 2331 06       		.byte	0x6
 12254 2332 73       		.byte	0x73
 12255 2333 00       		.sleb128 0
 12256 2334 14       		.byte	0x14
 12257 2335 14       		.byte	0x14
 12258 2336 1F       		.byte	0x1f
 12259 2337 23       		.byte	0x23
 12260 2338 20       		.uleb128 0x20
 12261 2339 24       		.byte	0x24
 12262 233a 17       		.byte	0x17
 12263 233b 25       		.byte	0x25
 12264 233c 21       		.byte	0x21
 12265 233d 9F       		.byte	0x9f
 12266 233e 64090000 		.4byte	.LVL314
 12267 2342 66090000 		.4byte	.LVL315
 12268 2346 0100     		.2byte	0x1
 12269 2348 54       		.byte	0x54
 12270 2349 66090000 		.4byte	.LVL315
 12271 234d 6C090000 		.4byte	.LVL316
 12272 2351 2600     		.2byte	0x26
 12273 2353 91       		.byte	0x91
 12274 2354 44       		.sleb128 -60
 12275 2355 06       		.byte	0x6
 12276 2356 72       		.byte	0x72
 12277 2357 00       		.sleb128 0
 12278 2358 27       		.byte	0x27
 12279 2359 91       		.byte	0x91
 12280 235a 40       		.sleb128 -64
 12281 235b 06       		.byte	0x6
 12282 235c 1A       		.byte	0x1a
 12283 235d 91       		.byte	0x91
 12284 235e 44       		.sleb128 -60
 12285 235f 06       		.byte	0x6
 12286 2360 27       		.byte	0x27
 12287 2361 91       		.byte	0x91
 12288 2362 50       		.sleb128 -48
 12289 2363 06       		.byte	0x6
 12290 2364 73       		.byte	0x73
 12291 2365 00       		.sleb128 0
 12292 2366 14       		.byte	0x14
 12293 2367 14       		.byte	0x14
 12294 2368 1F       		.byte	0x1f
 12295 2369 23       		.byte	0x23
 12296 236a 20       		.uleb128 0x20
 12297 236b 24       		.byte	0x24
 12298 236c 17       		.byte	0x17
 12299 236d 25       		.byte	0x25
 12300 236e 21       		.byte	0x21
 12301 236f 22       		.byte	0x22
 12302 2370 71       		.byte	0x71
 12303 2371 00       		.sleb128 0
 12304 2372 22       		.byte	0x22
 12305 2373 91       		.byte	0x91
 12306 2374 B47F     		.sleb128 -76
 12307 2376 06       		.byte	0x6
ARM GAS  C:\Users\Phuong\AppData\Local\Temp\ccbgGR22.s 			page 228


 12308 2377 22       		.byte	0x22
 12309 2378 9F       		.byte	0x9f
 12310 2379 6C090000 		.4byte	.LVL316
 12311 237d 140A0000 		.4byte	.LVL343
 12312 2381 0100     		.2byte	0x1
 12313 2383 54       		.byte	0x54
 12314 2384 160A0000 		.4byte	.LVL344
 12315 2388 180A0000 		.4byte	.LVL345
 12316 238c 0100     		.2byte	0x1
 12317 238e 54       		.byte	0x54
 12318 238f 180A0000 		.4byte	.LVL345
 12319 2393 080B0000 		.4byte	.LVL379
 12320 2397 0200     		.2byte	0x2
 12321 2399 91       		.byte	0x91
 12322 239a 4C       		.sleb128 -52
 12323 239b 080B0000 		.4byte	.LVL379
 12324 239f 0C0B0000 		.4byte	.LVL380
 12325 23a3 0100     		.2byte	0x1
 12326 23a5 51       		.byte	0x51
 12327 23a6 0C0B0000 		.4byte	.LVL380
 12328 23aa 0E0B0000 		.4byte	.LVL381
 12329 23ae 1900     		.2byte	0x19
 12330 23b0 74       		.byte	0x74
 12331 23b1 00       		.sleb128 0
 12332 23b2 91       		.byte	0x91
 12333 23b3 44       		.sleb128 -60
 12334 23b4 06       		.byte	0x6
 12335 23b5 27       		.byte	0x27
 12336 23b6 72       		.byte	0x72
 12337 23b7 00       		.sleb128 0
 12338 23b8 1A       		.byte	0x1a
 12339 23b9 74       		.byte	0x74
 12340 23ba 00       		.sleb128 0
 12341 23bb 27       		.byte	0x27
 12342 23bc 7C       		.byte	0x7c
 12343 23bd 00       		.sleb128 0
 12344 23be 22       		.byte	0x22
 12345 23bf 91       		.byte	0x91
 12346 23c0 A07F     		.sleb128 -96
 12347 23c2 06       		.byte	0x6
 12348 23c3 22       		.byte	0x22
 12349 23c4 91       		.byte	0x91
 12350 23c5 4C       		.sleb128 -52
 12351 23c6 06       		.byte	0x6
 12352 23c7 22       		.byte	0x22
 12353 23c8 9F       		.byte	0x9f
 12354 23c9 0E0B0000 		.4byte	.LVL381
 12355 23cd C00B0000 		.4byte	.LVL406
 12356 23d1 0100     		.2byte	0x1
 12357 23d3 51       		.byte	0x51
 12358 23d4 C20B0000 		.4byte	.LVL407
 12359 23d8 E20B0000 		.4byte	.LVL411
 12360 23dc 0100     		.2byte	0x1
 12361 23de 51       		.byte	0x51
 12362 23df E20B0000 		.4byte	.LVL411
 12363 23e3 B40C0000 		.4byte	.LVL438
 12364 23e7 0200     		.2byte	0x2
ARM GAS  C:\Users\Phuong\AppData\Local\Temp\ccbgGR22.s 			page 229


 12365 23e9 91       		.byte	0x91
 12366 23ea 50       		.sleb128 -48
 12367 23eb B40C0000 		.4byte	.LVL438
 12368 23ef B80C0000 		.4byte	.LVL439
 12369 23f3 0100     		.2byte	0x1
 12370 23f5 55       		.byte	0x55
 12371 23f6 B80C0000 		.4byte	.LVL439
 12372 23fa BA0C0000 		.4byte	.LVL440
 12373 23fe 1600     		.2byte	0x16
 12374 2400 74       		.byte	0x74
 12375 2401 00       		.sleb128 0
 12376 2402 20       		.byte	0x20
 12377 2403 78       		.byte	0x78
 12378 2404 00       		.sleb128 0
 12379 2405 21       		.byte	0x21
 12380 2406 91       		.byte	0x91
 12381 2407 40       		.sleb128 -64
 12382 2408 06       		.byte	0x6
 12383 2409 27       		.byte	0x27
 12384 240a 7A       		.byte	0x7a
 12385 240b 00       		.sleb128 0
 12386 240c 22       		.byte	0x22
 12387 240d 7D       		.byte	0x7d
 12388 240e 00       		.sleb128 0
 12389 240f 06       		.byte	0x6
 12390 2410 22       		.byte	0x22
 12391 2411 91       		.byte	0x91
 12392 2412 50       		.sleb128 -48
 12393 2413 06       		.byte	0x6
 12394 2414 22       		.byte	0x22
 12395 2415 9F       		.byte	0x9f
 12396 2416 BA0C0000 		.4byte	.LVL440
 12397 241a 520D0000 		.4byte	.LVL468
 12398 241e 0100     		.2byte	0x1
 12399 2420 55       		.byte	0x55
 12400 2421 540D0000 		.4byte	.LVL469
 12401 2425 560D0000 		.4byte	.LVL470
 12402 2429 0100     		.2byte	0x1
 12403 242b 55       		.byte	0x55
 12404 242c 560D0000 		.4byte	.LVL470
 12405 2430 420E0000 		.4byte	.LVL500
 12406 2434 0200     		.2byte	0x2
 12407 2436 91       		.byte	0x91
 12408 2437 40       		.sleb128 -64
 12409 2438 420E0000 		.4byte	.LVL500
 12410 243c 4A0E0000 		.4byte	.LVL501
 12411 2440 0100     		.2byte	0x1
 12412 2442 58       		.byte	0x58
 12413 2443 4A0E0000 		.4byte	.LVL501
 12414 2447 4C0E0000 		.4byte	.LVL502
 12415 244b 1700     		.2byte	0x17
 12416 244d 91       		.byte	0x91
 12417 244e 4C       		.sleb128 -52
 12418 244f 06       		.byte	0x6
 12419 2450 20       		.byte	0x20
 12420 2451 7B       		.byte	0x7b
 12421 2452 00       		.sleb128 0
ARM GAS  C:\Users\Phuong\AppData\Local\Temp\ccbgGR22.s 			page 230


 12422 2453 21       		.byte	0x21
 12423 2454 71       		.byte	0x71
 12424 2455 00       		.sleb128 0
 12425 2456 27       		.byte	0x27
 12426 2457 7A       		.byte	0x7a
 12427 2458 00       		.sleb128 0
 12428 2459 22       		.byte	0x22
 12429 245a 91       		.byte	0x91
 12430 245b A07F     		.sleb128 -96
 12431 245d 06       		.byte	0x6
 12432 245e 22       		.byte	0x22
 12433 245f 91       		.byte	0x91
 12434 2460 40       		.sleb128 -64
 12435 2461 06       		.byte	0x6
 12436 2462 22       		.byte	0x22
 12437 2463 9F       		.byte	0x9f
 12438 2464 4C0E0000 		.4byte	.LVL502
 12439 2468 040F0000 		.4byte	.LVL526
 12440 246c 0100     		.2byte	0x1
 12441 246e 58       		.byte	0x58
 12442 246f 040F0000 		.4byte	.LVL526
 12443 2473 1E0F0000 		.4byte	.LVL527
 12444 2477 0100     		.2byte	0x1
 12445 2479 51       		.byte	0x51
 12446 247a 1E0F0000 		.4byte	.LVL527
 12447 247e 0C100000 		.4byte	.LVL557
 12448 2482 0200     		.2byte	0x2
 12449 2484 91       		.byte	0x91
 12450 2485 54       		.sleb128 -44
 12451 2486 0C100000 		.4byte	.LVL557
 12452 248a 10100000 		.4byte	.LVL558
 12453 248e 0100     		.2byte	0x1
 12454 2490 51       		.byte	0x51
 12455 2491 10100000 		.4byte	.LVL558
 12456 2495 12100000 		.4byte	.LVL559
 12457 2499 1600     		.2byte	0x16
 12458 249b 7A       		.byte	0x7a
 12459 249c 00       		.sleb128 0
 12460 249d 20       		.byte	0x20
 12461 249e 7C       		.byte	0x7c
 12462 249f 00       		.sleb128 0
 12463 24a0 21       		.byte	0x21
 12464 24a1 75       		.byte	0x75
 12465 24a2 00       		.sleb128 0
 12466 24a3 27       		.byte	0x27
 12467 24a4 78       		.byte	0x78
 12468 24a5 00       		.sleb128 0
 12469 24a6 22       		.byte	0x22
 12470 24a7 91       		.byte	0x91
 12471 24a8 A47F     		.sleb128 -92
 12472 24aa 06       		.byte	0x6
 12473 24ab 22       		.byte	0x22
 12474 24ac 91       		.byte	0x91
 12475 24ad 54       		.sleb128 -44
 12476 24ae 06       		.byte	0x6
 12477 24af 22       		.byte	0x22
 12478 24b0 9F       		.byte	0x9f
ARM GAS  C:\Users\Phuong\AppData\Local\Temp\ccbgGR22.s 			page 231


 12479 24b1 12100000 		.4byte	.LVL559
 12480 24b5 14100000 		.4byte	.LVL560
 12481 24b9 1900     		.2byte	0x19
 12482 24bb 7A       		.byte	0x7a
 12483 24bc 00       		.sleb128 0
 12484 24bd 20       		.byte	0x20
 12485 24be 7C       		.byte	0x7c
 12486 24bf 00       		.sleb128 0
 12487 24c0 21       		.byte	0x21
 12488 24c1 75       		.byte	0x75
 12489 24c2 00       		.sleb128 0
 12490 24c3 27       		.byte	0x27
 12491 24c4 91       		.byte	0x91
 12492 24c5 A47F     		.sleb128 -92
 12493 24c7 06       		.byte	0x6
 12494 24c8 22       		.byte	0x22
 12495 24c9 91       		.byte	0x91
 12496 24ca 54       		.sleb128 -44
 12497 24cb 06       		.byte	0x6
 12498 24cc 22       		.byte	0x22
 12499 24cd 23       		.byte	0x23
 12500 24ce F3FDC0EB 		.uleb128 0x6d703ef3
 12500      06
 12501 24d3 9F       		.byte	0x9f
 12502 24d4 14100000 		.4byte	.LVL560
 12503 24d8 D4100000 		.4byte	.LVL588
 12504 24dc 0100     		.2byte	0x1
 12505 24de 58       		.byte	0x58
 12506 24df D4100000 		.4byte	.LVL588
 12507 24e3 E2100000 		.4byte	.LVL589
 12508 24e7 0100     		.2byte	0x1
 12509 24e9 51       		.byte	0x51
 12510 24ea E2100000 		.4byte	.LVL589
 12511 24ee BE110000 		.4byte	.LVL625
 12512 24f2 0100     		.2byte	0x1
 12513 24f4 58       		.byte	0x58
 12514 24f5 C0110000 		.4byte	.LVL626
 12515 24f9 C2110000 		.4byte	.LVL627
 12516 24fd 0100     		.2byte	0x1
 12517 24ff 54       		.byte	0x54
 12518 2500 CA110000 		.4byte	.LVL628
 12519 2504 96120000 		.4byte	.LVL652
 12520 2508 0100     		.2byte	0x1
 12521 250a 58       		.byte	0x58
 12522 250b 96120000 		.4byte	.LVL652
 12523 250f 98120000 		.4byte	.LVL653
 12524 2513 0100     		.2byte	0x1
 12525 2515 50       		.byte	0x50
 12526 2516 98120000 		.4byte	.LVL653
 12527 251a 9E130000 		.4byte	.LVL683
 12528 251e 0200     		.2byte	0x2
 12529 2520 91       		.byte	0x91
 12530 2521 44       		.sleb128 -60
 12531 2522 9E130000 		.4byte	.LVL683
 12532 2526 A2130000 		.4byte	.LVL684
 12533 252a 0100     		.2byte	0x1
 12534 252c 51       		.byte	0x51
ARM GAS  C:\Users\Phuong\AppData\Local\Temp\ccbgGR22.s 			page 232


 12535 252d A2130000 		.4byte	.LVL684
 12536 2531 A4130000 		.4byte	.LVL685
 12537 2535 0A00     		.2byte	0xa
 12538 2537 91       		.byte	0x91
 12539 2538 44       		.sleb128 -60
 12540 2539 06       		.byte	0x6
 12541 253a 7A       		.byte	0x7a
 12542 253b 00       		.sleb128 0
 12543 253c 22       		.byte	0x22
 12544 253d 7B       		.byte	0x7b
 12545 253e 00       		.sleb128 0
 12546 253f 22       		.byte	0x22
 12547 2540 9F       		.byte	0x9f
 12548 2541 A4130000 		.4byte	.LVL685
 12549 2545 5C150000 		.4byte	.LVL740
 12550 2549 0100     		.2byte	0x1
 12551 254b 51       		.byte	0x51
 12552 254c 62150000 		.4byte	.LVL741
 12553 2550 66150000 		.4byte	.LVL742
 12554 2554 0100     		.2byte	0x1
 12555 2556 51       		.byte	0x51
 12556 2557 72150000 		.4byte	.LVL743
 12557 255b 76150000 		.4byte	.LVL745
 12558 255f 0100     		.2byte	0x1
 12559 2561 50       		.byte	0x50
 12560 2562 76150000 		.4byte	.LVL745
 12561 2566 88150000 		.4byte	.LVL746
 12562 256a 0100     		.2byte	0x1
 12563 256c 5A       		.byte	0x5a
 12564 256d 88150000 		.4byte	.LVL746
 12565 2571 2E160000 		.4byte	.LVL768
 12566 2575 0200     		.2byte	0x2
 12567 2577 91       		.byte	0x91
 12568 2578 44       		.sleb128 -60
 12569 2579 2E160000 		.4byte	.LVL768
 12570 257d 32160000 		.4byte	.LVL769
 12571 2581 0100     		.2byte	0x1
 12572 2583 50       		.byte	0x50
 12573 2584 32160000 		.4byte	.LVL769
 12574 2588 2E170000 		.4byte	.LVL802
 12575 258c 0200     		.2byte	0x2
 12576 258e 91       		.byte	0x91
 12577 258f 44       		.sleb128 -60
 12578 2590 2E170000 		.4byte	.LVL802
 12579 2594 32170000 		.4byte	.LVL803
 12580 2598 0100     		.2byte	0x1
 12581 259a 51       		.byte	0x51
 12582 259b 32170000 		.4byte	.LVL803
 12583 259f 3A170000 		.4byte	.LVL804
 12584 25a3 0100     		.2byte	0x1
 12585 25a5 52       		.byte	0x52
 12586 25a6 3A170000 		.4byte	.LVL804
 12587 25aa D4170000 		.4byte	.LVL830
 12588 25ae 0100     		.2byte	0x1
 12589 25b0 5B       		.byte	0x5b
 12590 25b1 D4170000 		.4byte	.LVL830
 12591 25b5 D8170000 		.4byte	.LVL831
ARM GAS  C:\Users\Phuong\AppData\Local\Temp\ccbgGR22.s 			page 233


 12592 25b9 0100     		.2byte	0x1
 12593 25bb 50       		.byte	0x50
 12594 25bc D8170000 		.4byte	.LVL831
 12595 25c0 BA180000 		.4byte	.LVL862
 12596 25c4 0100     		.2byte	0x1
 12597 25c6 5B       		.byte	0x5b
 12598 25c7 BC180000 		.4byte	.LVL863
 12599 25cb 5A190000 		.4byte	.LVL886
 12600 25cf 0100     		.2byte	0x1
 12601 25d1 5B       		.byte	0x5b
 12602 25d2 5A190000 		.4byte	.LVL886
 12603 25d6 8E190000 		.4byte	.LVL893
 12604 25da 0100     		.2byte	0x1
 12605 25dc 51       		.byte	0x51
 12606 25dd 8E190000 		.4byte	.LVL893
 12607 25e1 301A0000 		.4byte	.LVL918
 12608 25e5 0300     		.2byte	0x3
 12609 25e7 91       		.byte	0x91
 12610 25e8 987F     		.sleb128 -104
 12611 25ea 301A0000 		.4byte	.LVL918
 12612 25ee 341A0000 		.4byte	.LVL919
 12613 25f2 0100     		.2byte	0x1
 12614 25f4 51       		.byte	0x51
 12615 25f5 341A0000 		.4byte	.LVL919
 12616 25f9 361A0000 		.4byte	.LVL920
 12617 25fd 1500     		.2byte	0x15
 12618 25ff 91       		.byte	0x91
 12619 2600 A47F     		.sleb128 -92
 12620 2602 06       		.byte	0x6
 12621 2603 72       		.byte	0x72
 12622 2604 00       		.sleb128 0
 12623 2605 27       		.byte	0x27
 12624 2606 7A       		.byte	0x7a
 12625 2607 00       		.sleb128 0
 12626 2608 27       		.byte	0x27
 12627 2609 91       		.byte	0x91
 12628 260a 987F     		.sleb128 -104
 12629 260c 06       		.byte	0x6
 12630 260d 22       		.byte	0x22
 12631 260e 91       		.byte	0x91
 12632 260f B07F     		.sleb128 -80
 12633 2611 06       		.byte	0x6
 12634 2612 22       		.byte	0x22
 12635 2613 9F       		.byte	0x9f
 12636 2614 361A0000 		.4byte	.LVL920
 12637 2618 DE1A0000 		.4byte	.LVL945
 12638 261c 0100     		.2byte	0x1
 12639 261e 51       		.byte	0x51
 12640 261f DE1A0000 		.4byte	.LVL945
 12641 2623 E01A0000 		.4byte	.LVL946
 12642 2627 0100     		.2byte	0x1
 12643 2629 54       		.byte	0x54
 12644 262a E01A0000 		.4byte	.LVL946
 12645 262e AE1B0000 		.4byte	.LVL975
 12646 2632 0300     		.2byte	0x3
 12647 2634 91       		.byte	0x91
 12648 2635 847F     		.sleb128 -124
ARM GAS  C:\Users\Phuong\AppData\Local\Temp\ccbgGR22.s 			page 234


 12649 2637 AE1B0000 		.4byte	.LVL975
 12650 263b B21B0000 		.4byte	.LVL976
 12651 263f 0100     		.2byte	0x1
 12652 2641 51       		.byte	0x51
 12653 2642 B21B0000 		.4byte	.LVL976
 12654 2646 B41B0000 		.4byte	.LVL977
 12655 264a 1300     		.2byte	0x13
 12656 264c 7C       		.byte	0x7c
 12657 264d 00       		.sleb128 0
 12658 264e 78       		.byte	0x78
 12659 264f 00       		.sleb128 0
 12660 2650 27       		.byte	0x27
 12661 2651 7B       		.byte	0x7b
 12662 2652 00       		.sleb128 0
 12663 2653 27       		.byte	0x27
 12664 2654 91       		.byte	0x91
 12665 2655 847F     		.sleb128 -124
 12666 2657 06       		.byte	0x6
 12667 2658 22       		.byte	0x22
 12668 2659 91       		.byte	0x91
 12669 265a A87F     		.sleb128 -88
 12670 265c 06       		.byte	0x6
 12671 265d 22       		.byte	0x22
 12672 265e 9F       		.byte	0x9f
 12673 265f B41B0000 		.4byte	.LVL977
 12674 2663 E41B0000 		.4byte	.LVL982
 12675 2667 0100     		.2byte	0x1
 12676 2669 51       		.byte	0x51
 12677 266a 00000000 		.4byte	0
 12678 266e 00000000 		.4byte	0
 12679              	.LLST15:
 12680 2672 CE010000 		.4byte	.LVL14
 12681 2676 1E020000 		.4byte	.LVL23
 12682 267a 0200     		.2byte	0x2
 12683 267c 77       		.byte	0x77
 12684 267d 10       		.sleb128 16
 12685 267e 1E020000 		.4byte	.LVL23
 12686 2682 E4020000 		.4byte	.LVL49
 12687 2686 0100     		.2byte	0x1
 12688 2688 59       		.byte	0x59
 12689 2689 E4020000 		.4byte	.LVL49
 12690 268d E8020000 		.4byte	.LVL50
 12691 2691 0100     		.2byte	0x1
 12692 2693 55       		.byte	0x55
 12693 2694 E8020000 		.4byte	.LVL50
 12694 2698 EA020000 		.4byte	.LVL51
 12695 269c 1600     		.2byte	0x16
 12696 269e 72       		.byte	0x72
 12697 269f 00       		.sleb128 0
 12698 26a0 20       		.byte	0x20
 12699 26a1 71       		.byte	0x71
 12700 26a2 00       		.sleb128 0
 12701 26a3 21       		.byte	0x21
 12702 26a4 91       		.byte	0x91
 12703 26a5 40       		.sleb128 -64
 12704 26a6 06       		.byte	0x6
 12705 26a7 27       		.byte	0x27
ARM GAS  C:\Users\Phuong\AppData\Local\Temp\ccbgGR22.s 			page 235


 12706 26a8 7C       		.byte	0x7c
 12707 26a9 00       		.sleb128 0
 12708 26aa 22       		.byte	0x22
 12709 26ab 91       		.byte	0x91
 12710 26ac BC7F     		.sleb128 -68
 12711 26ae 06       		.byte	0x6
 12712 26af 22       		.byte	0x22
 12713 26b0 79       		.byte	0x79
 12714 26b1 00       		.sleb128 0
 12715 26b2 22       		.byte	0x22
 12716 26b3 9F       		.byte	0x9f
 12717 26b4 EA020000 		.4byte	.LVL51
 12718 26b8 64040000 		.4byte	.LVL106
 12719 26bc 0100     		.2byte	0x1
 12720 26be 55       		.byte	0x55
 12721 26bf 68040000 		.4byte	.LVL107
 12722 26c3 6A040000 		.4byte	.LVL108
 12723 26c7 0100     		.2byte	0x1
 12724 26c9 52       		.byte	0x52
 12725 26ca 74040000 		.4byte	.LVL109
 12726 26ce 7A040000 		.4byte	.LVL112
 12727 26d2 0100     		.2byte	0x1
 12728 26d4 55       		.byte	0x55
 12729 26d5 7A040000 		.4byte	.LVL112
 12730 26d9 1A050000 		.4byte	.LVL136
 12731 26dd 0200     		.2byte	0x2
 12732 26df 91       		.byte	0x91
 12733 26e0 44       		.sleb128 -60
 12734 26e1 1A050000 		.4byte	.LVL136
 12735 26e5 1C050000 		.4byte	.LVL137
 12736 26e9 0100     		.2byte	0x1
 12737 26eb 52       		.byte	0x52
 12738 26ec 1C050000 		.4byte	.LVL137
 12739 26f0 D4050000 		.4byte	.LVL170
 12740 26f4 0100     		.2byte	0x1
 12741 26f6 5A       		.byte	0x5a
 12742 26f7 D4050000 		.4byte	.LVL170
 12743 26fb D8050000 		.4byte	.LVL171
 12744 26ff 0100     		.2byte	0x1
 12745 2701 52       		.byte	0x52
 12746 2702 D8050000 		.4byte	.LVL171
 12747 2706 DA050000 		.4byte	.LVL172
 12748 270a 1600     		.2byte	0x16
 12749 270c 91       		.byte	0x91
 12750 270d 50       		.sleb128 -48
 12751 270e 06       		.byte	0x6
 12752 270f 20       		.byte	0x20
 12753 2710 71       		.byte	0x71
 12754 2711 00       		.sleb128 0
 12755 2712 21       		.byte	0x21
 12756 2713 78       		.byte	0x78
 12757 2714 00       		.sleb128 0
 12758 2715 27       		.byte	0x27
 12759 2716 79       		.byte	0x79
 12760 2717 00       		.sleb128 0
 12761 2718 22       		.byte	0x22
 12762 2719 91       		.byte	0x91
ARM GAS  C:\Users\Phuong\AppData\Local\Temp\ccbgGR22.s 			page 236


 12763 271a A47F     		.sleb128 -92
 12764 271c 06       		.byte	0x6
 12765 271d 22       		.byte	0x22
 12766 271e 7A       		.byte	0x7a
 12767 271f 00       		.sleb128 0
 12768 2720 22       		.byte	0x22
 12769 2721 9F       		.byte	0x9f
 12770 2722 E4050000 		.4byte	.LVL173
 12771 2726 F2050000 		.4byte	.LVL177
 12772 272a 0100     		.2byte	0x1
 12773 272c 50       		.byte	0x50
 12774 272d F2050000 		.4byte	.LVL177
 12775 2731 86060000 		.4byte	.LVL198
 12776 2735 0200     		.2byte	0x2
 12777 2737 91       		.byte	0x91
 12778 2738 4C       		.sleb128 -52
 12779 2739 86060000 		.4byte	.LVL198
 12780 273d 88060000 		.4byte	.LVL199
 12781 2741 0100     		.2byte	0x1
 12782 2743 52       		.byte	0x52
 12783 2744 88060000 		.4byte	.LVL199
 12784 2748 70070000 		.4byte	.LVL233
 12785 274c 0200     		.2byte	0x2
 12786 274e 91       		.byte	0x91
 12787 274f 44       		.sleb128 -60
 12788 2750 70070000 		.4byte	.LVL233
 12789 2754 74070000 		.4byte	.LVL234
 12790 2758 0100     		.2byte	0x1
 12791 275a 52       		.byte	0x52
 12792 275b 74070000 		.4byte	.LVL234
 12793 275f 76070000 		.4byte	.LVL235
 12794 2763 1900     		.2byte	0x19
 12795 2765 7B       		.byte	0x7b
 12796 2766 00       		.sleb128 0
 12797 2767 75       		.byte	0x75
 12798 2768 00       		.sleb128 0
 12799 2769 27       		.byte	0x27
 12800 276a 91       		.byte	0x91
 12801 276b 4C       		.sleb128 -52
 12802 276c 06       		.byte	0x6
 12803 276d 1A       		.byte	0x1a
 12804 276e 75       		.byte	0x75
 12805 276f 00       		.sleb128 0
 12806 2770 27       		.byte	0x27
 12807 2771 7C       		.byte	0x7c
 12808 2772 00       		.sleb128 0
 12809 2773 22       		.byte	0x22
 12810 2774 91       		.byte	0x91
 12811 2775 887F     		.sleb128 -120
 12812 2777 06       		.byte	0x6
 12813 2778 22       		.byte	0x22
 12814 2779 91       		.byte	0x91
 12815 277a 44       		.sleb128 -60
 12816 277b 06       		.byte	0x6
 12817 277c 22       		.byte	0x22
 12818 277d 9F       		.byte	0x9f
 12819 277e 76070000 		.4byte	.LVL235
ARM GAS  C:\Users\Phuong\AppData\Local\Temp\ccbgGR22.s 			page 237


 12820 2782 22080000 		.4byte	.LVL265
 12821 2786 0100     		.2byte	0x1
 12822 2788 52       		.byte	0x52
 12823 2789 24080000 		.4byte	.LVL266
 12824 278d 26080000 		.4byte	.LVL267
 12825 2791 0100     		.2byte	0x1
 12826 2793 52       		.byte	0x52
 12827 2794 26080000 		.4byte	.LVL267
 12828 2798 1A090000 		.4byte	.LVL300
 12829 279c 0200     		.2byte	0x2
 12830 279e 91       		.byte	0x91
 12831 279f 40       		.sleb128 -64
 12832 27a0 1A090000 		.4byte	.LVL300
 12833 27a4 1E090000 		.4byte	.LVL301
 12834 27a8 0100     		.2byte	0x1
 12835 27aa 52       		.byte	0x52
 12836 27ab 1E090000 		.4byte	.LVL301
 12837 27af 20090000 		.4byte	.LVL302
 12838 27b3 1A00     		.2byte	0x1a
 12839 27b5 71       		.byte	0x71
 12840 27b6 00       		.sleb128 0
 12841 27b7 91       		.byte	0x91
 12842 27b8 44       		.sleb128 -60
 12843 27b9 06       		.byte	0x6
 12844 27ba 27       		.byte	0x27
 12845 27bb 91       		.byte	0x91
 12846 27bc 48       		.sleb128 -56
 12847 27bd 06       		.byte	0x6
 12848 27be 1A       		.byte	0x1a
 12849 27bf 71       		.byte	0x71
 12850 27c0 00       		.sleb128 0
 12851 27c1 27       		.byte	0x27
 12852 27c2 7A       		.byte	0x7a
 12853 27c3 00       		.sleb128 0
 12854 27c4 22       		.byte	0x22
 12855 27c5 91       		.byte	0x91
 12856 27c6 A47F     		.sleb128 -92
 12857 27c8 06       		.byte	0x6
 12858 27c9 22       		.byte	0x22
 12859 27ca 91       		.byte	0x91
 12860 27cb 40       		.sleb128 -64
 12861 27cc 06       		.byte	0x6
 12862 27cd 22       		.byte	0x22
 12863 27ce 9F       		.byte	0x9f
 12864 27cf 20090000 		.4byte	.LVL302
 12865 27d3 C4090000 		.4byte	.LVL332
 12866 27d7 0100     		.2byte	0x1
 12867 27d9 52       		.byte	0x52
 12868 27da C4090000 		.4byte	.LVL332
 12869 27de C6090000 		.4byte	.LVL333
 12870 27e2 0100     		.2byte	0x1
 12871 27e4 50       		.byte	0x50
 12872 27e5 C6090000 		.4byte	.LVL333
 12873 27e9 B20A0000 		.4byte	.LVL366
 12874 27ed 0200     		.2byte	0x2
 12875 27ef 91       		.byte	0x91
 12876 27f0 48       		.sleb128 -56
ARM GAS  C:\Users\Phuong\AppData\Local\Temp\ccbgGR22.s 			page 238


 12877 27f1 B20A0000 		.4byte	.LVL366
 12878 27f5 B60A0000 		.4byte	.LVL367
 12879 27f9 0100     		.2byte	0x1
 12880 27fb 52       		.byte	0x52
 12881 27fc B60A0000 		.4byte	.LVL367
 12882 2800 BA0A0000 		.4byte	.LVL368
 12883 2804 1800     		.2byte	0x18
 12884 2806 71       		.byte	0x71
 12885 2807 00       		.sleb128 0
 12886 2808 74       		.byte	0x74
 12887 2809 00       		.sleb128 0
 12888 280a 27       		.byte	0x27
 12889 280b 79       		.byte	0x79
 12890 280c 00       		.sleb128 0
 12891 280d 1A       		.byte	0x1a
 12892 280e 71       		.byte	0x71
 12893 280f 00       		.sleb128 0
 12894 2810 27       		.byte	0x27
 12895 2811 7C       		.byte	0x7c
 12896 2812 00       		.sleb128 0
 12897 2813 22       		.byte	0x22
 12898 2814 91       		.byte	0x91
 12899 2815 8C7F     		.sleb128 -116
 12900 2817 06       		.byte	0x6
 12901 2818 22       		.byte	0x22
 12902 2819 91       		.byte	0x91
 12903 281a 48       		.sleb128 -56
 12904 281b 06       		.byte	0x6
 12905 281c 22       		.byte	0x22
 12906 281d 9F       		.byte	0x9f
 12907 281e BA0A0000 		.4byte	.LVL368
 12908 2822 BE0A0000 		.4byte	.LVL369
 12909 2826 1B00     		.2byte	0x1b
 12910 2828 71       		.byte	0x71
 12911 2829 00       		.sleb128 0
 12912 282a 74       		.byte	0x74
 12913 282b 00       		.sleb128 0
 12914 282c 27       		.byte	0x27
 12915 282d 79       		.byte	0x79
 12916 282e 00       		.sleb128 0
 12917 282f 1A       		.byte	0x1a
 12918 2830 71       		.byte	0x71
 12919 2831 00       		.sleb128 0
 12920 2832 27       		.byte	0x27
 12921 2833 91       		.byte	0x91
 12922 2834 8C7F     		.sleb128 -116
 12923 2836 06       		.byte	0x6
 12924 2837 22       		.byte	0x22
 12925 2838 91       		.byte	0x91
 12926 2839 48       		.sleb128 -56
 12927 283a 06       		.byte	0x6
 12928 283b 22       		.byte	0x22
 12929 283c 23       		.byte	0x23
 12930 283d A4A2B7E2 		.uleb128 0x5c4dd124
 12930      05
 12931 2842 9F       		.byte	0x9f
 12932 2843 BE0A0000 		.4byte	.LVL369
ARM GAS  C:\Users\Phuong\AppData\Local\Temp\ccbgGR22.s 			page 239


 12933 2847 C20A0000 		.4byte	.LVL371
 12934 284b 0100     		.2byte	0x1
 12935 284d 52       		.byte	0x52
 12936 284e C20A0000 		.4byte	.LVL371
 12937 2852 680B0000 		.4byte	.LVL395
 12938 2856 0200     		.2byte	0x2
 12939 2858 91       		.byte	0x91
 12940 2859 44       		.sleb128 -60
 12941 285a 680B0000 		.4byte	.LVL395
 12942 285e 6A0B0000 		.4byte	.LVL396
 12943 2862 0100     		.2byte	0x1
 12944 2864 52       		.byte	0x52
 12945 2865 6A0B0000 		.4byte	.LVL396
 12946 2869 600C0000 		.4byte	.LVL427
 12947 286d 0200     		.2byte	0x2
 12948 286f 91       		.byte	0x91
 12949 2870 44       		.sleb128 -60
 12950 2871 600C0000 		.4byte	.LVL427
 12951 2875 660C0000 		.4byte	.LVL428
 12952 2879 0100     		.2byte	0x1
 12953 287b 58       		.byte	0x58
 12954 287c 660C0000 		.4byte	.LVL428
 12955 2880 6C0C0000 		.4byte	.LVL429
 12956 2884 1700     		.2byte	0x17
 12957 2886 91       		.byte	0x91
 12958 2887 4C       		.sleb128 -52
 12959 2888 06       		.byte	0x6
 12960 2889 20       		.byte	0x20
 12961 288a 74       		.byte	0x74
 12962 288b 00       		.sleb128 0
 12963 288c 21       		.byte	0x21
 12964 288d 79       		.byte	0x79
 12965 288e 00       		.sleb128 0
 12966 288f 27       		.byte	0x27
 12967 2890 71       		.byte	0x71
 12968 2891 00       		.sleb128 0
 12969 2892 22       		.byte	0x22
 12970 2893 91       		.byte	0x91
 12971 2894 907F     		.sleb128 -112
 12972 2896 06       		.byte	0x6
 12973 2897 22       		.byte	0x22
 12974 2898 91       		.byte	0x91
 12975 2899 44       		.sleb128 -60
 12976 289a 06       		.byte	0x6
 12977 289b 22       		.byte	0x22
 12978 289c 9F       		.byte	0x9f
 12979 289d 6C0C0000 		.4byte	.LVL429
 12980 28a1 0E0D0000 		.4byte	.LVL455
 12981 28a5 0100     		.2byte	0x1
 12982 28a7 58       		.byte	0x58
 12983 28a8 0E0D0000 		.4byte	.LVL455
 12984 28ac 100D0000 		.4byte	.LVL456
 12985 28b0 0100     		.2byte	0x1
 12986 28b2 54       		.byte	0x54
 12987 28b3 100D0000 		.4byte	.LVL456
 12988 28b7 DE0D0000 		.4byte	.LVL490
 12989 28bb 0200     		.2byte	0x2
ARM GAS  C:\Users\Phuong\AppData\Local\Temp\ccbgGR22.s 			page 240


 12990 28bd 91       		.byte	0x91
 12991 28be 50       		.sleb128 -48
 12992 28bf DE0D0000 		.4byte	.LVL490
 12993 28c3 E20D0000 		.4byte	.LVL491
 12994 28c7 0100     		.2byte	0x1
 12995 28c9 50       		.byte	0x50
 12996 28ca E20D0000 		.4byte	.LVL491
 12997 28ce E80D0000 		.4byte	.LVL492
 12998 28d2 1700     		.2byte	0x17
 12999 28d4 71       		.byte	0x71
 13000 28d5 00       		.sleb128 0
 13001 28d6 20       		.byte	0x20
 13002 28d7 91       		.byte	0x91
 13003 28d8 4C       		.sleb128 -52
 13004 28d9 06       		.byte	0x6
 13005 28da 21       		.byte	0x21
 13006 28db 75       		.byte	0x75
 13007 28dc 00       		.sleb128 0
 13008 28dd 27       		.byte	0x27
 13009 28de 7A       		.byte	0x7a
 13010 28df 00       		.sleb128 0
 13011 28e0 22       		.byte	0x22
 13012 28e1 91       		.byte	0x91
 13013 28e2 947F     		.sleb128 -108
 13014 28e4 06       		.byte	0x6
 13015 28e5 22       		.byte	0x22
 13016 28e6 91       		.byte	0x91
 13017 28e7 50       		.sleb128 -48
 13018 28e8 06       		.byte	0x6
 13019 28e9 22       		.byte	0x22
 13020 28ea 9F       		.byte	0x9f
 13021 28eb E80D0000 		.4byte	.LVL492
 13022 28ef AA0E0000 		.4byte	.LVL515
 13023 28f3 0100     		.2byte	0x1
 13024 28f5 5B       		.byte	0x5b
 13025 28f6 AA0E0000 		.4byte	.LVL515
 13026 28fa AE0E0000 		.4byte	.LVL516
 13027 28fe 0100     		.2byte	0x1
 13028 2900 55       		.byte	0x55
 13029 2901 AE0E0000 		.4byte	.LVL516
 13030 2905 B60F0000 		.4byte	.LVL546
 13031 2909 0200     		.2byte	0x2
 13032 290b 91       		.byte	0x91
 13033 290c 50       		.sleb128 -48
 13034 290d B60F0000 		.4byte	.LVL546
 13035 2911 BA0F0000 		.4byte	.LVL547
 13036 2915 0100     		.2byte	0x1
 13037 2917 55       		.byte	0x55
 13038 2918 BA0F0000 		.4byte	.LVL547
 13039 291c BC0F0000 		.4byte	.LVL548
 13040 2920 0600     		.2byte	0x6
 13041 2922 74       		.byte	0x74
 13042 2923 00       		.sleb128 0
 13043 2924 7C       		.byte	0x7c
 13044 2925 00       		.sleb128 0
 13045 2926 22       		.byte	0x22
 13046 2927 9F       		.byte	0x9f
ARM GAS  C:\Users\Phuong\AppData\Local\Temp\ccbgGR22.s 			page 241


 13047 2928 BC0F0000 		.4byte	.LVL548
 13048 292c C20F0000 		.4byte	.LVL549
 13049 2930 0700     		.2byte	0x7
 13050 2932 74       		.byte	0x74
 13051 2933 F3FDC0EB 		.sleb128 1836072691
 13051      06
 13052 2938 9F       		.byte	0x9f
 13053 2939 C20F0000 		.4byte	.LVL549
 13054 293d 78100000 		.4byte	.LVL575
 13055 2941 0100     		.2byte	0x1
 13056 2943 5C       		.byte	0x5c
 13057 2944 78100000 		.4byte	.LVL575
 13058 2948 7E100000 		.4byte	.LVL576
 13059 294c 0100     		.2byte	0x1
 13060 294e 54       		.byte	0x54
 13061 294f 7E100000 		.4byte	.LVL576
 13062 2953 6C110000 		.4byte	.LVL611
 13063 2957 0100     		.2byte	0x1
 13064 2959 5C       		.byte	0x5c
 13065 295a 6E110000 		.4byte	.LVL612
 13066 295e 72110000 		.4byte	.LVL613
 13067 2962 0100     		.2byte	0x1
 13068 2964 51       		.byte	0x51
 13069 2965 78110000 		.4byte	.LVL614
 13070 2969 7C110000 		.4byte	.LVL616
 13071 296d 0100     		.2byte	0x1
 13072 296f 50       		.byte	0x50
 13073 2970 7C110000 		.4byte	.LVL616
 13074 2974 2C120000 		.4byte	.LVL641
 13075 2978 0100     		.2byte	0x1
 13076 297a 5C       		.byte	0x5c
 13077 297b 2C120000 		.4byte	.LVL641
 13078 297f 32120000 		.4byte	.LVL642
 13079 2983 0100     		.2byte	0x1
 13080 2985 50       		.byte	0x50
 13081 2986 32120000 		.4byte	.LVL642
 13082 298a 3E130000 		.4byte	.LVL671
 13083 298e 0200     		.2byte	0x2
 13084 2990 91       		.byte	0x91
 13085 2991 40       		.sleb128 -64
 13086 2992 3E130000 		.4byte	.LVL671
 13087 2996 42130000 		.4byte	.LVL672
 13088 299a 0100     		.2byte	0x1
 13089 299c 50       		.byte	0x50
 13090 299d 42130000 		.4byte	.LVL672
 13091 29a1 46130000 		.4byte	.LVL673
 13092 29a5 1800     		.2byte	0x18
 13093 29a7 75       		.byte	0x75
 13094 29a8 00       		.sleb128 0
 13095 29a9 72       		.byte	0x72
 13096 29aa 00       		.sleb128 0
 13097 29ab 27       		.byte	0x27
 13098 29ac 74       		.byte	0x74
 13099 29ad 00       		.sleb128 0
 13100 29ae 1A       		.byte	0x1a
 13101 29af 72       		.byte	0x72
 13102 29b0 00       		.sleb128 0
ARM GAS  C:\Users\Phuong\AppData\Local\Temp\ccbgGR22.s 			page 242


 13103 29b1 27       		.byte	0x27
 13104 29b2 78       		.byte	0x78
 13105 29b3 00       		.sleb128 0
 13106 29b4 22       		.byte	0x22
 13107 29b5 91       		.byte	0x91
 13108 29b6 A87F     		.sleb128 -88
 13109 29b8 06       		.byte	0x6
 13110 29b9 22       		.byte	0x22
 13111 29ba 91       		.byte	0x91
 13112 29bb 40       		.sleb128 -64
 13113 29bc 06       		.byte	0x6
 13114 29bd 22       		.byte	0x22
 13115 29be 9F       		.byte	0x9f
 13116 29bf 46130000 		.4byte	.LVL673
 13117 29c3 4A130000 		.4byte	.LVL674
 13118 29c7 1B00     		.2byte	0x1b
 13119 29c9 75       		.byte	0x75
 13120 29ca 00       		.sleb128 0
 13121 29cb 72       		.byte	0x72
 13122 29cc 00       		.sleb128 0
 13123 29cd 27       		.byte	0x27
 13124 29ce 74       		.byte	0x74
 13125 29cf 00       		.sleb128 0
 13126 29d0 1A       		.byte	0x1a
 13127 29d1 72       		.byte	0x72
 13128 29d2 00       		.sleb128 0
 13129 29d3 27       		.byte	0x27
 13130 29d4 91       		.byte	0x91
 13131 29d5 A87F     		.sleb128 -88
 13132 29d7 06       		.byte	0x6
 13133 29d8 22       		.byte	0x22
 13134 29d9 91       		.byte	0x91
 13135 29da 40       		.sleb128 -64
 13136 29db 06       		.byte	0x6
 13137 29dc 22       		.byte	0x22
 13138 29dd 23       		.byte	0x23
 13139 29de E9EDB5D3 		.uleb128 0x7a6d76e9
 13139      07
 13140 29e3 9F       		.byte	0x9f
 13141 29e4 4A130000 		.4byte	.LVL674
 13142 29e8 50130000 		.4byte	.LVL676
 13143 29ec 0100     		.2byte	0x1
 13144 29ee 50       		.byte	0x50
 13145 29ef 50130000 		.4byte	.LVL676
 13146 29f3 02140000 		.4byte	.LVL698
 13147 29f7 0200     		.2byte	0x2
 13148 29f9 91       		.byte	0x91
 13149 29fa 48       		.sleb128 -56
 13150 29fb 02140000 		.4byte	.LVL698
 13151 29ff 04140000 		.4byte	.LVL699
 13152 2a03 0100     		.2byte	0x1
 13153 2a05 54       		.byte	0x54
 13154 2a06 04140000 		.4byte	.LVL699
 13155 2a0a 0A150000 		.4byte	.LVL729
 13156 2a0e 0200     		.2byte	0x2
 13157 2a10 91       		.byte	0x91
 13158 2a11 44       		.sleb128 -60
ARM GAS  C:\Users\Phuong\AppData\Local\Temp\ccbgGR22.s 			page 243


 13159 2a12 0A150000 		.4byte	.LVL729
 13160 2a16 0E150000 		.4byte	.LVL730
 13161 2a1a 0100     		.2byte	0x1
 13162 2a1c 50       		.byte	0x50
 13163 2a1d 0E150000 		.4byte	.LVL730
 13164 2a21 12150000 		.4byte	.LVL731
 13165 2a25 1A00     		.2byte	0x1a
 13166 2a27 75       		.byte	0x75
 13167 2a28 00       		.sleb128 0
 13168 2a29 91       		.byte	0x91
 13169 2a2a 40       		.sleb128 -64
 13170 2a2b 06       		.byte	0x6
 13171 2a2c 27       		.byte	0x27
 13172 2a2d 74       		.byte	0x74
 13173 2a2e 00       		.sleb128 0
 13174 2a2f 1A       		.byte	0x1a
 13175 2a30 91       		.byte	0x91
 13176 2a31 40       		.sleb128 -64
 13177 2a32 06       		.byte	0x6
 13178 2a33 27       		.byte	0x27
 13179 2a34 79       		.byte	0x79
 13180 2a35 00       		.sleb128 0
 13181 2a36 22       		.byte	0x22
 13182 2a37 91       		.byte	0x91
 13183 2a38 847F     		.sleb128 -124
 13184 2a3a 06       		.byte	0x6
 13185 2a3b 22       		.byte	0x22
 13186 2a3c 91       		.byte	0x91
 13187 2a3d 44       		.sleb128 -60
 13188 2a3e 06       		.byte	0x6
 13189 2a3f 22       		.byte	0x22
 13190 2a40 9F       		.byte	0x9f
 13191 2a41 12150000 		.4byte	.LVL731
 13192 2a45 16150000 		.4byte	.LVL733
 13193 2a49 0100     		.2byte	0x1
 13194 2a4b 52       		.byte	0x52
 13195 2a4c 16150000 		.4byte	.LVL733
 13196 2a50 D2150000 		.4byte	.LVL756
 13197 2a54 0200     		.2byte	0x2
 13198 2a56 91       		.byte	0x91
 13199 2a57 54       		.sleb128 -44
 13200 2a58 D2150000 		.4byte	.LVL756
 13201 2a5c D6150000 		.4byte	.LVL757
 13202 2a60 0100     		.2byte	0x1
 13203 2a62 51       		.byte	0x51
 13204 2a63 D6150000 		.4byte	.LVL757
 13205 2a67 DA160000 		.4byte	.LVL789
 13206 2a6b 0200     		.2byte	0x2
 13207 2a6d 91       		.byte	0x91
 13208 2a6e 40       		.sleb128 -64
 13209 2a6f DA160000 		.4byte	.LVL789
 13210 2a73 DE160000 		.4byte	.LVL790
 13211 2a77 0100     		.2byte	0x1
 13212 2a79 50       		.byte	0x50
 13213 2a7a DE160000 		.4byte	.LVL790
 13214 2a7e E0160000 		.4byte	.LVL791
 13215 2a82 0600     		.2byte	0x6
ARM GAS  C:\Users\Phuong\AppData\Local\Temp\ccbgGR22.s 			page 244


 13216 2a84 7A       		.byte	0x7a
 13217 2a85 00       		.sleb128 0
 13218 2a86 79       		.byte	0x79
 13219 2a87 00       		.sleb128 0
 13220 2a88 22       		.byte	0x22
 13221 2a89 9F       		.byte	0x9f
 13222 2a8a E0160000 		.4byte	.LVL791
 13223 2a8e E4160000 		.4byte	.LVL792
 13224 2a92 0700     		.2byte	0x7
 13225 2a94 7A       		.byte	0x7a
 13226 2a95 E9EDB5D3 		.sleb128 2053994217
 13226      07
 13227 2a9a 9F       		.byte	0x9f
 13228 2a9b E4160000 		.4byte	.LVL792
 13229 2a9f E6160000 		.4byte	.LVL793
 13230 2aa3 1D00     		.2byte	0x1d
 13231 2aa5 78       		.byte	0x78
 13232 2aa6 00       		.sleb128 0
 13233 2aa7 91       		.byte	0x91
 13234 2aa8 48       		.sleb128 -56
 13235 2aa9 06       		.byte	0x6
 13236 2aaa 27       		.byte	0x27
 13237 2aab 71       		.byte	0x71
 13238 2aac 00       		.sleb128 0
 13239 2aad 1A       		.byte	0x1a
 13240 2aae 91       		.byte	0x91
 13241 2aaf 48       		.sleb128 -56
 13242 2ab0 06       		.byte	0x6
 13243 2ab1 27       		.byte	0x27
 13244 2ab2 91       		.byte	0x91
 13245 2ab3 B47F     		.sleb128 -76
 13246 2ab5 06       		.byte	0x6
 13247 2ab6 22       		.byte	0x22
 13248 2ab7 91       		.byte	0x91
 13249 2ab8 40       		.sleb128 -64
 13250 2ab9 06       		.byte	0x6
 13251 2aba 22       		.byte	0x22
 13252 2abb 23       		.byte	0x23
 13253 2abc E9EDB5D3 		.uleb128 0x7a6d76e9
 13253      07
 13254 2ac1 9F       		.byte	0x9f
 13255 2ac2 E6160000 		.4byte	.LVL793
 13256 2ac6 8A170000 		.4byte	.LVL817
 13257 2aca 0100     		.2byte	0x1
 13258 2acc 59       		.byte	0x59
 13259 2acd 8A170000 		.4byte	.LVL817
 13260 2ad1 90170000 		.4byte	.LVL818
 13261 2ad5 0100     		.2byte	0x1
 13262 2ad7 51       		.byte	0x51
 13263 2ad8 90170000 		.4byte	.LVL818
 13264 2adc 66180000 		.4byte	.LVL850
 13265 2ae0 0200     		.2byte	0x2
 13266 2ae2 91       		.byte	0x91
 13267 2ae3 48       		.sleb128 -56
 13268 2ae4 66180000 		.4byte	.LVL850
 13269 2ae8 6A180000 		.4byte	.LVL851
 13270 2aec 0100     		.2byte	0x1
ARM GAS  C:\Users\Phuong\AppData\Local\Temp\ccbgGR22.s 			page 245


 13271 2aee 51       		.byte	0x51
 13272 2aef 6A180000 		.4byte	.LVL851
 13273 2af3 6E180000 		.4byte	.LVL852
 13274 2af7 1300     		.2byte	0x13
 13275 2af9 78       		.byte	0x78
 13276 2afa 00       		.sleb128 0
 13277 2afb 91       		.byte	0x91
 13278 2afc 8C7F     		.sleb128 -116
 13279 2afe 06       		.byte	0x6
 13280 2aff 27       		.byte	0x27
 13281 2b00 7A       		.byte	0x7a
 13282 2b01 00       		.sleb128 0
 13283 2b02 27       		.byte	0x27
 13284 2b03 91       		.byte	0x91
 13285 2b04 48       		.sleb128 -56
 13286 2b05 06       		.byte	0x6
 13287 2b06 22       		.byte	0x22
 13288 2b07 7D       		.byte	0x7d
 13289 2b08 00       		.sleb128 0
 13290 2b09 06       		.byte	0x6
 13291 2b0a 22       		.byte	0x22
 13292 2b0b 9F       		.byte	0x9f
 13293 2b0c 6E180000 		.4byte	.LVL852
 13294 2b10 10190000 		.4byte	.LVL873
 13295 2b14 0100     		.2byte	0x1
 13296 2b16 52       		.byte	0x52
 13297 2b17 10190000 		.4byte	.LVL873
 13298 2b1b 1C190000 		.4byte	.LVL876
 13299 2b1f 0100     		.2byte	0x1
 13300 2b21 55       		.byte	0x55
 13301 2b22 1C190000 		.4byte	.LVL876
 13302 2b26 E0190000 		.4byte	.LVL907
 13303 2b2a 0100     		.2byte	0x1
 13304 2b2c 5A       		.byte	0x5a
 13305 2b2d E0190000 		.4byte	.LVL907
 13306 2b31 E4190000 		.4byte	.LVL908
 13307 2b35 0100     		.2byte	0x1
 13308 2b37 52       		.byte	0x52
 13309 2b38 E4190000 		.4byte	.LVL908
 13310 2b3c EA190000 		.4byte	.LVL909
 13311 2b40 1300     		.2byte	0x13
 13312 2b42 70       		.byte	0x70
 13313 2b43 00       		.sleb128 0
 13314 2b44 91       		.byte	0x91
 13315 2b45 A47F     		.sleb128 -92
 13316 2b47 06       		.byte	0x6
 13317 2b48 27       		.byte	0x27
 13318 2b49 78       		.byte	0x78
 13319 2b4a 00       		.sleb128 0
 13320 2b4b 27       		.byte	0x27
 13321 2b4c 7A       		.byte	0x7a
 13322 2b4d 00       		.sleb128 0
 13323 2b4e 22       		.byte	0x22
 13324 2b4f 91       		.byte	0x91
 13325 2b50 847F     		.sleb128 -124
 13326 2b52 06       		.byte	0x6
 13327 2b53 22       		.byte	0x22
ARM GAS  C:\Users\Phuong\AppData\Local\Temp\ccbgGR22.s 			page 246


 13328 2b54 9F       		.byte	0x9f
 13329 2b55 EA190000 		.4byte	.LVL909
 13330 2b59 8E1A0000 		.4byte	.LVL934
 13331 2b5d 0100     		.2byte	0x1
 13332 2b5f 52       		.byte	0x52
 13333 2b60 8E1A0000 		.4byte	.LVL934
 13334 2b64 901A0000 		.4byte	.LVL935
 13335 2b68 0100     		.2byte	0x1
 13336 2b6a 54       		.byte	0x54
 13337 2b6b 901A0000 		.4byte	.LVL935
 13338 2b6f 661B0000 		.4byte	.LVL964
 13339 2b73 0100     		.2byte	0x1
 13340 2b75 58       		.byte	0x58
 13341 2b76 6C1B0000 		.4byte	.LVL965
 13342 2b7a F41B0000 		.4byte	.LVL986
 13343 2b7e 0100     		.2byte	0x1
 13344 2b80 58       		.byte	0x58
 13345 2b81 00000000 		.4byte	0
 13346 2b85 00000000 		.4byte	0
 13347              	.LLST16:
 13348 2b89 CE010000 		.4byte	.LVL14
 13349 2b8d A0020000 		.4byte	.LVL39
 13350 2b91 0200     		.2byte	0x2
 13351 2b93 77       		.byte	0x77
 13352 2b94 14       		.sleb128 20
 13353 2b95 A0020000 		.4byte	.LVL39
 13354 2b99 A4020000 		.4byte	.LVL40
 13355 2b9d 0100     		.2byte	0x1
 13356 2b9f 50       		.byte	0x50
 13357 2ba0 A4020000 		.4byte	.LVL40
 13358 2ba4 AA020000 		.4byte	.LVL41
 13359 2ba8 1600     		.2byte	0x16
 13360 2baa 78       		.byte	0x78
 13361 2bab 00       		.sleb128 0
 13362 2bac 20       		.byte	0x20
 13363 2bad 72       		.byte	0x72
 13364 2bae 00       		.sleb128 0
 13365 2baf 21       		.byte	0x21
 13366 2bb0 71       		.byte	0x71
 13367 2bb1 00       		.sleb128 0
 13368 2bb2 27       		.byte	0x27
 13369 2bb3 7C       		.byte	0x7c
 13370 2bb4 00       		.sleb128 0
 13371 2bb5 22       		.byte	0x22
 13372 2bb6 91       		.byte	0x91
 13373 2bb7 987F     		.sleb128 -104
 13374 2bb9 06       		.byte	0x6
 13375 2bba 22       		.byte	0x22
 13376 2bbb 77       		.byte	0x77
 13377 2bbc 14       		.sleb128 20
 13378 2bbd 06       		.byte	0x6
 13379 2bbe 22       		.byte	0x22
 13380 2bbf 9F       		.byte	0x9f
 13381 2bc0 AA020000 		.4byte	.LVL41
 13382 2bc4 B2020000 		.4byte	.LVL43
 13383 2bc8 0100     		.2byte	0x1
 13384 2bca 56       		.byte	0x56
ARM GAS  C:\Users\Phuong\AppData\Local\Temp\ccbgGR22.s 			page 247


 13385 2bcb B2020000 		.4byte	.LVL43
 13386 2bcf 34030000 		.4byte	.LVL66
 13387 2bd3 0200     		.2byte	0x2
 13388 2bd5 91       		.byte	0x91
 13389 2bd6 40       		.sleb128 -64
 13390 2bd7 34030000 		.4byte	.LVL66
 13391 2bdb 18040000 		.4byte	.LVL96
 13392 2bdf 0100     		.2byte	0x1
 13393 2be1 50       		.byte	0x50
 13394 2be2 1E040000 		.4byte	.LVL97
 13395 2be6 22040000 		.4byte	.LVL98
 13396 2bea 0100     		.2byte	0x1
 13397 2bec 50       		.byte	0x50
 13398 2bed 26040000 		.4byte	.LVL99
 13399 2bf1 C4040000 		.4byte	.LVL124
 13400 2bf5 0100     		.2byte	0x1
 13401 2bf7 58       		.byte	0x58
 13402 2bf8 C4040000 		.4byte	.LVL124
 13403 2bfc C6040000 		.4byte	.LVL125
 13404 2c00 0100     		.2byte	0x1
 13405 2c02 51       		.byte	0x51
 13406 2c03 C6040000 		.4byte	.LVL125
 13407 2c07 90050000 		.4byte	.LVL156
 13408 2c0b 0100     		.2byte	0x1
 13409 2c0d 59       		.byte	0x59
 13410 2c0e 90050000 		.4byte	.LVL156
 13411 2c12 94050000 		.4byte	.LVL157
 13412 2c16 0100     		.2byte	0x1
 13413 2c18 55       		.byte	0x55
 13414 2c19 94050000 		.4byte	.LVL157
 13415 2c1d 98050000 		.4byte	.LVL158
 13416 2c21 1500     		.2byte	0x15
 13417 2c23 91       		.byte	0x91
 13418 2c24 44       		.sleb128 -60
 13419 2c25 06       		.byte	0x6
 13420 2c26 20       		.byte	0x20
 13421 2c27 70       		.byte	0x70
 13422 2c28 00       		.sleb128 0
 13423 2c29 21       		.byte	0x21
 13424 2c2a 71       		.byte	0x71
 13425 2c2b 00       		.sleb128 0
 13426 2c2c 27       		.byte	0x27
 13427 2c2d 78       		.byte	0x78
 13428 2c2e 00       		.sleb128 0
 13429 2c2f 22       		.byte	0x22
 13430 2c30 7D       		.byte	0x7d
 13431 2c31 00       		.sleb128 0
 13432 2c32 06       		.byte	0x6
 13433 2c33 22       		.byte	0x22
 13434 2c34 79       		.byte	0x79
 13435 2c35 00       		.sleb128 0
 13436 2c36 22       		.byte	0x22
 13437 2c37 9F       		.byte	0x9f
 13438 2c38 98050000 		.4byte	.LVL158
 13439 2c3c 9E050000 		.4byte	.LVL161
 13440 2c40 0100     		.2byte	0x1
 13441 2c42 55       		.byte	0x55
ARM GAS  C:\Users\Phuong\AppData\Local\Temp\ccbgGR22.s 			page 248


 13442 2c43 9E050000 		.4byte	.LVL161
 13443 2c47 3C060000 		.4byte	.LVL186
 13444 2c4b 0100     		.2byte	0x1
 13445 2c4d 58       		.byte	0x58
 13446 2c4e 3C060000 		.4byte	.LVL186
 13447 2c52 3E060000 		.4byte	.LVL187
 13448 2c56 0100     		.2byte	0x1
 13449 2c58 52       		.byte	0x52
 13450 2c59 3E060000 		.4byte	.LVL187
 13451 2c5d 12070000 		.4byte	.LVL220
 13452 2c61 0100     		.2byte	0x1
 13453 2c63 5B       		.byte	0x5b
 13454 2c64 18070000 		.4byte	.LVL221
 13455 2c68 20070000 		.4byte	.LVL222
 13456 2c6c 0100     		.2byte	0x1
 13457 2c6e 5B       		.byte	0x5b
 13458 2c6f 26070000 		.4byte	.LVL223
 13459 2c73 D0070000 		.4byte	.LVL253
 13460 2c77 0100     		.2byte	0x1
 13461 2c79 5B       		.byte	0x5b
 13462 2c7a D0070000 		.4byte	.LVL253
 13463 2c7e D2070000 		.4byte	.LVL254
 13464 2c82 0100     		.2byte	0x1
 13465 2c84 54       		.byte	0x54
 13466 2c85 D2070000 		.4byte	.LVL254
 13467 2c89 C2080000 		.4byte	.LVL286
 13468 2c8d 0200     		.2byte	0x2
 13469 2c8f 91       		.byte	0x91
 13470 2c90 48       		.sleb128 -56
 13471 2c91 C2080000 		.4byte	.LVL286
 13472 2c95 C6080000 		.4byte	.LVL287
 13473 2c99 0100     		.2byte	0x1
 13474 2c9b 55       		.byte	0x55
 13475 2c9c C6080000 		.4byte	.LVL287
 13476 2ca0 CA080000 		.4byte	.LVL288
 13477 2ca4 1800     		.2byte	0x18
 13478 2ca6 70       		.byte	0x70
 13479 2ca7 00       		.sleb128 0
 13480 2ca8 71       		.byte	0x71
 13481 2ca9 00       		.sleb128 0
 13482 2caa 27       		.byte	0x27
 13483 2cab 78       		.byte	0x78
 13484 2cac 00       		.sleb128 0
 13485 2cad 1A       		.byte	0x1a
 13486 2cae 70       		.byte	0x70
 13487 2caf 00       		.sleb128 0
 13488 2cb0 27       		.byte	0x27
 13489 2cb1 7B       		.byte	0x7b
 13490 2cb2 00       		.sleb128 0
 13491 2cb3 22       		.byte	0x22
 13492 2cb4 91       		.byte	0x91
 13493 2cb5 907F     		.sleb128 -112
 13494 2cb7 06       		.byte	0x6
 13495 2cb8 22       		.byte	0x22
 13496 2cb9 91       		.byte	0x91
 13497 2cba 48       		.sleb128 -56
 13498 2cbb 06       		.byte	0x6
ARM GAS  C:\Users\Phuong\AppData\Local\Temp\ccbgGR22.s 			page 249


 13499 2cbc 22       		.byte	0x22
 13500 2cbd 9F       		.byte	0x9f
 13501 2cbe CA080000 		.4byte	.LVL288
 13502 2cc2 CE080000 		.4byte	.LVL289
 13503 2cc6 1B00     		.2byte	0x1b
 13504 2cc8 70       		.byte	0x70
 13505 2cc9 00       		.sleb128 0
 13506 2cca 71       		.byte	0x71
 13507 2ccb 00       		.sleb128 0
 13508 2ccc 27       		.byte	0x27
 13509 2ccd 78       		.byte	0x78
 13510 2cce 00       		.sleb128 0
 13511 2ccf 1A       		.byte	0x1a
 13512 2cd0 70       		.byte	0x70
 13513 2cd1 00       		.sleb128 0
 13514 2cd2 27       		.byte	0x27
 13515 2cd3 91       		.byte	0x91
 13516 2cd4 907F     		.sleb128 -112
 13517 2cd6 06       		.byte	0x6
 13518 2cd7 22       		.byte	0x22
 13519 2cd8 91       		.byte	0x91
 13520 2cd9 48       		.sleb128 -56
 13521 2cda 06       		.byte	0x6
 13522 2cdb 22       		.byte	0x22
 13523 2cdc 23       		.byte	0x23
 13524 2cdd A4A2B7E2 		.uleb128 0x5c4dd124
 13524      05
 13525 2ce2 9F       		.byte	0x9f
 13526 2ce3 CE080000 		.4byte	.LVL289
 13527 2ce7 02090000 		.4byte	.LVL299
 13528 2ceb 0100     		.2byte	0x1
 13529 2ced 52       		.byte	0x52
 13530 2cee 02090000 		.4byte	.LVL299
 13531 2cf2 72090000 		.4byte	.LVL317
 13532 2cf6 0200     		.2byte	0x2
 13533 2cf8 91       		.byte	0x91
 13534 2cf9 44       		.sleb128 -60
 13535 2cfa 72090000 		.4byte	.LVL317
 13536 2cfe 74090000 		.4byte	.LVL318
 13537 2d02 0100     		.2byte	0x1
 13538 2d04 51       		.byte	0x51
 13539 2d05 74090000 		.4byte	.LVL318
 13540 2d09 620A0000 		.4byte	.LVL353
 13541 2d0d 0100     		.2byte	0x1
 13542 2d0f 59       		.byte	0x59
 13543 2d10 620A0000 		.4byte	.LVL353
 13544 2d14 640A0000 		.4byte	.LVL354
 13545 2d18 0100     		.2byte	0x1
 13546 2d1a 54       		.byte	0x54
 13547 2d1b 640A0000 		.4byte	.LVL354
 13548 2d1f 660A0000 		.4byte	.LVL355
 13549 2d23 1800     		.2byte	0x18
 13550 2d25 91       		.byte	0x91
 13551 2d26 44       		.sleb128 -60
 13552 2d27 06       		.byte	0x6
 13553 2d28 71       		.byte	0x71
 13554 2d29 00       		.sleb128 0
ARM GAS  C:\Users\Phuong\AppData\Local\Temp\ccbgGR22.s 			page 250


 13555 2d2a 27       		.byte	0x27
 13556 2d2b 91       		.byte	0x91
 13557 2d2c 4C       		.sleb128 -52
 13558 2d2d 06       		.byte	0x6
 13559 2d2e 1A       		.byte	0x1a
 13560 2d2f 91       		.byte	0x91
 13561 2d30 44       		.sleb128 -60
 13562 2d31 06       		.byte	0x6
 13563 2d32 27       		.byte	0x27
 13564 2d33 70       		.byte	0x70
 13565 2d34 00       		.sleb128 0
 13566 2d35 22       		.byte	0x22
 13567 2d36 75       		.byte	0x75
 13568 2d37 00       		.sleb128 0
 13569 2d38 22       		.byte	0x22
 13570 2d39 79       		.byte	0x79
 13571 2d3a 00       		.sleb128 0
 13572 2d3b 22       		.byte	0x22
 13573 2d3c 9F       		.byte	0x9f
 13574 2d3d 660A0000 		.4byte	.LVL355
 13575 2d41 680A0000 		.4byte	.LVL356
 13576 2d45 1800     		.2byte	0x18
 13577 2d47 91       		.byte	0x91
 13578 2d48 44       		.sleb128 -60
 13579 2d49 06       		.byte	0x6
 13580 2d4a 71       		.byte	0x71
 13581 2d4b 00       		.sleb128 0
 13582 2d4c 27       		.byte	0x27
 13583 2d4d 91       		.byte	0x91
 13584 2d4e 4C       		.sleb128 -52
 13585 2d4f 06       		.byte	0x6
 13586 2d50 1A       		.byte	0x1a
 13587 2d51 91       		.byte	0x91
 13588 2d52 44       		.sleb128 -60
 13589 2d53 06       		.byte	0x6
 13590 2d54 27       		.byte	0x27
 13591 2d55 75       		.byte	0x75
 13592 2d56 00       		.sleb128 0
 13593 2d57 22       		.byte	0x22
 13594 2d58 79       		.byte	0x79
 13595 2d59 00       		.sleb128 0
 13596 2d5a 22       		.byte	0x22
 13597 2d5b 7C       		.byte	0x7c
 13598 2d5c 00       		.sleb128 0
 13599 2d5d 22       		.byte	0x22
 13600 2d5e 9F       		.byte	0x9f
 13601 2d5f 680A0000 		.4byte	.LVL356
 13602 2d63 6A0A0000 		.4byte	.LVL357
 13603 2d67 1B00     		.2byte	0x1b
 13604 2d69 91       		.byte	0x91
 13605 2d6a 44       		.sleb128 -60
 13606 2d6b 06       		.byte	0x6
 13607 2d6c 71       		.byte	0x71
 13608 2d6d 00       		.sleb128 0
 13609 2d6e 27       		.byte	0x27
 13610 2d6f 91       		.byte	0x91
 13611 2d70 4C       		.sleb128 -52
ARM GAS  C:\Users\Phuong\AppData\Local\Temp\ccbgGR22.s 			page 251


 13612 2d71 06       		.byte	0x6
 13613 2d72 1A       		.byte	0x1a
 13614 2d73 91       		.byte	0x91
 13615 2d74 44       		.sleb128 -60
 13616 2d75 06       		.byte	0x6
 13617 2d76 27       		.byte	0x27
 13618 2d77 75       		.byte	0x75
 13619 2d78 00       		.sleb128 0
 13620 2d79 22       		.byte	0x22
 13621 2d7a 79       		.byte	0x79
 13622 2d7b 00       		.sleb128 0
 13623 2d7c 22       		.byte	0x22
 13624 2d7d 23       		.byte	0x23
 13625 2d7e A4A2B7E2 		.uleb128 0x5c4dd124
 13625      05
 13626 2d83 9F       		.byte	0x9f
 13627 2d84 6A0A0000 		.4byte	.LVL357
 13628 2d88 020C0000 		.4byte	.LVL415
 13629 2d8c 0100     		.2byte	0x1
 13630 2d8e 54       		.byte	0x54
 13631 2d8f 080C0000 		.4byte	.LVL416
 13632 2d93 0C0C0000 		.4byte	.LVL417
 13633 2d97 0100     		.2byte	0x1
 13634 2d99 54       		.byte	0x54
 13635 2d9a 120C0000 		.4byte	.LVL418
 13636 2d9e BC0C0000 		.4byte	.LVL441
 13637 2da2 0100     		.2byte	0x1
 13638 2da4 54       		.byte	0x54
 13639 2da5 BE0C0000 		.4byte	.LVL442
 13640 2da9 FA0C0000 		.4byte	.LVL450
 13641 2dad 0100     		.2byte	0x1
 13642 2daf 51       		.byte	0x51
 13643 2db0 FA0C0000 		.4byte	.LVL450
 13644 2db4 900D0000 		.4byte	.LVL476
 13645 2db8 0200     		.2byte	0x2
 13646 2dba 91       		.byte	0x91
 13647 2dbb 4C       		.sleb128 -52
 13648 2dbc 900D0000 		.4byte	.LVL476
 13649 2dc0 940D0000 		.4byte	.LVL477
 13650 2dc4 0100     		.2byte	0x1
 13651 2dc6 52       		.byte	0x52
 13652 2dc7 940D0000 		.4byte	.LVL477
 13653 2dcb 980D0000 		.4byte	.LVL479
 13654 2dcf 1700     		.2byte	0x17
 13655 2dd1 70       		.byte	0x70
 13656 2dd2 00       		.sleb128 0
 13657 2dd3 20       		.byte	0x20
 13658 2dd4 71       		.byte	0x71
 13659 2dd5 00       		.sleb128 0
 13660 2dd6 21       		.byte	0x21
 13661 2dd7 91       		.byte	0x91
 13662 2dd8 40       		.sleb128 -64
 13663 2dd9 06       		.byte	0x6
 13664 2dda 27       		.byte	0x27
 13665 2ddb 79       		.byte	0x79
 13666 2ddc 00       		.sleb128 0
 13667 2ddd 22       		.byte	0x22
ARM GAS  C:\Users\Phuong\AppData\Local\Temp\ccbgGR22.s 			page 252


 13668 2dde 91       		.byte	0x91
 13669 2ddf B47F     		.sleb128 -76
 13670 2de1 06       		.byte	0x6
 13671 2de2 22       		.byte	0x22
 13672 2de3 91       		.byte	0x91
 13673 2de4 4C       		.sleb128 -52
 13674 2de5 06       		.byte	0x6
 13675 2de6 22       		.byte	0x22
 13676 2de7 9F       		.byte	0x9f
 13677 2de8 980D0000 		.4byte	.LVL479
 13678 2dec 9C0D0000 		.4byte	.LVL480
 13679 2df0 1A00     		.2byte	0x1a
 13680 2df2 70       		.byte	0x70
 13681 2df3 00       		.sleb128 0
 13682 2df4 20       		.byte	0x20
 13683 2df5 71       		.byte	0x71
 13684 2df6 00       		.sleb128 0
 13685 2df7 21       		.byte	0x21
 13686 2df8 91       		.byte	0x91
 13687 2df9 40       		.sleb128 -64
 13688 2dfa 06       		.byte	0x6
 13689 2dfb 27       		.byte	0x27
 13690 2dfc 91       		.byte	0x91
 13691 2dfd B47F     		.sleb128 -76
 13692 2dff 06       		.byte	0x6
 13693 2e00 22       		.byte	0x22
 13694 2e01 91       		.byte	0x91
 13695 2e02 4C       		.sleb128 -52
 13696 2e03 06       		.byte	0x6
 13697 2e04 22       		.byte	0x22
 13698 2e05 23       		.byte	0x23
 13699 2e06 F3FDC0EB 		.uleb128 0x6d703ef3
 13699      06
 13700 2e0b 9F       		.byte	0x9f
 13701 2e0c 9C0D0000 		.4byte	.LVL480
 13702 2e10 A40D0000 		.4byte	.LVL484
 13703 2e14 0100     		.2byte	0x1
 13704 2e16 52       		.byte	0x52
 13705 2e17 A40D0000 		.4byte	.LVL484
 13706 2e1b 520E0000 		.4byte	.LVL503
 13707 2e1f 0200     		.2byte	0x2
 13708 2e21 91       		.byte	0x91
 13709 2e22 4C       		.sleb128 -52
 13710 2e23 520E0000 		.4byte	.LVL503
 13711 2e27 540E0000 		.4byte	.LVL504
 13712 2e2b 0100     		.2byte	0x1
 13713 2e2d 56       		.byte	0x56
 13714 2e2e 540E0000 		.4byte	.LVL504
 13715 2e32 520F0000 		.4byte	.LVL534
 13716 2e36 0200     		.2byte	0x2
 13717 2e38 91       		.byte	0x91
 13718 2e39 40       		.sleb128 -64
 13719 2e3a 520F0000 		.4byte	.LVL534
 13720 2e3e 560F0000 		.4byte	.LVL535
 13721 2e42 0100     		.2byte	0x1
 13722 2e44 52       		.byte	0x52
 13723 2e45 560F0000 		.4byte	.LVL535
ARM GAS  C:\Users\Phuong\AppData\Local\Temp\ccbgGR22.s 			page 253


 13724 2e49 5E0F0000 		.4byte	.LVL536
 13725 2e4d 1500     		.2byte	0x15
 13726 2e4f 79       		.byte	0x79
 13727 2e50 00       		.sleb128 0
 13728 2e51 20       		.byte	0x20
 13729 2e52 7B       		.byte	0x7b
 13730 2e53 00       		.sleb128 0
 13731 2e54 21       		.byte	0x21
 13732 2e55 91       		.byte	0x91
 13733 2e56 54       		.sleb128 -44
 13734 2e57 06       		.byte	0x6
 13735 2e58 27       		.byte	0x27
 13736 2e59 71       		.byte	0x71
 13737 2e5a 00       		.sleb128 0
 13738 2e5b 22       		.byte	0x22
 13739 2e5c 75       		.byte	0x75
 13740 2e5d 00       		.sleb128 0
 13741 2e5e 22       		.byte	0x22
 13742 2e5f 91       		.byte	0x91
 13743 2e60 40       		.sleb128 -64
 13744 2e61 06       		.byte	0x6
 13745 2e62 22       		.byte	0x22
 13746 2e63 9F       		.byte	0x9f
 13747 2e64 5E0F0000 		.4byte	.LVL536
 13748 2e68 1A100000 		.4byte	.LVL561
 13749 2e6c 0100     		.2byte	0x1
 13750 2e6e 5A       		.byte	0x5a
 13751 2e6f 1A100000 		.4byte	.LVL561
 13752 2e73 1C100000 		.4byte	.LVL562
 13753 2e77 0100     		.2byte	0x1
 13754 2e79 51       		.byte	0x51
 13755 2e7a 1C100000 		.4byte	.LVL562
 13756 2e7e 18110000 		.4byte	.LVL597
 13757 2e82 0200     		.2byte	0x2
 13758 2e84 91       		.byte	0x91
 13759 2e85 4C       		.sleb128 -52
 13760 2e86 18110000 		.4byte	.LVL597
 13761 2e8a 1A110000 		.4byte	.LVL598
 13762 2e8e 0100     		.2byte	0x1
 13763 2e90 51       		.byte	0x51
 13764 2e91 1A110000 		.4byte	.LVL598
 13765 2e95 1C110000 		.4byte	.LVL599
 13766 2e99 1600     		.2byte	0x16
 13767 2e9b 72       		.byte	0x72
 13768 2e9c 00       		.sleb128 0
 13769 2e9d 20       		.byte	0x20
 13770 2e9e 75       		.byte	0x75
 13771 2e9f 00       		.sleb128 0
 13772 2ea0 21       		.byte	0x21
 13773 2ea1 78       		.byte	0x78
 13774 2ea2 00       		.sleb128 0
 13775 2ea3 27       		.byte	0x27
 13776 2ea4 70       		.byte	0x70
 13777 2ea5 00       		.sleb128 0
 13778 2ea6 22       		.byte	0x22
 13779 2ea7 91       		.byte	0x91
 13780 2ea8 B07F     		.sleb128 -80
ARM GAS  C:\Users\Phuong\AppData\Local\Temp\ccbgGR22.s 			page 254


 13781 2eaa 06       		.byte	0x6
 13782 2eab 22       		.byte	0x22
 13783 2eac 91       		.byte	0x91
 13784 2ead 4C       		.sleb128 -52
 13785 2eae 06       		.byte	0x6
 13786 2eaf 22       		.byte	0x22
 13787 2eb0 9F       		.byte	0x9f
 13788 2eb1 1C110000 		.4byte	.LVL599
 13789 2eb5 20110000 		.4byte	.LVL600
 13790 2eb9 1600     		.2byte	0x16
 13791 2ebb 72       		.byte	0x72
 13792 2ebc 00       		.sleb128 0
 13793 2ebd 20       		.byte	0x20
 13794 2ebe 75       		.byte	0x75
 13795 2ebf 00       		.sleb128 0
 13796 2ec0 21       		.byte	0x21
 13797 2ec1 78       		.byte	0x78
 13798 2ec2 00       		.sleb128 0
 13799 2ec3 27       		.byte	0x27
 13800 2ec4 7A       		.byte	0x7a
 13801 2ec5 00       		.sleb128 0
 13802 2ec6 22       		.byte	0x22
 13803 2ec7 91       		.byte	0x91
 13804 2ec8 B07F     		.sleb128 -80
 13805 2eca 06       		.byte	0x6
 13806 2ecb 22       		.byte	0x22
 13807 2ecc 91       		.byte	0x91
 13808 2ecd 4C       		.sleb128 -52
 13809 2ece 06       		.byte	0x6
 13810 2ecf 22       		.byte	0x22
 13811 2ed0 9F       		.byte	0x9f
 13812 2ed1 20110000 		.4byte	.LVL600
 13813 2ed5 26110000 		.4byte	.LVL603
 13814 2ed9 0100     		.2byte	0x1
 13815 2edb 50       		.byte	0x50
 13816 2edc 26110000 		.4byte	.LVL603
 13817 2ee0 D0110000 		.4byte	.LVL629
 13818 2ee4 0200     		.2byte	0x2
 13819 2ee6 91       		.byte	0x91
 13820 2ee7 48       		.sleb128 -56
 13821 2ee8 D0110000 		.4byte	.LVL629
 13822 2eec DC120000 		.4byte	.LVL660
 13823 2ef0 0100     		.2byte	0x1
 13824 2ef2 54       		.byte	0x54
 13825 2ef3 E2120000 		.4byte	.LVL661
 13826 2ef7 E6120000 		.4byte	.LVL662
 13827 2efb 0100     		.2byte	0x1
 13828 2efd 54       		.byte	0x54
 13829 2efe EC120000 		.4byte	.LVL663
 13830 2f02 A6130000 		.4byte	.LVL686
 13831 2f06 0100     		.2byte	0x1
 13832 2f08 54       		.byte	0x54
 13833 2f09 A8130000 		.4byte	.LVL687
 13834 2f0d AA130000 		.4byte	.LVL688
 13835 2f11 0100     		.2byte	0x1
 13836 2f13 54       		.byte	0x54
 13837 2f14 AA130000 		.4byte	.LVL688
ARM GAS  C:\Users\Phuong\AppData\Local\Temp\ccbgGR22.s 			page 255


 13838 2f18 AE140000 		.4byte	.LVL717
 13839 2f1c 0200     		.2byte	0x2
 13840 2f1e 91       		.byte	0x91
 13841 2f1f 40       		.sleb128 -64
 13842 2f20 AE140000 		.4byte	.LVL717
 13843 2f24 B2140000 		.4byte	.LVL718
 13844 2f28 0100     		.2byte	0x1
 13845 2f2a 54       		.byte	0x54
 13846 2f2b B2140000 		.4byte	.LVL718
 13847 2f2f B6140000 		.4byte	.LVL719
 13848 2f33 1800     		.2byte	0x18
 13849 2f35 72       		.byte	0x72
 13850 2f36 00       		.sleb128 0
 13851 2f37 71       		.byte	0x71
 13852 2f38 00       		.sleb128 0
 13853 2f39 27       		.byte	0x27
 13854 2f3a 75       		.byte	0x75
 13855 2f3b 00       		.sleb128 0
 13856 2f3c 1A       		.byte	0x1a
 13857 2f3d 71       		.byte	0x71
 13858 2f3e 00       		.sleb128 0
 13859 2f3f 27       		.byte	0x27
 13860 2f40 7C       		.byte	0x7c
 13861 2f41 00       		.sleb128 0
 13862 2f42 22       		.byte	0x22
 13863 2f43 91       		.byte	0x91
 13864 2f44 AC7F     		.sleb128 -84
 13865 2f46 06       		.byte	0x6
 13866 2f47 22       		.byte	0x22
 13867 2f48 91       		.byte	0x91
 13868 2f49 40       		.sleb128 -64
 13869 2f4a 06       		.byte	0x6
 13870 2f4b 22       		.byte	0x22
 13871 2f4c 9F       		.byte	0x9f
 13872 2f4d B6140000 		.4byte	.LVL719
 13873 2f51 B8140000 		.4byte	.LVL720
 13874 2f55 1B00     		.2byte	0x1b
 13875 2f57 72       		.byte	0x72
 13876 2f58 00       		.sleb128 0
 13877 2f59 71       		.byte	0x71
 13878 2f5a 00       		.sleb128 0
 13879 2f5b 27       		.byte	0x27
 13880 2f5c 75       		.byte	0x75
 13881 2f5d 00       		.sleb128 0
 13882 2f5e 1A       		.byte	0x1a
 13883 2f5f 71       		.byte	0x71
 13884 2f60 00       		.sleb128 0
 13885 2f61 27       		.byte	0x27
 13886 2f62 91       		.byte	0x91
 13887 2f63 AC7F     		.sleb128 -84
 13888 2f65 06       		.byte	0x6
 13889 2f66 22       		.byte	0x22
 13890 2f67 91       		.byte	0x91
 13891 2f68 40       		.sleb128 -64
 13892 2f69 06       		.byte	0x6
 13893 2f6a 22       		.byte	0x22
 13894 2f6b 23       		.byte	0x23
ARM GAS  C:\Users\Phuong\AppData\Local\Temp\ccbgGR22.s 			page 256


 13895 2f6c E9EDB5D3 		.uleb128 0x7a6d76e9
 13895      07
 13896 2f71 9F       		.byte	0x9f
 13897 2f72 B8140000 		.4byte	.LVL720
 13898 2f76 7A160000 		.4byte	.LVL776
 13899 2f7a 0100     		.2byte	0x1
 13900 2f7c 54       		.byte	0x54
 13901 2f7d 7E160000 		.4byte	.LVL777
 13902 2f81 82160000 		.4byte	.LVL778
 13903 2f85 0100     		.2byte	0x1
 13904 2f87 55       		.byte	0x55
 13905 2f88 8A160000 		.4byte	.LVL779
 13906 2f8c 2E170000 		.4byte	.LVL802
 13907 2f90 0100     		.2byte	0x1
 13908 2f92 51       		.byte	0x51
 13909 2f93 2E170000 		.4byte	.LVL802
 13910 2f97 3E170000 		.4byte	.LVL805
 13911 2f9b 0200     		.2byte	0x2
 13912 2f9d 91       		.byte	0x91
 13913 2f9e 54       		.sleb128 -44
 13914 2f9f 3E170000 		.4byte	.LVL805
 13915 2fa3 1A180000 		.4byte	.LVL838
 13916 2fa7 0100     		.2byte	0x1
 13917 2fa9 55       		.byte	0x55
 13918 2faa 1A180000 		.4byte	.LVL838
 13919 2fae 22180000 		.4byte	.LVL839
 13920 2fb2 1200     		.2byte	0x12
 13921 2fb4 91       		.byte	0x91
 13922 2fb5 54       		.sleb128 -44
 13923 2fb6 06       		.byte	0x6
 13924 2fb7 73       		.byte	0x73
 13925 2fb8 00       		.sleb128 0
 13926 2fb9 14       		.byte	0x14
 13927 2fba 14       		.byte	0x14
 13928 2fbb 1F       		.byte	0x1f
 13929 2fbc 23       		.byte	0x23
 13930 2fbd 20       		.uleb128 0x20
 13931 2fbe 24       		.byte	0x24
 13932 2fbf 17       		.byte	0x17
 13933 2fc0 25       		.byte	0x25
 13934 2fc1 21       		.byte	0x21
 13935 2fc2 71       		.byte	0x71
 13936 2fc3 00       		.sleb128 0
 13937 2fc4 22       		.byte	0x22
 13938 2fc5 9F       		.byte	0x9f
 13939 2fc6 22180000 		.4byte	.LVL839
 13940 2fca 2A180000 		.4byte	.LVL841
 13941 2fce 0100     		.2byte	0x1
 13942 2fd0 55       		.byte	0x55
 13943 2fd1 2A180000 		.4byte	.LVL841
 13944 2fd5 C2180000 		.4byte	.LVL864
 13945 2fd9 0300     		.2byte	0x3
 13946 2fdb 91       		.byte	0x91
 13947 2fdc 8C7F     		.sleb128 -116
 13948 2fde C2180000 		.4byte	.LVL864
 13949 2fe2 C4180000 		.4byte	.LVL865
 13950 2fe6 0100     		.2byte	0x1
ARM GAS  C:\Users\Phuong\AppData\Local\Temp\ccbgGR22.s 			page 257


 13951 2fe8 55       		.byte	0x55
 13952 2fe9 C4180000 		.4byte	.LVL865
 13953 2fed 94190000 		.4byte	.LVL894
 13954 2ff1 0100     		.2byte	0x1
 13955 2ff3 58       		.byte	0x58
 13956 2ff4 94190000 		.4byte	.LVL894
 13957 2ff8 98190000 		.4byte	.LVL895
 13958 2ffc 0100     		.2byte	0x1
 13959 2ffe 55       		.byte	0x55
 13960 2fff 98190000 		.4byte	.LVL895
 13961 3003 9E190000 		.4byte	.LVL896
 13962 3007 1500     		.2byte	0x15
 13963 3009 91       		.byte	0x91
 13964 300a 8C7F     		.sleb128 -116
 13965 300c 06       		.byte	0x6
 13966 300d 70       		.byte	0x70
 13967 300e 00       		.sleb128 0
 13968 300f 27       		.byte	0x27
 13969 3010 91       		.byte	0x91
 13970 3011 987F     		.sleb128 -104
 13971 3013 06       		.byte	0x6
 13972 3014 27       		.byte	0x27
 13973 3015 78       		.byte	0x78
 13974 3016 00       		.sleb128 0
 13975 3017 22       		.byte	0x22
 13976 3018 91       		.byte	0x91
 13977 3019 947F     		.sleb128 -108
 13978 301b 06       		.byte	0x6
 13979 301c 22       		.byte	0x22
 13980 301d 9F       		.byte	0x9f
 13981 301e 9E190000 		.4byte	.LVL896
 13982 3022 B0190000 		.4byte	.LVL899
 13983 3026 0100     		.2byte	0x1
 13984 3028 51       		.byte	0x51
 13985 3029 B0190000 		.4byte	.LVL899
 13986 302d 3C1A0000 		.4byte	.LVL921
 13987 3031 0300     		.2byte	0x3
 13988 3033 91       		.byte	0x91
 13989 3034 A47F     		.sleb128 -92
 13990 3036 3C1A0000 		.4byte	.LVL921
 13991 303a 3E1A0000 		.4byte	.LVL922
 13992 303e 0100     		.2byte	0x1
 13993 3040 50       		.byte	0x50
 13994 3041 3E1A0000 		.4byte	.LVL922
 13995 3045 001B0000 		.4byte	.LVL952
 13996 3049 0300     		.2byte	0x3
 13997 304b 91       		.byte	0x91
 13998 304c 907F     		.sleb128 -112
 13999 304e 001B0000 		.4byte	.LVL952
 14000 3052 161B0000 		.4byte	.LVL954
 14001 3056 0100     		.2byte	0x1
 14002 3058 52       		.byte	0x52
 14003 3059 161B0000 		.4byte	.LVL954
 14004 305d 1E1B0000 		.4byte	.LVL955
 14005 3061 0100     		.2byte	0x1
 14006 3063 5C       		.byte	0x5c
 14007 3064 1E1B0000 		.4byte	.LVL955
ARM GAS  C:\Users\Phuong\AppData\Local\Temp\ccbgGR22.s 			page 258


 14008 3068 201B0000 		.4byte	.LVL956
 14009 306c 1500     		.2byte	0x15
 14010 306e 91       		.byte	0x91
 14011 306f 8C7F     		.sleb128 -116
 14012 3071 06       		.byte	0x6
 14013 3072 70       		.byte	0x70
 14014 3073 00       		.sleb128 0
 14015 3074 27       		.byte	0x27
 14016 3075 91       		.byte	0x91
 14017 3076 847F     		.sleb128 -124
 14018 3078 06       		.byte	0x6
 14019 3079 27       		.byte	0x27
 14020 307a 79       		.byte	0x79
 14021 307b 00       		.sleb128 0
 14022 307c 22       		.byte	0x22
 14023 307d 91       		.byte	0x91
 14024 307e 887F     		.sleb128 -120
 14025 3080 06       		.byte	0x6
 14026 3081 22       		.byte	0x22
 14027 3082 9F       		.byte	0x9f
 14028 3083 201B0000 		.4byte	.LVL956
 14029 3087 BA1B0000 		.4byte	.LVL978
 14030 308b 0100     		.2byte	0x1
 14031 308d 5C       		.byte	0x5c
 14032 308e BA1B0000 		.4byte	.LVL978
 14033 3092 C21B0000 		.4byte	.LVL980
 14034 3096 0100     		.2byte	0x1
 14035 3098 53       		.byte	0x53
 14036 3099 00000000 		.4byte	0
 14037 309d 00000000 		.4byte	0
 14038              	.LLST17:
 14039 30a1 CE010000 		.4byte	.LVL14
 14040 30a5 5E020000 		.4byte	.LVL29
 14041 30a9 0200     		.2byte	0x2
 14042 30ab 77       		.byte	0x77
 14043 30ac 18       		.sleb128 24
 14044 30ad 5E020000 		.4byte	.LVL29
 14045 30b1 62020000 		.4byte	.LVL30
 14046 30b5 0100     		.2byte	0x1
 14047 30b7 51       		.byte	0x51
 14048 30b8 62020000 		.4byte	.LVL30
 14049 30bc 66020000 		.4byte	.LVL31
 14050 30c0 1700     		.2byte	0x17
 14051 30c2 79       		.byte	0x79
 14052 30c3 00       		.sleb128 0
 14053 30c4 20       		.byte	0x20
 14054 30c5 77       		.byte	0x77
 14055 30c6 0C       		.sleb128 12
 14056 30c7 06       		.byte	0x6
 14057 30c8 21       		.byte	0x21
 14058 30c9 72       		.byte	0x72
 14059 30ca 00       		.sleb128 0
 14060 30cb 27       		.byte	0x27
 14061 30cc 7C       		.byte	0x7c
 14062 30cd 00       		.sleb128 0
 14063 30ce 22       		.byte	0x22
 14064 30cf 91       		.byte	0x91
ARM GAS  C:\Users\Phuong\AppData\Local\Temp\ccbgGR22.s 			page 259


 14065 30d0 B47F     		.sleb128 -76
 14066 30d2 06       		.byte	0x6
 14067 30d3 22       		.byte	0x22
 14068 30d4 77       		.byte	0x77
 14069 30d5 18       		.sleb128 24
 14070 30d6 06       		.byte	0x6
 14071 30d7 22       		.byte	0x22
 14072 30d8 9F       		.byte	0x9f
 14073 30d9 66020000 		.4byte	.LVL31
 14074 30dd 68020000 		.4byte	.LVL32
 14075 30e1 1A00     		.2byte	0x1a
 14076 30e3 79       		.byte	0x79
 14077 30e4 00       		.sleb128 0
 14078 30e5 20       		.byte	0x20
 14079 30e6 77       		.byte	0x77
 14080 30e7 0C       		.sleb128 12
 14081 30e8 06       		.byte	0x6
 14082 30e9 21       		.byte	0x21
 14083 30ea 72       		.byte	0x72
 14084 30eb 00       		.sleb128 0
 14085 30ec 27       		.byte	0x27
 14086 30ed 91       		.byte	0x91
 14087 30ee B47F     		.sleb128 -76
 14088 30f0 06       		.byte	0x6
 14089 30f1 22       		.byte	0x22
 14090 30f2 77       		.byte	0x77
 14091 30f3 18       		.sleb128 24
 14092 30f4 06       		.byte	0x6
 14093 30f5 22       		.byte	0x22
 14094 30f6 23       		.byte	0x23
 14095 30f7 E6978A85 		.uleb128 0x50a28be6
 14095      05
 14096 30fc 9F       		.byte	0x9f
 14097 30fd 68020000 		.4byte	.LVL32
 14098 3101 C4030000 		.4byte	.LVL85
 14099 3105 0100     		.2byte	0x1
 14100 3107 51       		.byte	0x51
 14101 3108 CA030000 		.4byte	.LVL86
 14102 310c CE030000 		.4byte	.LVL87
 14103 3110 0100     		.2byte	0x1
 14104 3112 51       		.byte	0x51
 14105 3113 D0030000 		.4byte	.LVL88
 14106 3117 76040000 		.4byte	.LVL110
 14107 311b 0100     		.2byte	0x1
 14108 311d 51       		.byte	0x51
 14109 311e 78040000 		.4byte	.LVL111
 14110 3122 7C040000 		.4byte	.LVL113
 14111 3126 0100     		.2byte	0x1
 14112 3128 51       		.byte	0x51
 14113 3129 7C040000 		.4byte	.LVL113
 14114 312d A0040000 		.4byte	.LVL120
 14115 3131 0100     		.2byte	0x1
 14116 3133 54       		.byte	0x54
 14117 3134 A0040000 		.4byte	.LVL120
 14118 3138 50050000 		.4byte	.LVL144
 14119 313c 0200     		.2byte	0x2
 14120 313e 91       		.byte	0x91
ARM GAS  C:\Users\Phuong\AppData\Local\Temp\ccbgGR22.s 			page 260


 14121 313f 4C       		.sleb128 -52
 14122 3140 50050000 		.4byte	.LVL144
 14123 3144 54050000 		.4byte	.LVL145
 14124 3148 0100     		.2byte	0x1
 14125 314a 51       		.byte	0x51
 14126 314b 54050000 		.4byte	.LVL145
 14127 314f 56050000 		.4byte	.LVL146
 14128 3153 1600     		.2byte	0x16
 14129 3155 7A       		.byte	0x7a
 14130 3156 00       		.sleb128 0
 14131 3157 20       		.byte	0x20
 14132 3158 74       		.byte	0x74
 14133 3159 00       		.sleb128 0
 14134 315a 21       		.byte	0x21
 14135 315b 70       		.byte	0x70
 14136 315c 00       		.sleb128 0
 14137 315d 27       		.byte	0x27
 14138 315e 78       		.byte	0x78
 14139 315f 00       		.sleb128 0
 14140 3160 22       		.byte	0x22
 14141 3161 91       		.byte	0x91
 14142 3162 9C7F     		.sleb128 -100
 14143 3164 06       		.byte	0x6
 14144 3165 22       		.byte	0x22
 14145 3166 91       		.byte	0x91
 14146 3167 4C       		.sleb128 -52
 14147 3168 06       		.byte	0x6
 14148 3169 22       		.byte	0x22
 14149 316a 9F       		.byte	0x9f
 14150 316b 56050000 		.4byte	.LVL146
 14151 316f E6050000 		.4byte	.LVL174
 14152 3173 0100     		.2byte	0x1
 14153 3175 51       		.byte	0x51
 14154 3176 E8050000 		.4byte	.LVL175
 14155 317a EA050000 		.4byte	.LVL176
 14156 317e 0100     		.2byte	0x1
 14157 3180 51       		.byte	0x51
 14158 3181 EA050000 		.4byte	.LVL176
 14159 3185 CA060000 		.4byte	.LVL208
 14160 3189 0100     		.2byte	0x1
 14161 318b 5A       		.byte	0x5a
 14162 318c CA060000 		.4byte	.LVL208
 14163 3190 CE060000 		.4byte	.LVL209
 14164 3194 0100     		.2byte	0x1
 14165 3196 55       		.byte	0x55
 14166 3197 CE060000 		.4byte	.LVL209
 14167 319b D0060000 		.4byte	.LVL210
 14168 319f 1800     		.2byte	0x18
 14169 31a1 74       		.byte	0x74
 14170 31a2 00       		.sleb128 0
 14171 31a3 70       		.byte	0x70
 14172 31a4 00       		.sleb128 0
 14173 31a5 27       		.byte	0x27
 14174 31a6 91       		.byte	0x91
 14175 31a7 44       		.sleb128 -60
 14176 31a8 06       		.byte	0x6
 14177 31a9 1A       		.byte	0x1a
ARM GAS  C:\Users\Phuong\AppData\Local\Temp\ccbgGR22.s 			page 261


 14178 31aa 74       		.byte	0x74
 14179 31ab 00       		.sleb128 0
 14180 31ac 27       		.byte	0x27
 14181 31ad 79       		.byte	0x79
 14182 31ae 00       		.sleb128 0
 14183 31af 22       		.byte	0x22
 14184 31b0 91       		.byte	0x91
 14185 31b1 947F     		.sleb128 -108
 14186 31b3 06       		.byte	0x6
 14187 31b4 22       		.byte	0x22
 14188 31b5 7A       		.byte	0x7a
 14189 31b6 00       		.sleb128 0
 14190 31b7 22       		.byte	0x22
 14191 31b8 9F       		.byte	0x9f
 14192 31b9 D0060000 		.4byte	.LVL210
 14193 31bd 78070000 		.4byte	.LVL236
 14194 31c1 0100     		.2byte	0x1
 14195 31c3 55       		.byte	0x55
 14196 31c4 7A070000 		.4byte	.LVL237
 14197 31c8 7C070000 		.4byte	.LVL238
 14198 31cc 0100     		.2byte	0x1
 14199 31ce 55       		.byte	0x55
 14200 31cf 7C070000 		.4byte	.LVL238
 14201 31d3 6E080000 		.4byte	.LVL275
 14202 31d7 0100     		.2byte	0x1
 14203 31d9 58       		.byte	0x58
 14204 31da 70080000 		.4byte	.LVL276
 14205 31de 74080000 		.4byte	.LVL277
 14206 31e2 0100     		.2byte	0x1
 14207 31e4 51       		.byte	0x51
 14208 31e5 7A080000 		.4byte	.LVL278
 14209 31e9 26090000 		.4byte	.LVL303
 14210 31ed 0100     		.2byte	0x1
 14211 31ef 51       		.byte	0x51
 14212 31f0 26090000 		.4byte	.LVL303
 14213 31f4 2E090000 		.4byte	.LVL304
 14214 31f8 0100     		.2byte	0x1
 14215 31fa 55       		.byte	0x55
 14216 31fb 2E090000 		.4byte	.LVL304
 14217 31ff 0C0A0000 		.4byte	.LVL340
 14218 3203 0200     		.2byte	0x2
 14219 3205 91       		.byte	0x91
 14220 3206 40       		.sleb128 -64
 14221 3207 0C0A0000 		.4byte	.LVL340
 14222 320b 100A0000 		.4byte	.LVL341
 14223 320f 0100     		.2byte	0x1
 14224 3211 51       		.byte	0x51
 14225 3212 100A0000 		.4byte	.LVL341
 14226 3216 120A0000 		.4byte	.LVL342
 14227 321a 1A00     		.2byte	0x1a
 14228 321c 74       		.byte	0x74
 14229 321d 00       		.sleb128 0
 14230 321e 91       		.byte	0x91
 14231 321f 44       		.sleb128 -60
 14232 3220 06       		.byte	0x6
 14233 3221 27       		.byte	0x27
 14234 3222 91       		.byte	0x91
ARM GAS  C:\Users\Phuong\AppData\Local\Temp\ccbgGR22.s 			page 262


 14235 3223 48       		.sleb128 -56
 14236 3224 06       		.byte	0x6
 14237 3225 1A       		.byte	0x1a
 14238 3226 74       		.byte	0x74
 14239 3227 00       		.sleb128 0
 14240 3228 27       		.byte	0x27
 14241 3229 7C       		.byte	0x7c
 14242 322a 00       		.sleb128 0
 14243 322b 22       		.byte	0x22
 14244 322c 91       		.byte	0x91
 14245 322d 9C7F     		.sleb128 -100
 14246 322f 06       		.byte	0x6
 14247 3230 22       		.byte	0x22
 14248 3231 91       		.byte	0x91
 14249 3232 40       		.sleb128 -64
 14250 3233 06       		.byte	0x6
 14251 3234 22       		.byte	0x22
 14252 3235 9F       		.byte	0x9f
 14253 3236 120A0000 		.4byte	.LVL342
 14254 323a C00A0000 		.4byte	.LVL370
 14255 323e 0100     		.2byte	0x1
 14256 3240 51       		.byte	0x51
 14257 3241 C20A0000 		.4byte	.LVL371
 14258 3245 C40A0000 		.4byte	.LVL372
 14259 3249 0100     		.2byte	0x1
 14260 324b 51       		.byte	0x51
 14261 324c C40A0000 		.4byte	.LVL372
 14262 3250 160B0000 		.4byte	.LVL383
 14263 3254 0100     		.2byte	0x1
 14264 3256 52       		.byte	0x52
 14265 3257 160B0000 		.4byte	.LVL383
 14266 325b B60B0000 		.4byte	.LVL403
 14267 325f 0200     		.2byte	0x2
 14268 3261 91       		.byte	0x91
 14269 3262 50       		.sleb128 -48
 14270 3263 B60B0000 		.4byte	.LVL403
 14271 3267 BA0B0000 		.4byte	.LVL404
 14272 326b 0100     		.2byte	0x1
 14273 326d 52       		.byte	0x52
 14274 326e BA0B0000 		.4byte	.LVL404
 14275 3272 BE0B0000 		.4byte	.LVL405
 14276 3276 1900     		.2byte	0x19
 14277 3278 79       		.byte	0x79
 14278 3279 00       		.sleb128 0
 14279 327a 71       		.byte	0x71
 14280 327b 00       		.sleb128 0
 14281 327c 27       		.byte	0x27
 14282 327d 91       		.byte	0x91
 14283 327e 44       		.sleb128 -60
 14284 327f 06       		.byte	0x6
 14285 3280 1A       		.byte	0x1a
 14286 3281 71       		.byte	0x71
 14287 3282 00       		.sleb128 0
 14288 3283 27       		.byte	0x27
 14289 3284 7A       		.byte	0x7a
 14290 3285 00       		.sleb128 0
 14291 3286 22       		.byte	0x22
ARM GAS  C:\Users\Phuong\AppData\Local\Temp\ccbgGR22.s 			page 263


 14292 3287 91       		.byte	0x91
 14293 3288 847F     		.sleb128 -124
 14294 328a 06       		.byte	0x6
 14295 328b 22       		.byte	0x22
 14296 328c 91       		.byte	0x91
 14297 328d 50       		.sleb128 -48
 14298 328e 06       		.byte	0x6
 14299 328f 22       		.byte	0x22
 14300 3290 9F       		.byte	0x9f
 14301 3291 BE0B0000 		.4byte	.LVL405
 14302 3295 CC0B0000 		.4byte	.LVL408
 14303 3299 0100     		.2byte	0x1
 14304 329b 50       		.byte	0x50
 14305 329c CC0B0000 		.4byte	.LVL408
 14306 32a0 720C0000 		.4byte	.LVL430
 14307 32a4 0200     		.2byte	0x2
 14308 32a6 91       		.byte	0x91
 14309 32a7 4C       		.sleb128 -52
 14310 32a8 720C0000 		.4byte	.LVL430
 14311 32ac 780C0000 		.4byte	.LVL431
 14312 32b0 0100     		.2byte	0x1
 14313 32b2 56       		.byte	0x56
 14314 32b3 780C0000 		.4byte	.LVL431
 14315 32b7 460D0000 		.4byte	.LVL464
 14316 32bb 0200     		.2byte	0x2
 14317 32bd 91       		.byte	0x91
 14318 32be 40       		.sleb128 -64
 14319 32bf 460D0000 		.4byte	.LVL464
 14320 32c3 4A0D0000 		.4byte	.LVL465
 14321 32c7 0100     		.2byte	0x1
 14322 32c9 51       		.byte	0x51
 14323 32ca 4A0D0000 		.4byte	.LVL465
 14324 32ce 4E0D0000 		.4byte	.LVL466
 14325 32d2 1700     		.2byte	0x17
 14326 32d4 75       		.byte	0x75
 14327 32d5 00       		.sleb128 0
 14328 32d6 20       		.byte	0x20
 14329 32d7 70       		.byte	0x70
 14330 32d8 00       		.sleb128 0
 14331 32d9 21       		.byte	0x21
 14332 32da 91       		.byte	0x91
 14333 32db 50       		.sleb128 -48
 14334 32dc 06       		.byte	0x6
 14335 32dd 27       		.byte	0x27
 14336 32de 7C       		.byte	0x7c
 14337 32df 00       		.sleb128 0
 14338 32e0 22       		.byte	0x22
 14339 32e1 91       		.byte	0x91
 14340 32e2 987F     		.sleb128 -104
 14341 32e4 06       		.byte	0x6
 14342 32e5 22       		.byte	0x22
 14343 32e6 91       		.byte	0x91
 14344 32e7 40       		.sleb128 -64
 14345 32e8 06       		.byte	0x6
 14346 32e9 22       		.byte	0x22
 14347 32ea 9F       		.byte	0x9f
 14348 32eb 4E0D0000 		.4byte	.LVL466
ARM GAS  C:\Users\Phuong\AppData\Local\Temp\ccbgGR22.s 			page 264


 14349 32ef 500D0000 		.4byte	.LVL467
 14350 32f3 1A00     		.2byte	0x1a
 14351 32f5 75       		.byte	0x75
 14352 32f6 00       		.sleb128 0
 14353 32f7 20       		.byte	0x20
 14354 32f8 70       		.byte	0x70
 14355 32f9 00       		.sleb128 0
 14356 32fa 21       		.byte	0x21
 14357 32fb 91       		.byte	0x91
 14358 32fc 50       		.sleb128 -48
 14359 32fd 06       		.byte	0x6
 14360 32fe 27       		.byte	0x27
 14361 32ff 91       		.byte	0x91
 14362 3300 987F     		.sleb128 -104
 14363 3302 06       		.byte	0x6
 14364 3303 22       		.byte	0x22
 14365 3304 91       		.byte	0x91
 14366 3305 40       		.sleb128 -64
 14367 3306 06       		.byte	0x6
 14368 3307 22       		.byte	0x22
 14369 3308 23       		.byte	0x23
 14370 3309 F3FDC0EB 		.uleb128 0x6d703ef3
 14370      06
 14371 330e 9F       		.byte	0x9f
 14372 330f 500D0000 		.4byte	.LVL467
 14373 3313 EC0E0000 		.4byte	.LVL522
 14374 3317 0100     		.2byte	0x1
 14375 3319 51       		.byte	0x51
 14376 331a F20E0000 		.4byte	.LVL523
 14377 331e F60E0000 		.4byte	.LVL524
 14378 3322 0100     		.2byte	0x1
 14379 3324 51       		.byte	0x51
 14380 3325 FE0E0000 		.4byte	.LVL525
 14381 3329 C80F0000 		.4byte	.LVL550
 14382 332d 0100     		.2byte	0x1
 14383 332f 5B       		.byte	0x5b
 14384 3330 C80F0000 		.4byte	.LVL550
 14385 3334 CA0F0000 		.4byte	.LVL551
 14386 3338 0100     		.2byte	0x1
 14387 333a 51       		.byte	0x51
 14388 333b CA0F0000 		.4byte	.LVL551
 14389 333f BE100000 		.4byte	.LVL584
 14390 3343 0100     		.2byte	0x1
 14391 3345 55       		.byte	0x55
 14392 3346 C4100000 		.4byte	.LVL585
 14393 334a C8100000 		.4byte	.LVL586
 14394 334e 0100     		.2byte	0x1
 14395 3350 55       		.byte	0x55
 14396 3351 CE100000 		.4byte	.LVL587
 14397 3355 7A110000 		.4byte	.LVL615
 14398 3359 0100     		.2byte	0x1
 14399 335b 55       		.byte	0x55
 14400 335c 7C110000 		.4byte	.LVL616
 14401 3360 D6110000 		.4byte	.LVL630
 14402 3364 0100     		.2byte	0x1
 14403 3366 50       		.byte	0x50
 14404 3367 D6110000 		.4byte	.LVL630
ARM GAS  C:\Users\Phuong\AppData\Local\Temp\ccbgGR22.s 			page 265


 14405 336b 8A120000 		.4byte	.LVL649
 14406 336f 0200     		.2byte	0x2
 14407 3371 91       		.byte	0x91
 14408 3372 50       		.sleb128 -48
 14409 3373 8A120000 		.4byte	.LVL649
 14410 3377 8E120000 		.4byte	.LVL650
 14411 337b 0100     		.2byte	0x1
 14412 337d 55       		.byte	0x55
 14413 337e 8E120000 		.4byte	.LVL650
 14414 3382 90120000 		.4byte	.LVL651
 14415 3386 0A00     		.2byte	0xa
 14416 3388 91       		.byte	0x91
 14417 3389 50       		.sleb128 -48
 14418 338a 06       		.byte	0x6
 14419 338b 71       		.byte	0x71
 14420 338c 00       		.sleb128 0
 14421 338d 22       		.byte	0x22
 14422 338e 7C       		.byte	0x7c
 14423 338f 00       		.sleb128 0
 14424 3390 22       		.byte	0x22
 14425 3391 9F       		.byte	0x9f
 14426 3392 90120000 		.4byte	.LVL651
 14427 3396 4A140000 		.4byte	.LVL706
 14428 339a 0100     		.2byte	0x1
 14429 339c 55       		.byte	0x55
 14430 339d 50140000 		.4byte	.LVL707
 14431 33a1 54140000 		.4byte	.LVL708
 14432 33a5 0100     		.2byte	0x1
 14433 33a7 55       		.byte	0x55
 14434 33a8 5A140000 		.4byte	.LVL709
 14435 33ac 1C160000 		.4byte	.LVL764
 14436 33b0 0100     		.2byte	0x1
 14437 33b2 55       		.byte	0x55
 14438 33b3 22160000 		.4byte	.LVL765
 14439 33b7 24160000 		.4byte	.LVL766
 14440 33bb 0100     		.2byte	0x1
 14441 33bd 55       		.byte	0x55
 14442 33be 28160000 		.4byte	.LVL767
 14443 33c2 EC160000 		.4byte	.LVL794
 14444 33c6 0100     		.2byte	0x1
 14445 33c8 58       		.byte	0x58
 14446 33c9 EC160000 		.4byte	.LVL794
 14447 33cd EE160000 		.4byte	.LVL795
 14448 33d1 0100     		.2byte	0x1
 14449 33d3 52       		.byte	0x52
 14450 33d4 EE160000 		.4byte	.LVL795
 14451 33d8 CC170000 		.4byte	.LVL828
 14452 33dc 0100     		.2byte	0x1
 14453 33de 58       		.byte	0x58
 14454 33df CE170000 		.4byte	.LVL829
 14455 33e3 74180000 		.4byte	.LVL853
 14456 33e7 0100     		.2byte	0x1
 14457 33e9 58       		.byte	0x58
 14458 33ea 74180000 		.4byte	.LVL853
 14459 33ee 76180000 		.4byte	.LVL854
 14460 33f2 0100     		.2byte	0x1
 14461 33f4 50       		.byte	0x50
ARM GAS  C:\Users\Phuong\AppData\Local\Temp\ccbgGR22.s 			page 266


 14462 33f5 76180000 		.4byte	.LVL854
 14463 33f9 AE180000 		.4byte	.LVL860
 14464 33fd 0100     		.2byte	0x1
 14465 33ff 51       		.byte	0x51
 14466 3400 AE180000 		.4byte	.LVL860
 14467 3404 4C190000 		.4byte	.LVL882
 14468 3408 0300     		.2byte	0x3
 14469 340a 91       		.byte	0x91
 14470 340b AC7F     		.sleb128 -84
 14471 340d 4C190000 		.4byte	.LVL882
 14472 3411 50190000 		.4byte	.LVL883
 14473 3415 0100     		.2byte	0x1
 14474 3417 51       		.byte	0x51
 14475 3418 50190000 		.4byte	.LVL883
 14476 341c 54190000 		.4byte	.LVL885
 14477 3420 1500     		.2byte	0x15
 14478 3422 7B       		.byte	0x7b
 14479 3423 00       		.sleb128 0
 14480 3424 91       		.byte	0x91
 14481 3425 8C7F     		.sleb128 -116
 14482 3427 06       		.byte	0x6
 14483 3428 27       		.byte	0x27
 14484 3429 7A       		.byte	0x7a
 14485 342a 00       		.sleb128 0
 14486 342b 27       		.byte	0x27
 14487 342c 91       		.byte	0x91
 14488 342d AC7F     		.sleb128 -84
 14489 342f 06       		.byte	0x6
 14490 3430 22       		.byte	0x22
 14491 3431 91       		.byte	0x91
 14492 3432 987F     		.sleb128 -104
 14493 3434 06       		.byte	0x6
 14494 3435 22       		.byte	0x22
 14495 3436 9F       		.byte	0x9f
 14496 3437 54190000 		.4byte	.LVL885
 14497 343b F0190000 		.4byte	.LVL910
 14498 343f 0100     		.2byte	0x1
 14499 3441 50       		.byte	0x50
 14500 3442 F0190000 		.4byte	.LVL910
 14501 3446 F4190000 		.4byte	.LVL911
 14502 344a 0100     		.2byte	0x1
 14503 344c 51       		.byte	0x51
 14504 344d F4190000 		.4byte	.LVL911
 14505 3451 CE1A0000 		.4byte	.LVL942
 14506 3455 0100     		.2byte	0x1
 14507 3457 5A       		.byte	0x5a
 14508 3458 CE1A0000 		.4byte	.LVL942
 14509 345c D21A0000 		.4byte	.LVL943
 14510 3460 0100     		.2byte	0x1
 14511 3462 50       		.byte	0x50
 14512 3463 D21A0000 		.4byte	.LVL943
 14513 3467 D81A0000 		.4byte	.LVL944
 14514 346b 1300     		.2byte	0x13
 14515 346d 71       		.byte	0x71
 14516 346e 00       		.sleb128 0
 14517 346f 91       		.byte	0x91
 14518 3470 8C7F     		.sleb128 -116
ARM GAS  C:\Users\Phuong\AppData\Local\Temp\ccbgGR22.s 			page 267


 14519 3472 06       		.byte	0x6
 14520 3473 27       		.byte	0x27
 14521 3474 78       		.byte	0x78
 14522 3475 00       		.sleb128 0
 14523 3476 27       		.byte	0x27
 14524 3477 7A       		.byte	0x7a
 14525 3478 00       		.sleb128 0
 14526 3479 22       		.byte	0x22
 14527 347a 91       		.byte	0x91
 14528 347b BC7F     		.sleb128 -68
 14529 347d 06       		.byte	0x6
 14530 347e 22       		.byte	0x22
 14531 347f 9F       		.byte	0x9f
 14532 3480 D81A0000 		.4byte	.LVL944
 14533 3484 721B0000 		.4byte	.LVL966
 14534 3488 0100     		.2byte	0x1
 14535 348a 50       		.byte	0x50
 14536 348b 721B0000 		.4byte	.LVL966
 14537 348f 861B0000 		.4byte	.LVL967
 14538 3493 0100     		.2byte	0x1
 14539 3495 55       		.byte	0x55
 14540 3496 861B0000 		.4byte	.LVL967
 14541 349a F41B0000 		.4byte	.LVL988
 14542 349e 0100     		.2byte	0x1
 14543 34a0 5B       		.byte	0x5b
 14544 34a1 00000000 		.4byte	0
 14545 34a5 00000000 		.4byte	0
 14546              	.LLST18:
 14547 34a9 00000000 		.4byte	.LVL989
 14548 34ad 05000000 		.4byte	.LVL990-1
 14549 34b1 0100     		.2byte	0x1
 14550 34b3 50       		.byte	0x50
 14551 34b4 05000000 		.4byte	.LVL990-1
 14552 34b8 08000000 		.4byte	.LFE7
 14553 34bc 0400     		.2byte	0x4
 14554 34be F3       		.byte	0xf3
 14555 34bf 01       		.uleb128 0x1
 14556 34c0 50       		.byte	0x50
 14557 34c1 9F       		.byte	0x9f
 14558 34c2 00000000 		.4byte	0
 14559 34c6 00000000 		.4byte	0
 14560              	.LLST19:
 14561 34ca 00000000 		.4byte	.LVL989
 14562 34ce 05000000 		.4byte	.LVL990-1
 14563 34d2 0100     		.2byte	0x1
 14564 34d4 51       		.byte	0x51
 14565 34d5 05000000 		.4byte	.LVL990-1
 14566 34d9 08000000 		.4byte	.LFE7
 14567 34dd 0400     		.2byte	0x4
 14568 34df F3       		.byte	0xf3
 14569 34e0 01       		.uleb128 0x1
 14570 34e1 51       		.byte	0x51
 14571 34e2 9F       		.byte	0x9f
 14572 34e3 00000000 		.4byte	0
 14573 34e7 00000000 		.4byte	0
 14574              	.LLST20:
 14575 34eb 00000000 		.4byte	.LVL991
ARM GAS  C:\Users\Phuong\AppData\Local\Temp\ccbgGR22.s 			page 268


 14576 34ef 3A000000 		.4byte	.LVL995
 14577 34f3 0100     		.2byte	0x1
 14578 34f5 50       		.byte	0x50
 14579 34f6 3A000000 		.4byte	.LVL995
 14580 34fa 74000000 		.4byte	.LVL1006
 14581 34fe 0100     		.2byte	0x1
 14582 3500 56       		.byte	0x56
 14583 3501 74000000 		.4byte	.LVL1006
 14584 3505 82000000 		.4byte	.LVL1008
 14585 3509 0300     		.2byte	0x3
 14586 350b 76       		.byte	0x76
 14587 350c 64       		.sleb128 -28
 14588 350d 9F       		.byte	0x9f
 14589 350e 82000000 		.4byte	.LVL1008
 14590 3512 84000000 		.4byte	.LVL1009
 14591 3516 0100     		.2byte	0x1
 14592 3518 50       		.byte	0x50
 14593 3519 84000000 		.4byte	.LVL1009
 14594 351d 88000000 		.4byte	.LVL1011
 14595 3521 0100     		.2byte	0x1
 14596 3523 56       		.byte	0x56
 14597 3524 88000000 		.4byte	.LVL1011
 14598 3528 90000000 		.4byte	.LFE8
 14599 352c 0400     		.2byte	0x4
 14600 352e F3       		.byte	0xf3
 14601 352f 01       		.uleb128 0x1
 14602 3530 50       		.byte	0x50
 14603 3531 9F       		.byte	0x9f
 14604 3532 00000000 		.4byte	0
 14605 3536 00000000 		.4byte	0
 14606              	.LLST21:
 14607 353a 00000000 		.4byte	.LVL991
 14608 353e 40000000 		.4byte	.LVL997
 14609 3542 0100     		.2byte	0x1
 14610 3544 51       		.byte	0x51
 14611 3545 40000000 		.4byte	.LVL997
 14612 3549 82000000 		.4byte	.LVL1008
 14613 354d 0100     		.2byte	0x1
 14614 354f 55       		.byte	0x55
 14615 3550 82000000 		.4byte	.LVL1008
 14616 3554 86000000 		.4byte	.LVL1010
 14617 3558 0100     		.2byte	0x1
 14618 355a 51       		.byte	0x51
 14619 355b 86000000 		.4byte	.LVL1010
 14620 355f 88000000 		.4byte	.LVL1013
 14621 3563 0100     		.2byte	0x1
 14622 3565 55       		.byte	0x55
 14623 3566 00000000 		.4byte	0
 14624 356a 00000000 		.4byte	0
 14625              	.LLST22:
 14626 356e 00000000 		.4byte	.LVL991
 14627 3572 18000000 		.4byte	.LVL993
 14628 3576 0100     		.2byte	0x1
 14629 3578 52       		.byte	0x52
 14630 3579 18000000 		.4byte	.LVL993
 14631 357d 82000000 		.4byte	.LVL1008
 14632 3581 0100     		.2byte	0x1
ARM GAS  C:\Users\Phuong\AppData\Local\Temp\ccbgGR22.s 			page 269


 14633 3583 54       		.byte	0x54
 14634 3584 82000000 		.4byte	.LVL1008
 14635 3588 86000000 		.4byte	.LVL1010
 14636 358c 0100     		.2byte	0x1
 14637 358e 52       		.byte	0x52
 14638 358f 86000000 		.4byte	.LVL1010
 14639 3593 88000000 		.4byte	.LVL1012
 14640 3597 0100     		.2byte	0x1
 14641 3599 54       		.byte	0x54
 14642 359a 00000000 		.4byte	0
 14643 359e 00000000 		.4byte	0
 14644              	.LLST23:
 14645 35a2 4C000000 		.4byte	.LVL999
 14646 35a6 5A000000 		.4byte	.LVL1002
 14647 35aa 0100     		.2byte	0x1
 14648 35ac 50       		.byte	0x50
 14649 35ad 62000000 		.4byte	.LVL1003
 14650 35b1 6A000000 		.4byte	.LVL1005
 14651 35b5 0100     		.2byte	0x1
 14652 35b7 50       		.byte	0x50
 14653 35b8 00000000 		.4byte	0
 14654 35bc 00000000 		.4byte	0
 14655              	.LLST24:
 14656 35c0 1C000000 		.4byte	.LVL994
 14657 35c4 3E000000 		.4byte	.LVL996
 14658 35c8 0100     		.2byte	0x1
 14659 35ca 52       		.byte	0x52
 14660 35cb 3E000000 		.4byte	.LVL996
 14661 35cf 82000000 		.4byte	.LVL1008
 14662 35d3 0100     		.2byte	0x1
 14663 35d5 58       		.byte	0x58
 14664 35d6 86000000 		.4byte	.LVL1010
 14665 35da 88000000 		.4byte	.LVL1011
 14666 35de 0100     		.2byte	0x1
 14667 35e0 58       		.byte	0x58
 14668 35e1 00000000 		.4byte	0
 14669 35e5 00000000 		.4byte	0
 14670              	.LLST25:
 14671 35e9 16000000 		.4byte	.LVL992
 14672 35ed 56000000 		.4byte	.LVL1001
 14673 35f1 0100     		.2byte	0x1
 14674 35f3 57       		.byte	0x57
 14675 35f4 56000000 		.4byte	.LVL1001
 14676 35f8 5A000000 		.4byte	.LVL1002
 14677 35fc 0200     		.2byte	0x2
 14678 35fe 30       		.byte	0x30
 14679 35ff 9F       		.byte	0x9f
 14680 3600 5A000000 		.4byte	.LVL1002
 14681 3604 82000000 		.4byte	.LVL1008
 14682 3608 0100     		.2byte	0x1
 14683 360a 57       		.byte	0x57
 14684 360b 86000000 		.4byte	.LVL1010
 14685 360f 88000000 		.4byte	.LVL1011
 14686 3613 0100     		.2byte	0x1
 14687 3615 57       		.byte	0x57
 14688 3616 00000000 		.4byte	0
 14689 361a 00000000 		.4byte	0
ARM GAS  C:\Users\Phuong\AppData\Local\Temp\ccbgGR22.s 			page 270


 14690              	.LLST26:
 14691 361e 00000000 		.4byte	.LVL1014
 14692 3622 05000000 		.4byte	.LVL1015-1
 14693 3626 0100     		.2byte	0x1
 14694 3628 50       		.byte	0x50
 14695 3629 05000000 		.4byte	.LVL1015-1
 14696 362d 08000000 		.4byte	.LFE9
 14697 3631 0400     		.2byte	0x4
 14698 3633 F3       		.byte	0xf3
 14699 3634 01       		.uleb128 0x1
 14700 3635 50       		.byte	0x50
 14701 3636 9F       		.byte	0x9f
 14702 3637 00000000 		.4byte	0
 14703 363b 00000000 		.4byte	0
 14704              	.LLST27:
 14705 363f 00000000 		.4byte	.LVL1014
 14706 3643 05000000 		.4byte	.LVL1015-1
 14707 3647 0100     		.2byte	0x1
 14708 3649 51       		.byte	0x51
 14709 364a 05000000 		.4byte	.LVL1015-1
 14710 364e 08000000 		.4byte	.LFE9
 14711 3652 0400     		.2byte	0x4
 14712 3654 F3       		.byte	0xf3
 14713 3655 01       		.uleb128 0x1
 14714 3656 51       		.byte	0x51
 14715 3657 9F       		.byte	0x9f
 14716 3658 00000000 		.4byte	0
 14717 365c 00000000 		.4byte	0
 14718              	.LLST28:
 14719 3660 00000000 		.4byte	.LVL1014
 14720 3664 05000000 		.4byte	.LVL1015-1
 14721 3668 0100     		.2byte	0x1
 14722 366a 52       		.byte	0x52
 14723 366b 05000000 		.4byte	.LVL1015-1
 14724 366f 08000000 		.4byte	.LFE9
 14725 3673 0400     		.2byte	0x4
 14726 3675 F3       		.byte	0xf3
 14727 3676 01       		.uleb128 0x1
 14728 3677 52       		.byte	0x52
 14729 3678 9F       		.byte	0x9f
 14730 3679 00000000 		.4byte	0
 14731 367d 00000000 		.4byte	0
 14732              	.LLST29:
 14733 3681 00000000 		.4byte	.LVL1016
 14734 3685 16000000 		.4byte	.LVL1020
 14735 3689 0100     		.2byte	0x1
 14736 368b 50       		.byte	0x50
 14737 368c 16000000 		.4byte	.LVL1020
 14738 3690 BC000000 		.4byte	.LVL1029
 14739 3694 0100     		.2byte	0x1
 14740 3696 54       		.byte	0x54
 14741 3697 BC000000 		.4byte	.LVL1029
 14742 369b C4000000 		.4byte	.LFE10
 14743 369f 0400     		.2byte	0x4
 14744 36a1 F3       		.byte	0xf3
 14745 36a2 01       		.uleb128 0x1
 14746 36a3 50       		.byte	0x50
ARM GAS  C:\Users\Phuong\AppData\Local\Temp\ccbgGR22.s 			page 271


 14747 36a4 9F       		.byte	0x9f
 14748 36a5 00000000 		.4byte	0
 14749 36a9 00000000 		.4byte	0
 14750              	.LLST30:
 14751 36ad 00000000 		.4byte	.LVL1016
 14752 36b1 0A000000 		.4byte	.LVL1017
 14753 36b5 0100     		.2byte	0x1
 14754 36b7 51       		.byte	0x51
 14755 36b8 0A000000 		.4byte	.LVL1017
 14756 36bc BC000000 		.4byte	.LVL1030
 14757 36c0 0100     		.2byte	0x1
 14758 36c2 55       		.byte	0x55
 14759 36c3 BC000000 		.4byte	.LVL1030
 14760 36c7 C4000000 		.4byte	.LFE10
 14761 36cb 0400     		.2byte	0x4
 14762 36cd F3       		.byte	0xf3
 14763 36ce 01       		.uleb128 0x1
 14764 36cf 51       		.byte	0x51
 14765 36d0 9F       		.byte	0x9f
 14766 36d1 00000000 		.4byte	0
 14767 36d5 00000000 		.4byte	0
 14768              	.LLST31:
 14769 36d9 4E000000 		.4byte	.LVL1026
 14770 36dd 58000000 		.4byte	.LVL1027
 14771 36e1 0100     		.2byte	0x1
 14772 36e3 50       		.byte	0x50
 14773 36e4 5C000000 		.4byte	.LVL1028
 14774 36e8 C4000000 		.4byte	.LFE10
 14775 36ec 0100     		.2byte	0x1
 14776 36ee 50       		.byte	0x50
 14777 36ef 00000000 		.4byte	0
 14778 36f3 00000000 		.4byte	0
 14779              	.LLST32:
 14780 36f7 38000000 		.4byte	.LVL1023
 14781 36fb 48000000 		.4byte	.LVL1025
 14782 36ff 0100     		.2byte	0x1
 14783 3701 51       		.byte	0x51
 14784 3702 00000000 		.4byte	0
 14785 3706 00000000 		.4byte	0
 14786              	.LLST33:
 14787 370a 46000000 		.4byte	.LVL1024
 14788 370e 4D000000 		.4byte	.LVL1026-1
 14789 3712 0100     		.2byte	0x1
 14790 3714 52       		.byte	0x52
 14791 3715 00000000 		.4byte	0
 14792 3719 00000000 		.4byte	0
 14793              	.LLST34:
 14794 371d 12000000 		.4byte	.LVL1018
 14795 3721 32000000 		.4byte	.LVL1022
 14796 3725 0100     		.2byte	0x1
 14797 3727 53       		.byte	0x53
 14798 3728 00000000 		.4byte	0
 14799 372c 00000000 		.4byte	0
 14800              	.LLST35:
 14801 3730 14000000 		.4byte	.LVL1019
 14802 3734 24000000 		.4byte	.LVL1021
 14803 3738 0100     		.2byte	0x1
ARM GAS  C:\Users\Phuong\AppData\Local\Temp\ccbgGR22.s 			page 272


 14804 373a 52       		.byte	0x52
 14805 373b 24000000 		.4byte	.LVL1021
 14806 373f 38000000 		.4byte	.LVL1023
 14807 3743 0500     		.2byte	0x5
 14808 3745 71       		.byte	0x71
 14809 3746 00       		.sleb128 0
 14810 3747 33       		.byte	0x33
 14811 3748 24       		.byte	0x24
 14812 3749 9F       		.byte	0x9f
 14813 374a 00000000 		.4byte	0
 14814 374e 00000000 		.4byte	0
 14815              	.LLST36:
 14816 3752 00000000 		.4byte	.LVL1031
 14817 3756 05000000 		.4byte	.LVL1032-1
 14818 375a 0100     		.2byte	0x1
 14819 375c 50       		.byte	0x50
 14820 375d 05000000 		.4byte	.LVL1032-1
 14821 3761 08000000 		.4byte	.LFE11
 14822 3765 0400     		.2byte	0x4
 14823 3767 F3       		.byte	0xf3
 14824 3768 01       		.uleb128 0x1
 14825 3769 50       		.byte	0x50
 14826 376a 9F       		.byte	0x9f
 14827 376b 00000000 		.4byte	0
 14828 376f 00000000 		.4byte	0
 14829              	.LLST37:
 14830 3773 00000000 		.4byte	.LVL1031
 14831 3777 05000000 		.4byte	.LVL1032-1
 14832 377b 0100     		.2byte	0x1
 14833 377d 51       		.byte	0x51
 14834 377e 05000000 		.4byte	.LVL1032-1
 14835 3782 08000000 		.4byte	.LFE11
 14836 3786 0400     		.2byte	0x4
 14837 3788 F3       		.byte	0xf3
 14838 3789 01       		.uleb128 0x1
 14839 378a 51       		.byte	0x51
 14840 378b 9F       		.byte	0x9f
 14841 378c 00000000 		.4byte	0
 14842 3790 00000000 		.4byte	0
 14843              	.LLST38:
 14844 3794 00000000 		.4byte	.LVL1033
 14845 3798 0C000000 		.4byte	.LVL1034
 14846 379c 0100     		.2byte	0x1
 14847 379e 50       		.byte	0x50
 14848 379f 0C000000 		.4byte	.LVL1034
 14849 37a3 3C000000 		.4byte	.LVL1047
 14850 37a7 0100     		.2byte	0x1
 14851 37a9 55       		.byte	0x55
 14852 37aa 3C000000 		.4byte	.LVL1047
 14853 37ae 3E000000 		.4byte	.LFE12
 14854 37b2 0400     		.2byte	0x4
 14855 37b4 F3       		.byte	0xf3
 14856 37b5 01       		.uleb128 0x1
 14857 37b6 50       		.byte	0x50
 14858 37b7 9F       		.byte	0x9f
 14859 37b8 00000000 		.4byte	0
 14860 37bc 00000000 		.4byte	0
ARM GAS  C:\Users\Phuong\AppData\Local\Temp\ccbgGR22.s 			page 273


 14861              	.LLST39:
 14862 37c0 00000000 		.4byte	.LVL1033
 14863 37c4 0F000000 		.4byte	.LVL1035-1
 14864 37c8 0100     		.2byte	0x1
 14865 37ca 51       		.byte	0x51
 14866 37cb 0F000000 		.4byte	.LVL1035-1
 14867 37cf 3C000000 		.4byte	.LVL1048
 14868 37d3 0100     		.2byte	0x1
 14869 37d5 56       		.byte	0x56
 14870 37d6 3C000000 		.4byte	.LVL1048
 14871 37da 3E000000 		.4byte	.LFE12
 14872 37de 0400     		.2byte	0x4
 14873 37e0 F3       		.byte	0xf3
 14874 37e1 01       		.uleb128 0x1
 14875 37e2 51       		.byte	0x51
 14876 37e3 9F       		.byte	0x9f
 14877 37e4 00000000 		.4byte	0
 14878 37e8 00000000 		.4byte	0
 14879              	.LLST40:
 14880 37ec 00000000 		.4byte	.LVL1033
 14881 37f0 0F000000 		.4byte	.LVL1035-1
 14882 37f4 0100     		.2byte	0x1
 14883 37f6 52       		.byte	0x52
 14884 37f7 0F000000 		.4byte	.LVL1035-1
 14885 37fb 3C000000 		.4byte	.LVL1049
 14886 37ff 0100     		.2byte	0x1
 14887 3801 57       		.byte	0x57
 14888 3802 3C000000 		.4byte	.LVL1049
 14889 3806 3E000000 		.4byte	.LFE12
 14890 380a 0400     		.2byte	0x4
 14891 380c F3       		.byte	0xf3
 14892 380d 01       		.uleb128 0x1
 14893 380e 52       		.byte	0x52
 14894 380f 9F       		.byte	0x9f
 14895 3810 00000000 		.4byte	0
 14896 3814 00000000 		.4byte	0
 14897              	.LLST41:
 14898 3818 18000000 		.4byte	.LVL1037
 14899 381c 20000000 		.4byte	.LVL1038
 14900 3820 0100     		.2byte	0x1
 14901 3822 50       		.byte	0x50
 14902 3823 20000000 		.4byte	.LVL1038
 14903 3827 26000000 		.4byte	.LVL1040
 14904 382b 0100     		.2byte	0x1
 14905 382d 54       		.byte	0x54
 14906 382e 26000000 		.4byte	.LVL1040
 14907 3832 2C000000 		.4byte	.LVL1041
 14908 3836 0100     		.2byte	0x1
 14909 3838 50       		.byte	0x50
 14910 3839 2C000000 		.4byte	.LVL1041
 14911 383d 32000000 		.4byte	.LVL1043
 14912 3841 0100     		.2byte	0x1
 14913 3843 54       		.byte	0x54
 14914 3844 32000000 		.4byte	.LVL1043
 14915 3848 34000000 		.4byte	.LVL1044
 14916 384c 0100     		.2byte	0x1
 14917 384e 50       		.byte	0x50
ARM GAS  C:\Users\Phuong\AppData\Local\Temp\ccbgGR22.s 			page 274


 14918 384f 34000000 		.4byte	.LVL1044
 14919 3853 3C000000 		.4byte	.LVL1046
 14920 3857 0100     		.2byte	0x1
 14921 3859 54       		.byte	0x54
 14922 385a 3C000000 		.4byte	.LVL1046
 14923 385e 3E000000 		.4byte	.LFE12
 14924 3862 0100     		.2byte	0x1
 14925 3864 50       		.byte	0x50
 14926 3865 00000000 		.4byte	0
 14927 3869 00000000 		.4byte	0
 14928              	.LLST42:
 14929 386d 00000000 		.4byte	.LVL1050
 14930 3871 05000000 		.4byte	.LVL1051-1
 14931 3875 0100     		.2byte	0x1
 14932 3877 50       		.byte	0x50
 14933 3878 05000000 		.4byte	.LVL1051-1
 14934 387c 08000000 		.4byte	.LFE13
 14935 3880 0400     		.2byte	0x4
 14936 3882 F3       		.byte	0xf3
 14937 3883 01       		.uleb128 0x1
 14938 3884 50       		.byte	0x50
 14939 3885 9F       		.byte	0x9f
 14940 3886 00000000 		.4byte	0
 14941 388a 00000000 		.4byte	0
 14942              	.LLST43:
 14943 388e 00000000 		.4byte	.LVL1050
 14944 3892 05000000 		.4byte	.LVL1051-1
 14945 3896 0100     		.2byte	0x1
 14946 3898 51       		.byte	0x51
 14947 3899 05000000 		.4byte	.LVL1051-1
 14948 389d 08000000 		.4byte	.LFE13
 14949 38a1 0400     		.2byte	0x4
 14950 38a3 F3       		.byte	0xf3
 14951 38a4 01       		.uleb128 0x1
 14952 38a5 51       		.byte	0x51
 14953 38a6 9F       		.byte	0x9f
 14954 38a7 00000000 		.4byte	0
 14955 38ab 00000000 		.4byte	0
 14956              	.LLST44:
 14957 38af 00000000 		.4byte	.LVL1050
 14958 38b3 05000000 		.4byte	.LVL1051-1
 14959 38b7 0100     		.2byte	0x1
 14960 38b9 52       		.byte	0x52
 14961 38ba 05000000 		.4byte	.LVL1051-1
 14962 38be 08000000 		.4byte	.LFE13
 14963 38c2 0400     		.2byte	0x4
 14964 38c4 F3       		.byte	0xf3
 14965 38c5 01       		.uleb128 0x1
 14966 38c6 52       		.byte	0x52
 14967 38c7 9F       		.byte	0x9f
 14968 38c8 00000000 		.4byte	0
 14969 38cc 00000000 		.4byte	0
 14970              	.LLST45:
 14971 38d0 00000000 		.4byte	.LVL1052
 14972 38d4 0C000000 		.4byte	.LVL1054
 14973 38d8 0100     		.2byte	0x1
 14974 38da 50       		.byte	0x50
ARM GAS  C:\Users\Phuong\AppData\Local\Temp\ccbgGR22.s 			page 275


 14975 38db 0C000000 		.4byte	.LVL1054
 14976 38df 8E000000 		.4byte	.LVL1072
 14977 38e3 0100     		.2byte	0x1
 14978 38e5 55       		.byte	0x55
 14979 38e6 8E000000 		.4byte	.LVL1072
 14980 38ea A4000000 		.4byte	.LFE14
 14981 38ee 0400     		.2byte	0x4
 14982 38f0 F3       		.byte	0xf3
 14983 38f1 01       		.uleb128 0x1
 14984 38f2 50       		.byte	0x50
 14985 38f3 9F       		.byte	0x9f
 14986 38f4 00000000 		.4byte	0
 14987 38f8 00000000 		.4byte	0
 14988              	.LLST46:
 14989 38fc 10000000 		.4byte	.LVL1055
 14990 3900 14000000 		.4byte	.LVL1056
 14991 3904 0200     		.2byte	0x2
 14992 3906 30       		.byte	0x30
 14993 3907 9F       		.byte	0x9f
 14994 3908 14000000 		.4byte	.LVL1056
 14995 390c 8E000000 		.4byte	.LVL1071
 14996 3910 0100     		.2byte	0x1
 14997 3912 54       		.byte	0x54
 14998 3913 00000000 		.4byte	0
 14999 3917 00000000 		.4byte	0
 15000              	.LLST47:
 15001 391b 06000000 		.4byte	.LVL1053
 15002 391f 14000000 		.4byte	.LVL1056
 15003 3923 0200     		.2byte	0x2
 15004 3925 30       		.byte	0x30
 15005 3926 9F       		.byte	0x9f
 15006 3927 3E000000 		.4byte	.LVL1059
 15007 392b 50000000 		.4byte	.LVL1060
 15008 392f 0100     		.2byte	0x1
 15009 3931 50       		.byte	0x50
 15010 3932 50000000 		.4byte	.LVL1060
 15011 3936 64000000 		.4byte	.LVL1063
 15012 393a 0100     		.2byte	0x1
 15013 393c 56       		.byte	0x56
 15014 393d 76000000 		.4byte	.LVL1065
 15015 3941 86000000 		.4byte	.LVL1068
 15016 3945 0100     		.2byte	0x1
 15017 3947 56       		.byte	0x56
 15018 3948 8A000000 		.4byte	.LVL1069
 15019 394c 8C000000 		.4byte	.LVL1070
 15020 3950 0100     		.2byte	0x1
 15021 3952 56       		.byte	0x56
 15022 3953 00000000 		.4byte	0
 15023 3957 00000000 		.4byte	0
 15024              		.section	.debug_aranges,"",%progbits
 15025 0000 84000000 		.4byte	0x84
 15026 0004 0200     		.2byte	0x2
 15027 0006 00000000 		.4byte	.Ldebug_info0
 15028 000a 04       		.byte	0x4
 15029 000b 00       		.byte	0
 15030 000c 0000     		.2byte	0
 15031 000e 0000     		.2byte	0
ARM GAS  C:\Users\Phuong\AppData\Local\Temp\ccbgGR22.s 			page 276


 15032 0010 00000000 		.4byte	.LFB1
 15033 0014 0C000000 		.4byte	.LFE1-.LFB1
 15034 0018 00000000 		.4byte	.LFB2
 15035 001c 0E000000 		.4byte	.LFE2-.LFB2
 15036 0020 00000000 		.4byte	.LFB3
 15037 0024 0A000000 		.4byte	.LFE3-.LFB3
 15038 0028 00000000 		.4byte	.LFB4
 15039 002c 34000000 		.4byte	.LFE4-.LFB4
 15040 0030 00000000 		.4byte	.LFB5
 15041 0034 08000000 		.4byte	.LFE5-.LFB5
 15042 0038 00000000 		.4byte	.LFB6
 15043 003c 041C0000 		.4byte	.LFE6-.LFB6
 15044 0040 00000000 		.4byte	.LFB7
 15045 0044 08000000 		.4byte	.LFE7-.LFB7
 15046 0048 00000000 		.4byte	.LFB8
 15047 004c 90000000 		.4byte	.LFE8-.LFB8
 15048 0050 00000000 		.4byte	.LFB9
 15049 0054 08000000 		.4byte	.LFE9-.LFB9
 15050 0058 00000000 		.4byte	.LFB10
 15051 005c C4000000 		.4byte	.LFE10-.LFB10
 15052 0060 00000000 		.4byte	.LFB11
 15053 0064 08000000 		.4byte	.LFE11-.LFB11
 15054 0068 00000000 		.4byte	.LFB12
 15055 006c 3E000000 		.4byte	.LFE12-.LFB12
 15056 0070 00000000 		.4byte	.LFB13
 15057 0074 08000000 		.4byte	.LFE13-.LFB13
 15058 0078 00000000 		.4byte	.LFB14
 15059 007c A4000000 		.4byte	.LFE14-.LFB14
 15060 0080 00000000 		.4byte	0
 15061 0084 00000000 		.4byte	0
 15062              		.section	.debug_ranges,"",%progbits
 15063              	.Ldebug_ranges0:
 15064 0000 00000000 		.4byte	.LFB1
 15065 0004 0C000000 		.4byte	.LFE1
 15066 0008 00000000 		.4byte	.LFB2
 15067 000c 0E000000 		.4byte	.LFE2
 15068 0010 00000000 		.4byte	.LFB3
 15069 0014 0A000000 		.4byte	.LFE3
 15070 0018 00000000 		.4byte	.LFB4
 15071 001c 34000000 		.4byte	.LFE4
 15072 0020 00000000 		.4byte	.LFB5
 15073 0024 08000000 		.4byte	.LFE5
 15074 0028 00000000 		.4byte	.LFB6
 15075 002c 041C0000 		.4byte	.LFE6
 15076 0030 00000000 		.4byte	.LFB7
 15077 0034 08000000 		.4byte	.LFE7
 15078 0038 00000000 		.4byte	.LFB8
 15079 003c 90000000 		.4byte	.LFE8
 15080 0040 00000000 		.4byte	.LFB9
 15081 0044 08000000 		.4byte	.LFE9
 15082 0048 00000000 		.4byte	.LFB10
 15083 004c C4000000 		.4byte	.LFE10
 15084 0050 00000000 		.4byte	.LFB11
 15085 0054 08000000 		.4byte	.LFE11
 15086 0058 00000000 		.4byte	.LFB12
 15087 005c 3E000000 		.4byte	.LFE12
 15088 0060 00000000 		.4byte	.LFB13
ARM GAS  C:\Users\Phuong\AppData\Local\Temp\ccbgGR22.s 			page 277


 15089 0064 08000000 		.4byte	.LFE13
 15090 0068 00000000 		.4byte	.LFB14
 15091 006c A4000000 		.4byte	.LFE14
 15092 0070 00000000 		.4byte	0
 15093 0074 00000000 		.4byte	0
 15094              		.section	.debug_line,"",%progbits
 15095              	.Ldebug_line0:
 15096 0000 1C050000 		.section	.debug_str,"MS",%progbits,1
 15096      02009202 
 15096      00000201 
 15096      FB0E0D00 
 15096      01010101 
 15097              	.LASF53:
 15098 0000 7072696E 		.ascii	"printf\000"
 15098      746600
 15099              	.LASF17:
 15100 0007 6D626564 		.ascii	"mbedtls_ripemd160_context\000"
 15100      746C735F 
 15100      72697065 
 15100      6D643136 
 15100      305F636F 
 15101              	.LASF10:
 15102 0021 73697A65 		.ascii	"size_t\000"
 15102      5F7400
 15103              	.LASF7:
 15104 0028 6C6F6E67 		.ascii	"long long unsigned int\000"
 15104      206C6F6E 
 15104      6720756E 
 15104      7369676E 
 15104      65642069 
 15105              	.LASF23:
 15106 003f 6D626564 		.ascii	"mbedtls_ripemd160_starts_ret\000"
 15106      746C735F 
 15106      72697065 
 15106      6D643136 
 15106      305F7374 
 15107              	.LASF33:
 15108 005c 6D626564 		.ascii	"mbedtls_ripemd160_finish_ret\000"
 15108      746C735F 
 15108      72697065 
 15108      6D643136 
 15108      305F6669 
 15109              	.LASF24:
 15110 0079 6D626564 		.ascii	"mbedtls_internal_ripemd160_process\000"
 15110      746C735F 
 15110      696E7465 
 15110      726E616C 
 15110      5F726970 
 15111              	.LASF6:
 15112 009c 6C6F6E67 		.ascii	"long long int\000"
 15112      206C6F6E 
 15112      6720696E 
 15112      7400
 15113              	.LASF0:
 15114 00aa 7369676E 		.ascii	"signed char\000"
 15114      65642063 
 15114      68617200 
ARM GAS  C:\Users\Phuong\AppData\Local\Temp\ccbgGR22.s 			page 278


 15115              	.LASF19:
 15116 00b6 6D626564 		.ascii	"mbedtls_ripemd160_init\000"
 15116      746C735F 
 15116      72697065 
 15116      6D643136 
 15116      305F696E 
 15117              	.LASF14:
 15118 00cd 73746174 		.ascii	"state\000"
 15118      6500
 15119              	.LASF4:
 15120 00d3 6C6F6E67 		.ascii	"long int\000"
 15120      20696E74 
 15120      00
 15121              	.LASF20:
 15122 00dc 6D626564 		.ascii	"mbedtls_ripemd160_free\000"
 15122      746C735F 
 15122      72697065 
 15122      6D643136 
 15122      305F6672 
 15123              	.LASF57:
 15124 00f3 5F5F6275 		.ascii	"__builtin_puts\000"
 15124      696C7469 
 15124      6E5F7075 
 15124      747300
 15125              	.LASF51:
 15126 0102 6D656D63 		.ascii	"memcpy\000"
 15126      707900
 15127              	.LASF56:
 15128 0109 70757463 		.ascii	"putchar\000"
 15128      68617200 
 15129              	.LASF32:
 15130 0111 6D626564 		.ascii	"mbedtls_ripemd160_update\000"
 15130      746C735F 
 15130      72697065 
 15130      6D643136 
 15130      305F7570 
 15131              	.LASF41:
 15132 012a 6D626564 		.ascii	"mbedtls_ripemd160\000"
 15132      746C735F 
 15132      72697065 
 15132      6D643136 
 15132      3000
 15133              	.LASF9:
 15134 013c 5F5F7569 		.ascii	"__uint32_t\000"
 15134      6E743332 
 15134      5F7400
 15135              	.LASF8:
 15136 0147 756E7369 		.ascii	"unsigned int\000"
 15136      676E6564 
 15136      20696E74 
 15136      00
 15137              	.LASF5:
 15138 0154 6C6F6E67 		.ascii	"long unsigned int\000"
 15138      20756E73 
 15138      69676E65 
 15138      6420696E 
 15138      7400
ARM GAS  C:\Users\Phuong\AppData\Local\Temp\ccbgGR22.s 			page 279


 15139              	.LASF21:
 15140 0166 6D626564 		.ascii	"mbedtls_ripemd160_clone\000"
 15140      746C735F 
 15140      72697065 
 15140      6D643136 
 15140      305F636C 
 15141              	.LASF58:
 15142 017e 5F5F6275 		.ascii	"__builtin_putchar\000"
 15142      696C7469 
 15142      6E5F7075 
 15142      74636861 
 15142      7200
 15143              	.LASF25:
 15144 0190 64617461 		.ascii	"data\000"
 15144      00
 15145              	.LASF3:
 15146 0195 73686F72 		.ascii	"short unsigned int\000"
 15146      7420756E 
 15146      7369676E 
 15146      65642069 
 15146      6E7400
 15147              	.LASF27:
 15148 01a8 6D626564 		.ascii	"mbedtls_ripemd160_update_ret\000"
 15148      746C735F 
 15148      72697065 
 15148      6D643136 
 15148      305F7570 
 15149              	.LASF35:
 15150 01c5 6C617374 		.ascii	"last\000"
 15150      00
 15151              	.LASF13:
 15152 01ca 746F7461 		.ascii	"total\000"
 15152      6C00
 15153              	.LASF34:
 15154 01d0 6F757470 		.ascii	"output\000"
 15154      757400
 15155              	.LASF22:
 15156 01d7 6D626564 		.ascii	"mbedtls_ripemd160_starts\000"
 15156      746C735F 
 15156      72697065 
 15156      6D643136 
 15156      305F7374 
 15157              	.LASF16:
 15158 01f0 73697A65 		.ascii	"sizetype\000"
 15158      74797065 
 15158      00
 15159              	.LASF46:
 15160 01f9 72697065 		.ascii	"ripemd160_padding\000"
 15160      6D643136 
 15160      305F7061 
 15160      6464696E 
 15160      6700
 15161              	.LASF11:
 15162 020b 6C6F6E67 		.ascii	"long double\000"
 15162      20646F75 
 15162      626C6500 
 15163              	.LASF26:
ARM GAS  C:\Users\Phuong\AppData\Local\Temp\ccbgGR22.s 			page 280


 15164 0217 6D626564 		.ascii	"mbedtls_ripemd160_process\000"
 15164      746C735F 
 15164      72697065 
 15164      6D643136 
 15164      305F7072 
 15165              	.LASF61:
 15166 0231 433A5C55 		.ascii	"C:\\Users\\Phuong\\Documents\\PSoC Creator\\Dec0820"
 15166      73657273 
 15166      5C506875 
 15166      6F6E675C 
 15166      446F6375 
 15167 025f 31385C69 		.ascii	"18\\iot-sdk-iot-dev\\PSOC6_FreeRTOS+LwIP+MbedTLS_Az"
 15167      6F742D73 
 15167      646B2D69 
 15167      6F742D64 
 15167      65765C50 
 15168 0290 7572652D 		.ascii	"ure-IOT-Hub-Demo\\PSOC6_FreeRTOS+LwIP+MbedTLS_Azure"
 15168      494F542D 
 15168      4875622D 
 15168      44656D6F 
 15168      5C50534F 
 15169 02c2 2D494F54 		.ascii	"-IOT-Hub-Demo.cydsn\000"
 15169      2D487562 
 15169      2D44656D 
 15169      6F2E6379 
 15169      64736E00 
 15170              	.LASF38:
 15171 02d6 6D73676C 		.ascii	"msglen\000"
 15171      656E00
 15172              	.LASF1:
 15173 02dd 756E7369 		.ascii	"unsigned char\000"
 15173      676E6564 
 15173      20636861 
 15173      7200
 15174              	.LASF2:
 15175 02eb 73686F72 		.ascii	"short int\000"
 15175      7420696E 
 15175      7400
 15176              	.LASF50:
 15177 02f5 6D656D73 		.ascii	"memset\000"
 15177      657400
 15178              	.LASF30:
 15179 02fc 66696C6C 		.ascii	"fill\000"
 15179      00
 15180              	.LASF49:
 15181 0301 72697065 		.ascii	"ripemd160_test_md\000"
 15181      6D643136 
 15181      305F7465 
 15181      73745F6D 
 15181      6400
 15182              	.LASF44:
 15183 0313 65786974 		.ascii	"exit\000"
 15183      00
 15184              	.LASF28:
 15185 0318 696E7075 		.ascii	"input\000"
 15185      7400
 15186              	.LASF12:
ARM GAS  C:\Users\Phuong\AppData\Local\Temp\ccbgGR22.s 			page 281


 15187 031e 75696E74 		.ascii	"uint32_t\000"
 15187      33325F74 
 15187      00
 15188              	.LASF45:
 15189 0327 6661696C 		.ascii	"fail\000"
 15189      00
 15190              	.LASF59:
 15191 032c 474E5520 		.ascii	"GNU C11 5.4.1 20160609 (release) [ARM/embedded-5-br"
 15191      43313120 
 15191      352E342E 
 15191      31203230 
 15191      31363036 
 15192 035f 616E6368 		.ascii	"anch revision 237715] -mcpu=cortex-m0plus -mthumb -"
 15192      20726576 
 15192      6973696F 
 15192      6E203233 
 15192      37373135 
 15193 0392 67202D4F 		.ascii	"g -Og -ffunction-sections -ffat-lto-objects\000"
 15193      67202D66 
 15193      66756E63 
 15193      74696F6E 
 15193      2D736563 
 15194              	.LASF18:
 15195 03be 63686172 		.ascii	"char\000"
 15195      00
 15196              	.LASF52:
 15197 03c3 6D626564 		.ascii	"mbedtls_platform_zeroize\000"
 15197      746C735F 
 15197      706C6174 
 15197      666F726D 
 15197      5F7A6572 
 15198              	.LASF43:
 15199 03dc 76657262 		.ascii	"verbose\000"
 15199      6F736500 
 15200              	.LASF15:
 15201 03e4 62756666 		.ascii	"buffer\000"
 15201      657200
 15202              	.LASF37:
 15203 03eb 68696768 		.ascii	"high\000"
 15203      00
 15204              	.LASF54:
 15205 03f0 6D656D63 		.ascii	"memcmp\000"
 15205      6D7000
 15206              	.LASF39:
 15207 03f7 6D626564 		.ascii	"mbedtls_ripemd160_finish\000"
 15207      746C735F 
 15207      72697065 
 15207      6D643136 
 15207      305F6669 
 15208              	.LASF47:
 15209 0410 72697065 		.ascii	"ripemd160_test_str\000"
 15209      6D643136 
 15209      305F7465 
 15209      73745F73 
 15209      747200
 15210              	.LASF48:
 15211 0423 72697065 		.ascii	"ripemd160_test_strlen\000"
ARM GAS  C:\Users\Phuong\AppData\Local\Temp\ccbgGR22.s 			page 282


 15211      6D643136 
 15211      305F7465 
 15211      73745F73 
 15211      74726C65 
 15212              	.LASF29:
 15213 0439 696C656E 		.ascii	"ilen\000"
 15213      00
 15214              	.LASF60:
 15215 043e 536F7572 		.ascii	"Source\\mbedtls_open\\library\\ripemd160.c\000"
 15215      63655C6D 
 15215      62656474 
 15215      6C735F6F 
 15215      70656E5C 
 15216              	.LASF55:
 15217 0466 70757473 		.ascii	"puts\000"
 15217      00
 15218              	.LASF31:
 15219 046b 6C656674 		.ascii	"left\000"
 15219      00
 15220              	.LASF36:
 15221 0470 7061646E 		.ascii	"padn\000"
 15221      00
 15222              	.LASF42:
 15223 0475 6D626564 		.ascii	"mbedtls_ripemd160_self_test\000"
 15223      746C735F 
 15223      72697065 
 15223      6D643136 
 15223      305F7365 
 15224              	.LASF40:
 15225 0491 6D626564 		.ascii	"mbedtls_ripemd160_ret\000"
 15225      746C735F 
 15225      72697065 
 15225      6D643136 
 15225      305F7265 
 15226              		.ident	"GCC: (GNU Tools for ARM Embedded Processors) 5.4.1 20160609 (release) [ARM/embedded-5-bran
