ARM GAS  C:\Users\Phuong\AppData\Local\Temp\ccbgGR22.s 			page 1


   1              		.syntax unified
   2              		.cpu cortex-m0plus
   3              		.fpu softvfp
   4              		.eabi_attribute 20, 1
   5              		.eabi_attribute 21, 1
   6              		.eabi_attribute 23, 3
   7              		.eabi_attribute 24, 1
   8              		.eabi_attribute 25, 1
   9              		.eabi_attribute 26, 1
  10              		.eabi_attribute 30, 1
  11              		.eabi_attribute 34, 0
  12              		.eabi_attribute 18, 4
  13              		.thumb
  14              		.syntax unified
  15              		.file	"ripemd160.c"
  16              		.text
  17              	.Ltext0:
  18              		.cfi_sections	.debug_frame
  19              		.section	.text.mbedtls_ripemd160_init,"ax",%progbits
  20              		.align	2
  21              		.global	mbedtls_ripemd160_init
  22              		.code	16
  23              		.thumb_func
  24              		.type	mbedtls_ripemd160_init, %function
  25              	mbedtls_ripemd160_init:
  26              	.LFB1:
  27              		.file 1 "Source\\mbedtls_open\\library\\ripemd160.c"
   1:Source\mbedtls_open\library/ripemd160.c **** /*
   2:Source\mbedtls_open\library/ripemd160.c ****  *  RIPE MD-160 implementation
   3:Source\mbedtls_open\library/ripemd160.c ****  *
   4:Source\mbedtls_open\library/ripemd160.c ****  *  Copyright (C) 2006-2015, ARM Limited, All Rights Reserved
   5:Source\mbedtls_open\library/ripemd160.c ****  *  SPDX-License-Identifier: Apache-2.0
   6:Source\mbedtls_open\library/ripemd160.c ****  *
   7:Source\mbedtls_open\library/ripemd160.c ****  *  Licensed under the Apache License, Version 2.0 (the "License"); you may
   8:Source\mbedtls_open\library/ripemd160.c ****  *  not use this file except in compliance with the License.
   9:Source\mbedtls_open\library/ripemd160.c ****  *  You may obtain a copy of the License at
  10:Source\mbedtls_open\library/ripemd160.c ****  *
  11:Source\mbedtls_open\library/ripemd160.c ****  *  http://www.apache.org/licenses/LICENSE-2.0
  12:Source\mbedtls_open\library/ripemd160.c ****  *
  13:Source\mbedtls_open\library/ripemd160.c ****  *  Unless required by applicable law or agreed to in writing, software
  14:Source\mbedtls_open\library/ripemd160.c ****  *  distributed under the License is distributed on an "AS IS" BASIS, WITHOUT
  15:Source\mbedtls_open\library/ripemd160.c ****  *  WARRANTIES OR CONDITIONS OF ANY KIND, either express or implied.
  16:Source\mbedtls_open\library/ripemd160.c ****  *  See the License for the specific language governing permissions and
  17:Source\mbedtls_open\library/ripemd160.c ****  *  limitations under the License.
  18:Source\mbedtls_open\library/ripemd160.c ****  *
  19:Source\mbedtls_open\library/ripemd160.c ****  *  This file is part of mbed TLS (https://tls.mbed.org)
  20:Source\mbedtls_open\library/ripemd160.c ****  */
  21:Source\mbedtls_open\library/ripemd160.c **** 
  22:Source\mbedtls_open\library/ripemd160.c **** /*
  23:Source\mbedtls_open\library/ripemd160.c ****  *  The RIPEMD-160 algorithm was designed by RIPE in 1996
  24:Source\mbedtls_open\library/ripemd160.c ****  *  http://homes.esat.kuleuven.be/~bosselae/mbedtls_ripemd160.html
  25:Source\mbedtls_open\library/ripemd160.c ****  *  http://ehash.iaik.tugraz.at/wiki/RIPEMD-160
  26:Source\mbedtls_open\library/ripemd160.c ****  */
  27:Source\mbedtls_open\library/ripemd160.c **** 
  28:Source\mbedtls_open\library/ripemd160.c **** #if !defined(MBEDTLS_CONFIG_FILE)
  29:Source\mbedtls_open\library/ripemd160.c **** #include "mbedtls/config.h"
  30:Source\mbedtls_open\library/ripemd160.c **** #else
ARM GAS  C:\Users\Phuong\AppData\Local\Temp\ccbgGR22.s 			page 2


  31:Source\mbedtls_open\library/ripemd160.c **** #include MBEDTLS_CONFIG_FILE
  32:Source\mbedtls_open\library/ripemd160.c **** #endif
  33:Source\mbedtls_open\library/ripemd160.c **** 
  34:Source\mbedtls_open\library/ripemd160.c **** #if defined(MBEDTLS_RIPEMD160_C)
  35:Source\mbedtls_open\library/ripemd160.c **** 
  36:Source\mbedtls_open\library/ripemd160.c **** #include "mbedtls/ripemd160.h"
  37:Source\mbedtls_open\library/ripemd160.c **** #include "mbedtls/platform_util.h"
  38:Source\mbedtls_open\library/ripemd160.c **** 
  39:Source\mbedtls_open\library/ripemd160.c **** #include <string.h>
  40:Source\mbedtls_open\library/ripemd160.c **** 
  41:Source\mbedtls_open\library/ripemd160.c **** #if defined(MBEDTLS_SELF_TEST)
  42:Source\mbedtls_open\library/ripemd160.c **** #if defined(MBEDTLS_PLATFORM_C)
  43:Source\mbedtls_open\library/ripemd160.c **** #include "mbedtls/platform.h"
  44:Source\mbedtls_open\library/ripemd160.c **** #else
  45:Source\mbedtls_open\library/ripemd160.c **** #include <stdio.h>
  46:Source\mbedtls_open\library/ripemd160.c **** #define mbedtls_printf printf
  47:Source\mbedtls_open\library/ripemd160.c **** #endif /* MBEDTLS_PLATFORM_C */
  48:Source\mbedtls_open\library/ripemd160.c **** #endif /* MBEDTLS_SELF_TEST */
  49:Source\mbedtls_open\library/ripemd160.c **** 
  50:Source\mbedtls_open\library/ripemd160.c **** #if !defined(MBEDTLS_RIPEMD160_ALT)
  51:Source\mbedtls_open\library/ripemd160.c **** 
  52:Source\mbedtls_open\library/ripemd160.c **** /*
  53:Source\mbedtls_open\library/ripemd160.c ****  * 32-bit integer manipulation macros (little endian)
  54:Source\mbedtls_open\library/ripemd160.c ****  */
  55:Source\mbedtls_open\library/ripemd160.c **** #ifndef GET_UINT32_LE
  56:Source\mbedtls_open\library/ripemd160.c **** #define GET_UINT32_LE(n,b,i)                            \
  57:Source\mbedtls_open\library/ripemd160.c **** {                                                       \
  58:Source\mbedtls_open\library/ripemd160.c ****     (n) = ( (uint32_t) (b)[(i)    ]       )             \
  59:Source\mbedtls_open\library/ripemd160.c ****         | ( (uint32_t) (b)[(i) + 1] <<  8 )             \
  60:Source\mbedtls_open\library/ripemd160.c ****         | ( (uint32_t) (b)[(i) + 2] << 16 )             \
  61:Source\mbedtls_open\library/ripemd160.c ****         | ( (uint32_t) (b)[(i) + 3] << 24 );            \
  62:Source\mbedtls_open\library/ripemd160.c **** }
  63:Source\mbedtls_open\library/ripemd160.c **** #endif
  64:Source\mbedtls_open\library/ripemd160.c **** 
  65:Source\mbedtls_open\library/ripemd160.c **** #ifndef PUT_UINT32_LE
  66:Source\mbedtls_open\library/ripemd160.c **** #define PUT_UINT32_LE(n,b,i)                                    \
  67:Source\mbedtls_open\library/ripemd160.c **** {                                                               \
  68:Source\mbedtls_open\library/ripemd160.c ****     (b)[(i)    ] = (unsigned char) ( ( (n)       ) & 0xFF );    \
  69:Source\mbedtls_open\library/ripemd160.c ****     (b)[(i) + 1] = (unsigned char) ( ( (n) >>  8 ) & 0xFF );    \
  70:Source\mbedtls_open\library/ripemd160.c ****     (b)[(i) + 2] = (unsigned char) ( ( (n) >> 16 ) & 0xFF );    \
  71:Source\mbedtls_open\library/ripemd160.c ****     (b)[(i) + 3] = (unsigned char) ( ( (n) >> 24 ) & 0xFF );    \
  72:Source\mbedtls_open\library/ripemd160.c **** }
  73:Source\mbedtls_open\library/ripemd160.c **** #endif
  74:Source\mbedtls_open\library/ripemd160.c **** 
  75:Source\mbedtls_open\library/ripemd160.c **** void mbedtls_ripemd160_init( mbedtls_ripemd160_context *ctx )
  76:Source\mbedtls_open\library/ripemd160.c **** {
  28              		.loc 1 76 0
  29              		.cfi_startproc
  30              		@ args = 0, pretend = 0, frame = 0
  31              		@ frame_needed = 0, uses_anonymous_args = 0
  32              	.LVL0:
  33 0000 10B5     		push	{r4, lr}
  34              		.cfi_def_cfa_offset 8
  35              		.cfi_offset 4, -8
  36              		.cfi_offset 14, -4
  77:Source\mbedtls_open\library/ripemd160.c ****     memset( ctx, 0, sizeof( mbedtls_ripemd160_context ) );
  37              		.loc 1 77 0
ARM GAS  C:\Users\Phuong\AppData\Local\Temp\ccbgGR22.s 			page 3


  38 0002 5C22     		movs	r2, #92
  39 0004 0021     		movs	r1, #0
  40 0006 FFF7FEFF 		bl	memset
  41              	.LVL1:
  78:Source\mbedtls_open\library/ripemd160.c **** }
  42              		.loc 1 78 0
  43              		@ sp needed
  44 000a 10BD     		pop	{r4, pc}
  45              		.cfi_endproc
  46              	.LFE1:
  47              		.size	mbedtls_ripemd160_init, .-mbedtls_ripemd160_init
  48              		.section	.text.mbedtls_ripemd160_free,"ax",%progbits
  49              		.align	2
  50              		.global	mbedtls_ripemd160_free
  51              		.code	16
  52              		.thumb_func
  53              		.type	mbedtls_ripemd160_free, %function
  54              	mbedtls_ripemd160_free:
  55              	.LFB2:
  79:Source\mbedtls_open\library/ripemd160.c **** 
  80:Source\mbedtls_open\library/ripemd160.c **** void mbedtls_ripemd160_free( mbedtls_ripemd160_context *ctx )
  81:Source\mbedtls_open\library/ripemd160.c **** {
  56              		.loc 1 81 0
  57              		.cfi_startproc
  58              		@ args = 0, pretend = 0, frame = 0
  59              		@ frame_needed = 0, uses_anonymous_args = 0
  60              	.LVL2:
  61 0000 10B5     		push	{r4, lr}
  62              		.cfi_def_cfa_offset 8
  63              		.cfi_offset 4, -8
  64              		.cfi_offset 14, -4
  82:Source\mbedtls_open\library/ripemd160.c ****     if( ctx == NULL )
  65              		.loc 1 82 0
  66 0002 0028     		cmp	r0, #0
  67 0004 02D0     		beq	.L2
  83:Source\mbedtls_open\library/ripemd160.c ****         return;
  84:Source\mbedtls_open\library/ripemd160.c **** 
  85:Source\mbedtls_open\library/ripemd160.c ****     mbedtls_platform_zeroize( ctx, sizeof( mbedtls_ripemd160_context ) );
  68              		.loc 1 85 0
  69 0006 5C21     		movs	r1, #92
  70 0008 FFF7FEFF 		bl	mbedtls_platform_zeroize
  71              	.LVL3:
  72              	.L2:
  86:Source\mbedtls_open\library/ripemd160.c **** }
  73              		.loc 1 86 0
  74              		@ sp needed
  75 000c 10BD     		pop	{r4, pc}
  76              		.cfi_endproc
  77              	.LFE2:
  78              		.size	mbedtls_ripemd160_free, .-mbedtls_ripemd160_free
  79 000e C046     		.section	.text.mbedtls_ripemd160_clone,"ax",%progbits
  80              		.align	2
  81              		.global	mbedtls_ripemd160_clone
  82              		.code	16
  83              		.thumb_func
  84              		.type	mbedtls_ripemd160_clone, %function
  85              	mbedtls_ripemd160_clone:
ARM GAS  C:\Users\Phuong\AppData\Local\Temp\ccbgGR22.s 			page 4


  86              	.LFB3:
  87:Source\mbedtls_open\library/ripemd160.c **** 
  88:Source\mbedtls_open\library/ripemd160.c **** void mbedtls_ripemd160_clone( mbedtls_ripemd160_context *dst,
  89:Source\mbedtls_open\library/ripemd160.c ****                         const mbedtls_ripemd160_context *src )
  90:Source\mbedtls_open\library/ripemd160.c **** {
  87              		.loc 1 90 0
  88              		.cfi_startproc
  89              		@ args = 0, pretend = 0, frame = 0
  90              		@ frame_needed = 0, uses_anonymous_args = 0
  91              	.LVL4:
  92 0000 10B5     		push	{r4, lr}
  93              		.cfi_def_cfa_offset 8
  94              		.cfi_offset 4, -8
  95              		.cfi_offset 14, -4
  91:Source\mbedtls_open\library/ripemd160.c ****     *dst = *src;
  96              		.loc 1 91 0
  97 0002 5C22     		movs	r2, #92
  98 0004 FFF7FEFF 		bl	memcpy
  99              	.LVL5:
  92:Source\mbedtls_open\library/ripemd160.c **** }
 100              		.loc 1 92 0
 101              		@ sp needed
 102 0008 10BD     		pop	{r4, pc}
 103              		.cfi_endproc
 104              	.LFE3:
 105              		.size	mbedtls_ripemd160_clone, .-mbedtls_ripemd160_clone
 106 000a C046     		.section	.text.mbedtls_ripemd160_starts_ret,"ax",%progbits
 107              		.align	2
 108              		.global	mbedtls_ripemd160_starts_ret
 109              		.code	16
 110              		.thumb_func
 111              		.type	mbedtls_ripemd160_starts_ret, %function
 112              	mbedtls_ripemd160_starts_ret:
 113              	.LFB4:
  93:Source\mbedtls_open\library/ripemd160.c **** 
  94:Source\mbedtls_open\library/ripemd160.c **** /*
  95:Source\mbedtls_open\library/ripemd160.c ****  * RIPEMD-160 context setup
  96:Source\mbedtls_open\library/ripemd160.c ****  */
  97:Source\mbedtls_open\library/ripemd160.c **** int mbedtls_ripemd160_starts_ret( mbedtls_ripemd160_context *ctx )
  98:Source\mbedtls_open\library/ripemd160.c **** {
 114              		.loc 1 98 0
 115              		.cfi_startproc
 116              		@ args = 0, pretend = 0, frame = 0
 117              		@ frame_needed = 0, uses_anonymous_args = 0
 118              		@ link register save eliminated.
 119              	.LVL6:
  99:Source\mbedtls_open\library/ripemd160.c ****     ctx->total[0] = 0;
 120              		.loc 1 99 0
 121 0000 0023     		movs	r3, #0
 122 0002 0360     		str	r3, [r0]
 100:Source\mbedtls_open\library/ripemd160.c ****     ctx->total[1] = 0;
 123              		.loc 1 100 0
 124 0004 4360     		str	r3, [r0, #4]
 101:Source\mbedtls_open\library/ripemd160.c **** 
 102:Source\mbedtls_open\library/ripemd160.c ****     ctx->state[0] = 0x67452301;
 125              		.loc 1 102 0
 126 0006 064B     		ldr	r3, .L6
ARM GAS  C:\Users\Phuong\AppData\Local\Temp\ccbgGR22.s 			page 5


 127 0008 8360     		str	r3, [r0, #8]
 103:Source\mbedtls_open\library/ripemd160.c ****     ctx->state[1] = 0xEFCDAB89;
 128              		.loc 1 103 0
 129 000a 064B     		ldr	r3, .L6+4
 130 000c C360     		str	r3, [r0, #12]
 104:Source\mbedtls_open\library/ripemd160.c ****     ctx->state[2] = 0x98BADCFE;
 131              		.loc 1 104 0
 132 000e 064B     		ldr	r3, .L6+8
 133 0010 0361     		str	r3, [r0, #16]
 105:Source\mbedtls_open\library/ripemd160.c ****     ctx->state[3] = 0x10325476;
 134              		.loc 1 105 0
 135 0012 064B     		ldr	r3, .L6+12
 136 0014 4361     		str	r3, [r0, #20]
 106:Source\mbedtls_open\library/ripemd160.c ****     ctx->state[4] = 0xC3D2E1F0;
 137              		.loc 1 106 0
 138 0016 064B     		ldr	r3, .L6+16
 139 0018 8361     		str	r3, [r0, #24]
 107:Source\mbedtls_open\library/ripemd160.c **** 
 108:Source\mbedtls_open\library/ripemd160.c ****     return( 0 );
 109:Source\mbedtls_open\library/ripemd160.c **** }
 140              		.loc 1 109 0
 141 001a 0020     		movs	r0, #0
 142              	.LVL7:
 143              		@ sp needed
 144 001c 7047     		bx	lr
 145              	.L7:
 146 001e C046     		.align	2
 147              	.L6:
 148 0020 01234567 		.word	1732584193
 149 0024 89ABCDEF 		.word	-271733879
 150 0028 FEDCBA98 		.word	-1732584194
 151 002c 76543210 		.word	271733878
 152 0030 F0E1D2C3 		.word	-1009589776
 153              		.cfi_endproc
 154              	.LFE4:
 155              		.size	mbedtls_ripemd160_starts_ret, .-mbedtls_ripemd160_starts_ret
 156              		.section	.text.mbedtls_ripemd160_starts,"ax",%progbits
 157              		.align	2
 158              		.global	mbedtls_ripemd160_starts
 159              		.code	16
 160              		.thumb_func
 161              		.type	mbedtls_ripemd160_starts, %function
 162              	mbedtls_ripemd160_starts:
 163              	.LFB5:
 110:Source\mbedtls_open\library/ripemd160.c **** 
 111:Source\mbedtls_open\library/ripemd160.c **** #if !defined(MBEDTLS_DEPRECATED_REMOVED)
 112:Source\mbedtls_open\library/ripemd160.c **** void mbedtls_ripemd160_starts( mbedtls_ripemd160_context *ctx )
 113:Source\mbedtls_open\library/ripemd160.c **** {
 164              		.loc 1 113 0
 165              		.cfi_startproc
 166              		@ args = 0, pretend = 0, frame = 0
 167              		@ frame_needed = 0, uses_anonymous_args = 0
 168              	.LVL8:
 169 0000 10B5     		push	{r4, lr}
 170              		.cfi_def_cfa_offset 8
 171              		.cfi_offset 4, -8
 172              		.cfi_offset 14, -4
ARM GAS  C:\Users\Phuong\AppData\Local\Temp\ccbgGR22.s 			page 6


 114:Source\mbedtls_open\library/ripemd160.c ****     mbedtls_ripemd160_starts_ret( ctx );
 173              		.loc 1 114 0
 174 0002 FFF7FEFF 		bl	mbedtls_ripemd160_starts_ret
 175              	.LVL9:
 115:Source\mbedtls_open\library/ripemd160.c **** }
 176              		.loc 1 115 0
 177              		@ sp needed
 178 0006 10BD     		pop	{r4, pc}
 179              		.cfi_endproc
 180              	.LFE5:
 181              		.size	mbedtls_ripemd160_starts, .-mbedtls_ripemd160_starts
 182              		.section	.text.mbedtls_internal_ripemd160_process,"ax",%progbits
 183              		.align	2
 184              		.global	mbedtls_internal_ripemd160_process
 185              		.code	16
 186              		.thumb_func
 187              		.type	mbedtls_internal_ripemd160_process, %function
 188              	mbedtls_internal_ripemd160_process:
 189              	.LFB6:
 116:Source\mbedtls_open\library/ripemd160.c **** #endif
 117:Source\mbedtls_open\library/ripemd160.c **** 
 118:Source\mbedtls_open\library/ripemd160.c **** #if !defined(MBEDTLS_RIPEMD160_PROCESS_ALT)
 119:Source\mbedtls_open\library/ripemd160.c **** /*
 120:Source\mbedtls_open\library/ripemd160.c ****  * Process one block
 121:Source\mbedtls_open\library/ripemd160.c ****  */
 122:Source\mbedtls_open\library/ripemd160.c **** int mbedtls_internal_ripemd160_process( mbedtls_ripemd160_context *ctx,
 123:Source\mbedtls_open\library/ripemd160.c ****                                         const unsigned char data[64] )
 124:Source\mbedtls_open\library/ripemd160.c **** {
 190              		.loc 1 124 0
 191              		.cfi_startproc
 192              		@ args = 0, pretend = 0, frame = 88
 193              		@ frame_needed = 0, uses_anonymous_args = 0
 194              	.LVL10:
 195 0000 F0B5     		push	{r4, r5, r6, r7, lr}
 196              		.cfi_def_cfa_offset 20
 197              		.cfi_offset 4, -20
 198              		.cfi_offset 5, -16
 199              		.cfi_offset 6, -12
 200              		.cfi_offset 7, -8
 201              		.cfi_offset 14, -4
 202 0002 5F46     		mov	r7, fp
 203 0004 5646     		mov	r6, r10
 204 0006 4D46     		mov	r5, r9
 205 0008 4446     		mov	r4, r8
 206 000a F0B4     		push	{r4, r5, r6, r7}
 207              		.cfi_def_cfa_offset 36
 208              		.cfi_offset 8, -36
 209              		.cfi_offset 9, -32
 210              		.cfi_offset 10, -28
 211              		.cfi_offset 11, -24
 212 000c 97B0     		sub	sp, sp, #92
 213              		.cfi_def_cfa_offset 128
 214 000e 0700     		movs	r7, r0
 215 0010 0B00     		movs	r3, r1
 125:Source\mbedtls_open\library/ripemd160.c ****     uint32_t A, B, C, D, E, Ap, Bp, Cp, Dp, Ep, X[16];
 126:Source\mbedtls_open\library/ripemd160.c **** 
 127:Source\mbedtls_open\library/ripemd160.c ****     GET_UINT32_LE( X[ 0], data,  0 );
ARM GAS  C:\Users\Phuong\AppData\Local\Temp\ccbgGR22.s 			page 7


 216              		.loc 1 127 0
 217 0012 0878     		ldrb	r0, [r1]
 218              	.LVL11:
 219 0014 4A78     		ldrb	r2, [r1, #1]
 220 0016 1202     		lsls	r2, r2, #8
 221 0018 0243     		orrs	r2, r0
 222 001a 8978     		ldrb	r1, [r1, #2]
 223              	.LVL12:
 224 001c 0904     		lsls	r1, r1, #16
 225 001e 0A43     		orrs	r2, r1
 226 0020 D878     		ldrb	r0, [r3, #3]
 227 0022 0006     		lsls	r0, r0, #24
 228 0024 0243     		orrs	r2, r0
 229 0026 1600     		movs	r6, r2
 128:Source\mbedtls_open\library/ripemd160.c ****     GET_UINT32_LE( X[ 1], data,  4 );
 230              		.loc 1 128 0
 231 0028 1C79     		ldrb	r4, [r3, #4]
 232 002a 5A79     		ldrb	r2, [r3, #5]
 233 002c 1202     		lsls	r2, r2, #8
 234 002e 2243     		orrs	r2, r4
 235 0030 9979     		ldrb	r1, [r3, #6]
 236 0032 0904     		lsls	r1, r1, #16
 237 0034 0A43     		orrs	r2, r1
 238 0036 DC79     		ldrb	r4, [r3, #7]
 239 0038 2406     		lsls	r4, r4, #24
 240 003a 2243     		orrs	r2, r4
 241 003c 0092     		str	r2, [sp]
 129:Source\mbedtls_open\library/ripemd160.c ****     GET_UINT32_LE( X[ 2], data,  8 );
 242              		.loc 1 129 0
 243 003e 1A7A     		ldrb	r2, [r3, #8]
 244 0040 587A     		ldrb	r0, [r3, #9]
 245 0042 0002     		lsls	r0, r0, #8
 246 0044 1043     		orrs	r0, r2
 247 0046 997A     		ldrb	r1, [r3, #10]
 248 0048 0904     		lsls	r1, r1, #16
 249 004a 0843     		orrs	r0, r1
 250 004c DA7A     		ldrb	r2, [r3, #11]
 251 004e 1206     		lsls	r2, r2, #24
 252 0050 1043     		orrs	r0, r2
 253 0052 0190     		str	r0, [sp, #4]
 130:Source\mbedtls_open\library/ripemd160.c ****     GET_UINT32_LE( X[ 3], data, 12 );
 254              		.loc 1 130 0
 255 0054 1D7B     		ldrb	r5, [r3, #12]
 256 0056 5A7B     		ldrb	r2, [r3, #13]
 257 0058 1202     		lsls	r2, r2, #8
 258 005a 2A43     		orrs	r2, r5
 259 005c 997B     		ldrb	r1, [r3, #14]
 260 005e 0904     		lsls	r1, r1, #16
 261 0060 0A43     		orrs	r2, r1
 262 0062 DD7B     		ldrb	r5, [r3, #15]
 263 0064 2D06     		lsls	r5, r5, #24
 264 0066 2A43     		orrs	r2, r5
 265 0068 0292     		str	r2, [sp, #8]
 131:Source\mbedtls_open\library/ripemd160.c ****     GET_UINT32_LE( X[ 4], data, 16 );
 266              		.loc 1 131 0
 267 006a 197C     		ldrb	r1, [r3, #16]
 268 006c 5A7C     		ldrb	r2, [r3, #17]
ARM GAS  C:\Users\Phuong\AppData\Local\Temp\ccbgGR22.s 			page 8


 269 006e 1202     		lsls	r2, r2, #8
 270 0070 0A43     		orrs	r2, r1
 271 0072 987C     		ldrb	r0, [r3, #18]
 272 0074 0004     		lsls	r0, r0, #16
 273 0076 0243     		orrs	r2, r0
 274 0078 D97C     		ldrb	r1, [r3, #19]
 275 007a 0906     		lsls	r1, r1, #24
 276 007c 1400     		movs	r4, r2
 277 007e 0C43     		orrs	r4, r1
 278 0080 0394     		str	r4, [sp, #12]
 132:Source\mbedtls_open\library/ripemd160.c ****     GET_UINT32_LE( X[ 5], data, 20 );
 279              		.loc 1 132 0
 280 0082 197D     		ldrb	r1, [r3, #20]
 281 0084 5A7D     		ldrb	r2, [r3, #21]
 282 0086 1202     		lsls	r2, r2, #8
 283 0088 0A43     		orrs	r2, r1
 284 008a 997D     		ldrb	r1, [r3, #22]
 285 008c 0904     		lsls	r1, r1, #16
 286 008e 0A43     		orrs	r2, r1
 287 0090 D97D     		ldrb	r1, [r3, #23]
 288 0092 0906     		lsls	r1, r1, #24
 289 0094 1500     		movs	r5, r2
 290 0096 0D43     		orrs	r5, r1
 291 0098 0495     		str	r5, [sp, #16]
 133:Source\mbedtls_open\library/ripemd160.c ****     GET_UINT32_LE( X[ 6], data, 24 );
 292              		.loc 1 133 0
 293 009a 197E     		ldrb	r1, [r3, #24]
 294 009c 5A7E     		ldrb	r2, [r3, #25]
 295 009e 1202     		lsls	r2, r2, #8
 296 00a0 0A43     		orrs	r2, r1
 297 00a2 987E     		ldrb	r0, [r3, #26]
 298 00a4 0004     		lsls	r0, r0, #16
 299 00a6 0243     		orrs	r2, r0
 300 00a8 D97E     		ldrb	r1, [r3, #27]
 301 00aa 0906     		lsls	r1, r1, #24
 302 00ac 0A43     		orrs	r2, r1
 303 00ae 0592     		str	r2, [sp, #20]
 134:Source\mbedtls_open\library/ripemd160.c ****     GET_UINT32_LE( X[ 7], data, 28 );
 304              		.loc 1 134 0
 305 00b0 197F     		ldrb	r1, [r3, #28]
 306 00b2 5A7F     		ldrb	r2, [r3, #29]
 307 00b4 1202     		lsls	r2, r2, #8
 308 00b6 0A43     		orrs	r2, r1
 309 00b8 987F     		ldrb	r0, [r3, #30]
 310 00ba 0004     		lsls	r0, r0, #16
 311 00bc 0243     		orrs	r2, r0
 312 00be D97F     		ldrb	r1, [r3, #31]
 313 00c0 0906     		lsls	r1, r1, #24
 314 00c2 1400     		movs	r4, r2
 315 00c4 0C43     		orrs	r4, r1
 316 00c6 0694     		str	r4, [sp, #24]
 135:Source\mbedtls_open\library/ripemd160.c ****     GET_UINT32_LE( X[ 8], data, 32 );
 317              		.loc 1 135 0
 318 00c8 2022     		movs	r2, #32
 319 00ca 995C     		ldrb	r1, [r3, r2]
 320 00cc 0132     		adds	r2, r2, #1
 321 00ce 9A5C     		ldrb	r2, [r3, r2]
ARM GAS  C:\Users\Phuong\AppData\Local\Temp\ccbgGR22.s 			page 9


 322 00d0 1202     		lsls	r2, r2, #8
 323 00d2 1143     		orrs	r1, r2
 324 00d4 2222     		movs	r2, #34
 325 00d6 9A5C     		ldrb	r2, [r3, r2]
 326 00d8 1204     		lsls	r2, r2, #16
 327 00da 0A43     		orrs	r2, r1
 328 00dc 2321     		movs	r1, #35
 329 00de 5D5C     		ldrb	r5, [r3, r1]
 330 00e0 2D06     		lsls	r5, r5, #24
 331 00e2 1100     		movs	r1, r2
 332 00e4 2943     		orrs	r1, r5
 333 00e6 0791     		str	r1, [sp, #28]
 136:Source\mbedtls_open\library/ripemd160.c ****     GET_UINT32_LE( X[ 9], data, 36 );
 334              		.loc 1 136 0
 335 00e8 2422     		movs	r2, #36
 336 00ea 9A5C     		ldrb	r2, [r3, r2]
 337 00ec 2521     		movs	r1, #37
 338 00ee 595C     		ldrb	r1, [r3, r1]
 339 00f0 0902     		lsls	r1, r1, #8
 340 00f2 1000     		movs	r0, r2
 341 00f4 0843     		orrs	r0, r1
 342 00f6 2622     		movs	r2, #38
 343 00f8 995C     		ldrb	r1, [r3, r2]
 344 00fa 0904     		lsls	r1, r1, #16
 345 00fc 0143     		orrs	r1, r0
 346 00fe 0132     		adds	r2, r2, #1
 347 0100 9A5C     		ldrb	r2, [r3, r2]
 348 0102 1206     		lsls	r2, r2, #24
 349 0104 1143     		orrs	r1, r2
 350 0106 0891     		str	r1, [sp, #32]
 137:Source\mbedtls_open\library/ripemd160.c ****     GET_UINT32_LE( X[10], data, 40 );
 351              		.loc 1 137 0
 352 0108 2822     		movs	r2, #40
 353 010a 995C     		ldrb	r1, [r3, r2]
 354 010c 0132     		adds	r2, r2, #1
 355 010e 985C     		ldrb	r0, [r3, r2]
 356 0110 0002     		lsls	r0, r0, #8
 357 0112 0D00     		movs	r5, r1
 358 0114 0543     		orrs	r5, r0
 359 0116 0132     		adds	r2, r2, #1
 360 0118 985C     		ldrb	r0, [r3, r2]
 361 011a 0004     		lsls	r0, r0, #16
 362 011c 2843     		orrs	r0, r5
 363 011e 0132     		adds	r2, r2, #1
 364 0120 995C     		ldrb	r1, [r3, r2]
 365 0122 0906     		lsls	r1, r1, #24
 366 0124 0500     		movs	r5, r0
 367 0126 0D43     		orrs	r5, r1
 368 0128 0995     		str	r5, [sp, #36]
 138:Source\mbedtls_open\library/ripemd160.c ****     GET_UINT32_LE( X[11], data, 44 );
 369              		.loc 1 138 0
 370 012a 0132     		adds	r2, r2, #1
 371 012c 995C     		ldrb	r1, [r3, r2]
 372 012e 0132     		adds	r2, r2, #1
 373 0130 9A5C     		ldrb	r2, [r3, r2]
 374 0132 1202     		lsls	r2, r2, #8
 375 0134 0800     		movs	r0, r1
ARM GAS  C:\Users\Phuong\AppData\Local\Temp\ccbgGR22.s 			page 10


 376 0136 1043     		orrs	r0, r2
 377 0138 2E22     		movs	r2, #46
 378 013a 9A5C     		ldrb	r2, [r3, r2]
 379 013c 1204     		lsls	r2, r2, #16
 380 013e 0243     		orrs	r2, r0
 381 0140 2F21     		movs	r1, #47
 382 0142 595C     		ldrb	r1, [r3, r1]
 383 0144 0906     		lsls	r1, r1, #24
 384 0146 0A43     		orrs	r2, r1
 385 0148 0A92     		str	r2, [sp, #40]
 139:Source\mbedtls_open\library/ripemd160.c ****     GET_UINT32_LE( X[12], data, 48 );
 386              		.loc 1 139 0
 387 014a 3022     		movs	r2, #48
 388 014c 985C     		ldrb	r0, [r3, r2]
 389 014e 0132     		adds	r2, r2, #1
 390 0150 9A5C     		ldrb	r2, [r3, r2]
 391 0152 1202     		lsls	r2, r2, #8
 392 0154 1043     		orrs	r0, r2
 393 0156 3222     		movs	r2, #50
 394 0158 9A5C     		ldrb	r2, [r3, r2]
 395 015a 1204     		lsls	r2, r2, #16
 396 015c 0243     		orrs	r2, r0
 397 015e 3321     		movs	r1, #51
 398 0160 585C     		ldrb	r0, [r3, r1]
 399 0162 0006     		lsls	r0, r0, #24
 400 0164 1500     		movs	r5, r2
 401 0166 0543     		orrs	r5, r0
 402 0168 0B95     		str	r5, [sp, #44]
 140:Source\mbedtls_open\library/ripemd160.c ****     GET_UINT32_LE( X[13], data, 52 );
 403              		.loc 1 140 0
 404 016a 3422     		movs	r2, #52
 405 016c 985C     		ldrb	r0, [r3, r2]
 406 016e 0132     		adds	r2, r2, #1
 407 0170 9A5C     		ldrb	r2, [r3, r2]
 408 0172 1202     		lsls	r2, r2, #8
 409 0174 1043     		orrs	r0, r2
 410 0176 3622     		movs	r2, #54
 411 0178 9A5C     		ldrb	r2, [r3, r2]
 412 017a 1204     		lsls	r2, r2, #16
 413 017c 0243     		orrs	r2, r0
 414 017e 3721     		movs	r1, #55
 415 0180 585C     		ldrb	r0, [r3, r1]
 416 0182 0006     		lsls	r0, r0, #24
 417 0184 0243     		orrs	r2, r0
 418 0186 0C92     		str	r2, [sp, #48]
 141:Source\mbedtls_open\library/ripemd160.c ****     GET_UINT32_LE( X[14], data, 56 );
 419              		.loc 1 141 0
 420 0188 3822     		movs	r2, #56
 421 018a 9C5C     		ldrb	r4, [r3, r2]
 422 018c 0132     		adds	r2, r2, #1
 423 018e 9A5C     		ldrb	r2, [r3, r2]
 424 0190 1202     		lsls	r2, r2, #8
 425 0192 2100     		movs	r1, r4
 426 0194 1143     		orrs	r1, r2
 427 0196 3A22     		movs	r2, #58
 428 0198 9A5C     		ldrb	r2, [r3, r2]
 429 019a 1204     		lsls	r2, r2, #16
ARM GAS  C:\Users\Phuong\AppData\Local\Temp\ccbgGR22.s 			page 11


 430 019c 0A43     		orrs	r2, r1
 431 019e 3B21     		movs	r1, #59
 432 01a0 5C5C     		ldrb	r4, [r3, r1]
 433 01a2 2406     		lsls	r4, r4, #24
 434 01a4 1000     		movs	r0, r2
 435 01a6 2043     		orrs	r0, r4
 436 01a8 0D90     		str	r0, [sp, #52]
 142:Source\mbedtls_open\library/ripemd160.c ****     GET_UINT32_LE( X[15], data, 60 );
 437              		.loc 1 142 0
 438 01aa 3C22     		movs	r2, #60
 439 01ac 995C     		ldrb	r1, [r3, r2]
 440 01ae 0132     		adds	r2, r2, #1
 441 01b0 9A5C     		ldrb	r2, [r3, r2]
 442 01b2 1202     		lsls	r2, r2, #8
 443 01b4 1143     		orrs	r1, r2
 444 01b6 0C00     		movs	r4, r1
 445 01b8 3E22     		movs	r2, #62
 446 01ba 9A5C     		ldrb	r2, [r3, r2]
 447 01bc 1104     		lsls	r1, r2, #16
 448 01be 0C43     		orrs	r4, r1
 449 01c0 2200     		movs	r2, r4
 450 01c2 3F21     		movs	r1, #63
 451 01c4 5C5C     		ldrb	r4, [r3, r1]
 452 01c6 2406     		lsls	r4, r4, #24
 453 01c8 1300     		movs	r3, r2
 454              	.LVL13:
 455 01ca 2343     		orrs	r3, r4
 456 01cc 0E93     		str	r3, [sp, #56]
 457              	.LVL14:
 143:Source\mbedtls_open\library/ripemd160.c **** 
 144:Source\mbedtls_open\library/ripemd160.c ****     A = Ap = ctx->state[0];
 145:Source\mbedtls_open\library/ripemd160.c ****     B = Bp = ctx->state[1];
 146:Source\mbedtls_open\library/ripemd160.c ****     C = Cp = ctx->state[2];
 147:Source\mbedtls_open\library/ripemd160.c ****     D = Dp = ctx->state[3];
 148:Source\mbedtls_open\library/ripemd160.c ****     E = Ep = ctx->state[4];
 149:Source\mbedtls_open\library/ripemd160.c **** 
 150:Source\mbedtls_open\library/ripemd160.c **** #define F1( x, y, z )   ( x ^ y ^ z )
 151:Source\mbedtls_open\library/ripemd160.c **** #define F2( x, y, z )   ( ( x & y ) | ( ~x & z ) )
 152:Source\mbedtls_open\library/ripemd160.c **** #define F3( x, y, z )   ( ( x | ~y ) ^ z )
 153:Source\mbedtls_open\library/ripemd160.c **** #define F4( x, y, z )   ( ( x & z ) | ( y & ~z ) )
 154:Source\mbedtls_open\library/ripemd160.c **** #define F5( x, y, z )   ( x ^ ( y | ~z ) )
 155:Source\mbedtls_open\library/ripemd160.c **** 
 156:Source\mbedtls_open\library/ripemd160.c **** #define S( x, n ) ( ( x << n ) | ( x >> (32 - n) ) )
 157:Source\mbedtls_open\library/ripemd160.c **** 
 158:Source\mbedtls_open\library/ripemd160.c **** #define P( a, b, c, d, e, r, s, f, k )      \
 159:Source\mbedtls_open\library/ripemd160.c ****     a += f( b, c, d ) + X[r] + k;           \
 160:Source\mbedtls_open\library/ripemd160.c ****     a = S( a, s ) + e;                      \
 161:Source\mbedtls_open\library/ripemd160.c ****     c = S( c, 10 );
 162:Source\mbedtls_open\library/ripemd160.c **** 
 163:Source\mbedtls_open\library/ripemd160.c **** #define P2( a, b, c, d, e, r, s, rp, sp )   \
 164:Source\mbedtls_open\library/ripemd160.c ****     P( a, b, c, d, e, r, s, F, K );         \
 165:Source\mbedtls_open\library/ripemd160.c ****     P( a ## p, b ## p, c ## p, d ## p, e ## p, rp, sp, Fp, Kp );
 166:Source\mbedtls_open\library/ripemd160.c **** 
 167:Source\mbedtls_open\library/ripemd160.c **** #define F   F1
 168:Source\mbedtls_open\library/ripemd160.c **** #define K   0x00000000
 169:Source\mbedtls_open\library/ripemd160.c **** #define Fp  F5
 170:Source\mbedtls_open\library/ripemd160.c **** #define Kp  0x50A28BE6
ARM GAS  C:\Users\Phuong\AppData\Local\Temp\ccbgGR22.s 			page 12


 171:Source\mbedtls_open\library/ripemd160.c ****     P2( A, B, C, D, E,  0, 11,  5,  8 );
 458              		.loc 1 171 0
 459 01ce FB68     		ldr	r3, [r7, #12]
 460 01d0 3D69     		ldr	r5, [r7, #16]
 461 01d2 6B40     		eors	r3, r5
 462 01d4 1800     		movs	r0, r3
 463 01d6 7B69     		ldr	r3, [r7, #20]
 464 01d8 5840     		eors	r0, r3
 465 01da 0F96     		str	r6, [sp, #60]
 466 01dc B446     		mov	ip, r6
 467 01de 6044     		add	r0, r0, ip
 468 01e0 BB68     		ldr	r3, [r7, #8]
 469 01e2 9C46     		mov	ip, r3
 470 01e4 6044     		add	r0, r0, ip
 471              	.LVL15:
 472 01e6 1523     		movs	r3, #21
 473 01e8 D841     		rors	r0, r0, r3
 474              	.LVL16:
 475 01ea BB69     		ldr	r3, [r7, #24]
 476 01ec 9C46     		mov	ip, r3
 477 01ee 6044     		add	r0, r0, ip
 478              	.LVL17:
 479 01f0 1623     		movs	r3, #22
 480 01f2 2E00     		movs	r6, r5
 481 01f4 DE41     		rors	r6, r6, r3
 482 01f6 B146     		mov	r9, r6
 483              	.LVL18:
 484 01f8 7E69     		ldr	r6, [r7, #20]
 485              	.LVL19:
 486 01fa F243     		mvns	r2, r6
 487 01fc 2A43     		orrs	r2, r5
 488 01fe FE68     		ldr	r6, [r7, #12]
 489 0200 7240     		eors	r2, r6
 490 0202 049D     		ldr	r5, [sp, #16]
 491 0204 AC46     		mov	ip, r5
 492 0206 6244     		add	r2, r2, ip
 493 0208 BE68     		ldr	r6, [r7, #8]
 494 020a B446     		mov	ip, r6
 495 020c 6244     		add	r2, r2, ip
 496 020e FE4E     		ldr	r6, .L10
 497 0210 B446     		mov	ip, r6
 498 0212 6244     		add	r2, r2, ip
 499              	.LVL20:
 500 0214 1826     		movs	r6, #24
 501 0216 F241     		rors	r2, r2, r6
 502              	.LVL21:
 503 0218 BE69     		ldr	r6, [r7, #24]
 504 021a B446     		mov	ip, r6
 505              	.LVL22:
 506 021c 6244     		add	r2, r2, ip
 507              	.LVL23:
 172:Source\mbedtls_open\library/ripemd160.c ****     P2( E, A, B, C, D,  1, 14, 14,  9 );
 508              		.loc 1 172 0
 509 021e FD68     		ldr	r5, [r7, #12]
 510 0220 4540     		eors	r5, r0
 511 0222 4E46     		mov	r6, r9
 512 0224 7540     		eors	r5, r6
ARM GAS  C:\Users\Phuong\AppData\Local\Temp\ccbgGR22.s 			page 13


 513 0226 0099     		ldr	r1, [sp]
 514 0228 8C46     		mov	ip, r1
 515 022a 6544     		add	r5, r5, ip
 516 022c BE69     		ldr	r6, [r7, #24]
 517 022e B446     		mov	ip, r6
 518 0230 6544     		add	r5, r5, ip
 519              	.LVL24:
 520 0232 1226     		movs	r6, #18
 521 0234 F541     		rors	r5, r5, r6
 522              	.LVL25:
 523 0236 7E69     		ldr	r6, [r7, #20]
 524 0238 B446     		mov	ip, r6
 525 023a 6544     		add	r5, r5, ip
 526              	.LVL26:
 527 023c FE68     		ldr	r6, [r7, #12]
 528 023e DE41     		rors	r6, r6, r3
 529 0240 B046     		mov	r8, r6
 530              	.LVL27:
 531 0242 4E46     		mov	r6, r9
 532              	.LVL28:
 533 0244 F143     		mvns	r1, r6
 534 0246 FE68     		ldr	r6, [r7, #12]
 535 0248 3143     		orrs	r1, r6
 536 024a 5140     		eors	r1, r2
 537 024c 0D9E     		ldr	r6, [sp, #52]
 538 024e B446     		mov	ip, r6
 539 0250 6144     		add	r1, r1, ip
 540 0252 BE69     		ldr	r6, [r7, #24]
 541 0254 B446     		mov	ip, r6
 542 0256 6144     		add	r1, r1, ip
 543 0258 EB4E     		ldr	r6, .L10
 544 025a B446     		mov	ip, r6
 545 025c 6144     		add	r1, r1, ip
 546              	.LVL29:
 547 025e 1726     		movs	r6, #23
 548 0260 F141     		rors	r1, r1, r6
 549              	.LVL30:
 550 0262 7E69     		ldr	r6, [r7, #20]
 551 0264 B446     		mov	ip, r6
 552              	.LVL31:
 553 0266 6144     		add	r1, r1, ip
 554              	.LVL32:
 173:Source\mbedtls_open\library/ripemd160.c ****     P2( D, E, A, B, C,  2, 15,  7,  9 );
 555              		.loc 1 173 0
 556 0268 0400     		movs	r4, r0
 557 026a 6C40     		eors	r4, r5
 558 026c 4646     		mov	r6, r8
 559 026e 7440     		eors	r4, r6
 560 0270 019E     		ldr	r6, [sp, #4]
 561 0272 B446     		mov	ip, r6
 562 0274 6444     		add	r4, r4, ip
 563 0276 7E69     		ldr	r6, [r7, #20]
 564 0278 B446     		mov	ip, r6
 565 027a 6444     		add	r4, r4, ip
 566              	.LVL33:
 567 027c 1126     		movs	r6, #17
 568 027e F441     		rors	r4, r4, r6
ARM GAS  C:\Users\Phuong\AppData\Local\Temp\ccbgGR22.s 			page 14


 569              	.LVL34:
 570 0280 4C44     		add	r4, r4, r9
 571              	.LVL35:
 572 0282 D841     		rors	r0, r0, r3
 573              	.LVL36:
 574 0284 8346     		mov	fp, r0
 575              	.LVL37:
 576 0286 4046     		mov	r0, r8
 577              	.LVL38:
 578 0288 C043     		mvns	r0, r0
 579 028a 1043     		orrs	r0, r2
 580 028c 4840     		eors	r0, r1
 581 028e 069E     		ldr	r6, [sp, #24]
 582 0290 B446     		mov	ip, r6
 583 0292 6044     		add	r0, r0, ip
 584 0294 7E69     		ldr	r6, [r7, #20]
 585 0296 B446     		mov	ip, r6
 586 0298 6044     		add	r0, r0, ip
 587 029a DB4E     		ldr	r6, .L10
 588 029c B446     		mov	ip, r6
 589 029e 6044     		add	r0, r0, ip
 590              	.LVL39:
 591 02a0 1726     		movs	r6, #23
 592 02a2 F041     		rors	r0, r0, r6
 593              	.LVL40:
 594 02a4 0600     		movs	r6, r0
 595 02a6 4E44     		add	r6, r6, r9
 596 02a8 1096     		str	r6, [sp, #64]
 597              	.LVL41:
 598 02aa DA41     		rors	r2, r2, r3
 599              	.LVL42:
 174:Source\mbedtls_open\library/ripemd160.c ****     P2( C, D, E, A, B,  3, 12,  0, 11 );
 600              		.loc 1 174 0
 601 02ac 2800     		movs	r0, r5
 602 02ae 6040     		eors	r0, r4
 603 02b0 0600     		movs	r6, r0
 604              	.LVL43:
 605 02b2 5846     		mov	r0, fp
 606 02b4 4640     		eors	r6, r0
 607 02b6 0298     		ldr	r0, [sp, #8]
 608 02b8 8446     		mov	ip, r0
 609 02ba 6644     		add	r6, r6, ip
 610 02bc 4E44     		add	r6, r6, r9
 611              	.LVL44:
 612 02be 1420     		movs	r0, #20
 613 02c0 C641     		rors	r6, r6, r0
 614              	.LVL45:
 615 02c2 B246     		mov	r10, r6
 616 02c4 C244     		add	r10, r10, r8
 617              	.LVL46:
 618 02c6 2800     		movs	r0, r5
 619 02c8 D841     		rors	r0, r0, r3
 620 02ca 1190     		str	r0, [sp, #68]
 621              	.LVL47:
 622 02cc 1392     		str	r2, [sp, #76]
 623 02ce D543     		mvns	r5, r2
 624 02d0 0D43     		orrs	r5, r1
ARM GAS  C:\Users\Phuong\AppData\Local\Temp\ccbgGR22.s 			page 15


 625 02d2 109E     		ldr	r6, [sp, #64]
 626 02d4 7540     		eors	r5, r6
 627 02d6 0F9E     		ldr	r6, [sp, #60]
 628 02d8 B446     		mov	ip, r6
 629 02da 6544     		add	r5, r5, ip
 630 02dc 4D44     		add	r5, r5, r9
 631 02de CA48     		ldr	r0, .L10
 632              	.LVL48:
 633 02e0 8446     		mov	ip, r0
 634 02e2 6544     		add	r5, r5, ip
 635              	.LVL49:
 636 02e4 1520     		movs	r0, #21
 637 02e6 C541     		rors	r5, r5, r0
 638              	.LVL50:
 639 02e8 4544     		add	r5, r5, r8
 640              	.LVL51:
 641 02ea D941     		rors	r1, r1, r3
 642              	.LVL52:
 175:Source\mbedtls_open\library/ripemd160.c ****     P2( B, C, D, E, A,  4,  5,  9, 13 );
 643              		.loc 1 175 0
 644 02ec 5046     		mov	r0, r10
 645 02ee 6040     		eors	r0, r4
 646 02f0 119A     		ldr	r2, [sp, #68]
 647              	.LVL53:
 648 02f2 5040     		eors	r0, r2
 649 02f4 8146     		mov	r9, r0
 650 02f6 0398     		ldr	r0, [sp, #12]
 651 02f8 8446     		mov	ip, r0
 652 02fa E144     		add	r9, r9, ip
 653 02fc C144     		add	r9, r9, r8
 654              	.LVL54:
 655 02fe 4846     		mov	r0, r9
 656 0300 1B22     		movs	r2, #27
 657 0302 D041     		rors	r0, r0, r2
 658 0304 8146     		mov	r9, r0
 659              	.LVL55:
 660 0306 D944     		add	r9, r9, fp
 661              	.LVL56:
 662 0308 DC41     		rors	r4, r4, r3
 663              	.LVL57:
 664 030a 2600     		movs	r6, r4
 665              	.LVL58:
 666 030c CC43     		mvns	r4, r1
 667              	.LVL59:
 668 030e 109A     		ldr	r2, [sp, #64]
 669 0310 1443     		orrs	r4, r2
 670 0312 6C40     		eors	r4, r5
 671 0314 0898     		ldr	r0, [sp, #32]
 672 0316 8446     		mov	ip, r0
 673 0318 6444     		add	r4, r4, ip
 674 031a 4444     		add	r4, r4, r8
 675 031c BA4A     		ldr	r2, .L10
 676 031e 9446     		mov	ip, r2
 677 0320 6444     		add	r4, r4, ip
 678              	.LVL60:
 679 0322 1322     		movs	r2, #19
 680 0324 D441     		rors	r4, r4, r2
ARM GAS  C:\Users\Phuong\AppData\Local\Temp\ccbgGR22.s 			page 16


 681              	.LVL61:
 682 0326 1398     		ldr	r0, [sp, #76]
 683              	.LVL62:
 684 0328 8446     		mov	ip, r0
 685              	.LVL63:
 686 032a 6444     		add	r4, r4, ip
 687 032c 1294     		str	r4, [sp, #72]
 688              	.LVL64:
 689 032e 109C     		ldr	r4, [sp, #64]
 690              	.LVL65:
 691 0330 DC41     		rors	r4, r4, r3
 692 0332 2000     		movs	r0, r4
 693              	.LVL66:
 176:Source\mbedtls_open\library/ripemd160.c ****     P2( A, B, C, D, E,  5,  8,  2, 15 );
 694              		.loc 1 176 0
 695 0334 4C46     		mov	r4, r9
 696 0336 5246     		mov	r2, r10
 697 0338 5440     		eors	r4, r2
 698 033a 2200     		movs	r2, r4
 699 033c 3400     		movs	r4, r6
 700 033e 7240     		eors	r2, r6
 701 0340 9446     		mov	ip, r2
 702 0342 049E     		ldr	r6, [sp, #16]
 703              	.LVL67:
 704 0344 B046     		mov	r8, r6
 705 0346 C444     		add	ip, ip, r8
 706 0348 DC44     		add	ip, ip, fp
 707              	.LVL68:
 708 034a 6246     		mov	r2, ip
 709 034c 1826     		movs	r6, #24
 710 034e F241     		rors	r2, r2, r6
 711 0350 9446     		mov	ip, r2
 712              	.LVL69:
 713 0352 119A     		ldr	r2, [sp, #68]
 714 0354 9046     		mov	r8, r2
 715 0356 C444     		add	ip, ip, r8
 716              	.LVL70:
 717 0358 5646     		mov	r6, r10
 718 035a DE41     		rors	r6, r6, r3
 719 035c 1096     		str	r6, [sp, #64]
 720              	.LVL71:
 721 035e C243     		mvns	r2, r0
 722 0360 2A43     		orrs	r2, r5
 723 0362 129E     		ldr	r6, [sp, #72]
 724              	.LVL72:
 725 0364 7240     		eors	r2, r6
 726 0366 9246     		mov	r10, r2
 727 0368 019E     		ldr	r6, [sp, #4]
 728 036a B046     		mov	r8, r6
 729 036c C244     		add	r10, r10, r8
 730 036e 139E     		ldr	r6, [sp, #76]
 731 0370 B346     		mov	fp, r6
 732 0372 D344     		add	fp, fp, r10
 733 0374 5A46     		mov	r2, fp
 734 0376 A44E     		ldr	r6, .L10
 735 0378 B046     		mov	r8, r6
 736 037a 4244     		add	r2, r2, r8
ARM GAS  C:\Users\Phuong\AppData\Local\Temp\ccbgGR22.s 			page 17


 737              	.LVL73:
 738 037c 1126     		movs	r6, #17
 739 037e F241     		rors	r2, r2, r6
 740              	.LVL74:
 741 0380 9246     		mov	r10, r2
 742 0382 8A44     		add	r10, r10, r1
 743              	.LVL75:
 744 0384 DD41     		rors	r5, r5, r3
 745              	.LVL76:
 177:Source\mbedtls_open\library/ripemd160.c ****     P2( E, A, B, C, D,  6,  7, 11, 15 );
 746              		.loc 1 177 0
 747 0386 4A46     		mov	r2, r9
 748 0388 6646     		mov	r6, ip
 749 038a 7240     		eors	r2, r6
 750 038c 109E     		ldr	r6, [sp, #64]
 751 038e 7240     		eors	r2, r6
 752 0390 059E     		ldr	r6, [sp, #20]
 753 0392 B046     		mov	r8, r6
 754 0394 4244     		add	r2, r2, r8
 755 0396 119E     		ldr	r6, [sp, #68]
 756 0398 B046     		mov	r8, r6
 757 039a 4244     		add	r2, r2, r8
 758              	.LVL77:
 759 039c 1926     		movs	r6, #25
 760 039e F241     		rors	r2, r2, r6
 761              	.LVL78:
 762 03a0 1494     		str	r4, [sp, #80]
 763 03a2 A046     		mov	r8, r4
 764 03a4 1400     		movs	r4, r2
 765              	.LVL79:
 766 03a6 4444     		add	r4, r4, r8
 767 03a8 1194     		str	r4, [sp, #68]
 768              	.LVL80:
 769 03aa 4C46     		mov	r4, r9
 770              	.LVL81:
 771 03ac DC41     		rors	r4, r4, r3
 772 03ae A146     		mov	r9, r4
 773              	.LVL82:
 774 03b0 EC43     		mvns	r4, r5
 775              	.LVL83:
 776 03b2 129A     		ldr	r2, [sp, #72]
 777 03b4 1443     		orrs	r4, r2
 778 03b6 5246     		mov	r2, r10
 779 03b8 5440     		eors	r4, r2
 780 03ba A046     		mov	r8, r4
 781              	.LVL84:
 782 03bc 0A9C     		ldr	r4, [sp, #40]
 783 03be A346     		mov	fp, r4
 784 03c0 D844     		add	r8, r8, fp
 785 03c2 4144     		add	r1, r1, r8
 786              	.LVL85:
 787 03c4 904A     		ldr	r2, .L10
 788 03c6 9046     		mov	r8, r2
 789 03c8 4144     		add	r1, r1, r8
 790              	.LVL86:
 791 03ca 1122     		movs	r2, #17
 792 03cc D141     		rors	r1, r1, r2
ARM GAS  C:\Users\Phuong\AppData\Local\Temp\ccbgGR22.s 			page 18


 793              	.LVL87:
 794 03ce 4118     		adds	r1, r0, r1
 795              	.LVL88:
 796 03d0 129A     		ldr	r2, [sp, #72]
 797 03d2 DA41     		rors	r2, r2, r3
 798 03d4 1392     		str	r2, [sp, #76]
 799              	.LVL89:
 178:Source\mbedtls_open\library/ripemd160.c ****     P2( D, E, A, B, C,  7,  9,  4,  5 );
 800              		.loc 1 178 0
 801 03d6 6446     		mov	r4, ip
 802 03d8 119A     		ldr	r2, [sp, #68]
 803              	.LVL90:
 804 03da 5440     		eors	r4, r2
 805 03dc 4A46     		mov	r2, r9
 806 03de 5440     		eors	r4, r2
 807 03e0 A346     		mov	fp, r4
 808 03e2 069C     		ldr	r4, [sp, #24]
 809 03e4 A046     		mov	r8, r4
 810 03e6 C344     		add	fp, fp, r8
 811 03e8 149C     		ldr	r4, [sp, #80]
 812 03ea A046     		mov	r8, r4
 813 03ec C344     		add	fp, fp, r8
 814              	.LVL91:
 815 03ee 5C46     		mov	r4, fp
 816 03f0 1722     		movs	r2, #23
 817 03f2 D441     		rors	r4, r4, r2
 818 03f4 A346     		mov	fp, r4
 819              	.LVL92:
 820 03f6 109C     		ldr	r4, [sp, #64]
 821 03f8 A046     		mov	r8, r4
 822 03fa C344     		add	fp, fp, r8
 823              	.LVL93:
 824 03fc 6446     		mov	r4, ip
 825 03fe DC41     		rors	r4, r4, r3
 826 0400 1294     		str	r4, [sp, #72]
 827              	.LVL94:
 828 0402 139A     		ldr	r2, [sp, #76]
 829 0404 D243     		mvns	r2, r2
 830 0406 1400     		movs	r4, r2
 831              	.LVL95:
 832 0408 5246     		mov	r2, r10
 833 040a 1443     		orrs	r4, r2
 834 040c 4C40     		eors	r4, r1
 835 040e A046     		mov	r8, r4
 836 0410 039C     		ldr	r4, [sp, #12]
 837 0412 A446     		mov	ip, r4
 838 0414 E044     		add	r8, r8, ip
 839 0416 4044     		add	r0, r0, r8
 840              	.LVL96:
 841 0418 7B4A     		ldr	r2, .L10
 842 041a 9446     		mov	ip, r2
 843 041c 6044     		add	r0, r0, ip
 844              	.LVL97:
 845 041e 1B22     		movs	r2, #27
 846 0420 D041     		rors	r0, r0, r2
 847              	.LVL98:
 848 0422 8046     		mov	r8, r0
ARM GAS  C:\Users\Phuong\AppData\Local\Temp\ccbgGR22.s 			page 19


 849 0424 A844     		add	r8, r8, r5
 850              	.LVL99:
 851 0426 5046     		mov	r0, r10
 852 0428 D841     		rors	r0, r0, r3
 853              	.LVL100:
 179:Source\mbedtls_open\library/ripemd160.c ****     P2( C, D, E, A, B,  8, 11, 13,  7 );
 854              		.loc 1 179 0
 855 042a 5C46     		mov	r4, fp
 856 042c 119A     		ldr	r2, [sp, #68]
 857 042e 5440     		eors	r4, r2
 858 0430 129A     		ldr	r2, [sp, #72]
 859 0432 5440     		eors	r4, r2
 860 0434 A246     		mov	r10, r4
 861 0436 079C     		ldr	r4, [sp, #28]
 862 0438 A446     		mov	ip, r4
 863 043a E244     		add	r10, r10, ip
 864 043c 109C     		ldr	r4, [sp, #64]
 865 043e A446     		mov	ip, r4
 866 0440 E244     		add	r10, r10, ip
 867              	.LVL101:
 868 0442 5446     		mov	r4, r10
 869 0444 1522     		movs	r2, #21
 870 0446 D441     		rors	r4, r4, r2
 871 0448 A246     		mov	r10, r4
 872              	.LVL102:
 873 044a CA44     		add	r10, r10, r9
 874              	.LVL103:
 875 044c 119A     		ldr	r2, [sp, #68]
 876 044e DA41     		rors	r2, r2, r3
 877 0450 1092     		str	r2, [sp, #64]
 878              	.LVL104:
 879 0452 C243     		mvns	r2, r0
 880              	.LVL105:
 881 0454 0A43     		orrs	r2, r1
 882 0456 4446     		mov	r4, r8
 883 0458 6240     		eors	r2, r4
 884 045a 0C9C     		ldr	r4, [sp, #48]
 885 045c A446     		mov	ip, r4
 886 045e 6244     		add	r2, r2, ip
 887 0460 AA18     		adds	r2, r5, r2
 888 0462 694D     		ldr	r5, .L10
 889              	.LVL106:
 890 0464 AC46     		mov	ip, r5
 891 0466 6244     		add	r2, r2, ip
 892              	.LVL107:
 893 0468 F241     		rors	r2, r2, r6
 894              	.LVL108:
 895 046a 1500     		movs	r5, r2
 896 046c 139A     		ldr	r2, [sp, #76]
 897 046e 9446     		mov	ip, r2
 898 0470 6544     		add	r5, r5, ip
 899 0472 1195     		str	r5, [sp, #68]
 900              	.LVL109:
 901 0474 D941     		rors	r1, r1, r3
 902              	.LVL110:
 903 0476 0C00     		movs	r4, r1
 904              	.LVL111:
ARM GAS  C:\Users\Phuong\AppData\Local\Temp\ccbgGR22.s 			page 20


 180:Source\mbedtls_open\library/ripemd160.c ****     P2( B, C, D, E, A,  9, 13,  6,  7 );
 905              		.loc 1 180 0
 906 0478 5D46     		mov	r5, fp
 907              	.LVL112:
 908 047a 5146     		mov	r1, r10
 909              	.LVL113:
 910 047c 4D40     		eors	r5, r1
 911 047e 1099     		ldr	r1, [sp, #64]
 912 0480 4D40     		eors	r5, r1
 913 0482 0899     		ldr	r1, [sp, #32]
 914 0484 8C46     		mov	ip, r1
 915 0486 6544     		add	r5, r5, ip
 916 0488 4D44     		add	r5, r5, r9
 917              	.LVL114:
 918 048a 1321     		movs	r1, #19
 919 048c CD41     		rors	r5, r5, r1
 920              	.LVL115:
 921 048e 1299     		ldr	r1, [sp, #72]
 922 0490 8C46     		mov	ip, r1
 923 0492 6544     		add	r5, r5, ip
 924              	.LVL116:
 925 0494 5946     		mov	r1, fp
 926 0496 D941     		rors	r1, r1, r3
 927 0498 8B46     		mov	fp, r1
 928              	.LVL117:
 929 049a 1394     		str	r4, [sp, #76]
 930              	.LVL118:
 931 049c E143     		mvns	r1, r4
 932              	.LVL119:
 933 049e 4446     		mov	r4, r8
 934              	.LVL120:
 935 04a0 2143     		orrs	r1, r4
 936 04a2 119C     		ldr	r4, [sp, #68]
 937 04a4 6140     		eors	r1, r4
 938 04a6 8946     		mov	r9, r1
 939 04a8 059C     		ldr	r4, [sp, #20]
 940 04aa A446     		mov	ip, r4
 941 04ac E144     		add	r9, r9, ip
 942 04ae 9446     		mov	ip, r2
 943 04b0 CC44     		add	ip, ip, r9
 944 04b2 6446     		mov	r4, ip
 945 04b4 5449     		ldr	r1, .L10
 946 04b6 8C46     		mov	ip, r1
 947 04b8 6444     		add	r4, r4, ip
 948              	.LVL121:
 949 04ba F441     		rors	r4, r4, r6
 950              	.LVL122:
 951 04bc 0419     		adds	r4, r0, r4
 952              	.LVL123:
 953 04be 4146     		mov	r1, r8
 954 04c0 D941     		rors	r1, r1, r3
 955 04c2 8946     		mov	r9, r1
 956              	.LVL124:
 181:Source\mbedtls_open\library/ripemd160.c ****     P2( A, B, C, D, E, 10, 14, 15,  8 );
 957              		.loc 1 181 0
 958 04c4 5146     		mov	r1, r10
 959              	.LVL125:
ARM GAS  C:\Users\Phuong\AppData\Local\Temp\ccbgGR22.s 			page 21


 960 04c6 6940     		eors	r1, r5
 961 04c8 5A46     		mov	r2, fp
 962 04ca 5140     		eors	r1, r2
 963 04cc 8846     		mov	r8, r1
 964 04ce 0999     		ldr	r1, [sp, #36]
 965 04d0 8C46     		mov	ip, r1
 966 04d2 E044     		add	r8, r8, ip
 967 04d4 129A     		ldr	r2, [sp, #72]
 968 04d6 9446     		mov	ip, r2
 969 04d8 C444     		add	ip, ip, r8
 970              	.LVL126:
 971 04da 6146     		mov	r1, ip
 972 04dc 1222     		movs	r2, #18
 973 04de D141     		rors	r1, r1, r2
 974 04e0 8C46     		mov	ip, r1
 975              	.LVL127:
 976 04e2 1099     		ldr	r1, [sp, #64]
 977 04e4 8846     		mov	r8, r1
 978              	.LVL128:
 979 04e6 C444     		add	ip, ip, r8
 980              	.LVL129:
 981 04e8 5146     		mov	r1, r10
 982 04ea D941     		rors	r1, r1, r3
 983 04ec 1291     		str	r1, [sp, #72]
 984              	.LVL130:
 985 04ee 4A46     		mov	r2, r9
 986 04f0 D243     		mvns	r2, r2
 987 04f2 1100     		movs	r1, r2
 988              	.LVL131:
 989 04f4 119A     		ldr	r2, [sp, #68]
 990 04f6 1143     		orrs	r1, r2
 991 04f8 6140     		eors	r1, r4
 992 04fa 8846     		mov	r8, r1
 993 04fc 0E99     		ldr	r1, [sp, #56]
 994 04fe 8A46     		mov	r10, r1
 995 0500 D044     		add	r8, r8, r10
 996 0502 4044     		add	r0, r0, r8
 997              	.LVL132:
 998 0504 404A     		ldr	r2, .L10
 999 0506 9046     		mov	r8, r2
 1000 0508 4044     		add	r0, r0, r8
 1001              	.LVL133:
 1002 050a 1822     		movs	r2, #24
 1003 050c D041     		rors	r0, r0, r2
 1004              	.LVL134:
 1005 050e 139A     		ldr	r2, [sp, #76]
 1006 0510 9046     		mov	r8, r2
 1007 0512 4044     		add	r0, r0, r8
 1008              	.LVL135:
 1009 0514 119A     		ldr	r2, [sp, #68]
 1010 0516 DA41     		rors	r2, r2, r3
 1011 0518 9246     		mov	r10, r2
 1012              	.LVL136:
 182:Source\mbedtls_open\library/ripemd160.c ****     P2( E, A, B, C, D, 11, 15,  8, 11 );
 1013              		.loc 1 182 0
 1014 051a 6246     		mov	r2, ip
 1015              	.LVL137:
ARM GAS  C:\Users\Phuong\AppData\Local\Temp\ccbgGR22.s 			page 22


 1016 051c 6A40     		eors	r2, r5
 1017 051e 1299     		ldr	r1, [sp, #72]
 1018 0520 4A40     		eors	r2, r1
 1019 0522 0A99     		ldr	r1, [sp, #40]
 1020 0524 8846     		mov	r8, r1
 1021 0526 4244     		add	r2, r2, r8
 1022 0528 1099     		ldr	r1, [sp, #64]
 1023 052a 8846     		mov	r8, r1
 1024 052c 4244     		add	r2, r2, r8
 1025              	.LVL138:
 1026 052e 1121     		movs	r1, #17
 1027 0530 CA41     		rors	r2, r2, r1
 1028              	.LVL139:
 1029 0532 5A44     		add	r2, r2, fp
 1030              	.LVL140:
 1031 0534 DD41     		rors	r5, r5, r3
 1032              	.LVL141:
 1033 0536 1095     		str	r5, [sp, #64]
 1034              	.LVL142:
 1035 0538 5546     		mov	r5, r10
 1036              	.LVL143:
 1037 053a ED43     		mvns	r5, r5
 1038 053c 2543     		orrs	r5, r4
 1039 053e 4540     		eors	r5, r0
 1040 0540 0799     		ldr	r1, [sp, #28]
 1041 0542 8846     		mov	r8, r1
 1042 0544 4544     		add	r5, r5, r8
 1043 0546 1399     		ldr	r1, [sp, #76]
 1044 0548 4919     		adds	r1, r1, r5
 1045 054a 2F4D     		ldr	r5, .L10
 1046 054c A846     		mov	r8, r5
 1047 054e 4144     		add	r1, r1, r8
 1048              	.LVL144:
 1049 0550 1525     		movs	r5, #21
 1050 0552 E941     		rors	r1, r1, r5
 1051              	.LVL145:
 1052 0554 4944     		add	r1, r1, r9
 1053              	.LVL146:
 1054 0556 DC41     		rors	r4, r4, r3
 1055              	.LVL147:
 1056 0558 1194     		str	r4, [sp, #68]
 1057              	.LVL148:
 183:Source\mbedtls_open\library/ripemd160.c ****     P2( D, E, A, B, C, 12,  6,  1, 14 );
 1058              		.loc 1 183 0
 1059 055a 6546     		mov	r5, ip
 1060 055c 5540     		eors	r5, r2
 1061 055e 109C     		ldr	r4, [sp, #64]
 1062              	.LVL149:
 1063 0560 6540     		eors	r5, r4
 1064 0562 0B9C     		ldr	r4, [sp, #44]
 1065 0564 A046     		mov	r8, r4
 1066 0566 4544     		add	r5, r5, r8
 1067 0568 5D44     		add	r5, r5, fp
 1068              	.LVL150:
 1069 056a 1A24     		movs	r4, #26
 1070 056c E541     		rors	r5, r5, r4
 1071              	.LVL151:
ARM GAS  C:\Users\Phuong\AppData\Local\Temp\ccbgGR22.s 			page 23


 1072 056e 129C     		ldr	r4, [sp, #72]
 1073 0570 A346     		mov	fp, r4
 1074              	.LVL152:
 1075 0572 AB44     		add	fp, fp, r5
 1076              	.LVL153:
 1077 0574 6546     		mov	r5, ip
 1078 0576 DD41     		rors	r5, r5, r3
 1079 0578 AC46     		mov	ip, r5
 1080              	.LVL154:
 1081 057a 119C     		ldr	r4, [sp, #68]
 1082 057c E543     		mvns	r5, r4
 1083              	.LVL155:
 1084 057e 0543     		orrs	r5, r0
 1085 0580 4D40     		eors	r5, r1
 1086 0582 009C     		ldr	r4, [sp]
 1087 0584 A046     		mov	r8, r4
 1088 0586 4544     		add	r5, r5, r8
 1089 0588 4D44     		add	r5, r5, r9
 1090 058a 1F4C     		ldr	r4, .L10
 1091 058c A046     		mov	r8, r4
 1092 058e 4544     		add	r5, r5, r8
 1093              	.LVL156:
 1094 0590 1224     		movs	r4, #18
 1095 0592 E541     		rors	r5, r5, r4
 1096              	.LVL157:
 1097 0594 5544     		add	r5, r5, r10
 1098 0596 A846     		mov	r8, r5
 1099              	.LVL158:
 1100 0598 D841     		rors	r0, r0, r3
 1101              	.LVL159:
 1102 059a 0400     		movs	r4, r0
 1103              	.LVL160:
 184:Source\mbedtls_open\library/ripemd160.c ****     P2( C, D, E, A, B, 13,  7, 10, 14 );
 1104              		.loc 1 184 0
 1105 059c 5D46     		mov	r5, fp
 1106              	.LVL161:
 1107 059e 5540     		eors	r5, r2
 1108 05a0 6046     		mov	r0, ip
 1109              	.LVL162:
 1110 05a2 4540     		eors	r5, r0
 1111 05a4 0C98     		ldr	r0, [sp, #48]
 1112 05a6 8146     		mov	r9, r0
 1113 05a8 4D44     		add	r5, r5, r9
 1114 05aa 1298     		ldr	r0, [sp, #72]
 1115 05ac 8146     		mov	r9, r0
 1116 05ae 4D44     		add	r5, r5, r9
 1117              	.LVL163:
 1118 05b0 F541     		rors	r5, r5, r6
 1119              	.LVL164:
 1120 05b2 1098     		ldr	r0, [sp, #64]
 1121 05b4 8146     		mov	r9, r0
 1122 05b6 4D44     		add	r5, r5, r9
 1123              	.LVL165:
 1124 05b8 DA41     		rors	r2, r2, r3
 1125              	.LVL166:
 1126 05ba 1292     		str	r2, [sp, #72]
 1127              	.LVL167:
ARM GAS  C:\Users\Phuong\AppData\Local\Temp\ccbgGR22.s 			page 24


 1128 05bc 1494     		str	r4, [sp, #80]
 1129 05be E243     		mvns	r2, r4
 1130              	.LVL168:
 1131 05c0 0A43     		orrs	r2, r1
 1132 05c2 4046     		mov	r0, r8
 1133 05c4 4240     		eors	r2, r0
 1134 05c6 099C     		ldr	r4, [sp, #36]
 1135              	.LVL169:
 1136 05c8 A146     		mov	r9, r4
 1137 05ca 4A44     		add	r2, r2, r9
 1138 05cc 5244     		add	r2, r2, r10
 1139 05ce 0E48     		ldr	r0, .L10
 1140 05d0 8146     		mov	r9, r0
 1141 05d2 4A44     		add	r2, r2, r9
 1142              	.LVL170:
 1143 05d4 1220     		movs	r0, #18
 1144 05d6 C241     		rors	r2, r2, r0
 1145              	.LVL171:
 1146 05d8 9246     		mov	r10, r2
 1147              	.LVL172:
 1148 05da 1198     		ldr	r0, [sp, #68]
 1149 05dc 8146     		mov	r9, r0
 1150 05de CA44     		add	r10, r10, r9
 1151 05e0 5046     		mov	r0, r10
 1152 05e2 1390     		str	r0, [sp, #76]
 1153              	.LVL173:
 1154 05e4 D941     		rors	r1, r1, r3
 1155              	.LVL174:
 1156 05e6 8A46     		mov	r10, r1
 1157              	.LVL175:
 185:Source\mbedtls_open\library/ripemd160.c ****     P2( B, C, D, E, A, 14,  9,  3, 12 );
 1158              		.loc 1 185 0
 1159 05e8 5946     		mov	r1, fp
 1160              	.LVL176:
 1161 05ea 6940     		eors	r1, r5
 1162 05ec 129A     		ldr	r2, [sp, #72]
 1163 05ee 5140     		eors	r1, r2
 1164 05f0 0D98     		ldr	r0, [sp, #52]
 1165              	.LVL177:
 1166 05f2 8146     		mov	r9, r0
 1167 05f4 4944     		add	r1, r1, r9
 1168 05f6 1098     		ldr	r0, [sp, #64]
 1169 05f8 8146     		mov	r9, r0
 1170 05fa 4944     		add	r1, r1, r9
 1171              	.LVL178:
 1172 05fc 1722     		movs	r2, #23
 1173 05fe D141     		rors	r1, r1, r2
 1174              	.LVL179:
 1175 0600 6144     		add	r1, r1, ip
 1176              	.LVL180:
 1177 0602 5846     		mov	r0, fp
 1178 0604 D841     		rors	r0, r0, r3
 1179 0606 01E0     		b	.L11
 1180              	.L12:
 1181              		.align	2
 1182              	.L10:
 1183 0608 E68BA250 		.word	1352829926
ARM GAS  C:\Users\Phuong\AppData\Local\Temp\ccbgGR22.s 			page 25


 1184              	.L11:
 1185              	.LVL181:
 1186 060c 5246     		mov	r2, r10
 1187 060e D243     		mvns	r2, r2
 1188 0610 1400     		movs	r4, r2
 1189 0612 4246     		mov	r2, r8
 1190 0614 1443     		orrs	r4, r2
 1191 0616 139A     		ldr	r2, [sp, #76]
 1192 0618 5440     		eors	r4, r2
 1193 061a A346     		mov	fp, r4
 1194 061c 029C     		ldr	r4, [sp, #8]
 1195 061e A146     		mov	r9, r4
 1196 0620 CB44     		add	fp, fp, r9
 1197 0622 119C     		ldr	r4, [sp, #68]
 1198 0624 5C44     		add	r4, r4, fp
 1199 0626 FE4A     		ldr	r2, .L13
 1200 0628 9146     		mov	r9, r2
 1201 062a 4C44     		add	r4, r4, r9
 1202              	.LVL182:
 1203 062c 1422     		movs	r2, #20
 1204 062e D441     		rors	r4, r4, r2
 1205              	.LVL183:
 1206 0630 149A     		ldr	r2, [sp, #80]
 1207 0632 9146     		mov	r9, r2
 1208              	.LVL184:
 1209 0634 4C44     		add	r4, r4, r9
 1210              	.LVL185:
 1211 0636 4246     		mov	r2, r8
 1212 0638 DA41     		rors	r2, r2, r3
 1213 063a 9346     		mov	fp, r2
 1214              	.LVL186:
 186:Source\mbedtls_open\library/ripemd160.c ****     P2( A, B, C, D, E, 15,  8, 12,  6 );
 1215              		.loc 1 186 0
 1216 063c 2A00     		movs	r2, r5
 1217              	.LVL187:
 1218 063e 4A40     		eors	r2, r1
 1219 0640 1090     		str	r0, [sp, #64]
 1220 0642 4240     		eors	r2, r0
 1221 0644 9046     		mov	r8, r2
 1222 0646 0E98     		ldr	r0, [sp, #56]
 1223              	.LVL188:
 1224 0648 8146     		mov	r9, r0
 1225 064a C844     		add	r8, r8, r9
 1226 064c C444     		add	ip, ip, r8
 1227              	.LVL189:
 1228 064e 6246     		mov	r2, ip
 1229 0650 1820     		movs	r0, #24
 1230 0652 C241     		rors	r2, r2, r0
 1231 0654 9446     		mov	ip, r2
 1232              	.LVL190:
 1233 0656 1298     		ldr	r0, [sp, #72]
 1234 0658 8146     		mov	r9, r0
 1235 065a CC44     		add	ip, ip, r9
 1236              	.LVL191:
 1237 065c DD41     		rors	r5, r5, r3
 1238              	.LVL192:
 1239 065e A846     		mov	r8, r5
ARM GAS  C:\Users\Phuong\AppData\Local\Temp\ccbgGR22.s 			page 26


 1240              	.LVL193:
 1241 0660 5A46     		mov	r2, fp
 1242 0662 D543     		mvns	r5, r2
 1243              	.LVL194:
 1244 0664 1398     		ldr	r0, [sp, #76]
 1245 0666 0543     		orrs	r5, r0
 1246 0668 6540     		eors	r5, r4
 1247 066a 0B98     		ldr	r0, [sp, #44]
 1248 066c 8146     		mov	r9, r0
 1249 066e 4D44     		add	r5, r5, r9
 1250 0670 149A     		ldr	r2, [sp, #80]
 1251 0672 5019     		adds	r0, r2, r5
 1252 0674 EA4A     		ldr	r2, .L13
 1253 0676 9146     		mov	r9, r2
 1254 0678 4844     		add	r0, r0, r9
 1255              	.LVL195:
 1256 067a 1A22     		movs	r2, #26
 1257 067c D041     		rors	r0, r0, r2
 1258              	.LVL196:
 1259 067e 5044     		add	r0, r0, r10
 1260              	.LVL197:
 1261 0680 139A     		ldr	r2, [sp, #76]
 1262 0682 DA41     		rors	r2, r2, r3
 1263 0684 1192     		str	r2, [sp, #68]
 1264              	.LVL198:
 187:Source\mbedtls_open\library/ripemd160.c **** #undef F
 188:Source\mbedtls_open\library/ripemd160.c **** #undef K
 189:Source\mbedtls_open\library/ripemd160.c **** #undef Fp
 190:Source\mbedtls_open\library/ripemd160.c **** #undef Kp
 191:Source\mbedtls_open\library/ripemd160.c **** 
 192:Source\mbedtls_open\library/ripemd160.c **** #define F   F2
 193:Source\mbedtls_open\library/ripemd160.c **** #define K   0x5A827999
 194:Source\mbedtls_open\library/ripemd160.c **** #define Fp  F4
 195:Source\mbedtls_open\library/ripemd160.c **** #define Kp  0x5C4DD124
 196:Source\mbedtls_open\library/ripemd160.c ****     P2( E, A, B, C, D,  7,  7,  6,  9 );
 1265              		.loc 1 196 0
 1266 0686 4246     		mov	r2, r8
 1267              	.LVL199:
 1268 0688 4A40     		eors	r2, r1
 1269 068a 6546     		mov	r5, ip
 1270 068c 2A40     		ands	r2, r5
 1271 068e 4546     		mov	r5, r8
 1272 0690 6A40     		eors	r2, r5
 1273 0692 069D     		ldr	r5, [sp, #24]
 1274 0694 A946     		mov	r9, r5
 1275 0696 4A44     		add	r2, r2, r9
 1276 0698 129D     		ldr	r5, [sp, #72]
 1277 069a A946     		mov	r9, r5
 1278 069c 4A44     		add	r2, r2, r9
 1279 069e E14D     		ldr	r5, .L13+4
 1280 06a0 A946     		mov	r9, r5
 1281 06a2 4A44     		add	r2, r2, r9
 1282              	.LVL200:
 1283 06a4 F241     		rors	r2, r2, r6
 1284              	.LVL201:
 1285 06a6 109D     		ldr	r5, [sp, #64]
 1286              	.LVL202:
ARM GAS  C:\Users\Phuong\AppData\Local\Temp\ccbgGR22.s 			page 27


 1287 06a8 A946     		mov	r9, r5
 1288              	.LVL203:
 1289 06aa 4A44     		add	r2, r2, r9
 1290 06ac 1292     		str	r2, [sp, #72]
 1291              	.LVL204:
 1292 06ae D941     		rors	r1, r1, r3
 1293              	.LVL205:
 1294 06b0 0A00     		movs	r2, r1
 1295              	.LVL206:
 1296 06b2 2500     		movs	r5, r4
 1297 06b4 4540     		eors	r5, r0
 1298 06b6 1199     		ldr	r1, [sp, #68]
 1299              	.LVL207:
 1300 06b8 0D40     		ands	r5, r1
 1301 06ba 6540     		eors	r5, r4
 1302 06bc 0599     		ldr	r1, [sp, #20]
 1303 06be 8946     		mov	r9, r1
 1304 06c0 4D44     		add	r5, r5, r9
 1305 06c2 5544     		add	r5, r5, r10
 1306 06c4 D849     		ldr	r1, .L13+8
 1307 06c6 8946     		mov	r9, r1
 1308 06c8 4D44     		add	r5, r5, r9
 1309              	.LVL208:
 1310 06ca 1721     		movs	r1, #23
 1311 06cc CD41     		rors	r5, r5, r1
 1312              	.LVL209:
 1313 06ce 5D44     		add	r5, r5, fp
 1314              	.LVL210:
 1315 06d0 DC41     		rors	r4, r4, r3
 1316              	.LVL211:
 1317 06d2 A246     		mov	r10, r4
 1318              	.LVL212:
 197:Source\mbedtls_open\library/ripemd160.c ****     P2( D, E, A, B, C,  4,  6, 11, 13 );
 1319              		.loc 1 197 0
 1320 06d4 6446     		mov	r4, ip
 1321              	.LVL213:
 1322 06d6 5440     		eors	r4, r2
 1323 06d8 1299     		ldr	r1, [sp, #72]
 1324 06da 0C40     		ands	r4, r1
 1325 06dc 1492     		str	r2, [sp, #80]
 1326 06de 5440     		eors	r4, r2
 1327 06e0 0399     		ldr	r1, [sp, #12]
 1328 06e2 8946     		mov	r9, r1
 1329 06e4 4C44     		add	r4, r4, r9
 1330 06e6 1099     		ldr	r1, [sp, #64]
 1331 06e8 8946     		mov	r9, r1
 1332 06ea 4C44     		add	r4, r4, r9
 1333 06ec CD49     		ldr	r1, .L13+4
 1334 06ee 8946     		mov	r9, r1
 1335 06f0 4C44     		add	r4, r4, r9
 1336              	.LVL214:
 1337 06f2 1A21     		movs	r1, #26
 1338 06f4 CC41     		rors	r4, r4, r1
 1339              	.LVL215:
 1340 06f6 4444     		add	r4, r4, r8
 1341              	.LVL216:
 1342 06f8 6146     		mov	r1, ip
ARM GAS  C:\Users\Phuong\AppData\Local\Temp\ccbgGR22.s 			page 28


 1343 06fa D941     		rors	r1, r1, r3
 1344 06fc 1091     		str	r1, [sp, #64]
 1345              	.LVL217:
 1346 06fe 0100     		movs	r1, r0
 1347              	.LVL218:
 1348 0700 6940     		eors	r1, r5
 1349 0702 5246     		mov	r2, r10
 1350              	.LVL219:
 1351 0704 1140     		ands	r1, r2
 1352 0706 4140     		eors	r1, r0
 1353 0708 8946     		mov	r9, r1
 1354 070a 0A99     		ldr	r1, [sp, #40]
 1355 070c 8C46     		mov	ip, r1
 1356 070e E144     		add	r9, r9, ip
 1357 0710 CB44     		add	fp, fp, r9
 1358              	.LVL220:
 1359 0712 C54A     		ldr	r2, .L13+8
 1360 0714 9446     		mov	ip, r2
 1361 0716 E344     		add	fp, fp, ip
 1362              	.LVL221:
 1363 0718 5946     		mov	r1, fp
 1364 071a 1322     		movs	r2, #19
 1365 071c D141     		rors	r1, r1, r2
 1366 071e 8B46     		mov	fp, r1
 1367              	.LVL222:
 1368 0720 1199     		ldr	r1, [sp, #68]
 1369 0722 8C46     		mov	ip, r1
 1370 0724 E344     		add	fp, fp, ip
 1371              	.LVL223:
 1372 0726 D841     		rors	r0, r0, r3
 1373              	.LVL224:
 1374 0728 1390     		str	r0, [sp, #76]
 1375              	.LVL225:
 198:Source\mbedtls_open\library/ripemd160.c ****     P2( C, D, E, A, B, 13,  8,  3, 15 );
 1376              		.loc 1 198 0
 1377 072a 1099     		ldr	r1, [sp, #64]
 1378 072c 0800     		movs	r0, r1
 1379              	.LVL226:
 1380 072e 129A     		ldr	r2, [sp, #72]
 1381 0730 5040     		eors	r0, r2
 1382 0732 2040     		ands	r0, r4
 1383 0734 4840     		eors	r0, r1
 1384 0736 0C99     		ldr	r1, [sp, #48]
 1385 0738 8946     		mov	r9, r1
 1386 073a 4844     		add	r0, r0, r9
 1387 073c 4044     		add	r0, r0, r8
 1388 073e B94A     		ldr	r2, .L13+4
 1389 0740 9446     		mov	ip, r2
 1390 0742 6044     		add	r0, r0, ip
 1391              	.LVL227:
 1392 0744 1822     		movs	r2, #24
 1393 0746 D041     		rors	r0, r0, r2
 1394              	.LVL228:
 1395 0748 149A     		ldr	r2, [sp, #80]
 1396 074a 9446     		mov	ip, r2
 1397              	.LVL229:
 1398 074c 6044     		add	r0, r0, ip
ARM GAS  C:\Users\Phuong\AppData\Local\Temp\ccbgGR22.s 			page 29


 1399              	.LVL230:
 1400 074e 129A     		ldr	r2, [sp, #72]
 1401 0750 DA41     		rors	r2, r2, r3
 1402 0752 9146     		mov	r9, r2
 1403              	.LVL231:
 1404 0754 5A46     		mov	r2, fp
 1405              	.LVL232:
 1406 0756 6A40     		eors	r2, r5
 1407 0758 1399     		ldr	r1, [sp, #76]
 1408 075a 0A40     		ands	r2, r1
 1409 075c 6A40     		eors	r2, r5
 1410 075e 0299     		ldr	r1, [sp, #8]
 1411 0760 8C46     		mov	ip, r1
 1412 0762 6244     		add	r2, r2, ip
 1413 0764 1199     		ldr	r1, [sp, #68]
 1414 0766 8C46     		mov	ip, r1
 1415 0768 6244     		add	r2, r2, ip
 1416 076a AF49     		ldr	r1, .L13+8
 1417 076c 8C46     		mov	ip, r1
 1418 076e 6244     		add	r2, r2, ip
 1419              	.LVL233:
 1420 0770 1121     		movs	r1, #17
 1421 0772 CA41     		rors	r2, r2, r1
 1422              	.LVL234:
 1423 0774 5244     		add	r2, r2, r10
 1424              	.LVL235:
 1425 0776 DD41     		rors	r5, r5, r3
 1426              	.LVL236:
 1427 0778 A846     		mov	r8, r5
 1428              	.LVL237:
 199:Source\mbedtls_open\library/ripemd160.c ****     P2( B, C, D, E, A,  1, 13,  7,  7 );
 1429              		.loc 1 199 0
 1430 077a 4D46     		mov	r5, r9
 1431              	.LVL238:
 1432 077c 6540     		eors	r5, r4
 1433 077e 0540     		ands	r5, r0
 1434 0780 4946     		mov	r1, r9
 1435 0782 4D40     		eors	r5, r1
 1436 0784 0099     		ldr	r1, [sp]
 1437 0786 8C46     		mov	ip, r1
 1438 0788 6544     		add	r5, r5, ip
 1439 078a 1499     		ldr	r1, [sp, #80]
 1440 078c 4919     		adds	r1, r1, r5
 1441 078e A54D     		ldr	r5, .L13+4
 1442 0790 AC46     		mov	ip, r5
 1443 0792 6144     		add	r1, r1, ip
 1444              	.LVL239:
 1445 0794 1325     		movs	r5, #19
 1446 0796 E941     		rors	r1, r1, r5
 1447              	.LVL240:
 1448 0798 109D     		ldr	r5, [sp, #64]
 1449 079a AC46     		mov	ip, r5
 1450              	.LVL241:
 1451 079c 6144     		add	r1, r1, ip
 1452              	.LVL242:
 1453 079e DC41     		rors	r4, r4, r3
 1454              	.LVL243:
ARM GAS  C:\Users\Phuong\AppData\Local\Temp\ccbgGR22.s 			page 30


 1455 07a0 1194     		str	r4, [sp, #68]
 1456              	.LVL244:
 1457 07a2 5D46     		mov	r5, fp
 1458 07a4 5540     		eors	r5, r2
 1459 07a6 4446     		mov	r4, r8
 1460              	.LVL245:
 1461 07a8 2540     		ands	r5, r4
 1462 07aa 5C46     		mov	r4, fp
 1463 07ac 6540     		eors	r5, r4
 1464 07ae 069C     		ldr	r4, [sp, #24]
 1465 07b0 A446     		mov	ip, r4
 1466 07b2 6544     		add	r5, r5, ip
 1467 07b4 5544     		add	r5, r5, r10
 1468 07b6 9C4C     		ldr	r4, .L13+8
 1469 07b8 A446     		mov	ip, r4
 1470 07ba 6544     		add	r5, r5, ip
 1471              	.LVL246:
 1472 07bc F541     		rors	r5, r5, r6
 1473              	.LVL247:
 1474 07be 139C     		ldr	r4, [sp, #76]
 1475              	.LVL248:
 1476 07c0 A446     		mov	ip, r4
 1477              	.LVL249:
 1478 07c2 AA46     		mov	r10, r5
 1479              	.LVL250:
 1480 07c4 E244     		add	r10, r10, ip
 1481 07c6 5446     		mov	r4, r10
 1482 07c8 1494     		str	r4, [sp, #80]
 1483              	.LVL251:
 1484 07ca 5C46     		mov	r4, fp
 1485              	.LVL252:
 1486 07cc DC41     		rors	r4, r4, r3
 1487 07ce 1294     		str	r4, [sp, #72]
 1488              	.LVL253:
 200:Source\mbedtls_open\library/ripemd160.c ****     P2( A, B, C, D, E, 10, 11,  0, 12 );
 1489              		.loc 1 200 0
 1490 07d0 0400     		movs	r4, r0
 1491              	.LVL254:
 1492 07d2 119D     		ldr	r5, [sp, #68]
 1493 07d4 6C40     		eors	r4, r5
 1494 07d6 0C40     		ands	r4, r1
 1495 07d8 6C40     		eors	r4, r5
 1496 07da A246     		mov	r10, r4
 1497              	.LVL255:
 1498 07dc 099C     		ldr	r4, [sp, #36]
 1499 07de A446     		mov	ip, r4
 1500 07e0 E244     		add	r10, r10, ip
 1501 07e2 109C     		ldr	r4, [sp, #64]
 1502 07e4 A446     		mov	ip, r4
 1503 07e6 D444     		add	ip, ip, r10
 1504 07e8 8E4C     		ldr	r4, .L13+4
 1505 07ea A246     		mov	r10, r4
 1506 07ec D444     		add	ip, ip, r10
 1507              	.LVL256:
 1508 07ee 6446     		mov	r4, ip
 1509 07f0 1525     		movs	r5, #21
 1510 07f2 EC41     		rors	r4, r4, r5
ARM GAS  C:\Users\Phuong\AppData\Local\Temp\ccbgGR22.s 			page 31


 1511 07f4 A446     		mov	ip, r4
 1512              	.LVL257:
 1513 07f6 CC44     		add	ip, ip, r9
 1514              	.LVL258:
 1515 07f8 D841     		rors	r0, r0, r3
 1516              	.LVL259:
 1517 07fa 8246     		mov	r10, r0
 1518              	.LVL260:
 1519 07fc 1000     		movs	r0, r2
 1520              	.LVL261:
 1521 07fe 149C     		ldr	r4, [sp, #80]
 1522 0800 6040     		eors	r0, r4
 1523 0802 129D     		ldr	r5, [sp, #72]
 1524 0804 2840     		ands	r0, r5
 1525 0806 5040     		eors	r0, r2
 1526 0808 0F9C     		ldr	r4, [sp, #60]
 1527 080a A346     		mov	fp, r4
 1528 080c 5844     		add	r0, r0, fp
 1529 080e 139C     		ldr	r4, [sp, #76]
 1530 0810 A346     		mov	fp, r4
 1531 0812 5844     		add	r0, r0, fp
 1532 0814 844D     		ldr	r5, .L13+8
 1533 0816 AB46     		mov	fp, r5
 1534 0818 5844     		add	r0, r0, fp
 1535              	.LVL262:
 1536 081a 1425     		movs	r5, #20
 1537 081c E841     		rors	r0, r0, r5
 1538              	.LVL263:
 1539 081e 4044     		add	r0, r0, r8
 1540              	.LVL264:
 1541 0820 DA41     		rors	r2, r2, r3
 1542              	.LVL265:
 1543 0822 1092     		str	r2, [sp, #64]
 1544              	.LVL266:
 201:Source\mbedtls_open\library/ripemd160.c ****     P2( E, A, B, C, D,  6,  9, 13,  8 );
 1545              		.loc 1 201 0
 1546 0824 5246     		mov	r2, r10
 1547              	.LVL267:
 1548 0826 4A40     		eors	r2, r1
 1549 0828 6546     		mov	r5, ip
 1550 082a 2A40     		ands	r2, r5
 1551 082c 5546     		mov	r5, r10
 1552 082e 6A40     		eors	r2, r5
 1553 0830 059C     		ldr	r4, [sp, #20]
 1554 0832 A346     		mov	fp, r4
 1555 0834 5A44     		add	r2, r2, fp
 1556 0836 4A44     		add	r2, r2, r9
 1557 0838 7A4D     		ldr	r5, .L13+4
 1558 083a A946     		mov	r9, r5
 1559              	.LVL268:
 1560 083c 4A44     		add	r2, r2, r9
 1561              	.LVL269:
 1562 083e 1725     		movs	r5, #23
 1563 0840 EA41     		rors	r2, r2, r5
 1564              	.LVL270:
 1565 0842 9346     		mov	fp, r2
 1566 0844 119C     		ldr	r4, [sp, #68]
ARM GAS  C:\Users\Phuong\AppData\Local\Temp\ccbgGR22.s 			page 32


 1567 0846 A146     		mov	r9, r4
 1568 0848 CB44     		add	fp, fp, r9
 1569 084a 5D46     		mov	r5, fp
 1570 084c 1395     		str	r5, [sp, #76]
 1571              	.LVL271:
 1572 084e 0A00     		movs	r2, r1
 1573 0850 DA41     		rors	r2, r2, r3
 1574 0852 9146     		mov	r9, r2
 1575              	.LVL272:
 1576 0854 149C     		ldr	r4, [sp, #80]
 1577 0856 2200     		movs	r2, r4
 1578              	.LVL273:
 1579 0858 4240     		eors	r2, r0
 1580 085a 1100     		movs	r1, r2
 1581 085c 109A     		ldr	r2, [sp, #64]
 1582 085e 1140     		ands	r1, r2
 1583 0860 6140     		eors	r1, r4
 1584 0862 0C9A     		ldr	r2, [sp, #48]
 1585 0864 9346     		mov	fp, r2
 1586 0866 5944     		add	r1, r1, fp
 1587 0868 4144     		add	r1, r1, r8
 1588 086a 6F4D     		ldr	r5, .L13+8
 1589              	.LVL274:
 1590 086c A846     		mov	r8, r5
 1591              	.LVL275:
 1592 086e 4144     		add	r1, r1, r8
 1593              	.LVL276:
 1594 0870 1825     		movs	r5, #24
 1595 0872 E941     		rors	r1, r1, r5
 1596              	.LVL277:
 1597 0874 129D     		ldr	r5, [sp, #72]
 1598 0876 AB46     		mov	fp, r5
 1599 0878 5944     		add	r1, r1, fp
 1600              	.LVL278:
 1601 087a 2500     		movs	r5, r4
 1602 087c DD41     		rors	r5, r5, r3
 1603 087e A846     		mov	r8, r5
 1604              	.LVL279:
 202:Source\mbedtls_open\library/ripemd160.c ****     P2( D, E, A, B, C, 15,  7,  5,  9 );
 1605              		.loc 1 202 0
 1606 0880 6546     		mov	r5, ip
 1607              	.LVL280:
 1608 0882 4A46     		mov	r2, r9
 1609 0884 5540     		eors	r5, r2
 1610 0886 139C     		ldr	r4, [sp, #76]
 1611 0888 2540     		ands	r5, r4
 1612 088a 5540     		eors	r5, r2
 1613 088c 0E9A     		ldr	r2, [sp, #56]
 1614 088e 9346     		mov	fp, r2
 1615 0890 5D44     		add	r5, r5, fp
 1616 0892 119A     		ldr	r2, [sp, #68]
 1617 0894 5419     		adds	r4, r2, r5
 1618 0896 634D     		ldr	r5, .L13+4
 1619 0898 AB46     		mov	fp, r5
 1620 089a 5C44     		add	r4, r4, fp
 1621              	.LVL281:
 1622 089c F441     		rors	r4, r4, r6
ARM GAS  C:\Users\Phuong\AppData\Local\Temp\ccbgGR22.s 			page 33


 1623              	.LVL282:
 1624 089e 5444     		add	r4, r4, r10
 1625              	.LVL283:
 1626 08a0 6546     		mov	r5, ip
 1627 08a2 DD41     		rors	r5, r5, r3
 1628 08a4 AC46     		mov	ip, r5
 1629              	.LVL284:
 1630 08a6 0500     		movs	r5, r0
 1631              	.LVL285:
 1632 08a8 4D40     		eors	r5, r1
 1633 08aa 4246     		mov	r2, r8
 1634 08ac 1540     		ands	r5, r2
 1635 08ae 4540     		eors	r5, r0
 1636 08b0 049A     		ldr	r2, [sp, #16]
 1637 08b2 9346     		mov	fp, r2
 1638 08b4 5D44     		add	r5, r5, fp
 1639 08b6 129A     		ldr	r2, [sp, #72]
 1640 08b8 9346     		mov	fp, r2
 1641 08ba 5D44     		add	r5, r5, fp
 1642 08bc 5A4A     		ldr	r2, .L13+8
 1643 08be 9346     		mov	fp, r2
 1644 08c0 5D44     		add	r5, r5, fp
 1645              	.LVL286:
 1646 08c2 1722     		movs	r2, #23
 1647 08c4 D541     		rors	r5, r5, r2
 1648              	.LVL287:
 1649 08c6 109A     		ldr	r2, [sp, #64]
 1650 08c8 9346     		mov	fp, r2
 1651              	.LVL288:
 1652 08ca 2A00     		movs	r2, r5
 1653 08cc 5A44     		add	r2, r2, fp
 1654              	.LVL289:
 1655 08ce D841     		rors	r0, r0, r3
 1656              	.LVL290:
 1657 08d0 1290     		str	r0, [sp, #72]
 1658              	.LVL291:
 203:Source\mbedtls_open\library/ripemd160.c ****     P2( C, D, E, A, B,  3, 15, 10, 11 );
 1659              		.loc 1 203 0
 1660 08d2 6546     		mov	r5, ip
 1661 08d4 1398     		ldr	r0, [sp, #76]
 1662              	.LVL292:
 1663 08d6 4540     		eors	r5, r0
 1664 08d8 2800     		movs	r0, r5
 1665 08da 2040     		ands	r0, r4
 1666 08dc 6546     		mov	r5, ip
 1667 08de 6840     		eors	r0, r5
 1668 08e0 029D     		ldr	r5, [sp, #8]
 1669 08e2 AB46     		mov	fp, r5
 1670 08e4 5844     		add	r0, r0, fp
 1671 08e6 5044     		add	r0, r0, r10
 1672 08e8 4E4D     		ldr	r5, .L13+4
 1673 08ea AA46     		mov	r10, r5
 1674              	.LVL293:
 1675 08ec 5044     		add	r0, r0, r10
 1676              	.LVL294:
 1677 08ee 1125     		movs	r5, #17
 1678 08f0 E841     		rors	r0, r0, r5
ARM GAS  C:\Users\Phuong\AppData\Local\Temp\ccbgGR22.s 			page 34


 1679              	.LVL295:
 1680 08f2 4844     		add	r0, r0, r9
 1681              	.LVL296:
 1682 08f4 139D     		ldr	r5, [sp, #76]
 1683 08f6 DD41     		rors	r5, r5, r3
 1684 08f8 AB46     		mov	fp, r5
 1685              	.LVL297:
 1686 08fa 0D00     		movs	r5, r1
 1687              	.LVL298:
 1688 08fc 1192     		str	r2, [sp, #68]
 1689 08fe 5540     		eors	r5, r2
 1690 0900 2A00     		movs	r2, r5
 1691              	.LVL299:
 1692 0902 129D     		ldr	r5, [sp, #72]
 1693 0904 2A40     		ands	r2, r5
 1694 0906 4A40     		eors	r2, r1
 1695 0908 099D     		ldr	r5, [sp, #36]
 1696 090a AA46     		mov	r10, r5
 1697 090c 5244     		add	r2, r2, r10
 1698 090e 109D     		ldr	r5, [sp, #64]
 1699 0910 AA46     		mov	r10, r5
 1700 0912 5244     		add	r2, r2, r10
 1701 0914 444D     		ldr	r5, .L13+8
 1702 0916 AA46     		mov	r10, r5
 1703 0918 5244     		add	r2, r2, r10
 1704              	.LVL300:
 1705 091a 1525     		movs	r5, #21
 1706 091c EA41     		rors	r2, r2, r5
 1707              	.LVL301:
 1708 091e 4244     		add	r2, r2, r8
 1709              	.LVL302:
 1710 0920 0D00     		movs	r5, r1
 1711 0922 DD41     		rors	r5, r5, r3
 1712 0924 1095     		str	r5, [sp, #64]
 1713              	.LVL303:
 204:Source\mbedtls_open\library/ripemd160.c ****     P2( B, C, D, E, A, 12,  7, 14,  7 );
 1714              		.loc 1 204 0
 1715 0926 5946     		mov	r1, fp
 1716 0928 6140     		eors	r1, r4
 1717 092a 0140     		ands	r1, r0
 1718 092c 5D46     		mov	r5, fp
 1719              	.LVL304:
 1720 092e 6940     		eors	r1, r5
 1721 0930 0B9D     		ldr	r5, [sp, #44]
 1722 0932 AA46     		mov	r10, r5
 1723 0934 5144     		add	r1, r1, r10
 1724 0936 4944     		add	r1, r1, r9
 1725 0938 3A4D     		ldr	r5, .L13+4
 1726 093a A946     		mov	r9, r5
 1727              	.LVL305:
 1728 093c 4944     		add	r1, r1, r9
 1729              	.LVL306:
 1730 093e F141     		rors	r1, r1, r6
 1731              	.LVL307:
 1732 0940 0D00     		movs	r5, r1
 1733 0942 6544     		add	r5, r5, ip
 1734 0944 1395     		str	r5, [sp, #76]
ARM GAS  C:\Users\Phuong\AppData\Local\Temp\ccbgGR22.s 			page 35


 1735              	.LVL308:
 1736 0946 DC41     		rors	r4, r4, r3
 1737              	.LVL309:
 1738 0948 A246     		mov	r10, r4
 1739              	.LVL310:
 1740 094a 1199     		ldr	r1, [sp, #68]
 1741 094c 0C00     		movs	r4, r1
 1742              	.LVL311:
 1743 094e 5440     		eors	r4, r2
 1744 0950 109D     		ldr	r5, [sp, #64]
 1745              	.LVL312:
 1746 0952 2C40     		ands	r4, r5
 1747 0954 4C40     		eors	r4, r1
 1748 0956 0D9D     		ldr	r5, [sp, #52]
 1749 0958 A946     		mov	r9, r5
 1750 095a 4C44     		add	r4, r4, r9
 1751 095c 4444     		add	r4, r4, r8
 1752 095e 3249     		ldr	r1, .L13+8
 1753 0960 8846     		mov	r8, r1
 1754              	.LVL313:
 1755 0962 4444     		add	r4, r4, r8
 1756              	.LVL314:
 1757 0964 F441     		rors	r4, r4, r6
 1758              	.LVL315:
 1759 0966 129D     		ldr	r5, [sp, #72]
 1760 0968 A846     		mov	r8, r5
 1761 096a 4444     		add	r4, r4, r8
 1762              	.LVL316:
 1763 096c 1199     		ldr	r1, [sp, #68]
 1764 096e D941     		rors	r1, r1, r3
 1765 0970 8946     		mov	r9, r1
 1766              	.LVL317:
 205:Source\mbedtls_open\library/ripemd160.c ****     P2( A, B, C, D, E,  0, 12, 15,  7 );
 1767              		.loc 1 205 0
 1768 0972 5146     		mov	r1, r10
 1769              	.LVL318:
 1770 0974 4140     		eors	r1, r0
 1771 0976 0D00     		movs	r5, r1
 1772 0978 1399     		ldr	r1, [sp, #76]
 1773 097a 0D40     		ands	r5, r1
 1774 097c 5146     		mov	r1, r10
 1775 097e 4D40     		eors	r5, r1
 1776 0980 0F99     		ldr	r1, [sp, #60]
 1777 0982 8846     		mov	r8, r1
 1778 0984 4544     		add	r5, r5, r8
 1779 0986 6544     		add	r5, r5, ip
 1780 0988 2649     		ldr	r1, .L13+4
 1781 098a 8C46     		mov	ip, r1
 1782              	.LVL319:
 1783 098c 6544     		add	r5, r5, ip
 1784              	.LVL320:
 1785 098e 1421     		movs	r1, #20
 1786 0990 CD41     		rors	r5, r5, r1
 1787              	.LVL321:
 1788 0992 5D44     		add	r5, r5, fp
 1789              	.LVL322:
 1790 0994 D841     		rors	r0, r0, r3
ARM GAS  C:\Users\Phuong\AppData\Local\Temp\ccbgGR22.s 			page 36


 1791              	.LVL323:
 1792 0996 8046     		mov	r8, r0
 1793              	.LVL324:
 1794 0998 1000     		movs	r0, r2
 1795              	.LVL325:
 1796 099a 6040     		eors	r0, r4
 1797 099c 4946     		mov	r1, r9
 1798 099e 0840     		ands	r0, r1
 1799 09a0 5040     		eors	r0, r2
 1800 09a2 0E99     		ldr	r1, [sp, #56]
 1801 09a4 8C46     		mov	ip, r1
 1802 09a6 6044     		add	r0, r0, ip
 1803 09a8 1299     		ldr	r1, [sp, #72]
 1804 09aa 8C46     		mov	ip, r1
 1805 09ac 6044     		add	r0, r0, ip
 1806 09ae 1E49     		ldr	r1, .L13+8
 1807 09b0 8C46     		mov	ip, r1
 1808 09b2 6044     		add	r0, r0, ip
 1809              	.LVL326:
 1810 09b4 F041     		rors	r0, r0, r6
 1811              	.LVL327:
 1812 09b6 1099     		ldr	r1, [sp, #64]
 1813              	.LVL328:
 1814 09b8 8C46     		mov	ip, r1
 1815              	.LVL329:
 1816 09ba 6044     		add	r0, r0, ip
 1817 09bc 0100     		movs	r1, r0
 1818              	.LVL330:
 1819 09be 1000     		movs	r0, r2
 1820              	.LVL331:
 1821 09c0 D841     		rors	r0, r0, r3
 1822 09c2 1290     		str	r0, [sp, #72]
 1823              	.LVL332:
 206:Source\mbedtls_open\library/ripemd160.c ****     P2( E, A, B, C, D,  9, 15,  8, 12 );
 1824              		.loc 1 206 0
 1825 09c4 4046     		mov	r0, r8
 1826              	.LVL333:
 1827 09c6 139A     		ldr	r2, [sp, #76]
 1828 09c8 5040     		eors	r0, r2
 1829 09ca 0200     		movs	r2, r0
 1830 09cc 2A40     		ands	r2, r5
 1831 09ce 4046     		mov	r0, r8
 1832 09d0 4240     		eors	r2, r0
 1833 09d2 0898     		ldr	r0, [sp, #32]
 1834 09d4 8446     		mov	ip, r0
 1835 09d6 6244     		add	r2, r2, ip
 1836 09d8 5A44     		add	r2, r2, fp
 1837 09da 1248     		ldr	r0, .L13+4
 1838 09dc 8446     		mov	ip, r0
 1839 09de 6244     		add	r2, r2, ip
 1840              	.LVL334:
 1841 09e0 1120     		movs	r0, #17
 1842 09e2 C241     		rors	r2, r2, r0
 1843              	.LVL335:
 1844 09e4 5244     		add	r2, r2, r10
 1845              	.LVL336:
 1846 09e6 1398     		ldr	r0, [sp, #76]
ARM GAS  C:\Users\Phuong\AppData\Local\Temp\ccbgGR22.s 			page 37


 1847 09e8 D841     		rors	r0, r0, r3
 1848 09ea 8346     		mov	fp, r0
 1849              	.LVL337:
 1850 09ec 2000     		movs	r0, r4
 1851              	.LVL338:
 1852 09ee 1191     		str	r1, [sp, #68]
 1853 09f0 4840     		eors	r0, r1
 1854 09f2 0100     		movs	r1, r0
 1855              	.LVL339:
 1856 09f4 1298     		ldr	r0, [sp, #72]
 1857 09f6 0140     		ands	r1, r0
 1858 09f8 6140     		eors	r1, r4
 1859 09fa 0798     		ldr	r0, [sp, #28]
 1860 09fc 8446     		mov	ip, r0
 1861 09fe 6144     		add	r1, r1, ip
 1862 0a00 1098     		ldr	r0, [sp, #64]
 1863 0a02 8446     		mov	ip, r0
 1864 0a04 6144     		add	r1, r1, ip
 1865 0a06 0848     		ldr	r0, .L13+8
 1866 0a08 8446     		mov	ip, r0
 1867 0a0a 6144     		add	r1, r1, ip
 1868              	.LVL340:
 1869 0a0c 1420     		movs	r0, #20
 1870 0a0e C141     		rors	r1, r1, r0
 1871              	.LVL341:
 1872 0a10 4944     		add	r1, r1, r9
 1873              	.LVL342:
 1874 0a12 DC41     		rors	r4, r4, r3
 1875              	.LVL343:
 1876 0a14 1394     		str	r4, [sp, #76]
 1877              	.LVL344:
 207:Source\mbedtls_open\library/ripemd160.c ****     P2( D, E, A, B, C,  5,  9, 12,  7 );
 1878              		.loc 1 207 0
 1879 0a16 5C46     		mov	r4, fp
 1880              	.LVL345:
 1881 0a18 6C40     		eors	r4, r5
 1882 0a1a 1440     		ands	r4, r2
 1883 0a1c 5846     		mov	r0, fp
 1884 0a1e 05E0     		b	.L14
 1885              	.L15:
 1886              		.align	2
 1887              	.L13:
 1888 0a20 E68BA250 		.word	1352829926
 1889 0a24 9979825A 		.word	1518500249
 1890 0a28 24D14D5C 		.word	1548603684
 1891              	.L14:
 1892 0a2c 4440     		eors	r4, r0
 1893 0a2e 0498     		ldr	r0, [sp, #16]
 1894 0a30 8446     		mov	ip, r0
 1895 0a32 6444     		add	r4, r4, ip
 1896 0a34 5444     		add	r4, r4, r10
 1897 0a36 FD48     		ldr	r0, .L16
 1898 0a38 8446     		mov	ip, r0
 1899 0a3a 6444     		add	r4, r4, ip
 1900              	.LVL346:
 1901 0a3c 1720     		movs	r0, #23
 1902 0a3e C441     		rors	r4, r4, r0
ARM GAS  C:\Users\Phuong\AppData\Local\Temp\ccbgGR22.s 			page 38


 1903              	.LVL347:
 1904 0a40 A246     		mov	r10, r4
 1905              	.LVL348:
 1906 0a42 C244     		add	r10, r10, r8
 1907              	.LVL349:
 1908 0a44 DD41     		rors	r5, r5, r3
 1909              	.LVL350:
 1910 0a46 1095     		str	r5, [sp, #64]
 1911              	.LVL351:
 1912 0a48 119D     		ldr	r5, [sp, #68]
 1913              	.LVL352:
 1914 0a4a 2C00     		movs	r4, r5
 1915 0a4c 4C40     		eors	r4, r1
 1916 0a4e 1398     		ldr	r0, [sp, #76]
 1917 0a50 0440     		ands	r4, r0
 1918 0a52 6C40     		eors	r4, r5
 1919 0a54 0B9D     		ldr	r5, [sp, #44]
 1920 0a56 AC46     		mov	ip, r5
 1921 0a58 6444     		add	r4, r4, ip
 1922 0a5a 4C44     		add	r4, r4, r9
 1923 0a5c F448     		ldr	r0, .L16+4
 1924 0a5e 8446     		mov	ip, r0
 1925 0a60 6444     		add	r4, r4, ip
 1926              	.LVL353:
 1927 0a62 F441     		rors	r4, r4, r6
 1928              	.LVL354:
 1929 0a64 1298     		ldr	r0, [sp, #72]
 1930              	.LVL355:
 1931 0a66 8446     		mov	ip, r0
 1932              	.LVL356:
 1933 0a68 6444     		add	r4, r4, ip
 1934              	.LVL357:
 1935 0a6a 1198     		ldr	r0, [sp, #68]
 1936 0a6c D841     		rors	r0, r0, r3
 1937 0a6e 8146     		mov	r9, r0
 1938              	.LVL358:
 208:Source\mbedtls_open\library/ripemd160.c ****     P2( C, D, E, A, B,  2, 11,  4,  6 );
 1939              		.loc 1 208 0
 1940 0a70 1000     		movs	r0, r2
 1941              	.LVL359:
 1942 0a72 109D     		ldr	r5, [sp, #64]
 1943 0a74 6840     		eors	r0, r5
 1944 0a76 5546     		mov	r5, r10
 1945 0a78 2840     		ands	r0, r5
 1946 0a7a 109D     		ldr	r5, [sp, #64]
 1947 0a7c 6840     		eors	r0, r5
 1948 0a7e 019D     		ldr	r5, [sp, #4]
 1949 0a80 AC46     		mov	ip, r5
 1950 0a82 6044     		add	r0, r0, ip
 1951 0a84 4044     		add	r0, r0, r8
 1952 0a86 E94D     		ldr	r5, .L16
 1953 0a88 AC46     		mov	ip, r5
 1954 0a8a 6044     		add	r0, r0, ip
 1955              	.LVL360:
 1956 0a8c 1525     		movs	r5, #21
 1957 0a8e E841     		rors	r0, r0, r5
 1958              	.LVL361:
ARM GAS  C:\Users\Phuong\AppData\Local\Temp\ccbgGR22.s 			page 39


 1959 0a90 5844     		add	r0, r0, fp
 1960              	.LVL362:
 1961 0a92 DA41     		rors	r2, r2, r3
 1962              	.LVL363:
 1963 0a94 9046     		mov	r8, r2
 1964              	.LVL364:
 1965 0a96 0A00     		movs	r2, r1
 1966              	.LVL365:
 1967 0a98 6240     		eors	r2, r4
 1968 0a9a 4D46     		mov	r5, r9
 1969 0a9c 2A40     		ands	r2, r5
 1970 0a9e 4A40     		eors	r2, r1
 1971 0aa0 039D     		ldr	r5, [sp, #12]
 1972 0aa2 AC46     		mov	ip, r5
 1973 0aa4 6244     		add	r2, r2, ip
 1974 0aa6 129D     		ldr	r5, [sp, #72]
 1975 0aa8 AC46     		mov	ip, r5
 1976 0aaa 6244     		add	r2, r2, ip
 1977 0aac E04D     		ldr	r5, .L16+4
 1978 0aae AC46     		mov	ip, r5
 1979 0ab0 6244     		add	r2, r2, ip
 1980              	.LVL366:
 1981 0ab2 1A25     		movs	r5, #26
 1982 0ab4 EA41     		rors	r2, r2, r5
 1983              	.LVL367:
 1984 0ab6 139D     		ldr	r5, [sp, #76]
 1985 0ab8 AC46     		mov	ip, r5
 1986              	.LVL368:
 1987 0aba 6244     		add	r2, r2, ip
 1988 0abc 1192     		str	r2, [sp, #68]
 1989              	.LVL369:
 1990 0abe D941     		rors	r1, r1, r3
 1991              	.LVL370:
 1992 0ac0 0A00     		movs	r2, r1
 1993              	.LVL371:
 209:Source\mbedtls_open\library/ripemd160.c ****     P2( B, C, D, E, A, 14,  7,  9, 15 );
 1994              		.loc 1 209 0
 1995 0ac2 5146     		mov	r1, r10
 1996              	.LVL372:
 1997 0ac4 4546     		mov	r5, r8
 1998 0ac6 6940     		eors	r1, r5
 1999 0ac8 0140     		ands	r1, r0
 2000 0aca 6940     		eors	r1, r5
 2001 0acc 0D9D     		ldr	r5, [sp, #52]
 2002 0ace AC46     		mov	ip, r5
 2003 0ad0 6144     		add	r1, r1, ip
 2004 0ad2 5944     		add	r1, r1, fp
 2005 0ad4 D54D     		ldr	r5, .L16
 2006 0ad6 AC46     		mov	ip, r5
 2007 0ad8 6144     		add	r1, r1, ip
 2008              	.LVL373:
 2009 0ada F141     		rors	r1, r1, r6
 2010              	.LVL374:
 2011 0adc 8B46     		mov	fp, r1
 2012              	.LVL375:
 2013 0ade 1099     		ldr	r1, [sp, #64]
 2014 0ae0 8C46     		mov	ip, r1
ARM GAS  C:\Users\Phuong\AppData\Local\Temp\ccbgGR22.s 			page 40


 2015 0ae2 E344     		add	fp, fp, ip
 2016              	.LVL376:
 2017 0ae4 5146     		mov	r1, r10
 2018 0ae6 D941     		rors	r1, r1, r3
 2019 0ae8 1291     		str	r1, [sp, #72]
 2020              	.LVL377:
 2021 0aea 2100     		movs	r1, r4
 2022              	.LVL378:
 2023 0aec 119D     		ldr	r5, [sp, #68]
 2024 0aee 6940     		eors	r1, r5
 2025 0af0 1492     		str	r2, [sp, #80]
 2026 0af2 1140     		ands	r1, r2
 2027 0af4 6140     		eors	r1, r4
 2028 0af6 089D     		ldr	r5, [sp, #32]
 2029 0af8 AC46     		mov	ip, r5
 2030 0afa 6144     		add	r1, r1, ip
 2031 0afc 139D     		ldr	r5, [sp, #76]
 2032 0afe AC46     		mov	ip, r5
 2033 0b00 6144     		add	r1, r1, ip
 2034 0b02 CB4D     		ldr	r5, .L16+4
 2035 0b04 AC46     		mov	ip, r5
 2036 0b06 6144     		add	r1, r1, ip
 2037              	.LVL379:
 2038 0b08 1125     		movs	r5, #17
 2039 0b0a E941     		rors	r1, r1, r5
 2040              	.LVL380:
 2041 0b0c 4944     		add	r1, r1, r9
 2042              	.LVL381:
 2043 0b0e DC41     		rors	r4, r4, r3
 2044              	.LVL382:
 210:Source\mbedtls_open\library/ripemd160.c ****     P2( A, B, C, D, E, 11, 13,  1, 13 );
 2045              		.loc 1 210 0
 2046 0b10 129D     		ldr	r5, [sp, #72]
 2047 0b12 4540     		eors	r5, r0
 2048 0b14 5A46     		mov	r2, fp
 2049              	.LVL383:
 2050 0b16 1540     		ands	r5, r2
 2051 0b18 129A     		ldr	r2, [sp, #72]
 2052 0b1a 5540     		eors	r5, r2
 2053 0b1c AC46     		mov	ip, r5
 2054 0b1e 0A9D     		ldr	r5, [sp, #40]
 2055 0b20 AA46     		mov	r10, r5
 2056 0b22 D444     		add	ip, ip, r10
 2057 0b24 109A     		ldr	r2, [sp, #64]
 2058 0b26 1500     		movs	r5, r2
 2059 0b28 6544     		add	r5, r5, ip
 2060 0b2a C04A     		ldr	r2, .L16
 2061 0b2c 9446     		mov	ip, r2
 2062 0b2e 6544     		add	r5, r5, ip
 2063              	.LVL384:
 2064 0b30 1322     		movs	r2, #19
 2065 0b32 D541     		rors	r5, r5, r2
 2066              	.LVL385:
 2067 0b34 2A00     		movs	r2, r5
 2068 0b36 4244     		add	r2, r2, r8
 2069 0b38 9446     		mov	ip, r2
 2070              	.LVL386:
ARM GAS  C:\Users\Phuong\AppData\Local\Temp\ccbgGR22.s 			page 41


 2071 0b3a D841     		rors	r0, r0, r3
 2072              	.LVL387:
 2073 0b3c 1090     		str	r0, [sp, #64]
 2074              	.LVL388:
 2075 0b3e 119A     		ldr	r2, [sp, #68]
 2076              	.LVL389:
 2077 0b40 1000     		movs	r0, r2
 2078              	.LVL390:
 2079 0b42 4840     		eors	r0, r1
 2080 0b44 0500     		movs	r5, r0
 2081 0b46 2540     		ands	r5, r4
 2082 0b48 5540     		eors	r5, r2
 2083 0b4a 0098     		ldr	r0, [sp]
 2084 0b4c 8246     		mov	r10, r0
 2085 0b4e 5544     		add	r5, r5, r10
 2086 0b50 4D44     		add	r5, r5, r9
 2087 0b52 B74A     		ldr	r2, .L16+4
 2088 0b54 9146     		mov	r9, r2
 2089              	.LVL391:
 2090 0b56 4D44     		add	r5, r5, r9
 2091              	.LVL392:
 2092 0b58 1322     		movs	r2, #19
 2093 0b5a D541     		rors	r5, r5, r2
 2094              	.LVL393:
 2095 0b5c 1498     		ldr	r0, [sp, #80]
 2096 0b5e 8146     		mov	r9, r0
 2097 0b60 A944     		add	r9, r9, r5
 2098              	.LVL394:
 2099 0b62 119A     		ldr	r2, [sp, #68]
 2100 0b64 DA41     		rors	r2, r2, r3
 2101 0b66 1192     		str	r2, [sp, #68]
 2102              	.LVL395:
 211:Source\mbedtls_open\library/ripemd160.c ****     P2( E, A, B, C, D,  8, 12,  2, 11 );
 2103              		.loc 1 211 0
 2104 0b68 6246     		mov	r2, ip
 2105              	.LVL396:
 2106 0b6a D543     		mvns	r5, r2
 2107 0b6c 5A46     		mov	r2, fp
 2108 0b6e 1098     		ldr	r0, [sp, #64]
 2109 0b70 4240     		eors	r2, r0
 2110 0b72 6046     		mov	r0, ip
 2111 0b74 0240     		ands	r2, r0
 2112 0b76 1098     		ldr	r0, [sp, #64]
 2113 0b78 4240     		eors	r2, r0
 2114 0b7a 0798     		ldr	r0, [sp, #28]
 2115 0b7c 8246     		mov	r10, r0
 2116 0b7e 5244     		add	r2, r2, r10
 2117 0b80 4244     		add	r2, r2, r8
 2118 0b82 AA48     		ldr	r0, .L16
 2119 0b84 8046     		mov	r8, r0
 2120              	.LVL397:
 2121 0b86 4244     		add	r2, r2, r8
 2122              	.LVL398:
 2123 0b88 1420     		movs	r0, #20
 2124 0b8a C241     		rors	r2, r2, r0
 2125              	.LVL399:
 2126 0b8c 9046     		mov	r8, r2
ARM GAS  C:\Users\Phuong\AppData\Local\Temp\ccbgGR22.s 			page 42


 2127 0b8e 129A     		ldr	r2, [sp, #72]
 2128 0b90 9246     		mov	r10, r2
 2129 0b92 D044     		add	r8, r8, r10
 2130              	.LVL400:
 2131 0b94 5A46     		mov	r2, fp
 2132 0b96 DA41     		rors	r2, r2, r3
 2133 0b98 9346     		mov	fp, r2
 2134              	.LVL401:
 2135 0b9a 4A46     		mov	r2, r9
 2136              	.LVL402:
 2137 0b9c 4A40     		eors	r2, r1
 2138 0b9e 1198     		ldr	r0, [sp, #68]
 2139 0ba0 0240     		ands	r2, r0
 2140 0ba2 4A40     		eors	r2, r1
 2141 0ba4 0198     		ldr	r0, [sp, #4]
 2142 0ba6 8246     		mov	r10, r0
 2143 0ba8 5244     		add	r2, r2, r10
 2144 0baa 1498     		ldr	r0, [sp, #80]
 2145 0bac 8246     		mov	r10, r0
 2146 0bae 5244     		add	r2, r2, r10
 2147 0bb0 9F48     		ldr	r0, .L16+4
 2148 0bb2 8246     		mov	r10, r0
 2149 0bb4 5244     		add	r2, r2, r10
 2150              	.LVL403:
 2151 0bb6 1520     		movs	r0, #21
 2152 0bb8 C241     		rors	r2, r2, r0
 2153              	.LVL404:
 2154 0bba A018     		adds	r0, r4, r2
 2155 0bbc 1390     		str	r0, [sp, #76]
 2156              	.LVL405:
 2157 0bbe D941     		rors	r1, r1, r3
 2158              	.LVL406:
 2159 0bc0 1491     		str	r1, [sp, #80]
 2160              	.LVL407:
 212:Source\mbedtls_open\library/ripemd160.c **** #undef F
 213:Source\mbedtls_open\library/ripemd160.c **** #undef K
 214:Source\mbedtls_open\library/ripemd160.c **** #undef Fp
 215:Source\mbedtls_open\library/ripemd160.c **** #undef Kp
 216:Source\mbedtls_open\library/ripemd160.c **** 
 217:Source\mbedtls_open\library/ripemd160.c **** #define F   F3
 218:Source\mbedtls_open\library/ripemd160.c **** #define K   0x6ED9EBA1
 219:Source\mbedtls_open\library/ripemd160.c **** #define Fp  F3
 220:Source\mbedtls_open\library/ripemd160.c **** #define Kp  0x6D703EF3
 221:Source\mbedtls_open\library/ripemd160.c ****     P2( D, E, A, B, C,  3, 11, 15,  9 );
 2161              		.loc 1 221 0
 2162 0bc2 4246     		mov	r2, r8
 2163 0bc4 1543     		orrs	r5, r2
 2164 0bc6 5A46     		mov	r2, fp
 2165 0bc8 5540     		eors	r5, r2
 2166 0bca 0298     		ldr	r0, [sp, #8]
 2167              	.LVL408:
 2168 0bcc 8246     		mov	r10, r0
 2169 0bce 5544     		add	r5, r5, r10
 2170 0bd0 129A     		ldr	r2, [sp, #72]
 2171 0bd2 9246     		mov	r10, r2
 2172 0bd4 5544     		add	r5, r5, r10
 2173 0bd6 974A     		ldr	r2, .L16+8
ARM GAS  C:\Users\Phuong\AppData\Local\Temp\ccbgGR22.s 			page 43


 2174 0bd8 9246     		mov	r10, r2
 2175 0bda 5544     		add	r5, r5, r10
 2176              	.LVL409:
 2177 0bdc 1522     		movs	r2, #21
 2178 0bde D541     		rors	r5, r5, r2
 2179              	.LVL410:
 2180 0be0 1099     		ldr	r1, [sp, #64]
 2181              	.LVL411:
 2182 0be2 8A46     		mov	r10, r1
 2183              	.LVL412:
 2184 0be4 5544     		add	r5, r5, r10
 2185              	.LVL413:
 2186 0be6 6246     		mov	r2, ip
 2187 0be8 DA41     		rors	r2, r2, r3
 2188 0bea 1100     		movs	r1, r2
 2189              	.LVL414:
 2190 0bec 4A46     		mov	r2, r9
 2191 0bee D243     		mvns	r2, r2
 2192 0bf0 1398     		ldr	r0, [sp, #76]
 2193 0bf2 0243     		orrs	r2, r0
 2194 0bf4 1498     		ldr	r0, [sp, #80]
 2195 0bf6 4240     		eors	r2, r0
 2196 0bf8 9446     		mov	ip, r2
 2197 0bfa 0E9A     		ldr	r2, [sp, #56]
 2198 0bfc 9246     		mov	r10, r2
 2199 0bfe D444     		add	ip, ip, r10
 2200 0c00 6444     		add	r4, r4, ip
 2201              	.LVL415:
 2202 0c02 8D4A     		ldr	r2, .L16+12
 2203 0c04 9446     		mov	ip, r2
 2204 0c06 6444     		add	r4, r4, ip
 2205              	.LVL416:
 2206 0c08 1722     		movs	r2, #23
 2207 0c0a D441     		rors	r4, r4, r2
 2208              	.LVL417:
 2209 0c0c 119A     		ldr	r2, [sp, #68]
 2210 0c0e 9446     		mov	ip, r2
 2211 0c10 6444     		add	r4, r4, ip
 2212              	.LVL418:
 2213 0c12 4A46     		mov	r2, r9
 2214 0c14 DA41     		rors	r2, r2, r3
 2215 0c16 9146     		mov	r9, r2
 2216              	.LVL419:
 222:Source\mbedtls_open\library/ripemd160.c ****     P2( C, D, E, A, B, 10, 13,  5,  7 );
 2217              		.loc 1 222 0
 2218 0c18 4246     		mov	r2, r8
 2219              	.LVL420:
 2220 0c1a D243     		mvns	r2, r2
 2221 0c1c 2A43     		orrs	r2, r5
 2222 0c1e 1291     		str	r1, [sp, #72]
 2223 0c20 4A40     		eors	r2, r1
 2224 0c22 9446     		mov	ip, r2
 2225 0c24 099A     		ldr	r2, [sp, #36]
 2226 0c26 9246     		mov	r10, r2
 2227 0c28 D444     		add	ip, ip, r10
 2228 0c2a 109A     		ldr	r2, [sp, #64]
 2229 0c2c 6244     		add	r2, r2, ip
ARM GAS  C:\Users\Phuong\AppData\Local\Temp\ccbgGR22.s 			page 44


 2230 0c2e 1000     		movs	r0, r2
 2231 0c30 804A     		ldr	r2, .L16+8
 2232 0c32 9446     		mov	ip, r2
 2233 0c34 6044     		add	r0, r0, ip
 2234              	.LVL421:
 2235 0c36 1322     		movs	r2, #19
 2236 0c38 D041     		rors	r0, r0, r2
 2237              	.LVL422:
 2238 0c3a 5844     		add	r0, r0, fp
 2239              	.LVL423:
 2240 0c3c 4246     		mov	r2, r8
 2241 0c3e DA41     		rors	r2, r2, r3
 2242 0c40 9446     		mov	ip, r2
 2243              	.LVL424:
 2244 0c42 139A     		ldr	r2, [sp, #76]
 2245              	.LVL425:
 2246 0c44 D243     		mvns	r2, r2
 2247 0c46 2243     		orrs	r2, r4
 2248 0c48 4946     		mov	r1, r9
 2249              	.LVL426:
 2250 0c4a 4A40     		eors	r2, r1
 2251 0c4c 9046     		mov	r8, r2
 2252 0c4e 049A     		ldr	r2, [sp, #16]
 2253 0c50 9246     		mov	r10, r2
 2254 0c52 D044     		add	r8, r8, r10
 2255 0c54 119A     		ldr	r2, [sp, #68]
 2256 0c56 9246     		mov	r10, r2
 2257 0c58 D044     		add	r8, r8, r10
 2258 0c5a 7749     		ldr	r1, .L16+12
 2259 0c5c 8A46     		mov	r10, r1
 2260 0c5e D044     		add	r8, r8, r10
 2261              	.LVL427:
 2262 0c60 4246     		mov	r2, r8
 2263 0c62 F241     		rors	r2, r2, r6
 2264 0c64 9046     		mov	r8, r2
 2265              	.LVL428:
 2266 0c66 149A     		ldr	r2, [sp, #80]
 2267 0c68 9246     		mov	r10, r2
 2268 0c6a D044     		add	r8, r8, r10
 2269              	.LVL429:
 2270 0c6c 139E     		ldr	r6, [sp, #76]
 2271 0c6e DE41     		rors	r6, r6, r3
 2272 0c70 1096     		str	r6, [sp, #64]
 2273              	.LVL430:
 223:Source\mbedtls_open\library/ripemd160.c ****     P2( B, C, D, E, A, 14,  6,  1, 15 );
 2274              		.loc 1 223 0
 2275 0c72 EA43     		mvns	r2, r5
 2276 0c74 0243     		orrs	r2, r0
 2277 0c76 6646     		mov	r6, ip
 2278              	.LVL431:
 2279 0c78 7240     		eors	r2, r6
 2280 0c7a 0D9E     		ldr	r6, [sp, #52]
 2281 0c7c B246     		mov	r10, r6
 2282 0c7e 5244     		add	r2, r2, r10
 2283 0c80 5A44     		add	r2, r2, fp
 2284 0c82 6C49     		ldr	r1, .L16+8
 2285 0c84 8A46     		mov	r10, r1
ARM GAS  C:\Users\Phuong\AppData\Local\Temp\ccbgGR22.s 			page 45


 2286 0c86 5244     		add	r2, r2, r10
 2287              	.LVL432:
 2288 0c88 1A21     		movs	r1, #26
 2289 0c8a CA41     		rors	r2, r2, r1
 2290              	.LVL433:
 2291 0c8c 129E     		ldr	r6, [sp, #72]
 2292 0c8e B246     		mov	r10, r6
 2293              	.LVL434:
 2294 0c90 5244     		add	r2, r2, r10
 2295              	.LVL435:
 2296 0c92 2E00     		movs	r6, r5
 2297 0c94 DE41     		rors	r6, r6, r3
 2298 0c96 B346     		mov	fp, r6
 2299              	.LVL436:
 2300 0c98 E543     		mvns	r5, r4
 2301 0c9a 4146     		mov	r1, r8
 2302 0c9c 0D43     		orrs	r5, r1
 2303 0c9e 109E     		ldr	r6, [sp, #64]
 2304              	.LVL437:
 2305 0ca0 7540     		eors	r5, r6
 2306 0ca2 009E     		ldr	r6, [sp]
 2307 0ca4 B246     		mov	r10, r6
 2308 0ca6 5544     		add	r5, r5, r10
 2309 0ca8 1499     		ldr	r1, [sp, #80]
 2310 0caa 8A46     		mov	r10, r1
 2311 0cac 5544     		add	r5, r5, r10
 2312 0cae 6249     		ldr	r1, .L16+12
 2313 0cb0 8A46     		mov	r10, r1
 2314 0cb2 5544     		add	r5, r5, r10
 2315              	.LVL438:
 2316 0cb4 1121     		movs	r1, #17
 2317 0cb6 CD41     		rors	r5, r5, r1
 2318              	.LVL439:
 2319 0cb8 4D44     		add	r5, r5, r9
 2320              	.LVL440:
 2321 0cba DC41     		rors	r4, r4, r3
 2322              	.LVL441:
 2323 0cbc 2100     		movs	r1, r4
 2324              	.LVL442:
 224:Source\mbedtls_open\library/ripemd160.c ****     P2( A, B, C, D, E,  4,  7,  3, 11 );
 2325              		.loc 1 224 0
 2326 0cbe C343     		mvns	r3, r0
 2327 0cc0 1343     		orrs	r3, r2
 2328 0cc2 5C46     		mov	r4, fp
 2329 0cc4 6340     		eors	r3, r4
 2330 0cc6 039C     		ldr	r4, [sp, #12]
 2331 0cc8 A246     		mov	r10, r4
 2332 0cca 5344     		add	r3, r3, r10
 2333 0ccc 129C     		ldr	r4, [sp, #72]
 2334 0cce A246     		mov	r10, r4
 2335 0cd0 5344     		add	r3, r3, r10
 2336 0cd2 584C     		ldr	r4, .L16+8
 2337 0cd4 A246     		mov	r10, r4
 2338 0cd6 5344     		add	r3, r3, r10
 2339              	.LVL443:
 2340 0cd8 1924     		movs	r4, #25
 2341 0cda E341     		rors	r3, r3, r4
ARM GAS  C:\Users\Phuong\AppData\Local\Temp\ccbgGR22.s 			page 46


 2342              	.LVL444:
 2343 0cdc 6344     		add	r3, r3, ip
 2344 0cde 1E00     		movs	r6, r3
 2345              	.LVL445:
 2346 0ce0 1623     		movs	r3, #22
 2347              	.LVL446:
 2348 0ce2 D841     		rors	r0, r0, r3
 2349              	.LVL447:
 2350 0ce4 1190     		str	r0, [sp, #68]
 2351              	.LVL448:
 2352 0ce6 4446     		mov	r4, r8
 2353 0ce8 E043     		mvns	r0, r4
 2354              	.LVL449:
 2355 0cea 2843     		orrs	r0, r5
 2356 0cec 1391     		str	r1, [sp, #76]
 2357 0cee 4840     		eors	r0, r1
 2358 0cf0 029C     		ldr	r4, [sp, #8]
 2359 0cf2 A246     		mov	r10, r4
 2360 0cf4 5044     		add	r0, r0, r10
 2361 0cf6 4844     		add	r0, r0, r9
 2362 0cf8 4F49     		ldr	r1, .L16+12
 2363              	.LVL450:
 2364 0cfa 8946     		mov	r9, r1
 2365              	.LVL451:
 2366 0cfc 4844     		add	r0, r0, r9
 2367              	.LVL452:
 2368 0cfe 1521     		movs	r1, #21
 2369 0d00 C841     		rors	r0, r0, r1
 2370              	.LVL453:
 2371 0d02 1099     		ldr	r1, [sp, #64]
 2372 0d04 8946     		mov	r9, r1
 2373 0d06 4844     		add	r0, r0, r9
 2374              	.LVL454:
 2375 0d08 4446     		mov	r4, r8
 2376 0d0a DC41     		rors	r4, r4, r3
 2377 0d0c 1494     		str	r4, [sp, #80]
 2378              	.LVL455:
 225:Source\mbedtls_open\library/ripemd160.c ****     P2( E, A, B, C, D,  9, 14,  7,  8 );
 2379              		.loc 1 225 0
 2380 0d0e D443     		mvns	r4, r2
 2381              	.LVL456:
 2382 0d10 3443     		orrs	r4, r6
 2383 0d12 1199     		ldr	r1, [sp, #68]
 2384 0d14 4C40     		eors	r4, r1
 2385 0d16 0899     		ldr	r1, [sp, #32]
 2386 0d18 8846     		mov	r8, r1
 2387 0d1a 4444     		add	r4, r4, r8
 2388 0d1c 6444     		add	r4, r4, ip
 2389 0d1e 4549     		ldr	r1, .L16+8
 2390 0d20 8C46     		mov	ip, r1
 2391              	.LVL457:
 2392 0d22 6444     		add	r4, r4, ip
 2393              	.LVL458:
 2394 0d24 1221     		movs	r1, #18
 2395 0d26 CC41     		rors	r4, r4, r1
 2396              	.LVL459:
 2397 0d28 5C44     		add	r4, r4, fp
ARM GAS  C:\Users\Phuong\AppData\Local\Temp\ccbgGR22.s 			page 47


 2398              	.LVL460:
 2399 0d2a DA41     		rors	r2, r2, r3
 2400              	.LVL461:
 2401 0d2c 9046     		mov	r8, r2
 2402              	.LVL462:
 2403 0d2e EA43     		mvns	r2, r5
 2404              	.LVL463:
 2405 0d30 0243     		orrs	r2, r0
 2406 0d32 1499     		ldr	r1, [sp, #80]
 2407 0d34 4A40     		eors	r2, r1
 2408 0d36 0699     		ldr	r1, [sp, #24]
 2409 0d38 8C46     		mov	ip, r1
 2410 0d3a 6244     		add	r2, r2, ip
 2411 0d3c 4946     		mov	r1, r9
 2412 0d3e 8918     		adds	r1, r1, r2
 2413 0d40 3D4A     		ldr	r2, .L16+12
 2414 0d42 9446     		mov	ip, r2
 2415 0d44 6144     		add	r1, r1, ip
 2416              	.LVL464:
 2417 0d46 1822     		movs	r2, #24
 2418 0d48 D141     		rors	r1, r1, r2
 2419              	.LVL465:
 2420 0d4a 139A     		ldr	r2, [sp, #76]
 2421 0d4c 9446     		mov	ip, r2
 2422              	.LVL466:
 2423 0d4e 6144     		add	r1, r1, ip
 2424              	.LVL467:
 2425 0d50 DD41     		rors	r5, r5, r3
 2426              	.LVL468:
 2427 0d52 1095     		str	r5, [sp, #64]
 2428              	.LVL469:
 226:Source\mbedtls_open\library/ripemd160.c ****     P2( D, E, A, B, C, 15,  9, 14,  6 );
 2429              		.loc 1 226 0
 2430 0d54 F543     		mvns	r5, r6
 2431              	.LVL470:
 2432 0d56 2543     		orrs	r5, r4
 2433 0d58 4246     		mov	r2, r8
 2434 0d5a 5540     		eors	r5, r2
 2435 0d5c 0E9A     		ldr	r2, [sp, #56]
 2436 0d5e 9246     		mov	r10, r2
 2437 0d60 5544     		add	r5, r5, r10
 2438 0d62 5D44     		add	r5, r5, fp
 2439 0d64 334A     		ldr	r2, .L16+8
 2440 0d66 AA18     		adds	r2, r5, r2
 2441              	.LVL471:
 2442 0d68 1725     		movs	r5, #23
 2443 0d6a EA41     		rors	r2, r2, r5
 2444              	.LVL472:
 2445 0d6c 119D     		ldr	r5, [sp, #68]
 2446 0d6e AC46     		mov	ip, r5
 2447 0d70 9444     		add	ip, ip, r2
 2448              	.LVL473:
 2449 0d72 DE41     		rors	r6, r6, r3
 2450              	.LVL474:
 2451 0d74 1296     		str	r6, [sp, #72]
 2452              	.LVL475:
 2453 0d76 C243     		mvns	r2, r0
ARM GAS  C:\Users\Phuong\AppData\Local\Temp\ccbgGR22.s 			page 48


 2454 0d78 0A43     		orrs	r2, r1
 2455 0d7a 109D     		ldr	r5, [sp, #64]
 2456 0d7c 6A40     		eors	r2, r5
 2457 0d7e 0D9D     		ldr	r5, [sp, #52]
 2458 0d80 AA46     		mov	r10, r5
 2459 0d82 5244     		add	r2, r2, r10
 2460 0d84 139D     		ldr	r5, [sp, #76]
 2461 0d86 A946     		mov	r9, r5
 2462 0d88 4A44     		add	r2, r2, r9
 2463 0d8a 2B4D     		ldr	r5, .L16+12
 2464 0d8c A946     		mov	r9, r5
 2465 0d8e 4A44     		add	r2, r2, r9
 2466              	.LVL476:
 2467 0d90 1A25     		movs	r5, #26
 2468 0d92 EA41     		rors	r2, r2, r5
 2469              	.LVL477:
 2470 0d94 149E     		ldr	r6, [sp, #80]
 2471              	.LVL478:
 2472 0d96 B146     		mov	r9, r6
 2473              	.LVL479:
 2474 0d98 4A44     		add	r2, r2, r9
 2475 0d9a 1392     		str	r2, [sp, #76]
 2476              	.LVL480:
 2477 0d9c D841     		rors	r0, r0, r3
 2478              	.LVL481:
 2479 0d9e 0500     		movs	r5, r0
 2480              	.LVL482:
 227:Source\mbedtls_open\library/ripemd160.c ****     P2( C, D, E, A, B,  8, 13,  6,  6 );
 2481              		.loc 1 227 0
 2482 0da0 E043     		mvns	r0, r4
 2483              	.LVL483:
 2484 0da2 6246     		mov	r2, ip
 2485              	.LVL484:
 2486 0da4 1043     		orrs	r0, r2
 2487 0da6 129A     		ldr	r2, [sp, #72]
 2488 0da8 5040     		eors	r0, r2
 2489 0daa 079A     		ldr	r2, [sp, #28]
 2490 0dac 9246     		mov	r10, r2
 2491 0dae 5044     		add	r0, r0, r10
 2492 0db0 119A     		ldr	r2, [sp, #68]
 2493 0db2 9146     		mov	r9, r2
 2494 0db4 4844     		add	r0, r0, r9
 2495 0db6 1F4A     		ldr	r2, .L16+8
 2496 0db8 9146     		mov	r9, r2
 2497 0dba 4844     		add	r0, r0, r9
 2498              	.LVL485:
 2499 0dbc 1322     		movs	r2, #19
 2500 0dbe D041     		rors	r0, r0, r2
 2501              	.LVL486:
 2502 0dc0 8146     		mov	r9, r0
 2503              	.LVL487:
 2504 0dc2 C144     		add	r9, r9, r8
 2505              	.LVL488:
 2506 0dc4 DC41     		rors	r4, r4, r3
 2507              	.LVL489:
 2508 0dc6 C843     		mvns	r0, r1
 2509 0dc8 139A     		ldr	r2, [sp, #76]
ARM GAS  C:\Users\Phuong\AppData\Local\Temp\ccbgGR22.s 			page 49


 2510 0dca 1043     		orrs	r0, r2
 2511 0dcc 6840     		eors	r0, r5
 2512 0dce 059A     		ldr	r2, [sp, #20]
 2513 0dd0 9346     		mov	fp, r2
 2514 0dd2 5844     		add	r0, r0, fp
 2515 0dd4 B246     		mov	r10, r6
 2516 0dd6 5044     		add	r0, r0, r10
 2517 0dd8 174A     		ldr	r2, .L16+12
 2518 0dda 9246     		mov	r10, r2
 2519 0ddc 5044     		add	r0, r0, r10
 2520              	.LVL490:
 2521 0dde 1A22     		movs	r2, #26
 2522 0de0 D041     		rors	r0, r0, r2
 2523              	.LVL491:
 2524 0de2 109A     		ldr	r2, [sp, #64]
 2525 0de4 9346     		mov	fp, r2
 2526 0de6 8344     		add	fp, fp, r0
 2527              	.LVL492:
 2528 0de8 D941     		rors	r1, r1, r3
 2529              	.LVL493:
 228:Source\mbedtls_open\library/ripemd160.c ****     P2( B, C, D, E, A,  1, 15,  9, 14 );
 2530              		.loc 1 228 0
 2531 0dea 6046     		mov	r0, ip
 2532 0dec C043     		mvns	r0, r0
 2533 0dee 4A46     		mov	r2, r9
 2534 0df0 1043     		orrs	r0, r2
 2535 0df2 6040     		eors	r0, r4
 2536 0df4 009A     		ldr	r2, [sp]
 2537 0df6 9246     		mov	r10, r2
 2538 0df8 5044     		add	r0, r0, r10
 2539 0dfa 4044     		add	r0, r0, r8
 2540 0dfc 0D4A     		ldr	r2, .L16+8
 2541 0dfe 9046     		mov	r8, r2
 2542              	.LVL494:
 2543 0e00 4044     		add	r0, r0, r8
 2544              	.LVL495:
 2545 0e02 1122     		movs	r2, #17
 2546 0e04 D041     		rors	r0, r0, r2
 2547              	.LVL496:
 2548 0e06 129E     		ldr	r6, [sp, #72]
 2549 0e08 B046     		mov	r8, r6
 2550 0e0a 4044     		add	r0, r0, r8
 2551              	.LVL497:
 2552 0e0c 6246     		mov	r2, ip
 2553 0e0e DA41     		rors	r2, r2, r3
 2554 0e10 1192     		str	r2, [sp, #68]
 2555              	.LVL498:
 2556 0e12 139E     		ldr	r6, [sp, #76]
 2557 0e14 F243     		mvns	r2, r6
 2558              	.LVL499:
 2559 0e16 5E46     		mov	r6, fp
 2560 0e18 3243     		orrs	r2, r6
 2561 0e1a 4A40     		eors	r2, r1
 2562 0e1c 9046     		mov	r8, r2
 2563 0e1e 089A     		ldr	r2, [sp, #32]
 2564 0e20 9246     		mov	r10, r2
 2565 0e22 D044     		add	r8, r8, r10
ARM GAS  C:\Users\Phuong\AppData\Local\Temp\ccbgGR22.s 			page 50


 2566 0e24 109A     		ldr	r2, [sp, #64]
 2567 0e26 9246     		mov	r10, r2
 2568 0e28 D044     		add	r8, r8, r10
 2569 0e2a 07E0     		b	.L17
 2570              	.L18:
 2571              		.align	2
 2572              	.L16:
 2573 0e2c 9979825A 		.word	1518500249
 2574 0e30 24D14D5C 		.word	1548603684
 2575 0e34 A1EBD96E 		.word	1859775393
 2576 0e38 F33E706D 		.word	1836072691
 2577              	.L17:
 2578 0e3c FE4E     		ldr	r6, .L19
 2579 0e3e B246     		mov	r10, r6
 2580 0e40 D044     		add	r8, r8, r10
 2581              	.LVL500:
 2582 0e42 4246     		mov	r2, r8
 2583 0e44 1226     		movs	r6, #18
 2584 0e46 F241     		rors	r2, r2, r6
 2585 0e48 9046     		mov	r8, r2
 2586              	.LVL501:
 2587 0e4a A844     		add	r8, r8, r5
 2588              	.LVL502:
 2589 0e4c 139E     		ldr	r6, [sp, #76]
 2590 0e4e DE41     		rors	r6, r6, r3
 2591 0e50 1096     		str	r6, [sp, #64]
 2592              	.LVL503:
 229:Source\mbedtls_open\library/ripemd160.c ****     P2( A, B, C, D, E,  2, 14, 11, 12 );
 2593              		.loc 1 229 0
 2594 0e52 4E46     		mov	r6, r9
 2595              	.LVL504:
 2596 0e54 F643     		mvns	r6, r6
 2597 0e56 3200     		movs	r2, r6
 2598 0e58 0243     		orrs	r2, r0
 2599 0e5a 119E     		ldr	r6, [sp, #68]
 2600 0e5c 7240     		eors	r2, r6
 2601 0e5e 9246     		mov	r10, r2
 2602 0e60 019A     		ldr	r2, [sp, #4]
 2603 0e62 9446     		mov	ip, r2
 2604 0e64 E244     		add	r10, r10, ip
 2605 0e66 129A     		ldr	r2, [sp, #72]
 2606 0e68 5244     		add	r2, r2, r10
 2607 0e6a 1600     		movs	r6, r2
 2608 0e6c F34A     		ldr	r2, .L19+4
 2609 0e6e 9446     		mov	ip, r2
 2610 0e70 6644     		add	r6, r6, ip
 2611              	.LVL505:
 2612 0e72 1222     		movs	r2, #18
 2613 0e74 D641     		rors	r6, r6, r2
 2614              	.LVL506:
 2615 0e76 A219     		adds	r2, r4, r6
 2616 0e78 1292     		str	r2, [sp, #72]
 2617              	.LVL507:
 2618 0e7a 4A46     		mov	r2, r9
 2619              	.LVL508:
 2620 0e7c DA41     		rors	r2, r2, r3
 2621 0e7e 1392     		str	r2, [sp, #76]
ARM GAS  C:\Users\Phuong\AppData\Local\Temp\ccbgGR22.s 			page 51


 2622              	.LVL509:
 2623 0e80 5A46     		mov	r2, fp
 2624              	.LVL510:
 2625 0e82 D243     		mvns	r2, r2
 2626 0e84 4646     		mov	r6, r8
 2627 0e86 3243     		orrs	r2, r6
 2628 0e88 109E     		ldr	r6, [sp, #64]
 2629 0e8a 7240     		eors	r2, r6
 2630 0e8c 9146     		mov	r9, r2
 2631 0e8e 0A9A     		ldr	r2, [sp, #40]
 2632 0e90 9246     		mov	r10, r2
 2633 0e92 D144     		add	r9, r9, r10
 2634 0e94 4D44     		add	r5, r5, r9
 2635              	.LVL511:
 2636 0e96 E84E     		ldr	r6, .L19
 2637 0e98 B446     		mov	ip, r6
 2638 0e9a 6544     		add	r5, r5, ip
 2639              	.LVL512:
 2640 0e9c 1426     		movs	r6, #20
 2641 0e9e F541     		rors	r5, r5, r6
 2642              	.LVL513:
 2643 0ea0 A946     		mov	r9, r5
 2644 0ea2 8944     		add	r9, r9, r1
 2645              	.LVL514:
 2646 0ea4 5D46     		mov	r5, fp
 2647 0ea6 DD41     		rors	r5, r5, r3
 2648 0ea8 1495     		str	r5, [sp, #80]
 2649              	.LVL515:
 230:Source\mbedtls_open\library/ripemd160.c ****     P2( E, A, B, C, D,  7,  8,  8, 13 );
 2650              		.loc 1 230 0
 2651 0eaa C643     		mvns	r6, r0
 2652 0eac 3500     		movs	r5, r6
 2653              	.LVL516:
 2654 0eae 129A     		ldr	r2, [sp, #72]
 2655 0eb0 1543     		orrs	r5, r2
 2656 0eb2 2A00     		movs	r2, r5
 2657 0eb4 139D     		ldr	r5, [sp, #76]
 2658 0eb6 6A40     		eors	r2, r5
 2659 0eb8 9346     		mov	fp, r2
 2660 0eba 069D     		ldr	r5, [sp, #24]
 2661 0ebc AC46     		mov	ip, r5
 2662 0ebe E344     		add	fp, fp, ip
 2663 0ec0 5C44     		add	r4, r4, fp
 2664              	.LVL517:
 2665 0ec2 DE4E     		ldr	r6, .L19+4
 2666 0ec4 B446     		mov	ip, r6
 2667 0ec6 6444     		add	r4, r4, ip
 2668              	.LVL518:
 2669 0ec8 1826     		movs	r6, #24
 2670 0eca F441     		rors	r4, r4, r6
 2671              	.LVL519:
 2672 0ecc 119D     		ldr	r5, [sp, #68]
 2673 0ece AC46     		mov	ip, r5
 2674 0ed0 6444     		add	r4, r4, ip
 2675              	.LVL520:
 2676 0ed2 D841     		rors	r0, r0, r3
 2677              	.LVL521:
ARM GAS  C:\Users\Phuong\AppData\Local\Temp\ccbgGR22.s 			page 52


 2678 0ed4 4646     		mov	r6, r8
 2679 0ed6 F643     		mvns	r6, r6
 2680 0ed8 3500     		movs	r5, r6
 2681 0eda 4E46     		mov	r6, r9
 2682 0edc 3543     		orrs	r5, r6
 2683 0ede 149A     		ldr	r2, [sp, #80]
 2684 0ee0 5540     		eors	r5, r2
 2685 0ee2 AB46     		mov	fp, r5
 2686 0ee4 079D     		ldr	r5, [sp, #28]
 2687 0ee6 AA46     		mov	r10, r5
 2688 0ee8 D344     		add	fp, fp, r10
 2689 0eea 5944     		add	r1, r1, fp
 2690              	.LVL522:
 2691 0eec D24E     		ldr	r6, .L19
 2692 0eee B446     		mov	ip, r6
 2693 0ef0 6144     		add	r1, r1, ip
 2694              	.LVL523:
 2695 0ef2 1326     		movs	r6, #19
 2696 0ef4 F141     		rors	r1, r1, r6
 2697              	.LVL524:
 2698 0ef6 8B46     		mov	fp, r1
 2699 0ef8 1099     		ldr	r1, [sp, #64]
 2700 0efa 8C46     		mov	ip, r1
 2701 0efc E344     		add	fp, fp, ip
 2702              	.LVL525:
 2703 0efe 4146     		mov	r1, r8
 2704 0f00 D941     		rors	r1, r1, r3
 2705 0f02 1591     		str	r1, [sp, #84]
 2706              	.LVL526:
 231:Source\mbedtls_open\library/ripemd160.c ****     P2( D, E, A, B, C,  0, 13, 12,  5 );
 2707              		.loc 1 231 0
 2708 0f04 129D     		ldr	r5, [sp, #72]
 2709 0f06 EE43     		mvns	r6, r5
 2710 0f08 3500     		movs	r5, r6
 2711 0f0a 2543     		orrs	r5, r4
 2712 0f0c 4540     		eors	r5, r0
 2713 0f0e A846     		mov	r8, r5
 2714 0f10 0F9A     		ldr	r2, [sp, #60]
 2715 0f12 9446     		mov	ip, r2
 2716 0f14 E044     		add	r8, r8, ip
 2717 0f16 119E     		ldr	r6, [sp, #68]
 2718 0f18 B446     		mov	ip, r6
 2719 0f1a E044     		add	r8, r8, ip
 2720 0f1c C749     		ldr	r1, .L19+4
 2721              	.LVL527:
 2722 0f1e 8C46     		mov	ip, r1
 2723 0f20 E044     		add	r8, r8, ip
 2724              	.LVL528:
 2725 0f22 4546     		mov	r5, r8
 2726 0f24 1321     		movs	r1, #19
 2727 0f26 CD41     		rors	r5, r5, r1
 2728 0f28 A846     		mov	r8, r5
 2729              	.LVL529:
 2730 0f2a 139D     		ldr	r5, [sp, #76]
 2731 0f2c AC46     		mov	ip, r5
 2732              	.LVL530:
 2733 0f2e E044     		add	r8, r8, ip
ARM GAS  C:\Users\Phuong\AppData\Local\Temp\ccbgGR22.s 			page 53


 2734              	.LVL531:
 2735 0f30 129E     		ldr	r6, [sp, #72]
 2736 0f32 DE41     		rors	r6, r6, r3
 2737 0f34 1196     		str	r6, [sp, #68]
 2738              	.LVL532:
 2739 0f36 4946     		mov	r1, r9
 2740 0f38 CE43     		mvns	r6, r1
 2741              	.LVL533:
 2742 0f3a 5946     		mov	r1, fp
 2743 0f3c 0E43     		orrs	r6, r1
 2744 0f3e 159D     		ldr	r5, [sp, #84]
 2745 0f40 6E40     		eors	r6, r5
 2746 0f42 0B9D     		ldr	r5, [sp, #44]
 2747 0f44 AC46     		mov	ip, r5
 2748 0f46 6644     		add	r6, r6, ip
 2749 0f48 109A     		ldr	r2, [sp, #64]
 2750 0f4a 9219     		adds	r2, r2, r6
 2751 0f4c BA49     		ldr	r1, .L19
 2752 0f4e 8C46     		mov	ip, r1
 2753 0f50 6244     		add	r2, r2, ip
 2754              	.LVL534:
 2755 0f52 1B26     		movs	r6, #27
 2756 0f54 F241     		rors	r2, r2, r6
 2757              	.LVL535:
 2758 0f56 9246     		mov	r10, r2
 2759 0f58 149A     		ldr	r2, [sp, #80]
 2760 0f5a 9446     		mov	ip, r2
 2761 0f5c E244     		add	r10, r10, ip
 2762              	.LVL536:
 2763 0f5e 4D46     		mov	r5, r9
 2764 0f60 DD41     		rors	r5, r5, r3
 2765 0f62 2A00     		movs	r2, r5
 2766              	.LVL537:
 232:Source\mbedtls_open\library/ripemd160.c ****     P2( C, D, E, A, B,  6,  6,  2, 14 );
 2767              		.loc 1 232 0
 2768 0f64 E143     		mvns	r1, r4
 2769 0f66 0D00     		movs	r5, r1
 2770 0f68 4146     		mov	r1, r8
 2771 0f6a 0D43     		orrs	r5, r1
 2772 0f6c 2900     		movs	r1, r5
 2773 0f6e 119D     		ldr	r5, [sp, #68]
 2774 0f70 6940     		eors	r1, r5
 2775 0f72 8946     		mov	r9, r1
 2776 0f74 059D     		ldr	r5, [sp, #20]
 2777 0f76 AC46     		mov	ip, r5
 2778 0f78 E144     		add	r9, r9, ip
 2779 0f7a 139D     		ldr	r5, [sp, #76]
 2780 0f7c AC46     		mov	ip, r5
 2781 0f7e E144     		add	r9, r9, ip
 2782 0f80 AE49     		ldr	r1, .L19+4
 2783 0f82 8C46     		mov	ip, r1
 2784 0f84 E144     		add	r9, r9, ip
 2785              	.LVL538:
 2786 0f86 4946     		mov	r1, r9
 2787 0f88 1A25     		movs	r5, #26
 2788 0f8a E941     		rors	r1, r1, r5
 2789 0f8c 8946     		mov	r9, r1
ARM GAS  C:\Users\Phuong\AppData\Local\Temp\ccbgGR22.s 			page 54


 2790              	.LVL539:
 2791 0f8e 8144     		add	r9, r9, r0
 2792 0f90 4946     		mov	r1, r9
 2793 0f92 1091     		str	r1, [sp, #64]
 2794              	.LVL540:
 2795 0f94 DC41     		rors	r4, r4, r3
 2796              	.LVL541:
 2797 0f96 1294     		str	r4, [sp, #72]
 2798              	.LVL542:
 2799 0f98 5946     		mov	r1, fp
 2800              	.LVL543:
 2801 0f9a C943     		mvns	r1, r1
 2802 0f9c 5446     		mov	r4, r10
 2803              	.LVL544:
 2804 0f9e 2143     		orrs	r1, r4
 2805 0fa0 5140     		eors	r1, r2
 2806 0fa2 8C46     		mov	ip, r1
 2807 0fa4 019C     		ldr	r4, [sp, #4]
 2808 0fa6 A146     		mov	r9, r4
 2809              	.LVL545:
 2810 0fa8 CC44     		add	ip, ip, r9
 2811 0faa 149C     		ldr	r4, [sp, #80]
 2812 0fac 6444     		add	r4, r4, ip
 2813 0fae 2500     		movs	r5, r4
 2814 0fb0 A149     		ldr	r1, .L19
 2815 0fb2 8C46     		mov	ip, r1
 2816 0fb4 6544     		add	r5, r5, ip
 2817              	.LVL546:
 2818 0fb6 1221     		movs	r1, #18
 2819 0fb8 CD41     		rors	r5, r5, r1
 2820              	.LVL547:
 2821 0fba AC46     		mov	ip, r5
 2822              	.LVL548:
 2823 0fbc 159D     		ldr	r5, [sp, #84]
 2824 0fbe A946     		mov	r9, r5
 2825 0fc0 CC44     		add	ip, ip, r9
 2826              	.LVL549:
 2827 0fc2 5946     		mov	r1, fp
 2828 0fc4 D941     		rors	r1, r1, r3
 2829 0fc6 0D00     		movs	r5, r1
 2830              	.LVL550:
 233:Source\mbedtls_open\library/ripemd160.c ****     P2( B, C, D, E, A, 13,  5, 10, 13 );
 2831              		.loc 1 233 0
 2832 0fc8 4146     		mov	r1, r8
 2833              	.LVL551:
 2834 0fca C943     		mvns	r1, r1
 2835 0fcc 109C     		ldr	r4, [sp, #64]
 2836 0fce 2143     		orrs	r1, r4
 2837 0fd0 129C     		ldr	r4, [sp, #72]
 2838 0fd2 6140     		eors	r1, r4
 2839 0fd4 8B46     		mov	fp, r1
 2840 0fd6 0C9C     		ldr	r4, [sp, #48]
 2841 0fd8 A146     		mov	r9, r4
 2842 0fda CB44     		add	fp, fp, r9
 2843 0fdc 5844     		add	r0, r0, fp
 2844              	.LVL552:
 2845 0fde 9749     		ldr	r1, .L19+4
ARM GAS  C:\Users\Phuong\AppData\Local\Temp\ccbgGR22.s 			page 55


 2846 0fe0 8946     		mov	r9, r1
 2847 0fe2 4844     		add	r0, r0, r9
 2848              	.LVL553:
 2849 0fe4 F041     		rors	r0, r0, r6
 2850              	.LVL554:
 2851 0fe6 119C     		ldr	r4, [sp, #68]
 2852 0fe8 A346     		mov	fp, r4
 2853 0fea 8344     		add	fp, fp, r0
 2854              	.LVL555:
 2855 0fec 4046     		mov	r0, r8
 2856 0fee D841     		rors	r0, r0, r3
 2857              	.LVL556:
 2858 0ff0 5146     		mov	r1, r10
 2859 0ff2 C943     		mvns	r1, r1
 2860 0ff4 6446     		mov	r4, ip
 2861 0ff6 2143     		orrs	r1, r4
 2862 0ff8 6940     		eors	r1, r5
 2863 0ffa 8846     		mov	r8, r1
 2864 0ffc 099C     		ldr	r4, [sp, #36]
 2865 0ffe A146     		mov	r9, r4
 2866 1000 C844     		add	r8, r8, r9
 2867 1002 1599     		ldr	r1, [sp, #84]
 2868 1004 4144     		add	r1, r1, r8
 2869 1006 8C4C     		ldr	r4, .L19
 2870 1008 A046     		mov	r8, r4
 2871 100a 4144     		add	r1, r1, r8
 2872              	.LVL557:
 2873 100c 1324     		movs	r4, #19
 2874 100e E141     		rors	r1, r1, r4
 2875              	.LVL558:
 2876 1010 8846     		mov	r8, r1
 2877              	.LVL559:
 2878 1012 9044     		add	r8, r8, r2
 2879              	.LVL560:
 2880 1014 5146     		mov	r1, r10
 2881 1016 D941     		rors	r1, r1, r3
 2882 1018 1391     		str	r1, [sp, #76]
 2883              	.LVL561:
 234:Source\mbedtls_open\library/ripemd160.c ****     P2( A, B, C, D, E, 11, 12,  0, 13 );
 2884              		.loc 1 234 0
 2885 101a 1099     		ldr	r1, [sp, #64]
 2886              	.LVL562:
 2887 101c C943     		mvns	r1, r1
 2888 101e 5C46     		mov	r4, fp
 2889 1020 2143     		orrs	r1, r4
 2890 1022 1490     		str	r0, [sp, #80]
 2891 1024 4140     		eors	r1, r0
 2892 1026 8A46     		mov	r10, r1
 2893 1028 0A99     		ldr	r1, [sp, #40]
 2894 102a 8946     		mov	r9, r1
 2895 102c CA44     		add	r10, r10, r9
 2896 102e 1199     		ldr	r1, [sp, #68]
 2897 1030 8946     		mov	r9, r1
 2898 1032 CA44     		add	r10, r10, r9
 2899 1034 8149     		ldr	r1, .L19+4
 2900 1036 8946     		mov	r9, r1
 2901 1038 CA44     		add	r10, r10, r9
ARM GAS  C:\Users\Phuong\AppData\Local\Temp\ccbgGR22.s 			page 56


 2902              	.LVL563:
 2903 103a 5146     		mov	r1, r10
 2904 103c 1424     		movs	r4, #20
 2905 103e E141     		rors	r1, r1, r4
 2906 1040 8A46     		mov	r10, r1
 2907              	.LVL564:
 2908 1042 1298     		ldr	r0, [sp, #72]
 2909              	.LVL565:
 2910 1044 8146     		mov	r9, r0
 2911              	.LVL566:
 2912 1046 CA44     		add	r10, r10, r9
 2913 1048 5446     		mov	r4, r10
 2914 104a 1194     		str	r4, [sp, #68]
 2915              	.LVL567:
 2916 104c 1099     		ldr	r1, [sp, #64]
 2917 104e D941     		rors	r1, r1, r3
 2918              	.LVL568:
 2919 1050 6446     		mov	r4, ip
 2920              	.LVL569:
 2921 1052 E443     		mvns	r4, r4
 2922 1054 4046     		mov	r0, r8
 2923 1056 0443     		orrs	r4, r0
 2924 1058 1398     		ldr	r0, [sp, #76]
 2925 105a 4440     		eors	r4, r0
 2926 105c A146     		mov	r9, r4
 2927 105e 0F9C     		ldr	r4, [sp, #60]
 2928 1060 A246     		mov	r10, r4
 2929              	.LVL570:
 2930 1062 D144     		add	r9, r9, r10
 2931 1064 4A44     		add	r2, r2, r9
 2932              	.LVL571:
 2933 1066 7448     		ldr	r0, .L19
 2934 1068 8146     		mov	r9, r0
 2935 106a 4A44     		add	r2, r2, r9
 2936              	.LVL572:
 2937 106c 1320     		movs	r0, #19
 2938 106e C241     		rors	r2, r2, r0
 2939              	.LVL573:
 2940 1070 AA18     		adds	r2, r5, r2
 2941              	.LVL574:
 2942 1072 6446     		mov	r4, ip
 2943 1074 DC41     		rors	r4, r4, r3
 2944 1076 A446     		mov	ip, r4
 2945              	.LVL575:
 235:Source\mbedtls_open\library/ripemd160.c ****     P2( E, A, B, C, D,  5,  7,  4,  7 );
 2946              		.loc 1 235 0
 2947 1078 5846     		mov	r0, fp
 2948 107a C043     		mvns	r0, r0
 2949 107c 0400     		movs	r4, r0
 2950              	.LVL576:
 2951 107e 1198     		ldr	r0, [sp, #68]
 2952 1080 0443     		orrs	r4, r0
 2953 1082 1591     		str	r1, [sp, #84]
 2954 1084 4C40     		eors	r4, r1
 2955 1086 A146     		mov	r9, r4
 2956 1088 0499     		ldr	r1, [sp, #16]
 2957              	.LVL577:
ARM GAS  C:\Users\Phuong\AppData\Local\Temp\ccbgGR22.s 			page 57


 2958 108a 8A46     		mov	r10, r1
 2959 108c D144     		add	r9, r9, r10
 2960 108e 1299     		ldr	r1, [sp, #72]
 2961 1090 4944     		add	r1, r1, r9
 2962 1092 0C00     		movs	r4, r1
 2963 1094 6948     		ldr	r0, .L19+4
 2964 1096 8146     		mov	r9, r0
 2965 1098 4C44     		add	r4, r4, r9
 2966              	.LVL578:
 2967 109a 1920     		movs	r0, #25
 2968 109c C441     		rors	r4, r4, r0
 2969              	.LVL579:
 2970 109e A146     		mov	r9, r4
 2971              	.LVL580:
 2972 10a0 149C     		ldr	r4, [sp, #80]
 2973 10a2 A246     		mov	r10, r4
 2974 10a4 D144     		add	r9, r9, r10
 2975              	.LVL581:
 2976 10a6 5946     		mov	r1, fp
 2977 10a8 D941     		rors	r1, r1, r3
 2978 10aa 8B46     		mov	fp, r1
 2979              	.LVL582:
 2980 10ac 4046     		mov	r0, r8
 2981 10ae C443     		mvns	r4, r0
 2982 10b0 1443     		orrs	r4, r2
 2983 10b2 6046     		mov	r0, ip
 2984 10b4 4440     		eors	r4, r0
 2985 10b6 0399     		ldr	r1, [sp, #12]
 2986              	.LVL583:
 2987 10b8 8A46     		mov	r10, r1
 2988 10ba 5444     		add	r4, r4, r10
 2989 10bc 2D19     		adds	r5, r5, r4
 2990              	.LVL584:
 2991 10be 5E48     		ldr	r0, .L19
 2992 10c0 8246     		mov	r10, r0
 2993 10c2 5544     		add	r5, r5, r10
 2994              	.LVL585:
 2995 10c4 1920     		movs	r0, #25
 2996 10c6 C541     		rors	r5, r5, r0
 2997              	.LVL586:
 2998 10c8 1398     		ldr	r0, [sp, #76]
 2999 10ca 8246     		mov	r10, r0
 3000 10cc 5544     		add	r5, r5, r10
 3001              	.LVL587:
 3002 10ce 4146     		mov	r1, r8
 3003 10d0 D941     		rors	r1, r1, r3
 3004 10d2 8846     		mov	r8, r1
 3005              	.LVL588:
 236:Source\mbedtls_open\library/ripemd160.c ****     P2( D, E, A, B, C, 12,  5, 13,  5 );
 3006              		.loc 1 236 0
 3007 10d4 1198     		ldr	r0, [sp, #68]
 3008 10d6 C443     		mvns	r4, r0
 3009 10d8 4846     		mov	r0, r9
 3010 10da 0443     		orrs	r4, r0
 3011 10dc 5846     		mov	r0, fp
 3012 10de 4440     		eors	r4, r0
 3013 10e0 0B99     		ldr	r1, [sp, #44]
ARM GAS  C:\Users\Phuong\AppData\Local\Temp\ccbgGR22.s 			page 58


 3014              	.LVL589:
 3015 10e2 8A46     		mov	r10, r1
 3016 10e4 5444     		add	r4, r4, r10
 3017 10e6 1499     		ldr	r1, [sp, #80]
 3018 10e8 8A46     		mov	r10, r1
 3019 10ea 5444     		add	r4, r4, r10
 3020 10ec 5348     		ldr	r0, .L19+4
 3021 10ee 8246     		mov	r10, r0
 3022 10f0 5444     		add	r4, r4, r10
 3023              	.LVL590:
 3024 10f2 F441     		rors	r4, r4, r6
 3025              	.LVL591:
 3026 10f4 1598     		ldr	r0, [sp, #84]
 3027              	.LVL592:
 3028 10f6 8246     		mov	r10, r0
 3029              	.LVL593:
 3030 10f8 5444     		add	r4, r4, r10
 3031              	.LVL594:
 3032 10fa 1198     		ldr	r0, [sp, #68]
 3033 10fc D841     		rors	r0, r0, r3
 3034 10fe 1490     		str	r0, [sp, #80]
 3035              	.LVL595:
 3036 1100 D043     		mvns	r0, r2
 3037              	.LVL596:
 3038 1102 2843     		orrs	r0, r5
 3039 1104 4146     		mov	r1, r8
 3040 1106 4840     		eors	r0, r1
 3041 1108 0C99     		ldr	r1, [sp, #48]
 3042 110a 8A46     		mov	r10, r1
 3043 110c 5044     		add	r0, r0, r10
 3044 110e 1399     		ldr	r1, [sp, #76]
 3045 1110 0918     		adds	r1, r1, r0
 3046 1112 4948     		ldr	r0, .L19
 3047 1114 8246     		mov	r10, r0
 3048 1116 5144     		add	r1, r1, r10
 3049              	.LVL597:
 3050 1118 F141     		rors	r1, r1, r6
 3051              	.LVL598:
 3052 111a 0800     		movs	r0, r1
 3053              	.LVL599:
 3054 111c 6044     		add	r0, r0, ip
 3055 111e 1290     		str	r0, [sp, #72]
 3056              	.LVL600:
 3057 1120 DA41     		rors	r2, r2, r3
 3058              	.LVL601:
 3059 1122 1092     		str	r2, [sp, #64]
 3060              	.LVL602:
 237:Source\mbedtls_open\library/ripemd160.c **** #undef F
 238:Source\mbedtls_open\library/ripemd160.c **** #undef K
 239:Source\mbedtls_open\library/ripemd160.c **** #undef Fp
 240:Source\mbedtls_open\library/ripemd160.c **** #undef Kp
 241:Source\mbedtls_open\library/ripemd160.c **** 
 242:Source\mbedtls_open\library/ripemd160.c **** #define F   F4
 243:Source\mbedtls_open\library/ripemd160.c **** #define K   0x8F1BBCDC
 244:Source\mbedtls_open\library/ripemd160.c **** #define Fp  F2
 245:Source\mbedtls_open\library/ripemd160.c **** #define Kp  0x7A6D76E9
 246:Source\mbedtls_open\library/ripemd160.c ****     P2( C, D, E, A, B,  1, 11,  8, 15 );
ARM GAS  C:\Users\Phuong\AppData\Local\Temp\ccbgGR22.s 			page 59


 3061              		.loc 1 246 0
 3062 1124 4846     		mov	r0, r9
 3063              	.LVL603:
 3064 1126 6040     		eors	r0, r4
 3065 1128 149A     		ldr	r2, [sp, #80]
 3066              	.LVL604:
 3067 112a 1040     		ands	r0, r2
 3068 112c 4946     		mov	r1, r9
 3069 112e 4840     		eors	r0, r1
 3070 1130 0099     		ldr	r1, [sp]
 3071 1132 8A46     		mov	r10, r1
 3072 1134 5044     		add	r0, r0, r10
 3073 1136 159A     		ldr	r2, [sp, #84]
 3074 1138 9246     		mov	r10, r2
 3075 113a 5044     		add	r0, r0, r10
 3076 113c 404A     		ldr	r2, .L19+8
 3077 113e 9246     		mov	r10, r2
 3078 1140 5044     		add	r0, r0, r10
 3079              	.LVL605:
 3080 1142 1522     		movs	r2, #21
 3081 1144 D041     		rors	r0, r0, r2
 3082              	.LVL606:
 3083 1146 0100     		movs	r1, r0
 3084 1148 5944     		add	r1, r1, fp
 3085 114a 1191     		str	r1, [sp, #68]
 3086              	.LVL607:
 3087 114c 4A46     		mov	r2, r9
 3088 114e DA41     		rors	r2, r2, r3
 3089 1150 1392     		str	r2, [sp, #76]
 3090              	.LVL608:
 3091 1152 2A00     		movs	r2, r5
 3092              	.LVL609:
 3093 1154 1098     		ldr	r0, [sp, #64]
 3094 1156 4240     		eors	r2, r0
 3095 1158 1100     		movs	r1, r2
 3096              	.LVL610:
 3097 115a 129A     		ldr	r2, [sp, #72]
 3098 115c 1140     		ands	r1, r2
 3099 115e 4140     		eors	r1, r0
 3100 1160 079A     		ldr	r2, [sp, #28]
 3101 1162 9246     		mov	r10, r2
 3102 1164 5144     		add	r1, r1, r10
 3103 1166 6144     		add	r1, r1, ip
 3104 1168 364A     		ldr	r2, .L19+12
 3105 116a 9446     		mov	ip, r2
 3106              	.LVL611:
 3107 116c 6144     		add	r1, r1, ip
 3108              	.LVL612:
 3109 116e 1122     		movs	r2, #17
 3110 1170 D141     		rors	r1, r1, r2
 3111              	.LVL613:
 3112 1172 0800     		movs	r0, r1
 3113 1174 4044     		add	r0, r0, r8
 3114 1176 8446     		mov	ip, r0
 3115              	.LVL614:
 3116 1178 DD41     		rors	r5, r5, r3
 3117              	.LVL615:
ARM GAS  C:\Users\Phuong\AppData\Local\Temp\ccbgGR22.s 			page 60


 3118 117a 2800     		movs	r0, r5
 3119              	.LVL616:
 247:Source\mbedtls_open\library/ripemd160.c ****     P2( B, C, D, E, A,  9, 12,  6,  5 );
 3120              		.loc 1 247 0
 3121 117c 2500     		movs	r5, r4
 3122 117e 1199     		ldr	r1, [sp, #68]
 3123 1180 4D40     		eors	r5, r1
 3124 1182 2900     		movs	r1, r5
 3125 1184 139D     		ldr	r5, [sp, #76]
 3126 1186 2940     		ands	r1, r5
 3127 1188 6140     		eors	r1, r4
 3128 118a 089A     		ldr	r2, [sp, #32]
 3129 118c 9246     		mov	r10, r2
 3130 118e 5144     		add	r1, r1, r10
 3131 1190 5944     		add	r1, r1, fp
 3132 1192 2B4D     		ldr	r5, .L19+8
 3133 1194 AA46     		mov	r10, r5
 3134 1196 5144     		add	r1, r1, r10
 3135              	.LVL617:
 3136 1198 1425     		movs	r5, #20
 3137 119a E941     		rors	r1, r1, r5
 3138              	.LVL618:
 3139 119c 149A     		ldr	r2, [sp, #80]
 3140 119e 9246     		mov	r10, r2
 3141              	.LVL619:
 3142 11a0 5144     		add	r1, r1, r10
 3143              	.LVL620:
 3144 11a2 DC41     		rors	r4, r4, r3
 3145              	.LVL621:
 3146 11a4 A346     		mov	fp, r4
 3147              	.LVL622:
 3148 11a6 129C     		ldr	r4, [sp, #72]
 3149              	.LVL623:
 3150 11a8 4440     		eors	r4, r0
 3151 11aa 6546     		mov	r5, ip
 3152 11ac 2C40     		ands	r4, r5
 3153 11ae 1490     		str	r0, [sp, #80]
 3154              	.LVL624:
 3155 11b0 4440     		eors	r4, r0
 3156 11b2 059D     		ldr	r5, [sp, #20]
 3157 11b4 AA46     		mov	r10, r5
 3158 11b6 5444     		add	r4, r4, r10
 3159 11b8 4444     		add	r4, r4, r8
 3160 11ba 224D     		ldr	r5, .L19+12
 3161 11bc A846     		mov	r8, r5
 3162              	.LVL625:
 3163 11be 4444     		add	r4, r4, r8
 3164              	.LVL626:
 3165 11c0 F441     		rors	r4, r4, r6
 3166              	.LVL627:
 3167 11c2 A046     		mov	r8, r4
 3168 11c4 109C     		ldr	r4, [sp, #64]
 3169 11c6 A146     		mov	r9, r4
 3170 11c8 C844     		add	r8, r8, r9
 3171              	.LVL628:
 3172 11ca 129D     		ldr	r5, [sp, #72]
 3173 11cc DD41     		rors	r5, r5, r3
ARM GAS  C:\Users\Phuong\AppData\Local\Temp\ccbgGR22.s 			page 61


 3174 11ce 2C00     		movs	r4, r5
 3175              	.LVL629:
 248:Source\mbedtls_open\library/ripemd160.c ****     P2( A, B, C, D, E, 11, 14,  4,  8 );
 3176              		.loc 1 248 0
 3177 11d0 119D     		ldr	r5, [sp, #68]
 3178 11d2 4D40     		eors	r5, r1
 3179 11d4 5846     		mov	r0, fp
 3180              	.LVL630:
 3181 11d6 0540     		ands	r5, r0
 3182 11d8 1198     		ldr	r0, [sp, #68]
 3183 11da 4540     		eors	r5, r0
 3184 11dc AA46     		mov	r10, r5
 3185 11de 0A9D     		ldr	r5, [sp, #40]
 3186 11e0 A946     		mov	r9, r5
 3187 11e2 CA44     		add	r10, r10, r9
 3188 11e4 9146     		mov	r9, r2
 3189 11e6 CA44     		add	r10, r10, r9
 3190 11e8 1548     		ldr	r0, .L19+8
 3191 11ea 8146     		mov	r9, r0
 3192 11ec CA44     		add	r10, r10, r9
 3193              	.LVL631:
 3194 11ee 5546     		mov	r5, r10
 3195 11f0 1220     		movs	r0, #18
 3196 11f2 C541     		rors	r5, r5, r0
 3197 11f4 AA46     		mov	r10, r5
 3198              	.LVL632:
 3199 11f6 139D     		ldr	r5, [sp, #76]
 3200 11f8 A946     		mov	r9, r5
 3201              	.LVL633:
 3202 11fa CA44     		add	r10, r10, r9
 3203              	.LVL634:
 3204 11fc 1198     		ldr	r0, [sp, #68]
 3205 11fe D841     		rors	r0, r0, r3
 3206 1200 1290     		str	r0, [sp, #72]
 3207              	.LVL635:
 3208 1202 6046     		mov	r0, ip
 3209              	.LVL636:
 3210 1204 6040     		eors	r0, r4
 3211 1206 4546     		mov	r5, r8
 3212 1208 2840     		ands	r0, r5
 3213 120a 6040     		eors	r0, r4
 3214 120c 039D     		ldr	r5, [sp, #12]
 3215 120e A946     		mov	r9, r5
 3216 1210 4844     		add	r0, r0, r9
 3217 1212 109A     		ldr	r2, [sp, #64]
 3218 1214 1218     		adds	r2, r2, r0
 3219 1216 0B48     		ldr	r0, .L19+12
 3220 1218 8146     		mov	r9, r0
 3221 121a 4A44     		add	r2, r2, r9
 3222              	.LVL637:
 3223 121c 1820     		movs	r0, #24
 3224 121e C241     		rors	r2, r2, r0
 3225              	.LVL638:
 3226 1220 149D     		ldr	r5, [sp, #80]
 3227 1222 A946     		mov	r9, r5
 3228              	.LVL639:
 3229 1224 4A44     		add	r2, r2, r9
ARM GAS  C:\Users\Phuong\AppData\Local\Temp\ccbgGR22.s 			page 62


 3230              	.LVL640:
 3231 1226 6046     		mov	r0, ip
 3232 1228 D841     		rors	r0, r0, r3
 3233 122a 1090     		str	r0, [sp, #64]
 3234              	.LVL641:
 249:Source\mbedtls_open\library/ripemd160.c ****     P2( E, A, B, C, D, 10, 15,  1, 11 );
 3235              		.loc 1 249 0
 3236 122c 5546     		mov	r5, r10
 3237 122e 4D40     		eors	r5, r1
 3238 1230 2800     		movs	r0, r5
 3239              	.LVL642:
 3240 1232 129D     		ldr	r5, [sp, #72]
 3241 1234 08E0     		b	.L20
 3242              	.L21:
 3243 1236 C046     		.align	2
 3244              	.L19:
 3245 1238 F33E706D 		.word	1836072691
 3246 123c A1EBD96E 		.word	1859775393
 3247 1240 DCBC1B8F 		.word	-1894007588
 3248 1244 E9766D7A 		.word	2053994217
 3249              	.L20:
 3250 1248 2840     		ands	r0, r5
 3251 124a 4840     		eors	r0, r1
 3252 124c 8446     		mov	ip, r0
 3253 124e 099D     		ldr	r5, [sp, #36]
 3254 1250 A946     		mov	r9, r5
 3255 1252 CC44     		add	ip, ip, r9
 3256 1254 139D     		ldr	r5, [sp, #76]
 3257 1256 A946     		mov	r9, r5
 3258 1258 E144     		add	r9, r9, ip
 3259 125a FE48     		ldr	r0, .L22
 3260 125c 8446     		mov	ip, r0
 3261 125e E144     		add	r9, r9, ip
 3262              	.LVL643:
 3263 1260 4846     		mov	r0, r9
 3264 1262 1125     		movs	r5, #17
 3265 1264 E841     		rors	r0, r0, r5
 3266 1266 8146     		mov	r9, r0
 3267              	.LVL644:
 3268 1268 D944     		add	r9, r9, fp
 3269              	.LVL645:
 3270 126a D941     		rors	r1, r1, r3
 3271              	.LVL646:
 3272 126c 1391     		str	r1, [sp, #76]
 3273              	.LVL647:
 3274 126e 4046     		mov	r0, r8
 3275 1270 109D     		ldr	r5, [sp, #64]
 3276 1272 6840     		eors	r0, r5
 3277 1274 0100     		movs	r1, r0
 3278              	.LVL648:
 3279 1276 1140     		ands	r1, r2
 3280 1278 6940     		eors	r1, r5
 3281 127a 009D     		ldr	r5, [sp]
 3282 127c AC46     		mov	ip, r5
 3283 127e 6144     		add	r1, r1, ip
 3284 1280 1498     		ldr	r0, [sp, #80]
 3285 1282 4518     		adds	r5, r0, r1
ARM GAS  C:\Users\Phuong\AppData\Local\Temp\ccbgGR22.s 			page 63


 3286 1284 F448     		ldr	r0, .L22+4
 3287 1286 8446     		mov	ip, r0
 3288 1288 6544     		add	r5, r5, ip
 3289              	.LVL649:
 3290 128a 1520     		movs	r0, #21
 3291 128c C541     		rors	r5, r5, r0
 3292              	.LVL650:
 3293 128e 6519     		adds	r5, r4, r5
 3294              	.LVL651:
 3295 1290 4046     		mov	r0, r8
 3296 1292 D841     		rors	r0, r0, r3
 3297 1294 1190     		str	r0, [sp, #68]
 3298              	.LVL652:
 250:Source\mbedtls_open\library/ripemd160.c ****     P2( D, E, A, B, C,  0, 14,  3, 14 );
 3299              		.loc 1 250 0
 3300 1296 5046     		mov	r0, r10
 3301              	.LVL653:
 3302 1298 4946     		mov	r1, r9
 3303 129a 4840     		eors	r0, r1
 3304 129c 1399     		ldr	r1, [sp, #76]
 3305 129e 0840     		ands	r0, r1
 3306 12a0 5146     		mov	r1, r10
 3307 12a2 4840     		eors	r0, r1
 3308 12a4 8446     		mov	ip, r0
 3309 12a6 0F99     		ldr	r1, [sp, #60]
 3310 12a8 8846     		mov	r8, r1
 3311 12aa C444     		add	ip, ip, r8
 3312 12ac E344     		add	fp, fp, ip
 3313              	.LVL654:
 3314 12ae E948     		ldr	r0, .L22
 3315 12b0 8446     		mov	ip, r0
 3316 12b2 E344     		add	fp, fp, ip
 3317              	.LVL655:
 3318 12b4 5846     		mov	r0, fp
 3319 12b6 1221     		movs	r1, #18
 3320 12b8 C841     		rors	r0, r0, r1
 3321 12ba 8346     		mov	fp, r0
 3322              	.LVL656:
 3323 12bc 1299     		ldr	r1, [sp, #72]
 3324 12be 8C46     		mov	ip, r1
 3325 12c0 E344     		add	fp, fp, ip
 3326              	.LVL657:
 3327 12c2 5046     		mov	r0, r10
 3328 12c4 D841     		rors	r0, r0, r3
 3329 12c6 1490     		str	r0, [sp, #80]
 3330              	.LVL658:
 3331 12c8 1000     		movs	r0, r2
 3332              	.LVL659:
 3333 12ca 1199     		ldr	r1, [sp, #68]
 3334 12cc 4840     		eors	r0, r1
 3335 12ce 2840     		ands	r0, r5
 3336 12d0 4840     		eors	r0, r1
 3337 12d2 8446     		mov	ip, r0
 3338 12d4 0299     		ldr	r1, [sp, #8]
 3339 12d6 8846     		mov	r8, r1
 3340 12d8 C444     		add	ip, ip, r8
 3341 12da 6444     		add	r4, r4, ip
ARM GAS  C:\Users\Phuong\AppData\Local\Temp\ccbgGR22.s 			page 64


 3342              	.LVL660:
 3343 12dc DE48     		ldr	r0, .L22+4
 3344 12de 8446     		mov	ip, r0
 3345 12e0 6444     		add	r4, r4, ip
 3346              	.LVL661:
 3347 12e2 1220     		movs	r0, #18
 3348 12e4 C441     		rors	r4, r4, r0
 3349              	.LVL662:
 3350 12e6 1098     		ldr	r0, [sp, #64]
 3351 12e8 8446     		mov	ip, r0
 3352 12ea 6444     		add	r4, r4, ip
 3353              	.LVL663:
 3354 12ec DA41     		rors	r2, r2, r3
 3355              	.LVL664:
 251:Source\mbedtls_open\library/ripemd160.c ****     P2( C, D, E, A, B,  8, 15, 11, 14 );
 3356              		.loc 1 251 0
 3357 12ee 5846     		mov	r0, fp
 3358 12f0 4946     		mov	r1, r9
 3359 12f2 4840     		eors	r0, r1
 3360 12f4 1499     		ldr	r1, [sp, #80]
 3361 12f6 0840     		ands	r0, r1
 3362 12f8 4946     		mov	r1, r9
 3363 12fa 4840     		eors	r0, r1
 3364 12fc 8446     		mov	ip, r0
 3365 12fe 0799     		ldr	r1, [sp, #28]
 3366 1300 8846     		mov	r8, r1
 3367 1302 C444     		add	ip, ip, r8
 3368 1304 1299     		ldr	r1, [sp, #72]
 3369 1306 8846     		mov	r8, r1
 3370 1308 C444     		add	ip, ip, r8
 3371 130a D248     		ldr	r0, .L22
 3372 130c 8046     		mov	r8, r0
 3373 130e C444     		add	ip, ip, r8
 3374              	.LVL665:
 3375 1310 6046     		mov	r0, ip
 3376 1312 1121     		movs	r1, #17
 3377 1314 C841     		rors	r0, r0, r1
 3378 1316 8446     		mov	ip, r0
 3379              	.LVL666:
 3380 1318 1399     		ldr	r1, [sp, #76]
 3381 131a 8846     		mov	r8, r1
 3382              	.LVL667:
 3383 131c C444     		add	ip, ip, r8
 3384              	.LVL668:
 3385 131e 4846     		mov	r0, r9
 3386 1320 D841     		rors	r0, r0, r3
 3387 1322 8146     		mov	r9, r0
 3388              	.LVL669:
 3389 1324 2800     		movs	r0, r5
 3390              	.LVL670:
 3391 1326 5040     		eors	r0, r2
 3392 1328 2040     		ands	r0, r4
 3393 132a 5040     		eors	r0, r2
 3394 132c 8046     		mov	r8, r0
 3395 132e 0A99     		ldr	r1, [sp, #40]
 3396 1330 8A46     		mov	r10, r1
 3397 1332 D044     		add	r8, r8, r10
ARM GAS  C:\Users\Phuong\AppData\Local\Temp\ccbgGR22.s 			page 65


 3398 1334 1098     		ldr	r0, [sp, #64]
 3399 1336 4044     		add	r0, r0, r8
 3400 1338 C749     		ldr	r1, .L22+4
 3401 133a 8846     		mov	r8, r1
 3402 133c 4044     		add	r0, r0, r8
 3403              	.LVL671:
 3404 133e 1221     		movs	r1, #18
 3405 1340 C841     		rors	r0, r0, r1
 3406              	.LVL672:
 3407 1342 1199     		ldr	r1, [sp, #68]
 3408 1344 8846     		mov	r8, r1
 3409              	.LVL673:
 3410 1346 4044     		add	r0, r0, r8
 3411 1348 1290     		str	r0, [sp, #72]
 3412              	.LVL674:
 3413 134a DD41     		rors	r5, r5, r3
 3414              	.LVL675:
 252:Source\mbedtls_open\library/ripemd160.c ****     P2( B, C, D, E, A, 12,  9, 15,  6 );
 3415              		.loc 1 252 0
 3416 134c 5946     		mov	r1, fp
 3417 134e 6046     		mov	r0, ip
 3418              	.LVL676:
 3419 1350 4140     		eors	r1, r0
 3420 1352 4846     		mov	r0, r9
 3421 1354 0140     		ands	r1, r0
 3422 1356 5846     		mov	r0, fp
 3423 1358 4140     		eors	r1, r0
 3424 135a 8846     		mov	r8, r1
 3425 135c 0B99     		ldr	r1, [sp, #44]
 3426 135e 8A46     		mov	r10, r1
 3427 1360 D044     		add	r8, r8, r10
 3428 1362 1399     		ldr	r1, [sp, #76]
 3429 1364 8A46     		mov	r10, r1
 3430 1366 D044     		add	r8, r8, r10
 3431 1368 BA48     		ldr	r0, .L22
 3432 136a 8246     		mov	r10, r0
 3433 136c D044     		add	r8, r8, r10
 3434              	.LVL677:
 3435 136e 4146     		mov	r1, r8
 3436 1370 1720     		movs	r0, #23
 3437 1372 C141     		rors	r1, r1, r0
 3438 1374 8846     		mov	r8, r1
 3439              	.LVL678:
 3440 1376 1498     		ldr	r0, [sp, #80]
 3441 1378 8246     		mov	r10, r0
 3442              	.LVL679:
 3443 137a D044     		add	r8, r8, r10
 3444              	.LVL680:
 3445 137c 5946     		mov	r1, fp
 3446 137e D941     		rors	r1, r1, r3
 3447 1380 1391     		str	r1, [sp, #76]
 3448              	.LVL681:
 3449 1382 2100     		movs	r1, r4
 3450              	.LVL682:
 3451 1384 6940     		eors	r1, r5
 3452 1386 1298     		ldr	r0, [sp, #72]
 3453 1388 0140     		ands	r1, r0
ARM GAS  C:\Users\Phuong\AppData\Local\Temp\ccbgGR22.s 			page 66


 3454 138a 6940     		eors	r1, r5
 3455 138c 8B46     		mov	fp, r1
 3456 138e 0E99     		ldr	r1, [sp, #56]
 3457 1390 8A46     		mov	r10, r1
 3458 1392 D344     		add	fp, fp, r10
 3459 1394 1199     		ldr	r1, [sp, #68]
 3460 1396 5944     		add	r1, r1, fp
 3461 1398 AF48     		ldr	r0, .L22+4
 3462 139a 8246     		mov	r10, r0
 3463 139c 5144     		add	r1, r1, r10
 3464              	.LVL683:
 3465 139e 1A20     		movs	r0, #26
 3466 13a0 C141     		rors	r1, r1, r0
 3467              	.LVL684:
 3468 13a2 5118     		adds	r1, r2, r1
 3469              	.LVL685:
 3470 13a4 DC41     		rors	r4, r4, r3
 3471              	.LVL686:
 3472 13a6 1094     		str	r4, [sp, #64]
 3473              	.LVL687:
 253:Source\mbedtls_open\library/ripemd160.c ****     P2( A, B, C, D, E,  4,  8,  0, 14 );
 3474              		.loc 1 253 0
 3475 13a8 4446     		mov	r4, r8
 3476              	.LVL688:
 3477 13aa 6046     		mov	r0, ip
 3478 13ac 4440     		eors	r4, r0
 3479 13ae 2000     		movs	r0, r4
 3480 13b0 139C     		ldr	r4, [sp, #76]
 3481 13b2 2040     		ands	r0, r4
 3482 13b4 6446     		mov	r4, ip
 3483 13b6 6040     		eors	r0, r4
 3484 13b8 8346     		mov	fp, r0
 3485 13ba 039C     		ldr	r4, [sp, #12]
 3486 13bc A246     		mov	r10, r4
 3487 13be D344     		add	fp, fp, r10
 3488 13c0 1498     		ldr	r0, [sp, #80]
 3489 13c2 8246     		mov	r10, r0
 3490 13c4 DA44     		add	r10, r10, fp
 3491 13c6 A348     		ldr	r0, .L22
 3492 13c8 8346     		mov	fp, r0
 3493 13ca DA44     		add	r10, r10, fp
 3494              	.LVL689:
 3495 13cc 5046     		mov	r0, r10
 3496 13ce 1824     		movs	r4, #24
 3497 13d0 E041     		rors	r0, r0, r4
 3498 13d2 8246     		mov	r10, r0
 3499              	.LVL690:
 3500 13d4 CA44     		add	r10, r10, r9
 3501              	.LVL691:
 3502 13d6 6446     		mov	r4, ip
 3503 13d8 DC41     		rors	r4, r4, r3
 3504 13da 1494     		str	r4, [sp, #80]
 3505              	.LVL692:
 3506 13dc 1298     		ldr	r0, [sp, #72]
 3507 13de 109C     		ldr	r4, [sp, #64]
 3508              	.LVL693:
 3509 13e0 6040     		eors	r0, r4
ARM GAS  C:\Users\Phuong\AppData\Local\Temp\ccbgGR22.s 			page 67


 3510 13e2 0840     		ands	r0, r1
 3511 13e4 6040     		eors	r0, r4
 3512 13e6 8446     		mov	ip, r0
 3513 13e8 0F9C     		ldr	r4, [sp, #60]
 3514 13ea A346     		mov	fp, r4
 3515 13ec DC44     		add	ip, ip, fp
 3516 13ee 6244     		add	r2, r2, ip
 3517              	.LVL694:
 3518 13f0 9948     		ldr	r0, .L22+4
 3519 13f2 8446     		mov	ip, r0
 3520 13f4 6244     		add	r2, r2, ip
 3521              	.LVL695:
 3522 13f6 1220     		movs	r0, #18
 3523 13f8 C241     		rors	r2, r2, r0
 3524              	.LVL696:
 3525 13fa AA18     		adds	r2, r5, r2
 3526              	.LVL697:
 3527 13fc 129C     		ldr	r4, [sp, #72]
 3528 13fe DC41     		rors	r4, r4, r3
 3529 1400 1194     		str	r4, [sp, #68]
 3530              	.LVL698:
 254:Source\mbedtls_open\library/ripemd160.c ****     P2( E, A, B, C, D, 13,  9,  5,  6 );
 3531              		.loc 1 254 0
 3532 1402 4446     		mov	r4, r8
 3533              	.LVL699:
 3534 1404 5046     		mov	r0, r10
 3535 1406 4440     		eors	r4, r0
 3536 1408 2000     		movs	r0, r4
 3537 140a 149C     		ldr	r4, [sp, #80]
 3538 140c 2040     		ands	r0, r4
 3539 140e 4446     		mov	r4, r8
 3540 1410 6040     		eors	r0, r4
 3541 1412 8446     		mov	ip, r0
 3542 1414 0C9C     		ldr	r4, [sp, #48]
 3543 1416 A346     		mov	fp, r4
 3544 1418 DC44     		add	ip, ip, fp
 3545 141a E144     		add	r9, r9, ip
 3546              	.LVL700:
 3547 141c 8D48     		ldr	r0, .L22
 3548 141e 8446     		mov	ip, r0
 3549 1420 E144     		add	r9, r9, ip
 3550              	.LVL701:
 3551 1422 4846     		mov	r0, r9
 3552 1424 1724     		movs	r4, #23
 3553 1426 E041     		rors	r0, r0, r4
 3554 1428 8146     		mov	r9, r0
 3555              	.LVL702:
 3556 142a 139C     		ldr	r4, [sp, #76]
 3557 142c A446     		mov	ip, r4
 3558 142e E144     		add	r9, r9, ip
 3559              	.LVL703:
 3560 1430 4046     		mov	r0, r8
 3561 1432 D841     		rors	r0, r0, r3
 3562 1434 8046     		mov	r8, r0
 3563              	.LVL704:
 3564 1436 0800     		movs	r0, r1
 3565              	.LVL705:
ARM GAS  C:\Users\Phuong\AppData\Local\Temp\ccbgGR22.s 			page 68


 3566 1438 119C     		ldr	r4, [sp, #68]
 3567 143a 6040     		eors	r0, r4
 3568 143c 1040     		ands	r0, r2
 3569 143e 6040     		eors	r0, r4
 3570 1440 8446     		mov	ip, r0
 3571 1442 049C     		ldr	r4, [sp, #16]
 3572 1444 A346     		mov	fp, r4
 3573 1446 DC44     		add	ip, ip, fp
 3574 1448 6544     		add	r5, r5, ip
 3575              	.LVL706:
 3576 144a 8348     		ldr	r0, .L22+4
 3577 144c 8446     		mov	ip, r0
 3578 144e 6544     		add	r5, r5, ip
 3579              	.LVL707:
 3580 1450 1A20     		movs	r0, #26
 3581 1452 C541     		rors	r5, r5, r0
 3582              	.LVL708:
 3583 1454 1098     		ldr	r0, [sp, #64]
 3584 1456 8446     		mov	ip, r0
 3585 1458 6544     		add	r5, r5, ip
 3586              	.LVL709:
 3587 145a D941     		rors	r1, r1, r3
 3588              	.LVL710:
 255:Source\mbedtls_open\library/ripemd160.c ****     P2( D, E, A, B, C,  3, 14, 12,  9 );
 3589              		.loc 1 255 0
 3590 145c 4846     		mov	r0, r9
 3591 145e 5446     		mov	r4, r10
 3592 1460 6040     		eors	r0, r4
 3593 1462 4446     		mov	r4, r8
 3594 1464 2040     		ands	r0, r4
 3595 1466 5446     		mov	r4, r10
 3596 1468 6040     		eors	r0, r4
 3597 146a 8346     		mov	fp, r0
 3598 146c 029C     		ldr	r4, [sp, #8]
 3599 146e A446     		mov	ip, r4
 3600 1470 E344     		add	fp, fp, ip
 3601 1472 139C     		ldr	r4, [sp, #76]
 3602 1474 A446     		mov	ip, r4
 3603 1476 E344     		add	fp, fp, ip
 3604 1478 7648     		ldr	r0, .L22
 3605 147a 8446     		mov	ip, r0
 3606 147c E344     		add	fp, fp, ip
 3607              	.LVL711:
 3608 147e 5846     		mov	r0, fp
 3609 1480 1224     		movs	r4, #18
 3610 1482 E041     		rors	r0, r0, r4
 3611 1484 8346     		mov	fp, r0
 3612              	.LVL712:
 3613 1486 149C     		ldr	r4, [sp, #80]
 3614 1488 A446     		mov	ip, r4
 3615              	.LVL713:
 3616 148a E344     		add	fp, fp, ip
 3617              	.LVL714:
 3618 148c 5046     		mov	r0, r10
 3619 148e D841     		rors	r0, r0, r3
 3620 1490 1290     		str	r0, [sp, #72]
 3621              	.LVL715:
ARM GAS  C:\Users\Phuong\AppData\Local\Temp\ccbgGR22.s 			page 69


 3622 1492 1000     		movs	r0, r2
 3623              	.LVL716:
 3624 1494 4840     		eors	r0, r1
 3625 1496 2840     		ands	r0, r5
 3626 1498 4840     		eors	r0, r1
 3627 149a 8446     		mov	ip, r0
 3628 149c 0B9C     		ldr	r4, [sp, #44]
 3629 149e A246     		mov	r10, r4
 3630 14a0 D444     		add	ip, ip, r10
 3631 14a2 1098     		ldr	r0, [sp, #64]
 3632 14a4 6044     		add	r0, r0, ip
 3633 14a6 0400     		movs	r4, r0
 3634 14a8 6B48     		ldr	r0, .L22+4
 3635 14aa 8446     		mov	ip, r0
 3636 14ac 6444     		add	r4, r4, ip
 3637              	.LVL717:
 3638 14ae 1720     		movs	r0, #23
 3639 14b0 C441     		rors	r4, r4, r0
 3640              	.LVL718:
 3641 14b2 1198     		ldr	r0, [sp, #68]
 3642 14b4 8446     		mov	ip, r0
 3643              	.LVL719:
 3644 14b6 6444     		add	r4, r4, ip
 3645              	.LVL720:
 3646 14b8 DA41     		rors	r2, r2, r3
 3647              	.LVL721:
 3648 14ba 1092     		str	r2, [sp, #64]
 3649              	.LVL722:
 256:Source\mbedtls_open\library/ripemd160.c ****     P2( C, D, E, A, B,  7,  5,  2, 12 );
 3650              		.loc 1 256 0
 3651 14bc 4846     		mov	r0, r9
 3652 14be 5A46     		mov	r2, fp
 3653              	.LVL723:
 3654 14c0 5040     		eors	r0, r2
 3655 14c2 129A     		ldr	r2, [sp, #72]
 3656 14c4 1040     		ands	r0, r2
 3657 14c6 4A46     		mov	r2, r9
 3658 14c8 5040     		eors	r0, r2
 3659 14ca 8446     		mov	ip, r0
 3660 14cc 069A     		ldr	r2, [sp, #24]
 3661 14ce 9246     		mov	r10, r2
 3662 14d0 D444     		add	ip, ip, r10
 3663 14d2 149A     		ldr	r2, [sp, #80]
 3664 14d4 9246     		mov	r10, r2
 3665 14d6 D444     		add	ip, ip, r10
 3666 14d8 5E48     		ldr	r0, .L22
 3667 14da 8246     		mov	r10, r0
 3668 14dc D444     		add	ip, ip, r10
 3669              	.LVL724:
 3670 14de 6046     		mov	r0, ip
 3671 14e0 F041     		rors	r0, r0, r6
 3672 14e2 8446     		mov	ip, r0
 3673              	.LVL725:
 3674 14e4 C444     		add	ip, ip, r8
 3675              	.LVL726:
 3676 14e6 4A46     		mov	r2, r9
 3677 14e8 DA41     		rors	r2, r2, r3
ARM GAS  C:\Users\Phuong\AppData\Local\Temp\ccbgGR22.s 			page 70


 3678 14ea 1392     		str	r2, [sp, #76]
 3679              	.LVL727:
 3680 14ec 2800     		movs	r0, r5
 3681 14ee 109A     		ldr	r2, [sp, #64]
 3682              	.LVL728:
 3683 14f0 5040     		eors	r0, r2
 3684 14f2 2040     		ands	r0, r4
 3685 14f4 5040     		eors	r0, r2
 3686 14f6 8146     		mov	r9, r0
 3687 14f8 019A     		ldr	r2, [sp, #4]
 3688 14fa 9246     		mov	r10, r2
 3689 14fc D144     		add	r9, r9, r10
 3690 14fe 119A     		ldr	r2, [sp, #68]
 3691 1500 1000     		movs	r0, r2
 3692 1502 4844     		add	r0, r0, r9
 3693 1504 544A     		ldr	r2, .L22+4
 3694 1506 9146     		mov	r9, r2
 3695 1508 4844     		add	r0, r0, r9
 3696              	.LVL729:
 3697 150a 1422     		movs	r2, #20
 3698 150c D041     		rors	r0, r0, r2
 3699              	.LVL730:
 3700 150e 0A18     		adds	r2, r1, r0
 3701 1510 1592     		str	r2, [sp, #84]
 3702              	.LVL731:
 3703 1512 DD41     		rors	r5, r5, r3
 3704              	.LVL732:
 257:Source\mbedtls_open\library/ripemd160.c ****     P2( B, C, D, E, A, 15,  6, 13,  9 );
 3705              		.loc 1 257 0
 3706 1514 6246     		mov	r2, ip
 3707              	.LVL733:
 3708 1516 5846     		mov	r0, fp
 3709 1518 4240     		eors	r2, r0
 3710 151a 1000     		movs	r0, r2
 3711 151c 139A     		ldr	r2, [sp, #76]
 3712 151e 1040     		ands	r0, r2
 3713 1520 5A46     		mov	r2, fp
 3714 1522 5040     		eors	r0, r2
 3715 1524 8146     		mov	r9, r0
 3716 1526 0E9A     		ldr	r2, [sp, #56]
 3717 1528 9246     		mov	r10, r2
 3718 152a D144     		add	r9, r9, r10
 3719 152c C844     		add	r8, r8, r9
 3720              	.LVL734:
 3721 152e 4948     		ldr	r0, .L22
 3722 1530 8146     		mov	r9, r0
 3723 1532 C844     		add	r8, r8, r9
 3724              	.LVL735:
 3725 1534 4046     		mov	r0, r8
 3726 1536 1A22     		movs	r2, #26
 3727 1538 D041     		rors	r0, r0, r2
 3728 153a 8046     		mov	r8, r0
 3729              	.LVL736:
 3730 153c 1298     		ldr	r0, [sp, #72]
 3731 153e 8146     		mov	r9, r0
 3732 1540 C844     		add	r8, r8, r9
 3733              	.LVL737:
ARM GAS  C:\Users\Phuong\AppData\Local\Temp\ccbgGR22.s 			page 71


 3734 1542 5A46     		mov	r2, fp
 3735 1544 DA41     		rors	r2, r2, r3
 3736 1546 1492     		str	r2, [sp, #80]
 3737              	.LVL738:
 3738 1548 2000     		movs	r0, r4
 3739 154a 6840     		eors	r0, r5
 3740 154c 159A     		ldr	r2, [sp, #84]
 3741              	.LVL739:
 3742 154e 1040     		ands	r0, r2
 3743 1550 6840     		eors	r0, r5
 3744 1552 8346     		mov	fp, r0
 3745 1554 0C9A     		ldr	r2, [sp, #48]
 3746 1556 9246     		mov	r10, r2
 3747 1558 D344     		add	fp, fp, r10
 3748 155a 5944     		add	r1, r1, fp
 3749              	.LVL740:
 3750 155c 3E48     		ldr	r0, .L22+4
 3751 155e 8146     		mov	r9, r0
 3752 1560 4944     		add	r1, r1, r9
 3753              	.LVL741:
 3754 1562 1720     		movs	r0, #23
 3755 1564 C141     		rors	r1, r1, r0
 3756              	.LVL742:
 3757 1566 8A46     		mov	r10, r1
 3758 1568 1098     		ldr	r0, [sp, #64]
 3759 156a 8146     		mov	r9, r0
 3760 156c CA44     		add	r10, r10, r9
 3761 156e 5046     		mov	r0, r10
 3762 1570 1190     		str	r0, [sp, #68]
 3763              	.LVL743:
 3764 1572 DC41     		rors	r4, r4, r3
 3765              	.LVL744:
 258:Source\mbedtls_open\library/ripemd160.c ****     P2( A, B, C, D, E, 14,  8,  9, 12 );
 3766              		.loc 1 258 0
 3767 1574 6046     		mov	r0, ip
 3768              	.LVL745:
 3769 1576 4246     		mov	r2, r8
 3770 1578 5040     		eors	r0, r2
 3771 157a 149A     		ldr	r2, [sp, #80]
 3772 157c 1040     		ands	r0, r2
 3773 157e 6246     		mov	r2, ip
 3774 1580 5040     		eors	r0, r2
 3775 1582 8146     		mov	r9, r0
 3776 1584 0D9A     		ldr	r2, [sp, #52]
 3777 1586 9246     		mov	r10, r2
 3778              	.LVL746:
 3779 1588 D144     		add	r9, r9, r10
 3780 158a 1299     		ldr	r1, [sp, #72]
 3781 158c 8A46     		mov	r10, r1
 3782 158e CA44     		add	r10, r10, r9
 3783 1590 3048     		ldr	r0, .L22
 3784 1592 8146     		mov	r9, r0
 3785 1594 CA44     		add	r10, r10, r9
 3786              	.LVL747:
 3787 1596 5046     		mov	r0, r10
 3788 1598 1822     		movs	r2, #24
 3789 159a D041     		rors	r0, r0, r2
ARM GAS  C:\Users\Phuong\AppData\Local\Temp\ccbgGR22.s 			page 72


 3790 159c 8246     		mov	r10, r0
 3791              	.LVL748:
 3792 159e 139A     		ldr	r2, [sp, #76]
 3793 15a0 9146     		mov	r9, r2
 3794              	.LVL749:
 3795 15a2 CA44     		add	r10, r10, r9
 3796              	.LVL750:
 3797 15a4 6046     		mov	r0, ip
 3798 15a6 D841     		rors	r0, r0, r3
 3799 15a8 8346     		mov	fp, r0
 3800              	.LVL751:
 3801 15aa 1599     		ldr	r1, [sp, #84]
 3802 15ac 0800     		movs	r0, r1
 3803              	.LVL752:
 3804 15ae 6040     		eors	r0, r4
 3805 15b0 119A     		ldr	r2, [sp, #68]
 3806 15b2 1040     		ands	r0, r2
 3807 15b4 6040     		eors	r0, r4
 3808 15b6 8446     		mov	ip, r0
 3809 15b8 089A     		ldr	r2, [sp, #32]
 3810 15ba 9146     		mov	r9, r2
 3811 15bc CC44     		add	ip, ip, r9
 3812 15be 109A     		ldr	r2, [sp, #64]
 3813 15c0 6244     		add	r2, r2, ip
 3814 15c2 2548     		ldr	r0, .L22+4
 3815 15c4 8446     		mov	ip, r0
 3816 15c6 6244     		add	r2, r2, ip
 3817              	.LVL753:
 3818 15c8 1420     		movs	r0, #20
 3819 15ca C241     		rors	r2, r2, r0
 3820              	.LVL754:
 3821 15cc AA18     		adds	r2, r5, r2
 3822              	.LVL755:
 3823 15ce D941     		rors	r1, r1, r3
 3824 15d0 1091     		str	r1, [sp, #64]
 3825              	.LVL756:
 259:Source\mbedtls_open\library/ripemd160.c ****     P2( E, A, B, C, D,  5,  6,  7,  5 );
 3826              		.loc 1 259 0
 3827 15d2 5046     		mov	r0, r10
 3828 15d4 4146     		mov	r1, r8
 3829              	.LVL757:
 3830 15d6 4840     		eors	r0, r1
 3831 15d8 5946     		mov	r1, fp
 3832 15da 0840     		ands	r0, r1
 3833 15dc 4146     		mov	r1, r8
 3834 15de 4840     		eors	r0, r1
 3835 15e0 8146     		mov	r9, r0
 3836 15e2 0498     		ldr	r0, [sp, #16]
 3837 15e4 8446     		mov	ip, r0
 3838 15e6 E144     		add	r9, r9, ip
 3839 15e8 1398     		ldr	r0, [sp, #76]
 3840 15ea 8446     		mov	ip, r0
 3841 15ec E144     		add	r9, r9, ip
 3842 15ee 1948     		ldr	r0, .L22
 3843 15f0 8446     		mov	ip, r0
 3844 15f2 E144     		add	r9, r9, ip
 3845              	.LVL758:
ARM GAS  C:\Users\Phuong\AppData\Local\Temp\ccbgGR22.s 			page 73


 3846 15f4 4846     		mov	r0, r9
 3847 15f6 1A21     		movs	r1, #26
 3848 15f8 C841     		rors	r0, r0, r1
 3849 15fa 8146     		mov	r9, r0
 3850              	.LVL759:
 3851 15fc 1498     		ldr	r0, [sp, #80]
 3852 15fe 8446     		mov	ip, r0
 3853              	.LVL760:
 3854 1600 E144     		add	r9, r9, ip
 3855              	.LVL761:
 3856 1602 4046     		mov	r0, r8
 3857 1604 D841     		rors	r0, r0, r3
 3858 1606 1590     		str	r0, [sp, #84]
 3859              	.LVL762:
 3860 1608 1198     		ldr	r0, [sp, #68]
 3861              	.LVL763:
 3862 160a 1099     		ldr	r1, [sp, #64]
 3863 160c 4840     		eors	r0, r1
 3864 160e 1040     		ands	r0, r2
 3865 1610 4840     		eors	r0, r1
 3866 1612 8046     		mov	r8, r0
 3867 1614 0698     		ldr	r0, [sp, #24]
 3868 1616 8446     		mov	ip, r0
 3869 1618 E044     		add	r8, r8, ip
 3870 161a 4544     		add	r5, r5, r8
 3871              	.LVL764:
 3872 161c 0E49     		ldr	r1, .L22+4
 3873 161e 8C46     		mov	ip, r1
 3874 1620 6544     		add	r5, r5, ip
 3875              	.LVL765:
 3876 1622 F541     		rors	r5, r5, r6
 3877              	.LVL766:
 3878 1624 A846     		mov	r8, r5
 3879 1626 A044     		add	r8, r8, r4
 3880              	.LVL767:
 3881 1628 1198     		ldr	r0, [sp, #68]
 3882 162a D841     		rors	r0, r0, r3
 3883 162c 1190     		str	r0, [sp, #68]
 3884              	.LVL768:
 260:Source\mbedtls_open\library/ripemd160.c ****     P2( D, E, A, B, C,  6,  5, 10, 15 );
 3885              		.loc 1 260 0
 3886 162e 5546     		mov	r5, r10
 3887 1630 4846     		mov	r0, r9
 3888              	.LVL769:
 3889 1632 4540     		eors	r5, r0
 3890 1634 1598     		ldr	r0, [sp, #84]
 3891 1636 0540     		ands	r5, r0
 3892 1638 5046     		mov	r0, r10
 3893 163a 4540     		eors	r5, r0
 3894 163c 0598     		ldr	r0, [sp, #20]
 3895 163e 8446     		mov	ip, r0
 3896 1640 6544     		add	r5, r5, ip
 3897 1642 1498     		ldr	r0, [sp, #80]
 3898 1644 8446     		mov	ip, r0
 3899 1646 6544     		add	r5, r5, ip
 3900 1648 0248     		ldr	r0, .L22
 3901 164a 8446     		mov	ip, r0
ARM GAS  C:\Users\Phuong\AppData\Local\Temp\ccbgGR22.s 			page 74


 3902 164c 6544     		add	r5, r5, ip
 3903              	.LVL770:
 3904 164e F541     		rors	r5, r5, r6
 3905              	.LVL771:
 3906 1650 5D44     		add	r5, r5, fp
 3907 1652 03E0     		b	.L23
 3908              	.L24:
 3909              		.align	2
 3910              	.L22:
 3911 1654 DCBC1B8F 		.word	-1894007588
 3912 1658 E9766D7A 		.word	2053994217
 3913              	.L23:
 3914 165c AC46     		mov	ip, r5
 3915              	.LVL772:
 3916 165e 5546     		mov	r5, r10
 3917              	.LVL773:
 3918 1660 DD41     		rors	r5, r5, r3
 3919 1662 1395     		str	r5, [sp, #76]
 3920              	.LVL774:
 3921 1664 1500     		movs	r5, r2
 3922              	.LVL775:
 3923 1666 1199     		ldr	r1, [sp, #68]
 3924 1668 4D40     		eors	r5, r1
 3925 166a 4046     		mov	r0, r8
 3926 166c 0540     		ands	r5, r0
 3927 166e 4D40     		eors	r5, r1
 3928 1670 0998     		ldr	r0, [sp, #36]
 3929 1672 8246     		mov	r10, r0
 3930 1674 5544     		add	r5, r5, r10
 3931 1676 6519     		adds	r5, r4, r5
 3932 1678 FE4C     		ldr	r4, .L25
 3933              	.LVL776:
 3934 167a A246     		mov	r10, r4
 3935 167c 5544     		add	r5, r5, r10
 3936              	.LVL777:
 3937 167e 1124     		movs	r4, #17
 3938 1680 E541     		rors	r5, r5, r4
 3939              	.LVL778:
 3940 1682 1098     		ldr	r0, [sp, #64]
 3941 1684 8246     		mov	r10, r0
 3942 1686 5544     		add	r5, r5, r10
 3943 1688 2900     		movs	r1, r5
 3944              	.LVL779:
 3945 168a DA41     		rors	r2, r2, r3
 3946              	.LVL780:
 3947 168c 1292     		str	r2, [sp, #72]
 3948              	.LVL781:
 261:Source\mbedtls_open\library/ripemd160.c ****     P2( C, D, E, A, B,  2, 12, 14,  8 );
 3949              		.loc 1 261 0
 3950 168e 4C46     		mov	r4, r9
 3951 1690 6046     		mov	r0, ip
 3952 1692 4440     		eors	r4, r0
 3953 1694 1398     		ldr	r0, [sp, #76]
 3954 1696 0440     		ands	r4, r0
 3955 1698 4846     		mov	r0, r9
 3956 169a 4440     		eors	r4, r0
 3957 169c 019A     		ldr	r2, [sp, #4]
ARM GAS  C:\Users\Phuong\AppData\Local\Temp\ccbgGR22.s 			page 75


 3958              	.LVL782:
 3959 169e 9246     		mov	r10, r2
 3960 16a0 5444     		add	r4, r4, r10
 3961 16a2 5C44     		add	r4, r4, fp
 3962 16a4 F44A     		ldr	r2, .L25+4
 3963 16a6 9246     		mov	r10, r2
 3964 16a8 5444     		add	r4, r4, r10
 3965              	.LVL783:
 3966 16aa 1422     		movs	r2, #20
 3967 16ac D441     		rors	r4, r4, r2
 3968              	.LVL784:
 3969 16ae 159D     		ldr	r5, [sp, #84]
 3970 16b0 AA46     		mov	r10, r5
 3971              	.LVL785:
 3972 16b2 5444     		add	r4, r4, r10
 3973              	.LVL786:
 3974 16b4 4846     		mov	r0, r9
 3975 16b6 D841     		rors	r0, r0, r3
 3976 16b8 1490     		str	r0, [sp, #80]
 3977              	.LVL787:
 3978 16ba 4246     		mov	r2, r8
 3979 16bc 1298     		ldr	r0, [sp, #72]
 3980              	.LVL788:
 3981 16be 4240     		eors	r2, r0
 3982 16c0 0A40     		ands	r2, r1
 3983 16c2 4240     		eors	r2, r0
 3984 16c4 9146     		mov	r9, r2
 3985 16c6 0D9A     		ldr	r2, [sp, #52]
 3986 16c8 9246     		mov	r10, r2
 3987 16ca D144     		add	r9, r9, r10
 3988 16cc 109A     		ldr	r2, [sp, #64]
 3989 16ce 9246     		mov	r10, r2
 3990 16d0 CA44     		add	r10, r10, r9
 3991 16d2 5046     		mov	r0, r10
 3992 16d4 E74A     		ldr	r2, .L25
 3993 16d6 9146     		mov	r9, r2
 3994 16d8 4844     		add	r0, r0, r9
 3995              	.LVL789:
 3996 16da 1822     		movs	r2, #24
 3997 16dc D041     		rors	r0, r0, r2
 3998              	.LVL790:
 3999 16de 8146     		mov	r9, r0
 4000              	.LVL791:
 4001 16e0 119A     		ldr	r2, [sp, #68]
 4002 16e2 9246     		mov	r10, r2
 4003              	.LVL792:
 4004 16e4 D144     		add	r9, r9, r10
 4005              	.LVL793:
 4006 16e6 4246     		mov	r2, r8
 4007 16e8 DA41     		rors	r2, r2, r3
 4008 16ea 9046     		mov	r8, r2
 4009              	.LVL794:
 262:Source\mbedtls_open\library/ripemd160.c **** #undef F
 263:Source\mbedtls_open\library/ripemd160.c **** #undef K
 264:Source\mbedtls_open\library/ripemd160.c **** #undef Fp
 265:Source\mbedtls_open\library/ripemd160.c **** #undef Kp
 266:Source\mbedtls_open\library/ripemd160.c **** 
ARM GAS  C:\Users\Phuong\AppData\Local\Temp\ccbgGR22.s 			page 76


 267:Source\mbedtls_open\library/ripemd160.c **** #define F   F5
 268:Source\mbedtls_open\library/ripemd160.c **** #define K   0xA953FD4E
 269:Source\mbedtls_open\library/ripemd160.c **** #define Fp  F1
 270:Source\mbedtls_open\library/ripemd160.c **** #define Kp  0x00000000
 271:Source\mbedtls_open\library/ripemd160.c ****     P2( B, C, D, E, A,  4,  9, 12,  8 );
 4010              		.loc 1 271 0
 4011 16ec 149A     		ldr	r2, [sp, #80]
 4012              	.LVL795:
 4013 16ee D043     		mvns	r0, r2
 4014 16f0 6246     		mov	r2, ip
 4015 16f2 1043     		orrs	r0, r2
 4016 16f4 6040     		eors	r0, r4
 4017 16f6 039A     		ldr	r2, [sp, #12]
 4018 16f8 9246     		mov	r10, r2
 4019 16fa 5044     		add	r0, r0, r10
 4020 16fc AA46     		mov	r10, r5
 4021 16fe 5044     		add	r0, r0, r10
 4022 1700 DE4A     		ldr	r2, .L25+8
 4023 1702 9246     		mov	r10, r2
 4024 1704 5044     		add	r0, r0, r10
 4025              	.LVL796:
 4026 1706 1722     		movs	r2, #23
 4027 1708 D041     		rors	r0, r0, r2
 4028              	.LVL797:
 4029 170a 139D     		ldr	r5, [sp, #76]
 4030 170c AA46     		mov	r10, r5
 4031              	.LVL798:
 4032 170e 5044     		add	r0, r0, r10
 4033              	.LVL799:
 4034 1710 6246     		mov	r2, ip
 4035 1712 DA41     		rors	r2, r2, r3
 4036 1714 1092     		str	r2, [sp, #64]
 4037              	.LVL800:
 4038 1716 4A46     		mov	r2, r9
 4039              	.LVL801:
 4040 1718 1591     		str	r1, [sp, #84]
 4041 171a 4A40     		eors	r2, r1
 4042 171c 4546     		mov	r5, r8
 4043 171e 6A40     		eors	r2, r5
 4044 1720 9346     		mov	fp, r2
 4045 1722 0B9A     		ldr	r2, [sp, #44]
 4046 1724 9246     		mov	r10, r2
 4047 1726 D344     		add	fp, fp, r10
 4048 1728 119A     		ldr	r2, [sp, #68]
 4049 172a 5A44     		add	r2, r2, fp
 4050 172c 1100     		movs	r1, r2
 4051              	.LVL802:
 4052 172e 1825     		movs	r5, #24
 4053 1730 E941     		rors	r1, r1, r5
 4054              	.LVL803:
 4055 1732 8B46     		mov	fp, r1
 4056 1734 1299     		ldr	r1, [sp, #72]
 4057 1736 8C46     		mov	ip, r1
 4058 1738 E344     		add	fp, fp, ip
 4059              	.LVL804:
 4060 173a 159D     		ldr	r5, [sp, #84]
 4061 173c DD41     		rors	r5, r5, r3
ARM GAS  C:\Users\Phuong\AppData\Local\Temp\ccbgGR22.s 			page 77


 4062              	.LVL805:
 272:Source\mbedtls_open\library/ripemd160.c ****     P2( A, B, C, D, E,  0, 15, 15,  5 );
 4063              		.loc 1 272 0
 4064 173e 1099     		ldr	r1, [sp, #64]
 4065 1740 C943     		mvns	r1, r1
 4066 1742 2143     		orrs	r1, r4
 4067 1744 4140     		eors	r1, r0
 4068 1746 0F9A     		ldr	r2, [sp, #60]
 4069 1748 9246     		mov	r10, r2
 4070 174a 5144     		add	r1, r1, r10
 4071 174c 139A     		ldr	r2, [sp, #76]
 4072 174e 9446     		mov	ip, r2
 4073 1750 6144     		add	r1, r1, ip
 4074 1752 CA4A     		ldr	r2, .L25+8
 4075 1754 9246     		mov	r10, r2
 4076 1756 5144     		add	r1, r1, r10
 4077              	.LVL806:
 4078 1758 1122     		movs	r2, #17
 4079 175a D141     		rors	r1, r1, r2
 4080              	.LVL807:
 4081 175c 149A     		ldr	r2, [sp, #80]
 4082 175e 9246     		mov	r10, r2
 4083              	.LVL808:
 4084 1760 8C46     		mov	ip, r1
 4085 1762 D444     		add	ip, ip, r10
 4086 1764 6246     		mov	r2, ip
 4087 1766 1192     		str	r2, [sp, #68]
 4088              	.LVL809:
 4089 1768 DC41     		rors	r4, r4, r3
 4090              	.LVL810:
 4091 176a 4946     		mov	r1, r9
 4092 176c 5A46     		mov	r2, fp
 4093              	.LVL811:
 4094 176e 5140     		eors	r1, r2
 4095 1770 6940     		eors	r1, r5
 4096 1772 8A46     		mov	r10, r1
 4097 1774 0E99     		ldr	r1, [sp, #56]
 4098 1776 8C46     		mov	ip, r1
 4099              	.LVL812:
 4100 1778 E244     		add	r10, r10, ip
 4101 177a 129A     		ldr	r2, [sp, #72]
 4102 177c 5244     		add	r2, r2, r10
 4103              	.LVL813:
 4104 177e F241     		rors	r2, r2, r6
 4105              	.LVL814:
 4106 1780 9246     		mov	r10, r2
 4107              	.LVL815:
 4108 1782 C244     		add	r10, r10, r8
 4109              	.LVL816:
 4110 1784 4946     		mov	r1, r9
 4111 1786 D941     		rors	r1, r1, r3
 4112 1788 1291     		str	r1, [sp, #72]
 4113              	.LVL817:
 273:Source\mbedtls_open\library/ripemd160.c ****     P2( E, A, B, C, D,  5,  5, 10, 12 );
 4114              		.loc 1 273 0
 4115 178a E243     		mvns	r2, r4
 4116 178c 0243     		orrs	r2, r0
ARM GAS  C:\Users\Phuong\AppData\Local\Temp\ccbgGR22.s 			page 78


 4117 178e 1199     		ldr	r1, [sp, #68]
 4118              	.LVL818:
 4119 1790 4A40     		eors	r2, r1
 4120 1792 0499     		ldr	r1, [sp, #16]
 4121 1794 8C46     		mov	ip, r1
 4122 1796 6244     		add	r2, r2, ip
 4123 1798 1499     		ldr	r1, [sp, #80]
 4124 179a 8C46     		mov	ip, r1
 4125 179c 6244     		add	r2, r2, ip
 4126 179e B749     		ldr	r1, .L25+8
 4127 17a0 8C46     		mov	ip, r1
 4128 17a2 6244     		add	r2, r2, ip
 4129              	.LVL819:
 4130 17a4 F241     		rors	r2, r2, r6
 4131              	.LVL820:
 4132 17a6 1099     		ldr	r1, [sp, #64]
 4133              	.LVL821:
 4134 17a8 8C46     		mov	ip, r1
 4135              	.LVL822:
 4136 17aa 6244     		add	r2, r2, ip
 4137              	.LVL823:
 4138 17ac D841     		rors	r0, r0, r3
 4139              	.LVL824:
 4140 17ae 1390     		str	r0, [sp, #76]
 4141              	.LVL825:
 4142 17b0 5846     		mov	r0, fp
 4143              	.LVL826:
 4144 17b2 5146     		mov	r1, r10
 4145 17b4 4840     		eors	r0, r1
 4146 17b6 1299     		ldr	r1, [sp, #72]
 4147 17b8 4840     		eors	r0, r1
 4148 17ba 8146     		mov	r9, r0
 4149 17bc 0999     		ldr	r1, [sp, #36]
 4150 17be 8C46     		mov	ip, r1
 4151 17c0 E144     		add	r9, r9, ip
 4152 17c2 C844     		add	r8, r8, r9
 4153              	.LVL827:
 4154 17c4 4046     		mov	r0, r8
 4155 17c6 1421     		movs	r1, #20
 4156 17c8 C841     		rors	r0, r0, r1
 4157 17ca 8046     		mov	r8, r0
 4158              	.LVL828:
 4159 17cc A844     		add	r8, r8, r5
 4160              	.LVL829:
 4161 17ce 5846     		mov	r0, fp
 4162 17d0 D841     		rors	r0, r0, r3
 4163 17d2 8346     		mov	fp, r0
 4164              	.LVL830:
 274:Source\mbedtls_open\library/ripemd160.c ****     P2( D, E, A, B, C,  9, 11,  4,  9 );
 4165              		.loc 1 274 0
 4166 17d4 1399     		ldr	r1, [sp, #76]
 4167 17d6 C843     		mvns	r0, r1
 4168              	.LVL831:
 4169 17d8 1199     		ldr	r1, [sp, #68]
 4170 17da 0843     		orrs	r0, r1
 4171 17dc 5040     		eors	r0, r2
 4172 17de 8146     		mov	r9, r0
ARM GAS  C:\Users\Phuong\AppData\Local\Temp\ccbgGR22.s 			page 79


 4173 17e0 0899     		ldr	r1, [sp, #32]
 4174 17e2 8C46     		mov	ip, r1
 4175 17e4 E144     		add	r9, r9, ip
 4176 17e6 1098     		ldr	r0, [sp, #64]
 4177 17e8 8446     		mov	ip, r0
 4178 17ea CC44     		add	ip, ip, r9
 4179 17ec A348     		ldr	r0, .L25+8
 4180 17ee 8146     		mov	r9, r0
 4181 17f0 CC44     		add	ip, ip, r9
 4182              	.LVL832:
 4183 17f2 6046     		mov	r0, ip
 4184 17f4 1521     		movs	r1, #21
 4185 17f6 C841     		rors	r0, r0, r1
 4186 17f8 8446     		mov	ip, r0
 4187              	.LVL833:
 4188 17fa A444     		add	ip, ip, r4
 4189              	.LVL834:
 4190 17fc 1198     		ldr	r0, [sp, #68]
 4191 17fe D841     		rors	r0, r0, r3
 4192 1800 1090     		str	r0, [sp, #64]
 4193              	.LVL835:
 4194 1802 4046     		mov	r0, r8
 4195              	.LVL836:
 4196 1804 5146     		mov	r1, r10
 4197 1806 4840     		eors	r0, r1
 4198 1808 0100     		movs	r1, r0
 4199 180a 5846     		mov	r0, fp
 4200 180c 4140     		eors	r1, r0
 4201 180e 0398     		ldr	r0, [sp, #12]
 4202 1810 8146     		mov	r9, r0
 4203 1812 4944     		add	r1, r1, r9
 4204 1814 6D18     		adds	r5, r5, r1
 4205              	.LVL837:
 4206 1816 1720     		movs	r0, #23
 4207 1818 C541     		rors	r5, r5, r0
 4208              	.LVL838:
 4209 181a 1298     		ldr	r0, [sp, #72]
 4210 181c 8146     		mov	r9, r0
 4211 181e 4D44     		add	r5, r5, r9
 4212 1820 0395     		str	r5, [sp, #12]
 4213              	.LVL839:
 4214 1822 5046     		mov	r0, r10
 4215 1824 D841     		rors	r0, r0, r3
 4216 1826 8246     		mov	r10, r0
 4217              	.LVL840:
 275:Source\mbedtls_open\library/ripemd160.c ****     P2( C, D, E, A, B,  7,  6,  1, 12 );
 4218              		.loc 1 275 0
 4219 1828 109D     		ldr	r5, [sp, #64]
 4220              	.LVL841:
 4221 182a E943     		mvns	r1, r5
 4222 182c 1143     		orrs	r1, r2
 4223 182e 6546     		mov	r5, ip
 4224 1830 6940     		eors	r1, r5
 4225 1832 0698     		ldr	r0, [sp, #24]
 4226              	.LVL842:
 4227 1834 8146     		mov	r9, r0
 4228 1836 4944     		add	r1, r1, r9
ARM GAS  C:\Users\Phuong\AppData\Local\Temp\ccbgGR22.s 			page 80


 4229 1838 6418     		adds	r4, r4, r1
 4230              	.LVL843:
 4231 183a 904D     		ldr	r5, .L25+8
 4232 183c A946     		mov	r9, r5
 4233 183e 4C44     		add	r4, r4, r9
 4234              	.LVL844:
 4235 1840 1A25     		movs	r5, #26
 4236 1842 EC41     		rors	r4, r4, r5
 4237              	.LVL845:
 4238 1844 1399     		ldr	r1, [sp, #76]
 4239 1846 8946     		mov	r9, r1
 4240 1848 4C44     		add	r4, r4, r9
 4241              	.LVL846:
 4242 184a DA41     		rors	r2, r2, r3
 4243              	.LVL847:
 4244 184c 1192     		str	r2, [sp, #68]
 4245              	.LVL848:
 4246 184e 4046     		mov	r0, r8
 4247 1850 039A     		ldr	r2, [sp, #12]
 4248              	.LVL849:
 4249 1852 5040     		eors	r0, r2
 4250 1854 0100     		movs	r1, r0
 4251 1856 5546     		mov	r5, r10
 4252 1858 6940     		eors	r1, r5
 4253 185a 0098     		ldr	r0, [sp]
 4254 185c 8146     		mov	r9, r0
 4255 185e 4944     		add	r1, r1, r9
 4256 1860 1298     		ldr	r0, [sp, #72]
 4257 1862 8146     		mov	r9, r0
 4258 1864 4944     		add	r1, r1, r9
 4259              	.LVL850:
 4260 1866 1425     		movs	r5, #20
 4261 1868 E941     		rors	r1, r1, r5
 4262              	.LVL851:
 4263 186a 0A00     		movs	r2, r1
 4264 186c 5A44     		add	r2, r2, fp
 4265              	.LVL852:
 4266 186e 4046     		mov	r0, r8
 4267 1870 D841     		rors	r0, r0, r3
 4268 1872 0100     		movs	r1, r0
 4269              	.LVL853:
 276:Source\mbedtls_open\library/ripemd160.c ****     P2( B, C, D, E, A, 12,  8,  5,  5 );
 4270              		.loc 1 276 0
 4271 1874 1198     		ldr	r0, [sp, #68]
 4272              	.LVL854:
 4273 1876 C543     		mvns	r5, r0
 4274 1878 2800     		movs	r0, r5
 4275 187a 6546     		mov	r5, ip
 4276 187c 2843     		orrs	r0, r5
 4277 187e 6040     		eors	r0, r4
 4278 1880 8046     		mov	r8, r0
 4279 1882 0B98     		ldr	r0, [sp, #44]
 4280 1884 8146     		mov	r9, r0
 4281 1886 C844     		add	r8, r8, r9
 4282 1888 1398     		ldr	r0, [sp, #76]
 4283 188a 4044     		add	r0, r0, r8
 4284 188c 7B4D     		ldr	r5, .L25+8
ARM GAS  C:\Users\Phuong\AppData\Local\Temp\ccbgGR22.s 			page 81


 4285 188e A846     		mov	r8, r5
 4286 1890 4044     		add	r0, r0, r8
 4287              	.LVL855:
 4288 1892 1825     		movs	r5, #24
 4289 1894 E841     		rors	r0, r0, r5
 4290              	.LVL856:
 4291 1896 109D     		ldr	r5, [sp, #64]
 4292 1898 A946     		mov	r9, r5
 4293 189a 4844     		add	r0, r0, r9
 4294              	.LVL857:
 4295 189c 6546     		mov	r5, ip
 4296 189e DD41     		rors	r5, r5, r3
 4297 18a0 AC46     		mov	ip, r5
 4298              	.LVL858:
 4299 18a2 039D     		ldr	r5, [sp, #12]
 4300              	.LVL859:
 4301 18a4 5540     		eors	r5, r2
 4302 18a6 0B91     		str	r1, [sp, #44]
 4303 18a8 4D40     		eors	r5, r1
 4304 18aa A846     		mov	r8, r5
 4305 18ac 0499     		ldr	r1, [sp, #16]
 4306              	.LVL860:
 4307 18ae 8946     		mov	r9, r1
 4308 18b0 C844     		add	r8, r8, r9
 4309 18b2 C344     		add	fp, fp, r8
 4310              	.LVL861:
 4311 18b4 5D46     		mov	r5, fp
 4312 18b6 F541     		rors	r5, r5, r6
 4313 18b8 AB46     		mov	fp, r5
 4314              	.LVL862:
 4315 18ba D344     		add	fp, fp, r10
 4316              	.LVL863:
 4317 18bc 039D     		ldr	r5, [sp, #12]
 4318 18be DD41     		rors	r5, r5, r3
 4319 18c0 A846     		mov	r8, r5
 4320              	.LVL864:
 277:Source\mbedtls_open\library/ripemd160.c ****     P2( A, B, C, D, E,  2, 13,  8, 14 );
 4321              		.loc 1 277 0
 4322 18c2 6546     		mov	r5, ip
 4323              	.LVL865:
 4324 18c4 ED43     		mvns	r5, r5
 4325 18c6 2543     		orrs	r5, r4
 4326 18c8 4540     		eors	r5, r0
 4327 18ca 0199     		ldr	r1, [sp, #4]
 4328 18cc 8946     		mov	r9, r1
 4329 18ce 4D44     		add	r5, r5, r9
 4330 18d0 1099     		ldr	r1, [sp, #64]
 4331 18d2 8946     		mov	r9, r1
 4332 18d4 4D44     		add	r5, r5, r9
 4333 18d6 6949     		ldr	r1, .L25+8
 4334 18d8 8946     		mov	r9, r1
 4335 18da 4D44     		add	r5, r5, r9
 4336              	.LVL866:
 4337 18dc 1321     		movs	r1, #19
 4338 18de CD41     		rors	r5, r5, r1
 4339              	.LVL867:
 4340 18e0 1199     		ldr	r1, [sp, #68]
ARM GAS  C:\Users\Phuong\AppData\Local\Temp\ccbgGR22.s 			page 82


 4341 18e2 4919     		adds	r1, r1, r5
 4342 18e4 0491     		str	r1, [sp, #16]
 4343              	.LVL868:
 4344 18e6 2500     		movs	r5, r4
 4345 18e8 DD41     		rors	r5, r5, r3
 4346 18ea 2900     		movs	r1, r5
 4347              	.LVL869:
 4348 18ec 5D46     		mov	r5, fp
 4349 18ee 5540     		eors	r5, r2
 4350 18f0 2C00     		movs	r4, r5
 4351 18f2 4546     		mov	r5, r8
 4352 18f4 6C40     		eors	r4, r5
 4353 18f6 079D     		ldr	r5, [sp, #28]
 4354 18f8 A946     		mov	r9, r5
 4355 18fa 4C44     		add	r4, r4, r9
 4356 18fc 5444     		add	r4, r4, r10
 4357              	.LVL870:
 4358 18fe 1225     		movs	r5, #18
 4359 1900 EC41     		rors	r4, r4, r5
 4360              	.LVL871:
 4361 1902 0B9D     		ldr	r5, [sp, #44]
 4362 1904 A946     		mov	r9, r5
 4363 1906 4C44     		add	r4, r4, r9
 4364 1908 0394     		str	r4, [sp, #12]
 4365              	.LVL872:
 4366 190a 1500     		movs	r5, r2
 4367 190c DD41     		rors	r5, r5, r3
 4368 190e AA46     		mov	r10, r5
 4369              	.LVL873:
 278:Source\mbedtls_open\library/ripemd160.c ****     P2( E, A, B, C, D, 10, 12,  7,  6 );
 4370              		.loc 1 278 0
 4371 1910 1091     		str	r1, [sp, #64]
 4372 1912 C943     		mvns	r1, r1
 4373              	.LVL874:
 4374 1914 0143     		orrs	r1, r0
 4375 1916 049C     		ldr	r4, [sp, #16]
 4376              	.LVL875:
 4377 1918 6140     		eors	r1, r4
 4378 191a 099D     		ldr	r5, [sp, #36]
 4379              	.LVL876:
 4380 191c A946     		mov	r9, r5
 4381 191e 4944     		add	r1, r1, r9
 4382 1920 119A     		ldr	r2, [sp, #68]
 4383 1922 5218     		adds	r2, r2, r1
 4384 1924 554D     		ldr	r5, .L25+8
 4385 1926 A946     		mov	r9, r5
 4386 1928 4A44     		add	r2, r2, r9
 4387              	.LVL877:
 4388 192a 1425     		movs	r5, #20
 4389 192c EA41     		rors	r2, r2, r5
 4390              	.LVL878:
 4391 192e 6244     		add	r2, r2, ip
 4392              	.LVL879:
 4393 1930 D841     		rors	r0, r0, r3
 4394              	.LVL880:
 4395 1932 0490     		str	r0, [sp, #16]
 4396              	.LVL881:
ARM GAS  C:\Users\Phuong\AppData\Local\Temp\ccbgGR22.s 			page 83


 4397 1934 5D46     		mov	r5, fp
 4398 1936 0399     		ldr	r1, [sp, #12]
 4399 1938 4D40     		eors	r5, r1
 4400 193a 2900     		movs	r1, r5
 4401 193c 5546     		mov	r5, r10
 4402 193e 6940     		eors	r1, r5
 4403 1940 069D     		ldr	r5, [sp, #24]
 4404 1942 A946     		mov	r9, r5
 4405 1944 4944     		add	r1, r1, r9
 4406 1946 0B9D     		ldr	r5, [sp, #44]
 4407 1948 A946     		mov	r9, r5
 4408 194a 4944     		add	r1, r1, r9
 4409              	.LVL882:
 4410 194c 1A25     		movs	r5, #26
 4411 194e E941     		rors	r1, r1, r5
 4412              	.LVL883:
 4413 1950 0800     		movs	r0, r1
 4414              	.LVL884:
 4415 1952 4044     		add	r0, r0, r8
 4416              	.LVL885:
 4417 1954 5D46     		mov	r5, fp
 4418 1956 DD41     		rors	r5, r5, r3
 4419 1958 2900     		movs	r1, r5
 4420              	.LVL886:
 279:Source\mbedtls_open\library/ripemd160.c ****     P2( D, E, A, B, C, 14,  5,  6,  8 );
 4421              		.loc 1 279 0
 4422 195a 049D     		ldr	r5, [sp, #16]
 4423 195c ED43     		mvns	r5, r5
 4424 195e 2543     		orrs	r5, r4
 4425 1960 5540     		eors	r5, r2
 4426 1962 AB46     		mov	fp, r5
 4427 1964 0D9D     		ldr	r5, [sp, #52]
 4428 1966 A946     		mov	r9, r5
 4429 1968 CB44     		add	fp, fp, r9
 4430 196a DC44     		add	ip, ip, fp
 4431              	.LVL887:
 4432 196c 434D     		ldr	r5, .L25+8
 4433 196e A946     		mov	r9, r5
 4434 1970 CC44     		add	ip, ip, r9
 4435              	.LVL888:
 4436 1972 6546     		mov	r5, ip
 4437 1974 F541     		rors	r5, r5, r6
 4438 1976 AC46     		mov	ip, r5
 4439              	.LVL889:
 4440 1978 109D     		ldr	r5, [sp, #64]
 4441 197a A946     		mov	r9, r5
 4442 197c CC44     		add	ip, ip, r9
 4443              	.LVL890:
 4444 197e 2500     		movs	r5, r4
 4445 1980 DD41     		rors	r5, r5, r3
 4446 1982 AB46     		mov	fp, r5
 4447              	.LVL891:
 4448 1984 039D     		ldr	r5, [sp, #12]
 4449              	.LVL892:
 4450 1986 4540     		eors	r5, r0
 4451 1988 0691     		str	r1, [sp, #24]
 4452 198a 4D40     		eors	r5, r1
ARM GAS  C:\Users\Phuong\AppData\Local\Temp\ccbgGR22.s 			page 84


 4453 198c 0599     		ldr	r1, [sp, #20]
 4454              	.LVL893:
 4455 198e 8946     		mov	r9, r1
 4456 1990 4D44     		add	r5, r5, r9
 4457 1992 4544     		add	r5, r5, r8
 4458              	.LVL894:
 4459 1994 1821     		movs	r1, #24
 4460 1996 CD41     		rors	r5, r5, r1
 4461              	.LVL895:
 4462 1998 2900     		movs	r1, r5
 4463 199a 5144     		add	r1, r1, r10
 4464 199c 0991     		str	r1, [sp, #36]
 4465              	.LVL896:
 4466 199e 039C     		ldr	r4, [sp, #12]
 4467 19a0 DC41     		rors	r4, r4, r3
 4468 19a2 A046     		mov	r8, r4
 4469              	.LVL897:
 280:Source\mbedtls_open\library/ripemd160.c ****     P2( C, D, E, A, B,  1, 12,  2, 13 );
 4470              		.loc 1 280 0
 4471 19a4 5D46     		mov	r5, fp
 4472 19a6 EC43     		mvns	r4, r5
 4473              	.LVL898:
 4474 19a8 1443     		orrs	r4, r2
 4475 19aa 6546     		mov	r5, ip
 4476 19ac 6C40     		eors	r4, r5
 4477 19ae 0099     		ldr	r1, [sp]
 4478              	.LVL899:
 4479 19b0 8946     		mov	r9, r1
 4480 19b2 4C44     		add	r4, r4, r9
 4481 19b4 109D     		ldr	r5, [sp, #64]
 4482 19b6 A946     		mov	r9, r5
 4483 19b8 4C44     		add	r4, r4, r9
 4484 19ba 304D     		ldr	r5, .L25+8
 4485 19bc A946     		mov	r9, r5
 4486 19be 4C44     		add	r4, r4, r9
 4487              	.LVL900:
 4488 19c0 1425     		movs	r5, #20
 4489 19c2 EC41     		rors	r4, r4, r5
 4490              	.LVL901:
 4491 19c4 0499     		ldr	r1, [sp, #16]
 4492 19c6 8946     		mov	r9, r1
 4493              	.LVL902:
 4494 19c8 4C44     		add	r4, r4, r9
 4495              	.LVL903:
 4496 19ca DA41     		rors	r2, r2, r3
 4497              	.LVL904:
 4498 19cc 0092     		str	r2, [sp]
 4499              	.LVL905:
 4500 19ce 0200     		movs	r2, r0
 4501              	.LVL906:
 4502 19d0 0999     		ldr	r1, [sp, #36]
 4503 19d2 4A40     		eors	r2, r1
 4504 19d4 4546     		mov	r5, r8
 4505 19d6 6A40     		eors	r2, r5
 4506 19d8 0199     		ldr	r1, [sp, #4]
 4507 19da 8946     		mov	r9, r1
 4508 19dc 4A44     		add	r2, r2, r9
ARM GAS  C:\Users\Phuong\AppData\Local\Temp\ccbgGR22.s 			page 85


 4509 19de 5244     		add	r2, r2, r10
 4510              	.LVL907:
 4511 19e0 1325     		movs	r5, #19
 4512 19e2 EA41     		rors	r2, r2, r5
 4513              	.LVL908:
 4514 19e4 069D     		ldr	r5, [sp, #24]
 4515 19e6 A946     		mov	r9, r5
 4516 19e8 4A44     		add	r2, r2, r9
 4517              	.LVL909:
 4518 19ea 0100     		movs	r1, r0
 4519 19ec D941     		rors	r1, r1, r3
 4520 19ee 8A46     		mov	r10, r1
 4521              	.LVL910:
 281:Source\mbedtls_open\library/ripemd160.c ****     P2( B, C, D, E, A,  3, 13, 13,  6 );
 4522              		.loc 1 281 0
 4523 19f0 009D     		ldr	r5, [sp]
 4524 19f2 E943     		mvns	r1, r5
 4525              	.LVL911:
 4526 19f4 6546     		mov	r5, ip
 4527 19f6 2943     		orrs	r1, r5
 4528 19f8 6140     		eors	r1, r4
 4529 19fa 029D     		ldr	r5, [sp, #8]
 4530 19fc A946     		mov	r9, r5
 4531 19fe 4944     		add	r1, r1, r9
 4532 1a00 0498     		ldr	r0, [sp, #16]
 4533 1a02 4018     		adds	r0, r0, r1
 4534 1a04 1D49     		ldr	r1, .L25+8
 4535 1a06 8946     		mov	r9, r1
 4536 1a08 4844     		add	r0, r0, r9
 4537              	.LVL912:
 4538 1a0a 1321     		movs	r1, #19
 4539 1a0c C841     		rors	r0, r0, r1
 4540              	.LVL913:
 4541 1a0e 5844     		add	r0, r0, fp
 4542 1a10 0190     		str	r0, [sp, #4]
 4543              	.LVL914:
 4544 1a12 6046     		mov	r0, ip
 4545              	.LVL915:
 4546 1a14 D841     		rors	r0, r0, r3
 4547 1a16 8446     		mov	ip, r0
 4548              	.LVL916:
 4549 1a18 099D     		ldr	r5, [sp, #36]
 4550 1a1a 2800     		movs	r0, r5
 4551              	.LVL917:
 4552 1a1c 5040     		eors	r0, r2
 4553 1a1e 0100     		movs	r1, r0
 4554 1a20 5046     		mov	r0, r10
 4555 1a22 4140     		eors	r1, r0
 4556 1a24 0C98     		ldr	r0, [sp, #48]
 4557 1a26 8146     		mov	r9, r0
 4558 1a28 4944     		add	r1, r1, r9
 4559 1a2a 0698     		ldr	r0, [sp, #24]
 4560 1a2c 8146     		mov	r9, r0
 4561 1a2e 4944     		add	r1, r1, r9
 4562              	.LVL918:
 4563 1a30 1A20     		movs	r0, #26
 4564 1a32 C141     		rors	r1, r1, r0
ARM GAS  C:\Users\Phuong\AppData\Local\Temp\ccbgGR22.s 			page 86


 4565              	.LVL919:
 4566 1a34 4144     		add	r1, r1, r8
 4567              	.LVL920:
 4568 1a36 2800     		movs	r0, r5
 4569 1a38 D841     		rors	r0, r0, r3
 4570 1a3a 0490     		str	r0, [sp, #16]
 4571              	.LVL921:
 282:Source\mbedtls_open\library/ripemd160.c ****     P2( A, B, C, D, E,  8, 14, 14,  5 );
 4572              		.loc 1 282 0
 4573 1a3c 6046     		mov	r0, ip
 4574              	.LVL922:
 4575 1a3e C543     		mvns	r5, r0
 4576 1a40 2543     		orrs	r5, r4
 4577 1a42 0198     		ldr	r0, [sp, #4]
 4578 1a44 4540     		eors	r5, r0
 4579 1a46 0798     		ldr	r0, [sp, #28]
 4580 1a48 8146     		mov	r9, r0
 4581 1a4a 4D44     		add	r5, r5, r9
 4582 1a4c 5D44     		add	r5, r5, fp
 4583 1a4e 0B48     		ldr	r0, .L25+8
 4584 1a50 8146     		mov	r9, r0
 4585 1a52 4D44     		add	r5, r5, r9
 4586              	.LVL923:
 4587 1a54 1220     		movs	r0, #18
 4588 1a56 C541     		rors	r5, r5, r0
 4589              	.LVL924:
 4590 1a58 0098     		ldr	r0, [sp]
 4591 1a5a 8146     		mov	r9, r0
 4592              	.LVL925:
 4593 1a5c 4D44     		add	r5, r5, r9
 4594              	.LVL926:
 4595 1a5e DC41     		rors	r4, r4, r3
 4596              	.LVL927:
 4597 1a60 A346     		mov	fp, r4
 4598              	.LVL928:
 4599 1a62 1400     		movs	r4, r2
 4600              	.LVL929:
 4601 1a64 4C40     		eors	r4, r1
 4602 1a66 0498     		ldr	r0, [sp, #16]
 4603 1a68 4440     		eors	r4, r0
 4604 1a6a 0D98     		ldr	r0, [sp, #52]
 4605 1a6c 8146     		mov	r9, r0
 4606 1a6e 4C44     		add	r4, r4, r9
 4607 1a70 06E0     		b	.L26
 4608              	.L27:
 4609 1a72 C046     		.align	2
 4610              	.L25:
 4611 1a74 E9766D7A 		.word	2053994217
 4612 1a78 DCBC1B8F 		.word	-1894007588
 4613 1a7c 4EFD53A9 		.word	-1454113458
 4614              	.L26:
 4615 1a80 4444     		add	r4, r4, r8
 4616              	.LVL930:
 4617 1a82 F441     		rors	r4, r4, r6
 4618              	.LVL931:
 4619 1a84 5444     		add	r4, r4, r10
 4620 1a86 0394     		str	r4, [sp, #12]
ARM GAS  C:\Users\Phuong\AppData\Local\Temp\ccbgGR22.s 			page 87


 4621              	.LVL932:
 4622 1a88 1400     		movs	r4, r2
 4623              	.LVL933:
 4624 1a8a DC41     		rors	r4, r4, r3
 4625 1a8c A046     		mov	r8, r4
 4626              	.LVL934:
 283:Source\mbedtls_open\library/ripemd160.c ****     P2( E, A, B, C, D, 11, 11,  0, 15 );
 4627              		.loc 1 283 0
 4628 1a8e 5C46     		mov	r4, fp
 4629              	.LVL935:
 4630 1a90 E243     		mvns	r2, r4
 4631 1a92 0198     		ldr	r0, [sp, #4]
 4632 1a94 0243     		orrs	r2, r0
 4633 1a96 6A40     		eors	r2, r5
 4634 1a98 0A98     		ldr	r0, [sp, #40]
 4635 1a9a 8146     		mov	r9, r0
 4636 1a9c 4A44     		add	r2, r2, r9
 4637 1a9e 009C     		ldr	r4, [sp]
 4638 1aa0 A146     		mov	r9, r4
 4639 1aa2 4A44     		add	r2, r2, r9
 4640 1aa4 564C     		ldr	r4, .L28
 4641 1aa6 A146     		mov	r9, r4
 4642 1aa8 4A44     		add	r2, r2, r9
 4643              	.LVL936:
 4644 1aaa 1524     		movs	r4, #21
 4645 1aac E241     		rors	r2, r2, r4
 4646              	.LVL937:
 4647 1aae 1400     		movs	r4, r2
 4648 1ab0 6444     		add	r4, r4, ip
 4649 1ab2 0694     		str	r4, [sp, #24]
 4650              	.LVL938:
 4651 1ab4 019C     		ldr	r4, [sp, #4]
 4652              	.LVL939:
 4653 1ab6 DC41     		rors	r4, r4, r3
 4654 1ab8 0094     		str	r4, [sp]
 4655              	.LVL940:
 4656 1aba 0C00     		movs	r4, r1
 4657              	.LVL941:
 4658 1abc 039A     		ldr	r2, [sp, #12]
 4659 1abe 5440     		eors	r4, r2
 4660 1ac0 2000     		movs	r0, r4
 4661 1ac2 4446     		mov	r4, r8
 4662 1ac4 6040     		eors	r0, r4
 4663 1ac6 0F9C     		ldr	r4, [sp, #60]
 4664 1ac8 A146     		mov	r9, r4
 4665 1aca 4844     		add	r0, r0, r9
 4666 1acc 5044     		add	r0, r0, r10
 4667              	.LVL942:
 4668 1ace 1124     		movs	r4, #17
 4669 1ad0 E041     		rors	r0, r0, r4
 4670              	.LVL943:
 4671 1ad2 049A     		ldr	r2, [sp, #16]
 4672 1ad4 9146     		mov	r9, r2
 4673 1ad6 4844     		add	r0, r0, r9
 4674              	.LVL944:
 4675 1ad8 0C00     		movs	r4, r1
 4676 1ada DC41     		rors	r4, r4, r3
ARM GAS  C:\Users\Phuong\AppData\Local\Temp\ccbgGR22.s 			page 88


 4677 1adc 0194     		str	r4, [sp, #4]
 4678              	.LVL945:
 284:Source\mbedtls_open\library/ripemd160.c ****     P2( D, E, A, B, C,  6,  8,  3, 13 );
 4679              		.loc 1 284 0
 4680 1ade 009C     		ldr	r4, [sp]
 4681              	.LVL946:
 4682 1ae0 E143     		mvns	r1, r4
 4683 1ae2 2943     		orrs	r1, r5
 4684 1ae4 069C     		ldr	r4, [sp, #24]
 4685 1ae6 6140     		eors	r1, r4
 4686 1ae8 059C     		ldr	r4, [sp, #20]
 4687 1aea A146     		mov	r9, r4
 4688 1aec 4944     		add	r1, r1, r9
 4689 1aee 6144     		add	r1, r1, ip
 4690 1af0 434C     		ldr	r4, .L28
 4691 1af2 A446     		mov	ip, r4
 4692              	.LVL947:
 4693 1af4 6144     		add	r1, r1, ip
 4694              	.LVL948:
 4695 1af6 1824     		movs	r4, #24
 4696 1af8 E141     		rors	r1, r1, r4
 4697              	.LVL949:
 4698 1afa 5944     		add	r1, r1, fp
 4699              	.LVL950:
 4700 1afc DD41     		rors	r5, r5, r3
 4701              	.LVL951:
 4702 1afe 0495     		str	r5, [sp, #16]
 4703              	.LVL952:
 4704 1b00 039C     		ldr	r4, [sp, #12]
 4705 1b02 4440     		eors	r4, r0
 4706 1b04 2500     		movs	r5, r4
 4707              	.LVL953:
 4708 1b06 019C     		ldr	r4, [sp, #4]
 4709 1b08 6540     		eors	r5, r4
 4710 1b0a AC46     		mov	ip, r5
 4711 1b0c 029C     		ldr	r4, [sp, #8]
 4712 1b0e A146     		mov	r9, r4
 4713 1b10 CC44     		add	ip, ip, r9
 4714 1b12 9146     		mov	r9, r2
 4715 1b14 CC44     		add	ip, ip, r9
 4716              	.LVL954:
 4717 1b16 6546     		mov	r5, ip
 4718 1b18 1322     		movs	r2, #19
 4719 1b1a D541     		rors	r5, r5, r2
 4720 1b1c AC46     		mov	ip, r5
 4721              	.LVL955:
 4722 1b1e C444     		add	ip, ip, r8
 4723              	.LVL956:
 4724 1b20 039D     		ldr	r5, [sp, #12]
 4725 1b22 DD41     		rors	r5, r5, r3
 4726 1b24 AA46     		mov	r10, r5
 4727              	.LVL957:
 285:Source\mbedtls_open\library/ripemd160.c ****     P2( C, D, E, A, B, 15,  5,  9, 11 );
 4728              		.loc 1 285 0
 4729 1b26 049A     		ldr	r2, [sp, #16]
 4730 1b28 D443     		mvns	r4, r2
 4731 1b2a 069D     		ldr	r5, [sp, #24]
ARM GAS  C:\Users\Phuong\AppData\Local\Temp\ccbgGR22.s 			page 89


 4732              	.LVL958:
 4733 1b2c 2C43     		orrs	r4, r5
 4734 1b2e 4C40     		eors	r4, r1
 4735 1b30 0E9A     		ldr	r2, [sp, #56]
 4736 1b32 9146     		mov	r9, r2
 4737 1b34 4C44     		add	r4, r4, r9
 4738 1b36 5C44     		add	r4, r4, fp
 4739 1b38 314A     		ldr	r2, .L28
 4740 1b3a 9146     		mov	r9, r2
 4741 1b3c 4C44     		add	r4, r4, r9
 4742              	.LVL959:
 4743 1b3e F441     		rors	r4, r4, r6
 4744              	.LVL960:
 4745 1b40 009E     		ldr	r6, [sp]
 4746 1b42 B146     		mov	r9, r6
 4747 1b44 4C44     		add	r4, r4, r9
 4748              	.LVL961:
 4749 1b46 2E00     		movs	r6, r5
 4750 1b48 DE41     		rors	r6, r6, r3
 4751 1b4a 3200     		movs	r2, r6
 4752              	.LVL962:
 4753 1b4c 6546     		mov	r5, ip
 4754 1b4e 4540     		eors	r5, r0
 4755 1b50 5646     		mov	r6, r10
 4756 1b52 7540     		eors	r5, r6
 4757 1b54 AB46     		mov	fp, r5
 4758 1b56 089E     		ldr	r6, [sp, #32]
 4759 1b58 B146     		mov	r9, r6
 4760 1b5a CB44     		add	fp, fp, r9
 4761 1b5c D844     		add	r8, r8, fp
 4762              	.LVL963:
 4763 1b5e 4546     		mov	r5, r8
 4764 1b60 1526     		movs	r6, #21
 4765 1b62 F541     		rors	r5, r5, r6
 4766 1b64 A846     		mov	r8, r5
 4767              	.LVL964:
 4768 1b66 019E     		ldr	r6, [sp, #4]
 4769 1b68 B146     		mov	r9, r6
 4770 1b6a C844     		add	r8, r8, r9
 4771              	.LVL965:
 4772 1b6c 0500     		movs	r5, r0
 4773 1b6e DD41     		rors	r5, r5, r3
 4774 1b70 AB46     		mov	fp, r5
 4775              	.LVL966:
 286:Source\mbedtls_open\library/ripemd160.c ****     P2( B, C, D, E, A, 13,  6, 11, 11 );
 4776              		.loc 1 286 0
 4777 1b72 D043     		mvns	r0, r2
 4778 1b74 0843     		orrs	r0, r1
 4779 1b76 6040     		eors	r0, r4
 4780 1b78 0C9E     		ldr	r6, [sp, #48]
 4781 1b7a B146     		mov	r9, r6
 4782 1b7c 4844     		add	r0, r0, r9
 4783 1b7e 009E     		ldr	r6, [sp]
 4784 1b80 B146     		mov	r9, r6
 4785 1b82 4844     		add	r0, r0, r9
 4786 1b84 1E4D     		ldr	r5, .L28
 4787              	.LVL967:
ARM GAS  C:\Users\Phuong\AppData\Local\Temp\ccbgGR22.s 			page 90


 4788 1b86 A946     		mov	r9, r5
 4789 1b88 4844     		add	r0, r0, r9
 4790              	.LVL968:
 4791 1b8a 1A25     		movs	r5, #26
 4792 1b8c E841     		rors	r0, r0, r5
 4793              	.LVL969:
 4794 1b8e 049D     		ldr	r5, [sp, #16]
 4795 1b90 A946     		mov	r9, r5
 4796              	.LVL970:
 4797 1b92 4844     		add	r0, r0, r9
 4798              	.LVL971:
 4799 1b94 D941     		rors	r1, r1, r3
 4800              	.LVL972:
 4801 1b96 0091     		str	r1, [sp]
 4802              	.LVL973:
 4803 1b98 6146     		mov	r1, ip
 4804              	.LVL974:
 4805 1b9a 4546     		mov	r5, r8
 4806 1b9c 6940     		eors	r1, r5
 4807 1b9e 5D46     		mov	r5, fp
 4808 1ba0 6940     		eors	r1, r5
 4809 1ba2 0A9E     		ldr	r6, [sp, #40]
 4810 1ba4 B146     		mov	r9, r6
 4811 1ba6 4944     		add	r1, r1, r9
 4812 1ba8 019E     		ldr	r6, [sp, #4]
 4813 1baa B146     		mov	r9, r6
 4814 1bac 4944     		add	r1, r1, r9
 4815              	.LVL975:
 4816 1bae 1525     		movs	r5, #21
 4817 1bb0 E941     		rors	r1, r1, r5
 4818              	.LVL976:
 4819 1bb2 5144     		add	r1, r1, r10
 4820              	.LVL977:
 4821 1bb4 6546     		mov	r5, ip
 4822 1bb6 DD41     		rors	r5, r5, r3
 4823 1bb8 2B00     		movs	r3, r5
 4824              	.LVL978:
 287:Source\mbedtls_open\library/ripemd160.c **** #undef F
 288:Source\mbedtls_open\library/ripemd160.c **** #undef K
 289:Source\mbedtls_open\library/ripemd160.c **** #undef Fp
 290:Source\mbedtls_open\library/ripemd160.c **** #undef Kp
 291:Source\mbedtls_open\library/ripemd160.c **** 
 292:Source\mbedtls_open\library/ripemd160.c ****     C             = ctx->state[1] + C + Dp;
 4825              		.loc 1 292 0
 4826 1bba FD68     		ldr	r5, [r7, #12]
 4827 1bbc AC46     		mov	ip, r5
 4828 1bbe 6444     		add	r4, r4, ip
 4829              	.LVL979:
 4830 1bc0 1B19     		adds	r3, r3, r4
 4831              	.LVL980:
 293:Source\mbedtls_open\library/ripemd160.c ****     ctx->state[1] = ctx->state[2] + D + Ep;
 4832              		.loc 1 293 0
 4833 1bc2 3C69     		ldr	r4, [r7, #16]
 4834 1bc4 009E     		ldr	r6, [sp]
 4835 1bc6 B446     		mov	ip, r6
 4836 1bc8 6444     		add	r4, r4, ip
 4837 1bca 2600     		movs	r6, r4
ARM GAS  C:\Users\Phuong\AppData\Local\Temp\ccbgGR22.s 			page 91


 4838 1bcc 5E44     		add	r6, r6, fp
 4839 1bce FE60     		str	r6, [r7, #12]
 294:Source\mbedtls_open\library/ripemd160.c ****     ctx->state[2] = ctx->state[3] + E + Ap;
 4840              		.loc 1 294 0
 4841 1bd0 7C69     		ldr	r4, [r7, #20]
 4842 1bd2 A446     		mov	ip, r4
 4843 1bd4 6244     		add	r2, r2, ip
 4844              	.LVL981:
 4845 1bd6 5244     		add	r2, r2, r10
 4846 1bd8 3A61     		str	r2, [r7, #16]
 295:Source\mbedtls_open\library/ripemd160.c ****     ctx->state[3] = ctx->state[4] + A + Bp;
 4847              		.loc 1 295 0
 4848 1bda BA69     		ldr	r2, [r7, #24]
 4849 1bdc 9446     		mov	ip, r2
 4850 1bde 049A     		ldr	r2, [sp, #16]
 4851 1be0 6244     		add	r2, r2, ip
 4852 1be2 8918     		adds	r1, r1, r2
 4853              	.LVL982:
 4854 1be4 7961     		str	r1, [r7, #20]
 296:Source\mbedtls_open\library/ripemd160.c ****     ctx->state[4] = ctx->state[0] + B + Cp;
 4855              		.loc 1 296 0
 4856 1be6 BA68     		ldr	r2, [r7, #8]
 4857 1be8 1218     		adds	r2, r2, r0
 4858 1bea 4244     		add	r2, r2, r8
 4859 1bec BA61     		str	r2, [r7, #24]
 297:Source\mbedtls_open\library/ripemd160.c ****     ctx->state[0] = C;
 4860              		.loc 1 297 0
 4861 1bee BB60     		str	r3, [r7, #8]
 298:Source\mbedtls_open\library/ripemd160.c **** 
 299:Source\mbedtls_open\library/ripemd160.c ****     return( 0 );
 300:Source\mbedtls_open\library/ripemd160.c **** }
 4862              		.loc 1 300 0
 4863 1bf0 0020     		movs	r0, #0
 4864              	.LVL983:
 4865 1bf2 17B0     		add	sp, sp, #92
 4866              	.LVL984:
 4867              		@ sp needed
 4868              	.LVL985:
 4869              	.LVL986:
 4870              	.LVL987:
 4871              	.LVL988:
 4872 1bf4 3CBC     		pop	{r2, r3, r4, r5}
 4873 1bf6 9046     		mov	r8, r2
 4874 1bf8 9946     		mov	r9, r3
 4875 1bfa A246     		mov	r10, r4
 4876 1bfc AB46     		mov	fp, r5
 4877 1bfe F0BD     		pop	{r4, r5, r6, r7, pc}
 4878              	.L29:
 4879              		.align	2
 4880              	.L28:
 4881 1c00 4EFD53A9 		.word	-1454113458
 4882              		.cfi_endproc
 4883              	.LFE6:
 4884              		.size	mbedtls_internal_ripemd160_process, .-mbedtls_internal_ripemd160_process
 4885              		.section	.text.mbedtls_ripemd160_process,"ax",%progbits
 4886              		.align	2
 4887              		.global	mbedtls_ripemd160_process
ARM GAS  C:\Users\Phuong\AppData\Local\Temp\ccbgGR22.s 			page 92


 4888              		.code	16
 4889              		.thumb_func
 4890              		.type	mbedtls_ripemd160_process, %function
 4891              	mbedtls_ripemd160_process:
 4892              	.LFB7:
 301:Source\mbedtls_open\library/ripemd160.c **** 
 302:Source\mbedtls_open\library/ripemd160.c **** #if !defined(MBEDTLS_DEPRECATED_REMOVED)
 303:Source\mbedtls_open\library/ripemd160.c **** void mbedtls_ripemd160_process( mbedtls_ripemd160_context *ctx,
 304:Source\mbedtls_open\library/ripemd160.c ****                                 const unsigned char data[64] )
 305:Source\mbedtls_open\library/ripemd160.c **** {
 4893              		.loc 1 305 0
 4894              		.cfi_startproc
 4895              		@ args = 0, pretend = 0, frame = 0
 4896              		@ frame_needed = 0, uses_anonymous_args = 0
 4897              	.LVL989:
 4898 0000 10B5     		push	{r4, lr}
 4899              		.cfi_def_cfa_offset 8
 4900              		.cfi_offset 4, -8
 4901              		.cfi_offset 14, -4
 306:Source\mbedtls_open\library/ripemd160.c ****     mbedtls_internal_ripemd160_process( ctx, data );
 4902              		.loc 1 306 0
 4903 0002 FFF7FEFF 		bl	mbedtls_internal_ripemd160_process
 4904              	.LVL990:
 307:Source\mbedtls_open\library/ripemd160.c **** }
 4905              		.loc 1 307 0
 4906              		@ sp needed
 4907 0006 10BD     		pop	{r4, pc}
 4908              		.cfi_endproc
 4909              	.LFE7:
 4910              		.size	mbedtls_ripemd160_process, .-mbedtls_ripemd160_process
 4911              		.section	.text.mbedtls_ripemd160_update_ret,"ax",%progbits
 4912              		.align	2
 4913              		.global	mbedtls_ripemd160_update_ret
 4914              		.code	16
 4915              		.thumb_func
 4916              		.type	mbedtls_ripemd160_update_ret, %function
 4917              	mbedtls_ripemd160_update_ret:
 4918              	.LFB8:
 308:Source\mbedtls_open\library/ripemd160.c **** #endif
 309:Source\mbedtls_open\library/ripemd160.c **** #endif /* !MBEDTLS_RIPEMD160_PROCESS_ALT */
 310:Source\mbedtls_open\library/ripemd160.c **** 
 311:Source\mbedtls_open\library/ripemd160.c **** /*
 312:Source\mbedtls_open\library/ripemd160.c ****  * RIPEMD-160 process buffer
 313:Source\mbedtls_open\library/ripemd160.c ****  */
 314:Source\mbedtls_open\library/ripemd160.c **** int mbedtls_ripemd160_update_ret( mbedtls_ripemd160_context *ctx,
 315:Source\mbedtls_open\library/ripemd160.c ****                                   const unsigned char *input,
 316:Source\mbedtls_open\library/ripemd160.c ****                                   size_t ilen )
 317:Source\mbedtls_open\library/ripemd160.c **** {
 4919              		.loc 1 317 0
 4920              		.cfi_startproc
 4921              		@ args = 0, pretend = 0, frame = 0
 4922              		@ frame_needed = 0, uses_anonymous_args = 0
 4923              	.LVL991:
 4924 0000 F8B5     		push	{r3, r4, r5, r6, r7, lr}
 4925              		.cfi_def_cfa_offset 24
 4926              		.cfi_offset 3, -24
 4927              		.cfi_offset 4, -20
ARM GAS  C:\Users\Phuong\AppData\Local\Temp\ccbgGR22.s 			page 93


 4928              		.cfi_offset 5, -16
 4929              		.cfi_offset 6, -12
 4930              		.cfi_offset 7, -8
 4931              		.cfi_offset 14, -4
 4932 0002 4F46     		mov	r7, r9
 4933 0004 4646     		mov	r6, r8
 4934 0006 C0B4     		push	{r6, r7}
 4935              		.cfi_def_cfa_offset 32
 4936              		.cfi_offset 8, -32
 4937              		.cfi_offset 9, -28
 4938 0008 0600     		movs	r6, r0
 4939 000a 0D00     		movs	r5, r1
 4940 000c 141E     		subs	r4, r2, #0
 318:Source\mbedtls_open\library/ripemd160.c ****     int ret;
 319:Source\mbedtls_open\library/ripemd160.c ****     size_t fill;
 320:Source\mbedtls_open\library/ripemd160.c ****     uint32_t left;
 321:Source\mbedtls_open\library/ripemd160.c **** 
 322:Source\mbedtls_open\library/ripemd160.c ****     if( ilen == 0 )
 4941              		.loc 1 322 0
 4942 000e 38D0     		beq	.L37
 323:Source\mbedtls_open\library/ripemd160.c ****         return( 0 );
 324:Source\mbedtls_open\library/ripemd160.c **** 
 325:Source\mbedtls_open\library/ripemd160.c ****     left = ctx->total[0] & 0x3F;
 4943              		.loc 1 325 0
 4944 0010 0368     		ldr	r3, [r0]
 4945 0012 3F27     		movs	r7, #63
 4946 0014 1F40     		ands	r7, r3
 4947              	.LVL992:
 326:Source\mbedtls_open\library/ripemd160.c ****     fill = 64 - left;
 4948              		.loc 1 326 0
 4949 0016 4022     		movs	r2, #64
 4950              	.LVL993:
 4951 0018 D21B     		subs	r2, r2, r7
 4952 001a 9046     		mov	r8, r2
 4953              	.LVL994:
 327:Source\mbedtls_open\library/ripemd160.c **** 
 328:Source\mbedtls_open\library/ripemd160.c ****     ctx->total[0] += (uint32_t) ilen;
 4954              		.loc 1 328 0
 4955 001c E318     		adds	r3, r4, r3
 4956 001e 0360     		str	r3, [r0]
 329:Source\mbedtls_open\library/ripemd160.c ****     ctx->total[0] &= 0xFFFFFFFF;
 330:Source\mbedtls_open\library/ripemd160.c **** 
 331:Source\mbedtls_open\library/ripemd160.c ****     if( ctx->total[0] < (uint32_t) ilen )
 4957              		.loc 1 331 0
 4958 0020 9C42     		cmp	r4, r3
 4959 0022 02D9     		bls	.L33
 332:Source\mbedtls_open\library/ripemd160.c ****         ctx->total[1]++;
 4960              		.loc 1 332 0
 4961 0024 4368     		ldr	r3, [r0, #4]
 4962 0026 0133     		adds	r3, r3, #1
 4963 0028 4360     		str	r3, [r0, #4]
 4964              	.L33:
 333:Source\mbedtls_open\library/ripemd160.c **** 
 334:Source\mbedtls_open\library/ripemd160.c ****     if( left && ilen >= fill )
 4965              		.loc 1 334 0
 4966 002a 002F     		cmp	r7, #0
 4967 002c 1DD0     		beq	.L35
ARM GAS  C:\Users\Phuong\AppData\Local\Temp\ccbgGR22.s 			page 94


 4968              		.loc 1 334 0 is_stmt 0 discriminator 1
 4969 002e 4445     		cmp	r4, r8
 4970 0030 1BD3     		bcc	.L35
 335:Source\mbedtls_open\library/ripemd160.c ****     {
 336:Source\mbedtls_open\library/ripemd160.c ****         memcpy( (void *) (ctx->buffer + left), input, fill );
 4971              		.loc 1 336 0 is_stmt 1
 4972 0032 1C23     		movs	r3, #28
 4973 0034 9946     		mov	r9, r3
 4974 0036 B144     		add	r9, r9, r6
 4975 0038 3800     		movs	r0, r7
 4976              	.LVL995:
 4977 003a 4844     		add	r0, r0, r9
 4978 003c 4246     		mov	r2, r8
 4979              	.LVL996:
 4980 003e 2900     		movs	r1, r5
 4981              	.LVL997:
 4982 0040 FFF7FEFF 		bl	memcpy
 4983              	.LVL998:
 337:Source\mbedtls_open\library/ripemd160.c **** 
 338:Source\mbedtls_open\library/ripemd160.c ****         if( ( ret = mbedtls_internal_ripemd160_process( ctx, ctx->buffer ) ) != 0 )
 4984              		.loc 1 338 0
 4985 0044 4946     		mov	r1, r9
 4986 0046 3000     		movs	r0, r6
 4987 0048 FFF7FEFF 		bl	mbedtls_internal_ripemd160_process
 4988              	.LVL999:
 4989 004c 0028     		cmp	r0, #0
 4990 004e 1BD1     		bne	.L32
 339:Source\mbedtls_open\library/ripemd160.c ****             return( ret );
 340:Source\mbedtls_open\library/ripemd160.c **** 
 341:Source\mbedtls_open\library/ripemd160.c ****         input += fill;
 4991              		.loc 1 341 0
 4992 0050 4544     		add	r5, r5, r8
 4993              	.LVL1000:
 342:Source\mbedtls_open\library/ripemd160.c ****         ilen  -= fill;
 4994              		.loc 1 342 0
 4995 0052 4346     		mov	r3, r8
 4996 0054 E41A     		subs	r4, r4, r3
 4997              	.LVL1001:
 343:Source\mbedtls_open\library/ripemd160.c ****         left = 0;
 4998              		.loc 1 343 0
 4999 0056 0027     		movs	r7, #0
 5000 0058 07E0     		b	.L35
 5001              	.LVL1002:
 5002              	.L36:
 344:Source\mbedtls_open\library/ripemd160.c ****     }
 345:Source\mbedtls_open\library/ripemd160.c **** 
 346:Source\mbedtls_open\library/ripemd160.c ****     while( ilen >= 64 )
 347:Source\mbedtls_open\library/ripemd160.c ****     {
 348:Source\mbedtls_open\library/ripemd160.c ****         if( ( ret = mbedtls_internal_ripemd160_process( ctx, input ) ) != 0 )
 5003              		.loc 1 348 0
 5004 005a 2900     		movs	r1, r5
 5005 005c 3000     		movs	r0, r6
 5006 005e FFF7FEFF 		bl	mbedtls_internal_ripemd160_process
 5007              	.LVL1003:
 5008 0062 0028     		cmp	r0, #0
 5009 0064 10D1     		bne	.L32
 349:Source\mbedtls_open\library/ripemd160.c ****             return( ret );
ARM GAS  C:\Users\Phuong\AppData\Local\Temp\ccbgGR22.s 			page 95


 350:Source\mbedtls_open\library/ripemd160.c **** 
 351:Source\mbedtls_open\library/ripemd160.c ****         input += 64;
 5010              		.loc 1 351 0
 5011 0066 4035     		adds	r5, r5, #64
 5012              	.LVL1004:
 352:Source\mbedtls_open\library/ripemd160.c ****         ilen  -= 64;
 5013              		.loc 1 352 0
 5014 0068 403C     		subs	r4, r4, #64
 5015              	.LVL1005:
 5016              	.L35:
 346:Source\mbedtls_open\library/ripemd160.c ****     {
 5017              		.loc 1 346 0
 5018 006a 3F2C     		cmp	r4, #63
 5019 006c F5D8     		bhi	.L36
 353:Source\mbedtls_open\library/ripemd160.c ****     }
 354:Source\mbedtls_open\library/ripemd160.c **** 
 355:Source\mbedtls_open\library/ripemd160.c ****     if( ilen > 0 )
 5020              		.loc 1 355 0
 5021 006e 002C     		cmp	r4, #0
 5022 0070 09D0     		beq	.L40
 356:Source\mbedtls_open\library/ripemd160.c ****     {
 357:Source\mbedtls_open\library/ripemd160.c ****         memcpy( (void *) (ctx->buffer + left), input, ilen );
 5023              		.loc 1 357 0
 5024 0072 1C36     		adds	r6, r6, #28
 5025              	.LVL1006:
 5026 0074 F019     		adds	r0, r6, r7
 5027 0076 2200     		movs	r2, r4
 5028 0078 2900     		movs	r1, r5
 5029 007a FFF7FEFF 		bl	memcpy
 5030              	.LVL1007:
 358:Source\mbedtls_open\library/ripemd160.c ****     }
 359:Source\mbedtls_open\library/ripemd160.c **** 
 360:Source\mbedtls_open\library/ripemd160.c ****     return( 0 );
 5031              		.loc 1 360 0
 5032 007e 0020     		movs	r0, #0
 5033 0080 02E0     		b	.L32
 5034              	.LVL1008:
 5035              	.L37:
 323:Source\mbedtls_open\library/ripemd160.c **** 
 5036              		.loc 1 323 0
 5037 0082 0020     		movs	r0, #0
 5038              	.LVL1009:
 5039 0084 00E0     		b	.L32
 5040              	.LVL1010:
 5041              	.L40:
 5042              		.loc 1 360 0
 5043 0086 0020     		movs	r0, #0
 5044              	.LVL1011:
 5045              	.L32:
 361:Source\mbedtls_open\library/ripemd160.c **** }
 5046              		.loc 1 361 0
 5047              		@ sp needed
 5048              	.LVL1012:
 5049              	.LVL1013:
 5050 0088 0CBC     		pop	{r2, r3}
 5051 008a 9046     		mov	r8, r2
 5052 008c 9946     		mov	r9, r3
ARM GAS  C:\Users\Phuong\AppData\Local\Temp\ccbgGR22.s 			page 96


 5053 008e F8BD     		pop	{r3, r4, r5, r6, r7, pc}
 5054              		.cfi_endproc
 5055              	.LFE8:
 5056              		.size	mbedtls_ripemd160_update_ret, .-mbedtls_ripemd160_update_ret
 5057              		.section	.text.mbedtls_ripemd160_update,"ax",%progbits
 5058              		.align	2
 5059              		.global	mbedtls_ripemd160_update
 5060              		.code	16
 5061              		.thumb_func
 5062              		.type	mbedtls_ripemd160_update, %function
 5063              	mbedtls_ripemd160_update:
 5064              	.LFB9:
 362:Source\mbedtls_open\library/ripemd160.c **** 
 363:Source\mbedtls_open\library/ripemd160.c **** #if !defined(MBEDTLS_DEPRECATED_REMOVED)
 364:Source\mbedtls_open\library/ripemd160.c **** void mbedtls_ripemd160_update( mbedtls_ripemd160_context *ctx,
 365:Source\mbedtls_open\library/ripemd160.c ****                                const unsigned char *input,
 366:Source\mbedtls_open\library/ripemd160.c ****                                size_t ilen )
 367:Source\mbedtls_open\library/ripemd160.c **** {
 5065              		.loc 1 367 0
 5066              		.cfi_startproc
 5067              		@ args = 0, pretend = 0, frame = 0
 5068              		@ frame_needed = 0, uses_anonymous_args = 0
 5069              	.LVL1014:
 5070 0000 10B5     		push	{r4, lr}
 5071              		.cfi_def_cfa_offset 8
 5072              		.cfi_offset 4, -8
 5073              		.cfi_offset 14, -4
 368:Source\mbedtls_open\library/ripemd160.c ****     mbedtls_ripemd160_update_ret( ctx, input, ilen );
 5074              		.loc 1 368 0
 5075 0002 FFF7FEFF 		bl	mbedtls_ripemd160_update_ret
 5076              	.LVL1015:
 369:Source\mbedtls_open\library/ripemd160.c **** }
 5077              		.loc 1 369 0
 5078              		@ sp needed
 5079 0006 10BD     		pop	{r4, pc}
 5080              		.cfi_endproc
 5081              	.LFE9:
 5082              		.size	mbedtls_ripemd160_update, .-mbedtls_ripemd160_update
 5083              		.section	.text.mbedtls_ripemd160_finish_ret,"ax",%progbits
 5084              		.align	2
 5085              		.global	mbedtls_ripemd160_finish_ret
 5086              		.code	16
 5087              		.thumb_func
 5088              		.type	mbedtls_ripemd160_finish_ret, %function
 5089              	mbedtls_ripemd160_finish_ret:
 5090              	.LFB10:
 370:Source\mbedtls_open\library/ripemd160.c **** #endif
 371:Source\mbedtls_open\library/ripemd160.c **** 
 372:Source\mbedtls_open\library/ripemd160.c **** static const unsigned char ripemd160_padding[64] =
 373:Source\mbedtls_open\library/ripemd160.c **** {
 374:Source\mbedtls_open\library/ripemd160.c ****  0x80, 0, 0, 0, 0, 0, 0, 0, 0, 0, 0, 0, 0, 0, 0, 0,
 375:Source\mbedtls_open\library/ripemd160.c ****     0, 0, 0, 0, 0, 0, 0, 0, 0, 0, 0, 0, 0, 0, 0, 0,
 376:Source\mbedtls_open\library/ripemd160.c ****     0, 0, 0, 0, 0, 0, 0, 0, 0, 0, 0, 0, 0, 0, 0, 0,
 377:Source\mbedtls_open\library/ripemd160.c ****     0, 0, 0, 0, 0, 0, 0, 0, 0, 0, 0, 0, 0, 0, 0, 0
 378:Source\mbedtls_open\library/ripemd160.c **** };
 379:Source\mbedtls_open\library/ripemd160.c **** 
 380:Source\mbedtls_open\library/ripemd160.c **** /*
ARM GAS  C:\Users\Phuong\AppData\Local\Temp\ccbgGR22.s 			page 97


 381:Source\mbedtls_open\library/ripemd160.c ****  * RIPEMD-160 final digest
 382:Source\mbedtls_open\library/ripemd160.c ****  */
 383:Source\mbedtls_open\library/ripemd160.c **** int mbedtls_ripemd160_finish_ret( mbedtls_ripemd160_context *ctx,
 384:Source\mbedtls_open\library/ripemd160.c ****                                   unsigned char output[20] )
 385:Source\mbedtls_open\library/ripemd160.c **** {
 5091              		.loc 1 385 0
 5092              		.cfi_startproc
 5093              		@ args = 0, pretend = 0, frame = 8
 5094              		@ frame_needed = 0, uses_anonymous_args = 0
 5095              	.LVL1016:
 5096 0000 70B5     		push	{r4, r5, r6, lr}
 5097              		.cfi_def_cfa_offset 16
 5098              		.cfi_offset 4, -16
 5099              		.cfi_offset 5, -12
 5100              		.cfi_offset 6, -8
 5101              		.cfi_offset 14, -4
 5102 0002 82B0     		sub	sp, sp, #8
 5103              		.cfi_def_cfa_offset 24
 5104 0004 0400     		movs	r4, r0
 5105 0006 0D00     		movs	r5, r1
 386:Source\mbedtls_open\library/ripemd160.c ****     int ret;
 387:Source\mbedtls_open\library/ripemd160.c ****     uint32_t last, padn;
 388:Source\mbedtls_open\library/ripemd160.c ****     uint32_t high, low;
 389:Source\mbedtls_open\library/ripemd160.c ****     unsigned char msglen[8];
 390:Source\mbedtls_open\library/ripemd160.c **** 
 391:Source\mbedtls_open\library/ripemd160.c ****     high = ( ctx->total[0] >> 29 )
 5106              		.loc 1 391 0
 5107 0008 0168     		ldr	r1, [r0]
 5108              	.LVL1017:
 5109 000a 4A0F     		lsrs	r2, r1, #29
 392:Source\mbedtls_open\library/ripemd160.c ****          | ( ctx->total[1] <<  3 );
 5110              		.loc 1 392 0
 5111 000c 4368     		ldr	r3, [r0, #4]
 5112 000e DB00     		lsls	r3, r3, #3
 391:Source\mbedtls_open\library/ripemd160.c ****          | ( ctx->total[1] <<  3 );
 5113              		.loc 1 391 0
 5114 0010 1343     		orrs	r3, r2
 5115              	.LVL1018:
 393:Source\mbedtls_open\library/ripemd160.c ****     low  = ( ctx->total[0] <<  3 );
 5116              		.loc 1 393 0
 5117 0012 CA00     		lsls	r2, r1, #3
 5118              	.LVL1019:
 394:Source\mbedtls_open\library/ripemd160.c **** 
 395:Source\mbedtls_open\library/ripemd160.c ****     PUT_UINT32_LE( low,  msglen, 0 );
 5119              		.loc 1 395 0
 5120 0014 6846     		mov	r0, sp
 5121              	.LVL1020:
 5122 0016 0270     		strb	r2, [r0]
 5123 0018 100A     		lsrs	r0, r2, #8
 5124 001a 6E46     		mov	r6, sp
 5125 001c 7070     		strb	r0, [r6, #1]
 5126 001e 100C     		lsrs	r0, r2, #16
 5127 0020 B070     		strb	r0, [r6, #2]
 5128 0022 120E     		lsrs	r2, r2, #24
 5129              	.LVL1021:
 5130 0024 F270     		strb	r2, [r6, #3]
 396:Source\mbedtls_open\library/ripemd160.c ****     PUT_UINT32_LE( high, msglen, 4 );
ARM GAS  C:\Users\Phuong\AppData\Local\Temp\ccbgGR22.s 			page 98


 5131              		.loc 1 396 0
 5132 0026 3371     		strb	r3, [r6, #4]
 5133 0028 1A0A     		lsrs	r2, r3, #8
 5134 002a 7271     		strb	r2, [r6, #5]
 5135 002c 1A0C     		lsrs	r2, r3, #16
 5136 002e B271     		strb	r2, [r6, #6]
 5137 0030 1B0E     		lsrs	r3, r3, #24
 5138              	.LVL1022:
 5139 0032 F371     		strb	r3, [r6, #7]
 397:Source\mbedtls_open\library/ripemd160.c **** 
 398:Source\mbedtls_open\library/ripemd160.c ****     last = ctx->total[0] & 0x3F;
 5140              		.loc 1 398 0
 5141 0034 3F22     		movs	r2, #63
 5142 0036 1140     		ands	r1, r2
 5143              	.LVL1023:
 399:Source\mbedtls_open\library/ripemd160.c ****     padn = ( last < 56 ) ? ( 56 - last ) : ( 120 - last );
 5144              		.loc 1 399 0
 5145 0038 3729     		cmp	r1, #55
 5146 003a 02D8     		bhi	.L43
 5147              		.loc 1 399 0 is_stmt 0 discriminator 1
 5148 003c 073A     		subs	r2, r2, #7
 5149 003e 521A     		subs	r2, r2, r1
 5150 0040 01E0     		b	.L44
 5151              	.L43:
 5152              		.loc 1 399 0 discriminator 2
 5153 0042 7822     		movs	r2, #120
 5154 0044 521A     		subs	r2, r2, r1
 5155              	.L44:
 5156              	.LVL1024:
 400:Source\mbedtls_open\library/ripemd160.c **** 
 401:Source\mbedtls_open\library/ripemd160.c ****     ret = mbedtls_ripemd160_update_ret( ctx, ripemd160_padding, padn );
 5157              		.loc 1 401 0 is_stmt 1 discriminator 4
 5158 0046 1E49     		ldr	r1, .L48
 5159              	.LVL1025:
 5160 0048 2000     		movs	r0, r4
 5161 004a FFF7FEFF 		bl	mbedtls_ripemd160_update_ret
 5162              	.LVL1026:
 402:Source\mbedtls_open\library/ripemd160.c ****     if( ret != 0 )
 5163              		.loc 1 402 0 discriminator 4
 5164 004e 0028     		cmp	r0, #0
 5165 0050 33D1     		bne	.L45
 403:Source\mbedtls_open\library/ripemd160.c ****         return( ret );
 404:Source\mbedtls_open\library/ripemd160.c **** 
 405:Source\mbedtls_open\library/ripemd160.c ****     ret = mbedtls_ripemd160_update_ret( ctx, msglen, 8 );
 5166              		.loc 1 405 0
 5167 0052 0822     		movs	r2, #8
 5168 0054 6946     		mov	r1, sp
 5169 0056 2000     		movs	r0, r4
 5170              	.LVL1027:
 5171 0058 FFF7FEFF 		bl	mbedtls_ripemd160_update_ret
 5172              	.LVL1028:
 406:Source\mbedtls_open\library/ripemd160.c ****     if( ret != 0 )
 5173              		.loc 1 406 0
 5174 005c 0028     		cmp	r0, #0
 5175 005e 2CD1     		bne	.L45
 407:Source\mbedtls_open\library/ripemd160.c ****         return( ret );
 408:Source\mbedtls_open\library/ripemd160.c **** 
ARM GAS  C:\Users\Phuong\AppData\Local\Temp\ccbgGR22.s 			page 99


 409:Source\mbedtls_open\library/ripemd160.c ****     PUT_UINT32_LE( ctx->state[0], output,  0 );
 5176              		.loc 1 409 0
 5177 0060 237A     		ldrb	r3, [r4, #8]
 5178 0062 2B70     		strb	r3, [r5]
 5179 0064 A368     		ldr	r3, [r4, #8]
 5180 0066 1B0A     		lsrs	r3, r3, #8
 5181 0068 6B70     		strb	r3, [r5, #1]
 5182 006a A37A     		ldrb	r3, [r4, #10]
 5183 006c AB70     		strb	r3, [r5, #2]
 5184 006e E37A     		ldrb	r3, [r4, #11]
 5185 0070 EB70     		strb	r3, [r5, #3]
 410:Source\mbedtls_open\library/ripemd160.c ****     PUT_UINT32_LE( ctx->state[1], output,  4 );
 5186              		.loc 1 410 0
 5187 0072 237B     		ldrb	r3, [r4, #12]
 5188 0074 2B71     		strb	r3, [r5, #4]
 5189 0076 E368     		ldr	r3, [r4, #12]
 5190 0078 1B0A     		lsrs	r3, r3, #8
 5191 007a 6B71     		strb	r3, [r5, #5]
 5192 007c A37B     		ldrb	r3, [r4, #14]
 5193 007e AB71     		strb	r3, [r5, #6]
 5194 0080 E37B     		ldrb	r3, [r4, #15]
 5195 0082 EB71     		strb	r3, [r5, #7]
 411:Source\mbedtls_open\library/ripemd160.c ****     PUT_UINT32_LE( ctx->state[2], output,  8 );
 5196              		.loc 1 411 0
 5197 0084 237C     		ldrb	r3, [r4, #16]
 5198 0086 2B72     		strb	r3, [r5, #8]
 5199 0088 2369     		ldr	r3, [r4, #16]
 5200 008a 1B0A     		lsrs	r3, r3, #8
 5201 008c 6B72     		strb	r3, [r5, #9]
 5202 008e A37C     		ldrb	r3, [r4, #18]
 5203 0090 AB72     		strb	r3, [r5, #10]
 5204 0092 E37C     		ldrb	r3, [r4, #19]
 5205 0094 EB72     		strb	r3, [r5, #11]
 412:Source\mbedtls_open\library/ripemd160.c ****     PUT_UINT32_LE( ctx->state[3], output, 12 );
 5206              		.loc 1 412 0
 5207 0096 237D     		ldrb	r3, [r4, #20]
 5208 0098 2B73     		strb	r3, [r5, #12]
 5209 009a 6369     		ldr	r3, [r4, #20]
 5210 009c 1B0A     		lsrs	r3, r3, #8
 5211 009e 6B73     		strb	r3, [r5, #13]
 5212 00a0 A37D     		ldrb	r3, [r4, #22]
 5213 00a2 AB73     		strb	r3, [r5, #14]
 5214 00a4 E37D     		ldrb	r3, [r4, #23]
 5215 00a6 EB73     		strb	r3, [r5, #15]
 413:Source\mbedtls_open\library/ripemd160.c ****     PUT_UINT32_LE( ctx->state[4], output, 16 );
 5216              		.loc 1 413 0
 5217 00a8 237E     		ldrb	r3, [r4, #24]
 5218 00aa 2B74     		strb	r3, [r5, #16]
 5219 00ac A369     		ldr	r3, [r4, #24]
 5220 00ae 1B0A     		lsrs	r3, r3, #8
 5221 00b0 6B74     		strb	r3, [r5, #17]
 5222 00b2 A37E     		ldrb	r3, [r4, #26]
 5223 00b4 AB74     		strb	r3, [r5, #18]
 5224 00b6 E37E     		ldrb	r3, [r4, #27]
 5225 00b8 EB74     		strb	r3, [r5, #19]
 5226              	.L45:
 414:Source\mbedtls_open\library/ripemd160.c **** 
ARM GAS  C:\Users\Phuong\AppData\Local\Temp\ccbgGR22.s 			page 100


 415:Source\mbedtls_open\library/ripemd160.c ****     return( 0 );
 416:Source\mbedtls_open\library/ripemd160.c **** }
 5227              		.loc 1 416 0
 5228 00ba 02B0     		add	sp, sp, #8
 5229              		@ sp needed
 5230              	.LVL1029:
 5231              	.LVL1030:
 5232 00bc 70BD     		pop	{r4, r5, r6, pc}
 5233              	.L49:
 5234 00be C046     		.align	2
 5235              	.L48:
 5236 00c0 00000000 		.word	.LANCHOR0
 5237              		.cfi_endproc
 5238              	.LFE10:
 5239              		.size	mbedtls_ripemd160_finish_ret, .-mbedtls_ripemd160_finish_ret
 5240              		.section	.text.mbedtls_ripemd160_finish,"ax",%progbits
 5241              		.align	2
 5242              		.global	mbedtls_ripemd160_finish
 5243              		.code	16
 5244              		.thumb_func
 5245              		.type	mbedtls_ripemd160_finish, %function
 5246              	mbedtls_ripemd160_finish:
 5247              	.LFB11:
 417:Source\mbedtls_open\library/ripemd160.c **** 
 418:Source\mbedtls_open\library/ripemd160.c **** #if !defined(MBEDTLS_DEPRECATED_REMOVED)
 419:Source\mbedtls_open\library/ripemd160.c **** void mbedtls_ripemd160_finish( mbedtls_ripemd160_context *ctx,
 420:Source\mbedtls_open\library/ripemd160.c ****                                unsigned char output[20] )
 421:Source\mbedtls_open\library/ripemd160.c **** {
 5248              		.loc 1 421 0
 5249              		.cfi_startproc
 5250              		@ args = 0, pretend = 0, frame = 0
 5251              		@ frame_needed = 0, uses_anonymous_args = 0
 5252              	.LVL1031:
 5253 0000 10B5     		push	{r4, lr}
 5254              		.cfi_def_cfa_offset 8
 5255              		.cfi_offset 4, -8
 5256              		.cfi_offset 14, -4
 422:Source\mbedtls_open\library/ripemd160.c ****     mbedtls_ripemd160_finish_ret( ctx, output );
 5257              		.loc 1 422 0
 5258 0002 FFF7FEFF 		bl	mbedtls_ripemd160_finish_ret
 5259              	.LVL1032:
 423:Source\mbedtls_open\library/ripemd160.c **** }
 5260              		.loc 1 423 0
 5261              		@ sp needed
 5262 0006 10BD     		pop	{r4, pc}
 5263              		.cfi_endproc
 5264              	.LFE11:
 5265              		.size	mbedtls_ripemd160_finish, .-mbedtls_ripemd160_finish
 5266              		.section	.text.mbedtls_ripemd160_ret,"ax",%progbits
 5267              		.align	2
 5268              		.global	mbedtls_ripemd160_ret
 5269              		.code	16
 5270              		.thumb_func
 5271              		.type	mbedtls_ripemd160_ret, %function
 5272              	mbedtls_ripemd160_ret:
 5273              	.LFB12:
 424:Source\mbedtls_open\library/ripemd160.c **** #endif
ARM GAS  C:\Users\Phuong\AppData\Local\Temp\ccbgGR22.s 			page 101


 425:Source\mbedtls_open\library/ripemd160.c **** 
 426:Source\mbedtls_open\library/ripemd160.c **** #endif /* ! MBEDTLS_RIPEMD160_ALT */
 427:Source\mbedtls_open\library/ripemd160.c **** 
 428:Source\mbedtls_open\library/ripemd160.c **** /*
 429:Source\mbedtls_open\library/ripemd160.c ****  * output = RIPEMD-160( input buffer )
 430:Source\mbedtls_open\library/ripemd160.c ****  */
 431:Source\mbedtls_open\library/ripemd160.c **** int mbedtls_ripemd160_ret( const unsigned char *input,
 432:Source\mbedtls_open\library/ripemd160.c ****                            size_t ilen,
 433:Source\mbedtls_open\library/ripemd160.c ****                            unsigned char output[20] )
 434:Source\mbedtls_open\library/ripemd160.c **** {
 5274              		.loc 1 434 0
 5275              		.cfi_startproc
 5276              		@ args = 0, pretend = 0, frame = 96
 5277              		@ frame_needed = 0, uses_anonymous_args = 0
 5278              	.LVL1033:
 5279 0000 F0B5     		push	{r4, r5, r6, r7, lr}
 5280              		.cfi_def_cfa_offset 20
 5281              		.cfi_offset 4, -20
 5282              		.cfi_offset 5, -16
 5283              		.cfi_offset 6, -12
 5284              		.cfi_offset 7, -8
 5285              		.cfi_offset 14, -4
 5286 0002 99B0     		sub	sp, sp, #100
 5287              		.cfi_def_cfa_offset 120
 5288 0004 0500     		movs	r5, r0
 5289 0006 0E00     		movs	r6, r1
 5290 0008 1700     		movs	r7, r2
 435:Source\mbedtls_open\library/ripemd160.c ****     int ret;
 436:Source\mbedtls_open\library/ripemd160.c ****     mbedtls_ripemd160_context ctx;
 437:Source\mbedtls_open\library/ripemd160.c **** 
 438:Source\mbedtls_open\library/ripemd160.c ****     mbedtls_ripemd160_init( &ctx );
 5291              		.loc 1 438 0
 5292 000a 01A8     		add	r0, sp, #4
 5293              	.LVL1034:
 5294 000c FFF7FEFF 		bl	mbedtls_ripemd160_init
 5295              	.LVL1035:
 439:Source\mbedtls_open\library/ripemd160.c **** 
 440:Source\mbedtls_open\library/ripemd160.c ****     if( ( ret = mbedtls_ripemd160_starts_ret( &ctx ) ) != 0 )
 5296              		.loc 1 440 0
 5297 0010 01A8     		add	r0, sp, #4
 5298 0012 FFF7FEFF 		bl	mbedtls_ripemd160_starts_ret
 5299              	.LVL1036:
 5300 0016 041E     		subs	r4, r0, #0
 5301              	.LVL1037:
 5302 0018 0BD1     		bne	.L52
 441:Source\mbedtls_open\library/ripemd160.c ****         goto exit;
 442:Source\mbedtls_open\library/ripemd160.c **** 
 443:Source\mbedtls_open\library/ripemd160.c ****     if( ( ret = mbedtls_ripemd160_update_ret( &ctx, input, ilen ) ) != 0 )
 5303              		.loc 1 443 0
 5304 001a 3200     		movs	r2, r6
 5305 001c 2900     		movs	r1, r5
 5306 001e 01A8     		add	r0, sp, #4
 5307              	.LVL1038:
 5308 0020 FFF7FEFF 		bl	mbedtls_ripemd160_update_ret
 5309              	.LVL1039:
 5310 0024 041E     		subs	r4, r0, #0
 5311              	.LVL1040:
ARM GAS  C:\Users\Phuong\AppData\Local\Temp\ccbgGR22.s 			page 102


 5312 0026 04D1     		bne	.L52
 444:Source\mbedtls_open\library/ripemd160.c ****         goto exit;
 445:Source\mbedtls_open\library/ripemd160.c **** 
 446:Source\mbedtls_open\library/ripemd160.c ****     if( ( ret = mbedtls_ripemd160_finish_ret( &ctx, output ) ) != 0 )
 5313              		.loc 1 446 0
 5314 0028 3900     		movs	r1, r7
 5315 002a 01A8     		add	r0, sp, #4
 5316              	.LVL1041:
 5317 002c FFF7FEFF 		bl	mbedtls_ripemd160_finish_ret
 5318              	.LVL1042:
 5319 0030 0400     		movs	r4, r0
 5320              	.LVL1043:
 5321              	.L52:
 447:Source\mbedtls_open\library/ripemd160.c ****         goto exit;
 448:Source\mbedtls_open\library/ripemd160.c **** 
 449:Source\mbedtls_open\library/ripemd160.c **** exit:
 450:Source\mbedtls_open\library/ripemd160.c ****     mbedtls_ripemd160_free( &ctx );
 5322              		.loc 1 450 0
 5323 0032 01A8     		add	r0, sp, #4
 5324              	.LVL1044:
 5325 0034 FFF7FEFF 		bl	mbedtls_ripemd160_free
 5326              	.LVL1045:
 451:Source\mbedtls_open\library/ripemd160.c **** 
 452:Source\mbedtls_open\library/ripemd160.c ****     return( ret );
 453:Source\mbedtls_open\library/ripemd160.c **** }
 5327              		.loc 1 453 0
 5328 0038 2000     		movs	r0, r4
 5329 003a 19B0     		add	sp, sp, #100
 5330              		@ sp needed
 5331              	.LVL1046:
 5332              	.LVL1047:
 5333              	.LVL1048:
 5334              	.LVL1049:
 5335 003c F0BD     		pop	{r4, r5, r6, r7, pc}
 5336              		.cfi_endproc
 5337              	.LFE12:
 5338              		.size	mbedtls_ripemd160_ret, .-mbedtls_ripemd160_ret
 5339 003e C046     		.section	.text.mbedtls_ripemd160,"ax",%progbits
 5340              		.align	2
 5341              		.global	mbedtls_ripemd160
 5342              		.code	16
 5343              		.thumb_func
 5344              		.type	mbedtls_ripemd160, %function
 5345              	mbedtls_ripemd160:
 5346              	.LFB13:
 454:Source\mbedtls_open\library/ripemd160.c **** 
 455:Source\mbedtls_open\library/ripemd160.c **** #if !defined(MBEDTLS_DEPRECATED_REMOVED)
 456:Source\mbedtls_open\library/ripemd160.c **** void mbedtls_ripemd160( const unsigned char *input,
 457:Source\mbedtls_open\library/ripemd160.c ****                         size_t ilen,
 458:Source\mbedtls_open\library/ripemd160.c ****                         unsigned char output[20] )
 459:Source\mbedtls_open\library/ripemd160.c **** {
 5347              		.loc 1 459 0
 5348              		.cfi_startproc
 5349              		@ args = 0, pretend = 0, frame = 0
 5350              		@ frame_needed = 0, uses_anonymous_args = 0
 5351              	.LVL1050:
 5352 0000 10B5     		push	{r4, lr}
ARM GAS  C:\Users\Phuong\AppData\Local\Temp\ccbgGR22.s 			page 103


 5353              		.cfi_def_cfa_offset 8
 5354              		.cfi_offset 4, -8
 5355              		.cfi_offset 14, -4
 460:Source\mbedtls_open\library/ripemd160.c ****     mbedtls_ripemd160_ret( input, ilen, output );
 5356              		.loc 1 460 0
 5357 0002 FFF7FEFF 		bl	mbedtls_ripemd160_ret
 5358              	.LVL1051:
 461:Source\mbedtls_open\library/ripemd160.c **** }
 5359              		.loc 1 461 0
 5360              		@ sp needed
 5361 0006 10BD     		pop	{r4, pc}
 5362              		.cfi_endproc
 5363              	.LFE13:
 5364              		.size	mbedtls_ripemd160, .-mbedtls_ripemd160
 5365              		.section	.text.mbedtls_ripemd160_self_test,"ax",%progbits
 5366              		.align	2
 5367              		.global	mbedtls_ripemd160_self_test
 5368              		.code	16
 5369              		.thumb_func
 5370              		.type	mbedtls_ripemd160_self_test, %function
 5371              	mbedtls_ripemd160_self_test:
 5372              	.LFB14:
 462:Source\mbedtls_open\library/ripemd160.c **** #endif
 463:Source\mbedtls_open\library/ripemd160.c **** 
 464:Source\mbedtls_open\library/ripemd160.c **** #if defined(MBEDTLS_SELF_TEST)
 465:Source\mbedtls_open\library/ripemd160.c **** /*
 466:Source\mbedtls_open\library/ripemd160.c ****  * Test vectors from the RIPEMD-160 paper and
 467:Source\mbedtls_open\library/ripemd160.c ****  * http://homes.esat.kuleuven.be/~bosselae/mbedtls_ripemd160.html#HMAC
 468:Source\mbedtls_open\library/ripemd160.c ****  */
 469:Source\mbedtls_open\library/ripemd160.c **** #define TESTS   8
 470:Source\mbedtls_open\library/ripemd160.c **** static const unsigned char ripemd160_test_str[TESTS][81] =
 471:Source\mbedtls_open\library/ripemd160.c **** {
 472:Source\mbedtls_open\library/ripemd160.c ****     { "" },
 473:Source\mbedtls_open\library/ripemd160.c ****     { "a" },
 474:Source\mbedtls_open\library/ripemd160.c ****     { "abc" },
 475:Source\mbedtls_open\library/ripemd160.c ****     { "message digest" },
 476:Source\mbedtls_open\library/ripemd160.c ****     { "abcdefghijklmnopqrstuvwxyz" },
 477:Source\mbedtls_open\library/ripemd160.c ****     { "abcdbcdecdefdefgefghfghighijhijkijkljklmklmnlmnomnopnopq" },
 478:Source\mbedtls_open\library/ripemd160.c ****     { "ABCDEFGHIJKLMNOPQRSTUVWXYZabcdefghijklmnopqrstuvwxyz0123456789" },
 479:Source\mbedtls_open\library/ripemd160.c ****     { "12345678901234567890123456789012345678901234567890123456789012"
 480:Source\mbedtls_open\library/ripemd160.c ****       "345678901234567890" },
 481:Source\mbedtls_open\library/ripemd160.c **** };
 482:Source\mbedtls_open\library/ripemd160.c **** 
 483:Source\mbedtls_open\library/ripemd160.c **** static const size_t ripemd160_test_strlen[TESTS] =
 484:Source\mbedtls_open\library/ripemd160.c **** {
 485:Source\mbedtls_open\library/ripemd160.c ****     0, 1, 3, 14, 26, 56, 62, 80
 486:Source\mbedtls_open\library/ripemd160.c **** };
 487:Source\mbedtls_open\library/ripemd160.c **** 
 488:Source\mbedtls_open\library/ripemd160.c **** static const unsigned char ripemd160_test_md[TESTS][20] =
 489:Source\mbedtls_open\library/ripemd160.c **** {
 490:Source\mbedtls_open\library/ripemd160.c ****     { 0x9c, 0x11, 0x85, 0xa5, 0xc5, 0xe9, 0xfc, 0x54, 0x61, 0x28,
 491:Source\mbedtls_open\library/ripemd160.c ****       0x08, 0x97, 0x7e, 0xe8, 0xf5, 0x48, 0xb2, 0x25, 0x8d, 0x31 },
 492:Source\mbedtls_open\library/ripemd160.c ****     { 0x0b, 0xdc, 0x9d, 0x2d, 0x25, 0x6b, 0x3e, 0xe9, 0xda, 0xae,
 493:Source\mbedtls_open\library/ripemd160.c ****       0x34, 0x7b, 0xe6, 0xf4, 0xdc, 0x83, 0x5a, 0x46, 0x7f, 0xfe },
 494:Source\mbedtls_open\library/ripemd160.c ****     { 0x8e, 0xb2, 0x08, 0xf7, 0xe0, 0x5d, 0x98, 0x7a, 0x9b, 0x04,
 495:Source\mbedtls_open\library/ripemd160.c ****       0x4a, 0x8e, 0x98, 0xc6, 0xb0, 0x87, 0xf1, 0x5a, 0x0b, 0xfc },
 496:Source\mbedtls_open\library/ripemd160.c ****     { 0x5d, 0x06, 0x89, 0xef, 0x49, 0xd2, 0xfa, 0xe5, 0x72, 0xb8,
ARM GAS  C:\Users\Phuong\AppData\Local\Temp\ccbgGR22.s 			page 104


 497:Source\mbedtls_open\library/ripemd160.c ****       0x81, 0xb1, 0x23, 0xa8, 0x5f, 0xfa, 0x21, 0x59, 0x5f, 0x36 },
 498:Source\mbedtls_open\library/ripemd160.c ****     { 0xf7, 0x1c, 0x27, 0x10, 0x9c, 0x69, 0x2c, 0x1b, 0x56, 0xbb,
 499:Source\mbedtls_open\library/ripemd160.c ****       0xdc, 0xeb, 0x5b, 0x9d, 0x28, 0x65, 0xb3, 0x70, 0x8d, 0xbc },
 500:Source\mbedtls_open\library/ripemd160.c ****     { 0x12, 0xa0, 0x53, 0x38, 0x4a, 0x9c, 0x0c, 0x88, 0xe4, 0x05,
 501:Source\mbedtls_open\library/ripemd160.c ****       0xa0, 0x6c, 0x27, 0xdc, 0xf4, 0x9a, 0xda, 0x62, 0xeb, 0x2b },
 502:Source\mbedtls_open\library/ripemd160.c ****     { 0xb0, 0xe2, 0x0b, 0x6e, 0x31, 0x16, 0x64, 0x02, 0x86, 0xed,
 503:Source\mbedtls_open\library/ripemd160.c ****       0x3a, 0x87, 0xa5, 0x71, 0x30, 0x79, 0xb2, 0x1f, 0x51, 0x89 },
 504:Source\mbedtls_open\library/ripemd160.c ****     { 0x9b, 0x75, 0x2e, 0x45, 0x57, 0x3d, 0x4b, 0x39, 0xf4, 0xdb,
 505:Source\mbedtls_open\library/ripemd160.c ****       0xd3, 0x32, 0x3c, 0xab, 0x82, 0xbf, 0x63, 0x32, 0x6b, 0xfb },
 506:Source\mbedtls_open\library/ripemd160.c **** };
 507:Source\mbedtls_open\library/ripemd160.c **** 
 508:Source\mbedtls_open\library/ripemd160.c **** /*
 509:Source\mbedtls_open\library/ripemd160.c ****  * Checkup routine
 510:Source\mbedtls_open\library/ripemd160.c ****  */
 511:Source\mbedtls_open\library/ripemd160.c **** int mbedtls_ripemd160_self_test( int verbose )
 512:Source\mbedtls_open\library/ripemd160.c **** {
 5373              		.loc 1 512 0
 5374              		.cfi_startproc
 5375              		@ args = 0, pretend = 0, frame = 24
 5376              		@ frame_needed = 0, uses_anonymous_args = 0
 5377              	.LVL1052:
 5378 0000 70B5     		push	{r4, r5, r6, lr}
 5379              		.cfi_def_cfa_offset 16
 5380              		.cfi_offset 4, -16
 5381              		.cfi_offset 5, -12
 5382              		.cfi_offset 6, -8
 5383              		.cfi_offset 14, -4
 5384 0002 86B0     		sub	sp, sp, #24
 5385              		.cfi_def_cfa_offset 40
 5386 0004 0500     		movs	r5, r0
 5387              	.LVL1053:
 513:Source\mbedtls_open\library/ripemd160.c ****     int i, ret = 0;
 514:Source\mbedtls_open\library/ripemd160.c ****     unsigned char output[20];
 515:Source\mbedtls_open\library/ripemd160.c **** 
 516:Source\mbedtls_open\library/ripemd160.c ****     memset( output, 0, sizeof output );
 5388              		.loc 1 516 0
 5389 0006 1422     		movs	r2, #20
 5390 0008 0021     		movs	r1, #0
 5391 000a 01A8     		add	r0, sp, #4
 5392              	.LVL1054:
 5393 000c FFF7FEFF 		bl	memset
 5394              	.LVL1055:
 517:Source\mbedtls_open\library/ripemd160.c **** 
 518:Source\mbedtls_open\library/ripemd160.c ****     for( i = 0; i < TESTS; i++ )
 5395              		.loc 1 518 0
 5396 0010 0024     		movs	r4, #0
 5397 0012 27E0     		b	.L55
 5398              	.LVL1056:
 5399              	.L59:
 519:Source\mbedtls_open\library/ripemd160.c ****     {
 520:Source\mbedtls_open\library/ripemd160.c ****         if( verbose != 0 )
 5400              		.loc 1 520 0
 5401 0014 002D     		cmp	r5, #0
 5402 0016 03D0     		beq	.L56
 521:Source\mbedtls_open\library/ripemd160.c ****             mbedtls_printf( "  RIPEMD-160 test #%d: ", i + 1 );
 5403              		.loc 1 521 0
 5404 0018 611C     		adds	r1, r4, #1
ARM GAS  C:\Users\Phuong\AppData\Local\Temp\ccbgGR22.s 			page 105


 5405 001a 1D48     		ldr	r0, .L64
 5406 001c FFF7FEFF 		bl	printf
 5407              	.LVL1057:
 5408              	.L56:
 522:Source\mbedtls_open\library/ripemd160.c **** 
 523:Source\mbedtls_open\library/ripemd160.c ****         ret = mbedtls_ripemd160_ret( ripemd160_test_str[i],
 5409              		.loc 1 523 0
 5410 0020 E000     		lsls	r0, r4, #3
 5411 0022 0019     		adds	r0, r0, r4
 5412 0024 C300     		lsls	r3, r0, #3
 5413 0026 C018     		adds	r0, r0, r3
 5414 0028 1A4B     		ldr	r3, .L64+4
 5415 002a 4033     		adds	r3, r3, #64
 5416 002c 1818     		adds	r0, r3, r0
 5417 002e A300     		lsls	r3, r4, #2
 5418 0030 194A     		ldr	r2, .L64+8
 5419 0032 D318     		adds	r3, r2, r3
 5420 0034 996C     		ldr	r1, [r3, #72]
 5421 0036 01AA     		add	r2, sp, #4
 5422 0038 FFF7FEFF 		bl	mbedtls_ripemd160_ret
 5423              	.LVL1058:
 5424 003c 061E     		subs	r6, r0, #0
 5425              	.LVL1059:
 524:Source\mbedtls_open\library/ripemd160.c ****                                      ripemd160_test_strlen[i], output );
 525:Source\mbedtls_open\library/ripemd160.c ****         if( ret != 0 )
 5426              		.loc 1 525 0
 5427 003e 1BD1     		bne	.L57
 526:Source\mbedtls_open\library/ripemd160.c ****             goto fail;
 527:Source\mbedtls_open\library/ripemd160.c **** 
 528:Source\mbedtls_open\library/ripemd160.c ****         if( memcmp( output, ripemd160_test_md[i], 20 ) != 0 )
 5428              		.loc 1 528 0
 5429 0040 A200     		lsls	r2, r4, #2
 5430 0042 1219     		adds	r2, r2, r4
 5431 0044 9300     		lsls	r3, r2, #2
 5432 0046 1449     		ldr	r1, .L64+8
 5433 0048 6831     		adds	r1, r1, #104
 5434 004a C918     		adds	r1, r1, r3
 5435 004c 1422     		movs	r2, #20
 5436 004e 01A8     		add	r0, sp, #4
 5437              	.LVL1060:
 5438 0050 FFF7FEFF 		bl	memcmp
 5439              	.LVL1061:
 5440 0054 0028     		cmp	r0, #0
 5441 0056 0ED1     		bne	.L61
 529:Source\mbedtls_open\library/ripemd160.c ****         {
 530:Source\mbedtls_open\library/ripemd160.c ****             ret = 1;
 531:Source\mbedtls_open\library/ripemd160.c ****             goto fail;
 532:Source\mbedtls_open\library/ripemd160.c ****         }
 533:Source\mbedtls_open\library/ripemd160.c **** 
 534:Source\mbedtls_open\library/ripemd160.c ****         if( verbose != 0 )
 5442              		.loc 1 534 0
 5443 0058 002D     		cmp	r5, #0
 5444 005a 02D0     		beq	.L58
 535:Source\mbedtls_open\library/ripemd160.c ****             mbedtls_printf( "passed\n" );
 5445              		.loc 1 535 0
 5446 005c 0F48     		ldr	r0, .L64+12
 5447 005e FFF7FEFF 		bl	puts
ARM GAS  C:\Users\Phuong\AppData\Local\Temp\ccbgGR22.s 			page 106


 5448              	.LVL1062:
 5449              	.L58:
 518:Source\mbedtls_open\library/ripemd160.c ****     {
 5450              		.loc 1 518 0 discriminator 2
 5451 0062 0134     		adds	r4, r4, #1
 5452              	.LVL1063:
 5453              	.L55:
 518:Source\mbedtls_open\library/ripemd160.c ****     {
 5454              		.loc 1 518 0 is_stmt 0 discriminator 1
 5455 0064 072C     		cmp	r4, #7
 5456 0066 D5DD     		ble	.L59
 536:Source\mbedtls_open\library/ripemd160.c ****     }
 537:Source\mbedtls_open\library/ripemd160.c **** 
 538:Source\mbedtls_open\library/ripemd160.c ****     if( verbose != 0 )
 5457              		.loc 1 538 0 is_stmt 1
 5458 0068 002D     		cmp	r5, #0
 5459 006a 0CD0     		beq	.L62
 539:Source\mbedtls_open\library/ripemd160.c ****         mbedtls_printf( "\n" );
 5460              		.loc 1 539 0
 5461 006c 0A20     		movs	r0, #10
 5462 006e FFF7FEFF 		bl	putchar
 5463              	.LVL1064:
 540:Source\mbedtls_open\library/ripemd160.c **** 
 541:Source\mbedtls_open\library/ripemd160.c ****     return( 0 );
 5464              		.loc 1 541 0
 5465 0072 0020     		movs	r0, #0
 5466 0074 0AE0     		b	.L60
 5467              	.LVL1065:
 5468              	.L61:
 530:Source\mbedtls_open\library/ripemd160.c ****             goto fail;
 5469              		.loc 1 530 0
 5470 0076 0126     		movs	r6, #1
 5471              	.LVL1066:
 5472              	.L57:
 542:Source\mbedtls_open\library/ripemd160.c **** 
 543:Source\mbedtls_open\library/ripemd160.c **** fail:
 544:Source\mbedtls_open\library/ripemd160.c ****     if( verbose != 0 )
 5473              		.loc 1 544 0
 5474 0078 002D     		cmp	r5, #0
 5475 007a 06D0     		beq	.L63
 545:Source\mbedtls_open\library/ripemd160.c ****         mbedtls_printf( "failed\n" );
 5476              		.loc 1 545 0
 5477 007c 0848     		ldr	r0, .L64+16
 5478 007e FFF7FEFF 		bl	puts
 5479              	.LVL1067:
 546:Source\mbedtls_open\library/ripemd160.c **** 
 547:Source\mbedtls_open\library/ripemd160.c ****     return( ret );
 5480              		.loc 1 547 0
 5481 0082 3000     		movs	r0, r6
 5482 0084 02E0     		b	.L60
 5483              	.LVL1068:
 5484              	.L62:
 541:Source\mbedtls_open\library/ripemd160.c **** 
 5485              		.loc 1 541 0
 5486 0086 0020     		movs	r0, #0
 5487 0088 00E0     		b	.L60
 5488              	.LVL1069:
ARM GAS  C:\Users\Phuong\AppData\Local\Temp\ccbgGR22.s 			page 107


 5489              	.L63:
 5490              		.loc 1 547 0
 5491 008a 3000     		movs	r0, r6
 5492              	.LVL1070:
 5493              	.L60:
 548:Source\mbedtls_open\library/ripemd160.c **** }
 5494              		.loc 1 548 0
 5495 008c 06B0     		add	sp, sp, #24
 5496              		@ sp needed
 5497              	.LVL1071:
 5498              	.LVL1072:
 5499 008e 70BD     		pop	{r4, r5, r6, pc}
 5500              	.L65:
 5501              		.align	2
 5502              	.L64:
 5503 0090 00000000 		.word	.LC1
 5504 0094 00000000 		.word	.LANCHOR0
 5505 0098 80020000 		.word	.LANCHOR1
 5506 009c 18000000 		.word	.LC5
 5507 00a0 20000000 		.word	.LC7
 5508              		.cfi_endproc
 5509              	.LFE14:
 5510              		.size	mbedtls_ripemd160_self_test, .-mbedtls_ripemd160_self_test
 5511              		.section	.rodata
 5512              		.align	2
 5513              		.set	.LANCHOR0,. + 0
 5514              		.set	.LANCHOR1,. + 640
 5515              		.type	ripemd160_padding, %object
 5516              		.size	ripemd160_padding, 64
 5517              	ripemd160_padding:
