ARM GAS  C:\Users\Phuong\AppData\Local\Temp\ccgu0w7m.s 			page 1


   1              		.syntax unified
   2              		.cpu cortex-m0plus
   3              		.fpu softvfp
   4              		.eabi_attribute 20, 1
   5              		.eabi_attribute 21, 1
   6              		.eabi_attribute 23, 3
   7              		.eabi_attribute 24, 1
   8              		.eabi_attribute 25, 1
   9              		.eabi_attribute 26, 1
  10              		.eabi_attribute 30, 1
  11              		.eabi_attribute 34, 0
  12              		.eabi_attribute 18, 4
  13              		.thumb
  14              		.syntax unified
  15              		.file	"rsa.c"
  16              		.text
  17              	.Ltext0:
  18              		.cfi_sections	.debug_frame
  19              		.section	.text.rsa_check_context,"ax",%progbits
  20              		.align	2
  21              		.code	16
  22              		.thumb_func
  23              		.type	rsa_check_context, %function
  24              	rsa_check_context:
  25              	.LFB14:
  26              		.file 1 "Source\\mbedtls_open\\library\\rsa.c"
   1:Source\mbedtls_open\library/rsa.c **** /*
   2:Source\mbedtls_open\library/rsa.c ****  *  The RSA public-key cryptosystem
   3:Source\mbedtls_open\library/rsa.c ****  *
   4:Source\mbedtls_open\library/rsa.c ****  *  Copyright (C) 2006-2015, ARM Limited, All Rights Reserved
   5:Source\mbedtls_open\library/rsa.c ****  *  SPDX-License-Identifier: Apache-2.0
   6:Source\mbedtls_open\library/rsa.c ****  *
   7:Source\mbedtls_open\library/rsa.c ****  *  Licensed under the Apache License, Version 2.0 (the "License"); you may
   8:Source\mbedtls_open\library/rsa.c ****  *  not use this file except in compliance with the License.
   9:Source\mbedtls_open\library/rsa.c ****  *  You may obtain a copy of the License at
  10:Source\mbedtls_open\library/rsa.c ****  *
  11:Source\mbedtls_open\library/rsa.c ****  *  http://www.apache.org/licenses/LICENSE-2.0
  12:Source\mbedtls_open\library/rsa.c ****  *
  13:Source\mbedtls_open\library/rsa.c ****  *  Unless required by applicable law or agreed to in writing, software
  14:Source\mbedtls_open\library/rsa.c ****  *  distributed under the License is distributed on an "AS IS" BASIS, WITHOUT
  15:Source\mbedtls_open\library/rsa.c ****  *  WARRANTIES OR CONDITIONS OF ANY KIND, either express or implied.
  16:Source\mbedtls_open\library/rsa.c ****  *  See the License for the specific language governing permissions and
  17:Source\mbedtls_open\library/rsa.c ****  *  limitations under the License.
  18:Source\mbedtls_open\library/rsa.c ****  *
  19:Source\mbedtls_open\library/rsa.c ****  *  This file is part of mbed TLS (https://tls.mbed.org)
  20:Source\mbedtls_open\library/rsa.c ****  */
  21:Source\mbedtls_open\library/rsa.c **** 
  22:Source\mbedtls_open\library/rsa.c **** /*
  23:Source\mbedtls_open\library/rsa.c ****  *  The following sources were referenced in the design of this implementation
  24:Source\mbedtls_open\library/rsa.c ****  *  of the RSA algorithm:
  25:Source\mbedtls_open\library/rsa.c ****  *
  26:Source\mbedtls_open\library/rsa.c ****  *  [1] A method for obtaining digital signatures and public-key cryptosystems
  27:Source\mbedtls_open\library/rsa.c ****  *      R Rivest, A Shamir, and L Adleman
  28:Source\mbedtls_open\library/rsa.c ****  *      http://people.csail.mit.edu/rivest/pubs.html#RSA78
  29:Source\mbedtls_open\library/rsa.c ****  *
  30:Source\mbedtls_open\library/rsa.c ****  *  [2] Handbook of Applied Cryptography - 1997, Chapter 8
  31:Source\mbedtls_open\library/rsa.c ****  *      Menezes, van Oorschot and Vanstone
ARM GAS  C:\Users\Phuong\AppData\Local\Temp\ccgu0w7m.s 			page 2


  32:Source\mbedtls_open\library/rsa.c ****  *
  33:Source\mbedtls_open\library/rsa.c ****  *  [3] Malware Guard Extension: Using SGX to Conceal Cache Attacks
  34:Source\mbedtls_open\library/rsa.c ****  *      Michael Schwarz, Samuel Weiser, Daniel Gruss, Clémentine Maurice and
  35:Source\mbedtls_open\library/rsa.c ****  *      Stefan Mangard
  36:Source\mbedtls_open\library/rsa.c ****  *      https://arxiv.org/abs/1702.08719v2
  37:Source\mbedtls_open\library/rsa.c ****  *
  38:Source\mbedtls_open\library/rsa.c ****  */
  39:Source\mbedtls_open\library/rsa.c **** 
  40:Source\mbedtls_open\library/rsa.c **** #if !defined(MBEDTLS_CONFIG_FILE)
  41:Source\mbedtls_open\library/rsa.c **** #include "mbedtls/config.h"
  42:Source\mbedtls_open\library/rsa.c **** #else
  43:Source\mbedtls_open\library/rsa.c **** #include MBEDTLS_CONFIG_FILE
  44:Source\mbedtls_open\library/rsa.c **** #endif
  45:Source\mbedtls_open\library/rsa.c **** 
  46:Source\mbedtls_open\library/rsa.c **** #if defined(MBEDTLS_RSA_C)
  47:Source\mbedtls_open\library/rsa.c **** 
  48:Source\mbedtls_open\library/rsa.c **** #include "mbedtls/rsa.h"
  49:Source\mbedtls_open\library/rsa.c **** #include "mbedtls/rsa_internal.h"
  50:Source\mbedtls_open\library/rsa.c **** #include "mbedtls/oid.h"
  51:Source\mbedtls_open\library/rsa.c **** #include "mbedtls/platform_util.h"
  52:Source\mbedtls_open\library/rsa.c **** 
  53:Source\mbedtls_open\library/rsa.c **** #include <string.h>
  54:Source\mbedtls_open\library/rsa.c **** 
  55:Source\mbedtls_open\library/rsa.c **** #if defined(MBEDTLS_PKCS1_V21)
  56:Source\mbedtls_open\library/rsa.c **** #include "mbedtls/md.h"
  57:Source\mbedtls_open\library/rsa.c **** #endif
  58:Source\mbedtls_open\library/rsa.c **** 
  59:Source\mbedtls_open\library/rsa.c **** #if defined(MBEDTLS_PKCS1_V15) && !defined(__OpenBSD__)
  60:Source\mbedtls_open\library/rsa.c **** #include <stdlib.h>
  61:Source\mbedtls_open\library/rsa.c **** #endif
  62:Source\mbedtls_open\library/rsa.c **** 
  63:Source\mbedtls_open\library/rsa.c **** #if defined(MBEDTLS_PLATFORM_C)
  64:Source\mbedtls_open\library/rsa.c **** #include "mbedtls/platform.h"
  65:Source\mbedtls_open\library/rsa.c **** #else
  66:Source\mbedtls_open\library/rsa.c **** #include <stdio.h>
  67:Source\mbedtls_open\library/rsa.c **** #define mbedtls_printf printf
  68:Source\mbedtls_open\library/rsa.c **** #define mbedtls_calloc calloc
  69:Source\mbedtls_open\library/rsa.c **** #define mbedtls_free   free
  70:Source\mbedtls_open\library/rsa.c **** #endif
  71:Source\mbedtls_open\library/rsa.c **** 
  72:Source\mbedtls_open\library/rsa.c **** #if !defined(MBEDTLS_RSA_ALT)
  73:Source\mbedtls_open\library/rsa.c **** 
  74:Source\mbedtls_open\library/rsa.c **** #if defined(MBEDTLS_PKCS1_V15)
  75:Source\mbedtls_open\library/rsa.c **** /* constant-time buffer comparison */
  76:Source\mbedtls_open\library/rsa.c **** static inline int mbedtls_safer_memcmp( const void *a, const void *b, size_t n )
  77:Source\mbedtls_open\library/rsa.c **** {
  78:Source\mbedtls_open\library/rsa.c ****     size_t i;
  79:Source\mbedtls_open\library/rsa.c ****     const unsigned char *A = (const unsigned char *) a;
  80:Source\mbedtls_open\library/rsa.c ****     const unsigned char *B = (const unsigned char *) b;
  81:Source\mbedtls_open\library/rsa.c ****     unsigned char diff = 0;
  82:Source\mbedtls_open\library/rsa.c **** 
  83:Source\mbedtls_open\library/rsa.c ****     for( i = 0; i < n; i++ )
  84:Source\mbedtls_open\library/rsa.c ****         diff |= A[i] ^ B[i];
  85:Source\mbedtls_open\library/rsa.c **** 
  86:Source\mbedtls_open\library/rsa.c ****     return( diff );
  87:Source\mbedtls_open\library/rsa.c **** }
  88:Source\mbedtls_open\library/rsa.c **** #endif /* MBEDTLS_PKCS1_V15 */
ARM GAS  C:\Users\Phuong\AppData\Local\Temp\ccgu0w7m.s 			page 3


  89:Source\mbedtls_open\library/rsa.c **** 
  90:Source\mbedtls_open\library/rsa.c **** int mbedtls_rsa_import( mbedtls_rsa_context *ctx,
  91:Source\mbedtls_open\library/rsa.c ****                         const mbedtls_mpi *N,
  92:Source\mbedtls_open\library/rsa.c ****                         const mbedtls_mpi *P, const mbedtls_mpi *Q,
  93:Source\mbedtls_open\library/rsa.c ****                         const mbedtls_mpi *D, const mbedtls_mpi *E )
  94:Source\mbedtls_open\library/rsa.c **** {
  95:Source\mbedtls_open\library/rsa.c ****     int ret;
  96:Source\mbedtls_open\library/rsa.c **** 
  97:Source\mbedtls_open\library/rsa.c ****     if( ( N != NULL && ( ret = mbedtls_mpi_copy( &ctx->N, N ) ) != 0 ) ||
  98:Source\mbedtls_open\library/rsa.c ****         ( P != NULL && ( ret = mbedtls_mpi_copy( &ctx->P, P ) ) != 0 ) ||
  99:Source\mbedtls_open\library/rsa.c ****         ( Q != NULL && ( ret = mbedtls_mpi_copy( &ctx->Q, Q ) ) != 0 ) ||
 100:Source\mbedtls_open\library/rsa.c ****         ( D != NULL && ( ret = mbedtls_mpi_copy( &ctx->D, D ) ) != 0 ) ||
 101:Source\mbedtls_open\library/rsa.c ****         ( E != NULL && ( ret = mbedtls_mpi_copy( &ctx->E, E ) ) != 0 ) )
 102:Source\mbedtls_open\library/rsa.c ****     {
 103:Source\mbedtls_open\library/rsa.c ****         return( MBEDTLS_ERR_RSA_BAD_INPUT_DATA + ret );
 104:Source\mbedtls_open\library/rsa.c ****     }
 105:Source\mbedtls_open\library/rsa.c **** 
 106:Source\mbedtls_open\library/rsa.c ****     if( N != NULL )
 107:Source\mbedtls_open\library/rsa.c ****         ctx->len = mbedtls_mpi_size( &ctx->N );
 108:Source\mbedtls_open\library/rsa.c **** 
 109:Source\mbedtls_open\library/rsa.c ****     return( 0 );
 110:Source\mbedtls_open\library/rsa.c **** }
 111:Source\mbedtls_open\library/rsa.c **** 
 112:Source\mbedtls_open\library/rsa.c **** int mbedtls_rsa_import_raw( mbedtls_rsa_context *ctx,
 113:Source\mbedtls_open\library/rsa.c ****                             unsigned char const *N, size_t N_len,
 114:Source\mbedtls_open\library/rsa.c ****                             unsigned char const *P, size_t P_len,
 115:Source\mbedtls_open\library/rsa.c ****                             unsigned char const *Q, size_t Q_len,
 116:Source\mbedtls_open\library/rsa.c ****                             unsigned char const *D, size_t D_len,
 117:Source\mbedtls_open\library/rsa.c ****                             unsigned char const *E, size_t E_len )
 118:Source\mbedtls_open\library/rsa.c **** {
 119:Source\mbedtls_open\library/rsa.c ****     int ret = 0;
 120:Source\mbedtls_open\library/rsa.c **** 
 121:Source\mbedtls_open\library/rsa.c ****     if( N != NULL )
 122:Source\mbedtls_open\library/rsa.c ****     {
 123:Source\mbedtls_open\library/rsa.c ****         MBEDTLS_MPI_CHK( mbedtls_mpi_read_binary( &ctx->N, N, N_len ) );
 124:Source\mbedtls_open\library/rsa.c ****         ctx->len = mbedtls_mpi_size( &ctx->N );
 125:Source\mbedtls_open\library/rsa.c ****     }
 126:Source\mbedtls_open\library/rsa.c **** 
 127:Source\mbedtls_open\library/rsa.c ****     if( P != NULL )
 128:Source\mbedtls_open\library/rsa.c ****         MBEDTLS_MPI_CHK( mbedtls_mpi_read_binary( &ctx->P, P, P_len ) );
 129:Source\mbedtls_open\library/rsa.c **** 
 130:Source\mbedtls_open\library/rsa.c ****     if( Q != NULL )
 131:Source\mbedtls_open\library/rsa.c ****         MBEDTLS_MPI_CHK( mbedtls_mpi_read_binary( &ctx->Q, Q, Q_len ) );
 132:Source\mbedtls_open\library/rsa.c **** 
 133:Source\mbedtls_open\library/rsa.c ****     if( D != NULL )
 134:Source\mbedtls_open\library/rsa.c ****         MBEDTLS_MPI_CHK( mbedtls_mpi_read_binary( &ctx->D, D, D_len ) );
 135:Source\mbedtls_open\library/rsa.c **** 
 136:Source\mbedtls_open\library/rsa.c ****     if( E != NULL )
 137:Source\mbedtls_open\library/rsa.c ****         MBEDTLS_MPI_CHK( mbedtls_mpi_read_binary( &ctx->E, E, E_len ) );
 138:Source\mbedtls_open\library/rsa.c **** 
 139:Source\mbedtls_open\library/rsa.c **** cleanup:
 140:Source\mbedtls_open\library/rsa.c **** 
 141:Source\mbedtls_open\library/rsa.c ****     if( ret != 0 )
 142:Source\mbedtls_open\library/rsa.c ****         return( MBEDTLS_ERR_RSA_BAD_INPUT_DATA + ret );
 143:Source\mbedtls_open\library/rsa.c **** 
 144:Source\mbedtls_open\library/rsa.c ****     return( 0 );
 145:Source\mbedtls_open\library/rsa.c **** }
ARM GAS  C:\Users\Phuong\AppData\Local\Temp\ccgu0w7m.s 			page 4


 146:Source\mbedtls_open\library/rsa.c **** 
 147:Source\mbedtls_open\library/rsa.c **** /*
 148:Source\mbedtls_open\library/rsa.c ****  * Checks whether the context fields are set in such a way
 149:Source\mbedtls_open\library/rsa.c ****  * that the RSA primitives will be able to execute without error.
 150:Source\mbedtls_open\library/rsa.c ****  * It does *not* make guarantees for consistency of the parameters.
 151:Source\mbedtls_open\library/rsa.c ****  */
 152:Source\mbedtls_open\library/rsa.c **** static int rsa_check_context( mbedtls_rsa_context const *ctx, int is_priv,
 153:Source\mbedtls_open\library/rsa.c ****                               int blinding_needed )
 154:Source\mbedtls_open\library/rsa.c **** {
  27              		.loc 1 154 0
  28              		.cfi_startproc
  29              		@ args = 0, pretend = 0, frame = 0
  30              		@ frame_needed = 0, uses_anonymous_args = 0
  31              	.LVL0:
  32 0000 F8B5     		push	{r3, r4, r5, r6, r7, lr}
  33              		.cfi_def_cfa_offset 24
  34              		.cfi_offset 3, -24
  35              		.cfi_offset 4, -20
  36              		.cfi_offset 5, -16
  37              		.cfi_offset 6, -12
  38              		.cfi_offset 7, -8
  39              		.cfi_offset 14, -4
  40 0002 0400     		movs	r4, r0
  41 0004 0E00     		movs	r6, r1
 155:Source\mbedtls_open\library/rsa.c **** #if !defined(MBEDTLS_RSA_NO_CRT)
 156:Source\mbedtls_open\library/rsa.c ****     /* blinding_needed is only used for NO_CRT to decide whether
 157:Source\mbedtls_open\library/rsa.c ****      * P,Q need to be present or not. */
 158:Source\mbedtls_open\library/rsa.c ****     ((void) blinding_needed);
 159:Source\mbedtls_open\library/rsa.c **** #endif
 160:Source\mbedtls_open\library/rsa.c **** 
 161:Source\mbedtls_open\library/rsa.c ****     if( ctx->len != mbedtls_mpi_size( &ctx->N ) ||
  42              		.loc 1 161 0
  43 0006 4768     		ldr	r7, [r0, #4]
  44 0008 0500     		movs	r5, r0
  45 000a 0835     		adds	r5, r5, #8
  46 000c 2800     		movs	r0, r5
  47              	.LVL1:
  48 000e FFF7FEFF 		bl	mbedtls_mpi_size
  49              	.LVL2:
  50 0012 8742     		cmp	r7, r0
  51 0014 4ED1     		bne	.L5
  52              		.loc 1 161 0 is_stmt 0 discriminator 1
  53 0016 8023     		movs	r3, #128
  54 0018 DB00     		lsls	r3, r3, #3
  55 001a 6268     		ldr	r2, [r4, #4]
  56 001c 9A42     		cmp	r2, r3
  57 001e 4BD8     		bhi	.L6
 162:Source\mbedtls_open\library/rsa.c ****         ctx->len > MBEDTLS_MPI_MAX_SIZE )
 163:Source\mbedtls_open\library/rsa.c ****     {
 164:Source\mbedtls_open\library/rsa.c ****         return( MBEDTLS_ERR_RSA_BAD_INPUT_DATA );
 165:Source\mbedtls_open\library/rsa.c ****     }
 166:Source\mbedtls_open\library/rsa.c **** 
 167:Source\mbedtls_open\library/rsa.c ****     /*
 168:Source\mbedtls_open\library/rsa.c ****      * 1. Modular exponentiation needs positive, odd moduli.
 169:Source\mbedtls_open\library/rsa.c ****      */
 170:Source\mbedtls_open\library/rsa.c **** 
 171:Source\mbedtls_open\library/rsa.c ****     /* Modular exponentiation wrt. N is always used for
ARM GAS  C:\Users\Phuong\AppData\Local\Temp\ccgu0w7m.s 			page 5


 172:Source\mbedtls_open\library/rsa.c ****      * RSA public key operations. */
 173:Source\mbedtls_open\library/rsa.c ****     if( mbedtls_mpi_cmp_int( &ctx->N, 0 ) <= 0 ||
  58              		.loc 1 173 0 is_stmt 1
  59 0020 0021     		movs	r1, #0
  60 0022 2800     		movs	r0, r5
  61 0024 FFF7FEFF 		bl	mbedtls_mpi_cmp_int
  62              	.LVL3:
  63 0028 0028     		cmp	r0, #0
  64 002a 47DD     		ble	.L7
 174:Source\mbedtls_open\library/rsa.c ****         mbedtls_mpi_get_bit( &ctx->N, 0 ) == 0  )
  65              		.loc 1 174 0 discriminator 1
  66 002c 0021     		movs	r1, #0
  67 002e 2800     		movs	r0, r5
  68 0030 FFF7FEFF 		bl	mbedtls_mpi_get_bit
  69              	.LVL4:
 173:Source\mbedtls_open\library/rsa.c ****         mbedtls_mpi_get_bit( &ctx->N, 0 ) == 0  )
  70              		.loc 1 173 0 discriminator 1
  71 0034 0028     		cmp	r0, #0
  72 0036 43D0     		beq	.L8
 175:Source\mbedtls_open\library/rsa.c ****     {
 176:Source\mbedtls_open\library/rsa.c ****         return( MBEDTLS_ERR_RSA_BAD_INPUT_DATA );
 177:Source\mbedtls_open\library/rsa.c ****     }
 178:Source\mbedtls_open\library/rsa.c **** 
 179:Source\mbedtls_open\library/rsa.c **** #if !defined(MBEDTLS_RSA_NO_CRT)
 180:Source\mbedtls_open\library/rsa.c ****     /* Modular exponentiation for P and Q is only
 181:Source\mbedtls_open\library/rsa.c ****      * used for private key operations and if CRT
 182:Source\mbedtls_open\library/rsa.c ****      * is used. */
 183:Source\mbedtls_open\library/rsa.c ****     if( is_priv &&
  73              		.loc 1 183 0
  74 0038 002E     		cmp	r6, #0
  75 003a 19D0     		beq	.L3
 184:Source\mbedtls_open\library/rsa.c ****         ( mbedtls_mpi_cmp_int( &ctx->P, 0 ) <= 0 ||
  76              		.loc 1 184 0 discriminator 1
  77 003c 2435     		adds	r5, r5, #36
  78 003e 0021     		movs	r1, #0
  79 0040 2800     		movs	r0, r5
  80 0042 FFF7FEFF 		bl	mbedtls_mpi_cmp_int
  81              	.LVL5:
 183:Source\mbedtls_open\library/rsa.c ****         ( mbedtls_mpi_cmp_int( &ctx->P, 0 ) <= 0 ||
  82              		.loc 1 183 0 discriminator 1
  83 0046 0028     		cmp	r0, #0
  84 0048 3CDD     		ble	.L9
 185:Source\mbedtls_open\library/rsa.c ****           mbedtls_mpi_get_bit( &ctx->P, 0 ) == 0 ||
  85              		.loc 1 185 0
  86 004a 0021     		movs	r1, #0
  87 004c 2800     		movs	r0, r5
  88 004e FFF7FEFF 		bl	mbedtls_mpi_get_bit
  89              	.LVL6:
 184:Source\mbedtls_open\library/rsa.c ****         ( mbedtls_mpi_cmp_int( &ctx->P, 0 ) <= 0 ||
  90              		.loc 1 184 0
  91 0052 0028     		cmp	r0, #0
  92 0054 38D0     		beq	.L10
 186:Source\mbedtls_open\library/rsa.c ****           mbedtls_mpi_cmp_int( &ctx->Q, 0 ) <= 0 ||
  93              		.loc 1 186 0
  94 0056 0C35     		adds	r5, r5, #12
  95 0058 0021     		movs	r1, #0
  96 005a 2800     		movs	r0, r5
ARM GAS  C:\Users\Phuong\AppData\Local\Temp\ccgu0w7m.s 			page 6


  97 005c FFF7FEFF 		bl	mbedtls_mpi_cmp_int
  98              	.LVL7:
 185:Source\mbedtls_open\library/rsa.c ****           mbedtls_mpi_get_bit( &ctx->P, 0 ) == 0 ||
  99              		.loc 1 185 0
 100 0060 0028     		cmp	r0, #0
 101 0062 33DD     		ble	.L11
 187:Source\mbedtls_open\library/rsa.c ****           mbedtls_mpi_get_bit( &ctx->Q, 0 ) == 0  ) )
 102              		.loc 1 187 0
 103 0064 0021     		movs	r1, #0
 104 0066 2800     		movs	r0, r5
 105 0068 FFF7FEFF 		bl	mbedtls_mpi_get_bit
 106              	.LVL8:
 186:Source\mbedtls_open\library/rsa.c ****           mbedtls_mpi_cmp_int( &ctx->Q, 0 ) <= 0 ||
 107              		.loc 1 186 0
 108 006c 0028     		cmp	r0, #0
 109 006e 2FD0     		beq	.L12
 110              	.L3:
 188:Source\mbedtls_open\library/rsa.c ****     {
 189:Source\mbedtls_open\library/rsa.c ****         return( MBEDTLS_ERR_RSA_BAD_INPUT_DATA );
 190:Source\mbedtls_open\library/rsa.c ****     }
 191:Source\mbedtls_open\library/rsa.c **** #endif /* !MBEDTLS_RSA_NO_CRT */
 192:Source\mbedtls_open\library/rsa.c **** 
 193:Source\mbedtls_open\library/rsa.c ****     /*
 194:Source\mbedtls_open\library/rsa.c ****      * 2. Exponents must be positive
 195:Source\mbedtls_open\library/rsa.c ****      */
 196:Source\mbedtls_open\library/rsa.c **** 
 197:Source\mbedtls_open\library/rsa.c ****     /* Always need E for public key operations */
 198:Source\mbedtls_open\library/rsa.c ****     if( mbedtls_mpi_cmp_int( &ctx->E, 0 ) <= 0 )
 111              		.loc 1 198 0
 112 0070 2000     		movs	r0, r4
 113 0072 1430     		adds	r0, r0, #20
 114 0074 0021     		movs	r1, #0
 115 0076 FFF7FEFF 		bl	mbedtls_mpi_cmp_int
 116              	.LVL9:
 117 007a 0028     		cmp	r0, #0
 118 007c 2ADD     		ble	.L13
 199:Source\mbedtls_open\library/rsa.c ****         return( MBEDTLS_ERR_RSA_BAD_INPUT_DATA );
 200:Source\mbedtls_open\library/rsa.c **** 
 201:Source\mbedtls_open\library/rsa.c **** #if defined(MBEDTLS_RSA_NO_CRT)
 202:Source\mbedtls_open\library/rsa.c ****     /* For private key operations, use D or DP & DQ
 203:Source\mbedtls_open\library/rsa.c ****      * as (unblinded) exponents. */
 204:Source\mbedtls_open\library/rsa.c ****     if( is_priv && mbedtls_mpi_cmp_int( &ctx->D, 0 ) <= 0 )
 205:Source\mbedtls_open\library/rsa.c ****         return( MBEDTLS_ERR_RSA_BAD_INPUT_DATA );
 206:Source\mbedtls_open\library/rsa.c **** #else
 207:Source\mbedtls_open\library/rsa.c ****     if( is_priv &&
 119              		.loc 1 207 0
 120 007e 002E     		cmp	r6, #0
 121 0080 0DD0     		beq	.L4
 208:Source\mbedtls_open\library/rsa.c ****         ( mbedtls_mpi_cmp_int( &ctx->DP, 0 ) <= 0 ||
 122              		.loc 1 208 0 discriminator 1
 123 0082 2000     		movs	r0, r4
 124 0084 4430     		adds	r0, r0, #68
 125 0086 0021     		movs	r1, #0
 126 0088 FFF7FEFF 		bl	mbedtls_mpi_cmp_int
 127              	.LVL10:
 207:Source\mbedtls_open\library/rsa.c ****         ( mbedtls_mpi_cmp_int( &ctx->DP, 0 ) <= 0 ||
 128              		.loc 1 207 0 discriminator 1
ARM GAS  C:\Users\Phuong\AppData\Local\Temp\ccgu0w7m.s 			page 7


 129 008c 0028     		cmp	r0, #0
 130 008e 23DD     		ble	.L14
 209:Source\mbedtls_open\library/rsa.c ****           mbedtls_mpi_cmp_int( &ctx->DQ, 0 ) <= 0  ) )
 131              		.loc 1 209 0
 132 0090 2000     		movs	r0, r4
 133 0092 5030     		adds	r0, r0, #80
 134 0094 0021     		movs	r1, #0
 135 0096 FFF7FEFF 		bl	mbedtls_mpi_cmp_int
 136              	.LVL11:
 208:Source\mbedtls_open\library/rsa.c ****         ( mbedtls_mpi_cmp_int( &ctx->DP, 0 ) <= 0 ||
 137              		.loc 1 208 0
 138 009a 0028     		cmp	r0, #0
 139 009c 1EDD     		ble	.L15
 140              	.L4:
 210:Source\mbedtls_open\library/rsa.c ****     {
 211:Source\mbedtls_open\library/rsa.c ****         return( MBEDTLS_ERR_RSA_BAD_INPUT_DATA );
 212:Source\mbedtls_open\library/rsa.c ****     }
 213:Source\mbedtls_open\library/rsa.c **** #endif /* MBEDTLS_RSA_NO_CRT */
 214:Source\mbedtls_open\library/rsa.c **** 
 215:Source\mbedtls_open\library/rsa.c ****     /* Blinding shouldn't make exponents negative either,
 216:Source\mbedtls_open\library/rsa.c ****      * so check that P, Q >= 1 if that hasn't yet been
 217:Source\mbedtls_open\library/rsa.c ****      * done as part of 1. */
 218:Source\mbedtls_open\library/rsa.c **** #if defined(MBEDTLS_RSA_NO_CRT)
 219:Source\mbedtls_open\library/rsa.c ****     if( is_priv && blinding_needed &&
 220:Source\mbedtls_open\library/rsa.c ****         ( mbedtls_mpi_cmp_int( &ctx->P, 0 ) <= 0 ||
 221:Source\mbedtls_open\library/rsa.c ****           mbedtls_mpi_cmp_int( &ctx->Q, 0 ) <= 0 ) )
 222:Source\mbedtls_open\library/rsa.c ****     {
 223:Source\mbedtls_open\library/rsa.c ****         return( MBEDTLS_ERR_RSA_BAD_INPUT_DATA );
 224:Source\mbedtls_open\library/rsa.c ****     }
 225:Source\mbedtls_open\library/rsa.c **** #endif
 226:Source\mbedtls_open\library/rsa.c **** 
 227:Source\mbedtls_open\library/rsa.c ****     /* It wouldn't lead to an error if it wasn't satisfied,
 228:Source\mbedtls_open\library/rsa.c ****      * but check for QP >= 1 nonetheless. */
 229:Source\mbedtls_open\library/rsa.c **** #if !defined(MBEDTLS_RSA_NO_CRT)
 230:Source\mbedtls_open\library/rsa.c ****     if( is_priv &&
 141              		.loc 1 230 0
 142 009e 002E     		cmp	r6, #0
 143 00a0 1ED0     		beq	.L16
 231:Source\mbedtls_open\library/rsa.c ****         mbedtls_mpi_cmp_int( &ctx->QP, 0 ) <= 0 )
 144              		.loc 1 231 0 discriminator 1
 145 00a2 2000     		movs	r0, r4
 146 00a4 5C30     		adds	r0, r0, #92
 147 00a6 0021     		movs	r1, #0
 148 00a8 FFF7FEFF 		bl	mbedtls_mpi_cmp_int
 149              	.LVL12:
 230:Source\mbedtls_open\library/rsa.c ****         mbedtls_mpi_cmp_int( &ctx->QP, 0 ) <= 0 )
 150              		.loc 1 230 0 discriminator 1
 151 00ac 0028     		cmp	r0, #0
 152 00ae 19DC     		bgt	.L17
 232:Source\mbedtls_open\library/rsa.c ****     {
 233:Source\mbedtls_open\library/rsa.c ****         return( MBEDTLS_ERR_RSA_BAD_INPUT_DATA );
 153              		.loc 1 233 0
 154 00b0 0D48     		ldr	r0, .L18
 155 00b2 18E0     		b	.L2
 156              	.L5:
 164:Source\mbedtls_open\library/rsa.c ****     }
 157              		.loc 1 164 0
ARM GAS  C:\Users\Phuong\AppData\Local\Temp\ccgu0w7m.s 			page 8


 158 00b4 0C48     		ldr	r0, .L18
 159 00b6 16E0     		b	.L2
 160              	.L6:
 161 00b8 0B48     		ldr	r0, .L18
 162 00ba 14E0     		b	.L2
 163              	.L7:
 176:Source\mbedtls_open\library/rsa.c ****     }
 164              		.loc 1 176 0
 165 00bc 0A48     		ldr	r0, .L18
 166 00be 12E0     		b	.L2
 167              	.L8:
 168 00c0 0948     		ldr	r0, .L18
 169 00c2 10E0     		b	.L2
 170              	.L9:
 189:Source\mbedtls_open\library/rsa.c ****     }
 171              		.loc 1 189 0
 172 00c4 0848     		ldr	r0, .L18
 173 00c6 0EE0     		b	.L2
 174              	.L10:
 175 00c8 0748     		ldr	r0, .L18
 176 00ca 0CE0     		b	.L2
 177              	.L11:
 178 00cc 0648     		ldr	r0, .L18
 179 00ce 0AE0     		b	.L2
 180              	.L12:
 181 00d0 0548     		ldr	r0, .L18
 182 00d2 08E0     		b	.L2
 183              	.L13:
 199:Source\mbedtls_open\library/rsa.c **** 
 184              		.loc 1 199 0
 185 00d4 0448     		ldr	r0, .L18
 186 00d6 06E0     		b	.L2
 187              	.L14:
 211:Source\mbedtls_open\library/rsa.c ****     }
 188              		.loc 1 211 0
 189 00d8 0348     		ldr	r0, .L18
 190 00da 04E0     		b	.L2
 191              	.L15:
 192 00dc 0248     		ldr	r0, .L18
 193 00de 02E0     		b	.L2
 194              	.L16:
 234:Source\mbedtls_open\library/rsa.c ****     }
 235:Source\mbedtls_open\library/rsa.c **** #endif
 236:Source\mbedtls_open\library/rsa.c **** 
 237:Source\mbedtls_open\library/rsa.c ****     return( 0 );
 195              		.loc 1 237 0
 196 00e0 0020     		movs	r0, #0
 197 00e2 00E0     		b	.L2
 198              	.L17:
 199 00e4 0020     		movs	r0, #0
 200              	.L2:
 238:Source\mbedtls_open\library/rsa.c **** }
 201              		.loc 1 238 0
 202              		@ sp needed
 203              	.LVL13:
 204              	.LVL14:
 205 00e6 F8BD     		pop	{r3, r4, r5, r6, r7, pc}
ARM GAS  C:\Users\Phuong\AppData\Local\Temp\ccgu0w7m.s 			page 9


 206              	.L19:
 207              		.align	2
 208              	.L18:
 209 00e8 80BFFFFF 		.word	-16512
 210              		.cfi_endproc
 211              	.LFE14:
 212              		.size	rsa_check_context, .-rsa_check_context
 213              		.section	.text.rsa_prepare_blinding,"ax",%progbits
 214              		.align	2
 215              		.code	16
 216              		.thumb_func
 217              		.type	rsa_prepare_blinding, %function
 218              	rsa_prepare_blinding:
 219              	.LFB27:
 239:Source\mbedtls_open\library/rsa.c **** 
 240:Source\mbedtls_open\library/rsa.c **** int mbedtls_rsa_complete( mbedtls_rsa_context *ctx )
 241:Source\mbedtls_open\library/rsa.c **** {
 242:Source\mbedtls_open\library/rsa.c ****     int ret = 0;
 243:Source\mbedtls_open\library/rsa.c **** 
 244:Source\mbedtls_open\library/rsa.c ****     const int have_N = ( mbedtls_mpi_cmp_int( &ctx->N, 0 ) != 0 );
 245:Source\mbedtls_open\library/rsa.c ****     const int have_P = ( mbedtls_mpi_cmp_int( &ctx->P, 0 ) != 0 );
 246:Source\mbedtls_open\library/rsa.c ****     const int have_Q = ( mbedtls_mpi_cmp_int( &ctx->Q, 0 ) != 0 );
 247:Source\mbedtls_open\library/rsa.c ****     const int have_D = ( mbedtls_mpi_cmp_int( &ctx->D, 0 ) != 0 );
 248:Source\mbedtls_open\library/rsa.c ****     const int have_E = ( mbedtls_mpi_cmp_int( &ctx->E, 0 ) != 0 );
 249:Source\mbedtls_open\library/rsa.c **** 
 250:Source\mbedtls_open\library/rsa.c ****     /*
 251:Source\mbedtls_open\library/rsa.c ****      * Check whether provided parameters are enough
 252:Source\mbedtls_open\library/rsa.c ****      * to deduce all others. The following incomplete
 253:Source\mbedtls_open\library/rsa.c ****      * parameter sets for private keys are supported:
 254:Source\mbedtls_open\library/rsa.c ****      *
 255:Source\mbedtls_open\library/rsa.c ****      * (1) P, Q missing.
 256:Source\mbedtls_open\library/rsa.c ****      * (2) D and potentially N missing.
 257:Source\mbedtls_open\library/rsa.c ****      *
 258:Source\mbedtls_open\library/rsa.c ****      */
 259:Source\mbedtls_open\library/rsa.c **** 
 260:Source\mbedtls_open\library/rsa.c ****     const int n_missing  =              have_P &&  have_Q &&  have_D && have_E;
 261:Source\mbedtls_open\library/rsa.c ****     const int pq_missing =   have_N && !have_P && !have_Q &&  have_D && have_E;
 262:Source\mbedtls_open\library/rsa.c ****     const int d_missing  =              have_P &&  have_Q && !have_D && have_E;
 263:Source\mbedtls_open\library/rsa.c ****     const int is_pub     =   have_N && !have_P && !have_Q && !have_D && have_E;
 264:Source\mbedtls_open\library/rsa.c **** 
 265:Source\mbedtls_open\library/rsa.c ****     /* These three alternatives are mutually exclusive */
 266:Source\mbedtls_open\library/rsa.c ****     const int is_priv = n_missing || pq_missing || d_missing;
 267:Source\mbedtls_open\library/rsa.c **** 
 268:Source\mbedtls_open\library/rsa.c ****     if( !is_priv && !is_pub )
 269:Source\mbedtls_open\library/rsa.c ****         return( MBEDTLS_ERR_RSA_BAD_INPUT_DATA );
 270:Source\mbedtls_open\library/rsa.c **** 
 271:Source\mbedtls_open\library/rsa.c ****     /*
 272:Source\mbedtls_open\library/rsa.c ****      * Step 1: Deduce N if P, Q are provided.
 273:Source\mbedtls_open\library/rsa.c ****      */
 274:Source\mbedtls_open\library/rsa.c **** 
 275:Source\mbedtls_open\library/rsa.c ****     if( !have_N && have_P && have_Q )
 276:Source\mbedtls_open\library/rsa.c ****     {
 277:Source\mbedtls_open\library/rsa.c ****         if( ( ret = mbedtls_mpi_mul_mpi( &ctx->N, &ctx->P,
 278:Source\mbedtls_open\library/rsa.c ****                                          &ctx->Q ) ) != 0 )
 279:Source\mbedtls_open\library/rsa.c ****         {
 280:Source\mbedtls_open\library/rsa.c ****             return( MBEDTLS_ERR_RSA_BAD_INPUT_DATA + ret );
 281:Source\mbedtls_open\library/rsa.c ****         }
ARM GAS  C:\Users\Phuong\AppData\Local\Temp\ccgu0w7m.s 			page 10


 282:Source\mbedtls_open\library/rsa.c **** 
 283:Source\mbedtls_open\library/rsa.c ****         ctx->len = mbedtls_mpi_size( &ctx->N );
 284:Source\mbedtls_open\library/rsa.c ****     }
 285:Source\mbedtls_open\library/rsa.c **** 
 286:Source\mbedtls_open\library/rsa.c ****     /*
 287:Source\mbedtls_open\library/rsa.c ****      * Step 2: Deduce and verify all remaining core parameters.
 288:Source\mbedtls_open\library/rsa.c ****      */
 289:Source\mbedtls_open\library/rsa.c **** 
 290:Source\mbedtls_open\library/rsa.c ****     if( pq_missing )
 291:Source\mbedtls_open\library/rsa.c ****     {
 292:Source\mbedtls_open\library/rsa.c ****         ret = mbedtls_rsa_deduce_primes( &ctx->N, &ctx->E, &ctx->D,
 293:Source\mbedtls_open\library/rsa.c ****                                          &ctx->P, &ctx->Q );
 294:Source\mbedtls_open\library/rsa.c ****         if( ret != 0 )
 295:Source\mbedtls_open\library/rsa.c ****             return( MBEDTLS_ERR_RSA_BAD_INPUT_DATA + ret );
 296:Source\mbedtls_open\library/rsa.c **** 
 297:Source\mbedtls_open\library/rsa.c ****     }
 298:Source\mbedtls_open\library/rsa.c ****     else if( d_missing )
 299:Source\mbedtls_open\library/rsa.c ****     {
 300:Source\mbedtls_open\library/rsa.c ****         if( ( ret = mbedtls_rsa_deduce_private_exponent( &ctx->P,
 301:Source\mbedtls_open\library/rsa.c ****                                                          &ctx->Q,
 302:Source\mbedtls_open\library/rsa.c ****                                                          &ctx->E,
 303:Source\mbedtls_open\library/rsa.c ****                                                          &ctx->D ) ) != 0 )
 304:Source\mbedtls_open\library/rsa.c ****         {
 305:Source\mbedtls_open\library/rsa.c ****             return( MBEDTLS_ERR_RSA_BAD_INPUT_DATA + ret );
 306:Source\mbedtls_open\library/rsa.c ****         }
 307:Source\mbedtls_open\library/rsa.c ****     }
 308:Source\mbedtls_open\library/rsa.c **** 
 309:Source\mbedtls_open\library/rsa.c ****     /*
 310:Source\mbedtls_open\library/rsa.c ****      * Step 3: Deduce all additional parameters specific
 311:Source\mbedtls_open\library/rsa.c ****      *         to our current RSA implementation.
 312:Source\mbedtls_open\library/rsa.c ****      */
 313:Source\mbedtls_open\library/rsa.c **** 
 314:Source\mbedtls_open\library/rsa.c **** #if !defined(MBEDTLS_RSA_NO_CRT)
 315:Source\mbedtls_open\library/rsa.c ****     if( is_priv )
 316:Source\mbedtls_open\library/rsa.c ****     {
 317:Source\mbedtls_open\library/rsa.c ****         ret = mbedtls_rsa_deduce_crt( &ctx->P,  &ctx->Q,  &ctx->D,
 318:Source\mbedtls_open\library/rsa.c ****                                       &ctx->DP, &ctx->DQ, &ctx->QP );
 319:Source\mbedtls_open\library/rsa.c ****         if( ret != 0 )
 320:Source\mbedtls_open\library/rsa.c ****             return( MBEDTLS_ERR_RSA_BAD_INPUT_DATA + ret );
 321:Source\mbedtls_open\library/rsa.c ****     }
 322:Source\mbedtls_open\library/rsa.c **** #endif /* MBEDTLS_RSA_NO_CRT */
 323:Source\mbedtls_open\library/rsa.c **** 
 324:Source\mbedtls_open\library/rsa.c ****     /*
 325:Source\mbedtls_open\library/rsa.c ****      * Step 3: Basic sanity checks
 326:Source\mbedtls_open\library/rsa.c ****      */
 327:Source\mbedtls_open\library/rsa.c **** 
 328:Source\mbedtls_open\library/rsa.c ****     return( rsa_check_context( ctx, is_priv, 1 ) );
 329:Source\mbedtls_open\library/rsa.c **** }
 330:Source\mbedtls_open\library/rsa.c **** 
 331:Source\mbedtls_open\library/rsa.c **** int mbedtls_rsa_export_raw( const mbedtls_rsa_context *ctx,
 332:Source\mbedtls_open\library/rsa.c ****                             unsigned char *N, size_t N_len,
 333:Source\mbedtls_open\library/rsa.c ****                             unsigned char *P, size_t P_len,
 334:Source\mbedtls_open\library/rsa.c ****                             unsigned char *Q, size_t Q_len,
 335:Source\mbedtls_open\library/rsa.c ****                             unsigned char *D, size_t D_len,
 336:Source\mbedtls_open\library/rsa.c ****                             unsigned char *E, size_t E_len )
 337:Source\mbedtls_open\library/rsa.c **** {
 338:Source\mbedtls_open\library/rsa.c ****     int ret = 0;
ARM GAS  C:\Users\Phuong\AppData\Local\Temp\ccgu0w7m.s 			page 11


 339:Source\mbedtls_open\library/rsa.c **** 
 340:Source\mbedtls_open\library/rsa.c ****     /* Check if key is private or public */
 341:Source\mbedtls_open\library/rsa.c ****     const int is_priv =
 342:Source\mbedtls_open\library/rsa.c ****         mbedtls_mpi_cmp_int( &ctx->N, 0 ) != 0 &&
 343:Source\mbedtls_open\library/rsa.c ****         mbedtls_mpi_cmp_int( &ctx->P, 0 ) != 0 &&
 344:Source\mbedtls_open\library/rsa.c ****         mbedtls_mpi_cmp_int( &ctx->Q, 0 ) != 0 &&
 345:Source\mbedtls_open\library/rsa.c ****         mbedtls_mpi_cmp_int( &ctx->D, 0 ) != 0 &&
 346:Source\mbedtls_open\library/rsa.c ****         mbedtls_mpi_cmp_int( &ctx->E, 0 ) != 0;
 347:Source\mbedtls_open\library/rsa.c **** 
 348:Source\mbedtls_open\library/rsa.c ****     if( !is_priv )
 349:Source\mbedtls_open\library/rsa.c ****     {
 350:Source\mbedtls_open\library/rsa.c ****         /* If we're trying to export private parameters for a public key,
 351:Source\mbedtls_open\library/rsa.c ****          * something must be wrong. */
 352:Source\mbedtls_open\library/rsa.c ****         if( P != NULL || Q != NULL || D != NULL )
 353:Source\mbedtls_open\library/rsa.c ****             return( MBEDTLS_ERR_RSA_BAD_INPUT_DATA );
 354:Source\mbedtls_open\library/rsa.c **** 
 355:Source\mbedtls_open\library/rsa.c ****     }
 356:Source\mbedtls_open\library/rsa.c **** 
 357:Source\mbedtls_open\library/rsa.c ****     if( N != NULL )
 358:Source\mbedtls_open\library/rsa.c ****         MBEDTLS_MPI_CHK( mbedtls_mpi_write_binary( &ctx->N, N, N_len ) );
 359:Source\mbedtls_open\library/rsa.c **** 
 360:Source\mbedtls_open\library/rsa.c ****     if( P != NULL )
 361:Source\mbedtls_open\library/rsa.c ****         MBEDTLS_MPI_CHK( mbedtls_mpi_write_binary( &ctx->P, P, P_len ) );
 362:Source\mbedtls_open\library/rsa.c **** 
 363:Source\mbedtls_open\library/rsa.c ****     if( Q != NULL )
 364:Source\mbedtls_open\library/rsa.c ****         MBEDTLS_MPI_CHK( mbedtls_mpi_write_binary( &ctx->Q, Q, Q_len ) );
 365:Source\mbedtls_open\library/rsa.c **** 
 366:Source\mbedtls_open\library/rsa.c ****     if( D != NULL )
 367:Source\mbedtls_open\library/rsa.c ****         MBEDTLS_MPI_CHK( mbedtls_mpi_write_binary( &ctx->D, D, D_len ) );
 368:Source\mbedtls_open\library/rsa.c **** 
 369:Source\mbedtls_open\library/rsa.c ****     if( E != NULL )
 370:Source\mbedtls_open\library/rsa.c ****         MBEDTLS_MPI_CHK( mbedtls_mpi_write_binary( &ctx->E, E, E_len ) );
 371:Source\mbedtls_open\library/rsa.c **** 
 372:Source\mbedtls_open\library/rsa.c **** cleanup:
 373:Source\mbedtls_open\library/rsa.c **** 
 374:Source\mbedtls_open\library/rsa.c ****     return( ret );
 375:Source\mbedtls_open\library/rsa.c **** }
 376:Source\mbedtls_open\library/rsa.c **** 
 377:Source\mbedtls_open\library/rsa.c **** int mbedtls_rsa_export( const mbedtls_rsa_context *ctx,
 378:Source\mbedtls_open\library/rsa.c ****                         mbedtls_mpi *N, mbedtls_mpi *P, mbedtls_mpi *Q,
 379:Source\mbedtls_open\library/rsa.c ****                         mbedtls_mpi *D, mbedtls_mpi *E )
 380:Source\mbedtls_open\library/rsa.c **** {
 381:Source\mbedtls_open\library/rsa.c ****     int ret;
 382:Source\mbedtls_open\library/rsa.c **** 
 383:Source\mbedtls_open\library/rsa.c ****     /* Check if key is private or public */
 384:Source\mbedtls_open\library/rsa.c ****     int is_priv =
 385:Source\mbedtls_open\library/rsa.c ****         mbedtls_mpi_cmp_int( &ctx->N, 0 ) != 0 &&
 386:Source\mbedtls_open\library/rsa.c ****         mbedtls_mpi_cmp_int( &ctx->P, 0 ) != 0 &&
 387:Source\mbedtls_open\library/rsa.c ****         mbedtls_mpi_cmp_int( &ctx->Q, 0 ) != 0 &&
 388:Source\mbedtls_open\library/rsa.c ****         mbedtls_mpi_cmp_int( &ctx->D, 0 ) != 0 &&
 389:Source\mbedtls_open\library/rsa.c ****         mbedtls_mpi_cmp_int( &ctx->E, 0 ) != 0;
 390:Source\mbedtls_open\library/rsa.c **** 
 391:Source\mbedtls_open\library/rsa.c ****     if( !is_priv )
 392:Source\mbedtls_open\library/rsa.c ****     {
 393:Source\mbedtls_open\library/rsa.c ****         /* If we're trying to export private parameters for a public key,
 394:Source\mbedtls_open\library/rsa.c ****          * something must be wrong. */
 395:Source\mbedtls_open\library/rsa.c ****         if( P != NULL || Q != NULL || D != NULL )
ARM GAS  C:\Users\Phuong\AppData\Local\Temp\ccgu0w7m.s 			page 12


 396:Source\mbedtls_open\library/rsa.c ****             return( MBEDTLS_ERR_RSA_BAD_INPUT_DATA );
 397:Source\mbedtls_open\library/rsa.c **** 
 398:Source\mbedtls_open\library/rsa.c ****     }
 399:Source\mbedtls_open\library/rsa.c **** 
 400:Source\mbedtls_open\library/rsa.c ****     /* Export all requested core parameters. */
 401:Source\mbedtls_open\library/rsa.c **** 
 402:Source\mbedtls_open\library/rsa.c ****     if( ( N != NULL && ( ret = mbedtls_mpi_copy( N, &ctx->N ) ) != 0 ) ||
 403:Source\mbedtls_open\library/rsa.c ****         ( P != NULL && ( ret = mbedtls_mpi_copy( P, &ctx->P ) ) != 0 ) ||
 404:Source\mbedtls_open\library/rsa.c ****         ( Q != NULL && ( ret = mbedtls_mpi_copy( Q, &ctx->Q ) ) != 0 ) ||
 405:Source\mbedtls_open\library/rsa.c ****         ( D != NULL && ( ret = mbedtls_mpi_copy( D, &ctx->D ) ) != 0 ) ||
 406:Source\mbedtls_open\library/rsa.c ****         ( E != NULL && ( ret = mbedtls_mpi_copy( E, &ctx->E ) ) != 0 ) )
 407:Source\mbedtls_open\library/rsa.c ****     {
 408:Source\mbedtls_open\library/rsa.c ****         return( ret );
 409:Source\mbedtls_open\library/rsa.c ****     }
 410:Source\mbedtls_open\library/rsa.c **** 
 411:Source\mbedtls_open\library/rsa.c ****     return( 0 );
 412:Source\mbedtls_open\library/rsa.c **** }
 413:Source\mbedtls_open\library/rsa.c **** 
 414:Source\mbedtls_open\library/rsa.c **** /*
 415:Source\mbedtls_open\library/rsa.c ****  * Export CRT parameters
 416:Source\mbedtls_open\library/rsa.c ****  * This must also be implemented if CRT is not used, for being able to
 417:Source\mbedtls_open\library/rsa.c ****  * write DER encoded RSA keys. The helper function mbedtls_rsa_deduce_crt
 418:Source\mbedtls_open\library/rsa.c ****  * can be used in this case.
 419:Source\mbedtls_open\library/rsa.c ****  */
 420:Source\mbedtls_open\library/rsa.c **** int mbedtls_rsa_export_crt( const mbedtls_rsa_context *ctx,
 421:Source\mbedtls_open\library/rsa.c ****                             mbedtls_mpi *DP, mbedtls_mpi *DQ, mbedtls_mpi *QP )
 422:Source\mbedtls_open\library/rsa.c **** {
 423:Source\mbedtls_open\library/rsa.c ****     int ret;
 424:Source\mbedtls_open\library/rsa.c **** 
 425:Source\mbedtls_open\library/rsa.c ****     /* Check if key is private or public */
 426:Source\mbedtls_open\library/rsa.c ****     int is_priv =
 427:Source\mbedtls_open\library/rsa.c ****         mbedtls_mpi_cmp_int( &ctx->N, 0 ) != 0 &&
 428:Source\mbedtls_open\library/rsa.c ****         mbedtls_mpi_cmp_int( &ctx->P, 0 ) != 0 &&
 429:Source\mbedtls_open\library/rsa.c ****         mbedtls_mpi_cmp_int( &ctx->Q, 0 ) != 0 &&
 430:Source\mbedtls_open\library/rsa.c ****         mbedtls_mpi_cmp_int( &ctx->D, 0 ) != 0 &&
 431:Source\mbedtls_open\library/rsa.c ****         mbedtls_mpi_cmp_int( &ctx->E, 0 ) != 0;
 432:Source\mbedtls_open\library/rsa.c **** 
 433:Source\mbedtls_open\library/rsa.c ****     if( !is_priv )
 434:Source\mbedtls_open\library/rsa.c ****         return( MBEDTLS_ERR_RSA_BAD_INPUT_DATA );
 435:Source\mbedtls_open\library/rsa.c **** 
 436:Source\mbedtls_open\library/rsa.c **** #if !defined(MBEDTLS_RSA_NO_CRT)
 437:Source\mbedtls_open\library/rsa.c ****     /* Export all requested blinding parameters. */
 438:Source\mbedtls_open\library/rsa.c ****     if( ( DP != NULL && ( ret = mbedtls_mpi_copy( DP, &ctx->DP ) ) != 0 ) ||
 439:Source\mbedtls_open\library/rsa.c ****         ( DQ != NULL && ( ret = mbedtls_mpi_copy( DQ, &ctx->DQ ) ) != 0 ) ||
 440:Source\mbedtls_open\library/rsa.c ****         ( QP != NULL && ( ret = mbedtls_mpi_copy( QP, &ctx->QP ) ) != 0 ) )
 441:Source\mbedtls_open\library/rsa.c ****     {
 442:Source\mbedtls_open\library/rsa.c ****         return( MBEDTLS_ERR_RSA_BAD_INPUT_DATA + ret );
 443:Source\mbedtls_open\library/rsa.c ****     }
 444:Source\mbedtls_open\library/rsa.c **** #else
 445:Source\mbedtls_open\library/rsa.c ****     if( ( ret = mbedtls_rsa_deduce_crt( &ctx->P, &ctx->Q, &ctx->D,
 446:Source\mbedtls_open\library/rsa.c ****                                         DP, DQ, QP ) ) != 0 )
 447:Source\mbedtls_open\library/rsa.c ****     {
 448:Source\mbedtls_open\library/rsa.c ****         return( MBEDTLS_ERR_RSA_BAD_INPUT_DATA + ret );
 449:Source\mbedtls_open\library/rsa.c ****     }
 450:Source\mbedtls_open\library/rsa.c **** #endif
 451:Source\mbedtls_open\library/rsa.c **** 
 452:Source\mbedtls_open\library/rsa.c ****     return( 0 );
ARM GAS  C:\Users\Phuong\AppData\Local\Temp\ccgu0w7m.s 			page 13


 453:Source\mbedtls_open\library/rsa.c **** }
 454:Source\mbedtls_open\library/rsa.c **** 
 455:Source\mbedtls_open\library/rsa.c **** /*
 456:Source\mbedtls_open\library/rsa.c ****  * Initialize an RSA context
 457:Source\mbedtls_open\library/rsa.c ****  */
 458:Source\mbedtls_open\library/rsa.c **** void mbedtls_rsa_init( mbedtls_rsa_context *ctx,
 459:Source\mbedtls_open\library/rsa.c ****                int padding,
 460:Source\mbedtls_open\library/rsa.c ****                int hash_id )
 461:Source\mbedtls_open\library/rsa.c **** {
 462:Source\mbedtls_open\library/rsa.c ****     memset( ctx, 0, sizeof( mbedtls_rsa_context ) );
 463:Source\mbedtls_open\library/rsa.c **** 
 464:Source\mbedtls_open\library/rsa.c ****     mbedtls_rsa_set_padding( ctx, padding, hash_id );
 465:Source\mbedtls_open\library/rsa.c **** 
 466:Source\mbedtls_open\library/rsa.c **** #if defined(MBEDTLS_THREADING_C)
 467:Source\mbedtls_open\library/rsa.c ****     mbedtls_mutex_init( &ctx->mutex );
 468:Source\mbedtls_open\library/rsa.c **** #endif
 469:Source\mbedtls_open\library/rsa.c **** }
 470:Source\mbedtls_open\library/rsa.c **** 
 471:Source\mbedtls_open\library/rsa.c **** /*
 472:Source\mbedtls_open\library/rsa.c ****  * Set padding for an existing RSA context
 473:Source\mbedtls_open\library/rsa.c ****  */
 474:Source\mbedtls_open\library/rsa.c **** void mbedtls_rsa_set_padding( mbedtls_rsa_context *ctx, int padding, int hash_id )
 475:Source\mbedtls_open\library/rsa.c **** {
 476:Source\mbedtls_open\library/rsa.c ****     ctx->padding = padding;
 477:Source\mbedtls_open\library/rsa.c ****     ctx->hash_id = hash_id;
 478:Source\mbedtls_open\library/rsa.c **** }
 479:Source\mbedtls_open\library/rsa.c **** 
 480:Source\mbedtls_open\library/rsa.c **** /*
 481:Source\mbedtls_open\library/rsa.c ****  * Get length in bytes of RSA modulus
 482:Source\mbedtls_open\library/rsa.c ****  */
 483:Source\mbedtls_open\library/rsa.c **** 
 484:Source\mbedtls_open\library/rsa.c **** size_t mbedtls_rsa_get_len( const mbedtls_rsa_context *ctx )
 485:Source\mbedtls_open\library/rsa.c **** {
 486:Source\mbedtls_open\library/rsa.c ****     return( ctx->len );
 487:Source\mbedtls_open\library/rsa.c **** }
 488:Source\mbedtls_open\library/rsa.c **** 
 489:Source\mbedtls_open\library/rsa.c **** 
 490:Source\mbedtls_open\library/rsa.c **** #if defined(MBEDTLS_GENPRIME)
 491:Source\mbedtls_open\library/rsa.c **** 
 492:Source\mbedtls_open\library/rsa.c **** /*
 493:Source\mbedtls_open\library/rsa.c ****  * Generate an RSA keypair
 494:Source\mbedtls_open\library/rsa.c ****  *
 495:Source\mbedtls_open\library/rsa.c ****  * This generation method follows the RSA key pair generation procedure of
 496:Source\mbedtls_open\library/rsa.c ****  * FIPS 186-4 if 2^16 < exponent < 2^256 and nbits = 2048 or nbits = 3072.
 497:Source\mbedtls_open\library/rsa.c ****  */
 498:Source\mbedtls_open\library/rsa.c **** int mbedtls_rsa_gen_key( mbedtls_rsa_context *ctx,
 499:Source\mbedtls_open\library/rsa.c ****                  int (*f_rng)(void *, unsigned char *, size_t),
 500:Source\mbedtls_open\library/rsa.c ****                  void *p_rng,
 501:Source\mbedtls_open\library/rsa.c ****                  unsigned int nbits, int exponent )
 502:Source\mbedtls_open\library/rsa.c **** {
 503:Source\mbedtls_open\library/rsa.c ****     int ret;
 504:Source\mbedtls_open\library/rsa.c ****     mbedtls_mpi H, G, L;
 505:Source\mbedtls_open\library/rsa.c **** 
 506:Source\mbedtls_open\library/rsa.c ****     if( f_rng == NULL || nbits < 128 || exponent < 3 )
 507:Source\mbedtls_open\library/rsa.c ****         return( MBEDTLS_ERR_RSA_BAD_INPUT_DATA );
 508:Source\mbedtls_open\library/rsa.c **** 
 509:Source\mbedtls_open\library/rsa.c ****     if( nbits % 2 )
ARM GAS  C:\Users\Phuong\AppData\Local\Temp\ccgu0w7m.s 			page 14


 510:Source\mbedtls_open\library/rsa.c ****         return( MBEDTLS_ERR_RSA_BAD_INPUT_DATA );
 511:Source\mbedtls_open\library/rsa.c **** 
 512:Source\mbedtls_open\library/rsa.c ****     mbedtls_mpi_init( &H );
 513:Source\mbedtls_open\library/rsa.c ****     mbedtls_mpi_init( &G );
 514:Source\mbedtls_open\library/rsa.c ****     mbedtls_mpi_init( &L );
 515:Source\mbedtls_open\library/rsa.c **** 
 516:Source\mbedtls_open\library/rsa.c ****     /*
 517:Source\mbedtls_open\library/rsa.c ****      * find primes P and Q with Q < P so that:
 518:Source\mbedtls_open\library/rsa.c ****      * 1.  |P-Q| > 2^( nbits / 2 - 100 )
 519:Source\mbedtls_open\library/rsa.c ****      * 2.  GCD( E, (P-1)*(Q-1) ) == 1
 520:Source\mbedtls_open\library/rsa.c ****      * 3.  E^-1 mod LCM(P-1, Q-1) > 2^( nbits / 2 )
 521:Source\mbedtls_open\library/rsa.c ****      */
 522:Source\mbedtls_open\library/rsa.c ****     MBEDTLS_MPI_CHK( mbedtls_mpi_lset( &ctx->E, exponent ) );
 523:Source\mbedtls_open\library/rsa.c **** 
 524:Source\mbedtls_open\library/rsa.c ****     do
 525:Source\mbedtls_open\library/rsa.c ****     {
 526:Source\mbedtls_open\library/rsa.c ****         MBEDTLS_MPI_CHK( mbedtls_mpi_gen_prime( &ctx->P, nbits >> 1, 0,
 527:Source\mbedtls_open\library/rsa.c ****                                                 f_rng, p_rng ) );
 528:Source\mbedtls_open\library/rsa.c **** 
 529:Source\mbedtls_open\library/rsa.c ****         MBEDTLS_MPI_CHK( mbedtls_mpi_gen_prime( &ctx->Q, nbits >> 1, 0,
 530:Source\mbedtls_open\library/rsa.c ****                                                 f_rng, p_rng ) );
 531:Source\mbedtls_open\library/rsa.c **** 
 532:Source\mbedtls_open\library/rsa.c ****         /* make sure the difference between p and q is not too small (FIPS 186-4 §B.3.3 step 5.4) 
 533:Source\mbedtls_open\library/rsa.c ****         MBEDTLS_MPI_CHK( mbedtls_mpi_sub_mpi( &H, &ctx->P, &ctx->Q ) );
 534:Source\mbedtls_open\library/rsa.c ****         if( mbedtls_mpi_bitlen( &H ) <= ( ( nbits >= 200 ) ? ( ( nbits >> 1 ) - 99 ) : 0 ) )
 535:Source\mbedtls_open\library/rsa.c ****             continue;
 536:Source\mbedtls_open\library/rsa.c **** 
 537:Source\mbedtls_open\library/rsa.c ****         /* not required by any standards, but some users rely on the fact that P > Q */
 538:Source\mbedtls_open\library/rsa.c ****         if( H.s < 0 )
 539:Source\mbedtls_open\library/rsa.c ****             mbedtls_mpi_swap( &ctx->P, &ctx->Q );
 540:Source\mbedtls_open\library/rsa.c **** 
 541:Source\mbedtls_open\library/rsa.c ****         /* Temporarily replace P,Q by P-1, Q-1 */
 542:Source\mbedtls_open\library/rsa.c ****         MBEDTLS_MPI_CHK( mbedtls_mpi_sub_int( &ctx->P, &ctx->P, 1 ) );
 543:Source\mbedtls_open\library/rsa.c ****         MBEDTLS_MPI_CHK( mbedtls_mpi_sub_int( &ctx->Q, &ctx->Q, 1 ) );
 544:Source\mbedtls_open\library/rsa.c ****         MBEDTLS_MPI_CHK( mbedtls_mpi_mul_mpi( &H, &ctx->P, &ctx->Q ) );
 545:Source\mbedtls_open\library/rsa.c **** 
 546:Source\mbedtls_open\library/rsa.c ****         /* check GCD( E, (P-1)*(Q-1) ) == 1 (FIPS 186-4 §B.3.1 criterion 2(a)) */
 547:Source\mbedtls_open\library/rsa.c ****         MBEDTLS_MPI_CHK( mbedtls_mpi_gcd( &G, &ctx->E, &H  ) );
 548:Source\mbedtls_open\library/rsa.c ****         if( mbedtls_mpi_cmp_int( &G, 1 ) != 0 )
 549:Source\mbedtls_open\library/rsa.c ****             continue;
 550:Source\mbedtls_open\library/rsa.c **** 
 551:Source\mbedtls_open\library/rsa.c ****         /* compute smallest possible D = E^-1 mod LCM(P-1, Q-1) (FIPS 186-4 §B.3.1 criterion 3(b))
 552:Source\mbedtls_open\library/rsa.c ****         MBEDTLS_MPI_CHK( mbedtls_mpi_gcd( &G, &ctx->P, &ctx->Q ) );
 553:Source\mbedtls_open\library/rsa.c ****         MBEDTLS_MPI_CHK( mbedtls_mpi_div_mpi( &L, NULL, &H, &G ) );
 554:Source\mbedtls_open\library/rsa.c ****         MBEDTLS_MPI_CHK( mbedtls_mpi_inv_mod( &ctx->D, &ctx->E, &L ) );
 555:Source\mbedtls_open\library/rsa.c **** 
 556:Source\mbedtls_open\library/rsa.c ****         if( mbedtls_mpi_bitlen( &ctx->D ) <= ( ( nbits + 1 ) / 2 ) ) // (FIPS 186-4 §B.3.1 criteri
 557:Source\mbedtls_open\library/rsa.c ****             continue;
 558:Source\mbedtls_open\library/rsa.c **** 
 559:Source\mbedtls_open\library/rsa.c ****         break;
 560:Source\mbedtls_open\library/rsa.c ****     }
 561:Source\mbedtls_open\library/rsa.c ****     while( 1 );
 562:Source\mbedtls_open\library/rsa.c **** 
 563:Source\mbedtls_open\library/rsa.c ****     /* Restore P,Q */
 564:Source\mbedtls_open\library/rsa.c ****     MBEDTLS_MPI_CHK( mbedtls_mpi_add_int( &ctx->P,  &ctx->P, 1 ) );
 565:Source\mbedtls_open\library/rsa.c ****     MBEDTLS_MPI_CHK( mbedtls_mpi_add_int( &ctx->Q,  &ctx->Q, 1 ) );
 566:Source\mbedtls_open\library/rsa.c **** 
ARM GAS  C:\Users\Phuong\AppData\Local\Temp\ccgu0w7m.s 			page 15


 567:Source\mbedtls_open\library/rsa.c ****     MBEDTLS_MPI_CHK( mbedtls_mpi_mul_mpi( &ctx->N, &ctx->P, &ctx->Q ) );
 568:Source\mbedtls_open\library/rsa.c **** 
 569:Source\mbedtls_open\library/rsa.c ****     ctx->len = mbedtls_mpi_size( &ctx->N );
 570:Source\mbedtls_open\library/rsa.c **** 
 571:Source\mbedtls_open\library/rsa.c **** #if !defined(MBEDTLS_RSA_NO_CRT)
 572:Source\mbedtls_open\library/rsa.c ****     /*
 573:Source\mbedtls_open\library/rsa.c ****      * DP = D mod (P - 1)
 574:Source\mbedtls_open\library/rsa.c ****      * DQ = D mod (Q - 1)
 575:Source\mbedtls_open\library/rsa.c ****      * QP = Q^-1 mod P
 576:Source\mbedtls_open\library/rsa.c ****      */
 577:Source\mbedtls_open\library/rsa.c ****     MBEDTLS_MPI_CHK( mbedtls_rsa_deduce_crt( &ctx->P, &ctx->Q, &ctx->D,
 578:Source\mbedtls_open\library/rsa.c ****                                              &ctx->DP, &ctx->DQ, &ctx->QP ) );
 579:Source\mbedtls_open\library/rsa.c **** #endif /* MBEDTLS_RSA_NO_CRT */
 580:Source\mbedtls_open\library/rsa.c **** 
 581:Source\mbedtls_open\library/rsa.c ****     /* Double-check */
 582:Source\mbedtls_open\library/rsa.c ****     MBEDTLS_MPI_CHK( mbedtls_rsa_check_privkey( ctx ) );
 583:Source\mbedtls_open\library/rsa.c **** 
 584:Source\mbedtls_open\library/rsa.c **** cleanup:
 585:Source\mbedtls_open\library/rsa.c **** 
 586:Source\mbedtls_open\library/rsa.c ****     mbedtls_mpi_free( &H );
 587:Source\mbedtls_open\library/rsa.c ****     mbedtls_mpi_free( &G );
 588:Source\mbedtls_open\library/rsa.c ****     mbedtls_mpi_free( &L );
 589:Source\mbedtls_open\library/rsa.c **** 
 590:Source\mbedtls_open\library/rsa.c ****     if( ret != 0 )
 591:Source\mbedtls_open\library/rsa.c ****     {
 592:Source\mbedtls_open\library/rsa.c ****         mbedtls_rsa_free( ctx );
 593:Source\mbedtls_open\library/rsa.c ****         return( MBEDTLS_ERR_RSA_KEY_GEN_FAILED + ret );
 594:Source\mbedtls_open\library/rsa.c ****     }
 595:Source\mbedtls_open\library/rsa.c **** 
 596:Source\mbedtls_open\library/rsa.c ****     return( 0 );
 597:Source\mbedtls_open\library/rsa.c **** }
 598:Source\mbedtls_open\library/rsa.c **** 
 599:Source\mbedtls_open\library/rsa.c **** #endif /* MBEDTLS_GENPRIME */
 600:Source\mbedtls_open\library/rsa.c **** 
 601:Source\mbedtls_open\library/rsa.c **** /*
 602:Source\mbedtls_open\library/rsa.c ****  * Check a public RSA key
 603:Source\mbedtls_open\library/rsa.c ****  */
 604:Source\mbedtls_open\library/rsa.c **** int mbedtls_rsa_check_pubkey( const mbedtls_rsa_context *ctx )
 605:Source\mbedtls_open\library/rsa.c **** {
 606:Source\mbedtls_open\library/rsa.c ****     if( rsa_check_context( ctx, 0 /* public */, 0 /* no blinding */ ) != 0 )
 607:Source\mbedtls_open\library/rsa.c ****         return( MBEDTLS_ERR_RSA_KEY_CHECK_FAILED );
 608:Source\mbedtls_open\library/rsa.c **** 
 609:Source\mbedtls_open\library/rsa.c ****     if( mbedtls_mpi_bitlen( &ctx->N ) < 128 )
 610:Source\mbedtls_open\library/rsa.c ****     {
 611:Source\mbedtls_open\library/rsa.c ****         return( MBEDTLS_ERR_RSA_KEY_CHECK_FAILED );
 612:Source\mbedtls_open\library/rsa.c ****     }
 613:Source\mbedtls_open\library/rsa.c **** 
 614:Source\mbedtls_open\library/rsa.c ****     if( mbedtls_mpi_get_bit( &ctx->E, 0 ) == 0 ||
 615:Source\mbedtls_open\library/rsa.c ****         mbedtls_mpi_bitlen( &ctx->E )     < 2  ||
 616:Source\mbedtls_open\library/rsa.c ****         mbedtls_mpi_cmp_mpi( &ctx->E, &ctx->N ) >= 0 )
 617:Source\mbedtls_open\library/rsa.c ****     {
 618:Source\mbedtls_open\library/rsa.c ****         return( MBEDTLS_ERR_RSA_KEY_CHECK_FAILED );
 619:Source\mbedtls_open\library/rsa.c ****     }
 620:Source\mbedtls_open\library/rsa.c **** 
 621:Source\mbedtls_open\library/rsa.c ****     return( 0 );
 622:Source\mbedtls_open\library/rsa.c **** }
 623:Source\mbedtls_open\library/rsa.c **** 
ARM GAS  C:\Users\Phuong\AppData\Local\Temp\ccgu0w7m.s 			page 16


 624:Source\mbedtls_open\library/rsa.c **** /*
 625:Source\mbedtls_open\library/rsa.c ****  * Check for the consistency of all fields in an RSA private key context
 626:Source\mbedtls_open\library/rsa.c ****  */
 627:Source\mbedtls_open\library/rsa.c **** int mbedtls_rsa_check_privkey( const mbedtls_rsa_context *ctx )
 628:Source\mbedtls_open\library/rsa.c **** {
 629:Source\mbedtls_open\library/rsa.c ****     if( mbedtls_rsa_check_pubkey( ctx ) != 0 ||
 630:Source\mbedtls_open\library/rsa.c ****         rsa_check_context( ctx, 1 /* private */, 1 /* blinding */ ) != 0 )
 631:Source\mbedtls_open\library/rsa.c ****     {
 632:Source\mbedtls_open\library/rsa.c ****         return( MBEDTLS_ERR_RSA_KEY_CHECK_FAILED );
 633:Source\mbedtls_open\library/rsa.c ****     }
 634:Source\mbedtls_open\library/rsa.c **** 
 635:Source\mbedtls_open\library/rsa.c ****     if( mbedtls_rsa_validate_params( &ctx->N, &ctx->P, &ctx->Q,
 636:Source\mbedtls_open\library/rsa.c ****                                      &ctx->D, &ctx->E, NULL, NULL ) != 0 )
 637:Source\mbedtls_open\library/rsa.c ****     {
 638:Source\mbedtls_open\library/rsa.c ****         return( MBEDTLS_ERR_RSA_KEY_CHECK_FAILED );
 639:Source\mbedtls_open\library/rsa.c ****     }
 640:Source\mbedtls_open\library/rsa.c **** 
 641:Source\mbedtls_open\library/rsa.c **** #if !defined(MBEDTLS_RSA_NO_CRT)
 642:Source\mbedtls_open\library/rsa.c ****     else if( mbedtls_rsa_validate_crt( &ctx->P, &ctx->Q, &ctx->D,
 643:Source\mbedtls_open\library/rsa.c ****                                        &ctx->DP, &ctx->DQ, &ctx->QP ) != 0 )
 644:Source\mbedtls_open\library/rsa.c ****     {
 645:Source\mbedtls_open\library/rsa.c ****         return( MBEDTLS_ERR_RSA_KEY_CHECK_FAILED );
 646:Source\mbedtls_open\library/rsa.c ****     }
 647:Source\mbedtls_open\library/rsa.c **** #endif
 648:Source\mbedtls_open\library/rsa.c **** 
 649:Source\mbedtls_open\library/rsa.c ****     return( 0 );
 650:Source\mbedtls_open\library/rsa.c **** }
 651:Source\mbedtls_open\library/rsa.c **** 
 652:Source\mbedtls_open\library/rsa.c **** /*
 653:Source\mbedtls_open\library/rsa.c ****  * Check if contexts holding a public and private key match
 654:Source\mbedtls_open\library/rsa.c ****  */
 655:Source\mbedtls_open\library/rsa.c **** int mbedtls_rsa_check_pub_priv( const mbedtls_rsa_context *pub,
 656:Source\mbedtls_open\library/rsa.c ****                                 const mbedtls_rsa_context *prv )
 657:Source\mbedtls_open\library/rsa.c **** {
 658:Source\mbedtls_open\library/rsa.c ****     if( mbedtls_rsa_check_pubkey( pub )  != 0 ||
 659:Source\mbedtls_open\library/rsa.c ****         mbedtls_rsa_check_privkey( prv ) != 0 )
 660:Source\mbedtls_open\library/rsa.c ****     {
 661:Source\mbedtls_open\library/rsa.c ****         return( MBEDTLS_ERR_RSA_KEY_CHECK_FAILED );
 662:Source\mbedtls_open\library/rsa.c ****     }
 663:Source\mbedtls_open\library/rsa.c **** 
 664:Source\mbedtls_open\library/rsa.c ****     if( mbedtls_mpi_cmp_mpi( &pub->N, &prv->N ) != 0 ||
 665:Source\mbedtls_open\library/rsa.c ****         mbedtls_mpi_cmp_mpi( &pub->E, &prv->E ) != 0 )
 666:Source\mbedtls_open\library/rsa.c ****     {
 667:Source\mbedtls_open\library/rsa.c ****         return( MBEDTLS_ERR_RSA_KEY_CHECK_FAILED );
 668:Source\mbedtls_open\library/rsa.c ****     }
 669:Source\mbedtls_open\library/rsa.c **** 
 670:Source\mbedtls_open\library/rsa.c ****     return( 0 );
 671:Source\mbedtls_open\library/rsa.c **** }
 672:Source\mbedtls_open\library/rsa.c **** 
 673:Source\mbedtls_open\library/rsa.c **** /*
 674:Source\mbedtls_open\library/rsa.c ****  * Do an RSA public key operation
 675:Source\mbedtls_open\library/rsa.c ****  */
 676:Source\mbedtls_open\library/rsa.c **** int mbedtls_rsa_public( mbedtls_rsa_context *ctx,
 677:Source\mbedtls_open\library/rsa.c ****                 const unsigned char *input,
 678:Source\mbedtls_open\library/rsa.c ****                 unsigned char *output )
 679:Source\mbedtls_open\library/rsa.c **** {
 680:Source\mbedtls_open\library/rsa.c ****     int ret;
ARM GAS  C:\Users\Phuong\AppData\Local\Temp\ccgu0w7m.s 			page 17


 681:Source\mbedtls_open\library/rsa.c ****     size_t olen;
 682:Source\mbedtls_open\library/rsa.c ****     mbedtls_mpi T;
 683:Source\mbedtls_open\library/rsa.c **** 
 684:Source\mbedtls_open\library/rsa.c ****     if( rsa_check_context( ctx, 0 /* public */, 0 /* no blinding */ ) )
 685:Source\mbedtls_open\library/rsa.c ****         return( MBEDTLS_ERR_RSA_BAD_INPUT_DATA );
 686:Source\mbedtls_open\library/rsa.c **** 
 687:Source\mbedtls_open\library/rsa.c ****     mbedtls_mpi_init( &T );
 688:Source\mbedtls_open\library/rsa.c **** 
 689:Source\mbedtls_open\library/rsa.c **** #if defined(MBEDTLS_THREADING_C)
 690:Source\mbedtls_open\library/rsa.c ****     if( ( ret = mbedtls_mutex_lock( &ctx->mutex ) ) != 0 )
 691:Source\mbedtls_open\library/rsa.c ****         return( ret );
 692:Source\mbedtls_open\library/rsa.c **** #endif
 693:Source\mbedtls_open\library/rsa.c **** 
 694:Source\mbedtls_open\library/rsa.c ****     MBEDTLS_MPI_CHK( mbedtls_mpi_read_binary( &T, input, ctx->len ) );
 695:Source\mbedtls_open\library/rsa.c **** 
 696:Source\mbedtls_open\library/rsa.c ****     if( mbedtls_mpi_cmp_mpi( &T, &ctx->N ) >= 0 )
 697:Source\mbedtls_open\library/rsa.c ****     {
 698:Source\mbedtls_open\library/rsa.c ****         ret = MBEDTLS_ERR_MPI_BAD_INPUT_DATA;
 699:Source\mbedtls_open\library/rsa.c ****         goto cleanup;
 700:Source\mbedtls_open\library/rsa.c ****     }
 701:Source\mbedtls_open\library/rsa.c **** 
 702:Source\mbedtls_open\library/rsa.c ****     olen = ctx->len;
 703:Source\mbedtls_open\library/rsa.c ****     MBEDTLS_MPI_CHK( mbedtls_mpi_exp_mod( &T, &T, &ctx->E, &ctx->N, &ctx->RN ) );
 704:Source\mbedtls_open\library/rsa.c ****     MBEDTLS_MPI_CHK( mbedtls_mpi_write_binary( &T, output, olen ) );
 705:Source\mbedtls_open\library/rsa.c **** 
 706:Source\mbedtls_open\library/rsa.c **** cleanup:
 707:Source\mbedtls_open\library/rsa.c **** #if defined(MBEDTLS_THREADING_C)
 708:Source\mbedtls_open\library/rsa.c ****     if( mbedtls_mutex_unlock( &ctx->mutex ) != 0 )
 709:Source\mbedtls_open\library/rsa.c ****         return( MBEDTLS_ERR_THREADING_MUTEX_ERROR );
 710:Source\mbedtls_open\library/rsa.c **** #endif
 711:Source\mbedtls_open\library/rsa.c **** 
 712:Source\mbedtls_open\library/rsa.c ****     mbedtls_mpi_free( &T );
 713:Source\mbedtls_open\library/rsa.c **** 
 714:Source\mbedtls_open\library/rsa.c ****     if( ret != 0 )
 715:Source\mbedtls_open\library/rsa.c ****         return( MBEDTLS_ERR_RSA_PUBLIC_FAILED + ret );
 716:Source\mbedtls_open\library/rsa.c **** 
 717:Source\mbedtls_open\library/rsa.c ****     return( 0 );
 718:Source\mbedtls_open\library/rsa.c **** }
 719:Source\mbedtls_open\library/rsa.c **** 
 720:Source\mbedtls_open\library/rsa.c **** /*
 721:Source\mbedtls_open\library/rsa.c ****  * Generate or update blinding values, see section 10 of:
 722:Source\mbedtls_open\library/rsa.c ****  *  KOCHER, Paul C. Timing attacks on implementations of Diffie-Hellman, RSA,
 723:Source\mbedtls_open\library/rsa.c ****  *  DSS, and other systems. In : Advances in Cryptology-CRYPTO'96. Springer
 724:Source\mbedtls_open\library/rsa.c ****  *  Berlin Heidelberg, 1996. p. 104-113.
 725:Source\mbedtls_open\library/rsa.c ****  */
 726:Source\mbedtls_open\library/rsa.c **** static int rsa_prepare_blinding( mbedtls_rsa_context *ctx,
 727:Source\mbedtls_open\library/rsa.c ****                  int (*f_rng)(void *, unsigned char *, size_t), void *p_rng )
 728:Source\mbedtls_open\library/rsa.c **** {
 220              		.loc 1 728 0
 221              		.cfi_startproc
 222              		@ args = 0, pretend = 0, frame = 8
 223              		@ frame_needed = 0, uses_anonymous_args = 0
 224              	.LVL15:
 225 0000 F0B5     		push	{r4, r5, r6, r7, lr}
 226              		.cfi_def_cfa_offset 20
 227              		.cfi_offset 4, -20
 228              		.cfi_offset 5, -16
ARM GAS  C:\Users\Phuong\AppData\Local\Temp\ccgu0w7m.s 			page 18


 229              		.cfi_offset 6, -12
 230              		.cfi_offset 7, -8
 231              		.cfi_offset 14, -4
 232 0002 4F46     		mov	r7, r9
 233 0004 80B4     		push	{r7}
 234              		.cfi_def_cfa_offset 24
 235              		.cfi_offset 9, -24
 236 0006 84B0     		sub	sp, sp, #16
 237              		.cfi_def_cfa_offset 40
 238 0008 0600     		movs	r6, r0
 239 000a 0291     		str	r1, [sp, #8]
 240 000c 0392     		str	r2, [sp, #12]
 241              	.LVL16:
 729:Source\mbedtls_open\library/rsa.c ****     int ret, count = 0;
 730:Source\mbedtls_open\library/rsa.c **** 
 731:Source\mbedtls_open\library/rsa.c ****     if( ctx->Vf.p != NULL )
 242              		.loc 1 731 0
 243 000e A023     		movs	r3, #160
 244 0010 C358     		ldr	r3, [r0, r3]
 245 0012 002B     		cmp	r3, #0
 246 0014 1FD0     		beq	.L23
 732:Source\mbedtls_open\library/rsa.c ****     {
 733:Source\mbedtls_open\library/rsa.c ****         /* We already have blinding values, just update them by squaring */
 734:Source\mbedtls_open\library/rsa.c ****         MBEDTLS_MPI_CHK( mbedtls_mpi_mul_mpi( &ctx->Vi, &ctx->Vi, &ctx->Vi ) );
 247              		.loc 1 734 0
 248 0016 0400     		movs	r4, r0
 249 0018 8C34     		adds	r4, r4, #140
 250 001a 2200     		movs	r2, r4
 251              	.LVL17:
 252 001c 2100     		movs	r1, r4
 253              	.LVL18:
 254 001e 2000     		movs	r0, r4
 255              	.LVL19:
 256 0020 FFF7FEFF 		bl	mbedtls_mpi_mul_mpi
 257              	.LVL20:
 258 0024 0028     		cmp	r0, #0
 259 0026 4BD1     		bne	.L22
 735:Source\mbedtls_open\library/rsa.c ****         MBEDTLS_MPI_CHK( mbedtls_mpi_mod_mpi( &ctx->Vi, &ctx->Vi, &ctx->N ) );
 260              		.loc 1 735 0
 261 0028 3500     		movs	r5, r6
 262 002a 0835     		adds	r5, r5, #8
 263 002c 2A00     		movs	r2, r5
 264 002e 2100     		movs	r1, r4
 265 0030 2000     		movs	r0, r4
 266              	.LVL21:
 267 0032 FFF7FEFF 		bl	mbedtls_mpi_mod_mpi
 268              	.LVL22:
 269 0036 0028     		cmp	r0, #0
 270 0038 42D1     		bne	.L22
 736:Source\mbedtls_open\library/rsa.c ****         MBEDTLS_MPI_CHK( mbedtls_mpi_mul_mpi( &ctx->Vf, &ctx->Vf, &ctx->Vf ) );
 271              		.loc 1 736 0
 272 003a 0C34     		adds	r4, r4, #12
 273 003c 2200     		movs	r2, r4
 274 003e 2100     		movs	r1, r4
 275 0040 2000     		movs	r0, r4
 276              	.LVL23:
 277 0042 FFF7FEFF 		bl	mbedtls_mpi_mul_mpi
ARM GAS  C:\Users\Phuong\AppData\Local\Temp\ccgu0w7m.s 			page 19


 278              	.LVL24:
 279 0046 0028     		cmp	r0, #0
 280 0048 3AD1     		bne	.L22
 737:Source\mbedtls_open\library/rsa.c ****         MBEDTLS_MPI_CHK( mbedtls_mpi_mod_mpi( &ctx->Vf, &ctx->Vf, &ctx->N ) );
 281              		.loc 1 737 0
 282 004a 2A00     		movs	r2, r5
 283 004c 2100     		movs	r1, r4
 284 004e 2000     		movs	r0, r4
 285              	.LVL25:
 286 0050 FFF7FEFF 		bl	mbedtls_mpi_mod_mpi
 287              	.LVL26:
 288 0054 34E0     		b	.L22
 289              	.LVL27:
 290              	.L23:
 291 0056 0023     		movs	r3, #0
 292              	.LVL28:
 293              	.L21:
 738:Source\mbedtls_open\library/rsa.c **** 
 739:Source\mbedtls_open\library/rsa.c ****         goto cleanup;
 740:Source\mbedtls_open\library/rsa.c ****     }
 741:Source\mbedtls_open\library/rsa.c **** 
 742:Source\mbedtls_open\library/rsa.c ****     /* Unblinding value: Vf = random number, invertible mod N */
 743:Source\mbedtls_open\library/rsa.c ****     do {
 744:Source\mbedtls_open\library/rsa.c ****         if( count++ > 10 )
 294              		.loc 1 744 0
 295 0058 5A1C     		adds	r2, r3, #1
 296 005a 9146     		mov	r9, r2
 297              	.LVL29:
 298 005c 0A2B     		cmp	r3, #10
 299 005e 2EDC     		bgt	.L27
 745:Source\mbedtls_open\library/rsa.c ****             return( MBEDTLS_ERR_RSA_RNG_FAILED );
 746:Source\mbedtls_open\library/rsa.c **** 
 747:Source\mbedtls_open\library/rsa.c ****         MBEDTLS_MPI_CHK( mbedtls_mpi_fill_random( &ctx->Vf, ctx->len - 1, f_rng, p_rng ) );
 300              		.loc 1 747 0
 301 0060 3400     		movs	r4, r6
 302 0062 9834     		adds	r4, r4, #152
 303 0064 7368     		ldr	r3, [r6, #4]
 304 0066 591E     		subs	r1, r3, #1
 305 0068 039B     		ldr	r3, [sp, #12]
 306 006a 029A     		ldr	r2, [sp, #8]
 307              	.LVL30:
 308 006c 2000     		movs	r0, r4
 309 006e FFF7FEFF 		bl	mbedtls_mpi_fill_random
 310              	.LVL31:
 311 0072 0028     		cmp	r0, #0
 312 0074 24D1     		bne	.L22
 748:Source\mbedtls_open\library/rsa.c ****         MBEDTLS_MPI_CHK( mbedtls_mpi_gcd( &ctx->Vi, &ctx->Vf, &ctx->N ) );
 313              		.loc 1 748 0
 314 0076 3700     		movs	r7, r6
 315 0078 8C37     		adds	r7, r7, #140
 316 007a 3500     		movs	r5, r6
 317 007c 0835     		adds	r5, r5, #8
 318 007e 2A00     		movs	r2, r5
 319 0080 2100     		movs	r1, r4
 320 0082 3800     		movs	r0, r7
 321              	.LVL32:
 322 0084 FFF7FEFF 		bl	mbedtls_mpi_gcd
ARM GAS  C:\Users\Phuong\AppData\Local\Temp\ccgu0w7m.s 			page 20


 323              	.LVL33:
 324 0088 0028     		cmp	r0, #0
 325 008a 19D1     		bne	.L22
 749:Source\mbedtls_open\library/rsa.c ****     } while( mbedtls_mpi_cmp_int( &ctx->Vi, 1 ) != 0 );
 326              		.loc 1 749 0
 327 008c 0121     		movs	r1, #1
 328 008e 3800     		movs	r0, r7
 329              	.LVL34:
 330 0090 FFF7FEFF 		bl	mbedtls_mpi_cmp_int
 331              	.LVL35:
 744:Source\mbedtls_open\library/rsa.c ****             return( MBEDTLS_ERR_RSA_RNG_FAILED );
 332              		.loc 1 744 0
 333 0094 4B46     		mov	r3, r9
 334              		.loc 1 749 0
 335 0096 0028     		cmp	r0, #0
 336 0098 DED1     		bne	.L21
 750:Source\mbedtls_open\library/rsa.c **** 
 751:Source\mbedtls_open\library/rsa.c ****     /* Blinding value: Vi =  Vf^(-e) mod N */
 752:Source\mbedtls_open\library/rsa.c ****     MBEDTLS_MPI_CHK( mbedtls_mpi_inv_mod( &ctx->Vi, &ctx->Vf, &ctx->N ) );
 337              		.loc 1 752 0
 338 009a 2A00     		movs	r2, r5
 339 009c 2100     		movs	r1, r4
 340 009e 3800     		movs	r0, r7
 341 00a0 FFF7FEFF 		bl	mbedtls_mpi_inv_mod
 342              	.LVL36:
 343 00a4 0028     		cmp	r0, #0
 344 00a6 0BD1     		bne	.L22
 753:Source\mbedtls_open\library/rsa.c ****     MBEDTLS_MPI_CHK( mbedtls_mpi_exp_mod( &ctx->Vi, &ctx->Vi, &ctx->E, &ctx->N, &ctx->RN ) );
 345              		.loc 1 753 0
 346 00a8 3200     		movs	r2, r6
 347 00aa 1432     		adds	r2, r2, #20
 348 00ac 3300     		movs	r3, r6
 349 00ae 6833     		adds	r3, r3, #104
 350 00b0 0093     		str	r3, [sp]
 351 00b2 2B00     		movs	r3, r5
 352 00b4 3900     		movs	r1, r7
 353 00b6 3800     		movs	r0, r7
 354              	.LVL37:
 355 00b8 FFF7FEFF 		bl	mbedtls_mpi_exp_mod
 356              	.LVL38:
 357 00bc 00E0     		b	.L22
 358              	.LVL39:
 359              	.L27:
 745:Source\mbedtls_open\library/rsa.c **** 
 360              		.loc 1 745 0
 361 00be 0248     		ldr	r0, .L31
 362              	.LVL40:
 363              	.L22:
 754:Source\mbedtls_open\library/rsa.c **** 
 755:Source\mbedtls_open\library/rsa.c **** 
 756:Source\mbedtls_open\library/rsa.c **** cleanup:
 757:Source\mbedtls_open\library/rsa.c ****     return( ret );
 758:Source\mbedtls_open\library/rsa.c **** }
 364              		.loc 1 758 0
 365 00c0 04B0     		add	sp, sp, #16
 366              		@ sp needed
 367              	.LVL41:
ARM GAS  C:\Users\Phuong\AppData\Local\Temp\ccgu0w7m.s 			page 21


 368 00c2 04BC     		pop	{r2}
 369 00c4 9146     		mov	r9, r2
 370 00c6 F0BD     		pop	{r4, r5, r6, r7, pc}
 371              	.L32:
 372              		.align	2
 373              	.L31:
 374 00c8 80BBFFFF 		.word	-17536
 375              		.cfi_endproc
 376              	.LFE27:
 377              		.size	rsa_prepare_blinding, .-rsa_prepare_blinding
 378              		.section	.text.mgf_mask,"ax",%progbits
 379              		.align	2
 380              		.code	16
 381              		.thumb_func
 382              		.type	mgf_mask, %function
 383              	mgf_mask:
 384              	.LFB29:
 759:Source\mbedtls_open\library/rsa.c **** 
 760:Source\mbedtls_open\library/rsa.c **** /*
 761:Source\mbedtls_open\library/rsa.c ****  * Exponent blinding supposed to prevent side-channel attacks using multiple
 762:Source\mbedtls_open\library/rsa.c ****  * traces of measurements to recover the RSA key. The more collisions are there,
 763:Source\mbedtls_open\library/rsa.c ****  * the more bits of the key can be recovered. See [3].
 764:Source\mbedtls_open\library/rsa.c ****  *
 765:Source\mbedtls_open\library/rsa.c ****  * Collecting n collisions with m bit long blinding value requires 2^(m-m/n)
 766:Source\mbedtls_open\library/rsa.c ****  * observations on avarage.
 767:Source\mbedtls_open\library/rsa.c ****  *
 768:Source\mbedtls_open\library/rsa.c ****  * For example with 28 byte blinding to achieve 2 collisions the adversary has
 769:Source\mbedtls_open\library/rsa.c ****  * to make 2^112 observations on avarage.
 770:Source\mbedtls_open\library/rsa.c ****  *
 771:Source\mbedtls_open\library/rsa.c ****  * (With the currently (as of 2017 April) known best algorithms breaking 2048
 772:Source\mbedtls_open\library/rsa.c ****  * bit RSA requires approximately as much time as trying out 2^112 random keys.
 773:Source\mbedtls_open\library/rsa.c ****  * Thus in this sense with 28 byte blinding the security is not reduced by
 774:Source\mbedtls_open\library/rsa.c ****  * side-channel attacks like the one in [3])
 775:Source\mbedtls_open\library/rsa.c ****  *
 776:Source\mbedtls_open\library/rsa.c ****  * This countermeasure does not help if the key recovery is possible with a
 777:Source\mbedtls_open\library/rsa.c ****  * single trace.
 778:Source\mbedtls_open\library/rsa.c ****  */
 779:Source\mbedtls_open\library/rsa.c **** #define RSA_EXPONENT_BLINDING 28
 780:Source\mbedtls_open\library/rsa.c **** 
 781:Source\mbedtls_open\library/rsa.c **** /*
 782:Source\mbedtls_open\library/rsa.c ****  * Do an RSA private key operation
 783:Source\mbedtls_open\library/rsa.c ****  */
 784:Source\mbedtls_open\library/rsa.c **** int mbedtls_rsa_private( mbedtls_rsa_context *ctx,
 785:Source\mbedtls_open\library/rsa.c ****                  int (*f_rng)(void *, unsigned char *, size_t),
 786:Source\mbedtls_open\library/rsa.c ****                  void *p_rng,
 787:Source\mbedtls_open\library/rsa.c ****                  const unsigned char *input,
 788:Source\mbedtls_open\library/rsa.c ****                  unsigned char *output )
 789:Source\mbedtls_open\library/rsa.c **** {
 790:Source\mbedtls_open\library/rsa.c ****     int ret;
 791:Source\mbedtls_open\library/rsa.c ****     size_t olen;
 792:Source\mbedtls_open\library/rsa.c **** 
 793:Source\mbedtls_open\library/rsa.c ****     /* Temporary holding the result */
 794:Source\mbedtls_open\library/rsa.c ****     mbedtls_mpi T;
 795:Source\mbedtls_open\library/rsa.c **** 
 796:Source\mbedtls_open\library/rsa.c ****     /* Temporaries holding P-1, Q-1 and the
 797:Source\mbedtls_open\library/rsa.c ****      * exponent blinding factor, respectively. */
 798:Source\mbedtls_open\library/rsa.c ****     mbedtls_mpi P1, Q1, R;
ARM GAS  C:\Users\Phuong\AppData\Local\Temp\ccgu0w7m.s 			page 22


 799:Source\mbedtls_open\library/rsa.c **** 
 800:Source\mbedtls_open\library/rsa.c **** #if !defined(MBEDTLS_RSA_NO_CRT)
 801:Source\mbedtls_open\library/rsa.c ****     /* Temporaries holding the results mod p resp. mod q. */
 802:Source\mbedtls_open\library/rsa.c ****     mbedtls_mpi TP, TQ;
 803:Source\mbedtls_open\library/rsa.c **** 
 804:Source\mbedtls_open\library/rsa.c ****     /* Temporaries holding the blinded exponents for
 805:Source\mbedtls_open\library/rsa.c ****      * the mod p resp. mod q computation (if used). */
 806:Source\mbedtls_open\library/rsa.c ****     mbedtls_mpi DP_blind, DQ_blind;
 807:Source\mbedtls_open\library/rsa.c **** 
 808:Source\mbedtls_open\library/rsa.c ****     /* Pointers to actual exponents to be used - either the unblinded
 809:Source\mbedtls_open\library/rsa.c ****      * or the blinded ones, depending on the presence of a PRNG. */
 810:Source\mbedtls_open\library/rsa.c ****     mbedtls_mpi *DP = &ctx->DP;
 811:Source\mbedtls_open\library/rsa.c ****     mbedtls_mpi *DQ = &ctx->DQ;
 812:Source\mbedtls_open\library/rsa.c **** #else
 813:Source\mbedtls_open\library/rsa.c ****     /* Temporary holding the blinded exponent (if used). */
 814:Source\mbedtls_open\library/rsa.c ****     mbedtls_mpi D_blind;
 815:Source\mbedtls_open\library/rsa.c **** 
 816:Source\mbedtls_open\library/rsa.c ****     /* Pointer to actual exponent to be used - either the unblinded
 817:Source\mbedtls_open\library/rsa.c ****      * or the blinded one, depending on the presence of a PRNG. */
 818:Source\mbedtls_open\library/rsa.c ****     mbedtls_mpi *D = &ctx->D;
 819:Source\mbedtls_open\library/rsa.c **** #endif /* MBEDTLS_RSA_NO_CRT */
 820:Source\mbedtls_open\library/rsa.c **** 
 821:Source\mbedtls_open\library/rsa.c ****     /* Temporaries holding the initial input and the double
 822:Source\mbedtls_open\library/rsa.c ****      * checked result; should be the same in the end. */
 823:Source\mbedtls_open\library/rsa.c ****     mbedtls_mpi I, C;
 824:Source\mbedtls_open\library/rsa.c **** 
 825:Source\mbedtls_open\library/rsa.c ****     if( rsa_check_context( ctx, 1             /* private key checks */,
 826:Source\mbedtls_open\library/rsa.c ****                                 f_rng != NULL /* blinding y/n       */ ) != 0 )
 827:Source\mbedtls_open\library/rsa.c ****     {
 828:Source\mbedtls_open\library/rsa.c ****         return( MBEDTLS_ERR_RSA_BAD_INPUT_DATA );
 829:Source\mbedtls_open\library/rsa.c ****     }
 830:Source\mbedtls_open\library/rsa.c **** 
 831:Source\mbedtls_open\library/rsa.c **** #if defined(MBEDTLS_THREADING_C)
 832:Source\mbedtls_open\library/rsa.c ****     if( ( ret = mbedtls_mutex_lock( &ctx->mutex ) ) != 0 )
 833:Source\mbedtls_open\library/rsa.c ****         return( ret );
 834:Source\mbedtls_open\library/rsa.c **** #endif
 835:Source\mbedtls_open\library/rsa.c **** 
 836:Source\mbedtls_open\library/rsa.c ****     /* MPI Initialization */
 837:Source\mbedtls_open\library/rsa.c ****     mbedtls_mpi_init( &T );
 838:Source\mbedtls_open\library/rsa.c **** 
 839:Source\mbedtls_open\library/rsa.c ****     mbedtls_mpi_init( &P1 );
 840:Source\mbedtls_open\library/rsa.c ****     mbedtls_mpi_init( &Q1 );
 841:Source\mbedtls_open\library/rsa.c ****     mbedtls_mpi_init( &R );
 842:Source\mbedtls_open\library/rsa.c **** 
 843:Source\mbedtls_open\library/rsa.c ****     if( f_rng != NULL )
 844:Source\mbedtls_open\library/rsa.c ****     {
 845:Source\mbedtls_open\library/rsa.c **** #if defined(MBEDTLS_RSA_NO_CRT)
 846:Source\mbedtls_open\library/rsa.c ****         mbedtls_mpi_init( &D_blind );
 847:Source\mbedtls_open\library/rsa.c **** #else
 848:Source\mbedtls_open\library/rsa.c ****         mbedtls_mpi_init( &DP_blind );
 849:Source\mbedtls_open\library/rsa.c ****         mbedtls_mpi_init( &DQ_blind );
 850:Source\mbedtls_open\library/rsa.c **** #endif
 851:Source\mbedtls_open\library/rsa.c ****     }
 852:Source\mbedtls_open\library/rsa.c **** 
 853:Source\mbedtls_open\library/rsa.c **** #if !defined(MBEDTLS_RSA_NO_CRT)
 854:Source\mbedtls_open\library/rsa.c ****     mbedtls_mpi_init( &TP ); mbedtls_mpi_init( &TQ );
 855:Source\mbedtls_open\library/rsa.c **** #endif
ARM GAS  C:\Users\Phuong\AppData\Local\Temp\ccgu0w7m.s 			page 23


 856:Source\mbedtls_open\library/rsa.c **** 
 857:Source\mbedtls_open\library/rsa.c ****     mbedtls_mpi_init( &I );
 858:Source\mbedtls_open\library/rsa.c ****     mbedtls_mpi_init( &C );
 859:Source\mbedtls_open\library/rsa.c **** 
 860:Source\mbedtls_open\library/rsa.c ****     /* End of MPI initialization */
 861:Source\mbedtls_open\library/rsa.c **** 
 862:Source\mbedtls_open\library/rsa.c ****     MBEDTLS_MPI_CHK( mbedtls_mpi_read_binary( &T, input, ctx->len ) );
 863:Source\mbedtls_open\library/rsa.c ****     if( mbedtls_mpi_cmp_mpi( &T, &ctx->N ) >= 0 )
 864:Source\mbedtls_open\library/rsa.c ****     {
 865:Source\mbedtls_open\library/rsa.c ****         ret = MBEDTLS_ERR_MPI_BAD_INPUT_DATA;
 866:Source\mbedtls_open\library/rsa.c ****         goto cleanup;
 867:Source\mbedtls_open\library/rsa.c ****     }
 868:Source\mbedtls_open\library/rsa.c **** 
 869:Source\mbedtls_open\library/rsa.c ****     MBEDTLS_MPI_CHK( mbedtls_mpi_copy( &I, &T ) );
 870:Source\mbedtls_open\library/rsa.c **** 
 871:Source\mbedtls_open\library/rsa.c ****     if( f_rng != NULL )
 872:Source\mbedtls_open\library/rsa.c ****     {
 873:Source\mbedtls_open\library/rsa.c ****         /*
 874:Source\mbedtls_open\library/rsa.c ****          * Blinding
 875:Source\mbedtls_open\library/rsa.c ****          * T = T * Vi mod N
 876:Source\mbedtls_open\library/rsa.c ****          */
 877:Source\mbedtls_open\library/rsa.c ****         MBEDTLS_MPI_CHK( rsa_prepare_blinding( ctx, f_rng, p_rng ) );
 878:Source\mbedtls_open\library/rsa.c ****         MBEDTLS_MPI_CHK( mbedtls_mpi_mul_mpi( &T, &T, &ctx->Vi ) );
 879:Source\mbedtls_open\library/rsa.c ****         MBEDTLS_MPI_CHK( mbedtls_mpi_mod_mpi( &T, &T, &ctx->N ) );
 880:Source\mbedtls_open\library/rsa.c **** 
 881:Source\mbedtls_open\library/rsa.c ****         /*
 882:Source\mbedtls_open\library/rsa.c ****          * Exponent blinding
 883:Source\mbedtls_open\library/rsa.c ****          */
 884:Source\mbedtls_open\library/rsa.c ****         MBEDTLS_MPI_CHK( mbedtls_mpi_sub_int( &P1, &ctx->P, 1 ) );
 885:Source\mbedtls_open\library/rsa.c ****         MBEDTLS_MPI_CHK( mbedtls_mpi_sub_int( &Q1, &ctx->Q, 1 ) );
 886:Source\mbedtls_open\library/rsa.c **** 
 887:Source\mbedtls_open\library/rsa.c **** #if defined(MBEDTLS_RSA_NO_CRT)
 888:Source\mbedtls_open\library/rsa.c ****         /*
 889:Source\mbedtls_open\library/rsa.c ****          * D_blind = ( P - 1 ) * ( Q - 1 ) * R + D
 890:Source\mbedtls_open\library/rsa.c ****          */
 891:Source\mbedtls_open\library/rsa.c ****         MBEDTLS_MPI_CHK( mbedtls_mpi_fill_random( &R, RSA_EXPONENT_BLINDING,
 892:Source\mbedtls_open\library/rsa.c ****                          f_rng, p_rng ) );
 893:Source\mbedtls_open\library/rsa.c ****         MBEDTLS_MPI_CHK( mbedtls_mpi_mul_mpi( &D_blind, &P1, &Q1 ) );
 894:Source\mbedtls_open\library/rsa.c ****         MBEDTLS_MPI_CHK( mbedtls_mpi_mul_mpi( &D_blind, &D_blind, &R ) );
 895:Source\mbedtls_open\library/rsa.c ****         MBEDTLS_MPI_CHK( mbedtls_mpi_add_mpi( &D_blind, &D_blind, &ctx->D ) );
 896:Source\mbedtls_open\library/rsa.c **** 
 897:Source\mbedtls_open\library/rsa.c ****         D = &D_blind;
 898:Source\mbedtls_open\library/rsa.c **** #else
 899:Source\mbedtls_open\library/rsa.c ****         /*
 900:Source\mbedtls_open\library/rsa.c ****          * DP_blind = ( P - 1 ) * R + DP
 901:Source\mbedtls_open\library/rsa.c ****          */
 902:Source\mbedtls_open\library/rsa.c ****         MBEDTLS_MPI_CHK( mbedtls_mpi_fill_random( &R, RSA_EXPONENT_BLINDING,
 903:Source\mbedtls_open\library/rsa.c ****                          f_rng, p_rng ) );
 904:Source\mbedtls_open\library/rsa.c ****         MBEDTLS_MPI_CHK( mbedtls_mpi_mul_mpi( &DP_blind, &P1, &R ) );
 905:Source\mbedtls_open\library/rsa.c ****         MBEDTLS_MPI_CHK( mbedtls_mpi_add_mpi( &DP_blind, &DP_blind,
 906:Source\mbedtls_open\library/rsa.c ****                     &ctx->DP ) );
 907:Source\mbedtls_open\library/rsa.c **** 
 908:Source\mbedtls_open\library/rsa.c ****         DP = &DP_blind;
 909:Source\mbedtls_open\library/rsa.c **** 
 910:Source\mbedtls_open\library/rsa.c ****         /*
 911:Source\mbedtls_open\library/rsa.c ****          * DQ_blind = ( Q - 1 ) * R + DQ
 912:Source\mbedtls_open\library/rsa.c ****          */
ARM GAS  C:\Users\Phuong\AppData\Local\Temp\ccgu0w7m.s 			page 24


 913:Source\mbedtls_open\library/rsa.c ****         MBEDTLS_MPI_CHK( mbedtls_mpi_fill_random( &R, RSA_EXPONENT_BLINDING,
 914:Source\mbedtls_open\library/rsa.c ****                          f_rng, p_rng ) );
 915:Source\mbedtls_open\library/rsa.c ****         MBEDTLS_MPI_CHK( mbedtls_mpi_mul_mpi( &DQ_blind, &Q1, &R ) );
 916:Source\mbedtls_open\library/rsa.c ****         MBEDTLS_MPI_CHK( mbedtls_mpi_add_mpi( &DQ_blind, &DQ_blind,
 917:Source\mbedtls_open\library/rsa.c ****                     &ctx->DQ ) );
 918:Source\mbedtls_open\library/rsa.c **** 
 919:Source\mbedtls_open\library/rsa.c ****         DQ = &DQ_blind;
 920:Source\mbedtls_open\library/rsa.c **** #endif /* MBEDTLS_RSA_NO_CRT */
 921:Source\mbedtls_open\library/rsa.c ****     }
 922:Source\mbedtls_open\library/rsa.c **** 
 923:Source\mbedtls_open\library/rsa.c **** #if defined(MBEDTLS_RSA_NO_CRT)
 924:Source\mbedtls_open\library/rsa.c ****     MBEDTLS_MPI_CHK( mbedtls_mpi_exp_mod( &T, &T, D, &ctx->N, &ctx->RN ) );
 925:Source\mbedtls_open\library/rsa.c **** #else
 926:Source\mbedtls_open\library/rsa.c ****     /*
 927:Source\mbedtls_open\library/rsa.c ****      * Faster decryption using the CRT
 928:Source\mbedtls_open\library/rsa.c ****      *
 929:Source\mbedtls_open\library/rsa.c ****      * TP = input ^ dP mod P
 930:Source\mbedtls_open\library/rsa.c ****      * TQ = input ^ dQ mod Q
 931:Source\mbedtls_open\library/rsa.c ****      */
 932:Source\mbedtls_open\library/rsa.c **** 
 933:Source\mbedtls_open\library/rsa.c ****     MBEDTLS_MPI_CHK( mbedtls_mpi_exp_mod( &TP, &T, DP, &ctx->P, &ctx->RP ) );
 934:Source\mbedtls_open\library/rsa.c ****     MBEDTLS_MPI_CHK( mbedtls_mpi_exp_mod( &TQ, &T, DQ, &ctx->Q, &ctx->RQ ) );
 935:Source\mbedtls_open\library/rsa.c **** 
 936:Source\mbedtls_open\library/rsa.c ****     /*
 937:Source\mbedtls_open\library/rsa.c ****      * T = (TP - TQ) * (Q^-1 mod P) mod P
 938:Source\mbedtls_open\library/rsa.c ****      */
 939:Source\mbedtls_open\library/rsa.c ****     MBEDTLS_MPI_CHK( mbedtls_mpi_sub_mpi( &T, &TP, &TQ ) );
 940:Source\mbedtls_open\library/rsa.c ****     MBEDTLS_MPI_CHK( mbedtls_mpi_mul_mpi( &TP, &T, &ctx->QP ) );
 941:Source\mbedtls_open\library/rsa.c ****     MBEDTLS_MPI_CHK( mbedtls_mpi_mod_mpi( &T, &TP, &ctx->P ) );
 942:Source\mbedtls_open\library/rsa.c **** 
 943:Source\mbedtls_open\library/rsa.c ****     /*
 944:Source\mbedtls_open\library/rsa.c ****      * T = TQ + T * Q
 945:Source\mbedtls_open\library/rsa.c ****      */
 946:Source\mbedtls_open\library/rsa.c ****     MBEDTLS_MPI_CHK( mbedtls_mpi_mul_mpi( &TP, &T, &ctx->Q ) );
 947:Source\mbedtls_open\library/rsa.c ****     MBEDTLS_MPI_CHK( mbedtls_mpi_add_mpi( &T, &TQ, &TP ) );
 948:Source\mbedtls_open\library/rsa.c **** #endif /* MBEDTLS_RSA_NO_CRT */
 949:Source\mbedtls_open\library/rsa.c **** 
 950:Source\mbedtls_open\library/rsa.c ****     if( f_rng != NULL )
 951:Source\mbedtls_open\library/rsa.c ****     {
 952:Source\mbedtls_open\library/rsa.c ****         /*
 953:Source\mbedtls_open\library/rsa.c ****          * Unblind
 954:Source\mbedtls_open\library/rsa.c ****          * T = T * Vf mod N
 955:Source\mbedtls_open\library/rsa.c ****          */
 956:Source\mbedtls_open\library/rsa.c ****         MBEDTLS_MPI_CHK( mbedtls_mpi_mul_mpi( &T, &T, &ctx->Vf ) );
 957:Source\mbedtls_open\library/rsa.c ****         MBEDTLS_MPI_CHK( mbedtls_mpi_mod_mpi( &T, &T, &ctx->N ) );
 958:Source\mbedtls_open\library/rsa.c ****     }
 959:Source\mbedtls_open\library/rsa.c **** 
 960:Source\mbedtls_open\library/rsa.c ****     /* Verify the result to prevent glitching attacks. */
 961:Source\mbedtls_open\library/rsa.c ****     MBEDTLS_MPI_CHK( mbedtls_mpi_exp_mod( &C, &T, &ctx->E,
 962:Source\mbedtls_open\library/rsa.c ****                                           &ctx->N, &ctx->RN ) );
 963:Source\mbedtls_open\library/rsa.c ****     if( mbedtls_mpi_cmp_mpi( &C, &I ) != 0 )
 964:Source\mbedtls_open\library/rsa.c ****     {
 965:Source\mbedtls_open\library/rsa.c ****         ret = MBEDTLS_ERR_RSA_VERIFY_FAILED;
 966:Source\mbedtls_open\library/rsa.c ****         goto cleanup;
 967:Source\mbedtls_open\library/rsa.c ****     }
 968:Source\mbedtls_open\library/rsa.c **** 
 969:Source\mbedtls_open\library/rsa.c ****     olen = ctx->len;
ARM GAS  C:\Users\Phuong\AppData\Local\Temp\ccgu0w7m.s 			page 25


 970:Source\mbedtls_open\library/rsa.c ****     MBEDTLS_MPI_CHK( mbedtls_mpi_write_binary( &T, output, olen ) );
 971:Source\mbedtls_open\library/rsa.c **** 
 972:Source\mbedtls_open\library/rsa.c **** cleanup:
 973:Source\mbedtls_open\library/rsa.c **** #if defined(MBEDTLS_THREADING_C)
 974:Source\mbedtls_open\library/rsa.c ****     if( mbedtls_mutex_unlock( &ctx->mutex ) != 0 )
 975:Source\mbedtls_open\library/rsa.c ****         return( MBEDTLS_ERR_THREADING_MUTEX_ERROR );
 976:Source\mbedtls_open\library/rsa.c **** #endif
 977:Source\mbedtls_open\library/rsa.c **** 
 978:Source\mbedtls_open\library/rsa.c ****     mbedtls_mpi_free( &P1 );
 979:Source\mbedtls_open\library/rsa.c ****     mbedtls_mpi_free( &Q1 );
 980:Source\mbedtls_open\library/rsa.c ****     mbedtls_mpi_free( &R );
 981:Source\mbedtls_open\library/rsa.c **** 
 982:Source\mbedtls_open\library/rsa.c ****     if( f_rng != NULL )
 983:Source\mbedtls_open\library/rsa.c ****     {
 984:Source\mbedtls_open\library/rsa.c **** #if defined(MBEDTLS_RSA_NO_CRT)
 985:Source\mbedtls_open\library/rsa.c ****         mbedtls_mpi_free( &D_blind );
 986:Source\mbedtls_open\library/rsa.c **** #else
 987:Source\mbedtls_open\library/rsa.c ****         mbedtls_mpi_free( &DP_blind );
 988:Source\mbedtls_open\library/rsa.c ****         mbedtls_mpi_free( &DQ_blind );
 989:Source\mbedtls_open\library/rsa.c **** #endif
 990:Source\mbedtls_open\library/rsa.c ****     }
 991:Source\mbedtls_open\library/rsa.c **** 
 992:Source\mbedtls_open\library/rsa.c ****     mbedtls_mpi_free( &T );
 993:Source\mbedtls_open\library/rsa.c **** 
 994:Source\mbedtls_open\library/rsa.c **** #if !defined(MBEDTLS_RSA_NO_CRT)
 995:Source\mbedtls_open\library/rsa.c ****     mbedtls_mpi_free( &TP ); mbedtls_mpi_free( &TQ );
 996:Source\mbedtls_open\library/rsa.c **** #endif
 997:Source\mbedtls_open\library/rsa.c **** 
 998:Source\mbedtls_open\library/rsa.c ****     mbedtls_mpi_free( &C );
 999:Source\mbedtls_open\library/rsa.c ****     mbedtls_mpi_free( &I );
1000:Source\mbedtls_open\library/rsa.c **** 
1001:Source\mbedtls_open\library/rsa.c ****     if( ret != 0 )
1002:Source\mbedtls_open\library/rsa.c ****         return( MBEDTLS_ERR_RSA_PRIVATE_FAILED + ret );
1003:Source\mbedtls_open\library/rsa.c **** 
1004:Source\mbedtls_open\library/rsa.c ****     return( 0 );
1005:Source\mbedtls_open\library/rsa.c **** }
1006:Source\mbedtls_open\library/rsa.c **** 
1007:Source\mbedtls_open\library/rsa.c **** #if defined(MBEDTLS_PKCS1_V21)
1008:Source\mbedtls_open\library/rsa.c **** /**
1009:Source\mbedtls_open\library/rsa.c ****  * Generate and apply the MGF1 operation (from PKCS#1 v2.1) to a buffer.
1010:Source\mbedtls_open\library/rsa.c ****  *
1011:Source\mbedtls_open\library/rsa.c ****  * \param dst       buffer to mask
1012:Source\mbedtls_open\library/rsa.c ****  * \param dlen      length of destination buffer
1013:Source\mbedtls_open\library/rsa.c ****  * \param src       source of the mask generation
1014:Source\mbedtls_open\library/rsa.c ****  * \param slen      length of the source buffer
1015:Source\mbedtls_open\library/rsa.c ****  * \param md_ctx    message digest context to use
1016:Source\mbedtls_open\library/rsa.c ****  */
1017:Source\mbedtls_open\library/rsa.c **** static int mgf_mask( unsigned char *dst, size_t dlen, unsigned char *src,
1018:Source\mbedtls_open\library/rsa.c ****                       size_t slen, mbedtls_md_context_t *md_ctx )
1019:Source\mbedtls_open\library/rsa.c **** {
 385              		.loc 1 1019 0
 386              		.cfi_startproc
 387              		@ args = 4, pretend = 0, frame = 88
 388              		@ frame_needed = 0, uses_anonymous_args = 0
 389              	.LVL42:
 390 0000 F0B5     		push	{r4, r5, r6, r7, lr}
 391              		.cfi_def_cfa_offset 20
ARM GAS  C:\Users\Phuong\AppData\Local\Temp\ccgu0w7m.s 			page 26


 392              		.cfi_offset 4, -20
 393              		.cfi_offset 5, -16
 394              		.cfi_offset 6, -12
 395              		.cfi_offset 7, -8
 396              		.cfi_offset 14, -4
 397 0002 4746     		mov	r7, r8
 398 0004 80B4     		push	{r7}
 399              		.cfi_def_cfa_offset 24
 400              		.cfi_offset 8, -24
 401 0006 96B0     		sub	sp, sp, #88
 402              		.cfi_def_cfa_offset 112
 403 0008 0400     		movs	r4, r0
 404 000a 0D00     		movs	r5, r1
 405 000c 0192     		str	r2, [sp, #4]
 406 000e 0293     		str	r3, [sp, #8]
 407              	.LVL43:
1020:Source\mbedtls_open\library/rsa.c ****     unsigned char mask[MBEDTLS_MD_MAX_SIZE];
1021:Source\mbedtls_open\library/rsa.c ****     unsigned char counter[4];
1022:Source\mbedtls_open\library/rsa.c ****     unsigned char *p;
1023:Source\mbedtls_open\library/rsa.c ****     unsigned int hlen;
1024:Source\mbedtls_open\library/rsa.c ****     size_t i, use_len;
1025:Source\mbedtls_open\library/rsa.c ****     int ret = 0;
1026:Source\mbedtls_open\library/rsa.c **** 
1027:Source\mbedtls_open\library/rsa.c ****     memset( mask, 0, MBEDTLS_MD_MAX_SIZE );
 408              		.loc 1 1027 0
 409 0010 4022     		movs	r2, #64
 410              	.LVL44:
 411 0012 0021     		movs	r1, #0
 412              	.LVL45:
 413 0014 06A8     		add	r0, sp, #24
 414              	.LVL46:
 415 0016 FFF7FEFF 		bl	memset
 416              	.LVL47:
1028:Source\mbedtls_open\library/rsa.c ****     memset( counter, 0, 4 );
 417              		.loc 1 1028 0
 418 001a 0023     		movs	r3, #0
 419 001c 0593     		str	r3, [sp, #20]
1029:Source\mbedtls_open\library/rsa.c **** 
1030:Source\mbedtls_open\library/rsa.c ****     hlen = mbedtls_md_get_size( md_ctx->md_info );
 420              		.loc 1 1030 0
 421 001e 1C9B     		ldr	r3, [sp, #112]
 422 0020 1B68     		ldr	r3, [r3]
 423 0022 0393     		str	r3, [sp, #12]
 424 0024 1800     		movs	r0, r3
 425 0026 FFF7FEFF 		bl	mbedtls_md_get_size
 426              	.LVL48:
 427 002a 8046     		mov	r8, r0
 428              	.LVL49:
1025:Source\mbedtls_open\library/rsa.c **** 
 429              		.loc 1 1025 0
 430 002c 0026     		movs	r6, #0
1031:Source\mbedtls_open\library/rsa.c **** 
1032:Source\mbedtls_open\library/rsa.c ****     /* Generate and apply dbMask */
1033:Source\mbedtls_open\library/rsa.c ****     p = dst;
1034:Source\mbedtls_open\library/rsa.c **** 
1035:Source\mbedtls_open\library/rsa.c ****     while( dlen > 0 )
 431              		.loc 1 1035 0
ARM GAS  C:\Users\Phuong\AppData\Local\Temp\ccgu0w7m.s 			page 27


 432 002e 2DE0     		b	.L34
 433              	.LVL50:
 434              	.L39:
1036:Source\mbedtls_open\library/rsa.c ****     {
1037:Source\mbedtls_open\library/rsa.c ****         use_len = hlen;
1038:Source\mbedtls_open\library/rsa.c ****         if( dlen < hlen )
 435              		.loc 1 1038 0
 436 0030 4545     		cmp	r5, r8
 437 0032 01D3     		bcc	.L40
1037:Source\mbedtls_open\library/rsa.c ****         if( dlen < hlen )
 438              		.loc 1 1037 0
 439 0034 4746     		mov	r7, r8
 440 0036 00E0     		b	.L35
 441              	.L40:
1039:Source\mbedtls_open\library/rsa.c ****             use_len = dlen;
 442              		.loc 1 1039 0
 443 0038 2F00     		movs	r7, r5
 444              	.L35:
 445              	.LVL51:
1040:Source\mbedtls_open\library/rsa.c **** 
1041:Source\mbedtls_open\library/rsa.c ****         if( ( ret = mbedtls_md_starts( md_ctx ) ) != 0 )
 446              		.loc 1 1041 0
 447 003a 1C98     		ldr	r0, [sp, #112]
 448 003c FFF7FEFF 		bl	mbedtls_md_starts
 449              	.LVL52:
 450 0040 061E     		subs	r6, r0, #0
 451              	.LVL53:
 452 0042 25D1     		bne	.L36
1042:Source\mbedtls_open\library/rsa.c ****             goto exit;
1043:Source\mbedtls_open\library/rsa.c ****         if( ( ret = mbedtls_md_update( md_ctx, src, slen ) ) != 0 )
 453              		.loc 1 1043 0
 454 0044 029A     		ldr	r2, [sp, #8]
 455 0046 0199     		ldr	r1, [sp, #4]
 456 0048 1C98     		ldr	r0, [sp, #112]
 457              	.LVL54:
 458 004a FFF7FEFF 		bl	mbedtls_md_update
 459              	.LVL55:
 460 004e 061E     		subs	r6, r0, #0
 461              	.LVL56:
 462 0050 1ED1     		bne	.L36
1044:Source\mbedtls_open\library/rsa.c ****             goto exit;
1045:Source\mbedtls_open\library/rsa.c ****         if( ( ret = mbedtls_md_update( md_ctx, counter, 4 ) ) != 0 )
 463              		.loc 1 1045 0
 464 0052 0422     		movs	r2, #4
 465 0054 05A9     		add	r1, sp, #20
 466 0056 1C98     		ldr	r0, [sp, #112]
 467              	.LVL57:
 468 0058 FFF7FEFF 		bl	mbedtls_md_update
 469              	.LVL58:
 470 005c 061E     		subs	r6, r0, #0
 471              	.LVL59:
 472 005e 17D1     		bne	.L36
1046:Source\mbedtls_open\library/rsa.c ****             goto exit;
1047:Source\mbedtls_open\library/rsa.c ****         if( ( ret = mbedtls_md_finish( md_ctx, mask ) ) != 0 )
 473              		.loc 1 1047 0
 474 0060 06A9     		add	r1, sp, #24
 475 0062 1C98     		ldr	r0, [sp, #112]
ARM GAS  C:\Users\Phuong\AppData\Local\Temp\ccgu0w7m.s 			page 28


 476              	.LVL60:
 477 0064 FFF7FEFF 		bl	mbedtls_md_finish
 478              	.LVL61:
 479 0068 061E     		subs	r6, r0, #0
 480              	.LVL62:
 481 006a 11D1     		bne	.L36
 482 006c 0023     		movs	r3, #0
 483 006e 06E0     		b	.L37
 484              	.LVL63:
 485              	.L38:
1048:Source\mbedtls_open\library/rsa.c ****             goto exit;
1049:Source\mbedtls_open\library/rsa.c **** 
1050:Source\mbedtls_open\library/rsa.c ****         for( i = 0; i < use_len; ++i )
1051:Source\mbedtls_open\library/rsa.c ****             *p++ ^= mask[i];
 486              		.loc 1 1051 0 discriminator 3
 487 0070 06AA     		add	r2, sp, #24
 488 0072 D15C     		ldrb	r1, [r2, r3]
 489 0074 2278     		ldrb	r2, [r4]
 490 0076 4A40     		eors	r2, r1
 491 0078 2270     		strb	r2, [r4]
1050:Source\mbedtls_open\library/rsa.c ****             *p++ ^= mask[i];
 492              		.loc 1 1050 0 discriminator 3
 493 007a 0133     		adds	r3, r3, #1
 494              	.LVL64:
 495              		.loc 1 1051 0 discriminator 3
 496 007c 0134     		adds	r4, r4, #1
 497              	.LVL65:
 498              	.L37:
1050:Source\mbedtls_open\library/rsa.c ****             *p++ ^= mask[i];
 499              		.loc 1 1050 0 discriminator 1
 500 007e BB42     		cmp	r3, r7
 501 0080 F6D3     		bcc	.L38
1052:Source\mbedtls_open\library/rsa.c **** 
1053:Source\mbedtls_open\library/rsa.c ****         counter[3]++;
 502              		.loc 1 1053 0
 503 0082 05AA     		add	r2, sp, #20
 504 0084 D378     		ldrb	r3, [r2, #3]
 505              	.LVL66:
 506 0086 0133     		adds	r3, r3, #1
 507 0088 D370     		strb	r3, [r2, #3]
1054:Source\mbedtls_open\library/rsa.c **** 
1055:Source\mbedtls_open\library/rsa.c ****         dlen -= use_len;
 508              		.loc 1 1055 0
 509 008a ED1B     		subs	r5, r5, r7
 510              	.LVL67:
 511              	.L34:
1035:Source\mbedtls_open\library/rsa.c ****     {
 512              		.loc 1 1035 0
 513 008c 002D     		cmp	r5, #0
 514 008e CFD1     		bne	.L39
 515              	.L36:
1056:Source\mbedtls_open\library/rsa.c ****     }
1057:Source\mbedtls_open\library/rsa.c **** 
1058:Source\mbedtls_open\library/rsa.c **** exit:
1059:Source\mbedtls_open\library/rsa.c ****     mbedtls_platform_zeroize( mask, sizeof( mask ) );
 516              		.loc 1 1059 0
 517 0090 4021     		movs	r1, #64
ARM GAS  C:\Users\Phuong\AppData\Local\Temp\ccgu0w7m.s 			page 29


 518 0092 06A8     		add	r0, sp, #24
 519 0094 FFF7FEFF 		bl	mbedtls_platform_zeroize
 520              	.LVL68:
1060:Source\mbedtls_open\library/rsa.c **** 
1061:Source\mbedtls_open\library/rsa.c ****     return( ret );
1062:Source\mbedtls_open\library/rsa.c **** }
 521              		.loc 1 1062 0
 522 0098 3000     		movs	r0, r6
 523 009a 16B0     		add	sp, sp, #88
 524              		@ sp needed
 525              	.LVL69:
 526              	.LVL70:
 527              	.LVL71:
 528              	.LVL72:
 529 009c 04BC     		pop	{r2}
 530 009e 9046     		mov	r8, r2
 531 00a0 F0BD     		pop	{r4, r5, r6, r7, pc}
 532              		.cfi_endproc
 533              	.LFE29:
 534              		.size	mgf_mask, .-mgf_mask
 535 00a2 C046     		.section	.text.rsa_rsassa_pkcs1_v15_encode,"ax",%progbits
 536              		.align	2
 537              		.code	16
 538              		.thumb_func
 539              		.type	rsa_rsassa_pkcs1_v15_encode, %function
 540              	rsa_rsassa_pkcs1_v15_encode:
 541              	.LFB37:
1063:Source\mbedtls_open\library/rsa.c **** #endif /* MBEDTLS_PKCS1_V21 */
1064:Source\mbedtls_open\library/rsa.c **** 
1065:Source\mbedtls_open\library/rsa.c **** #if defined(MBEDTLS_PKCS1_V21)
1066:Source\mbedtls_open\library/rsa.c **** /*
1067:Source\mbedtls_open\library/rsa.c ****  * Implementation of the PKCS#1 v2.1 RSAES-OAEP-ENCRYPT function
1068:Source\mbedtls_open\library/rsa.c ****  */
1069:Source\mbedtls_open\library/rsa.c **** int mbedtls_rsa_rsaes_oaep_encrypt( mbedtls_rsa_context *ctx,
1070:Source\mbedtls_open\library/rsa.c ****                             int (*f_rng)(void *, unsigned char *, size_t),
1071:Source\mbedtls_open\library/rsa.c ****                             void *p_rng,
1072:Source\mbedtls_open\library/rsa.c ****                             int mode,
1073:Source\mbedtls_open\library/rsa.c ****                             const unsigned char *label, size_t label_len,
1074:Source\mbedtls_open\library/rsa.c ****                             size_t ilen,
1075:Source\mbedtls_open\library/rsa.c ****                             const unsigned char *input,
1076:Source\mbedtls_open\library/rsa.c ****                             unsigned char *output )
1077:Source\mbedtls_open\library/rsa.c **** {
1078:Source\mbedtls_open\library/rsa.c ****     size_t olen;
1079:Source\mbedtls_open\library/rsa.c ****     int ret;
1080:Source\mbedtls_open\library/rsa.c ****     unsigned char *p = output;
1081:Source\mbedtls_open\library/rsa.c ****     unsigned int hlen;
1082:Source\mbedtls_open\library/rsa.c ****     const mbedtls_md_info_t *md_info;
1083:Source\mbedtls_open\library/rsa.c ****     mbedtls_md_context_t md_ctx;
1084:Source\mbedtls_open\library/rsa.c **** 
1085:Source\mbedtls_open\library/rsa.c ****     if( mode == MBEDTLS_RSA_PRIVATE && ctx->padding != MBEDTLS_RSA_PKCS_V21 )
1086:Source\mbedtls_open\library/rsa.c ****         return( MBEDTLS_ERR_RSA_BAD_INPUT_DATA );
1087:Source\mbedtls_open\library/rsa.c **** 
1088:Source\mbedtls_open\library/rsa.c ****     if( f_rng == NULL )
1089:Source\mbedtls_open\library/rsa.c ****         return( MBEDTLS_ERR_RSA_BAD_INPUT_DATA );
1090:Source\mbedtls_open\library/rsa.c **** 
1091:Source\mbedtls_open\library/rsa.c ****     md_info = mbedtls_md_info_from_type( (mbedtls_md_type_t) ctx->hash_id );
1092:Source\mbedtls_open\library/rsa.c ****     if( md_info == NULL )
ARM GAS  C:\Users\Phuong\AppData\Local\Temp\ccgu0w7m.s 			page 30


1093:Source\mbedtls_open\library/rsa.c ****         return( MBEDTLS_ERR_RSA_BAD_INPUT_DATA );
1094:Source\mbedtls_open\library/rsa.c **** 
1095:Source\mbedtls_open\library/rsa.c ****     olen = ctx->len;
1096:Source\mbedtls_open\library/rsa.c ****     hlen = mbedtls_md_get_size( md_info );
1097:Source\mbedtls_open\library/rsa.c **** 
1098:Source\mbedtls_open\library/rsa.c ****     /* first comparison checks for overflow */
1099:Source\mbedtls_open\library/rsa.c ****     if( ilen + 2 * hlen + 2 < ilen || olen < ilen + 2 * hlen + 2 )
1100:Source\mbedtls_open\library/rsa.c ****         return( MBEDTLS_ERR_RSA_BAD_INPUT_DATA );
1101:Source\mbedtls_open\library/rsa.c **** 
1102:Source\mbedtls_open\library/rsa.c ****     memset( output, 0, olen );
1103:Source\mbedtls_open\library/rsa.c **** 
1104:Source\mbedtls_open\library/rsa.c ****     *p++ = 0;
1105:Source\mbedtls_open\library/rsa.c **** 
1106:Source\mbedtls_open\library/rsa.c ****     /* Generate a random octet string seed */
1107:Source\mbedtls_open\library/rsa.c ****     if( ( ret = f_rng( p_rng, p, hlen ) ) != 0 )
1108:Source\mbedtls_open\library/rsa.c ****         return( MBEDTLS_ERR_RSA_RNG_FAILED + ret );
1109:Source\mbedtls_open\library/rsa.c **** 
1110:Source\mbedtls_open\library/rsa.c ****     p += hlen;
1111:Source\mbedtls_open\library/rsa.c **** 
1112:Source\mbedtls_open\library/rsa.c ****     /* Construct DB */
1113:Source\mbedtls_open\library/rsa.c ****     if( ( ret = mbedtls_md( md_info, label, label_len, p ) ) != 0 )
1114:Source\mbedtls_open\library/rsa.c ****         return( ret );
1115:Source\mbedtls_open\library/rsa.c ****     p += hlen;
1116:Source\mbedtls_open\library/rsa.c ****     p += olen - 2 * hlen - 2 - ilen;
1117:Source\mbedtls_open\library/rsa.c ****     *p++ = 1;
1118:Source\mbedtls_open\library/rsa.c ****     memcpy( p, input, ilen );
1119:Source\mbedtls_open\library/rsa.c **** 
1120:Source\mbedtls_open\library/rsa.c ****     mbedtls_md_init( &md_ctx );
1121:Source\mbedtls_open\library/rsa.c ****     if( ( ret = mbedtls_md_setup( &md_ctx, md_info, 0 ) ) != 0 )
1122:Source\mbedtls_open\library/rsa.c ****         goto exit;
1123:Source\mbedtls_open\library/rsa.c **** 
1124:Source\mbedtls_open\library/rsa.c ****     /* maskedDB: Apply dbMask to DB */
1125:Source\mbedtls_open\library/rsa.c ****     if( ( ret = mgf_mask( output + hlen + 1, olen - hlen - 1, output + 1, hlen,
1126:Source\mbedtls_open\library/rsa.c ****                           &md_ctx ) ) != 0 )
1127:Source\mbedtls_open\library/rsa.c ****         goto exit;
1128:Source\mbedtls_open\library/rsa.c **** 
1129:Source\mbedtls_open\library/rsa.c ****     /* maskedSeed: Apply seedMask to seed */
1130:Source\mbedtls_open\library/rsa.c ****     if( ( ret = mgf_mask( output + 1, hlen, output + hlen + 1, olen - hlen - 1,
1131:Source\mbedtls_open\library/rsa.c ****                           &md_ctx ) ) != 0 )
1132:Source\mbedtls_open\library/rsa.c ****         goto exit;
1133:Source\mbedtls_open\library/rsa.c **** 
1134:Source\mbedtls_open\library/rsa.c **** exit:
1135:Source\mbedtls_open\library/rsa.c ****     mbedtls_md_free( &md_ctx );
1136:Source\mbedtls_open\library/rsa.c **** 
1137:Source\mbedtls_open\library/rsa.c ****     if( ret != 0 )
1138:Source\mbedtls_open\library/rsa.c ****         return( ret );
1139:Source\mbedtls_open\library/rsa.c **** 
1140:Source\mbedtls_open\library/rsa.c ****     return( ( mode == MBEDTLS_RSA_PUBLIC )
1141:Source\mbedtls_open\library/rsa.c ****             ? mbedtls_rsa_public(  ctx, output, output )
1142:Source\mbedtls_open\library/rsa.c ****             : mbedtls_rsa_private( ctx, f_rng, p_rng, output, output ) );
1143:Source\mbedtls_open\library/rsa.c **** }
1144:Source\mbedtls_open\library/rsa.c **** #endif /* MBEDTLS_PKCS1_V21 */
1145:Source\mbedtls_open\library/rsa.c **** 
1146:Source\mbedtls_open\library/rsa.c **** #if defined(MBEDTLS_PKCS1_V15)
1147:Source\mbedtls_open\library/rsa.c **** /*
1148:Source\mbedtls_open\library/rsa.c ****  * Implementation of the PKCS#1 v2.1 RSAES-PKCS1-V1_5-ENCRYPT function
1149:Source\mbedtls_open\library/rsa.c ****  */
ARM GAS  C:\Users\Phuong\AppData\Local\Temp\ccgu0w7m.s 			page 31


1150:Source\mbedtls_open\library/rsa.c **** int mbedtls_rsa_rsaes_pkcs1_v15_encrypt( mbedtls_rsa_context *ctx,
1151:Source\mbedtls_open\library/rsa.c ****                                  int (*f_rng)(void *, unsigned char *, size_t),
1152:Source\mbedtls_open\library/rsa.c ****                                  void *p_rng,
1153:Source\mbedtls_open\library/rsa.c ****                                  int mode, size_t ilen,
1154:Source\mbedtls_open\library/rsa.c ****                                  const unsigned char *input,
1155:Source\mbedtls_open\library/rsa.c ****                                  unsigned char *output )
1156:Source\mbedtls_open\library/rsa.c **** {
1157:Source\mbedtls_open\library/rsa.c ****     size_t nb_pad, olen;
1158:Source\mbedtls_open\library/rsa.c ****     int ret;
1159:Source\mbedtls_open\library/rsa.c ****     unsigned char *p = output;
1160:Source\mbedtls_open\library/rsa.c **** 
1161:Source\mbedtls_open\library/rsa.c ****     if( mode == MBEDTLS_RSA_PRIVATE && ctx->padding != MBEDTLS_RSA_PKCS_V15 )
1162:Source\mbedtls_open\library/rsa.c ****         return( MBEDTLS_ERR_RSA_BAD_INPUT_DATA );
1163:Source\mbedtls_open\library/rsa.c **** 
1164:Source\mbedtls_open\library/rsa.c ****     // We don't check p_rng because it won't be dereferenced here
1165:Source\mbedtls_open\library/rsa.c ****     if( f_rng == NULL || input == NULL || output == NULL )
1166:Source\mbedtls_open\library/rsa.c ****         return( MBEDTLS_ERR_RSA_BAD_INPUT_DATA );
1167:Source\mbedtls_open\library/rsa.c **** 
1168:Source\mbedtls_open\library/rsa.c ****     olen = ctx->len;
1169:Source\mbedtls_open\library/rsa.c **** 
1170:Source\mbedtls_open\library/rsa.c ****     /* first comparison checks for overflow */
1171:Source\mbedtls_open\library/rsa.c ****     if( ilen + 11 < ilen || olen < ilen + 11 )
1172:Source\mbedtls_open\library/rsa.c ****         return( MBEDTLS_ERR_RSA_BAD_INPUT_DATA );
1173:Source\mbedtls_open\library/rsa.c **** 
1174:Source\mbedtls_open\library/rsa.c ****     nb_pad = olen - 3 - ilen;
1175:Source\mbedtls_open\library/rsa.c **** 
1176:Source\mbedtls_open\library/rsa.c ****     *p++ = 0;
1177:Source\mbedtls_open\library/rsa.c ****     if( mode == MBEDTLS_RSA_PUBLIC )
1178:Source\mbedtls_open\library/rsa.c ****     {
1179:Source\mbedtls_open\library/rsa.c ****         *p++ = MBEDTLS_RSA_CRYPT;
1180:Source\mbedtls_open\library/rsa.c **** 
1181:Source\mbedtls_open\library/rsa.c ****         while( nb_pad-- > 0 )
1182:Source\mbedtls_open\library/rsa.c ****         {
1183:Source\mbedtls_open\library/rsa.c ****             int rng_dl = 100;
1184:Source\mbedtls_open\library/rsa.c **** 
1185:Source\mbedtls_open\library/rsa.c ****             do {
1186:Source\mbedtls_open\library/rsa.c ****                 ret = f_rng( p_rng, p, 1 );
1187:Source\mbedtls_open\library/rsa.c ****             } while( *p == 0 && --rng_dl && ret == 0 );
1188:Source\mbedtls_open\library/rsa.c **** 
1189:Source\mbedtls_open\library/rsa.c ****             /* Check if RNG failed to generate data */
1190:Source\mbedtls_open\library/rsa.c ****             if( rng_dl == 0 || ret != 0 )
1191:Source\mbedtls_open\library/rsa.c ****                 return( MBEDTLS_ERR_RSA_RNG_FAILED + ret );
1192:Source\mbedtls_open\library/rsa.c **** 
1193:Source\mbedtls_open\library/rsa.c ****             p++;
1194:Source\mbedtls_open\library/rsa.c ****         }
1195:Source\mbedtls_open\library/rsa.c ****     }
1196:Source\mbedtls_open\library/rsa.c ****     else
1197:Source\mbedtls_open\library/rsa.c ****     {
1198:Source\mbedtls_open\library/rsa.c ****         *p++ = MBEDTLS_RSA_SIGN;
1199:Source\mbedtls_open\library/rsa.c **** 
1200:Source\mbedtls_open\library/rsa.c ****         while( nb_pad-- > 0 )
1201:Source\mbedtls_open\library/rsa.c ****             *p++ = 0xFF;
1202:Source\mbedtls_open\library/rsa.c ****     }
1203:Source\mbedtls_open\library/rsa.c **** 
1204:Source\mbedtls_open\library/rsa.c ****     *p++ = 0;
1205:Source\mbedtls_open\library/rsa.c ****     memcpy( p, input, ilen );
1206:Source\mbedtls_open\library/rsa.c **** 
ARM GAS  C:\Users\Phuong\AppData\Local\Temp\ccgu0w7m.s 			page 32


1207:Source\mbedtls_open\library/rsa.c ****     return( ( mode == MBEDTLS_RSA_PUBLIC )
1208:Source\mbedtls_open\library/rsa.c ****             ? mbedtls_rsa_public(  ctx, output, output )
1209:Source\mbedtls_open\library/rsa.c ****             : mbedtls_rsa_private( ctx, f_rng, p_rng, output, output ) );
1210:Source\mbedtls_open\library/rsa.c **** }
1211:Source\mbedtls_open\library/rsa.c **** #endif /* MBEDTLS_PKCS1_V15 */
1212:Source\mbedtls_open\library/rsa.c **** 
1213:Source\mbedtls_open\library/rsa.c **** /*
1214:Source\mbedtls_open\library/rsa.c ****  * Add the message padding, then do an RSA operation
1215:Source\mbedtls_open\library/rsa.c ****  */
1216:Source\mbedtls_open\library/rsa.c **** int mbedtls_rsa_pkcs1_encrypt( mbedtls_rsa_context *ctx,
1217:Source\mbedtls_open\library/rsa.c ****                        int (*f_rng)(void *, unsigned char *, size_t),
1218:Source\mbedtls_open\library/rsa.c ****                        void *p_rng,
1219:Source\mbedtls_open\library/rsa.c ****                        int mode, size_t ilen,
1220:Source\mbedtls_open\library/rsa.c ****                        const unsigned char *input,
1221:Source\mbedtls_open\library/rsa.c ****                        unsigned char *output )
1222:Source\mbedtls_open\library/rsa.c **** {
1223:Source\mbedtls_open\library/rsa.c ****     switch( ctx->padding )
1224:Source\mbedtls_open\library/rsa.c ****     {
1225:Source\mbedtls_open\library/rsa.c **** #if defined(MBEDTLS_PKCS1_V15)
1226:Source\mbedtls_open\library/rsa.c ****         case MBEDTLS_RSA_PKCS_V15:
1227:Source\mbedtls_open\library/rsa.c ****             return mbedtls_rsa_rsaes_pkcs1_v15_encrypt( ctx, f_rng, p_rng, mode, ilen,
1228:Source\mbedtls_open\library/rsa.c ****                                                 input, output );
1229:Source\mbedtls_open\library/rsa.c **** #endif
1230:Source\mbedtls_open\library/rsa.c **** 
1231:Source\mbedtls_open\library/rsa.c **** #if defined(MBEDTLS_PKCS1_V21)
1232:Source\mbedtls_open\library/rsa.c ****         case MBEDTLS_RSA_PKCS_V21:
1233:Source\mbedtls_open\library/rsa.c ****             return mbedtls_rsa_rsaes_oaep_encrypt( ctx, f_rng, p_rng, mode, NULL, 0,
1234:Source\mbedtls_open\library/rsa.c ****                                            ilen, input, output );
1235:Source\mbedtls_open\library/rsa.c **** #endif
1236:Source\mbedtls_open\library/rsa.c **** 
1237:Source\mbedtls_open\library/rsa.c ****         default:
1238:Source\mbedtls_open\library/rsa.c ****             return( MBEDTLS_ERR_RSA_INVALID_PADDING );
1239:Source\mbedtls_open\library/rsa.c ****     }
1240:Source\mbedtls_open\library/rsa.c **** }
1241:Source\mbedtls_open\library/rsa.c **** 
1242:Source\mbedtls_open\library/rsa.c **** #if defined(MBEDTLS_PKCS1_V21)
1243:Source\mbedtls_open\library/rsa.c **** /*
1244:Source\mbedtls_open\library/rsa.c ****  * Implementation of the PKCS#1 v2.1 RSAES-OAEP-DECRYPT function
1245:Source\mbedtls_open\library/rsa.c ****  */
1246:Source\mbedtls_open\library/rsa.c **** int mbedtls_rsa_rsaes_oaep_decrypt( mbedtls_rsa_context *ctx,
1247:Source\mbedtls_open\library/rsa.c ****                             int (*f_rng)(void *, unsigned char *, size_t),
1248:Source\mbedtls_open\library/rsa.c ****                             void *p_rng,
1249:Source\mbedtls_open\library/rsa.c ****                             int mode,
1250:Source\mbedtls_open\library/rsa.c ****                             const unsigned char *label, size_t label_len,
1251:Source\mbedtls_open\library/rsa.c ****                             size_t *olen,
1252:Source\mbedtls_open\library/rsa.c ****                             const unsigned char *input,
1253:Source\mbedtls_open\library/rsa.c ****                             unsigned char *output,
1254:Source\mbedtls_open\library/rsa.c ****                             size_t output_max_len )
1255:Source\mbedtls_open\library/rsa.c **** {
1256:Source\mbedtls_open\library/rsa.c ****     int ret;
1257:Source\mbedtls_open\library/rsa.c ****     size_t ilen, i, pad_len;
1258:Source\mbedtls_open\library/rsa.c ****     unsigned char *p, bad, pad_done;
1259:Source\mbedtls_open\library/rsa.c ****     unsigned char buf[MBEDTLS_MPI_MAX_SIZE];
1260:Source\mbedtls_open\library/rsa.c ****     unsigned char lhash[MBEDTLS_MD_MAX_SIZE];
1261:Source\mbedtls_open\library/rsa.c ****     unsigned int hlen;
1262:Source\mbedtls_open\library/rsa.c ****     const mbedtls_md_info_t *md_info;
1263:Source\mbedtls_open\library/rsa.c ****     mbedtls_md_context_t md_ctx;
ARM GAS  C:\Users\Phuong\AppData\Local\Temp\ccgu0w7m.s 			page 33


1264:Source\mbedtls_open\library/rsa.c **** 
1265:Source\mbedtls_open\library/rsa.c ****     /*
1266:Source\mbedtls_open\library/rsa.c ****      * Parameters sanity checks
1267:Source\mbedtls_open\library/rsa.c ****      */
1268:Source\mbedtls_open\library/rsa.c ****     if( mode == MBEDTLS_RSA_PRIVATE && ctx->padding != MBEDTLS_RSA_PKCS_V21 )
1269:Source\mbedtls_open\library/rsa.c ****         return( MBEDTLS_ERR_RSA_BAD_INPUT_DATA );
1270:Source\mbedtls_open\library/rsa.c **** 
1271:Source\mbedtls_open\library/rsa.c ****     ilen = ctx->len;
1272:Source\mbedtls_open\library/rsa.c **** 
1273:Source\mbedtls_open\library/rsa.c ****     if( ilen < 16 || ilen > sizeof( buf ) )
1274:Source\mbedtls_open\library/rsa.c ****         return( MBEDTLS_ERR_RSA_BAD_INPUT_DATA );
1275:Source\mbedtls_open\library/rsa.c **** 
1276:Source\mbedtls_open\library/rsa.c ****     md_info = mbedtls_md_info_from_type( (mbedtls_md_type_t) ctx->hash_id );
1277:Source\mbedtls_open\library/rsa.c ****     if( md_info == NULL )
1278:Source\mbedtls_open\library/rsa.c ****         return( MBEDTLS_ERR_RSA_BAD_INPUT_DATA );
1279:Source\mbedtls_open\library/rsa.c **** 
1280:Source\mbedtls_open\library/rsa.c ****     hlen = mbedtls_md_get_size( md_info );
1281:Source\mbedtls_open\library/rsa.c **** 
1282:Source\mbedtls_open\library/rsa.c ****     // checking for integer underflow
1283:Source\mbedtls_open\library/rsa.c ****     if( 2 * hlen + 2 > ilen )
1284:Source\mbedtls_open\library/rsa.c ****         return( MBEDTLS_ERR_RSA_BAD_INPUT_DATA );
1285:Source\mbedtls_open\library/rsa.c **** 
1286:Source\mbedtls_open\library/rsa.c ****     /*
1287:Source\mbedtls_open\library/rsa.c ****      * RSA operation
1288:Source\mbedtls_open\library/rsa.c ****      */
1289:Source\mbedtls_open\library/rsa.c ****     ret = ( mode == MBEDTLS_RSA_PUBLIC )
1290:Source\mbedtls_open\library/rsa.c ****           ? mbedtls_rsa_public(  ctx, input, buf )
1291:Source\mbedtls_open\library/rsa.c ****           : mbedtls_rsa_private( ctx, f_rng, p_rng, input, buf );
1292:Source\mbedtls_open\library/rsa.c **** 
1293:Source\mbedtls_open\library/rsa.c ****     if( ret != 0 )
1294:Source\mbedtls_open\library/rsa.c ****         goto cleanup;
1295:Source\mbedtls_open\library/rsa.c **** 
1296:Source\mbedtls_open\library/rsa.c ****     /*
1297:Source\mbedtls_open\library/rsa.c ****      * Unmask data and generate lHash
1298:Source\mbedtls_open\library/rsa.c ****      */
1299:Source\mbedtls_open\library/rsa.c ****     mbedtls_md_init( &md_ctx );
1300:Source\mbedtls_open\library/rsa.c ****     if( ( ret = mbedtls_md_setup( &md_ctx, md_info, 0 ) ) != 0 )
1301:Source\mbedtls_open\library/rsa.c ****     {
1302:Source\mbedtls_open\library/rsa.c ****         mbedtls_md_free( &md_ctx );
1303:Source\mbedtls_open\library/rsa.c ****         goto cleanup;
1304:Source\mbedtls_open\library/rsa.c ****     }
1305:Source\mbedtls_open\library/rsa.c **** 
1306:Source\mbedtls_open\library/rsa.c ****     /* seed: Apply seedMask to maskedSeed */
1307:Source\mbedtls_open\library/rsa.c ****     if( ( ret = mgf_mask( buf + 1, hlen, buf + hlen + 1, ilen - hlen - 1,
1308:Source\mbedtls_open\library/rsa.c ****                           &md_ctx ) ) != 0 ||
1309:Source\mbedtls_open\library/rsa.c ****     /* DB: Apply dbMask to maskedDB */
1310:Source\mbedtls_open\library/rsa.c ****         ( ret = mgf_mask( buf + hlen + 1, ilen - hlen - 1, buf + 1, hlen,
1311:Source\mbedtls_open\library/rsa.c ****                           &md_ctx ) ) != 0 )
1312:Source\mbedtls_open\library/rsa.c ****     {
1313:Source\mbedtls_open\library/rsa.c ****         mbedtls_md_free( &md_ctx );
1314:Source\mbedtls_open\library/rsa.c ****         goto cleanup;
1315:Source\mbedtls_open\library/rsa.c ****     }
1316:Source\mbedtls_open\library/rsa.c **** 
1317:Source\mbedtls_open\library/rsa.c ****     mbedtls_md_free( &md_ctx );
1318:Source\mbedtls_open\library/rsa.c **** 
1319:Source\mbedtls_open\library/rsa.c ****     /* Generate lHash */
1320:Source\mbedtls_open\library/rsa.c ****     if( ( ret = mbedtls_md( md_info, label, label_len, lhash ) ) != 0 )
ARM GAS  C:\Users\Phuong\AppData\Local\Temp\ccgu0w7m.s 			page 34


1321:Source\mbedtls_open\library/rsa.c ****         goto cleanup;
1322:Source\mbedtls_open\library/rsa.c **** 
1323:Source\mbedtls_open\library/rsa.c ****     /*
1324:Source\mbedtls_open\library/rsa.c ****      * Check contents, in "constant-time"
1325:Source\mbedtls_open\library/rsa.c ****      */
1326:Source\mbedtls_open\library/rsa.c ****     p = buf;
1327:Source\mbedtls_open\library/rsa.c ****     bad = 0;
1328:Source\mbedtls_open\library/rsa.c **** 
1329:Source\mbedtls_open\library/rsa.c ****     bad |= *p++; /* First byte must be 0 */
1330:Source\mbedtls_open\library/rsa.c **** 
1331:Source\mbedtls_open\library/rsa.c ****     p += hlen; /* Skip seed */
1332:Source\mbedtls_open\library/rsa.c **** 
1333:Source\mbedtls_open\library/rsa.c ****     /* Check lHash */
1334:Source\mbedtls_open\library/rsa.c ****     for( i = 0; i < hlen; i++ )
1335:Source\mbedtls_open\library/rsa.c ****         bad |= lhash[i] ^ *p++;
1336:Source\mbedtls_open\library/rsa.c **** 
1337:Source\mbedtls_open\library/rsa.c ****     /* Get zero-padding len, but always read till end of buffer
1338:Source\mbedtls_open\library/rsa.c ****      * (minus one, for the 01 byte) */
1339:Source\mbedtls_open\library/rsa.c ****     pad_len = 0;
1340:Source\mbedtls_open\library/rsa.c ****     pad_done = 0;
1341:Source\mbedtls_open\library/rsa.c ****     for( i = 0; i < ilen - 2 * hlen - 2; i++ )
1342:Source\mbedtls_open\library/rsa.c ****     {
1343:Source\mbedtls_open\library/rsa.c ****         pad_done |= p[i];
1344:Source\mbedtls_open\library/rsa.c ****         pad_len += ((pad_done | (unsigned char)-pad_done) >> 7) ^ 1;
1345:Source\mbedtls_open\library/rsa.c ****     }
1346:Source\mbedtls_open\library/rsa.c **** 
1347:Source\mbedtls_open\library/rsa.c ****     p += pad_len;
1348:Source\mbedtls_open\library/rsa.c ****     bad |= *p++ ^ 0x01;
1349:Source\mbedtls_open\library/rsa.c **** 
1350:Source\mbedtls_open\library/rsa.c ****     /*
1351:Source\mbedtls_open\library/rsa.c ****      * The only information "leaked" is whether the padding was correct or not
1352:Source\mbedtls_open\library/rsa.c ****      * (eg, no data is copied if it was not correct). This meets the
1353:Source\mbedtls_open\library/rsa.c ****      * recommendations in PKCS#1 v2.2: an opponent cannot distinguish between
1354:Source\mbedtls_open\library/rsa.c ****      * the different error conditions.
1355:Source\mbedtls_open\library/rsa.c ****      */
1356:Source\mbedtls_open\library/rsa.c ****     if( bad != 0 )
1357:Source\mbedtls_open\library/rsa.c ****     {
1358:Source\mbedtls_open\library/rsa.c ****         ret = MBEDTLS_ERR_RSA_INVALID_PADDING;
1359:Source\mbedtls_open\library/rsa.c ****         goto cleanup;
1360:Source\mbedtls_open\library/rsa.c ****     }
1361:Source\mbedtls_open\library/rsa.c **** 
1362:Source\mbedtls_open\library/rsa.c ****     if( ilen - ( p - buf ) > output_max_len )
1363:Source\mbedtls_open\library/rsa.c ****     {
1364:Source\mbedtls_open\library/rsa.c ****         ret = MBEDTLS_ERR_RSA_OUTPUT_TOO_LARGE;
1365:Source\mbedtls_open\library/rsa.c ****         goto cleanup;
1366:Source\mbedtls_open\library/rsa.c ****     }
1367:Source\mbedtls_open\library/rsa.c **** 
1368:Source\mbedtls_open\library/rsa.c ****     *olen = ilen - (p - buf);
1369:Source\mbedtls_open\library/rsa.c ****     memcpy( output, p, *olen );
1370:Source\mbedtls_open\library/rsa.c ****     ret = 0;
1371:Source\mbedtls_open\library/rsa.c **** 
1372:Source\mbedtls_open\library/rsa.c **** cleanup:
1373:Source\mbedtls_open\library/rsa.c ****     mbedtls_platform_zeroize( buf, sizeof( buf ) );
1374:Source\mbedtls_open\library/rsa.c ****     mbedtls_platform_zeroize( lhash, sizeof( lhash ) );
1375:Source\mbedtls_open\library/rsa.c **** 
1376:Source\mbedtls_open\library/rsa.c ****     return( ret );
1377:Source\mbedtls_open\library/rsa.c **** }
ARM GAS  C:\Users\Phuong\AppData\Local\Temp\ccgu0w7m.s 			page 35


1378:Source\mbedtls_open\library/rsa.c **** #endif /* MBEDTLS_PKCS1_V21 */
1379:Source\mbedtls_open\library/rsa.c **** 
1380:Source\mbedtls_open\library/rsa.c **** #if defined(MBEDTLS_PKCS1_V15)
1381:Source\mbedtls_open\library/rsa.c **** /*
1382:Source\mbedtls_open\library/rsa.c ****  * Implementation of the PKCS#1 v2.1 RSAES-PKCS1-V1_5-DECRYPT function
1383:Source\mbedtls_open\library/rsa.c ****  */
1384:Source\mbedtls_open\library/rsa.c **** int mbedtls_rsa_rsaes_pkcs1_v15_decrypt( mbedtls_rsa_context *ctx,
1385:Source\mbedtls_open\library/rsa.c ****                                  int (*f_rng)(void *, unsigned char *, size_t),
1386:Source\mbedtls_open\library/rsa.c ****                                  void *p_rng,
1387:Source\mbedtls_open\library/rsa.c ****                                  int mode, size_t *olen,
1388:Source\mbedtls_open\library/rsa.c ****                                  const unsigned char *input,
1389:Source\mbedtls_open\library/rsa.c ****                                  unsigned char *output,
1390:Source\mbedtls_open\library/rsa.c ****                                  size_t output_max_len)
1391:Source\mbedtls_open\library/rsa.c **** {
1392:Source\mbedtls_open\library/rsa.c ****     int ret;
1393:Source\mbedtls_open\library/rsa.c ****     size_t ilen, pad_count = 0, i;
1394:Source\mbedtls_open\library/rsa.c ****     unsigned char *p, bad, pad_done = 0;
1395:Source\mbedtls_open\library/rsa.c ****     unsigned char buf[MBEDTLS_MPI_MAX_SIZE];
1396:Source\mbedtls_open\library/rsa.c **** 
1397:Source\mbedtls_open\library/rsa.c ****     if( mode == MBEDTLS_RSA_PRIVATE && ctx->padding != MBEDTLS_RSA_PKCS_V15 )
1398:Source\mbedtls_open\library/rsa.c ****         return( MBEDTLS_ERR_RSA_BAD_INPUT_DATA );
1399:Source\mbedtls_open\library/rsa.c **** 
1400:Source\mbedtls_open\library/rsa.c ****     ilen = ctx->len;
1401:Source\mbedtls_open\library/rsa.c **** 
1402:Source\mbedtls_open\library/rsa.c ****     if( ilen < 16 || ilen > sizeof( buf ) )
1403:Source\mbedtls_open\library/rsa.c ****         return( MBEDTLS_ERR_RSA_BAD_INPUT_DATA );
1404:Source\mbedtls_open\library/rsa.c **** 
1405:Source\mbedtls_open\library/rsa.c ****     ret = ( mode == MBEDTLS_RSA_PUBLIC )
1406:Source\mbedtls_open\library/rsa.c ****           ? mbedtls_rsa_public(  ctx, input, buf )
1407:Source\mbedtls_open\library/rsa.c ****           : mbedtls_rsa_private( ctx, f_rng, p_rng, input, buf );
1408:Source\mbedtls_open\library/rsa.c **** 
1409:Source\mbedtls_open\library/rsa.c ****     if( ret != 0 )
1410:Source\mbedtls_open\library/rsa.c ****         goto cleanup;
1411:Source\mbedtls_open\library/rsa.c **** 
1412:Source\mbedtls_open\library/rsa.c ****     p = buf;
1413:Source\mbedtls_open\library/rsa.c ****     bad = 0;
1414:Source\mbedtls_open\library/rsa.c **** 
1415:Source\mbedtls_open\library/rsa.c ****     /*
1416:Source\mbedtls_open\library/rsa.c ****      * Check and get padding len in "constant-time"
1417:Source\mbedtls_open\library/rsa.c ****      */
1418:Source\mbedtls_open\library/rsa.c ****     bad |= *p++; /* First byte must be 0 */
1419:Source\mbedtls_open\library/rsa.c **** 
1420:Source\mbedtls_open\library/rsa.c ****     /* This test does not depend on secret data */
1421:Source\mbedtls_open\library/rsa.c ****     if( mode == MBEDTLS_RSA_PRIVATE )
1422:Source\mbedtls_open\library/rsa.c ****     {
1423:Source\mbedtls_open\library/rsa.c ****         bad |= *p++ ^ MBEDTLS_RSA_CRYPT;
1424:Source\mbedtls_open\library/rsa.c **** 
1425:Source\mbedtls_open\library/rsa.c ****         /* Get padding len, but always read till end of buffer
1426:Source\mbedtls_open\library/rsa.c ****          * (minus one, for the 00 byte) */
1427:Source\mbedtls_open\library/rsa.c ****         for( i = 0; i < ilen - 3; i++ )
1428:Source\mbedtls_open\library/rsa.c ****         {
1429:Source\mbedtls_open\library/rsa.c ****             pad_done  |= ((p[i] | (unsigned char)-p[i]) >> 7) ^ 1;
1430:Source\mbedtls_open\library/rsa.c ****             pad_count += ((pad_done | (unsigned char)-pad_done) >> 7) ^ 1;
1431:Source\mbedtls_open\library/rsa.c ****         }
1432:Source\mbedtls_open\library/rsa.c **** 
1433:Source\mbedtls_open\library/rsa.c ****         p += pad_count;
1434:Source\mbedtls_open\library/rsa.c ****         bad |= *p++; /* Must be zero */
ARM GAS  C:\Users\Phuong\AppData\Local\Temp\ccgu0w7m.s 			page 36


1435:Source\mbedtls_open\library/rsa.c ****     }
1436:Source\mbedtls_open\library/rsa.c ****     else
1437:Source\mbedtls_open\library/rsa.c ****     {
1438:Source\mbedtls_open\library/rsa.c ****         bad |= *p++ ^ MBEDTLS_RSA_SIGN;
1439:Source\mbedtls_open\library/rsa.c **** 
1440:Source\mbedtls_open\library/rsa.c ****         /* Get padding len, but always read till end of buffer
1441:Source\mbedtls_open\library/rsa.c ****          * (minus one, for the 00 byte) */
1442:Source\mbedtls_open\library/rsa.c ****         for( i = 0; i < ilen - 3; i++ )
1443:Source\mbedtls_open\library/rsa.c ****         {
1444:Source\mbedtls_open\library/rsa.c ****             pad_done |= ( p[i] != 0xFF );
1445:Source\mbedtls_open\library/rsa.c ****             pad_count += ( pad_done == 0 );
1446:Source\mbedtls_open\library/rsa.c ****         }
1447:Source\mbedtls_open\library/rsa.c **** 
1448:Source\mbedtls_open\library/rsa.c ****         p += pad_count;
1449:Source\mbedtls_open\library/rsa.c ****         bad |= *p++; /* Must be zero */
1450:Source\mbedtls_open\library/rsa.c ****     }
1451:Source\mbedtls_open\library/rsa.c **** 
1452:Source\mbedtls_open\library/rsa.c ****     bad |= ( pad_count < 8 );
1453:Source\mbedtls_open\library/rsa.c **** 
1454:Source\mbedtls_open\library/rsa.c ****     if( bad )
1455:Source\mbedtls_open\library/rsa.c ****     {
1456:Source\mbedtls_open\library/rsa.c ****         ret = MBEDTLS_ERR_RSA_INVALID_PADDING;
1457:Source\mbedtls_open\library/rsa.c ****         goto cleanup;
1458:Source\mbedtls_open\library/rsa.c ****     }
1459:Source\mbedtls_open\library/rsa.c **** 
1460:Source\mbedtls_open\library/rsa.c ****     if( ilen - ( p - buf ) > output_max_len )
1461:Source\mbedtls_open\library/rsa.c ****     {
1462:Source\mbedtls_open\library/rsa.c ****         ret = MBEDTLS_ERR_RSA_OUTPUT_TOO_LARGE;
1463:Source\mbedtls_open\library/rsa.c ****         goto cleanup;
1464:Source\mbedtls_open\library/rsa.c ****     }
1465:Source\mbedtls_open\library/rsa.c **** 
1466:Source\mbedtls_open\library/rsa.c ****     *olen = ilen - (p - buf);
1467:Source\mbedtls_open\library/rsa.c ****     memcpy( output, p, *olen );
1468:Source\mbedtls_open\library/rsa.c ****     ret = 0;
1469:Source\mbedtls_open\library/rsa.c **** 
1470:Source\mbedtls_open\library/rsa.c **** cleanup:
1471:Source\mbedtls_open\library/rsa.c ****     mbedtls_platform_zeroize( buf, sizeof( buf ) );
1472:Source\mbedtls_open\library/rsa.c **** 
1473:Source\mbedtls_open\library/rsa.c ****     return( ret );
1474:Source\mbedtls_open\library/rsa.c **** }
1475:Source\mbedtls_open\library/rsa.c **** #endif /* MBEDTLS_PKCS1_V15 */
1476:Source\mbedtls_open\library/rsa.c **** 
1477:Source\mbedtls_open\library/rsa.c **** /*
1478:Source\mbedtls_open\library/rsa.c ****  * Do an RSA operation, then remove the message padding
1479:Source\mbedtls_open\library/rsa.c ****  */
1480:Source\mbedtls_open\library/rsa.c **** int mbedtls_rsa_pkcs1_decrypt( mbedtls_rsa_context *ctx,
1481:Source\mbedtls_open\library/rsa.c ****                        int (*f_rng)(void *, unsigned char *, size_t),
1482:Source\mbedtls_open\library/rsa.c ****                        void *p_rng,
1483:Source\mbedtls_open\library/rsa.c ****                        int mode, size_t *olen,
1484:Source\mbedtls_open\library/rsa.c ****                        const unsigned char *input,
1485:Source\mbedtls_open\library/rsa.c ****                        unsigned char *output,
1486:Source\mbedtls_open\library/rsa.c ****                        size_t output_max_len)
1487:Source\mbedtls_open\library/rsa.c **** {
1488:Source\mbedtls_open\library/rsa.c ****     switch( ctx->padding )
1489:Source\mbedtls_open\library/rsa.c ****     {
1490:Source\mbedtls_open\library/rsa.c **** #if defined(MBEDTLS_PKCS1_V15)
1491:Source\mbedtls_open\library/rsa.c ****         case MBEDTLS_RSA_PKCS_V15:
ARM GAS  C:\Users\Phuong\AppData\Local\Temp\ccgu0w7m.s 			page 37


1492:Source\mbedtls_open\library/rsa.c ****             return mbedtls_rsa_rsaes_pkcs1_v15_decrypt( ctx, f_rng, p_rng, mode, olen,
1493:Source\mbedtls_open\library/rsa.c ****                                                 input, output, output_max_len );
1494:Source\mbedtls_open\library/rsa.c **** #endif
1495:Source\mbedtls_open\library/rsa.c **** 
1496:Source\mbedtls_open\library/rsa.c **** #if defined(MBEDTLS_PKCS1_V21)
1497:Source\mbedtls_open\library/rsa.c ****         case MBEDTLS_RSA_PKCS_V21:
1498:Source\mbedtls_open\library/rsa.c ****             return mbedtls_rsa_rsaes_oaep_decrypt( ctx, f_rng, p_rng, mode, NULL, 0,
1499:Source\mbedtls_open\library/rsa.c ****                                            olen, input, output,
1500:Source\mbedtls_open\library/rsa.c ****                                            output_max_len );
1501:Source\mbedtls_open\library/rsa.c **** #endif
1502:Source\mbedtls_open\library/rsa.c **** 
1503:Source\mbedtls_open\library/rsa.c ****         default:
1504:Source\mbedtls_open\library/rsa.c ****             return( MBEDTLS_ERR_RSA_INVALID_PADDING );
1505:Source\mbedtls_open\library/rsa.c ****     }
1506:Source\mbedtls_open\library/rsa.c **** }
1507:Source\mbedtls_open\library/rsa.c **** 
1508:Source\mbedtls_open\library/rsa.c **** #if defined(MBEDTLS_PKCS1_V21)
1509:Source\mbedtls_open\library/rsa.c **** /*
1510:Source\mbedtls_open\library/rsa.c ****  * Implementation of the PKCS#1 v2.1 RSASSA-PSS-SIGN function
1511:Source\mbedtls_open\library/rsa.c ****  */
1512:Source\mbedtls_open\library/rsa.c **** int mbedtls_rsa_rsassa_pss_sign( mbedtls_rsa_context *ctx,
1513:Source\mbedtls_open\library/rsa.c ****                          int (*f_rng)(void *, unsigned char *, size_t),
1514:Source\mbedtls_open\library/rsa.c ****                          void *p_rng,
1515:Source\mbedtls_open\library/rsa.c ****                          int mode,
1516:Source\mbedtls_open\library/rsa.c ****                          mbedtls_md_type_t md_alg,
1517:Source\mbedtls_open\library/rsa.c ****                          unsigned int hashlen,
1518:Source\mbedtls_open\library/rsa.c ****                          const unsigned char *hash,
1519:Source\mbedtls_open\library/rsa.c ****                          unsigned char *sig )
1520:Source\mbedtls_open\library/rsa.c **** {
1521:Source\mbedtls_open\library/rsa.c ****     size_t olen;
1522:Source\mbedtls_open\library/rsa.c ****     unsigned char *p = sig;
1523:Source\mbedtls_open\library/rsa.c ****     unsigned char salt[MBEDTLS_MD_MAX_SIZE];
1524:Source\mbedtls_open\library/rsa.c ****     unsigned int slen, hlen, offset = 0;
1525:Source\mbedtls_open\library/rsa.c ****     int ret;
1526:Source\mbedtls_open\library/rsa.c ****     size_t msb;
1527:Source\mbedtls_open\library/rsa.c ****     const mbedtls_md_info_t *md_info;
1528:Source\mbedtls_open\library/rsa.c ****     mbedtls_md_context_t md_ctx;
1529:Source\mbedtls_open\library/rsa.c **** 
1530:Source\mbedtls_open\library/rsa.c ****     if( mode == MBEDTLS_RSA_PRIVATE && ctx->padding != MBEDTLS_RSA_PKCS_V21 )
1531:Source\mbedtls_open\library/rsa.c ****         return( MBEDTLS_ERR_RSA_BAD_INPUT_DATA );
1532:Source\mbedtls_open\library/rsa.c **** 
1533:Source\mbedtls_open\library/rsa.c ****     if( f_rng == NULL )
1534:Source\mbedtls_open\library/rsa.c ****         return( MBEDTLS_ERR_RSA_BAD_INPUT_DATA );
1535:Source\mbedtls_open\library/rsa.c **** 
1536:Source\mbedtls_open\library/rsa.c ****     olen = ctx->len;
1537:Source\mbedtls_open\library/rsa.c **** 
1538:Source\mbedtls_open\library/rsa.c ****     if( md_alg != MBEDTLS_MD_NONE )
1539:Source\mbedtls_open\library/rsa.c ****     {
1540:Source\mbedtls_open\library/rsa.c ****         /* Gather length of hash to sign */
1541:Source\mbedtls_open\library/rsa.c ****         md_info = mbedtls_md_info_from_type( md_alg );
1542:Source\mbedtls_open\library/rsa.c ****         if( md_info == NULL )
1543:Source\mbedtls_open\library/rsa.c ****             return( MBEDTLS_ERR_RSA_BAD_INPUT_DATA );
1544:Source\mbedtls_open\library/rsa.c **** 
1545:Source\mbedtls_open\library/rsa.c ****         hashlen = mbedtls_md_get_size( md_info );
1546:Source\mbedtls_open\library/rsa.c ****     }
1547:Source\mbedtls_open\library/rsa.c **** 
1548:Source\mbedtls_open\library/rsa.c ****     md_info = mbedtls_md_info_from_type( (mbedtls_md_type_t) ctx->hash_id );
ARM GAS  C:\Users\Phuong\AppData\Local\Temp\ccgu0w7m.s 			page 38


1549:Source\mbedtls_open\library/rsa.c ****     if( md_info == NULL )
1550:Source\mbedtls_open\library/rsa.c ****         return( MBEDTLS_ERR_RSA_BAD_INPUT_DATA );
1551:Source\mbedtls_open\library/rsa.c **** 
1552:Source\mbedtls_open\library/rsa.c ****     hlen = mbedtls_md_get_size( md_info );
1553:Source\mbedtls_open\library/rsa.c ****     slen = hlen;
1554:Source\mbedtls_open\library/rsa.c **** 
1555:Source\mbedtls_open\library/rsa.c ****     if( olen < hlen + slen + 2 )
1556:Source\mbedtls_open\library/rsa.c ****         return( MBEDTLS_ERR_RSA_BAD_INPUT_DATA );
1557:Source\mbedtls_open\library/rsa.c **** 
1558:Source\mbedtls_open\library/rsa.c ****     memset( sig, 0, olen );
1559:Source\mbedtls_open\library/rsa.c **** 
1560:Source\mbedtls_open\library/rsa.c ****     /* Generate salt of length slen */
1561:Source\mbedtls_open\library/rsa.c ****     if( ( ret = f_rng( p_rng, salt, slen ) ) != 0 )
1562:Source\mbedtls_open\library/rsa.c ****         return( MBEDTLS_ERR_RSA_RNG_FAILED + ret );
1563:Source\mbedtls_open\library/rsa.c **** 
1564:Source\mbedtls_open\library/rsa.c ****     /* Note: EMSA-PSS encoding is over the length of N - 1 bits */
1565:Source\mbedtls_open\library/rsa.c ****     msb = mbedtls_mpi_bitlen( &ctx->N ) - 1;
1566:Source\mbedtls_open\library/rsa.c ****     p += olen - hlen * 2 - 2;
1567:Source\mbedtls_open\library/rsa.c ****     *p++ = 0x01;
1568:Source\mbedtls_open\library/rsa.c ****     memcpy( p, salt, slen );
1569:Source\mbedtls_open\library/rsa.c ****     p += slen;
1570:Source\mbedtls_open\library/rsa.c **** 
1571:Source\mbedtls_open\library/rsa.c ****     mbedtls_md_init( &md_ctx );
1572:Source\mbedtls_open\library/rsa.c ****     if( ( ret = mbedtls_md_setup( &md_ctx, md_info, 0 ) ) != 0 )
1573:Source\mbedtls_open\library/rsa.c ****         goto exit;
1574:Source\mbedtls_open\library/rsa.c **** 
1575:Source\mbedtls_open\library/rsa.c ****     /* Generate H = Hash( M' ) */
1576:Source\mbedtls_open\library/rsa.c ****     if( ( ret = mbedtls_md_starts( &md_ctx ) ) != 0 )
1577:Source\mbedtls_open\library/rsa.c ****         goto exit;
1578:Source\mbedtls_open\library/rsa.c ****     if( ( ret = mbedtls_md_update( &md_ctx, p, 8 ) ) != 0 )
1579:Source\mbedtls_open\library/rsa.c ****         goto exit;
1580:Source\mbedtls_open\library/rsa.c ****     if( ( ret = mbedtls_md_update( &md_ctx, hash, hashlen ) ) != 0 )
1581:Source\mbedtls_open\library/rsa.c ****         goto exit;
1582:Source\mbedtls_open\library/rsa.c ****     if( ( ret = mbedtls_md_update( &md_ctx, salt, slen ) ) != 0 )
1583:Source\mbedtls_open\library/rsa.c ****         goto exit;
1584:Source\mbedtls_open\library/rsa.c ****     if( ( ret = mbedtls_md_finish( &md_ctx, p ) ) != 0 )
1585:Source\mbedtls_open\library/rsa.c ****         goto exit;
1586:Source\mbedtls_open\library/rsa.c **** 
1587:Source\mbedtls_open\library/rsa.c ****     /* Compensate for boundary condition when applying mask */
1588:Source\mbedtls_open\library/rsa.c ****     if( msb % 8 == 0 )
1589:Source\mbedtls_open\library/rsa.c ****         offset = 1;
1590:Source\mbedtls_open\library/rsa.c **** 
1591:Source\mbedtls_open\library/rsa.c ****     /* maskedDB: Apply dbMask to DB */
1592:Source\mbedtls_open\library/rsa.c ****     if( ( ret = mgf_mask( sig + offset, olen - hlen - 1 - offset, p, hlen,
1593:Source\mbedtls_open\library/rsa.c ****                           &md_ctx ) ) != 0 )
1594:Source\mbedtls_open\library/rsa.c ****         goto exit;
1595:Source\mbedtls_open\library/rsa.c **** 
1596:Source\mbedtls_open\library/rsa.c ****     msb = mbedtls_mpi_bitlen( &ctx->N ) - 1;
1597:Source\mbedtls_open\library/rsa.c ****     sig[0] &= 0xFF >> ( olen * 8 - msb );
1598:Source\mbedtls_open\library/rsa.c **** 
1599:Source\mbedtls_open\library/rsa.c ****     p += hlen;
1600:Source\mbedtls_open\library/rsa.c ****     *p++ = 0xBC;
1601:Source\mbedtls_open\library/rsa.c **** 
1602:Source\mbedtls_open\library/rsa.c ****     mbedtls_platform_zeroize( salt, sizeof( salt ) );
1603:Source\mbedtls_open\library/rsa.c **** 
1604:Source\mbedtls_open\library/rsa.c **** exit:
1605:Source\mbedtls_open\library/rsa.c ****     mbedtls_md_free( &md_ctx );
ARM GAS  C:\Users\Phuong\AppData\Local\Temp\ccgu0w7m.s 			page 39


1606:Source\mbedtls_open\library/rsa.c **** 
1607:Source\mbedtls_open\library/rsa.c ****     if( ret != 0 )
1608:Source\mbedtls_open\library/rsa.c ****         return( ret );
1609:Source\mbedtls_open\library/rsa.c **** 
1610:Source\mbedtls_open\library/rsa.c ****     return( ( mode == MBEDTLS_RSA_PUBLIC )
1611:Source\mbedtls_open\library/rsa.c ****             ? mbedtls_rsa_public(  ctx, sig, sig )
1612:Source\mbedtls_open\library/rsa.c ****             : mbedtls_rsa_private( ctx, f_rng, p_rng, sig, sig ) );
1613:Source\mbedtls_open\library/rsa.c **** }
1614:Source\mbedtls_open\library/rsa.c **** #endif /* MBEDTLS_PKCS1_V21 */
1615:Source\mbedtls_open\library/rsa.c **** 
1616:Source\mbedtls_open\library/rsa.c **** #if defined(MBEDTLS_PKCS1_V15)
1617:Source\mbedtls_open\library/rsa.c **** /*
1618:Source\mbedtls_open\library/rsa.c ****  * Implementation of the PKCS#1 v2.1 RSASSA-PKCS1-V1_5-SIGN function
1619:Source\mbedtls_open\library/rsa.c ****  */
1620:Source\mbedtls_open\library/rsa.c **** 
1621:Source\mbedtls_open\library/rsa.c **** /* Construct a PKCS v1.5 encoding of a hashed message
1622:Source\mbedtls_open\library/rsa.c ****  *
1623:Source\mbedtls_open\library/rsa.c ****  * This is used both for signature generation and verification.
1624:Source\mbedtls_open\library/rsa.c ****  *
1625:Source\mbedtls_open\library/rsa.c ****  * Parameters:
1626:Source\mbedtls_open\library/rsa.c ****  * - md_alg:  Identifies the hash algorithm used to generate the given hash;
1627:Source\mbedtls_open\library/rsa.c ****  *            MBEDTLS_MD_NONE if raw data is signed.
1628:Source\mbedtls_open\library/rsa.c ****  * - hashlen: Length of hash in case hashlen is MBEDTLS_MD_NONE.
1629:Source\mbedtls_open\library/rsa.c ****  * - hash:    Buffer containing the hashed message or the raw data.
1630:Source\mbedtls_open\library/rsa.c ****  * - dst_len: Length of the encoded message.
1631:Source\mbedtls_open\library/rsa.c ****  * - dst:     Buffer to hold the encoded message.
1632:Source\mbedtls_open\library/rsa.c ****  *
1633:Source\mbedtls_open\library/rsa.c ****  * Assumptions:
1634:Source\mbedtls_open\library/rsa.c ****  * - hash has size hashlen if md_alg == MBEDTLS_MD_NONE.
1635:Source\mbedtls_open\library/rsa.c ****  * - hash has size corresponding to md_alg if md_alg != MBEDTLS_MD_NONE.
1636:Source\mbedtls_open\library/rsa.c ****  * - dst points to a buffer of size at least dst_len.
1637:Source\mbedtls_open\library/rsa.c ****  *
1638:Source\mbedtls_open\library/rsa.c ****  */
1639:Source\mbedtls_open\library/rsa.c **** static int rsa_rsassa_pkcs1_v15_encode( mbedtls_md_type_t md_alg,
1640:Source\mbedtls_open\library/rsa.c ****                                         unsigned int hashlen,
1641:Source\mbedtls_open\library/rsa.c ****                                         const unsigned char *hash,
1642:Source\mbedtls_open\library/rsa.c ****                                         size_t dst_len,
1643:Source\mbedtls_open\library/rsa.c ****                                         unsigned char *dst )
1644:Source\mbedtls_open\library/rsa.c **** {
 542              		.loc 1 1644 0
 543              		.cfi_startproc
 544              		@ args = 4, pretend = 0, frame = 16
 545              		@ frame_needed = 0, uses_anonymous_args = 0
 546              	.LVL73:
 547 0000 F0B5     		push	{r4, r5, r6, r7, lr}
 548              		.cfi_def_cfa_offset 20
 549              		.cfi_offset 4, -20
 550              		.cfi_offset 5, -16
 551              		.cfi_offset 6, -12
 552              		.cfi_offset 7, -8
 553              		.cfi_offset 14, -4
 554 0002 5F46     		mov	r7, fp
 555 0004 5646     		mov	r6, r10
 556 0006 4546     		mov	r5, r8
 557 0008 E0B4     		push	{r5, r6, r7}
 558              		.cfi_def_cfa_offset 32
 559              		.cfi_offset 8, -32
ARM GAS  C:\Users\Phuong\AppData\Local\Temp\ccgu0w7m.s 			page 40


 560              		.cfi_offset 10, -28
 561              		.cfi_offset 11, -24
 562 000a 84B0     		sub	sp, sp, #16
 563              		.cfi_def_cfa_offset 48
 564 000c 8046     		mov	r8, r0
 565 000e 0E00     		movs	r6, r1
 566 0010 0192     		str	r2, [sp, #4]
 567 0012 1F00     		movs	r7, r3
1645:Source\mbedtls_open\library/rsa.c ****     size_t oid_size  = 0;
 568              		.loc 1 1645 0
 569 0014 0023     		movs	r3, #0
 570              	.LVL74:
 571 0016 0393     		str	r3, [sp, #12]
 572              	.LVL75:
1646:Source\mbedtls_open\library/rsa.c ****     size_t nb_pad    = dst_len;
1647:Source\mbedtls_open\library/rsa.c ****     unsigned char *p = dst;
1648:Source\mbedtls_open\library/rsa.c ****     const char *oid  = NULL;
 573              		.loc 1 1648 0
 574 0018 0293     		str	r3, [sp, #8]
1649:Source\mbedtls_open\library/rsa.c **** 
1650:Source\mbedtls_open\library/rsa.c ****     /* Are we signing hashed or raw data? */
1651:Source\mbedtls_open\library/rsa.c ****     if( md_alg != MBEDTLS_MD_NONE )
 575              		.loc 1 1651 0
 576 001a 0028     		cmp	r0, #0
 577 001c 1FD0     		beq	.L42
 578              	.LBB6:
1652:Source\mbedtls_open\library/rsa.c ****     {
1653:Source\mbedtls_open\library/rsa.c ****         const mbedtls_md_info_t *md_info = mbedtls_md_info_from_type( md_alg );
 579              		.loc 1 1653 0
 580 001e FFF7FEFF 		bl	mbedtls_md_info_from_type
 581              	.LVL76:
 582 0022 041E     		subs	r4, r0, #0
 583              	.LVL77:
1654:Source\mbedtls_open\library/rsa.c ****         if( md_info == NULL )
 584              		.loc 1 1654 0
 585 0024 70D0     		beq	.L46
1655:Source\mbedtls_open\library/rsa.c ****             return( MBEDTLS_ERR_RSA_BAD_INPUT_DATA );
1656:Source\mbedtls_open\library/rsa.c **** 
1657:Source\mbedtls_open\library/rsa.c ****         if( mbedtls_oid_get_oid_by_md( md_alg, &oid, &oid_size ) != 0 )
 586              		.loc 1 1657 0
 587 0026 03AA     		add	r2, sp, #12
 588 0028 02A9     		add	r1, sp, #8
 589 002a 4046     		mov	r0, r8
 590              	.LVL78:
 591 002c FFF7FEFF 		bl	mbedtls_oid_get_oid_by_md
 592              	.LVL79:
 593 0030 0028     		cmp	r0, #0
 594 0032 6BD1     		bne	.L47
1658:Source\mbedtls_open\library/rsa.c ****             return( MBEDTLS_ERR_RSA_BAD_INPUT_DATA );
1659:Source\mbedtls_open\library/rsa.c **** 
1660:Source\mbedtls_open\library/rsa.c ****         hashlen = mbedtls_md_get_size( md_info );
 595              		.loc 1 1660 0
 596 0034 2000     		movs	r0, r4
 597 0036 FFF7FEFF 		bl	mbedtls_md_get_size
 598              	.LVL80:
 599 003a 0600     		movs	r6, r0
 600              	.LVL81:
ARM GAS  C:\Users\Phuong\AppData\Local\Temp\ccgu0w7m.s 			page 41


1661:Source\mbedtls_open\library/rsa.c **** 
1662:Source\mbedtls_open\library/rsa.c ****         /* Double-check that 8 + hashlen + oid_size can be used as a
1663:Source\mbedtls_open\library/rsa.c ****          * 1-byte ASN.1 length encoding and that there's no overflow. */
1664:Source\mbedtls_open\library/rsa.c ****         if( 8 + hashlen + oid_size  >= 0x80         ||
 601              		.loc 1 1664 0
 602 003c 039B     		ldr	r3, [sp, #12]
 603 003e C418     		adds	r4, r0, r3
 604              	.LVL82:
 605 0040 2300     		movs	r3, r4
 606 0042 0833     		adds	r3, r3, #8
 607 0044 7F2B     		cmp	r3, #127
 608 0046 63D8     		bhi	.L48
1665:Source\mbedtls_open\library/rsa.c ****             10 + hashlen            <  hashlen      ||
 609              		.loc 1 1665 0 discriminator 1
 610 0048 0A30     		adds	r0, r0, #10
 611              	.LVL83:
1664:Source\mbedtls_open\library/rsa.c ****             10 + hashlen            <  hashlen      ||
 612              		.loc 1 1664 0 discriminator 1
 613 004a 8642     		cmp	r6, r0
 614 004c 62D8     		bhi	.L49
1666:Source\mbedtls_open\library/rsa.c ****             10 + hashlen + oid_size <  10 + hashlen )
 615              		.loc 1 1666 0
 616 004e 0233     		adds	r3, r3, #2
1665:Source\mbedtls_open\library/rsa.c ****             10 + hashlen            <  hashlen      ||
 617              		.loc 1 1665 0
 618 0050 9842     		cmp	r0, r3
 619 0052 61D8     		bhi	.L50
1667:Source\mbedtls_open\library/rsa.c ****             return( MBEDTLS_ERR_RSA_BAD_INPUT_DATA );
1668:Source\mbedtls_open\library/rsa.c **** 
1669:Source\mbedtls_open\library/rsa.c ****         /*
1670:Source\mbedtls_open\library/rsa.c ****          * Static bounds check:
1671:Source\mbedtls_open\library/rsa.c ****          * - Need 10 bytes for five tag-length pairs.
1672:Source\mbedtls_open\library/rsa.c ****          *   (Insist on 1-byte length encodings to protect against variants of
1673:Source\mbedtls_open\library/rsa.c ****          *    Bleichenbacher's forgery attack against lax PKCS#1v1.5 verification)
1674:Source\mbedtls_open\library/rsa.c ****          * - Need hashlen bytes for hash
1675:Source\mbedtls_open\library/rsa.c ****          * - Need oid_size bytes for hash alg OID.
1676:Source\mbedtls_open\library/rsa.c ****          */
1677:Source\mbedtls_open\library/rsa.c ****         if( nb_pad < 10 + hashlen + oid_size )
 620              		.loc 1 1677 0
 621 0054 9F42     		cmp	r7, r3
 622 0056 61D3     		bcc	.L51
1678:Source\mbedtls_open\library/rsa.c ****             return( MBEDTLS_ERR_RSA_BAD_INPUT_DATA );
1679:Source\mbedtls_open\library/rsa.c ****         nb_pad -= 10 + hashlen + oid_size;
 623              		.loc 1 1679 0
 624 0058 3C1B     		subs	r4, r7, r4
 625 005a 0A3C     		subs	r4, r4, #10
 626              	.LVL84:
 627              	.LBE6:
 628 005c 02E0     		b	.L44
 629              	.LVL85:
 630              	.L42:
1680:Source\mbedtls_open\library/rsa.c ****     }
1681:Source\mbedtls_open\library/rsa.c ****     else
1682:Source\mbedtls_open\library/rsa.c ****     {
1683:Source\mbedtls_open\library/rsa.c ****         if( nb_pad < hashlen )
 631              		.loc 1 1683 0
 632 005e 8F42     		cmp	r7, r1
ARM GAS  C:\Users\Phuong\AppData\Local\Temp\ccgu0w7m.s 			page 42


 633 0060 5ED3     		bcc	.L52
1684:Source\mbedtls_open\library/rsa.c ****             return( MBEDTLS_ERR_RSA_BAD_INPUT_DATA );
1685:Source\mbedtls_open\library/rsa.c **** 
1686:Source\mbedtls_open\library/rsa.c ****         nb_pad -= hashlen;
 634              		.loc 1 1686 0
 635 0062 7C1A     		subs	r4, r7, r1
 636              	.LVL86:
 637              	.L44:
1687:Source\mbedtls_open\library/rsa.c ****     }
1688:Source\mbedtls_open\library/rsa.c **** 
1689:Source\mbedtls_open\library/rsa.c ****     /* Need space for signature header and padding delimiter (3 bytes),
1690:Source\mbedtls_open\library/rsa.c ****      * and 8 bytes for the minimal padding */
1691:Source\mbedtls_open\library/rsa.c ****     if( nb_pad < 3 + 8 )
 638              		.loc 1 1691 0
 639 0064 0A2C     		cmp	r4, #10
 640 0066 5DD9     		bls	.L53
1692:Source\mbedtls_open\library/rsa.c ****         return( MBEDTLS_ERR_RSA_BAD_INPUT_DATA );
1693:Source\mbedtls_open\library/rsa.c ****     nb_pad -= 3;
 641              		.loc 1 1693 0
 642 0068 E51E     		subs	r5, r4, #3
 643              	.LVL87:
1694:Source\mbedtls_open\library/rsa.c **** 
1695:Source\mbedtls_open\library/rsa.c ****     /* Now nb_pad is the amount of memory to be filled
1696:Source\mbedtls_open\library/rsa.c ****      * with padding, and at least 8 bytes long. */
1697:Source\mbedtls_open\library/rsa.c **** 
1698:Source\mbedtls_open\library/rsa.c ****     /* Write signature header and padding */
1699:Source\mbedtls_open\library/rsa.c ****     *p++ = 0;
 644              		.loc 1 1699 0
 645 006a 0023     		movs	r3, #0
 646 006c 9B46     		mov	fp, r3
 647 006e 0C9B     		ldr	r3, [sp, #48]
 648 0070 5A46     		mov	r2, fp
 649 0072 1A70     		strb	r2, [r3]
1700:Source\mbedtls_open\library/rsa.c ****     *p++ = MBEDTLS_RSA_SIGN;
 650              		.loc 1 1700 0
 651 0074 0233     		adds	r3, r3, #2
 652 0076 9A46     		mov	r10, r3
 653              	.LVL88:
 654 0078 0123     		movs	r3, #1
 655              	.LVL89:
 656 007a 0C9A     		ldr	r2, [sp, #48]
 657 007c 5370     		strb	r3, [r2, #1]
1701:Source\mbedtls_open\library/rsa.c ****     memset( p, 0xFF, nb_pad );
 658              		.loc 1 1701 0
 659 007e 2A00     		movs	r2, r5
 660 0080 FF21     		movs	r1, #255
 661 0082 5046     		mov	r0, r10
 662 0084 FFF7FEFF 		bl	memset
 663              	.LVL90:
1702:Source\mbedtls_open\library/rsa.c ****     p += nb_pad;
 664              		.loc 1 1702 0
 665 0088 5544     		add	r5, r5, r10
 666              	.LVL91:
1703:Source\mbedtls_open\library/rsa.c ****     *p++ = 0;
 667              		.loc 1 1703 0
 668 008a 023C     		subs	r4, r4, #2
 669              	.LVL92:
ARM GAS  C:\Users\Phuong\AppData\Local\Temp\ccgu0w7m.s 			page 43


 670 008c 2000     		movs	r0, r4
 671 008e 5044     		add	r0, r0, r10
 672              	.LVL93:
 673 0090 5B46     		mov	r3, fp
 674 0092 2B70     		strb	r3, [r5]
1704:Source\mbedtls_open\library/rsa.c **** 
1705:Source\mbedtls_open\library/rsa.c ****     /* Are we signing raw data? */
1706:Source\mbedtls_open\library/rsa.c ****     if( md_alg == MBEDTLS_MD_NONE )
 675              		.loc 1 1706 0
 676 0094 4346     		mov	r3, r8
 677 0096 002B     		cmp	r3, #0
 678 0098 05D1     		bne	.L45
1707:Source\mbedtls_open\library/rsa.c ****     {
1708:Source\mbedtls_open\library/rsa.c ****         memcpy( p, hash, hashlen );
 679              		.loc 1 1708 0
 680 009a 3200     		movs	r2, r6
 681 009c 0199     		ldr	r1, [sp, #4]
 682 009e FFF7FEFF 		bl	memcpy
 683              	.LVL94:
1709:Source\mbedtls_open\library/rsa.c ****         return( 0 );
 684              		.loc 1 1709 0
 685 00a2 0020     		movs	r0, #0
 686 00a4 41E0     		b	.L43
 687              	.LVL95:
 688              	.L45:
1710:Source\mbedtls_open\library/rsa.c ****     }
1711:Source\mbedtls_open\library/rsa.c **** 
1712:Source\mbedtls_open\library/rsa.c ****     /* Signing hashed data, add corresponding ASN.1 structure
1713:Source\mbedtls_open\library/rsa.c ****      *
1714:Source\mbedtls_open\library/rsa.c ****      * DigestInfo ::= SEQUENCE {
1715:Source\mbedtls_open\library/rsa.c ****      *   digestAlgorithm DigestAlgorithmIdentifier,
1716:Source\mbedtls_open\library/rsa.c ****      *   digest Digest }
1717:Source\mbedtls_open\library/rsa.c ****      * DigestAlgorithmIdentifier ::= AlgorithmIdentifier
1718:Source\mbedtls_open\library/rsa.c ****      * Digest ::= OCTET STRING
1719:Source\mbedtls_open\library/rsa.c ****      *
1720:Source\mbedtls_open\library/rsa.c ****      * Schematic:
1721:Source\mbedtls_open\library/rsa.c ****      * TAG-SEQ + LEN [ TAG-SEQ + LEN [ TAG-OID  + LEN [ OID  ]
1722:Source\mbedtls_open\library/rsa.c ****      *                                 TAG-NULL + LEN [ NULL ] ]
1723:Source\mbedtls_open\library/rsa.c ****      *                 TAG-OCTET + LEN [ HASH ] ]
1724:Source\mbedtls_open\library/rsa.c ****      */
1725:Source\mbedtls_open\library/rsa.c ****     *p++ = MBEDTLS_ASN1_SEQUENCE | MBEDTLS_ASN1_CONSTRUCTED;
 689              		.loc 1 1725 0
 690 00a6 3022     		movs	r2, #48
 691 00a8 6A70     		strb	r2, [r5, #1]
 692              	.LVL96:
1726:Source\mbedtls_open\library/rsa.c ****     *p++ = (unsigned char)( 0x08 + oid_size + hashlen );
 693              		.loc 1 1726 0
 694 00aa F3B2     		uxtb	r3, r6
 695 00ac 9846     		mov	r8, r3
 696 00ae 039C     		ldr	r4, [sp, #12]
 697              	.LVL97:
 698 00b0 1B19     		adds	r3, r3, r4
 699 00b2 0833     		adds	r3, r3, #8
 700 00b4 AB70     		strb	r3, [r5, #2]
 701              	.LVL98:
1727:Source\mbedtls_open\library/rsa.c ****     *p++ = MBEDTLS_ASN1_SEQUENCE | MBEDTLS_ASN1_CONSTRUCTED;
 702              		.loc 1 1727 0
ARM GAS  C:\Users\Phuong\AppData\Local\Temp\ccgu0w7m.s 			page 44


 703 00b6 EA70     		strb	r2, [r5, #3]
 704              	.LVL99:
1728:Source\mbedtls_open\library/rsa.c ****     *p++ = (unsigned char)( 0x04 + oid_size );
 705              		.loc 1 1728 0
 706 00b8 E3B2     		uxtb	r3, r4
 707 00ba 1A1D     		adds	r2, r3, #4
 708 00bc 2A71     		strb	r2, [r5, #4]
 709              	.LVL100:
1729:Source\mbedtls_open\library/rsa.c ****     *p++ = MBEDTLS_ASN1_OID;
 710              		.loc 1 1729 0
 711 00be 0622     		movs	r2, #6
 712 00c0 6A71     		strb	r2, [r5, #5]
1730:Source\mbedtls_open\library/rsa.c ****     *p++ = (unsigned char) oid_size;
 713              		.loc 1 1730 0
 714 00c2 EA1D     		adds	r2, r5, #7
 715 00c4 9246     		mov	r10, r2
 716              	.LVL101:
 717 00c6 AB71     		strb	r3, [r5, #6]
1731:Source\mbedtls_open\library/rsa.c ****     memcpy( p, oid, oid_size );
 718              		.loc 1 1731 0
 719 00c8 2200     		movs	r2, r4
 720              	.LVL102:
 721 00ca 0299     		ldr	r1, [sp, #8]
 722 00cc 5046     		mov	r0, r10
 723 00ce FFF7FEFF 		bl	memcpy
 724              	.LVL103:
1732:Source\mbedtls_open\library/rsa.c ****     p += oid_size;
 725              		.loc 1 1732 0
 726 00d2 2000     		movs	r0, r4
 727 00d4 5044     		add	r0, r0, r10
 728              	.LVL104:
1733:Source\mbedtls_open\library/rsa.c ****     *p++ = MBEDTLS_ASN1_NULL;
 729              		.loc 1 1733 0
 730 00d6 0523     		movs	r3, #5
 731 00d8 0370     		strb	r3, [r0]
 732              	.LVL105:
1734:Source\mbedtls_open\library/rsa.c ****     *p++ = 0x00;
 733              		.loc 1 1734 0
 734 00da 0023     		movs	r3, #0
 735 00dc 4370     		strb	r3, [r0, #1]
 736              	.LVL106:
1735:Source\mbedtls_open\library/rsa.c ****     *p++ = MBEDTLS_ASN1_OCTET_STRING;
 737              		.loc 1 1735 0
 738 00de 0433     		adds	r3, r3, #4
 739 00e0 8370     		strb	r3, [r0, #2]
1736:Source\mbedtls_open\library/rsa.c ****     *p++ = (unsigned char) hashlen;
 740              		.loc 1 1736 0
 741 00e2 041D     		adds	r4, r0, #4
 742              	.LVL107:
 743 00e4 4346     		mov	r3, r8
 744 00e6 C370     		strb	r3, [r0, #3]
1737:Source\mbedtls_open\library/rsa.c ****     memcpy( p, hash, hashlen );
 745              		.loc 1 1737 0
 746 00e8 3200     		movs	r2, r6
 747 00ea 0199     		ldr	r1, [sp, #4]
 748 00ec 2000     		movs	r0, r4
 749 00ee FFF7FEFF 		bl	memcpy
ARM GAS  C:\Users\Phuong\AppData\Local\Temp\ccgu0w7m.s 			page 45


 750              	.LVL108:
1738:Source\mbedtls_open\library/rsa.c ****     p += hashlen;
 751              		.loc 1 1738 0
 752 00f2 A619     		adds	r6, r4, r6
 753              	.LVL109:
1739:Source\mbedtls_open\library/rsa.c **** 
1740:Source\mbedtls_open\library/rsa.c ****     /* Just a sanity-check, should be automatic
1741:Source\mbedtls_open\library/rsa.c ****      * after the initial bounds check. */
1742:Source\mbedtls_open\library/rsa.c ****     if( p != dst + dst_len )
 754              		.loc 1 1742 0
 755 00f4 0C9B     		ldr	r3, [sp, #48]
 756 00f6 DB19     		adds	r3, r3, r7
 757 00f8 9E42     		cmp	r6, r3
 758 00fa 15D0     		beq	.L54
1743:Source\mbedtls_open\library/rsa.c ****     {
1744:Source\mbedtls_open\library/rsa.c ****         mbedtls_platform_zeroize( dst, dst_len );
 759              		.loc 1 1744 0
 760 00fc 3900     		movs	r1, r7
 761 00fe 0C98     		ldr	r0, [sp, #48]
 762 0100 FFF7FEFF 		bl	mbedtls_platform_zeroize
 763              	.LVL110:
1745:Source\mbedtls_open\library/rsa.c ****         return( MBEDTLS_ERR_RSA_BAD_INPUT_DATA );
 764              		.loc 1 1745 0
 765 0104 0C48     		ldr	r0, .L55
 766 0106 10E0     		b	.L43
 767              	.LVL111:
 768              	.L46:
 769              	.LBB7:
1655:Source\mbedtls_open\library/rsa.c **** 
 770              		.loc 1 1655 0
 771 0108 0B48     		ldr	r0, .L55
 772              	.LVL112:
 773 010a 0EE0     		b	.L43
 774              	.L47:
1658:Source\mbedtls_open\library/rsa.c **** 
 775              		.loc 1 1658 0
 776 010c 0A48     		ldr	r0, .L55
 777 010e 0CE0     		b	.L43
 778              	.LVL113:
 779              	.L48:
1667:Source\mbedtls_open\library/rsa.c **** 
 780              		.loc 1 1667 0
 781 0110 0948     		ldr	r0, .L55
 782              	.LVL114:
 783 0112 0AE0     		b	.L43
 784              	.L49:
 785 0114 0848     		ldr	r0, .L55
 786 0116 08E0     		b	.L43
 787              	.L50:
 788 0118 0748     		ldr	r0, .L55
 789 011a 06E0     		b	.L43
 790              	.L51:
1678:Source\mbedtls_open\library/rsa.c ****         nb_pad -= 10 + hashlen + oid_size;
 791              		.loc 1 1678 0
 792 011c 0648     		ldr	r0, .L55
 793 011e 04E0     		b	.L43
 794              	.LVL115:
ARM GAS  C:\Users\Phuong\AppData\Local\Temp\ccgu0w7m.s 			page 46


 795              	.L52:
 796              	.LBE7:
1684:Source\mbedtls_open\library/rsa.c **** 
 797              		.loc 1 1684 0
 798 0120 0548     		ldr	r0, .L55
 799              	.LVL116:
 800 0122 02E0     		b	.L43
 801              	.LVL117:
 802              	.L53:
1692:Source\mbedtls_open\library/rsa.c ****     nb_pad -= 3;
 803              		.loc 1 1692 0
 804 0124 0448     		ldr	r0, .L55
 805 0126 00E0     		b	.L43
 806              	.LVL118:
 807              	.L54:
1746:Source\mbedtls_open\library/rsa.c ****     }
1747:Source\mbedtls_open\library/rsa.c **** 
1748:Source\mbedtls_open\library/rsa.c ****     return( 0 );
 808              		.loc 1 1748 0
 809 0128 0020     		movs	r0, #0
 810              	.LVL119:
 811              	.L43:
1749:Source\mbedtls_open\library/rsa.c **** }
 812              		.loc 1 1749 0
 813 012a 04B0     		add	sp, sp, #16
 814              		@ sp needed
 815              	.LVL120:
 816 012c 1CBC     		pop	{r2, r3, r4}
 817 012e 9046     		mov	r8, r2
 818 0130 9A46     		mov	r10, r3
 819 0132 A346     		mov	fp, r4
 820 0134 F0BD     		pop	{r4, r5, r6, r7, pc}
 821              	.L56:
 822 0136 C046     		.align	2
 823              	.L55:
 824 0138 80BFFFFF 		.word	-16512
 825              		.cfi_endproc
 826              	.LFE37:
 827              		.size	rsa_rsassa_pkcs1_v15_encode, .-rsa_rsassa_pkcs1_v15_encode
 828              		.section	.text.myrand,"ax",%progbits
 829              		.align	2
 830              		.code	16
 831              		.thumb_func
 832              		.type	myrand, %function
 833              	myrand:
 834              	.LFB46:
1750:Source\mbedtls_open\library/rsa.c **** 
1751:Source\mbedtls_open\library/rsa.c **** /*
1752:Source\mbedtls_open\library/rsa.c ****  * Do an RSA operation to sign the message digest
1753:Source\mbedtls_open\library/rsa.c ****  */
1754:Source\mbedtls_open\library/rsa.c **** int mbedtls_rsa_rsassa_pkcs1_v15_sign( mbedtls_rsa_context *ctx,
1755:Source\mbedtls_open\library/rsa.c ****                                int (*f_rng)(void *, unsigned char *, size_t),
1756:Source\mbedtls_open\library/rsa.c ****                                void *p_rng,
1757:Source\mbedtls_open\library/rsa.c ****                                int mode,
1758:Source\mbedtls_open\library/rsa.c ****                                mbedtls_md_type_t md_alg,
1759:Source\mbedtls_open\library/rsa.c ****                                unsigned int hashlen,
1760:Source\mbedtls_open\library/rsa.c ****                                const unsigned char *hash,
ARM GAS  C:\Users\Phuong\AppData\Local\Temp\ccgu0w7m.s 			page 47


1761:Source\mbedtls_open\library/rsa.c ****                                unsigned char *sig )
1762:Source\mbedtls_open\library/rsa.c **** {
1763:Source\mbedtls_open\library/rsa.c ****     int ret;
1764:Source\mbedtls_open\library/rsa.c ****     unsigned char *sig_try = NULL, *verif = NULL;
1765:Source\mbedtls_open\library/rsa.c **** 
1766:Source\mbedtls_open\library/rsa.c ****     if( mode == MBEDTLS_RSA_PRIVATE && ctx->padding != MBEDTLS_RSA_PKCS_V15 )
1767:Source\mbedtls_open\library/rsa.c ****         return( MBEDTLS_ERR_RSA_BAD_INPUT_DATA );
1768:Source\mbedtls_open\library/rsa.c **** 
1769:Source\mbedtls_open\library/rsa.c ****     /*
1770:Source\mbedtls_open\library/rsa.c ****      * Prepare PKCS1-v1.5 encoding (padding and hash identifier)
1771:Source\mbedtls_open\library/rsa.c ****      */
1772:Source\mbedtls_open\library/rsa.c **** 
1773:Source\mbedtls_open\library/rsa.c ****     if( ( ret = rsa_rsassa_pkcs1_v15_encode( md_alg, hashlen, hash,
1774:Source\mbedtls_open\library/rsa.c ****                                              ctx->len, sig ) ) != 0 )
1775:Source\mbedtls_open\library/rsa.c ****         return( ret );
1776:Source\mbedtls_open\library/rsa.c **** 
1777:Source\mbedtls_open\library/rsa.c ****     /*
1778:Source\mbedtls_open\library/rsa.c ****      * Call respective RSA primitive
1779:Source\mbedtls_open\library/rsa.c ****      */
1780:Source\mbedtls_open\library/rsa.c **** 
1781:Source\mbedtls_open\library/rsa.c ****     if( mode == MBEDTLS_RSA_PUBLIC )
1782:Source\mbedtls_open\library/rsa.c ****     {
1783:Source\mbedtls_open\library/rsa.c ****         /* Skip verification on a public key operation */
1784:Source\mbedtls_open\library/rsa.c ****         return( mbedtls_rsa_public( ctx, sig, sig ) );
1785:Source\mbedtls_open\library/rsa.c ****     }
1786:Source\mbedtls_open\library/rsa.c **** 
1787:Source\mbedtls_open\library/rsa.c ****     /* Private key operation
1788:Source\mbedtls_open\library/rsa.c ****      *
1789:Source\mbedtls_open\library/rsa.c ****      * In order to prevent Lenstra's attack, make the signature in a
1790:Source\mbedtls_open\library/rsa.c ****      * temporary buffer and check it before returning it.
1791:Source\mbedtls_open\library/rsa.c ****      */
1792:Source\mbedtls_open\library/rsa.c **** 
1793:Source\mbedtls_open\library/rsa.c ****     sig_try = mbedtls_calloc( 1, ctx->len );
1794:Source\mbedtls_open\library/rsa.c ****     if( sig_try == NULL )
1795:Source\mbedtls_open\library/rsa.c ****         return( MBEDTLS_ERR_MPI_ALLOC_FAILED );
1796:Source\mbedtls_open\library/rsa.c **** 
1797:Source\mbedtls_open\library/rsa.c ****     verif = mbedtls_calloc( 1, ctx->len );
1798:Source\mbedtls_open\library/rsa.c ****     if( verif == NULL )
1799:Source\mbedtls_open\library/rsa.c ****     {
1800:Source\mbedtls_open\library/rsa.c ****         mbedtls_free( sig_try );
1801:Source\mbedtls_open\library/rsa.c ****         return( MBEDTLS_ERR_MPI_ALLOC_FAILED );
1802:Source\mbedtls_open\library/rsa.c ****     }
1803:Source\mbedtls_open\library/rsa.c **** 
1804:Source\mbedtls_open\library/rsa.c ****     MBEDTLS_MPI_CHK( mbedtls_rsa_private( ctx, f_rng, p_rng, sig, sig_try ) );
1805:Source\mbedtls_open\library/rsa.c ****     MBEDTLS_MPI_CHK( mbedtls_rsa_public( ctx, sig_try, verif ) );
1806:Source\mbedtls_open\library/rsa.c **** 
1807:Source\mbedtls_open\library/rsa.c ****     if( mbedtls_safer_memcmp( verif, sig, ctx->len ) != 0 )
1808:Source\mbedtls_open\library/rsa.c ****     {
1809:Source\mbedtls_open\library/rsa.c ****         ret = MBEDTLS_ERR_RSA_PRIVATE_FAILED;
1810:Source\mbedtls_open\library/rsa.c ****         goto cleanup;
1811:Source\mbedtls_open\library/rsa.c ****     }
1812:Source\mbedtls_open\library/rsa.c **** 
1813:Source\mbedtls_open\library/rsa.c ****     memcpy( sig, sig_try, ctx->len );
1814:Source\mbedtls_open\library/rsa.c **** 
1815:Source\mbedtls_open\library/rsa.c **** cleanup:
1816:Source\mbedtls_open\library/rsa.c ****     mbedtls_free( sig_try );
1817:Source\mbedtls_open\library/rsa.c ****     mbedtls_free( verif );
ARM GAS  C:\Users\Phuong\AppData\Local\Temp\ccgu0w7m.s 			page 48


1818:Source\mbedtls_open\library/rsa.c **** 
1819:Source\mbedtls_open\library/rsa.c ****     return( ret );
1820:Source\mbedtls_open\library/rsa.c **** }
1821:Source\mbedtls_open\library/rsa.c **** #endif /* MBEDTLS_PKCS1_V15 */
1822:Source\mbedtls_open\library/rsa.c **** 
1823:Source\mbedtls_open\library/rsa.c **** /*
1824:Source\mbedtls_open\library/rsa.c ****  * Do an RSA operation to sign the message digest
1825:Source\mbedtls_open\library/rsa.c ****  */
1826:Source\mbedtls_open\library/rsa.c **** int mbedtls_rsa_pkcs1_sign( mbedtls_rsa_context *ctx,
1827:Source\mbedtls_open\library/rsa.c ****                     int (*f_rng)(void *, unsigned char *, size_t),
1828:Source\mbedtls_open\library/rsa.c ****                     void *p_rng,
1829:Source\mbedtls_open\library/rsa.c ****                     int mode,
1830:Source\mbedtls_open\library/rsa.c ****                     mbedtls_md_type_t md_alg,
1831:Source\mbedtls_open\library/rsa.c ****                     unsigned int hashlen,
1832:Source\mbedtls_open\library/rsa.c ****                     const unsigned char *hash,
1833:Source\mbedtls_open\library/rsa.c ****                     unsigned char *sig )
1834:Source\mbedtls_open\library/rsa.c **** {
1835:Source\mbedtls_open\library/rsa.c ****     switch( ctx->padding )
1836:Source\mbedtls_open\library/rsa.c ****     {
1837:Source\mbedtls_open\library/rsa.c **** #if defined(MBEDTLS_PKCS1_V15)
1838:Source\mbedtls_open\library/rsa.c ****         case MBEDTLS_RSA_PKCS_V15:
1839:Source\mbedtls_open\library/rsa.c ****             return mbedtls_rsa_rsassa_pkcs1_v15_sign( ctx, f_rng, p_rng, mode, md_alg,
1840:Source\mbedtls_open\library/rsa.c ****                                               hashlen, hash, sig );
1841:Source\mbedtls_open\library/rsa.c **** #endif
1842:Source\mbedtls_open\library/rsa.c **** 
1843:Source\mbedtls_open\library/rsa.c **** #if defined(MBEDTLS_PKCS1_V21)
1844:Source\mbedtls_open\library/rsa.c ****         case MBEDTLS_RSA_PKCS_V21:
1845:Source\mbedtls_open\library/rsa.c ****             return mbedtls_rsa_rsassa_pss_sign( ctx, f_rng, p_rng, mode, md_alg,
1846:Source\mbedtls_open\library/rsa.c ****                                         hashlen, hash, sig );
1847:Source\mbedtls_open\library/rsa.c **** #endif
1848:Source\mbedtls_open\library/rsa.c **** 
1849:Source\mbedtls_open\library/rsa.c ****         default:
1850:Source\mbedtls_open\library/rsa.c ****             return( MBEDTLS_ERR_RSA_INVALID_PADDING );
1851:Source\mbedtls_open\library/rsa.c ****     }
1852:Source\mbedtls_open\library/rsa.c **** }
1853:Source\mbedtls_open\library/rsa.c **** 
1854:Source\mbedtls_open\library/rsa.c **** #if defined(MBEDTLS_PKCS1_V21)
1855:Source\mbedtls_open\library/rsa.c **** /*
1856:Source\mbedtls_open\library/rsa.c ****  * Implementation of the PKCS#1 v2.1 RSASSA-PSS-VERIFY function
1857:Source\mbedtls_open\library/rsa.c ****  */
1858:Source\mbedtls_open\library/rsa.c **** int mbedtls_rsa_rsassa_pss_verify_ext( mbedtls_rsa_context *ctx,
1859:Source\mbedtls_open\library/rsa.c ****                                int (*f_rng)(void *, unsigned char *, size_t),
1860:Source\mbedtls_open\library/rsa.c ****                                void *p_rng,
1861:Source\mbedtls_open\library/rsa.c ****                                int mode,
1862:Source\mbedtls_open\library/rsa.c ****                                mbedtls_md_type_t md_alg,
1863:Source\mbedtls_open\library/rsa.c ****                                unsigned int hashlen,
1864:Source\mbedtls_open\library/rsa.c ****                                const unsigned char *hash,
1865:Source\mbedtls_open\library/rsa.c ****                                mbedtls_md_type_t mgf1_hash_id,
1866:Source\mbedtls_open\library/rsa.c ****                                int expected_salt_len,
1867:Source\mbedtls_open\library/rsa.c ****                                const unsigned char *sig )
1868:Source\mbedtls_open\library/rsa.c **** {
1869:Source\mbedtls_open\library/rsa.c ****     int ret;
1870:Source\mbedtls_open\library/rsa.c ****     size_t siglen;
1871:Source\mbedtls_open\library/rsa.c ****     unsigned char *p;
1872:Source\mbedtls_open\library/rsa.c ****     unsigned char *hash_start;
1873:Source\mbedtls_open\library/rsa.c ****     unsigned char result[MBEDTLS_MD_MAX_SIZE];
1874:Source\mbedtls_open\library/rsa.c ****     unsigned char zeros[8];
ARM GAS  C:\Users\Phuong\AppData\Local\Temp\ccgu0w7m.s 			page 49


1875:Source\mbedtls_open\library/rsa.c ****     unsigned int hlen;
1876:Source\mbedtls_open\library/rsa.c ****     size_t observed_salt_len, msb;
1877:Source\mbedtls_open\library/rsa.c ****     const mbedtls_md_info_t *md_info;
1878:Source\mbedtls_open\library/rsa.c ****     mbedtls_md_context_t md_ctx;
1879:Source\mbedtls_open\library/rsa.c ****     unsigned char buf[MBEDTLS_MPI_MAX_SIZE];
1880:Source\mbedtls_open\library/rsa.c **** 
1881:Source\mbedtls_open\library/rsa.c ****     if( mode == MBEDTLS_RSA_PRIVATE && ctx->padding != MBEDTLS_RSA_PKCS_V21 )
1882:Source\mbedtls_open\library/rsa.c ****         return( MBEDTLS_ERR_RSA_BAD_INPUT_DATA );
1883:Source\mbedtls_open\library/rsa.c **** 
1884:Source\mbedtls_open\library/rsa.c ****     siglen = ctx->len;
1885:Source\mbedtls_open\library/rsa.c **** 
1886:Source\mbedtls_open\library/rsa.c ****     if( siglen < 16 || siglen > sizeof( buf ) )
1887:Source\mbedtls_open\library/rsa.c ****         return( MBEDTLS_ERR_RSA_BAD_INPUT_DATA );
1888:Source\mbedtls_open\library/rsa.c **** 
1889:Source\mbedtls_open\library/rsa.c ****     ret = ( mode == MBEDTLS_RSA_PUBLIC )
1890:Source\mbedtls_open\library/rsa.c ****           ? mbedtls_rsa_public(  ctx, sig, buf )
1891:Source\mbedtls_open\library/rsa.c ****           : mbedtls_rsa_private( ctx, f_rng, p_rng, sig, buf );
1892:Source\mbedtls_open\library/rsa.c **** 
1893:Source\mbedtls_open\library/rsa.c ****     if( ret != 0 )
1894:Source\mbedtls_open\library/rsa.c ****         return( ret );
1895:Source\mbedtls_open\library/rsa.c **** 
1896:Source\mbedtls_open\library/rsa.c ****     p = buf;
1897:Source\mbedtls_open\library/rsa.c **** 
1898:Source\mbedtls_open\library/rsa.c ****     if( buf[siglen - 1] != 0xBC )
1899:Source\mbedtls_open\library/rsa.c ****         return( MBEDTLS_ERR_RSA_INVALID_PADDING );
1900:Source\mbedtls_open\library/rsa.c **** 
1901:Source\mbedtls_open\library/rsa.c ****     if( md_alg != MBEDTLS_MD_NONE )
1902:Source\mbedtls_open\library/rsa.c ****     {
1903:Source\mbedtls_open\library/rsa.c ****         /* Gather length of hash to sign */
1904:Source\mbedtls_open\library/rsa.c ****         md_info = mbedtls_md_info_from_type( md_alg );
1905:Source\mbedtls_open\library/rsa.c ****         if( md_info == NULL )
1906:Source\mbedtls_open\library/rsa.c ****             return( MBEDTLS_ERR_RSA_BAD_INPUT_DATA );
1907:Source\mbedtls_open\library/rsa.c **** 
1908:Source\mbedtls_open\library/rsa.c ****         hashlen = mbedtls_md_get_size( md_info );
1909:Source\mbedtls_open\library/rsa.c ****     }
1910:Source\mbedtls_open\library/rsa.c **** 
1911:Source\mbedtls_open\library/rsa.c ****     md_info = mbedtls_md_info_from_type( mgf1_hash_id );
1912:Source\mbedtls_open\library/rsa.c ****     if( md_info == NULL )
1913:Source\mbedtls_open\library/rsa.c ****         return( MBEDTLS_ERR_RSA_BAD_INPUT_DATA );
1914:Source\mbedtls_open\library/rsa.c **** 
1915:Source\mbedtls_open\library/rsa.c ****     hlen = mbedtls_md_get_size( md_info );
1916:Source\mbedtls_open\library/rsa.c **** 
1917:Source\mbedtls_open\library/rsa.c ****     memset( zeros, 0, 8 );
1918:Source\mbedtls_open\library/rsa.c **** 
1919:Source\mbedtls_open\library/rsa.c ****     /*
1920:Source\mbedtls_open\library/rsa.c ****      * Note: EMSA-PSS verification is over the length of N - 1 bits
1921:Source\mbedtls_open\library/rsa.c ****      */
1922:Source\mbedtls_open\library/rsa.c ****     msb = mbedtls_mpi_bitlen( &ctx->N ) - 1;
1923:Source\mbedtls_open\library/rsa.c **** 
1924:Source\mbedtls_open\library/rsa.c ****     if( buf[0] >> ( 8 - siglen * 8 + msb ) )
1925:Source\mbedtls_open\library/rsa.c ****         return( MBEDTLS_ERR_RSA_BAD_INPUT_DATA );
1926:Source\mbedtls_open\library/rsa.c **** 
1927:Source\mbedtls_open\library/rsa.c ****     /* Compensate for boundary condition when applying mask */
1928:Source\mbedtls_open\library/rsa.c ****     if( msb % 8 == 0 )
1929:Source\mbedtls_open\library/rsa.c ****     {
1930:Source\mbedtls_open\library/rsa.c ****         p++;
1931:Source\mbedtls_open\library/rsa.c ****         siglen -= 1;
ARM GAS  C:\Users\Phuong\AppData\Local\Temp\ccgu0w7m.s 			page 50


1932:Source\mbedtls_open\library/rsa.c ****     }
1933:Source\mbedtls_open\library/rsa.c **** 
1934:Source\mbedtls_open\library/rsa.c ****     if( siglen < hlen + 2 )
1935:Source\mbedtls_open\library/rsa.c ****         return( MBEDTLS_ERR_RSA_BAD_INPUT_DATA );
1936:Source\mbedtls_open\library/rsa.c ****     hash_start = p + siglen - hlen - 1;
1937:Source\mbedtls_open\library/rsa.c **** 
1938:Source\mbedtls_open\library/rsa.c ****     mbedtls_md_init( &md_ctx );
1939:Source\mbedtls_open\library/rsa.c ****     if( ( ret = mbedtls_md_setup( &md_ctx, md_info, 0 ) ) != 0 )
1940:Source\mbedtls_open\library/rsa.c ****         goto exit;
1941:Source\mbedtls_open\library/rsa.c **** 
1942:Source\mbedtls_open\library/rsa.c ****     ret = mgf_mask( p, siglen - hlen - 1, hash_start, hlen, &md_ctx );
1943:Source\mbedtls_open\library/rsa.c ****     if( ret != 0 )
1944:Source\mbedtls_open\library/rsa.c ****         goto exit;
1945:Source\mbedtls_open\library/rsa.c **** 
1946:Source\mbedtls_open\library/rsa.c ****     buf[0] &= 0xFF >> ( siglen * 8 - msb );
1947:Source\mbedtls_open\library/rsa.c **** 
1948:Source\mbedtls_open\library/rsa.c ****     while( p < hash_start - 1 && *p == 0 )
1949:Source\mbedtls_open\library/rsa.c ****         p++;
1950:Source\mbedtls_open\library/rsa.c **** 
1951:Source\mbedtls_open\library/rsa.c ****     if( *p++ != 0x01 )
1952:Source\mbedtls_open\library/rsa.c ****     {
1953:Source\mbedtls_open\library/rsa.c ****         ret = MBEDTLS_ERR_RSA_INVALID_PADDING;
1954:Source\mbedtls_open\library/rsa.c ****         goto exit;
1955:Source\mbedtls_open\library/rsa.c ****     }
1956:Source\mbedtls_open\library/rsa.c **** 
1957:Source\mbedtls_open\library/rsa.c ****     observed_salt_len = hash_start - p;
1958:Source\mbedtls_open\library/rsa.c **** 
1959:Source\mbedtls_open\library/rsa.c ****     if( expected_salt_len != MBEDTLS_RSA_SALT_LEN_ANY &&
1960:Source\mbedtls_open\library/rsa.c ****         observed_salt_len != (size_t) expected_salt_len )
1961:Source\mbedtls_open\library/rsa.c ****     {
1962:Source\mbedtls_open\library/rsa.c ****         ret = MBEDTLS_ERR_RSA_INVALID_PADDING;
1963:Source\mbedtls_open\library/rsa.c ****         goto exit;
1964:Source\mbedtls_open\library/rsa.c ****     }
1965:Source\mbedtls_open\library/rsa.c **** 
1966:Source\mbedtls_open\library/rsa.c ****     /*
1967:Source\mbedtls_open\library/rsa.c ****      * Generate H = Hash( M' )
1968:Source\mbedtls_open\library/rsa.c ****      */
1969:Source\mbedtls_open\library/rsa.c ****     ret = mbedtls_md_starts( &md_ctx );
1970:Source\mbedtls_open\library/rsa.c ****     if ( ret != 0 )
1971:Source\mbedtls_open\library/rsa.c ****         goto exit;
1972:Source\mbedtls_open\library/rsa.c ****     ret = mbedtls_md_update( &md_ctx, zeros, 8 );
1973:Source\mbedtls_open\library/rsa.c ****     if ( ret != 0 )
1974:Source\mbedtls_open\library/rsa.c ****         goto exit;
1975:Source\mbedtls_open\library/rsa.c ****     ret = mbedtls_md_update( &md_ctx, hash, hashlen );
1976:Source\mbedtls_open\library/rsa.c ****     if ( ret != 0 )
1977:Source\mbedtls_open\library/rsa.c ****         goto exit;
1978:Source\mbedtls_open\library/rsa.c ****     ret = mbedtls_md_update( &md_ctx, p, observed_salt_len );
1979:Source\mbedtls_open\library/rsa.c ****     if ( ret != 0 )
1980:Source\mbedtls_open\library/rsa.c ****         goto exit;
1981:Source\mbedtls_open\library/rsa.c ****     ret = mbedtls_md_finish( &md_ctx, result );
1982:Source\mbedtls_open\library/rsa.c ****     if ( ret != 0 )
1983:Source\mbedtls_open\library/rsa.c ****         goto exit;
1984:Source\mbedtls_open\library/rsa.c **** 
1985:Source\mbedtls_open\library/rsa.c ****     if( memcmp( hash_start, result, hlen ) != 0 )
1986:Source\mbedtls_open\library/rsa.c ****     {
1987:Source\mbedtls_open\library/rsa.c ****         ret = MBEDTLS_ERR_RSA_VERIFY_FAILED;
1988:Source\mbedtls_open\library/rsa.c ****         goto exit;
ARM GAS  C:\Users\Phuong\AppData\Local\Temp\ccgu0w7m.s 			page 51


1989:Source\mbedtls_open\library/rsa.c ****     }
1990:Source\mbedtls_open\library/rsa.c **** 
1991:Source\mbedtls_open\library/rsa.c **** exit:
1992:Source\mbedtls_open\library/rsa.c ****     mbedtls_md_free( &md_ctx );
1993:Source\mbedtls_open\library/rsa.c **** 
1994:Source\mbedtls_open\library/rsa.c ****     return( ret );
1995:Source\mbedtls_open\library/rsa.c **** }
1996:Source\mbedtls_open\library/rsa.c **** 
1997:Source\mbedtls_open\library/rsa.c **** /*
1998:Source\mbedtls_open\library/rsa.c ****  * Simplified PKCS#1 v2.1 RSASSA-PSS-VERIFY function
1999:Source\mbedtls_open\library/rsa.c ****  */
2000:Source\mbedtls_open\library/rsa.c **** int mbedtls_rsa_rsassa_pss_verify( mbedtls_rsa_context *ctx,
2001:Source\mbedtls_open\library/rsa.c ****                            int (*f_rng)(void *, unsigned char *, size_t),
2002:Source\mbedtls_open\library/rsa.c ****                            void *p_rng,
2003:Source\mbedtls_open\library/rsa.c ****                            int mode,
2004:Source\mbedtls_open\library/rsa.c ****                            mbedtls_md_type_t md_alg,
2005:Source\mbedtls_open\library/rsa.c ****                            unsigned int hashlen,
2006:Source\mbedtls_open\library/rsa.c ****                            const unsigned char *hash,
2007:Source\mbedtls_open\library/rsa.c ****                            const unsigned char *sig )
2008:Source\mbedtls_open\library/rsa.c **** {
2009:Source\mbedtls_open\library/rsa.c ****     mbedtls_md_type_t mgf1_hash_id = ( ctx->hash_id != MBEDTLS_MD_NONE )
2010:Source\mbedtls_open\library/rsa.c ****                              ? (mbedtls_md_type_t) ctx->hash_id
2011:Source\mbedtls_open\library/rsa.c ****                              : md_alg;
2012:Source\mbedtls_open\library/rsa.c **** 
2013:Source\mbedtls_open\library/rsa.c ****     return( mbedtls_rsa_rsassa_pss_verify_ext( ctx, f_rng, p_rng, mode,
2014:Source\mbedtls_open\library/rsa.c ****                                        md_alg, hashlen, hash,
2015:Source\mbedtls_open\library/rsa.c ****                                        mgf1_hash_id, MBEDTLS_RSA_SALT_LEN_ANY,
2016:Source\mbedtls_open\library/rsa.c ****                                        sig ) );
2017:Source\mbedtls_open\library/rsa.c **** 
2018:Source\mbedtls_open\library/rsa.c **** }
2019:Source\mbedtls_open\library/rsa.c **** #endif /* MBEDTLS_PKCS1_V21 */
2020:Source\mbedtls_open\library/rsa.c **** 
2021:Source\mbedtls_open\library/rsa.c **** #if defined(MBEDTLS_PKCS1_V15)
2022:Source\mbedtls_open\library/rsa.c **** /*
2023:Source\mbedtls_open\library/rsa.c ****  * Implementation of the PKCS#1 v2.1 RSASSA-PKCS1-v1_5-VERIFY function
2024:Source\mbedtls_open\library/rsa.c ****  */
2025:Source\mbedtls_open\library/rsa.c **** int mbedtls_rsa_rsassa_pkcs1_v15_verify( mbedtls_rsa_context *ctx,
2026:Source\mbedtls_open\library/rsa.c ****                                  int (*f_rng)(void *, unsigned char *, size_t),
2027:Source\mbedtls_open\library/rsa.c ****                                  void *p_rng,
2028:Source\mbedtls_open\library/rsa.c ****                                  int mode,
2029:Source\mbedtls_open\library/rsa.c ****                                  mbedtls_md_type_t md_alg,
2030:Source\mbedtls_open\library/rsa.c ****                                  unsigned int hashlen,
2031:Source\mbedtls_open\library/rsa.c ****                                  const unsigned char *hash,
2032:Source\mbedtls_open\library/rsa.c ****                                  const unsigned char *sig )
2033:Source\mbedtls_open\library/rsa.c **** {
2034:Source\mbedtls_open\library/rsa.c ****     int ret = 0;
2035:Source\mbedtls_open\library/rsa.c ****     const size_t sig_len = ctx->len;
2036:Source\mbedtls_open\library/rsa.c ****     unsigned char *encoded = NULL, *encoded_expected = NULL;
2037:Source\mbedtls_open\library/rsa.c **** 
2038:Source\mbedtls_open\library/rsa.c ****     if( mode == MBEDTLS_RSA_PRIVATE && ctx->padding != MBEDTLS_RSA_PKCS_V15 )
2039:Source\mbedtls_open\library/rsa.c ****         return( MBEDTLS_ERR_RSA_BAD_INPUT_DATA );
2040:Source\mbedtls_open\library/rsa.c **** 
2041:Source\mbedtls_open\library/rsa.c ****     /*
2042:Source\mbedtls_open\library/rsa.c ****      * Prepare expected PKCS1 v1.5 encoding of hash.
2043:Source\mbedtls_open\library/rsa.c ****      */
2044:Source\mbedtls_open\library/rsa.c **** 
2045:Source\mbedtls_open\library/rsa.c ****     if( ( encoded          = mbedtls_calloc( 1, sig_len ) ) == NULL ||
ARM GAS  C:\Users\Phuong\AppData\Local\Temp\ccgu0w7m.s 			page 52


2046:Source\mbedtls_open\library/rsa.c ****         ( encoded_expected = mbedtls_calloc( 1, sig_len ) ) == NULL )
2047:Source\mbedtls_open\library/rsa.c ****     {
2048:Source\mbedtls_open\library/rsa.c ****         ret = MBEDTLS_ERR_MPI_ALLOC_FAILED;
2049:Source\mbedtls_open\library/rsa.c ****         goto cleanup;
2050:Source\mbedtls_open\library/rsa.c ****     }
2051:Source\mbedtls_open\library/rsa.c **** 
2052:Source\mbedtls_open\library/rsa.c ****     if( ( ret = rsa_rsassa_pkcs1_v15_encode( md_alg, hashlen, hash, sig_len,
2053:Source\mbedtls_open\library/rsa.c ****                                              encoded_expected ) ) != 0 )
2054:Source\mbedtls_open\library/rsa.c ****         goto cleanup;
2055:Source\mbedtls_open\library/rsa.c **** 
2056:Source\mbedtls_open\library/rsa.c ****     /*
2057:Source\mbedtls_open\library/rsa.c ****      * Apply RSA primitive to get what should be PKCS1 encoded hash.
2058:Source\mbedtls_open\library/rsa.c ****      */
2059:Source\mbedtls_open\library/rsa.c **** 
2060:Source\mbedtls_open\library/rsa.c ****     ret = ( mode == MBEDTLS_RSA_PUBLIC )
2061:Source\mbedtls_open\library/rsa.c ****           ? mbedtls_rsa_public(  ctx, sig, encoded )
2062:Source\mbedtls_open\library/rsa.c ****           : mbedtls_rsa_private( ctx, f_rng, p_rng, sig, encoded );
2063:Source\mbedtls_open\library/rsa.c ****     if( ret != 0 )
2064:Source\mbedtls_open\library/rsa.c ****         goto cleanup;
2065:Source\mbedtls_open\library/rsa.c **** 
2066:Source\mbedtls_open\library/rsa.c ****     /*
2067:Source\mbedtls_open\library/rsa.c ****      * Compare
2068:Source\mbedtls_open\library/rsa.c ****      */
2069:Source\mbedtls_open\library/rsa.c **** 
2070:Source\mbedtls_open\library/rsa.c ****     if( ( ret = mbedtls_safer_memcmp( encoded, encoded_expected,
2071:Source\mbedtls_open\library/rsa.c ****                                       sig_len ) ) != 0 )
2072:Source\mbedtls_open\library/rsa.c ****     {
2073:Source\mbedtls_open\library/rsa.c ****         ret = MBEDTLS_ERR_RSA_VERIFY_FAILED;
2074:Source\mbedtls_open\library/rsa.c ****         goto cleanup;
2075:Source\mbedtls_open\library/rsa.c ****     }
2076:Source\mbedtls_open\library/rsa.c **** 
2077:Source\mbedtls_open\library/rsa.c **** cleanup:
2078:Source\mbedtls_open\library/rsa.c **** 
2079:Source\mbedtls_open\library/rsa.c ****     if( encoded != NULL )
2080:Source\mbedtls_open\library/rsa.c ****     {
2081:Source\mbedtls_open\library/rsa.c ****         mbedtls_platform_zeroize( encoded, sig_len );
2082:Source\mbedtls_open\library/rsa.c ****         mbedtls_free( encoded );
2083:Source\mbedtls_open\library/rsa.c ****     }
2084:Source\mbedtls_open\library/rsa.c **** 
2085:Source\mbedtls_open\library/rsa.c ****     if( encoded_expected != NULL )
2086:Source\mbedtls_open\library/rsa.c ****     {
2087:Source\mbedtls_open\library/rsa.c ****         mbedtls_platform_zeroize( encoded_expected, sig_len );
2088:Source\mbedtls_open\library/rsa.c ****         mbedtls_free( encoded_expected );
2089:Source\mbedtls_open\library/rsa.c ****     }
2090:Source\mbedtls_open\library/rsa.c **** 
2091:Source\mbedtls_open\library/rsa.c ****     return( ret );
2092:Source\mbedtls_open\library/rsa.c **** }
2093:Source\mbedtls_open\library/rsa.c **** #endif /* MBEDTLS_PKCS1_V15 */
2094:Source\mbedtls_open\library/rsa.c **** 
2095:Source\mbedtls_open\library/rsa.c **** /*
2096:Source\mbedtls_open\library/rsa.c ****  * Do an RSA operation and check the message digest
2097:Source\mbedtls_open\library/rsa.c ****  */
2098:Source\mbedtls_open\library/rsa.c **** int mbedtls_rsa_pkcs1_verify( mbedtls_rsa_context *ctx,
2099:Source\mbedtls_open\library/rsa.c ****                       int (*f_rng)(void *, unsigned char *, size_t),
2100:Source\mbedtls_open\library/rsa.c ****                       void *p_rng,
2101:Source\mbedtls_open\library/rsa.c ****                       int mode,
2102:Source\mbedtls_open\library/rsa.c ****                       mbedtls_md_type_t md_alg,
ARM GAS  C:\Users\Phuong\AppData\Local\Temp\ccgu0w7m.s 			page 53


2103:Source\mbedtls_open\library/rsa.c ****                       unsigned int hashlen,
2104:Source\mbedtls_open\library/rsa.c ****                       const unsigned char *hash,
2105:Source\mbedtls_open\library/rsa.c ****                       const unsigned char *sig )
2106:Source\mbedtls_open\library/rsa.c **** {
2107:Source\mbedtls_open\library/rsa.c ****     switch( ctx->padding )
2108:Source\mbedtls_open\library/rsa.c ****     {
2109:Source\mbedtls_open\library/rsa.c **** #if defined(MBEDTLS_PKCS1_V15)
2110:Source\mbedtls_open\library/rsa.c ****         case MBEDTLS_RSA_PKCS_V15:
2111:Source\mbedtls_open\library/rsa.c ****             return mbedtls_rsa_rsassa_pkcs1_v15_verify( ctx, f_rng, p_rng, mode, md_alg,
2112:Source\mbedtls_open\library/rsa.c ****                                                 hashlen, hash, sig );
2113:Source\mbedtls_open\library/rsa.c **** #endif
2114:Source\mbedtls_open\library/rsa.c **** 
2115:Source\mbedtls_open\library/rsa.c **** #if defined(MBEDTLS_PKCS1_V21)
2116:Source\mbedtls_open\library/rsa.c ****         case MBEDTLS_RSA_PKCS_V21:
2117:Source\mbedtls_open\library/rsa.c ****             return mbedtls_rsa_rsassa_pss_verify( ctx, f_rng, p_rng, mode, md_alg,
2118:Source\mbedtls_open\library/rsa.c ****                                           hashlen, hash, sig );
2119:Source\mbedtls_open\library/rsa.c **** #endif
2120:Source\mbedtls_open\library/rsa.c **** 
2121:Source\mbedtls_open\library/rsa.c ****         default:
2122:Source\mbedtls_open\library/rsa.c ****             return( MBEDTLS_ERR_RSA_INVALID_PADDING );
2123:Source\mbedtls_open\library/rsa.c ****     }
2124:Source\mbedtls_open\library/rsa.c **** }
2125:Source\mbedtls_open\library/rsa.c **** 
2126:Source\mbedtls_open\library/rsa.c **** /*
2127:Source\mbedtls_open\library/rsa.c ****  * Copy the components of an RSA key
2128:Source\mbedtls_open\library/rsa.c ****  */
2129:Source\mbedtls_open\library/rsa.c **** int mbedtls_rsa_copy( mbedtls_rsa_context *dst, const mbedtls_rsa_context *src )
2130:Source\mbedtls_open\library/rsa.c **** {
2131:Source\mbedtls_open\library/rsa.c ****     int ret;
2132:Source\mbedtls_open\library/rsa.c **** 
2133:Source\mbedtls_open\library/rsa.c ****     dst->ver = src->ver;
2134:Source\mbedtls_open\library/rsa.c ****     dst->len = src->len;
2135:Source\mbedtls_open\library/rsa.c **** 
2136:Source\mbedtls_open\library/rsa.c ****     MBEDTLS_MPI_CHK( mbedtls_mpi_copy( &dst->N, &src->N ) );
2137:Source\mbedtls_open\library/rsa.c ****     MBEDTLS_MPI_CHK( mbedtls_mpi_copy( &dst->E, &src->E ) );
2138:Source\mbedtls_open\library/rsa.c **** 
2139:Source\mbedtls_open\library/rsa.c ****     MBEDTLS_MPI_CHK( mbedtls_mpi_copy( &dst->D, &src->D ) );
2140:Source\mbedtls_open\library/rsa.c ****     MBEDTLS_MPI_CHK( mbedtls_mpi_copy( &dst->P, &src->P ) );
2141:Source\mbedtls_open\library/rsa.c ****     MBEDTLS_MPI_CHK( mbedtls_mpi_copy( &dst->Q, &src->Q ) );
2142:Source\mbedtls_open\library/rsa.c **** 
2143:Source\mbedtls_open\library/rsa.c **** #if !defined(MBEDTLS_RSA_NO_CRT)
2144:Source\mbedtls_open\library/rsa.c ****     MBEDTLS_MPI_CHK( mbedtls_mpi_copy( &dst->DP, &src->DP ) );
2145:Source\mbedtls_open\library/rsa.c ****     MBEDTLS_MPI_CHK( mbedtls_mpi_copy( &dst->DQ, &src->DQ ) );
2146:Source\mbedtls_open\library/rsa.c ****     MBEDTLS_MPI_CHK( mbedtls_mpi_copy( &dst->QP, &src->QP ) );
2147:Source\mbedtls_open\library/rsa.c ****     MBEDTLS_MPI_CHK( mbedtls_mpi_copy( &dst->RP, &src->RP ) );
2148:Source\mbedtls_open\library/rsa.c ****     MBEDTLS_MPI_CHK( mbedtls_mpi_copy( &dst->RQ, &src->RQ ) );
2149:Source\mbedtls_open\library/rsa.c **** #endif
2150:Source\mbedtls_open\library/rsa.c **** 
2151:Source\mbedtls_open\library/rsa.c ****     MBEDTLS_MPI_CHK( mbedtls_mpi_copy( &dst->RN, &src->RN ) );
2152:Source\mbedtls_open\library/rsa.c **** 
2153:Source\mbedtls_open\library/rsa.c ****     MBEDTLS_MPI_CHK( mbedtls_mpi_copy( &dst->Vi, &src->Vi ) );
2154:Source\mbedtls_open\library/rsa.c ****     MBEDTLS_MPI_CHK( mbedtls_mpi_copy( &dst->Vf, &src->Vf ) );
2155:Source\mbedtls_open\library/rsa.c **** 
2156:Source\mbedtls_open\library/rsa.c ****     dst->padding = src->padding;
2157:Source\mbedtls_open\library/rsa.c ****     dst->hash_id = src->hash_id;
2158:Source\mbedtls_open\library/rsa.c **** 
2159:Source\mbedtls_open\library/rsa.c **** cleanup:
ARM GAS  C:\Users\Phuong\AppData\Local\Temp\ccgu0w7m.s 			page 54


2160:Source\mbedtls_open\library/rsa.c ****     if( ret != 0 )
2161:Source\mbedtls_open\library/rsa.c ****         mbedtls_rsa_free( dst );
2162:Source\mbedtls_open\library/rsa.c **** 
2163:Source\mbedtls_open\library/rsa.c ****     return( ret );
2164:Source\mbedtls_open\library/rsa.c **** }
2165:Source\mbedtls_open\library/rsa.c **** 
2166:Source\mbedtls_open\library/rsa.c **** /*
2167:Source\mbedtls_open\library/rsa.c ****  * Free the components of an RSA key
2168:Source\mbedtls_open\library/rsa.c ****  */
2169:Source\mbedtls_open\library/rsa.c **** void mbedtls_rsa_free( mbedtls_rsa_context *ctx )
2170:Source\mbedtls_open\library/rsa.c **** {
2171:Source\mbedtls_open\library/rsa.c ****     mbedtls_mpi_free( &ctx->Vi ); mbedtls_mpi_free( &ctx->Vf );
2172:Source\mbedtls_open\library/rsa.c ****     mbedtls_mpi_free( &ctx->RN ); mbedtls_mpi_free( &ctx->D  );
2173:Source\mbedtls_open\library/rsa.c ****     mbedtls_mpi_free( &ctx->Q  ); mbedtls_mpi_free( &ctx->P  );
2174:Source\mbedtls_open\library/rsa.c ****     mbedtls_mpi_free( &ctx->E  ); mbedtls_mpi_free( &ctx->N  );
2175:Source\mbedtls_open\library/rsa.c **** 
2176:Source\mbedtls_open\library/rsa.c **** #if !defined(MBEDTLS_RSA_NO_CRT)
2177:Source\mbedtls_open\library/rsa.c ****     mbedtls_mpi_free( &ctx->RQ ); mbedtls_mpi_free( &ctx->RP );
2178:Source\mbedtls_open\library/rsa.c ****     mbedtls_mpi_free( &ctx->QP ); mbedtls_mpi_free( &ctx->DQ );
2179:Source\mbedtls_open\library/rsa.c ****     mbedtls_mpi_free( &ctx->DP );
2180:Source\mbedtls_open\library/rsa.c **** #endif /* MBEDTLS_RSA_NO_CRT */
2181:Source\mbedtls_open\library/rsa.c **** 
2182:Source\mbedtls_open\library/rsa.c **** #if defined(MBEDTLS_THREADING_C)
2183:Source\mbedtls_open\library/rsa.c ****     mbedtls_mutex_free( &ctx->mutex );
2184:Source\mbedtls_open\library/rsa.c **** #endif
2185:Source\mbedtls_open\library/rsa.c **** }
2186:Source\mbedtls_open\library/rsa.c **** 
2187:Source\mbedtls_open\library/rsa.c **** #endif /* !MBEDTLS_RSA_ALT */
2188:Source\mbedtls_open\library/rsa.c **** 
2189:Source\mbedtls_open\library/rsa.c **** #if defined(MBEDTLS_SELF_TEST)
2190:Source\mbedtls_open\library/rsa.c **** 
2191:Source\mbedtls_open\library/rsa.c **** #include "mbedtls/sha1.h"
2192:Source\mbedtls_open\library/rsa.c **** 
2193:Source\mbedtls_open\library/rsa.c **** /*
2194:Source\mbedtls_open\library/rsa.c ****  * Example RSA-1024 keypair, for test purposes
2195:Source\mbedtls_open\library/rsa.c ****  */
2196:Source\mbedtls_open\library/rsa.c **** #define KEY_LEN 128
2197:Source\mbedtls_open\library/rsa.c **** 
2198:Source\mbedtls_open\library/rsa.c **** #define RSA_N   "9292758453063D803DD603D5E777D788" \
2199:Source\mbedtls_open\library/rsa.c ****                 "8ED1D5BF35786190FA2F23EBC0848AEA" \
2200:Source\mbedtls_open\library/rsa.c ****                 "DDA92CA6C3D80B32C4D109BE0F36D6AE" \
2201:Source\mbedtls_open\library/rsa.c ****                 "7130B9CED7ACDF54CFC7555AC14EEBAB" \
2202:Source\mbedtls_open\library/rsa.c ****                 "93A89813FBF3C4F8066D2D800F7C38A8" \
2203:Source\mbedtls_open\library/rsa.c ****                 "1AE31942917403FF4946B0A83D3D3E05" \
2204:Source\mbedtls_open\library/rsa.c ****                 "EE57C6F5F5606FB5D4BC6CD34EE0801A" \
2205:Source\mbedtls_open\library/rsa.c ****                 "5E94BB77B07507233A0BC7BAC8F90F79"
2206:Source\mbedtls_open\library/rsa.c **** 
2207:Source\mbedtls_open\library/rsa.c **** #define RSA_E   "10001"
2208:Source\mbedtls_open\library/rsa.c **** 
2209:Source\mbedtls_open\library/rsa.c **** #define RSA_D   "24BF6185468786FDD303083D25E64EFC" \
2210:Source\mbedtls_open\library/rsa.c ****                 "66CA472BC44D253102F8B4A9D3BFA750" \
2211:Source\mbedtls_open\library/rsa.c ****                 "91386C0077937FE33FA3252D28855837" \
2212:Source\mbedtls_open\library/rsa.c ****                 "AE1B484A8A9A45F7EE8C0C634F99E8CD" \
2213:Source\mbedtls_open\library/rsa.c ****                 "DF79C5CE07EE72C7F123142198164234" \
2214:Source\mbedtls_open\library/rsa.c ****                 "CABB724CF78B8173B9F880FC86322407" \
2215:Source\mbedtls_open\library/rsa.c ****                 "AF1FEDFDDE2BEB674CA15F3E81A1521E" \
2216:Source\mbedtls_open\library/rsa.c ****                 "071513A1E85B5DFA031F21ECAE91A34D"
ARM GAS  C:\Users\Phuong\AppData\Local\Temp\ccgu0w7m.s 			page 55


2217:Source\mbedtls_open\library/rsa.c **** 
2218:Source\mbedtls_open\library/rsa.c **** #define RSA_P   "C36D0EB7FCD285223CFB5AABA5BDA3D8" \
2219:Source\mbedtls_open\library/rsa.c ****                 "2C01CAD19EA484A87EA4377637E75500" \
2220:Source\mbedtls_open\library/rsa.c ****                 "FCB2005C5C7DD6EC4AC023CDA285D796" \
2221:Source\mbedtls_open\library/rsa.c ****                 "C3D9E75E1EFC42488BB4F1D13AC30A57"
2222:Source\mbedtls_open\library/rsa.c **** 
2223:Source\mbedtls_open\library/rsa.c **** #define RSA_Q   "C000DF51A7C77AE8D7C7370C1FF55B69" \
2224:Source\mbedtls_open\library/rsa.c ****                 "E211C2B9E5DB1ED0BF61D0D9899620F4" \
2225:Source\mbedtls_open\library/rsa.c ****                 "910E4168387E3C30AA1E00C339A79508" \
2226:Source\mbedtls_open\library/rsa.c ****                 "8452DD96A9A5EA5D9DCA68DA636032AF"
2227:Source\mbedtls_open\library/rsa.c **** 
2228:Source\mbedtls_open\library/rsa.c **** #define PT_LEN  24
2229:Source\mbedtls_open\library/rsa.c **** #define RSA_PT  "\xAA\xBB\xCC\x03\x02\x01\x00\xFF\xFF\xFF\xFF\xFF" \
2230:Source\mbedtls_open\library/rsa.c ****                 "\x11\x22\x33\x0A\x0B\x0C\xCC\xDD\xDD\xDD\xDD\xDD"
2231:Source\mbedtls_open\library/rsa.c **** 
2232:Source\mbedtls_open\library/rsa.c **** #if defined(MBEDTLS_PKCS1_V15)
2233:Source\mbedtls_open\library/rsa.c **** static int myrand( void *rng_state, unsigned char *output, size_t len )
2234:Source\mbedtls_open\library/rsa.c **** {
 835              		.loc 1 2234 0
 836              		.cfi_startproc
 837              		@ args = 0, pretend = 0, frame = 0
 838              		@ frame_needed = 0, uses_anonymous_args = 0
 839              	.LVL121:
 840 0000 F8B5     		push	{r3, r4, r5, r6, r7, lr}
 841              		.cfi_def_cfa_offset 24
 842              		.cfi_offset 3, -24
 843              		.cfi_offset 4, -20
 844              		.cfi_offset 5, -16
 845              		.cfi_offset 6, -12
 846              		.cfi_offset 7, -8
 847              		.cfi_offset 14, -4
 848 0002 0F00     		movs	r7, r1
 849 0004 1600     		movs	r6, r2
2235:Source\mbedtls_open\library/rsa.c **** #if !defined(__OpenBSD__)
2236:Source\mbedtls_open\library/rsa.c ****     size_t i;
2237:Source\mbedtls_open\library/rsa.c **** 
2238:Source\mbedtls_open\library/rsa.c ****     if( rng_state != NULL )
2239:Source\mbedtls_open\library/rsa.c ****         rng_state  = NULL;
2240:Source\mbedtls_open\library/rsa.c **** 
2241:Source\mbedtls_open\library/rsa.c ****     for( i = 0; i < len; ++i )
 850              		.loc 1 2241 0
 851 0006 0024     		movs	r4, #0
 852 0008 04E0     		b	.L58
 853              	.LVL122:
 854              	.L59:
2242:Source\mbedtls_open\library/rsa.c ****         output[i] = rand();
 855              		.loc 1 2242 0 discriminator 3
 856 000a 3D19     		adds	r5, r7, r4
 857 000c FFF7FEFF 		bl	rand
 858              	.LVL123:
 859 0010 2870     		strb	r0, [r5]
2241:Source\mbedtls_open\library/rsa.c ****         output[i] = rand();
 860              		.loc 1 2241 0 discriminator 3
 861 0012 0134     		adds	r4, r4, #1
 862              	.LVL124:
 863              	.L58:
2241:Source\mbedtls_open\library/rsa.c ****         output[i] = rand();
ARM GAS  C:\Users\Phuong\AppData\Local\Temp\ccgu0w7m.s 			page 56


 864              		.loc 1 2241 0 is_stmt 0 discriminator 1
 865 0014 B442     		cmp	r4, r6
 866 0016 F8D3     		bcc	.L59
2243:Source\mbedtls_open\library/rsa.c **** #else
2244:Source\mbedtls_open\library/rsa.c ****     if( rng_state != NULL )
2245:Source\mbedtls_open\library/rsa.c ****         rng_state = NULL;
2246:Source\mbedtls_open\library/rsa.c **** 
2247:Source\mbedtls_open\library/rsa.c ****     arc4random_buf( output, len );
2248:Source\mbedtls_open\library/rsa.c **** #endif /* !OpenBSD */
2249:Source\mbedtls_open\library/rsa.c **** 
2250:Source\mbedtls_open\library/rsa.c ****     return( 0 );
2251:Source\mbedtls_open\library/rsa.c **** }
 867              		.loc 1 2251 0 is_stmt 1
 868 0018 0020     		movs	r0, #0
 869              		@ sp needed
 870              	.LVL125:
 871              	.LVL126:
 872              	.LVL127:
 873 001a F8BD     		pop	{r3, r4, r5, r6, r7, pc}
 874              		.cfi_endproc
 875              	.LFE46:
 876              		.size	myrand, .-myrand
 877              		.section	.text.mbedtls_rsa_import,"ax",%progbits
 878              		.align	2
 879              		.global	mbedtls_rsa_import
 880              		.code	16
 881              		.thumb_func
 882              		.type	mbedtls_rsa_import, %function
 883              	mbedtls_rsa_import:
 884              	.LFB12:
  94:Source\mbedtls_open\library/rsa.c ****     int ret;
 885              		.loc 1 94 0
 886              		.cfi_startproc
 887              		@ args = 8, pretend = 0, frame = 0
 888              		@ frame_needed = 0, uses_anonymous_args = 0
 889              	.LVL128:
 890 0000 F8B5     		push	{r3, r4, r5, r6, r7, lr}
 891              		.cfi_def_cfa_offset 24
 892              		.cfi_offset 3, -24
 893              		.cfi_offset 4, -20
 894              		.cfi_offset 5, -16
 895              		.cfi_offset 6, -12
 896              		.cfi_offset 7, -8
 897              		.cfi_offset 14, -4
 898 0002 0700     		movs	r7, r0
 899 0004 0C00     		movs	r4, r1
 900 0006 1500     		movs	r5, r2
 901 0008 1E00     		movs	r6, r3
  97:Source\mbedtls_open\library/rsa.c ****         ( P != NULL && ( ret = mbedtls_mpi_copy( &ctx->P, P ) ) != 0 ) ||
 902              		.loc 1 97 0
 903 000a 0029     		cmp	r1, #0
 904 000c 04D0     		beq	.L61
  97:Source\mbedtls_open\library/rsa.c ****         ( P != NULL && ( ret = mbedtls_mpi_copy( &ctx->P, P ) ) != 0 ) ||
 905              		.loc 1 97 0 is_stmt 0 discriminator 1
 906 000e 0830     		adds	r0, r0, #8
 907              	.LVL129:
 908 0010 FFF7FEFF 		bl	mbedtls_mpi_copy
ARM GAS  C:\Users\Phuong\AppData\Local\Temp\ccgu0w7m.s 			page 57


 909              	.LVL130:
 910 0014 0028     		cmp	r0, #0
 911 0016 25D1     		bne	.L62
 912              	.LVL131:
 913              	.L61:
  97:Source\mbedtls_open\library/rsa.c ****         ( P != NULL && ( ret = mbedtls_mpi_copy( &ctx->P, P ) ) != 0 ) ||
 914              		.loc 1 97 0 discriminator 3
 915 0018 002D     		cmp	r5, #0
 916 001a 06D0     		beq	.L63
  98:Source\mbedtls_open\library/rsa.c ****         ( Q != NULL && ( ret = mbedtls_mpi_copy( &ctx->Q, Q ) ) != 0 ) ||
 917              		.loc 1 98 0 is_stmt 1
 918 001c 3800     		movs	r0, r7
 919 001e 2C30     		adds	r0, r0, #44
 920 0020 2900     		movs	r1, r5
 921 0022 FFF7FEFF 		bl	mbedtls_mpi_copy
 922              	.LVL132:
 923 0026 0028     		cmp	r0, #0
 924 0028 1CD1     		bne	.L62
 925              	.LVL133:
 926              	.L63:
  98:Source\mbedtls_open\library/rsa.c ****         ( Q != NULL && ( ret = mbedtls_mpi_copy( &ctx->Q, Q ) ) != 0 ) ||
 927              		.loc 1 98 0 is_stmt 0 discriminator 1
 928 002a 002E     		cmp	r6, #0
 929 002c 06D0     		beq	.L64
  99:Source\mbedtls_open\library/rsa.c ****         ( D != NULL && ( ret = mbedtls_mpi_copy( &ctx->D, D ) ) != 0 ) ||
 930              		.loc 1 99 0 is_stmt 1
 931 002e 3800     		movs	r0, r7
 932 0030 3830     		adds	r0, r0, #56
 933 0032 3100     		movs	r1, r6
 934 0034 FFF7FEFF 		bl	mbedtls_mpi_copy
 935              	.LVL134:
 936 0038 0028     		cmp	r0, #0
 937 003a 13D1     		bne	.L62
 938              	.LVL135:
 939              	.L64:
  99:Source\mbedtls_open\library/rsa.c ****         ( D != NULL && ( ret = mbedtls_mpi_copy( &ctx->D, D ) ) != 0 ) ||
 940              		.loc 1 99 0 is_stmt 0 discriminator 1
 941 003c 069B     		ldr	r3, [sp, #24]
 942 003e 002B     		cmp	r3, #0
 943 0040 06D0     		beq	.L65
 100:Source\mbedtls_open\library/rsa.c ****         ( E != NULL && ( ret = mbedtls_mpi_copy( &ctx->E, E ) ) != 0 ) )
 944              		.loc 1 100 0 is_stmt 1
 945 0042 3800     		movs	r0, r7
 946 0044 2030     		adds	r0, r0, #32
 947 0046 1900     		movs	r1, r3
 948 0048 FFF7FEFF 		bl	mbedtls_mpi_copy
 949              	.LVL136:
 950 004c 0028     		cmp	r0, #0
 951 004e 09D1     		bne	.L62
 952              	.LVL137:
 953              	.L65:
 100:Source\mbedtls_open\library/rsa.c ****         ( E != NULL && ( ret = mbedtls_mpi_copy( &ctx->E, E ) ) != 0 ) )
 954              		.loc 1 100 0 is_stmt 0 discriminator 1
 955 0050 079B     		ldr	r3, [sp, #28]
 956 0052 002B     		cmp	r3, #0
 957 0054 0AD0     		beq	.L66
 101:Source\mbedtls_open\library/rsa.c ****     {
ARM GAS  C:\Users\Phuong\AppData\Local\Temp\ccgu0w7m.s 			page 58


 958              		.loc 1 101 0 is_stmt 1
 959 0056 3800     		movs	r0, r7
 960 0058 1430     		adds	r0, r0, #20
 961 005a 1900     		movs	r1, r3
 962 005c FFF7FEFF 		bl	mbedtls_mpi_copy
 963              	.LVL138:
 964 0060 0028     		cmp	r0, #0
 965 0062 03D0     		beq	.L66
 966              	.L62:
 103:Source\mbedtls_open\library/rsa.c ****     }
 967              		.loc 1 103 0
 968 0064 074B     		ldr	r3, .L69
 969 0066 9C46     		mov	ip, r3
 970 0068 6044     		add	r0, r0, ip
 971              	.LVL139:
 972 006a 09E0     		b	.L67
 973              	.LVL140:
 974              	.L66:
 106:Source\mbedtls_open\library/rsa.c ****         ctx->len = mbedtls_mpi_size( &ctx->N );
 975              		.loc 1 106 0
 976 006c 002C     		cmp	r4, #0
 977 006e 06D0     		beq	.L68
 107:Source\mbedtls_open\library/rsa.c **** 
 978              		.loc 1 107 0
 979 0070 3800     		movs	r0, r7
 980 0072 0830     		adds	r0, r0, #8
 981 0074 FFF7FEFF 		bl	mbedtls_mpi_size
 982              	.LVL141:
 983 0078 7860     		str	r0, [r7, #4]
 109:Source\mbedtls_open\library/rsa.c **** }
 984              		.loc 1 109 0
 985 007a 0020     		movs	r0, #0
 986 007c 00E0     		b	.L67
 987              	.L68:
 988 007e 0020     		movs	r0, #0
 989              	.L67:
 110:Source\mbedtls_open\library/rsa.c **** 
 990              		.loc 1 110 0
 991              		@ sp needed
 992              	.LVL142:
 993              	.LVL143:
 994              	.LVL144:
 995              	.LVL145:
 996 0080 F8BD     		pop	{r3, r4, r5, r6, r7, pc}
 997              	.L70:
 998 0082 C046     		.align	2
 999              	.L69:
 1000 0084 80BFFFFF 		.word	-16512
 1001              		.cfi_endproc
 1002              	.LFE12:
 1003              		.size	mbedtls_rsa_import, .-mbedtls_rsa_import
 1004              		.section	.text.mbedtls_rsa_import_raw,"ax",%progbits
 1005              		.align	2
 1006              		.global	mbedtls_rsa_import_raw
 1007              		.code	16
 1008              		.thumb_func
 1009              		.type	mbedtls_rsa_import_raw, %function
ARM GAS  C:\Users\Phuong\AppData\Local\Temp\ccgu0w7m.s 			page 59


 1010              	mbedtls_rsa_import_raw:
 1011              	.LFB13:
 118:Source\mbedtls_open\library/rsa.c ****     int ret = 0;
 1012              		.loc 1 118 0
 1013              		.cfi_startproc
 1014              		@ args = 28, pretend = 0, frame = 0
 1015              		@ frame_needed = 0, uses_anonymous_args = 0
 1016              	.LVL146:
 1017 0000 F8B5     		push	{r3, r4, r5, r6, r7, lr}
 1018              		.cfi_def_cfa_offset 24
 1019              		.cfi_offset 3, -24
 1020              		.cfi_offset 4, -20
 1021              		.cfi_offset 5, -16
 1022              		.cfi_offset 6, -12
 1023              		.cfi_offset 7, -8
 1024              		.cfi_offset 14, -4
 1025 0002 0500     		movs	r5, r0
 1026 0004 1E00     		movs	r6, r3
 1027              	.LVL147:
 121:Source\mbedtls_open\library/rsa.c ****     {
 1028              		.loc 1 121 0
 1029 0006 0029     		cmp	r1, #0
 1030 0008 0BD0     		beq	.L78
 123:Source\mbedtls_open\library/rsa.c ****         ctx->len = mbedtls_mpi_size( &ctx->N );
 1031              		.loc 1 123 0
 1032 000a 0700     		movs	r7, r0
 1033 000c 0837     		adds	r7, r7, #8
 1034 000e 3800     		movs	r0, r7
 1035              	.LVL148:
 1036 0010 FFF7FEFF 		bl	mbedtls_mpi_read_binary
 1037              	.LVL149:
 1038 0014 041E     		subs	r4, r0, #0
 1039              	.LVL150:
 1040 0016 2FD1     		bne	.L73
 124:Source\mbedtls_open\library/rsa.c ****     }
 1041              		.loc 1 124 0
 1042 0018 3800     		movs	r0, r7
 1043              	.LVL151:
 1044 001a FFF7FEFF 		bl	mbedtls_mpi_size
 1045              	.LVL152:
 1046 001e 6860     		str	r0, [r5, #4]
 1047 0020 00E0     		b	.L72
 1048              	.LVL153:
 1049              	.L78:
 119:Source\mbedtls_open\library/rsa.c **** 
 1050              		.loc 1 119 0
 1051 0022 0024     		movs	r4, #0
 1052              	.LVL154:
 1053              	.L72:
 127:Source\mbedtls_open\library/rsa.c ****         MBEDTLS_MPI_CHK( mbedtls_mpi_read_binary( &ctx->P, P, P_len ) );
 1054              		.loc 1 127 0
 1055 0024 002E     		cmp	r6, #0
 1056 0026 07D0     		beq	.L74
 128:Source\mbedtls_open\library/rsa.c **** 
 1057              		.loc 1 128 0
 1058 0028 2800     		movs	r0, r5
 1059 002a 2C30     		adds	r0, r0, #44
ARM GAS  C:\Users\Phuong\AppData\Local\Temp\ccgu0w7m.s 			page 60


 1060 002c 069A     		ldr	r2, [sp, #24]
 1061 002e 3100     		movs	r1, r6
 1062 0030 FFF7FEFF 		bl	mbedtls_mpi_read_binary
 1063              	.LVL155:
 1064 0034 041E     		subs	r4, r0, #0
 1065              	.LVL156:
 1066 0036 1FD1     		bne	.L73
 1067              	.LVL157:
 1068              	.L74:
 130:Source\mbedtls_open\library/rsa.c ****         MBEDTLS_MPI_CHK( mbedtls_mpi_read_binary( &ctx->Q, Q, Q_len ) );
 1069              		.loc 1 130 0
 1070 0038 079B     		ldr	r3, [sp, #28]
 1071 003a 002B     		cmp	r3, #0
 1072 003c 07D0     		beq	.L75
 131:Source\mbedtls_open\library/rsa.c **** 
 1073              		.loc 1 131 0
 1074 003e 2800     		movs	r0, r5
 1075 0040 3830     		adds	r0, r0, #56
 1076 0042 089A     		ldr	r2, [sp, #32]
 1077 0044 1900     		movs	r1, r3
 1078 0046 FFF7FEFF 		bl	mbedtls_mpi_read_binary
 1079              	.LVL158:
 1080 004a 041E     		subs	r4, r0, #0
 1081              	.LVL159:
 1082 004c 14D1     		bne	.L73
 1083              	.LVL160:
 1084              	.L75:
 133:Source\mbedtls_open\library/rsa.c ****         MBEDTLS_MPI_CHK( mbedtls_mpi_read_binary( &ctx->D, D, D_len ) );
 1085              		.loc 1 133 0
 1086 004e 099B     		ldr	r3, [sp, #36]
 1087 0050 002B     		cmp	r3, #0
 1088 0052 07D0     		beq	.L76
 134:Source\mbedtls_open\library/rsa.c **** 
 1089              		.loc 1 134 0
 1090 0054 2800     		movs	r0, r5
 1091 0056 2030     		adds	r0, r0, #32
 1092 0058 0A9A     		ldr	r2, [sp, #40]
 1093 005a 1900     		movs	r1, r3
 1094 005c FFF7FEFF 		bl	mbedtls_mpi_read_binary
 1095              	.LVL161:
 1096 0060 041E     		subs	r4, r0, #0
 1097              	.LVL162:
 1098 0062 09D1     		bne	.L73
 1099              	.LVL163:
 1100              	.L76:
 136:Source\mbedtls_open\library/rsa.c ****         MBEDTLS_MPI_CHK( mbedtls_mpi_read_binary( &ctx->E, E, E_len ) );
 1101              		.loc 1 136 0
 1102 0064 0B9B     		ldr	r3, [sp, #44]
 1103 0066 002B     		cmp	r3, #0
 1104 0068 06D0     		beq	.L73
 137:Source\mbedtls_open\library/rsa.c **** 
 1105              		.loc 1 137 0
 1106 006a 2800     		movs	r0, r5
 1107 006c 1430     		adds	r0, r0, #20
 1108 006e 0C9A     		ldr	r2, [sp, #48]
 1109 0070 1900     		movs	r1, r3
 1110 0072 FFF7FEFF 		bl	mbedtls_mpi_read_binary
ARM GAS  C:\Users\Phuong\AppData\Local\Temp\ccgu0w7m.s 			page 61


 1111              	.LVL164:
 1112 0076 0400     		movs	r4, r0
 1113              	.LVL165:
 1114              	.L73:
 141:Source\mbedtls_open\library/rsa.c ****         return( MBEDTLS_ERR_RSA_BAD_INPUT_DATA + ret );
 1115              		.loc 1 141 0
 1116 0078 002C     		cmp	r4, #0
 1117 007a 02D0     		beq	.L79
 142:Source\mbedtls_open\library/rsa.c **** 
 1118              		.loc 1 142 0
 1119 007c 024B     		ldr	r3, .L80
 1120 007e E018     		adds	r0, r4, r3
 1121 0080 00E0     		b	.L77
 1122              	.L79:
 144:Source\mbedtls_open\library/rsa.c **** }
 1123              		.loc 1 144 0
 1124 0082 0020     		movs	r0, #0
 1125              	.L77:
 145:Source\mbedtls_open\library/rsa.c **** 
 1126              		.loc 1 145 0
 1127              		@ sp needed
 1128              	.LVL166:
 1129              	.LVL167:
 1130              	.LVL168:
 1131 0084 F8BD     		pop	{r3, r4, r5, r6, r7, pc}
 1132              	.L81:
 1133 0086 C046     		.align	2
 1134              	.L80:
 1135 0088 80BFFFFF 		.word	-16512
 1136              		.cfi_endproc
 1137              	.LFE13:
 1138              		.size	mbedtls_rsa_import_raw, .-mbedtls_rsa_import_raw
 1139              		.section	.text.mbedtls_rsa_complete,"ax",%progbits
 1140              		.align	2
 1141              		.global	mbedtls_rsa_complete
 1142              		.code	16
 1143              		.thumb_func
 1144              		.type	mbedtls_rsa_complete, %function
 1145              	mbedtls_rsa_complete:
 1146              	.LFB15:
 241:Source\mbedtls_open\library/rsa.c ****     int ret = 0;
 1147              		.loc 1 241 0
 1148              		.cfi_startproc
 1149              		@ args = 0, pretend = 0, frame = 24
 1150              		@ frame_needed = 0, uses_anonymous_args = 0
 1151              	.LVL169:
 1152 0000 F0B5     		push	{r4, r5, r6, r7, lr}
 1153              		.cfi_def_cfa_offset 20
 1154              		.cfi_offset 4, -20
 1155              		.cfi_offset 5, -16
 1156              		.cfi_offset 6, -12
 1157              		.cfi_offset 7, -8
 1158              		.cfi_offset 14, -4
 1159 0002 5F46     		mov	r7, fp
 1160 0004 5646     		mov	r6, r10
 1161 0006 4D46     		mov	r5, r9
 1162 0008 4446     		mov	r4, r8
ARM GAS  C:\Users\Phuong\AppData\Local\Temp\ccgu0w7m.s 			page 62


 1163 000a F0B4     		push	{r4, r5, r6, r7}
 1164              		.cfi_def_cfa_offset 36
 1165              		.cfi_offset 8, -36
 1166              		.cfi_offset 9, -32
 1167              		.cfi_offset 10, -28
 1168              		.cfi_offset 11, -24
 1169 000c 89B0     		sub	sp, sp, #36
 1170              		.cfi_def_cfa_offset 72
 1171 000e 0400     		movs	r4, r0
 1172              	.LVL170:
 244:Source\mbedtls_open\library/rsa.c ****     const int have_P = ( mbedtls_mpi_cmp_int( &ctx->P, 0 ) != 0 );
 1173              		.loc 1 244 0
 1174 0010 0823     		movs	r3, #8
 1175 0012 9C46     		mov	ip, r3
 1176 0014 8444     		add	ip, ip, r0
 1177 0016 6346     		mov	r3, ip
 1178 0018 0793     		str	r3, [sp, #28]
 1179 001a 0021     		movs	r1, #0
 1180 001c 6046     		mov	r0, ip
 1181              	.LVL171:
 1182 001e FFF7FEFF 		bl	mbedtls_mpi_cmp_int
 1183              	.LVL172:
 1184 0022 8046     		mov	r8, r0
 1185              	.LVL173:
 245:Source\mbedtls_open\library/rsa.c ****     const int have_Q = ( mbedtls_mpi_cmp_int( &ctx->Q, 0 ) != 0 );
 1186              		.loc 1 245 0
 1187 0024 2C23     		movs	r3, #44
 1188 0026 9C46     		mov	ip, r3
 1189 0028 A444     		add	ip, ip, r4
 1190 002a 6346     		mov	r3, ip
 1191 002c 0293     		str	r3, [sp, #8]
 1192 002e 0021     		movs	r1, #0
 1193 0030 6046     		mov	r0, ip
 1194              	.LVL174:
 1195 0032 FFF7FEFF 		bl	mbedtls_mpi_cmp_int
 1196              	.LVL175:
 1197 0036 0600     		movs	r6, r0
 1198 0038 0500     		movs	r5, r0
 1199 003a 6B1E     		subs	r3, r5, #1
 1200 003c 9D41     		sbcs	r5, r5, r3
 1201 003e EDB2     		uxtb	r5, r5
 1202              	.LVL176:
 246:Source\mbedtls_open\library/rsa.c ****     const int have_D = ( mbedtls_mpi_cmp_int( &ctx->D, 0 ) != 0 );
 1203              		.loc 1 246 0
 1204 0040 3823     		movs	r3, #56
 1205 0042 9C46     		mov	ip, r3
 1206 0044 A444     		add	ip, ip, r4
 1207 0046 6346     		mov	r3, ip
 1208 0048 0393     		str	r3, [sp, #12]
 1209 004a 0021     		movs	r1, #0
 1210 004c 6046     		mov	r0, ip
 1211 004e FFF7FEFF 		bl	mbedtls_mpi_cmp_int
 1212              	.LVL177:
 1213 0052 8146     		mov	r9, r0
 1214 0054 0700     		movs	r7, r0
 1215 0056 7B1E     		subs	r3, r7, #1
 1216 0058 9F41     		sbcs	r7, r7, r3
ARM GAS  C:\Users\Phuong\AppData\Local\Temp\ccgu0w7m.s 			page 63


 1217 005a FFB2     		uxtb	r7, r7
 1218              	.LVL178:
 247:Source\mbedtls_open\library/rsa.c ****     const int have_E = ( mbedtls_mpi_cmp_int( &ctx->E, 0 ) != 0 );
 1219              		.loc 1 247 0
 1220 005c 2023     		movs	r3, #32
 1221 005e 9C46     		mov	ip, r3
 1222 0060 A444     		add	ip, ip, r4
 1223 0062 6346     		mov	r3, ip
 1224 0064 0493     		str	r3, [sp, #16]
 1225 0066 0021     		movs	r1, #0
 1226 0068 6046     		mov	r0, ip
 1227 006a FFF7FEFF 		bl	mbedtls_mpi_cmp_int
 1228              	.LVL179:
 1229 006e 8346     		mov	fp, r0
 1230 0070 0300     		movs	r3, r0
 1231 0072 5A1E     		subs	r2, r3, #1
 1232 0074 9341     		sbcs	r3, r3, r2
 1233 0076 DBB2     		uxtb	r3, r3
 1234 0078 0693     		str	r3, [sp, #24]
 1235              	.LVL180:
 248:Source\mbedtls_open\library/rsa.c **** 
 1236              		.loc 1 248 0
 1237 007a 1423     		movs	r3, #20
 1238 007c 9C46     		mov	ip, r3
 1239 007e A444     		add	ip, ip, r4
 1240 0080 6346     		mov	r3, ip
 1241 0082 0593     		str	r3, [sp, #20]
 1242 0084 0021     		movs	r1, #0
 1243 0086 6046     		mov	r0, ip
 1244 0088 FFF7FEFF 		bl	mbedtls_mpi_cmp_int
 1245              	.LVL181:
 260:Source\mbedtls_open\library/rsa.c ****     const int pq_missing =   have_N && !have_P && !have_Q &&  have_D && have_E;
 1246              		.loc 1 260 0
 1247 008c 002E     		cmp	r6, #0
 1248 008e 09D0     		beq	.L93
 260:Source\mbedtls_open\library/rsa.c ****     const int pq_missing =   have_N && !have_P && !have_Q &&  have_D && have_E;
 1249              		.loc 1 260 0 is_stmt 0 discriminator 1
 1250 0090 4B46     		mov	r3, r9
 1251 0092 002B     		cmp	r3, #0
 1252 0094 08D0     		beq	.L94
 260:Source\mbedtls_open\library/rsa.c ****     const int pq_missing =   have_N && !have_P && !have_Q &&  have_D && have_E;
 1253              		.loc 1 260 0 discriminator 3
 1254 0096 5B46     		mov	r3, fp
 1255 0098 002B     		cmp	r3, #0
 1256 009a 07D0     		beq	.L95
 260:Source\mbedtls_open\library/rsa.c ****     const int pq_missing =   have_N && !have_P && !have_Q &&  have_D && have_E;
 1257              		.loc 1 260 0 discriminator 5
 1258 009c 0028     		cmp	r0, #0
 1259 009e 07D1     		bne	.L96
 260:Source\mbedtls_open\library/rsa.c ****     const int pq_missing =   have_N && !have_P && !have_Q &&  have_D && have_E;
 1260              		.loc 1 260 0
 1261 00a0 0022     		movs	r2, #0
 1262 00a2 06E0     		b	.L83
 1263              	.L93:
 1264 00a4 0022     		movs	r2, #0
 1265 00a6 04E0     		b	.L83
 1266              	.L94:
ARM GAS  C:\Users\Phuong\AppData\Local\Temp\ccgu0w7m.s 			page 64


 1267 00a8 0022     		movs	r2, #0
 1268 00aa 02E0     		b	.L83
 1269              	.L95:
 1270 00ac 0022     		movs	r2, #0
 1271 00ae 00E0     		b	.L83
 1272              	.L96:
 1273 00b0 0122     		movs	r2, #1
 1274              	.L83:
 1275              	.LVL182:
 261:Source\mbedtls_open\library/rsa.c ****     const int d_missing  =              have_P &&  have_Q && !have_D && have_E;
 1276              		.loc 1 261 0 is_stmt 1 discriminator 10
 1277 00b2 4346     		mov	r3, r8
 1278 00b4 002B     		cmp	r3, #0
 1279 00b6 0BD0     		beq	.L97
 1280              	.LVL183:
 261:Source\mbedtls_open\library/rsa.c ****     const int d_missing  =              have_P &&  have_Q && !have_D && have_E;
 1281              		.loc 1 261 0 is_stmt 0 discriminator 1
 1282 00b8 002D     		cmp	r5, #0
 1283 00ba 0CD1     		bne	.L98
 1284 00bc 002F     		cmp	r7, #0
 1285 00be 0AD1     		bne	.L98
 261:Source\mbedtls_open\library/rsa.c ****     const int d_missing  =              have_P &&  have_Q && !have_D && have_E;
 1286              		.loc 1 261 0 discriminator 3
 1287 00c0 5B46     		mov	r3, fp
 1288              	.LVL184:
 1289 00c2 002B     		cmp	r3, #0
 1290 00c4 0AD0     		beq	.L99
 261:Source\mbedtls_open\library/rsa.c ****     const int d_missing  =              have_P &&  have_Q && !have_D && have_E;
 1291              		.loc 1 261 0 discriminator 5
 1292 00c6 0028     		cmp	r0, #0
 1293 00c8 0BD1     		bne	.L100
 261:Source\mbedtls_open\library/rsa.c ****     const int d_missing  =              have_P &&  have_Q && !have_D && have_E;
 1294              		.loc 1 261 0
 1295 00ca 0023     		movs	r3, #0
 1296 00cc 9A46     		mov	r10, r3
 1297 00ce 0AE0     		b	.L84
 1298              	.LVL185:
 1299              	.L97:
 1300 00d0 0023     		movs	r3, #0
 1301              	.LVL186:
 1302 00d2 9A46     		mov	r10, r3
 1303 00d4 07E0     		b	.L84
 1304              	.LVL187:
 1305              	.L98:
 1306 00d6 0023     		movs	r3, #0
 1307              	.LVL188:
 1308 00d8 9A46     		mov	r10, r3
 1309 00da 04E0     		b	.L84
 1310              	.L99:
 1311 00dc 0023     		movs	r3, #0
 1312 00de 9A46     		mov	r10, r3
 1313 00e0 01E0     		b	.L84
 1314              	.L100:
 1315 00e2 0123     		movs	r3, #1
 1316 00e4 9A46     		mov	r10, r3
 1317              	.L84:
 1318              	.LVL189:
ARM GAS  C:\Users\Phuong\AppData\Local\Temp\ccgu0w7m.s 			page 65


 262:Source\mbedtls_open\library/rsa.c ****     const int is_pub     =   have_N && !have_P && !have_Q && !have_D && have_E;
 1319              		.loc 1 262 0 is_stmt 1 discriminator 10
 1320 00e6 002E     		cmp	r6, #0
 1321 00e8 08D0     		beq	.L101
 262:Source\mbedtls_open\library/rsa.c ****     const int is_pub     =   have_N && !have_P && !have_Q && !have_D && have_E;
 1322              		.loc 1 262 0 is_stmt 0 discriminator 1
 1323 00ea 4B46     		mov	r3, r9
 1324 00ec 002B     		cmp	r3, #0
 1325 00ee 08D0     		beq	.L102
 262:Source\mbedtls_open\library/rsa.c ****     const int is_pub     =   have_N && !have_P && !have_Q && !have_D && have_E;
 1326              		.loc 1 262 0 discriminator 3
 1327 00f0 5B46     		mov	r3, fp
 1328 00f2 002B     		cmp	r3, #0
 1329 00f4 08D1     		bne	.L103
 262:Source\mbedtls_open\library/rsa.c ****     const int is_pub     =   have_N && !have_P && !have_Q && !have_D && have_E;
 1330              		.loc 1 262 0 discriminator 5
 1331 00f6 0028     		cmp	r0, #0
 1332 00f8 09D1     		bne	.L104
 1333 00fa 0AE0     		b	.L85
 1334              	.L101:
 262:Source\mbedtls_open\library/rsa.c ****     const int is_pub     =   have_N && !have_P && !have_Q && !have_D && have_E;
 1335              		.loc 1 262 0
 1336 00fc 0023     		movs	r3, #0
 1337 00fe 9B46     		mov	fp, r3
 1338 0100 07E0     		b	.L85
 1339              	.L102:
 1340 0102 0023     		movs	r3, #0
 1341 0104 9B46     		mov	fp, r3
 1342 0106 04E0     		b	.L85
 1343              	.L103:
 1344 0108 0023     		movs	r3, #0
 1345 010a 9B46     		mov	fp, r3
 1346 010c 01E0     		b	.L85
 1347              	.L104:
 1348 010e 0123     		movs	r3, #1
 1349 0110 9B46     		mov	fp, r3
 1350              	.L85:
 1351              	.LVL190:
 263:Source\mbedtls_open\library/rsa.c **** 
 1352              		.loc 1 263 0 is_stmt 1 discriminator 10
 1353 0112 4346     		mov	r3, r8
 1354 0114 002B     		cmp	r3, #0
 1355 0116 07D0     		beq	.L105
 1356              	.LVL191:
 263:Source\mbedtls_open\library/rsa.c **** 
 1357              		.loc 1 263 0 is_stmt 0 discriminator 1
 1358 0118 2F43     		orrs	r7, r5
 1359              	.LVL192:
 1360 011a 07D1     		bne	.L106
 1361 011c 069B     		ldr	r3, [sp, #24]
 1362              	.LVL193:
 1363 011e 002B     		cmp	r3, #0
 1364 0120 04D1     		bne	.L106
 263:Source\mbedtls_open\library/rsa.c **** 
 1365              		.loc 1 263 0 discriminator 3
 1366 0122 0028     		cmp	r0, #0
 1367 0124 04D1     		bne	.L107
ARM GAS  C:\Users\Phuong\AppData\Local\Temp\ccgu0w7m.s 			page 66


 1368 0126 04E0     		b	.L86
 1369              	.LVL194:
 1370              	.L105:
 263:Source\mbedtls_open\library/rsa.c **** 
 1371              		.loc 1 263 0
 1372 0128 0023     		movs	r3, #0
 1373              	.LVL195:
 1374 012a 02E0     		b	.L86
 1375              	.LVL196:
 1376              	.L106:
 1377 012c 0023     		movs	r3, #0
 1378 012e 00E0     		b	.L86
 1379              	.L107:
 1380 0130 0123     		movs	r3, #1
 1381              	.L86:
 1382              	.LVL197:
 266:Source\mbedtls_open\library/rsa.c **** 
 1383              		.loc 1 266 0 is_stmt 1 discriminator 8
 1384 0132 5546     		mov	r5, r10
 1385              	.LVL198:
 1386 0134 1543     		orrs	r5, r2
 1387 0136 5A46     		mov	r2, fp
 1388              	.LVL199:
 1389 0138 1543     		orrs	r5, r2
 1390 013a 2F00     		movs	r7, r5
 1391              	.LVL200:
 268:Source\mbedtls_open\library/rsa.c ****         return( MBEDTLS_ERR_RSA_BAD_INPUT_DATA );
 1392              		.loc 1 268 0 discriminator 8
 1393 013c 2B43     		orrs	r3, r5
 1394              	.LVL201:
 1395 013e 51D0     		beq	.L108
 1396              	.LVL202:
 275:Source\mbedtls_open\library/rsa.c ****     {
 1397              		.loc 1 275 0
 1398 0140 4346     		mov	r3, r8
 1399 0142 002B     		cmp	r3, #0
 1400 0144 13D1     		bne	.L88
 1401              	.LVL203:
 275:Source\mbedtls_open\library/rsa.c ****     {
 1402              		.loc 1 275 0 is_stmt 0 discriminator 1
 1403 0146 002E     		cmp	r6, #0
 1404 0148 11D0     		beq	.L88
 275:Source\mbedtls_open\library/rsa.c ****     {
 1405              		.loc 1 275 0 discriminator 2
 1406 014a 4B46     		mov	r3, r9
 1407              	.LVL204:
 1408 014c 002B     		cmp	r3, #0
 1409 014e 0ED0     		beq	.L88
 1410              	.LVL205:
 277:Source\mbedtls_open\library/rsa.c ****                                          &ctx->Q ) ) != 0 )
 1411              		.loc 1 277 0 is_stmt 1
 1412 0150 039A     		ldr	r2, [sp, #12]
 1413              	.LVL206:
 1414 0152 0299     		ldr	r1, [sp, #8]
 1415 0154 0798     		ldr	r0, [sp, #28]
 1416              	.LVL207:
 1417 0156 FFF7FEFF 		bl	mbedtls_mpi_mul_mpi
ARM GAS  C:\Users\Phuong\AppData\Local\Temp\ccgu0w7m.s 			page 67


 1418              	.LVL208:
 1419 015a 0028     		cmp	r0, #0
 1420 015c 03D0     		beq	.L89
 280:Source\mbedtls_open\library/rsa.c ****         }
 1421              		.loc 1 280 0
 1422 015e 254B     		ldr	r3, .L109
 1423 0160 9C46     		mov	ip, r3
 1424 0162 6044     		add	r0, r0, ip
 1425              	.LVL209:
 1426 0164 3FE0     		b	.L87
 1427              	.LVL210:
 1428              	.L89:
 283:Source\mbedtls_open\library/rsa.c ****     }
 1429              		.loc 1 283 0
 1430 0166 0798     		ldr	r0, [sp, #28]
 1431              	.LVL211:
 1432 0168 FFF7FEFF 		bl	mbedtls_mpi_size
 1433              	.LVL212:
 1434 016c 6060     		str	r0, [r4, #4]
 1435              	.L88:
 290:Source\mbedtls_open\library/rsa.c ****     {
 1436              		.loc 1 290 0
 1437 016e 5346     		mov	r3, r10
 1438 0170 002B     		cmp	r3, #0
 1439 0172 0DD0     		beq	.L90
 1440              	.LVL213:
 292:Source\mbedtls_open\library/rsa.c ****                                          &ctx->P, &ctx->Q );
 1441              		.loc 1 292 0
 1442 0174 039B     		ldr	r3, [sp, #12]
 1443              	.LVL214:
 1444 0176 0093     		str	r3, [sp]
 1445 0178 029B     		ldr	r3, [sp, #8]
 1446 017a 049A     		ldr	r2, [sp, #16]
 1447 017c 0599     		ldr	r1, [sp, #20]
 1448 017e 0798     		ldr	r0, [sp, #28]
 1449 0180 FFF7FEFF 		bl	mbedtls_rsa_deduce_primes
 1450              	.LVL215:
 294:Source\mbedtls_open\library/rsa.c ****             return( MBEDTLS_ERR_RSA_BAD_INPUT_DATA + ret );
 1451              		.loc 1 294 0
 1452 0184 0028     		cmp	r0, #0
 1453 0186 12D0     		beq	.L91
 295:Source\mbedtls_open\library/rsa.c **** 
 1454              		.loc 1 295 0
 1455 0188 1A4B     		ldr	r3, .L109
 1456 018a 9C46     		mov	ip, r3
 1457 018c 6044     		add	r0, r0, ip
 1458              	.LVL216:
 1459 018e 2AE0     		b	.L87
 1460              	.LVL217:
 1461              	.L90:
 298:Source\mbedtls_open\library/rsa.c ****     {
 1462              		.loc 1 298 0
 1463 0190 5B46     		mov	r3, fp
 1464              	.LVL218:
 1465 0192 002B     		cmp	r3, #0
 1466 0194 0BD0     		beq	.L91
 1467              	.LVL219:
ARM GAS  C:\Users\Phuong\AppData\Local\Temp\ccgu0w7m.s 			page 68


 300:Source\mbedtls_open\library/rsa.c ****                                                          &ctx->Q,
 1468              		.loc 1 300 0
 1469 0196 049B     		ldr	r3, [sp, #16]
 1470              	.LVL220:
 1471 0198 059A     		ldr	r2, [sp, #20]
 1472 019a 0399     		ldr	r1, [sp, #12]
 1473 019c 0298     		ldr	r0, [sp, #8]
 1474 019e FFF7FEFF 		bl	mbedtls_rsa_deduce_private_exponent
 1475              	.LVL221:
 1476 01a2 0028     		cmp	r0, #0
 1477 01a4 03D0     		beq	.L91
 305:Source\mbedtls_open\library/rsa.c ****         }
 1478              		.loc 1 305 0
 1479 01a6 134B     		ldr	r3, .L109
 1480 01a8 9C46     		mov	ip, r3
 1481 01aa 6044     		add	r0, r0, ip
 1482              	.LVL222:
 1483 01ac 1BE0     		b	.L87
 1484              	.LVL223:
 1485              	.L91:
 315:Source\mbedtls_open\library/rsa.c ****     {
 1486              		.loc 1 315 0
 1487 01ae 002D     		cmp	r5, #0
 1488 01b0 12D0     		beq	.L92
 317:Source\mbedtls_open\library/rsa.c ****                                       &ctx->DP, &ctx->DQ, &ctx->QP );
 1489              		.loc 1 317 0
 1490 01b2 2300     		movs	r3, r4
 1491 01b4 4433     		adds	r3, r3, #68
 1492 01b6 2200     		movs	r2, r4
 1493 01b8 5032     		adds	r2, r2, #80
 1494 01ba 2100     		movs	r1, r4
 1495 01bc 5C31     		adds	r1, r1, #92
 1496 01be 0191     		str	r1, [sp, #4]
 1497 01c0 0092     		str	r2, [sp]
 1498 01c2 049A     		ldr	r2, [sp, #16]
 1499 01c4 0399     		ldr	r1, [sp, #12]
 1500 01c6 0298     		ldr	r0, [sp, #8]
 1501 01c8 FFF7FEFF 		bl	mbedtls_rsa_deduce_crt
 1502              	.LVL224:
 319:Source\mbedtls_open\library/rsa.c ****             return( MBEDTLS_ERR_RSA_BAD_INPUT_DATA + ret );
 1503              		.loc 1 319 0
 1504 01cc 0028     		cmp	r0, #0
 1505 01ce 03D0     		beq	.L92
 320:Source\mbedtls_open\library/rsa.c ****     }
 1506              		.loc 1 320 0
 1507 01d0 084B     		ldr	r3, .L109
 1508 01d2 9C46     		mov	ip, r3
 1509 01d4 6044     		add	r0, r0, ip
 1510              	.LVL225:
 1511 01d6 06E0     		b	.L87
 1512              	.LVL226:
 1513              	.L92:
 328:Source\mbedtls_open\library/rsa.c **** }
 1514              		.loc 1 328 0
 1515 01d8 0122     		movs	r2, #1
 1516 01da 3900     		movs	r1, r7
 1517 01dc 2000     		movs	r0, r4
ARM GAS  C:\Users\Phuong\AppData\Local\Temp\ccgu0w7m.s 			page 69


 1518 01de FFF7FEFF 		bl	rsa_check_context
 1519              	.LVL227:
 1520 01e2 00E0     		b	.L87
 1521              	.LVL228:
 1522              	.L108:
 269:Source\mbedtls_open\library/rsa.c **** 
 1523              		.loc 1 269 0
 1524 01e4 0348     		ldr	r0, .L109
 1525              	.LVL229:
 1526              	.L87:
 329:Source\mbedtls_open\library/rsa.c **** 
 1527              		.loc 1 329 0
 1528 01e6 09B0     		add	sp, sp, #36
 1529              		@ sp needed
 1530              	.LVL230:
 1531              	.LVL231:
 1532              	.LVL232:
 1533              	.LVL233:
 1534              	.LVL234:
 1535              	.LVL235:
 1536              	.LVL236:
 1537              	.LVL237:
 1538 01e8 3CBC     		pop	{r2, r3, r4, r5}
 1539 01ea 9046     		mov	r8, r2
 1540 01ec 9946     		mov	r9, r3
 1541 01ee A246     		mov	r10, r4
 1542 01f0 AB46     		mov	fp, r5
 1543 01f2 F0BD     		pop	{r4, r5, r6, r7, pc}
 1544              	.L110:
 1545              		.align	2
 1546              	.L109:
 1547 01f4 80BFFFFF 		.word	-16512
 1548              		.cfi_endproc
 1549              	.LFE15:
 1550              		.size	mbedtls_rsa_complete, .-mbedtls_rsa_complete
 1551              		.section	.text.mbedtls_rsa_export_raw,"ax",%progbits
 1552              		.align	2
 1553              		.global	mbedtls_rsa_export_raw
 1554              		.code	16
 1555              		.thumb_func
 1556              		.type	mbedtls_rsa_export_raw, %function
 1557              	mbedtls_rsa_export_raw:
 1558              	.LFB16:
 337:Source\mbedtls_open\library/rsa.c ****     int ret = 0;
 1559              		.loc 1 337 0
 1560              		.cfi_startproc
 1561              		@ args = 28, pretend = 0, frame = 8
 1562              		@ frame_needed = 0, uses_anonymous_args = 0
 1563              	.LVL238:
 1564 0000 F0B5     		push	{r4, r5, r6, r7, lr}
 1565              		.cfi_def_cfa_offset 20
 1566              		.cfi_offset 4, -20
 1567              		.cfi_offset 5, -16
 1568              		.cfi_offset 6, -12
 1569              		.cfi_offset 7, -8
 1570              		.cfi_offset 14, -4
 1571 0002 83B0     		sub	sp, sp, #12
ARM GAS  C:\Users\Phuong\AppData\Local\Temp\ccgu0w7m.s 			page 70


 1572              		.cfi_def_cfa_offset 32
 1573 0004 0700     		movs	r7, r0
 1574 0006 0D00     		movs	r5, r1
 1575 0008 0192     		str	r2, [sp, #4]
 1576 000a 1E00     		movs	r6, r3
 1577              	.LVL239:
 342:Source\mbedtls_open\library/rsa.c ****         mbedtls_mpi_cmp_int( &ctx->P, 0 ) != 0 &&
 1578              		.loc 1 342 0
 1579 000c 0400     		movs	r4, r0
 1580 000e 0834     		adds	r4, r4, #8
 1581 0010 0021     		movs	r1, #0
 1582              	.LVL240:
 1583 0012 2000     		movs	r0, r4
 1584              	.LVL241:
 1585 0014 FFF7FEFF 		bl	mbedtls_mpi_cmp_int
 1586              	.LVL242:
 345:Source\mbedtls_open\library/rsa.c ****         mbedtls_mpi_cmp_int( &ctx->E, 0 ) != 0;
 1587              		.loc 1 345 0
 1588 0018 0028     		cmp	r0, #0
 1589 001a 1CD0     		beq	.L112
 343:Source\mbedtls_open\library/rsa.c ****         mbedtls_mpi_cmp_int( &ctx->Q, 0 ) != 0 &&
 1590              		.loc 1 343 0
 1591 001c 3800     		movs	r0, r7
 1592 001e 2C30     		adds	r0, r0, #44
 1593 0020 0021     		movs	r1, #0
 1594 0022 FFF7FEFF 		bl	mbedtls_mpi_cmp_int
 1595              	.LVL243:
 342:Source\mbedtls_open\library/rsa.c ****         mbedtls_mpi_cmp_int( &ctx->P, 0 ) != 0 &&
 1596              		.loc 1 342 0
 1597 0026 0028     		cmp	r0, #0
 1598 0028 15D0     		beq	.L112
 344:Source\mbedtls_open\library/rsa.c ****         mbedtls_mpi_cmp_int( &ctx->D, 0 ) != 0 &&
 1599              		.loc 1 344 0
 1600 002a 3800     		movs	r0, r7
 1601 002c 3830     		adds	r0, r0, #56
 1602 002e 0021     		movs	r1, #0
 1603 0030 FFF7FEFF 		bl	mbedtls_mpi_cmp_int
 1604              	.LVL244:
 343:Source\mbedtls_open\library/rsa.c ****         mbedtls_mpi_cmp_int( &ctx->Q, 0 ) != 0 &&
 1605              		.loc 1 343 0
 1606 0034 0028     		cmp	r0, #0
 1607 0036 0ED0     		beq	.L112
 345:Source\mbedtls_open\library/rsa.c ****         mbedtls_mpi_cmp_int( &ctx->E, 0 ) != 0;
 1608              		.loc 1 345 0
 1609 0038 3800     		movs	r0, r7
 1610 003a 2030     		adds	r0, r0, #32
 1611 003c 0021     		movs	r1, #0
 1612 003e FFF7FEFF 		bl	mbedtls_mpi_cmp_int
 1613              	.LVL245:
 344:Source\mbedtls_open\library/rsa.c ****         mbedtls_mpi_cmp_int( &ctx->D, 0 ) != 0 &&
 1614              		.loc 1 344 0
 1615 0042 0028     		cmp	r0, #0
 1616 0044 07D0     		beq	.L112
 346:Source\mbedtls_open\library/rsa.c **** 
 1617              		.loc 1 346 0 discriminator 3
 1618 0046 3800     		movs	r0, r7
 1619 0048 1430     		adds	r0, r0, #20
ARM GAS  C:\Users\Phuong\AppData\Local\Temp\ccgu0w7m.s 			page 71


 1620 004a 0021     		movs	r1, #0
 1621 004c FFF7FEFF 		bl	mbedtls_mpi_cmp_int
 1622              	.LVL246:
 345:Source\mbedtls_open\library/rsa.c ****         mbedtls_mpi_cmp_int( &ctx->E, 0 ) != 0;
 1623              		.loc 1 345 0 discriminator 3
 1624 0050 0028     		cmp	r0, #0
 1625 0052 00D0     		beq	.L112
 345:Source\mbedtls_open\library/rsa.c ****         mbedtls_mpi_cmp_int( &ctx->E, 0 ) != 0;
 1626              		.loc 1 345 0 is_stmt 0
 1627 0054 0120     		movs	r0, #1
 1628              	.L112:
 1629              	.LVL247:
 348:Source\mbedtls_open\library/rsa.c ****     {
 1630              		.loc 1 348 0 is_stmt 1
 1631 0056 0028     		cmp	r0, #0
 1632 0058 07D1     		bne	.L113
 352:Source\mbedtls_open\library/rsa.c ****             return( MBEDTLS_ERR_RSA_BAD_INPUT_DATA );
 1633              		.loc 1 352 0
 1634 005a 002E     		cmp	r6, #0
 1635 005c 3AD1     		bne	.L119
 352:Source\mbedtls_open\library/rsa.c ****             return( MBEDTLS_ERR_RSA_BAD_INPUT_DATA );
 1636              		.loc 1 352 0 is_stmt 0 discriminator 1
 1637 005e 099B     		ldr	r3, [sp, #36]
 1638 0060 002B     		cmp	r3, #0
 1639 0062 39D1     		bne	.L120
 352:Source\mbedtls_open\library/rsa.c ****             return( MBEDTLS_ERR_RSA_BAD_INPUT_DATA );
 1640              		.loc 1 352 0 discriminator 2
 1641 0064 0B9B     		ldr	r3, [sp, #44]
 1642 0066 002B     		cmp	r3, #0
 1643 0068 38D1     		bne	.L121
 1644              	.L113:
 357:Source\mbedtls_open\library/rsa.c ****         MBEDTLS_MPI_CHK( mbedtls_mpi_write_binary( &ctx->N, N, N_len ) );
 1645              		.loc 1 357 0 is_stmt 1
 1646 006a 002D     		cmp	r5, #0
 1647 006c 07D0     		beq	.L122
 358:Source\mbedtls_open\library/rsa.c **** 
 1648              		.loc 1 358 0
 1649 006e 019A     		ldr	r2, [sp, #4]
 1650 0070 2900     		movs	r1, r5
 1651 0072 2000     		movs	r0, r4
 1652              	.LVL248:
 1653 0074 FFF7FEFF 		bl	mbedtls_mpi_write_binary
 1654              	.LVL249:
 1655 0078 0028     		cmp	r0, #0
 1656 007a 01D0     		beq	.L115
 1657 007c 2FE0     		b	.L114
 1658              	.LVL250:
 1659              	.L122:
 338:Source\mbedtls_open\library/rsa.c **** 
 1660              		.loc 1 338 0
 1661 007e 0020     		movs	r0, #0
 1662              	.LVL251:
 1663              	.L115:
 360:Source\mbedtls_open\library/rsa.c ****         MBEDTLS_MPI_CHK( mbedtls_mpi_write_binary( &ctx->P, P, P_len ) );
 1664              		.loc 1 360 0
 1665 0080 002E     		cmp	r6, #0
 1666 0082 07D0     		beq	.L116
ARM GAS  C:\Users\Phuong\AppData\Local\Temp\ccgu0w7m.s 			page 72


 361:Source\mbedtls_open\library/rsa.c **** 
 1667              		.loc 1 361 0
 1668 0084 3800     		movs	r0, r7
 1669              	.LVL252:
 1670 0086 2C30     		adds	r0, r0, #44
 1671 0088 089A     		ldr	r2, [sp, #32]
 1672 008a 3100     		movs	r1, r6
 1673 008c FFF7FEFF 		bl	mbedtls_mpi_write_binary
 1674              	.LVL253:
 1675 0090 0028     		cmp	r0, #0
 1676 0092 24D1     		bne	.L114
 1677              	.L116:
 363:Source\mbedtls_open\library/rsa.c ****         MBEDTLS_MPI_CHK( mbedtls_mpi_write_binary( &ctx->Q, Q, Q_len ) );
 1678              		.loc 1 363 0
 1679 0094 099B     		ldr	r3, [sp, #36]
 1680 0096 002B     		cmp	r3, #0
 1681 0098 07D0     		beq	.L117
 364:Source\mbedtls_open\library/rsa.c **** 
 1682              		.loc 1 364 0
 1683 009a 3800     		movs	r0, r7
 1684              	.LVL254:
 1685 009c 3830     		adds	r0, r0, #56
 1686 009e 0A9A     		ldr	r2, [sp, #40]
 1687 00a0 1900     		movs	r1, r3
 1688 00a2 FFF7FEFF 		bl	mbedtls_mpi_write_binary
 1689              	.LVL255:
 1690 00a6 0028     		cmp	r0, #0
 1691 00a8 19D1     		bne	.L114
 1692              	.L117:
 366:Source\mbedtls_open\library/rsa.c ****         MBEDTLS_MPI_CHK( mbedtls_mpi_write_binary( &ctx->D, D, D_len ) );
 1693              		.loc 1 366 0
 1694 00aa 0B9B     		ldr	r3, [sp, #44]
 1695 00ac 002B     		cmp	r3, #0
 1696 00ae 07D0     		beq	.L118
 367:Source\mbedtls_open\library/rsa.c **** 
 1697              		.loc 1 367 0
 1698 00b0 3800     		movs	r0, r7
 1699              	.LVL256:
 1700 00b2 2030     		adds	r0, r0, #32
 1701 00b4 0C9A     		ldr	r2, [sp, #48]
 1702 00b6 1900     		movs	r1, r3
 1703 00b8 FFF7FEFF 		bl	mbedtls_mpi_write_binary
 1704              	.LVL257:
 1705 00bc 0028     		cmp	r0, #0
 1706 00be 0ED1     		bne	.L114
 1707              	.L118:
 369:Source\mbedtls_open\library/rsa.c ****         MBEDTLS_MPI_CHK( mbedtls_mpi_write_binary( &ctx->E, E, E_len ) );
 1708              		.loc 1 369 0
 1709 00c0 0D9B     		ldr	r3, [sp, #52]
 1710 00c2 002B     		cmp	r3, #0
 1711 00c4 0BD0     		beq	.L114
 370:Source\mbedtls_open\library/rsa.c **** 
 1712              		.loc 1 370 0
 1713 00c6 3800     		movs	r0, r7
 1714              	.LVL258:
 1715 00c8 1430     		adds	r0, r0, #20
 1716 00ca 0E9A     		ldr	r2, [sp, #56]
ARM GAS  C:\Users\Phuong\AppData\Local\Temp\ccgu0w7m.s 			page 73


 1717 00cc 1900     		movs	r1, r3
 1718 00ce FFF7FEFF 		bl	mbedtls_mpi_write_binary
 1719              	.LVL259:
 1720 00d2 04E0     		b	.L114
 1721              	.LVL260:
 1722              	.L119:
 353:Source\mbedtls_open\library/rsa.c **** 
 1723              		.loc 1 353 0
 1724 00d4 0348     		ldr	r0, .L128
 1725              	.LVL261:
 1726 00d6 02E0     		b	.L114
 1727              	.LVL262:
 1728              	.L120:
 1729 00d8 0248     		ldr	r0, .L128
 1730              	.LVL263:
 1731 00da 00E0     		b	.L114
 1732              	.LVL264:
 1733              	.L121:
 1734 00dc 0148     		ldr	r0, .L128
 1735              	.LVL265:
 1736              	.L114:
 375:Source\mbedtls_open\library/rsa.c **** 
 1737              		.loc 1 375 0
 1738 00de 03B0     		add	sp, sp, #12
 1739              		@ sp needed
 1740              	.LVL266:
 1741              	.LVL267:
 1742              	.LVL268:
 1743 00e0 F0BD     		pop	{r4, r5, r6, r7, pc}
 1744              	.L129:
 1745 00e2 C046     		.align	2
 1746              	.L128:
 1747 00e4 80BFFFFF 		.word	-16512
 1748              		.cfi_endproc
 1749              	.LFE16:
 1750              		.size	mbedtls_rsa_export_raw, .-mbedtls_rsa_export_raw
 1751              		.section	.text.mbedtls_rsa_export,"ax",%progbits
 1752              		.align	2
 1753              		.global	mbedtls_rsa_export
 1754              		.code	16
 1755              		.thumb_func
 1756              		.type	mbedtls_rsa_export, %function
 1757              	mbedtls_rsa_export:
 1758              	.LFB17:
 380:Source\mbedtls_open\library/rsa.c ****     int ret;
 1759              		.loc 1 380 0
 1760              		.cfi_startproc
 1761              		@ args = 8, pretend = 0, frame = 8
 1762              		@ frame_needed = 0, uses_anonymous_args = 0
 1763              	.LVL269:
 1764 0000 F0B5     		push	{r4, r5, r6, r7, lr}
 1765              		.cfi_def_cfa_offset 20
 1766              		.cfi_offset 4, -20
 1767              		.cfi_offset 5, -16
 1768              		.cfi_offset 6, -12
 1769              		.cfi_offset 7, -8
 1770              		.cfi_offset 14, -4
ARM GAS  C:\Users\Phuong\AppData\Local\Temp\ccgu0w7m.s 			page 74


 1771 0002 83B0     		sub	sp, sp, #12
 1772              		.cfi_def_cfa_offset 32
 1773 0004 0400     		movs	r4, r0
 1774 0006 0191     		str	r1, [sp, #4]
 1775 0008 1700     		movs	r7, r2
 1776 000a 1D00     		movs	r5, r3
 385:Source\mbedtls_open\library/rsa.c ****         mbedtls_mpi_cmp_int( &ctx->P, 0 ) != 0 &&
 1777              		.loc 1 385 0
 1778 000c 0600     		movs	r6, r0
 1779 000e 0836     		adds	r6, r6, #8
 1780 0010 0021     		movs	r1, #0
 1781              	.LVL270:
 1782 0012 3000     		movs	r0, r6
 1783              	.LVL271:
 1784 0014 FFF7FEFF 		bl	mbedtls_mpi_cmp_int
 1785              	.LVL272:
 388:Source\mbedtls_open\library/rsa.c ****         mbedtls_mpi_cmp_int( &ctx->E, 0 ) != 0;
 1786              		.loc 1 388 0
 1787 0018 0028     		cmp	r0, #0
 1788 001a 1DD0     		beq	.L138
 386:Source\mbedtls_open\library/rsa.c ****         mbedtls_mpi_cmp_int( &ctx->Q, 0 ) != 0 &&
 1789              		.loc 1 386 0
 1790 001c 2000     		movs	r0, r4
 1791 001e 2C30     		adds	r0, r0, #44
 1792 0020 0021     		movs	r1, #0
 1793 0022 FFF7FEFF 		bl	mbedtls_mpi_cmp_int
 1794              	.LVL273:
 385:Source\mbedtls_open\library/rsa.c ****         mbedtls_mpi_cmp_int( &ctx->P, 0 ) != 0 &&
 1795              		.loc 1 385 0
 1796 0026 0028     		cmp	r0, #0
 1797 0028 18D0     		beq	.L139
 387:Source\mbedtls_open\library/rsa.c ****         mbedtls_mpi_cmp_int( &ctx->D, 0 ) != 0 &&
 1798              		.loc 1 387 0
 1799 002a 2000     		movs	r0, r4
 1800 002c 3830     		adds	r0, r0, #56
 1801 002e 0021     		movs	r1, #0
 1802 0030 FFF7FEFF 		bl	mbedtls_mpi_cmp_int
 1803              	.LVL274:
 386:Source\mbedtls_open\library/rsa.c ****         mbedtls_mpi_cmp_int( &ctx->Q, 0 ) != 0 &&
 1804              		.loc 1 386 0
 1805 0034 0028     		cmp	r0, #0
 1806 0036 13D0     		beq	.L140
