ARM GAS  C:\Users\Phuong\AppData\Local\Temp\ccvjXtRI.s 			page 1


   1              		.syntax unified
   2              		.cpu cortex-m0plus
   3              		.fpu softvfp
   4              		.eabi_attribute 20, 1
   5              		.eabi_attribute 21, 1
   6              		.eabi_attribute 23, 3
   7              		.eabi_attribute 24, 1
   8              		.eabi_attribute 25, 1
   9              		.eabi_attribute 26, 1
  10              		.eabi_attribute 30, 1
  11              		.eabi_attribute 34, 0
  12              		.eabi_attribute 18, 4
  13              		.thumb
  14              		.syntax unified
  15              		.file	"rsa_internal.c"
  16              		.text
  17              	.Ltext0:
  18              		.cfi_sections	.debug_frame
  19              		.section	.text.mbedtls_rsa_deduce_primes,"ax",%progbits
  20              		.align	2
  21              		.global	mbedtls_rsa_deduce_primes
  22              		.code	16
  23              		.thumb_func
  24              		.type	mbedtls_rsa_deduce_primes, %function
  25              	mbedtls_rsa_deduce_primes:
  26              	.LFB0:
  27              		.file 1 "Source\\mbedtls_open\\library\\rsa_internal.c"
   1:Source\mbedtls_open\library/rsa_internal.c **** /*
   2:Source\mbedtls_open\library/rsa_internal.c ****  *  Helper functions for the RSA module
   3:Source\mbedtls_open\library/rsa_internal.c ****  *
   4:Source\mbedtls_open\library/rsa_internal.c ****  *  Copyright (C) 2006-2017, ARM Limited, All Rights Reserved
   5:Source\mbedtls_open\library/rsa_internal.c ****  *  SPDX-License-Identifier: Apache-2.0
   6:Source\mbedtls_open\library/rsa_internal.c ****  *
   7:Source\mbedtls_open\library/rsa_internal.c ****  *  Licensed under the Apache License, Version 2.0 (the "License"); you may
   8:Source\mbedtls_open\library/rsa_internal.c ****  *  not use this file except in compliance with the License.
   9:Source\mbedtls_open\library/rsa_internal.c ****  *  You may obtain a copy of the License at
  10:Source\mbedtls_open\library/rsa_internal.c ****  *
  11:Source\mbedtls_open\library/rsa_internal.c ****  *  http://www.apache.org/licenses/LICENSE-2.0
  12:Source\mbedtls_open\library/rsa_internal.c ****  *
  13:Source\mbedtls_open\library/rsa_internal.c ****  *  Unless required by applicable law or agreed to in writing, software
  14:Source\mbedtls_open\library/rsa_internal.c ****  *  distributed under the License is distributed on an "AS IS" BASIS, WITHOUT
  15:Source\mbedtls_open\library/rsa_internal.c ****  *  WARRANTIES OR CONDITIONS OF ANY KIND, either express or implied.
  16:Source\mbedtls_open\library/rsa_internal.c ****  *  See the License for the specific language governing permissions and
  17:Source\mbedtls_open\library/rsa_internal.c ****  *  limitations under the License.
  18:Source\mbedtls_open\library/rsa_internal.c ****  *
  19:Source\mbedtls_open\library/rsa_internal.c ****  *  This file is part of mbed TLS (https://tls.mbed.org)
  20:Source\mbedtls_open\library/rsa_internal.c ****  *
  21:Source\mbedtls_open\library/rsa_internal.c ****  */
  22:Source\mbedtls_open\library/rsa_internal.c **** 
  23:Source\mbedtls_open\library/rsa_internal.c **** #if !defined(MBEDTLS_CONFIG_FILE)
  24:Source\mbedtls_open\library/rsa_internal.c **** #include "mbedtls/config.h"
  25:Source\mbedtls_open\library/rsa_internal.c **** #else
  26:Source\mbedtls_open\library/rsa_internal.c **** #include MBEDTLS_CONFIG_FILE
  27:Source\mbedtls_open\library/rsa_internal.c **** #endif
  28:Source\mbedtls_open\library/rsa_internal.c **** 
  29:Source\mbedtls_open\library/rsa_internal.c **** #if defined(MBEDTLS_RSA_C)
  30:Source\mbedtls_open\library/rsa_internal.c **** 
ARM GAS  C:\Users\Phuong\AppData\Local\Temp\ccvjXtRI.s 			page 2


  31:Source\mbedtls_open\library/rsa_internal.c **** #include "mbedtls/rsa.h"
  32:Source\mbedtls_open\library/rsa_internal.c **** #include "mbedtls/bignum.h"
  33:Source\mbedtls_open\library/rsa_internal.c **** #include "mbedtls/rsa_internal.h"
  34:Source\mbedtls_open\library/rsa_internal.c **** 
  35:Source\mbedtls_open\library/rsa_internal.c **** /*
  36:Source\mbedtls_open\library/rsa_internal.c ****  * Compute RSA prime factors from public and private exponents
  37:Source\mbedtls_open\library/rsa_internal.c ****  *
  38:Source\mbedtls_open\library/rsa_internal.c ****  * Summary of algorithm:
  39:Source\mbedtls_open\library/rsa_internal.c ****  * Setting F := lcm(P-1,Q-1), the idea is as follows:
  40:Source\mbedtls_open\library/rsa_internal.c ****  *
  41:Source\mbedtls_open\library/rsa_internal.c ****  * (a) For any 1 <= X < N with gcd(X,N)=1, we have X^F = 1 modulo N, so X^(F/2)
  42:Source\mbedtls_open\library/rsa_internal.c ****  *     is a square root of 1 in Z/NZ. Since Z/NZ ~= Z/PZ x Z/QZ by CRT and the
  43:Source\mbedtls_open\library/rsa_internal.c ****  *     square roots of 1 in Z/PZ and Z/QZ are +1 and -1, this leaves the four
  44:Source\mbedtls_open\library/rsa_internal.c ****  *     possibilities X^(F/2) = (+-1, +-1). If it happens that X^(F/2) = (-1,+1)
  45:Source\mbedtls_open\library/rsa_internal.c ****  *     or (+1,-1), then gcd(X^(F/2) + 1, N) will be equal to one of the prime
  46:Source\mbedtls_open\library/rsa_internal.c ****  *     factors of N.
  47:Source\mbedtls_open\library/rsa_internal.c ****  *
  48:Source\mbedtls_open\library/rsa_internal.c ****  * (b) If we don't know F/2 but (F/2) * K for some odd (!) K, then the same
  49:Source\mbedtls_open\library/rsa_internal.c ****  *     construction still applies since (-)^K is the identity on the set of
  50:Source\mbedtls_open\library/rsa_internal.c ****  *     roots of 1 in Z/NZ.
  51:Source\mbedtls_open\library/rsa_internal.c ****  *
  52:Source\mbedtls_open\library/rsa_internal.c ****  * The public and private key primitives (-)^E and (-)^D are mutually inverse
  53:Source\mbedtls_open\library/rsa_internal.c ****  * bijections on Z/NZ if and only if (-)^(DE) is the identity on Z/NZ, i.e.
  54:Source\mbedtls_open\library/rsa_internal.c ****  * if and only if DE - 1 is a multiple of F, say DE - 1 = F * L.
  55:Source\mbedtls_open\library/rsa_internal.c ****  * Splitting L = 2^t * K with K odd, we have
  56:Source\mbedtls_open\library/rsa_internal.c ****  *
  57:Source\mbedtls_open\library/rsa_internal.c ****  *   DE - 1 = FL = (F/2) * (2^(t+1)) * K,
  58:Source\mbedtls_open\library/rsa_internal.c ****  *
  59:Source\mbedtls_open\library/rsa_internal.c ****  * so (F / 2) * K is among the numbers
  60:Source\mbedtls_open\library/rsa_internal.c ****  *
  61:Source\mbedtls_open\library/rsa_internal.c ****  *   (DE - 1) >> 1, (DE - 1) >> 2, ..., (DE - 1) >> ord
  62:Source\mbedtls_open\library/rsa_internal.c ****  *
  63:Source\mbedtls_open\library/rsa_internal.c ****  * where ord is the order of 2 in (DE - 1).
  64:Source\mbedtls_open\library/rsa_internal.c ****  * We can therefore iterate through these numbers apply the construction
  65:Source\mbedtls_open\library/rsa_internal.c ****  * of (a) and (b) above to attempt to factor N.
  66:Source\mbedtls_open\library/rsa_internal.c ****  *
  67:Source\mbedtls_open\library/rsa_internal.c ****  */
  68:Source\mbedtls_open\library/rsa_internal.c **** int mbedtls_rsa_deduce_primes( mbedtls_mpi const *N,
  69:Source\mbedtls_open\library/rsa_internal.c ****                      mbedtls_mpi const *E, mbedtls_mpi const *D,
  70:Source\mbedtls_open\library/rsa_internal.c ****                      mbedtls_mpi *P, mbedtls_mpi *Q )
  71:Source\mbedtls_open\library/rsa_internal.c **** {
  28              		.loc 1 71 0
  29              		.cfi_startproc
  30              		@ args = 4, pretend = 0, frame = 88
  31              		@ frame_needed = 0, uses_anonymous_args = 0
  32              	.LVL0:
  33 0000 F0B5     		push	{r4, r5, r6, r7, lr}
  34              		.cfi_def_cfa_offset 20
  35              		.cfi_offset 4, -20
  36              		.cfi_offset 5, -16
  37              		.cfi_offset 6, -12
  38              		.cfi_offset 7, -8
  39              		.cfi_offset 14, -4
  40 0002 5746     		mov	r7, r10
  41 0004 4E46     		mov	r6, r9
  42 0006 C0B4     		push	{r6, r7}
  43              		.cfi_def_cfa_offset 28
ARM GAS  C:\Users\Phuong\AppData\Local\Temp\ccvjXtRI.s 			page 3


  44              		.cfi_offset 9, -28
  45              		.cfi_offset 10, -24
  46 0008 99B0     		sub	sp, sp, #100
  47              		.cfi_def_cfa_offset 128
  48 000a 0390     		str	r0, [sp, #12]
  49 000c 0F00     		movs	r7, r1
  50 000e 1400     		movs	r4, r2
  51 0010 1D00     		movs	r5, r3
  52 0012 209E     		ldr	r6, [sp, #128]
  53              	.LVL1:
  72:Source\mbedtls_open\library/rsa_internal.c ****     int ret = 0;
  73:Source\mbedtls_open\library/rsa_internal.c **** 
  74:Source\mbedtls_open\library/rsa_internal.c ****     uint16_t attempt;  /* Number of current attempt  */
  75:Source\mbedtls_open\library/rsa_internal.c ****     uint16_t iter;     /* Number of squares computed in the current attempt */
  76:Source\mbedtls_open\library/rsa_internal.c **** 
  77:Source\mbedtls_open\library/rsa_internal.c ****     uint16_t order;    /* Order of 2 in DE - 1 */
  78:Source\mbedtls_open\library/rsa_internal.c **** 
  79:Source\mbedtls_open\library/rsa_internal.c ****     mbedtls_mpi T;  /* Holds largest odd divisor of DE - 1     */
  80:Source\mbedtls_open\library/rsa_internal.c ****     mbedtls_mpi K;  /* Temporary holding the current candidate */
  81:Source\mbedtls_open\library/rsa_internal.c **** 
  82:Source\mbedtls_open\library/rsa_internal.c ****     const unsigned char primes[] = { 2,
  54              		.loc 1 82 0
  55 0014 3622     		movs	r2, #54
  56              	.LVL2:
  57 0016 8149     		ldr	r1, .L24
  58              	.LVL3:
  59 0018 04A8     		add	r0, sp, #16
  60              	.LVL4:
  61 001a FFF7FEFF 		bl	memcpy
  62              	.LVL5:
  83:Source\mbedtls_open\library/rsa_internal.c ****            3,    5,    7,   11,   13,   17,   19,   23,
  84:Source\mbedtls_open\library/rsa_internal.c ****           29,   31,   37,   41,   43,   47,   53,   59,
  85:Source\mbedtls_open\library/rsa_internal.c ****           61,   67,   71,   73,   79,   83,   89,   97,
  86:Source\mbedtls_open\library/rsa_internal.c ****          101,  103,  107,  109,  113,  127,  131,  137,
  87:Source\mbedtls_open\library/rsa_internal.c ****          139,  149,  151,  157,  163,  167,  173,  179,
  88:Source\mbedtls_open\library/rsa_internal.c ****          181,  191,  193,  197,  199,  211,  223,  227,
  89:Source\mbedtls_open\library/rsa_internal.c ****          229,  233,  239,  241,  251
  90:Source\mbedtls_open\library/rsa_internal.c ****     };
  91:Source\mbedtls_open\library/rsa_internal.c **** 
  92:Source\mbedtls_open\library/rsa_internal.c ****     const size_t num_primes = sizeof( primes ) / sizeof( *primes );
  93:Source\mbedtls_open\library/rsa_internal.c **** 
  94:Source\mbedtls_open\library/rsa_internal.c ****     if( P == NULL || Q == NULL || P->p != NULL || Q->p != NULL )
  63              		.loc 1 94 0
  64 001e 002D     		cmp	r5, #0
  65 0020 00D1     		bne	.LCB42
  66 0022 DCE0     		b	.L12	@long jump
  67              	.LCB42:
  68              		.loc 1 94 0 is_stmt 0 discriminator 1
  69 0024 002E     		cmp	r6, #0
  70 0026 00D1     		bne	.LCB44
  71 0028 DCE0     		b	.L13	@long jump
  72              	.LCB44:
  73              		.loc 1 94 0 discriminator 2
  74 002a AB68     		ldr	r3, [r5, #8]
  75 002c 002B     		cmp	r3, #0
  76 002e 00D0     		beq	.LCB48
  77 0030 DBE0     		b	.L14	@long jump
ARM GAS  C:\Users\Phuong\AppData\Local\Temp\ccvjXtRI.s 			page 4


  78              	.LCB48:
  79              		.loc 1 94 0 discriminator 3
  80 0032 B368     		ldr	r3, [r6, #8]
  81 0034 002B     		cmp	r3, #0
  82 0036 00D0     		beq	.LCB52
  83 0038 DAE0     		b	.L15	@long jump
  84              	.LCB52:
  95:Source\mbedtls_open\library/rsa_internal.c ****         return( MBEDTLS_ERR_MPI_BAD_INPUT_DATA );
  96:Source\mbedtls_open\library/rsa_internal.c **** 
  97:Source\mbedtls_open\library/rsa_internal.c ****     if( mbedtls_mpi_cmp_int( N, 0 ) <= 0 ||
  85              		.loc 1 97 0 is_stmt 1
  86 003a 0021     		movs	r1, #0
  87 003c 0398     		ldr	r0, [sp, #12]
  88 003e FFF7FEFF 		bl	mbedtls_mpi_cmp_int
  89              	.LVL6:
  90 0042 0028     		cmp	r0, #0
  91 0044 00DC     		bgt	.LCB59
  92 0046 D6E0     		b	.L16	@long jump
  93              	.LCB59:
  98:Source\mbedtls_open\library/rsa_internal.c ****         mbedtls_mpi_cmp_int( D, 1 ) <= 0 ||
  94              		.loc 1 98 0 discriminator 1
  95 0048 0121     		movs	r1, #1
  96 004a 2000     		movs	r0, r4
  97 004c FFF7FEFF 		bl	mbedtls_mpi_cmp_int
  98              	.LVL7:
  97:Source\mbedtls_open\library/rsa_internal.c ****         mbedtls_mpi_cmp_int( D, 1 ) <= 0 ||
  99              		.loc 1 97 0 discriminator 1
 100 0050 0028     		cmp	r0, #0
 101 0052 00DC     		bgt	.LCB65
 102 0054 D2E0     		b	.L17	@long jump
 103              	.LCB65:
  99:Source\mbedtls_open\library/rsa_internal.c ****         mbedtls_mpi_cmp_mpi( D, N ) >= 0 ||
 104              		.loc 1 99 0
 105 0056 0399     		ldr	r1, [sp, #12]
 106 0058 2000     		movs	r0, r4
 107 005a FFF7FEFF 		bl	mbedtls_mpi_cmp_mpi
 108              	.LVL8:
  98:Source\mbedtls_open\library/rsa_internal.c ****         mbedtls_mpi_cmp_int( D, 1 ) <= 0 ||
 109              		.loc 1 98 0
 110 005e 0028     		cmp	r0, #0
 111 0060 00DB     		blt	.LCB72
 112 0062 CEE0     		b	.L18	@long jump
 113              	.LCB72:
 100:Source\mbedtls_open\library/rsa_internal.c ****         mbedtls_mpi_cmp_int( E, 1 ) <= 0 ||
 114              		.loc 1 100 0
 115 0064 0121     		movs	r1, #1
 116 0066 3800     		movs	r0, r7
 117 0068 FFF7FEFF 		bl	mbedtls_mpi_cmp_int
 118              	.LVL9:
  99:Source\mbedtls_open\library/rsa_internal.c ****         mbedtls_mpi_cmp_mpi( D, N ) >= 0 ||
 119              		.loc 1 99 0
 120 006c 0028     		cmp	r0, #0
 121 006e 00DC     		bgt	.LCB78
 122 0070 CAE0     		b	.L19	@long jump
 123              	.LCB78:
 101:Source\mbedtls_open\library/rsa_internal.c ****         mbedtls_mpi_cmp_mpi( E, N ) >= 0 )
 124              		.loc 1 101 0
ARM GAS  C:\Users\Phuong\AppData\Local\Temp\ccvjXtRI.s 			page 5


 125 0072 0399     		ldr	r1, [sp, #12]
 126 0074 3800     		movs	r0, r7
 127 0076 FFF7FEFF 		bl	mbedtls_mpi_cmp_mpi
 128              	.LVL10:
 100:Source\mbedtls_open\library/rsa_internal.c ****         mbedtls_mpi_cmp_int( E, 1 ) <= 0 ||
 129              		.loc 1 100 0
 130 007a 0028     		cmp	r0, #0
 131 007c 00DB     		blt	.LCB84
 132 007e C6E0     		b	.L20	@long jump
 133              	.LCB84:
 102:Source\mbedtls_open\library/rsa_internal.c ****     {
 103:Source\mbedtls_open\library/rsa_internal.c ****         return( MBEDTLS_ERR_MPI_BAD_INPUT_DATA );
 104:Source\mbedtls_open\library/rsa_internal.c ****     }
 105:Source\mbedtls_open\library/rsa_internal.c **** 
 106:Source\mbedtls_open\library/rsa_internal.c ****     /*
 107:Source\mbedtls_open\library/rsa_internal.c ****      * Initializations and temporary changes
 108:Source\mbedtls_open\library/rsa_internal.c ****      */
 109:Source\mbedtls_open\library/rsa_internal.c **** 
 110:Source\mbedtls_open\library/rsa_internal.c ****     mbedtls_mpi_init( &K );
 134              		.loc 1 110 0
 135 0080 12A8     		add	r0, sp, #72
 136 0082 FFF7FEFF 		bl	mbedtls_mpi_init
 137              	.LVL11:
 111:Source\mbedtls_open\library/rsa_internal.c ****     mbedtls_mpi_init( &T );
 138              		.loc 1 111 0
 139 0086 15A8     		add	r0, sp, #84
 140 0088 FFF7FEFF 		bl	mbedtls_mpi_init
 141              	.LVL12:
 112:Source\mbedtls_open\library/rsa_internal.c **** 
 113:Source\mbedtls_open\library/rsa_internal.c ****     /* T := DE - 1 */
 114:Source\mbedtls_open\library/rsa_internal.c ****     MBEDTLS_MPI_CHK( mbedtls_mpi_mul_mpi( &T, D,  E ) );
 142              		.loc 1 114 0
 143 008c 3A00     		movs	r2, r7
 144 008e 2100     		movs	r1, r4
 145 0090 15A8     		add	r0, sp, #84
 146 0092 FFF7FEFF 		bl	mbedtls_mpi_mul_mpi
 147              	.LVL13:
 148 0096 041E     		subs	r4, r0, #0
 149              	.LVL14:
 150 0098 00D0     		beq	.LCB101
 151 009a 98E0     		b	.L3	@long jump
 152              	.LCB101:
 115:Source\mbedtls_open\library/rsa_internal.c ****     MBEDTLS_MPI_CHK( mbedtls_mpi_sub_int( &T, &T, 1 ) );
 153              		.loc 1 115 0
 154 009c 0122     		movs	r2, #1
 155 009e 15A9     		add	r1, sp, #84
 156 00a0 0800     		movs	r0, r1
 157              	.LVL15:
 158 00a2 FFF7FEFF 		bl	mbedtls_mpi_sub_int
 159              	.LVL16:
 160 00a6 041E     		subs	r4, r0, #0
 161              	.LVL17:
 162 00a8 00D0     		beq	.LCB113
 163 00aa 90E0     		b	.L3	@long jump
 164              	.LCB113:
 116:Source\mbedtls_open\library/rsa_internal.c **** 
 117:Source\mbedtls_open\library/rsa_internal.c ****     if( ( order = (uint16_t) mbedtls_mpi_lsb( &T ) ) == 0 )
ARM GAS  C:\Users\Phuong\AppData\Local\Temp\ccvjXtRI.s 			page 6


 165              		.loc 1 117 0
 166 00ac 15A8     		add	r0, sp, #84
 167              	.LVL18:
 168 00ae FFF7FEFF 		bl	mbedtls_mpi_lsb
 169              	.LVL19:
 170 00b2 83B2     		uxth	r3, r0
 171 00b4 9946     		mov	r9, r3
 172              	.LVL20:
 173 00b6 002B     		cmp	r3, #0
 174 00b8 00D1     		bne	.LCB122
 175 00ba 83E0     		b	.L21	@long jump
 176              	.LCB122:
 118:Source\mbedtls_open\library/rsa_internal.c ****     {
 119:Source\mbedtls_open\library/rsa_internal.c ****         ret = MBEDTLS_ERR_MPI_BAD_INPUT_DATA;
 120:Source\mbedtls_open\library/rsa_internal.c ****         goto cleanup;
 121:Source\mbedtls_open\library/rsa_internal.c ****     }
 122:Source\mbedtls_open\library/rsa_internal.c **** 
 123:Source\mbedtls_open\library/rsa_internal.c ****     /* After this operation, T holds the largest odd divisor of DE - 1. */
 124:Source\mbedtls_open\library/rsa_internal.c ****     MBEDTLS_MPI_CHK( mbedtls_mpi_shift_r( &T, order ) );
 177              		.loc 1 124 0
 178 00bc 0004     		lsls	r0, r0, #16
 179 00be 010C     		lsrs	r1, r0, #16
 180 00c0 15A8     		add	r0, sp, #84
 181 00c2 FFF7FEFF 		bl	mbedtls_mpi_shift_r
 182              	.LVL21:
 183 00c6 041E     		subs	r4, r0, #0
 184              	.LVL22:
 185 00c8 00D0     		beq	.LCB133
 186 00ca 80E0     		b	.L3	@long jump
 187              	.LCB133:
 188              	.LVL23:
 125:Source\mbedtls_open\library/rsa_internal.c **** 
 126:Source\mbedtls_open\library/rsa_internal.c ****     /*
 127:Source\mbedtls_open\library/rsa_internal.c ****      * Actual work
 128:Source\mbedtls_open\library/rsa_internal.c ****      */
 129:Source\mbedtls_open\library/rsa_internal.c **** 
 130:Source\mbedtls_open\library/rsa_internal.c ****     /* Skip trying 2 if N == 1 mod 8 */
 131:Source\mbedtls_open\library/rsa_internal.c ****     attempt = 0;
 132:Source\mbedtls_open\library/rsa_internal.c ****     if( N->p[0] % 8 == 1 )
 189              		.loc 1 132 0
 190 00cc 039B     		ldr	r3, [sp, #12]
 191 00ce 9B68     		ldr	r3, [r3, #8]
 192 00d0 1A68     		ldr	r2, [r3]
 193 00d2 0723     		movs	r3, #7
 194 00d4 1340     		ands	r3, r2
 195 00d6 012B     		cmp	r3, #1
 196 00d8 02D0     		beq	.L22
 131:Source\mbedtls_open\library/rsa_internal.c ****     if( N->p[0] % 8 == 1 )
 197              		.loc 1 131 0
 198 00da 0023     		movs	r3, #0
 199 00dc 9A46     		mov	r10, r3
 200 00de 6BE0     		b	.L5
 201              	.L22:
 133:Source\mbedtls_open\library/rsa_internal.c ****         attempt = 1;
 202              		.loc 1 133 0
 203 00e0 0123     		movs	r3, #1
 204 00e2 9A46     		mov	r10, r3
ARM GAS  C:\Users\Phuong\AppData\Local\Temp\ccvjXtRI.s 			page 7


 205 00e4 68E0     		b	.L5
 206              	.LVL24:
 207              	.L11:
 134:Source\mbedtls_open\library/rsa_internal.c **** 
 135:Source\mbedtls_open\library/rsa_internal.c ****     for( ; attempt < num_primes; ++attempt )
 136:Source\mbedtls_open\library/rsa_internal.c ****     {
 137:Source\mbedtls_open\library/rsa_internal.c ****         mbedtls_mpi_lset( &K, primes[attempt] );
 208              		.loc 1 137 0
 209 00e6 04AB     		add	r3, sp, #16
 210 00e8 5246     		mov	r2, r10
 211 00ea 995C     		ldrb	r1, [r3, r2]
 212 00ec 12A8     		add	r0, sp, #72
 213 00ee FFF7FEFF 		bl	mbedtls_mpi_lset
 214              	.LVL25:
 138:Source\mbedtls_open\library/rsa_internal.c **** 
 139:Source\mbedtls_open\library/rsa_internal.c ****         /* Check if gcd(K,N) = 1 */
 140:Source\mbedtls_open\library/rsa_internal.c ****         MBEDTLS_MPI_CHK( mbedtls_mpi_gcd( P, &K, N ) );
 215              		.loc 1 140 0
 216 00f2 039A     		ldr	r2, [sp, #12]
 217 00f4 12A9     		add	r1, sp, #72
 218 00f6 2800     		movs	r0, r5
 219 00f8 FFF7FEFF 		bl	mbedtls_mpi_gcd
 220              	.LVL26:
 221 00fc 041E     		subs	r4, r0, #0
 222              	.LVL27:
 223 00fe 66D1     		bne	.L3
 141:Source\mbedtls_open\library/rsa_internal.c ****         if( mbedtls_mpi_cmp_int( P, 1 ) != 0 )
 224              		.loc 1 141 0
 225 0100 0121     		movs	r1, #1
 226 0102 2800     		movs	r0, r5
 227              	.LVL28:
 228 0104 FFF7FEFF 		bl	mbedtls_mpi_cmp_int
 229              	.LVL29:
 230 0108 0028     		cmp	r0, #0
 231 010a 51D1     		bne	.L6
 142:Source\mbedtls_open\library/rsa_internal.c ****             continue;
 143:Source\mbedtls_open\library/rsa_internal.c **** 
 144:Source\mbedtls_open\library/rsa_internal.c ****         /* Go through K^T + 1, K^(2T) + 1, K^(4T) + 1, ...
 145:Source\mbedtls_open\library/rsa_internal.c ****          * and check whether they have nontrivial GCD with N. */
 146:Source\mbedtls_open\library/rsa_internal.c ****         MBEDTLS_MPI_CHK( mbedtls_mpi_exp_mod( &K, &K, &T, N,
 232              		.loc 1 146 0
 233 010c 0096     		str	r6, [sp]
 234 010e 039B     		ldr	r3, [sp, #12]
 235 0110 15AA     		add	r2, sp, #84
 236 0112 12A9     		add	r1, sp, #72
 237 0114 0800     		movs	r0, r1
 238 0116 FFF7FEFF 		bl	mbedtls_mpi_exp_mod
 239              	.LVL30:
 240 011a 041E     		subs	r4, r0, #0
 241              	.LVL31:
 242 011c 57D1     		bne	.L3
 243 011e 0127     		movs	r7, #1
 244 0120 3EE0     		b	.L7
 245              	.LVL32:
 246              	.L10:
 147:Source\mbedtls_open\library/rsa_internal.c ****                              Q /* temporarily use Q for storing Montgomery
 148:Source\mbedtls_open\library/rsa_internal.c ****                                 * multiplication helper values */ ) );
ARM GAS  C:\Users\Phuong\AppData\Local\Temp\ccvjXtRI.s 			page 8


 149:Source\mbedtls_open\library/rsa_internal.c **** 
 150:Source\mbedtls_open\library/rsa_internal.c ****         for( iter = 1; iter <= order; ++iter )
 151:Source\mbedtls_open\library/rsa_internal.c ****         {
 152:Source\mbedtls_open\library/rsa_internal.c ****             /* If we reach 1 prematurely, there's no point
 153:Source\mbedtls_open\library/rsa_internal.c ****              * in continuing to square K */
 154:Source\mbedtls_open\library/rsa_internal.c ****             if( mbedtls_mpi_cmp_int( &K, 1 ) == 0 )
 247              		.loc 1 154 0
 248 0122 0121     		movs	r1, #1
 249 0124 12A8     		add	r0, sp, #72
 250              	.LVL33:
 251 0126 FFF7FEFF 		bl	mbedtls_mpi_cmp_int
 252              	.LVL34:
 253 012a 0028     		cmp	r0, #0
 254 012c 3AD0     		beq	.L8
 155:Source\mbedtls_open\library/rsa_internal.c ****                 break;
 156:Source\mbedtls_open\library/rsa_internal.c **** 
 157:Source\mbedtls_open\library/rsa_internal.c ****             MBEDTLS_MPI_CHK( mbedtls_mpi_add_int( &K, &K, 1 ) );
 255              		.loc 1 157 0
 256 012e 0122     		movs	r2, #1
 257 0130 12A9     		add	r1, sp, #72
 258 0132 0800     		movs	r0, r1
 259 0134 FFF7FEFF 		bl	mbedtls_mpi_add_int
 260              	.LVL35:
 261 0138 041E     		subs	r4, r0, #0
 262              	.LVL36:
 263 013a 48D1     		bne	.L3
 158:Source\mbedtls_open\library/rsa_internal.c ****             MBEDTLS_MPI_CHK( mbedtls_mpi_gcd( P, &K, N ) );
 264              		.loc 1 158 0
 265 013c 039A     		ldr	r2, [sp, #12]
 266 013e 12A9     		add	r1, sp, #72
 267 0140 2800     		movs	r0, r5
 268              	.LVL37:
 269 0142 FFF7FEFF 		bl	mbedtls_mpi_gcd
 270              	.LVL38:
 271 0146 041E     		subs	r4, r0, #0
 272              	.LVL39:
 273 0148 41D1     		bne	.L3
 159:Source\mbedtls_open\library/rsa_internal.c **** 
 160:Source\mbedtls_open\library/rsa_internal.c ****             if( mbedtls_mpi_cmp_int( P, 1 ) ==  1 &&
 274              		.loc 1 160 0
 275 014a 0121     		movs	r1, #1
 276 014c 2800     		movs	r0, r5
 277              	.LVL40:
 278 014e FFF7FEFF 		bl	mbedtls_mpi_cmp_int
 279              	.LVL41:
 280 0152 0128     		cmp	r0, #1
 281 0154 0DD1     		bne	.L9
 161:Source\mbedtls_open\library/rsa_internal.c ****                 mbedtls_mpi_cmp_mpi( P, N ) == -1 )
 282              		.loc 1 161 0 discriminator 1
 283 0156 0399     		ldr	r1, [sp, #12]
 284 0158 2800     		movs	r0, r5
 285 015a FFF7FEFF 		bl	mbedtls_mpi_cmp_mpi
 286              	.LVL42:
 160:Source\mbedtls_open\library/rsa_internal.c ****                 mbedtls_mpi_cmp_mpi( P, N ) == -1 )
 287              		.loc 1 160 0 discriminator 1
 288 015e 431C     		adds	r3, r0, #1
 289 0160 07D1     		bne	.L9
ARM GAS  C:\Users\Phuong\AppData\Local\Temp\ccvjXtRI.s 			page 9


 162:Source\mbedtls_open\library/rsa_internal.c ****             {
 163:Source\mbedtls_open\library/rsa_internal.c ****                 /*
 164:Source\mbedtls_open\library/rsa_internal.c ****                  * Have found a nontrivial divisor P of N.
 165:Source\mbedtls_open\library/rsa_internal.c ****                  * Set Q := N / P.
 166:Source\mbedtls_open\library/rsa_internal.c ****                  */
 167:Source\mbedtls_open\library/rsa_internal.c **** 
 168:Source\mbedtls_open\library/rsa_internal.c ****                 MBEDTLS_MPI_CHK( mbedtls_mpi_div_mpi( Q, NULL, N, P ) );
 290              		.loc 1 168 0
 291 0162 2B00     		movs	r3, r5
 292 0164 039A     		ldr	r2, [sp, #12]
 293 0166 0021     		movs	r1, #0
 294 0168 3000     		movs	r0, r6
 295 016a FFF7FEFF 		bl	mbedtls_mpi_div_mpi
 296              	.LVL43:
 297 016e 0400     		movs	r4, r0
 298              	.LVL44:
 299 0170 2DE0     		b	.L3
 300              	.LVL45:
 301              	.L9:
 169:Source\mbedtls_open\library/rsa_internal.c ****                 goto cleanup;
 170:Source\mbedtls_open\library/rsa_internal.c ****             }
 171:Source\mbedtls_open\library/rsa_internal.c **** 
 172:Source\mbedtls_open\library/rsa_internal.c ****             MBEDTLS_MPI_CHK( mbedtls_mpi_sub_int( &K, &K, 1 ) );
 302              		.loc 1 172 0
 303 0172 0122     		movs	r2, #1
 304 0174 12A9     		add	r1, sp, #72
 305 0176 0800     		movs	r0, r1
 306 0178 FFF7FEFF 		bl	mbedtls_mpi_sub_int
 307              	.LVL46:
 308 017c 041E     		subs	r4, r0, #0
 309              	.LVL47:
 310 017e 26D1     		bne	.L3
 173:Source\mbedtls_open\library/rsa_internal.c ****             MBEDTLS_MPI_CHK( mbedtls_mpi_mul_mpi( &K, &K, &K ) );
 311              		.loc 1 173 0
 312 0180 12AA     		add	r2, sp, #72
 313 0182 1100     		movs	r1, r2
 314 0184 1000     		movs	r0, r2
 315              	.LVL48:
 316 0186 FFF7FEFF 		bl	mbedtls_mpi_mul_mpi
 317              	.LVL49:
 318 018a 041E     		subs	r4, r0, #0
 319              	.LVL50:
 320 018c 1FD1     		bne	.L3
 174:Source\mbedtls_open\library/rsa_internal.c ****             MBEDTLS_MPI_CHK( mbedtls_mpi_mod_mpi( &K, &K, N ) );
 321              		.loc 1 174 0
 322 018e 039A     		ldr	r2, [sp, #12]
 323 0190 12A9     		add	r1, sp, #72
 324 0192 0800     		movs	r0, r1
 325              	.LVL51:
 326 0194 FFF7FEFF 		bl	mbedtls_mpi_mod_mpi
 327              	.LVL52:
 328 0198 041E     		subs	r4, r0, #0
 329              	.LVL53:
 330 019a 18D1     		bne	.L3
 150:Source\mbedtls_open\library/rsa_internal.c ****         {
 331              		.loc 1 150 0 discriminator 2
 332 019c 0137     		adds	r7, r7, #1
ARM GAS  C:\Users\Phuong\AppData\Local\Temp\ccvjXtRI.s 			page 10


 333              	.LVL54:
 334 019e BFB2     		uxth	r7, r7
 335              	.LVL55:
 336              	.L7:
 150:Source\mbedtls_open\library/rsa_internal.c ****         {
 337              		.loc 1 150 0 is_stmt 0 discriminator 1
 338 01a0 4F45     		cmp	r7, r9
 339 01a2 BED9     		bls	.L10
 340              	.LVL56:
 341              	.L8:
 175:Source\mbedtls_open\library/rsa_internal.c ****         }
 176:Source\mbedtls_open\library/rsa_internal.c **** 
 177:Source\mbedtls_open\library/rsa_internal.c ****         /*
 178:Source\mbedtls_open\library/rsa_internal.c ****          * If we get here, then either we prematurely aborted the loop because
 179:Source\mbedtls_open\library/rsa_internal.c ****          * we reached 1, or K holds primes[attempt]^(DE - 1) mod N, which must
 180:Source\mbedtls_open\library/rsa_internal.c ****          * be 1 if D,E,N were consistent.
 181:Source\mbedtls_open\library/rsa_internal.c ****          * Check if that's the case and abort if not, to avoid very long,
 182:Source\mbedtls_open\library/rsa_internal.c ****          * yet eventually failing, computations if N,D,E were not sane.
 183:Source\mbedtls_open\library/rsa_internal.c ****          */
 184:Source\mbedtls_open\library/rsa_internal.c ****         if( mbedtls_mpi_cmp_int( &K, 1 ) != 0 )
 342              		.loc 1 184 0 is_stmt 1
 343 01a4 0121     		movs	r1, #1
 344 01a6 12A8     		add	r0, sp, #72
 345 01a8 FFF7FEFF 		bl	mbedtls_mpi_cmp_int
 346              	.LVL57:
 347 01ac 0028     		cmp	r0, #0
 348 01ae 0CD1     		bne	.L23
 349              	.LVL58:
 350              	.L6:
 135:Source\mbedtls_open\library/rsa_internal.c ****     {
 351              		.loc 1 135 0
 352 01b0 5346     		mov	r3, r10
 353 01b2 0133     		adds	r3, r3, #1
 354 01b4 9BB2     		uxth	r3, r3
 355 01b6 9A46     		mov	r10, r3
 356              	.LVL59:
 357              	.L5:
 135:Source\mbedtls_open\library/rsa_internal.c ****     {
 358              		.loc 1 135 0 is_stmt 0 discriminator 1
 359 01b8 5346     		mov	r3, r10
 360 01ba 352B     		cmp	r3, #53
 361 01bc 93D9     		bls	.L11
 185:Source\mbedtls_open\library/rsa_internal.c ****         {
 186:Source\mbedtls_open\library/rsa_internal.c ****             break;
 187:Source\mbedtls_open\library/rsa_internal.c ****         }
 188:Source\mbedtls_open\library/rsa_internal.c ****     }
 189:Source\mbedtls_open\library/rsa_internal.c **** 
 190:Source\mbedtls_open\library/rsa_internal.c ****     ret = MBEDTLS_ERR_MPI_BAD_INPUT_DATA;
 362              		.loc 1 190 0 is_stmt 1
 363 01be 0424     		movs	r4, #4
 364              	.LVL60:
 365 01c0 6442     		rsbs	r4, r4, #0
 366 01c2 04E0     		b	.L3
 367              	.LVL61:
 368              	.L21:
 119:Source\mbedtls_open\library/rsa_internal.c ****         goto cleanup;
 369              		.loc 1 119 0
ARM GAS  C:\Users\Phuong\AppData\Local\Temp\ccvjXtRI.s 			page 11


 370 01c4 0424     		movs	r4, #4
 371              	.LVL62:
 372 01c6 6442     		rsbs	r4, r4, #0
 373 01c8 01E0     		b	.L3
 374              	.LVL63:
 375              	.L23:
 376              		.loc 1 190 0
 377 01ca 0424     		movs	r4, #4
 378              	.LVL64:
 379 01cc 6442     		rsbs	r4, r4, #0
 380              	.LVL65:
 381              	.L3:
 191:Source\mbedtls_open\library/rsa_internal.c **** 
 192:Source\mbedtls_open\library/rsa_internal.c **** cleanup:
 193:Source\mbedtls_open\library/rsa_internal.c **** 
 194:Source\mbedtls_open\library/rsa_internal.c ****     mbedtls_mpi_free( &K );
 382              		.loc 1 194 0
 383 01ce 12A8     		add	r0, sp, #72
 384 01d0 FFF7FEFF 		bl	mbedtls_mpi_free
 385              	.LVL66:
 195:Source\mbedtls_open\library/rsa_internal.c ****     mbedtls_mpi_free( &T );
 386              		.loc 1 195 0
 387 01d4 15A8     		add	r0, sp, #84
 388 01d6 FFF7FEFF 		bl	mbedtls_mpi_free
 389              	.LVL67:
 196:Source\mbedtls_open\library/rsa_internal.c ****     return( ret );
 390              		.loc 1 196 0
 391 01da 2000     		movs	r0, r4
 392 01dc 19E0     		b	.L2
 393              	.LVL68:
 394              	.L12:
  95:Source\mbedtls_open\library/rsa_internal.c **** 
 395              		.loc 1 95 0
 396 01de 0420     		movs	r0, #4
 397 01e0 4042     		rsbs	r0, r0, #0
 398 01e2 16E0     		b	.L2
 399              	.L13:
 400 01e4 0420     		movs	r0, #4
 401 01e6 4042     		rsbs	r0, r0, #0
 402 01e8 13E0     		b	.L2
 403              	.L14:
 404 01ea 0420     		movs	r0, #4
 405 01ec 4042     		rsbs	r0, r0, #0
 406 01ee 10E0     		b	.L2
 407              	.L15:
 408 01f0 0420     		movs	r0, #4
 409 01f2 4042     		rsbs	r0, r0, #0
 410 01f4 0DE0     		b	.L2
 411              	.L16:
 103:Source\mbedtls_open\library/rsa_internal.c ****     }
 412              		.loc 1 103 0
 413 01f6 0420     		movs	r0, #4
 414 01f8 4042     		rsbs	r0, r0, #0
 415 01fa 0AE0     		b	.L2
 416              	.L17:
 417 01fc 0420     		movs	r0, #4
 418 01fe 4042     		rsbs	r0, r0, #0
ARM GAS  C:\Users\Phuong\AppData\Local\Temp\ccvjXtRI.s 			page 12


 419 0200 07E0     		b	.L2
 420              	.L18:
 421 0202 0420     		movs	r0, #4
 422 0204 4042     		rsbs	r0, r0, #0
 423 0206 04E0     		b	.L2
 424              	.L19:
 425 0208 0420     		movs	r0, #4
 426 020a 4042     		rsbs	r0, r0, #0
 427 020c 01E0     		b	.L2
 428              	.L20:
 429 020e 0420     		movs	r0, #4
 430 0210 4042     		rsbs	r0, r0, #0
 431              	.LVL69:
 432              	.L2:
 197:Source\mbedtls_open\library/rsa_internal.c **** }
 433              		.loc 1 197 0
 434 0212 19B0     		add	sp, sp, #100
 435              		@ sp needed
 436              	.LVL70:
 437 0214 0CBC     		pop	{r2, r3}
 438 0216 9146     		mov	r9, r2
 439 0218 9A46     		mov	r10, r3
 440 021a F0BD     		pop	{r4, r5, r6, r7, pc}
 441              	.L25:
 442              		.align	2
 443              	.L24:
 444 021c 00000000 		.word	.LANCHOR0
 445              		.cfi_endproc
 446              	.LFE0:
 447              		.size	mbedtls_rsa_deduce_primes, .-mbedtls_rsa_deduce_primes
 448              		.section	.text.mbedtls_rsa_deduce_private_exponent,"ax",%progbits
 449              		.align	2
 450              		.global	mbedtls_rsa_deduce_private_exponent
 451              		.code	16
 452              		.thumb_func
 453              		.type	mbedtls_rsa_deduce_private_exponent, %function
 454              	mbedtls_rsa_deduce_private_exponent:
 455              	.LFB1:
 198:Source\mbedtls_open\library/rsa_internal.c **** 
 199:Source\mbedtls_open\library/rsa_internal.c **** /*
 200:Source\mbedtls_open\library/rsa_internal.c ****  * Given P, Q and the public exponent E, deduce D.
 201:Source\mbedtls_open\library/rsa_internal.c ****  * This is essentially a modular inversion.
 202:Source\mbedtls_open\library/rsa_internal.c ****  */
 203:Source\mbedtls_open\library/rsa_internal.c **** int mbedtls_rsa_deduce_private_exponent( mbedtls_mpi const *P,
 204:Source\mbedtls_open\library/rsa_internal.c ****                                          mbedtls_mpi const *Q,
 205:Source\mbedtls_open\library/rsa_internal.c ****                                          mbedtls_mpi const *E,
 206:Source\mbedtls_open\library/rsa_internal.c ****                                          mbedtls_mpi *D )
 207:Source\mbedtls_open\library/rsa_internal.c **** {
 456              		.loc 1 207 0
 457              		.cfi_startproc
 458              		@ args = 0, pretend = 0, frame = 24
 459              		@ frame_needed = 0, uses_anonymous_args = 0
 460              	.LVL71:
 461 0000 F0B5     		push	{r4, r5, r6, r7, lr}
 462              		.cfi_def_cfa_offset 20
 463              		.cfi_offset 4, -20
 464              		.cfi_offset 5, -16
ARM GAS  C:\Users\Phuong\AppData\Local\Temp\ccvjXtRI.s 			page 13


 465              		.cfi_offset 6, -12
 466              		.cfi_offset 7, -8
 467              		.cfi_offset 14, -4
 468 0002 87B0     		sub	sp, sp, #28
 469              		.cfi_def_cfa_offset 48
 470 0004 0400     		movs	r4, r0
 471 0006 0E00     		movs	r6, r1
 472 0008 1700     		movs	r7, r2
 473 000a 1D1E     		subs	r5, r3, #0
 474              	.LVL72:
 208:Source\mbedtls_open\library/rsa_internal.c ****     int ret = 0;
 209:Source\mbedtls_open\library/rsa_internal.c ****     mbedtls_mpi K, L;
 210:Source\mbedtls_open\library/rsa_internal.c **** 
 211:Source\mbedtls_open\library/rsa_internal.c ****     if( D == NULL || mbedtls_mpi_cmp_int( D, 0 ) != 0 )
 475              		.loc 1 211 0
 476 000c 4FD0     		beq	.L29
 477              		.loc 1 211 0 is_stmt 0 discriminator 1
 478 000e 0021     		movs	r1, #0
 479              	.LVL73:
 480 0010 1800     		movs	r0, r3
 481              	.LVL74:
 482 0012 FFF7FEFF 		bl	mbedtls_mpi_cmp_int
 483              	.LVL75:
 484 0016 0028     		cmp	r0, #0
 485 0018 4CD1     		bne	.L30
 212:Source\mbedtls_open\library/rsa_internal.c ****         return( MBEDTLS_ERR_MPI_BAD_INPUT_DATA );
 213:Source\mbedtls_open\library/rsa_internal.c **** 
 214:Source\mbedtls_open\library/rsa_internal.c ****     if( mbedtls_mpi_cmp_int( P, 1 ) <= 0 ||
 486              		.loc 1 214 0 is_stmt 1
 487 001a 0121     		movs	r1, #1
 488 001c 2000     		movs	r0, r4
 489 001e FFF7FEFF 		bl	mbedtls_mpi_cmp_int
 490              	.LVL76:
 491 0022 0028     		cmp	r0, #0
 492 0024 49DD     		ble	.L31
 215:Source\mbedtls_open\library/rsa_internal.c ****         mbedtls_mpi_cmp_int( Q, 1 ) <= 0 ||
 493              		.loc 1 215 0 discriminator 1
 494 0026 0121     		movs	r1, #1
 495 0028 3000     		movs	r0, r6
 496 002a FFF7FEFF 		bl	mbedtls_mpi_cmp_int
 497              	.LVL77:
 214:Source\mbedtls_open\library/rsa_internal.c ****         mbedtls_mpi_cmp_int( Q, 1 ) <= 0 ||
 498              		.loc 1 214 0 discriminator 1
 499 002e 0028     		cmp	r0, #0
 500 0030 46DD     		ble	.L32
 216:Source\mbedtls_open\library/rsa_internal.c ****         mbedtls_mpi_cmp_int( E, 0 ) == 0 )
 501              		.loc 1 216 0
 502 0032 0021     		movs	r1, #0
 503 0034 3800     		movs	r0, r7
 504 0036 FFF7FEFF 		bl	mbedtls_mpi_cmp_int
 505              	.LVL78:
 215:Source\mbedtls_open\library/rsa_internal.c ****         mbedtls_mpi_cmp_int( Q, 1 ) <= 0 ||
 506              		.loc 1 215 0
 507 003a 0028     		cmp	r0, #0
 508 003c 43D0     		beq	.L33
 217:Source\mbedtls_open\library/rsa_internal.c ****     {
 218:Source\mbedtls_open\library/rsa_internal.c ****         return( MBEDTLS_ERR_MPI_BAD_INPUT_DATA );
ARM GAS  C:\Users\Phuong\AppData\Local\Temp\ccvjXtRI.s 			page 14


 219:Source\mbedtls_open\library/rsa_internal.c ****     }
 220:Source\mbedtls_open\library/rsa_internal.c **** 
 221:Source\mbedtls_open\library/rsa_internal.c ****     mbedtls_mpi_init( &K );
 509              		.loc 1 221 0
 510 003e 03A8     		add	r0, sp, #12
 511 0040 FFF7FEFF 		bl	mbedtls_mpi_init
 512              	.LVL79:
 222:Source\mbedtls_open\library/rsa_internal.c ****     mbedtls_mpi_init( &L );
 513              		.loc 1 222 0
 514 0044 6846     		mov	r0, sp
 515 0046 FFF7FEFF 		bl	mbedtls_mpi_init
 516              	.LVL80:
 223:Source\mbedtls_open\library/rsa_internal.c **** 
 224:Source\mbedtls_open\library/rsa_internal.c ****     /* Temporarily put K := P-1 and L := Q-1 */
 225:Source\mbedtls_open\library/rsa_internal.c ****     MBEDTLS_MPI_CHK( mbedtls_mpi_sub_int( &K, P, 1 ) );
 517              		.loc 1 225 0
 518 004a 0122     		movs	r2, #1
 519 004c 2100     		movs	r1, r4
 520 004e 03A8     		add	r0, sp, #12
 521 0050 FFF7FEFF 		bl	mbedtls_mpi_sub_int
 522              	.LVL81:
 523 0054 041E     		subs	r4, r0, #0
 524              	.LVL82:
 525 0056 22D1     		bne	.L28
 226:Source\mbedtls_open\library/rsa_internal.c ****     MBEDTLS_MPI_CHK( mbedtls_mpi_sub_int( &L, Q, 1 ) );
 526              		.loc 1 226 0
 527 0058 0122     		movs	r2, #1
 528 005a 3100     		movs	r1, r6
 529 005c 6846     		mov	r0, sp
 530              	.LVL83:
 531 005e FFF7FEFF 		bl	mbedtls_mpi_sub_int
 532              	.LVL84:
 533 0062 041E     		subs	r4, r0, #0
 534              	.LVL85:
 535 0064 1BD1     		bne	.L28
 227:Source\mbedtls_open\library/rsa_internal.c **** 
 228:Source\mbedtls_open\library/rsa_internal.c ****     /* Temporarily put D := gcd(P-1, Q-1) */
 229:Source\mbedtls_open\library/rsa_internal.c ****     MBEDTLS_MPI_CHK( mbedtls_mpi_gcd( D, &K, &L ) );
 536              		.loc 1 229 0
 537 0066 6A46     		mov	r2, sp
 538 0068 03A9     		add	r1, sp, #12
 539 006a 2800     		movs	r0, r5
 540              	.LVL86:
 541 006c FFF7FEFF 		bl	mbedtls_mpi_gcd
 542              	.LVL87:
 543 0070 041E     		subs	r4, r0, #0
 544              	.LVL88:
 545 0072 14D1     		bne	.L28
 230:Source\mbedtls_open\library/rsa_internal.c **** 
 231:Source\mbedtls_open\library/rsa_internal.c ****     /* K := LCM(P-1, Q-1) */
 232:Source\mbedtls_open\library/rsa_internal.c ****     MBEDTLS_MPI_CHK( mbedtls_mpi_mul_mpi( &K, &K, &L ) );
 546              		.loc 1 232 0
 547 0074 6A46     		mov	r2, sp
 548 0076 03A9     		add	r1, sp, #12
 549 0078 0800     		movs	r0, r1
 550              	.LVL89:
 551 007a FFF7FEFF 		bl	mbedtls_mpi_mul_mpi
ARM GAS  C:\Users\Phuong\AppData\Local\Temp\ccvjXtRI.s 			page 15


 552              	.LVL90:
 553 007e 041E     		subs	r4, r0, #0
 554              	.LVL91:
 555 0080 0DD1     		bne	.L28
 233:Source\mbedtls_open\library/rsa_internal.c ****     MBEDTLS_MPI_CHK( mbedtls_mpi_div_mpi( &K, NULL, &K, D ) );
 556              		.loc 1 233 0
 557 0082 2B00     		movs	r3, r5
 558 0084 03AA     		add	r2, sp, #12
 559 0086 0021     		movs	r1, #0
 560 0088 1000     		movs	r0, r2
 561              	.LVL92:
 562 008a FFF7FEFF 		bl	mbedtls_mpi_div_mpi
 563              	.LVL93:
 564 008e 041E     		subs	r4, r0, #0
 565              	.LVL94:
 566 0090 05D1     		bne	.L28
 234:Source\mbedtls_open\library/rsa_internal.c **** 
 235:Source\mbedtls_open\library/rsa_internal.c ****     /* Compute modular inverse of E in LCM(P-1, Q-1) */
 236:Source\mbedtls_open\library/rsa_internal.c ****     MBEDTLS_MPI_CHK( mbedtls_mpi_inv_mod( D, E, &K ) );
 567              		.loc 1 236 0
 568 0092 03AA     		add	r2, sp, #12
 569 0094 3900     		movs	r1, r7
 570 0096 2800     		movs	r0, r5
 571              	.LVL95:
 572 0098 FFF7FEFF 		bl	mbedtls_mpi_inv_mod
 573              	.LVL96:
 574 009c 0400     		movs	r4, r0
 575              	.LVL97:
 576              	.L28:
 237:Source\mbedtls_open\library/rsa_internal.c **** 
 238:Source\mbedtls_open\library/rsa_internal.c **** cleanup:
 239:Source\mbedtls_open\library/rsa_internal.c **** 
 240:Source\mbedtls_open\library/rsa_internal.c ****     mbedtls_mpi_free( &K );
 577              		.loc 1 240 0
 578 009e 03A8     		add	r0, sp, #12
 579              	.LVL98:
 580 00a0 FFF7FEFF 		bl	mbedtls_mpi_free
 581              	.LVL99:
 241:Source\mbedtls_open\library/rsa_internal.c ****     mbedtls_mpi_free( &L );
 582              		.loc 1 241 0
 583 00a4 6846     		mov	r0, sp
 584 00a6 FFF7FEFF 		bl	mbedtls_mpi_free
 585              	.LVL100:
 242:Source\mbedtls_open\library/rsa_internal.c **** 
 243:Source\mbedtls_open\library/rsa_internal.c ****     return( ret );
 586              		.loc 1 243 0
 587 00aa 2000     		movs	r0, r4
 588 00ac 0DE0     		b	.L27
 589              	.LVL101:
 590              	.L29:
 212:Source\mbedtls_open\library/rsa_internal.c **** 
 591              		.loc 1 212 0
 592 00ae 0420     		movs	r0, #4
 593              	.LVL102:
 594 00b0 4042     		rsbs	r0, r0, #0
 595 00b2 0AE0     		b	.L27
 596              	.LVL103:
ARM GAS  C:\Users\Phuong\AppData\Local\Temp\ccvjXtRI.s 			page 16


 597              	.L30:
 598 00b4 0420     		movs	r0, #4
 599 00b6 4042     		rsbs	r0, r0, #0
 600 00b8 07E0     		b	.L27
 601              	.L31:
 218:Source\mbedtls_open\library/rsa_internal.c ****     }
 602              		.loc 1 218 0
 603 00ba 0420     		movs	r0, #4
 604 00bc 4042     		rsbs	r0, r0, #0
 605 00be 04E0     		b	.L27
 606              	.L32:
 607 00c0 0420     		movs	r0, #4
 608 00c2 4042     		rsbs	r0, r0, #0
 609 00c4 01E0     		b	.L27
 610              	.L33:
 611 00c6 0420     		movs	r0, #4
 612 00c8 4042     		rsbs	r0, r0, #0
 613              	.LVL104:
 614              	.L27:
 244:Source\mbedtls_open\library/rsa_internal.c **** }
 615              		.loc 1 244 0
 616 00ca 07B0     		add	sp, sp, #28
 617              		@ sp needed
 618              	.LVL105:
 619              	.LVL106:
 620              	.LVL107:
 621 00cc F0BD     		pop	{r4, r5, r6, r7, pc}
 622              		.cfi_endproc
 623              	.LFE1:
 624              		.size	mbedtls_rsa_deduce_private_exponent, .-mbedtls_rsa_deduce_private_exponent
 625 00ce C046     		.section	.text.mbedtls_rsa_validate_crt,"ax",%progbits
 626              		.align	2
 627              		.global	mbedtls_rsa_validate_crt
 628              		.code	16
 629              		.thumb_func
 630              		.type	mbedtls_rsa_validate_crt, %function
 631              	mbedtls_rsa_validate_crt:
 632              	.LFB2:
 245:Source\mbedtls_open\library/rsa_internal.c **** 
 246:Source\mbedtls_open\library/rsa_internal.c **** /*
 247:Source\mbedtls_open\library/rsa_internal.c ****  * Check that RSA CRT parameters are in accordance with core parameters.
 248:Source\mbedtls_open\library/rsa_internal.c ****  */
 249:Source\mbedtls_open\library/rsa_internal.c **** int mbedtls_rsa_validate_crt( const mbedtls_mpi *P,  const mbedtls_mpi *Q,
 250:Source\mbedtls_open\library/rsa_internal.c ****                               const mbedtls_mpi *D,  const mbedtls_mpi *DP,
 251:Source\mbedtls_open\library/rsa_internal.c ****                               const mbedtls_mpi *DQ, const mbedtls_mpi *QP )
 252:Source\mbedtls_open\library/rsa_internal.c **** {
 633              		.loc 1 252 0
 634              		.cfi_startproc
 635              		@ args = 8, pretend = 0, frame = 32
 636              		@ frame_needed = 0, uses_anonymous_args = 0
 637              	.LVL108:
 638 0000 F0B5     		push	{r4, r5, r6, r7, lr}
 639              		.cfi_def_cfa_offset 20
 640              		.cfi_offset 4, -20
 641              		.cfi_offset 5, -16
 642              		.cfi_offset 6, -12
 643              		.cfi_offset 7, -8
ARM GAS  C:\Users\Phuong\AppData\Local\Temp\ccvjXtRI.s 			page 17


 644              		.cfi_offset 14, -4
 645 0002 89B0     		sub	sp, sp, #36
 646              		.cfi_def_cfa_offset 56
 647 0004 0500     		movs	r5, r0
 648 0006 0E00     		movs	r6, r1
 649 0008 0192     		str	r2, [sp, #4]
 650 000a 1F00     		movs	r7, r3
 651              	.LVL109:
 253:Source\mbedtls_open\library/rsa_internal.c ****     int ret = 0;
 254:Source\mbedtls_open\library/rsa_internal.c **** 
 255:Source\mbedtls_open\library/rsa_internal.c ****     mbedtls_mpi K, L;
 256:Source\mbedtls_open\library/rsa_internal.c ****     mbedtls_mpi_init( &K );
 652              		.loc 1 256 0
 653 000c 05A8     		add	r0, sp, #20
 654              	.LVL110:
 655 000e FFF7FEFF 		bl	mbedtls_mpi_init
 656              	.LVL111:
 257:Source\mbedtls_open\library/rsa_internal.c ****     mbedtls_mpi_init( &L );
 657              		.loc 1 257 0
 658 0012 02A8     		add	r0, sp, #8
 659 0014 FFF7FEFF 		bl	mbedtls_mpi_init
 660              	.LVL112:
 258:Source\mbedtls_open\library/rsa_internal.c **** 
 259:Source\mbedtls_open\library/rsa_internal.c ****     /* Check that DP - D == 0 mod P - 1 */
 260:Source\mbedtls_open\library/rsa_internal.c ****     if( DP != NULL )
 661              		.loc 1 260 0
 662 0018 002F     		cmp	r7, #0
 663 001a 1DD0     		beq	.L39
 261:Source\mbedtls_open\library/rsa_internal.c ****     {
 262:Source\mbedtls_open\library/rsa_internal.c ****         if( P == NULL )
 664              		.loc 1 262 0
 665 001c 002D     		cmp	r5, #0
 666 001e 5FD0     		beq	.L40
 263:Source\mbedtls_open\library/rsa_internal.c ****         {
 264:Source\mbedtls_open\library/rsa_internal.c ****             ret = MBEDTLS_ERR_RSA_BAD_INPUT_DATA;
 265:Source\mbedtls_open\library/rsa_internal.c ****             goto cleanup;
 266:Source\mbedtls_open\library/rsa_internal.c ****         }
 267:Source\mbedtls_open\library/rsa_internal.c **** 
 268:Source\mbedtls_open\library/rsa_internal.c ****         MBEDTLS_MPI_CHK( mbedtls_mpi_sub_int( &K, P, 1 ) );
 667              		.loc 1 268 0
 668 0020 0122     		movs	r2, #1
 669 0022 2900     		movs	r1, r5
 670 0024 05A8     		add	r0, sp, #20
 671 0026 FFF7FEFF 		bl	mbedtls_mpi_sub_int
 672              	.LVL113:
 673 002a 041E     		subs	r4, r0, #0
 674              	.LVL114:
 675 002c 65D1     		bne	.L36
 269:Source\mbedtls_open\library/rsa_internal.c ****         MBEDTLS_MPI_CHK( mbedtls_mpi_sub_mpi( &L, DP, D ) );
 676              		.loc 1 269 0
 677 002e 019A     		ldr	r2, [sp, #4]
 678 0030 3900     		movs	r1, r7
 679 0032 02A8     		add	r0, sp, #8
 680              	.LVL115:
 681 0034 FFF7FEFF 		bl	mbedtls_mpi_sub_mpi
 682              	.LVL116:
 683 0038 041E     		subs	r4, r0, #0
ARM GAS  C:\Users\Phuong\AppData\Local\Temp\ccvjXtRI.s 			page 18


 684              	.LVL117:
 685 003a 5ED1     		bne	.L36
 270:Source\mbedtls_open\library/rsa_internal.c ****         MBEDTLS_MPI_CHK( mbedtls_mpi_mod_mpi( &L, &L, &K ) );
 686              		.loc 1 270 0
 687 003c 05AA     		add	r2, sp, #20
 688 003e 02A9     		add	r1, sp, #8
 689 0040 0800     		movs	r0, r1
 690              	.LVL118:
 691 0042 FFF7FEFF 		bl	mbedtls_mpi_mod_mpi
 692              	.LVL119:
 693 0046 041E     		subs	r4, r0, #0
 694              	.LVL120:
 695 0048 57D1     		bne	.L36
 271:Source\mbedtls_open\library/rsa_internal.c **** 
 272:Source\mbedtls_open\library/rsa_internal.c ****         if( mbedtls_mpi_cmp_int( &L, 0 ) != 0 )
 696              		.loc 1 272 0
 697 004a 0021     		movs	r1, #0
 698 004c 02A8     		add	r0, sp, #8
 699              	.LVL121:
 700 004e FFF7FEFF 		bl	mbedtls_mpi_cmp_int
 701              	.LVL122:
 702 0052 0028     		cmp	r0, #0
 703 0054 46D1     		bne	.L41
 704 0056 00E0     		b	.L35
 705              	.LVL123:
 706              	.L39:
 253:Source\mbedtls_open\library/rsa_internal.c **** 
 707              		.loc 1 253 0
 708 0058 0024     		movs	r4, #0
 709              	.LVL124:
 710              	.L35:
 273:Source\mbedtls_open\library/rsa_internal.c ****         {
 274:Source\mbedtls_open\library/rsa_internal.c ****             ret = MBEDTLS_ERR_RSA_KEY_CHECK_FAILED;
 275:Source\mbedtls_open\library/rsa_internal.c ****             goto cleanup;
 276:Source\mbedtls_open\library/rsa_internal.c ****         }
 277:Source\mbedtls_open\library/rsa_internal.c ****     }
 278:Source\mbedtls_open\library/rsa_internal.c **** 
 279:Source\mbedtls_open\library/rsa_internal.c ****     /* Check that DQ - D == 0 mod Q - 1 */
 280:Source\mbedtls_open\library/rsa_internal.c ****     if( DQ != NULL )
 711              		.loc 1 280 0
 712 005a 0E9B     		ldr	r3, [sp, #56]
 713 005c 002B     		cmp	r3, #0
 714 005e 1CD0     		beq	.L37
 281:Source\mbedtls_open\library/rsa_internal.c ****     {
 282:Source\mbedtls_open\library/rsa_internal.c ****         if( Q == NULL )
 715              		.loc 1 282 0
 716 0060 002E     		cmp	r6, #0
 717 0062 41D0     		beq	.L42
 283:Source\mbedtls_open\library/rsa_internal.c ****         {
 284:Source\mbedtls_open\library/rsa_internal.c ****             ret = MBEDTLS_ERR_RSA_BAD_INPUT_DATA;
 285:Source\mbedtls_open\library/rsa_internal.c ****             goto cleanup;
 286:Source\mbedtls_open\library/rsa_internal.c ****         }
 287:Source\mbedtls_open\library/rsa_internal.c **** 
 288:Source\mbedtls_open\library/rsa_internal.c ****         MBEDTLS_MPI_CHK( mbedtls_mpi_sub_int( &K, Q, 1 ) );
 718              		.loc 1 288 0
 719 0064 0122     		movs	r2, #1
 720 0066 3100     		movs	r1, r6
ARM GAS  C:\Users\Phuong\AppData\Local\Temp\ccvjXtRI.s 			page 19


 721 0068 05A8     		add	r0, sp, #20
 722 006a FFF7FEFF 		bl	mbedtls_mpi_sub_int
 723              	.LVL125:
 724 006e 041E     		subs	r4, r0, #0
 725              	.LVL126:
 726 0070 43D1     		bne	.L36
 289:Source\mbedtls_open\library/rsa_internal.c ****         MBEDTLS_MPI_CHK( mbedtls_mpi_sub_mpi( &L, DQ, D ) );
 727              		.loc 1 289 0
 728 0072 019A     		ldr	r2, [sp, #4]
 729 0074 0E99     		ldr	r1, [sp, #56]
 730 0076 02A8     		add	r0, sp, #8
 731              	.LVL127:
 732 0078 FFF7FEFF 		bl	mbedtls_mpi_sub_mpi
 733              	.LVL128:
 734 007c 041E     		subs	r4, r0, #0
 735              	.LVL129:
 736 007e 3CD1     		bne	.L36
 290:Source\mbedtls_open\library/rsa_internal.c ****         MBEDTLS_MPI_CHK( mbedtls_mpi_mod_mpi( &L, &L, &K ) );
 737              		.loc 1 290 0
 738 0080 05AA     		add	r2, sp, #20
 739 0082 02A9     		add	r1, sp, #8
 740 0084 0800     		movs	r0, r1
 741              	.LVL130:
 742 0086 FFF7FEFF 		bl	mbedtls_mpi_mod_mpi
 743              	.LVL131:
 744 008a 041E     		subs	r4, r0, #0
 745              	.LVL132:
 746 008c 35D1     		bne	.L36
 291:Source\mbedtls_open\library/rsa_internal.c **** 
 292:Source\mbedtls_open\library/rsa_internal.c ****         if( mbedtls_mpi_cmp_int( &L, 0 ) != 0 )
 747              		.loc 1 292 0
 748 008e 0021     		movs	r1, #0
 749 0090 02A8     		add	r0, sp, #8
 750              	.LVL133:
 751 0092 FFF7FEFF 		bl	mbedtls_mpi_cmp_int
 752              	.LVL134:
 753 0096 0028     		cmp	r0, #0
 754 0098 28D1     		bne	.L43
 755              	.L37:
 293:Source\mbedtls_open\library/rsa_internal.c ****         {
 294:Source\mbedtls_open\library/rsa_internal.c ****             ret = MBEDTLS_ERR_RSA_KEY_CHECK_FAILED;
 295:Source\mbedtls_open\library/rsa_internal.c ****             goto cleanup;
 296:Source\mbedtls_open\library/rsa_internal.c ****         }
 297:Source\mbedtls_open\library/rsa_internal.c ****     }
 298:Source\mbedtls_open\library/rsa_internal.c **** 
 299:Source\mbedtls_open\library/rsa_internal.c ****     /* Check that QP * Q - 1 == 0 mod P */
 300:Source\mbedtls_open\library/rsa_internal.c ****     if( QP != NULL )
 756              		.loc 1 300 0
 757 009a 0F9B     		ldr	r3, [sp, #60]
 758 009c 002B     		cmp	r3, #0
 759 009e 2CD0     		beq	.L36
 301:Source\mbedtls_open\library/rsa_internal.c ****     {
 302:Source\mbedtls_open\library/rsa_internal.c ****         if( P == NULL || Q == NULL )
 760              		.loc 1 302 0
 761 00a0 002D     		cmp	r5, #0
 762 00a2 25D0     		beq	.L44
 763              		.loc 1 302 0 is_stmt 0 discriminator 1
ARM GAS  C:\Users\Phuong\AppData\Local\Temp\ccvjXtRI.s 			page 20


 764 00a4 002E     		cmp	r6, #0
 765 00a6 25D0     		beq	.L45
 303:Source\mbedtls_open\library/rsa_internal.c ****         {
 304:Source\mbedtls_open\library/rsa_internal.c ****             ret = MBEDTLS_ERR_RSA_BAD_INPUT_DATA;
 305:Source\mbedtls_open\library/rsa_internal.c ****             goto cleanup;
 306:Source\mbedtls_open\library/rsa_internal.c ****         }
 307:Source\mbedtls_open\library/rsa_internal.c **** 
 308:Source\mbedtls_open\library/rsa_internal.c ****         MBEDTLS_MPI_CHK( mbedtls_mpi_mul_mpi( &K, QP, Q ) );
 766              		.loc 1 308 0 is_stmt 1
 767 00a8 3200     		movs	r2, r6
 768 00aa 1900     		movs	r1, r3
 769 00ac 05A8     		add	r0, sp, #20
 770 00ae FFF7FEFF 		bl	mbedtls_mpi_mul_mpi
 771              	.LVL135:
 772 00b2 041E     		subs	r4, r0, #0
 773              	.LVL136:
 774 00b4 21D1     		bne	.L36
 309:Source\mbedtls_open\library/rsa_internal.c ****         MBEDTLS_MPI_CHK( mbedtls_mpi_sub_int( &K, &K, 1 ) );
 775              		.loc 1 309 0
 776 00b6 0122     		movs	r2, #1
 777 00b8 05A9     		add	r1, sp, #20
 778 00ba 0800     		movs	r0, r1
 779              	.LVL137:
 780 00bc FFF7FEFF 		bl	mbedtls_mpi_sub_int
 781              	.LVL138:
 782 00c0 041E     		subs	r4, r0, #0
 783              	.LVL139:
 784 00c2 1AD1     		bne	.L36
 310:Source\mbedtls_open\library/rsa_internal.c ****         MBEDTLS_MPI_CHK( mbedtls_mpi_mod_mpi( &K, &K, P ) );
 785              		.loc 1 310 0
 786 00c4 2A00     		movs	r2, r5
 787 00c6 05A9     		add	r1, sp, #20
 788 00c8 0800     		movs	r0, r1
 789              	.LVL140:
 790 00ca FFF7FEFF 		bl	mbedtls_mpi_mod_mpi
 791              	.LVL141:
 792 00ce 041E     		subs	r4, r0, #0
 793              	.LVL142:
 794 00d0 13D1     		bne	.L36
 311:Source\mbedtls_open\library/rsa_internal.c ****         if( mbedtls_mpi_cmp_int( &K, 0 ) != 0 )
 795              		.loc 1 311 0
 796 00d2 0021     		movs	r1, #0
 797 00d4 05A8     		add	r0, sp, #20
 798              	.LVL143:
 799 00d6 FFF7FEFF 		bl	mbedtls_mpi_cmp_int
 800              	.LVL144:
 801 00da 0028     		cmp	r0, #0
 802 00dc 0CD1     		bne	.L46
 803 00de 0CE0     		b	.L36
 804              	.LVL145:
 805              	.L40:
 264:Source\mbedtls_open\library/rsa_internal.c ****             goto cleanup;
 806              		.loc 1 264 0
 807 00e0 104C     		ldr	r4, .L47
 808 00e2 0AE0     		b	.L36
 809              	.LVL146:
 810              	.L41:
ARM GAS  C:\Users\Phuong\AppData\Local\Temp\ccvjXtRI.s 			page 21


 274:Source\mbedtls_open\library/rsa_internal.c ****             goto cleanup;
 811              		.loc 1 274 0
 812 00e4 104C     		ldr	r4, .L47+4
 813              	.LVL147:
 814 00e6 08E0     		b	.L36
 815              	.LVL148:
 816              	.L42:
 284:Source\mbedtls_open\library/rsa_internal.c ****             goto cleanup;
 817              		.loc 1 284 0
 818 00e8 0E4C     		ldr	r4, .L47
 819              	.LVL149:
 820 00ea 06E0     		b	.L36
 821              	.LVL150:
 822              	.L43:
 294:Source\mbedtls_open\library/rsa_internal.c ****             goto cleanup;
 823              		.loc 1 294 0
 824 00ec 0E4C     		ldr	r4, .L47+4
 825              	.LVL151:
 826 00ee 04E0     		b	.L36
 827              	.LVL152:
 828              	.L44:
 304:Source\mbedtls_open\library/rsa_internal.c ****             goto cleanup;
 829              		.loc 1 304 0
 830 00f0 0C4C     		ldr	r4, .L47
 831              	.LVL153:
 832 00f2 02E0     		b	.L36
 833              	.LVL154:
 834              	.L45:
 835 00f4 0B4C     		ldr	r4, .L47
 836              	.LVL155:
 837 00f6 00E0     		b	.L36
 838              	.LVL156:
 839              	.L46:
 312:Source\mbedtls_open\library/rsa_internal.c ****         {
 313:Source\mbedtls_open\library/rsa_internal.c ****             ret = MBEDTLS_ERR_RSA_KEY_CHECK_FAILED;
 840              		.loc 1 313 0
 841 00f8 0B4C     		ldr	r4, .L47+4
 842              	.LVL157:
 843              	.L36:
 314:Source\mbedtls_open\library/rsa_internal.c ****             goto cleanup;
 315:Source\mbedtls_open\library/rsa_internal.c ****         }
 316:Source\mbedtls_open\library/rsa_internal.c ****     }
 317:Source\mbedtls_open\library/rsa_internal.c **** 
 318:Source\mbedtls_open\library/rsa_internal.c **** cleanup:
 319:Source\mbedtls_open\library/rsa_internal.c **** 
 320:Source\mbedtls_open\library/rsa_internal.c ****     /* Wrap MPI error codes by RSA check failure error code */
 321:Source\mbedtls_open\library/rsa_internal.c ****     if( ret != 0 &&
 844              		.loc 1 321 0
 845 00fa 002C     		cmp	r4, #0
 846 00fc 08D0     		beq	.L38
 847              		.loc 1 321 0 is_stmt 0 discriminator 1
 848 00fe 0A4B     		ldr	r3, .L47+4
 849 0100 9C42     		cmp	r4, r3
 850 0102 05D0     		beq	.L38
 322:Source\mbedtls_open\library/rsa_internal.c ****         ret != MBEDTLS_ERR_RSA_KEY_CHECK_FAILED &&
 851              		.loc 1 322 0 is_stmt 1
 852 0104 074B     		ldr	r3, .L47
ARM GAS  C:\Users\Phuong\AppData\Local\Temp\ccvjXtRI.s 			page 22


 853 0106 9C42     		cmp	r4, r3
 854 0108 02D0     		beq	.L38
 323:Source\mbedtls_open\library/rsa_internal.c ****         ret != MBEDTLS_ERR_RSA_BAD_INPUT_DATA )
 324:Source\mbedtls_open\library/rsa_internal.c ****     {
 325:Source\mbedtls_open\library/rsa_internal.c ****         ret += MBEDTLS_ERR_RSA_KEY_CHECK_FAILED;
 855              		.loc 1 325 0
 856 010a 074B     		ldr	r3, .L47+4
 857 010c 9C46     		mov	ip, r3
 858 010e 6444     		add	r4, r4, ip
 859              	.LVL158:
 860              	.L38:
 326:Source\mbedtls_open\library/rsa_internal.c ****     }
 327:Source\mbedtls_open\library/rsa_internal.c **** 
 328:Source\mbedtls_open\library/rsa_internal.c ****     mbedtls_mpi_free( &K );
 861              		.loc 1 328 0
 862 0110 05A8     		add	r0, sp, #20
 863 0112 FFF7FEFF 		bl	mbedtls_mpi_free
 864              	.LVL159:
 329:Source\mbedtls_open\library/rsa_internal.c ****     mbedtls_mpi_free( &L );
 865              		.loc 1 329 0
 866 0116 02A8     		add	r0, sp, #8
 867 0118 FFF7FEFF 		bl	mbedtls_mpi_free
 868              	.LVL160:
 330:Source\mbedtls_open\library/rsa_internal.c **** 
 331:Source\mbedtls_open\library/rsa_internal.c ****     return( ret );
 332:Source\mbedtls_open\library/rsa_internal.c **** }
 869              		.loc 1 332 0
 870 011c 2000     		movs	r0, r4
 871 011e 09B0     		add	sp, sp, #36
 872              		@ sp needed
 873              	.LVL161:
 874              	.LVL162:
 875              	.LVL163:
 876              	.LVL164:
 877 0120 F0BD     		pop	{r4, r5, r6, r7, pc}
 878              	.L48:
 879 0122 C046     		.align	2
 880              	.L47:
 881 0124 80BFFFFF 		.word	-16512
 882 0128 00BEFFFF 		.word	-16896
 883              		.cfi_endproc
 884              	.LFE2:
 885              		.size	mbedtls_rsa_validate_crt, .-mbedtls_rsa_validate_crt
 886              		.section	.text.mbedtls_rsa_validate_params,"ax",%progbits
 887              		.align	2
 888              		.global	mbedtls_rsa_validate_params
 889              		.code	16
 890              		.thumb_func
 891              		.type	mbedtls_rsa_validate_params, %function
 892              	mbedtls_rsa_validate_params:
 893              	.LFB3:
 333:Source\mbedtls_open\library/rsa_internal.c **** 
 334:Source\mbedtls_open\library/rsa_internal.c **** /*
 335:Source\mbedtls_open\library/rsa_internal.c ****  * Check that core RSA parameters are sane.
 336:Source\mbedtls_open\library/rsa_internal.c ****  */
 337:Source\mbedtls_open\library/rsa_internal.c **** int mbedtls_rsa_validate_params( const mbedtls_mpi *N, const mbedtls_mpi *P,
 338:Source\mbedtls_open\library/rsa_internal.c ****                                  const mbedtls_mpi *Q, const mbedtls_mpi *D,
ARM GAS  C:\Users\Phuong\AppData\Local\Temp\ccvjXtRI.s 			page 23


 339:Source\mbedtls_open\library/rsa_internal.c ****                                  const mbedtls_mpi *E,
 340:Source\mbedtls_open\library/rsa_internal.c ****                                  int (*f_rng)(void *, unsigned char *, size_t),
 341:Source\mbedtls_open\library/rsa_internal.c ****                                  void *p_rng )
 342:Source\mbedtls_open\library/rsa_internal.c **** {
 894              		.loc 1 342 0
 895              		.cfi_startproc
 896              		@ args = 12, pretend = 0, frame = 32
 897              		@ frame_needed = 0, uses_anonymous_args = 0
 898              	.LVL165:
 899 0000 F0B5     		push	{r4, r5, r6, r7, lr}
 900              		.cfi_def_cfa_offset 20
 901              		.cfi_offset 4, -20
 902              		.cfi_offset 5, -16
 903              		.cfi_offset 6, -12
 904              		.cfi_offset 7, -8
 905              		.cfi_offset 14, -4
 906 0002 89B0     		sub	sp, sp, #36
 907              		.cfi_def_cfa_offset 56
 908 0004 0600     		movs	r6, r0
 909 0006 0F00     		movs	r7, r1
 910 0008 1500     		movs	r5, r2
 911 000a 0193     		str	r3, [sp, #4]
 912              	.LVL166:
 343:Source\mbedtls_open\library/rsa_internal.c ****     int ret = 0;
 344:Source\mbedtls_open\library/rsa_internal.c ****     mbedtls_mpi K, L;
 345:Source\mbedtls_open\library/rsa_internal.c **** 
 346:Source\mbedtls_open\library/rsa_internal.c ****     mbedtls_mpi_init( &K );
 913              		.loc 1 346 0
 914 000c 05A8     		add	r0, sp, #20
 915              	.LVL167:
 916 000e FFF7FEFF 		bl	mbedtls_mpi_init
 917              	.LVL168:
 347:Source\mbedtls_open\library/rsa_internal.c ****     mbedtls_mpi_init( &L );
 918              		.loc 1 347 0
 919 0012 02A8     		add	r0, sp, #8
 920 0014 FFF7FEFF 		bl	mbedtls_mpi_init
 921              	.LVL169:
 348:Source\mbedtls_open\library/rsa_internal.c **** 
 349:Source\mbedtls_open\library/rsa_internal.c ****     /*
 350:Source\mbedtls_open\library/rsa_internal.c ****      * Step 1: If PRNG provided, check that P and Q are prime
 351:Source\mbedtls_open\library/rsa_internal.c ****      */
 352:Source\mbedtls_open\library/rsa_internal.c **** 
 353:Source\mbedtls_open\library/rsa_internal.c **** #if defined(MBEDTLS_GENPRIME)
 354:Source\mbedtls_open\library/rsa_internal.c ****     if( f_rng != NULL && P != NULL &&
 922              		.loc 1 354 0
 923 0018 0F9B     		ldr	r3, [sp, #60]
 924 001a 002B     		cmp	r3, #0
 925 001c 0AD0     		beq	.L56
 926              		.loc 1 354 0 is_stmt 0 discriminator 1
 927 001e 002F     		cmp	r7, #0
 928 0020 0AD0     		beq	.L57
 929              		.loc 1 354 0 discriminator 2
 930 0022 109A     		ldr	r2, [sp, #64]
 931 0024 1900     		movs	r1, r3
 932 0026 3800     		movs	r0, r7
 933 0028 FFF7FEFF 		bl	mbedtls_mpi_is_prime
 934              	.LVL170:
ARM GAS  C:\Users\Phuong\AppData\Local\Temp\ccvjXtRI.s 			page 24


 935 002c 041E     		subs	r4, r0, #0
 936              	.LVL171:
 937 002e 00D0     		beq	.LCB995
 938 0030 A7E0     		b	.L58	@long jump
 939              	.LCB995:
 940 0032 02E0     		b	.L50
 941              	.LVL172:
 942              	.L56:
 343:Source\mbedtls_open\library/rsa_internal.c ****     mbedtls_mpi K, L;
 943              		.loc 1 343 0 is_stmt 1
 944 0034 0024     		movs	r4, #0
 945 0036 00E0     		b	.L50
 946              	.L57:
 947 0038 0024     		movs	r4, #0
 948              	.LVL173:
 949              	.L50:
 355:Source\mbedtls_open\library/rsa_internal.c ****         ( ret = mbedtls_mpi_is_prime( P, f_rng, p_rng ) ) != 0 )
 356:Source\mbedtls_open\library/rsa_internal.c ****     {
 357:Source\mbedtls_open\library/rsa_internal.c ****         ret = MBEDTLS_ERR_RSA_KEY_CHECK_FAILED;
 358:Source\mbedtls_open\library/rsa_internal.c ****         goto cleanup;
 359:Source\mbedtls_open\library/rsa_internal.c ****     }
 360:Source\mbedtls_open\library/rsa_internal.c **** 
 361:Source\mbedtls_open\library/rsa_internal.c ****     if( f_rng != NULL && Q != NULL &&
 950              		.loc 1 361 0
 951 003a 0F9B     		ldr	r3, [sp, #60]
 952 003c 002B     		cmp	r3, #0
 953 003e 09D0     		beq	.L52
 954              		.loc 1 361 0 is_stmt 0 discriminator 1
 955 0040 002D     		cmp	r5, #0
 956 0042 07D0     		beq	.L52
 957              		.loc 1 361 0 discriminator 2
 958 0044 109A     		ldr	r2, [sp, #64]
 959 0046 1900     		movs	r1, r3
 960 0048 2800     		movs	r0, r5
 961 004a FFF7FEFF 		bl	mbedtls_mpi_is_prime
 962              	.LVL174:
 963 004e 041E     		subs	r4, r0, #0
 964              	.LVL175:
 965 0050 00D0     		beq	.LCB1025
 966 0052 98E0     		b	.L59	@long jump
 967              	.LCB1025:
 968              	.LVL176:
 969              	.L52:
 362:Source\mbedtls_open\library/rsa_internal.c ****         ( ret = mbedtls_mpi_is_prime( Q, f_rng, p_rng ) ) != 0 )
 363:Source\mbedtls_open\library/rsa_internal.c ****     {
 364:Source\mbedtls_open\library/rsa_internal.c ****         ret = MBEDTLS_ERR_RSA_KEY_CHECK_FAILED;
 365:Source\mbedtls_open\library/rsa_internal.c ****         goto cleanup;
 366:Source\mbedtls_open\library/rsa_internal.c ****     }
 367:Source\mbedtls_open\library/rsa_internal.c **** #else
 368:Source\mbedtls_open\library/rsa_internal.c ****     ((void) f_rng);
 369:Source\mbedtls_open\library/rsa_internal.c ****     ((void) p_rng);
 370:Source\mbedtls_open\library/rsa_internal.c **** #endif /* MBEDTLS_GENPRIME */
 371:Source\mbedtls_open\library/rsa_internal.c **** 
 372:Source\mbedtls_open\library/rsa_internal.c ****     /*
 373:Source\mbedtls_open\library/rsa_internal.c ****      * Step 2: Check that 1 < N = P * Q
 374:Source\mbedtls_open\library/rsa_internal.c ****      */
 375:Source\mbedtls_open\library/rsa_internal.c **** 
ARM GAS  C:\Users\Phuong\AppData\Local\Temp\ccvjXtRI.s 			page 25


 376:Source\mbedtls_open\library/rsa_internal.c ****     if( P != NULL && Q != NULL && N != NULL )
 970              		.loc 1 376 0 is_stmt 1
 971 0054 002F     		cmp	r7, #0
 972 0056 19D0     		beq	.L53
 973              		.loc 1 376 0 is_stmt 0 discriminator 1
 974 0058 002D     		cmp	r5, #0
 975 005a 17D0     		beq	.L53
 976              		.loc 1 376 0 discriminator 2
 977 005c 002E     		cmp	r6, #0
 978 005e 15D0     		beq	.L53
 377:Source\mbedtls_open\library/rsa_internal.c ****     {
 378:Source\mbedtls_open\library/rsa_internal.c ****         MBEDTLS_MPI_CHK( mbedtls_mpi_mul_mpi( &K, P, Q ) );
 979              		.loc 1 378 0 is_stmt 1
 980 0060 2A00     		movs	r2, r5
 981 0062 3900     		movs	r1, r7
 982 0064 05A8     		add	r0, sp, #20
 983 0066 FFF7FEFF 		bl	mbedtls_mpi_mul_mpi
 984              	.LVL177:
 985 006a 041E     		subs	r4, r0, #0
 986              	.LVL178:
 987 006c 00D0     		beq	.LCB1046
 988 006e 9FE0     		b	.L51	@long jump
 989              	.LCB1046:
 379:Source\mbedtls_open\library/rsa_internal.c ****         if( mbedtls_mpi_cmp_int( N, 1 )  <= 0 ||
 990              		.loc 1 379 0
 991 0070 0121     		movs	r1, #1
 992 0072 3000     		movs	r0, r6
 993              	.LVL179:
 994 0074 FFF7FEFF 		bl	mbedtls_mpi_cmp_int
 995              	.LVL180:
 996 0078 0028     		cmp	r0, #0
 997 007a 00DC     		bgt	.LCB1053
 998 007c 85E0     		b	.L60	@long jump
 999              	.LCB1053:
 380:Source\mbedtls_open\library/rsa_internal.c ****             mbedtls_mpi_cmp_mpi( &K, N ) != 0 )
 1000              		.loc 1 380 0 discriminator 1
 1001 007e 3100     		movs	r1, r6
 1002 0080 05A8     		add	r0, sp, #20
 1003 0082 FFF7FEFF 		bl	mbedtls_mpi_cmp_mpi
 1004              	.LVL181:
 379:Source\mbedtls_open\library/rsa_internal.c ****         if( mbedtls_mpi_cmp_int( N, 1 )  <= 0 ||
 1005              		.loc 1 379 0 discriminator 1
 1006 0086 0028     		cmp	r0, #0
 1007 0088 00D0     		beq	.LCB1059
 1008 008a 80E0     		b	.L61	@long jump
 1009              	.LCB1059:
 1010              	.L53:
 381:Source\mbedtls_open\library/rsa_internal.c ****         {
 382:Source\mbedtls_open\library/rsa_internal.c ****             ret = MBEDTLS_ERR_RSA_KEY_CHECK_FAILED;
 383:Source\mbedtls_open\library/rsa_internal.c ****             goto cleanup;
 384:Source\mbedtls_open\library/rsa_internal.c ****         }
 385:Source\mbedtls_open\library/rsa_internal.c ****     }
 386:Source\mbedtls_open\library/rsa_internal.c **** 
 387:Source\mbedtls_open\library/rsa_internal.c ****     /*
 388:Source\mbedtls_open\library/rsa_internal.c ****      * Step 3: Check and 1 < D, E < N if present.
 389:Source\mbedtls_open\library/rsa_internal.c ****      */
 390:Source\mbedtls_open\library/rsa_internal.c **** 
ARM GAS  C:\Users\Phuong\AppData\Local\Temp\ccvjXtRI.s 			page 26


 391:Source\mbedtls_open\library/rsa_internal.c ****     if( N != NULL && D != NULL && E != NULL )
 1011              		.loc 1 391 0
 1012 008c 002E     		cmp	r6, #0
 1013 008e 1DD0     		beq	.L54
 1014              		.loc 1 391 0 is_stmt 0 discriminator 1
 1015 0090 019B     		ldr	r3, [sp, #4]
 1016 0092 002B     		cmp	r3, #0
 1017 0094 1AD0     		beq	.L54
 1018              		.loc 1 391 0 discriminator 2
 1019 0096 0E9A     		ldr	r2, [sp, #56]
 1020 0098 002A     		cmp	r2, #0
 1021 009a 17D0     		beq	.L54
 392:Source\mbedtls_open\library/rsa_internal.c ****     {
 393:Source\mbedtls_open\library/rsa_internal.c ****         if ( mbedtls_mpi_cmp_int( D, 1 ) <= 0 ||
 1022              		.loc 1 393 0 is_stmt 1
 1023 009c 0121     		movs	r1, #1
 1024 009e 1800     		movs	r0, r3
 1025 00a0 FFF7FEFF 		bl	mbedtls_mpi_cmp_int
 1026              	.LVL182:
 1027 00a4 0028     		cmp	r0, #0
 1028 00a6 74DD     		ble	.L62
 394:Source\mbedtls_open\library/rsa_internal.c ****              mbedtls_mpi_cmp_int( E, 1 ) <= 0 ||
 1029              		.loc 1 394 0 discriminator 1
 1030 00a8 0121     		movs	r1, #1
 1031 00aa 0E98     		ldr	r0, [sp, #56]
 1032 00ac FFF7FEFF 		bl	mbedtls_mpi_cmp_int
 1033              	.LVL183:
 393:Source\mbedtls_open\library/rsa_internal.c ****              mbedtls_mpi_cmp_int( E, 1 ) <= 0 ||
 1034              		.loc 1 393 0 discriminator 1
 1035 00b0 0028     		cmp	r0, #0
 1036 00b2 70DD     		ble	.L63
 395:Source\mbedtls_open\library/rsa_internal.c ****              mbedtls_mpi_cmp_mpi( D, N ) >= 0 ||
 1037              		.loc 1 395 0
 1038 00b4 3100     		movs	r1, r6
 1039 00b6 0198     		ldr	r0, [sp, #4]
 1040 00b8 FFF7FEFF 		bl	mbedtls_mpi_cmp_mpi
 1041              	.LVL184:
 394:Source\mbedtls_open\library/rsa_internal.c ****              mbedtls_mpi_cmp_int( E, 1 ) <= 0 ||
 1042              		.loc 1 394 0
 1043 00bc 0028     		cmp	r0, #0
 1044 00be 6CDA     		bge	.L64
 396:Source\mbedtls_open\library/rsa_internal.c ****              mbedtls_mpi_cmp_mpi( E, N ) >= 0 )
 1045              		.loc 1 396 0
 1046 00c0 3100     		movs	r1, r6
 1047 00c2 0E98     		ldr	r0, [sp, #56]
 1048 00c4 FFF7FEFF 		bl	mbedtls_mpi_cmp_mpi
 1049              	.LVL185:
 395:Source\mbedtls_open\library/rsa_internal.c ****              mbedtls_mpi_cmp_mpi( D, N ) >= 0 ||
 1050              		.loc 1 395 0
 1051 00c8 0028     		cmp	r0, #0
 1052 00ca 68DA     		bge	.L65
 1053              	.L54:
 397:Source\mbedtls_open\library/rsa_internal.c ****         {
 398:Source\mbedtls_open\library/rsa_internal.c ****             ret = MBEDTLS_ERR_RSA_KEY_CHECK_FAILED;
 399:Source\mbedtls_open\library/rsa_internal.c ****             goto cleanup;
 400:Source\mbedtls_open\library/rsa_internal.c ****         }
 401:Source\mbedtls_open\library/rsa_internal.c ****     }
ARM GAS  C:\Users\Phuong\AppData\Local\Temp\ccvjXtRI.s 			page 27


 402:Source\mbedtls_open\library/rsa_internal.c **** 
 403:Source\mbedtls_open\library/rsa_internal.c ****     /*
 404:Source\mbedtls_open\library/rsa_internal.c ****      * Step 4: Check that D, E are inverse modulo P-1 and Q-1
 405:Source\mbedtls_open\library/rsa_internal.c ****      */
 406:Source\mbedtls_open\library/rsa_internal.c **** 
 407:Source\mbedtls_open\library/rsa_internal.c ****     if( P != NULL && Q != NULL && D != NULL && E != NULL )
 1054              		.loc 1 407 0
 1055 00cc 002F     		cmp	r7, #0
 1056 00ce 6FD0     		beq	.L51
 1057              		.loc 1 407 0 is_stmt 0 discriminator 1
 1058 00d0 002D     		cmp	r5, #0
 1059 00d2 6DD0     		beq	.L51
 1060              		.loc 1 407 0 discriminator 2
 1061 00d4 019E     		ldr	r6, [sp, #4]
 1062              	.LVL186:
 1063 00d6 002E     		cmp	r6, #0
 1064 00d8 6AD0     		beq	.L51
 1065              		.loc 1 407 0 discriminator 3
 1066 00da 0E9B     		ldr	r3, [sp, #56]
 1067 00dc 002B     		cmp	r3, #0
 1068 00de 67D0     		beq	.L51
 408:Source\mbedtls_open\library/rsa_internal.c ****     {
 409:Source\mbedtls_open\library/rsa_internal.c ****         if( mbedtls_mpi_cmp_int( P, 1 ) <= 0 ||
 1069              		.loc 1 409 0 is_stmt 1
 1070 00e0 0121     		movs	r1, #1
 1071 00e2 3800     		movs	r0, r7
 1072 00e4 FFF7FEFF 		bl	mbedtls_mpi_cmp_int
 1073              	.LVL187:
 1074 00e8 0028     		cmp	r0, #0
 1075 00ea 5ADD     		ble	.L66
 410:Source\mbedtls_open\library/rsa_internal.c ****             mbedtls_mpi_cmp_int( Q, 1 ) <= 0 )
 1076              		.loc 1 410 0 discriminator 1
 1077 00ec 0121     		movs	r1, #1
 1078 00ee 2800     		movs	r0, r5
 1079 00f0 FFF7FEFF 		bl	mbedtls_mpi_cmp_int
 1080              	.LVL188:
 409:Source\mbedtls_open\library/rsa_internal.c ****             mbedtls_mpi_cmp_int( Q, 1 ) <= 0 )
 1081              		.loc 1 409 0 discriminator 1
 1082 00f4 0028     		cmp	r0, #0
 1083 00f6 56DD     		ble	.L67
 411:Source\mbedtls_open\library/rsa_internal.c ****         {
 412:Source\mbedtls_open\library/rsa_internal.c ****             ret = MBEDTLS_ERR_RSA_KEY_CHECK_FAILED;
 413:Source\mbedtls_open\library/rsa_internal.c ****             goto cleanup;
 414:Source\mbedtls_open\library/rsa_internal.c ****         }
 415:Source\mbedtls_open\library/rsa_internal.c **** 
 416:Source\mbedtls_open\library/rsa_internal.c ****         /* Compute DE-1 mod P-1 */
 417:Source\mbedtls_open\library/rsa_internal.c ****         MBEDTLS_MPI_CHK( mbedtls_mpi_mul_mpi( &K, D, E ) );
 1084              		.loc 1 417 0
 1085 00f8 0E9A     		ldr	r2, [sp, #56]
 1086 00fa 3100     		movs	r1, r6
 1087 00fc 05A8     		add	r0, sp, #20
 1088 00fe FFF7FEFF 		bl	mbedtls_mpi_mul_mpi
 1089              	.LVL189:
 1090 0102 041E     		subs	r4, r0, #0
 1091              	.LVL190:
 1092 0104 54D1     		bne	.L51
 418:Source\mbedtls_open\library/rsa_internal.c ****         MBEDTLS_MPI_CHK( mbedtls_mpi_sub_int( &K, &K, 1 ) );
ARM GAS  C:\Users\Phuong\AppData\Local\Temp\ccvjXtRI.s 			page 28


 1093              		.loc 1 418 0
 1094 0106 0122     		movs	r2, #1
 1095 0108 05A9     		add	r1, sp, #20
 1096 010a 0800     		movs	r0, r1
 1097              	.LVL191:
 1098 010c FFF7FEFF 		bl	mbedtls_mpi_sub_int
 1099              	.LVL192:
 1100 0110 041E     		subs	r4, r0, #0
 1101              	.LVL193:
 1102 0112 4DD1     		bne	.L51
 419:Source\mbedtls_open\library/rsa_internal.c ****         MBEDTLS_MPI_CHK( mbedtls_mpi_sub_int( &L, P, 1 ) );
 1103              		.loc 1 419 0
 1104 0114 0122     		movs	r2, #1
 1105 0116 3900     		movs	r1, r7
 1106 0118 02A8     		add	r0, sp, #8
 1107              	.LVL194:
 1108 011a FFF7FEFF 		bl	mbedtls_mpi_sub_int
 1109              	.LVL195:
 1110 011e 041E     		subs	r4, r0, #0
 1111              	.LVL196:
 1112 0120 46D1     		bne	.L51
 420:Source\mbedtls_open\library/rsa_internal.c ****         MBEDTLS_MPI_CHK( mbedtls_mpi_mod_mpi( &K, &K, &L ) );
 1113              		.loc 1 420 0
 1114 0122 02AA     		add	r2, sp, #8
 1115 0124 05A9     		add	r1, sp, #20
 1116 0126 0800     		movs	r0, r1
 1117              	.LVL197:
 1118 0128 FFF7FEFF 		bl	mbedtls_mpi_mod_mpi
 1119              	.LVL198:
 1120 012c 041E     		subs	r4, r0, #0
 1121              	.LVL199:
 1122 012e 3FD1     		bne	.L51
 421:Source\mbedtls_open\library/rsa_internal.c ****         if( mbedtls_mpi_cmp_int( &K, 0 ) != 0 )
 1123              		.loc 1 421 0
 1124 0130 0021     		movs	r1, #0
 1125 0132 05A8     		add	r0, sp, #20
 1126              	.LVL200:
 1127 0134 FFF7FEFF 		bl	mbedtls_mpi_cmp_int
 1128              	.LVL201:
 1129 0138 0028     		cmp	r0, #0
 1130 013a 36D1     		bne	.L68
 422:Source\mbedtls_open\library/rsa_internal.c ****         {
 423:Source\mbedtls_open\library/rsa_internal.c ****             ret = MBEDTLS_ERR_RSA_KEY_CHECK_FAILED;
 424:Source\mbedtls_open\library/rsa_internal.c ****             goto cleanup;
 425:Source\mbedtls_open\library/rsa_internal.c ****         }
 426:Source\mbedtls_open\library/rsa_internal.c **** 
 427:Source\mbedtls_open\library/rsa_internal.c ****         /* Compute DE-1 mod Q-1 */
 428:Source\mbedtls_open\library/rsa_internal.c ****         MBEDTLS_MPI_CHK( mbedtls_mpi_mul_mpi( &K, D, E ) );
 1131              		.loc 1 428 0
 1132 013c 0E9A     		ldr	r2, [sp, #56]
 1133 013e 0199     		ldr	r1, [sp, #4]
 1134 0140 05A8     		add	r0, sp, #20
 1135 0142 FFF7FEFF 		bl	mbedtls_mpi_mul_mpi
 1136              	.LVL202:
 1137 0146 041E     		subs	r4, r0, #0
 1138              	.LVL203:
 1139 0148 32D1     		bne	.L51
ARM GAS  C:\Users\Phuong\AppData\Local\Temp\ccvjXtRI.s 			page 29


 429:Source\mbedtls_open\library/rsa_internal.c ****         MBEDTLS_MPI_CHK( mbedtls_mpi_sub_int( &K, &K, 1 ) );
 1140              		.loc 1 429 0
 1141 014a 0122     		movs	r2, #1
 1142 014c 05A9     		add	r1, sp, #20
 1143 014e 0800     		movs	r0, r1
 1144              	.LVL204:
 1145 0150 FFF7FEFF 		bl	mbedtls_mpi_sub_int
 1146              	.LVL205:
 1147 0154 041E     		subs	r4, r0, #0
 1148              	.LVL206:
 1149 0156 2BD1     		bne	.L51
 430:Source\mbedtls_open\library/rsa_internal.c ****         MBEDTLS_MPI_CHK( mbedtls_mpi_sub_int( &L, Q, 1 ) );
 1150              		.loc 1 430 0
 1151 0158 0122     		movs	r2, #1
 1152 015a 2900     		movs	r1, r5
 1153 015c 02A8     		add	r0, sp, #8
 1154              	.LVL207:
 1155 015e FFF7FEFF 		bl	mbedtls_mpi_sub_int
 1156              	.LVL208:
 1157 0162 041E     		subs	r4, r0, #0
 1158              	.LVL209:
 1159 0164 24D1     		bne	.L51
 431:Source\mbedtls_open\library/rsa_internal.c ****         MBEDTLS_MPI_CHK( mbedtls_mpi_mod_mpi( &K, &K, &L ) );
 1160              		.loc 1 431 0
 1161 0166 02AA     		add	r2, sp, #8
 1162 0168 05A9     		add	r1, sp, #20
 1163 016a 0800     		movs	r0, r1
 1164              	.LVL210:
 1165 016c FFF7FEFF 		bl	mbedtls_mpi_mod_mpi
 1166              	.LVL211:
 1167 0170 041E     		subs	r4, r0, #0
 1168              	.LVL212:
 1169 0172 1DD1     		bne	.L51
 432:Source\mbedtls_open\library/rsa_internal.c ****         if( mbedtls_mpi_cmp_int( &K, 0 ) != 0 )
 1170              		.loc 1 432 0
 1171 0174 0021     		movs	r1, #0
 1172 0176 05A8     		add	r0, sp, #20
 1173              	.LVL213:
 1174 0178 FFF7FEFF 		bl	mbedtls_mpi_cmp_int
 1175              	.LVL214:
 1176 017c 0028     		cmp	r0, #0
 1177 017e 16D1     		bne	.L69
 1178 0180 16E0     		b	.L51
 1179              	.LVL215:
 1180              	.L58:
 357:Source\mbedtls_open\library/rsa_internal.c ****         goto cleanup;
 1181              		.loc 1 357 0
 1182 0182 134C     		ldr	r4, .L70
 1183 0184 14E0     		b	.L51
 1184              	.L59:
 364:Source\mbedtls_open\library/rsa_internal.c ****         goto cleanup;
 1185              		.loc 1 364 0
 1186 0186 124C     		ldr	r4, .L70
 1187 0188 12E0     		b	.L51
 1188              	.LVL216:
 1189              	.L60:
 382:Source\mbedtls_open\library/rsa_internal.c ****             goto cleanup;
ARM GAS  C:\Users\Phuong\AppData\Local\Temp\ccvjXtRI.s 			page 30


 1190              		.loc 1 382 0
 1191 018a 114C     		ldr	r4, .L70
 1192              	.LVL217:
 1193 018c 10E0     		b	.L51
 1194              	.LVL218:
 1195              	.L61:
 1196 018e 104C     		ldr	r4, .L70
 1197              	.LVL219:
 1198 0190 0EE0     		b	.L51
 1199              	.LVL220:
 1200              	.L62:
 398:Source\mbedtls_open\library/rsa_internal.c ****             goto cleanup;
 1201              		.loc 1 398 0
 1202 0192 0F4C     		ldr	r4, .L70
 1203              	.LVL221:
 1204 0194 0CE0     		b	.L51
 1205              	.LVL222:
 1206              	.L63:
 1207 0196 0E4C     		ldr	r4, .L70
 1208              	.LVL223:
 1209 0198 0AE0     		b	.L51
 1210              	.LVL224:
 1211              	.L64:
 1212 019a 0D4C     		ldr	r4, .L70
 1213              	.LVL225:
 1214 019c 08E0     		b	.L51
 1215              	.LVL226:
 1216              	.L65:
 1217 019e 0C4C     		ldr	r4, .L70
 1218              	.LVL227:
 1219 01a0 06E0     		b	.L51
 1220              	.LVL228:
 1221              	.L66:
 412:Source\mbedtls_open\library/rsa_internal.c ****             goto cleanup;
 1222              		.loc 1 412 0
 1223 01a2 0B4C     		ldr	r4, .L70
 1224              	.LVL229:
 1225 01a4 04E0     		b	.L51
 1226              	.LVL230:
 1227              	.L67:
 1228 01a6 0A4C     		ldr	r4, .L70
 1229              	.LVL231:
 1230 01a8 02E0     		b	.L51
 1231              	.LVL232:
 1232              	.L68:
 423:Source\mbedtls_open\library/rsa_internal.c ****             goto cleanup;
 1233              		.loc 1 423 0
 1234 01aa 094C     		ldr	r4, .L70
 1235              	.LVL233:
 1236 01ac 00E0     		b	.L51
 1237              	.LVL234:
 1238              	.L69:
 433:Source\mbedtls_open\library/rsa_internal.c ****         {
 434:Source\mbedtls_open\library/rsa_internal.c ****             ret = MBEDTLS_ERR_RSA_KEY_CHECK_FAILED;
 1239              		.loc 1 434 0
 1240 01ae 084C     		ldr	r4, .L70
 1241              	.LVL235:
ARM GAS  C:\Users\Phuong\AppData\Local\Temp\ccvjXtRI.s 			page 31


 1242              	.L51:
 435:Source\mbedtls_open\library/rsa_internal.c ****             goto cleanup;
 436:Source\mbedtls_open\library/rsa_internal.c ****         }
 437:Source\mbedtls_open\library/rsa_internal.c ****     }
 438:Source\mbedtls_open\library/rsa_internal.c **** 
 439:Source\mbedtls_open\library/rsa_internal.c **** cleanup:
 440:Source\mbedtls_open\library/rsa_internal.c **** 
 441:Source\mbedtls_open\library/rsa_internal.c ****     mbedtls_mpi_free( &K );
 1243              		.loc 1 441 0
 1244 01b0 05A8     		add	r0, sp, #20
 1245 01b2 FFF7FEFF 		bl	mbedtls_mpi_free
 1246              	.LVL236:
 442:Source\mbedtls_open\library/rsa_internal.c ****     mbedtls_mpi_free( &L );
 1247              		.loc 1 442 0
 1248 01b6 02A8     		add	r0, sp, #8
 1249 01b8 FFF7FEFF 		bl	mbedtls_mpi_free
 1250              	.LVL237:
 443:Source\mbedtls_open\library/rsa_internal.c **** 
 444:Source\mbedtls_open\library/rsa_internal.c ****     /* Wrap MPI error codes by RSA check failure error code */
 445:Source\mbedtls_open\library/rsa_internal.c ****     if( ret != 0 && ret != MBEDTLS_ERR_RSA_KEY_CHECK_FAILED )
 1251              		.loc 1 445 0
 1252 01bc 002C     		cmp	r4, #0
 1253 01be 04D0     		beq	.L55
 1254              		.loc 1 445 0 is_stmt 0 discriminator 1
 1255 01c0 034B     		ldr	r3, .L70
 1256 01c2 9C42     		cmp	r4, r3
 1257 01c4 01D0     		beq	.L55
 446:Source\mbedtls_open\library/rsa_internal.c ****     {
 447:Source\mbedtls_open\library/rsa_internal.c ****         ret += MBEDTLS_ERR_RSA_KEY_CHECK_FAILED;
 1258              		.loc 1 447 0 is_stmt 1
 1259 01c6 9C46     		mov	ip, r3
 1260 01c8 6444     		add	r4, r4, ip
 1261              	.LVL238:
 1262              	.L55:
 448:Source\mbedtls_open\library/rsa_internal.c ****     }
 449:Source\mbedtls_open\library/rsa_internal.c **** 
 450:Source\mbedtls_open\library/rsa_internal.c ****     return( ret );
 451:Source\mbedtls_open\library/rsa_internal.c **** }
 1263              		.loc 1 451 0
 1264 01ca 2000     		movs	r0, r4
 1265 01cc 09B0     		add	sp, sp, #36
 1266              		@ sp needed
 1267              	.LVL239:
 1268              	.LVL240:
 1269              	.LVL241:
 1270 01ce F0BD     		pop	{r4, r5, r6, r7, pc}
 1271              	.L71:
 1272              		.align	2
 1273              	.L70:
 1274 01d0 00BEFFFF 		.word	-16896
 1275              		.cfi_endproc
 1276              	.LFE3:
 1277              		.size	mbedtls_rsa_validate_params, .-mbedtls_rsa_validate_params
 1278              		.section	.text.mbedtls_rsa_deduce_crt,"ax",%progbits
 1279              		.align	2
 1280              		.global	mbedtls_rsa_deduce_crt
 1281              		.code	16
ARM GAS  C:\Users\Phuong\AppData\Local\Temp\ccvjXtRI.s 			page 32


 1282              		.thumb_func
 1283              		.type	mbedtls_rsa_deduce_crt, %function
 1284              	mbedtls_rsa_deduce_crt:
 1285              	.LFB4:
 452:Source\mbedtls_open\library/rsa_internal.c **** 
 453:Source\mbedtls_open\library/rsa_internal.c **** int mbedtls_rsa_deduce_crt( const mbedtls_mpi *P, const mbedtls_mpi *Q,
 454:Source\mbedtls_open\library/rsa_internal.c ****                             const mbedtls_mpi *D, mbedtls_mpi *DP,
 455:Source\mbedtls_open\library/rsa_internal.c ****                             mbedtls_mpi *DQ, mbedtls_mpi *QP )
 456:Source\mbedtls_open\library/rsa_internal.c **** {
 1286              		.loc 1 456 0
 1287              		.cfi_startproc
 1288              		@ args = 8, pretend = 0, frame = 24
 1289              		@ frame_needed = 0, uses_anonymous_args = 0
 1290              	.LVL242:
 1291 0000 F0B5     		push	{r4, r5, r6, r7, lr}
 1292              		.cfi_def_cfa_offset 20
 1293              		.cfi_offset 4, -20
 1294              		.cfi_offset 5, -16
 1295              		.cfi_offset 6, -12
 1296              		.cfi_offset 7, -8
 1297              		.cfi_offset 14, -4
 1298 0002 87B0     		sub	sp, sp, #28
 1299              		.cfi_def_cfa_offset 48
 1300 0004 0500     		movs	r5, r0
 1301 0006 0E00     		movs	r6, r1
 1302 0008 0192     		str	r2, [sp, #4]
 1303 000a 1F00     		movs	r7, r3
 1304              	.LVL243:
 457:Source\mbedtls_open\library/rsa_internal.c ****     int ret = 0;
 458:Source\mbedtls_open\library/rsa_internal.c ****     mbedtls_mpi K;
 459:Source\mbedtls_open\library/rsa_internal.c ****     mbedtls_mpi_init( &K );
 1305              		.loc 1 459 0
 1306 000c 03A8     		add	r0, sp, #12
 1307              	.LVL244:
 1308 000e FFF7FEFF 		bl	mbedtls_mpi_init
 1309              	.LVL245:
 460:Source\mbedtls_open\library/rsa_internal.c **** 
 461:Source\mbedtls_open\library/rsa_internal.c ****     /* DP = D mod P-1 */
 462:Source\mbedtls_open\library/rsa_internal.c ****     if( DP != NULL )
 1310              		.loc 1 462 0
 1311 0012 002F     		cmp	r7, #0
 1312 0014 0ED0     		beq	.L76
 463:Source\mbedtls_open\library/rsa_internal.c ****     {
 464:Source\mbedtls_open\library/rsa_internal.c ****         MBEDTLS_MPI_CHK( mbedtls_mpi_sub_int( &K, P, 1  ) );
 1313              		.loc 1 464 0
 1314 0016 0122     		movs	r2, #1
 1315 0018 2900     		movs	r1, r5
 1316 001a 03A8     		add	r0, sp, #12
 1317 001c FFF7FEFF 		bl	mbedtls_mpi_sub_int
 1318              	.LVL246:
 1319 0020 041E     		subs	r4, r0, #0
 1320              	.LVL247:
 1321 0022 22D1     		bne	.L74
 465:Source\mbedtls_open\library/rsa_internal.c ****         MBEDTLS_MPI_CHK( mbedtls_mpi_mod_mpi( DP, D, &K ) );
 1322              		.loc 1 465 0
 1323 0024 03AA     		add	r2, sp, #12
 1324 0026 0199     		ldr	r1, [sp, #4]
ARM GAS  C:\Users\Phuong\AppData\Local\Temp\ccvjXtRI.s 			page 33


 1325 0028 3800     		movs	r0, r7
 1326              	.LVL248:
 1327 002a FFF7FEFF 		bl	mbedtls_mpi_mod_mpi
 1328              	.LVL249:
 1329 002e 041E     		subs	r4, r0, #0
 1330              	.LVL250:
 1331 0030 01D0     		beq	.L73
 1332 0032 1AE0     		b	.L74
 1333              	.LVL251:
 1334              	.L76:
 457:Source\mbedtls_open\library/rsa_internal.c ****     mbedtls_mpi K;
 1335              		.loc 1 457 0
 1336 0034 0024     		movs	r4, #0
 1337              	.LVL252:
 1338              	.L73:
 466:Source\mbedtls_open\library/rsa_internal.c ****     }
 467:Source\mbedtls_open\library/rsa_internal.c **** 
 468:Source\mbedtls_open\library/rsa_internal.c ****     /* DQ = D mod Q-1 */
 469:Source\mbedtls_open\library/rsa_internal.c ****     if( DQ != NULL )
 1339              		.loc 1 469 0
 1340 0036 0C9B     		ldr	r3, [sp, #48]
 1341 0038 002B     		cmp	r3, #0
 1342 003a 0DD0     		beq	.L75
 470:Source\mbedtls_open\library/rsa_internal.c ****     {
 471:Source\mbedtls_open\library/rsa_internal.c ****         MBEDTLS_MPI_CHK( mbedtls_mpi_sub_int( &K, Q, 1  ) );
 1343              		.loc 1 471 0
 1344 003c 0122     		movs	r2, #1
 1345 003e 3100     		movs	r1, r6
 1346 0040 03A8     		add	r0, sp, #12
 1347 0042 FFF7FEFF 		bl	mbedtls_mpi_sub_int
 1348              	.LVL253:
 1349 0046 041E     		subs	r4, r0, #0
 1350              	.LVL254:
 1351 0048 0FD1     		bne	.L74
 472:Source\mbedtls_open\library/rsa_internal.c ****         MBEDTLS_MPI_CHK( mbedtls_mpi_mod_mpi( DQ, D, &K ) );
 1352              		.loc 1 472 0
 1353 004a 03AA     		add	r2, sp, #12
 1354 004c 0199     		ldr	r1, [sp, #4]
 1355 004e 0C98     		ldr	r0, [sp, #48]
 1356              	.LVL255:
 1357 0050 FFF7FEFF 		bl	mbedtls_mpi_mod_mpi
 1358              	.LVL256:
 1359 0054 041E     		subs	r4, r0, #0
 1360              	.LVL257:
 1361 0056 08D1     		bne	.L74
 1362              	.LVL258:
 1363              	.L75:
 473:Source\mbedtls_open\library/rsa_internal.c ****     }
 474:Source\mbedtls_open\library/rsa_internal.c **** 
 475:Source\mbedtls_open\library/rsa_internal.c ****     /* QP = Q^{-1} mod P */
 476:Source\mbedtls_open\library/rsa_internal.c ****     if( QP != NULL )
 1364              		.loc 1 476 0
 1365 0058 0D9B     		ldr	r3, [sp, #52]
 1366 005a 002B     		cmp	r3, #0
 1367 005c 05D0     		beq	.L74
 477:Source\mbedtls_open\library/rsa_internal.c ****     {
 478:Source\mbedtls_open\library/rsa_internal.c ****         MBEDTLS_MPI_CHK( mbedtls_mpi_inv_mod( QP, Q, P ) );
ARM GAS  C:\Users\Phuong\AppData\Local\Temp\ccvjXtRI.s 			page 34


 1368              		.loc 1 478 0
 1369 005e 2A00     		movs	r2, r5
 1370 0060 3100     		movs	r1, r6
 1371 0062 1800     		movs	r0, r3
 1372 0064 FFF7FEFF 		bl	mbedtls_mpi_inv_mod
 1373              	.LVL259:
 1374 0068 0400     		movs	r4, r0
 1375              	.LVL260:
 1376              	.L74:
 479:Source\mbedtls_open\library/rsa_internal.c ****     }
 480:Source\mbedtls_open\library/rsa_internal.c **** 
 481:Source\mbedtls_open\library/rsa_internal.c **** cleanup:
 482:Source\mbedtls_open\library/rsa_internal.c ****     mbedtls_mpi_free( &K );
 1377              		.loc 1 482 0
 1378 006a 03A8     		add	r0, sp, #12
 1379 006c FFF7FEFF 		bl	mbedtls_mpi_free
 1380              	.LVL261:
 483:Source\mbedtls_open\library/rsa_internal.c **** 
 484:Source\mbedtls_open\library/rsa_internal.c ****     return( ret );
 485:Source\mbedtls_open\library/rsa_internal.c **** }
 1381              		.loc 1 485 0
 1382 0070 2000     		movs	r0, r4
 1383 0072 07B0     		add	sp, sp, #28
 1384              		@ sp needed
 1385              	.LVL262:
 1386              	.LVL263:
 1387              	.LVL264:
 1388              	.LVL265:
 1389 0074 F0BD     		pop	{r4, r5, r6, r7, pc}
 1390              		.cfi_endproc
 1391              	.LFE4:
 1392              		.size	mbedtls_rsa_deduce_crt, .-mbedtls_rsa_deduce_crt
 1393 0076 C046     		.section	.rodata
 1394              		.align	2
 1395              		.set	.LANCHOR0,. + 0
 1396              	.LC0:
 1397 0000 02       		.byte	2
 1398 0001 03       		.byte	3
 1399 0002 05       		.byte	5
 1400 0003 07       		.byte	7
 1401 0004 0B       		.byte	11
 1402 0005 0D       		.byte	13
 1403 0006 11       		.byte	17
 1404 0007 13       		.byte	19
 1405 0008 17       		.byte	23
 1406 0009 1D       		.byte	29
 1407 000a 1F       		.byte	31
 1408 000b 25       		.byte	37
 1409 000c 29       		.byte	41
 1410 000d 2B       		.byte	43
 1411 000e 2F       		.byte	47
 1412 000f 35       		.byte	53
 1413 0010 3B       		.byte	59
 1414 0011 3D       		.byte	61
 1415 0012 43       		.byte	67
 1416 0013 47       		.byte	71
 1417 0014 49       		.byte	73
ARM GAS  C:\Users\Phuong\AppData\Local\Temp\ccvjXtRI.s 			page 35


 1418 0015 4F       		.byte	79
 1419 0016 53       		.byte	83
 1420 0017 59       		.byte	89
 1421 0018 61       		.byte	97
 1422 0019 65       		.byte	101
 1423 001a 67       		.byte	103
 1424 001b 6B       		.byte	107
 1425 001c 6D       		.byte	109
 1426 001d 71       		.byte	113
 1427 001e 7F       		.byte	127
 1428 001f 83       		.byte	-125
 1429 0020 89       		.byte	-119
 1430 0021 8B       		.byte	-117
 1431 0022 95       		.byte	-107
 1432 0023 97       		.byte	-105
 1433 0024 9D       		.byte	-99
 1434 0025 A3       		.byte	-93
 1435 0026 A7       		.byte	-89
 1436 0027 AD       		.byte	-83
 1437 0028 B3       		.byte	-77
 1438 0029 B5       		.byte	-75
 1439 002a BF       		.byte	-65
 1440 002b C1       		.byte	-63
 1441 002c C5       		.byte	-59
 1442 002d C7       		.byte	-57
 1443 002e D3       		.byte	-45
 1444 002f DF       		.byte	-33
 1445 0030 E3       		.byte	-29
 1446 0031 E5       		.byte	-27
 1447 0032 E9       		.byte	-23
 1448 0033 EF       		.byte	-17
 1449 0034 F1       		.byte	-15
 1450 0035 FB       		.byte	-5
 1451              		.text
 1452              	.Letext0:
 1453              		.file 2 "c:\\program files (x86)\\cypress\\psoc creator\\4.2\\psoc creator\\import\\gnu\\arm\\5.4.
 1454              		.file 3 "c:\\program files (x86)\\cypress\\psoc creator\\4.2\\psoc creator\\import\\gnu\\arm\\5.4.
 1455              		.file 4 "c:\\program files (x86)\\cypress\\psoc creator\\4.2\\psoc creator\\import\\gnu\\arm\\5.4.
 1456              		.file 5 ".\\Source\\mbedtls_open\\include/mbedtls/bignum.h"