ARM GAS  C:\Users\Phuong\AppData\Local\Temp\ccWyCnB1.s 			page 1


   1              		.syntax unified
   2              		.cpu cortex-m0plus
   3              		.fpu softvfp
   4              		.eabi_attribute 20, 1
   5              		.eabi_attribute 21, 1
   6              		.eabi_attribute 23, 3
   7              		.eabi_attribute 24, 1
   8              		.eabi_attribute 25, 1
   9              		.eabi_attribute 26, 1
  10              		.eabi_attribute 30, 1
  11              		.eabi_attribute 34, 0
  12              		.eabi_attribute 18, 4
  13              		.thumb
  14              		.syntax unified
  15              		.file	"sasl_frame_codec.c"
  16              		.text
  17              	.Ltext0:
  18              		.cfi_sections	.debug_frame
  19              		.section	.text.frame_received,"ax",%progbits
  20              		.align	2
  21              		.code	16
  22              		.thumb_func
  23              		.type	frame_received, %function
  24              	frame_received:
  25              	.LFB2:
  26              		.file 1 "Source\\azure_iot_sdk\\uamqp\\src\\sasl_frame_codec.c"
   1:Source\azure_iot_sdk\uamqp\src/sasl_frame_codec.c **** // Copyright (c) Microsoft. All rights reserved.
   2:Source\azure_iot_sdk\uamqp\src/sasl_frame_codec.c **** // Licensed under the MIT license. See LICENSE file in the project root for full license informatio
   3:Source\azure_iot_sdk\uamqp\src/sasl_frame_codec.c **** 
   4:Source\azure_iot_sdk\uamqp\src/sasl_frame_codec.c **** #include <stdlib.h>
   5:Source\azure_iot_sdk\uamqp\src/sasl_frame_codec.c **** #include <stdint.h>
   6:Source\azure_iot_sdk\uamqp\src/sasl_frame_codec.c **** #include <stddef.h>
   7:Source\azure_iot_sdk\uamqp\src/sasl_frame_codec.c **** #include <string.h>
   8:Source\azure_iot_sdk\uamqp\src/sasl_frame_codec.c **** #include "azure_c_shared_utility/gballoc.h"
   9:Source\azure_iot_sdk\uamqp\src/sasl_frame_codec.c **** #include "azure_c_shared_utility/optimize_size.h"
  10:Source\azure_iot_sdk\uamqp\src/sasl_frame_codec.c **** #include "azure_c_shared_utility/xlogging.h"
  11:Source\azure_iot_sdk\uamqp\src/sasl_frame_codec.c **** #include "azure_uamqp_c/sasl_frame_codec.h"
  12:Source\azure_iot_sdk\uamqp\src/sasl_frame_codec.c **** #include "azure_uamqp_c/frame_codec.h"
  13:Source\azure_iot_sdk\uamqp\src/sasl_frame_codec.c **** #include "azure_uamqp_c/amqpvalue.h"
  14:Source\azure_iot_sdk\uamqp\src/sasl_frame_codec.c **** #include "azure_uamqp_c/amqp_definitions.h"
  15:Source\azure_iot_sdk\uamqp\src/sasl_frame_codec.c **** 
  16:Source\azure_iot_sdk\uamqp\src/sasl_frame_codec.c **** /* Requirements implemented by design or by other modules */
  17:Source\azure_iot_sdk\uamqp\src/sasl_frame_codec.c **** /* Codes_SRS_SASL_FRAME_CODEC_01_011: [A SASL frame has a type code of 0x01.] */
  18:Source\azure_iot_sdk\uamqp\src/sasl_frame_codec.c **** /* Codes_SRS_SASL_FRAME_CODEC_01_016: [The maximum size of a SASL frame is defined by MIN-MAX-FRAME
  19:Source\azure_iot_sdk\uamqp\src/sasl_frame_codec.c **** 
  20:Source\azure_iot_sdk\uamqp\src/sasl_frame_codec.c **** #define MIX_MAX_FRAME_SIZE 512
  21:Source\azure_iot_sdk\uamqp\src/sasl_frame_codec.c **** 
  22:Source\azure_iot_sdk\uamqp\src/sasl_frame_codec.c **** typedef enum SASL_FRAME_DECODE_STATE_TAG
  23:Source\azure_iot_sdk\uamqp\src/sasl_frame_codec.c **** {
  24:Source\azure_iot_sdk\uamqp\src/sasl_frame_codec.c ****     SASL_FRAME_DECODE_FRAME,
  25:Source\azure_iot_sdk\uamqp\src/sasl_frame_codec.c ****     SASL_FRAME_DECODE_ERROR
  26:Source\azure_iot_sdk\uamqp\src/sasl_frame_codec.c **** } SASL_FRAME_DECODE_STATE;
  27:Source\azure_iot_sdk\uamqp\src/sasl_frame_codec.c **** 
  28:Source\azure_iot_sdk\uamqp\src/sasl_frame_codec.c **** typedef struct SASL_FRAME_CODEC_INSTANCE_TAG
  29:Source\azure_iot_sdk\uamqp\src/sasl_frame_codec.c **** {
  30:Source\azure_iot_sdk\uamqp\src/sasl_frame_codec.c ****     FRAME_CODEC_HANDLE frame_codec;
  31:Source\azure_iot_sdk\uamqp\src/sasl_frame_codec.c **** 
ARM GAS  C:\Users\Phuong\AppData\Local\Temp\ccWyCnB1.s 			page 2


  32:Source\azure_iot_sdk\uamqp\src/sasl_frame_codec.c ****     /* decode */
  33:Source\azure_iot_sdk\uamqp\src/sasl_frame_codec.c ****     ON_SASL_FRAME_RECEIVED on_sasl_frame_received;
  34:Source\azure_iot_sdk\uamqp\src/sasl_frame_codec.c ****     ON_SASL_FRAME_CODEC_ERROR on_sasl_frame_codec_error;
  35:Source\azure_iot_sdk\uamqp\src/sasl_frame_codec.c ****     void* callback_context;
  36:Source\azure_iot_sdk\uamqp\src/sasl_frame_codec.c ****     AMQPVALUE_DECODER_HANDLE decoder;
  37:Source\azure_iot_sdk\uamqp\src/sasl_frame_codec.c ****     SASL_FRAME_DECODE_STATE decode_state;
  38:Source\azure_iot_sdk\uamqp\src/sasl_frame_codec.c ****     AMQP_VALUE decoded_sasl_frame_value;
  39:Source\azure_iot_sdk\uamqp\src/sasl_frame_codec.c **** } SASL_FRAME_CODEC_INSTANCE;
  40:Source\azure_iot_sdk\uamqp\src/sasl_frame_codec.c **** 
  41:Source\azure_iot_sdk\uamqp\src/sasl_frame_codec.c **** static void amqp_value_decoded(void* context, AMQP_VALUE decoded_value)
  42:Source\azure_iot_sdk\uamqp\src/sasl_frame_codec.c **** {
  43:Source\azure_iot_sdk\uamqp\src/sasl_frame_codec.c ****     SASL_FRAME_CODEC_INSTANCE* sasl_frame_codec_instance = (SASL_FRAME_CODEC_INSTANCE*)context;
  44:Source\azure_iot_sdk\uamqp\src/sasl_frame_codec.c ****     AMQP_VALUE descriptor = amqpvalue_get_inplace_descriptor(decoded_value);
  45:Source\azure_iot_sdk\uamqp\src/sasl_frame_codec.c **** 
  46:Source\azure_iot_sdk\uamqp\src/sasl_frame_codec.c ****     if (descriptor == NULL)
  47:Source\azure_iot_sdk\uamqp\src/sasl_frame_codec.c ****     {
  48:Source\azure_iot_sdk\uamqp\src/sasl_frame_codec.c ****         LogError("Cannot get frame descriptor");
  49:Source\azure_iot_sdk\uamqp\src/sasl_frame_codec.c ****         sasl_frame_codec_instance->decode_state = SASL_FRAME_DECODE_ERROR;
  50:Source\azure_iot_sdk\uamqp\src/sasl_frame_codec.c **** 
  51:Source\azure_iot_sdk\uamqp\src/sasl_frame_codec.c ****         /* Codes_SRS_SASL_FRAME_CODEC_01_049: [If any error occurs while decoding a frame, the deco
  52:Source\azure_iot_sdk\uamqp\src/sasl_frame_codec.c ****         sasl_frame_codec_instance->on_sasl_frame_codec_error(sasl_frame_codec_instance->callback_co
  53:Source\azure_iot_sdk\uamqp\src/sasl_frame_codec.c ****     }
  54:Source\azure_iot_sdk\uamqp\src/sasl_frame_codec.c ****     else
  55:Source\azure_iot_sdk\uamqp\src/sasl_frame_codec.c ****     {
  56:Source\azure_iot_sdk\uamqp\src/sasl_frame_codec.c ****         /* Codes_SRS_SASL_FRAME_CODEC_01_009: [The frame body of a SASL frame MUST contain exactly 
  57:Source\azure_iot_sdk\uamqp\src/sasl_frame_codec.c ****         if (!is_sasl_mechanisms_type_by_descriptor(descriptor) &&
  58:Source\azure_iot_sdk\uamqp\src/sasl_frame_codec.c ****             !is_sasl_init_type_by_descriptor(descriptor) &&
  59:Source\azure_iot_sdk\uamqp\src/sasl_frame_codec.c ****             !is_sasl_challenge_type_by_descriptor(descriptor) &&
  60:Source\azure_iot_sdk\uamqp\src/sasl_frame_codec.c ****             !is_sasl_response_type_by_descriptor(descriptor) &&
  61:Source\azure_iot_sdk\uamqp\src/sasl_frame_codec.c ****             !is_sasl_outcome_type_by_descriptor(descriptor))
  62:Source\azure_iot_sdk\uamqp\src/sasl_frame_codec.c ****         {
  63:Source\azure_iot_sdk\uamqp\src/sasl_frame_codec.c ****             LogError("Not a SASL frame");
  64:Source\azure_iot_sdk\uamqp\src/sasl_frame_codec.c ****             sasl_frame_codec_instance->decode_state = SASL_FRAME_DECODE_ERROR;
  65:Source\azure_iot_sdk\uamqp\src/sasl_frame_codec.c **** 
  66:Source\azure_iot_sdk\uamqp\src/sasl_frame_codec.c ****             /* Codes_SRS_SASL_FRAME_CODEC_01_049: [If any error occurs while decoding a frame, the 
  67:Source\azure_iot_sdk\uamqp\src/sasl_frame_codec.c ****             sasl_frame_codec_instance->on_sasl_frame_codec_error(sasl_frame_codec_instance->callbac
  68:Source\azure_iot_sdk\uamqp\src/sasl_frame_codec.c ****         }
  69:Source\azure_iot_sdk\uamqp\src/sasl_frame_codec.c ****         else
  70:Source\azure_iot_sdk\uamqp\src/sasl_frame_codec.c ****         {
  71:Source\azure_iot_sdk\uamqp\src/sasl_frame_codec.c ****             sasl_frame_codec_instance->decoded_sasl_frame_value = decoded_value;
  72:Source\azure_iot_sdk\uamqp\src/sasl_frame_codec.c ****         }
  73:Source\azure_iot_sdk\uamqp\src/sasl_frame_codec.c ****     }
  74:Source\azure_iot_sdk\uamqp\src/sasl_frame_codec.c **** }
  75:Source\azure_iot_sdk\uamqp\src/sasl_frame_codec.c **** 
  76:Source\azure_iot_sdk\uamqp\src/sasl_frame_codec.c **** static void frame_received(void* context, const unsigned char* type_specific, uint32_t type_specifi
  77:Source\azure_iot_sdk\uamqp\src/sasl_frame_codec.c **** {
  27              		.loc 1 77 0
  28              		.cfi_startproc
  29              		@ args = 4, pretend = 0, frame = 0
  30              		@ frame_needed = 0, uses_anonymous_args = 0
  31              	.LVL0:
  32 0000 F0B5     		push	{r4, r5, r6, r7, lr}
  33              		.cfi_def_cfa_offset 20
  34              		.cfi_offset 4, -20
  35              		.cfi_offset 5, -16
  36              		.cfi_offset 6, -12
  37              		.cfi_offset 7, -8
ARM GAS  C:\Users\Phuong\AppData\Local\Temp\ccWyCnB1.s 			page 3


  38              		.cfi_offset 14, -4
  39 0002 83B0     		sub	sp, sp, #12
  40              		.cfi_def_cfa_offset 32
  41 0004 0400     		movs	r4, r0
  42 0006 1E00     		movs	r6, r3
  43 0008 089D     		ldr	r5, [sp, #32]
  44              	.LVL1:
  78:Source\azure_iot_sdk\uamqp\src/sasl_frame_codec.c ****     SASL_FRAME_CODEC_INSTANCE* sasl_frame_codec_instance = (SASL_FRAME_CODEC_INSTANCE*)context;
  79:Source\azure_iot_sdk\uamqp\src/sasl_frame_codec.c **** 
  80:Source\azure_iot_sdk\uamqp\src/sasl_frame_codec.c ****     /* Codes_SRS_SASL_FRAME_CODEC_01_006: [Bytes 6 and 7 of the header are ignored.] */
  81:Source\azure_iot_sdk\uamqp\src/sasl_frame_codec.c ****     (void)type_specific;
  82:Source\azure_iot_sdk\uamqp\src/sasl_frame_codec.c ****     /* Codes_SRS_SASL_FRAME_CODEC_01_007: [The extended header is ignored.] */
  83:Source\azure_iot_sdk\uamqp\src/sasl_frame_codec.c **** 
  84:Source\azure_iot_sdk\uamqp\src/sasl_frame_codec.c ****     /* Codes_SRS_SASL_FRAME_CODEC_01_008: [The maximum size of a SASL frame is defined by MIN-MAX-F
  85:Source\azure_iot_sdk\uamqp\src/sasl_frame_codec.c ****     if ((type_specific_size + frame_body_size + 6 > MIX_MAX_FRAME_SIZE) ||
  45              		.loc 1 85 0
  46 000a 5219     		adds	r2, r2, r5
  47              	.LVL2:
  48 000c 0632     		adds	r2, r2, #6
  49 000e 8023     		movs	r3, #128
  50              	.LVL3:
  51 0010 9B00     		lsls	r3, r3, #2
  52 0012 9A42     		cmp	r2, r3
  53 0014 01D8     		bhi	.L2
  54              		.loc 1 85 0 is_stmt 0 discriminator 1
  55 0016 002D     		cmp	r5, #0
  56 0018 10D1     		bne	.L3
  57              	.L2:
  58              	.LBB2:
  86:Source\azure_iot_sdk\uamqp\src/sasl_frame_codec.c ****         /* Codes_SRS_SASL_FRAME_CODEC_01_010: [Receipt of an empty frame is an irrecoverable error.
  87:Source\azure_iot_sdk\uamqp\src/sasl_frame_codec.c ****         (frame_body_size == 0))
  88:Source\azure_iot_sdk\uamqp\src/sasl_frame_codec.c ****     {
  89:Source\azure_iot_sdk\uamqp\src/sasl_frame_codec.c ****         LogError("Bad SASL frame size");
  59              		.loc 1 89 0 is_stmt 1 discriminator 3
  60 001a FFF7FEFF 		bl	xlogging_get_log_function
  61              	.LVL4:
  62 001e 051E     		subs	r5, r0, #0
  63              	.LVL5:
  64 0020 08D0     		beq	.L4
  65              		.loc 1 89 0 is_stmt 0 discriminator 4
  66 0022 284B     		ldr	r3, .L15
  67 0024 0193     		str	r3, [sp, #4]
  68 0026 0123     		movs	r3, #1
  69 0028 0093     		str	r3, [sp]
  70 002a 5833     		adds	r3, r3, #88
  71 002c 264A     		ldr	r2, .L15+4
  72 002e 2749     		ldr	r1, .L15+8
  73 0030 0020     		movs	r0, #0
  74              	.LVL6:
  75 0032 A847     		blx	r5
  76              	.LVL7:
  77              	.L4:
  78              	.LBE2:
  90:Source\azure_iot_sdk\uamqp\src/sasl_frame_codec.c **** 
  91:Source\azure_iot_sdk\uamqp\src/sasl_frame_codec.c ****         /* Codes_SRS_SASL_FRAME_CODEC_01_049: [If any error occurs while decoding a frame, the deco
  92:Source\azure_iot_sdk\uamqp\src/sasl_frame_codec.c ****         sasl_frame_codec_instance->on_sasl_frame_codec_error(sasl_frame_codec_instance->callback_co
  79              		.loc 1 92 0 is_stmt 1
ARM GAS  C:\Users\Phuong\AppData\Local\Temp\ccWyCnB1.s 			page 4


  80 0034 A368     		ldr	r3, [r4, #8]
  81 0036 E068     		ldr	r0, [r4, #12]
  82 0038 9847     		blx	r3
  83              	.LVL8:
  84 003a 40E0     		b	.L1
  85              	.LVL9:
  86              	.L3:
  93:Source\azure_iot_sdk\uamqp\src/sasl_frame_codec.c ****     }
  94:Source\azure_iot_sdk\uamqp\src/sasl_frame_codec.c ****     else
  95:Source\azure_iot_sdk\uamqp\src/sasl_frame_codec.c ****     {
  96:Source\azure_iot_sdk\uamqp\src/sasl_frame_codec.c ****         switch (sasl_frame_codec_instance->decode_state)
  87              		.loc 1 96 0
  88 003c 037D     		ldrb	r3, [r0, #20]
  89 003e 002B     		cmp	r3, #0
  90 0040 3DD1     		bne	.L1
  97:Source\azure_iot_sdk\uamqp\src/sasl_frame_codec.c ****         {
  98:Source\azure_iot_sdk\uamqp\src/sasl_frame_codec.c ****         default:
  99:Source\azure_iot_sdk\uamqp\src/sasl_frame_codec.c ****         case SASL_FRAME_DECODE_ERROR:
 100:Source\azure_iot_sdk\uamqp\src/sasl_frame_codec.c ****             break;
 101:Source\azure_iot_sdk\uamqp\src/sasl_frame_codec.c **** 
 102:Source\azure_iot_sdk\uamqp\src/sasl_frame_codec.c ****         case SASL_FRAME_DECODE_FRAME:
 103:Source\azure_iot_sdk\uamqp\src/sasl_frame_codec.c ****             sasl_frame_codec_instance->decoded_sasl_frame_value = NULL;
  91              		.loc 1 103 0
  92 0042 8361     		str	r3, [r0, #24]
 104:Source\azure_iot_sdk\uamqp\src/sasl_frame_codec.c **** 
 105:Source\azure_iot_sdk\uamqp\src/sasl_frame_codec.c ****             /* Codes_SRS_SASL_FRAME_CODEC_01_039: [sasl_frame_codec shall decode the sasl-frame val
 106:Source\azure_iot_sdk\uamqp\src/sasl_frame_codec.c ****             /* Codes_SRS_SASL_FRAME_CODEC_01_048: [Receipt of an empty frame is an irrecoverable er
 107:Source\azure_iot_sdk\uamqp\src/sasl_frame_codec.c ****             while ((frame_body_size > 0) &&
  93              		.loc 1 107 0
  94 0044 18E0     		b	.L7
  95              	.LVL10:
  96              	.L12:
 108:Source\azure_iot_sdk\uamqp\src/sasl_frame_codec.c ****                 (sasl_frame_codec_instance->decoded_sasl_frame_value == NULL) &&
 109:Source\azure_iot_sdk\uamqp\src/sasl_frame_codec.c ****                 (sasl_frame_codec_instance->decode_state != SASL_FRAME_DECODE_ERROR))
 110:Source\azure_iot_sdk\uamqp\src/sasl_frame_codec.c ****             {
 111:Source\azure_iot_sdk\uamqp\src/sasl_frame_codec.c ****                 /* Codes_SRS_SASL_FRAME_CODEC_01_040: [Decoding the sasl-frame type shall be done b
 112:Source\azure_iot_sdk\uamqp\src/sasl_frame_codec.c ****                 if (amqpvalue_decode_bytes(sasl_frame_codec_instance->decoder, frame_body, 1) != 0)
  97              		.loc 1 112 0
  98 0046 0122     		movs	r2, #1
  99 0048 3100     		movs	r1, r6
 100 004a 2069     		ldr	r0, [r4, #16]
 101 004c FFF7FEFF 		bl	amqpvalue_decode_bytes
 102              	.LVL11:
 103 0050 0028     		cmp	r0, #0
 104 0052 0FD0     		beq	.L8
 105              	.LBB3:
 113:Source\azure_iot_sdk\uamqp\src/sasl_frame_codec.c ****                 {
 114:Source\azure_iot_sdk\uamqp\src/sasl_frame_codec.c ****                     LogError("Could not decode SASL frame AMQP value");
 106              		.loc 1 114 0 discriminator 3
 107 0054 FFF7FEFF 		bl	xlogging_get_log_function
 108              	.LVL12:
 109 0058 071E     		subs	r7, r0, #0
 110              	.LVL13:
 111 005a 08D0     		beq	.L9
 112              		.loc 1 114 0 is_stmt 0 discriminator 4
 113 005c 1C4B     		ldr	r3, .L15+12
 114 005e 0193     		str	r3, [sp, #4]
ARM GAS  C:\Users\Phuong\AppData\Local\Temp\ccWyCnB1.s 			page 5


 115 0060 0123     		movs	r3, #1
 116 0062 0093     		str	r3, [sp]
 117 0064 7133     		adds	r3, r3, #113
 118 0066 184A     		ldr	r2, .L15+4
 119 0068 1849     		ldr	r1, .L15+8
 120 006a 0020     		movs	r0, #0
 121              	.LVL14:
 122 006c B847     		blx	r7
 123              	.LVL15:
 124              	.L9:
 125              	.LBE3:
 115:Source\azure_iot_sdk\uamqp\src/sasl_frame_codec.c ****                     sasl_frame_codec_instance->decode_state = SASL_FRAME_DECODE_ERROR;
 126              		.loc 1 115 0 is_stmt 1
 127 006e 0123     		movs	r3, #1
 128 0070 2375     		strb	r3, [r4, #20]
 129 0072 01E0     		b	.L7
 130              	.LVL16:
 131              	.L8:
 116:Source\azure_iot_sdk\uamqp\src/sasl_frame_codec.c ****                 }
 117:Source\azure_iot_sdk\uamqp\src/sasl_frame_codec.c ****                 else
 118:Source\azure_iot_sdk\uamqp\src/sasl_frame_codec.c ****                 {
 119:Source\azure_iot_sdk\uamqp\src/sasl_frame_codec.c ****                     frame_body_size--;
 132              		.loc 1 119 0
 133 0074 013D     		subs	r5, r5, #1
 134              	.LVL17:
 120:Source\azure_iot_sdk\uamqp\src/sasl_frame_codec.c ****                     frame_body++;
 135              		.loc 1 120 0
 136 0076 0136     		adds	r6, r6, #1
 137              	.LVL18:
 138              	.L7:
 107:Source\azure_iot_sdk\uamqp\src/sasl_frame_codec.c ****                 (sasl_frame_codec_instance->decoded_sasl_frame_value == NULL) &&
 139              		.loc 1 107 0
 140 0078 002D     		cmp	r5, #0
 141 007a 05D0     		beq	.L11
 107:Source\azure_iot_sdk\uamqp\src/sasl_frame_codec.c ****                 (sasl_frame_codec_instance->decoded_sasl_frame_value == NULL) &&
 142              		.loc 1 107 0 is_stmt 0 discriminator 1
 143 007c A369     		ldr	r3, [r4, #24]
 144 007e 002B     		cmp	r3, #0
 145 0080 02D1     		bne	.L11
 109:Source\azure_iot_sdk\uamqp\src/sasl_frame_codec.c ****             {
 146              		.loc 1 109 0 is_stmt 1
 147 0082 237D     		ldrb	r3, [r4, #20]
 108:Source\azure_iot_sdk\uamqp\src/sasl_frame_codec.c ****                 (sasl_frame_codec_instance->decode_state != SASL_FRAME_DECODE_ERROR))
 148              		.loc 1 108 0
 149 0084 012B     		cmp	r3, #1
 150 0086 DED1     		bne	.L12
 151              	.L11:
 121:Source\azure_iot_sdk\uamqp\src/sasl_frame_codec.c ****                 }
 122:Source\azure_iot_sdk\uamqp\src/sasl_frame_codec.c ****             }
 123:Source\azure_iot_sdk\uamqp\src/sasl_frame_codec.c **** 
 124:Source\azure_iot_sdk\uamqp\src/sasl_frame_codec.c ****             /* Codes_SRS_SASL_FRAME_CODEC_01_009: [The frame body of a SASL frame MUST contain exac
 125:Source\azure_iot_sdk\uamqp\src/sasl_frame_codec.c ****             if (frame_body_size > 0)
 152              		.loc 1 125 0
 153 0088 002D     		cmp	r5, #0
 154 008a 11D0     		beq	.L13
 155              	.LBB4:
 126:Source\azure_iot_sdk\uamqp\src/sasl_frame_codec.c ****             {
ARM GAS  C:\Users\Phuong\AppData\Local\Temp\ccWyCnB1.s 			page 6


 127:Source\azure_iot_sdk\uamqp\src/sasl_frame_codec.c ****                 LogError("More than one AMQP value detected in SASL frame");
 156              		.loc 1 127 0 discriminator 3
 157 008c FFF7FEFF 		bl	xlogging_get_log_function
 158              	.LVL19:
 159 0090 051E     		subs	r5, r0, #0
 160              	.LVL20:
 161 0092 08D0     		beq	.L14
 162              		.loc 1 127 0 is_stmt 0 discriminator 4
 163 0094 0F4B     		ldr	r3, .L15+16
 164 0096 0193     		str	r3, [sp, #4]
 165 0098 0123     		movs	r3, #1
 166 009a 0093     		str	r3, [sp]
 167 009c 7E33     		adds	r3, r3, #126
 168 009e 0A4A     		ldr	r2, .L15+4
 169 00a0 0A49     		ldr	r1, .L15+8
 170 00a2 0020     		movs	r0, #0
 171              	.LVL21:
 172 00a4 A847     		blx	r5
 173              	.LVL22:
 174              	.L14:
 175              	.LBE4:
 128:Source\azure_iot_sdk\uamqp\src/sasl_frame_codec.c ****                 sasl_frame_codec_instance->decode_state = SASL_FRAME_DECODE_ERROR;
 176              		.loc 1 128 0 is_stmt 1
 177 00a6 0123     		movs	r3, #1
 178 00a8 2375     		strb	r3, [r4, #20]
 129:Source\azure_iot_sdk\uamqp\src/sasl_frame_codec.c **** 
 130:Source\azure_iot_sdk\uamqp\src/sasl_frame_codec.c ****                 /* Codes_SRS_SASL_FRAME_CODEC_01_049: [If any error occurs while decoding a frame, 
 131:Source\azure_iot_sdk\uamqp\src/sasl_frame_codec.c ****                 sasl_frame_codec_instance->on_sasl_frame_codec_error(sasl_frame_codec_instance->cal
 179              		.loc 1 131 0
 180 00aa E068     		ldr	r0, [r4, #12]
 181 00ac A368     		ldr	r3, [r4, #8]
 182 00ae 9847     		blx	r3
 183              	.LVL23:
 184              	.L13:
 132:Source\azure_iot_sdk\uamqp\src/sasl_frame_codec.c ****             }
 133:Source\azure_iot_sdk\uamqp\src/sasl_frame_codec.c **** 
 134:Source\azure_iot_sdk\uamqp\src/sasl_frame_codec.c ****             if (sasl_frame_codec_instance->decode_state != SASL_FRAME_DECODE_ERROR)
 185              		.loc 1 134 0
 186 00b0 237D     		ldrb	r3, [r4, #20]
 187 00b2 012B     		cmp	r3, #1
 188 00b4 03D0     		beq	.L1
 135:Source\azure_iot_sdk\uamqp\src/sasl_frame_codec.c ****             {
 136:Source\azure_iot_sdk\uamqp\src/sasl_frame_codec.c ****                 /* Codes_SRS_SASL_FRAME_CODEC_01_041: [Once the sasl frame is decoded, the callback
 137:Source\azure_iot_sdk\uamqp\src/sasl_frame_codec.c ****                 /* Codes_SRS_SASL_FRAME_CODEC_01_042: [The decoded sasl-frame value and the context
 138:Source\azure_iot_sdk\uamqp\src/sasl_frame_codec.c ****                 sasl_frame_codec_instance->on_sasl_frame_received(sasl_frame_codec_instance->callba
 189              		.loc 1 138 0
 190 00b6 6368     		ldr	r3, [r4, #4]
 191 00b8 A169     		ldr	r1, [r4, #24]
 192 00ba E068     		ldr	r0, [r4, #12]
 193 00bc 9847     		blx	r3
 194              	.LVL24:
 195              	.L1:
 139:Source\azure_iot_sdk\uamqp\src/sasl_frame_codec.c ****             }
 140:Source\azure_iot_sdk\uamqp\src/sasl_frame_codec.c ****             break;
 141:Source\azure_iot_sdk\uamqp\src/sasl_frame_codec.c ****         }
 142:Source\azure_iot_sdk\uamqp\src/sasl_frame_codec.c ****     }
 143:Source\azure_iot_sdk\uamqp\src/sasl_frame_codec.c **** }
ARM GAS  C:\Users\Phuong\AppData\Local\Temp\ccWyCnB1.s 			page 7


 196              		.loc 1 143 0
 197 00be 03B0     		add	sp, sp, #12
 198              		@ sp needed
 199              	.LVL25:
 200              	.LVL26:
 201 00c0 F0BD     		pop	{r4, r5, r6, r7, pc}
 202              	.L16:
 203 00c2 C046     		.align	2
 204              	.L15:
 205 00c4 34000000 		.word	.LC3
 206 00c8 00000000 		.word	.LANCHOR0
 207 00cc 00000000 		.word	.LC1
 208 00d0 48000000 		.word	.LC5
 209 00d4 70000000 		.word	.LC7
 210              		.cfi_endproc
 211              	.LFE2:
 212              		.size	frame_received, .-frame_received
 213              		.section	.text.amqp_value_decoded,"ax",%progbits
 214              		.align	2
 215              		.code	16
 216              		.thumb_func
 217              		.type	amqp_value_decoded, %function
 218              	amqp_value_decoded:
 219              	.LFB1:
  42:Source\azure_iot_sdk\uamqp\src/sasl_frame_codec.c ****     SASL_FRAME_CODEC_INSTANCE* sasl_frame_codec_instance = (SASL_FRAME_CODEC_INSTANCE*)context;
 220              		.loc 1 42 0
 221              		.cfi_startproc
 222              		@ args = 0, pretend = 0, frame = 0
 223              		@ frame_needed = 0, uses_anonymous_args = 0
 224              	.LVL27:
 225 0000 70B5     		push	{r4, r5, r6, lr}
 226              		.cfi_def_cfa_offset 16
 227              		.cfi_offset 4, -16
 228              		.cfi_offset 5, -12
 229              		.cfi_offset 6, -8
 230              		.cfi_offset 14, -4
 231 0002 82B0     		sub	sp, sp, #8
 232              		.cfi_def_cfa_offset 24
 233 0004 0600     		movs	r6, r0
 234 0006 0D00     		movs	r5, r1
 235              	.LVL28:
  44:Source\azure_iot_sdk\uamqp\src/sasl_frame_codec.c **** 
 236              		.loc 1 44 0
 237 0008 0800     		movs	r0, r1
 238              	.LVL29:
 239 000a FFF7FEFF 		bl	amqpvalue_get_inplace_descriptor
 240              	.LVL30:
 241 000e 041E     		subs	r4, r0, #0
 242              	.LVL31:
  46:Source\azure_iot_sdk\uamqp\src/sasl_frame_codec.c ****     {
 243              		.loc 1 46 0
 244 0010 13D1     		bne	.L18
 245              	.LBB5:
  48:Source\azure_iot_sdk\uamqp\src/sasl_frame_codec.c ****         sasl_frame_codec_instance->decode_state = SASL_FRAME_DECODE_ERROR;
 246              		.loc 1 48 0 discriminator 3
 247 0012 FFF7FEFF 		bl	xlogging_get_log_function
 248              	.LVL32:
ARM GAS  C:\Users\Phuong\AppData\Local\Temp\ccWyCnB1.s 			page 8


 249 0016 041E     		subs	r4, r0, #0
 250              	.LVL33:
 251 0018 09D0     		beq	.L19
  48:Source\azure_iot_sdk\uamqp\src/sasl_frame_codec.c ****         sasl_frame_codec_instance->decode_state = SASL_FRAME_DECODE_ERROR;
 252              		.loc 1 48 0 is_stmt 0 discriminator 4
 253 001a 1F4B     		ldr	r3, .L23
 254 001c 0193     		str	r3, [sp, #4]
 255 001e 0123     		movs	r3, #1
 256 0020 0093     		str	r3, [sp]
 257 0022 2F33     		adds	r3, r3, #47
 258 0024 1D4A     		ldr	r2, .L23+4
 259 0026 1032     		adds	r2, r2, #16
 260 0028 1D49     		ldr	r1, .L23+8
 261 002a 0020     		movs	r0, #0
 262              	.LVL34:
 263 002c A047     		blx	r4
 264              	.LVL35:
 265              	.L19:
 266              	.LBE5:
  49:Source\azure_iot_sdk\uamqp\src/sasl_frame_codec.c **** 
 267              		.loc 1 49 0 is_stmt 1
 268 002e 0123     		movs	r3, #1
 269 0030 3375     		strb	r3, [r6, #20]
  52:Source\azure_iot_sdk\uamqp\src/sasl_frame_codec.c ****     }
 270              		.loc 1 52 0
 271 0032 B368     		ldr	r3, [r6, #8]
 272 0034 F068     		ldr	r0, [r6, #12]
 273 0036 9847     		blx	r3
 274              	.LVL36:
 275 0038 2CE0     		b	.L17
 276              	.LVL37:
 277              	.L18:
  57:Source\azure_iot_sdk\uamqp\src/sasl_frame_codec.c ****             !is_sasl_init_type_by_descriptor(descriptor) &&
 278              		.loc 1 57 0
 279 003a FFF7FEFF 		bl	is_sasl_mechanisms_type_by_descriptor
 280              	.LVL38:
 281 003e 0028     		cmp	r0, #0
 282 0040 27D1     		bne	.L21
  58:Source\azure_iot_sdk\uamqp\src/sasl_frame_codec.c ****             !is_sasl_challenge_type_by_descriptor(descriptor) &&
 283              		.loc 1 58 0 discriminator 1
 284 0042 2000     		movs	r0, r4
 285 0044 FFF7FEFF 		bl	is_sasl_init_type_by_descriptor
 286              	.LVL39:
  57:Source\azure_iot_sdk\uamqp\src/sasl_frame_codec.c ****             !is_sasl_init_type_by_descriptor(descriptor) &&
 287              		.loc 1 57 0 discriminator 1
 288 0048 0028     		cmp	r0, #0
 289 004a 22D1     		bne	.L21
  59:Source\azure_iot_sdk\uamqp\src/sasl_frame_codec.c ****             !is_sasl_response_type_by_descriptor(descriptor) &&
 290              		.loc 1 59 0
 291 004c 2000     		movs	r0, r4
 292 004e FFF7FEFF 		bl	is_sasl_challenge_type_by_descriptor
 293              	.LVL40:
  58:Source\azure_iot_sdk\uamqp\src/sasl_frame_codec.c ****             !is_sasl_challenge_type_by_descriptor(descriptor) &&
 294              		.loc 1 58 0
 295 0052 0028     		cmp	r0, #0
 296 0054 1DD1     		bne	.L21
  60:Source\azure_iot_sdk\uamqp\src/sasl_frame_codec.c ****             !is_sasl_outcome_type_by_descriptor(descriptor))
ARM GAS  C:\Users\Phuong\AppData\Local\Temp\ccWyCnB1.s 			page 9


 297              		.loc 1 60 0
 298 0056 2000     		movs	r0, r4
 299 0058 FFF7FEFF 		bl	is_sasl_response_type_by_descriptor
 300              	.LVL41:
  59:Source\azure_iot_sdk\uamqp\src/sasl_frame_codec.c ****             !is_sasl_response_type_by_descriptor(descriptor) &&
 301              		.loc 1 59 0
 302 005c 0028     		cmp	r0, #0
 303 005e 18D1     		bne	.L21
  61:Source\azure_iot_sdk\uamqp\src/sasl_frame_codec.c ****         {
 304              		.loc 1 61 0
 305 0060 2000     		movs	r0, r4
 306 0062 FFF7FEFF 		bl	is_sasl_outcome_type_by_descriptor
 307              	.LVL42:
  60:Source\azure_iot_sdk\uamqp\src/sasl_frame_codec.c ****             !is_sasl_outcome_type_by_descriptor(descriptor))
 308              		.loc 1 60 0
 309 0066 0028     		cmp	r0, #0
 310 0068 13D1     		bne	.L21
 311              	.LBB6:
  63:Source\azure_iot_sdk\uamqp\src/sasl_frame_codec.c ****             sasl_frame_codec_instance->decode_state = SASL_FRAME_DECODE_ERROR;
 312              		.loc 1 63 0 discriminator 3
 313 006a FFF7FEFF 		bl	xlogging_get_log_function
 314              	.LVL43:
 315 006e 041E     		subs	r4, r0, #0
 316              	.LVL44:
 317 0070 09D0     		beq	.L22
  63:Source\azure_iot_sdk\uamqp\src/sasl_frame_codec.c ****             sasl_frame_codec_instance->decode_state = SASL_FRAME_DECODE_ERROR;
 318              		.loc 1 63 0 is_stmt 0 discriminator 4
 319 0072 0C4B     		ldr	r3, .L23+12
 320 0074 0193     		str	r3, [sp, #4]
 321 0076 0123     		movs	r3, #1
 322 0078 0093     		str	r3, [sp]
 323 007a 3E33     		adds	r3, r3, #62
 324 007c 074A     		ldr	r2, .L23+4
 325 007e 1032     		adds	r2, r2, #16
 326 0080 0749     		ldr	r1, .L23+8
 327 0082 0020     		movs	r0, #0
 328              	.LVL45:
 329 0084 A047     		blx	r4
 330              	.LVL46:
 331              	.L22:
 332              	.LBE6:
  64:Source\azure_iot_sdk\uamqp\src/sasl_frame_codec.c **** 
 333              		.loc 1 64 0 is_stmt 1
 334 0086 0123     		movs	r3, #1
 335 0088 3375     		strb	r3, [r6, #20]
  67:Source\azure_iot_sdk\uamqp\src/sasl_frame_codec.c ****         }
 336              		.loc 1 67 0
 337 008a B368     		ldr	r3, [r6, #8]
 338 008c F068     		ldr	r0, [r6, #12]
 339 008e 9847     		blx	r3
 340              	.LVL47:
 341 0090 00E0     		b	.L17
 342              	.LVL48:
 343              	.L21:
  71:Source\azure_iot_sdk\uamqp\src/sasl_frame_codec.c ****         }
 344              		.loc 1 71 0
 345 0092 B561     		str	r5, [r6, #24]
ARM GAS  C:\Users\Phuong\AppData\Local\Temp\ccWyCnB1.s 			page 10


 346              	.LVL49:
 347              	.L17:
  74:Source\azure_iot_sdk\uamqp\src/sasl_frame_codec.c **** 
 348              		.loc 1 74 0
 349 0094 02B0     		add	sp, sp, #8
 350              		@ sp needed
 351              	.LVL50:
 352              	.LVL51:
 353 0096 70BD     		pop	{r4, r5, r6, pc}
 354              	.L24:
 355              		.align	2
 356              	.L23:
 357 0098 A0000000 		.word	.LC11
 358 009c 00000000 		.word	.LANCHOR0
 359 00a0 00000000 		.word	.LC1
 360 00a4 BC000000 		.word	.LC13
 361              		.cfi_endproc
 362              	.LFE1:
 363              		.size	amqp_value_decoded, .-amqp_value_decoded
 364              		.section	.text.encode_bytes,"ax",%progbits
 365              		.align	2
 366              		.code	16
 367              		.thumb_func
 368              		.type	encode_bytes, %function
 369              	encode_bytes:
 370              	.LFB3:
 144:Source\azure_iot_sdk\uamqp\src/sasl_frame_codec.c **** 
 145:Source\azure_iot_sdk\uamqp\src/sasl_frame_codec.c **** static int encode_bytes(void* context, const unsigned char* bytes, size_t length)
 146:Source\azure_iot_sdk\uamqp\src/sasl_frame_codec.c **** {
 371              		.loc 1 146 0
 372              		.cfi_startproc
 373              		@ args = 0, pretend = 0, frame = 0
 374              		@ frame_needed = 0, uses_anonymous_args = 0
 375              	.LVL52:
 376 0000 70B5     		push	{r4, r5, r6, lr}
 377              		.cfi_def_cfa_offset 16
 378              		.cfi_offset 4, -16
 379              		.cfi_offset 5, -12
 380              		.cfi_offset 6, -8
 381              		.cfi_offset 14, -4
 382 0002 0400     		movs	r4, r0
 383 0004 1500     		movs	r5, r2
 384              	.LVL53:
 147:Source\azure_iot_sdk\uamqp\src/sasl_frame_codec.c ****     PAYLOAD* payload = (PAYLOAD*)context;
 148:Source\azure_iot_sdk\uamqp\src/sasl_frame_codec.c ****     (void)memcpy((unsigned char*)payload->bytes + payload->length, bytes, length);
 385              		.loc 1 148 0
 386 0006 0368     		ldr	r3, [r0]
 387 0008 4268     		ldr	r2, [r0, #4]
 388              	.LVL54:
 389 000a 9446     		mov	ip, r2
 390 000c 6344     		add	r3, r3, ip
 391 000e 1800     		movs	r0, r3
 392              	.LVL55:
 393 0010 2A00     		movs	r2, r5
 394 0012 FFF7FEFF 		bl	memcpy
 395              	.LVL56:
 149:Source\azure_iot_sdk\uamqp\src/sasl_frame_codec.c ****     payload->length += length;
ARM GAS  C:\Users\Phuong\AppData\Local\Temp\ccWyCnB1.s 			page 11


 396              		.loc 1 149 0
 397 0016 6368     		ldr	r3, [r4, #4]
 398 0018 9C46     		mov	ip, r3
 399 001a 6544     		add	r5, r5, ip
 400              	.LVL57:
 401 001c 6560     		str	r5, [r4, #4]
 150:Source\azure_iot_sdk\uamqp\src/sasl_frame_codec.c ****     return 0;
 151:Source\azure_iot_sdk\uamqp\src/sasl_frame_codec.c **** }
 402              		.loc 1 151 0
 403 001e 0020     		movs	r0, #0
 404              		@ sp needed
 405              	.LVL58:
 406 0020 70BD     		pop	{r4, r5, r6, pc}
 407              		.cfi_endproc
 408              	.LFE3:
 409              		.size	encode_bytes, .-encode_bytes
 410 0022 C046     		.section	.text.sasl_frame_codec_create,"ax",%progbits
 411              		.align	2
 412              		.global	sasl_frame_codec_create
 413              		.code	16
 414              		.thumb_func
 415              		.type	sasl_frame_codec_create, %function
 416              	sasl_frame_codec_create:
 417              	.LFB4:
 152:Source\azure_iot_sdk\uamqp\src/sasl_frame_codec.c **** 
 153:Source\azure_iot_sdk\uamqp\src/sasl_frame_codec.c **** SASL_FRAME_CODEC_HANDLE sasl_frame_codec_create(FRAME_CODEC_HANDLE frame_codec, ON_SASL_FRAME_RECEI
 154:Source\azure_iot_sdk\uamqp\src/sasl_frame_codec.c **** {
 418              		.loc 1 154 0
 419              		.cfi_startproc
 420              		@ args = 0, pretend = 0, frame = 8
 421              		@ frame_needed = 0, uses_anonymous_args = 0
 422              	.LVL59:
 423 0000 F0B5     		push	{r4, r5, r6, r7, lr}
 424              		.cfi_def_cfa_offset 20
 425              		.cfi_offset 4, -20
 426              		.cfi_offset 5, -16
 427              		.cfi_offset 6, -12
 428              		.cfi_offset 7, -8
 429              		.cfi_offset 14, -4
 430 0002 89B0     		sub	sp, sp, #36
 431              		.cfi_def_cfa_offset 56
 432 0004 0500     		movs	r5, r0
 433 0006 0E00     		movs	r6, r1
 434 0008 1700     		movs	r7, r2
 435 000a 0793     		str	r3, [sp, #28]
 155:Source\azure_iot_sdk\uamqp\src/sasl_frame_codec.c ****     SASL_FRAME_CODEC_INSTANCE* result;
 156:Source\azure_iot_sdk\uamqp\src/sasl_frame_codec.c **** 
 157:Source\azure_iot_sdk\uamqp\src/sasl_frame_codec.c ****     /* Codes_SRS_SASL_FRAME_CODEC_01_019: [If any of the arguments frame_codec, on_sasl_frame_recei
 158:Source\azure_iot_sdk\uamqp\src/sasl_frame_codec.c ****     if ((frame_codec == NULL) ||
 436              		.loc 1 158 0
 437 000c 0028     		cmp	r0, #0
 438 000e 03D0     		beq	.L27
 439              		.loc 1 158 0 is_stmt 0 discriminator 1
 440 0010 0029     		cmp	r1, #0
 441 0012 01D0     		beq	.L27
 159:Source\azure_iot_sdk\uamqp\src/sasl_frame_codec.c ****         (on_sasl_frame_received == NULL) ||
 442              		.loc 1 159 0 is_stmt 1
ARM GAS  C:\Users\Phuong\AppData\Local\Temp\ccWyCnB1.s 			page 12


 443 0014 002A     		cmp	r2, #0
 444 0016 12D1     		bne	.L28
 445              	.L27:
 446              	.LBB7:
 160:Source\azure_iot_sdk\uamqp\src/sasl_frame_codec.c ****         (on_sasl_frame_codec_error == NULL))
 161:Source\azure_iot_sdk\uamqp\src/sasl_frame_codec.c ****     {
 162:Source\azure_iot_sdk\uamqp\src/sasl_frame_codec.c ****         LogError("Bad arguments: frame_codec = %p, on_sasl_frame_received = %p, on_sasl_frame_codec
 447              		.loc 1 162 0 discriminator 3
 448 0018 FFF7FEFF 		bl	xlogging_get_log_function
 449              	.LVL60:
 450 001c 041E     		subs	r4, r0, #0
 451              	.LVL61:
 452 001e 61D0     		beq	.L34
 453              		.loc 1 162 0 is_stmt 0 discriminator 4
 454 0020 0497     		str	r7, [sp, #16]
 455 0022 0396     		str	r6, [sp, #12]
 456 0024 0295     		str	r5, [sp, #8]
 457 0026 314B     		ldr	r3, .L35
 458 0028 0193     		str	r3, [sp, #4]
 459 002a 0123     		movs	r3, #1
 460 002c 0093     		str	r3, [sp]
 461 002e A233     		adds	r3, r3, #162
 462 0030 2F4A     		ldr	r2, .L35+4
 463 0032 2432     		adds	r2, r2, #36
 464 0034 2F49     		ldr	r1, .L35+8
 465 0036 0020     		movs	r0, #0
 466              	.LVL62:
 467 0038 A047     		blx	r4
 468              	.LVL63:
 469              	.LBE7:
 163:Source\azure_iot_sdk\uamqp\src/sasl_frame_codec.c ****             frame_codec, on_sasl_frame_received, on_sasl_frame_codec_error);
 164:Source\azure_iot_sdk\uamqp\src/sasl_frame_codec.c ****         result = NULL;
 470              		.loc 1 164 0 is_stmt 1 discriminator 4
 471 003a 0024     		movs	r4, #0
 472              	.LVL64:
 473 003c 53E0     		b	.L29
 474              	.LVL65:
 475              	.L28:
 165:Source\azure_iot_sdk\uamqp\src/sasl_frame_codec.c ****     }
 166:Source\azure_iot_sdk\uamqp\src/sasl_frame_codec.c ****     else
 167:Source\azure_iot_sdk\uamqp\src/sasl_frame_codec.c ****     {
 168:Source\azure_iot_sdk\uamqp\src/sasl_frame_codec.c ****         /* Codes_SRS_SASL_FRAME_CODEC_01_018: [sasl_frame_codec_create shall create an instance of 
 169:Source\azure_iot_sdk\uamqp\src/sasl_frame_codec.c ****         result = (SASL_FRAME_CODEC_INSTANCE*)malloc(sizeof(SASL_FRAME_CODEC_INSTANCE));
 476              		.loc 1 169 0
 477 003e 1C20     		movs	r0, #28
 478              	.LVL66:
 479 0040 FFF7FEFF 		bl	malloc
 480              	.LVL67:
 481 0044 041E     		subs	r4, r0, #0
 482              	.LVL68:
 170:Source\azure_iot_sdk\uamqp\src/sasl_frame_codec.c ****         if (result == NULL)
 483              		.loc 1 170 0
 484 0046 0ED1     		bne	.L30
 485              	.LBB8:
 171:Source\azure_iot_sdk\uamqp\src/sasl_frame_codec.c ****         {
 172:Source\azure_iot_sdk\uamqp\src/sasl_frame_codec.c ****             LogError("Cannot allocate memory for SASL frame codec");
 486              		.loc 1 172 0 discriminator 3
ARM GAS  C:\Users\Phuong\AppData\Local\Temp\ccWyCnB1.s 			page 13


 487 0048 FFF7FEFF 		bl	xlogging_get_log_function
 488              	.LVL69:
 489 004c 051E     		subs	r5, r0, #0
 490              	.LVL70:
 491 004e 4AD0     		beq	.L29
 492              		.loc 1 172 0 is_stmt 0 discriminator 4
 493 0050 294B     		ldr	r3, .L35+12
 494 0052 0193     		str	r3, [sp, #4]
 495 0054 0123     		movs	r3, #1
 496 0056 0093     		str	r3, [sp]
 497 0058 AB33     		adds	r3, r3, #171
 498 005a 254A     		ldr	r2, .L35+4
 499 005c 2432     		adds	r2, r2, #36
 500 005e 2549     		ldr	r1, .L35+8
 501 0060 0020     		movs	r0, #0
 502              	.LVL71:
 503 0062 A847     		blx	r5
 504              	.LVL72:
 505 0064 3FE0     		b	.L29
 506              	.LVL73:
 507              	.L30:
 508              	.LBE8:
 173:Source\azure_iot_sdk\uamqp\src/sasl_frame_codec.c ****         }
 174:Source\azure_iot_sdk\uamqp\src/sasl_frame_codec.c ****         else
 175:Source\azure_iot_sdk\uamqp\src/sasl_frame_codec.c ****         {
 176:Source\azure_iot_sdk\uamqp\src/sasl_frame_codec.c ****             result->frame_codec = frame_codec;
 509              		.loc 1 176 0 is_stmt 1
 510 0066 0560     		str	r5, [r0]
 177:Source\azure_iot_sdk\uamqp\src/sasl_frame_codec.c ****             result->on_sasl_frame_received = on_sasl_frame_received;
 511              		.loc 1 177 0
 512 0068 4660     		str	r6, [r0, #4]
 178:Source\azure_iot_sdk\uamqp\src/sasl_frame_codec.c ****             result->on_sasl_frame_codec_error = on_sasl_frame_codec_error;
 513              		.loc 1 178 0
 514 006a 8760     		str	r7, [r0, #8]
 179:Source\azure_iot_sdk\uamqp\src/sasl_frame_codec.c ****             result->callback_context = callback_context;
 515              		.loc 1 179 0
 516 006c 079B     		ldr	r3, [sp, #28]
 517 006e C360     		str	r3, [r0, #12]
 180:Source\azure_iot_sdk\uamqp\src/sasl_frame_codec.c ****             result->decode_state = SASL_FRAME_DECODE_FRAME;
 518              		.loc 1 180 0
 519 0070 0023     		movs	r3, #0
 520 0072 0375     		strb	r3, [r0, #20]
 181:Source\azure_iot_sdk\uamqp\src/sasl_frame_codec.c **** 
 182:Source\azure_iot_sdk\uamqp\src/sasl_frame_codec.c ****             /* Codes_SRS_SASL_FRAME_CODEC_01_022: [sasl_frame_codec_create shall create a decoder t
 183:Source\azure_iot_sdk\uamqp\src/sasl_frame_codec.c ****             result->decoder = amqpvalue_decoder_create(amqp_value_decoded, result);
 521              		.loc 1 183 0
 522 0074 0100     		movs	r1, r0
 523 0076 2148     		ldr	r0, .L35+16
 524              	.LVL74:
 525 0078 FFF7FEFF 		bl	amqpvalue_decoder_create
 526              	.LVL75:
 527 007c 2061     		str	r0, [r4, #16]
 184:Source\azure_iot_sdk\uamqp\src/sasl_frame_codec.c ****             if (result->decoder == NULL)
 528              		.loc 1 184 0
 529 007e 0028     		cmp	r0, #0
 530 0080 12D1     		bne	.L31
 531              	.LBB9:
ARM GAS  C:\Users\Phuong\AppData\Local\Temp\ccWyCnB1.s 			page 14


 185:Source\azure_iot_sdk\uamqp\src/sasl_frame_codec.c ****             {
 186:Source\azure_iot_sdk\uamqp\src/sasl_frame_codec.c ****                 /* Codes_SRS_SASL_FRAME_CODEC_01_023: [If creating the decoder fails, sasl_frame_co
 187:Source\azure_iot_sdk\uamqp\src/sasl_frame_codec.c ****                 LogError("Cannot create AMQP value decoder");
 532              		.loc 1 187 0 discriminator 3
 533 0082 FFF7FEFF 		bl	xlogging_get_log_function
 534              	.LVL76:
 535 0086 051E     		subs	r5, r0, #0
 536              	.LVL77:
 537 0088 09D0     		beq	.L32
 538              		.loc 1 187 0 is_stmt 0 discriminator 4
 539 008a 1D4B     		ldr	r3, .L35+20
 540 008c 0193     		str	r3, [sp, #4]
 541 008e 0123     		movs	r3, #1
 542 0090 0093     		str	r3, [sp]
 543 0092 BA33     		adds	r3, r3, #186
 544 0094 164A     		ldr	r2, .L35+4
 545 0096 2432     		adds	r2, r2, #36
 546 0098 1649     		ldr	r1, .L35+8
 547 009a 0020     		movs	r0, #0
 548              	.LVL78:
 549 009c A847     		blx	r5
 550              	.LVL79:
 551              	.L32:
 552              	.LBE9:
 188:Source\azure_iot_sdk\uamqp\src/sasl_frame_codec.c ****                 free(result);
 553              		.loc 1 188 0 is_stmt 1
 554 009e 2000     		movs	r0, r4
 555 00a0 FFF7FEFF 		bl	free
 556              	.LVL80:
 189:Source\azure_iot_sdk\uamqp\src/sasl_frame_codec.c ****                 result = NULL;
 557              		.loc 1 189 0
 558 00a4 0024     		movs	r4, #0
 559 00a6 1EE0     		b	.L29
 560              	.LVL81:
 561              	.L31:
 190:Source\azure_iot_sdk\uamqp\src/sasl_frame_codec.c ****             }
 191:Source\azure_iot_sdk\uamqp\src/sasl_frame_codec.c ****             else
 192:Source\azure_iot_sdk\uamqp\src/sasl_frame_codec.c ****             {
 193:Source\azure_iot_sdk\uamqp\src/sasl_frame_codec.c ****                 /* Codes_SRS_SASL_FRAME_CODEC_01_020: [sasl_frame_codec_create shall subscribe for 
 194:Source\azure_iot_sdk\uamqp\src/sasl_frame_codec.c ****                 /* Codes_SRS_SASL_FRAME_CODEC_01_001: [A SASL frame has a type code of 0x01.] */
 195:Source\azure_iot_sdk\uamqp\src/sasl_frame_codec.c ****                 if (frame_codec_subscribe(frame_codec, FRAME_TYPE_SASL, frame_received, result) != 
 562              		.loc 1 195 0
 563 00a8 2300     		movs	r3, r4
 564 00aa 164A     		ldr	r2, .L35+24
 565 00ac 0121     		movs	r1, #1
 566 00ae 2800     		movs	r0, r5
 567 00b0 FFF7FEFF 		bl	frame_codec_subscribe
 568              	.LVL82:
 569 00b4 0028     		cmp	r0, #0
 570 00b6 16D0     		beq	.L29
 571              	.LBB10:
 196:Source\azure_iot_sdk\uamqp\src/sasl_frame_codec.c ****                 {
 197:Source\azure_iot_sdk\uamqp\src/sasl_frame_codec.c ****                     /* Codes_SRS_SASL_FRAME_CODEC_01_021: [If subscribing for SASL frames fails, sa
 198:Source\azure_iot_sdk\uamqp\src/sasl_frame_codec.c ****                     LogError("Cannot subscribe for SASL frames");
 572              		.loc 1 198 0 discriminator 3
 573 00b8 FFF7FEFF 		bl	xlogging_get_log_function
 574              	.LVL83:
ARM GAS  C:\Users\Phuong\AppData\Local\Temp\ccWyCnB1.s 			page 15


 575 00bc 051E     		subs	r5, r0, #0
 576              	.LVL84:
 577 00be 09D0     		beq	.L33
 578              		.loc 1 198 0 is_stmt 0 discriminator 4
 579 00c0 114B     		ldr	r3, .L35+28
 580 00c2 0193     		str	r3, [sp, #4]
 581 00c4 0123     		movs	r3, #1
 582 00c6 0093     		str	r3, [sp]
 583 00c8 C533     		adds	r3, r3, #197
 584 00ca 094A     		ldr	r2, .L35+4
 585 00cc 2432     		adds	r2, r2, #36
 586 00ce 0949     		ldr	r1, .L35+8
 587 00d0 0020     		movs	r0, #0
 588              	.LVL85:
 589 00d2 A847     		blx	r5
 590              	.LVL86:
 591              	.L33:
 592              	.LBE10:
 199:Source\azure_iot_sdk\uamqp\src/sasl_frame_codec.c ****                     amqpvalue_decoder_destroy(result->decoder);
 593              		.loc 1 199 0 is_stmt 1
 594 00d4 2069     		ldr	r0, [r4, #16]
 595 00d6 FFF7FEFF 		bl	amqpvalue_decoder_destroy
 596              	.LVL87:
 200:Source\azure_iot_sdk\uamqp\src/sasl_frame_codec.c ****                     free(result);
 597              		.loc 1 200 0
 598 00da 2000     		movs	r0, r4
 599 00dc FFF7FEFF 		bl	free
 600              	.LVL88:
 201:Source\azure_iot_sdk\uamqp\src/sasl_frame_codec.c ****                     result = NULL;
 601              		.loc 1 201 0
 602 00e0 0024     		movs	r4, #0
 603 00e2 00E0     		b	.L29
 604              	.LVL89:
 605              	.L34:
 164:Source\azure_iot_sdk\uamqp\src/sasl_frame_codec.c ****     }
 606              		.loc 1 164 0
 607 00e4 0024     		movs	r4, #0
 608              	.LVL90:
 609              	.L29:
 202:Source\azure_iot_sdk\uamqp\src/sasl_frame_codec.c ****                 }
 203:Source\azure_iot_sdk\uamqp\src/sasl_frame_codec.c ****             }
 204:Source\azure_iot_sdk\uamqp\src/sasl_frame_codec.c ****         }
 205:Source\azure_iot_sdk\uamqp\src/sasl_frame_codec.c ****     }
 206:Source\azure_iot_sdk\uamqp\src/sasl_frame_codec.c **** 
 207:Source\azure_iot_sdk\uamqp\src/sasl_frame_codec.c ****     return result;
 208:Source\azure_iot_sdk\uamqp\src/sasl_frame_codec.c **** }
 610              		.loc 1 208 0
 611 00e6 2000     		movs	r0, r4
 612 00e8 09B0     		add	sp, sp, #36
 613              		@ sp needed
 614              	.LVL91:
 615              	.LVL92:
 616              	.LVL93:
 617 00ea F0BD     		pop	{r4, r5, r6, r7, pc}
 618              	.L36:
 619              		.align	2
 620              	.L35:
ARM GAS  C:\Users\Phuong\AppData\Local\Temp\ccWyCnB1.s 			page 16


 621 00ec D0000000 		.word	.LC17
 622 00f0 00000000 		.word	.LANCHOR0
 623 00f4 00000000 		.word	.LC1
 624 00f8 30010000 		.word	.LC19
 625 00fc 00000000 		.word	amqp_value_decoded
 626 0100 5C010000 		.word	.LC22
 627 0104 00000000 		.word	frame_received
 628 0108 80010000 		.word	.LC25
 629              		.cfi_endproc
 630              	.LFE4:
 631              		.size	sasl_frame_codec_create, .-sasl_frame_codec_create
 632              		.section	.text.sasl_frame_codec_destroy,"ax",%progbits
 633              		.align	2
 634              		.global	sasl_frame_codec_destroy
 635              		.code	16
 636              		.thumb_func
 637              		.type	sasl_frame_codec_destroy, %function
 638              	sasl_frame_codec_destroy:
 639              	.LFB5:
 209:Source\azure_iot_sdk\uamqp\src/sasl_frame_codec.c **** 
 210:Source\azure_iot_sdk\uamqp\src/sasl_frame_codec.c **** void sasl_frame_codec_destroy(SASL_FRAME_CODEC_HANDLE sasl_frame_codec)
 211:Source\azure_iot_sdk\uamqp\src/sasl_frame_codec.c **** {
 640              		.loc 1 211 0
 641              		.cfi_startproc
 642              		@ args = 0, pretend = 0, frame = 0
 643              		@ frame_needed = 0, uses_anonymous_args = 0
 644              	.LVL94:
 645 0000 10B5     		push	{r4, lr}
 646              		.cfi_def_cfa_offset 8
 647              		.cfi_offset 4, -8
 648              		.cfi_offset 14, -4
 649 0002 82B0     		sub	sp, sp, #8
 650              		.cfi_def_cfa_offset 16
 651 0004 041E     		subs	r4, r0, #0
 212:Source\azure_iot_sdk\uamqp\src/sasl_frame_codec.c ****     /* Codes_SRS_SASL_FRAME_CODEC_01_026: [If sasl_frame_codec is NULL, sasl_frame_codec_destroy sh
 213:Source\azure_iot_sdk\uamqp\src/sasl_frame_codec.c ****     if (sasl_frame_codec == NULL)
 652              		.loc 1 213 0
 653 0006 0ED1     		bne	.L38
 654              	.LBB11:
 214:Source\azure_iot_sdk\uamqp\src/sasl_frame_codec.c ****     {
 215:Source\azure_iot_sdk\uamqp\src/sasl_frame_codec.c ****         LogError("NULL sasl_frame_codec");
 655              		.loc 1 215 0 discriminator 3
 656 0008 FFF7FEFF 		bl	xlogging_get_log_function
 657              	.LVL95:
 658 000c 041E     		subs	r4, r0, #0
 659              	.LVL96:
 660 000e 14D0     		beq	.L37
 661              		.loc 1 215 0 is_stmt 0 discriminator 4
 662 0010 0B4B     		ldr	r3, .L40
 663 0012 0193     		str	r3, [sp, #4]
 664 0014 0123     		movs	r3, #1
 665 0016 0093     		str	r3, [sp]
 666 0018 D633     		adds	r3, r3, #214
 667 001a 0A4A     		ldr	r2, .L40+4
 668 001c 3C32     		adds	r2, r2, #60
 669 001e 0A49     		ldr	r1, .L40+8
 670 0020 0020     		movs	r0, #0
ARM GAS  C:\Users\Phuong\AppData\Local\Temp\ccWyCnB1.s 			page 17


 671              	.LVL97:
 672 0022 A047     		blx	r4
 673              	.LVL98:
 674 0024 09E0     		b	.L37
 675              	.LVL99:
 676              	.L38:
 677              	.LBE11:
 678              	.LBB12:
 216:Source\azure_iot_sdk\uamqp\src/sasl_frame_codec.c ****     }
 217:Source\azure_iot_sdk\uamqp\src/sasl_frame_codec.c ****     else
 218:Source\azure_iot_sdk\uamqp\src/sasl_frame_codec.c ****     {
 219:Source\azure_iot_sdk\uamqp\src/sasl_frame_codec.c ****         /* Codes_SRS_SASL_FRAME_CODEC_01_025: [sasl_frame_codec_destroy shall free all resources as
 220:Source\azure_iot_sdk\uamqp\src/sasl_frame_codec.c ****         SASL_FRAME_CODEC_INSTANCE* sasl_frame_codec_instance = (SASL_FRAME_CODEC_INSTANCE*)sasl_fra
 221:Source\azure_iot_sdk\uamqp\src/sasl_frame_codec.c **** 
 222:Source\azure_iot_sdk\uamqp\src/sasl_frame_codec.c ****         /* Codes_SRS_SASL_FRAME_CODEC_01_027: [sasl_frame_codec_destroy shall unsubscribe from rece
 223:Source\azure_iot_sdk\uamqp\src/sasl_frame_codec.c ****         (void)frame_codec_unsubscribe(sasl_frame_codec_instance->frame_codec, FRAME_TYPE_SASL);
 679              		.loc 1 223 0 is_stmt 1
 680 0026 0121     		movs	r1, #1
 681 0028 0068     		ldr	r0, [r0]
 682              	.LVL100:
 683 002a FFF7FEFF 		bl	frame_codec_unsubscribe
 684              	.LVL101:
 224:Source\azure_iot_sdk\uamqp\src/sasl_frame_codec.c **** 
 225:Source\azure_iot_sdk\uamqp\src/sasl_frame_codec.c ****         /* Codes_SRS_SASL_FRAME_CODEC_01_028: [The decoder created in sasl_frame_codec_create shall
 226:Source\azure_iot_sdk\uamqp\src/sasl_frame_codec.c ****         amqpvalue_decoder_destroy(sasl_frame_codec_instance->decoder);
 685              		.loc 1 226 0
 686 002e 2069     		ldr	r0, [r4, #16]
 687 0030 FFF7FEFF 		bl	amqpvalue_decoder_destroy
 688              	.LVL102:
 227:Source\azure_iot_sdk\uamqp\src/sasl_frame_codec.c ****         free(sasl_frame_codec_instance);
 689              		.loc 1 227 0
 690 0034 2000     		movs	r0, r4
 691 0036 FFF7FEFF 		bl	free
 692              	.LVL103:
 693              	.L37:
 694              	.LBE12:
 228:Source\azure_iot_sdk\uamqp\src/sasl_frame_codec.c ****     }
 229:Source\azure_iot_sdk\uamqp\src/sasl_frame_codec.c **** }
 695              		.loc 1 229 0
 696 003a 02B0     		add	sp, sp, #8
 697              		@ sp needed
 698 003c 10BD     		pop	{r4, pc}
 699              	.L41:
 700 003e C046     		.align	2
 701              	.L40:
 702 0040 A4010000 		.word	.LC29
 703 0044 00000000 		.word	.LANCHOR0
 704 0048 00000000 		.word	.LC1
 705              		.cfi_endproc
 706              	.LFE5:
 707              		.size	sasl_frame_codec_destroy, .-sasl_frame_codec_destroy
 708              		.section	.text.sasl_frame_codec_encode_frame,"ax",%progbits
 709              		.align	2
 710              		.global	sasl_frame_codec_encode_frame
 711              		.code	16
 712              		.thumb_func
 713              		.type	sasl_frame_codec_encode_frame, %function
ARM GAS  C:\Users\Phuong\AppData\Local\Temp\ccWyCnB1.s 			page 18


 714              	sasl_frame_codec_encode_frame:
 715              	.LFB6:
 230:Source\azure_iot_sdk\uamqp\src/sasl_frame_codec.c **** 
 231:Source\azure_iot_sdk\uamqp\src/sasl_frame_codec.c **** /* Codes_SRS_SASL_FRAME_CODEC_01_029: [sasl_frame_codec_encode_frame shall encode the frame header 
 232:Source\azure_iot_sdk\uamqp\src/sasl_frame_codec.c **** int sasl_frame_codec_encode_frame(SASL_FRAME_CODEC_HANDLE sasl_frame_codec, AMQP_VALUE sasl_frame_v
 233:Source\azure_iot_sdk\uamqp\src/sasl_frame_codec.c **** {
 716              		.loc 1 233 0
 717              		.cfi_startproc
 718              		@ args = 0, pretend = 0, frame = 24
 719              		@ frame_needed = 0, uses_anonymous_args = 0
 720              	.LVL104:
 721 0000 F0B5     		push	{r4, r5, r6, r7, lr}
 722              		.cfi_def_cfa_offset 20
 723              		.cfi_offset 4, -20
 724              		.cfi_offset 5, -16
 725              		.cfi_offset 6, -12
 726              		.cfi_offset 7, -8
 727              		.cfi_offset 14, -4
 728 0002 4746     		mov	r7, r8
 729 0004 80B4     		push	{r7}
 730              		.cfi_def_cfa_offset 24
 731              		.cfi_offset 8, -24
 732 0006 8AB0     		sub	sp, sp, #40
 733              		.cfi_def_cfa_offset 64
 734 0008 0500     		movs	r5, r0
 735 000a 0C00     		movs	r4, r1
 736 000c 1600     		movs	r6, r2
 737 000e 1F00     		movs	r7, r3
 738              	.LVL105:
 234:Source\azure_iot_sdk\uamqp\src/sasl_frame_codec.c ****     int result;
 235:Source\azure_iot_sdk\uamqp\src/sasl_frame_codec.c ****     SASL_FRAME_CODEC_INSTANCE* sasl_frame_codec_instance = (SASL_FRAME_CODEC_INSTANCE*)sasl_frame_c
 236:Source\azure_iot_sdk\uamqp\src/sasl_frame_codec.c **** 
 237:Source\azure_iot_sdk\uamqp\src/sasl_frame_codec.c ****     /* Codes_SRS_SASL_FRAME_CODEC_01_030: [If sasl_frame_codec or sasl_frame_value is NULL, sasl_fr
 238:Source\azure_iot_sdk\uamqp\src/sasl_frame_codec.c ****     if ((sasl_frame_codec == NULL) ||
 739              		.loc 1 238 0
 740 0010 0028     		cmp	r0, #0
 741 0012 01D0     		beq	.L43
 742              		.loc 1 238 0 is_stmt 0 discriminator 1
 743 0014 0029     		cmp	r1, #0
 744 0016 12D1     		bne	.L44
 745              	.L43:
 746              	.LBB13:
 239:Source\azure_iot_sdk\uamqp\src/sasl_frame_codec.c ****         (sasl_frame_value == NULL))
 240:Source\azure_iot_sdk\uamqp\src/sasl_frame_codec.c ****     {
 241:Source\azure_iot_sdk\uamqp\src/sasl_frame_codec.c ****         /* Codes_SRS_SASL_FRAME_CODEC_01_034: [If any error occurs during encoding, sasl_frame_code
 242:Source\azure_iot_sdk\uamqp\src/sasl_frame_codec.c ****         LogError("Bad arguments: sasl_frame_codec = %p, sasl_frame_value = %p",
 747              		.loc 1 242 0 is_stmt 1 discriminator 3
 748 0018 FFF7FEFF 		bl	xlogging_get_log_function
 749              	.LVL106:
 750 001c 061E     		subs	r6, r0, #0
 751              	.LVL107:
 752 001e 00D1     		bne	.LCB792
 753 0020 FAE0     		b	.L56	@long jump
 754              	.LCB792:
 755              		.loc 1 242 0 is_stmt 0 discriminator 4
 756 0022 0394     		str	r4, [sp, #12]
 757 0024 0295     		str	r5, [sp, #8]
ARM GAS  C:\Users\Phuong\AppData\Local\Temp\ccWyCnB1.s 			page 19


 758 0026 7F4B     		ldr	r3, .L67
 759 0028 0193     		str	r3, [sp, #4]
 760 002a 0123     		movs	r3, #1
 761 002c 0093     		str	r3, [sp]
 762 002e F233     		adds	r3, r3, #242
 763 0030 7D4A     		ldr	r2, .L67+4
 764 0032 5832     		adds	r2, r2, #88
 765 0034 7D49     		ldr	r1, .L67+8
 766 0036 0020     		movs	r0, #0
 767              	.LVL108:
 768 0038 B047     		blx	r6
 769              	.LVL109:
 770              	.LBE13:
 243:Source\azure_iot_sdk\uamqp\src/sasl_frame_codec.c ****             sasl_frame_codec, sasl_frame_value);
 244:Source\azure_iot_sdk\uamqp\src/sasl_frame_codec.c ****         result = __FAILURE__;
 771              		.loc 1 244 0 is_stmt 1 discriminator 4
 772 003a F424     		movs	r4, #244
 773              	.LVL110:
 774 003c EDE0     		b	.L45
 775              	.LVL111:
 776              	.L44:
 777              	.LBB14:
 245:Source\azure_iot_sdk\uamqp\src/sasl_frame_codec.c ****     }
 246:Source\azure_iot_sdk\uamqp\src/sasl_frame_codec.c ****     else
 247:Source\azure_iot_sdk\uamqp\src/sasl_frame_codec.c ****     {
 248:Source\azure_iot_sdk\uamqp\src/sasl_frame_codec.c ****         AMQP_VALUE descriptor;
 249:Source\azure_iot_sdk\uamqp\src/sasl_frame_codec.c ****         uint64_t sasl_frame_descriptor_ulong;
 250:Source\azure_iot_sdk\uamqp\src/sasl_frame_codec.c ****         size_t encoded_size;
 251:Source\azure_iot_sdk\uamqp\src/sasl_frame_codec.c **** 
 252:Source\azure_iot_sdk\uamqp\src/sasl_frame_codec.c ****         if ((descriptor = amqpvalue_get_inplace_descriptor(sasl_frame_value)) == NULL)
 778              		.loc 1 252 0
 779 003e 0800     		movs	r0, r1
 780              	.LVL112:
 781 0040 FFF7FEFF 		bl	amqpvalue_get_inplace_descriptor
 782              	.LVL113:
 783 0044 0028     		cmp	r0, #0
 784 0046 11D1     		bne	.L46
 785              	.LBB15:
 253:Source\azure_iot_sdk\uamqp\src/sasl_frame_codec.c ****         {
 254:Source\azure_iot_sdk\uamqp\src/sasl_frame_codec.c ****             /* Codes_SRS_SASL_FRAME_CODEC_01_034: [If any error occurs during encoding, sasl_frame_
 255:Source\azure_iot_sdk\uamqp\src/sasl_frame_codec.c ****             LogError("Cannot get SASL frame descriptor AMQP value");
 786              		.loc 1 255 0 discriminator 3
 787 0048 FFF7FEFF 		bl	xlogging_get_log_function
 788              	.LVL114:
 789 004c 041E     		subs	r4, r0, #0
 790              	.LVL115:
 791 004e 00D1     		bne	.LCB840
 792 0050 D0E0     		b	.L57	@long jump
 793              	.LCB840:
 794              		.loc 1 255 0 is_stmt 0 discriminator 4
 795 0052 774B     		ldr	r3, .L67+12
 796 0054 0193     		str	r3, [sp, #4]
 797 0056 0123     		movs	r3, #1
 798 0058 0093     		str	r3, [sp]
 799 005a FE33     		adds	r3, r3, #254
 800 005c 724A     		ldr	r2, .L67+4
 801 005e 5832     		adds	r2, r2, #88
ARM GAS  C:\Users\Phuong\AppData\Local\Temp\ccWyCnB1.s 			page 20


 802 0060 7249     		ldr	r1, .L67+8
 803 0062 0020     		movs	r0, #0
 804              	.LVL116:
 805 0064 A047     		blx	r4
 806              	.LVL117:
 807              	.LBE15:
 256:Source\azure_iot_sdk\uamqp\src/sasl_frame_codec.c ****             result = __FAILURE__;
 808              		.loc 1 256 0 is_stmt 1 discriminator 4
 809 0066 8024     		movs	r4, #128
 810              	.LVL118:
 811 0068 6400     		lsls	r4, r4, #1
 812 006a D6E0     		b	.L45
 813              	.LVL119:
 814              	.L46:
 257:Source\azure_iot_sdk\uamqp\src/sasl_frame_codec.c ****         }
 258:Source\azure_iot_sdk\uamqp\src/sasl_frame_codec.c ****         else if (amqpvalue_get_ulong(descriptor, &sasl_frame_descriptor_ulong) != 0)
 815              		.loc 1 258 0
 816 006c 06A9     		add	r1, sp, #24
 817 006e FFF7FEFF 		bl	amqpvalue_get_ulong
 818              	.LVL120:
 819 0072 0028     		cmp	r0, #0
 820 0074 12D0     		beq	.L48
 821              	.LBB16:
 259:Source\azure_iot_sdk\uamqp\src/sasl_frame_codec.c ****         {
 260:Source\azure_iot_sdk\uamqp\src/sasl_frame_codec.c ****             /* Codes_SRS_SASL_FRAME_CODEC_01_034: [If any error occurs during encoding, sasl_frame_
 261:Source\azure_iot_sdk\uamqp\src/sasl_frame_codec.c ****             LogError("Cannot get SASL frame descriptor ulong");
 822              		.loc 1 261 0 discriminator 3
 823 0076 FFF7FEFF 		bl	xlogging_get_log_function
 824              	.LVL121:
 825 007a 041E     		subs	r4, r0, #0
 826              	.LVL122:
 827 007c 00D1     		bne	.LCB877
 828 007e BCE0     		b	.L58	@long jump
 829              	.LCB877:
 830              		.loc 1 261 0 is_stmt 0 discriminator 4
 831 0080 6C4B     		ldr	r3, .L67+16
 832 0082 0193     		str	r3, [sp, #4]
 833 0084 0123     		movs	r3, #1
 834 0086 0093     		str	r3, [sp]
 835 0088 0623     		movs	r3, #6
 836 008a FF33     		adds	r3, r3, #255
 837 008c 664A     		ldr	r2, .L67+4
 838 008e 5832     		adds	r2, r2, #88
 839 0090 6649     		ldr	r1, .L67+8
 840 0092 0020     		movs	r0, #0
 841              	.LVL123:
 842 0094 A047     		blx	r4
 843              	.LVL124:
 844              	.LBE16:
 262:Source\azure_iot_sdk\uamqp\src/sasl_frame_codec.c ****             result = __FAILURE__;
 845              		.loc 1 262 0 is_stmt 1 discriminator 4
 846 0096 8324     		movs	r4, #131
 847              	.LVL125:
 848 0098 6400     		lsls	r4, r4, #1
 849 009a BEE0     		b	.L45
 850              	.LVL126:
 851              	.L48:
ARM GAS  C:\Users\Phuong\AppData\Local\Temp\ccWyCnB1.s 			page 21


 263:Source\azure_iot_sdk\uamqp\src/sasl_frame_codec.c ****         }
 264:Source\azure_iot_sdk\uamqp\src/sasl_frame_codec.c ****         /* Codes_SRS_SASL_FRAME_CODEC_01_047: [The frame body of a SASL frame MUST contain exactly 
 265:Source\azure_iot_sdk\uamqp\src/sasl_frame_codec.c ****         else if ((sasl_frame_descriptor_ulong < SASL_MECHANISMS) ||
 852              		.loc 1 265 0
 853 009c 4022     		movs	r2, #64
 854 009e 5242     		rsbs	r2, r2, #0
 855 00a0 D317     		asrs	r3, r2, #31
 856 00a2 0698     		ldr	r0, [sp, #24]
 857 00a4 0799     		ldr	r1, [sp, #28]
 858 00a6 1218     		adds	r2, r2, r0
 859 00a8 4B41     		adcs	r3, r3, r1
 860 00aa 002B     		cmp	r3, #0
 861 00ac 02D1     		bne	.L66
 862 00ae 14D1     		bne	.L49
 863 00b0 042A     		cmp	r2, #4
 864 00b2 12D9     		bls	.L49
 865              	.L66:
 866              	.LBB17:
 266:Source\azure_iot_sdk\uamqp\src/sasl_frame_codec.c ****             (sasl_frame_descriptor_ulong > SASL_OUTCOME))
 267:Source\azure_iot_sdk\uamqp\src/sasl_frame_codec.c ****         {
 268:Source\azure_iot_sdk\uamqp\src/sasl_frame_codec.c ****             /* Codes_SRS_SASL_FRAME_CODEC_01_034: [If any error occurs during encoding, sasl_frame_
 269:Source\azure_iot_sdk\uamqp\src/sasl_frame_codec.c ****             LogError("Bad SASL frame descriptor");
 867              		.loc 1 269 0 discriminator 3
 868 00b4 FFF7FEFF 		bl	xlogging_get_log_function
 869              	.LVL127:
 870 00b8 041E     		subs	r4, r0, #0
 871              	.LVL128:
 872 00ba 00D1     		bne	.LCB919
 873 00bc A0E0     		b	.L59	@long jump
 874              	.LCB919:
 875              		.loc 1 269 0 is_stmt 0 discriminator 4
 876 00be 5E4B     		ldr	r3, .L67+20
 877 00c0 0193     		str	r3, [sp, #4]
 878 00c2 0123     		movs	r3, #1
 879 00c4 0093     		str	r3, [sp]
 880 00c6 0E23     		movs	r3, #14
 881 00c8 FF33     		adds	r3, r3, #255
 882 00ca 574A     		ldr	r2, .L67+4
 883 00cc 5832     		adds	r2, r2, #88
 884 00ce 5749     		ldr	r1, .L67+8
 885 00d0 0020     		movs	r0, #0
 886              	.LVL129:
 887 00d2 A047     		blx	r4
 888              	.LVL130:
 889              	.LBE17:
 270:Source\azure_iot_sdk\uamqp\src/sasl_frame_codec.c ****             result = __FAILURE__;
 890              		.loc 1 270 0 is_stmt 1 discriminator 4
 891 00d4 8724     		movs	r4, #135
 892              	.LVL131:
 893 00d6 6400     		lsls	r4, r4, #1
 894 00d8 9FE0     		b	.L45
 895              	.LVL132:
 896              	.L49:
 271:Source\azure_iot_sdk\uamqp\src/sasl_frame_codec.c ****         }
 272:Source\azure_iot_sdk\uamqp\src/sasl_frame_codec.c ****         /* Codes_SRS_SASL_FRAME_CODEC_01_032: [The payload frame size shall be computed based on th
 273:Source\azure_iot_sdk\uamqp\src/sasl_frame_codec.c ****         /* Codes_SRS_SASL_FRAME_CODEC_01_033: [The encoded size of the sasl_frame_value and its fie
 274:Source\azure_iot_sdk\uamqp\src/sasl_frame_codec.c ****         else if (amqpvalue_get_encoded_size(sasl_frame_value, &encoded_size) != 0)
ARM GAS  C:\Users\Phuong\AppData\Local\Temp\ccWyCnB1.s 			page 22


 897              		.loc 1 274 0
 898 00da 05A9     		add	r1, sp, #20
 899 00dc 2000     		movs	r0, r4
 900 00de FFF7FEFF 		bl	amqpvalue_get_encoded_size
 901              	.LVL133:
 902 00e2 0028     		cmp	r0, #0
 903 00e4 12D0     		beq	.L51
 904              	.LBB18:
 275:Source\azure_iot_sdk\uamqp\src/sasl_frame_codec.c ****         {
 276:Source\azure_iot_sdk\uamqp\src/sasl_frame_codec.c ****             /* Codes_SRS_SASL_FRAME_CODEC_01_034: [If any error occurs during encoding, sasl_frame_
 277:Source\azure_iot_sdk\uamqp\src/sasl_frame_codec.c ****             LogError("Cannot get SASL frame encoded size");
 905              		.loc 1 277 0 discriminator 3
 906 00e6 FFF7FEFF 		bl	xlogging_get_log_function
 907              	.LVL134:
 908 00ea 041E     		subs	r4, r0, #0
 909              	.LVL135:
 910 00ec 00D1     		bne	.LCB956
 911 00ee 8AE0     		b	.L60	@long jump
 912              	.LCB956:
 913              		.loc 1 277 0 is_stmt 0 discriminator 4
 914 00f0 524B     		ldr	r3, .L67+24
 915 00f2 0193     		str	r3, [sp, #4]
 916 00f4 0123     		movs	r3, #1
 917 00f6 0093     		str	r3, [sp]
 918 00f8 1623     		movs	r3, #22
 919 00fa FF33     		adds	r3, r3, #255
 920 00fc 4A4A     		ldr	r2, .L67+4
 921 00fe 5832     		adds	r2, r2, #88
 922 0100 4A49     		ldr	r1, .L67+8
 923 0102 0020     		movs	r0, #0
 924              	.LVL136:
 925 0104 A047     		blx	r4
 926              	.LVL137:
 927              	.LBE18:
 278:Source\azure_iot_sdk\uamqp\src/sasl_frame_codec.c ****             result = __FAILURE__;
 928              		.loc 1 278 0 is_stmt 1 discriminator 4
 929 0106 8B24     		movs	r4, #139
 930              	.LVL138:
 931 0108 6400     		lsls	r4, r4, #1
 932 010a 86E0     		b	.L45
 933              	.LVL139:
 934              	.L51:
 279:Source\azure_iot_sdk\uamqp\src/sasl_frame_codec.c ****         }
 280:Source\azure_iot_sdk\uamqp\src/sasl_frame_codec.c ****             /* Codes_SRS_SASL_FRAME_CODEC_01_016: [The maximum size of a SASL frame is defined by M
 281:Source\azure_iot_sdk\uamqp\src/sasl_frame_codec.c ****         else if (encoded_size > MIX_MAX_FRAME_SIZE - 8)
 935              		.loc 1 281 0
 936 010c 0598     		ldr	r0, [sp, #20]
 937 010e FC23     		movs	r3, #252
 938 0110 5B00     		lsls	r3, r3, #1
 939 0112 9842     		cmp	r0, r3
 940 0114 11D9     		bls	.L52
 941              	.LBB19:
 282:Source\azure_iot_sdk\uamqp\src/sasl_frame_codec.c ****         {
 283:Source\azure_iot_sdk\uamqp\src/sasl_frame_codec.c ****             /* Codes_SRS_SASL_FRAME_CODEC_01_034: [If any error occurs during encoding, sasl_frame_
 284:Source\azure_iot_sdk\uamqp\src/sasl_frame_codec.c ****             LogError("SASL frame encoded size too big");
 942              		.loc 1 284 0 discriminator 3
 943 0116 FFF7FEFF 		bl	xlogging_get_log_function
ARM GAS  C:\Users\Phuong\AppData\Local\Temp\ccWyCnB1.s 			page 23


 944              	.LVL140:
 945 011a 041E     		subs	r4, r0, #0
 946              	.LVL141:
 947 011c 76D0     		beq	.L61
 948              		.loc 1 284 0 is_stmt 0 discriminator 4
 949 011e 484B     		ldr	r3, .L67+28
 950 0120 0193     		str	r3, [sp, #4]
 951 0122 0123     		movs	r3, #1
 952 0124 0093     		str	r3, [sp]
 953 0126 1C33     		adds	r3, r3, #28
 954 0128 FF33     		adds	r3, r3, #255
 955 012a 3F4A     		ldr	r2, .L67+4
 956 012c 5832     		adds	r2, r2, #88
 957 012e 3F49     		ldr	r1, .L67+8
 958 0130 0020     		movs	r0, #0
 959              	.LVL142:
 960 0132 A047     		blx	r4
 961              	.LVL143:
 962              	.LBE19:
 285:Source\azure_iot_sdk\uamqp\src/sasl_frame_codec.c ****             result = __FAILURE__;
 963              		.loc 1 285 0 is_stmt 1 discriminator 4
 964 0134 1E24     		movs	r4, #30
 965              	.LVL144:
 966 0136 FF34     		adds	r4, r4, #255
 967 0138 6FE0     		b	.L45
 968              	.LVL145:
 969              	.L52:
 970              	.LBB20:
 286:Source\azure_iot_sdk\uamqp\src/sasl_frame_codec.c ****         }
 287:Source\azure_iot_sdk\uamqp\src/sasl_frame_codec.c ****         else
 288:Source\azure_iot_sdk\uamqp\src/sasl_frame_codec.c ****         {
 289:Source\azure_iot_sdk\uamqp\src/sasl_frame_codec.c ****             unsigned char* sasl_frame_bytes = (unsigned char*)malloc(encoded_size);
 971              		.loc 1 289 0
 972 013a FFF7FEFF 		bl	malloc
 973              	.LVL146:
 974 013e 8046     		mov	r8, r0
 975              	.LVL147:
 290:Source\azure_iot_sdk\uamqp\src/sasl_frame_codec.c ****             if (sasl_frame_bytes == NULL)
 976              		.loc 1 290 0
 977 0140 0028     		cmp	r0, #0
 978 0142 11D1     		bne	.L53
 979              	.LBB21:
 291:Source\azure_iot_sdk\uamqp\src/sasl_frame_codec.c ****             {
 292:Source\azure_iot_sdk\uamqp\src/sasl_frame_codec.c ****                 LogError("Cannot allocate SASL frame bytes");
 980              		.loc 1 292 0 discriminator 3
 981 0144 FFF7FEFF 		bl	xlogging_get_log_function
 982              	.LVL148:
 983 0148 041E     		subs	r4, r0, #0
 984              	.LVL149:
 985 014a 62D0     		beq	.L62
 986              		.loc 1 292 0 is_stmt 0 discriminator 4
 987 014c 3D4B     		ldr	r3, .L67+32
 988 014e 0193     		str	r3, [sp, #4]
 989 0150 0123     		movs	r3, #1
 990 0152 0093     		str	r3, [sp]
 991 0154 2433     		adds	r3, r3, #36
 992 0156 FF33     		adds	r3, r3, #255
ARM GAS  C:\Users\Phuong\AppData\Local\Temp\ccWyCnB1.s 			page 24


 993 0158 334A     		ldr	r2, .L67+4
 994 015a 5832     		adds	r2, r2, #88
 995 015c 3349     		ldr	r1, .L67+8
 996 015e 0020     		movs	r0, #0
 997              	.LVL150:
 998 0160 A047     		blx	r4
 999              	.LVL151:
 1000              	.LBE21:
 293:Source\azure_iot_sdk\uamqp\src/sasl_frame_codec.c ****                 result = __FAILURE__;
 1001              		.loc 1 293 0 is_stmt 1 discriminator 4
 1002 0162 2624     		movs	r4, #38
 1003              	.LVL152:
 1004 0164 FF34     		adds	r4, r4, #255
 1005 0166 58E0     		b	.L45
 1006              	.LVL153:
 1007              	.L53:
 1008              	.LBB22:
 294:Source\azure_iot_sdk\uamqp\src/sasl_frame_codec.c ****             }
 295:Source\azure_iot_sdk\uamqp\src/sasl_frame_codec.c ****             else
 296:Source\azure_iot_sdk\uamqp\src/sasl_frame_codec.c ****             {
 297:Source\azure_iot_sdk\uamqp\src/sasl_frame_codec.c ****                 PAYLOAD payload;
 298:Source\azure_iot_sdk\uamqp\src/sasl_frame_codec.c **** 
 299:Source\azure_iot_sdk\uamqp\src/sasl_frame_codec.c ****                 payload.bytes = sasl_frame_bytes;
 1009              		.loc 1 299 0
 1010 0168 0890     		str	r0, [sp, #32]
 300:Source\azure_iot_sdk\uamqp\src/sasl_frame_codec.c ****                 payload.length = 0;
 1011              		.loc 1 300 0
 1012 016a 0023     		movs	r3, #0
 1013 016c 0993     		str	r3, [sp, #36]
 301:Source\azure_iot_sdk\uamqp\src/sasl_frame_codec.c **** 
 302:Source\azure_iot_sdk\uamqp\src/sasl_frame_codec.c ****                 if (amqpvalue_encode(sasl_frame_value, encode_bytes, &payload) != 0)
 1014              		.loc 1 302 0
 1015 016e 08AA     		add	r2, sp, #32
 1016 0170 3549     		ldr	r1, .L67+36
 1017 0172 2000     		movs	r0, r4
 1018              	.LVL154:
 1019 0174 FFF7FEFF 		bl	amqpvalue_encode
 1020              	.LVL155:
 1021 0178 0028     		cmp	r0, #0
 1022 017a 11D0     		beq	.L54
 1023              	.LBB23:
 303:Source\azure_iot_sdk\uamqp\src/sasl_frame_codec.c ****                 {
 304:Source\azure_iot_sdk\uamqp\src/sasl_frame_codec.c ****                     LogError("Cannot encode SASL frame value");
 1024              		.loc 1 304 0 discriminator 3
 1025 017c FFF7FEFF 		bl	xlogging_get_log_function
 1026              	.LVL156:
 1027 0180 041E     		subs	r4, r0, #0
 1028              	.LVL157:
 1029 0182 2CD0     		beq	.L63
 1030              		.loc 1 304 0 is_stmt 0 discriminator 4
 1031 0184 314B     		ldr	r3, .L67+40
 1032 0186 0193     		str	r3, [sp, #4]
 1033 0188 0123     		movs	r3, #1
 1034 018a 0093     		str	r3, [sp]
 1035 018c 3033     		adds	r3, r3, #48
 1036 018e FF33     		adds	r3, r3, #255
 1037 0190 254A     		ldr	r2, .L67+4
ARM GAS  C:\Users\Phuong\AppData\Local\Temp\ccWyCnB1.s 			page 25


 1038 0192 5832     		adds	r2, r2, #88
 1039 0194 2549     		ldr	r1, .L67+8
 1040 0196 0020     		movs	r0, #0
 1041              	.LVL158:
 1042 0198 A047     		blx	r4
 1043              	.LVL159:
 1044              	.LBE23:
 305:Source\azure_iot_sdk\uamqp\src/sasl_frame_codec.c ****                     result = __FAILURE__;
 1045              		.loc 1 305 0 is_stmt 1 discriminator 4
 1046 019a 3224     		movs	r4, #50
 1047              	.LVL160:
 1048 019c FF34     		adds	r4, r4, #255
 1049 019e 25E0     		b	.L55
 1050              	.LVL161:
 1051              	.L54:
 306:Source\azure_iot_sdk\uamqp\src/sasl_frame_codec.c ****                 }
 307:Source\azure_iot_sdk\uamqp\src/sasl_frame_codec.c ****                 else
 308:Source\azure_iot_sdk\uamqp\src/sasl_frame_codec.c ****                 {
 309:Source\azure_iot_sdk\uamqp\src/sasl_frame_codec.c ****                     /* Codes_SRS_SASL_FRAME_CODEC_01_031: [sasl_frame_codec_encode_frame shall enco
 310:Source\azure_iot_sdk\uamqp\src/sasl_frame_codec.c ****                     /* Codes_SRS_SASL_FRAME_CODEC_01_012: [Bytes 6 and 7 of the header are ignored.
 311:Source\azure_iot_sdk\uamqp\src/sasl_frame_codec.c ****                     /* Codes_SRS_SASL_FRAME_CODEC_01_013: [Implementations SHOULD set these to 0x00
 312:Source\azure_iot_sdk\uamqp\src/sasl_frame_codec.c ****                     /* Codes_SRS_SASL_FRAME_CODEC_01_014: [The extended header is ignored.] */
 313:Source\azure_iot_sdk\uamqp\src/sasl_frame_codec.c ****                     /* Codes_SRS_SASL_FRAME_CODEC_01_015: [Implementations SHOULD therefore set DOF
 314:Source\azure_iot_sdk\uamqp\src/sasl_frame_codec.c ****                     if (frame_codec_encode_frame(sasl_frame_codec_instance->frame_codec, FRAME_TYPE
 1052              		.loc 1 314 0
 1053 01a0 2868     		ldr	r0, [r5]
 1054 01a2 0397     		str	r7, [sp, #12]
 1055 01a4 0296     		str	r6, [sp, #8]
 1056 01a6 0023     		movs	r3, #0
 1057 01a8 0193     		str	r3, [sp, #4]
 1058 01aa 0093     		str	r3, [sp]
 1059 01ac 0133     		adds	r3, r3, #1
 1060 01ae 08AA     		add	r2, sp, #32
 1061 01b0 0121     		movs	r1, #1
 1062 01b2 FFF7FEFF 		bl	frame_codec_encode_frame
 1063              	.LVL162:
 1064 01b6 0028     		cmp	r0, #0
 1065 01b8 14D0     		beq	.L64
 1066              	.LBB24:
 315:Source\azure_iot_sdk\uamqp\src/sasl_frame_codec.c ****                     {
 316:Source\azure_iot_sdk\uamqp\src/sasl_frame_codec.c ****                         /* Codes_SRS_SASL_FRAME_CODEC_01_034: [If any error occurs during encoding,
 317:Source\azure_iot_sdk\uamqp\src/sasl_frame_codec.c ****                         LogError("Cannot encode SASL frame");
 1067              		.loc 1 317 0 discriminator 3
 1068 01ba FFF7FEFF 		bl	xlogging_get_log_function
 1069              	.LVL163:
 1070 01be 041E     		subs	r4, r0, #0
 1071              	.LVL164:
 1072 01c0 12D0     		beq	.L65
 1073              		.loc 1 317 0 is_stmt 0 discriminator 4
 1074 01c2 234B     		ldr	r3, .L67+44
 1075 01c4 0193     		str	r3, [sp, #4]
 1076 01c6 0123     		movs	r3, #1
 1077 01c8 0093     		str	r3, [sp]
 1078 01ca 3E23     		movs	r3, #62
 1079 01cc FF33     		adds	r3, r3, #255
 1080 01ce 164A     		ldr	r2, .L67+4
 1081 01d0 5832     		adds	r2, r2, #88
ARM GAS  C:\Users\Phuong\AppData\Local\Temp\ccWyCnB1.s 			page 26


 1082 01d2 1649     		ldr	r1, .L67+8
 1083 01d4 0020     		movs	r0, #0
 1084              	.LVL165:
 1085 01d6 A047     		blx	r4
 1086              	.LVL166:
 1087              	.LBE24:
 318:Source\azure_iot_sdk\uamqp\src/sasl_frame_codec.c ****                         result = __FAILURE__;
 1088              		.loc 1 318 0 is_stmt 1 discriminator 4
 1089 01d8 9F24     		movs	r4, #159
 1090              	.LVL167:
 1091 01da 6400     		lsls	r4, r4, #1
 1092 01dc 06E0     		b	.L55
 1093              	.LVL168:
 1094              	.L63:
 305:Source\azure_iot_sdk\uamqp\src/sasl_frame_codec.c ****                 }
 1095              		.loc 1 305 0
 1096 01de 3224     		movs	r4, #50
 1097 01e0 FF34     		adds	r4, r4, #255
 1098 01e2 03E0     		b	.L55
 1099              	.LVL169:
 1100              	.L64:
 319:Source\azure_iot_sdk\uamqp\src/sasl_frame_codec.c ****                     }
 320:Source\azure_iot_sdk\uamqp\src/sasl_frame_codec.c ****                     else
 321:Source\azure_iot_sdk\uamqp\src/sasl_frame_codec.c ****                     {
 322:Source\azure_iot_sdk\uamqp\src/sasl_frame_codec.c ****                         result = 0;
 1101              		.loc 1 322 0
 1102 01e4 0024     		movs	r4, #0
 1103              	.LVL170:
 1104 01e6 01E0     		b	.L55
 1105              	.LVL171:
 1106              	.L65:
 318:Source\azure_iot_sdk\uamqp\src/sasl_frame_codec.c ****                     }
 1107              		.loc 1 318 0
 1108 01e8 9F24     		movs	r4, #159
 1109 01ea 6400     		lsls	r4, r4, #1
 1110              	.LVL172:
 1111              	.L55:
 323:Source\azure_iot_sdk\uamqp\src/sasl_frame_codec.c ****                     }
 324:Source\azure_iot_sdk\uamqp\src/sasl_frame_codec.c ****                 }
 325:Source\azure_iot_sdk\uamqp\src/sasl_frame_codec.c **** 
 326:Source\azure_iot_sdk\uamqp\src/sasl_frame_codec.c ****                 free(sasl_frame_bytes);
 1112              		.loc 1 326 0
 1113 01ec 4046     		mov	r0, r8
 1114 01ee FFF7FEFF 		bl	free
 1115              	.LVL173:
 1116 01f2 12E0     		b	.L45
 1117              	.LVL174:
 1118              	.L57:
 1119              	.LBE22:
 1120              	.LBE20:
 256:Source\azure_iot_sdk\uamqp\src/sasl_frame_codec.c ****         }
 1121              		.loc 1 256 0
 1122 01f4 8024     		movs	r4, #128
 1123 01f6 6400     		lsls	r4, r4, #1
 1124 01f8 0FE0     		b	.L45
 1125              	.LVL175:
 1126              	.L58:
ARM GAS  C:\Users\Phuong\AppData\Local\Temp\ccWyCnB1.s 			page 27


 262:Source\azure_iot_sdk\uamqp\src/sasl_frame_codec.c ****         }
 1127              		.loc 1 262 0
 1128 01fa 8324     		movs	r4, #131
 1129 01fc 6400     		lsls	r4, r4, #1
 1130 01fe 0CE0     		b	.L45
 1131              	.LVL176:
 1132              	.L59:
 270:Source\azure_iot_sdk\uamqp\src/sasl_frame_codec.c ****         }
 1133              		.loc 1 270 0
 1134 0200 8724     		movs	r4, #135
 1135 0202 6400     		lsls	r4, r4, #1
 1136 0204 09E0     		b	.L45
 1137              	.LVL177:
 1138              	.L60:
 278:Source\azure_iot_sdk\uamqp\src/sasl_frame_codec.c ****         }
 1139              		.loc 1 278 0
 1140 0206 8B24     		movs	r4, #139
 1141 0208 6400     		lsls	r4, r4, #1
 1142 020a 06E0     		b	.L45
 1143              	.LVL178:
 1144              	.L61:
 285:Source\azure_iot_sdk\uamqp\src/sasl_frame_codec.c ****         }
 1145              		.loc 1 285 0
 1146 020c 1E24     		movs	r4, #30
 1147 020e FF34     		adds	r4, r4, #255
 1148 0210 03E0     		b	.L45
 1149              	.LVL179:
 1150              	.L62:
 1151              	.LBB25:
 293:Source\azure_iot_sdk\uamqp\src/sasl_frame_codec.c ****             }
 1152              		.loc 1 293 0
 1153 0212 2624     		movs	r4, #38
 1154 0214 FF34     		adds	r4, r4, #255
 1155              	.LVL180:
 1156 0216 00E0     		b	.L45
 1157              	.LVL181:
 1158              	.L56:
 1159              	.LBE25:
 1160              	.LBE14:
 244:Source\azure_iot_sdk\uamqp\src/sasl_frame_codec.c ****     }
 1161              		.loc 1 244 0
 1162 0218 F424     		movs	r4, #244
 1163              	.LVL182:
 1164              	.L45:
 327:Source\azure_iot_sdk\uamqp\src/sasl_frame_codec.c ****             }
 328:Source\azure_iot_sdk\uamqp\src/sasl_frame_codec.c ****         }
 329:Source\azure_iot_sdk\uamqp\src/sasl_frame_codec.c ****     }
 330:Source\azure_iot_sdk\uamqp\src/sasl_frame_codec.c **** 
 331:Source\azure_iot_sdk\uamqp\src/sasl_frame_codec.c ****     return result;
 332:Source\azure_iot_sdk\uamqp\src/sasl_frame_codec.c **** }
 1165              		.loc 1 332 0
 1166 021a 2000     		movs	r0, r4
 1167 021c 0AB0     		add	sp, sp, #40
 1168              		@ sp needed
 1169              	.LVL183:
 1170              	.LVL184:
 1171              	.LVL185:
ARM GAS  C:\Users\Phuong\AppData\Local\Temp\ccWyCnB1.s 			page 28


 1172 021e 04BC     		pop	{r2}
 1173 0220 9046     		mov	r8, r2
 1174 0222 F0BD     		pop	{r4, r5, r6, r7, pc}
 1175              	.L68:
 1176              		.align	2
 1177              	.L67:
 1178 0224 BC010000 		.word	.LC33
 1179 0228 00000000 		.word	.LANCHOR0
 1180 022c 00000000 		.word	.LC1
 1181 0230 F8010000 		.word	.LC35
 1182 0234 24020000 		.word	.LC37
 1183 0238 4C020000 		.word	.LC39
 1184 023c 68020000 		.word	.LC41
 1185 0240 8C020000 		.word	.LC43
 1186 0244 AC020000 		.word	.LC45
 1187 0248 00000000 		.word	encode_bytes
 1188 024c D0020000 		.word	.LC48
 1189 0250 F0020000 		.word	.LC50
 1190              		.cfi_endproc
 1191              	.LFE6:
 1192              		.size	sasl_frame_codec_encode_frame, .-sasl_frame_codec_encode_frame
 1193              		.section	.rodata
 1194              		.align	2
 1195              		.set	.LANCHOR0,. + 0
 1196              		.type	__func__.7385, %object
 1197              		.size	__func__.7385, 15
 1198              	__func__.7385:
 1199 0000 6672616D 		.ascii	"frame_received\000"
 1199      655F7265 
 1199      63656976 
 1199      656400
 1200 000f 00       		.space	1
 1201              		.type	__func__.7370, %object
 1202              		.size	__func__.7370, 19
 1203              	__func__.7370:
 1204 0010 616D7170 		.ascii	"amqp_value_decoded\000"
 1204      5F76616C 
 1204      75655F64 
 1204      65636F64 
 1204      656400
 1205 0023 00       		.space	1
 1206              		.type	__func__.7415, %object
 1207              		.size	__func__.7415, 24
 1208              	__func__.7415:
 1209 0024 7361736C 		.ascii	"sasl_frame_codec_create\000"
 1209      5F667261 
 1209      6D655F63 
 1209      6F646563 
 1209      5F637265 
 1210              		.type	__func__.7431, %object
 1211              		.size	__func__.7431, 25
 1212              	__func__.7431:
 1213 003c 7361736C 		.ascii	"sasl_frame_codec_destroy\000"
 1213      5F667261 
 1213      6D655F63 
 1213      6F646563 
 1213      5F646573 
ARM GAS  C:\Users\Phuong\AppData\Local\Temp\ccWyCnB1.s 			page 29


 1214 0055 000000   		.space	3
 1215              		.type	__func__.7444, %object
 1216              		.size	__func__.7444, 30
 1217              	__func__.7444:
 1218 0058 7361736C 		.ascii	"sasl_frame_codec_encode_frame\000"
 1218      5F667261 
 1218      6D655F63 
 1218      6F646563 
 1218      5F656E63 
 1219              		.section	.rodata.str1.4,"aMS",%progbits,1
 1220              		.align	2
 1221              	.LC1:
 1222 0000 536F7572 		.ascii	"Source\\azure_iot_sdk\\uamqp\\src\\sasl_frame_codec"
 1222      63655C61 
 1222      7A757265 
 1222      5F696F74 
 1222      5F73646B 
 1223 002f 2E6300   		.ascii	".c\000"
 1224 0032 0000     		.space	2
 1225              	.LC3:
 1226 0034 42616420 		.ascii	"Bad SASL frame size\000"
 1226      5341534C 
 1226      20667261 
 1226      6D652073 
 1226      697A6500 
 1227              	.LC5:
 1228 0048 436F756C 		.ascii	"Could not decode SASL frame AMQP value\000"
 1228      64206E6F 
 1228      74206465 
 1228      636F6465 
 1228      20534153 
 1229 006f 00       		.space	1
 1230              	.LC7:
 1231 0070 4D6F7265 		.ascii	"More than one AMQP value detected in SASL frame\000"
 1231      20746861 
 1231      6E206F6E 
 1231      6520414D 
 1231      51502076 
 1232              	.LC11:
 1233 00a0 43616E6E 		.ascii	"Cannot get frame descriptor\000"
 1233      6F742067 
 1233      65742066 
 1233      72616D65 
 1233      20646573 
 1234              	.LC13:
 1235 00bc 4E6F7420 		.ascii	"Not a SASL frame\000"
 1235      61205341 
 1235      534C2066 
 1235      72616D65 
 1235      00
 1236 00cd 000000   		.space	3
 1237              	.LC17:
 1238 00d0 42616420 		.ascii	"Bad arguments: frame_codec = %p, on_sasl_frame_rece"
 1238      61726775 
 1238      6D656E74 
 1238      733A2066 
 1238      72616D65 
ARM GAS  C:\Users\Phuong\AppData\Local\Temp\ccWyCnB1.s 			page 30


 1239 0103 69766564 		.ascii	"ived = %p, on_sasl_frame_codec_error = %p\000"
 1239      203D2025 
 1239      702C206F 
 1239      6E5F7361 
 1239      736C5F66 
 1240 012d 000000   		.space	3
 1241              	.LC19:
 1242 0130 43616E6E 		.ascii	"Cannot allocate memory for SASL frame codec\000"
 1242      6F742061 
 1242      6C6C6F63 
 1242      61746520 
 1242      6D656D6F 
 1243              	.LC22:
 1244 015c 43616E6E 		.ascii	"Cannot create AMQP value decoder\000"
 1244      6F742063 
 1244      72656174 
 1244      6520414D 
 1244      51502076 
 1245 017d 000000   		.space	3
 1246              	.LC25:
 1247 0180 43616E6E 		.ascii	"Cannot subscribe for SASL frames\000"
 1247      6F742073 
 1247      75627363 
 1247      72696265 
 1247      20666F72 
 1248 01a1 000000   		.space	3
 1249              	.LC29:
 1250 01a4 4E554C4C 		.ascii	"NULL sasl_frame_codec\000"
 1250      20736173 
 1250      6C5F6672 
 1250      616D655F 
 1250      636F6465 
 1251 01ba 0000     		.space	2
 1252              	.LC33:
 1253 01bc 42616420 		.ascii	"Bad arguments: sasl_frame_codec = %p, sasl_frame_va"
 1253      61726775 
 1253      6D656E74 
 1253      733A2073 
 1253      61736C5F 
 1254 01ef 6C756520 		.ascii	"lue = %p\000"
 1254      3D202570 
 1254      00
 1255              	.LC35:
 1256 01f8 43616E6E 		.ascii	"Cannot get SASL frame descriptor AMQP value\000"
 1256      6F742067 
 1256      65742053 
 1256      41534C20 
 1256      6672616D 
 1257              	.LC37:
 1258 0224 43616E6E 		.ascii	"Cannot get SASL frame descriptor ulong\000"
 1258      6F742067 
 1258      65742053 
 1258      41534C20 
 1258      6672616D 
 1259 024b 00       		.space	1
 1260              	.LC39:
 1261 024c 42616420 		.ascii	"Bad SASL frame descriptor\000"
ARM GAS  C:\Users\Phuong\AppData\Local\Temp\ccWyCnB1.s 			page 31


 1261      5341534C 
 1261      20667261 
 1261      6D652064 
 1261      65736372 
 1262 0266 0000     		.space	2
 1263              	.LC41:
 1264 0268 43616E6E 		.ascii	"Cannot get SASL frame encoded size\000"
 1264      6F742067 
 1264      65742053 
 1264      41534C20 
 1264      6672616D 
 1265 028b 00       		.space	1
 1266              	.LC43:
 1267 028c 5341534C 		.ascii	"SASL frame encoded size too big\000"
 1267      20667261 
 1267      6D652065 
 1267      6E636F64 
 1267      65642073 
 1268              	.LC45:
 1269 02ac 43616E6E 		.ascii	"Cannot allocate SASL frame bytes\000"
 1269      6F742061 
 1269      6C6C6F63 
 1269      61746520 
 1269      5341534C 
 1270 02cd 000000   		.space	3
 1271              	.LC48:
 1272 02d0 43616E6E 		.ascii	"Cannot encode SASL frame value\000"
 1272      6F742065 
 1272      6E636F64 
 1272      65205341 
 1272      534C2066 
 1273 02ef 00       		.space	1
 1274              	.LC50:
 1275 02f0 43616E6E 		.ascii	"Cannot encode SASL frame\000"
 1275      6F742065 
 1275      6E636F64 
 1275      65205341 
 1275      534C2066 
 1276              		.text
 1277              	.Letext0:
 1278              		.file 2 "c:\\program files (x86)\\cypress\\psoc creator\\4.2\\psoc creator\\import\\gnu\\arm\\5.4.
 1279              		.file 3 "c:\\program files (x86)\\cypress\\psoc creator\\4.2\\psoc creator\\import\\gnu\\arm\\5.4.
 1280              		.file 4 "c:\\program files (x86)\\cypress\\psoc creator\\4.2\\psoc creator\\import\\gnu\\arm\\5.4.
 1281              		.file 5 ".\\Source\\azure_iot_sdk\\c-utility\\inc/azure_c_shared_utility/xlogging.h"
 1282              		.file 6 ".\\Source\\azure_iot_sdk\\uamqp\\inc/azure_uamqp_c/amqpvalue.h"
 1283              		.file 7 ".\\Source\\azure_iot_sdk\\uamqp\\inc/azure_uamqp_c/frame_codec.h"
 1284              		.file 8 ".\\Source\\azure_iot_sdk\\uamqp\\inc/azure_uamqp_c/sasl_frame_codec.h"
 1285              		.file 9 ".\\Source\\azure_iot_sdk\\uamqp\\inc/azure_uamqp_c/amqp_definitions_sasl_mechanisms.h"
 1286              		.file 10 ".\\Source\\azure_iot_sdk\\uamqp\\inc/azure_uamqp_c/amqp_definitions_sasl_init.h"
 1287              		.file 11 ".\\Source\\azure_iot_sdk\\uamqp\\inc/azure_uamqp_c/amqp_definitions_sasl_challenge.h"
 1288              		.file 12 ".\\Source\\azure_iot_sdk\\uamqp\\inc/azure_uamqp_c/amqp_definitions_sasl_response.h"
 1289              		.file 13 ".\\Source\\azure_iot_sdk\\uamqp\\inc/azure_uamqp_c/amqp_definitions_sasl_outcome.h"
 1290              		.file 14 "c:\\program files (x86)\\cypress\\psoc creator\\4.2\\psoc creator\\import\\gnu\\arm\\5.4