ARM GAS  C:\Users\Phuong\AppData\Local\Temp\cc5e3qAd.s 			page 1


   1              		.syntax unified
   2              		.cpu cortex-m0plus
   3              		.fpu softvfp
   4              		.eabi_attribute 20, 1
   5              		.eabi_attribute 21, 1
   6              		.eabi_attribute 23, 3
   7              		.eabi_attribute 24, 1
   8              		.eabi_attribute 25, 1
   9              		.eabi_attribute 26, 1
  10              		.eabi_attribute 30, 1
  11              		.eabi_attribute 34, 0
  12              		.eabi_attribute 18, 4
  13              		.thumb
  14              		.syntax unified
  15              		.file	"sasl_mechanism.c"
  16              		.text
  17              	.Ltext0:
  18              		.cfi_sections	.debug_frame
  19              		.section	.text.saslmechanism_create,"ax",%progbits
  20              		.align	2
  21              		.global	saslmechanism_create
  22              		.code	16
  23              		.thumb_func
  24              		.type	saslmechanism_create, %function
  25              	saslmechanism_create:
  26              	.LFB1:
  27              		.file 1 "Source\\azure_iot_sdk\\uamqp\\src\\sasl_mechanism.c"
   1:Source\azure_iot_sdk\uamqp\src/sasl_mechanism.c **** // Copyright (c) Microsoft. All rights reserved.
   2:Source\azure_iot_sdk\uamqp\src/sasl_mechanism.c **** // Licensed under the MIT license. See LICENSE file in the project root for full license informatio
   3:Source\azure_iot_sdk\uamqp\src/sasl_mechanism.c **** 
   4:Source\azure_iot_sdk\uamqp\src/sasl_mechanism.c **** #include <stdlib.h>
   5:Source\azure_iot_sdk\uamqp\src/sasl_mechanism.c **** #include "azure_c_shared_utility/optimize_size.h"
   6:Source\azure_iot_sdk\uamqp\src/sasl_mechanism.c **** #include "azure_c_shared_utility/gballoc.h"
   7:Source\azure_iot_sdk\uamqp\src/sasl_mechanism.c **** #include "azure_c_shared_utility/xlogging.h"
   8:Source\azure_iot_sdk\uamqp\src/sasl_mechanism.c **** #include "azure_uamqp_c/sasl_mechanism.h"
   9:Source\azure_iot_sdk\uamqp\src/sasl_mechanism.c **** 
  10:Source\azure_iot_sdk\uamqp\src/sasl_mechanism.c **** typedef struct SASL_MECHANISM_INSTANCE_TAG
  11:Source\azure_iot_sdk\uamqp\src/sasl_mechanism.c **** {
  12:Source\azure_iot_sdk\uamqp\src/sasl_mechanism.c ****     const SASL_MECHANISM_INTERFACE_DESCRIPTION* sasl_mechanism_interface_description;
  13:Source\azure_iot_sdk\uamqp\src/sasl_mechanism.c ****     CONCRETE_SASL_MECHANISM_HANDLE concrete_sasl_mechanism_handle;
  14:Source\azure_iot_sdk\uamqp\src/sasl_mechanism.c **** } SASL_MECHANISM_INSTANCE;
  15:Source\azure_iot_sdk\uamqp\src/sasl_mechanism.c **** 
  16:Source\azure_iot_sdk\uamqp\src/sasl_mechanism.c **** SASL_MECHANISM_HANDLE saslmechanism_create(const SASL_MECHANISM_INTERFACE_DESCRIPTION* sasl_mechani
  17:Source\azure_iot_sdk\uamqp\src/sasl_mechanism.c **** {
  28              		.loc 1 17 0
  29              		.cfi_startproc
  30              		@ args = 0, pretend = 0, frame = 0
  31              		@ frame_needed = 0, uses_anonymous_args = 0
  32              	.LVL0:
  33 0000 70B5     		push	{r4, r5, r6, lr}
  34              		.cfi_def_cfa_offset 16
  35              		.cfi_offset 4, -16
  36              		.cfi_offset 5, -12
  37              		.cfi_offset 6, -8
  38              		.cfi_offset 14, -4
  39 0002 86B0     		sub	sp, sp, #24
  40              		.cfi_def_cfa_offset 40
ARM GAS  C:\Users\Phuong\AppData\Local\Temp\cc5e3qAd.s 			page 2


  41 0004 0400     		movs	r4, r0
  42 0006 0E00     		movs	r6, r1
  18:Source\azure_iot_sdk\uamqp\src/sasl_mechanism.c ****     SASL_MECHANISM_HANDLE result;
  19:Source\azure_iot_sdk\uamqp\src/sasl_mechanism.c **** 
  20:Source\azure_iot_sdk\uamqp\src/sasl_mechanism.c ****     /* Codes_SRS_SASL_MECHANISM_01_004: [If the argument `sasl_mechanism_interface_description` is 
  21:Source\azure_iot_sdk\uamqp\src/sasl_mechanism.c ****     if (sasl_mechanism_interface_description == NULL)
  43              		.loc 1 21 0
  44 0008 0028     		cmp	r0, #0
  45 000a 0ED1     		bne	.L2
  46              	.LBB2:
  22:Source\azure_iot_sdk\uamqp\src/sasl_mechanism.c ****     {
  23:Source\azure_iot_sdk\uamqp\src/sasl_mechanism.c ****         LogError("NULL sasl_mechanism_interface_description");
  47              		.loc 1 23 0 discriminator 3
  48 000c FFF7FEFF 		bl	xlogging_get_log_function
  49              	.LVL1:
  50 0010 041E     		subs	r4, r0, #0
  51              	.LVL2:
  52 0012 59D0     		beq	.L8
  53              		.loc 1 23 0 is_stmt 0 discriminator 4
  54 0014 2F4B     		ldr	r3, .L10
  55 0016 0193     		str	r3, [sp, #4]
  56 0018 0123     		movs	r3, #1
  57 001a 0093     		str	r3, [sp]
  58 001c 1633     		adds	r3, r3, #22
  59 001e 2E4A     		ldr	r2, .L10+4
  60 0020 2E49     		ldr	r1, .L10+8
  61 0022 0020     		movs	r0, #0
  62              	.LVL3:
  63 0024 A047     		blx	r4
  64              	.LVL4:
  65              	.LBE2:
  24:Source\azure_iot_sdk\uamqp\src/sasl_mechanism.c ****         result = NULL;
  66              		.loc 1 24 0 is_stmt 1 discriminator 4
  67 0026 0025     		movs	r5, #0
  68 0028 51E0     		b	.L3
  69              	.LVL5:
  70              	.L2:
  25:Source\azure_iot_sdk\uamqp\src/sasl_mechanism.c ****     }
  26:Source\azure_iot_sdk\uamqp\src/sasl_mechanism.c ****     /* Codes_SRS_SASL_MECHANISM_01_005: [If any `sasl_mechanism_interface_description` member is NU
  27:Source\azure_iot_sdk\uamqp\src/sasl_mechanism.c ****     else if ((sasl_mechanism_interface_description->concrete_sasl_mechanism_create == NULL) ||
  71              		.loc 1 27 0
  72 002a 0368     		ldr	r3, [r0]
  73 002c 002B     		cmp	r3, #0
  74 002e 08D0     		beq	.L4
  75              		.loc 1 27 0 is_stmt 0 discriminator 1
  76 0030 4368     		ldr	r3, [r0, #4]
  77 0032 002B     		cmp	r3, #0
  78 0034 05D0     		beq	.L4
  28:Source\azure_iot_sdk\uamqp\src/sasl_mechanism.c ****         (sasl_mechanism_interface_description->concrete_sasl_mechanism_destroy == NULL) ||
  79              		.loc 1 28 0 is_stmt 1
  80 0036 8368     		ldr	r3, [r0, #8]
  81 0038 002B     		cmp	r3, #0
  82 003a 02D0     		beq	.L4
  29:Source\azure_iot_sdk\uamqp\src/sasl_mechanism.c ****         (sasl_mechanism_interface_description->concrete_sasl_mechanism_get_init_bytes == NULL) ||
  83              		.loc 1 29 0
  84 003c C368     		ldr	r3, [r0, #12]
  85 003e 002B     		cmp	r3, #0
ARM GAS  C:\Users\Phuong\AppData\Local\Temp\cc5e3qAd.s 			page 3


  86 0040 16D1     		bne	.L5
  87              	.L4:
  88              	.LBB3:
  30:Source\azure_iot_sdk\uamqp\src/sasl_mechanism.c ****         (sasl_mechanism_interface_description->concrete_sasl_mechanism_get_mechanism_name == NULL))
  31:Source\azure_iot_sdk\uamqp\src/sasl_mechanism.c ****     {
  32:Source\azure_iot_sdk\uamqp\src/sasl_mechanism.c ****         LogError("Bad interface, concrete_sasl_mechanism_create = %p, concrete_sasl_mechanism_destr
  89              		.loc 1 32 0 discriminator 3
  90 0042 FFF7FEFF 		bl	xlogging_get_log_function
  91              	.LVL6:
  92 0046 051E     		subs	r5, r0, #0
  93              	.LVL7:
  94 0048 40D0     		beq	.L9
  95              		.loc 1 32 0 is_stmt 0 discriminator 4
  96 004a E368     		ldr	r3, [r4, #12]
  97 004c 0593     		str	r3, [sp, #20]
  98 004e A368     		ldr	r3, [r4, #8]
  99 0050 0493     		str	r3, [sp, #16]
 100 0052 6368     		ldr	r3, [r4, #4]
 101 0054 0393     		str	r3, [sp, #12]
 102 0056 2368     		ldr	r3, [r4]
 103 0058 0293     		str	r3, [sp, #8]
 104 005a 214B     		ldr	r3, .L10+12
 105 005c 0193     		str	r3, [sp, #4]
 106 005e 0123     		movs	r3, #1
 107 0060 0093     		str	r3, [sp]
 108 0062 2333     		adds	r3, r3, #35
 109 0064 1C4A     		ldr	r2, .L10+4
 110 0066 1D49     		ldr	r1, .L10+8
 111 0068 0020     		movs	r0, #0
 112              	.LVL8:
 113 006a A847     		blx	r5
 114              	.LVL9:
 115              	.LBE3:
  33:Source\azure_iot_sdk\uamqp\src/sasl_mechanism.c ****             sasl_mechanism_interface_description->concrete_sasl_mechanism_create,
  34:Source\azure_iot_sdk\uamqp\src/sasl_mechanism.c ****             sasl_mechanism_interface_description->concrete_sasl_mechanism_destroy,
  35:Source\azure_iot_sdk\uamqp\src/sasl_mechanism.c ****             sasl_mechanism_interface_description->concrete_sasl_mechanism_get_init_bytes,
  36:Source\azure_iot_sdk\uamqp\src/sasl_mechanism.c ****             sasl_mechanism_interface_description->concrete_sasl_mechanism_get_mechanism_name);
  37:Source\azure_iot_sdk\uamqp\src/sasl_mechanism.c ****         result = NULL;
 116              		.loc 1 37 0 is_stmt 1 discriminator 4
 117 006c 0025     		movs	r5, #0
 118              	.LVL10:
 119 006e 2EE0     		b	.L3
 120              	.LVL11:
 121              	.L5:
  38:Source\azure_iot_sdk\uamqp\src/sasl_mechanism.c ****     }
  39:Source\azure_iot_sdk\uamqp\src/sasl_mechanism.c ****     else
  40:Source\azure_iot_sdk\uamqp\src/sasl_mechanism.c ****     {
  41:Source\azure_iot_sdk\uamqp\src/sasl_mechanism.c ****         result = (SASL_MECHANISM_HANDLE)malloc(sizeof(SASL_MECHANISM_INSTANCE));
 122              		.loc 1 41 0
 123 0070 0820     		movs	r0, #8
 124              	.LVL12:
 125 0072 FFF7FEFF 		bl	malloc
 126              	.LVL13:
 127 0076 051E     		subs	r5, r0, #0
 128              	.LVL14:
  42:Source\azure_iot_sdk\uamqp\src/sasl_mechanism.c ****         if (result == NULL)
 129              		.loc 1 42 0
ARM GAS  C:\Users\Phuong\AppData\Local\Temp\cc5e3qAd.s 			page 4


 130 0078 0DD1     		bne	.L6
 131              	.LBB4:
  43:Source\azure_iot_sdk\uamqp\src/sasl_mechanism.c ****         {
  44:Source\azure_iot_sdk\uamqp\src/sasl_mechanism.c ****             /* Codes_SRS_SASL_MECHANISM_01_006: [If allocating the memory needed for the SASL mecha
  45:Source\azure_iot_sdk\uamqp\src/sasl_mechanism.c ****             LogError("Could not allocate memory for SASL mechanism");
 132              		.loc 1 45 0 discriminator 3
 133 007a FFF7FEFF 		bl	xlogging_get_log_function
 134              	.LVL15:
 135 007e 041E     		subs	r4, r0, #0
 136              	.LVL16:
 137 0080 25D0     		beq	.L3
 138              		.loc 1 45 0 is_stmt 0 discriminator 4
 139 0082 184B     		ldr	r3, .L10+16
 140 0084 0193     		str	r3, [sp, #4]
 141 0086 0123     		movs	r3, #1
 142 0088 0093     		str	r3, [sp]
 143 008a 2C33     		adds	r3, r3, #44
 144 008c 124A     		ldr	r2, .L10+4
 145 008e 1349     		ldr	r1, .L10+8
 146 0090 0020     		movs	r0, #0
 147              	.LVL17:
 148 0092 A047     		blx	r4
 149              	.LVL18:
 150 0094 1BE0     		b	.L3
 151              	.LVL19:
 152              	.L6:
 153              	.LBE4:
  46:Source\azure_iot_sdk\uamqp\src/sasl_mechanism.c ****         }
  47:Source\azure_iot_sdk\uamqp\src/sasl_mechanism.c ****         else
  48:Source\azure_iot_sdk\uamqp\src/sasl_mechanism.c ****         {
  49:Source\azure_iot_sdk\uamqp\src/sasl_mechanism.c ****             result->sasl_mechanism_interface_description = sasl_mechanism_interface_description;
 154              		.loc 1 49 0 is_stmt 1
 155 0096 0460     		str	r4, [r0]
  50:Source\azure_iot_sdk\uamqp\src/sasl_mechanism.c **** 
  51:Source\azure_iot_sdk\uamqp\src/sasl_mechanism.c ****             /* Codes_SRS_SASL_MECHANISM_01_002: [In order to instantiate the concrete SASL mechanis
  52:Source\azure_iot_sdk\uamqp\src/sasl_mechanism.c ****             result->concrete_sasl_mechanism_handle = result->sasl_mechanism_interface_description->
 156              		.loc 1 52 0
 157 0098 2368     		ldr	r3, [r4]
 158 009a 3000     		movs	r0, r6
 159              	.LVL20:
 160 009c 9847     		blx	r3
 161              	.LVL21:
 162 009e 6860     		str	r0, [r5, #4]
  53:Source\azure_iot_sdk\uamqp\src/sasl_mechanism.c ****             if (result->concrete_sasl_mechanism_handle == NULL)
 163              		.loc 1 53 0
 164 00a0 0028     		cmp	r0, #0
 165 00a2 14D1     		bne	.L3
 166              	.LBB5:
  54:Source\azure_iot_sdk\uamqp\src/sasl_mechanism.c ****             {
  55:Source\azure_iot_sdk\uamqp\src/sasl_mechanism.c ****                 /* Codes_SRS_SASL_MECHANISM_01_003: [If the underlying `concrete_sasl_mechanism_cre
  56:Source\azure_iot_sdk\uamqp\src/sasl_mechanism.c ****                 LogError("concrete_sasl_mechanism_create failed");
 167              		.loc 1 56 0 discriminator 3
 168 00a4 FFF7FEFF 		bl	xlogging_get_log_function
 169              	.LVL22:
 170 00a8 041E     		subs	r4, r0, #0
 171              	.LVL23:
 172 00aa 08D0     		beq	.L7
ARM GAS  C:\Users\Phuong\AppData\Local\Temp\cc5e3qAd.s 			page 5


 173              		.loc 1 56 0 is_stmt 0 discriminator 4
 174 00ac 0E4B     		ldr	r3, .L10+20
 175 00ae 0193     		str	r3, [sp, #4]
 176 00b0 0123     		movs	r3, #1
 177 00b2 0093     		str	r3, [sp]
 178 00b4 3733     		adds	r3, r3, #55
 179 00b6 084A     		ldr	r2, .L10+4
 180 00b8 0849     		ldr	r1, .L10+8
 181 00ba 0020     		movs	r0, #0
 182              	.LVL24:
 183 00bc A047     		blx	r4
 184              	.LVL25:
 185              	.L7:
 186              	.LBE5:
  57:Source\azure_iot_sdk\uamqp\src/sasl_mechanism.c ****                 free(result);
 187              		.loc 1 57 0 is_stmt 1
 188 00be 2800     		movs	r0, r5
 189 00c0 FFF7FEFF 		bl	free
 190              	.LVL26:
  58:Source\azure_iot_sdk\uamqp\src/sasl_mechanism.c ****                 result = NULL;
 191              		.loc 1 58 0
 192 00c4 0025     		movs	r5, #0
 193 00c6 02E0     		b	.L3
 194              	.LVL27:
 195              	.L8:
  24:Source\azure_iot_sdk\uamqp\src/sasl_mechanism.c ****     }
 196              		.loc 1 24 0
 197 00c8 0025     		movs	r5, #0
 198 00ca 00E0     		b	.L3
 199              	.LVL28:
 200              	.L9:
  37:Source\azure_iot_sdk\uamqp\src/sasl_mechanism.c ****     }
 201              		.loc 1 37 0
 202 00cc 0025     		movs	r5, #0
 203              	.LVL29:
 204              	.L3:
  59:Source\azure_iot_sdk\uamqp\src/sasl_mechanism.c ****             }
  60:Source\azure_iot_sdk\uamqp\src/sasl_mechanism.c ****         }
  61:Source\azure_iot_sdk\uamqp\src/sasl_mechanism.c ****     }
  62:Source\azure_iot_sdk\uamqp\src/sasl_mechanism.c **** 
  63:Source\azure_iot_sdk\uamqp\src/sasl_mechanism.c ****     /* Codes_SRS_SASL_MECHANISM_01_001: [`saslmechanism_create` shall return on success a non-NULL 
  64:Source\azure_iot_sdk\uamqp\src/sasl_mechanism.c ****     return result;
  65:Source\azure_iot_sdk\uamqp\src/sasl_mechanism.c **** }
 205              		.loc 1 65 0
 206 00ce 2800     		movs	r0, r5
 207 00d0 06B0     		add	sp, sp, #24
 208              		@ sp needed
 209              	.LVL30:
 210              	.LVL31:
 211 00d2 70BD     		pop	{r4, r5, r6, pc}
 212              	.L11:
 213              		.align	2
 214              	.L10:
 215 00d4 30000000 		.word	.LC3
 216 00d8 00000000 		.word	.LANCHOR0
 217 00dc 00000000 		.word	.LC1
 218 00e0 5C000000 		.word	.LC5
ARM GAS  C:\Users\Phuong\AppData\Local\Temp\cc5e3qAd.s 			page 6


 219 00e4 14010000 		.word	.LC7
 220 00e8 44010000 		.word	.LC9
 221              		.cfi_endproc
 222              	.LFE1:
 223              		.size	saslmechanism_create, .-saslmechanism_create
 224              		.section	.text.saslmechanism_destroy,"ax",%progbits
 225              		.align	2
 226              		.global	saslmechanism_destroy
 227              		.code	16
 228              		.thumb_func
 229              		.type	saslmechanism_destroy, %function
 230              	saslmechanism_destroy:
 231              	.LFB2:
  66:Source\azure_iot_sdk\uamqp\src/sasl_mechanism.c **** 
  67:Source\azure_iot_sdk\uamqp\src/sasl_mechanism.c **** void saslmechanism_destroy(SASL_MECHANISM_HANDLE sasl_mechanism)
  68:Source\azure_iot_sdk\uamqp\src/sasl_mechanism.c **** {
 232              		.loc 1 68 0
 233              		.cfi_startproc
 234              		@ args = 0, pretend = 0, frame = 0
 235              		@ frame_needed = 0, uses_anonymous_args = 0
 236              	.LVL32:
 237 0000 10B5     		push	{r4, lr}
 238              		.cfi_def_cfa_offset 8
 239              		.cfi_offset 4, -8
 240              		.cfi_offset 14, -4
 241 0002 82B0     		sub	sp, sp, #8
 242              		.cfi_def_cfa_offset 16
 243 0004 041E     		subs	r4, r0, #0
  69:Source\azure_iot_sdk\uamqp\src/sasl_mechanism.c ****     if (sasl_mechanism == NULL)
 244              		.loc 1 69 0
 245 0006 0ED1     		bne	.L13
 246              	.LBB6:
  70:Source\azure_iot_sdk\uamqp\src/sasl_mechanism.c ****     {
  71:Source\azure_iot_sdk\uamqp\src/sasl_mechanism.c ****         /* Codes_SRS_SASL_MECHANISM_01_009: [If the argument `sasl_mechanism` is NULL, `saslmechani
  72:Source\azure_iot_sdk\uamqp\src/sasl_mechanism.c ****         LogError("NULL sasl_mechanism");
 247              		.loc 1 72 0 discriminator 3
 248 0008 FFF7FEFF 		bl	xlogging_get_log_function
 249              	.LVL33:
 250 000c 041E     		subs	r4, r0, #0
 251              	.LVL34:
 252 000e 11D0     		beq	.L12
 253              		.loc 1 72 0 is_stmt 0 discriminator 4
 254 0010 094B     		ldr	r3, .L15
 255 0012 0193     		str	r3, [sp, #4]
 256 0014 0123     		movs	r3, #1
 257 0016 0093     		str	r3, [sp]
 258 0018 4733     		adds	r3, r3, #71
 259 001a 084A     		ldr	r2, .L15+4
 260 001c 1832     		adds	r2, r2, #24
 261 001e 0849     		ldr	r1, .L15+8
 262 0020 0020     		movs	r0, #0
 263              	.LVL35:
 264 0022 A047     		blx	r4
 265              	.LVL36:
 266 0024 06E0     		b	.L12
 267              	.LVL37:
 268              	.L13:
ARM GAS  C:\Users\Phuong\AppData\Local\Temp\cc5e3qAd.s 			page 7


 269              	.LBE6:
  73:Source\azure_iot_sdk\uamqp\src/sasl_mechanism.c ****     }
  74:Source\azure_iot_sdk\uamqp\src/sasl_mechanism.c ****     else
  75:Source\azure_iot_sdk\uamqp\src/sasl_mechanism.c ****     {
  76:Source\azure_iot_sdk\uamqp\src/sasl_mechanism.c ****         /* Codes_SRS_SASL_MECHANISM_01_008: [`saslmechanism_destroy` shall also call the `concrete_
  77:Source\azure_iot_sdk\uamqp\src/sasl_mechanism.c ****         sasl_mechanism->sasl_mechanism_interface_description->concrete_sasl_mechanism_destroy(sasl_
 270              		.loc 1 77 0 is_stmt 1
 271 0026 0368     		ldr	r3, [r0]
 272 0028 5B68     		ldr	r3, [r3, #4]
 273 002a 4068     		ldr	r0, [r0, #4]
 274              	.LVL38:
 275 002c 9847     		blx	r3
 276              	.LVL39:
  78:Source\azure_iot_sdk\uamqp\src/sasl_mechanism.c **** 
  79:Source\azure_iot_sdk\uamqp\src/sasl_mechanism.c ****         /* Codes_SRS_SASL_MECHANISM_01_007: [`saslmechanism_destroy` shall free all resources assoc
  80:Source\azure_iot_sdk\uamqp\src/sasl_mechanism.c ****         free(sasl_mechanism);
 277              		.loc 1 80 0
 278 002e 2000     		movs	r0, r4
 279 0030 FFF7FEFF 		bl	free
 280              	.LVL40:
 281              	.L12:
  81:Source\azure_iot_sdk\uamqp\src/sasl_mechanism.c ****     }
  82:Source\azure_iot_sdk\uamqp\src/sasl_mechanism.c **** }
 282              		.loc 1 82 0
 283 0034 02B0     		add	sp, sp, #8
 284              		@ sp needed
 285 0036 10BD     		pop	{r4, pc}
 286              	.L16:
 287              		.align	2
 288              	.L15:
 289 0038 6C010000 		.word	.LC13
 290 003c 00000000 		.word	.LANCHOR0
 291 0040 00000000 		.word	.LC1
 292              		.cfi_endproc
 293              	.LFE2:
 294              		.size	saslmechanism_destroy, .-saslmechanism_destroy
 295              		.section	.text.saslmechanism_get_init_bytes,"ax",%progbits
 296              		.align	2
 297              		.global	saslmechanism_get_init_bytes
 298              		.code	16
 299              		.thumb_func
 300              		.type	saslmechanism_get_init_bytes, %function
 301              	saslmechanism_get_init_bytes:
 302              	.LFB3:
  83:Source\azure_iot_sdk\uamqp\src/sasl_mechanism.c **** 
  84:Source\azure_iot_sdk\uamqp\src/sasl_mechanism.c **** int saslmechanism_get_init_bytes(SASL_MECHANISM_HANDLE sasl_mechanism, SASL_MECHANISM_BYTES* init_b
  85:Source\azure_iot_sdk\uamqp\src/sasl_mechanism.c **** {
 303              		.loc 1 85 0
 304              		.cfi_startproc
 305              		@ args = 0, pretend = 0, frame = 0
 306              		@ frame_needed = 0, uses_anonymous_args = 0
 307              	.LVL41:
 308 0000 10B5     		push	{r4, lr}
 309              		.cfi_def_cfa_offset 8
 310              		.cfi_offset 4, -8
 311              		.cfi_offset 14, -4
 312 0002 82B0     		sub	sp, sp, #8
ARM GAS  C:\Users\Phuong\AppData\Local\Temp\cc5e3qAd.s 			page 8


 313              		.cfi_def_cfa_offset 16
  86:Source\azure_iot_sdk\uamqp\src/sasl_mechanism.c ****     int result;
  87:Source\azure_iot_sdk\uamqp\src/sasl_mechanism.c **** 
  88:Source\azure_iot_sdk\uamqp\src/sasl_mechanism.c ****     /* Codes_SRS_SASL_MECHANISM_01_012: [If the argument `sasl_mechanism` is NULL, `saslmechanism_g
  89:Source\azure_iot_sdk\uamqp\src/sasl_mechanism.c ****     if (sasl_mechanism == NULL)
 314              		.loc 1 89 0
 315 0004 0028     		cmp	r0, #0
 316 0006 0FD1     		bne	.L18
 317              	.LBB7:
  90:Source\azure_iot_sdk\uamqp\src/sasl_mechanism.c ****     {
  91:Source\azure_iot_sdk\uamqp\src/sasl_mechanism.c ****         LogError("NULL sasl_mechanism");
 318              		.loc 1 91 0 discriminator 3
 319 0008 FFF7FEFF 		bl	xlogging_get_log_function
 320              	.LVL42:
 321 000c 041E     		subs	r4, r0, #0
 322              	.LVL43:
 323 000e 21D0     		beq	.L20
 324              		.loc 1 91 0 is_stmt 0 discriminator 4
 325 0010 144B     		ldr	r3, .L23
 326 0012 0193     		str	r3, [sp, #4]
 327 0014 0123     		movs	r3, #1
 328 0016 0093     		str	r3, [sp]
 329 0018 5A33     		adds	r3, r3, #90
 330 001a 134A     		ldr	r2, .L23+4
 331 001c 3032     		adds	r2, r2, #48
 332 001e 1349     		ldr	r1, .L23+8
 333 0020 0020     		movs	r0, #0
 334              	.LVL44:
 335 0022 A047     		blx	r4
 336              	.LVL45:
 337              	.LBE7:
  92:Source\azure_iot_sdk\uamqp\src/sasl_mechanism.c ****         result = __FAILURE__;
 338              		.loc 1 92 0 is_stmt 1 discriminator 4
 339 0024 5C20     		movs	r0, #92
 340 0026 1AE0     		b	.L19
 341              	.LVL46:
 342              	.L18:
  93:Source\azure_iot_sdk\uamqp\src/sasl_mechanism.c ****     }
  94:Source\azure_iot_sdk\uamqp\src/sasl_mechanism.c ****     else
  95:Source\azure_iot_sdk\uamqp\src/sasl_mechanism.c ****     {
  96:Source\azure_iot_sdk\uamqp\src/sasl_mechanism.c ****         /* Codes_SRS_SASL_MECHANISM_01_010: [`saslmechanism_get_init_bytes` shall call the specific
  97:Source\azure_iot_sdk\uamqp\src/sasl_mechanism.c ****         if (sasl_mechanism->sasl_mechanism_interface_description->concrete_sasl_mechanism_get_init_
 343              		.loc 1 97 0
 344 0028 0368     		ldr	r3, [r0]
 345 002a 9B68     		ldr	r3, [r3, #8]
 346 002c 4068     		ldr	r0, [r0, #4]
 347              	.LVL47:
 348 002e 9847     		blx	r3
 349              	.LVL48:
 350 0030 0028     		cmp	r0, #0
 351 0032 11D0     		beq	.L21
 352              	.LBB8:
  98:Source\azure_iot_sdk\uamqp\src/sasl_mechanism.c ****         {
  99:Source\azure_iot_sdk\uamqp\src/sasl_mechanism.c ****             /* Codes_SRS_SASL_MECHANISM_01_013: [If the underlying `concrete_sasl_mechanism_get_ini
 100:Source\azure_iot_sdk\uamqp\src/sasl_mechanism.c ****             LogError("concrete_sasl_mechanism_get_init_bytes failed");
 353              		.loc 1 100 0 discriminator 3
 354 0034 FFF7FEFF 		bl	xlogging_get_log_function
ARM GAS  C:\Users\Phuong\AppData\Local\Temp\cc5e3qAd.s 			page 9


 355              	.LVL49:
 356 0038 041E     		subs	r4, r0, #0
 357              	.LVL50:
 358 003a 0FD0     		beq	.L22
 359              		.loc 1 100 0 is_stmt 0 discriminator 4
 360 003c 0C4B     		ldr	r3, .L23+12
 361 003e 0193     		str	r3, [sp, #4]
 362 0040 0123     		movs	r3, #1
 363 0042 0093     		str	r3, [sp]
 364 0044 6333     		adds	r3, r3, #99
 365 0046 084A     		ldr	r2, .L23+4
 366 0048 3032     		adds	r2, r2, #48
 367 004a 0849     		ldr	r1, .L23+8
 368 004c 0020     		movs	r0, #0
 369              	.LVL51:
 370 004e A047     		blx	r4
 371              	.LVL52:
 372              	.LBE8:
 101:Source\azure_iot_sdk\uamqp\src/sasl_mechanism.c ****             result = __FAILURE__;
 373              		.loc 1 101 0 is_stmt 1 discriminator 4
 374 0050 6520     		movs	r0, #101
 375 0052 04E0     		b	.L19
 376              	.LVL53:
 377              	.L20:
  92:Source\azure_iot_sdk\uamqp\src/sasl_mechanism.c ****     }
 378              		.loc 1 92 0
 379 0054 5C20     		movs	r0, #92
 380              	.LVL54:
 381 0056 02E0     		b	.L19
 382              	.LVL55:
 383              	.L21:
 102:Source\azure_iot_sdk\uamqp\src/sasl_mechanism.c ****         }
 103:Source\azure_iot_sdk\uamqp\src/sasl_mechanism.c ****         else
 104:Source\azure_iot_sdk\uamqp\src/sasl_mechanism.c ****         {
 105:Source\azure_iot_sdk\uamqp\src/sasl_mechanism.c ****             /* Codes_SRS_SASL_MECHANISM_01_011: [On success, `saslmechanism_get_init_bytes` shall r
 106:Source\azure_iot_sdk\uamqp\src/sasl_mechanism.c ****             result = 0;
 384              		.loc 1 106 0
 385 0058 0020     		movs	r0, #0
 386 005a 00E0     		b	.L19
 387              	.LVL56:
 388              	.L22:
 101:Source\azure_iot_sdk\uamqp\src/sasl_mechanism.c ****         }
 389              		.loc 1 101 0
 390 005c 6520     		movs	r0, #101
 391              	.LVL57:
 392              	.L19:
 107:Source\azure_iot_sdk\uamqp\src/sasl_mechanism.c ****         }
 108:Source\azure_iot_sdk\uamqp\src/sasl_mechanism.c ****     }
 109:Source\azure_iot_sdk\uamqp\src/sasl_mechanism.c **** 
 110:Source\azure_iot_sdk\uamqp\src/sasl_mechanism.c ****     return result;
 111:Source\azure_iot_sdk\uamqp\src/sasl_mechanism.c **** }
 393              		.loc 1 111 0
 394 005e 02B0     		add	sp, sp, #8
 395              		@ sp needed
 396 0060 10BD     		pop	{r4, pc}
 397              	.L24:
 398 0062 C046     		.align	2
ARM GAS  C:\Users\Phuong\AppData\Local\Temp\cc5e3qAd.s 			page 10


 399              	.L23:
 400 0064 6C010000 		.word	.LC13
 401 0068 00000000 		.word	.LANCHOR0
 402 006c 00000000 		.word	.LC1
 403 0070 80010000 		.word	.LC18
 404              		.cfi_endproc
 405              	.LFE3:
 406              		.size	saslmechanism_get_init_bytes, .-saslmechanism_get_init_bytes
 407              		.section	.text.saslmechanism_get_mechanism_name,"ax",%progbits
 408              		.align	2
 409              		.global	saslmechanism_get_mechanism_name
 410              		.code	16
 411              		.thumb_func
 412              		.type	saslmechanism_get_mechanism_name, %function
 413              	saslmechanism_get_mechanism_name:
 414              	.LFB4:
 112:Source\azure_iot_sdk\uamqp\src/sasl_mechanism.c **** 
 113:Source\azure_iot_sdk\uamqp\src/sasl_mechanism.c **** const char* saslmechanism_get_mechanism_name(SASL_MECHANISM_HANDLE sasl_mechanism)
 114:Source\azure_iot_sdk\uamqp\src/sasl_mechanism.c **** {
 415              		.loc 1 114 0
 416              		.cfi_startproc
 417              		@ args = 0, pretend = 0, frame = 0
 418              		@ frame_needed = 0, uses_anonymous_args = 0
 419              	.LVL58:
 420 0000 30B5     		push	{r4, r5, lr}
 421              		.cfi_def_cfa_offset 12
 422              		.cfi_offset 4, -12
 423              		.cfi_offset 5, -8
 424              		.cfi_offset 14, -4
 425 0002 83B0     		sub	sp, sp, #12
 426              		.cfi_def_cfa_offset 24
 115:Source\azure_iot_sdk\uamqp\src/sasl_mechanism.c ****     const char* result;
 116:Source\azure_iot_sdk\uamqp\src/sasl_mechanism.c **** 
 117:Source\azure_iot_sdk\uamqp\src/sasl_mechanism.c ****     /* Codes_SRS_SASL_MECHANISM_01_016: [If the argument `sasl_mechanism` is NULL, `saslmechanism_g
 118:Source\azure_iot_sdk\uamqp\src/sasl_mechanism.c ****     if (sasl_mechanism == NULL)
 427              		.loc 1 118 0
 428 0004 0028     		cmp	r0, #0
 429 0006 0FD1     		bne	.L26
 430              	.LBB9:
 119:Source\azure_iot_sdk\uamqp\src/sasl_mechanism.c ****     {
 120:Source\azure_iot_sdk\uamqp\src/sasl_mechanism.c ****         LogError("NULL sasl_mechanism");
 431              		.loc 1 120 0 discriminator 3
 432 0008 FFF7FEFF 		bl	xlogging_get_log_function
 433              	.LVL59:
 434 000c 041E     		subs	r4, r0, #0
 435              	.LVL60:
 436 000e 20D0     		beq	.L28
 437              		.loc 1 120 0 is_stmt 0 discriminator 4
 438 0010 124B     		ldr	r3, .L29
 439 0012 0193     		str	r3, [sp, #4]
 440 0014 0123     		movs	r3, #1
 441 0016 0093     		str	r3, [sp]
 442 0018 7733     		adds	r3, r3, #119
 443 001a 114A     		ldr	r2, .L29+4
 444 001c 5032     		adds	r2, r2, #80
 445 001e 1149     		ldr	r1, .L29+8
 446 0020 0020     		movs	r0, #0
ARM GAS  C:\Users\Phuong\AppData\Local\Temp\cc5e3qAd.s 			page 11


 447              	.LVL61:
 448 0022 A047     		blx	r4
 449              	.LVL62:
 450              	.LBE9:
 121:Source\azure_iot_sdk\uamqp\src/sasl_mechanism.c ****         result = NULL;
 451              		.loc 1 121 0 is_stmt 1 discriminator 4
 452 0024 0024     		movs	r4, #0
 453              	.LVL63:
 454 0026 15E0     		b	.L27
 455              	.LVL64:
 456              	.L26:
 122:Source\azure_iot_sdk\uamqp\src/sasl_mechanism.c ****     }
 123:Source\azure_iot_sdk\uamqp\src/sasl_mechanism.c ****     else
 124:Source\azure_iot_sdk\uamqp\src/sasl_mechanism.c ****     {
 125:Source\azure_iot_sdk\uamqp\src/sasl_mechanism.c ****         /* Codes_SRS_SASL_MECHANISM_01_014: [`saslmechanism_get_mechanism_name` shall call the spec
 126:Source\azure_iot_sdk\uamqp\src/sasl_mechanism.c ****         /* Codes_SRS_SASL_MECHANISM_01_015: [On success, `saslmechanism_get_mechanism_name` shall r
 127:Source\azure_iot_sdk\uamqp\src/sasl_mechanism.c ****         /* Codes_SRS_SASL_MECHANISM_01_017: [If the underlying `concrete_sasl_mechanism_get_mechani
 128:Source\azure_iot_sdk\uamqp\src/sasl_mechanism.c ****         result = sasl_mechanism->sasl_mechanism_interface_description->concrete_sasl_mechanism_get_
 457              		.loc 1 128 0
 458 0028 0368     		ldr	r3, [r0]
 459 002a DB68     		ldr	r3, [r3, #12]
 460 002c 4068     		ldr	r0, [r0, #4]
 461              	.LVL65:
 462 002e 9847     		blx	r3
 463              	.LVL66:
 464 0030 041E     		subs	r4, r0, #0
 465              	.LVL67:
 129:Source\azure_iot_sdk\uamqp\src/sasl_mechanism.c ****         if (result == NULL)
 466              		.loc 1 129 0
 467 0032 0FD1     		bne	.L27
 468              	.LBB10:
 130:Source\azure_iot_sdk\uamqp\src/sasl_mechanism.c ****         {
 131:Source\azure_iot_sdk\uamqp\src/sasl_mechanism.c ****             LogError("concrete_sasl_mechanism_get_mechanism_name failed");
 469              		.loc 1 131 0 discriminator 3
 470 0034 FFF7FEFF 		bl	xlogging_get_log_function
 471              	.LVL68:
 472 0038 051E     		subs	r5, r0, #0
 473              	.LVL69:
 474 003a 0BD0     		beq	.L27
 475              		.loc 1 131 0 is_stmt 0 discriminator 4
 476 003c 0A4B     		ldr	r3, .L29+12
 477 003e 0193     		str	r3, [sp, #4]
 478 0040 0123     		movs	r3, #1
 479 0042 0093     		str	r3, [sp]
 480 0044 8233     		adds	r3, r3, #130
 481 0046 064A     		ldr	r2, .L29+4
 482 0048 5032     		adds	r2, r2, #80
 483 004a 0649     		ldr	r1, .L29+8
 484 004c 0020     		movs	r0, #0
 485              	.LVL70:
 486 004e A847     		blx	r5
 487              	.LVL71:
 488 0050 00E0     		b	.L27
 489              	.LVL72:
 490              	.L28:
 491              	.LBE10:
 121:Source\azure_iot_sdk\uamqp\src/sasl_mechanism.c ****     }
ARM GAS  C:\Users\Phuong\AppData\Local\Temp\cc5e3qAd.s 			page 12


 492              		.loc 1 121 0 is_stmt 1
 493 0052 0024     		movs	r4, #0
 494              	.LVL73:
 495              	.L27:
 132:Source\azure_iot_sdk\uamqp\src/sasl_mechanism.c ****         }
 133:Source\azure_iot_sdk\uamqp\src/sasl_mechanism.c ****     }
 134:Source\azure_iot_sdk\uamqp\src/sasl_mechanism.c **** 
 135:Source\azure_iot_sdk\uamqp\src/sasl_mechanism.c ****     return result;
 136:Source\azure_iot_sdk\uamqp\src/sasl_mechanism.c **** }
 496              		.loc 1 136 0
 497 0054 2000     		movs	r0, r4
 498 0056 03B0     		add	sp, sp, #12
 499              		@ sp needed
 500              	.LVL74:
 501 0058 30BD     		pop	{r4, r5, pc}
 502              	.L30:
 503 005a C046     		.align	2
 504              	.L29:
 505 005c 6C010000 		.word	.LC13
 506 0060 00000000 		.word	.LANCHOR0
 507 0064 00000000 		.word	.LC1
 508 0068 B0010000 		.word	.LC23
 509              		.cfi_endproc
 510              	.LFE4:
 511              		.size	saslmechanism_get_mechanism_name, .-saslmechanism_get_mechanism_name
 512              		.section	.text.saslmechanism_challenge,"ax",%progbits
 513              		.align	2
 514              		.global	saslmechanism_challenge
 515              		.code	16
 516              		.thumb_func
 517              		.type	saslmechanism_challenge, %function
 518              	saslmechanism_challenge:
 519              	.LFB5:
 137:Source\azure_iot_sdk\uamqp\src/sasl_mechanism.c **** 
 138:Source\azure_iot_sdk\uamqp\src/sasl_mechanism.c **** int saslmechanism_challenge(SASL_MECHANISM_HANDLE sasl_mechanism, const SASL_MECHANISM_BYTES* chall
 139:Source\azure_iot_sdk\uamqp\src/sasl_mechanism.c **** {
 520              		.loc 1 139 0
 521              		.cfi_startproc
 522              		@ args = 0, pretend = 0, frame = 0
 523              		@ frame_needed = 0, uses_anonymous_args = 0
 524              	.LVL75:
 525 0000 10B5     		push	{r4, lr}
 526              		.cfi_def_cfa_offset 8
 527              		.cfi_offset 4, -8
 528              		.cfi_offset 14, -4
 529 0002 82B0     		sub	sp, sp, #8
 530              		.cfi_def_cfa_offset 16
 140:Source\azure_iot_sdk\uamqp\src/sasl_mechanism.c ****     int result;
 141:Source\azure_iot_sdk\uamqp\src/sasl_mechanism.c **** 
 142:Source\azure_iot_sdk\uamqp\src/sasl_mechanism.c ****     /* Codes_SRS_SASL_MECHANISM_01_020: [If the argument `sasl_mechanism` is NULL, `saslmechanism_c
 143:Source\azure_iot_sdk\uamqp\src/sasl_mechanism.c ****     if (sasl_mechanism == NULL)
 531              		.loc 1 143 0
 532 0004 0028     		cmp	r0, #0
 533 0006 0FD1     		bne	.L32
 534              	.LBB11:
 144:Source\azure_iot_sdk\uamqp\src/sasl_mechanism.c ****     {
 145:Source\azure_iot_sdk\uamqp\src/sasl_mechanism.c ****         LogError("NULL sasl_mechanism");
ARM GAS  C:\Users\Phuong\AppData\Local\Temp\cc5e3qAd.s 			page 13


 535              		.loc 1 145 0 discriminator 3
 536 0008 FFF7FEFF 		bl	xlogging_get_log_function
 537              	.LVL76:
 538 000c 041E     		subs	r4, r0, #0
 539              	.LVL77:
 540 000e 21D0     		beq	.L34
 541              		.loc 1 145 0 is_stmt 0 discriminator 4
 542 0010 144B     		ldr	r3, .L37
 543 0012 0193     		str	r3, [sp, #4]
 544 0014 0123     		movs	r3, #1
 545 0016 0093     		str	r3, [sp]
 546 0018 9033     		adds	r3, r3, #144
 547 001a 134A     		ldr	r2, .L37+4
 548 001c 7432     		adds	r2, r2, #116
 549 001e 1349     		ldr	r1, .L37+8
 550 0020 0020     		movs	r0, #0
 551              	.LVL78:
 552 0022 A047     		blx	r4
 553              	.LVL79:
 554              	.LBE11:
 146:Source\azure_iot_sdk\uamqp\src/sasl_mechanism.c ****         result = __FAILURE__;
 555              		.loc 1 146 0 is_stmt 1 discriminator 4
 556 0024 9220     		movs	r0, #146
 557 0026 1AE0     		b	.L33
 558              	.LVL80:
 559              	.L32:
 147:Source\azure_iot_sdk\uamqp\src/sasl_mechanism.c ****     }
 148:Source\azure_iot_sdk\uamqp\src/sasl_mechanism.c ****     else
 149:Source\azure_iot_sdk\uamqp\src/sasl_mechanism.c ****     {
 150:Source\azure_iot_sdk\uamqp\src/sasl_mechanism.c ****         /* Codes_SRS_SASL_MECHANISM_01_018: [`saslmechanism_challenge` shall call the specific `con
 151:Source\azure_iot_sdk\uamqp\src/sasl_mechanism.c ****         if (sasl_mechanism->sasl_mechanism_interface_description->concrete_sasl_mechanism_challenge
 560              		.loc 1 151 0
 561 0028 0368     		ldr	r3, [r0]
 562 002a 1B69     		ldr	r3, [r3, #16]
 563 002c 4068     		ldr	r0, [r0, #4]
 564              	.LVL81:
 565 002e 9847     		blx	r3
 566              	.LVL82:
 567 0030 0028     		cmp	r0, #0
 568 0032 11D0     		beq	.L35
 569              	.LBB12:
 152:Source\azure_iot_sdk\uamqp\src/sasl_mechanism.c ****         {
 153:Source\azure_iot_sdk\uamqp\src/sasl_mechanism.c ****             /* Codes_SRS_SASL_MECHANISM_01_021: [If the underlying `concrete_sasl_mechanism_challen
 154:Source\azure_iot_sdk\uamqp\src/sasl_mechanism.c ****             LogError("concrete_sasl_mechanism_challenge failed");
 570              		.loc 1 154 0 discriminator 3
 571 0034 FFF7FEFF 		bl	xlogging_get_log_function
 572              	.LVL83:
 573 0038 041E     		subs	r4, r0, #0
 574              	.LVL84:
 575 003a 0FD0     		beq	.L36
 576              		.loc 1 154 0 is_stmt 0 discriminator 4
 577 003c 0C4B     		ldr	r3, .L37+12
 578 003e 0193     		str	r3, [sp, #4]
 579 0040 0123     		movs	r3, #1
 580 0042 0093     		str	r3, [sp]
 581 0044 9933     		adds	r3, r3, #153
 582 0046 084A     		ldr	r2, .L37+4
ARM GAS  C:\Users\Phuong\AppData\Local\Temp\cc5e3qAd.s 			page 14


 583 0048 7432     		adds	r2, r2, #116
 584 004a 0849     		ldr	r1, .L37+8
 585 004c 0020     		movs	r0, #0
 586              	.LVL85:
 587 004e A047     		blx	r4
 588              	.LVL86:
 589              	.LBE12:
 155:Source\azure_iot_sdk\uamqp\src/sasl_mechanism.c ****             result = __FAILURE__;
 590              		.loc 1 155 0 is_stmt 1 discriminator 4
 591 0050 9B20     		movs	r0, #155
 592 0052 04E0     		b	.L33
 593              	.LVL87:
 594              	.L34:
 146:Source\azure_iot_sdk\uamqp\src/sasl_mechanism.c ****     }
 595              		.loc 1 146 0
 596 0054 9220     		movs	r0, #146
 597              	.LVL88:
 598 0056 02E0     		b	.L33
 599              	.LVL89:
 600              	.L35:
 156:Source\azure_iot_sdk\uamqp\src/sasl_mechanism.c ****         }
 157:Source\azure_iot_sdk\uamqp\src/sasl_mechanism.c ****         else
 158:Source\azure_iot_sdk\uamqp\src/sasl_mechanism.c ****         {
 159:Source\azure_iot_sdk\uamqp\src/sasl_mechanism.c ****             /* Codes_SRS_SASL_MECHANISM_01_019: [On success, `saslmechanism_challenge` shall return
 160:Source\azure_iot_sdk\uamqp\src/sasl_mechanism.c ****             result = 0;
 601              		.loc 1 160 0
 602 0058 0020     		movs	r0, #0
 603 005a 00E0     		b	.L33
 604              	.LVL90:
 605              	.L36:
 155:Source\azure_iot_sdk\uamqp\src/sasl_mechanism.c ****         }
 606              		.loc 1 155 0
 607 005c 9B20     		movs	r0, #155
 608              	.LVL91:
 609              	.L33:
 161:Source\azure_iot_sdk\uamqp\src/sasl_mechanism.c ****         }
 162:Source\azure_iot_sdk\uamqp\src/sasl_mechanism.c ****     }
 163:Source\azure_iot_sdk\uamqp\src/sasl_mechanism.c **** 
 164:Source\azure_iot_sdk\uamqp\src/sasl_mechanism.c ****     return result;
 165:Source\azure_iot_sdk\uamqp\src/sasl_mechanism.c **** }
 610              		.loc 1 165 0
 611 005e 02B0     		add	sp, sp, #8
 612              		@ sp needed
 613 0060 10BD     		pop	{r4, pc}
 614              	.L38:
 615 0062 C046     		.align	2
 616              	.L37:
 617 0064 6C010000 		.word	.LC13
 618 0068 00000000 		.word	.LANCHOR0
 619 006c 00000000 		.word	.LC1
 620 0070 E4010000 		.word	.LC28
 621              		.cfi_endproc
 622              	.LFE5:
 623              		.size	saslmechanism_challenge, .-saslmechanism_challenge
 624              		.section	.rodata
 625              		.align	2
 626              		.set	.LANCHOR0,. + 0
ARM GAS  C:\Users\Phuong\AppData\Local\Temp\cc5e3qAd.s 			page 15


 627              		.type	__func__.5902, %object
 628              		.size	__func__.5902, 21
 629              	__func__.5902:
 630 0000 7361736C 		.ascii	"saslmechanism_create\000"
 630      6D656368 
 630      616E6973 
 630      6D5F6372 
 630      65617465 
 631 0015 000000   		.space	3
 632              		.type	__func__.5918, %object
 633              		.size	__func__.5918, 22
 634              	__func__.5918:
 635 0018 7361736C 		.ascii	"saslmechanism_destroy\000"
 635      6D656368 
 635      616E6973 
 635      6D5F6465 
 635      7374726F 
 636 002e 0000     		.space	2
 637              		.type	__func__.5927, %object
 638              		.size	__func__.5927, 29
 639              	__func__.5927:
 640 0030 7361736C 		.ascii	"saslmechanism_get_init_bytes\000"
 640      6D656368 
 640      616E6973 
 640      6D5F6765 
 640      745F696E 
 641 004d 000000   		.space	3
 642              		.type	__func__.5938, %object
 643              		.size	__func__.5938, 33
 644              	__func__.5938:
 645 0050 7361736C 		.ascii	"saslmechanism_get_mechanism_name\000"
 645      6D656368 
 645      616E6973 
 645      6D5F6765 
 645      745F6D65 
 646 0071 000000   		.space	3
 647              		.type	__func__.5951, %object
 648              		.size	__func__.5951, 24
 649              	__func__.5951:
 650 0074 7361736C 		.ascii	"saslmechanism_challenge\000"
 650      6D656368 
 650      616E6973 
 650      6D5F6368 
 650      616C6C65 
 651              		.section	.rodata.str1.4,"aMS",%progbits,1
 652              		.align	2
 653              	.LC1:
 654 0000 536F7572 		.ascii	"Source\\azure_iot_sdk\\uamqp\\src\\sasl_mechanism.c"
 654      63655C61 
 654      7A757265 
 654      5F696F74 
 654      5F73646B 
 655 002f 00       		.ascii	"\000"
 656              	.LC3:
 657 0030 4E554C4C 		.ascii	"NULL sasl_mechanism_interface_description\000"
 657      20736173 
 657      6C5F6D65 
ARM GAS  C:\Users\Phuong\AppData\Local\Temp\cc5e3qAd.s 			page 16


 657      6368616E 
 657      69736D5F 
 658 005a 0000     		.space	2
 659              	.LC5:
 660 005c 42616420 		.ascii	"Bad interface, concrete_sasl_mechanism_create = %p,"
 660      696E7465 
 660      72666163 
 660      652C2063 
 660      6F6E6372 
 661 008f 20636F6E 		.ascii	" concrete_sasl_mechanism_destroy = %p, concrete_sas"
 661      63726574 
 661      655F7361 
 661      736C5F6D 
 661      65636861 
 662 00c2 6C5F6D65 		.ascii	"l_mechanism_get_init_bytes = %p, concrete_sasl_mech"
 662      6368616E 
 662      69736D5F 
 662      6765745F 
 662      696E6974 
 663 00f5 616E6973 		.ascii	"anism_get_mechanism_name = %p\000"
 663      6D5F6765 
 663      745F6D65 
 663      6368616E 
 663      69736D5F 
 664 0113 00       		.space	1
 665              	.LC7:
 666 0114 436F756C 		.ascii	"Could not allocate memory for SASL mechanism\000"
 666      64206E6F 
 666      7420616C 
 666      6C6F6361 
 666      7465206D 
 667 0141 000000   		.space	3
 668              	.LC9:
 669 0144 636F6E63 		.ascii	"concrete_sasl_mechanism_create failed\000"
 669      72657465 
 669      5F736173 
 669      6C5F6D65 
 669      6368616E 
 670 016a 0000     		.space	2
 671              	.LC13:
 672 016c 4E554C4C 		.ascii	"NULL sasl_mechanism\000"
 672      20736173 
 672      6C5F6D65 
 672      6368616E 
 672      69736D00 
 673              	.LC18:
 674 0180 636F6E63 		.ascii	"concrete_sasl_mechanism_get_init_bytes failed\000"
 674      72657465 
 674      5F736173 
 674      6C5F6D65 
 674      6368616E 
 675 01ae 0000     		.space	2
 676              	.LC23:
 677 01b0 636F6E63 		.ascii	"concrete_sasl_mechanism_get_mechanism_name failed\000"
 677      72657465 
 677      5F736173 
 677      6C5F6D65 
ARM GAS  C:\Users\Phuong\AppData\Local\Temp\cc5e3qAd.s 			page 17


 677      6368616E 
 678 01e2 0000     		.space	2
 679              	.LC28:
 680 01e4 636F6E63 		.ascii	"concrete_sasl_mechanism_challenge failed\000"
 680      72657465 
 680      5F736173 
 680      6C5F6D65 
 680      6368616E 
 681              		.text
 682              	.Letext0:
 683              		.file 2 "c:\\program files (x86)\\cypress\\psoc creator\\4.2\\psoc creator\\import\\gnu\\arm\\5.4.
 684              		.file 3 "c:\\program files (x86)\\cypress\\psoc creator\\4.2\\psoc creator\\import\\gnu\\arm\\5.4.
 685              		.file 4 ".\\Source\\azure_iot_sdk\\c-utility\\inc/azure_c_shared_utility/xlogging.h"
 686              		.file 5 ".\\Source\\azure_iot_sdk\\uamqp\\inc/azure_uamqp_c/sasl_mechanism.h"
 687              		.file 6 "c:\\program files (x86)\\cypress\\psoc creator\\4.2\\psoc creator\\import\\gnu\\arm\\5.4.