ARM GAS  C:\Users\Phuong\AppData\Local\Temp\ccvh8ULi.s 			page 1


   1              		.syntax unified
   2              		.cpu cortex-m0plus
   3              		.fpu softvfp
   4              		.eabi_attribute 20, 1
   5              		.eabi_attribute 21, 1
   6              		.eabi_attribute 23, 3
   7              		.eabi_attribute 24, 1
   8              		.eabi_attribute 25, 1
   9              		.eabi_attribute 26, 1
  10              		.eabi_attribute 30, 1
  11              		.eabi_attribute 34, 0
  12              		.eabi_attribute 18, 4
  13              		.thumb
  14              		.syntax unified
  15              		.file	"sasl_mssbcbs.c"
  16              		.text
  17              	.Ltext0:
  18              		.cfi_sections	.debug_frame
  19              		.section	.text.saslmssbcbs_get_init_bytes,"ax",%progbits
  20              		.align	2
  21              		.global	saslmssbcbs_get_init_bytes
  22              		.code	16
  23              		.thumb_func
  24              		.type	saslmssbcbs_get_init_bytes, %function
  25              	saslmssbcbs_get_init_bytes:
  26              	.LFB3:
  27              		.file 1 "Source\\azure_iot_sdk\\uamqp\\src\\sasl_mssbcbs.c"
   1:Source\azure_iot_sdk\uamqp\src/sasl_mssbcbs.c **** // Copyright (c) Microsoft. All rights reserved.
   2:Source\azure_iot_sdk\uamqp\src/sasl_mssbcbs.c **** // Licensed under the MIT license. See LICENSE file in the project root for full license informatio
   3:Source\azure_iot_sdk\uamqp\src/sasl_mssbcbs.c **** 
   4:Source\azure_iot_sdk\uamqp\src/sasl_mssbcbs.c **** #include <stdlib.h>
   5:Source\azure_iot_sdk\uamqp\src/sasl_mssbcbs.c **** #include <string.h>
   6:Source\azure_iot_sdk\uamqp\src/sasl_mssbcbs.c **** #include "azure_c_shared_utility/optimize_size.h"
   7:Source\azure_iot_sdk\uamqp\src/sasl_mssbcbs.c **** #include "azure_c_shared_utility/gballoc.h"
   8:Source\azure_iot_sdk\uamqp\src/sasl_mssbcbs.c **** #include "azure_c_shared_utility/xlogging.h"
   9:Source\azure_iot_sdk\uamqp\src/sasl_mssbcbs.c **** #include "azure_uamqp_c/sasl_mssbcbs.h"
  10:Source\azure_iot_sdk\uamqp\src/sasl_mssbcbs.c **** 
  11:Source\azure_iot_sdk\uamqp\src/sasl_mssbcbs.c **** typedef struct SASL_MSSBCBS_INSTANCE_TAG
  12:Source\azure_iot_sdk\uamqp\src/sasl_mssbcbs.c **** {
  13:Source\azure_iot_sdk\uamqp\src/sasl_mssbcbs.c ****     unsigned char dummy;
  14:Source\azure_iot_sdk\uamqp\src/sasl_mssbcbs.c **** } SASL_MSSBCBS_INSTANCE;
  15:Source\azure_iot_sdk\uamqp\src/sasl_mssbcbs.c **** 
  16:Source\azure_iot_sdk\uamqp\src/sasl_mssbcbs.c **** static const SASL_MECHANISM_INTERFACE_DESCRIPTION saslmssbcbs_interface =
  17:Source\azure_iot_sdk\uamqp\src/sasl_mssbcbs.c **** {
  18:Source\azure_iot_sdk\uamqp\src/sasl_mssbcbs.c ****     saslmssbcbs_create,
  19:Source\azure_iot_sdk\uamqp\src/sasl_mssbcbs.c ****     saslmssbcbs_destroy,
  20:Source\azure_iot_sdk\uamqp\src/sasl_mssbcbs.c ****     saslmssbcbs_get_init_bytes,
  21:Source\azure_iot_sdk\uamqp\src/sasl_mssbcbs.c ****     saslmssbcbs_get_mechanism_name,
  22:Source\azure_iot_sdk\uamqp\src/sasl_mssbcbs.c ****     saslmssbcbs_challenge
  23:Source\azure_iot_sdk\uamqp\src/sasl_mssbcbs.c **** };
  24:Source\azure_iot_sdk\uamqp\src/sasl_mssbcbs.c **** 
  25:Source\azure_iot_sdk\uamqp\src/sasl_mssbcbs.c **** CONCRETE_SASL_MECHANISM_HANDLE saslmssbcbs_create(void* config)
  26:Source\azure_iot_sdk\uamqp\src/sasl_mssbcbs.c **** {
  27:Source\azure_iot_sdk\uamqp\src/sasl_mssbcbs.c ****     (void)config;
  28:Source\azure_iot_sdk\uamqp\src/sasl_mssbcbs.c ****     return malloc(sizeof(SASL_MSSBCBS_INSTANCE));
  29:Source\azure_iot_sdk\uamqp\src/sasl_mssbcbs.c **** }
  30:Source\azure_iot_sdk\uamqp\src/sasl_mssbcbs.c **** 
ARM GAS  C:\Users\Phuong\AppData\Local\Temp\ccvh8ULi.s 			page 2


  31:Source\azure_iot_sdk\uamqp\src/sasl_mssbcbs.c **** void saslmssbcbs_destroy(CONCRETE_SASL_MECHANISM_HANDLE sasl_mechanism_concrete_handle)
  32:Source\azure_iot_sdk\uamqp\src/sasl_mssbcbs.c **** {
  33:Source\azure_iot_sdk\uamqp\src/sasl_mssbcbs.c ****     if (sasl_mechanism_concrete_handle != NULL)
  34:Source\azure_iot_sdk\uamqp\src/sasl_mssbcbs.c ****     {
  35:Source\azure_iot_sdk\uamqp\src/sasl_mssbcbs.c ****         free(sasl_mechanism_concrete_handle);
  36:Source\azure_iot_sdk\uamqp\src/sasl_mssbcbs.c ****     }
  37:Source\azure_iot_sdk\uamqp\src/sasl_mssbcbs.c **** }
  38:Source\azure_iot_sdk\uamqp\src/sasl_mssbcbs.c **** 
  39:Source\azure_iot_sdk\uamqp\src/sasl_mssbcbs.c **** int saslmssbcbs_get_init_bytes(CONCRETE_SASL_MECHANISM_HANDLE sasl_mechanism_concrete_handle, SASL_
  40:Source\azure_iot_sdk\uamqp\src/sasl_mssbcbs.c **** {
  28              		.loc 1 40 0
  29              		.cfi_startproc
  30              		@ args = 0, pretend = 0, frame = 0
  31              		@ frame_needed = 0, uses_anonymous_args = 0
  32              		@ link register save eliminated.
  33              	.LVL0:
  41:Source\azure_iot_sdk\uamqp\src/sasl_mssbcbs.c ****     int result;
  42:Source\azure_iot_sdk\uamqp\src/sasl_mssbcbs.c **** 
  43:Source\azure_iot_sdk\uamqp\src/sasl_mssbcbs.c ****     if (sasl_mechanism_concrete_handle == NULL)
  34              		.loc 1 43 0
  35 0000 0028     		cmp	r0, #0
  36 0002 04D0     		beq	.L3
  44:Source\azure_iot_sdk\uamqp\src/sasl_mssbcbs.c ****     {
  45:Source\azure_iot_sdk\uamqp\src/sasl_mssbcbs.c ****         result = __FAILURE__;
  46:Source\azure_iot_sdk\uamqp\src/sasl_mssbcbs.c ****     }
  47:Source\azure_iot_sdk\uamqp\src/sasl_mssbcbs.c ****     else
  48:Source\azure_iot_sdk\uamqp\src/sasl_mssbcbs.c ****     {
  49:Source\azure_iot_sdk\uamqp\src/sasl_mssbcbs.c ****         init_bytes->bytes = NULL;
  37              		.loc 1 49 0
  38 0004 0023     		movs	r3, #0
  39 0006 0B60     		str	r3, [r1]
  50:Source\azure_iot_sdk\uamqp\src/sasl_mssbcbs.c ****         init_bytes->length = 0;
  40              		.loc 1 50 0
  41 0008 4B60     		str	r3, [r1, #4]
  42              	.LVL1:
  51:Source\azure_iot_sdk\uamqp\src/sasl_mssbcbs.c **** 
  52:Source\azure_iot_sdk\uamqp\src/sasl_mssbcbs.c ****         result = 0;
  43              		.loc 1 52 0
  44 000a 0020     		movs	r0, #0
  45              	.LVL2:
  46 000c 00E0     		b	.L2
  47              	.LVL3:
  48              	.L3:
  45:Source\azure_iot_sdk\uamqp\src/sasl_mssbcbs.c ****     }
  49              		.loc 1 45 0
  50 000e 2D20     		movs	r0, #45
  51              	.LVL4:
  52              	.L2:
  53:Source\azure_iot_sdk\uamqp\src/sasl_mssbcbs.c ****     }
  54:Source\azure_iot_sdk\uamqp\src/sasl_mssbcbs.c **** 
  55:Source\azure_iot_sdk\uamqp\src/sasl_mssbcbs.c ****     return result;
  56:Source\azure_iot_sdk\uamqp\src/sasl_mssbcbs.c **** }
  53              		.loc 1 56 0
  54              		@ sp needed
  55 0010 7047     		bx	lr
  56              		.cfi_endproc
  57              	.LFE3:
ARM GAS  C:\Users\Phuong\AppData\Local\Temp\ccvh8ULi.s 			page 3


  58              		.size	saslmssbcbs_get_init_bytes, .-saslmssbcbs_get_init_bytes
  59 0012 C046     		.section	.text.saslmssbcbs_get_mechanism_name,"ax",%progbits
  60              		.align	2
  61              		.global	saslmssbcbs_get_mechanism_name
  62              		.code	16
  63              		.thumb_func
  64              		.type	saslmssbcbs_get_mechanism_name, %function
  65              	saslmssbcbs_get_mechanism_name:
  66              	.LFB4:
  57:Source\azure_iot_sdk\uamqp\src/sasl_mssbcbs.c **** 
  58:Source\azure_iot_sdk\uamqp\src/sasl_mssbcbs.c **** const char* saslmssbcbs_get_mechanism_name(CONCRETE_SASL_MECHANISM_HANDLE sasl_mechanism)
  59:Source\azure_iot_sdk\uamqp\src/sasl_mssbcbs.c **** {
  67              		.loc 1 59 0
  68              		.cfi_startproc
  69              		@ args = 0, pretend = 0, frame = 0
  70              		@ frame_needed = 0, uses_anonymous_args = 0
  71              		@ link register save eliminated.
  72              	.LVL5:
  60:Source\azure_iot_sdk\uamqp\src/sasl_mssbcbs.c ****     const char* result;
  61:Source\azure_iot_sdk\uamqp\src/sasl_mssbcbs.c **** 
  62:Source\azure_iot_sdk\uamqp\src/sasl_mssbcbs.c ****     if (sasl_mechanism == NULL)
  73              		.loc 1 62 0
  74 0000 0028     		cmp	r0, #0
  75 0002 00D0     		beq	.L5
  63:Source\azure_iot_sdk\uamqp\src/sasl_mssbcbs.c ****     {
  64:Source\azure_iot_sdk\uamqp\src/sasl_mssbcbs.c ****         result = NULL;
  65:Source\azure_iot_sdk\uamqp\src/sasl_mssbcbs.c ****     }
  66:Source\azure_iot_sdk\uamqp\src/sasl_mssbcbs.c ****     else
  67:Source\azure_iot_sdk\uamqp\src/sasl_mssbcbs.c ****     {
  68:Source\azure_iot_sdk\uamqp\src/sasl_mssbcbs.c ****         result = "MSSBCBS";
  76              		.loc 1 68 0
  77 0004 0048     		ldr	r0, .L7
  78              	.LVL6:
  79              	.L5:
  69:Source\azure_iot_sdk\uamqp\src/sasl_mssbcbs.c ****     }
  70:Source\azure_iot_sdk\uamqp\src/sasl_mssbcbs.c **** 
  71:Source\azure_iot_sdk\uamqp\src/sasl_mssbcbs.c ****     return result;
  72:Source\azure_iot_sdk\uamqp\src/sasl_mssbcbs.c **** }
  80              		.loc 1 72 0
  81              		@ sp needed
  82 0006 7047     		bx	lr
  83              	.L8:
  84              		.align	2
  85              	.L7:
  86 0008 00000000 		.word	.LC0
  87              		.cfi_endproc
  88              	.LFE4:
  89              		.size	saslmssbcbs_get_mechanism_name, .-saslmssbcbs_get_mechanism_name
  90              		.section	.text.saslmssbcbs_challenge,"ax",%progbits
  91              		.align	2
  92              		.global	saslmssbcbs_challenge
  93              		.code	16
  94              		.thumb_func
  95              		.type	saslmssbcbs_challenge, %function
  96              	saslmssbcbs_challenge:
  97              	.LFB5:
  73:Source\azure_iot_sdk\uamqp\src/sasl_mssbcbs.c **** 
ARM GAS  C:\Users\Phuong\AppData\Local\Temp\ccvh8ULi.s 			page 4


  74:Source\azure_iot_sdk\uamqp\src/sasl_mssbcbs.c **** int saslmssbcbs_challenge(CONCRETE_SASL_MECHANISM_HANDLE concrete_sasl_mechanism, const SASL_MECHAN
  75:Source\azure_iot_sdk\uamqp\src/sasl_mssbcbs.c **** {
  98              		.loc 1 75 0
  99              		.cfi_startproc
 100              		@ args = 0, pretend = 0, frame = 0
 101              		@ frame_needed = 0, uses_anonymous_args = 0
 102              		@ link register save eliminated.
 103              	.LVL7:
  76:Source\azure_iot_sdk\uamqp\src/sasl_mssbcbs.c ****     (void)concrete_sasl_mechanism;
  77:Source\azure_iot_sdk\uamqp\src/sasl_mssbcbs.c ****     (void)challenge_bytes;
  78:Source\azure_iot_sdk\uamqp\src/sasl_mssbcbs.c ****     (void)response_bytes;
  79:Source\azure_iot_sdk\uamqp\src/sasl_mssbcbs.c ****     return 0;
  80:Source\azure_iot_sdk\uamqp\src/sasl_mssbcbs.c **** }
 104              		.loc 1 80 0
 105 0000 0020     		movs	r0, #0
 106              	.LVL8:
 107              		@ sp needed
 108 0002 7047     		bx	lr
 109              		.cfi_endproc
 110              	.LFE5:
 111              		.size	saslmssbcbs_challenge, .-saslmssbcbs_challenge
 112              		.section	.text.saslmssbcbs_create,"ax",%progbits
 113              		.align	2
 114              		.global	saslmssbcbs_create
 115              		.code	16
 116              		.thumb_func
 117              		.type	saslmssbcbs_create, %function
 118              	saslmssbcbs_create:
 119              	.LFB1:
  26:Source\azure_iot_sdk\uamqp\src/sasl_mssbcbs.c ****     (void)config;
 120              		.loc 1 26 0
 121              		.cfi_startproc
 122              		@ args = 0, pretend = 0, frame = 0
 123              		@ frame_needed = 0, uses_anonymous_args = 0
 124              	.LVL9:
 125 0000 10B5     		push	{r4, lr}
 126              		.cfi_def_cfa_offset 8
 127              		.cfi_offset 4, -8
 128              		.cfi_offset 14, -4
  28:Source\azure_iot_sdk\uamqp\src/sasl_mssbcbs.c **** }
 129              		.loc 1 28 0
 130 0002 0120     		movs	r0, #1
 131              	.LVL10:
 132 0004 FFF7FEFF 		bl	malloc
 133              	.LVL11:
  29:Source\azure_iot_sdk\uamqp\src/sasl_mssbcbs.c **** 
 134              		.loc 1 29 0
 135              		@ sp needed
 136 0008 10BD     		pop	{r4, pc}
 137              		.cfi_endproc
 138              	.LFE1:
 139              		.size	saslmssbcbs_create, .-saslmssbcbs_create
 140 000a C046     		.section	.text.saslmssbcbs_destroy,"ax",%progbits
 141              		.align	2
 142              		.global	saslmssbcbs_destroy
 143              		.code	16
 144              		.thumb_func
ARM GAS  C:\Users\Phuong\AppData\Local\Temp\ccvh8ULi.s 			page 5


 145              		.type	saslmssbcbs_destroy, %function
 146              	saslmssbcbs_destroy:
 147              	.LFB2:
  32:Source\azure_iot_sdk\uamqp\src/sasl_mssbcbs.c ****     if (sasl_mechanism_concrete_handle != NULL)
 148              		.loc 1 32 0
 149              		.cfi_startproc
 150              		@ args = 0, pretend = 0, frame = 0
 151              		@ frame_needed = 0, uses_anonymous_args = 0
 152              	.LVL12:
 153 0000 10B5     		push	{r4, lr}
 154              		.cfi_def_cfa_offset 8
 155              		.cfi_offset 4, -8
 156              		.cfi_offset 14, -4
  33:Source\azure_iot_sdk\uamqp\src/sasl_mssbcbs.c ****     {
 157              		.loc 1 33 0
 158 0002 0028     		cmp	r0, #0
 159 0004 01D0     		beq	.L11
  35:Source\azure_iot_sdk\uamqp\src/sasl_mssbcbs.c ****     }
 160              		.loc 1 35 0
 161 0006 FFF7FEFF 		bl	free
 162              	.LVL13:
 163              	.L11:
  37:Source\azure_iot_sdk\uamqp\src/sasl_mssbcbs.c **** 
 164              		.loc 1 37 0
 165              		@ sp needed
 166 000a 10BD     		pop	{r4, pc}
 167              		.cfi_endproc
 168              	.LFE2:
 169              		.size	saslmssbcbs_destroy, .-saslmssbcbs_destroy
 170              		.section	.text.saslmssbcbs_get_interface,"ax",%progbits
 171              		.align	2
 172              		.global	saslmssbcbs_get_interface
 173              		.code	16
 174              		.thumb_func
 175              		.type	saslmssbcbs_get_interface, %function
 176              	saslmssbcbs_get_interface:
 177              	.LFB6:
  81:Source\azure_iot_sdk\uamqp\src/sasl_mssbcbs.c **** 
  82:Source\azure_iot_sdk\uamqp\src/sasl_mssbcbs.c **** const SASL_MECHANISM_INTERFACE_DESCRIPTION* saslmssbcbs_get_interface(void)
  83:Source\azure_iot_sdk\uamqp\src/sasl_mssbcbs.c **** {
 178              		.loc 1 83 0
 179              		.cfi_startproc
 180              		@ args = 0, pretend = 0, frame = 0
 181              		@ frame_needed = 0, uses_anonymous_args = 0
 182              		@ link register save eliminated.
  84:Source\azure_iot_sdk\uamqp\src/sasl_mssbcbs.c ****     return &saslmssbcbs_interface;
  85:Source\azure_iot_sdk\uamqp\src/sasl_mssbcbs.c **** }
 183              		.loc 1 85 0
 184 0000 0048     		ldr	r0, .L14
 185              		@ sp needed
 186 0002 7047     		bx	lr
 187              	.L15:
 188              		.align	2
 189              	.L14:
 190 0004 00000000 		.word	.LANCHOR0
 191              		.cfi_endproc
 192              	.LFE6:
ARM GAS  C:\Users\Phuong\AppData\Local\Temp\ccvh8ULi.s 			page 6


 193              		.size	saslmssbcbs_get_interface, .-saslmssbcbs_get_interface
 194              		.section	.rodata
 195              		.align	2
 196              		.set	.LANCHOR0,. + 0
 197              		.type	saslmssbcbs_interface, %object
 198              		.size	saslmssbcbs_interface, 20
 199              	saslmssbcbs_interface:
 200 0000 00000000 		.word	saslmssbcbs_create
 201 0004 00000000 		.word	saslmssbcbs_destroy
 202 0008 00000000 		.word	saslmssbcbs_get_init_bytes
 203 000c 00000000 		.word	saslmssbcbs_get_mechanism_name
 204 0010 00000000 		.word	saslmssbcbs_challenge
 205              		.section	.rodata.str1.4,"aMS",%progbits,1
 206              		.align	2
 207              	.LC0:
 208 0000 4D535342 		.ascii	"MSSBCBS\000"
 208      43425300 
 209              		.text
 210              	.Letext0:
 211              		.file 2 "c:\\program files (x86)\\cypress\\psoc creator\\4.2\\psoc creator\\import\\gnu\\arm\\5.4.
 212              		.file 3 "c:\\program files (x86)\\cypress\\psoc creator\\4.2\\psoc creator\\import\\gnu\\arm\\5.4.
 213              		.file 4 ".\\Source\\azure_iot_sdk\\uamqp\\inc/azure_uamqp_c/sasl_mechanism.h"
 214              		.file 5 "c:\\program files (x86)\\cypress\\psoc creator\\4.2\\psoc creator\\import\\gnu\\arm\\5.4.