ARM GAS  C:\Users\Phuong\AppData\Local\Temp\ccIn3esT.s 			page 1


   1              		.syntax unified
   2              		.cpu cortex-m0plus
   3              		.fpu softvfp
   4              		.eabi_attribute 20, 1
   5              		.eabi_attribute 21, 1
   6              		.eabi_attribute 23, 3
   7              		.eabi_attribute 24, 1
   8              		.eabi_attribute 25, 1
   9              		.eabi_attribute 26, 1
  10              		.eabi_attribute 30, 1
  11              		.eabi_attribute 34, 0
  12              		.eabi_attribute 18, 4
  13              		.thumb
  14              		.syntax unified
  15              		.file	"sastoken.c"
  16              		.text
  17              	.Ltext0:
  18              		.cfi_sections	.debug_frame
  19              		.global	__aeabi_dmul
  20              		.global	__aeabi_i2d
  21              		.global	__aeabi_dadd
  22              		.section	.text.getExpiryValue,"ax",%progbits
  23              		.align	2
  24              		.code	16
  25              		.thumb_func
  26              		.type	getExpiryValue, %function
  27              	getExpiryValue:
  28              	.LFB1:
  29              		.file 1 "Source\\azure_iot_sdk\\c-utility\\src\\sastoken.c"
   1:Source\azure_iot_sdk\c-utility\src/sastoken.c **** // Copyright (c) Microsoft. All rights reserved.
   2:Source\azure_iot_sdk\c-utility\src/sastoken.c **** // Licensed under the MIT license. See LICENSE file in the project root for full license informatio
   3:Source\azure_iot_sdk\c-utility\src/sastoken.c **** 
   4:Source\azure_iot_sdk\c-utility\src/sastoken.c **** #include <stdlib.h>
   5:Source\azure_iot_sdk\c-utility\src/sastoken.c **** #include <stdio.h>
   6:Source\azure_iot_sdk\c-utility\src/sastoken.c **** #include <string.h>
   7:Source\azure_iot_sdk\c-utility\src/sastoken.c **** #include "azure_c_shared_utility/gballoc.h"
   8:Source\azure_iot_sdk\c-utility\src/sastoken.c **** #include "azure_c_shared_utility/sastoken.h"
   9:Source\azure_iot_sdk\c-utility\src/sastoken.c **** #include "azure_c_shared_utility/urlencode.h"
  10:Source\azure_iot_sdk\c-utility\src/sastoken.c **** #include "azure_c_shared_utility/hmacsha256.h"
  11:Source\azure_iot_sdk\c-utility\src/sastoken.c **** #include "azure_c_shared_utility/base64.h"
  12:Source\azure_iot_sdk\c-utility\src/sastoken.c **** #include "azure_c_shared_utility/agenttime.h"
  13:Source\azure_iot_sdk\c-utility\src/sastoken.c **** #include "azure_c_shared_utility/strings.h"
  14:Source\azure_iot_sdk\c-utility\src/sastoken.c **** #include "azure_c_shared_utility/buffer_.h"
  15:Source\azure_iot_sdk\c-utility\src/sastoken.c **** #include "azure_c_shared_utility/xlogging.h"
  16:Source\azure_iot_sdk\c-utility\src/sastoken.c **** #include "azure_c_shared_utility/crt_abstractions.h"
  17:Source\azure_iot_sdk\c-utility\src/sastoken.c **** 
  18:Source\azure_iot_sdk\c-utility\src/sastoken.c **** static double getExpiryValue(const char* expiryASCII)
  19:Source\azure_iot_sdk\c-utility\src/sastoken.c **** {
  30              		.loc 1 19 0
  31              		.cfi_startproc
  32              		@ args = 0, pretend = 0, frame = 8
  33              		@ frame_needed = 0, uses_anonymous_args = 0
  34              	.LVL0:
  35 0000 70B5     		push	{r4, r5, r6, lr}
  36              		.cfi_def_cfa_offset 16
  37              		.cfi_offset 4, -16
  38              		.cfi_offset 5, -12
ARM GAS  C:\Users\Phuong\AppData\Local\Temp\ccIn3esT.s 			page 2


  39              		.cfi_offset 6, -8
  40              		.cfi_offset 14, -4
  41 0002 82B0     		sub	sp, sp, #8
  42              		.cfi_def_cfa_offset 24
  43 0004 0600     		movs	r6, r0
  44              	.LVL1:
  20:Source\azure_iot_sdk\c-utility\src/sastoken.c ****     double value = 0;
  21:Source\azure_iot_sdk\c-utility\src/sastoken.c ****     size_t i = 0;
  22:Source\azure_iot_sdk\c-utility\src/sastoken.c ****     for (i = 0; expiryASCII[i] != '\0'; i++)
  45              		.loc 1 22 0
  46 0006 0025     		movs	r5, #0
  20:Source\azure_iot_sdk\c-utility\src/sastoken.c ****     double value = 0;
  47              		.loc 1 20 0
  48 0008 0020     		movs	r0, #0
  49              	.LVL2:
  50 000a 0021     		movs	r1, #0
  51              		.loc 1 22 0
  52 000c 15E0     		b	.L2
  53              	.LVL3:
  54              	.L4:
  23:Source\azure_iot_sdk\c-utility\src/sastoken.c ****     {
  24:Source\azure_iot_sdk\c-utility\src/sastoken.c ****         if (expiryASCII[i] >= '0' && expiryASCII[i] <= '9')
  55              		.loc 1 24 0
  56 000e 2300     		movs	r3, r4
  57 0010 303B     		subs	r3, r3, #48
  58 0012 DBB2     		uxtb	r3, r3
  59 0014 092B     		cmp	r3, #9
  60 0016 14D8     		bhi	.L5
  25:Source\azure_iot_sdk\c-utility\src/sastoken.c ****         {
  26:Source\azure_iot_sdk\c-utility\src/sastoken.c ****             value = value * 10 + (expiryASCII[i] - '0');
  61              		.loc 1 26 0
  62 0018 0022     		movs	r2, #0
  63 001a 0C4B     		ldr	r3, .L6
  64 001c FFF7FEFF 		bl	__aeabi_dmul
  65              	.LVL4:
  66 0020 0090     		str	r0, [sp]
  67 0022 0191     		str	r1, [sp, #4]
  68 0024 303C     		subs	r4, r4, #48
  69 0026 2000     		movs	r0, r4
  70 0028 FFF7FEFF 		bl	__aeabi_i2d
  71              	.LVL5:
  72 002c 0200     		movs	r2, r0
  73 002e 0B00     		movs	r3, r1
  74 0030 0098     		ldr	r0, [sp]
  75 0032 0199     		ldr	r1, [sp, #4]
  76 0034 FFF7FEFF 		bl	__aeabi_dadd
  77              	.LVL6:
  22:Source\azure_iot_sdk\c-utility\src/sastoken.c ****     {
  78              		.loc 1 22 0
  79 0038 0135     		adds	r5, r5, #1
  80              	.LVL7:
  81              	.L2:
  22:Source\azure_iot_sdk\c-utility\src/sastoken.c ****     {
  82              		.loc 1 22 0 is_stmt 0 discriminator 1
  83 003a 745D     		ldrb	r4, [r6, r5]
  84 003c 002C     		cmp	r4, #0
  85 003e E6D1     		bne	.L4
ARM GAS  C:\Users\Phuong\AppData\Local\Temp\ccIn3esT.s 			page 3


  86 0040 01E0     		b	.L3
  87              	.L5:
  27:Source\azure_iot_sdk\c-utility\src/sastoken.c ****         }
  28:Source\azure_iot_sdk\c-utility\src/sastoken.c ****         else
  29:Source\azure_iot_sdk\c-utility\src/sastoken.c ****         {
  30:Source\azure_iot_sdk\c-utility\src/sastoken.c ****             value = 0;
  88              		.loc 1 30 0 is_stmt 1
  89 0042 0020     		movs	r0, #0
  90              	.LVL8:
  91 0044 0021     		movs	r1, #0
  92              	.L3:
  93              	.LVL9:
  31:Source\azure_iot_sdk\c-utility\src/sastoken.c ****             break;
  32:Source\azure_iot_sdk\c-utility\src/sastoken.c ****         }
  33:Source\azure_iot_sdk\c-utility\src/sastoken.c ****     }
  34:Source\azure_iot_sdk\c-utility\src/sastoken.c ****     return value;
  35:Source\azure_iot_sdk\c-utility\src/sastoken.c **** }
  94              		.loc 1 35 0
  95 0046 02B0     		add	sp, sp, #8
  96              		@ sp needed
  97              	.LVL10:
  98              	.LVL11:
  99 0048 70BD     		pop	{r4, r5, r6, pc}
 100              	.L7:
 101 004a C046     		.align	2
 102              	.L6:
 103 004c 00002440 		.word	1076101120
 104              		.cfi_endproc
 105              	.LFE1:
 106              		.size	getExpiryValue, .-getExpiryValue
 107              		.section	.text.construct_sas_token,"ax",%progbits
 108              		.align	2
 109              		.code	16
 110              		.thumb_func
 111              		.type	construct_sas_token, %function
 112              	construct_sas_token:
 113              	.LFB3:
  36:Source\azure_iot_sdk\c-utility\src/sastoken.c **** 
  37:Source\azure_iot_sdk\c-utility\src/sastoken.c **** bool SASToken_Validate(STRING_HANDLE sasToken)
  38:Source\azure_iot_sdk\c-utility\src/sastoken.c **** {
  39:Source\azure_iot_sdk\c-utility\src/sastoken.c ****     bool result;
  40:Source\azure_iot_sdk\c-utility\src/sastoken.c ****     /*Codes_SRS_SASTOKEN_25_025: [**SASToken_Validate shall get the SASToken value by invoking STRI
  41:Source\azure_iot_sdk\c-utility\src/sastoken.c ****     const char* sasTokenArray = STRING_c_str(sasToken);
  42:Source\azure_iot_sdk\c-utility\src/sastoken.c **** 
  43:Source\azure_iot_sdk\c-utility\src/sastoken.c ****     /* Codes_SRS_SASTOKEN_25_024: [**If handle is NULL then SASToken_Validate shall return false.**
  44:Source\azure_iot_sdk\c-utility\src/sastoken.c ****     /* Codes_SRS_SASTOKEN_25_026: [**If STRING_c_str on handle return NULL then SASToken_Validate s
  45:Source\azure_iot_sdk\c-utility\src/sastoken.c ****     if (sasToken == NULL || sasTokenArray == NULL)
  46:Source\azure_iot_sdk\c-utility\src/sastoken.c ****     {
  47:Source\azure_iot_sdk\c-utility\src/sastoken.c ****         result = false;
  48:Source\azure_iot_sdk\c-utility\src/sastoken.c ****     }
  49:Source\azure_iot_sdk\c-utility\src/sastoken.c ****     else
  50:Source\azure_iot_sdk\c-utility\src/sastoken.c ****     {
  51:Source\azure_iot_sdk\c-utility\src/sastoken.c ****         int seStart = -1, seStop = -1;
  52:Source\azure_iot_sdk\c-utility\src/sastoken.c ****         int srStart = -1, srStop = -1;
  53:Source\azure_iot_sdk\c-utility\src/sastoken.c ****         int sigStart = -1, sigStop = -1;
  54:Source\azure_iot_sdk\c-utility\src/sastoken.c ****         int tokenLength = (int)STRING_length(sasToken);
  55:Source\azure_iot_sdk\c-utility\src/sastoken.c ****         int i;
ARM GAS  C:\Users\Phuong\AppData\Local\Temp\ccIn3esT.s 			page 4


  56:Source\azure_iot_sdk\c-utility\src/sastoken.c ****         for (i = 0; i < tokenLength; i++)
  57:Source\azure_iot_sdk\c-utility\src/sastoken.c ****         {
  58:Source\azure_iot_sdk\c-utility\src/sastoken.c ****             if (sasTokenArray[i] == 's' && sasTokenArray[i + 1] == 'e' && sasTokenArray[i + 2] == '
  59:Source\azure_iot_sdk\c-utility\src/sastoken.c ****             {
  60:Source\azure_iot_sdk\c-utility\src/sastoken.c ****                 seStart = i + 3;
  61:Source\azure_iot_sdk\c-utility\src/sastoken.c ****                 if (srStart > 0 && srStop < 0)
  62:Source\azure_iot_sdk\c-utility\src/sastoken.c ****                 {
  63:Source\azure_iot_sdk\c-utility\src/sastoken.c ****                     if (sasTokenArray[i - 1] != '&' && sasTokenArray[i - 1] == ' ') // look for eit
  64:Source\azure_iot_sdk\c-utility\src/sastoken.c ****                         srStop = i - 1;
  65:Source\azure_iot_sdk\c-utility\src/sastoken.c ****                     else if (sasTokenArray[i - 1] == '&')
  66:Source\azure_iot_sdk\c-utility\src/sastoken.c ****                         srStop = i - 2;
  67:Source\azure_iot_sdk\c-utility\src/sastoken.c ****                     else
  68:Source\azure_iot_sdk\c-utility\src/sastoken.c ****                         seStart = -1; // as the format is not either "&se=" or " se="
  69:Source\azure_iot_sdk\c-utility\src/sastoken.c ****                 }
  70:Source\azure_iot_sdk\c-utility\src/sastoken.c ****                 else if (sigStart > 0 && sigStop < 0)
  71:Source\azure_iot_sdk\c-utility\src/sastoken.c ****                 {
  72:Source\azure_iot_sdk\c-utility\src/sastoken.c ****                     if (sasTokenArray[i - 1] != '&' && sasTokenArray[i - 1] == ' ')
  73:Source\azure_iot_sdk\c-utility\src/sastoken.c ****                         sigStop = i - 1;
  74:Source\azure_iot_sdk\c-utility\src/sastoken.c ****                     else if (sasTokenArray[i - 1] == '&')
  75:Source\azure_iot_sdk\c-utility\src/sastoken.c ****                         sigStop = i - 2;
  76:Source\azure_iot_sdk\c-utility\src/sastoken.c ****                     else
  77:Source\azure_iot_sdk\c-utility\src/sastoken.c ****                         seStart = -1;
  78:Source\azure_iot_sdk\c-utility\src/sastoken.c ****                 }
  79:Source\azure_iot_sdk\c-utility\src/sastoken.c ****             }
  80:Source\azure_iot_sdk\c-utility\src/sastoken.c ****             else if (sasTokenArray[i] == 's' && sasTokenArray[i + 1] == 'r' && sasTokenArray[i + 2]
  81:Source\azure_iot_sdk\c-utility\src/sastoken.c ****             {
  82:Source\azure_iot_sdk\c-utility\src/sastoken.c ****                 srStart = i + 3;
  83:Source\azure_iot_sdk\c-utility\src/sastoken.c ****                 if (seStart > 0 && seStop < 0)
  84:Source\azure_iot_sdk\c-utility\src/sastoken.c ****                 {
  85:Source\azure_iot_sdk\c-utility\src/sastoken.c ****                     if (sasTokenArray[i - 1] != '&' && sasTokenArray[i - 1] == ' ')
  86:Source\azure_iot_sdk\c-utility\src/sastoken.c ****                         seStop = i - 1;
  87:Source\azure_iot_sdk\c-utility\src/sastoken.c ****                     else if (sasTokenArray[i - 1] == '&')
  88:Source\azure_iot_sdk\c-utility\src/sastoken.c ****                         seStop = i - 2;
  89:Source\azure_iot_sdk\c-utility\src/sastoken.c ****                     else
  90:Source\azure_iot_sdk\c-utility\src/sastoken.c ****                         srStart = -1;
  91:Source\azure_iot_sdk\c-utility\src/sastoken.c ****                 }
  92:Source\azure_iot_sdk\c-utility\src/sastoken.c ****                 else if (sigStart > 0 && sigStop < 0)
  93:Source\azure_iot_sdk\c-utility\src/sastoken.c ****                 {
  94:Source\azure_iot_sdk\c-utility\src/sastoken.c ****                     if (sasTokenArray[i - 1] != '&' && sasTokenArray[i - 1] == ' ')
  95:Source\azure_iot_sdk\c-utility\src/sastoken.c ****                         sigStop = i - 1;
  96:Source\azure_iot_sdk\c-utility\src/sastoken.c ****                     else if (sasTokenArray[i - 1] == '&')
  97:Source\azure_iot_sdk\c-utility\src/sastoken.c ****                         sigStop = i - 2;
  98:Source\azure_iot_sdk\c-utility\src/sastoken.c ****                     else
  99:Source\azure_iot_sdk\c-utility\src/sastoken.c ****                         srStart = -1;
 100:Source\azure_iot_sdk\c-utility\src/sastoken.c ****                 }
 101:Source\azure_iot_sdk\c-utility\src/sastoken.c ****             }
 102:Source\azure_iot_sdk\c-utility\src/sastoken.c ****             else if (sasTokenArray[i] == 's' && sasTokenArray[i + 1] == 'i' && sasTokenArray[i + 2]
 103:Source\azure_iot_sdk\c-utility\src/sastoken.c ****             {
 104:Source\azure_iot_sdk\c-utility\src/sastoken.c ****                 sigStart = i + 4;
 105:Source\azure_iot_sdk\c-utility\src/sastoken.c ****                 if (srStart > 0 && srStop < 0)
 106:Source\azure_iot_sdk\c-utility\src/sastoken.c ****                 {
 107:Source\azure_iot_sdk\c-utility\src/sastoken.c ****                     if (sasTokenArray[i - 1] != '&' && sasTokenArray[i - 1] == ' ')
 108:Source\azure_iot_sdk\c-utility\src/sastoken.c ****                         srStop = i - 1;
 109:Source\azure_iot_sdk\c-utility\src/sastoken.c ****                     else if (sasTokenArray[i - 1] == '&')
 110:Source\azure_iot_sdk\c-utility\src/sastoken.c ****                         srStop = i - 2;
 111:Source\azure_iot_sdk\c-utility\src/sastoken.c ****                     else
 112:Source\azure_iot_sdk\c-utility\src/sastoken.c ****                         sigStart = -1;
ARM GAS  C:\Users\Phuong\AppData\Local\Temp\ccIn3esT.s 			page 5


 113:Source\azure_iot_sdk\c-utility\src/sastoken.c ****                 }
 114:Source\azure_iot_sdk\c-utility\src/sastoken.c ****                 else if (seStart > 0 && seStop < 0)
 115:Source\azure_iot_sdk\c-utility\src/sastoken.c ****                 {
 116:Source\azure_iot_sdk\c-utility\src/sastoken.c ****                     if (sasTokenArray[i - 1] != '&' && sasTokenArray[i - 1] == ' ')
 117:Source\azure_iot_sdk\c-utility\src/sastoken.c ****                         seStop = i - 1;
 118:Source\azure_iot_sdk\c-utility\src/sastoken.c ****                     else if (sasTokenArray[i - 1] == '&')
 119:Source\azure_iot_sdk\c-utility\src/sastoken.c ****                         seStop = i - 2;
 120:Source\azure_iot_sdk\c-utility\src/sastoken.c ****                     else
 121:Source\azure_iot_sdk\c-utility\src/sastoken.c ****                         sigStart = -1;
 122:Source\azure_iot_sdk\c-utility\src/sastoken.c ****                 }
 123:Source\azure_iot_sdk\c-utility\src/sastoken.c ****             }
 124:Source\azure_iot_sdk\c-utility\src/sastoken.c ****         }
 125:Source\azure_iot_sdk\c-utility\src/sastoken.c **** 
 126:Source\azure_iot_sdk\c-utility\src/sastoken.c ****         /*Codes_SRS_SASTOKEN_25_027: [**If SASTOKEN does not obey the SASToken format then SASToken
 127:Source\azure_iot_sdk\c-utility\src/sastoken.c ****         /*Codes_SRS_SASTOKEN_25_028: [**SASToken_validate shall check for the presence of sr, se an
 128:Source\azure_iot_sdk\c-utility\src/sastoken.c ****         if (seStart < 0 || srStart < 0 || sigStart < 0)
 129:Source\azure_iot_sdk\c-utility\src/sastoken.c ****         {
 130:Source\azure_iot_sdk\c-utility\src/sastoken.c ****             result = false;
 131:Source\azure_iot_sdk\c-utility\src/sastoken.c ****         }
 132:Source\azure_iot_sdk\c-utility\src/sastoken.c ****         else
 133:Source\azure_iot_sdk\c-utility\src/sastoken.c ****         {
 134:Source\azure_iot_sdk\c-utility\src/sastoken.c ****             if (seStop < 0)
 135:Source\azure_iot_sdk\c-utility\src/sastoken.c ****             {
 136:Source\azure_iot_sdk\c-utility\src/sastoken.c ****                 seStop = tokenLength;
 137:Source\azure_iot_sdk\c-utility\src/sastoken.c ****             }
 138:Source\azure_iot_sdk\c-utility\src/sastoken.c ****             else if (srStop < 0)
 139:Source\azure_iot_sdk\c-utility\src/sastoken.c ****             {
 140:Source\azure_iot_sdk\c-utility\src/sastoken.c ****                 srStop = tokenLength;
 141:Source\azure_iot_sdk\c-utility\src/sastoken.c ****             }
 142:Source\azure_iot_sdk\c-utility\src/sastoken.c ****             else if (sigStop < 0)
 143:Source\azure_iot_sdk\c-utility\src/sastoken.c ****             {
 144:Source\azure_iot_sdk\c-utility\src/sastoken.c ****                 sigStop = tokenLength;
 145:Source\azure_iot_sdk\c-utility\src/sastoken.c ****             }
 146:Source\azure_iot_sdk\c-utility\src/sastoken.c **** 
 147:Source\azure_iot_sdk\c-utility\src/sastoken.c ****             if ((seStop <= seStart) ||
 148:Source\azure_iot_sdk\c-utility\src/sastoken.c ****                 (srStop <= srStart) ||
 149:Source\azure_iot_sdk\c-utility\src/sastoken.c ****                 (sigStop <= sigStart))
 150:Source\azure_iot_sdk\c-utility\src/sastoken.c ****             {
 151:Source\azure_iot_sdk\c-utility\src/sastoken.c ****                 result = false;
 152:Source\azure_iot_sdk\c-utility\src/sastoken.c ****             }
 153:Source\azure_iot_sdk\c-utility\src/sastoken.c ****             else
 154:Source\azure_iot_sdk\c-utility\src/sastoken.c ****             {
 155:Source\azure_iot_sdk\c-utility\src/sastoken.c ****                 char* expiryASCII = (char*)malloc(seStop - seStart + 1);
 156:Source\azure_iot_sdk\c-utility\src/sastoken.c ****                 /*Codes_SRS_SASTOKEN_25_031: [**If malloc fails during validation then SASToken_Val
 157:Source\azure_iot_sdk\c-utility\src/sastoken.c ****                 if (expiryASCII == NULL)
 158:Source\azure_iot_sdk\c-utility\src/sastoken.c ****                 {
 159:Source\azure_iot_sdk\c-utility\src/sastoken.c ****                     result = false;
 160:Source\azure_iot_sdk\c-utility\src/sastoken.c ****                 }
 161:Source\azure_iot_sdk\c-utility\src/sastoken.c ****                 else
 162:Source\azure_iot_sdk\c-utility\src/sastoken.c ****                 {
 163:Source\azure_iot_sdk\c-utility\src/sastoken.c ****                     double expiry;
 164:Source\azure_iot_sdk\c-utility\src/sastoken.c ****                     // Add the Null terminator here
 165:Source\azure_iot_sdk\c-utility\src/sastoken.c ****                     memset(expiryASCII, 0, seStop - seStart + 1);
 166:Source\azure_iot_sdk\c-utility\src/sastoken.c ****                     for (i = seStart; i < seStop; i++)
 167:Source\azure_iot_sdk\c-utility\src/sastoken.c ****                     {
 168:Source\azure_iot_sdk\c-utility\src/sastoken.c ****                         // The se contains the expiration values, if a & token is encountered then
 169:Source\azure_iot_sdk\c-utility\src/sastoken.c ****                         // the se field is complete.
ARM GAS  C:\Users\Phuong\AppData\Local\Temp\ccIn3esT.s 			page 6


 170:Source\azure_iot_sdk\c-utility\src/sastoken.c ****                         if (sasTokenArray[i] == '&')
 171:Source\azure_iot_sdk\c-utility\src/sastoken.c ****                         {
 172:Source\azure_iot_sdk\c-utility\src/sastoken.c ****                             break;
 173:Source\azure_iot_sdk\c-utility\src/sastoken.c ****                         }
 174:Source\azure_iot_sdk\c-utility\src/sastoken.c ****                         expiryASCII[i - seStart] = sasTokenArray[i];
 175:Source\azure_iot_sdk\c-utility\src/sastoken.c ****                     }
 176:Source\azure_iot_sdk\c-utility\src/sastoken.c ****                     expiry = getExpiryValue(expiryASCII);
 177:Source\azure_iot_sdk\c-utility\src/sastoken.c ****                     /*Codes_SRS_SASTOKEN_25_029: [**SASToken_validate shall check for expiry time f
 178:Source\azure_iot_sdk\c-utility\src/sastoken.c ****                     if (expiry <= 0)
 179:Source\azure_iot_sdk\c-utility\src/sastoken.c ****                     {
 180:Source\azure_iot_sdk\c-utility\src/sastoken.c ****                         result = false;
 181:Source\azure_iot_sdk\c-utility\src/sastoken.c ****                     }
 182:Source\azure_iot_sdk\c-utility\src/sastoken.c ****                     else
 183:Source\azure_iot_sdk\c-utility\src/sastoken.c ****                     {
 184:Source\azure_iot_sdk\c-utility\src/sastoken.c ****                         double secSinceEpoch = get_difftime(get_time(NULL), (time_t)0);
 185:Source\azure_iot_sdk\c-utility\src/sastoken.c ****                         if (expiry < secSinceEpoch)
 186:Source\azure_iot_sdk\c-utility\src/sastoken.c ****                         {
 187:Source\azure_iot_sdk\c-utility\src/sastoken.c ****                             /*Codes_SRS_SASTOKEN_25_029: [**SASToken_validate shall check for expir
 188:Source\azure_iot_sdk\c-utility\src/sastoken.c ****                             result = false;
 189:Source\azure_iot_sdk\c-utility\src/sastoken.c ****                         }
 190:Source\azure_iot_sdk\c-utility\src/sastoken.c ****                         else
 191:Source\azure_iot_sdk\c-utility\src/sastoken.c ****                         {
 192:Source\azure_iot_sdk\c-utility\src/sastoken.c ****                             /*Codes_SRS_SASTOKEN_25_030: [**SASToken_validate shall return true onl
 193:Source\azure_iot_sdk\c-utility\src/sastoken.c ****                             result = true;
 194:Source\azure_iot_sdk\c-utility\src/sastoken.c ****                         }
 195:Source\azure_iot_sdk\c-utility\src/sastoken.c ****                     }
 196:Source\azure_iot_sdk\c-utility\src/sastoken.c ****                     free(expiryASCII);
 197:Source\azure_iot_sdk\c-utility\src/sastoken.c ****                 }
 198:Source\azure_iot_sdk\c-utility\src/sastoken.c ****             }
 199:Source\azure_iot_sdk\c-utility\src/sastoken.c ****         }
 200:Source\azure_iot_sdk\c-utility\src/sastoken.c ****     }
 201:Source\azure_iot_sdk\c-utility\src/sastoken.c **** 
 202:Source\azure_iot_sdk\c-utility\src/sastoken.c ****     return result;
 203:Source\azure_iot_sdk\c-utility\src/sastoken.c **** }
 204:Source\azure_iot_sdk\c-utility\src/sastoken.c **** 
 205:Source\azure_iot_sdk\c-utility\src/sastoken.c **** static STRING_HANDLE construct_sas_token(const char* key, const char* scope, const char* keyname, s
 206:Source\azure_iot_sdk\c-utility\src/sastoken.c **** {
 114              		.loc 1 206 0
 115              		.cfi_startproc
 116              		@ args = 0, pretend = 0, frame = 56
 117              		@ frame_needed = 0, uses_anonymous_args = 0
 118              	.LVL12:
 119 0000 F0B5     		push	{r4, r5, r6, r7, lr}
 120              		.cfi_def_cfa_offset 20
 121              		.cfi_offset 4, -20
 122              		.cfi_offset 5, -16
 123              		.cfi_offset 6, -12
 124              		.cfi_offset 7, -8
 125              		.cfi_offset 14, -4
 126 0002 4746     		mov	r7, r8
 127 0004 80B4     		push	{r7}
 128              		.cfi_def_cfa_offset 24
 129              		.cfi_offset 8, -24
 130 0006 90B0     		sub	sp, sp, #64
 131              		.cfi_def_cfa_offset 88
 132 0008 0400     		movs	r4, r0
 133 000a 0391     		str	r1, [sp, #12]
ARM GAS  C:\Users\Phuong\AppData\Local\Temp\ccIn3esT.s 			page 7


 134 000c 0492     		str	r2, [sp, #16]
 135 000e 1D00     		movs	r5, r3
 207:Source\azure_iot_sdk\c-utility\src/sastoken.c ****     STRING_HANDLE result;
 208:Source\azure_iot_sdk\c-utility\src/sastoken.c **** 
 209:Source\azure_iot_sdk\c-utility\src/sastoken.c ****     char tokenExpirationTime[32] = { 0 };
 136              		.loc 1 209 0
 137 0010 2022     		movs	r2, #32
 138              	.LVL13:
 139 0012 0021     		movs	r1, #0
 140              	.LVL14:
 141 0014 08A8     		add	r0, sp, #32
 142              	.LVL15:
 143 0016 FFF7FEFF 		bl	memset
 144              	.LVL16:
 210:Source\azure_iot_sdk\c-utility\src/sastoken.c **** 
 211:Source\azure_iot_sdk\c-utility\src/sastoken.c ****     BUFFER_HANDLE decodedKey;
 212:Source\azure_iot_sdk\c-utility\src/sastoken.c **** 
 213:Source\azure_iot_sdk\c-utility\src/sastoken.c ****     /*Codes_SRS_SASTOKEN_06_029: [The key parameter is decoded from base64.]*/
 214:Source\azure_iot_sdk\c-utility\src/sastoken.c ****     if ((decodedKey = Base64_Decoder(key)) == NULL)
 145              		.loc 1 214 0
 146 001a 2000     		movs	r0, r4
 147 001c FFF7FEFF 		bl	Base64_Decoder
 148              	.LVL17:
 149 0020 041E     		subs	r4, r0, #0
 150              	.LVL18:
 151 0022 0FD1     		bne	.L9
 152              	.LBB2:
 215:Source\azure_iot_sdk\c-utility\src/sastoken.c ****     {
 216:Source\azure_iot_sdk\c-utility\src/sastoken.c ****         /*Codes_SRS_SASTOKEN_06_030: [If there is an error in the decoding then SASToken_Create sha
 217:Source\azure_iot_sdk\c-utility\src/sastoken.c ****         LogError("Unable to decode the key for generating the SAS.");
 153              		.loc 1 217 0 discriminator 3
 154 0024 FFF7FEFF 		bl	xlogging_get_log_function
 155              	.LVL19:
 156 0028 041E     		subs	r4, r0, #0
 157              	.LVL20:
 158 002a 00D1     		bne	.LCB142
 159 002c EAE0     		b	.L23	@long jump
 160              	.LCB142:
 161              		.loc 1 217 0 is_stmt 0 discriminator 4
 162 002e 784B     		ldr	r3, .L29
 163 0030 0193     		str	r3, [sp, #4]
 164 0032 0123     		movs	r3, #1
 165 0034 0093     		str	r3, [sp]
 166 0036 D833     		adds	r3, r3, #216
 167 0038 764A     		ldr	r2, .L29+4
 168 003a 7749     		ldr	r1, .L29+8
 169 003c 0020     		movs	r0, #0
 170              	.LVL21:
 171 003e A047     		blx	r4
 172              	.LVL22:
 173              	.LBE2:
 218:Source\azure_iot_sdk\c-utility\src/sastoken.c ****         result = NULL;
 174              		.loc 1 218 0 is_stmt 1 discriminator 4
 175 0040 0025     		movs	r5, #0
 176              	.LVL23:
 177 0042 E0E0     		b	.L10
 178              	.LVL24:
ARM GAS  C:\Users\Phuong\AppData\Local\Temp\ccIn3esT.s 			page 8


 179              	.L9:
 219:Source\azure_iot_sdk\c-utility\src/sastoken.c ****     }
 220:Source\azure_iot_sdk\c-utility\src/sastoken.c ****     else
 221:Source\azure_iot_sdk\c-utility\src/sastoken.c ****     {
 222:Source\azure_iot_sdk\c-utility\src/sastoken.c ****         /*Codes_SRS_SASTOKEN_06_026: [If the conversion to string form fails for any reason then SA
 223:Source\azure_iot_sdk\c-utility\src/sastoken.c ****         if (size_tToString(tokenExpirationTime, sizeof(tokenExpirationTime), expiry) != 0)
 180              		.loc 1 223 0
 181 0044 2A00     		movs	r2, r5
 182 0046 2021     		movs	r1, #32
 183 0048 08A8     		add	r0, sp, #32
 184              	.LVL25:
 185 004a FFF7FEFF 		bl	size_tToString
 186              	.LVL26:
 187 004e 0028     		cmp	r0, #0
 188 0050 0FD0     		beq	.L11
 189              	.LBB3:
 224:Source\azure_iot_sdk\c-utility\src/sastoken.c ****         {
 225:Source\azure_iot_sdk\c-utility\src/sastoken.c ****             LogError("For some reason converting seconds to a string failed.  No SAS can be generat
 190              		.loc 1 225 0 discriminator 3
 191 0052 FFF7FEFF 		bl	xlogging_get_log_function
 192              	.LVL27:
 193 0056 051E     		subs	r5, r0, #0
 194              	.LVL28:
 195 0058 00D1     		bne	.LCB179
 196 005a CEE0     		b	.L24	@long jump
 197              	.LCB179:
 198              		.loc 1 225 0 is_stmt 0 discriminator 4
 199 005c 6F4B     		ldr	r3, .L29+12
 200 005e 0193     		str	r3, [sp, #4]
 201 0060 0123     		movs	r3, #1
 202 0062 0093     		str	r3, [sp]
 203 0064 E033     		adds	r3, r3, #224
 204 0066 6B4A     		ldr	r2, .L29+4
 205 0068 6B49     		ldr	r1, .L29+8
 206 006a 0020     		movs	r0, #0
 207              	.LVL29:
 208 006c A847     		blx	r5
 209              	.LVL30:
 210              	.LBE3:
 226:Source\azure_iot_sdk\c-utility\src/sastoken.c ****             result = NULL;
 211              		.loc 1 226 0 is_stmt 1 discriminator 4
 212 006e 0025     		movs	r5, #0
 213              	.LVL31:
 214 0070 C4E0     		b	.L12
 215              	.LVL32:
 216              	.L11:
 217              	.LBB4:
 227:Source\azure_iot_sdk\c-utility\src/sastoken.c ****         }
 228:Source\azure_iot_sdk\c-utility\src/sastoken.c ****         else
 229:Source\azure_iot_sdk\c-utility\src/sastoken.c ****         {
 230:Source\azure_iot_sdk\c-utility\src/sastoken.c ****             STRING_HANDLE toBeHashed = NULL;
 231:Source\azure_iot_sdk\c-utility\src/sastoken.c ****             BUFFER_HANDLE hash = NULL;
 232:Source\azure_iot_sdk\c-utility\src/sastoken.c ****             if (((hash = BUFFER_new()) == NULL) ||
 218              		.loc 1 232 0
 219 0072 FFF7FEFF 		bl	BUFFER_new
 220              	.LVL33:
 221 0076 071E     		subs	r7, r0, #0
ARM GAS  C:\Users\Phuong\AppData\Local\Temp\ccIn3esT.s 			page 9


 222              	.LVL34:
 223 0078 08D0     		beq	.L25
 224              		.loc 1 232 0 is_stmt 0 discriminator 1
 225 007a FFF7FEFF 		bl	STRING_new
 226              	.LVL35:
 227 007e 061E     		subs	r6, r0, #0
 228              	.LVL36:
 229 0080 05D0     		beq	.L13
 233:Source\azure_iot_sdk\c-utility\src/sastoken.c ****                 ((toBeHashed = STRING_new()) == NULL) ||
 230              		.loc 1 233 0 is_stmt 1
 231 0082 FFF7FEFF 		bl	STRING_new
 232              	.LVL37:
 233 0086 051E     		subs	r5, r0, #0
 234              	.LVL38:
 235 0088 11D1     		bne	.L14
 236 008a 00E0     		b	.L13
 237              	.LVL39:
 238              	.L25:
 230:Source\azure_iot_sdk\c-utility\src/sastoken.c ****             BUFFER_HANDLE hash = NULL;
 239              		.loc 1 230 0
 240 008c 0026     		movs	r6, #0
 241              	.LVL40:
 242              	.L13:
 243              	.LBB5:
 234:Source\azure_iot_sdk\c-utility\src/sastoken.c ****                 ((result = STRING_new()) == NULL))
 235:Source\azure_iot_sdk\c-utility\src/sastoken.c ****             {
 236:Source\azure_iot_sdk\c-utility\src/sastoken.c ****                 LogError("Unable to allocate memory to prepare SAS token.");
 244              		.loc 1 236 0 discriminator 3
 245 008e FFF7FEFF 		bl	xlogging_get_log_function
 246              	.LVL41:
 247 0092 051E     		subs	r5, r0, #0
 248              	.LVL42:
 249 0094 00D1     		bne	.LCB245
 250 0096 A8E0     		b	.L26	@long jump
 251              	.LCB245:
 252              		.loc 1 236 0 is_stmt 0 discriminator 4
 253 0098 614B     		ldr	r3, .L29+16
 254 009a 0193     		str	r3, [sp, #4]
 255 009c 0123     		movs	r3, #1
 256 009e 0093     		str	r3, [sp]
 257 00a0 EB33     		adds	r3, r3, #235
 258 00a2 5C4A     		ldr	r2, .L29+4
 259 00a4 5C49     		ldr	r1, .L29+8
 260 00a6 0020     		movs	r0, #0
 261              	.LVL43:
 262 00a8 A847     		blx	r5
 263              	.LVL44:
 264              	.LBE5:
 237:Source\azure_iot_sdk\c-utility\src/sastoken.c ****                 result = NULL;
 265              		.loc 1 237 0 is_stmt 1 discriminator 4
 266 00aa 0025     		movs	r5, #0
 267              	.LVL45:
 268 00ac 9EE0     		b	.L15
 269              	.LVL46:
 270              	.L14:
 238:Source\azure_iot_sdk\c-utility\src/sastoken.c ****             }
 239:Source\azure_iot_sdk\c-utility\src/sastoken.c ****             else
ARM GAS  C:\Users\Phuong\AppData\Local\Temp\ccIn3esT.s 			page 10


 240:Source\azure_iot_sdk\c-utility\src/sastoken.c ****             {
 241:Source\azure_iot_sdk\c-utility\src/sastoken.c ****                 /*Codes_SRS_SASTOKEN_06_009: [The scope is the basis for creating a STRING_HANDLE.]
 242:Source\azure_iot_sdk\c-utility\src/sastoken.c ****                 /*Codes_SRS_SASTOKEN_06_010: [A "\n" is appended to that string.]*/
 243:Source\azure_iot_sdk\c-utility\src/sastoken.c ****                 /*Codes_SRS_SASTOKEN_06_011: [tokenExpirationTime is appended to that string.]*/
 244:Source\azure_iot_sdk\c-utility\src/sastoken.c ****                 if ((STRING_concat(toBeHashed, scope) != 0) ||
 271              		.loc 1 244 0
 272 00ae 0399     		ldr	r1, [sp, #12]
 273 00b0 3000     		movs	r0, r6
 274              	.LVL47:
 275 00b2 FFF7FEFF 		bl	STRING_concat
 276              	.LVL48:
 277 00b6 0028     		cmp	r0, #0
 278 00b8 0BD1     		bne	.L16
 245:Source\azure_iot_sdk\c-utility\src/sastoken.c ****                     (STRING_concat(toBeHashed, "\n") != 0) ||
 279              		.loc 1 245 0 discriminator 1
 280 00ba 5A49     		ldr	r1, .L29+20
 281 00bc 3000     		movs	r0, r6
 282 00be FFF7FEFF 		bl	STRING_concat
 283              	.LVL49:
 244:Source\azure_iot_sdk\c-utility\src/sastoken.c ****                     (STRING_concat(toBeHashed, "\n") != 0) ||
 284              		.loc 1 244 0 discriminator 1
 285 00c2 0028     		cmp	r0, #0
 286 00c4 05D1     		bne	.L16
 246:Source\azure_iot_sdk\c-utility\src/sastoken.c ****                     (STRING_concat(toBeHashed, tokenExpirationTime) != 0))
 287              		.loc 1 246 0
 288 00c6 08A9     		add	r1, sp, #32
 289 00c8 3000     		movs	r0, r6
 290 00ca FFF7FEFF 		bl	STRING_concat
 291              	.LVL50:
 245:Source\azure_iot_sdk\c-utility\src/sastoken.c ****                     (STRING_concat(toBeHashed, "\n") != 0) ||
 292              		.loc 1 245 0
 293 00ce 0028     		cmp	r0, #0
 294 00d0 12D0     		beq	.L17
 295              	.L16:
 296              	.LBB6:
 247:Source\azure_iot_sdk\c-utility\src/sastoken.c ****                 {
 248:Source\azure_iot_sdk\c-utility\src/sastoken.c ****                     LogError("Unable to build the input to the HMAC to prepare SAS token.");
 297              		.loc 1 248 0 discriminator 3
 298 00d2 FFF7FEFF 		bl	xlogging_get_log_function
 299              	.LVL51:
 300 00d6 8046     		mov	r8, r0
 301              	.LVL52:
 302 00d8 0028     		cmp	r0, #0
 303 00da 08D0     		beq	.L18
 304              		.loc 1 248 0 is_stmt 0 discriminator 4
 305 00dc 524B     		ldr	r3, .L29+24
 306 00de 0193     		str	r3, [sp, #4]
 307 00e0 0123     		movs	r3, #1
 308 00e2 0093     		str	r3, [sp]
 309 00e4 F733     		adds	r3, r3, #247
 310 00e6 4B4A     		ldr	r2, .L29+4
 311 00e8 4B49     		ldr	r1, .L29+8
 312 00ea 0020     		movs	r0, #0
 313              	.LVL53:
 314 00ec C047     		blx	r8
 315              	.LVL54:
 316              	.L18:
ARM GAS  C:\Users\Phuong\AppData\Local\Temp\ccIn3esT.s 			page 11


 317              	.LBE6:
 249:Source\azure_iot_sdk\c-utility\src/sastoken.c ****                     STRING_delete(result);
 318              		.loc 1 249 0 is_stmt 1
 319 00ee 2800     		movs	r0, r5
 320 00f0 FFF7FEFF 		bl	STRING_delete
 321              	.LVL55:
 250:Source\azure_iot_sdk\c-utility\src/sastoken.c ****                     result = NULL;
 322              		.loc 1 250 0
 323 00f4 0025     		movs	r5, #0
 324 00f6 79E0     		b	.L15
 325              	.LVL56:
 326              	.L17:
 327              	.LBB7:
 251:Source\azure_iot_sdk\c-utility\src/sastoken.c ****                 }
 252:Source\azure_iot_sdk\c-utility\src/sastoken.c ****                 else
 253:Source\azure_iot_sdk\c-utility\src/sastoken.c ****                 {
 254:Source\azure_iot_sdk\c-utility\src/sastoken.c ****                     STRING_HANDLE base64Signature = NULL;
 255:Source\azure_iot_sdk\c-utility\src/sastoken.c ****                     STRING_HANDLE urlEncodedSignature = NULL;
 256:Source\azure_iot_sdk\c-utility\src/sastoken.c ****                     size_t inLen = STRING_length(toBeHashed);
 328              		.loc 1 256 0
 329 00f8 3000     		movs	r0, r6
 330 00fa FFF7FEFF 		bl	STRING_length
 331              	.LVL57:
 332 00fe 0590     		str	r0, [sp, #20]
 333              	.LVL58:
 257:Source\azure_iot_sdk\c-utility\src/sastoken.c ****                     const unsigned char* inBuf = (const unsigned char*)STRING_c_str(toBeHashed);
 334              		.loc 1 257 0
 335 0100 3000     		movs	r0, r6
 336              	.LVL59:
 337 0102 FFF7FEFF 		bl	STRING_c_str
 338              	.LVL60:
 339 0106 0690     		str	r0, [sp, #24]
 340              	.LVL61:
 258:Source\azure_iot_sdk\c-utility\src/sastoken.c ****                     size_t outLen = BUFFER_length(decodedKey);
 341              		.loc 1 258 0
 342 0108 2000     		movs	r0, r4
 343              	.LVL62:
 344 010a FFF7FEFF 		bl	BUFFER_length
 345              	.LVL63:
 346 010e 0790     		str	r0, [sp, #28]
 347              	.LVL64:
 259:Source\azure_iot_sdk\c-utility\src/sastoken.c ****                     unsigned char* outBuf = BUFFER_u_char(decodedKey);
 348              		.loc 1 259 0
 349 0110 2000     		movs	r0, r4
 350              	.LVL65:
 351 0112 FFF7FEFF 		bl	BUFFER_u_char
 352              	.LVL66:
 260:Source\azure_iot_sdk\c-utility\src/sastoken.c ****                     /*Codes_SRS_SASTOKEN_06_013: [If an error is returned from the HMAC256 function
 261:Source\azure_iot_sdk\c-utility\src/sastoken.c ****                     /*Codes_SRS_SASTOKEN_06_012: [An HMAC256 hash is calculated using the decodedKe
 262:Source\azure_iot_sdk\c-utility\src/sastoken.c ****                     /*Codes_SRS_SASTOKEN_06_014: [If there are any errors from the following operat
 263:Source\azure_iot_sdk\c-utility\src/sastoken.c ****                     /*Codes_SRS_SASTOKEN_06_015: [The hash is base 64 encoded.]*/
 264:Source\azure_iot_sdk\c-utility\src/sastoken.c ****                     /*Codes_SRS_SASTOKEN_06_028: [base64Signature shall be url encoded.]*/
 265:Source\azure_iot_sdk\c-utility\src/sastoken.c ****                     /*Codes_SRS_SASTOKEN_06_016: [The string "SharedAccessSignature sr=" is the fir
 266:Source\azure_iot_sdk\c-utility\src/sastoken.c ****                     /*Codes_SRS_SASTOKEN_06_017: [The scope parameter is appended to result.]*/
 267:Source\azure_iot_sdk\c-utility\src/sastoken.c ****                     /*Codes_SRS_SASTOKEN_06_018: [The string "&sig=" is appended to result.]*/
 268:Source\azure_iot_sdk\c-utility\src/sastoken.c ****                     /*Codes_SRS_SASTOKEN_06_019: [The string urlEncodedSignature shall be appended 
 269:Source\azure_iot_sdk\c-utility\src/sastoken.c ****                     /*Codes_SRS_SASTOKEN_06_020: [The string "&se=" shall be appended to result.]*/
ARM GAS  C:\Users\Phuong\AppData\Local\Temp\ccIn3esT.s 			page 12


 270:Source\azure_iot_sdk\c-utility\src/sastoken.c ****                     /*Codes_SRS_SASTOKEN_06_021: [tokenExpirationTime is appended to result.]*/
 271:Source\azure_iot_sdk\c-utility\src/sastoken.c ****                     /*Codes_SRS_SASTOKEN_06_022: [If keyName is non-NULL, the string "&skn=" is app
 272:Source\azure_iot_sdk\c-utility\src/sastoken.c ****                     /*Codes_SRS_SASTOKEN_06_023: [If keyName is non-NULL, the argument keyName is a
 273:Source\azure_iot_sdk\c-utility\src/sastoken.c ****                     if ((HMACSHA256_ComputeHash(outBuf, outLen, inBuf, inLen, hash) != HMACSHA256_O
 353              		.loc 1 273 0
 354 0116 0097     		str	r7, [sp]
 355 0118 059B     		ldr	r3, [sp, #20]
 356 011a 069A     		ldr	r2, [sp, #24]
 357 011c 0799     		ldr	r1, [sp, #28]
 358 011e FFF7FEFF 		bl	HMACSHA256_ComputeHash
 359              	.LVL67:
 360 0122 0028     		cmp	r0, #0
 361 0124 41D1     		bne	.L27
 362              		.loc 1 273 0 is_stmt 0 discriminator 1
 363 0126 3800     		movs	r0, r7
 364 0128 FFF7FEFF 		bl	Base64_Encoder
 365              	.LVL68:
 366 012c 0690     		str	r0, [sp, #24]
 367              	.LVL69:
 368 012e 0028     		cmp	r0, #0
 369 0130 3FD0     		beq	.L28
 274:Source\azure_iot_sdk\c-utility\src/sastoken.c ****                         ((base64Signature = Base64_Encoder(hash)) == NULL) ||
 370              		.loc 1 274 0 is_stmt 1
 371 0132 FFF7FEFF 		bl	URL_Encode
 372              	.LVL70:
 373 0136 0590     		str	r0, [sp, #20]
 374              	.LVL71:
 375 0138 0028     		cmp	r0, #0
 376 013a 3CD0     		beq	.L19
 275:Source\azure_iot_sdk\c-utility\src/sastoken.c ****                         ((urlEncodedSignature = URL_Encode(base64Signature)) == NULL) ||
 276:Source\azure_iot_sdk\c-utility\src/sastoken.c ****                         (STRING_copy(result, "SharedAccessSignature sr=") != 0) ||
 377              		.loc 1 276 0
 378 013c 3B49     		ldr	r1, .L29+28
 379 013e 2800     		movs	r0, r5
 380              	.LVL72:
 381 0140 FFF7FEFF 		bl	STRING_copy
 382              	.LVL73:
 275:Source\azure_iot_sdk\c-utility\src/sastoken.c ****                         ((urlEncodedSignature = URL_Encode(base64Signature)) == NULL) ||
 383              		.loc 1 275 0
 384 0144 0028     		cmp	r0, #0
 385 0146 36D1     		bne	.L19
 277:Source\azure_iot_sdk\c-utility\src/sastoken.c ****                         (STRING_concat(result, scope) != 0) ||
 386              		.loc 1 277 0
 387 0148 0399     		ldr	r1, [sp, #12]
 388 014a 2800     		movs	r0, r5
 389 014c FFF7FEFF 		bl	STRING_concat
 390              	.LVL74:
 276:Source\azure_iot_sdk\c-utility\src/sastoken.c ****                         (STRING_concat(result, scope) != 0) ||
 391              		.loc 1 276 0
 392 0150 0028     		cmp	r0, #0
 393 0152 30D1     		bne	.L19
 278:Source\azure_iot_sdk\c-utility\src/sastoken.c ****                         (STRING_concat(result, "&sig=") != 0) ||
 394              		.loc 1 278 0
 395 0154 3649     		ldr	r1, .L29+32
 396 0156 2800     		movs	r0, r5
 397 0158 FFF7FEFF 		bl	STRING_concat
 398              	.LVL75:
ARM GAS  C:\Users\Phuong\AppData\Local\Temp\ccIn3esT.s 			page 13


 277:Source\azure_iot_sdk\c-utility\src/sastoken.c ****                         (STRING_concat(result, scope) != 0) ||
 399              		.loc 1 277 0
 400 015c 0028     		cmp	r0, #0
 401 015e 2AD1     		bne	.L19
 279:Source\azure_iot_sdk\c-utility\src/sastoken.c ****                         (STRING_concat_with_STRING(result, urlEncodedSignature) != 0) ||
 402              		.loc 1 279 0
 403 0160 0599     		ldr	r1, [sp, #20]
 404 0162 2800     		movs	r0, r5
 405 0164 FFF7FEFF 		bl	STRING_concat_with_STRING
 406              	.LVL76:
 278:Source\azure_iot_sdk\c-utility\src/sastoken.c ****                         (STRING_concat(result, "&sig=") != 0) ||
 407              		.loc 1 278 0
 408 0168 0028     		cmp	r0, #0
 409 016a 24D1     		bne	.L19
 280:Source\azure_iot_sdk\c-utility\src/sastoken.c ****                         (STRING_concat(result, "&se=") != 0) ||
 410              		.loc 1 280 0
 411 016c 3149     		ldr	r1, .L29+36
 412 016e 2800     		movs	r0, r5
 413 0170 FFF7FEFF 		bl	STRING_concat
 414              	.LVL77:
 279:Source\azure_iot_sdk\c-utility\src/sastoken.c ****                         (STRING_concat_with_STRING(result, urlEncodedSignature) != 0) ||
 415              		.loc 1 279 0
 416 0174 0028     		cmp	r0, #0
 417 0176 1ED1     		bne	.L19
 281:Source\azure_iot_sdk\c-utility\src/sastoken.c ****                         (STRING_concat(result, tokenExpirationTime) != 0) ||
 418              		.loc 1 281 0
 419 0178 08A9     		add	r1, sp, #32
 420 017a 2800     		movs	r0, r5
 421 017c FFF7FEFF 		bl	STRING_concat
 422              	.LVL78:
 280:Source\azure_iot_sdk\c-utility\src/sastoken.c ****                         (STRING_concat(result, "&se=") != 0) ||
 423              		.loc 1 280 0
 424 0180 0028     		cmp	r0, #0
 425 0182 18D1     		bne	.L19
 426              		.loc 1 281 0
 427 0184 049B     		ldr	r3, [sp, #16]
 428 0186 002B     		cmp	r3, #0
 429 0188 05D0     		beq	.L20
 282:Source\azure_iot_sdk\c-utility\src/sastoken.c ****                         ((keyname != NULL) && (STRING_concat(result, "&skn=") != 0)) ||
 430              		.loc 1 282 0
 431 018a 2B49     		ldr	r1, .L29+40
 432 018c 2800     		movs	r0, r5
 433 018e FFF7FEFF 		bl	STRING_concat
 434              	.LVL79:
 435 0192 0028     		cmp	r0, #0
 436 0194 0FD1     		bne	.L19
 437              	.L20:
 438              		.loc 1 282 0 is_stmt 0 discriminator 1
 439 0196 049B     		ldr	r3, [sp, #16]
 440 0198 002B     		cmp	r3, #0
 441 019a 1FD0     		beq	.L21
 283:Source\azure_iot_sdk\c-utility\src/sastoken.c ****                         ((keyname != NULL) && (STRING_concat(result, keyname) != 0)))
 442              		.loc 1 283 0 is_stmt 1
 443 019c 1900     		movs	r1, r3
 444 019e 2800     		movs	r0, r5
 445 01a0 FFF7FEFF 		bl	STRING_concat
 446              	.LVL80:
ARM GAS  C:\Users\Phuong\AppData\Local\Temp\ccIn3esT.s 			page 14


 447 01a4 0028     		cmp	r0, #0
 448 01a6 19D0     		beq	.L21
 449 01a8 05E0     		b	.L19
 450              	.LVL81:
 451              	.L27:
 255:Source\azure_iot_sdk\c-utility\src/sastoken.c ****                     size_t inLen = STRING_length(toBeHashed);
 452              		.loc 1 255 0
 453 01aa 0023     		movs	r3, #0
 454 01ac 0593     		str	r3, [sp, #20]
 455              	.LVL82:
 254:Source\azure_iot_sdk\c-utility\src/sastoken.c ****                     STRING_HANDLE urlEncodedSignature = NULL;
 456              		.loc 1 254 0
 457 01ae 0693     		str	r3, [sp, #24]
 458              	.LVL83:
 459 01b0 01E0     		b	.L19
 460              	.LVL84:
 461              	.L28:
 255:Source\azure_iot_sdk\c-utility\src/sastoken.c ****                     size_t inLen = STRING_length(toBeHashed);
 462              		.loc 1 255 0
 463 01b2 0023     		movs	r3, #0
 464 01b4 0593     		str	r3, [sp, #20]
 465              	.LVL85:
 466              	.L19:
 467              	.LBB8:
 284:Source\azure_iot_sdk\c-utility\src/sastoken.c ****                     {
 285:Source\azure_iot_sdk\c-utility\src/sastoken.c ****                         LogError("Unable to build the SAS token.");
 468              		.loc 1 285 0 discriminator 3
 469 01b6 FFF7FEFF 		bl	xlogging_get_log_function
 470              	.LVL86:
 471 01ba 8046     		mov	r8, r0
 472              	.LVL87:
 473 01bc 0028     		cmp	r0, #0
 474 01be 09D0     		beq	.L22
 475              		.loc 1 285 0 is_stmt 0 discriminator 4
 476 01c0 1E4B     		ldr	r3, .L29+44
 477 01c2 0193     		str	r3, [sp, #4]
 478 01c4 0123     		movs	r3, #1
 479 01c6 0093     		str	r3, [sp]
 480 01c8 1E23     		movs	r3, #30
 481 01ca FF33     		adds	r3, r3, #255
 482 01cc 114A     		ldr	r2, .L29+4
 483 01ce 1249     		ldr	r1, .L29+8
 484 01d0 0020     		movs	r0, #0
 485              	.LVL88:
 486 01d2 C047     		blx	r8
 487              	.LVL89:
 488              	.L22:
 489              	.LBE8:
 286:Source\azure_iot_sdk\c-utility\src/sastoken.c ****                         STRING_delete(result);
 490              		.loc 1 286 0 is_stmt 1
 491 01d4 2800     		movs	r0, r5
 492 01d6 FFF7FEFF 		bl	STRING_delete
 493              	.LVL90:
 287:Source\azure_iot_sdk\c-utility\src/sastoken.c ****                         result = NULL;
 494              		.loc 1 287 0
 495 01da 0025     		movs	r5, #0
 496              	.LVL91:
ARM GAS  C:\Users\Phuong\AppData\Local\Temp\ccIn3esT.s 			page 15


 497              	.L21:
 288:Source\azure_iot_sdk\c-utility\src/sastoken.c ****                     }
 289:Source\azure_iot_sdk\c-utility\src/sastoken.c ****                     else
 290:Source\azure_iot_sdk\c-utility\src/sastoken.c ****                     {
 291:Source\azure_iot_sdk\c-utility\src/sastoken.c ****                         /* everything OK */
 292:Source\azure_iot_sdk\c-utility\src/sastoken.c ****                     }
 293:Source\azure_iot_sdk\c-utility\src/sastoken.c ****                     STRING_delete(base64Signature);
 498              		.loc 1 293 0
 499 01dc 0698     		ldr	r0, [sp, #24]
 500 01de FFF7FEFF 		bl	STRING_delete
 501              	.LVL92:
 294:Source\azure_iot_sdk\c-utility\src/sastoken.c ****                     STRING_delete(urlEncodedSignature);
 502              		.loc 1 294 0
 503 01e2 0598     		ldr	r0, [sp, #20]
 504 01e4 FFF7FEFF 		bl	STRING_delete
 505              	.LVL93:
 506 01e8 00E0     		b	.L15
 507              	.LVL94:
 508              	.L26:
 509              	.LBE7:
 237:Source\azure_iot_sdk\c-utility\src/sastoken.c ****             }
 510              		.loc 1 237 0
 511 01ea 0025     		movs	r5, #0
 512              	.LVL95:
 513              	.L15:
 295:Source\azure_iot_sdk\c-utility\src/sastoken.c ****                 }
 296:Source\azure_iot_sdk\c-utility\src/sastoken.c ****             }
 297:Source\azure_iot_sdk\c-utility\src/sastoken.c ****             STRING_delete(toBeHashed);
 514              		.loc 1 297 0
 515 01ec 3000     		movs	r0, r6
 516 01ee FFF7FEFF 		bl	STRING_delete
 517              	.LVL96:
 298:Source\azure_iot_sdk\c-utility\src/sastoken.c ****             BUFFER_delete(hash);
 518              		.loc 1 298 0
 519 01f2 3800     		movs	r0, r7
 520 01f4 FFF7FEFF 		bl	BUFFER_delete
 521              	.LVL97:
 522 01f8 00E0     		b	.L12
 523              	.LVL98:
 524              	.L24:
 525              	.LBE4:
 226:Source\azure_iot_sdk\c-utility\src/sastoken.c ****         }
 526              		.loc 1 226 0
 527 01fa 0025     		movs	r5, #0
 528              	.LVL99:
 529              	.L12:
 299:Source\azure_iot_sdk\c-utility\src/sastoken.c ****         }
 300:Source\azure_iot_sdk\c-utility\src/sastoken.c ****         BUFFER_delete(decodedKey);
 530              		.loc 1 300 0
 531 01fc 2000     		movs	r0, r4
 532 01fe FFF7FEFF 		bl	BUFFER_delete
 533              	.LVL100:
 534 0202 00E0     		b	.L10
 535              	.LVL101:
 536              	.L23:
 218:Source\azure_iot_sdk\c-utility\src/sastoken.c ****     }
 537              		.loc 1 218 0
ARM GAS  C:\Users\Phuong\AppData\Local\Temp\ccIn3esT.s 			page 16


 538 0204 0025     		movs	r5, #0
 539              	.LVL102:
 540              	.L10:
 301:Source\azure_iot_sdk\c-utility\src/sastoken.c ****     }
 302:Source\azure_iot_sdk\c-utility\src/sastoken.c ****     return result;
 303:Source\azure_iot_sdk\c-utility\src/sastoken.c **** }
 541              		.loc 1 303 0
 542 0206 2800     		movs	r0, r5
 543 0208 10B0     		add	sp, sp, #64
 544              		@ sp needed
 545              	.LVL103:
 546 020a 04BC     		pop	{r2}
 547 020c 9046     		mov	r8, r2
 548 020e F0BD     		pop	{r4, r5, r6, r7, pc}
 549              	.L30:
 550              		.align	2
 551              	.L29:
 552 0210 30000000 		.word	.LC3
 553 0214 00000000 		.word	.LANCHOR0
 554 0218 00000000 		.word	.LC1
 555 021c 64000000 		.word	.LC5
 556 0220 B8000000 		.word	.LC7
 557 0224 E8000000 		.word	.LC9
 558 0228 EC000000 		.word	.LC11
 559 022c 28010000 		.word	.LC13
 560 0230 44010000 		.word	.LC15
 561 0234 4C010000 		.word	.LC17
 562 0238 54010000 		.word	.LC19
 563 023c 5C010000 		.word	.LC21
 564              		.cfi_endproc
 565              	.LFE3:
 566              		.size	construct_sas_token, .-construct_sas_token
 567              		.global	__aeabi_dcmple
 568              		.global	__aeabi_dcmplt
 569              		.section	.text.SASToken_Validate,"ax",%progbits
 570              		.align	2
 571              		.global	SASToken_Validate
 572              		.code	16
 573              		.thumb_func
 574              		.type	SASToken_Validate, %function
 575              	SASToken_Validate:
 576              	.LFB2:
  38:Source\azure_iot_sdk\c-utility\src/sastoken.c ****     bool result;
 577              		.loc 1 38 0
 578              		.cfi_startproc
 579              		@ args = 0, pretend = 0, frame = 8
 580              		@ frame_needed = 0, uses_anonymous_args = 0
 581              	.LVL104:
 582 0000 F0B5     		push	{r4, r5, r6, r7, lr}
 583              		.cfi_def_cfa_offset 20
 584              		.cfi_offset 4, -20
 585              		.cfi_offset 5, -16
 586              		.cfi_offset 6, -12
 587              		.cfi_offset 7, -8
 588              		.cfi_offset 14, -4
 589 0002 5746     		mov	r7, r10
 590 0004 4E46     		mov	r6, r9
ARM GAS  C:\Users\Phuong\AppData\Local\Temp\ccIn3esT.s 			page 17


 591 0006 4546     		mov	r5, r8
 592 0008 E0B4     		push	{r5, r6, r7}
 593              		.cfi_def_cfa_offset 32
 594              		.cfi_offset 8, -32
 595              		.cfi_offset 9, -28
 596              		.cfi_offset 10, -24
 597 000a 82B0     		sub	sp, sp, #8
 598              		.cfi_def_cfa_offset 40
 599 000c 0500     		movs	r5, r0
  41:Source\azure_iot_sdk\c-utility\src/sastoken.c **** 
 600              		.loc 1 41 0
 601 000e FFF7FEFF 		bl	STRING_c_str
 602              	.LVL105:
 603 0012 0400     		movs	r4, r0
 604              	.LVL106:
  45:Source\azure_iot_sdk\c-utility\src/sastoken.c ****     {
 605              		.loc 1 45 0
 606 0014 002D     		cmp	r5, #0
 607 0016 00D1     		bne	.LCB620
 608 0018 11E1     		b	.L53	@long jump
 609              	.LCB620:
  45:Source\azure_iot_sdk\c-utility\src/sastoken.c ****     {
 610              		.loc 1 45 0 is_stmt 0 discriminator 1
 611 001a 0028     		cmp	r0, #0
 612 001c 00D1     		bne	.LCB622
 613 001e 10E1     		b	.L54	@long jump
 614              	.LCB622:
 615              	.LVL107:
 616              	.LBB9:
  54:Source\azure_iot_sdk\c-utility\src/sastoken.c ****         int i;
 617              		.loc 1 54 0 is_stmt 1
 618 0020 2800     		movs	r0, r5
 619              	.LVL108:
 620 0022 FFF7FEFF 		bl	STRING_length
 621              	.LVL109:
  56:Source\azure_iot_sdk\c-utility\src/sastoken.c ****         {
 622              		.loc 1 56 0
 623 0026 0023     		movs	r3, #0
  53:Source\azure_iot_sdk\c-utility\src/sastoken.c ****         int tokenLength = (int)STRING_length(sasToken);
 624              		.loc 1 53 0
 625 0028 0122     		movs	r2, #1
 626 002a 5242     		rsbs	r2, r2, #0
 627 002c 1600     		movs	r6, r2
 628 002e 0192     		str	r2, [sp, #4]
 629 0030 9046     		mov	r8, r2
  52:Source\azure_iot_sdk\c-utility\src/sastoken.c ****         int sigStart = -1, sigStop = -1;
 630              		.loc 1 52 0
 631 0032 9146     		mov	r9, r2
 632 0034 9446     		mov	ip, r2
  51:Source\azure_iot_sdk\c-utility\src/sastoken.c ****         int srStart = -1, srStop = -1;
 633              		.loc 1 51 0
 634 0036 1700     		movs	r7, r2
  56:Source\azure_iot_sdk\c-utility\src/sastoken.c ****         {
 635              		.loc 1 56 0
 636 0038 AAE0     		b	.L33
 637              	.LVL110:
 638              	.L46:
ARM GAS  C:\Users\Phuong\AppData\Local\Temp\ccIn3esT.s 			page 18


  58:Source\azure_iot_sdk\c-utility\src/sastoken.c ****             {
 639              		.loc 1 58 0
 640 003a 1900     		movs	r1, r3
 641 003c E25C     		ldrb	r2, [r4, r3]
 642 003e 732A     		cmp	r2, #115
 643 0040 30D1     		bne	.L34
 644              	.LVL111:
  58:Source\azure_iot_sdk\c-utility\src/sastoken.c ****             {
 645              		.loc 1 58 0 is_stmt 0 discriminator 1
 646 0042 5D1C     		adds	r5, r3, #1
 647 0044 655D     		ldrb	r5, [r4, r5]
 648 0046 652D     		cmp	r5, #101
 649 0048 2CD1     		bne	.L34
  58:Source\azure_iot_sdk\c-utility\src/sastoken.c ****             {
 650              		.loc 1 58 0 discriminator 2
 651 004a 9D1C     		adds	r5, r3, #2
 652 004c 655D     		ldrb	r5, [r4, r5]
 653 004e 3D2D     		cmp	r5, #61
 654 0050 28D1     		bne	.L34
  60:Source\azure_iot_sdk\c-utility\src/sastoken.c ****                 if (srStart > 0 && srStop < 0)
 655              		.loc 1 60 0 is_stmt 1
 656 0052 DE1C     		adds	r6, r3, #3
 657              	.LVL112:
  61:Source\azure_iot_sdk\c-utility\src/sastoken.c ****                 {
 658              		.loc 1 61 0
 659 0054 6246     		mov	r2, ip
 660 0056 002A     		cmp	r2, #0
 661 0058 0FDD     		ble	.L35
 662              	.LVL113:
  61:Source\azure_iot_sdk\c-utility\src/sastoken.c ****                 {
 663              		.loc 1 61 0 is_stmt 0 discriminator 1
 664 005a 4A46     		mov	r2, r9
 665              	.LVL114:
 666 005c 002A     		cmp	r2, #0
 667 005e 0CDA     		bge	.L35
 668              	.LVL115:
  63:Source\azure_iot_sdk\c-utility\src/sastoken.c ****                         srStop = i - 1;
 669              		.loc 1 63 0 is_stmt 1
 670 0060 E118     		adds	r1, r4, r3
 671              	.LVL116:
 672 0062 0139     		subs	r1, r1, #1
 673 0064 0A78     		ldrb	r2, [r1]
 674              	.LVL117:
 675 0066 202A     		cmp	r2, #32
 676 0068 02D1     		bne	.L36
  64:Source\azure_iot_sdk\c-utility\src/sastoken.c ****                     else if (sasTokenArray[i - 1] == '&')
 677              		.loc 1 64 0
 678 006a 5A1E     		subs	r2, r3, #1
 679 006c 9146     		mov	r9, r2
 680              	.LVL118:
 681 006e 8EE0     		b	.L37
 682              	.LVL119:
 683              	.L36:
  65:Source\azure_iot_sdk\c-utility\src/sastoken.c ****                         srStop = i - 2;
 684              		.loc 1 65 0
 685 0070 262A     		cmp	r2, #38
 686 0072 77D1     		bne	.L55
ARM GAS  C:\Users\Phuong\AppData\Local\Temp\ccIn3esT.s 			page 19


  66:Source\azure_iot_sdk\c-utility\src/sastoken.c ****                     else
 687              		.loc 1 66 0
 688 0074 9A1E     		subs	r2, r3, #2
 689 0076 9146     		mov	r9, r2
 690              	.LVL120:
 691 0078 89E0     		b	.L37
 692              	.LVL121:
 693              	.L35:
  70:Source\azure_iot_sdk\c-utility\src/sastoken.c ****                 {
 694              		.loc 1 70 0
 695 007a 4246     		mov	r2, r8
 696 007c 002A     		cmp	r2, #0
 697 007e 00DC     		bgt	.LCB716
 698 0080 85E0     		b	.L37	@long jump
 699              	.LCB716:
 700              	.LVL122:
  70:Source\azure_iot_sdk\c-utility\src/sastoken.c ****                 {
 701              		.loc 1 70 0 is_stmt 0 discriminator 1
 702 0082 019A     		ldr	r2, [sp, #4]
 703              	.LVL123:
 704 0084 002A     		cmp	r2, #0
 705 0086 00DB     		blt	.LCB721
 706 0088 81E0     		b	.L37	@long jump
 707              	.LCB721:
  72:Source\azure_iot_sdk\c-utility\src/sastoken.c ****                         sigStop = i - 1;
 708              		.loc 1 72 0 is_stmt 1
 709 008a 6118     		adds	r1, r4, r1
 710              	.LVL124:
 711 008c 0139     		subs	r1, r1, #1
 712 008e 0A78     		ldrb	r2, [r1]
 713 0090 202A     		cmp	r2, #32
 714 0092 02D1     		bne	.L38
  73:Source\azure_iot_sdk\c-utility\src/sastoken.c ****                     else if (sasTokenArray[i - 1] == '&')
 715              		.loc 1 73 0
 716 0094 5A1E     		subs	r2, r3, #1
 717 0096 0192     		str	r2, [sp, #4]
 718              	.LVL125:
 719 0098 79E0     		b	.L37
 720              	.LVL126:
 721              	.L38:
  74:Source\azure_iot_sdk\c-utility\src/sastoken.c ****                         sigStop = i - 2;
 722              		.loc 1 74 0
 723 009a 262A     		cmp	r2, #38
 724 009c 65D1     		bne	.L56
  75:Source\azure_iot_sdk\c-utility\src/sastoken.c ****                     else
 725              		.loc 1 75 0
 726 009e 9A1E     		subs	r2, r3, #2
 727 00a0 0192     		str	r2, [sp, #4]
 728              	.LVL127:
 729 00a2 74E0     		b	.L37
 730              	.LVL128:
 731              	.L34:
  80:Source\azure_iot_sdk\c-utility\src/sastoken.c ****             {
 732              		.loc 1 80 0
 733 00a4 732A     		cmp	r2, #115
 734 00a6 2BD1     		bne	.L39
  80:Source\azure_iot_sdk\c-utility\src/sastoken.c ****             {
ARM GAS  C:\Users\Phuong\AppData\Local\Temp\ccIn3esT.s 			page 20


 735              		.loc 1 80 0 is_stmt 0 discriminator 1
 736 00a8 4D1C     		adds	r5, r1, #1
 737 00aa 655D     		ldrb	r5, [r4, r5]
 738 00ac 722D     		cmp	r5, #114
 739 00ae 27D1     		bne	.L39
  80:Source\azure_iot_sdk\c-utility\src/sastoken.c ****             {
 740              		.loc 1 80 0 discriminator 2
 741 00b0 8D1C     		adds	r5, r1, #2
 742 00b2 655D     		ldrb	r5, [r4, r5]
 743 00b4 3D2D     		cmp	r5, #61
 744 00b6 23D1     		bne	.L39
  82:Source\azure_iot_sdk\c-utility\src/sastoken.c ****                 if (seStart > 0 && seStop < 0)
 745              		.loc 1 82 0 is_stmt 1
 746 00b8 DA1C     		adds	r2, r3, #3
 747 00ba 9446     		mov	ip, r2
 748              	.LVL129:
  83:Source\azure_iot_sdk\c-utility\src/sastoken.c ****                 {
 749              		.loc 1 83 0
 750 00bc 002E     		cmp	r6, #0
 751 00be 0CDD     		ble	.L40
  83:Source\azure_iot_sdk\c-utility\src/sastoken.c ****                 {
 752              		.loc 1 83 0 is_stmt 0 discriminator 1
 753 00c0 002F     		cmp	r7, #0
 754 00c2 0ADA     		bge	.L40
  85:Source\azure_iot_sdk\c-utility\src/sastoken.c ****                         seStop = i - 1;
 755              		.loc 1 85 0 is_stmt 1
 756 00c4 6118     		adds	r1, r4, r1
 757              	.LVL130:
 758 00c6 0139     		subs	r1, r1, #1
 759 00c8 0A78     		ldrb	r2, [r1]
 760              	.LVL131:
 761 00ca 202A     		cmp	r2, #32
 762 00cc 01D1     		bne	.L41
  86:Source\azure_iot_sdk\c-utility\src/sastoken.c ****                     else if (sasTokenArray[i - 1] == '&')
 763              		.loc 1 86 0
 764 00ce 5F1E     		subs	r7, r3, #1
 765              	.LVL132:
 766 00d0 5DE0     		b	.L37
 767              	.L41:
  87:Source\azure_iot_sdk\c-utility\src/sastoken.c ****                         seStop = i - 2;
 768              		.loc 1 87 0
 769 00d2 262A     		cmp	r2, #38
 770 00d4 4CD1     		bne	.L57
  88:Source\azure_iot_sdk\c-utility\src/sastoken.c ****                     else
 771              		.loc 1 88 0
 772 00d6 9F1E     		subs	r7, r3, #2
 773              	.LVL133:
 774 00d8 59E0     		b	.L37
 775              	.LVL134:
 776              	.L40:
  92:Source\azure_iot_sdk\c-utility\src/sastoken.c ****                 {
 777              		.loc 1 92 0
 778 00da 4246     		mov	r2, r8
 779              	.LVL135:
 780 00dc 002A     		cmp	r2, #0
 781 00de 56DD     		ble	.L37
 782              	.LVL136:
ARM GAS  C:\Users\Phuong\AppData\Local\Temp\ccIn3esT.s 			page 21


  92:Source\azure_iot_sdk\c-utility\src/sastoken.c ****                 {
 783              		.loc 1 92 0 is_stmt 0 discriminator 1
 784 00e0 019A     		ldr	r2, [sp, #4]
 785              	.LVL137:
 786 00e2 002A     		cmp	r2, #0
 787 00e4 53DA     		bge	.L37
  94:Source\azure_iot_sdk\c-utility\src/sastoken.c ****                         sigStop = i - 1;
 788              		.loc 1 94 0 is_stmt 1
 789 00e6 6118     		adds	r1, r4, r1
 790              	.LVL138:
 791 00e8 0139     		subs	r1, r1, #1
 792 00ea 0A78     		ldrb	r2, [r1]
 793 00ec 202A     		cmp	r2, #32
 794 00ee 02D1     		bne	.L42
  95:Source\azure_iot_sdk\c-utility\src/sastoken.c ****                     else if (sasTokenArray[i - 1] == '&')
 795              		.loc 1 95 0
 796 00f0 5A1E     		subs	r2, r3, #1
 797 00f2 0192     		str	r2, [sp, #4]
 798              	.LVL139:
 799 00f4 4BE0     		b	.L37
 800              	.LVL140:
 801              	.L42:
  96:Source\azure_iot_sdk\c-utility\src/sastoken.c ****                         sigStop = i - 2;
 802              		.loc 1 96 0
 803 00f6 262A     		cmp	r2, #38
 804 00f8 3ED1     		bne	.L58
  97:Source\azure_iot_sdk\c-utility\src/sastoken.c ****                     else
 805              		.loc 1 97 0
 806 00fa 9A1E     		subs	r2, r3, #2
 807 00fc 0192     		str	r2, [sp, #4]
 808              	.LVL141:
 809 00fe 46E0     		b	.L37
 810              	.LVL142:
 811              	.L39:
 102:Source\azure_iot_sdk\c-utility\src/sastoken.c ****             {
 812              		.loc 1 102 0
 813 0100 732A     		cmp	r2, #115
 814 0102 44D1     		bne	.L37
 102:Source\azure_iot_sdk\c-utility\src/sastoken.c ****             {
 815              		.loc 1 102 0 is_stmt 0 discriminator 1
 816 0104 4A1C     		adds	r2, r1, #1
 817 0106 A25C     		ldrb	r2, [r4, r2]
 818 0108 692A     		cmp	r2, #105
 819 010a 40D1     		bne	.L37
 102:Source\azure_iot_sdk\c-utility\src/sastoken.c ****             {
 820              		.loc 1 102 0 discriminator 2
 821 010c 8A1C     		adds	r2, r1, #2
 822 010e A25C     		ldrb	r2, [r4, r2]
 823 0110 672A     		cmp	r2, #103
 824 0112 3CD1     		bne	.L37
 102:Source\azure_iot_sdk\c-utility\src/sastoken.c ****             {
 825              		.loc 1 102 0 discriminator 3
 826 0114 CA1C     		adds	r2, r1, #3
 827 0116 A25C     		ldrb	r2, [r4, r2]
 828 0118 3D2A     		cmp	r2, #61
 829 011a 38D1     		bne	.L37
 104:Source\azure_iot_sdk\c-utility\src/sastoken.c ****                 if (srStart > 0 && srStop < 0)
ARM GAS  C:\Users\Phuong\AppData\Local\Temp\ccIn3esT.s 			page 22


 830              		.loc 1 104 0 is_stmt 1
 831 011c 1A1D     		adds	r2, r3, #4
 832 011e 9046     		mov	r8, r2
 833              	.LVL143:
 105:Source\azure_iot_sdk\c-utility\src/sastoken.c ****                 {
 834              		.loc 1 105 0
 835 0120 6246     		mov	r2, ip
 836              	.LVL144:
 837 0122 002A     		cmp	r2, #0
 838 0124 0FDD     		ble	.L43
 839              	.LVL145:
 105:Source\azure_iot_sdk\c-utility\src/sastoken.c ****                 {
 840              		.loc 1 105 0 is_stmt 0 discriminator 1
 841 0126 4A46     		mov	r2, r9
 842              	.LVL146:
 843 0128 002A     		cmp	r2, #0
 844 012a 0CDA     		bge	.L43
 845              	.LVL147:
 107:Source\azure_iot_sdk\c-utility\src/sastoken.c ****                         srStop = i - 1;
 846              		.loc 1 107 0 is_stmt 1
 847 012c 6118     		adds	r1, r4, r1
 848              	.LVL148:
 849 012e 0139     		subs	r1, r1, #1
 850 0130 0A78     		ldrb	r2, [r1]
 851              	.LVL149:
 852 0132 202A     		cmp	r2, #32
 853 0134 02D1     		bne	.L44
 108:Source\azure_iot_sdk\c-utility\src/sastoken.c ****                     else if (sasTokenArray[i - 1] == '&')
 854              		.loc 1 108 0
 855 0136 5A1E     		subs	r2, r3, #1
 856 0138 9146     		mov	r9, r2
 857              	.LVL150:
 858 013a 28E0     		b	.L37
 859              	.LVL151:
 860              	.L44:
 109:Source\azure_iot_sdk\c-utility\src/sastoken.c ****                         srStop = i - 2;
 861              		.loc 1 109 0
 862 013c 262A     		cmp	r2, #38
 863 013e 1FD1     		bne	.L59
 110:Source\azure_iot_sdk\c-utility\src/sastoken.c ****                     else
 864              		.loc 1 110 0
 865 0140 9A1E     		subs	r2, r3, #2
 866 0142 9146     		mov	r9, r2
 867              	.LVL152:
 868 0144 23E0     		b	.L37
 869              	.LVL153:
 870              	.L43:
 114:Source\azure_iot_sdk\c-utility\src/sastoken.c ****                 {
 871              		.loc 1 114 0
 872 0146 002E     		cmp	r6, #0
 873 0148 21DD     		ble	.L37
 114:Source\azure_iot_sdk\c-utility\src/sastoken.c ****                 {
 874              		.loc 1 114 0 is_stmt 0 discriminator 1
 875 014a 002F     		cmp	r7, #0
 876 014c 1FDA     		bge	.L37
 116:Source\azure_iot_sdk\c-utility\src/sastoken.c ****                         seStop = i - 1;
 877              		.loc 1 116 0 is_stmt 1
ARM GAS  C:\Users\Phuong\AppData\Local\Temp\ccIn3esT.s 			page 23


 878 014e 6118     		adds	r1, r4, r1
 879              	.LVL154:
 880 0150 0139     		subs	r1, r1, #1
 881 0152 0A78     		ldrb	r2, [r1]
 882 0154 202A     		cmp	r2, #32
 883 0156 01D1     		bne	.L45
 117:Source\azure_iot_sdk\c-utility\src/sastoken.c ****                     else if (sasTokenArray[i - 1] == '&')
 884              		.loc 1 117 0
 885 0158 5F1E     		subs	r7, r3, #1
 886              	.LVL155:
 887 015a 18E0     		b	.L37
 888              	.L45:
 118:Source\azure_iot_sdk\c-utility\src/sastoken.c ****                         seStop = i - 2;
 889              		.loc 1 118 0
 890 015c 262A     		cmp	r2, #38
 891 015e 13D1     		bne	.L60
 119:Source\azure_iot_sdk\c-utility\src/sastoken.c ****                     else
 892              		.loc 1 119 0
 893 0160 9F1E     		subs	r7, r3, #2
 894              	.LVL156:
 895 0162 14E0     		b	.L37
 896              	.L55:
  68:Source\azure_iot_sdk\c-utility\src/sastoken.c ****                 }
 897              		.loc 1 68 0
 898 0164 0126     		movs	r6, #1
 899              	.LVL157:
 900 0166 7642     		rsbs	r6, r6, #0
 901 0168 11E0     		b	.L37
 902              	.LVL158:
 903              	.L56:
  77:Source\azure_iot_sdk\c-utility\src/sastoken.c ****                 }
 904              		.loc 1 77 0
 905 016a 0126     		movs	r6, #1
 906              	.LVL159:
 907 016c 7642     		rsbs	r6, r6, #0
 908 016e 0EE0     		b	.L37
 909              	.LVL160:
 910              	.L57:
  90:Source\azure_iot_sdk\c-utility\src/sastoken.c ****                 }
 911              		.loc 1 90 0
 912 0170 0122     		movs	r2, #1
 913 0172 5242     		rsbs	r2, r2, #0
 914 0174 9446     		mov	ip, r2
 915              	.LVL161:
 916 0176 0AE0     		b	.L37
 917              	.LVL162:
 918              	.L58:
  99:Source\azure_iot_sdk\c-utility\src/sastoken.c ****                 }
 919              		.loc 1 99 0
 920 0178 0122     		movs	r2, #1
 921 017a 5242     		rsbs	r2, r2, #0
 922 017c 9446     		mov	ip, r2
 923              	.LVL163:
 924 017e 06E0     		b	.L37
 925              	.LVL164:
 926              	.L59:
 112:Source\azure_iot_sdk\c-utility\src/sastoken.c ****                 }
ARM GAS  C:\Users\Phuong\AppData\Local\Temp\ccIn3esT.s 			page 24


 927              		.loc 1 112 0
 928 0180 0122     		movs	r2, #1
 929 0182 5242     		rsbs	r2, r2, #0
 930 0184 9046     		mov	r8, r2
 931              	.LVL165:
 932 0186 02E0     		b	.L37
 933              	.LVL166:
 934              	.L60:
 121:Source\azure_iot_sdk\c-utility\src/sastoken.c ****                 }
 935              		.loc 1 121 0
 936 0188 0122     		movs	r2, #1
 937 018a 5242     		rsbs	r2, r2, #0
 938 018c 9046     		mov	r8, r2
 939              	.LVL167:
 940              	.L37:
  56:Source\azure_iot_sdk\c-utility\src/sastoken.c ****         {
 941              		.loc 1 56 0 discriminator 2
 942 018e 0133     		adds	r3, r3, #1
 943              	.LVL168:
 944              	.L33:
  56:Source\azure_iot_sdk\c-utility\src/sastoken.c ****         {
 945              		.loc 1 56 0 is_stmt 0 discriminator 1
 946 0190 8342     		cmp	r3, r0
 947 0192 00DA     		bge	.LCB1040
 948 0194 51E7     		b	.L46	@long jump
 949              	.LCB1040:
 128:Source\azure_iot_sdk\c-utility\src/sastoken.c ****         {
 950              		.loc 1 128 0 is_stmt 1
 951 0196 002E     		cmp	r6, #0
 952 0198 55DB     		blt	.L61
 128:Source\azure_iot_sdk\c-utility\src/sastoken.c ****         {
 953              		.loc 1 128 0 is_stmt 0 discriminator 1
 954 019a 6346     		mov	r3, ip
 955              	.LVL169:
 956 019c 002B     		cmp	r3, #0
 957 019e 54DB     		blt	.L62
 128:Source\azure_iot_sdk\c-utility\src/sastoken.c ****         {
 958              		.loc 1 128 0 discriminator 2
 959 01a0 4346     		mov	r3, r8
 960 01a2 002B     		cmp	r3, #0
 961 01a4 53DB     		blt	.L63
 134:Source\azure_iot_sdk\c-utility\src/sastoken.c ****             {
 962              		.loc 1 134 0 is_stmt 1
 963 01a6 002F     		cmp	r7, #0
 964 01a8 06DB     		blt	.L64
 138:Source\azure_iot_sdk\c-utility\src/sastoken.c ****             {
 965              		.loc 1 138 0
 966 01aa 4B46     		mov	r3, r9
 967 01ac 002B     		cmp	r3, #0
 968 01ae 05DB     		blt	.L65
 142:Source\azure_iot_sdk\c-utility\src/sastoken.c ****             {
 969              		.loc 1 142 0
 970 01b0 019B     		ldr	r3, [sp, #4]
 971 01b2 002B     		cmp	r3, #0
 972 01b4 05DA     		bge	.L47
 973 01b6 03E0     		b	.L66
 974              	.LVL170:
ARM GAS  C:\Users\Phuong\AppData\Local\Temp\ccIn3esT.s 			page 25


 975              	.L64:
 136:Source\azure_iot_sdk\c-utility\src/sastoken.c ****             }
 976              		.loc 1 136 0
 977 01b8 0700     		movs	r7, r0
 978              	.LVL171:
 979 01ba 02E0     		b	.L47
 980              	.LVL172:
 981              	.L65:
 140:Source\azure_iot_sdk\c-utility\src/sastoken.c ****             }
 982              		.loc 1 140 0
 983 01bc 8146     		mov	r9, r0
 984 01be 00E0     		b	.L47
 985              	.LVL173:
 986              	.L66:
 144:Source\azure_iot_sdk\c-utility\src/sastoken.c ****             }
 987              		.loc 1 144 0
 988 01c0 0190     		str	r0, [sp, #4]
 989              	.LVL174:
 990              	.L47:
 147:Source\azure_iot_sdk\c-utility\src/sastoken.c ****                 (srStop <= srStart) ||
 991              		.loc 1 147 0
 992 01c2 BE42     		cmp	r6, r7
 993 01c4 45DA     		bge	.L67
 147:Source\azure_iot_sdk\c-utility\src/sastoken.c ****                 (srStop <= srStart) ||
 994              		.loc 1 147 0 is_stmt 0 discriminator 1
 995 01c6 CC45     		cmp	ip, r9
 996 01c8 45DA     		bge	.L68
 148:Source\azure_iot_sdk\c-utility\src/sastoken.c ****                 (sigStop <= sigStart))
 997              		.loc 1 148 0 is_stmt 1
 998 01ca 019B     		ldr	r3, [sp, #4]
 999 01cc 9845     		cmp	r8, r3
 1000 01ce 44DA     		bge	.L69
 1001              	.LBB10:
 155:Source\azure_iot_sdk\c-utility\src/sastoken.c ****                 /*Codes_SRS_SASTOKEN_25_031: [**If malloc fails during validation then SASToken_Val
 1002              		.loc 1 155 0
 1003 01d0 BD1B     		subs	r5, r7, r6
 1004 01d2 6B1C     		adds	r3, r5, #1
 1005 01d4 0193     		str	r3, [sp, #4]
 1006              	.LVL175:
 1007 01d6 1800     		movs	r0, r3
 1008              	.LVL176:
 1009 01d8 FFF7FEFF 		bl	malloc
 1010              	.LVL177:
 1011 01dc 051E     		subs	r5, r0, #0
 1012              	.LVL178:
 157:Source\azure_iot_sdk\c-utility\src/sastoken.c ****                 {
 1013              		.loc 1 157 0
 1014 01de 3ED0     		beq	.L70
 1015              	.LBB11:
 165:Source\azure_iot_sdk\c-utility\src/sastoken.c ****                     for (i = seStart; i < seStop; i++)
 1016              		.loc 1 165 0
 1017 01e0 019A     		ldr	r2, [sp, #4]
 1018 01e2 0021     		movs	r1, #0
 1019 01e4 FFF7FEFF 		bl	memset
 1020              	.LVL179:
 166:Source\azure_iot_sdk\c-utility\src/sastoken.c ****                     {
 1021              		.loc 1 166 0
ARM GAS  C:\Users\Phuong\AppData\Local\Temp\ccIn3esT.s 			page 26


 1022 01e8 3300     		movs	r3, r6
 1023 01ea 05E0     		b	.L48
 1024              	.LVL180:
 1025              	.L50:
 170:Source\azure_iot_sdk\c-utility\src/sastoken.c ****                         {
 1026              		.loc 1 170 0
 1027 01ec E25C     		ldrb	r2, [r4, r3]
 1028 01ee 262A     		cmp	r2, #38
 1029 01f0 04D0     		beq	.L49
 174:Source\azure_iot_sdk\c-utility\src/sastoken.c ****                     }
 1030              		.loc 1 174 0 discriminator 2
 1031 01f2 991B     		subs	r1, r3, r6
 1032 01f4 6A54     		strb	r2, [r5, r1]
 166:Source\azure_iot_sdk\c-utility\src/sastoken.c ****                     {
 1033              		.loc 1 166 0 discriminator 2
 1034 01f6 0133     		adds	r3, r3, #1
 1035              	.LVL181:
 1036              	.L48:
 166:Source\azure_iot_sdk\c-utility\src/sastoken.c ****                     {
 1037              		.loc 1 166 0 is_stmt 0 discriminator 1
 1038 01f8 9F42     		cmp	r7, r3
 1039 01fa F7DC     		bgt	.L50
 1040              	.L49:
 176:Source\azure_iot_sdk\c-utility\src/sastoken.c ****                     /*Codes_SRS_SASTOKEN_25_029: [**SASToken_validate shall check for expiry time f
 1041              		.loc 1 176 0 is_stmt 1
 1042 01fc 2800     		movs	r0, r5
 1043 01fe FFF7FEFF 		bl	getExpiryValue
 1044              	.LVL182:
 1045 0202 0600     		movs	r6, r0
 1046              	.LVL183:
 1047 0204 0F00     		movs	r7, r1
 1048              	.LVL184:
 178:Source\azure_iot_sdk\c-utility\src/sastoken.c ****                     {
 1049              		.loc 1 178 0
 1050 0206 0022     		movs	r2, #0
 1051 0208 0023     		movs	r3, #0
 1052 020a FFF7FEFF 		bl	__aeabi_dcmple
 1053              	.LVL185:
 1054 020e 0028     		cmp	r0, #0
 1055 0210 0ED1     		bne	.L71
 1056              	.LBB12:
 184:Source\azure_iot_sdk\c-utility\src/sastoken.c ****                         if (expiry < secSinceEpoch)
 1057              		.loc 1 184 0
 1058 0212 FFF7FEFF 		bl	get_time
 1059              	.LVL186:
 1060 0216 0021     		movs	r1, #0
 1061 0218 FFF7FEFF 		bl	get_difftime
 1062              	.LVL187:
 1063 021c 0200     		movs	r2, r0
 1064 021e 0B00     		movs	r3, r1
 1065              	.LVL188:
 185:Source\azure_iot_sdk\c-utility\src/sastoken.c ****                         {
 1066              		.loc 1 185 0
 1067 0220 3000     		movs	r0, r6
 1068 0222 3900     		movs	r1, r7
 1069 0224 FFF7FEFF 		bl	__aeabi_dcmplt
 1070              	.LVL189:
ARM GAS  C:\Users\Phuong\AppData\Local\Temp\ccIn3esT.s 			page 27


 1071 0228 0028     		cmp	r0, #0
 1072 022a 03D0     		beq	.L74
 188:Source\azure_iot_sdk\c-utility\src/sastoken.c ****                         }
 1073              		.loc 1 188 0
 1074 022c 0024     		movs	r4, #0
 1075              	.LVL190:
 1076 022e 02E0     		b	.L51
 1077              	.LVL191:
 1078              	.L71:
 1079              	.LBE12:
 180:Source\azure_iot_sdk\c-utility\src/sastoken.c ****                     }
 1080              		.loc 1 180 0
 1081 0230 0024     		movs	r4, #0
 1082              	.LVL192:
 1083 0232 00E0     		b	.L51
 1084              	.LVL193:
 1085              	.L74:
 1086              	.LBB13:
 193:Source\azure_iot_sdk\c-utility\src/sastoken.c ****                         }
 1087              		.loc 1 193 0
 1088 0234 0124     		movs	r4, #1
 1089              	.LVL194:
 1090              	.L51:
 1091              	.LBE13:
 196:Source\azure_iot_sdk\c-utility\src/sastoken.c ****                 }
 1092              		.loc 1 196 0
 1093 0236 2800     		movs	r0, r5
 1094 0238 FFF7FEFF 		bl	free
 1095              	.LVL195:
 1096 023c 10E0     		b	.L32
 1097              	.LVL196:
 1098              	.L53:
 1099              	.LBE11:
 1100              	.LBE10:
 1101              	.LBE9:
  47:Source\azure_iot_sdk\c-utility\src/sastoken.c ****     }
 1102              		.loc 1 47 0
 1103 023e 0024     		movs	r4, #0
 1104 0240 0EE0     		b	.L32
 1105              	.L54:
 1106 0242 0024     		movs	r4, #0
 1107 0244 0CE0     		b	.L32
 1108              	.LVL197:
 1109              	.L61:
 1110              	.LBB15:
 130:Source\azure_iot_sdk\c-utility\src/sastoken.c ****         }
 1111              		.loc 1 130 0
 1112 0246 0024     		movs	r4, #0
 1113              	.LVL198:
 1114 0248 0AE0     		b	.L32
 1115              	.LVL199:
 1116              	.L62:
 1117 024a 0024     		movs	r4, #0
 1118              	.LVL200:
 1119 024c 08E0     		b	.L32
 1120              	.LVL201:
 1121              	.L63:
ARM GAS  C:\Users\Phuong\AppData\Local\Temp\ccIn3esT.s 			page 28


 1122 024e 0024     		movs	r4, #0
 1123              	.LVL202:
 1124 0250 06E0     		b	.L32
 1125              	.LVL203:
 1126              	.L67:
 151:Source\azure_iot_sdk\c-utility\src/sastoken.c ****             }
 1127              		.loc 1 151 0
 1128 0252 0024     		movs	r4, #0
 1129              	.LVL204:
 1130 0254 04E0     		b	.L32
 1131              	.LVL205:
 1132              	.L68:
 1133 0256 0024     		movs	r4, #0
 1134              	.LVL206:
 1135 0258 02E0     		b	.L32
 1136              	.LVL207:
 1137              	.L69:
 1138 025a 0024     		movs	r4, #0
 1139              	.LVL208:
 1140 025c 00E0     		b	.L32
 1141              	.LVL209:
 1142              	.L70:
 1143              	.LBB14:
 159:Source\azure_iot_sdk\c-utility\src/sastoken.c ****                 }
 1144              		.loc 1 159 0
 1145 025e 0024     		movs	r4, #0
 1146              	.LVL210:
 1147              	.L32:
 1148              	.LBE14:
 1149              	.LBE15:
 203:Source\azure_iot_sdk\c-utility\src/sastoken.c **** 
 1150              		.loc 1 203 0
 1151 0260 2000     		movs	r0, r4
 1152 0262 02B0     		add	sp, sp, #8
 1153              		@ sp needed
 1154              	.LVL211:
 1155 0264 1CBC     		pop	{r2, r3, r4}
 1156 0266 9046     		mov	r8, r2
 1157 0268 9946     		mov	r9, r3
 1158 026a A246     		mov	r10, r4
 1159 026c F0BD     		pop	{r4, r5, r6, r7, pc}
 1160              		.cfi_endproc
 1161              	.LFE2:
 1162              		.size	SASToken_Validate, .-SASToken_Validate
 1163 026e C046     		.section	.text.SASToken_Create,"ax",%progbits
 1164              		.align	2
 1165              		.global	SASToken_Create
 1166              		.code	16
 1167              		.thumb_func
 1168              		.type	SASToken_Create, %function
 1169              	SASToken_Create:
 1170              	.LFB4:
 304:Source\azure_iot_sdk\c-utility\src/sastoken.c **** 
 305:Source\azure_iot_sdk\c-utility\src/sastoken.c **** STRING_HANDLE SASToken_Create(STRING_HANDLE key, STRING_HANDLE scope, STRING_HANDLE keyName, size_t
 306:Source\azure_iot_sdk\c-utility\src/sastoken.c **** {
 1171              		.loc 1 306 0
 1172              		.cfi_startproc
ARM GAS  C:\Users\Phuong\AppData\Local\Temp\ccIn3esT.s 			page 29


 1173              		@ args = 0, pretend = 0, frame = 0
 1174              		@ frame_needed = 0, uses_anonymous_args = 0
 1175              	.LVL212:
 1176 0000 F0B5     		push	{r4, r5, r6, r7, lr}
 1177              		.cfi_def_cfa_offset 20
 1178              		.cfi_offset 4, -20
 1179              		.cfi_offset 5, -16
 1180              		.cfi_offset 6, -12
 1181              		.cfi_offset 7, -8
 1182              		.cfi_offset 14, -4
 1183 0002 87B0     		sub	sp, sp, #28
 1184              		.cfi_def_cfa_offset 48
 1185 0004 0400     		movs	r4, r0
 1186 0006 0D00     		movs	r5, r1
 1187 0008 1600     		movs	r6, r2
 1188 000a 1F00     		movs	r7, r3
 307:Source\azure_iot_sdk\c-utility\src/sastoken.c ****     STRING_HANDLE result;
 308:Source\azure_iot_sdk\c-utility\src/sastoken.c **** 
 309:Source\azure_iot_sdk\c-utility\src/sastoken.c ****     /*Codes_SRS_SASTOKEN_06_001: [If key is NULL then SASToken_Create shall return NULL.]*/
 310:Source\azure_iot_sdk\c-utility\src/sastoken.c ****     /*Codes_SRS_SASTOKEN_06_003: [If scope is NULL then SASToken_Create shall return NULL.]*/
 311:Source\azure_iot_sdk\c-utility\src/sastoken.c ****     /*Codes_SRS_SASTOKEN_06_007: [keyName is optional and can be set to NULL.]*/
 312:Source\azure_iot_sdk\c-utility\src/sastoken.c ****     if ((key == NULL) ||
 1189              		.loc 1 312 0
 1190 000c 0028     		cmp	r0, #0
 1191 000e 01D0     		beq	.L76
 1192              		.loc 1 312 0 is_stmt 0 discriminator 1
 1193 0010 0029     		cmp	r1, #0
 1194 0012 13D1     		bne	.L77
 1195              	.L76:
 1196              	.LBB16:
 313:Source\azure_iot_sdk\c-utility\src/sastoken.c ****         (scope == NULL))
 314:Source\azure_iot_sdk\c-utility\src/sastoken.c ****     {
 315:Source\azure_iot_sdk\c-utility\src/sastoken.c ****         LogError("Invalid Parameter to SASToken_Create. handle key: %p, handle scope: %p, handle ke
 1197              		.loc 1 315 0 is_stmt 1 discriminator 3
 1198 0014 FFF7FEFF 		bl	xlogging_get_log_function
 1199              	.LVL213:
 1200 0018 071E     		subs	r7, r0, #0
 1201              	.LVL214:
 1202 001a 20D0     		beq	.L79
 1203              		.loc 1 315 0 is_stmt 0 discriminator 4
 1204 001c 0496     		str	r6, [sp, #16]
 1205 001e 0395     		str	r5, [sp, #12]
 1206 0020 0294     		str	r4, [sp, #8]
 1207 0022 104B     		ldr	r3, .L80
 1208 0024 0193     		str	r3, [sp, #4]
 1209 0026 0123     		movs	r3, #1
 1210 0028 0093     		str	r3, [sp]
 1211 002a 3C23     		movs	r3, #60
 1212 002c FF33     		adds	r3, r3, #255
 1213 002e 0E4A     		ldr	r2, .L80+4
 1214 0030 1432     		adds	r2, r2, #20
 1215 0032 0E49     		ldr	r1, .L80+8
 1216 0034 0020     		movs	r0, #0
 1217              	.LVL215:
 1218 0036 B847     		blx	r7
 1219              	.LVL216:
 1220              	.LBE16:
ARM GAS  C:\Users\Phuong\AppData\Local\Temp\ccIn3esT.s 			page 30


 316:Source\azure_iot_sdk\c-utility\src/sastoken.c ****         result = NULL;
 1221              		.loc 1 316 0 is_stmt 1 discriminator 4
 1222 0038 0020     		movs	r0, #0
 1223 003a 11E0     		b	.L78
 1224              	.LVL217:
 1225              	.L77:
 1226              	.LBB17:
 317:Source\azure_iot_sdk\c-utility\src/sastoken.c ****     }
 318:Source\azure_iot_sdk\c-utility\src/sastoken.c ****     else
 319:Source\azure_iot_sdk\c-utility\src/sastoken.c ****     {
 320:Source\azure_iot_sdk\c-utility\src/sastoken.c ****         const char* string_key = STRING_c_str(key);
 1227              		.loc 1 320 0
 1228 003c FFF7FEFF 		bl	STRING_c_str
 1229              	.LVL218:
 1230 0040 0400     		movs	r4, r0
 1231              	.LVL219:
 321:Source\azure_iot_sdk\c-utility\src/sastoken.c ****         const char* string_scope = STRING_c_str(scope);
 1232              		.loc 1 321 0
 1233 0042 2800     		movs	r0, r5
 1234              	.LVL220:
 1235 0044 FFF7FEFF 		bl	STRING_c_str
 1236              	.LVL221:
 1237 0048 0500     		movs	r5, r0
 1238              	.LVL222:
 322:Source\azure_iot_sdk\c-utility\src/sastoken.c ****         const char* string_name = STRING_c_str(keyName);
 1239              		.loc 1 322 0
 1240 004a 3000     		movs	r0, r6
 1241              	.LVL223:
 1242 004c FFF7FEFF 		bl	STRING_c_str
 1243              	.LVL224:
 1244 0050 0200     		movs	r2, r0
 1245              	.LVL225:
 323:Source\azure_iot_sdk\c-utility\src/sastoken.c ****         result = construct_sas_token(string_key, string_scope, string_name, expiry);
 1246              		.loc 1 323 0
 1247 0052 3B00     		movs	r3, r7
 1248 0054 2900     		movs	r1, r5
 1249 0056 2000     		movs	r0, r4
 1250              	.LVL226:
 1251 0058 FFF7FEFF 		bl	construct_sas_token
 1252              	.LVL227:
 1253 005c 00E0     		b	.L78
 1254              	.LVL228:
 1255              	.L79:
 1256              	.LBE17:
 316:Source\azure_iot_sdk\c-utility\src/sastoken.c ****     }
 1257              		.loc 1 316 0
 1258 005e 0020     		movs	r0, #0
 1259              	.LVL229:
 1260              	.L78:
 324:Source\azure_iot_sdk\c-utility\src/sastoken.c ****     }
 325:Source\azure_iot_sdk\c-utility\src/sastoken.c ****     return result;
 326:Source\azure_iot_sdk\c-utility\src/sastoken.c **** }
 1261              		.loc 1 326 0
 1262 0060 07B0     		add	sp, sp, #28
 1263              		@ sp needed
 1264              	.LVL230:
 1265 0062 F0BD     		pop	{r4, r5, r6, r7, pc}
ARM GAS  C:\Users\Phuong\AppData\Local\Temp\ccIn3esT.s 			page 31


 1266              	.L81:
 1267              		.align	2
 1268              	.L80:
 1269 0064 7C010000 		.word	.LC25
 1270 0068 00000000 		.word	.LANCHOR0
 1271 006c 00000000 		.word	.LC1
 1272              		.cfi_endproc
 1273              	.LFE4:
 1274              		.size	SASToken_Create, .-SASToken_Create
 1275              		.section	.text.SASToken_CreateString,"ax",%progbits
 1276              		.align	2
 1277              		.global	SASToken_CreateString
 1278              		.code	16
 1279              		.thumb_func
 1280              		.type	SASToken_CreateString, %function
 1281              	SASToken_CreateString:
 1282              	.LFB5:
 327:Source\azure_iot_sdk\c-utility\src/sastoken.c **** 
 328:Source\azure_iot_sdk\c-utility\src/sastoken.c **** STRING_HANDLE SASToken_CreateString(const char* key, const char* scope, const char* keyName, size_t
 329:Source\azure_iot_sdk\c-utility\src/sastoken.c **** {
 1283              		.loc 1 329 0
 1284              		.cfi_startproc
 1285              		@ args = 0, pretend = 0, frame = 0
 1286              		@ frame_needed = 0, uses_anonymous_args = 0
 1287              	.LVL231:
 1288 0000 F0B5     		push	{r4, r5, r6, r7, lr}
 1289              		.cfi_def_cfa_offset 20
 1290              		.cfi_offset 4, -20
 1291              		.cfi_offset 5, -16
 1292              		.cfi_offset 6, -12
 1293              		.cfi_offset 7, -8
 1294              		.cfi_offset 14, -4
 1295 0002 87B0     		sub	sp, sp, #28
 1296              		.cfi_def_cfa_offset 48
 1297 0004 0400     		movs	r4, r0
 1298 0006 0D00     		movs	r5, r1
 1299 0008 1600     		movs	r6, r2
 330:Source\azure_iot_sdk\c-utility\src/sastoken.c ****     STRING_HANDLE result;
 331:Source\azure_iot_sdk\c-utility\src/sastoken.c **** 
 332:Source\azure_iot_sdk\c-utility\src/sastoken.c ****     /*Codes_SRS_SASTOKEN_06_001: [If key is NULL then SASToken_Create shall return NULL.]*/
 333:Source\azure_iot_sdk\c-utility\src/sastoken.c ****     /*Codes_SRS_SASTOKEN_06_003: [If scope is NULL then SASToken_Create shall return NULL.]*/
 334:Source\azure_iot_sdk\c-utility\src/sastoken.c ****     /*Codes_SRS_SASTOKEN_06_007: [keyName is optional and can be set to NULL.]*/
 335:Source\azure_iot_sdk\c-utility\src/sastoken.c ****     if ((key == NULL) ||
 1300              		.loc 1 335 0
 1301 000a 0028     		cmp	r0, #0
 1302 000c 01D0     		beq	.L83
 1303              		.loc 1 335 0 is_stmt 0 discriminator 1
 1304 000e 0029     		cmp	r1, #0
 1305 0010 13D1     		bne	.L84
 1306              	.L83:
 1307              	.LBB18:
 336:Source\azure_iot_sdk\c-utility\src/sastoken.c ****         (scope == NULL))
 337:Source\azure_iot_sdk\c-utility\src/sastoken.c ****     {
 338:Source\azure_iot_sdk\c-utility\src/sastoken.c ****         LogError("Invalid Parameter to SASToken_Create. handle key: %p, handle scope: %p, handle ke
 1308              		.loc 1 338 0 is_stmt 1 discriminator 3
 1309 0012 FFF7FEFF 		bl	xlogging_get_log_function
 1310              	.LVL232:
ARM GAS  C:\Users\Phuong\AppData\Local\Temp\ccIn3esT.s 			page 32


 1311 0016 071E     		subs	r7, r0, #0
 1312              	.LVL233:
 1313 0018 12D0     		beq	.L86
 1314              		.loc 1 338 0 is_stmt 0 discriminator 4
 1315 001a 0496     		str	r6, [sp, #16]
 1316 001c 0395     		str	r5, [sp, #12]
 1317 001e 0294     		str	r4, [sp, #8]
 1318 0020 094B     		ldr	r3, .L87
 1319 0022 0193     		str	r3, [sp, #4]
 1320 0024 0123     		movs	r3, #1
 1321 0026 0093     		str	r3, [sp]
 1322 0028 5233     		adds	r3, r3, #82
 1323 002a FF33     		adds	r3, r3, #255
 1324 002c 074A     		ldr	r2, .L87+4
 1325 002e 2432     		adds	r2, r2, #36
 1326 0030 0749     		ldr	r1, .L87+8
 1327 0032 0020     		movs	r0, #0
 1328              	.LVL234:
 1329 0034 B847     		blx	r7
 1330              	.LVL235:
 1331              	.LBE18:
 339:Source\azure_iot_sdk\c-utility\src/sastoken.c ****         result = NULL;
 1332              		.loc 1 339 0 is_stmt 1 discriminator 4
 1333 0036 0020     		movs	r0, #0
 1334 0038 03E0     		b	.L85
 1335              	.LVL236:
 1336              	.L84:
 340:Source\azure_iot_sdk\c-utility\src/sastoken.c ****     }
 341:Source\azure_iot_sdk\c-utility\src/sastoken.c ****     else
 342:Source\azure_iot_sdk\c-utility\src/sastoken.c ****     {
 343:Source\azure_iot_sdk\c-utility\src/sastoken.c ****         result = construct_sas_token(key, scope, keyName, expiry);
 1337              		.loc 1 343 0
 1338 003a FFF7FEFF 		bl	construct_sas_token
 1339              	.LVL237:
 1340 003e 00E0     		b	.L85
 1341              	.LVL238:
 1342              	.L86:
 339:Source\azure_iot_sdk\c-utility\src/sastoken.c ****         result = NULL;
 1343              		.loc 1 339 0
 1344 0040 0020     		movs	r0, #0
 1345              	.LVL239:
 1346              	.L85:
 344:Source\azure_iot_sdk\c-utility\src/sastoken.c ****     }
 345:Source\azure_iot_sdk\c-utility\src/sastoken.c ****     return result;
 346:Source\azure_iot_sdk\c-utility\src/sastoken.c **** }
 1347              		.loc 1 346 0
 1348 0042 07B0     		add	sp, sp, #28
 1349              		@ sp needed
 1350              	.LVL240:
 1351              	.LVL241:
 1352              	.LVL242:
 1353 0044 F0BD     		pop	{r4, r5, r6, r7, pc}
 1354              	.L88:
 1355 0046 C046     		.align	2
 1356              	.L87:
 1357 0048 7C010000 		.word	.LC25
 1358 004c 00000000 		.word	.LANCHOR0
ARM GAS  C:\Users\Phuong\AppData\Local\Temp\ccIn3esT.s 			page 33


 1359 0050 00000000 		.word	.LC1
 1360              		.cfi_endproc
 1361              	.LFE5:
 1362              		.size	SASToken_CreateString, .-SASToken_CreateString
 1363              		.section	.rodata
 1364              		.align	2
 1365              		.set	.LANCHOR0,. + 0
 1366              		.type	__func__.6065, %object
 1367              		.size	__func__.6065, 20
 1368              	__func__.6065:
 1369 0000 636F6E73 		.ascii	"construct_sas_token\000"
 1369      74727563 
 1369      745F7361 
 1369      735F746F 
 1369      6B656E00 
 1370              		.type	__func__.6096, %object
 1371              		.size	__func__.6096, 16
 1372              	__func__.6096:
 1373 0014 53415354 		.ascii	"SASToken_Create\000"
 1373      6F6B656E 
 1373      5F437265 
 1373      61746500 
 1374              		.type	__func__.6110, %object
 1375              		.size	__func__.6110, 22
 1376              	__func__.6110:
 1377 0024 53415354 		.ascii	"SASToken_CreateString\000"
 1377      6F6B656E 
 1377      5F437265 
 1377      61746553 
 1377      7472696E 
 1378              		.section	.rodata.str1.4,"aMS",%progbits,1
 1379              		.align	2
 1380              	.LC1:
 1381 0000 536F7572 		.ascii	"Source\\azure_iot_sdk\\c-utility\\src\\sastoken.c\000"
 1381      63655C61 
 1381      7A757265 
 1381      5F696F74 
 1381      5F73646B 
 1382 002e 0000     		.space	2
 1383              	.LC3:
 1384 0030 556E6162 		.ascii	"Unable to decode the key for generating the SAS.\000"
 1384      6C652074 
 1384      6F206465 
 1384      636F6465 
 1384      20746865 
 1385 0061 000000   		.space	3
 1386              	.LC5:
 1387 0064 466F7220 		.ascii	"For some reason converting seconds to a string fail"
 1387      736F6D65 
 1387      20726561 
 1387      736F6E20 
 1387      636F6E76 
 1388 0097 65642E20 		.ascii	"ed.  No SAS can be generated.\000"
 1388      204E6F20 
 1388      53415320 
 1388      63616E20 
 1388      62652067 
ARM GAS  C:\Users\Phuong\AppData\Local\Temp\ccIn3esT.s 			page 34


 1389 00b5 000000   		.space	3
 1390              	.LC7:
 1391 00b8 556E6162 		.ascii	"Unable to allocate memory to prepare SAS token.\000"
 1391      6C652074 
 1391      6F20616C 
 1391      6C6F6361 
 1391      7465206D 
 1392              	.LC9:
 1393 00e8 0A00     		.ascii	"\012\000"
 1394 00ea 0000     		.space	2
 1395              	.LC11:
 1396 00ec 556E6162 		.ascii	"Unable to build the input to the HMAC to prepare SA"
 1396      6C652074 
 1396      6F206275 
 1396      696C6420 
 1396      74686520 
 1397 011f 5320746F 		.ascii	"S token.\000"
 1397      6B656E2E 
 1397      00
 1398              	.LC13:
 1399 0128 53686172 		.ascii	"SharedAccessSignature sr=\000"
 1399      65644163 
 1399      63657373 
 1399      5369676E 
 1399      61747572 
 1400 0142 0000     		.space	2
 1401              	.LC15:
 1402 0144 26736967 		.ascii	"&sig=\000"
 1402      3D00
 1403 014a 0000     		.space	2
 1404              	.LC17:
 1405 014c 2673653D 		.ascii	"&se=\000"
 1405      00
 1406 0151 000000   		.space	3
 1407              	.LC19:
 1408 0154 26736B6E 		.ascii	"&skn=\000"
 1408      3D00
 1409 015a 0000     		.space	2
 1410              	.LC21:
 1411 015c 556E6162 		.ascii	"Unable to build the SAS token.\000"
 1411      6C652074 
 1411      6F206275 
 1411      696C6420 
 1411      74686520 
 1412 017b 00       		.space	1
 1413              	.LC25:
 1414 017c 496E7661 		.ascii	"Invalid Parameter to SASToken_Create. handle key: %"
 1414      6C696420 
 1414      50617261 
 1414      6D657465 
 1414      7220746F 
 1415 01af 702C2068 		.ascii	"p, handle scope: %p, handle keyName: %p\000"
 1415      616E646C 
 1415      65207363 
 1415      6F70653A 
 1415      2025702C 
 1416              		.text
ARM GAS  C:\Users\Phuong\AppData\Local\Temp\ccIn3esT.s 			page 35


 1417              	.Letext0:
 1418              		.file 2 "c:\\program files (x86)\\cypress\\psoc creator\\4.2\\psoc creator\\import\\gnu\\arm\\5.4.
 1419              		.file 3 "c:\\program files (x86)\\cypress\\psoc creator\\4.2\\psoc creator\\import\\gnu\\arm\\5.4.
 1420              		.file 4 ".\\Source\\azure_iot_sdk\\c-utility\\inc/azure_c_shared_utility/strings_types.h"
 1421              		.file 5 ".\\Source\\azure_iot_sdk\\c-utility\\inc/azure_c_shared_utility/buffer_.h"
 1422              		.file 6 ".\\Source\\azure_iot_sdk\\c-utility\\inc/azure_c_shared_utility/hmacsha256.h"
 1423              		.file 7 ".\\Source\\azure_iot_sdk\\c-utility\\inc/azure_c_shared_utility/xlogging.h"
 1424              		.file 8 ".\\Source\\azure_iot_sdk\\c-utility\\inc/azure_c_shared_utility/strings.h"
 1425              		.file 9 ".\\Source\\azure_iot_sdk\\c-utility\\inc/azure_c_shared_utility/base64.h"
 1426              		.file 10 ".\\Source\\azure_iot_sdk\\c-utility\\inc/azure_c_shared_utility/urlencode.h"
 1427              		.file 11 ".\\Source\\azure_iot_sdk\\c-utility\\inc/azure_c_shared_utility/crt_abstractions.h"
 1428              		.file 12 ".\\Source\\azure_iot_sdk\\c-utility\\inc/azure_c_shared_utility/agenttime.h"
 1429              		.file 13 "c:\\program files (x86)\\cypress\\psoc creator\\4.2\\psoc creator\\import\\gnu\\arm\\5.4