ARM GAS  C:\Users\Phuong\AppData\Local\Temp\ccX7yw2d.s 			page 1


   1              		.syntax unified
   2              		.cpu cortex-m0plus
   3              		.fpu softvfp
   4              		.eabi_attribute 20, 1
   5              		.eabi_attribute 21, 1
   6              		.eabi_attribute 23, 3
   7              		.eabi_attribute 24, 1
   8              		.eabi_attribute 25, 1
   9              		.eabi_attribute 26, 1
  10              		.eabi_attribute 30, 1
  11              		.eabi_attribute 34, 0
  12              		.eabi_attribute 18, 4
  13              		.thumb
  14              		.syntax unified
  15              		.file	"session.c"
  16              		.text
  17              	.Ltext0:
  18              		.cfi_sections	.debug_frame
  19              		.section	.text.session_set_state,"ax",%progbits
  20              		.align	2
  21              		.code	16
  22              		.thumb_func
  23              		.type	session_set_state, %function
  24              	session_set_state:
  25              	.LFB2:
  26              		.file 1 "Source\\azure_iot_sdk\\uamqp\\src\\session.c"
   1:Source\azure_iot_sdk\uamqp\src/session.c **** // Copyright (c) Microsoft. All rights reserved.
   2:Source\azure_iot_sdk\uamqp\src/session.c **** // Licensed under the MIT license. See LICENSE file in the project root for full license informatio
   3:Source\azure_iot_sdk\uamqp\src/session.c **** 
   4:Source\azure_iot_sdk\uamqp\src/session.c **** #include <stdlib.h>
   5:Source\azure_iot_sdk\uamqp\src/session.c **** #include <string.h>
   6:Source\azure_iot_sdk\uamqp\src/session.c **** #include "azure_c_shared_utility/optimize_size.h"
   7:Source\azure_iot_sdk\uamqp\src/session.c **** #include "azure_c_shared_utility/gballoc.h"
   8:Source\azure_iot_sdk\uamqp\src/session.c **** #include "azure_uamqp_c/session.h"
   9:Source\azure_iot_sdk\uamqp\src/session.c **** #include "azure_uamqp_c/connection.h"
  10:Source\azure_iot_sdk\uamqp\src/session.c **** #include "azure_uamqp_c/amqp_definitions.h"
  11:Source\azure_iot_sdk\uamqp\src/session.c **** 
  12:Source\azure_iot_sdk\uamqp\src/session.c **** typedef enum LINK_ENDPOINT_STATE_TAG
  13:Source\azure_iot_sdk\uamqp\src/session.c **** {
  14:Source\azure_iot_sdk\uamqp\src/session.c ****     LINK_ENDPOINT_STATE_NOT_ATTACHED,
  15:Source\azure_iot_sdk\uamqp\src/session.c ****     LINK_ENDPOINT_STATE_ATTACHED,
  16:Source\azure_iot_sdk\uamqp\src/session.c ****     LINK_ENDPOINT_STATE_DETACHING
  17:Source\azure_iot_sdk\uamqp\src/session.c **** } LINK_ENDPOINT_STATE;
  18:Source\azure_iot_sdk\uamqp\src/session.c **** 
  19:Source\azure_iot_sdk\uamqp\src/session.c **** typedef struct LINK_ENDPOINT_INSTANCE_TAG
  20:Source\azure_iot_sdk\uamqp\src/session.c **** {
  21:Source\azure_iot_sdk\uamqp\src/session.c ****     char* name;
  22:Source\azure_iot_sdk\uamqp\src/session.c ****     handle input_handle;
  23:Source\azure_iot_sdk\uamqp\src/session.c ****     handle output_handle;
  24:Source\azure_iot_sdk\uamqp\src/session.c ****     ON_ENDPOINT_FRAME_RECEIVED frame_received_callback;
  25:Source\azure_iot_sdk\uamqp\src/session.c ****     ON_SESSION_STATE_CHANGED on_session_state_changed;
  26:Source\azure_iot_sdk\uamqp\src/session.c ****     ON_SESSION_FLOW_ON on_session_flow_on;
  27:Source\azure_iot_sdk\uamqp\src/session.c ****     void* callback_context;
  28:Source\azure_iot_sdk\uamqp\src/session.c ****     SESSION_HANDLE session;
  29:Source\azure_iot_sdk\uamqp\src/session.c ****     LINK_ENDPOINT_STATE link_endpoint_state;
  30:Source\azure_iot_sdk\uamqp\src/session.c **** } LINK_ENDPOINT_INSTANCE;
  31:Source\azure_iot_sdk\uamqp\src/session.c **** 
ARM GAS  C:\Users\Phuong\AppData\Local\Temp\ccX7yw2d.s 			page 2


  32:Source\azure_iot_sdk\uamqp\src/session.c **** typedef struct SESSION_INSTANCE_TAG
  33:Source\azure_iot_sdk\uamqp\src/session.c **** {
  34:Source\azure_iot_sdk\uamqp\src/session.c ****     ON_ENDPOINT_FRAME_RECEIVED frame_received_callback;
  35:Source\azure_iot_sdk\uamqp\src/session.c ****     void* frame_received_callback_context;
  36:Source\azure_iot_sdk\uamqp\src/session.c ****     SESSION_STATE session_state;
  37:Source\azure_iot_sdk\uamqp\src/session.c ****     SESSION_STATE previous_session_state;
  38:Source\azure_iot_sdk\uamqp\src/session.c ****     CONNECTION_HANDLE connection;
  39:Source\azure_iot_sdk\uamqp\src/session.c ****     ENDPOINT_HANDLE endpoint;
  40:Source\azure_iot_sdk\uamqp\src/session.c ****     LINK_ENDPOINT_INSTANCE** link_endpoints;
  41:Source\azure_iot_sdk\uamqp\src/session.c ****     uint32_t link_endpoint_count;
  42:Source\azure_iot_sdk\uamqp\src/session.c **** 
  43:Source\azure_iot_sdk\uamqp\src/session.c ****     ON_LINK_ATTACHED on_link_attached;
  44:Source\azure_iot_sdk\uamqp\src/session.c ****     void* on_link_attached_callback_context;
  45:Source\azure_iot_sdk\uamqp\src/session.c **** 
  46:Source\azure_iot_sdk\uamqp\src/session.c ****     /* Codes_S_R_S_SESSION_01_016: [next-outgoing-id The next-outgoing-id is the transfer-id to ass
  47:Source\azure_iot_sdk\uamqp\src/session.c ****     transfer_number next_outgoing_id;
  48:Source\azure_iot_sdk\uamqp\src/session.c ****     transfer_number next_incoming_id;
  49:Source\azure_iot_sdk\uamqp\src/session.c ****     uint32_t desired_incoming_window;
  50:Source\azure_iot_sdk\uamqp\src/session.c ****     uint32_t incoming_window;
  51:Source\azure_iot_sdk\uamqp\src/session.c ****     uint32_t outgoing_window;
  52:Source\azure_iot_sdk\uamqp\src/session.c ****     handle handle_max;
  53:Source\azure_iot_sdk\uamqp\src/session.c ****     uint32_t remote_incoming_window;
  54:Source\azure_iot_sdk\uamqp\src/session.c ****     uint32_t remote_outgoing_window;
  55:Source\azure_iot_sdk\uamqp\src/session.c ****     unsigned int is_underlying_connection_open : 1;
  56:Source\azure_iot_sdk\uamqp\src/session.c **** } SESSION_INSTANCE;
  57:Source\azure_iot_sdk\uamqp\src/session.c **** 
  58:Source\azure_iot_sdk\uamqp\src/session.c **** #define UNDERLYING_CONNECTION_NOT_OPEN 0
  59:Source\azure_iot_sdk\uamqp\src/session.c **** #define UNDERLYING_CONNECTION_OPEN 1
  60:Source\azure_iot_sdk\uamqp\src/session.c **** 
  61:Source\azure_iot_sdk\uamqp\src/session.c **** static void remove_link_endpoint(LINK_ENDPOINT_HANDLE link_endpoint)
  62:Source\azure_iot_sdk\uamqp\src/session.c **** {
  63:Source\azure_iot_sdk\uamqp\src/session.c ****     if (link_endpoint != NULL)
  64:Source\azure_iot_sdk\uamqp\src/session.c ****     {
  65:Source\azure_iot_sdk\uamqp\src/session.c ****         LINK_ENDPOINT_INSTANCE* endpoint_instance = (LINK_ENDPOINT_INSTANCE*)link_endpoint;
  66:Source\azure_iot_sdk\uamqp\src/session.c ****         SESSION_INSTANCE* session_instance = endpoint_instance->session;
  67:Source\azure_iot_sdk\uamqp\src/session.c ****         uint32_t i;
  68:Source\azure_iot_sdk\uamqp\src/session.c **** 
  69:Source\azure_iot_sdk\uamqp\src/session.c ****         for (i = 0; i < session_instance->link_endpoint_count; i++)
  70:Source\azure_iot_sdk\uamqp\src/session.c ****         {
  71:Source\azure_iot_sdk\uamqp\src/session.c ****             if (session_instance->link_endpoints[i] == link_endpoint)
  72:Source\azure_iot_sdk\uamqp\src/session.c ****             {
  73:Source\azure_iot_sdk\uamqp\src/session.c ****                 break;
  74:Source\azure_iot_sdk\uamqp\src/session.c ****             }
  75:Source\azure_iot_sdk\uamqp\src/session.c ****         }
  76:Source\azure_iot_sdk\uamqp\src/session.c **** 
  77:Source\azure_iot_sdk\uamqp\src/session.c ****         if (i < session_instance->link_endpoint_count)
  78:Source\azure_iot_sdk\uamqp\src/session.c ****         {
  79:Source\azure_iot_sdk\uamqp\src/session.c ****             LINK_ENDPOINT_INSTANCE** new_endpoints;
  80:Source\azure_iot_sdk\uamqp\src/session.c **** 
  81:Source\azure_iot_sdk\uamqp\src/session.c ****             if (i < (session_instance->link_endpoint_count - 1))
  82:Source\azure_iot_sdk\uamqp\src/session.c ****             {
  83:Source\azure_iot_sdk\uamqp\src/session.c ****                 (void)memmove(&session_instance->link_endpoints[i], &session_instance->link_endpoin
  84:Source\azure_iot_sdk\uamqp\src/session.c ****             }
  85:Source\azure_iot_sdk\uamqp\src/session.c **** 
  86:Source\azure_iot_sdk\uamqp\src/session.c ****             session_instance->link_endpoint_count--;
  87:Source\azure_iot_sdk\uamqp\src/session.c **** 
  88:Source\azure_iot_sdk\uamqp\src/session.c ****             if (session_instance->link_endpoint_count == 0)
ARM GAS  C:\Users\Phuong\AppData\Local\Temp\ccX7yw2d.s 			page 3


  89:Source\azure_iot_sdk\uamqp\src/session.c ****             {
  90:Source\azure_iot_sdk\uamqp\src/session.c ****                 free(session_instance->link_endpoints);
  91:Source\azure_iot_sdk\uamqp\src/session.c ****                 session_instance->link_endpoints = NULL;
  92:Source\azure_iot_sdk\uamqp\src/session.c ****             }
  93:Source\azure_iot_sdk\uamqp\src/session.c ****             else
  94:Source\azure_iot_sdk\uamqp\src/session.c ****             {
  95:Source\azure_iot_sdk\uamqp\src/session.c ****                 new_endpoints = (LINK_ENDPOINT_INSTANCE**)realloc(session_instance->link_endpoints,
  96:Source\azure_iot_sdk\uamqp\src/session.c ****                 if (new_endpoints != NULL)
  97:Source\azure_iot_sdk\uamqp\src/session.c ****                 {
  98:Source\azure_iot_sdk\uamqp\src/session.c ****                     session_instance->link_endpoints = new_endpoints;
  99:Source\azure_iot_sdk\uamqp\src/session.c ****                 }
 100:Source\azure_iot_sdk\uamqp\src/session.c ****             }
 101:Source\azure_iot_sdk\uamqp\src/session.c ****         }
 102:Source\azure_iot_sdk\uamqp\src/session.c ****     }
 103:Source\azure_iot_sdk\uamqp\src/session.c **** }
 104:Source\azure_iot_sdk\uamqp\src/session.c **** 
 105:Source\azure_iot_sdk\uamqp\src/session.c **** static void free_link_endpoint(LINK_ENDPOINT_HANDLE link_endpoint)
 106:Source\azure_iot_sdk\uamqp\src/session.c **** {
 107:Source\azure_iot_sdk\uamqp\src/session.c ****     if (link_endpoint->name != NULL)
 108:Source\azure_iot_sdk\uamqp\src/session.c ****     {
 109:Source\azure_iot_sdk\uamqp\src/session.c ****         free(link_endpoint->name);
 110:Source\azure_iot_sdk\uamqp\src/session.c ****     }
 111:Source\azure_iot_sdk\uamqp\src/session.c **** 
 112:Source\azure_iot_sdk\uamqp\src/session.c ****     free(link_endpoint);
 113:Source\azure_iot_sdk\uamqp\src/session.c **** }
 114:Source\azure_iot_sdk\uamqp\src/session.c **** 
 115:Source\azure_iot_sdk\uamqp\src/session.c **** static void session_set_state(SESSION_INSTANCE* session_instance, SESSION_STATE session_state)
 116:Source\azure_iot_sdk\uamqp\src/session.c **** {
  27              		.loc 1 116 0
  28              		.cfi_startproc
  29              		@ args = 0, pretend = 0, frame = 0
  30              		@ frame_needed = 0, uses_anonymous_args = 0
  31              	.LVL0:
  32 0000 F8B5     		push	{r3, r4, r5, r6, r7, lr}
  33              		.cfi_def_cfa_offset 24
  34              		.cfi_offset 3, -24
  35              		.cfi_offset 4, -20
  36              		.cfi_offset 5, -16
  37              		.cfi_offset 6, -12
  38              		.cfi_offset 7, -8
  39              		.cfi_offset 14, -4
  40 0002 0500     		movs	r5, r0
  41 0004 0E00     		movs	r6, r1
 117:Source\azure_iot_sdk\uamqp\src/session.c ****     uint32_t i;
 118:Source\azure_iot_sdk\uamqp\src/session.c **** 
 119:Source\azure_iot_sdk\uamqp\src/session.c ****     session_instance->previous_session_state = session_instance->session_state;
  42              		.loc 1 119 0
  43 0006 037A     		ldrb	r3, [r0, #8]
  44 0008 4372     		strb	r3, [r0, #9]
 120:Source\azure_iot_sdk\uamqp\src/session.c ****     session_instance->session_state = session_state;
  45              		.loc 1 120 0
  46 000a 2972     		strb	r1, [r5, #8]
  47              	.LVL1:
 121:Source\azure_iot_sdk\uamqp\src/session.c **** 
 122:Source\azure_iot_sdk\uamqp\src/session.c ****     for (i = 0; i < session_instance->link_endpoint_count; i++)
  48              		.loc 1 122 0
  49 000c 0024     		movs	r4, #0
ARM GAS  C:\Users\Phuong\AppData\Local\Temp\ccX7yw2d.s 			page 4


  50 000e 0EE0     		b	.L2
  51              	.LVL2:
  52              	.L4:
 123:Source\azure_iot_sdk\uamqp\src/session.c ****     {
 124:Source\azure_iot_sdk\uamqp\src/session.c ****         if (session_instance->link_endpoints[i]->on_session_state_changed != NULL)
  53              		.loc 1 124 0
  54 0010 A300     		lsls	r3, r4, #2
  55 0012 6A69     		ldr	r2, [r5, #20]
  56 0014 9B58     		ldr	r3, [r3, r2]
  57 0016 1F69     		ldr	r7, [r3, #16]
  58 0018 002F     		cmp	r7, #0
  59 001a 07D0     		beq	.L3
 125:Source\azure_iot_sdk\uamqp\src/session.c ****         {
 126:Source\azure_iot_sdk\uamqp\src/session.c ****             if (session_instance->link_endpoints[i]->link_endpoint_state != LINK_ENDPOINT_STATE_DET
  60              		.loc 1 126 0
  61 001c 2022     		movs	r2, #32
  62 001e 9A5C     		ldrb	r2, [r3, r2]
  63 0020 022A     		cmp	r2, #2
  64 0022 03D0     		beq	.L3
 127:Source\azure_iot_sdk\uamqp\src/session.c ****             {
 128:Source\azure_iot_sdk\uamqp\src/session.c ****                 session_instance->link_endpoints[i]->on_session_state_changed(session_instance->lin
  65              		.loc 1 128 0
  66 0024 6A7A     		ldrb	r2, [r5, #9]
  67 0026 9869     		ldr	r0, [r3, #24]
  68 0028 3100     		movs	r1, r6
  69 002a B847     		blx	r7
  70              	.LVL3:
  71              	.L3:
 122:Source\azure_iot_sdk\uamqp\src/session.c ****     {
  72              		.loc 1 122 0 discriminator 2
  73 002c 0134     		adds	r4, r4, #1
  74              	.LVL4:
  75              	.L2:
 122:Source\azure_iot_sdk\uamqp\src/session.c ****     {
  76              		.loc 1 122 0 is_stmt 0 discriminator 1
  77 002e AB69     		ldr	r3, [r5, #24]
  78 0030 9C42     		cmp	r4, r3
  79 0032 EDD3     		bcc	.L4
 129:Source\azure_iot_sdk\uamqp\src/session.c ****             }
 130:Source\azure_iot_sdk\uamqp\src/session.c ****         }
 131:Source\azure_iot_sdk\uamqp\src/session.c ****     }
 132:Source\azure_iot_sdk\uamqp\src/session.c **** }
  80              		.loc 1 132 0 is_stmt 1
  81              		@ sp needed
  82              	.LVL5:
  83              	.LVL6:
  84 0034 F8BD     		pop	{r3, r4, r5, r6, r7, pc}
  85              		.cfi_endproc
  86              	.LFE2:
  87              		.size	session_set_state, .-session_set_state
  88 0036 C046     		.section	.text.find_link_endpoint_by_input_handle,"ax",%progbits
  89              		.align	2
  90              		.code	16
  91              		.thumb_func
  92              		.type	find_link_endpoint_by_input_handle, %function
  93              	find_link_endpoint_by_input_handle:
  94              	.LFB8:
ARM GAS  C:\Users\Phuong\AppData\Local\Temp\ccX7yw2d.s 			page 5


 133:Source\azure_iot_sdk\uamqp\src/session.c **** 
 134:Source\azure_iot_sdk\uamqp\src/session.c **** static int send_end_frame(SESSION_INSTANCE* session_instance, ERROR_HANDLE error_handle)
 135:Source\azure_iot_sdk\uamqp\src/session.c **** {
 136:Source\azure_iot_sdk\uamqp\src/session.c ****     int result;
 137:Source\azure_iot_sdk\uamqp\src/session.c ****     END_HANDLE end_performative;
 138:Source\azure_iot_sdk\uamqp\src/session.c **** 
 139:Source\azure_iot_sdk\uamqp\src/session.c ****     end_performative = end_create();
 140:Source\azure_iot_sdk\uamqp\src/session.c ****     if (end_performative == NULL)
 141:Source\azure_iot_sdk\uamqp\src/session.c ****     {
 142:Source\azure_iot_sdk\uamqp\src/session.c ****         result = __FAILURE__;
 143:Source\azure_iot_sdk\uamqp\src/session.c ****     }
 144:Source\azure_iot_sdk\uamqp\src/session.c ****     else
 145:Source\azure_iot_sdk\uamqp\src/session.c ****     {
 146:Source\azure_iot_sdk\uamqp\src/session.c ****         if ((error_handle != NULL) &&
 147:Source\azure_iot_sdk\uamqp\src/session.c ****             (end_set_error(end_performative, error_handle) != 0))
 148:Source\azure_iot_sdk\uamqp\src/session.c ****         {
 149:Source\azure_iot_sdk\uamqp\src/session.c ****             result = __FAILURE__;
 150:Source\azure_iot_sdk\uamqp\src/session.c ****         }
 151:Source\azure_iot_sdk\uamqp\src/session.c ****         else
 152:Source\azure_iot_sdk\uamqp\src/session.c ****         {
 153:Source\azure_iot_sdk\uamqp\src/session.c ****             AMQP_VALUE end_performative_value = amqpvalue_create_end(end_performative);
 154:Source\azure_iot_sdk\uamqp\src/session.c ****             if (end_performative_value == NULL)
 155:Source\azure_iot_sdk\uamqp\src/session.c ****             {
 156:Source\azure_iot_sdk\uamqp\src/session.c ****                 result = __FAILURE__;
 157:Source\azure_iot_sdk\uamqp\src/session.c ****             }
 158:Source\azure_iot_sdk\uamqp\src/session.c ****             else
 159:Source\azure_iot_sdk\uamqp\src/session.c ****             {
 160:Source\azure_iot_sdk\uamqp\src/session.c ****                 if (connection_encode_frame(session_instance->endpoint, end_performative_value, NUL
 161:Source\azure_iot_sdk\uamqp\src/session.c ****                 {
 162:Source\azure_iot_sdk\uamqp\src/session.c ****                     result = __FAILURE__;
 163:Source\azure_iot_sdk\uamqp\src/session.c ****                 }
 164:Source\azure_iot_sdk\uamqp\src/session.c ****                 else
 165:Source\azure_iot_sdk\uamqp\src/session.c ****                 {
 166:Source\azure_iot_sdk\uamqp\src/session.c ****                     result = 0;
 167:Source\azure_iot_sdk\uamqp\src/session.c ****                 }
 168:Source\azure_iot_sdk\uamqp\src/session.c **** 
 169:Source\azure_iot_sdk\uamqp\src/session.c ****                 amqpvalue_destroy(end_performative_value);
 170:Source\azure_iot_sdk\uamqp\src/session.c ****             }
 171:Source\azure_iot_sdk\uamqp\src/session.c ****         }
 172:Source\azure_iot_sdk\uamqp\src/session.c **** 
 173:Source\azure_iot_sdk\uamqp\src/session.c ****         end_destroy(end_performative);
 174:Source\azure_iot_sdk\uamqp\src/session.c ****     }
 175:Source\azure_iot_sdk\uamqp\src/session.c **** 
 176:Source\azure_iot_sdk\uamqp\src/session.c ****     return result;
 177:Source\azure_iot_sdk\uamqp\src/session.c **** }
 178:Source\azure_iot_sdk\uamqp\src/session.c **** 
 179:Source\azure_iot_sdk\uamqp\src/session.c **** static void end_session_with_error(SESSION_INSTANCE* session_instance, const char* condition_value,
 180:Source\azure_iot_sdk\uamqp\src/session.c **** {
 181:Source\azure_iot_sdk\uamqp\src/session.c ****     ERROR_HANDLE error_handle = error_create(condition_value);
 182:Source\azure_iot_sdk\uamqp\src/session.c ****     if (error_handle == NULL)
 183:Source\azure_iot_sdk\uamqp\src/session.c ****     {
 184:Source\azure_iot_sdk\uamqp\src/session.c ****         /* fatal error */
 185:Source\azure_iot_sdk\uamqp\src/session.c ****         session_set_state(session_instance, SESSION_STATE_DISCARDING);
 186:Source\azure_iot_sdk\uamqp\src/session.c ****         (void)connection_close(session_instance->connection, "amqp:internal-error", "Cannot allocat
 187:Source\azure_iot_sdk\uamqp\src/session.c ****     }
 188:Source\azure_iot_sdk\uamqp\src/session.c ****     else
 189:Source\azure_iot_sdk\uamqp\src/session.c ****     {
ARM GAS  C:\Users\Phuong\AppData\Local\Temp\ccX7yw2d.s 			page 6


 190:Source\azure_iot_sdk\uamqp\src/session.c ****         if ((error_set_description(error_handle, description) != 0) ||
 191:Source\azure_iot_sdk\uamqp\src/session.c ****             (send_end_frame(session_instance, error_handle) != 0))
 192:Source\azure_iot_sdk\uamqp\src/session.c ****         {
 193:Source\azure_iot_sdk\uamqp\src/session.c ****             /* fatal error */
 194:Source\azure_iot_sdk\uamqp\src/session.c ****             session_set_state(session_instance, SESSION_STATE_DISCARDING);
 195:Source\azure_iot_sdk\uamqp\src/session.c ****             (void)connection_close(session_instance->connection, "amqp:internal-error", "Cannot all
 196:Source\azure_iot_sdk\uamqp\src/session.c ****         }
 197:Source\azure_iot_sdk\uamqp\src/session.c ****         else
 198:Source\azure_iot_sdk\uamqp\src/session.c ****         {
 199:Source\azure_iot_sdk\uamqp\src/session.c ****             session_set_state(session_instance, SESSION_STATE_DISCARDING);
 200:Source\azure_iot_sdk\uamqp\src/session.c ****         }
 201:Source\azure_iot_sdk\uamqp\src/session.c **** 
 202:Source\azure_iot_sdk\uamqp\src/session.c ****         error_destroy(error_handle);
 203:Source\azure_iot_sdk\uamqp\src/session.c ****     }
 204:Source\azure_iot_sdk\uamqp\src/session.c **** }
 205:Source\azure_iot_sdk\uamqp\src/session.c **** 
 206:Source\azure_iot_sdk\uamqp\src/session.c **** static int send_begin(SESSION_INSTANCE* session_instance)
 207:Source\azure_iot_sdk\uamqp\src/session.c **** {
 208:Source\azure_iot_sdk\uamqp\src/session.c ****     int result;
 209:Source\azure_iot_sdk\uamqp\src/session.c ****     BEGIN_HANDLE begin = begin_create(session_instance->next_outgoing_id, session_instance->incomin
 210:Source\azure_iot_sdk\uamqp\src/session.c **** 
 211:Source\azure_iot_sdk\uamqp\src/session.c ****     if (begin == NULL)
 212:Source\azure_iot_sdk\uamqp\src/session.c ****     {
 213:Source\azure_iot_sdk\uamqp\src/session.c ****         result = __FAILURE__;
 214:Source\azure_iot_sdk\uamqp\src/session.c ****     }
 215:Source\azure_iot_sdk\uamqp\src/session.c ****     else
 216:Source\azure_iot_sdk\uamqp\src/session.c ****     {
 217:Source\azure_iot_sdk\uamqp\src/session.c ****         uint16_t remote_channel;
 218:Source\azure_iot_sdk\uamqp\src/session.c ****         if (begin_set_handle_max(begin, session_instance->handle_max) != 0)
 219:Source\azure_iot_sdk\uamqp\src/session.c ****         {
 220:Source\azure_iot_sdk\uamqp\src/session.c ****             result = __FAILURE__;
 221:Source\azure_iot_sdk\uamqp\src/session.c ****         }
 222:Source\azure_iot_sdk\uamqp\src/session.c ****         else if ((session_instance->session_state == SESSION_STATE_BEGIN_RCVD) &&
 223:Source\azure_iot_sdk\uamqp\src/session.c ****             ((connection_endpoint_get_incoming_channel(session_instance->endpoint, &remote_channel)
 224:Source\azure_iot_sdk\uamqp\src/session.c ****             (begin_set_remote_channel(begin, remote_channel) != 0)))
 225:Source\azure_iot_sdk\uamqp\src/session.c ****         {
 226:Source\azure_iot_sdk\uamqp\src/session.c ****             result = __FAILURE__;
 227:Source\azure_iot_sdk\uamqp\src/session.c ****         }
 228:Source\azure_iot_sdk\uamqp\src/session.c ****         else
 229:Source\azure_iot_sdk\uamqp\src/session.c ****         {
 230:Source\azure_iot_sdk\uamqp\src/session.c ****             AMQP_VALUE begin_performative_value = amqpvalue_create_begin(begin);
 231:Source\azure_iot_sdk\uamqp\src/session.c ****             if (begin_performative_value == NULL)
 232:Source\azure_iot_sdk\uamqp\src/session.c ****             {
 233:Source\azure_iot_sdk\uamqp\src/session.c ****                 result = __FAILURE__;
 234:Source\azure_iot_sdk\uamqp\src/session.c ****             }
 235:Source\azure_iot_sdk\uamqp\src/session.c ****             else
 236:Source\azure_iot_sdk\uamqp\src/session.c ****             {
 237:Source\azure_iot_sdk\uamqp\src/session.c ****                 if (connection_encode_frame(session_instance->endpoint, begin_performative_value, N
 238:Source\azure_iot_sdk\uamqp\src/session.c ****                 {
 239:Source\azure_iot_sdk\uamqp\src/session.c ****                     result = __FAILURE__;
 240:Source\azure_iot_sdk\uamqp\src/session.c ****                 }
 241:Source\azure_iot_sdk\uamqp\src/session.c ****                 else
 242:Source\azure_iot_sdk\uamqp\src/session.c ****                 {
 243:Source\azure_iot_sdk\uamqp\src/session.c ****                     result = 0;
 244:Source\azure_iot_sdk\uamqp\src/session.c ****                 }
 245:Source\azure_iot_sdk\uamqp\src/session.c **** 
 246:Source\azure_iot_sdk\uamqp\src/session.c ****                 amqpvalue_destroy(begin_performative_value);
ARM GAS  C:\Users\Phuong\AppData\Local\Temp\ccX7yw2d.s 			page 7


 247:Source\azure_iot_sdk\uamqp\src/session.c ****             }
 248:Source\azure_iot_sdk\uamqp\src/session.c ****         }
 249:Source\azure_iot_sdk\uamqp\src/session.c **** 
 250:Source\azure_iot_sdk\uamqp\src/session.c ****         begin_destroy(begin);
 251:Source\azure_iot_sdk\uamqp\src/session.c ****     }
 252:Source\azure_iot_sdk\uamqp\src/session.c **** 
 253:Source\azure_iot_sdk\uamqp\src/session.c ****     return result;
 254:Source\azure_iot_sdk\uamqp\src/session.c **** }
 255:Source\azure_iot_sdk\uamqp\src/session.c **** 
 256:Source\azure_iot_sdk\uamqp\src/session.c **** static int send_flow(SESSION_INSTANCE* session)
 257:Source\azure_iot_sdk\uamqp\src/session.c **** {
 258:Source\azure_iot_sdk\uamqp\src/session.c ****     int result;
 259:Source\azure_iot_sdk\uamqp\src/session.c ****     if (session == NULL)
 260:Source\azure_iot_sdk\uamqp\src/session.c ****     {
 261:Source\azure_iot_sdk\uamqp\src/session.c ****         result = __FAILURE__;
 262:Source\azure_iot_sdk\uamqp\src/session.c ****     }
 263:Source\azure_iot_sdk\uamqp\src/session.c ****     else
 264:Source\azure_iot_sdk\uamqp\src/session.c ****     {
 265:Source\azure_iot_sdk\uamqp\src/session.c ****         FLOW_HANDLE flow = flow_create(session->incoming_window, session->next_outgoing_id, session
 266:Source\azure_iot_sdk\uamqp\src/session.c **** 
 267:Source\azure_iot_sdk\uamqp\src/session.c ****         if (flow == NULL)
 268:Source\azure_iot_sdk\uamqp\src/session.c ****         {
 269:Source\azure_iot_sdk\uamqp\src/session.c ****             result = __FAILURE__;
 270:Source\azure_iot_sdk\uamqp\src/session.c ****         }
 271:Source\azure_iot_sdk\uamqp\src/session.c ****         else
 272:Source\azure_iot_sdk\uamqp\src/session.c ****         {
 273:Source\azure_iot_sdk\uamqp\src/session.c ****             if (flow_set_next_incoming_id(flow, session->next_incoming_id) != 0)
 274:Source\azure_iot_sdk\uamqp\src/session.c ****             {
 275:Source\azure_iot_sdk\uamqp\src/session.c ****                 result = __FAILURE__;
 276:Source\azure_iot_sdk\uamqp\src/session.c ****             }
 277:Source\azure_iot_sdk\uamqp\src/session.c ****             else
 278:Source\azure_iot_sdk\uamqp\src/session.c ****             {
 279:Source\azure_iot_sdk\uamqp\src/session.c ****                 AMQP_VALUE flow_performative_value = amqpvalue_create_flow(flow);
 280:Source\azure_iot_sdk\uamqp\src/session.c ****                 if (flow_performative_value == NULL)
 281:Source\azure_iot_sdk\uamqp\src/session.c ****                 {
 282:Source\azure_iot_sdk\uamqp\src/session.c ****                     result = __FAILURE__;
 283:Source\azure_iot_sdk\uamqp\src/session.c ****                 }
 284:Source\azure_iot_sdk\uamqp\src/session.c ****                 else
 285:Source\azure_iot_sdk\uamqp\src/session.c ****                 {
 286:Source\azure_iot_sdk\uamqp\src/session.c ****                     if (connection_encode_frame(session->endpoint, flow_performative_value, NULL, 0
 287:Source\azure_iot_sdk\uamqp\src/session.c ****                     {
 288:Source\azure_iot_sdk\uamqp\src/session.c ****                         result = __FAILURE__;
 289:Source\azure_iot_sdk\uamqp\src/session.c ****                     }
 290:Source\azure_iot_sdk\uamqp\src/session.c ****                     else
 291:Source\azure_iot_sdk\uamqp\src/session.c ****                     {
 292:Source\azure_iot_sdk\uamqp\src/session.c ****                         result = 0;
 293:Source\azure_iot_sdk\uamqp\src/session.c ****                     }
 294:Source\azure_iot_sdk\uamqp\src/session.c **** 
 295:Source\azure_iot_sdk\uamqp\src/session.c ****                     amqpvalue_destroy(flow_performative_value);
 296:Source\azure_iot_sdk\uamqp\src/session.c ****                 }
 297:Source\azure_iot_sdk\uamqp\src/session.c ****             }
 298:Source\azure_iot_sdk\uamqp\src/session.c **** 
 299:Source\azure_iot_sdk\uamqp\src/session.c ****             flow_destroy(flow);
 300:Source\azure_iot_sdk\uamqp\src/session.c ****         }
 301:Source\azure_iot_sdk\uamqp\src/session.c ****     }
 302:Source\azure_iot_sdk\uamqp\src/session.c **** 
 303:Source\azure_iot_sdk\uamqp\src/session.c ****     return result;
ARM GAS  C:\Users\Phuong\AppData\Local\Temp\ccX7yw2d.s 			page 8


 304:Source\azure_iot_sdk\uamqp\src/session.c **** }
 305:Source\azure_iot_sdk\uamqp\src/session.c **** 
 306:Source\azure_iot_sdk\uamqp\src/session.c **** static LINK_ENDPOINT_INSTANCE* find_link_endpoint_by_name(SESSION_INSTANCE* session, const char* na
 307:Source\azure_iot_sdk\uamqp\src/session.c **** {
 308:Source\azure_iot_sdk\uamqp\src/session.c ****     uint32_t i;
 309:Source\azure_iot_sdk\uamqp\src/session.c ****     LINK_ENDPOINT_INSTANCE* result;
 310:Source\azure_iot_sdk\uamqp\src/session.c **** 
 311:Source\azure_iot_sdk\uamqp\src/session.c ****     for (i = 0; i < session->link_endpoint_count; i++)
 312:Source\azure_iot_sdk\uamqp\src/session.c ****     {
 313:Source\azure_iot_sdk\uamqp\src/session.c ****         if (strcmp(session->link_endpoints[i]->name, name) == 0)
 314:Source\azure_iot_sdk\uamqp\src/session.c ****         {
 315:Source\azure_iot_sdk\uamqp\src/session.c ****             break;
 316:Source\azure_iot_sdk\uamqp\src/session.c ****         }
 317:Source\azure_iot_sdk\uamqp\src/session.c ****     }
 318:Source\azure_iot_sdk\uamqp\src/session.c **** 
 319:Source\azure_iot_sdk\uamqp\src/session.c ****     if (i == session->link_endpoint_count)
 320:Source\azure_iot_sdk\uamqp\src/session.c ****     {
 321:Source\azure_iot_sdk\uamqp\src/session.c ****         result = NULL;
 322:Source\azure_iot_sdk\uamqp\src/session.c ****     }
 323:Source\azure_iot_sdk\uamqp\src/session.c ****     else
 324:Source\azure_iot_sdk\uamqp\src/session.c ****     {
 325:Source\azure_iot_sdk\uamqp\src/session.c ****         result = session->link_endpoints[i];
 326:Source\azure_iot_sdk\uamqp\src/session.c ****     }
 327:Source\azure_iot_sdk\uamqp\src/session.c **** 
 328:Source\azure_iot_sdk\uamqp\src/session.c ****     return result;
 329:Source\azure_iot_sdk\uamqp\src/session.c **** }
 330:Source\azure_iot_sdk\uamqp\src/session.c **** 
 331:Source\azure_iot_sdk\uamqp\src/session.c **** static LINK_ENDPOINT_INSTANCE* find_link_endpoint_by_input_handle(SESSION_INSTANCE* session, handle
 332:Source\azure_iot_sdk\uamqp\src/session.c **** {
  95              		.loc 1 332 0
  96              		.cfi_startproc
  97              		@ args = 0, pretend = 0, frame = 0
  98              		@ frame_needed = 0, uses_anonymous_args = 0
  99              	.LVL7:
 100 0000 30B5     		push	{r4, r5, lr}
 101              		.cfi_def_cfa_offset 12
 102              		.cfi_offset 4, -12
 103              		.cfi_offset 5, -8
 104              		.cfi_offset 14, -4
 105              	.LVL8:
 333:Source\azure_iot_sdk\uamqp\src/session.c ****     uint32_t i;
 334:Source\azure_iot_sdk\uamqp\src/session.c ****     LINK_ENDPOINT_INSTANCE* result;
 335:Source\azure_iot_sdk\uamqp\src/session.c **** 
 336:Source\azure_iot_sdk\uamqp\src/session.c ****     for (i = 0; i < session->link_endpoint_count; i++)
 106              		.loc 1 336 0
 107 0002 0023     		movs	r3, #0
 108 0004 06E0     		b	.L6
 109              	.LVL9:
 110              	.L8:
 337:Source\azure_iot_sdk\uamqp\src/session.c ****     {
 338:Source\azure_iot_sdk\uamqp\src/session.c ****         if (session->link_endpoints[i]->input_handle == input_handle)
 111              		.loc 1 338 0
 112 0006 9C00     		lsls	r4, r3, #2
 113 0008 4569     		ldr	r5, [r0, #20]
 114 000a 6459     		ldr	r4, [r4, r5]
 115 000c 6468     		ldr	r4, [r4, #4]
 116 000e 8C42     		cmp	r4, r1
ARM GAS  C:\Users\Phuong\AppData\Local\Temp\ccX7yw2d.s 			page 9


 117 0010 03D0     		beq	.L7
 336:Source\azure_iot_sdk\uamqp\src/session.c ****     {
 118              		.loc 1 336 0 discriminator 2
 119 0012 0133     		adds	r3, r3, #1
 120              	.LVL10:
 121              	.L6:
 336:Source\azure_iot_sdk\uamqp\src/session.c ****     {
 122              		.loc 1 336 0 is_stmt 0 discriminator 1
 123 0014 8269     		ldr	r2, [r0, #24]
 124 0016 9342     		cmp	r3, r2
 125 0018 F5D3     		bcc	.L8
 126              	.L7:
 339:Source\azure_iot_sdk\uamqp\src/session.c ****         {
 340:Source\azure_iot_sdk\uamqp\src/session.c ****             break;
 341:Source\azure_iot_sdk\uamqp\src/session.c ****         }
 342:Source\azure_iot_sdk\uamqp\src/session.c ****     }
 343:Source\azure_iot_sdk\uamqp\src/session.c **** 
 344:Source\azure_iot_sdk\uamqp\src/session.c ****     if (i == session->link_endpoint_count)
 127              		.loc 1 344 0 is_stmt 1
 128 001a 9342     		cmp	r3, r2
 129 001c 03D0     		beq	.L10
 345:Source\azure_iot_sdk\uamqp\src/session.c ****     {
 346:Source\azure_iot_sdk\uamqp\src/session.c ****         result = NULL;
 347:Source\azure_iot_sdk\uamqp\src/session.c ****     }
 348:Source\azure_iot_sdk\uamqp\src/session.c ****     else
 349:Source\azure_iot_sdk\uamqp\src/session.c ****     {
 350:Source\azure_iot_sdk\uamqp\src/session.c ****         result = session->link_endpoints[i];
 130              		.loc 1 350 0
 131 001e 4269     		ldr	r2, [r0, #20]
 132 0020 9B00     		lsls	r3, r3, #2
 133              	.LVL11:
 134 0022 D058     		ldr	r0, [r2, r3]
 135              	.LVL12:
 136 0024 00E0     		b	.L9
 137              	.LVL13:
 138              	.L10:
 346:Source\azure_iot_sdk\uamqp\src/session.c ****     }
 139              		.loc 1 346 0
 140 0026 0020     		movs	r0, #0
 141              	.LVL14:
 142              	.L9:
 351:Source\azure_iot_sdk\uamqp\src/session.c ****     }
 352:Source\azure_iot_sdk\uamqp\src/session.c **** 
 353:Source\azure_iot_sdk\uamqp\src/session.c ****     return result;
 354:Source\azure_iot_sdk\uamqp\src/session.c **** }
 143              		.loc 1 354 0
 144              		@ sp needed
 145 0028 30BD     		pop	{r4, r5, pc}
 146              		.cfi_endproc
 147              	.LFE8:
 148              		.size	find_link_endpoint_by_input_handle, .-find_link_endpoint_by_input_handle
 149 002a C046     		.section	.text.free_link_endpoint,"ax",%progbits
 150              		.align	2
 151              		.code	16
 152              		.thumb_func
 153              		.type	free_link_endpoint, %function
 154              	free_link_endpoint:
ARM GAS  C:\Users\Phuong\AppData\Local\Temp\ccX7yw2d.s 			page 10


 155              	.LFB1:
 106:Source\azure_iot_sdk\uamqp\src/session.c ****     if (link_endpoint->name != NULL)
 156              		.loc 1 106 0
 157              		.cfi_startproc
 158              		@ args = 0, pretend = 0, frame = 0
 159              		@ frame_needed = 0, uses_anonymous_args = 0
 160              	.LVL15:
 161 0000 10B5     		push	{r4, lr}
 162              		.cfi_def_cfa_offset 8
 163              		.cfi_offset 4, -8
 164              		.cfi_offset 14, -4
 165 0002 0400     		movs	r4, r0
 107:Source\azure_iot_sdk\uamqp\src/session.c ****     {
 166              		.loc 1 107 0
 167 0004 0068     		ldr	r0, [r0]
 168              	.LVL16:
 169 0006 0028     		cmp	r0, #0
 170 0008 01D0     		beq	.L12
 109:Source\azure_iot_sdk\uamqp\src/session.c ****     }
 171              		.loc 1 109 0
 172 000a FFF7FEFF 		bl	free
 173              	.LVL17:
 174              	.L12:
 112:Source\azure_iot_sdk\uamqp\src/session.c **** }
 175              		.loc 1 112 0
 176 000e 2000     		movs	r0, r4
 177 0010 FFF7FEFF 		bl	free
 178              	.LVL18:
 113:Source\azure_iot_sdk\uamqp\src/session.c **** 
 179              		.loc 1 113 0
 180              		@ sp needed
 181              	.LVL19:
 182 0014 10BD     		pop	{r4, pc}
 183              		.cfi_endproc
 184              	.LFE1:
 185              		.size	free_link_endpoint, .-free_link_endpoint
 186 0016 C046     		.section	.text.encode_frame,"ax",%progbits
 187              		.align	2
 188              		.code	16
 189              		.thumb_func
 190              		.type	encode_frame, %function
 191              	encode_frame:
 192              	.LFB25:
 355:Source\azure_iot_sdk\uamqp\src/session.c **** 
 356:Source\azure_iot_sdk\uamqp\src/session.c **** static void on_connection_state_changed(void* context, CONNECTION_STATE new_connection_state, CONNE
 357:Source\azure_iot_sdk\uamqp\src/session.c **** {
 358:Source\azure_iot_sdk\uamqp\src/session.c ****     SESSION_INSTANCE* session_instance = (SESSION_INSTANCE*)context;
 359:Source\azure_iot_sdk\uamqp\src/session.c **** 
 360:Source\azure_iot_sdk\uamqp\src/session.c ****     /* Codes_S_R_S_SESSION_01_060: [If the previous connection state is not OPENED and the new conn
 361:Source\azure_iot_sdk\uamqp\src/session.c ****     if ((new_connection_state == CONNECTION_STATE_OPENED) && (previous_connection_state != CONNECTI
 362:Source\azure_iot_sdk\uamqp\src/session.c ****     {
 363:Source\azure_iot_sdk\uamqp\src/session.c ****         if (send_begin(session_instance) == 0)
 364:Source\azure_iot_sdk\uamqp\src/session.c ****         {
 365:Source\azure_iot_sdk\uamqp\src/session.c ****             session_set_state(session_instance, SESSION_STATE_BEGIN_SENT);
 366:Source\azure_iot_sdk\uamqp\src/session.c ****         }
 367:Source\azure_iot_sdk\uamqp\src/session.c ****     }
 368:Source\azure_iot_sdk\uamqp\src/session.c ****     /* Codes_S_R_S_SESSION_01_061: [If the previous connection state is OPENED and the new connecti
ARM GAS  C:\Users\Phuong\AppData\Local\Temp\ccX7yw2d.s 			page 11


 369:Source\azure_iot_sdk\uamqp\src/session.c ****     else if ((new_connection_state == CONNECTION_STATE_CLOSE_RCVD) || (new_connection_state == CONN
 370:Source\azure_iot_sdk\uamqp\src/session.c ****     {
 371:Source\azure_iot_sdk\uamqp\src/session.c ****         session_set_state(session_instance, SESSION_STATE_DISCARDING);
 372:Source\azure_iot_sdk\uamqp\src/session.c ****     }
 373:Source\azure_iot_sdk\uamqp\src/session.c ****     /* Codes_S_R_S_SESSION_09_001: [If the new connection state is ERROR, the state shall be switch
 374:Source\azure_iot_sdk\uamqp\src/session.c ****     else if (new_connection_state == CONNECTION_STATE_ERROR)
 375:Source\azure_iot_sdk\uamqp\src/session.c ****     {
 376:Source\azure_iot_sdk\uamqp\src/session.c ****         session_set_state(session_instance, SESSION_STATE_ERROR);
 377:Source\azure_iot_sdk\uamqp\src/session.c ****     }
 378:Source\azure_iot_sdk\uamqp\src/session.c **** }
 379:Source\azure_iot_sdk\uamqp\src/session.c **** 
 380:Source\azure_iot_sdk\uamqp\src/session.c **** static void on_frame_received(void* context, AMQP_VALUE performative, uint32_t payload_size, const 
 381:Source\azure_iot_sdk\uamqp\src/session.c **** {
 382:Source\azure_iot_sdk\uamqp\src/session.c ****     SESSION_INSTANCE* session_instance = (SESSION_INSTANCE*)context;
 383:Source\azure_iot_sdk\uamqp\src/session.c ****     AMQP_VALUE descriptor = amqpvalue_get_inplace_descriptor(performative);
 384:Source\azure_iot_sdk\uamqp\src/session.c **** 
 385:Source\azure_iot_sdk\uamqp\src/session.c ****     if (is_begin_type_by_descriptor(descriptor))
 386:Source\azure_iot_sdk\uamqp\src/session.c ****     {
 387:Source\azure_iot_sdk\uamqp\src/session.c ****         BEGIN_HANDLE begin_handle;
 388:Source\azure_iot_sdk\uamqp\src/session.c **** 
 389:Source\azure_iot_sdk\uamqp\src/session.c ****         if (amqpvalue_get_begin(performative, &begin_handle) != 0)
 390:Source\azure_iot_sdk\uamqp\src/session.c ****         {
 391:Source\azure_iot_sdk\uamqp\src/session.c ****             connection_close(session_instance->connection, "amqp:decode-error", "Cannot decode BEGI
 392:Source\azure_iot_sdk\uamqp\src/session.c ****         }
 393:Source\azure_iot_sdk\uamqp\src/session.c ****         else
 394:Source\azure_iot_sdk\uamqp\src/session.c ****         {
 395:Source\azure_iot_sdk\uamqp\src/session.c ****             if ((begin_get_incoming_window(begin_handle, &session_instance->remote_incoming_window)
 396:Source\azure_iot_sdk\uamqp\src/session.c ****                 (begin_get_next_outgoing_id(begin_handle, &session_instance->next_incoming_id) != 0
 397:Source\azure_iot_sdk\uamqp\src/session.c ****             {
 398:Source\azure_iot_sdk\uamqp\src/session.c ****                 /* error */
 399:Source\azure_iot_sdk\uamqp\src/session.c ****                 begin_destroy(begin_handle);
 400:Source\azure_iot_sdk\uamqp\src/session.c ****                 session_set_state(session_instance, SESSION_STATE_DISCARDING);
 401:Source\azure_iot_sdk\uamqp\src/session.c ****                 connection_close(session_instance->connection, "amqp:decode-error", "Cannot get inc
 402:Source\azure_iot_sdk\uamqp\src/session.c ****             }
 403:Source\azure_iot_sdk\uamqp\src/session.c ****             else
 404:Source\azure_iot_sdk\uamqp\src/session.c ****             {
 405:Source\azure_iot_sdk\uamqp\src/session.c ****                 begin_destroy(begin_handle);
 406:Source\azure_iot_sdk\uamqp\src/session.c **** 
 407:Source\azure_iot_sdk\uamqp\src/session.c ****                 if (session_instance->session_state == SESSION_STATE_BEGIN_SENT)
 408:Source\azure_iot_sdk\uamqp\src/session.c ****                 {
 409:Source\azure_iot_sdk\uamqp\src/session.c ****                     session_set_state(session_instance, SESSION_STATE_MAPPED);
 410:Source\azure_iot_sdk\uamqp\src/session.c ****                 }
 411:Source\azure_iot_sdk\uamqp\src/session.c ****                 else if(session_instance->session_state == SESSION_STATE_UNMAPPED)
 412:Source\azure_iot_sdk\uamqp\src/session.c ****                 {
 413:Source\azure_iot_sdk\uamqp\src/session.c ****                     session_set_state(session_instance, SESSION_STATE_BEGIN_RCVD);
 414:Source\azure_iot_sdk\uamqp\src/session.c ****                     if (send_begin(session_instance) != 0)
 415:Source\azure_iot_sdk\uamqp\src/session.c ****                     {
 416:Source\azure_iot_sdk\uamqp\src/session.c ****                         connection_close(session_instance->connection, "amqp:internal-error", "Fail
 417:Source\azure_iot_sdk\uamqp\src/session.c ****                         session_set_state(session_instance, SESSION_STATE_DISCARDING);
 418:Source\azure_iot_sdk\uamqp\src/session.c ****                     }
 419:Source\azure_iot_sdk\uamqp\src/session.c ****                     else
 420:Source\azure_iot_sdk\uamqp\src/session.c ****                     {
 421:Source\azure_iot_sdk\uamqp\src/session.c ****                         session_set_state(session_instance, SESSION_STATE_MAPPED);
 422:Source\azure_iot_sdk\uamqp\src/session.c ****                     }
 423:Source\azure_iot_sdk\uamqp\src/session.c ****                 }
 424:Source\azure_iot_sdk\uamqp\src/session.c ****             }
 425:Source\azure_iot_sdk\uamqp\src/session.c ****         }
ARM GAS  C:\Users\Phuong\AppData\Local\Temp\ccX7yw2d.s 			page 12


 426:Source\azure_iot_sdk\uamqp\src/session.c ****     }
 427:Source\azure_iot_sdk\uamqp\src/session.c ****     else if (is_attach_type_by_descriptor(descriptor))
 428:Source\azure_iot_sdk\uamqp\src/session.c ****     {
 429:Source\azure_iot_sdk\uamqp\src/session.c ****         const char* name = NULL;
 430:Source\azure_iot_sdk\uamqp\src/session.c ****         ATTACH_HANDLE attach_handle;
 431:Source\azure_iot_sdk\uamqp\src/session.c **** 
 432:Source\azure_iot_sdk\uamqp\src/session.c ****         if (amqpvalue_get_attach(performative, &attach_handle) != 0)
 433:Source\azure_iot_sdk\uamqp\src/session.c ****         {
 434:Source\azure_iot_sdk\uamqp\src/session.c ****             end_session_with_error(session_instance, "amqp:decode-error", "Cannot decode ATTACH fra
 435:Source\azure_iot_sdk\uamqp\src/session.c ****         }
 436:Source\azure_iot_sdk\uamqp\src/session.c ****         else
 437:Source\azure_iot_sdk\uamqp\src/session.c ****         {
 438:Source\azure_iot_sdk\uamqp\src/session.c ****             role role;
 439:Source\azure_iot_sdk\uamqp\src/session.c ****             AMQP_VALUE source;
 440:Source\azure_iot_sdk\uamqp\src/session.c ****             AMQP_VALUE target;
 441:Source\azure_iot_sdk\uamqp\src/session.c **** 
 442:Source\azure_iot_sdk\uamqp\src/session.c ****             if (attach_get_name(attach_handle, &name) != 0)
 443:Source\azure_iot_sdk\uamqp\src/session.c ****             {
 444:Source\azure_iot_sdk\uamqp\src/session.c ****                 end_session_with_error(session_instance, "amqp:decode-error", "Cannot get link name
 445:Source\azure_iot_sdk\uamqp\src/session.c ****             }
 446:Source\azure_iot_sdk\uamqp\src/session.c ****             else if (attach_get_role(attach_handle, &role) != 0)
 447:Source\azure_iot_sdk\uamqp\src/session.c ****             {
 448:Source\azure_iot_sdk\uamqp\src/session.c ****                 end_session_with_error(session_instance, "amqp:decode-error", "Cannot get link role
 449:Source\azure_iot_sdk\uamqp\src/session.c ****             }
 450:Source\azure_iot_sdk\uamqp\src/session.c ****             else
 451:Source\azure_iot_sdk\uamqp\src/session.c ****             {
 452:Source\azure_iot_sdk\uamqp\src/session.c ****                 LINK_ENDPOINT_INSTANCE* link_endpoint;
 453:Source\azure_iot_sdk\uamqp\src/session.c **** 
 454:Source\azure_iot_sdk\uamqp\src/session.c ****                 if (attach_get_source(attach_handle, &source) != 0)
 455:Source\azure_iot_sdk\uamqp\src/session.c ****                 {
 456:Source\azure_iot_sdk\uamqp\src/session.c ****                     source = NULL;
 457:Source\azure_iot_sdk\uamqp\src/session.c ****                 }
 458:Source\azure_iot_sdk\uamqp\src/session.c ****                 if (attach_get_target(attach_handle, &target) != 0)
 459:Source\azure_iot_sdk\uamqp\src/session.c ****                 {
 460:Source\azure_iot_sdk\uamqp\src/session.c ****                     target = NULL;
 461:Source\azure_iot_sdk\uamqp\src/session.c ****                 }
 462:Source\azure_iot_sdk\uamqp\src/session.c **** 
 463:Source\azure_iot_sdk\uamqp\src/session.c ****                 link_endpoint = find_link_endpoint_by_name(session_instance, name);
 464:Source\azure_iot_sdk\uamqp\src/session.c ****                 if (link_endpoint == NULL)
 465:Source\azure_iot_sdk\uamqp\src/session.c ****                 {
 466:Source\azure_iot_sdk\uamqp\src/session.c ****                     /* new link attach */
 467:Source\azure_iot_sdk\uamqp\src/session.c ****                     if (session_instance->on_link_attached != NULL)
 468:Source\azure_iot_sdk\uamqp\src/session.c ****                     {
 469:Source\azure_iot_sdk\uamqp\src/session.c ****                         LINK_ENDPOINT_HANDLE new_link_endpoint = session_create_link_endpoint(sessi
 470:Source\azure_iot_sdk\uamqp\src/session.c ****                         if (new_link_endpoint == NULL)
 471:Source\azure_iot_sdk\uamqp\src/session.c ****                         {
 472:Source\azure_iot_sdk\uamqp\src/session.c ****                             end_session_with_error(session_instance, "amqp:internal-error", "Cannot
 473:Source\azure_iot_sdk\uamqp\src/session.c ****                         }
 474:Source\azure_iot_sdk\uamqp\src/session.c ****                         else if (attach_get_handle(attach_handle, &new_link_endpoint->input_handle)
 475:Source\azure_iot_sdk\uamqp\src/session.c ****                         {
 476:Source\azure_iot_sdk\uamqp\src/session.c ****                             end_session_with_error(session_instance, "amqp:decode-error", "Cannot g
 477:Source\azure_iot_sdk\uamqp\src/session.c ****                         }
 478:Source\azure_iot_sdk\uamqp\src/session.c ****                         else
 479:Source\azure_iot_sdk\uamqp\src/session.c ****                         {
 480:Source\azure_iot_sdk\uamqp\src/session.c ****                             new_link_endpoint->link_endpoint_state = LINK_ENDPOINT_STATE_ATTACHED;
 481:Source\azure_iot_sdk\uamqp\src/session.c **** 
 482:Source\azure_iot_sdk\uamqp\src/session.c ****                             if (!session_instance->on_link_attached(session_instance->on_link_attac
ARM GAS  C:\Users\Phuong\AppData\Local\Temp\ccX7yw2d.s 			page 13


 483:Source\azure_iot_sdk\uamqp\src/session.c ****                             {
 484:Source\azure_iot_sdk\uamqp\src/session.c ****                                 remove_link_endpoint(new_link_endpoint);
 485:Source\azure_iot_sdk\uamqp\src/session.c ****                                 free_link_endpoint(new_link_endpoint);
 486:Source\azure_iot_sdk\uamqp\src/session.c ****                                 new_link_endpoint = NULL;
 487:Source\azure_iot_sdk\uamqp\src/session.c ****                             }
 488:Source\azure_iot_sdk\uamqp\src/session.c ****                             else
 489:Source\azure_iot_sdk\uamqp\src/session.c ****                             {
 490:Source\azure_iot_sdk\uamqp\src/session.c ****                                 if (new_link_endpoint->frame_received_callback != NULL)
 491:Source\azure_iot_sdk\uamqp\src/session.c ****                                 {
 492:Source\azure_iot_sdk\uamqp\src/session.c ****                                     new_link_endpoint->frame_received_callback(new_link_endpoint->c
 493:Source\azure_iot_sdk\uamqp\src/session.c ****                                 }
 494:Source\azure_iot_sdk\uamqp\src/session.c ****                             }
 495:Source\azure_iot_sdk\uamqp\src/session.c ****                         }
 496:Source\azure_iot_sdk\uamqp\src/session.c ****                     }
 497:Source\azure_iot_sdk\uamqp\src/session.c ****                 }
 498:Source\azure_iot_sdk\uamqp\src/session.c ****                 else
 499:Source\azure_iot_sdk\uamqp\src/session.c ****                 {
 500:Source\azure_iot_sdk\uamqp\src/session.c ****                     if (attach_get_handle(attach_handle, &link_endpoint->input_handle) != 0)
 501:Source\azure_iot_sdk\uamqp\src/session.c ****                     {
 502:Source\azure_iot_sdk\uamqp\src/session.c ****                         end_session_with_error(session_instance, "amqp:decode-error", "Cannot get i
 503:Source\azure_iot_sdk\uamqp\src/session.c ****                     }
 504:Source\azure_iot_sdk\uamqp\src/session.c ****                     else
 505:Source\azure_iot_sdk\uamqp\src/session.c ****                     {
 506:Source\azure_iot_sdk\uamqp\src/session.c ****                         link_endpoint->link_endpoint_state = LINK_ENDPOINT_STATE_ATTACHED;
 507:Source\azure_iot_sdk\uamqp\src/session.c **** 
 508:Source\azure_iot_sdk\uamqp\src/session.c ****                         link_endpoint->frame_received_callback(link_endpoint->callback_context, per
 509:Source\azure_iot_sdk\uamqp\src/session.c ****                     }
 510:Source\azure_iot_sdk\uamqp\src/session.c ****                 }
 511:Source\azure_iot_sdk\uamqp\src/session.c ****             }
 512:Source\azure_iot_sdk\uamqp\src/session.c **** 
 513:Source\azure_iot_sdk\uamqp\src/session.c ****             attach_destroy(attach_handle);
 514:Source\azure_iot_sdk\uamqp\src/session.c ****         }
 515:Source\azure_iot_sdk\uamqp\src/session.c ****     }
 516:Source\azure_iot_sdk\uamqp\src/session.c ****     else if (is_detach_type_by_descriptor(descriptor))
 517:Source\azure_iot_sdk\uamqp\src/session.c ****     {
 518:Source\azure_iot_sdk\uamqp\src/session.c ****         DETACH_HANDLE detach_handle;
 519:Source\azure_iot_sdk\uamqp\src/session.c **** 
 520:Source\azure_iot_sdk\uamqp\src/session.c ****         if (amqpvalue_get_detach(performative, &detach_handle) != 0)
 521:Source\azure_iot_sdk\uamqp\src/session.c ****         {
 522:Source\azure_iot_sdk\uamqp\src/session.c ****             end_session_with_error(session_instance, "amqp:decode-error", "Cannot decode DETACH fra
 523:Source\azure_iot_sdk\uamqp\src/session.c ****         }
 524:Source\azure_iot_sdk\uamqp\src/session.c ****         else
 525:Source\azure_iot_sdk\uamqp\src/session.c ****         {
 526:Source\azure_iot_sdk\uamqp\src/session.c ****             uint32_t remote_handle;
 527:Source\azure_iot_sdk\uamqp\src/session.c ****             if (detach_get_handle(detach_handle, &remote_handle) != 0)
 528:Source\azure_iot_sdk\uamqp\src/session.c ****             {
 529:Source\azure_iot_sdk\uamqp\src/session.c ****                 end_session_with_error(session_instance, "amqp:decode-error", "Cannot get handle fr
 530:Source\azure_iot_sdk\uamqp\src/session.c **** 
 531:Source\azure_iot_sdk\uamqp\src/session.c ****                 detach_destroy(detach_handle);
 532:Source\azure_iot_sdk\uamqp\src/session.c ****             }
 533:Source\azure_iot_sdk\uamqp\src/session.c ****             else
 534:Source\azure_iot_sdk\uamqp\src/session.c ****             {
 535:Source\azure_iot_sdk\uamqp\src/session.c ****                 LINK_ENDPOINT_INSTANCE* link_endpoint;
 536:Source\azure_iot_sdk\uamqp\src/session.c ****                 detach_destroy(detach_handle);
 537:Source\azure_iot_sdk\uamqp\src/session.c **** 
 538:Source\azure_iot_sdk\uamqp\src/session.c ****                 link_endpoint = find_link_endpoint_by_input_handle(session_instance, remote_handle)
 539:Source\azure_iot_sdk\uamqp\src/session.c ****                 if (link_endpoint == NULL)
ARM GAS  C:\Users\Phuong\AppData\Local\Temp\ccX7yw2d.s 			page 14


 540:Source\azure_iot_sdk\uamqp\src/session.c ****                 {
 541:Source\azure_iot_sdk\uamqp\src/session.c ****                     end_session_with_error(session_instance, "amqp:session:unattached-handle", "");
 542:Source\azure_iot_sdk\uamqp\src/session.c ****                 }
 543:Source\azure_iot_sdk\uamqp\src/session.c ****                 else
 544:Source\azure_iot_sdk\uamqp\src/session.c ****                 {
 545:Source\azure_iot_sdk\uamqp\src/session.c ****                     if (link_endpoint->link_endpoint_state != LINK_ENDPOINT_STATE_DETACHING)
 546:Source\azure_iot_sdk\uamqp\src/session.c ****                     {
 547:Source\azure_iot_sdk\uamqp\src/session.c ****                         link_endpoint->link_endpoint_state = LINK_ENDPOINT_STATE_DETACHING;
 548:Source\azure_iot_sdk\uamqp\src/session.c ****                         link_endpoint->frame_received_callback(link_endpoint->callback_context, per
 549:Source\azure_iot_sdk\uamqp\src/session.c ****                     }
 550:Source\azure_iot_sdk\uamqp\src/session.c ****                     else
 551:Source\azure_iot_sdk\uamqp\src/session.c ****                     {
 552:Source\azure_iot_sdk\uamqp\src/session.c ****                         /* remove the link endpoint */
 553:Source\azure_iot_sdk\uamqp\src/session.c ****                         remove_link_endpoint(link_endpoint);
 554:Source\azure_iot_sdk\uamqp\src/session.c ****                         free_link_endpoint(link_endpoint);
 555:Source\azure_iot_sdk\uamqp\src/session.c ****                     }
 556:Source\azure_iot_sdk\uamqp\src/session.c ****                 }
 557:Source\azure_iot_sdk\uamqp\src/session.c ****             }
 558:Source\azure_iot_sdk\uamqp\src/session.c ****         }
 559:Source\azure_iot_sdk\uamqp\src/session.c ****     }
 560:Source\azure_iot_sdk\uamqp\src/session.c ****     else if (is_flow_type_by_descriptor(descriptor))
 561:Source\azure_iot_sdk\uamqp\src/session.c ****     {
 562:Source\azure_iot_sdk\uamqp\src/session.c ****         FLOW_HANDLE flow_handle;
 563:Source\azure_iot_sdk\uamqp\src/session.c **** 
 564:Source\azure_iot_sdk\uamqp\src/session.c ****         if (amqpvalue_get_flow(performative, &flow_handle) != 0)
 565:Source\azure_iot_sdk\uamqp\src/session.c ****         {
 566:Source\azure_iot_sdk\uamqp\src/session.c ****             end_session_with_error(session_instance, "amqp:decode-error", "Cannot decode FLOW frame
 567:Source\azure_iot_sdk\uamqp\src/session.c ****         }
 568:Source\azure_iot_sdk\uamqp\src/session.c ****         else
 569:Source\azure_iot_sdk\uamqp\src/session.c ****         {
 570:Source\azure_iot_sdk\uamqp\src/session.c ****             uint32_t remote_handle;
 571:Source\azure_iot_sdk\uamqp\src/session.c ****             transfer_number flow_next_incoming_id;
 572:Source\azure_iot_sdk\uamqp\src/session.c ****             uint32_t flow_incoming_window;
 573:Source\azure_iot_sdk\uamqp\src/session.c **** 
 574:Source\azure_iot_sdk\uamqp\src/session.c ****             if (flow_get_next_incoming_id(flow_handle, &flow_next_incoming_id) != 0)
 575:Source\azure_iot_sdk\uamqp\src/session.c ****             {
 576:Source\azure_iot_sdk\uamqp\src/session.c ****                 /*
 577:Source\azure_iot_sdk\uamqp\src/session.c ****                 If the next-incoming-id field of the flow frame is not set,
 578:Source\azure_iot_sdk\uamqp\src/session.c ****                 then remote-incomingwindow is computed as follows:
 579:Source\azure_iot_sdk\uamqp\src/session.c ****                 initial-outgoing-id(endpoint) + incoming-window(flow) - next-outgoing-id(endpoint)
 580:Source\azure_iot_sdk\uamqp\src/session.c ****                 */
 581:Source\azure_iot_sdk\uamqp\src/session.c ****                 flow_next_incoming_id = session_instance->next_outgoing_id;
 582:Source\azure_iot_sdk\uamqp\src/session.c ****             }
 583:Source\azure_iot_sdk\uamqp\src/session.c **** 
 584:Source\azure_iot_sdk\uamqp\src/session.c ****             if ((flow_get_next_outgoing_id(flow_handle, &session_instance->next_incoming_id) != 0) 
 585:Source\azure_iot_sdk\uamqp\src/session.c ****                 (flow_get_incoming_window(flow_handle, &flow_incoming_window) != 0))
 586:Source\azure_iot_sdk\uamqp\src/session.c ****             {
 587:Source\azure_iot_sdk\uamqp\src/session.c ****                 flow_destroy(flow_handle);
 588:Source\azure_iot_sdk\uamqp\src/session.c **** 
 589:Source\azure_iot_sdk\uamqp\src/session.c ****                 end_session_with_error(session_instance, "amqp:decode-error", "Cannot decode FLOW f
 590:Source\azure_iot_sdk\uamqp\src/session.c ****             }
 591:Source\azure_iot_sdk\uamqp\src/session.c ****             else
 592:Source\azure_iot_sdk\uamqp\src/session.c ****             {
 593:Source\azure_iot_sdk\uamqp\src/session.c ****                 LINK_ENDPOINT_INSTANCE* link_endpoint_instance = NULL;
 594:Source\azure_iot_sdk\uamqp\src/session.c ****                 size_t i;
 595:Source\azure_iot_sdk\uamqp\src/session.c **** 
 596:Source\azure_iot_sdk\uamqp\src/session.c ****                 session_instance->remote_incoming_window = flow_next_incoming_id + flow_incoming_wi
ARM GAS  C:\Users\Phuong\AppData\Local\Temp\ccX7yw2d.s 			page 15


 597:Source\azure_iot_sdk\uamqp\src/session.c **** 
 598:Source\azure_iot_sdk\uamqp\src/session.c ****                 if (flow_get_handle(flow_handle, &remote_handle) == 0)
 599:Source\azure_iot_sdk\uamqp\src/session.c ****                 {
 600:Source\azure_iot_sdk\uamqp\src/session.c ****                     link_endpoint_instance = find_link_endpoint_by_input_handle(session_instance, r
 601:Source\azure_iot_sdk\uamqp\src/session.c ****                 }
 602:Source\azure_iot_sdk\uamqp\src/session.c **** 
 603:Source\azure_iot_sdk\uamqp\src/session.c ****                 flow_destroy(flow_handle);
 604:Source\azure_iot_sdk\uamqp\src/session.c **** 
 605:Source\azure_iot_sdk\uamqp\src/session.c ****                 if (link_endpoint_instance != NULL)
 606:Source\azure_iot_sdk\uamqp\src/session.c ****                 {
 607:Source\azure_iot_sdk\uamqp\src/session.c ****                     if (link_endpoint_instance->link_endpoint_state != LINK_ENDPOINT_STATE_DETACHIN
 608:Source\azure_iot_sdk\uamqp\src/session.c ****                     {
 609:Source\azure_iot_sdk\uamqp\src/session.c ****                         link_endpoint_instance->frame_received_callback(link_endpoint_instance->cal
 610:Source\azure_iot_sdk\uamqp\src/session.c ****                     }
 611:Source\azure_iot_sdk\uamqp\src/session.c ****                 }
 612:Source\azure_iot_sdk\uamqp\src/session.c **** 
 613:Source\azure_iot_sdk\uamqp\src/session.c ****                 i = 0;
 614:Source\azure_iot_sdk\uamqp\src/session.c ****                 while ((session_instance->remote_incoming_window > 0) && (i < session_instance->lin
 615:Source\azure_iot_sdk\uamqp\src/session.c ****                 {
 616:Source\azure_iot_sdk\uamqp\src/session.c ****                     /* notify the caller that it can send here */
 617:Source\azure_iot_sdk\uamqp\src/session.c ****                     if (session_instance->link_endpoints[i]->on_session_flow_on != NULL)
 618:Source\azure_iot_sdk\uamqp\src/session.c ****                     {
 619:Source\azure_iot_sdk\uamqp\src/session.c ****                         session_instance->link_endpoints[i]->on_session_flow_on(session_instance->l
 620:Source\azure_iot_sdk\uamqp\src/session.c ****                     }
 621:Source\azure_iot_sdk\uamqp\src/session.c **** 
 622:Source\azure_iot_sdk\uamqp\src/session.c ****                     i++;
 623:Source\azure_iot_sdk\uamqp\src/session.c ****                 }
 624:Source\azure_iot_sdk\uamqp\src/session.c ****             }
 625:Source\azure_iot_sdk\uamqp\src/session.c ****         }
 626:Source\azure_iot_sdk\uamqp\src/session.c ****     }
 627:Source\azure_iot_sdk\uamqp\src/session.c ****     else if (is_transfer_type_by_descriptor(descriptor))
 628:Source\azure_iot_sdk\uamqp\src/session.c ****     {
 629:Source\azure_iot_sdk\uamqp\src/session.c ****         TRANSFER_HANDLE transfer_handle;
 630:Source\azure_iot_sdk\uamqp\src/session.c **** 
 631:Source\azure_iot_sdk\uamqp\src/session.c ****         if (amqpvalue_get_transfer(performative, &transfer_handle) != 0)
 632:Source\azure_iot_sdk\uamqp\src/session.c ****         {
 633:Source\azure_iot_sdk\uamqp\src/session.c ****             end_session_with_error(session_instance, "amqp:decode-error", "Cannot decode TRANSFER f
 634:Source\azure_iot_sdk\uamqp\src/session.c ****         }
 635:Source\azure_iot_sdk\uamqp\src/session.c ****         else
 636:Source\azure_iot_sdk\uamqp\src/session.c ****         {
 637:Source\azure_iot_sdk\uamqp\src/session.c ****             uint32_t remote_handle;
 638:Source\azure_iot_sdk\uamqp\src/session.c ****             delivery_number delivery_id;
 639:Source\azure_iot_sdk\uamqp\src/session.c **** 
 640:Source\azure_iot_sdk\uamqp\src/session.c ****             transfer_get_delivery_id(transfer_handle, &delivery_id);
 641:Source\azure_iot_sdk\uamqp\src/session.c ****             if (transfer_get_handle(transfer_handle, &remote_handle) != 0)
 642:Source\azure_iot_sdk\uamqp\src/session.c ****             {
 643:Source\azure_iot_sdk\uamqp\src/session.c ****                 transfer_destroy(transfer_handle);
 644:Source\azure_iot_sdk\uamqp\src/session.c ****                 end_session_with_error(session_instance, "amqp:decode-error", "Cannot get handle fr
 645:Source\azure_iot_sdk\uamqp\src/session.c ****             }
 646:Source\azure_iot_sdk\uamqp\src/session.c ****             else
 647:Source\azure_iot_sdk\uamqp\src/session.c ****             {
 648:Source\azure_iot_sdk\uamqp\src/session.c ****                 LINK_ENDPOINT_INSTANCE* link_endpoint;
 649:Source\azure_iot_sdk\uamqp\src/session.c ****                 transfer_destroy(transfer_handle);
 650:Source\azure_iot_sdk\uamqp\src/session.c **** 
 651:Source\azure_iot_sdk\uamqp\src/session.c ****                 session_instance->next_incoming_id++;
 652:Source\azure_iot_sdk\uamqp\src/session.c ****                 session_instance->remote_outgoing_window--;
 653:Source\azure_iot_sdk\uamqp\src/session.c ****                 session_instance->incoming_window--;
ARM GAS  C:\Users\Phuong\AppData\Local\Temp\ccX7yw2d.s 			page 16


 654:Source\azure_iot_sdk\uamqp\src/session.c **** 
 655:Source\azure_iot_sdk\uamqp\src/session.c ****                 link_endpoint = find_link_endpoint_by_input_handle(session_instance, remote_handle)
 656:Source\azure_iot_sdk\uamqp\src/session.c ****                 if (link_endpoint == NULL)
 657:Source\azure_iot_sdk\uamqp\src/session.c ****                 {
 658:Source\azure_iot_sdk\uamqp\src/session.c ****                     end_session_with_error(session_instance, "amqp:session:unattached-handle", "");
 659:Source\azure_iot_sdk\uamqp\src/session.c ****                 }
 660:Source\azure_iot_sdk\uamqp\src/session.c ****                 else
 661:Source\azure_iot_sdk\uamqp\src/session.c ****                 {
 662:Source\azure_iot_sdk\uamqp\src/session.c ****                     if (link_endpoint->link_endpoint_state != LINK_ENDPOINT_STATE_DETACHING)
 663:Source\azure_iot_sdk\uamqp\src/session.c ****                     {
 664:Source\azure_iot_sdk\uamqp\src/session.c ****                         link_endpoint->frame_received_callback(link_endpoint->callback_context, per
 665:Source\azure_iot_sdk\uamqp\src/session.c ****                     }
 666:Source\azure_iot_sdk\uamqp\src/session.c ****                 }
 667:Source\azure_iot_sdk\uamqp\src/session.c **** 
 668:Source\azure_iot_sdk\uamqp\src/session.c ****                 if (session_instance->incoming_window == 0)
 669:Source\azure_iot_sdk\uamqp\src/session.c ****                 {
 670:Source\azure_iot_sdk\uamqp\src/session.c ****                     session_instance->incoming_window = session_instance->desired_incoming_window;
 671:Source\azure_iot_sdk\uamqp\src/session.c ****                     send_flow(session_instance);
 672:Source\azure_iot_sdk\uamqp\src/session.c ****                 }
 673:Source\azure_iot_sdk\uamqp\src/session.c ****             }
 674:Source\azure_iot_sdk\uamqp\src/session.c ****         }
 675:Source\azure_iot_sdk\uamqp\src/session.c ****     }
 676:Source\azure_iot_sdk\uamqp\src/session.c ****     else if (is_disposition_type_by_descriptor(descriptor))
 677:Source\azure_iot_sdk\uamqp\src/session.c ****     {
 678:Source\azure_iot_sdk\uamqp\src/session.c ****         uint32_t i;
 679:Source\azure_iot_sdk\uamqp\src/session.c **** 
 680:Source\azure_iot_sdk\uamqp\src/session.c ****         for (i = 0; i < session_instance->link_endpoint_count; i++)
 681:Source\azure_iot_sdk\uamqp\src/session.c ****         {
 682:Source\azure_iot_sdk\uamqp\src/session.c ****             LINK_ENDPOINT_INSTANCE* link_endpoint = session_instance->link_endpoints[i];
 683:Source\azure_iot_sdk\uamqp\src/session.c ****             if (link_endpoint->link_endpoint_state != LINK_ENDPOINT_STATE_DETACHING)
 684:Source\azure_iot_sdk\uamqp\src/session.c ****             {
 685:Source\azure_iot_sdk\uamqp\src/session.c ****                 link_endpoint->frame_received_callback(link_endpoint->callback_context, performativ
 686:Source\azure_iot_sdk\uamqp\src/session.c ****             }
 687:Source\azure_iot_sdk\uamqp\src/session.c ****         }
 688:Source\azure_iot_sdk\uamqp\src/session.c ****     }
 689:Source\azure_iot_sdk\uamqp\src/session.c ****     else if (is_end_type_by_descriptor(descriptor))
 690:Source\azure_iot_sdk\uamqp\src/session.c ****     {
 691:Source\azure_iot_sdk\uamqp\src/session.c ****         END_HANDLE end_handle;
 692:Source\azure_iot_sdk\uamqp\src/session.c **** 
 693:Source\azure_iot_sdk\uamqp\src/session.c ****         if (amqpvalue_get_end(performative, &end_handle) != 0)
 694:Source\azure_iot_sdk\uamqp\src/session.c ****         {
 695:Source\azure_iot_sdk\uamqp\src/session.c ****             end_session_with_error(session_instance, "amqp:decode-error", "Cannot decode END frame"
 696:Source\azure_iot_sdk\uamqp\src/session.c ****         }
 697:Source\azure_iot_sdk\uamqp\src/session.c ****         else
 698:Source\azure_iot_sdk\uamqp\src/session.c ****         {
 699:Source\azure_iot_sdk\uamqp\src/session.c ****             end_destroy(end_handle);
 700:Source\azure_iot_sdk\uamqp\src/session.c ****             if ((session_instance->session_state != SESSION_STATE_END_RCVD) &&
 701:Source\azure_iot_sdk\uamqp\src/session.c ****                 (session_instance->session_state != SESSION_STATE_DISCARDING))
 702:Source\azure_iot_sdk\uamqp\src/session.c ****             {
 703:Source\azure_iot_sdk\uamqp\src/session.c ****                 session_set_state(session_instance, SESSION_STATE_END_RCVD);
 704:Source\azure_iot_sdk\uamqp\src/session.c ****                 if (send_end_frame(session_instance, NULL) != 0)
 705:Source\azure_iot_sdk\uamqp\src/session.c ****                 {
 706:Source\azure_iot_sdk\uamqp\src/session.c ****                     /* fatal error */
 707:Source\azure_iot_sdk\uamqp\src/session.c ****                     (void)connection_close(session_instance->connection, "amqp:internal-error", "Ca
 708:Source\azure_iot_sdk\uamqp\src/session.c ****                 }
 709:Source\azure_iot_sdk\uamqp\src/session.c **** 
 710:Source\azure_iot_sdk\uamqp\src/session.c ****                 session_set_state(session_instance, SESSION_STATE_DISCARDING);
ARM GAS  C:\Users\Phuong\AppData\Local\Temp\ccX7yw2d.s 			page 17


 711:Source\azure_iot_sdk\uamqp\src/session.c ****             }
 712:Source\azure_iot_sdk\uamqp\src/session.c ****         }
 713:Source\azure_iot_sdk\uamqp\src/session.c ****     }
 714:Source\azure_iot_sdk\uamqp\src/session.c **** }
 715:Source\azure_iot_sdk\uamqp\src/session.c **** 
 716:Source\azure_iot_sdk\uamqp\src/session.c **** SESSION_HANDLE session_create(CONNECTION_HANDLE connection, ON_LINK_ATTACHED on_link_attached, void
 717:Source\azure_iot_sdk\uamqp\src/session.c **** {
 718:Source\azure_iot_sdk\uamqp\src/session.c ****     SESSION_INSTANCE* result;
 719:Source\azure_iot_sdk\uamqp\src/session.c **** 
 720:Source\azure_iot_sdk\uamqp\src/session.c ****     if (connection == NULL)
 721:Source\azure_iot_sdk\uamqp\src/session.c ****     {
 722:Source\azure_iot_sdk\uamqp\src/session.c ****         /* Codes_S_R_S_SESSION_01_031: [If connection is NULL, session_create shall fail and return
 723:Source\azure_iot_sdk\uamqp\src/session.c ****         result = NULL;
 724:Source\azure_iot_sdk\uamqp\src/session.c ****     }
 725:Source\azure_iot_sdk\uamqp\src/session.c ****     else
 726:Source\azure_iot_sdk\uamqp\src/session.c ****     {
 727:Source\azure_iot_sdk\uamqp\src/session.c ****         /* Codes_S_R_S_SESSION_01_030: [session_create shall create a new session instance and retu
 728:Source\azure_iot_sdk\uamqp\src/session.c ****         result = (SESSION_INSTANCE*)malloc(sizeof(SESSION_INSTANCE));
 729:Source\azure_iot_sdk\uamqp\src/session.c ****         /* Codes_S_R_S_SESSION_01_042: [If allocating memory for the session fails, session_create 
 730:Source\azure_iot_sdk\uamqp\src/session.c ****         if (result != NULL)
 731:Source\azure_iot_sdk\uamqp\src/session.c ****         {
 732:Source\azure_iot_sdk\uamqp\src/session.c ****             result->connection = connection;
 733:Source\azure_iot_sdk\uamqp\src/session.c ****             result->link_endpoints = NULL;
 734:Source\azure_iot_sdk\uamqp\src/session.c ****             result->link_endpoint_count = 0;
 735:Source\azure_iot_sdk\uamqp\src/session.c ****             result->handle_max = 4294967295u;
 736:Source\azure_iot_sdk\uamqp\src/session.c **** 
 737:Source\azure_iot_sdk\uamqp\src/session.c ****             /* Codes_S_R_S_SESSION_01_057: [The delivery ids shall be assigned starting at 0.] */
 738:Source\azure_iot_sdk\uamqp\src/session.c ****             /* Codes_S_R_S_SESSION_01_017: [The nextoutgoing-id MAY be initialized to an arbitrary 
 739:Source\azure_iot_sdk\uamqp\src/session.c ****             result->next_outgoing_id = 0;
 740:Source\azure_iot_sdk\uamqp\src/session.c **** 
 741:Source\azure_iot_sdk\uamqp\src/session.c ****             result->desired_incoming_window = 1;
 742:Source\azure_iot_sdk\uamqp\src/session.c ****             result->incoming_window = 1;
 743:Source\azure_iot_sdk\uamqp\src/session.c ****             result->outgoing_window = 1;
 744:Source\azure_iot_sdk\uamqp\src/session.c ****             result->handle_max = 4294967295u;
 745:Source\azure_iot_sdk\uamqp\src/session.c ****             result->remote_incoming_window = 0;
 746:Source\azure_iot_sdk\uamqp\src/session.c ****             result->remote_outgoing_window = 0;
 747:Source\azure_iot_sdk\uamqp\src/session.c ****             result->previous_session_state = SESSION_STATE_UNMAPPED;
 748:Source\azure_iot_sdk\uamqp\src/session.c ****             result->is_underlying_connection_open = UNDERLYING_CONNECTION_NOT_OPEN;
 749:Source\azure_iot_sdk\uamqp\src/session.c ****             result->session_state = SESSION_STATE_UNMAPPED;
 750:Source\azure_iot_sdk\uamqp\src/session.c ****             result->on_link_attached = on_link_attached;
 751:Source\azure_iot_sdk\uamqp\src/session.c ****             result->on_link_attached_callback_context = callback_context;
 752:Source\azure_iot_sdk\uamqp\src/session.c **** 
 753:Source\azure_iot_sdk\uamqp\src/session.c ****             /* Codes_S_R_S_SESSION_01_032: [session_create shall create a new session endpoint by c
 754:Source\azure_iot_sdk\uamqp\src/session.c ****             result->endpoint = connection_create_endpoint(connection);
 755:Source\azure_iot_sdk\uamqp\src/session.c ****             if (result->endpoint == NULL)
 756:Source\azure_iot_sdk\uamqp\src/session.c ****             {
 757:Source\azure_iot_sdk\uamqp\src/session.c ****                 /* Codes_S_R_S_SESSION_01_033: [If connection_create_endpoint fails, session_create
 758:Source\azure_iot_sdk\uamqp\src/session.c ****                 free(result);
 759:Source\azure_iot_sdk\uamqp\src/session.c ****                 result = NULL;
 760:Source\azure_iot_sdk\uamqp\src/session.c ****             }
 761:Source\azure_iot_sdk\uamqp\src/session.c ****             else
 762:Source\azure_iot_sdk\uamqp\src/session.c ****             {
 763:Source\azure_iot_sdk\uamqp\src/session.c ****                 session_set_state(result, SESSION_STATE_UNMAPPED);
 764:Source\azure_iot_sdk\uamqp\src/session.c ****             }
 765:Source\azure_iot_sdk\uamqp\src/session.c ****         }
 766:Source\azure_iot_sdk\uamqp\src/session.c ****     }
 767:Source\azure_iot_sdk\uamqp\src/session.c **** 
ARM GAS  C:\Users\Phuong\AppData\Local\Temp\ccX7yw2d.s 			page 18


 768:Source\azure_iot_sdk\uamqp\src/session.c ****     return result;
 769:Source\azure_iot_sdk\uamqp\src/session.c **** }
 770:Source\azure_iot_sdk\uamqp\src/session.c **** 
 771:Source\azure_iot_sdk\uamqp\src/session.c **** SESSION_HANDLE session_create_from_endpoint(CONNECTION_HANDLE connection, ENDPOINT_HANDLE endpoint,
 772:Source\azure_iot_sdk\uamqp\src/session.c **** {
 773:Source\azure_iot_sdk\uamqp\src/session.c ****     SESSION_INSTANCE* result;
 774:Source\azure_iot_sdk\uamqp\src/session.c **** 
 775:Source\azure_iot_sdk\uamqp\src/session.c ****     if (endpoint == NULL)
 776:Source\azure_iot_sdk\uamqp\src/session.c ****     {
 777:Source\azure_iot_sdk\uamqp\src/session.c ****         result = NULL;
 778:Source\azure_iot_sdk\uamqp\src/session.c ****     }
 779:Source\azure_iot_sdk\uamqp\src/session.c ****     else
 780:Source\azure_iot_sdk\uamqp\src/session.c ****     {
 781:Source\azure_iot_sdk\uamqp\src/session.c ****         result = (SESSION_INSTANCE*)malloc(sizeof(SESSION_INSTANCE));
 782:Source\azure_iot_sdk\uamqp\src/session.c ****         if (result != NULL)
 783:Source\azure_iot_sdk\uamqp\src/session.c ****         {
 784:Source\azure_iot_sdk\uamqp\src/session.c ****             result->connection = connection;
 785:Source\azure_iot_sdk\uamqp\src/session.c ****             result->link_endpoints = NULL;
 786:Source\azure_iot_sdk\uamqp\src/session.c ****             result->link_endpoint_count = 0;
 787:Source\azure_iot_sdk\uamqp\src/session.c ****             result->handle_max = 4294967295u;
 788:Source\azure_iot_sdk\uamqp\src/session.c **** 
 789:Source\azure_iot_sdk\uamqp\src/session.c ****             result->next_outgoing_id = 0;
 790:Source\azure_iot_sdk\uamqp\src/session.c **** 
 791:Source\azure_iot_sdk\uamqp\src/session.c ****             result->desired_incoming_window = 1;
 792:Source\azure_iot_sdk\uamqp\src/session.c ****             result->incoming_window = 1;
 793:Source\azure_iot_sdk\uamqp\src/session.c ****             result->outgoing_window = 1;
 794:Source\azure_iot_sdk\uamqp\src/session.c ****             result->handle_max = 4294967295u;
 795:Source\azure_iot_sdk\uamqp\src/session.c ****             result->remote_incoming_window = 0;
 796:Source\azure_iot_sdk\uamqp\src/session.c ****             result->remote_outgoing_window = 0;
 797:Source\azure_iot_sdk\uamqp\src/session.c ****             result->previous_session_state = SESSION_STATE_UNMAPPED;
 798:Source\azure_iot_sdk\uamqp\src/session.c ****             result->is_underlying_connection_open = UNDERLYING_CONNECTION_NOT_OPEN;
 799:Source\azure_iot_sdk\uamqp\src/session.c ****             result->session_state = SESSION_STATE_UNMAPPED;
 800:Source\azure_iot_sdk\uamqp\src/session.c ****             result->on_link_attached = on_link_attached;
 801:Source\azure_iot_sdk\uamqp\src/session.c ****             result->on_link_attached_callback_context = callback_context;
 802:Source\azure_iot_sdk\uamqp\src/session.c **** 
 803:Source\azure_iot_sdk\uamqp\src/session.c ****             result->endpoint = endpoint;
 804:Source\azure_iot_sdk\uamqp\src/session.c ****             session_set_state(result, SESSION_STATE_UNMAPPED);
 805:Source\azure_iot_sdk\uamqp\src/session.c ****         }
 806:Source\azure_iot_sdk\uamqp\src/session.c ****     }
 807:Source\azure_iot_sdk\uamqp\src/session.c **** 
 808:Source\azure_iot_sdk\uamqp\src/session.c ****     return result;
 809:Source\azure_iot_sdk\uamqp\src/session.c **** }
 810:Source\azure_iot_sdk\uamqp\src/session.c **** 
 811:Source\azure_iot_sdk\uamqp\src/session.c **** void session_destroy(SESSION_HANDLE session)
 812:Source\azure_iot_sdk\uamqp\src/session.c **** {
 813:Source\azure_iot_sdk\uamqp\src/session.c ****     /* Codes_S_R_S_SESSION_01_036: [If session is NULL, session_destroy shall do nothing.] */
 814:Source\azure_iot_sdk\uamqp\src/session.c ****     if (session != NULL)
 815:Source\azure_iot_sdk\uamqp\src/session.c ****     {
 816:Source\azure_iot_sdk\uamqp\src/session.c ****         SESSION_INSTANCE* session_instance = (SESSION_INSTANCE*)session;
 817:Source\azure_iot_sdk\uamqp\src/session.c **** 
 818:Source\azure_iot_sdk\uamqp\src/session.c ****         session_end(session, NULL, NULL);
 819:Source\azure_iot_sdk\uamqp\src/session.c **** 
 820:Source\azure_iot_sdk\uamqp\src/session.c ****         /* Codes_S_R_S_SESSION_01_034: [session_destroy shall free all resources allocated by sessi
 821:Source\azure_iot_sdk\uamqp\src/session.c ****         /* Codes_S_R_S_SESSION_01_035: [The endpoint created in session_create shall be freed by ca
 822:Source\azure_iot_sdk\uamqp\src/session.c ****         connection_destroy_endpoint(session_instance->endpoint);
 823:Source\azure_iot_sdk\uamqp\src/session.c ****         if (session_instance->link_endpoints != NULL)
 824:Source\azure_iot_sdk\uamqp\src/session.c ****         {
ARM GAS  C:\Users\Phuong\AppData\Local\Temp\ccX7yw2d.s 			page 19


 825:Source\azure_iot_sdk\uamqp\src/session.c ****             free(session_instance->link_endpoints);
 826:Source\azure_iot_sdk\uamqp\src/session.c ****         }
 827:Source\azure_iot_sdk\uamqp\src/session.c **** 
 828:Source\azure_iot_sdk\uamqp\src/session.c ****         free(session);
 829:Source\azure_iot_sdk\uamqp\src/session.c ****     }
 830:Source\azure_iot_sdk\uamqp\src/session.c **** }
 831:Source\azure_iot_sdk\uamqp\src/session.c **** 
 832:Source\azure_iot_sdk\uamqp\src/session.c **** int session_begin(SESSION_HANDLE session)
 833:Source\azure_iot_sdk\uamqp\src/session.c **** {
 834:Source\azure_iot_sdk\uamqp\src/session.c ****     int result;
 835:Source\azure_iot_sdk\uamqp\src/session.c **** 
 836:Source\azure_iot_sdk\uamqp\src/session.c ****     if (session == NULL)
 837:Source\azure_iot_sdk\uamqp\src/session.c ****     {
 838:Source\azure_iot_sdk\uamqp\src/session.c ****         result = __FAILURE__;
 839:Source\azure_iot_sdk\uamqp\src/session.c ****     }
 840:Source\azure_iot_sdk\uamqp\src/session.c ****     else
 841:Source\azure_iot_sdk\uamqp\src/session.c ****     {
 842:Source\azure_iot_sdk\uamqp\src/session.c ****         SESSION_INSTANCE* session_instance = (SESSION_INSTANCE*)session;
 843:Source\azure_iot_sdk\uamqp\src/session.c **** 
 844:Source\azure_iot_sdk\uamqp\src/session.c ****         if (connection_start_endpoint(session_instance->endpoint, on_frame_received, on_connection_
 845:Source\azure_iot_sdk\uamqp\src/session.c ****         {
 846:Source\azure_iot_sdk\uamqp\src/session.c ****             result = __FAILURE__;
 847:Source\azure_iot_sdk\uamqp\src/session.c ****         }
 848:Source\azure_iot_sdk\uamqp\src/session.c ****         else
 849:Source\azure_iot_sdk\uamqp\src/session.c ****         {
 850:Source\azure_iot_sdk\uamqp\src/session.c ****             if (!session_instance->is_underlying_connection_open)
 851:Source\azure_iot_sdk\uamqp\src/session.c ****             {
 852:Source\azure_iot_sdk\uamqp\src/session.c ****                 if (connection_open(session_instance->connection) != 0)
 853:Source\azure_iot_sdk\uamqp\src/session.c ****                 {
 854:Source\azure_iot_sdk\uamqp\src/session.c ****                     session_instance->is_underlying_connection_open = UNDERLYING_CONNECTION_NOT_OPE
 855:Source\azure_iot_sdk\uamqp\src/session.c ****                     result = __FAILURE__;
 856:Source\azure_iot_sdk\uamqp\src/session.c ****                 }
 857:Source\azure_iot_sdk\uamqp\src/session.c ****                 else
 858:Source\azure_iot_sdk\uamqp\src/session.c ****                 {
 859:Source\azure_iot_sdk\uamqp\src/session.c ****                     session_instance->is_underlying_connection_open = UNDERLYING_CONNECTION_OPEN;
 860:Source\azure_iot_sdk\uamqp\src/session.c ****                     result = 0;
 861:Source\azure_iot_sdk\uamqp\src/session.c ****                 }
 862:Source\azure_iot_sdk\uamqp\src/session.c ****             }
 863:Source\azure_iot_sdk\uamqp\src/session.c ****             else
 864:Source\azure_iot_sdk\uamqp\src/session.c ****             {
 865:Source\azure_iot_sdk\uamqp\src/session.c ****                 result = 0;
 866:Source\azure_iot_sdk\uamqp\src/session.c ****             }
 867:Source\azure_iot_sdk\uamqp\src/session.c ****         }
 868:Source\azure_iot_sdk\uamqp\src/session.c ****     }
 869:Source\azure_iot_sdk\uamqp\src/session.c **** 
 870:Source\azure_iot_sdk\uamqp\src/session.c ****     return result;
 871:Source\azure_iot_sdk\uamqp\src/session.c **** }
 872:Source\azure_iot_sdk\uamqp\src/session.c **** 
 873:Source\azure_iot_sdk\uamqp\src/session.c **** int session_end(SESSION_HANDLE session, const char* condition_value, const char* description)
 874:Source\azure_iot_sdk\uamqp\src/session.c **** {
 875:Source\azure_iot_sdk\uamqp\src/session.c ****     int result;
 876:Source\azure_iot_sdk\uamqp\src/session.c **** 
 877:Source\azure_iot_sdk\uamqp\src/session.c ****     if (session == NULL)
 878:Source\azure_iot_sdk\uamqp\src/session.c ****     {
 879:Source\azure_iot_sdk\uamqp\src/session.c ****         result = __FAILURE__;
 880:Source\azure_iot_sdk\uamqp\src/session.c ****     }
 881:Source\azure_iot_sdk\uamqp\src/session.c ****     else
ARM GAS  C:\Users\Phuong\AppData\Local\Temp\ccX7yw2d.s 			page 20


 882:Source\azure_iot_sdk\uamqp\src/session.c ****     {
 883:Source\azure_iot_sdk\uamqp\src/session.c ****         SESSION_INSTANCE* session_instance = (SESSION_INSTANCE*)session;
 884:Source\azure_iot_sdk\uamqp\src/session.c ****         size_t i;
 885:Source\azure_iot_sdk\uamqp\src/session.c **** 
 886:Source\azure_iot_sdk\uamqp\src/session.c ****         if ((session_instance->session_state != SESSION_STATE_UNMAPPED) &&
 887:Source\azure_iot_sdk\uamqp\src/session.c ****             (session_instance->session_state != SESSION_STATE_DISCARDING))
 888:Source\azure_iot_sdk\uamqp\src/session.c ****         {
 889:Source\azure_iot_sdk\uamqp\src/session.c ****             ERROR_HANDLE error_handle = NULL;
 890:Source\azure_iot_sdk\uamqp\src/session.c ****             result = 0;
 891:Source\azure_iot_sdk\uamqp\src/session.c **** 
 892:Source\azure_iot_sdk\uamqp\src/session.c ****             if (condition_value != NULL)
 893:Source\azure_iot_sdk\uamqp\src/session.c ****             {
 894:Source\azure_iot_sdk\uamqp\src/session.c ****                 error_handle = error_create(condition_value);
 895:Source\azure_iot_sdk\uamqp\src/session.c ****                 if (error_handle == NULL)
 896:Source\azure_iot_sdk\uamqp\src/session.c ****                 {
 897:Source\azure_iot_sdk\uamqp\src/session.c ****                     result = __FAILURE__;
 898:Source\azure_iot_sdk\uamqp\src/session.c ****                 }
 899:Source\azure_iot_sdk\uamqp\src/session.c ****                 else
 900:Source\azure_iot_sdk\uamqp\src/session.c ****                 {
 901:Source\azure_iot_sdk\uamqp\src/session.c ****                     if (error_set_description(error_handle, description) != 0)
 902:Source\azure_iot_sdk\uamqp\src/session.c ****                     {
 903:Source\azure_iot_sdk\uamqp\src/session.c ****                         result = __FAILURE__;
 904:Source\azure_iot_sdk\uamqp\src/session.c ****                     }
 905:Source\azure_iot_sdk\uamqp\src/session.c ****                 }
 906:Source\azure_iot_sdk\uamqp\src/session.c ****             }
 907:Source\azure_iot_sdk\uamqp\src/session.c **** 
 908:Source\azure_iot_sdk\uamqp\src/session.c ****             if (result == 0)
 909:Source\azure_iot_sdk\uamqp\src/session.c ****             {
 910:Source\azure_iot_sdk\uamqp\src/session.c ****                 if (send_end_frame(session_instance, error_handle) != 0)
 911:Source\azure_iot_sdk\uamqp\src/session.c ****                 {
 912:Source\azure_iot_sdk\uamqp\src/session.c ****                     result = __FAILURE__;
 913:Source\azure_iot_sdk\uamqp\src/session.c ****                 }
 914:Source\azure_iot_sdk\uamqp\src/session.c ****                 else
 915:Source\azure_iot_sdk\uamqp\src/session.c ****                 {
 916:Source\azure_iot_sdk\uamqp\src/session.c ****                     session_set_state(session_instance, SESSION_STATE_DISCARDING);
 917:Source\azure_iot_sdk\uamqp\src/session.c ****                     result = 0;
 918:Source\azure_iot_sdk\uamqp\src/session.c ****                 }
 919:Source\azure_iot_sdk\uamqp\src/session.c ****             }
 920:Source\azure_iot_sdk\uamqp\src/session.c **** 
 921:Source\azure_iot_sdk\uamqp\src/session.c ****             if (error_handle != NULL)
 922:Source\azure_iot_sdk\uamqp\src/session.c ****             {
 923:Source\azure_iot_sdk\uamqp\src/session.c ****                 error_destroy(error_handle);
 924:Source\azure_iot_sdk\uamqp\src/session.c ****             }
 925:Source\azure_iot_sdk\uamqp\src/session.c ****         }
 926:Source\azure_iot_sdk\uamqp\src/session.c ****         else
 927:Source\azure_iot_sdk\uamqp\src/session.c ****         {
 928:Source\azure_iot_sdk\uamqp\src/session.c ****             result = 0;
 929:Source\azure_iot_sdk\uamqp\src/session.c ****         }
 930:Source\azure_iot_sdk\uamqp\src/session.c **** 
 931:Source\azure_iot_sdk\uamqp\src/session.c ****         // all link endpoints are destroyed when the session end happens
 932:Source\azure_iot_sdk\uamqp\src/session.c ****         for (i = 0; i < session_instance->link_endpoint_count; i++)
 933:Source\azure_iot_sdk\uamqp\src/session.c ****         {
 934:Source\azure_iot_sdk\uamqp\src/session.c ****             free_link_endpoint(session_instance->link_endpoints[i]);
 935:Source\azure_iot_sdk\uamqp\src/session.c ****         }
 936:Source\azure_iot_sdk\uamqp\src/session.c **** 
 937:Source\azure_iot_sdk\uamqp\src/session.c ****         session_instance->link_endpoint_count = 0;
 938:Source\azure_iot_sdk\uamqp\src/session.c ****     }
ARM GAS  C:\Users\Phuong\AppData\Local\Temp\ccX7yw2d.s 			page 21


 939:Source\azure_iot_sdk\uamqp\src/session.c **** 
 940:Source\azure_iot_sdk\uamqp\src/session.c ****     return result;
 941:Source\azure_iot_sdk\uamqp\src/session.c **** }
 942:Source\azure_iot_sdk\uamqp\src/session.c **** 
 943:Source\azure_iot_sdk\uamqp\src/session.c **** int session_set_incoming_window(SESSION_HANDLE session, uint32_t incoming_window)
 944:Source\azure_iot_sdk\uamqp\src/session.c **** {
 945:Source\azure_iot_sdk\uamqp\src/session.c ****     int result;
 946:Source\azure_iot_sdk\uamqp\src/session.c **** 
 947:Source\azure_iot_sdk\uamqp\src/session.c ****     if (session == NULL)
 948:Source\azure_iot_sdk\uamqp\src/session.c ****     {
 949:Source\azure_iot_sdk\uamqp\src/session.c ****         result = __FAILURE__;
 950:Source\azure_iot_sdk\uamqp\src/session.c ****     }
 951:Source\azure_iot_sdk\uamqp\src/session.c ****     else
 952:Source\azure_iot_sdk\uamqp\src/session.c ****     {
 953:Source\azure_iot_sdk\uamqp\src/session.c ****         SESSION_INSTANCE* session_instance = (SESSION_INSTANCE*)session;
 954:Source\azure_iot_sdk\uamqp\src/session.c **** 
 955:Source\azure_iot_sdk\uamqp\src/session.c ****         session_instance->desired_incoming_window = incoming_window;
 956:Source\azure_iot_sdk\uamqp\src/session.c ****         session_instance->incoming_window = incoming_window;
 957:Source\azure_iot_sdk\uamqp\src/session.c **** 
 958:Source\azure_iot_sdk\uamqp\src/session.c ****         result = 0;
 959:Source\azure_iot_sdk\uamqp\src/session.c ****     }
 960:Source\azure_iot_sdk\uamqp\src/session.c **** 
 961:Source\azure_iot_sdk\uamqp\src/session.c ****     return result;
 962:Source\azure_iot_sdk\uamqp\src/session.c **** }
 963:Source\azure_iot_sdk\uamqp\src/session.c **** 
 964:Source\azure_iot_sdk\uamqp\src/session.c **** int session_get_incoming_window(SESSION_HANDLE session, uint32_t* incoming_window)
 965:Source\azure_iot_sdk\uamqp\src/session.c **** {
 966:Source\azure_iot_sdk\uamqp\src/session.c ****     int result;
 967:Source\azure_iot_sdk\uamqp\src/session.c **** 
 968:Source\azure_iot_sdk\uamqp\src/session.c ****     if ((session == NULL) ||
 969:Source\azure_iot_sdk\uamqp\src/session.c ****         (incoming_window == NULL))
 970:Source\azure_iot_sdk\uamqp\src/session.c ****     {
 971:Source\azure_iot_sdk\uamqp\src/session.c ****         result = __FAILURE__;
 972:Source\azure_iot_sdk\uamqp\src/session.c ****     }
 973:Source\azure_iot_sdk\uamqp\src/session.c ****     else
 974:Source\azure_iot_sdk\uamqp\src/session.c ****     {
 975:Source\azure_iot_sdk\uamqp\src/session.c ****         SESSION_INSTANCE* session_instance = (SESSION_INSTANCE*)session;
 976:Source\azure_iot_sdk\uamqp\src/session.c **** 
 977:Source\azure_iot_sdk\uamqp\src/session.c ****         *incoming_window = session_instance->incoming_window;
 978:Source\azure_iot_sdk\uamqp\src/session.c **** 
 979:Source\azure_iot_sdk\uamqp\src/session.c ****         result = 0;
 980:Source\azure_iot_sdk\uamqp\src/session.c ****     }
 981:Source\azure_iot_sdk\uamqp\src/session.c **** 
 982:Source\azure_iot_sdk\uamqp\src/session.c ****     return result;
 983:Source\azure_iot_sdk\uamqp\src/session.c **** }
 984:Source\azure_iot_sdk\uamqp\src/session.c **** 
 985:Source\azure_iot_sdk\uamqp\src/session.c **** int session_set_outgoing_window(SESSION_HANDLE session, uint32_t outgoing_window)
 986:Source\azure_iot_sdk\uamqp\src/session.c **** {
 987:Source\azure_iot_sdk\uamqp\src/session.c ****     int result;
 988:Source\azure_iot_sdk\uamqp\src/session.c **** 
 989:Source\azure_iot_sdk\uamqp\src/session.c ****     if (session == NULL)
 990:Source\azure_iot_sdk\uamqp\src/session.c ****     {
 991:Source\azure_iot_sdk\uamqp\src/session.c ****         result = __FAILURE__;
 992:Source\azure_iot_sdk\uamqp\src/session.c ****     }
 993:Source\azure_iot_sdk\uamqp\src/session.c ****     else
 994:Source\azure_iot_sdk\uamqp\src/session.c ****     {
 995:Source\azure_iot_sdk\uamqp\src/session.c ****         SESSION_INSTANCE* session_instance = (SESSION_INSTANCE*)session;
ARM GAS  C:\Users\Phuong\AppData\Local\Temp\ccX7yw2d.s 			page 22


 996:Source\azure_iot_sdk\uamqp\src/session.c **** 
 997:Source\azure_iot_sdk\uamqp\src/session.c ****         session_instance->outgoing_window = outgoing_window;
 998:Source\azure_iot_sdk\uamqp\src/session.c **** 
 999:Source\azure_iot_sdk\uamqp\src/session.c ****         result = 0;
1000:Source\azure_iot_sdk\uamqp\src/session.c ****     }
1001:Source\azure_iot_sdk\uamqp\src/session.c **** 
1002:Source\azure_iot_sdk\uamqp\src/session.c ****     return result;
1003:Source\azure_iot_sdk\uamqp\src/session.c **** }
1004:Source\azure_iot_sdk\uamqp\src/session.c **** 
1005:Source\azure_iot_sdk\uamqp\src/session.c **** int session_get_outgoing_window(SESSION_HANDLE session, uint32_t* outgoing_window)
1006:Source\azure_iot_sdk\uamqp\src/session.c **** {
1007:Source\azure_iot_sdk\uamqp\src/session.c ****     int result;
1008:Source\azure_iot_sdk\uamqp\src/session.c **** 
1009:Source\azure_iot_sdk\uamqp\src/session.c ****     if ((session == NULL) ||
1010:Source\azure_iot_sdk\uamqp\src/session.c ****         (outgoing_window == NULL))
1011:Source\azure_iot_sdk\uamqp\src/session.c ****     {
1012:Source\azure_iot_sdk\uamqp\src/session.c ****         result = __FAILURE__;
1013:Source\azure_iot_sdk\uamqp\src/session.c ****     }
1014:Source\azure_iot_sdk\uamqp\src/session.c ****     else
1015:Source\azure_iot_sdk\uamqp\src/session.c ****     {
1016:Source\azure_iot_sdk\uamqp\src/session.c ****         SESSION_INSTANCE* session_instance = (SESSION_INSTANCE*)session;
1017:Source\azure_iot_sdk\uamqp\src/session.c **** 
1018:Source\azure_iot_sdk\uamqp\src/session.c ****         *outgoing_window = session_instance->outgoing_window;
1019:Source\azure_iot_sdk\uamqp\src/session.c **** 
1020:Source\azure_iot_sdk\uamqp\src/session.c ****         result = 0;
1021:Source\azure_iot_sdk\uamqp\src/session.c ****     }
1022:Source\azure_iot_sdk\uamqp\src/session.c **** 
1023:Source\azure_iot_sdk\uamqp\src/session.c ****     return result;
1024:Source\azure_iot_sdk\uamqp\src/session.c **** }
1025:Source\azure_iot_sdk\uamqp\src/session.c **** 
1026:Source\azure_iot_sdk\uamqp\src/session.c **** int session_set_handle_max(SESSION_HANDLE session, handle handle_max)
1027:Source\azure_iot_sdk\uamqp\src/session.c **** {
1028:Source\azure_iot_sdk\uamqp\src/session.c ****     int result;
1029:Source\azure_iot_sdk\uamqp\src/session.c **** 
1030:Source\azure_iot_sdk\uamqp\src/session.c ****     if (session == NULL)
1031:Source\azure_iot_sdk\uamqp\src/session.c ****     {
1032:Source\azure_iot_sdk\uamqp\src/session.c ****         result = __FAILURE__;
1033:Source\azure_iot_sdk\uamqp\src/session.c ****     }
1034:Source\azure_iot_sdk\uamqp\src/session.c ****     else
1035:Source\azure_iot_sdk\uamqp\src/session.c ****     {
1036:Source\azure_iot_sdk\uamqp\src/session.c ****         SESSION_INSTANCE* session_instance = (SESSION_INSTANCE*)session;
1037:Source\azure_iot_sdk\uamqp\src/session.c **** 
1038:Source\azure_iot_sdk\uamqp\src/session.c ****         session_instance->handle_max = handle_max;
1039:Source\azure_iot_sdk\uamqp\src/session.c **** 
1040:Source\azure_iot_sdk\uamqp\src/session.c ****         result = 0;
1041:Source\azure_iot_sdk\uamqp\src/session.c ****     }
1042:Source\azure_iot_sdk\uamqp\src/session.c **** 
1043:Source\azure_iot_sdk\uamqp\src/session.c ****     return result;
1044:Source\azure_iot_sdk\uamqp\src/session.c **** }
1045:Source\azure_iot_sdk\uamqp\src/session.c **** 
1046:Source\azure_iot_sdk\uamqp\src/session.c **** int session_get_handle_max(SESSION_HANDLE session, handle* handle_max)
1047:Source\azure_iot_sdk\uamqp\src/session.c **** {
1048:Source\azure_iot_sdk\uamqp\src/session.c ****     int result;
1049:Source\azure_iot_sdk\uamqp\src/session.c **** 
1050:Source\azure_iot_sdk\uamqp\src/session.c ****     if ((session == NULL) ||
1051:Source\azure_iot_sdk\uamqp\src/session.c ****         (handle_max == NULL))
1052:Source\azure_iot_sdk\uamqp\src/session.c ****     {
ARM GAS  C:\Users\Phuong\AppData\Local\Temp\ccX7yw2d.s 			page 23


1053:Source\azure_iot_sdk\uamqp\src/session.c ****         result = __FAILURE__;
1054:Source\azure_iot_sdk\uamqp\src/session.c ****     }
1055:Source\azure_iot_sdk\uamqp\src/session.c ****     else
1056:Source\azure_iot_sdk\uamqp\src/session.c ****     {
1057:Source\azure_iot_sdk\uamqp\src/session.c ****         SESSION_INSTANCE* session_instance = (SESSION_INSTANCE*)session;
1058:Source\azure_iot_sdk\uamqp\src/session.c **** 
1059:Source\azure_iot_sdk\uamqp\src/session.c ****         *handle_max = session_instance->handle_max;
1060:Source\azure_iot_sdk\uamqp\src/session.c **** 
1061:Source\azure_iot_sdk\uamqp\src/session.c ****         result = 0;
1062:Source\azure_iot_sdk\uamqp\src/session.c ****     }
1063:Source\azure_iot_sdk\uamqp\src/session.c **** 
1064:Source\azure_iot_sdk\uamqp\src/session.c ****     return result;
1065:Source\azure_iot_sdk\uamqp\src/session.c **** }
1066:Source\azure_iot_sdk\uamqp\src/session.c **** 
1067:Source\azure_iot_sdk\uamqp\src/session.c **** LINK_ENDPOINT_HANDLE session_create_link_endpoint(SESSION_HANDLE session, const char* name)
1068:Source\azure_iot_sdk\uamqp\src/session.c **** {
1069:Source\azure_iot_sdk\uamqp\src/session.c ****     LINK_ENDPOINT_INSTANCE* result;
1070:Source\azure_iot_sdk\uamqp\src/session.c **** 
1071:Source\azure_iot_sdk\uamqp\src/session.c ****     /* Codes_S_R_S_SESSION_01_044: [If session, name or frame_received_callback is NULL, session_cr
1072:Source\azure_iot_sdk\uamqp\src/session.c ****     if ((session == NULL) ||
1073:Source\azure_iot_sdk\uamqp\src/session.c ****         (name == NULL))
1074:Source\azure_iot_sdk\uamqp\src/session.c ****     {
1075:Source\azure_iot_sdk\uamqp\src/session.c ****         result = NULL;
1076:Source\azure_iot_sdk\uamqp\src/session.c ****     }
1077:Source\azure_iot_sdk\uamqp\src/session.c ****     else
1078:Source\azure_iot_sdk\uamqp\src/session.c ****     {
1079:Source\azure_iot_sdk\uamqp\src/session.c ****         /* Codes_S_R_S_SESSION_01_043: [session_create_link_endpoint shall create a link endpoint a
1080:Source\azure_iot_sdk\uamqp\src/session.c ****         SESSION_INSTANCE* session_instance = (SESSION_INSTANCE*)session;
1081:Source\azure_iot_sdk\uamqp\src/session.c **** 
1082:Source\azure_iot_sdk\uamqp\src/session.c ****         result = (LINK_ENDPOINT_INSTANCE*)malloc(sizeof(LINK_ENDPOINT_INSTANCE));
1083:Source\azure_iot_sdk\uamqp\src/session.c ****         /* Codes_S_R_S_SESSION_01_045: [If allocating memory for the link endpoint fails, session_c
1084:Source\azure_iot_sdk\uamqp\src/session.c ****         if (result != NULL)
1085:Source\azure_iot_sdk\uamqp\src/session.c ****         {
1086:Source\azure_iot_sdk\uamqp\src/session.c ****             /* Codes_S_R_S_SESSION_01_046: [An unused handle shall be assigned to the link endpoint
1087:Source\azure_iot_sdk\uamqp\src/session.c ****             handle selected_handle = 0;
1088:Source\azure_iot_sdk\uamqp\src/session.c ****             size_t i;
1089:Source\azure_iot_sdk\uamqp\src/session.c ****             size_t name_length;
1090:Source\azure_iot_sdk\uamqp\src/session.c **** 
1091:Source\azure_iot_sdk\uamqp\src/session.c ****             for (i = 0; i < session_instance->link_endpoint_count; i++)
1092:Source\azure_iot_sdk\uamqp\src/session.c ****             {
1093:Source\azure_iot_sdk\uamqp\src/session.c ****                 if (session_instance->link_endpoints[i]->output_handle > selected_handle)
1094:Source\azure_iot_sdk\uamqp\src/session.c ****                 {
1095:Source\azure_iot_sdk\uamqp\src/session.c ****                     break;
1096:Source\azure_iot_sdk\uamqp\src/session.c ****                 }
1097:Source\azure_iot_sdk\uamqp\src/session.c **** 
1098:Source\azure_iot_sdk\uamqp\src/session.c ****                 selected_handle++;
1099:Source\azure_iot_sdk\uamqp\src/session.c ****             }
1100:Source\azure_iot_sdk\uamqp\src/session.c **** 
1101:Source\azure_iot_sdk\uamqp\src/session.c ****             result->on_session_state_changed = NULL;
1102:Source\azure_iot_sdk\uamqp\src/session.c ****             result->on_session_flow_on = NULL;
1103:Source\azure_iot_sdk\uamqp\src/session.c ****             result->frame_received_callback = NULL;
1104:Source\azure_iot_sdk\uamqp\src/session.c ****             result->callback_context = NULL;
1105:Source\azure_iot_sdk\uamqp\src/session.c ****             result->output_handle = selected_handle;
1106:Source\azure_iot_sdk\uamqp\src/session.c ****             result->input_handle = 0xFFFFFFFF;
1107:Source\azure_iot_sdk\uamqp\src/session.c ****             result->link_endpoint_state = LINK_ENDPOINT_STATE_NOT_ATTACHED;
1108:Source\azure_iot_sdk\uamqp\src/session.c ****             name_length = strlen(name);
1109:Source\azure_iot_sdk\uamqp\src/session.c ****             result->name = (char*)malloc(name_length + 1);
ARM GAS  C:\Users\Phuong\AppData\Local\Temp\ccX7yw2d.s 			page 24


1110:Source\azure_iot_sdk\uamqp\src/session.c ****             if (result->name == NULL)
1111:Source\azure_iot_sdk\uamqp\src/session.c ****             {
1112:Source\azure_iot_sdk\uamqp\src/session.c ****                 /* Codes_S_R_S_SESSION_01_045: [If allocating memory for the link endpoint fails, s
1113:Source\azure_iot_sdk\uamqp\src/session.c ****                 free(result);
1114:Source\azure_iot_sdk\uamqp\src/session.c ****                 result = NULL;
1115:Source\azure_iot_sdk\uamqp\src/session.c ****             }
1116:Source\azure_iot_sdk\uamqp\src/session.c ****             else
1117:Source\azure_iot_sdk\uamqp\src/session.c ****             {
1118:Source\azure_iot_sdk\uamqp\src/session.c ****                 LINK_ENDPOINT_INSTANCE** new_link_endpoints;
1119:Source\azure_iot_sdk\uamqp\src/session.c ****                 (void)memcpy(result->name, name, name_length + 1);
1120:Source\azure_iot_sdk\uamqp\src/session.c ****                 result->session = session;
1121:Source\azure_iot_sdk\uamqp\src/session.c **** 
1122:Source\azure_iot_sdk\uamqp\src/session.c ****                 new_link_endpoints = (LINK_ENDPOINT_INSTANCE**)realloc(session_instance->link_endpo
1123:Source\azure_iot_sdk\uamqp\src/session.c ****                 if (new_link_endpoints == NULL)
1124:Source\azure_iot_sdk\uamqp\src/session.c ****                 {
1125:Source\azure_iot_sdk\uamqp\src/session.c ****                     /* Codes_S_R_S_SESSION_01_045: [If allocating memory for the link endpoint fail
1126:Source\azure_iot_sdk\uamqp\src/session.c ****                     free(result->name);
1127:Source\azure_iot_sdk\uamqp\src/session.c ****                     free(result);
1128:Source\azure_iot_sdk\uamqp\src/session.c ****                     result = NULL;
1129:Source\azure_iot_sdk\uamqp\src/session.c ****                 }
1130:Source\azure_iot_sdk\uamqp\src/session.c ****                 else
1131:Source\azure_iot_sdk\uamqp\src/session.c ****                 {
1132:Source\azure_iot_sdk\uamqp\src/session.c ****                     session_instance->link_endpoints = new_link_endpoints;
1133:Source\azure_iot_sdk\uamqp\src/session.c **** 
1134:Source\azure_iot_sdk\uamqp\src/session.c ****                     if (session_instance->link_endpoint_count - selected_handle > 0)
1135:Source\azure_iot_sdk\uamqp\src/session.c ****                     {
1136:Source\azure_iot_sdk\uamqp\src/session.c ****                         (void)memmove(&session_instance->link_endpoints[selected_handle + 1], &sess
1137:Source\azure_iot_sdk\uamqp\src/session.c ****                     }
1138:Source\azure_iot_sdk\uamqp\src/session.c **** 
1139:Source\azure_iot_sdk\uamqp\src/session.c ****                     session_instance->link_endpoints[selected_handle] = result;
1140:Source\azure_iot_sdk\uamqp\src/session.c ****                     session_instance->link_endpoint_count++;
1141:Source\azure_iot_sdk\uamqp\src/session.c ****                 }
1142:Source\azure_iot_sdk\uamqp\src/session.c ****             }
1143:Source\azure_iot_sdk\uamqp\src/session.c ****         }
1144:Source\azure_iot_sdk\uamqp\src/session.c ****     }
1145:Source\azure_iot_sdk\uamqp\src/session.c **** 
1146:Source\azure_iot_sdk\uamqp\src/session.c ****     return result;
1147:Source\azure_iot_sdk\uamqp\src/session.c **** }
1148:Source\azure_iot_sdk\uamqp\src/session.c **** 
1149:Source\azure_iot_sdk\uamqp\src/session.c **** void session_destroy_link_endpoint(LINK_ENDPOINT_HANDLE link_endpoint)
1150:Source\azure_iot_sdk\uamqp\src/session.c **** {
1151:Source\azure_iot_sdk\uamqp\src/session.c ****     if (link_endpoint != NULL)
1152:Source\azure_iot_sdk\uamqp\src/session.c ****     {
1153:Source\azure_iot_sdk\uamqp\src/session.c ****         LINK_ENDPOINT_INSTANCE* endpoint_instance = (LINK_ENDPOINT_INSTANCE*)link_endpoint;
1154:Source\azure_iot_sdk\uamqp\src/session.c **** 
1155:Source\azure_iot_sdk\uamqp\src/session.c ****         if (endpoint_instance->link_endpoint_state == LINK_ENDPOINT_STATE_ATTACHED)
1156:Source\azure_iot_sdk\uamqp\src/session.c ****         {
1157:Source\azure_iot_sdk\uamqp\src/session.c ****             endpoint_instance->link_endpoint_state = LINK_ENDPOINT_STATE_DETACHING;
1158:Source\azure_iot_sdk\uamqp\src/session.c ****         }
1159:Source\azure_iot_sdk\uamqp\src/session.c ****         else
1160:Source\azure_iot_sdk\uamqp\src/session.c ****         {
1161:Source\azure_iot_sdk\uamqp\src/session.c ****             remove_link_endpoint(link_endpoint);
1162:Source\azure_iot_sdk\uamqp\src/session.c ****             free_link_endpoint(link_endpoint);
1163:Source\azure_iot_sdk\uamqp\src/session.c ****         }
1164:Source\azure_iot_sdk\uamqp\src/session.c ****     }
1165:Source\azure_iot_sdk\uamqp\src/session.c **** }
1166:Source\azure_iot_sdk\uamqp\src/session.c **** 
ARM GAS  C:\Users\Phuong\AppData\Local\Temp\ccX7yw2d.s 			page 25


1167:Source\azure_iot_sdk\uamqp\src/session.c **** int session_start_link_endpoint(LINK_ENDPOINT_HANDLE link_endpoint, ON_ENDPOINT_FRAME_RECEIVED fram
1168:Source\azure_iot_sdk\uamqp\src/session.c **** {
1169:Source\azure_iot_sdk\uamqp\src/session.c ****     int result;
1170:Source\azure_iot_sdk\uamqp\src/session.c **** 
1171:Source\azure_iot_sdk\uamqp\src/session.c ****     if ((link_endpoint == NULL) ||
1172:Source\azure_iot_sdk\uamqp\src/session.c ****         (frame_received_callback == NULL))
1173:Source\azure_iot_sdk\uamqp\src/session.c ****     {
1174:Source\azure_iot_sdk\uamqp\src/session.c ****         result = __FAILURE__;
1175:Source\azure_iot_sdk\uamqp\src/session.c ****     }
1176:Source\azure_iot_sdk\uamqp\src/session.c ****     else
1177:Source\azure_iot_sdk\uamqp\src/session.c ****     {
1178:Source\azure_iot_sdk\uamqp\src/session.c ****         link_endpoint->frame_received_callback = frame_received_callback;
1179:Source\azure_iot_sdk\uamqp\src/session.c ****         link_endpoint->on_session_state_changed = on_session_state_changed;
1180:Source\azure_iot_sdk\uamqp\src/session.c ****         link_endpoint->on_session_flow_on = on_session_flow_on;
1181:Source\azure_iot_sdk\uamqp\src/session.c ****         link_endpoint->callback_context = context;
1182:Source\azure_iot_sdk\uamqp\src/session.c ****         link_endpoint->link_endpoint_state = LINK_ENDPOINT_STATE_NOT_ATTACHED;
1183:Source\azure_iot_sdk\uamqp\src/session.c **** 
1184:Source\azure_iot_sdk\uamqp\src/session.c ****         if (link_endpoint->on_session_state_changed != NULL)
1185:Source\azure_iot_sdk\uamqp\src/session.c ****         {
1186:Source\azure_iot_sdk\uamqp\src/session.c ****             link_endpoint->on_session_state_changed(link_endpoint->callback_context, link_endpoint-
1187:Source\azure_iot_sdk\uamqp\src/session.c ****         }
1188:Source\azure_iot_sdk\uamqp\src/session.c **** 
1189:Source\azure_iot_sdk\uamqp\src/session.c ****         result = 0;
1190:Source\azure_iot_sdk\uamqp\src/session.c ****     }
1191:Source\azure_iot_sdk\uamqp\src/session.c **** 
1192:Source\azure_iot_sdk\uamqp\src/session.c ****     return result;
1193:Source\azure_iot_sdk\uamqp\src/session.c **** }
1194:Source\azure_iot_sdk\uamqp\src/session.c **** 
1195:Source\azure_iot_sdk\uamqp\src/session.c **** static int encode_frame(LINK_ENDPOINT_HANDLE link_endpoint, AMQP_VALUE performative, PAYLOAD* paylo
1196:Source\azure_iot_sdk\uamqp\src/session.c **** {
 193              		.loc 1 1196 0
 194              		.cfi_startproc
 195              		@ args = 0, pretend = 0, frame = 0
 196              		@ frame_needed = 0, uses_anonymous_args = 0
 197              	.LVL20:
 198 0000 10B5     		push	{r4, lr}
 199              		.cfi_def_cfa_offset 8
 200              		.cfi_offset 4, -8
 201              		.cfi_offset 14, -4
 202 0002 82B0     		sub	sp, sp, #8
 203              		.cfi_def_cfa_offset 16
1197:Source\azure_iot_sdk\uamqp\src/session.c ****     int result;
1198:Source\azure_iot_sdk\uamqp\src/session.c **** 
1199:Source\azure_iot_sdk\uamqp\src/session.c ****     if ((link_endpoint == NULL) ||
 204              		.loc 1 1199 0
 205 0004 0028     		cmp	r0, #0
 206 0006 0CD0     		beq	.L15
 207              		.loc 1 1199 0 is_stmt 0 discriminator 1
 208 0008 0029     		cmp	r1, #0
 209 000a 0CD0     		beq	.L16
 210              	.LVL21:
 211              	.LBB2:
1200:Source\azure_iot_sdk\uamqp\src/session.c ****         (performative == NULL))
1201:Source\azure_iot_sdk\uamqp\src/session.c ****     {
1202:Source\azure_iot_sdk\uamqp\src/session.c ****         result = __FAILURE__;
1203:Source\azure_iot_sdk\uamqp\src/session.c ****     }
1204:Source\azure_iot_sdk\uamqp\src/session.c ****     else
ARM GAS  C:\Users\Phuong\AppData\Local\Temp\ccX7yw2d.s 			page 26


1205:Source\azure_iot_sdk\uamqp\src/session.c ****     {
1206:Source\azure_iot_sdk\uamqp\src/session.c ****         LINK_ENDPOINT_INSTANCE* link_endpoint_instance = (LINK_ENDPOINT_INSTANCE*)link_endpoint;
1207:Source\azure_iot_sdk\uamqp\src/session.c ****         SESSION_INSTANCE* session_instance = (SESSION_INSTANCE*)link_endpoint_instance->session;
 212              		.loc 1 1207 0 is_stmt 1
 213 000c C069     		ldr	r0, [r0, #28]
 214              	.LVL22:
1208:Source\azure_iot_sdk\uamqp\src/session.c **** 
1209:Source\azure_iot_sdk\uamqp\src/session.c ****         if (connection_encode_frame(session_instance->endpoint, performative, payloads, payload_cou
 215              		.loc 1 1209 0
 216 000e 0069     		ldr	r0, [r0, #16]
 217              	.LVL23:
 218 0010 0024     		movs	r4, #0
 219 0012 0194     		str	r4, [sp, #4]
 220              	.LVL24:
 221 0014 0094     		str	r4, [sp]
 222 0016 FFF7FEFF 		bl	connection_encode_frame
 223              	.LVL25:
 224 001a 0028     		cmp	r0, #0
 225 001c 05D0     		beq	.L17
1210:Source\azure_iot_sdk\uamqp\src/session.c ****         {
1211:Source\azure_iot_sdk\uamqp\src/session.c ****             result = __FAILURE__;
 226              		.loc 1 1211 0
 227 001e 0448     		ldr	r0, .L18
 228 0020 04E0     		b	.L14
 229              	.LVL26:
 230              	.L15:
 231              	.LBE2:
1202:Source\azure_iot_sdk\uamqp\src/session.c ****     }
 232              		.loc 1 1202 0
 233 0022 0448     		ldr	r0, .L18+4
 234              	.LVL27:
 235 0024 02E0     		b	.L14
 236              	.LVL28:
 237              	.L16:
 238 0026 0348     		ldr	r0, .L18+4
 239              	.LVL29:
 240 0028 00E0     		b	.L14
 241              	.LVL30:
 242              	.L17:
 243              	.LBB3:
1212:Source\azure_iot_sdk\uamqp\src/session.c ****         }
1213:Source\azure_iot_sdk\uamqp\src/session.c ****         else
1214:Source\azure_iot_sdk\uamqp\src/session.c ****         {
1215:Source\azure_iot_sdk\uamqp\src/session.c ****             result = 0;
 244              		.loc 1 1215 0
 245 002a 0020     		movs	r0, #0
 246              	.LVL31:
 247              	.L14:
 248              	.LBE3:
1216:Source\azure_iot_sdk\uamqp\src/session.c ****         }
1217:Source\azure_iot_sdk\uamqp\src/session.c ****     }
1218:Source\azure_iot_sdk\uamqp\src/session.c **** 
1219:Source\azure_iot_sdk\uamqp\src/session.c ****     return result;
1220:Source\azure_iot_sdk\uamqp\src/session.c **** }
 249              		.loc 1 1220 0
 250 002c 02B0     		add	sp, sp, #8
 251              		@ sp needed
ARM GAS  C:\Users\Phuong\AppData\Local\Temp\ccX7yw2d.s 			page 27


 252 002e 10BD     		pop	{r4, pc}
 253              	.L19:
 254              		.align	2
 255              	.L18:
 256 0030 BB040000 		.word	1211
 257 0034 B2040000 		.word	1202
 258              		.cfi_endproc
 259              	.LFE25:
 260              		.size	encode_frame, .-encode_frame
 261              		.section	.text.send_begin,"ax",%progbits
 262              		.align	2
 263              		.code	16
 264              		.thumb_func
 265              		.type	send_begin, %function
 266              	send_begin:
 267              	.LFB5:
 207:Source\azure_iot_sdk\uamqp\src/session.c ****     int result;
 268              		.loc 1 207 0
 269              		.cfi_startproc
 270              		@ args = 0, pretend = 0, frame = 8
 271              		@ frame_needed = 0, uses_anonymous_args = 0
 272              	.LVL32:
 273 0000 70B5     		push	{r4, r5, r6, lr}
 274              		.cfi_def_cfa_offset 16
 275              		.cfi_offset 4, -16
 276              		.cfi_offset 5, -12
 277              		.cfi_offset 6, -8
 278              		.cfi_offset 14, -4
 279 0002 84B0     		sub	sp, sp, #16
 280              		.cfi_def_cfa_offset 32
 281 0004 0400     		movs	r4, r0
 209:Source\azure_iot_sdk\uamqp\src/session.c **** 
 282              		.loc 1 209 0
 283 0006 426B     		ldr	r2, [r0, #52]
 284 0008 016B     		ldr	r1, [r0, #48]
 285 000a 406A     		ldr	r0, [r0, #36]
 286              	.LVL33:
 287 000c FFF7FEFF 		bl	begin_create
 288              	.LVL34:
 289 0010 051E     		subs	r5, r0, #0
 290              	.LVL35:
 211:Source\azure_iot_sdk\uamqp\src/session.c ****     {
 291              		.loc 1 211 0
 292 0012 37D0     		beq	.L25
 293              	.LBB4:
 218:Source\azure_iot_sdk\uamqp\src/session.c ****         {
 294              		.loc 1 218 0
 295 0014 A16B     		ldr	r1, [r4, #56]
 296 0016 FFF7FEFF 		bl	begin_set_handle_max
 297              	.LVL36:
 298 001a 0028     		cmp	r0, #0
 299 001c 27D1     		bne	.L26
 222:Source\azure_iot_sdk\uamqp\src/session.c ****             ((connection_endpoint_get_incoming_channel(session_instance->endpoint, &remote_channel)
 300              		.loc 1 222 0
 301 001e 237A     		ldrb	r3, [r4, #8]
 302 0020 022B     		cmp	r3, #2
 303 0022 0ED1     		bne	.L23
ARM GAS  C:\Users\Phuong\AppData\Local\Temp\ccX7yw2d.s 			page 28


 223:Source\azure_iot_sdk\uamqp\src/session.c ****             (begin_set_remote_channel(begin, remote_channel) != 0)))
 304              		.loc 1 223 0 discriminator 1
 305 0024 0E21     		movs	r1, #14
 306 0026 6944     		add	r1, r1, sp
 307 0028 2069     		ldr	r0, [r4, #16]
 308 002a FFF7FEFF 		bl	connection_endpoint_get_incoming_channel
 309              	.LVL37:
 222:Source\azure_iot_sdk\uamqp\src/session.c ****             ((connection_endpoint_get_incoming_channel(session_instance->endpoint, &remote_channel)
 310              		.loc 1 222 0 discriminator 1
 311 002e 0028     		cmp	r0, #0
 312 0030 1FD1     		bne	.L27
 224:Source\azure_iot_sdk\uamqp\src/session.c ****         {
 313              		.loc 1 224 0
 314 0032 0E23     		movs	r3, #14
 315 0034 6B44     		add	r3, r3, sp
 316 0036 1988     		ldrh	r1, [r3]
 317 0038 2800     		movs	r0, r5
 318 003a FFF7FEFF 		bl	begin_set_remote_channel
 319              	.LVL38:
 223:Source\azure_iot_sdk\uamqp\src/session.c ****             (begin_set_remote_channel(begin, remote_channel) != 0)))
 320              		.loc 1 223 0
 321 003e 0028     		cmp	r0, #0
 322 0040 19D1     		bne	.L28
 323              	.L23:
 324              	.LBB5:
 230:Source\azure_iot_sdk\uamqp\src/session.c ****             if (begin_performative_value == NULL)
 325              		.loc 1 230 0
 326 0042 2800     		movs	r0, r5
 327 0044 FFF7FEFF 		bl	amqpvalue_create_begin
 328              	.LVL39:
 329 0048 061E     		subs	r6, r0, #0
 330              	.LVL40:
 231:Source\azure_iot_sdk\uamqp\src/session.c ****             {
 331              		.loc 1 231 0
 332 004a 16D0     		beq	.L29
 237:Source\azure_iot_sdk\uamqp\src/session.c ****                 {
 333              		.loc 1 237 0
 334 004c 2069     		ldr	r0, [r4, #16]
 335              	.LVL41:
 336 004e 0023     		movs	r3, #0
 337 0050 0193     		str	r3, [sp, #4]
 338 0052 0093     		str	r3, [sp]
 339 0054 0022     		movs	r2, #0
 340 0056 3100     		movs	r1, r6
 341 0058 FFF7FEFF 		bl	connection_encode_frame
 342              	.LVL42:
 343 005c 0028     		cmp	r0, #0
 344 005e 01D0     		beq	.L30
 239:Source\azure_iot_sdk\uamqp\src/session.c ****                 }
 345              		.loc 1 239 0
 346 0060 EF24     		movs	r4, #239
 347              	.LVL43:
 348 0062 00E0     		b	.L24
 349              	.LVL44:
 350              	.L30:
 243:Source\azure_iot_sdk\uamqp\src/session.c ****                 }
 351              		.loc 1 243 0
ARM GAS  C:\Users\Phuong\AppData\Local\Temp\ccX7yw2d.s 			page 29


 352 0064 0024     		movs	r4, #0
 353              	.LVL45:
 354              	.L24:
 246:Source\azure_iot_sdk\uamqp\src/session.c ****             }
 355              		.loc 1 246 0
 356 0066 3000     		movs	r0, r6
 357 0068 FFF7FEFF 		bl	amqpvalue_destroy
 358              	.LVL46:
 359 006c 06E0     		b	.L22
 360              	.LVL47:
 361              	.L26:
 362              	.LBE5:
 220:Source\azure_iot_sdk\uamqp\src/session.c ****         }
 363              		.loc 1 220 0
 364 006e DC24     		movs	r4, #220
 365              	.LVL48:
 366 0070 04E0     		b	.L22
 367              	.LVL49:
 368              	.L27:
 226:Source\azure_iot_sdk\uamqp\src/session.c ****         }
 369              		.loc 1 226 0
 370 0072 E224     		movs	r4, #226
 371              	.LVL50:
 372 0074 02E0     		b	.L22
 373              	.LVL51:
 374              	.L28:
 375 0076 E224     		movs	r4, #226
 376              	.LVL52:
 377 0078 00E0     		b	.L22
 378              	.LVL53:
 379              	.L29:
 380              	.LBB6:
 233:Source\azure_iot_sdk\uamqp\src/session.c ****             }
 381              		.loc 1 233 0
 382 007a E924     		movs	r4, #233
 383              	.LVL54:
 384              	.L22:
 385              	.LBE6:
 250:Source\azure_iot_sdk\uamqp\src/session.c ****     }
 386              		.loc 1 250 0
 387 007c 2800     		movs	r0, r5
 388 007e FFF7FEFF 		bl	begin_destroy
 389              	.LVL55:
 390 0082 00E0     		b	.L21
 391              	.LVL56:
 392              	.L25:
 393              	.LBE4:
 213:Source\azure_iot_sdk\uamqp\src/session.c ****     }
 394              		.loc 1 213 0
 395 0084 D524     		movs	r4, #213
 396              	.LVL57:
 397              	.L21:
 254:Source\azure_iot_sdk\uamqp\src/session.c **** 
 398              		.loc 1 254 0
 399 0086 2000     		movs	r0, r4
 400 0088 04B0     		add	sp, sp, #16
 401              		@ sp needed
ARM GAS  C:\Users\Phuong\AppData\Local\Temp\ccX7yw2d.s 			page 30


 402              	.LVL58:
 403              	.LVL59:
 404 008a 70BD     		pop	{r4, r5, r6, pc}
 405              		.cfi_endproc
 406              	.LFE5:
 407              		.size	send_begin, .-send_begin
 408              		.section	.text.on_connection_state_changed,"ax",%progbits
 409              		.align	2
 410              		.code	16
 411              		.thumb_func
 412              		.type	on_connection_state_changed, %function
 413              	on_connection_state_changed:
 414              	.LFB9:
 357:Source\azure_iot_sdk\uamqp\src/session.c ****     SESSION_INSTANCE* session_instance = (SESSION_INSTANCE*)context;
 415              		.loc 1 357 0
 416              		.cfi_startproc
 417              		@ args = 0, pretend = 0, frame = 0
 418              		@ frame_needed = 0, uses_anonymous_args = 0
 419              	.LVL60:
 420 0000 10B5     		push	{r4, lr}
 421              		.cfi_def_cfa_offset 8
 422              		.cfi_offset 4, -8
 423              		.cfi_offset 14, -4
 424 0002 0400     		movs	r4, r0
 425              	.LVL61:
 361:Source\azure_iot_sdk\uamqp\src/session.c ****     {
 426              		.loc 1 361 0
 427 0004 0929     		cmp	r1, #9
 428 0006 0DD1     		bne	.L32
 361:Source\azure_iot_sdk\uamqp\src/session.c ****     {
 429              		.loc 1 361 0 is_stmt 0 discriminator 1
 430 0008 092A     		cmp	r2, #9
 431 000a 0BD0     		beq	.L32
 361:Source\azure_iot_sdk\uamqp\src/session.c ****     {
 432              		.loc 1 361 0 discriminator 2
 433 000c 037A     		ldrb	r3, [r0, #8]
 434 000e 002B     		cmp	r3, #0
 435 0010 08D1     		bne	.L32
 363:Source\azure_iot_sdk\uamqp\src/session.c ****         {
 436              		.loc 1 363 0 is_stmt 1
 437 0012 FFF7FEFF 		bl	send_begin
 438              	.LVL62:
 439 0016 0028     		cmp	r0, #0
 440 0018 13D1     		bne	.L31
 365:Source\azure_iot_sdk\uamqp\src/session.c ****         }
 441              		.loc 1 365 0
 442 001a 0121     		movs	r1, #1
 443 001c 2000     		movs	r0, r4
 444 001e FFF7FEFF 		bl	session_set_state
 445              	.LVL63:
 446 0022 0EE0     		b	.L31
 447              	.LVL64:
 448              	.L32:
 369:Source\azure_iot_sdk\uamqp\src/session.c ****     {
 449              		.loc 1 369 0
 450 0024 0A29     		cmp	r1, #10
 451 0026 01D0     		beq	.L34
ARM GAS  C:\Users\Phuong\AppData\Local\Temp\ccX7yw2d.s 			page 31


 369:Source\azure_iot_sdk\uamqp\src/session.c ****     {
 452              		.loc 1 369 0 is_stmt 0 discriminator 1
 453 0028 0D29     		cmp	r1, #13
 454 002a 04D1     		bne	.L35
 455              	.L34:
 371:Source\azure_iot_sdk\uamqp\src/session.c ****     }
 456              		.loc 1 371 0 is_stmt 1
 457 002c 0621     		movs	r1, #6
 458              	.LVL65:
 459 002e 2000     		movs	r0, r4
 460              	.LVL66:
 461 0030 FFF7FEFF 		bl	session_set_state
 462              	.LVL67:
 463 0034 05E0     		b	.L31
 464              	.LVL68:
 465              	.L35:
 374:Source\azure_iot_sdk\uamqp\src/session.c ****     {
 466              		.loc 1 374 0
 467 0036 0E29     		cmp	r1, #14
 468 0038 03D1     		bne	.L31
 376:Source\azure_iot_sdk\uamqp\src/session.c ****     }
 469              		.loc 1 376 0
 470 003a 0739     		subs	r1, r1, #7
 471              	.LVL69:
 472 003c 2000     		movs	r0, r4
 473              	.LVL70:
 474 003e FFF7FEFF 		bl	session_set_state
 475              	.LVL71:
 476              	.L31:
 378:Source\azure_iot_sdk\uamqp\src/session.c **** 
 477              		.loc 1 378 0
 478              		@ sp needed
 479              	.LVL72:
 480 0042 10BD     		pop	{r4, pc}
 481              		.cfi_endproc
 482              	.LFE9:
 483              		.size	on_connection_state_changed, .-on_connection_state_changed
 484              		.section	.text.find_link_endpoint_by_name,"ax",%progbits
 485              		.align	2
 486              		.code	16
 487              		.thumb_func
 488              		.type	find_link_endpoint_by_name, %function
 489              	find_link_endpoint_by_name:
 490              	.LFB7:
 307:Source\azure_iot_sdk\uamqp\src/session.c ****     uint32_t i;
 491              		.loc 1 307 0
 492              		.cfi_startproc
 493              		@ args = 0, pretend = 0, frame = 0
 494              		@ frame_needed = 0, uses_anonymous_args = 0
 495              	.LVL73:
 496 0000 F8B5     		push	{r3, r4, r5, r6, r7, lr}
 497              		.cfi_def_cfa_offset 24
 498              		.cfi_offset 3, -24
 499              		.cfi_offset 4, -20
 500              		.cfi_offset 5, -16
 501              		.cfi_offset 6, -12
 502              		.cfi_offset 7, -8
ARM GAS  C:\Users\Phuong\AppData\Local\Temp\ccX7yw2d.s 			page 32


 503              		.cfi_offset 14, -4
 504 0002 0500     		movs	r5, r0
 505 0004 0F00     		movs	r7, r1
 506              	.LVL74:
 311:Source\azure_iot_sdk\uamqp\src/session.c ****     {
 507              		.loc 1 311 0
 508 0006 0024     		movs	r4, #0
 509 0008 09E0     		b	.L37
 510              	.LVL75:
 511              	.L39:
 313:Source\azure_iot_sdk\uamqp\src/session.c ****         {
 512              		.loc 1 313 0
 513 000a A300     		lsls	r3, r4, #2
 514 000c 6A69     		ldr	r2, [r5, #20]
 515 000e 9B58     		ldr	r3, [r3, r2]
 516 0010 1868     		ldr	r0, [r3]
 517 0012 3900     		movs	r1, r7
 518 0014 FFF7FEFF 		bl	strcmp
 519              	.LVL76:
 520 0018 0028     		cmp	r0, #0
 521 001a 03D0     		beq	.L38
 311:Source\azure_iot_sdk\uamqp\src/session.c ****     {
 522              		.loc 1 311 0 discriminator 2
 523 001c 0134     		adds	r4, r4, #1
 524              	.LVL77:
 525              	.L37:
 311:Source\azure_iot_sdk\uamqp\src/session.c ****     {
 526              		.loc 1 311 0 is_stmt 0 discriminator 1
 527 001e AE69     		ldr	r6, [r5, #24]
 528 0020 B442     		cmp	r4, r6
 529 0022 F2D3     		bcc	.L39
 530              	.L38:
 319:Source\azure_iot_sdk\uamqp\src/session.c ****     {
 531              		.loc 1 319 0 is_stmt 1
 532 0024 B442     		cmp	r4, r6
 533 0026 03D0     		beq	.L41
 325:Source\azure_iot_sdk\uamqp\src/session.c ****     }
 534              		.loc 1 325 0
 535 0028 6B69     		ldr	r3, [r5, #20]
 536 002a A400     		lsls	r4, r4, #2
 537              	.LVL78:
 538 002c 1859     		ldr	r0, [r3, r4]
 539              	.LVL79:
 540 002e 00E0     		b	.L40
 541              	.LVL80:
 542              	.L41:
 321:Source\azure_iot_sdk\uamqp\src/session.c ****     }
 543              		.loc 1 321 0
 544 0030 0020     		movs	r0, #0
 545              	.LVL81:
 546              	.L40:
 329:Source\azure_iot_sdk\uamqp\src/session.c **** 
 547              		.loc 1 329 0
 548              		@ sp needed
 549              	.LVL82:
 550              	.LVL83:
 551 0032 F8BD     		pop	{r3, r4, r5, r6, r7, pc}
ARM GAS  C:\Users\Phuong\AppData\Local\Temp\ccX7yw2d.s 			page 33


 552              		.cfi_endproc
 553              	.LFE7:
 554              		.size	find_link_endpoint_by_name, .-find_link_endpoint_by_name
 555              		.section	.text.remove_link_endpoint,"ax",%progbits
 556              		.align	2
 557              		.code	16
 558              		.thumb_func
 559              		.type	remove_link_endpoint, %function
 560              	remove_link_endpoint:
 561              	.LFB0:
  62:Source\azure_iot_sdk\uamqp\src/session.c ****     if (link_endpoint != NULL)
 562              		.loc 1 62 0
 563              		.cfi_startproc
 564              		@ args = 0, pretend = 0, frame = 0
 565              		@ frame_needed = 0, uses_anonymous_args = 0
 566              	.LVL84:
 567 0000 70B5     		push	{r4, r5, r6, lr}
 568              		.cfi_def_cfa_offset 16
 569              		.cfi_offset 4, -16
 570              		.cfi_offset 5, -12
 571              		.cfi_offset 6, -8
 572              		.cfi_offset 14, -4
  63:Source\azure_iot_sdk\uamqp\src/session.c ****     {
 573              		.loc 1 63 0
 574 0002 0028     		cmp	r0, #0
 575 0004 2FD0     		beq	.L42
 576              	.LVL85:
 577              	.LBB7:
  66:Source\azure_iot_sdk\uamqp\src/session.c ****         uint32_t i;
 578              		.loc 1 66 0
 579 0006 C469     		ldr	r4, [r0, #28]
 580              	.LVL86:
  69:Source\azure_iot_sdk\uamqp\src/session.c ****         {
 581              		.loc 1 69 0
 582 0008 0023     		movs	r3, #0
 583 000a 05E0     		b	.L44
 584              	.LVL87:
 585              	.L46:
  71:Source\azure_iot_sdk\uamqp\src/session.c ****             {
 586              		.loc 1 71 0
 587 000c 9900     		lsls	r1, r3, #2
 588 000e 6569     		ldr	r5, [r4, #20]
 589 0010 4959     		ldr	r1, [r1, r5]
 590 0012 8842     		cmp	r0, r1
 591 0014 03D0     		beq	.L45
  69:Source\azure_iot_sdk\uamqp\src/session.c ****         {
 592              		.loc 1 69 0 discriminator 2
 593 0016 0133     		adds	r3, r3, #1
 594              	.LVL88:
 595              	.L44:
  69:Source\azure_iot_sdk\uamqp\src/session.c ****         {
 596              		.loc 1 69 0 is_stmt 0 discriminator 1
 597 0018 A269     		ldr	r2, [r4, #24]
 598 001a 9342     		cmp	r3, r2
 599 001c F6D3     		bcc	.L46
 600              	.L45:
  77:Source\azure_iot_sdk\uamqp\src/session.c ****         {
ARM GAS  C:\Users\Phuong\AppData\Local\Temp\ccX7yw2d.s 			page 34


 601              		.loc 1 77 0 is_stmt 1
 602 001e 9342     		cmp	r3, r2
 603 0020 21D2     		bcs	.L42
 604              	.LBB8:
  81:Source\azure_iot_sdk\uamqp\src/session.c ****             {
 605              		.loc 1 81 0
 606 0022 511E     		subs	r1, r2, #1
 607 0024 8B42     		cmp	r3, r1
 608 0026 0CD2     		bcs	.L47
  83:Source\azure_iot_sdk\uamqp\src/session.c ****             }
 609              		.loc 1 83 0
 610 0028 6569     		ldr	r5, [r4, #20]
 611 002a 9800     		lsls	r0, r3, #2
 612              	.LVL89:
 613 002c 2818     		adds	r0, r5, r0
 614 002e 591C     		adds	r1, r3, #1
 615 0030 8900     		lsls	r1, r1, #2
 616 0032 6918     		adds	r1, r5, r1
 617 0034 D21A     		subs	r2, r2, r3
 618 0036 0C4B     		ldr	r3, .L49
 619              	.LVL90:
 620 0038 9C46     		mov	ip, r3
 621 003a 6244     		add	r2, r2, ip
 622 003c 9200     		lsls	r2, r2, #2
 623 003e FFF7FEFF 		bl	memmove
 624              	.LVL91:
 625              	.L47:
  86:Source\azure_iot_sdk\uamqp\src/session.c **** 
 626              		.loc 1 86 0
 627 0042 A369     		ldr	r3, [r4, #24]
 628 0044 591E     		subs	r1, r3, #1
 629 0046 A161     		str	r1, [r4, #24]
  88:Source\azure_iot_sdk\uamqp\src/session.c ****             {
 630              		.loc 1 88 0
 631 0048 0029     		cmp	r1, #0
 632 004a 05D1     		bne	.L48
  90:Source\azure_iot_sdk\uamqp\src/session.c ****                 session_instance->link_endpoints = NULL;
 633              		.loc 1 90 0
 634 004c 6069     		ldr	r0, [r4, #20]
 635 004e FFF7FEFF 		bl	free
 636              	.LVL92:
  91:Source\azure_iot_sdk\uamqp\src/session.c ****             }
 637              		.loc 1 91 0
 638 0052 0023     		movs	r3, #0
 639 0054 6361     		str	r3, [r4, #20]
 640 0056 06E0     		b	.L42
 641              	.L48:
  95:Source\azure_iot_sdk\uamqp\src/session.c ****                 if (new_endpoints != NULL)
 642              		.loc 1 95 0
 643 0058 8900     		lsls	r1, r1, #2
 644 005a 6069     		ldr	r0, [r4, #20]
 645 005c FFF7FEFF 		bl	realloc
 646              	.LVL93:
  96:Source\azure_iot_sdk\uamqp\src/session.c ****                 {
 647              		.loc 1 96 0
 648 0060 0028     		cmp	r0, #0
 649 0062 00D0     		beq	.L42
ARM GAS  C:\Users\Phuong\AppData\Local\Temp\ccX7yw2d.s 			page 35


  98:Source\azure_iot_sdk\uamqp\src/session.c ****                 }
 650              		.loc 1 98 0
 651 0064 6061     		str	r0, [r4, #20]
 652              	.LVL94:
 653              	.L42:
 654              	.LBE8:
 655              	.LBE7:
 103:Source\azure_iot_sdk\uamqp\src/session.c **** 
 656              		.loc 1 103 0
 657              		@ sp needed
 658 0066 70BD     		pop	{r4, r5, r6, pc}
 659              	.L50:
 660              		.align	2
 661              	.L49:
 662 0068 FFFFFF3F 		.word	1073741823
 663              		.cfi_endproc
 664              	.LFE0:
 665              		.size	remove_link_endpoint, .-remove_link_endpoint
 666              		.section	.text.send_flow,"ax",%progbits
 667              		.align	2
 668              		.code	16
 669              		.thumb_func
 670              		.type	send_flow, %function
 671              	send_flow:
 672              	.LFB6:
 257:Source\azure_iot_sdk\uamqp\src/session.c ****     int result;
 673              		.loc 1 257 0
 674              		.cfi_startproc
 675              		@ args = 0, pretend = 0, frame = 0
 676              		@ frame_needed = 0, uses_anonymous_args = 0
 677              	.LVL95:
 678 0000 70B5     		push	{r4, r5, r6, lr}
 679              		.cfi_def_cfa_offset 16
 680              		.cfi_offset 4, -16
 681              		.cfi_offset 5, -12
 682              		.cfi_offset 6, -8
 683              		.cfi_offset 14, -4
 684 0002 82B0     		sub	sp, sp, #8
 685              		.cfi_def_cfa_offset 24
 686 0004 041E     		subs	r4, r0, #0
 259:Source\azure_iot_sdk\uamqp\src/session.c ****     {
 687              		.loc 1 259 0
 688 0006 2BD0     		beq	.L55
 689              	.LBB9:
 265:Source\azure_iot_sdk\uamqp\src/session.c **** 
 690              		.loc 1 265 0
 691 0008 426B     		ldr	r2, [r0, #52]
 692 000a 416A     		ldr	r1, [r0, #36]
 693 000c 006B     		ldr	r0, [r0, #48]
 694              	.LVL96:
 695 000e FFF7FEFF 		bl	flow_create
 696              	.LVL97:
 697 0012 051E     		subs	r5, r0, #0
 698              	.LVL98:
 267:Source\azure_iot_sdk\uamqp\src/session.c ****         {
 699              		.loc 1 267 0
 700 0014 27D0     		beq	.L56
ARM GAS  C:\Users\Phuong\AppData\Local\Temp\ccX7yw2d.s 			page 36


 273:Source\azure_iot_sdk\uamqp\src/session.c ****             {
 701              		.loc 1 273 0
 702 0016 A16A     		ldr	r1, [r4, #40]
 703 0018 FFF7FEFF 		bl	flow_set_next_incoming_id
 704              	.LVL99:
 705 001c 0028     		cmp	r0, #0
 706 001e 16D1     		bne	.L57
 707              	.LBB10:
 279:Source\azure_iot_sdk\uamqp\src/session.c ****                 if (flow_performative_value == NULL)
 708              		.loc 1 279 0
 709 0020 2800     		movs	r0, r5
 710 0022 FFF7FEFF 		bl	amqpvalue_create_flow
 711              	.LVL100:
 712 0026 061E     		subs	r6, r0, #0
 713              	.LVL101:
 280:Source\azure_iot_sdk\uamqp\src/session.c ****                 {
 714              		.loc 1 280 0
 715 0028 14D0     		beq	.L58
 286:Source\azure_iot_sdk\uamqp\src/session.c ****                     {
 716              		.loc 1 286 0
 717 002a 2069     		ldr	r0, [r4, #16]
 718              	.LVL102:
 719 002c 0023     		movs	r3, #0
 720 002e 0193     		str	r3, [sp, #4]
 721 0030 0093     		str	r3, [sp]
 722 0032 0022     		movs	r2, #0
 723 0034 3100     		movs	r1, r6
 724 0036 FFF7FEFF 		bl	connection_encode_frame
 725              	.LVL103:
 726 003a 0028     		cmp	r0, #0
 727 003c 02D0     		beq	.L59
 288:Source\azure_iot_sdk\uamqp\src/session.c ****                     }
 728              		.loc 1 288 0
 729 003e 9024     		movs	r4, #144
 730              	.LVL104:
 731 0040 6400     		lsls	r4, r4, #1
 732 0042 00E0     		b	.L54
 733              	.LVL105:
 734              	.L59:
 292:Source\azure_iot_sdk\uamqp\src/session.c ****                     }
 735              		.loc 1 292 0
 736 0044 0024     		movs	r4, #0
 737              	.LVL106:
 738              	.L54:
 295:Source\azure_iot_sdk\uamqp\src/session.c ****                 }
 739              		.loc 1 295 0
 740 0046 3000     		movs	r0, r6
 741 0048 FFF7FEFF 		bl	amqpvalue_destroy
 742              	.LVL107:
 743 004c 04E0     		b	.L53
 744              	.LVL108:
 745              	.L57:
 746              	.LBE10:
 275:Source\azure_iot_sdk\uamqp\src/session.c ****             }
 747              		.loc 1 275 0
 748 004e 1424     		movs	r4, #20
 749              	.LVL109:
ARM GAS  C:\Users\Phuong\AppData\Local\Temp\ccX7yw2d.s 			page 37


 750 0050 FF34     		adds	r4, r4, #255
 751 0052 01E0     		b	.L53
 752              	.LVL110:
 753              	.L58:
 754              	.LBB11:
 282:Source\azure_iot_sdk\uamqp\src/session.c ****                 }
 755              		.loc 1 282 0
 756 0054 8D24     		movs	r4, #141
 757              	.LVL111:
 758 0056 6400     		lsls	r4, r4, #1
 759              	.LVL112:
 760              	.L53:
 761              	.LBE11:
 299:Source\azure_iot_sdk\uamqp\src/session.c ****         }
 762              		.loc 1 299 0
 763 0058 2800     		movs	r0, r5
 764 005a FFF7FEFF 		bl	flow_destroy
 765              	.LVL113:
 766 005e 04E0     		b	.L52
 767              	.LVL114:
 768              	.L55:
 769              	.LBE9:
 261:Source\azure_iot_sdk\uamqp\src/session.c ****     }
 770              		.loc 1 261 0
 771 0060 0624     		movs	r4, #6
 772 0062 FF34     		adds	r4, r4, #255
 773 0064 01E0     		b	.L52
 774              	.LVL115:
 775              	.L56:
 776              	.LBB12:
 269:Source\azure_iot_sdk\uamqp\src/session.c ****         }
 777              		.loc 1 269 0
 778 0066 0E24     		movs	r4, #14
 779              	.LVL116:
 780 0068 FF34     		adds	r4, r4, #255
 781              	.LVL117:
 782              	.L52:
 783              	.LBE12:
 304:Source\azure_iot_sdk\uamqp\src/session.c **** 
 784              		.loc 1 304 0
 785 006a 2000     		movs	r0, r4
 786 006c 02B0     		add	sp, sp, #8
 787              		@ sp needed
 788              	.LVL118:
 789 006e 70BD     		pop	{r4, r5, r6, pc}
 790              		.cfi_endproc
 791              	.LFE6:
 792              		.size	send_flow, .-send_flow
 793              		.section	.text.send_end_frame,"ax",%progbits
 794              		.align	2
 795              		.code	16
 796              		.thumb_func
 797              		.type	send_end_frame, %function
 798              	send_end_frame:
 799              	.LFB3:
 135:Source\azure_iot_sdk\uamqp\src/session.c ****     int result;
 800              		.loc 1 135 0
ARM GAS  C:\Users\Phuong\AppData\Local\Temp\ccX7yw2d.s 			page 38


 801              		.cfi_startproc
 802              		@ args = 0, pretend = 0, frame = 0
 803              		@ frame_needed = 0, uses_anonymous_args = 0
 804              	.LVL119:
 805 0000 F0B5     		push	{r4, r5, r6, r7, lr}
 806              		.cfi_def_cfa_offset 20
 807              		.cfi_offset 4, -20
 808              		.cfi_offset 5, -16
 809              		.cfi_offset 6, -12
 810              		.cfi_offset 7, -8
 811              		.cfi_offset 14, -4
 812 0002 83B0     		sub	sp, sp, #12
 813              		.cfi_def_cfa_offset 32
 814 0004 0700     		movs	r7, r0
 815 0006 0D00     		movs	r5, r1
 139:Source\azure_iot_sdk\uamqp\src/session.c ****     if (end_performative == NULL)
 816              		.loc 1 139 0
 817 0008 FFF7FEFF 		bl	end_create
 818              	.LVL120:
 819 000c 041E     		subs	r4, r0, #0
 820              	.LVL121:
 140:Source\azure_iot_sdk\uamqp\src/session.c ****     {
 821              		.loc 1 140 0
 822 000e 23D0     		beq	.L65
 146:Source\azure_iot_sdk\uamqp\src/session.c ****             (end_set_error(end_performative, error_handle) != 0))
 823              		.loc 1 146 0
 824 0010 002D     		cmp	r5, #0
 825 0012 04D0     		beq	.L62
 147:Source\azure_iot_sdk\uamqp\src/session.c ****         {
 826              		.loc 1 147 0 discriminator 1
 827 0014 2900     		movs	r1, r5
 828 0016 FFF7FEFF 		bl	end_set_error
 829              	.LVL122:
 146:Source\azure_iot_sdk\uamqp\src/session.c ****             (end_set_error(end_performative, error_handle) != 0))
 830              		.loc 1 146 0 discriminator 1
 831 001a 0028     		cmp	r0, #0
 832 001c 15D1     		bne	.L66
 833              	.L62:
 834              	.LBB13:
 153:Source\azure_iot_sdk\uamqp\src/session.c ****             if (end_performative_value == NULL)
 835              		.loc 1 153 0
 836 001e 2000     		movs	r0, r4
 837 0020 FFF7FEFF 		bl	amqpvalue_create_end
 838              	.LVL123:
 839 0024 061E     		subs	r6, r0, #0
 840              	.LVL124:
 154:Source\azure_iot_sdk\uamqp\src/session.c ****             {
 841              		.loc 1 154 0
 842 0026 12D0     		beq	.L67
 160:Source\azure_iot_sdk\uamqp\src/session.c ****                 {
 843              		.loc 1 160 0
 844 0028 3869     		ldr	r0, [r7, #16]
 845              	.LVL125:
 846 002a 0023     		movs	r3, #0
 847 002c 0193     		str	r3, [sp, #4]
 848 002e 0093     		str	r3, [sp]
 849 0030 0022     		movs	r2, #0
ARM GAS  C:\Users\Phuong\AppData\Local\Temp\ccX7yw2d.s 			page 39


 850 0032 3100     		movs	r1, r6
 851 0034 FFF7FEFF 		bl	connection_encode_frame
 852              	.LVL126:
 853 0038 0028     		cmp	r0, #0
 854 003a 01D0     		beq	.L68
 162:Source\azure_iot_sdk\uamqp\src/session.c ****                 }
 855              		.loc 1 162 0
 856 003c A225     		movs	r5, #162
 857              	.LVL127:
 858 003e 00E0     		b	.L64
 859              	.LVL128:
 860              	.L68:
 166:Source\azure_iot_sdk\uamqp\src/session.c ****                 }
 861              		.loc 1 166 0
 862 0040 0025     		movs	r5, #0
 863              	.LVL129:
 864              	.L64:
 169:Source\azure_iot_sdk\uamqp\src/session.c ****             }
 865              		.loc 1 169 0
 866 0042 3000     		movs	r0, r6
 867 0044 FFF7FEFF 		bl	amqpvalue_destroy
 868              	.LVL130:
 869 0048 02E0     		b	.L63
 870              	.LVL131:
 871              	.L66:
 872              	.LBE13:
 149:Source\azure_iot_sdk\uamqp\src/session.c ****         }
 873              		.loc 1 149 0
 874 004a 9525     		movs	r5, #149
 875              	.LVL132:
 876 004c 00E0     		b	.L63
 877              	.LVL133:
 878              	.L67:
 879              	.LBB14:
 156:Source\azure_iot_sdk\uamqp\src/session.c ****             }
 880              		.loc 1 156 0
 881 004e 9C25     		movs	r5, #156
 882              	.LVL134:
 883              	.L63:
 884              	.LBE14:
 173:Source\azure_iot_sdk\uamqp\src/session.c ****     }
 885              		.loc 1 173 0
 886 0050 2000     		movs	r0, r4
 887 0052 FFF7FEFF 		bl	end_destroy
 888              	.LVL135:
 889 0056 00E0     		b	.L61
 890              	.LVL136:
 891              	.L65:
 142:Source\azure_iot_sdk\uamqp\src/session.c ****     }
 892              		.loc 1 142 0
 893 0058 8E25     		movs	r5, #142
 894              	.LVL137:
 895              	.L61:
 177:Source\azure_iot_sdk\uamqp\src/session.c **** 
 896              		.loc 1 177 0
 897 005a 2800     		movs	r0, r5
 898 005c 03B0     		add	sp, sp, #12
ARM GAS  C:\Users\Phuong\AppData\Local\Temp\ccX7yw2d.s 			page 40


 899              		@ sp needed
 900              	.LVL138:
 901              	.LVL139:
 902              	.LVL140:
 903 005e F0BD     		pop	{r4, r5, r6, r7, pc}
 904              		.cfi_endproc
 905              	.LFE3:
 906              		.size	send_end_frame, .-send_end_frame
 907              		.section	.text.end_session_with_error,"ax",%progbits
 908              		.align	2
 909              		.code	16
 910              		.thumb_func
 911              		.type	end_session_with_error, %function
 912              	end_session_with_error:
 913              	.LFB4:
 180:Source\azure_iot_sdk\uamqp\src/session.c ****     ERROR_HANDLE error_handle = error_create(condition_value);
 914              		.loc 1 180 0
 915              		.cfi_startproc
 916              		@ args = 0, pretend = 0, frame = 0
 917              		@ frame_needed = 0, uses_anonymous_args = 0
 918              	.LVL141:
 919 0000 70B5     		push	{r4, r5, r6, lr}
 920              		.cfi_def_cfa_offset 16
 921              		.cfi_offset 4, -16
 922              		.cfi_offset 5, -12
 923              		.cfi_offset 6, -8
 924              		.cfi_offset 14, -4
 925 0002 0500     		movs	r5, r0
 926 0004 1600     		movs	r6, r2
 181:Source\azure_iot_sdk\uamqp\src/session.c ****     if (error_handle == NULL)
 927              		.loc 1 181 0
 928 0006 0800     		movs	r0, r1
 929              	.LVL142:
 930 0008 FFF7FEFF 		bl	error_create
 931              	.LVL143:
 932 000c 041E     		subs	r4, r0, #0
 933              	.LVL144:
 182:Source\azure_iot_sdk\uamqp\src/session.c ****     {
 934              		.loc 1 182 0
 935 000e 0AD1     		bne	.L70
 185:Source\azure_iot_sdk\uamqp\src/session.c ****         (void)connection_close(session_instance->connection, "amqp:internal-error", "Cannot allocat
 936              		.loc 1 185 0
 937 0010 0621     		movs	r1, #6
 938 0012 2800     		movs	r0, r5
 939              	.LVL145:
 940 0014 FFF7FEFF 		bl	session_set_state
 941              	.LVL146:
 186:Source\azure_iot_sdk\uamqp\src/session.c ****     }
 942              		.loc 1 186 0
 943 0018 E868     		ldr	r0, [r5, #12]
 944 001a 0023     		movs	r3, #0
 945 001c 114A     		ldr	r2, .L75
 946 001e 1249     		ldr	r1, .L75+4
 947 0020 FFF7FEFF 		bl	connection_close
 948              	.LVL147:
 949 0024 1CE0     		b	.L69
 950              	.LVL148:
ARM GAS  C:\Users\Phuong\AppData\Local\Temp\ccX7yw2d.s 			page 41


 951              	.L70:
 190:Source\azure_iot_sdk\uamqp\src/session.c ****             (send_end_frame(session_instance, error_handle) != 0))
 952              		.loc 1 190 0
 953 0026 3100     		movs	r1, r6
 954 0028 FFF7FEFF 		bl	error_set_description
 955              	.LVL149:
 956 002c 0028     		cmp	r0, #0
 957 002e 05D1     		bne	.L72
 191:Source\azure_iot_sdk\uamqp\src/session.c ****         {
 958              		.loc 1 191 0 discriminator 1
 959 0030 2100     		movs	r1, r4
 960 0032 2800     		movs	r0, r5
 961 0034 FFF7FEFF 		bl	send_end_frame
 962              	.LVL150:
 190:Source\azure_iot_sdk\uamqp\src/session.c ****             (send_end_frame(session_instance, error_handle) != 0))
 963              		.loc 1 190 0 discriminator 1
 964 0038 0028     		cmp	r0, #0
 965 003a 0AD0     		beq	.L73
 966              	.L72:
 194:Source\azure_iot_sdk\uamqp\src/session.c ****             (void)connection_close(session_instance->connection, "amqp:internal-error", "Cannot all
 967              		.loc 1 194 0
 968 003c 0621     		movs	r1, #6
 969 003e 2800     		movs	r0, r5
 970 0040 FFF7FEFF 		bl	session_set_state
 971              	.LVL151:
 195:Source\azure_iot_sdk\uamqp\src/session.c ****         }
 972              		.loc 1 195 0
 973 0044 E868     		ldr	r0, [r5, #12]
 974 0046 0023     		movs	r3, #0
 975 0048 064A     		ldr	r2, .L75
 976 004a 0749     		ldr	r1, .L75+4
 977 004c FFF7FEFF 		bl	connection_close
 978              	.LVL152:
 979 0050 03E0     		b	.L74
 980              	.L73:
 199:Source\azure_iot_sdk\uamqp\src/session.c ****         }
 981              		.loc 1 199 0
 982 0052 0621     		movs	r1, #6
 983 0054 2800     		movs	r0, r5
 984 0056 FFF7FEFF 		bl	session_set_state
 985              	.LVL153:
 986              	.L74:
 202:Source\azure_iot_sdk\uamqp\src/session.c ****     }
 987              		.loc 1 202 0
 988 005a 2000     		movs	r0, r4
 989 005c FFF7FEFF 		bl	error_destroy
 990              	.LVL154:
 991              	.L69:
 204:Source\azure_iot_sdk\uamqp\src/session.c **** 
 992              		.loc 1 204 0
 993              		@ sp needed
 994              	.LVL155:
 995              	.LVL156:
 996              	.LVL157:
 997 0060 70BD     		pop	{r4, r5, r6, pc}
 998              	.L76:
 999 0062 C046     		.align	2
ARM GAS  C:\Users\Phuong\AppData\Local\Temp\ccX7yw2d.s 			page 42


 1000              	.L75:
 1001 0064 00000000 		.word	.LC0
 1002 0068 2C000000 		.word	.LC2
 1003              		.cfi_endproc
 1004              	.LFE4:
 1005              		.size	end_session_with_error, .-end_session_with_error
 1006              		.section	.text.session_create,"ax",%progbits
 1007              		.align	2
 1008              		.global	session_create
 1009              		.code	16
 1010              		.thumb_func
 1011              		.type	session_create, %function
 1012              	session_create:
 1013              	.LFB11:
 717:Source\azure_iot_sdk\uamqp\src/session.c ****     SESSION_INSTANCE* result;
 1014              		.loc 1 717 0
 1015              		.cfi_startproc
 1016              		@ args = 0, pretend = 0, frame = 0
 1017              		@ frame_needed = 0, uses_anonymous_args = 0
 1018              	.LVL158:
 1019 0000 F8B5     		push	{r3, r4, r5, r6, r7, lr}
 1020              		.cfi_def_cfa_offset 24
 1021              		.cfi_offset 3, -24
 1022              		.cfi_offset 4, -20
 1023              		.cfi_offset 5, -16
 1024              		.cfi_offset 6, -12
 1025              		.cfi_offset 7, -8
 1026              		.cfi_offset 14, -4
 1027 0002 0700     		movs	r7, r0
 1028 0004 0E00     		movs	r6, r1
 1029 0006 1500     		movs	r5, r2
 720:Source\azure_iot_sdk\uamqp\src/session.c ****     {
 1030              		.loc 1 720 0
 1031 0008 0028     		cmp	r0, #0
 1032 000a 2AD0     		beq	.L80
 728:Source\azure_iot_sdk\uamqp\src/session.c ****         /* Codes_S_R_S_SESSION_01_042: [If allocating memory for the session fails, session_create 
 1033              		.loc 1 728 0
 1034 000c 4820     		movs	r0, #72
 1035              	.LVL159:
 1036 000e FFF7FEFF 		bl	malloc
 1037              	.LVL160:
 1038 0012 041E     		subs	r4, r0, #0
 1039              	.LVL161:
 730:Source\azure_iot_sdk\uamqp\src/session.c ****         {
 1040              		.loc 1 730 0
 1041 0014 26D0     		beq	.L78
 732:Source\azure_iot_sdk\uamqp\src/session.c ****             result->link_endpoints = NULL;
 1042              		.loc 1 732 0
 1043 0016 C760     		str	r7, [r0, #12]
 733:Source\azure_iot_sdk\uamqp\src/session.c ****             result->link_endpoint_count = 0;
 1044              		.loc 1 733 0
 1045 0018 0023     		movs	r3, #0
 1046 001a 4361     		str	r3, [r0, #20]
 734:Source\azure_iot_sdk\uamqp\src/session.c ****             result->handle_max = 4294967295u;
 1047              		.loc 1 734 0
 1048 001c 8361     		str	r3, [r0, #24]
 735:Source\azure_iot_sdk\uamqp\src/session.c **** 
ARM GAS  C:\Users\Phuong\AppData\Local\Temp\ccX7yw2d.s 			page 43


 1049              		.loc 1 735 0
 1050 001e 0122     		movs	r2, #1
 1051 0020 5242     		rsbs	r2, r2, #0
 1052 0022 8263     		str	r2, [r0, #56]
 739:Source\azure_iot_sdk\uamqp\src/session.c **** 
 1053              		.loc 1 739 0
 1054 0024 4362     		str	r3, [r0, #36]
 741:Source\azure_iot_sdk\uamqp\src/session.c ****             result->incoming_window = 1;
 1055              		.loc 1 741 0
 1056 0026 0232     		adds	r2, r2, #2
 1057 0028 C262     		str	r2, [r0, #44]
 742:Source\azure_iot_sdk\uamqp\src/session.c ****             result->outgoing_window = 1;
 1058              		.loc 1 742 0
 1059 002a 0263     		str	r2, [r0, #48]
 743:Source\azure_iot_sdk\uamqp\src/session.c ****             result->handle_max = 4294967295u;
 1060              		.loc 1 743 0
 1061 002c 4263     		str	r2, [r0, #52]
 745:Source\azure_iot_sdk\uamqp\src/session.c ****             result->remote_outgoing_window = 0;
 1062              		.loc 1 745 0
 1063 002e C363     		str	r3, [r0, #60]
 746:Source\azure_iot_sdk\uamqp\src/session.c ****             result->previous_session_state = SESSION_STATE_UNMAPPED;
 1064              		.loc 1 746 0
 1065 0030 0364     		str	r3, [r0, #64]
 747:Source\azure_iot_sdk\uamqp\src/session.c ****             result->is_underlying_connection_open = UNDERLYING_CONNECTION_NOT_OPEN;
 1066              		.loc 1 747 0
 1067 0032 4372     		strb	r3, [r0, #9]
 748:Source\azure_iot_sdk\uamqp\src/session.c ****             result->session_state = SESSION_STATE_UNMAPPED;
 1068              		.loc 1 748 0
 1069 0034 4420     		movs	r0, #68
 1070              	.LVL162:
 1071 0036 215C     		ldrb	r1, [r4, r0]
 1072 0038 9143     		bics	r1, r2
 1073 003a 2154     		strb	r1, [r4, r0]
 749:Source\azure_iot_sdk\uamqp\src/session.c ****             result->on_link_attached = on_link_attached;
 1074              		.loc 1 749 0
 1075 003c 2372     		strb	r3, [r4, #8]
 750:Source\azure_iot_sdk\uamqp\src/session.c ****             result->on_link_attached_callback_context = callback_context;
 1076              		.loc 1 750 0
 1077 003e E661     		str	r6, [r4, #28]
 751:Source\azure_iot_sdk\uamqp\src/session.c **** 
 1078              		.loc 1 751 0
 1079 0040 2562     		str	r5, [r4, #32]
 754:Source\azure_iot_sdk\uamqp\src/session.c ****             if (result->endpoint == NULL)
 1080              		.loc 1 754 0
 1081 0042 3800     		movs	r0, r7
 1082 0044 FFF7FEFF 		bl	connection_create_endpoint
 1083              	.LVL163:
 1084 0048 2061     		str	r0, [r4, #16]
 755:Source\azure_iot_sdk\uamqp\src/session.c ****             {
 1085              		.loc 1 755 0
 1086 004a 0028     		cmp	r0, #0
 1087 004c 04D1     		bne	.L79
 758:Source\azure_iot_sdk\uamqp\src/session.c ****                 result = NULL;
 1088              		.loc 1 758 0
 1089 004e 2000     		movs	r0, r4
 1090 0050 FFF7FEFF 		bl	free
 1091              	.LVL164:
ARM GAS  C:\Users\Phuong\AppData\Local\Temp\ccX7yw2d.s 			page 44


 759:Source\azure_iot_sdk\uamqp\src/session.c ****             }
 1092              		.loc 1 759 0
 1093 0054 0024     		movs	r4, #0
 1094 0056 05E0     		b	.L78
 1095              	.LVL165:
 1096              	.L79:
 763:Source\azure_iot_sdk\uamqp\src/session.c ****             }
 1097              		.loc 1 763 0
 1098 0058 0021     		movs	r1, #0
 1099 005a 2000     		movs	r0, r4
 1100 005c FFF7FEFF 		bl	session_set_state
 1101              	.LVL166:
 1102 0060 00E0     		b	.L78
 1103              	.LVL167:
 1104              	.L80:
 723:Source\azure_iot_sdk\uamqp\src/session.c ****     }
 1105              		.loc 1 723 0
 1106 0062 0024     		movs	r4, #0
 1107              	.LVL168:
 1108              	.L78:
 769:Source\azure_iot_sdk\uamqp\src/session.c **** 
 1109              		.loc 1 769 0
 1110 0064 2000     		movs	r0, r4
 1111              		@ sp needed
 1112              	.LVL169:
 1113              	.LVL170:
 1114              	.LVL171:
 1115              	.LVL172:
 1116 0066 F8BD     		pop	{r3, r4, r5, r6, r7, pc}
 1117              		.cfi_endproc
 1118              	.LFE11:
 1119              		.size	session_create, .-session_create
 1120              		.section	.text.session_create_from_endpoint,"ax",%progbits
 1121              		.align	2
 1122              		.global	session_create_from_endpoint
 1123              		.code	16
 1124              		.thumb_func
 1125              		.type	session_create_from_endpoint, %function
 1126              	session_create_from_endpoint:
 1127              	.LFB12:
 772:Source\azure_iot_sdk\uamqp\src/session.c ****     SESSION_INSTANCE* result;
 1128              		.loc 1 772 0
 1129              		.cfi_startproc
 1130              		@ args = 0, pretend = 0, frame = 8
 1131              		@ frame_needed = 0, uses_anonymous_args = 0
 1132              	.LVL173:
 1133 0000 F0B5     		push	{r4, r5, r6, r7, lr}
 1134              		.cfi_def_cfa_offset 20
 1135              		.cfi_offset 4, -20
 1136              		.cfi_offset 5, -16
 1137              		.cfi_offset 6, -12
 1138              		.cfi_offset 7, -8
 1139              		.cfi_offset 14, -4
 1140 0002 83B0     		sub	sp, sp, #12
 1141              		.cfi_def_cfa_offset 32
 1142 0004 0700     		movs	r7, r0
 1143 0006 0D00     		movs	r5, r1
ARM GAS  C:\Users\Phuong\AppData\Local\Temp\ccX7yw2d.s 			page 45


 1144 0008 1600     		movs	r6, r2
 1145 000a 0193     		str	r3, [sp, #4]
 775:Source\azure_iot_sdk\uamqp\src/session.c ****     {
 1146              		.loc 1 775 0
 1147 000c 0029     		cmp	r1, #0
 1148 000e 21D0     		beq	.L83
 781:Source\azure_iot_sdk\uamqp\src/session.c ****         if (result != NULL)
 1149              		.loc 1 781 0
 1150 0010 4820     		movs	r0, #72
 1151              	.LVL174:
 1152 0012 FFF7FEFF 		bl	malloc
 1153              	.LVL175:
 1154 0016 041E     		subs	r4, r0, #0
 1155              	.LVL176:
 782:Source\azure_iot_sdk\uamqp\src/session.c ****         {
 1156              		.loc 1 782 0
 1157 0018 1DD0     		beq	.L82
 784:Source\azure_iot_sdk\uamqp\src/session.c ****             result->link_endpoints = NULL;
 1158              		.loc 1 784 0
 1159 001a C760     		str	r7, [r0, #12]
 785:Source\azure_iot_sdk\uamqp\src/session.c ****             result->link_endpoint_count = 0;
 1160              		.loc 1 785 0
 1161 001c 0023     		movs	r3, #0
 1162 001e 4361     		str	r3, [r0, #20]
 786:Source\azure_iot_sdk\uamqp\src/session.c ****             result->handle_max = 4294967295u;
 1163              		.loc 1 786 0
 1164 0020 8361     		str	r3, [r0, #24]
 787:Source\azure_iot_sdk\uamqp\src/session.c **** 
 1165              		.loc 1 787 0
 1166 0022 0122     		movs	r2, #1
 1167 0024 5242     		rsbs	r2, r2, #0
 1168 0026 8263     		str	r2, [r0, #56]
 789:Source\azure_iot_sdk\uamqp\src/session.c **** 
 1169              		.loc 1 789 0
 1170 0028 4362     		str	r3, [r0, #36]
 791:Source\azure_iot_sdk\uamqp\src/session.c ****             result->incoming_window = 1;
 1171              		.loc 1 791 0
 1172 002a 0232     		adds	r2, r2, #2
 1173 002c C262     		str	r2, [r0, #44]
 792:Source\azure_iot_sdk\uamqp\src/session.c ****             result->outgoing_window = 1;
 1174              		.loc 1 792 0
 1175 002e 0263     		str	r2, [r0, #48]
 793:Source\azure_iot_sdk\uamqp\src/session.c ****             result->handle_max = 4294967295u;
 1176              		.loc 1 793 0
 1177 0030 4263     		str	r2, [r0, #52]
 795:Source\azure_iot_sdk\uamqp\src/session.c ****             result->remote_outgoing_window = 0;
 1178              		.loc 1 795 0
 1179 0032 C363     		str	r3, [r0, #60]
 796:Source\azure_iot_sdk\uamqp\src/session.c ****             result->previous_session_state = SESSION_STATE_UNMAPPED;
 1180              		.loc 1 796 0
 1181 0034 0364     		str	r3, [r0, #64]
 797:Source\azure_iot_sdk\uamqp\src/session.c ****             result->is_underlying_connection_open = UNDERLYING_CONNECTION_NOT_OPEN;
 1182              		.loc 1 797 0
 1183 0036 4372     		strb	r3, [r0, #9]
 798:Source\azure_iot_sdk\uamqp\src/session.c ****             result->session_state = SESSION_STATE_UNMAPPED;
 1184              		.loc 1 798 0
 1185 0038 4420     		movs	r0, #68
ARM GAS  C:\Users\Phuong\AppData\Local\Temp\ccX7yw2d.s 			page 46


 1186              	.LVL177:
 1187 003a 215C     		ldrb	r1, [r4, r0]
 1188 003c 9143     		bics	r1, r2
 1189 003e 2154     		strb	r1, [r4, r0]
 799:Source\azure_iot_sdk\uamqp\src/session.c ****             result->on_link_attached = on_link_attached;
 1190              		.loc 1 799 0
 1191 0040 2372     		strb	r3, [r4, #8]
 800:Source\azure_iot_sdk\uamqp\src/session.c ****             result->on_link_attached_callback_context = callback_context;
 1192              		.loc 1 800 0
 1193 0042 E661     		str	r6, [r4, #28]
 801:Source\azure_iot_sdk\uamqp\src/session.c **** 
 1194              		.loc 1 801 0
 1195 0044 019B     		ldr	r3, [sp, #4]
 1196 0046 2362     		str	r3, [r4, #32]
 803:Source\azure_iot_sdk\uamqp\src/session.c ****             session_set_state(result, SESSION_STATE_UNMAPPED);
 1197              		.loc 1 803 0
 1198 0048 2561     		str	r5, [r4, #16]
 804:Source\azure_iot_sdk\uamqp\src/session.c ****         }
 1199              		.loc 1 804 0
 1200 004a 0021     		movs	r1, #0
 1201 004c 2000     		movs	r0, r4
 1202 004e FFF7FEFF 		bl	session_set_state
 1203              	.LVL178:
 1204 0052 00E0     		b	.L82
 1205              	.LVL179:
 1206              	.L83:
 777:Source\azure_iot_sdk\uamqp\src/session.c ****     }
 1207              		.loc 1 777 0
 1208 0054 0024     		movs	r4, #0
 1209              	.LVL180:
 1210              	.L82:
 809:Source\azure_iot_sdk\uamqp\src/session.c **** 
 1211              		.loc 1 809 0
 1212 0056 2000     		movs	r0, r4
 1213 0058 03B0     		add	sp, sp, #12
 1214              		@ sp needed
 1215              	.LVL181:
 1216              	.LVL182:
 1217              	.LVL183:
 1218              	.LVL184:
 1219 005a F0BD     		pop	{r4, r5, r6, r7, pc}
 1220              		.cfi_endproc
 1221              	.LFE12:
 1222              		.size	session_create_from_endpoint, .-session_create_from_endpoint
 1223              		.section	.text.session_begin,"ax",%progbits
 1224              		.align	2
 1225              		.global	session_begin
 1226              		.code	16
 1227              		.thumb_func
 1228              		.type	session_begin, %function
 1229              	session_begin:
 1230              	.LFB14:
 833:Source\azure_iot_sdk\uamqp\src/session.c ****     int result;
 1231              		.loc 1 833 0
 1232              		.cfi_startproc
 1233              		@ args = 0, pretend = 0, frame = 0
 1234              		@ frame_needed = 0, uses_anonymous_args = 0
ARM GAS  C:\Users\Phuong\AppData\Local\Temp\ccX7yw2d.s 			page 47


 1235              	.LVL185:
 1236 0000 10B5     		push	{r4, lr}
 1237              		.cfi_def_cfa_offset 8
 1238              		.cfi_offset 4, -8
 1239              		.cfi_offset 14, -4
 1240 0002 041E     		subs	r4, r0, #0
 836:Source\azure_iot_sdk\uamqp\src/session.c ****     {
 1241              		.loc 1 836 0
 1242 0004 1ED0     		beq	.L87
 1243              	.LVL186:
 1244              	.LBB15:
 844:Source\azure_iot_sdk\uamqp\src/session.c ****         {
 1245              		.loc 1 844 0
 1246 0006 0300     		movs	r3, r0
 1247 0008 114A     		ldr	r2, .L90
 1248 000a 1249     		ldr	r1, .L90+4
 1249 000c 0069     		ldr	r0, [r0, #16]
 1250              	.LVL187:
 1251 000e FFF7FEFF 		bl	connection_start_endpoint
 1252              	.LVL188:
 1253 0012 0028     		cmp	r0, #0
 1254 0014 18D1     		bne	.L88
 850:Source\azure_iot_sdk\uamqp\src/session.c ****             {
 1255              		.loc 1 850 0
 1256 0016 4423     		movs	r3, #68
 1257 0018 E35C     		ldrb	r3, [r4, r3]
 1258 001a DB07     		lsls	r3, r3, #31
 1259 001c 16D4     		bmi	.L89
 852:Source\azure_iot_sdk\uamqp\src/session.c ****                 {
 1260              		.loc 1 852 0
 1261 001e E068     		ldr	r0, [r4, #12]
 1262 0020 FFF7FEFF 		bl	connection_open
 1263              	.LVL189:
 1264 0024 0028     		cmp	r0, #0
 1265 0026 06D0     		beq	.L86
 854:Source\azure_iot_sdk\uamqp\src/session.c ****                     result = __FAILURE__;
 1266              		.loc 1 854 0
 1267 0028 4422     		movs	r2, #68
 1268 002a A35C     		ldrb	r3, [r4, r2]
 1269 002c 0121     		movs	r1, #1
 1270 002e 8B43     		bics	r3, r1
 1271 0030 A354     		strb	r3, [r4, r2]
 1272              	.LVL190:
 855:Source\azure_iot_sdk\uamqp\src/session.c ****                 }
 1273              		.loc 1 855 0
 1274 0032 0948     		ldr	r0, .L90+8
 1275 0034 0BE0     		b	.L85
 1276              	.LVL191:
 1277              	.L86:
 859:Source\azure_iot_sdk\uamqp\src/session.c ****                     result = 0;
 1278              		.loc 1 859 0
 1279 0036 4422     		movs	r2, #68
 1280 0038 A15C     		ldrb	r1, [r4, r2]
 1281 003a 0123     		movs	r3, #1
 1282 003c 0B43     		orrs	r3, r1
 1283 003e A354     		strb	r3, [r4, r2]
 1284              	.LVL192:
ARM GAS  C:\Users\Phuong\AppData\Local\Temp\ccX7yw2d.s 			page 48


 860:Source\azure_iot_sdk\uamqp\src/session.c ****                 }
 1285              		.loc 1 860 0
 1286 0040 0020     		movs	r0, #0
 1287 0042 04E0     		b	.L85
 1288              	.LVL193:
 1289              	.L87:
 1290              	.LBE15:
 838:Source\azure_iot_sdk\uamqp\src/session.c ****     }
 1291              		.loc 1 838 0
 1292 0044 0548     		ldr	r0, .L90+12
 1293              	.LVL194:
 1294 0046 02E0     		b	.L85
 1295              	.LVL195:
 1296              	.L88:
 1297              	.LBB16:
 846:Source\azure_iot_sdk\uamqp\src/session.c ****         }
 1298              		.loc 1 846 0
 1299 0048 0548     		ldr	r0, .L90+16
 1300 004a 00E0     		b	.L85
 1301              	.L89:
 865:Source\azure_iot_sdk\uamqp\src/session.c ****             }
 1302              		.loc 1 865 0
 1303 004c 0020     		movs	r0, #0
 1304              	.LVL196:
 1305              	.L85:
 1306              	.LBE16:
 871:Source\azure_iot_sdk\uamqp\src/session.c **** 
 1307              		.loc 1 871 0
 1308              		@ sp needed
 1309              	.LVL197:
 1310 004e 10BD     		pop	{r4, pc}
 1311              	.L91:
 1312              		.align	2
 1313              	.L90:
 1314 0050 00000000 		.word	on_connection_state_changed
 1315 0054 00000000 		.word	on_frame_received
 1316 0058 57030000 		.word	855
 1317 005c 46030000 		.word	838
 1318 0060 4E030000 		.word	846
 1319              		.cfi_endproc
 1320              	.LFE14:
 1321              		.size	session_begin, .-session_begin
 1322              		.section	.text.session_end,"ax",%progbits
 1323              		.align	2
 1324              		.global	session_end
 1325              		.code	16
 1326              		.thumb_func
 1327              		.type	session_end, %function
 1328              	session_end:
 1329              	.LFB15:
 874:Source\azure_iot_sdk\uamqp\src/session.c ****     int result;
 1330              		.loc 1 874 0
 1331              		.cfi_startproc
 1332              		@ args = 0, pretend = 0, frame = 0
 1333              		@ frame_needed = 0, uses_anonymous_args = 0
 1334              	.LVL198:
 1335 0000 F8B5     		push	{r3, r4, r5, r6, r7, lr}
ARM GAS  C:\Users\Phuong\AppData\Local\Temp\ccX7yw2d.s 			page 49


 1336              		.cfi_def_cfa_offset 24
 1337              		.cfi_offset 3, -24
 1338              		.cfi_offset 4, -20
 1339              		.cfi_offset 5, -16
 1340              		.cfi_offset 6, -12
 1341              		.cfi_offset 7, -8
 1342              		.cfi_offset 14, -4
 1343 0002 0500     		movs	r5, r0
 1344 0004 1400     		movs	r4, r2
 877:Source\azure_iot_sdk\uamqp\src/session.c ****     {
 1345              		.loc 1 877 0
 1346 0006 0028     		cmp	r0, #0
 1347 0008 3ED0     		beq	.L99
 1348              	.LVL199:
 1349              	.LBB17:
 886:Source\azure_iot_sdk\uamqp\src/session.c ****             (session_instance->session_state != SESSION_STATE_DISCARDING))
 1350              		.loc 1 886 0
 1351 000a 037A     		ldrb	r3, [r0, #8]
 1352 000c 002B     		cmp	r3, #0
 1353 000e 2AD0     		beq	.L100
 886:Source\azure_iot_sdk\uamqp\src/session.c ****             (session_instance->session_state != SESSION_STATE_DISCARDING))
 1354              		.loc 1 886 0 is_stmt 0 discriminator 1
 1355 0010 062B     		cmp	r3, #6
 1356 0012 2AD0     		beq	.L101
 1357              	.LVL200:
 1358              	.LBB18:
 892:Source\azure_iot_sdk\uamqp\src/session.c ****             {
 1359              		.loc 1 892 0 is_stmt 1
 1360 0014 0029     		cmp	r1, #0
 1361 0016 0BD0     		beq	.L102
 894:Source\azure_iot_sdk\uamqp\src/session.c ****                 if (error_handle == NULL)
 1362              		.loc 1 894 0
 1363 0018 0800     		movs	r0, r1
 1364              	.LVL201:
 1365 001a FFF7FEFF 		bl	error_create
 1366              	.LVL202:
 1367 001e 071E     		subs	r7, r0, #0
 1368              	.LVL203:
 895:Source\azure_iot_sdk\uamqp\src/session.c ****                 {
 1369              		.loc 1 895 0
 1370 0020 09D0     		beq	.L103
 901:Source\azure_iot_sdk\uamqp\src/session.c ****                     {
 1371              		.loc 1 901 0
 1372 0022 2100     		movs	r1, r4
 1373 0024 FFF7FEFF 		bl	error_set_description
 1374              	.LVL204:
 1375 0028 0028     		cmp	r0, #0
 1376 002a 06D1     		bne	.L104
 890:Source\azure_iot_sdk\uamqp\src/session.c **** 
 1377              		.loc 1 890 0
 1378 002c 0026     		movs	r6, #0
 1379 002e 05E0     		b	.L95
 1380              	.LVL205:
 1381              	.L102:
 889:Source\azure_iot_sdk\uamqp\src/session.c ****             result = 0;
 1382              		.loc 1 889 0
 1383 0030 0027     		movs	r7, #0
ARM GAS  C:\Users\Phuong\AppData\Local\Temp\ccX7yw2d.s 			page 50


 890:Source\azure_iot_sdk\uamqp\src/session.c **** 
 1384              		.loc 1 890 0
 1385 0032 0026     		movs	r6, #0
 1386 0034 02E0     		b	.L95
 1387              	.LVL206:
 1388              	.L103:
 897:Source\azure_iot_sdk\uamqp\src/session.c ****                 }
 1389              		.loc 1 897 0
 1390 0036 164E     		ldr	r6, .L106
 1391 0038 00E0     		b	.L95
 1392              	.LVL207:
 1393              	.L104:
 903:Source\azure_iot_sdk\uamqp\src/session.c ****                     }
 1394              		.loc 1 903 0
 1395 003a 164E     		ldr	r6, .L106+4
 1396              	.LVL208:
 1397              	.L95:
 908:Source\azure_iot_sdk\uamqp\src/session.c ****             {
 1398              		.loc 1 908 0
 1399 003c 002E     		cmp	r6, #0
 1400 003e 0CD1     		bne	.L96
 910:Source\azure_iot_sdk\uamqp\src/session.c ****                 {
 1401              		.loc 1 910 0
 1402 0040 3900     		movs	r1, r7
 1403 0042 2800     		movs	r0, r5
 1404 0044 FFF7FEFF 		bl	send_end_frame
 1405              	.LVL209:
 1406 0048 0028     		cmp	r0, #0
 1407 004a 04D1     		bne	.L105
 916:Source\azure_iot_sdk\uamqp\src/session.c ****                     result = 0;
 1408              		.loc 1 916 0
 1409 004c 0621     		movs	r1, #6
 1410 004e 2800     		movs	r0, r5
 1411 0050 FFF7FEFF 		bl	session_set_state
 1412              	.LVL210:
 1413 0054 01E0     		b	.L96
 1414              	.LVL211:
 1415              	.L105:
 912:Source\azure_iot_sdk\uamqp\src/session.c ****                 }
 1416              		.loc 1 912 0
 1417 0056 E426     		movs	r6, #228
 1418              	.LVL212:
 1419 0058 B600     		lsls	r6, r6, #2
 1420              	.L96:
 1421              	.LVL213:
 921:Source\azure_iot_sdk\uamqp\src/session.c ****             {
 1422              		.loc 1 921 0
 1423 005a 002F     		cmp	r7, #0
 1424 005c 06D0     		beq	.L94
 923:Source\azure_iot_sdk\uamqp\src/session.c ****             }
 1425              		.loc 1 923 0
 1426 005e 3800     		movs	r0, r7
 1427 0060 FFF7FEFF 		bl	error_destroy
 1428              	.LVL214:
 1429 0064 02E0     		b	.L94
 1430              	.LVL215:
 1431              	.L100:
ARM GAS  C:\Users\Phuong\AppData\Local\Temp\ccX7yw2d.s 			page 51


 1432              	.LBE18:
 928:Source\azure_iot_sdk\uamqp\src/session.c ****         }
 1433              		.loc 1 928 0
 1434 0066 0026     		movs	r6, #0
 1435 0068 00E0     		b	.L94
 1436              	.L101:
 1437 006a 0026     		movs	r6, #0
 1438              	.LVL216:
 1439              	.L94:
 932:Source\azure_iot_sdk\uamqp\src/session.c ****         {
 1440              		.loc 1 932 0
 1441 006c 0024     		movs	r4, #0
 1442              	.LVL217:
 1443 006e 05E0     		b	.L97
 1444              	.LVL218:
 1445              	.L98:
 934:Source\azure_iot_sdk\uamqp\src/session.c ****         }
 1446              		.loc 1 934 0 discriminator 3
 1447 0070 A300     		lsls	r3, r4, #2
 1448 0072 6A69     		ldr	r2, [r5, #20]
 1449 0074 D058     		ldr	r0, [r2, r3]
 1450 0076 FFF7FEFF 		bl	free_link_endpoint
 1451              	.LVL219:
 932:Source\azure_iot_sdk\uamqp\src/session.c ****         {
 1452              		.loc 1 932 0 discriminator 3
 1453 007a 0134     		adds	r4, r4, #1
 1454              	.LVL220:
 1455              	.L97:
 932:Source\azure_iot_sdk\uamqp\src/session.c ****         {
 1456              		.loc 1 932 0 is_stmt 0 discriminator 1
 1457 007c AB69     		ldr	r3, [r5, #24]
 1458 007e 9C42     		cmp	r4, r3
 1459 0080 F6D3     		bcc	.L98
 937:Source\azure_iot_sdk\uamqp\src/session.c ****     }
 1460              		.loc 1 937 0 is_stmt 1
 1461 0082 0023     		movs	r3, #0
 1462 0084 AB61     		str	r3, [r5, #24]
 1463 0086 00E0     		b	.L93
 1464              	.LVL221:
 1465              	.L99:
 1466              	.LBE17:
 879:Source\azure_iot_sdk\uamqp\src/session.c ****     }
 1467              		.loc 1 879 0
 1468 0088 034E     		ldr	r6, .L106+8
 1469              	.LVL222:
 1470              	.L93:
 941:Source\azure_iot_sdk\uamqp\src/session.c **** 
 1471              		.loc 1 941 0
 1472 008a 3000     		movs	r0, r6
 1473              		@ sp needed
 1474              	.LVL223:
 1475              	.LVL224:
 1476 008c F8BD     		pop	{r3, r4, r5, r6, r7, pc}
 1477              	.L107:
 1478 008e C046     		.align	2
 1479              	.L106:
 1480 0090 81030000 		.word	897
ARM GAS  C:\Users\Phuong\AppData\Local\Temp\ccX7yw2d.s 			page 52


 1481 0094 87030000 		.word	903
 1482 0098 6F030000 		.word	879
 1483              		.cfi_endproc
 1484              	.LFE15:
 1485              		.size	session_end, .-session_end
 1486              		.section	.text.session_destroy,"ax",%progbits
 1487              		.align	2
 1488              		.global	session_destroy
 1489              		.code	16
 1490              		.thumb_func
 1491              		.type	session_destroy, %function
 1492              	session_destroy:
 1493              	.LFB13:
 812:Source\azure_iot_sdk\uamqp\src/session.c ****     /* Codes_S_R_S_SESSION_01_036: [If session is NULL, session_destroy shall do nothing.] */
 1494              		.loc 1 812 0
 1495              		.cfi_startproc
 1496              		@ args = 0, pretend = 0, frame = 0
 1497              		@ frame_needed = 0, uses_anonymous_args = 0
 1498              	.LVL225:
 1499 0000 10B5     		push	{r4, lr}
 1500              		.cfi_def_cfa_offset 8
 1501              		.cfi_offset 4, -8
 1502              		.cfi_offset 14, -4
 1503 0002 041E     		subs	r4, r0, #0
 814:Source\azure_iot_sdk\uamqp\src/session.c ****     {
 1504              		.loc 1 814 0
 1505 0004 0ED0     		beq	.L108
 1506              	.LVL226:
 1507              	.LBB19:
 818:Source\azure_iot_sdk\uamqp\src/session.c **** 
 1508              		.loc 1 818 0
 1509 0006 0022     		movs	r2, #0
 1510 0008 0021     		movs	r1, #0
 1511 000a FFF7FEFF 		bl	session_end
 1512              	.LVL227:
 822:Source\azure_iot_sdk\uamqp\src/session.c ****         if (session_instance->link_endpoints != NULL)
 1513              		.loc 1 822 0
 1514 000e 2069     		ldr	r0, [r4, #16]
 1515 0010 FFF7FEFF 		bl	connection_destroy_endpoint
 1516              	.LVL228:
 823:Source\azure_iot_sdk\uamqp\src/session.c ****         {
 1517              		.loc 1 823 0
 1518 0014 6069     		ldr	r0, [r4, #20]
 1519 0016 0028     		cmp	r0, #0
 1520 0018 01D0     		beq	.L110
 825:Source\azure_iot_sdk\uamqp\src/session.c ****         }
 1521              		.loc 1 825 0
 1522 001a FFF7FEFF 		bl	free
 1523              	.LVL229:
 1524              	.L110:
 828:Source\azure_iot_sdk\uamqp\src/session.c ****     }
 1525              		.loc 1 828 0
 1526 001e 2000     		movs	r0, r4
 1527 0020 FFF7FEFF 		bl	free
 1528              	.LVL230:
 1529              	.L108:
 1530              	.LBE19:
ARM GAS  C:\Users\Phuong\AppData\Local\Temp\ccX7yw2d.s 			page 53


 830:Source\azure_iot_sdk\uamqp\src/session.c **** 
 1531              		.loc 1 830 0
 1532              		@ sp needed
 1533              	.LVL231:
 1534 0024 10BD     		pop	{r4, pc}
 1535              		.cfi_endproc
 1536              	.LFE13:
 1537              		.size	session_destroy, .-session_destroy
 1538 0026 C046     		.section	.text.session_set_incoming_window,"ax",%progbits
 1539              		.align	2
 1540              		.global	session_set_incoming_window
 1541              		.code	16
 1542              		.thumb_func
 1543              		.type	session_set_incoming_window, %function
 1544              	session_set_incoming_window:
 1545              	.LFB16:
 944:Source\azure_iot_sdk\uamqp\src/session.c ****     int result;
 1546              		.loc 1 944 0
 1547              		.cfi_startproc
 1548              		@ args = 0, pretend = 0, frame = 0
 1549              		@ frame_needed = 0, uses_anonymous_args = 0
 1550              		@ link register save eliminated.
 1551              	.LVL232:
 947:Source\azure_iot_sdk\uamqp\src/session.c ****     {
 1552              		.loc 1 947 0
 1553 0000 0028     		cmp	r0, #0
 1554 0002 03D0     		beq	.L113
 1555              	.LVL233:
 1556              	.LBB20:
 955:Source\azure_iot_sdk\uamqp\src/session.c ****         session_instance->incoming_window = incoming_window;
 1557              		.loc 1 955 0
 1558 0004 C162     		str	r1, [r0, #44]
 956:Source\azure_iot_sdk\uamqp\src/session.c **** 
 1559              		.loc 1 956 0
 1560 0006 0163     		str	r1, [r0, #48]
 1561              	.LVL234:
 958:Source\azure_iot_sdk\uamqp\src/session.c ****     }
 1562              		.loc 1 958 0
 1563 0008 0020     		movs	r0, #0
 1564              	.LVL235:
 1565 000a 00E0     		b	.L112
 1566              	.LVL236:
 1567              	.L113:
 1568              	.LBE20:
 949:Source\azure_iot_sdk\uamqp\src/session.c ****     }
 1569              		.loc 1 949 0
 1570 000c 0048     		ldr	r0, .L114
 1571              	.LVL237:
 1572              	.L112:
 962:Source\azure_iot_sdk\uamqp\src/session.c **** 
 1573              		.loc 1 962 0
 1574              		@ sp needed
 1575 000e 7047     		bx	lr
 1576              	.L115:
 1577              		.align	2
 1578              	.L114:
 1579 0010 B5030000 		.word	949
ARM GAS  C:\Users\Phuong\AppData\Local\Temp\ccX7yw2d.s 			page 54


 1580              		.cfi_endproc
 1581              	.LFE16:
 1582              		.size	session_set_incoming_window, .-session_set_incoming_window
 1583              		.section	.text.session_get_incoming_window,"ax",%progbits
 1584              		.align	2
 1585              		.global	session_get_incoming_window
 1586              		.code	16
 1587              		.thumb_func
 1588              		.type	session_get_incoming_window, %function
 1589              	session_get_incoming_window:
 1590              	.LFB17:
 965:Source\azure_iot_sdk\uamqp\src/session.c ****     int result;
 1591              		.loc 1 965 0
 1592              		.cfi_startproc
 1593              		@ args = 0, pretend = 0, frame = 0
 1594              		@ frame_needed = 0, uses_anonymous_args = 0
 1595              		@ link register save eliminated.
 1596              	.LVL238:
 968:Source\azure_iot_sdk\uamqp\src/session.c ****         (incoming_window == NULL))
 1597              		.loc 1 968 0
 1598 0000 0028     		cmp	r0, #0
 1599 0002 05D0     		beq	.L118
 968:Source\azure_iot_sdk\uamqp\src/session.c ****         (incoming_window == NULL))
 1600              		.loc 1 968 0 is_stmt 0 discriminator 1
 1601 0004 0029     		cmp	r1, #0
 1602 0006 05D0     		beq	.L119
 1603              	.LVL239:
 1604              	.LBB21:
 977:Source\azure_iot_sdk\uamqp\src/session.c **** 
 1605              		.loc 1 977 0 is_stmt 1
 1606 0008 036B     		ldr	r3, [r0, #48]
 1607 000a 0B60     		str	r3, [r1]
 1608              	.LVL240:
 979:Source\azure_iot_sdk\uamqp\src/session.c ****     }
 1609              		.loc 1 979 0
 1610 000c 0020     		movs	r0, #0
 1611              	.LVL241:
 1612 000e 02E0     		b	.L117
 1613              	.LVL242:
 1614              	.L118:
 1615              	.LBE21:
 971:Source\azure_iot_sdk\uamqp\src/session.c ****     }
 1616              		.loc 1 971 0
 1617 0010 0148     		ldr	r0, .L120
 1618              	.LVL243:
 1619 0012 00E0     		b	.L117
 1620              	.LVL244:
 1621              	.L119:
 1622 0014 0048     		ldr	r0, .L120
 1623              	.LVL245:
 1624              	.L117:
 983:Source\azure_iot_sdk\uamqp\src/session.c **** 
 1625              		.loc 1 983 0
 1626              		@ sp needed
 1627 0016 7047     		bx	lr
 1628              	.L121:
 1629              		.align	2
ARM GAS  C:\Users\Phuong\AppData\Local\Temp\ccX7yw2d.s 			page 55


 1630              	.L120:
 1631 0018 CB030000 		.word	971
 1632              		.cfi_endproc
 1633              	.LFE17:
 1634              		.size	session_get_incoming_window, .-session_get_incoming_window
 1635              		.section	.text.session_set_outgoing_window,"ax",%progbits
 1636              		.align	2
 1637              		.global	session_set_outgoing_window
 1638              		.code	16
 1639              		.thumb_func
 1640              		.type	session_set_outgoing_window, %function
 1641              	session_set_outgoing_window:
 1642              	.LFB18:
 986:Source\azure_iot_sdk\uamqp\src/session.c ****     int result;
 1643              		.loc 1 986 0
 1644              		.cfi_startproc
 1645              		@ args = 0, pretend = 0, frame = 0
 1646              		@ frame_needed = 0, uses_anonymous_args = 0
 1647              		@ link register save eliminated.
 1648              	.LVL246:
 989:Source\azure_iot_sdk\uamqp\src/session.c ****     {
 1649              		.loc 1 989 0
 1650 0000 0028     		cmp	r0, #0
 1651 0002 02D0     		beq	.L124
 1652              	.LVL247:
 1653              	.LBB22:
 997:Source\azure_iot_sdk\uamqp\src/session.c **** 
 1654              		.loc 1 997 0
 1655 0004 4163     		str	r1, [r0, #52]
 1656              	.LVL248:
 999:Source\azure_iot_sdk\uamqp\src/session.c ****     }
 1657              		.loc 1 999 0
 1658 0006 0020     		movs	r0, #0
 1659              	.LVL249:
 1660 0008 00E0     		b	.L123
 1661              	.LVL250:
 1662              	.L124:
 1663              	.LBE22:
 991:Source\azure_iot_sdk\uamqp\src/session.c ****     }
 1664              		.loc 1 991 0
 1665 000a 0148     		ldr	r0, .L125
 1666              	.LVL251:
 1667              	.L123:
1003:Source\azure_iot_sdk\uamqp\src/session.c **** 
 1668              		.loc 1 1003 0
 1669              		@ sp needed
 1670 000c 7047     		bx	lr
 1671              	.L126:
 1672 000e C046     		.align	2
 1673              	.L125:
 1674 0010 DF030000 		.word	991
 1675              		.cfi_endproc
 1676              	.LFE18:
 1677              		.size	session_set_outgoing_window, .-session_set_outgoing_window
 1678              		.section	.text.session_get_outgoing_window,"ax",%progbits
 1679              		.align	2
 1680              		.global	session_get_outgoing_window
ARM GAS  C:\Users\Phuong\AppData\Local\Temp\ccX7yw2d.s 			page 56


 1681              		.code	16
 1682              		.thumb_func
 1683              		.type	session_get_outgoing_window, %function
 1684              	session_get_outgoing_window:
 1685              	.LFB19:
1006:Source\azure_iot_sdk\uamqp\src/session.c ****     int result;
 1686              		.loc 1 1006 0
 1687              		.cfi_startproc
 1688              		@ args = 0, pretend = 0, frame = 0
 1689              		@ frame_needed = 0, uses_anonymous_args = 0
 1690              		@ link register save eliminated.
 1691              	.LVL252:
1009:Source\azure_iot_sdk\uamqp\src/session.c ****         (outgoing_window == NULL))
 1692              		.loc 1 1009 0
 1693 0000 0028     		cmp	r0, #0
 1694 0002 05D0     		beq	.L129
1009:Source\azure_iot_sdk\uamqp\src/session.c ****         (outgoing_window == NULL))
 1695              		.loc 1 1009 0 is_stmt 0 discriminator 1
 1696 0004 0029     		cmp	r1, #0
 1697 0006 06D0     		beq	.L130
 1698              	.LVL253:
 1699              	.LBB23:
1018:Source\azure_iot_sdk\uamqp\src/session.c **** 
 1700              		.loc 1 1018 0 is_stmt 1
 1701 0008 436B     		ldr	r3, [r0, #52]
 1702 000a 0B60     		str	r3, [r1]
 1703              	.LVL254:
1020:Source\azure_iot_sdk\uamqp\src/session.c ****     }
 1704              		.loc 1 1020 0
 1705 000c 0020     		movs	r0, #0
 1706              	.LVL255:
 1707 000e 04E0     		b	.L128
 1708              	.LVL256:
 1709              	.L129:
 1710              	.LBE23:
1012:Source\azure_iot_sdk\uamqp\src/session.c ****     }
 1711              		.loc 1 1012 0
 1712 0010 FD20     		movs	r0, #253
 1713              	.LVL257:
 1714 0012 8000     		lsls	r0, r0, #2
 1715 0014 01E0     		b	.L128
 1716              	.LVL258:
 1717              	.L130:
 1718 0016 FD20     		movs	r0, #253
 1719              	.LVL259:
 1720 0018 8000     		lsls	r0, r0, #2
 1721              	.L128:
 1722              	.LVL260:
1024:Source\azure_iot_sdk\uamqp\src/session.c **** 
 1723              		.loc 1 1024 0
 1724              		@ sp needed
 1725 001a 7047     		bx	lr
 1726              		.cfi_endproc
 1727              	.LFE19:
 1728              		.size	session_get_outgoing_window, .-session_get_outgoing_window
 1729              		.section	.text.session_set_handle_max,"ax",%progbits
 1730              		.align	2
ARM GAS  C:\Users\Phuong\AppData\Local\Temp\ccX7yw2d.s 			page 57


 1731              		.global	session_set_handle_max
 1732              		.code	16
 1733              		.thumb_func
 1734              		.type	session_set_handle_max, %function
 1735              	session_set_handle_max:
 1736              	.LFB20:
1027:Source\azure_iot_sdk\uamqp\src/session.c ****     int result;
 1737              		.loc 1 1027 0
 1738              		.cfi_startproc
 1739              		@ args = 0, pretend = 0, frame = 0
 1740              		@ frame_needed = 0, uses_anonymous_args = 0
 1741              		@ link register save eliminated.
 1742              	.LVL261:
1030:Source\azure_iot_sdk\uamqp\src/session.c ****     {
 1743              		.loc 1 1030 0
 1744 0000 0028     		cmp	r0, #0
 1745 0002 02D0     		beq	.L133
 1746              	.LVL262:
 1747              	.LBB24:
1038:Source\azure_iot_sdk\uamqp\src/session.c **** 
 1748              		.loc 1 1038 0
 1749 0004 8163     		str	r1, [r0, #56]
 1750              	.LVL263:
1040:Source\azure_iot_sdk\uamqp\src/session.c ****     }
 1751              		.loc 1 1040 0
 1752 0006 0020     		movs	r0, #0
 1753              	.LVL264:
 1754 0008 01E0     		b	.L132
 1755              	.LVL265:
 1756              	.L133:
 1757              	.LBE24:
1032:Source\azure_iot_sdk\uamqp\src/session.c ****     }
 1758              		.loc 1 1032 0
 1759 000a 8120     		movs	r0, #129
 1760              	.LVL266:
 1761 000c C000     		lsls	r0, r0, #3
 1762              	.L132:
 1763              	.LVL267:
1044:Source\azure_iot_sdk\uamqp\src/session.c **** 
 1764              		.loc 1 1044 0
 1765              		@ sp needed
 1766 000e 7047     		bx	lr
 1767              		.cfi_endproc
 1768              	.LFE20:
 1769              		.size	session_set_handle_max, .-session_set_handle_max
 1770              		.section	.text.session_get_handle_max,"ax",%progbits
 1771              		.align	2
 1772              		.global	session_get_handle_max
 1773              		.code	16
 1774              		.thumb_func
 1775              		.type	session_get_handle_max, %function
 1776              	session_get_handle_max:
 1777              	.LFB21:
1047:Source\azure_iot_sdk\uamqp\src/session.c ****     int result;
 1778              		.loc 1 1047 0
 1779              		.cfi_startproc
 1780              		@ args = 0, pretend = 0, frame = 0
ARM GAS  C:\Users\Phuong\AppData\Local\Temp\ccX7yw2d.s 			page 58


 1781              		@ frame_needed = 0, uses_anonymous_args = 0
 1782              		@ link register save eliminated.
 1783              	.LVL268:
1050:Source\azure_iot_sdk\uamqp\src/session.c ****         (handle_max == NULL))
 1784              		.loc 1 1050 0
 1785 0000 0028     		cmp	r0, #0
 1786 0002 05D0     		beq	.L136
1050:Source\azure_iot_sdk\uamqp\src/session.c ****         (handle_max == NULL))
 1787              		.loc 1 1050 0 is_stmt 0 discriminator 1
 1788 0004 0029     		cmp	r1, #0
 1789 0006 05D0     		beq	.L137
 1790              	.LVL269:
 1791              	.LBB25:
1059:Source\azure_iot_sdk\uamqp\src/session.c **** 
 1792              		.loc 1 1059 0 is_stmt 1
 1793 0008 836B     		ldr	r3, [r0, #56]
 1794 000a 0B60     		str	r3, [r1]
 1795              	.LVL270:
1061:Source\azure_iot_sdk\uamqp\src/session.c ****     }
 1796              		.loc 1 1061 0
 1797 000c 0020     		movs	r0, #0
 1798              	.LVL271:
 1799 000e 02E0     		b	.L135
 1800              	.LVL272:
 1801              	.L136:
 1802              	.LBE25:
1053:Source\azure_iot_sdk\uamqp\src/session.c ****     }
 1803              		.loc 1 1053 0
 1804 0010 0148     		ldr	r0, .L138
 1805              	.LVL273:
 1806 0012 00E0     		b	.L135
 1807              	.LVL274:
 1808              	.L137:
 1809 0014 0048     		ldr	r0, .L138
 1810              	.LVL275:
 1811              	.L135:
1065:Source\azure_iot_sdk\uamqp\src/session.c **** 
 1812              		.loc 1 1065 0
 1813              		@ sp needed
 1814 0016 7047     		bx	lr
 1815              	.L139:
 1816              		.align	2
 1817              	.L138:
 1818 0018 1D040000 		.word	1053
 1819              		.cfi_endproc
 1820              	.LFE21:
 1821              		.size	session_get_handle_max, .-session_get_handle_max
 1822              		.section	.text.session_create_link_endpoint,"ax",%progbits
 1823              		.align	2
 1824              		.global	session_create_link_endpoint
 1825              		.code	16
 1826              		.thumb_func
 1827              		.type	session_create_link_endpoint, %function
 1828              	session_create_link_endpoint:
 1829              	.LFB22:
1068:Source\azure_iot_sdk\uamqp\src/session.c ****     LINK_ENDPOINT_INSTANCE* result;
 1830              		.loc 1 1068 0
ARM GAS  C:\Users\Phuong\AppData\Local\Temp\ccX7yw2d.s 			page 59


 1831              		.cfi_startproc
 1832              		@ args = 0, pretend = 0, frame = 8
 1833              		@ frame_needed = 0, uses_anonymous_args = 0
 1834              	.LVL276:
 1835 0000 F0B5     		push	{r4, r5, r6, r7, lr}
 1836              		.cfi_def_cfa_offset 20
 1837              		.cfi_offset 4, -20
 1838              		.cfi_offset 5, -16
 1839              		.cfi_offset 6, -12
 1840              		.cfi_offset 7, -8
 1841              		.cfi_offset 14, -4
 1842 0002 83B0     		sub	sp, sp, #12
 1843              		.cfi_def_cfa_offset 32
 1844 0004 0500     		movs	r5, r0
 1845 0006 0E00     		movs	r6, r1
1072:Source\azure_iot_sdk\uamqp\src/session.c ****         (name == NULL))
 1846              		.loc 1 1072 0
 1847 0008 0028     		cmp	r0, #0
 1848 000a 5AD0     		beq	.L148
1072:Source\azure_iot_sdk\uamqp\src/session.c ****         (name == NULL))
 1849              		.loc 1 1072 0 is_stmt 0 discriminator 1
 1850 000c 0029     		cmp	r1, #0
 1851 000e 5AD0     		beq	.L149
 1852              	.LVL277:
 1853              	.LBB26:
1082:Source\azure_iot_sdk\uamqp\src/session.c ****         /* Codes_S_R_S_SESSION_01_045: [If allocating memory for the link endpoint fails, session_c
 1854              		.loc 1 1082 0 is_stmt 1
 1855 0010 2420     		movs	r0, #36
 1856              	.LVL278:
 1857 0012 FFF7FEFF 		bl	malloc
 1858              	.LVL279:
 1859 0016 071E     		subs	r7, r0, #0
 1860              	.LVL280:
1084:Source\azure_iot_sdk\uamqp\src/session.c ****         {
 1861              		.loc 1 1084 0
 1862 0018 09D1     		bne	.L150
 1863              	.LBB27:
 1864              	.LBB28:
 1865 001a 55E0     		b	.L141
 1866              	.LVL281:
 1867              	.L144:
 1868              	.LBE28:
1093:Source\azure_iot_sdk\uamqp\src/session.c ****                 {
 1869              		.loc 1 1093 0
 1870 001c 9A00     		lsls	r2, r3, #2
 1871 001e 6969     		ldr	r1, [r5, #20]
 1872 0020 5258     		ldr	r2, [r2, r1]
 1873 0022 9268     		ldr	r2, [r2, #8]
 1874 0024 9442     		cmp	r4, r2
 1875 0026 07D3     		bcc	.L143
1098:Source\azure_iot_sdk\uamqp\src/session.c ****             }
 1876              		.loc 1 1098 0 discriminator 2
 1877 0028 0134     		adds	r4, r4, #1
 1878              	.LVL282:
1091:Source\azure_iot_sdk\uamqp\src/session.c ****             {
 1879              		.loc 1 1091 0 discriminator 2
 1880 002a 0133     		adds	r3, r3, #1
ARM GAS  C:\Users\Phuong\AppData\Local\Temp\ccX7yw2d.s 			page 60


 1881              	.LVL283:
 1882 002c 01E0     		b	.L142
 1883              	.LVL284:
 1884              	.L150:
 1885              	.LBE27:
 1886 002e 0023     		movs	r3, #0
 1887 0030 0024     		movs	r4, #0
 1888              	.L142:
 1889              	.LVL285:
 1890              	.LBB30:
1091:Source\azure_iot_sdk\uamqp\src/session.c ****             {
 1891              		.loc 1 1091 0 is_stmt 0 discriminator 1
 1892 0032 AA69     		ldr	r2, [r5, #24]
 1893 0034 9342     		cmp	r3, r2
 1894 0036 F1D3     		bcc	.L144
 1895              	.L143:
1101:Source\azure_iot_sdk\uamqp\src/session.c ****             result->on_session_flow_on = NULL;
 1896              		.loc 1 1101 0 is_stmt 1
 1897 0038 0023     		movs	r3, #0
 1898              	.LVL286:
 1899 003a 3B61     		str	r3, [r7, #16]
1102:Source\azure_iot_sdk\uamqp\src/session.c ****             result->frame_received_callback = NULL;
 1900              		.loc 1 1102 0
 1901 003c 7B61     		str	r3, [r7, #20]
1103:Source\azure_iot_sdk\uamqp\src/session.c ****             result->callback_context = NULL;
 1902              		.loc 1 1103 0
 1903 003e FB60     		str	r3, [r7, #12]
1104:Source\azure_iot_sdk\uamqp\src/session.c ****             result->output_handle = selected_handle;
 1904              		.loc 1 1104 0
 1905 0040 BB61     		str	r3, [r7, #24]
1105:Source\azure_iot_sdk\uamqp\src/session.c ****             result->input_handle = 0xFFFFFFFF;
 1906              		.loc 1 1105 0
 1907 0042 BC60     		str	r4, [r7, #8]
1106:Source\azure_iot_sdk\uamqp\src/session.c ****             result->link_endpoint_state = LINK_ENDPOINT_STATE_NOT_ATTACHED;
 1908              		.loc 1 1106 0
 1909 0044 0122     		movs	r2, #1
 1910 0046 5242     		rsbs	r2, r2, #0
 1911 0048 7A60     		str	r2, [r7, #4]
1107:Source\azure_iot_sdk\uamqp\src/session.c ****             name_length = strlen(name);
 1912              		.loc 1 1107 0
 1913 004a 2132     		adds	r2, r2, #33
 1914 004c BB54     		strb	r3, [r7, r2]
1108:Source\azure_iot_sdk\uamqp\src/session.c ****             result->name = (char*)malloc(name_length + 1);
 1915              		.loc 1 1108 0
 1916 004e 3000     		movs	r0, r6
 1917              	.LVL287:
 1918 0050 FFF7FEFF 		bl	strlen
 1919              	.LVL288:
1109:Source\azure_iot_sdk\uamqp\src/session.c ****             if (result->name == NULL)
 1920              		.loc 1 1109 0
 1921 0054 431C     		adds	r3, r0, #1
 1922 0056 0193     		str	r3, [sp, #4]
 1923 0058 1800     		movs	r0, r3
 1924              	.LVL289:
 1925 005a FFF7FEFF 		bl	malloc
 1926              	.LVL290:
 1927 005e 3860     		str	r0, [r7]
ARM GAS  C:\Users\Phuong\AppData\Local\Temp\ccX7yw2d.s 			page 61


1110:Source\azure_iot_sdk\uamqp\src/session.c ****             {
 1928              		.loc 1 1110 0
 1929 0060 0028     		cmp	r0, #0
 1930 0062 04D1     		bne	.L145
1113:Source\azure_iot_sdk\uamqp\src/session.c ****                 result = NULL;
 1931              		.loc 1 1113 0
 1932 0064 3800     		movs	r0, r7
 1933 0066 FFF7FEFF 		bl	free
 1934              	.LVL291:
1114:Source\azure_iot_sdk\uamqp\src/session.c ****             }
 1935              		.loc 1 1114 0
 1936 006a 0027     		movs	r7, #0
 1937 006c 2CE0     		b	.L141
 1938              	.LVL292:
 1939              	.L145:
 1940              	.LBB29:
1119:Source\azure_iot_sdk\uamqp\src/session.c ****                 result->session = session;
 1941              		.loc 1 1119 0
 1942 006e 019A     		ldr	r2, [sp, #4]
 1943 0070 3100     		movs	r1, r6
 1944 0072 FFF7FEFF 		bl	memcpy
 1945              	.LVL293:
1120:Source\azure_iot_sdk\uamqp\src/session.c **** 
 1946              		.loc 1 1120 0
 1947 0076 FD61     		str	r5, [r7, #28]
1122:Source\azure_iot_sdk\uamqp\src/session.c ****                 if (new_link_endpoints == NULL)
 1948              		.loc 1 1122 0
 1949 0078 AB69     		ldr	r3, [r5, #24]
 1950 007a 591C     		adds	r1, r3, #1
 1951 007c 8900     		lsls	r1, r1, #2
 1952 007e 6869     		ldr	r0, [r5, #20]
 1953 0080 FFF7FEFF 		bl	realloc
 1954              	.LVL294:
1123:Source\azure_iot_sdk\uamqp\src/session.c ****                 {
 1955              		.loc 1 1123 0
 1956 0084 0028     		cmp	r0, #0
 1957 0086 07D1     		bne	.L146
1126:Source\azure_iot_sdk\uamqp\src/session.c ****                     free(result);
 1958              		.loc 1 1126 0
 1959 0088 3868     		ldr	r0, [r7]
 1960              	.LVL295:
 1961 008a FFF7FEFF 		bl	free
 1962              	.LVL296:
1127:Source\azure_iot_sdk\uamqp\src/session.c ****                     result = NULL;
 1963              		.loc 1 1127 0
 1964 008e 3800     		movs	r0, r7
 1965 0090 FFF7FEFF 		bl	free
 1966              	.LVL297:
1128:Source\azure_iot_sdk\uamqp\src/session.c ****                 }
 1967              		.loc 1 1128 0
 1968 0094 0027     		movs	r7, #0
 1969 0096 17E0     		b	.L141
 1970              	.LVL298:
 1971              	.L146:
1132:Source\azure_iot_sdk\uamqp\src/session.c **** 
 1972              		.loc 1 1132 0
 1973 0098 6861     		str	r0, [r5, #20]
ARM GAS  C:\Users\Phuong\AppData\Local\Temp\ccX7yw2d.s 			page 62


1134:Source\azure_iot_sdk\uamqp\src/session.c ****                     {
 1974              		.loc 1 1134 0
 1975 009a AA69     		ldr	r2, [r5, #24]
 1976 009c 9442     		cmp	r4, r2
 1977 009e 09D0     		beq	.L147
1136:Source\azure_iot_sdk\uamqp\src/session.c ****                     }
 1978              		.loc 1 1136 0
 1979 00a0 631C     		adds	r3, r4, #1
 1980 00a2 9B00     		lsls	r3, r3, #2
 1981 00a4 C318     		adds	r3, r0, r3
 1982 00a6 A100     		lsls	r1, r4, #2
 1983 00a8 4118     		adds	r1, r0, r1
 1984 00aa 121B     		subs	r2, r2, r4
 1985 00ac 9200     		lsls	r2, r2, #2
 1986 00ae 1800     		movs	r0, r3
 1987              	.LVL299:
 1988 00b0 FFF7FEFF 		bl	memmove
 1989              	.LVL300:
 1990              	.L147:
1139:Source\azure_iot_sdk\uamqp\src/session.c ****                     session_instance->link_endpoint_count++;
 1991              		.loc 1 1139 0
 1992 00b4 A400     		lsls	r4, r4, #2
 1993              	.LVL301:
 1994 00b6 6B69     		ldr	r3, [r5, #20]
 1995 00b8 1F51     		str	r7, [r3, r4]
1140:Source\azure_iot_sdk\uamqp\src/session.c ****                 }
 1996              		.loc 1 1140 0
 1997 00ba AB69     		ldr	r3, [r5, #24]
 1998 00bc 0133     		adds	r3, r3, #1
 1999 00be AB61     		str	r3, [r5, #24]
 2000 00c0 02E0     		b	.L141
 2001              	.LVL302:
 2002              	.L148:
 2003              	.LBE29:
 2004              	.LBE30:
 2005              	.LBE26:
1075:Source\azure_iot_sdk\uamqp\src/session.c ****     }
 2006              		.loc 1 1075 0
 2007 00c2 0027     		movs	r7, #0
 2008 00c4 00E0     		b	.L141
 2009              	.L149:
 2010 00c6 0027     		movs	r7, #0
 2011              	.LVL303:
 2012              	.L141:
1147:Source\azure_iot_sdk\uamqp\src/session.c **** 
 2013              		.loc 1 1147 0
 2014 00c8 3800     		movs	r0, r7
 2015 00ca 03B0     		add	sp, sp, #12
 2016              		@ sp needed
 2017              	.LVL304:
 2018              	.LVL305:
 2019              	.LVL306:
 2020 00cc F0BD     		pop	{r4, r5, r6, r7, pc}
 2021              		.cfi_endproc
 2022              	.LFE22:
 2023              		.size	session_create_link_endpoint, .-session_create_link_endpoint
 2024 00ce C046     		.section	.text.on_frame_received,"ax",%progbits
ARM GAS  C:\Users\Phuong\AppData\Local\Temp\ccX7yw2d.s 			page 63


 2025              		.align	2
 2026              		.code	16
 2027              		.thumb_func
 2028              		.type	on_frame_received, %function
 2029              	on_frame_received:
 2030              	.LFB10:
 381:Source\azure_iot_sdk\uamqp\src/session.c ****     SESSION_INSTANCE* session_instance = (SESSION_INSTANCE*)context;
 2031              		.loc 1 381 0
 2032              		.cfi_startproc
 2033              		@ args = 0, pretend = 0, frame = 32
 2034              		@ frame_needed = 0, uses_anonymous_args = 0
 2035              	.LVL307:
 2036 0000 F0B5     		push	{r4, r5, r6, r7, lr}
 2037              		.cfi_def_cfa_offset 20
 2038              		.cfi_offset 4, -20
 2039              		.cfi_offset 5, -16
 2040              		.cfi_offset 6, -12
 2041              		.cfi_offset 7, -8
 2042              		.cfi_offset 14, -4
 2043 0002 4F46     		mov	r7, r9
 2044 0004 80B4     		push	{r7}
 2045              		.cfi_def_cfa_offset 24
 2046              		.cfi_offset 9, -24
 2047 0006 8AB0     		sub	sp, sp, #40
 2048              		.cfi_def_cfa_offset 64
 2049 0008 0600     		movs	r6, r0
 2050 000a 0C00     		movs	r4, r1
 2051 000c 0392     		str	r2, [sp, #12]
 2052 000e 1F00     		movs	r7, r3
 2053              	.LVL308:
 383:Source\azure_iot_sdk\uamqp\src/session.c **** 
 2054              		.loc 1 383 0
 2055 0010 0800     		movs	r0, r1
 2056              	.LVL309:
 2057 0012 FFF7FEFF 		bl	amqpvalue_get_inplace_descriptor
 2058              	.LVL310:
 2059 0016 0500     		movs	r5, r0
 2060              	.LVL311:
 385:Source\azure_iot_sdk\uamqp\src/session.c ****     {
 2061              		.loc 1 385 0
 2062 0018 FFF7FEFF 		bl	is_begin_type_by_descriptor
 2063              	.LVL312:
 2064 001c 0028     		cmp	r0, #0
 2065 001e 4FD0     		beq	.L152
 2066              	.LBB31:
 389:Source\azure_iot_sdk\uamqp\src/session.c ****         {
 2067              		.loc 1 389 0
 2068 0020 09A9     		add	r1, sp, #36
 2069 0022 2000     		movs	r0, r4
 2070 0024 FFF7FEFF 		bl	amqpvalue_get_begin
 2071              	.LVL313:
 2072 0028 0028     		cmp	r0, #0
 2073 002a 06D0     		beq	.L153
 391:Source\azure_iot_sdk\uamqp\src/session.c ****         }
 2074              		.loc 1 391 0
 2075 002c F068     		ldr	r0, [r6, #12]
 2076 002e 0023     		movs	r3, #0
ARM GAS  C:\Users\Phuong\AppData\Local\Temp\ccX7yw2d.s 			page 64


 2077 0030 C84A     		ldr	r2, .L209
 2078 0032 C949     		ldr	r1, .L209+4
 2079 0034 FFF7FEFF 		bl	connection_close
 2080              	.LVL314:
 2081 0038 41E2     		b	.L151
 2082              	.L153:
 395:Source\azure_iot_sdk\uamqp\src/session.c ****                 (begin_get_next_outgoing_id(begin_handle, &session_instance->next_incoming_id) != 0
 2083              		.loc 1 395 0
 2084 003a 3100     		movs	r1, r6
 2085 003c 3C31     		adds	r1, r1, #60
 2086 003e 0998     		ldr	r0, [sp, #36]
 2087 0040 FFF7FEFF 		bl	begin_get_incoming_window
 2088              	.LVL315:
 2089 0044 0028     		cmp	r0, #0
 2090 0046 06D1     		bne	.L155
 396:Source\azure_iot_sdk\uamqp\src/session.c ****             {
 2091              		.loc 1 396 0 discriminator 1
 2092 0048 3100     		movs	r1, r6
 2093 004a 2831     		adds	r1, r1, #40
 2094 004c 0998     		ldr	r0, [sp, #36]
 2095 004e FFF7FEFF 		bl	begin_get_next_outgoing_id
 2096              	.LVL316:
 395:Source\azure_iot_sdk\uamqp\src/session.c ****                 (begin_get_next_outgoing_id(begin_handle, &session_instance->next_incoming_id) != 0
 2097              		.loc 1 395 0 discriminator 1
 2098 0052 0028     		cmp	r0, #0
 2099 0054 0DD0     		beq	.L156
 2100              	.L155:
 399:Source\azure_iot_sdk\uamqp\src/session.c ****                 session_set_state(session_instance, SESSION_STATE_DISCARDING);
 2101              		.loc 1 399 0
 2102 0056 0998     		ldr	r0, [sp, #36]
 2103 0058 FFF7FEFF 		bl	begin_destroy
 2104              	.LVL317:
 400:Source\azure_iot_sdk\uamqp\src/session.c ****                 connection_close(session_instance->connection, "amqp:decode-error", "Cannot get inc
 2105              		.loc 1 400 0
 2106 005c 0621     		movs	r1, #6
 2107 005e 3000     		movs	r0, r6
 2108 0060 FFF7FEFF 		bl	session_set_state
 2109              	.LVL318:
 401:Source\azure_iot_sdk\uamqp\src/session.c ****             }
 2110              		.loc 1 401 0
 2111 0064 F068     		ldr	r0, [r6, #12]
 2112 0066 0023     		movs	r3, #0
 2113 0068 BC4A     		ldr	r2, .L209+8
 2114 006a BB49     		ldr	r1, .L209+4
 2115 006c FFF7FEFF 		bl	connection_close
 2116              	.LVL319:
 2117 0070 25E2     		b	.L151
 2118              	.L156:
 405:Source\azure_iot_sdk\uamqp\src/session.c **** 
 2119              		.loc 1 405 0
 2120 0072 0998     		ldr	r0, [sp, #36]
 2121 0074 FFF7FEFF 		bl	begin_destroy
 2122              	.LVL320:
 407:Source\azure_iot_sdk\uamqp\src/session.c ****                 {
 2123              		.loc 1 407 0
 2124 0078 337A     		ldrb	r3, [r6, #8]
 2125 007a 012B     		cmp	r3, #1
ARM GAS  C:\Users\Phuong\AppData\Local\Temp\ccX7yw2d.s 			page 65


 2126 007c 04D1     		bne	.L157
 409:Source\azure_iot_sdk\uamqp\src/session.c ****                 }
 2127              		.loc 1 409 0
 2128 007e 0321     		movs	r1, #3
 2129 0080 3000     		movs	r0, r6
 2130 0082 FFF7FEFF 		bl	session_set_state
 2131              	.LVL321:
 2132 0086 1AE2     		b	.L151
 2133              	.L157:
 411:Source\azure_iot_sdk\uamqp\src/session.c ****                 {
 2134              		.loc 1 411 0
 2135 0088 002B     		cmp	r3, #0
 2136 008a 00D0     		beq	.LCB2234
 2137 008c 17E2     		b	.L151	@long jump
 2138              	.LCB2234:
 413:Source\azure_iot_sdk\uamqp\src/session.c ****                     if (send_begin(session_instance) != 0)
 2139              		.loc 1 413 0
 2140 008e 0221     		movs	r1, #2
 2141 0090 3000     		movs	r0, r6
 2142 0092 FFF7FEFF 		bl	session_set_state
 2143              	.LVL322:
 414:Source\azure_iot_sdk\uamqp\src/session.c ****                     {
 2144              		.loc 1 414 0
 2145 0096 3000     		movs	r0, r6
 2146 0098 FFF7FEFF 		bl	send_begin
 2147              	.LVL323:
 2148 009c 0028     		cmp	r0, #0
 2149 009e 0AD0     		beq	.L158
 416:Source\azure_iot_sdk\uamqp\src/session.c ****                         session_set_state(session_instance, SESSION_STATE_DISCARDING);
 2150              		.loc 1 416 0
 2151 00a0 0023     		movs	r3, #0
 2152 00a2 AF4A     		ldr	r2, .L209+12
 2153 00a4 AF49     		ldr	r1, .L209+16
 2154 00a6 F068     		ldr	r0, [r6, #12]
 2155 00a8 FFF7FEFF 		bl	connection_close
 2156              	.LVL324:
 417:Source\azure_iot_sdk\uamqp\src/session.c ****                     }
 2157              		.loc 1 417 0
 2158 00ac 0621     		movs	r1, #6
 2159 00ae 3000     		movs	r0, r6
 2160 00b0 FFF7FEFF 		bl	session_set_state
 2161              	.LVL325:
 2162 00b4 03E2     		b	.L151
 2163              	.L158:
 421:Source\azure_iot_sdk\uamqp\src/session.c ****                     }
 2164              		.loc 1 421 0
 2165 00b6 0321     		movs	r1, #3
 2166 00b8 3000     		movs	r0, r6
 2167 00ba FFF7FEFF 		bl	session_set_state
 2168              	.LVL326:
 2169 00be FEE1     		b	.L151
 2170              	.L152:
 2171              	.LBE31:
 427:Source\azure_iot_sdk\uamqp\src/session.c ****     {
 2172              		.loc 1 427 0
 2173 00c0 2800     		movs	r0, r5
 2174 00c2 FFF7FEFF 		bl	is_attach_type_by_descriptor
ARM GAS  C:\Users\Phuong\AppData\Local\Temp\ccX7yw2d.s 			page 66


 2175              	.LVL327:
 2176 00c6 0028     		cmp	r0, #0
 2177 00c8 00D1     		bne	.LCB2274
 2178 00ca 98E0     		b	.L160	@long jump
 2179              	.LCB2274:
 2180              	.LBB32:
 429:Source\azure_iot_sdk\uamqp\src/session.c ****         ATTACH_HANDLE attach_handle;
 2181              		.loc 1 429 0
 2182 00cc 0023     		movs	r3, #0
 2183 00ce 0693     		str	r3, [sp, #24]
 432:Source\azure_iot_sdk\uamqp\src/session.c ****         {
 2184              		.loc 1 432 0
 2185 00d0 07A9     		add	r1, sp, #28
 2186 00d2 2000     		movs	r0, r4
 2187 00d4 FFF7FEFF 		bl	amqpvalue_get_attach
 2188              	.LVL328:
 2189 00d8 0028     		cmp	r0, #0
 2190 00da 05D0     		beq	.L161
 434:Source\azure_iot_sdk\uamqp\src/session.c ****         }
 2191              		.loc 1 434 0
 2192 00dc A24A     		ldr	r2, .L209+20
 2193 00de 9E49     		ldr	r1, .L209+4
 2194 00e0 3000     		movs	r0, r6
 2195 00e2 FFF7FEFF 		bl	end_session_with_error
 2196              	.LVL329:
 2197 00e6 EAE1     		b	.L151
 2198              	.L161:
 2199              	.LBB33:
 442:Source\azure_iot_sdk\uamqp\src/session.c ****             {
 2200              		.loc 1 442 0
 2201 00e8 06A9     		add	r1, sp, #24
 2202 00ea 0798     		ldr	r0, [sp, #28]
 2203 00ec FFF7FEFF 		bl	attach_get_name
 2204              	.LVL330:
 2205 00f0 0028     		cmp	r0, #0
 2206 00f2 05D0     		beq	.L163
 444:Source\azure_iot_sdk\uamqp\src/session.c ****             }
 2207              		.loc 1 444 0
 2208 00f4 9D4A     		ldr	r2, .L209+24
 2209 00f6 9849     		ldr	r1, .L209+4
 2210 00f8 3000     		movs	r0, r6
 2211 00fa FFF7FEFF 		bl	end_session_with_error
 2212              	.LVL331:
 2213 00fe 7AE0     		b	.L164
 2214              	.L163:
 446:Source\azure_iot_sdk\uamqp\src/session.c ****             {
 2215              		.loc 1 446 0
 2216 0100 0F21     		movs	r1, #15
 2217 0102 02AB     		add	r3, sp, #8
 2218 0104 9C46     		mov	ip, r3
 2219 0106 6144     		add	r1, r1, ip
 2220 0108 0798     		ldr	r0, [sp, #28]
 2221 010a FFF7FEFF 		bl	attach_get_role
 2222              	.LVL332:
 2223 010e 0028     		cmp	r0, #0
 2224 0110 05D0     		beq	.L165
 448:Source\azure_iot_sdk\uamqp\src/session.c ****             }
ARM GAS  C:\Users\Phuong\AppData\Local\Temp\ccX7yw2d.s 			page 67


 2225              		.loc 1 448 0
 2226 0112 974A     		ldr	r2, .L209+28
 2227 0114 9049     		ldr	r1, .L209+4
 2228 0116 3000     		movs	r0, r6
 2229 0118 FFF7FEFF 		bl	end_session_with_error
 2230              	.LVL333:
 2231 011c 6BE0     		b	.L164
 2232              	.L165:
 2233              	.LBB34:
 454:Source\azure_iot_sdk\uamqp\src/session.c ****                 {
 2234              		.loc 1 454 0
 2235 011e 08A9     		add	r1, sp, #32
 2236 0120 0798     		ldr	r0, [sp, #28]
 2237 0122 FFF7FEFF 		bl	attach_get_source
 2238              	.LVL334:
 2239 0126 0028     		cmp	r0, #0
 2240 0128 01D0     		beq	.L166
 456:Source\azure_iot_sdk\uamqp\src/session.c ****                 }
 2241              		.loc 1 456 0
 2242 012a 0023     		movs	r3, #0
 2243 012c 0893     		str	r3, [sp, #32]
 2244              	.L166:
 458:Source\azure_iot_sdk\uamqp\src/session.c ****                 {
 2245              		.loc 1 458 0
 2246 012e 09A9     		add	r1, sp, #36
 2247 0130 0798     		ldr	r0, [sp, #28]
 2248 0132 FFF7FEFF 		bl	attach_get_target
 2249              	.LVL335:
 2250 0136 0028     		cmp	r0, #0
 2251 0138 01D0     		beq	.L167
 460:Source\azure_iot_sdk\uamqp\src/session.c ****                 }
 2252              		.loc 1 460 0
 2253 013a 0023     		movs	r3, #0
 2254 013c 0993     		str	r3, [sp, #36]
 2255              	.L167:
 463:Source\azure_iot_sdk\uamqp\src/session.c ****                 if (link_endpoint == NULL)
 2256              		.loc 1 463 0
 2257 013e 069B     		ldr	r3, [sp, #24]
 2258 0140 9946     		mov	r9, r3
 2259 0142 1900     		movs	r1, r3
 2260 0144 3000     		movs	r0, r6
 2261 0146 FFF7FEFF 		bl	find_link_endpoint_by_name
 2262              	.LVL336:
 2263 014a 051E     		subs	r5, r0, #0
 2264              	.LVL337:
 464:Source\azure_iot_sdk\uamqp\src/session.c ****                 {
 2265              		.loc 1 464 0
 2266 014c 3ED1     		bne	.L168
 467:Source\azure_iot_sdk\uamqp\src/session.c ****                     {
 2267              		.loc 1 467 0
 2268 014e F369     		ldr	r3, [r6, #28]
 2269 0150 002B     		cmp	r3, #0
 2270 0152 50D0     		beq	.L164
 2271              	.LBB35:
 469:Source\azure_iot_sdk\uamqp\src/session.c ****                         if (new_link_endpoint == NULL)
 2272              		.loc 1 469 0
 2273 0154 4946     		mov	r1, r9
ARM GAS  C:\Users\Phuong\AppData\Local\Temp\ccX7yw2d.s 			page 68


 2274 0156 3000     		movs	r0, r6
 2275              	.LVL338:
 2276 0158 FFF7FEFF 		bl	session_create_link_endpoint
 2277              	.LVL339:
 2278 015c 051E     		subs	r5, r0, #0
 2279              	.LVL340:
 470:Source\azure_iot_sdk\uamqp\src/session.c ****                         {
 2280              		.loc 1 470 0
 2281 015e 05D1     		bne	.L169
 472:Source\azure_iot_sdk\uamqp\src/session.c ****                         }
 2282              		.loc 1 472 0
 2283 0160 844A     		ldr	r2, .L209+32
 2284 0162 8049     		ldr	r1, .L209+16
 2285 0164 3000     		movs	r0, r6
 2286              	.LVL341:
 2287 0166 FFF7FEFF 		bl	end_session_with_error
 2288              	.LVL342:
 2289 016a 44E0     		b	.L164
 2290              	.LVL343:
 2291              	.L169:
 474:Source\azure_iot_sdk\uamqp\src/session.c ****                         {
 2292              		.loc 1 474 0
 2293 016c 011D     		adds	r1, r0, #4
 2294 016e 0798     		ldr	r0, [sp, #28]
 2295              	.LVL344:
 2296 0170 FFF7FEFF 		bl	attach_get_handle
 2297              	.LVL345:
 2298 0174 0028     		cmp	r0, #0
 2299 0176 05D0     		beq	.L170
 476:Source\azure_iot_sdk\uamqp\src/session.c ****                         }
 2300              		.loc 1 476 0
 2301 0178 7F4A     		ldr	r2, .L209+36
 2302 017a 7749     		ldr	r1, .L209+4
 2303 017c 3000     		movs	r0, r6
 2304 017e FFF7FEFF 		bl	end_session_with_error
 2305              	.LVL346:
 2306 0182 38E0     		b	.L164
 2307              	.L170:
 480:Source\azure_iot_sdk\uamqp\src/session.c **** 
 2308              		.loc 1 480 0
 2309 0184 0122     		movs	r2, #1
 2310 0186 2023     		movs	r3, #32
 2311 0188 EA54     		strb	r2, [r5, r3]
 482:Source\azure_iot_sdk\uamqp\src/session.c ****                             {
 2312              		.loc 1 482 0
 2313 018a F369     		ldr	r3, [r6, #28]
 2314 018c 9946     		mov	r9, r3
 2315 018e 0F23     		movs	r3, #15
 2316 0190 02AA     		add	r2, sp, #8
 2317 0192 9446     		mov	ip, r2
 2318 0194 6344     		add	r3, r3, ip
 2319 0196 1B78     		ldrb	r3, [r3]
 2320 0198 306A     		ldr	r0, [r6, #32]
 2321 019a 099A     		ldr	r2, [sp, #36]
 2322 019c 0192     		str	r2, [sp, #4]
 2323 019e 089A     		ldr	r2, [sp, #32]
 2324 01a0 0092     		str	r2, [sp]
ARM GAS  C:\Users\Phuong\AppData\Local\Temp\ccX7yw2d.s 			page 69


 2325 01a2 069A     		ldr	r2, [sp, #24]
 2326 01a4 2900     		movs	r1, r5
 2327 01a6 C847     		blx	r9
 2328              	.LVL347:
 2329 01a8 0028     		cmp	r0, #0
 2330 01aa 06D1     		bne	.L171
 484:Source\azure_iot_sdk\uamqp\src/session.c ****                                 free_link_endpoint(new_link_endpoint);
 2331              		.loc 1 484 0
 2332 01ac 2800     		movs	r0, r5
 2333 01ae FFF7FEFF 		bl	remove_link_endpoint
 2334              	.LVL348:
 485:Source\azure_iot_sdk\uamqp\src/session.c ****                                 new_link_endpoint = NULL;
 2335              		.loc 1 485 0
 2336 01b2 2800     		movs	r0, r5
 2337 01b4 FFF7FEFF 		bl	free_link_endpoint
 2338              	.LVL349:
 2339 01b8 1DE0     		b	.L164
 2340              	.LVL350:
 2341              	.L171:
 490:Source\azure_iot_sdk\uamqp\src/session.c ****                                 {
 2342              		.loc 1 490 0
 2343 01ba EE68     		ldr	r6, [r5, #12]
 2344              	.LVL351:
 2345 01bc 002E     		cmp	r6, #0
 2346 01be 1AD0     		beq	.L164
 492:Source\azure_iot_sdk\uamqp\src/session.c ****                                 }
 2347              		.loc 1 492 0
 2348 01c0 A869     		ldr	r0, [r5, #24]
 2349 01c2 3B00     		movs	r3, r7
 2350 01c4 039A     		ldr	r2, [sp, #12]
 2351 01c6 2100     		movs	r1, r4
 2352 01c8 B047     		blx	r6
 2353              	.LVL352:
 2354 01ca 14E0     		b	.L164
 2355              	.LVL353:
 2356              	.L168:
 2357              	.LBE35:
 500:Source\azure_iot_sdk\uamqp\src/session.c ****                     {
 2358              		.loc 1 500 0
 2359 01cc 011D     		adds	r1, r0, #4
 2360 01ce 0798     		ldr	r0, [sp, #28]
 2361              	.LVL354:
 2362 01d0 FFF7FEFF 		bl	attach_get_handle
 2363              	.LVL355:
 2364 01d4 0028     		cmp	r0, #0
 2365 01d6 05D0     		beq	.L172
 502:Source\azure_iot_sdk\uamqp\src/session.c ****                     }
 2366              		.loc 1 502 0
 2367 01d8 674A     		ldr	r2, .L209+36
 2368 01da 5F49     		ldr	r1, .L209+4
 2369 01dc 3000     		movs	r0, r6
 2370 01de FFF7FEFF 		bl	end_session_with_error
 2371              	.LVL356:
 2372 01e2 08E0     		b	.L164
 2373              	.L172:
 506:Source\azure_iot_sdk\uamqp\src/session.c **** 
 2374              		.loc 1 506 0
ARM GAS  C:\Users\Phuong\AppData\Local\Temp\ccX7yw2d.s 			page 70


 2375 01e4 0122     		movs	r2, #1
 2376 01e6 2023     		movs	r3, #32
 2377 01e8 EA54     		strb	r2, [r5, r3]
 508:Source\azure_iot_sdk\uamqp\src/session.c ****                     }
 2378              		.loc 1 508 0
 2379 01ea EE68     		ldr	r6, [r5, #12]
 2380              	.LVL357:
 2381 01ec A869     		ldr	r0, [r5, #24]
 2382 01ee 3B00     		movs	r3, r7
 2383 01f0 039A     		ldr	r2, [sp, #12]
 2384 01f2 2100     		movs	r1, r4
 2385 01f4 B047     		blx	r6
 2386              	.LVL358:
 2387              	.L164:
 2388              	.LBE34:
 513:Source\azure_iot_sdk\uamqp\src/session.c ****         }
 2389              		.loc 1 513 0 discriminator 1
 2390 01f6 0798     		ldr	r0, [sp, #28]
 2391 01f8 FFF7FEFF 		bl	attach_destroy
 2392              	.LVL359:
 2393 01fc 5FE1     		b	.L151
 2394              	.LVL360:
 2395              	.L160:
 2396              	.LBE33:
 2397              	.LBE32:
 516:Source\azure_iot_sdk\uamqp\src/session.c ****     {
 2398              		.loc 1 516 0
 2399 01fe 2800     		movs	r0, r5
 2400 0200 FFF7FEFF 		bl	is_detach_type_by_descriptor
 2401              	.LVL361:
 2402 0204 0028     		cmp	r0, #0
 2403 0206 3DD0     		beq	.L173
 2404              	.LBB36:
 520:Source\azure_iot_sdk\uamqp\src/session.c ****         {
 2405              		.loc 1 520 0
 2406 0208 08A9     		add	r1, sp, #32
 2407 020a 2000     		movs	r0, r4
 2408 020c FFF7FEFF 		bl	amqpvalue_get_detach
 2409              	.LVL362:
 2410 0210 0028     		cmp	r0, #0
 2411 0212 05D0     		beq	.L174
 522:Source\azure_iot_sdk\uamqp\src/session.c ****         }
 2412              		.loc 1 522 0
 2413 0214 594A     		ldr	r2, .L209+40
 2414 0216 5049     		ldr	r1, .L209+4
 2415 0218 3000     		movs	r0, r6
 2416 021a FFF7FEFF 		bl	end_session_with_error
 2417              	.LVL363:
 2418 021e 4EE1     		b	.L151
 2419              	.L174:
 2420              	.LBB37:
 527:Source\azure_iot_sdk\uamqp\src/session.c ****             {
 2421              		.loc 1 527 0
 2422 0220 09A9     		add	r1, sp, #36
 2423 0222 0898     		ldr	r0, [sp, #32]
 2424 0224 FFF7FEFF 		bl	detach_get_handle
 2425              	.LVL364:
ARM GAS  C:\Users\Phuong\AppData\Local\Temp\ccX7yw2d.s 			page 71


 2426 0228 0028     		cmp	r0, #0
 2427 022a 08D0     		beq	.L176
 529:Source\azure_iot_sdk\uamqp\src/session.c **** 
 2428              		.loc 1 529 0
 2429 022c 544A     		ldr	r2, .L209+44
 2430 022e 4A49     		ldr	r1, .L209+4
 2431 0230 3000     		movs	r0, r6
 2432 0232 FFF7FEFF 		bl	end_session_with_error
 2433              	.LVL365:
 531:Source\azure_iot_sdk\uamqp\src/session.c ****             }
 2434              		.loc 1 531 0
 2435 0236 0898     		ldr	r0, [sp, #32]
 2436 0238 FFF7FEFF 		bl	detach_destroy
 2437              	.LVL366:
 2438 023c 3FE1     		b	.L151
 2439              	.L176:
 2440              	.LBB38:
 536:Source\azure_iot_sdk\uamqp\src/session.c **** 
 2441              		.loc 1 536 0
 2442 023e 0898     		ldr	r0, [sp, #32]
 2443 0240 FFF7FEFF 		bl	detach_destroy
 2444              	.LVL367:
 538:Source\azure_iot_sdk\uamqp\src/session.c ****                 if (link_endpoint == NULL)
 2445              		.loc 1 538 0
 2446 0244 0999     		ldr	r1, [sp, #36]
 2447 0246 3000     		movs	r0, r6
 2448 0248 FFF7FEFF 		bl	find_link_endpoint_by_input_handle
 2449              	.LVL368:
 2450 024c 051E     		subs	r5, r0, #0
 2451              	.LVL369:
 539:Source\azure_iot_sdk\uamqp\src/session.c ****                 {
 2452              		.loc 1 539 0
 2453 024e 05D1     		bne	.L178
 541:Source\azure_iot_sdk\uamqp\src/session.c ****                 }
 2454              		.loc 1 541 0
 2455 0250 4C4A     		ldr	r2, .L209+48
 2456 0252 4D49     		ldr	r1, .L209+52
 2457 0254 3000     		movs	r0, r6
 2458              	.LVL370:
 2459 0256 FFF7FEFF 		bl	end_session_with_error
 2460              	.LVL371:
 2461 025a 30E1     		b	.L151
 2462              	.LVL372:
 2463              	.L178:
 545:Source\azure_iot_sdk\uamqp\src/session.c ****                     {
 2464              		.loc 1 545 0
 2465 025c 2023     		movs	r3, #32
 2466 025e C35C     		ldrb	r3, [r0, r3]
 2467 0260 022B     		cmp	r3, #2
 2468 0262 09D0     		beq	.L179
 547:Source\azure_iot_sdk\uamqp\src/session.c ****                         link_endpoint->frame_received_callback(link_endpoint->callback_context, per
 2469              		.loc 1 547 0
 2470 0264 0222     		movs	r2, #2
 2471 0266 2023     		movs	r3, #32
 2472 0268 C254     		strb	r2, [r0, r3]
 548:Source\azure_iot_sdk\uamqp\src/session.c ****                     }
 2473              		.loc 1 548 0
ARM GAS  C:\Users\Phuong\AppData\Local\Temp\ccX7yw2d.s 			page 72


 2474 026a C668     		ldr	r6, [r0, #12]
 2475              	.LVL373:
 2476 026c 8069     		ldr	r0, [r0, #24]
 2477              	.LVL374:
 2478 026e 3B00     		movs	r3, r7
 2479 0270 039A     		ldr	r2, [sp, #12]
 2480 0272 2100     		movs	r1, r4
 2481 0274 B047     		blx	r6
 2482              	.LVL375:
 2483 0276 22E1     		b	.L151
 2484              	.LVL376:
 2485              	.L179:
 553:Source\azure_iot_sdk\uamqp\src/session.c ****                         free_link_endpoint(link_endpoint);
 2486              		.loc 1 553 0
 2487 0278 FFF7FEFF 		bl	remove_link_endpoint
 2488              	.LVL377:
 554:Source\azure_iot_sdk\uamqp\src/session.c ****                     }
 2489              		.loc 1 554 0
 2490 027c 2800     		movs	r0, r5
 2491 027e FFF7FEFF 		bl	free_link_endpoint
 2492              	.LVL378:
 2493 0282 1CE1     		b	.L151
 2494              	.LVL379:
 2495              	.L173:
 2496              	.LBE38:
 2497              	.LBE37:
 2498              	.LBE36:
 560:Source\azure_iot_sdk\uamqp\src/session.c ****     {
 2499              		.loc 1 560 0
 2500 0284 2800     		movs	r0, r5
 2501 0286 FFF7FEFF 		bl	is_flow_type_by_descriptor
 2502              	.LVL380:
 2503 028a 0028     		cmp	r0, #0
 2504 028c 00D1     		bne	.LCB2633
 2505 028e 7FE0     		b	.L180	@long jump
 2506              	.LCB2633:
 2507              	.LBB39:
 564:Source\azure_iot_sdk\uamqp\src/session.c ****         {
 2508              		.loc 1 564 0
 2509 0290 06A9     		add	r1, sp, #24
 2510 0292 2000     		movs	r0, r4
 2511 0294 FFF7FEFF 		bl	amqpvalue_get_flow
 2512              	.LVL381:
 2513 0298 0028     		cmp	r0, #0
 2514 029a 05D0     		beq	.L181
 566:Source\azure_iot_sdk\uamqp\src/session.c ****         }
 2515              		.loc 1 566 0
 2516 029c 3B4A     		ldr	r2, .L209+56
 2517 029e 2E49     		ldr	r1, .L209+4
 2518 02a0 3000     		movs	r0, r6
 2519 02a2 FFF7FEFF 		bl	end_session_with_error
 2520              	.LVL382:
 2521 02a6 0AE1     		b	.L151
 2522              	.L181:
 2523              	.LBB40:
 574:Source\azure_iot_sdk\uamqp\src/session.c ****             {
 2524              		.loc 1 574 0
ARM GAS  C:\Users\Phuong\AppData\Local\Temp\ccX7yw2d.s 			page 73


 2525 02a8 08A9     		add	r1, sp, #32
 2526 02aa 0698     		ldr	r0, [sp, #24]
 2527 02ac FFF7FEFF 		bl	flow_get_next_incoming_id
 2528              	.LVL383:
 2529 02b0 0028     		cmp	r0, #0
 2530 02b2 01D0     		beq	.L183
 581:Source\azure_iot_sdk\uamqp\src/session.c ****             }
 2531              		.loc 1 581 0
 2532 02b4 736A     		ldr	r3, [r6, #36]
 2533 02b6 0893     		str	r3, [sp, #32]
 2534              	.L183:
 584:Source\azure_iot_sdk\uamqp\src/session.c ****                 (flow_get_incoming_window(flow_handle, &flow_incoming_window) != 0))
 2535              		.loc 1 584 0
 2536 02b8 3100     		movs	r1, r6
 2537 02ba 2831     		adds	r1, r1, #40
 2538 02bc 0698     		ldr	r0, [sp, #24]
 2539 02be FFF7FEFF 		bl	flow_get_next_outgoing_id
 2540              	.LVL384:
 2541 02c2 0028     		cmp	r0, #0
 2542 02c4 05D1     		bne	.L184
 585:Source\azure_iot_sdk\uamqp\src/session.c ****             {
 2543              		.loc 1 585 0 discriminator 1
 2544 02c6 09A9     		add	r1, sp, #36
 2545 02c8 0698     		ldr	r0, [sp, #24]
 2546 02ca FFF7FEFF 		bl	flow_get_incoming_window
 2547              	.LVL385:
 584:Source\azure_iot_sdk\uamqp\src/session.c ****                 (flow_get_incoming_window(flow_handle, &flow_incoming_window) != 0))
 2548              		.loc 1 584 0 discriminator 1
 2549 02ce 0028     		cmp	r0, #0
 2550 02d0 08D0     		beq	.L185
 2551              	.L184:
 587:Source\azure_iot_sdk\uamqp\src/session.c **** 
 2552              		.loc 1 587 0
 2553 02d2 0698     		ldr	r0, [sp, #24]
 2554 02d4 FFF7FEFF 		bl	flow_destroy
 2555              	.LVL386:
 589:Source\azure_iot_sdk\uamqp\src/session.c ****             }
 2556              		.loc 1 589 0
 2557 02d8 2C4A     		ldr	r2, .L209+56
 2558 02da 1F49     		ldr	r1, .L209+4
 2559 02dc 3000     		movs	r0, r6
 2560 02de FFF7FEFF 		bl	end_session_with_error
 2561              	.LVL387:
 2562 02e2 ECE0     		b	.L151
 2563              	.L185:
 2564              	.LVL388:
 2565              	.LBB41:
 596:Source\azure_iot_sdk\uamqp\src/session.c **** 
 2566              		.loc 1 596 0
 2567 02e4 089B     		ldr	r3, [sp, #32]
 2568 02e6 099A     		ldr	r2, [sp, #36]
 2569 02e8 9446     		mov	ip, r2
 2570 02ea 6344     		add	r3, r3, ip
 2571 02ec 726A     		ldr	r2, [r6, #36]
 2572 02ee 9B1A     		subs	r3, r3, r2
 2573 02f0 F363     		str	r3, [r6, #60]
 598:Source\azure_iot_sdk\uamqp\src/session.c ****                 {
ARM GAS  C:\Users\Phuong\AppData\Local\Temp\ccX7yw2d.s 			page 74


 2574              		.loc 1 598 0
 2575 02f2 07A9     		add	r1, sp, #28
 2576 02f4 0698     		ldr	r0, [sp, #24]
 2577 02f6 FFF7FEFF 		bl	flow_get_handle
 2578              	.LVL389:
 2579 02fa 0028     		cmp	r0, #0
 2580 02fc 05D1     		bne	.L206
 600:Source\azure_iot_sdk\uamqp\src/session.c ****                 }
 2581              		.loc 1 600 0
 2582 02fe 0799     		ldr	r1, [sp, #28]
 2583 0300 3000     		movs	r0, r6
 2584 0302 FFF7FEFF 		bl	find_link_endpoint_by_input_handle
 2585              	.LVL390:
 2586 0306 0500     		movs	r5, r0
 2587              	.LVL391:
 2588 0308 00E0     		b	.L187
 2589              	.LVL392:
 2590              	.L206:
 593:Source\azure_iot_sdk\uamqp\src/session.c ****                 size_t i;
 2591              		.loc 1 593 0
 2592 030a 0025     		movs	r5, #0
 2593              	.LVL393:
 2594              	.L187:
 603:Source\azure_iot_sdk\uamqp\src/session.c **** 
 2595              		.loc 1 603 0
 2596 030c 0698     		ldr	r0, [sp, #24]
 2597 030e FFF7FEFF 		bl	flow_destroy
 2598              	.LVL394:
 605:Source\azure_iot_sdk\uamqp\src/session.c ****                 {
 2599              		.loc 1 605 0
 2600 0312 002D     		cmp	r5, #0
 2601 0314 0AD0     		beq	.L188
 607:Source\azure_iot_sdk\uamqp\src/session.c ****                     {
 2602              		.loc 1 607 0
 2603 0316 2023     		movs	r3, #32
 2604 0318 EB5C     		ldrb	r3, [r5, r3]
 2605 031a 022B     		cmp	r3, #2
 2606 031c 06D0     		beq	.L188
 609:Source\azure_iot_sdk\uamqp\src/session.c ****                     }
 2607              		.loc 1 609 0
 2608 031e EB68     		ldr	r3, [r5, #12]
 2609 0320 9946     		mov	r9, r3
 2610 0322 A869     		ldr	r0, [r5, #24]
 2611 0324 3B00     		movs	r3, r7
 2612 0326 039A     		ldr	r2, [sp, #12]
 2613 0328 2100     		movs	r1, r4
 2614 032a C847     		blx	r9
 2615              	.LVL395:
 2616              	.L188:
 593:Source\azure_iot_sdk\uamqp\src/session.c ****                 size_t i;
 2617              		.loc 1 593 0
 2618 032c 0024     		movs	r4, #0
 2619              	.LVL396:
 2620 032e 08E0     		b	.L189
 2621              	.LVL397:
 2622              	.L191:
 617:Source\azure_iot_sdk\uamqp\src/session.c ****                     {
ARM GAS  C:\Users\Phuong\AppData\Local\Temp\ccX7yw2d.s 			page 75


 2623              		.loc 1 617 0
 2624 0330 A300     		lsls	r3, r4, #2
 2625 0332 7269     		ldr	r2, [r6, #20]
 2626 0334 9A58     		ldr	r2, [r3, r2]
 2627 0336 5369     		ldr	r3, [r2, #20]
 2628 0338 002B     		cmp	r3, #0
 2629 033a 01D0     		beq	.L190
 619:Source\azure_iot_sdk\uamqp\src/session.c ****                     }
 2630              		.loc 1 619 0
 2631 033c 9069     		ldr	r0, [r2, #24]
 2632 033e 9847     		blx	r3
 2633              	.LVL398:
 2634              	.L190:
 622:Source\azure_iot_sdk\uamqp\src/session.c ****                 }
 2635              		.loc 1 622 0
 2636 0340 0134     		adds	r4, r4, #1
 2637              	.LVL399:
 2638              	.L189:
 614:Source\azure_iot_sdk\uamqp\src/session.c ****                 {
 2639              		.loc 1 614 0
 2640 0342 F36B     		ldr	r3, [r6, #60]
 2641 0344 002B     		cmp	r3, #0
 2642 0346 00D1     		bne	.LCB2787
 2643 0348 B9E0     		b	.L151	@long jump
 2644              	.LCB2787:
 614:Source\azure_iot_sdk\uamqp\src/session.c ****                 {
 2645              		.loc 1 614 0 is_stmt 0 discriminator 1
 2646 034a B369     		ldr	r3, [r6, #24]
 2647 034c 9C42     		cmp	r4, r3
 2648 034e EFD3     		bcc	.L191
 2649 0350 B5E0     		b	.L151
 2650              	.L210:
 2651 0352 C046     		.align	2
 2652              	.L209:
 2653 0354 40000000 		.word	.LC6
 2654 0358 5C000000 		.word	.LC8
 2655 035c 70000000 		.word	.LC10
 2656 0360 A4000000 		.word	.LC12
 2657 0364 2C000000 		.word	.LC2
 2658 0368 C0000000 		.word	.LC15
 2659 036c DC000000 		.word	.LC17
 2660 0370 04010000 		.word	.LC19
 2661 0374 2C010000 		.word	.LC21
 2662 0378 48010000 		.word	.LC23
 2663 037c 74010000 		.word	.LC25
 2664 0380 90010000 		.word	.LC27
 2665 0384 B4010000 		.word	.LC29
 2666 0388 B8010000 		.word	.LC31
 2667 038c D8010000 		.word	.LC33
 2668              	.LVL400:
 2669              	.L180:
 2670              	.LBE41:
 2671              	.LBE40:
 2672              	.LBE39:
 627:Source\azure_iot_sdk\uamqp\src/session.c ****     {
 2673              		.loc 1 627 0 is_stmt 1
 2674 0390 2800     		movs	r0, r5
ARM GAS  C:\Users\Phuong\AppData\Local\Temp\ccX7yw2d.s 			page 76


 2675 0392 FFF7FEFF 		bl	is_transfer_type_by_descriptor
 2676              	.LVL401:
 2677 0396 0028     		cmp	r0, #0
 2678 0398 49D0     		beq	.L192
 2679              	.LBB42:
 631:Source\azure_iot_sdk\uamqp\src/session.c ****         {
 2680              		.loc 1 631 0
 2681 039a 07A9     		add	r1, sp, #28
 2682 039c 2000     		movs	r0, r4
 2683 039e FFF7FEFF 		bl	amqpvalue_get_transfer
 2684              	.LVL402:
 2685 03a2 0028     		cmp	r0, #0
 2686 03a4 05D0     		beq	.L193
 633:Source\azure_iot_sdk\uamqp\src/session.c ****         }
 2687              		.loc 1 633 0
 2688 03a6 484A     		ldr	r2, .L211
 2689 03a8 4849     		ldr	r1, .L211+4
 2690 03aa 3000     		movs	r0, r6
 2691 03ac FFF7FEFF 		bl	end_session_with_error
 2692              	.LVL403:
 2693 03b0 85E0     		b	.L151
 2694              	.L193:
 2695              	.LBB43:
 640:Source\azure_iot_sdk\uamqp\src/session.c ****             if (transfer_get_handle(transfer_handle, &remote_handle) != 0)
 2696              		.loc 1 640 0
 2697 03b2 09A9     		add	r1, sp, #36
 2698 03b4 0798     		ldr	r0, [sp, #28]
 2699 03b6 FFF7FEFF 		bl	transfer_get_delivery_id
 2700              	.LVL404:
 641:Source\azure_iot_sdk\uamqp\src/session.c ****             {
 2701              		.loc 1 641 0
 2702 03ba 08A9     		add	r1, sp, #32
 2703 03bc 0798     		ldr	r0, [sp, #28]
 2704 03be FFF7FEFF 		bl	transfer_get_handle
 2705              	.LVL405:
 2706 03c2 0028     		cmp	r0, #0
 2707 03c4 08D0     		beq	.L195
 643:Source\azure_iot_sdk\uamqp\src/session.c ****                 end_session_with_error(session_instance, "amqp:decode-error", "Cannot get handle fr
 2708              		.loc 1 643 0
 2709 03c6 0798     		ldr	r0, [sp, #28]
 2710 03c8 FFF7FEFF 		bl	transfer_destroy
 2711              	.LVL406:
 644:Source\azure_iot_sdk\uamqp\src/session.c ****             }
 2712              		.loc 1 644 0
 2713 03cc 404A     		ldr	r2, .L211+8
 2714 03ce 3F49     		ldr	r1, .L211+4
 2715 03d0 3000     		movs	r0, r6
 2716 03d2 FFF7FEFF 		bl	end_session_with_error
 2717              	.LVL407:
 2718 03d6 72E0     		b	.L151
 2719              	.L195:
 2720              	.LBB44:
 649:Source\azure_iot_sdk\uamqp\src/session.c **** 
 2721              		.loc 1 649 0
 2722 03d8 0798     		ldr	r0, [sp, #28]
 2723 03da FFF7FEFF 		bl	transfer_destroy
 2724              	.LVL408:
ARM GAS  C:\Users\Phuong\AppData\Local\Temp\ccX7yw2d.s 			page 77


 651:Source\azure_iot_sdk\uamqp\src/session.c ****                 session_instance->remote_outgoing_window--;
 2725              		.loc 1 651 0
 2726 03de B36A     		ldr	r3, [r6, #40]
 2727 03e0 0133     		adds	r3, r3, #1
 2728 03e2 B362     		str	r3, [r6, #40]
 652:Source\azure_iot_sdk\uamqp\src/session.c ****                 session_instance->incoming_window--;
 2729              		.loc 1 652 0
 2730 03e4 336C     		ldr	r3, [r6, #64]
 2731 03e6 013B     		subs	r3, r3, #1
 2732 03e8 3364     		str	r3, [r6, #64]
 653:Source\azure_iot_sdk\uamqp\src/session.c **** 
 2733              		.loc 1 653 0
 2734 03ea 336B     		ldr	r3, [r6, #48]
 2735 03ec 013B     		subs	r3, r3, #1
 2736 03ee 3363     		str	r3, [r6, #48]
 655:Source\azure_iot_sdk\uamqp\src/session.c ****                 if (link_endpoint == NULL)
 2737              		.loc 1 655 0
 2738 03f0 0899     		ldr	r1, [sp, #32]
 2739 03f2 3000     		movs	r0, r6
 2740 03f4 FFF7FEFF 		bl	find_link_endpoint_by_input_handle
 2741              	.LVL409:
 656:Source\azure_iot_sdk\uamqp\src/session.c ****                 {
 2742              		.loc 1 656 0
 2743 03f8 0028     		cmp	r0, #0
 2744 03fa 05D1     		bne	.L197
 658:Source\azure_iot_sdk\uamqp\src/session.c ****                 }
 2745              		.loc 1 658 0
 2746 03fc 354A     		ldr	r2, .L211+12
 2747 03fe 3649     		ldr	r1, .L211+16
 2748 0400 3000     		movs	r0, r6
 2749              	.LVL410:
 2750 0402 FFF7FEFF 		bl	end_session_with_error
 2751              	.LVL411:
 2752 0406 09E0     		b	.L198
 2753              	.LVL412:
 2754              	.L197:
 662:Source\azure_iot_sdk\uamqp\src/session.c ****                     {
 2755              		.loc 1 662 0
 2756 0408 2023     		movs	r3, #32
 2757 040a C35C     		ldrb	r3, [r0, r3]
 2758 040c 022B     		cmp	r3, #2
 2759 040e 05D0     		beq	.L198
 664:Source\azure_iot_sdk\uamqp\src/session.c ****                     }
 2760              		.loc 1 664 0
 2761 0410 C568     		ldr	r5, [r0, #12]
 2762              	.LVL413:
 2763 0412 8069     		ldr	r0, [r0, #24]
 2764              	.LVL414:
 2765 0414 3B00     		movs	r3, r7
 2766 0416 039A     		ldr	r2, [sp, #12]
 2767 0418 2100     		movs	r1, r4
 2768 041a A847     		blx	r5
 2769              	.LVL415:
 2770              	.L198:
 668:Source\azure_iot_sdk\uamqp\src/session.c ****                 {
 2771              		.loc 1 668 0
 2772 041c 336B     		ldr	r3, [r6, #48]
ARM GAS  C:\Users\Phuong\AppData\Local\Temp\ccX7yw2d.s 			page 78


 2773 041e 002B     		cmp	r3, #0
 2774 0420 4DD1     		bne	.L151
 670:Source\azure_iot_sdk\uamqp\src/session.c ****                     send_flow(session_instance);
 2775              		.loc 1 670 0
 2776 0422 F36A     		ldr	r3, [r6, #44]
 2777 0424 3363     		str	r3, [r6, #48]
 671:Source\azure_iot_sdk\uamqp\src/session.c ****                 }
 2778              		.loc 1 671 0
 2779 0426 3000     		movs	r0, r6
 2780 0428 FFF7FEFF 		bl	send_flow
 2781              	.LVL416:
 2782 042c 47E0     		b	.L151
 2783              	.LVL417:
 2784              	.L192:
 2785              	.LBE44:
 2786              	.LBE43:
 2787              	.LBE42:
 676:Source\azure_iot_sdk\uamqp\src/session.c ****     {
 2788              		.loc 1 676 0
 2789 042e 2800     		movs	r0, r5
 2790 0430 FFF7FEFF 		bl	is_disposition_type_by_descriptor
 2791              	.LVL418:
 2792 0434 0028     		cmp	r0, #0
 2793 0436 10D1     		bne	.L207
 2794 0438 14E0     		b	.L208
 2795              	.LVL419:
 2796              	.L202:
 2797              	.LBB45:
 2798              	.LBB46:
 682:Source\azure_iot_sdk\uamqp\src/session.c ****             if (link_endpoint->link_endpoint_state != LINK_ENDPOINT_STATE_DETACHING)
 2799              		.loc 1 682 0
 2800 043a AB00     		lsls	r3, r5, #2
 2801 043c 7269     		ldr	r2, [r6, #20]
 2802 043e D358     		ldr	r3, [r2, r3]
 2803              	.LVL420:
 683:Source\azure_iot_sdk\uamqp\src/session.c ****             {
 2804              		.loc 1 683 0
 2805 0440 2022     		movs	r2, #32
 2806 0442 9A5C     		ldrb	r2, [r3, r2]
 2807 0444 022A     		cmp	r2, #2
 2808 0446 06D0     		beq	.L201
 685:Source\azure_iot_sdk\uamqp\src/session.c ****             }
 2809              		.loc 1 685 0
 2810 0448 DA68     		ldr	r2, [r3, #12]
 2811 044a 9146     		mov	r9, r2
 2812 044c 9869     		ldr	r0, [r3, #24]
 2813 044e 3B00     		movs	r3, r7
 2814              	.LVL421:
 2815 0450 039A     		ldr	r2, [sp, #12]
 2816 0452 2100     		movs	r1, r4
 2817 0454 C847     		blx	r9
 2818              	.LVL422:
 2819              	.L201:
 2820              	.LBE46:
 680:Source\azure_iot_sdk\uamqp\src/session.c ****         {
 2821              		.loc 1 680 0 discriminator 2
 2822 0456 0135     		adds	r5, r5, #1
ARM GAS  C:\Users\Phuong\AppData\Local\Temp\ccX7yw2d.s 			page 79


 2823              	.LVL423:
 2824 0458 00E0     		b	.L199
 2825              	.LVL424:
 2826              	.L207:
 2827              	.LBE45:
 2828 045a 0025     		movs	r5, #0
 2829              	.LVL425:
 2830              	.L199:
 2831              	.LBB47:
 680:Source\azure_iot_sdk\uamqp\src/session.c ****         {
 2832              		.loc 1 680 0 is_stmt 0 discriminator 1
 2833 045c B369     		ldr	r3, [r6, #24]
 2834 045e 9D42     		cmp	r5, r3
 2835 0460 EBD3     		bcc	.L202
 2836 0462 2CE0     		b	.L151
 2837              	.LVL426:
 2838              	.L208:
 2839              	.LBE47:
 689:Source\azure_iot_sdk\uamqp\src/session.c ****     {
 2840              		.loc 1 689 0 is_stmt 1
 2841 0464 2800     		movs	r0, r5
 2842 0466 FFF7FEFF 		bl	is_end_type_by_descriptor
 2843              	.LVL427:
 2844 046a 0028     		cmp	r0, #0
 2845 046c 27D0     		beq	.L151
 2846              	.LBB48:
 693:Source\azure_iot_sdk\uamqp\src/session.c ****         {
 2847              		.loc 1 693 0
 2848 046e 09A9     		add	r1, sp, #36
 2849 0470 2000     		movs	r0, r4
 2850 0472 FFF7FEFF 		bl	amqpvalue_get_end
 2851              	.LVL428:
 2852 0476 0028     		cmp	r0, #0
 2853 0478 05D0     		beq	.L203
 695:Source\azure_iot_sdk\uamqp\src/session.c ****         }
 2854              		.loc 1 695 0
 2855 047a 184A     		ldr	r2, .L211+20
 2856 047c 1349     		ldr	r1, .L211+4
 2857 047e 3000     		movs	r0, r6
 2858 0480 FFF7FEFF 		bl	end_session_with_error
 2859              	.LVL429:
 2860 0484 1BE0     		b	.L151
 2861              	.L203:
 699:Source\azure_iot_sdk\uamqp\src/session.c ****             if ((session_instance->session_state != SESSION_STATE_END_RCVD) &&
 2862              		.loc 1 699 0
 2863 0486 0998     		ldr	r0, [sp, #36]
 2864 0488 FFF7FEFF 		bl	end_destroy
 2865              	.LVL430:
 700:Source\azure_iot_sdk\uamqp\src/session.c ****                 (session_instance->session_state != SESSION_STATE_DISCARDING))
 2866              		.loc 1 700 0
 2867 048c 337A     		ldrb	r3, [r6, #8]
 2868 048e 053B     		subs	r3, r3, #5
 2869 0490 DBB2     		uxtb	r3, r3
 2870 0492 012B     		cmp	r3, #1
 2871 0494 13D9     		bls	.L151
 703:Source\azure_iot_sdk\uamqp\src/session.c ****                 if (send_end_frame(session_instance, NULL) != 0)
 2872              		.loc 1 703 0
ARM GAS  C:\Users\Phuong\AppData\Local\Temp\ccX7yw2d.s 			page 80


 2873 0496 0521     		movs	r1, #5
 2874 0498 3000     		movs	r0, r6
 2875 049a FFF7FEFF 		bl	session_set_state
 2876              	.LVL431:
 704:Source\azure_iot_sdk\uamqp\src/session.c ****                 {
 2877              		.loc 1 704 0
 2878 049e 0021     		movs	r1, #0
 2879 04a0 3000     		movs	r0, r6
 2880 04a2 FFF7FEFF 		bl	send_end_frame
 2881              	.LVL432:
 2882 04a6 0028     		cmp	r0, #0
 2883 04a8 05D0     		beq	.L205
 707:Source\azure_iot_sdk\uamqp\src/session.c ****                 }
 2884              		.loc 1 707 0
 2885 04aa 0023     		movs	r3, #0
 2886 04ac 0C4A     		ldr	r2, .L211+24
 2887 04ae 0D49     		ldr	r1, .L211+28
 2888 04b0 F068     		ldr	r0, [r6, #12]
 2889 04b2 FFF7FEFF 		bl	connection_close
 2890              	.LVL433:
 2891              	.L205:
 710:Source\azure_iot_sdk\uamqp\src/session.c ****             }
 2892              		.loc 1 710 0
 2893 04b6 0621     		movs	r1, #6
 2894 04b8 3000     		movs	r0, r6
 2895 04ba FFF7FEFF 		bl	session_set_state
 2896              	.LVL434:
 2897              	.L151:
 2898              	.LBE48:
 714:Source\azure_iot_sdk\uamqp\src/session.c **** 
 2899              		.loc 1 714 0
 2900 04be 0AB0     		add	sp, sp, #40
 2901              		@ sp needed
 2902              	.LVL435:
 2903 04c0 04BC     		pop	{r2}
 2904 04c2 9146     		mov	r9, r2
 2905 04c4 F0BD     		pop	{r4, r5, r6, r7, pc}
 2906              	.L212:
 2907 04c6 C046     		.align	2
 2908              	.L211:
 2909 04c8 F4010000 		.word	.LC35
 2910 04cc 5C000000 		.word	.LC8
 2911 04d0 14020000 		.word	.LC37
 2912 04d4 B4010000 		.word	.LC29
 2913 04d8 B8010000 		.word	.LC31
 2914 04dc 3C020000 		.word	.LC39
 2915 04e0 54020000 		.word	.LC41
 2916 04e4 2C000000 		.word	.LC2
 2917              		.cfi_endproc
 2918              	.LFE10:
 2919              		.size	on_frame_received, .-on_frame_received
 2920              		.section	.text.session_destroy_link_endpoint,"ax",%progbits
 2921              		.align	2
 2922              		.global	session_destroy_link_endpoint
 2923              		.code	16
 2924              		.thumb_func
 2925              		.type	session_destroy_link_endpoint, %function
ARM GAS  C:\Users\Phuong\AppData\Local\Temp\ccX7yw2d.s 			page 81


 2926              	session_destroy_link_endpoint:
 2927              	.LFB23:
1150:Source\azure_iot_sdk\uamqp\src/session.c ****     if (link_endpoint != NULL)
 2928              		.loc 1 1150 0
 2929              		.cfi_startproc
 2930              		@ args = 0, pretend = 0, frame = 0
 2931              		@ frame_needed = 0, uses_anonymous_args = 0
 2932              	.LVL436:
 2933 0000 10B5     		push	{r4, lr}
 2934              		.cfi_def_cfa_offset 8
 2935              		.cfi_offset 4, -8
 2936              		.cfi_offset 14, -4
 2937 0002 041E     		subs	r4, r0, #0
1151:Source\azure_iot_sdk\uamqp\src/session.c ****     {
 2938              		.loc 1 1151 0
 2939 0004 0CD0     		beq	.L213
 2940              	.LVL437:
 2941              	.LBB49:
1155:Source\azure_iot_sdk\uamqp\src/session.c ****         {
 2942              		.loc 1 1155 0
 2943 0006 2023     		movs	r3, #32
 2944 0008 C35C     		ldrb	r3, [r0, r3]
 2945 000a 012B     		cmp	r3, #1
 2946 000c 03D1     		bne	.L215
1157:Source\azure_iot_sdk\uamqp\src/session.c ****         }
 2947              		.loc 1 1157 0
 2948 000e 0222     		movs	r2, #2
 2949 0010 1F33     		adds	r3, r3, #31
 2950 0012 C254     		strb	r2, [r0, r3]
 2951 0014 04E0     		b	.L213
 2952              	.L215:
1161:Source\azure_iot_sdk\uamqp\src/session.c ****             free_link_endpoint(link_endpoint);
 2953              		.loc 1 1161 0
 2954 0016 FFF7FEFF 		bl	remove_link_endpoint
 2955              	.LVL438:
1162:Source\azure_iot_sdk\uamqp\src/session.c ****         }
 2956              		.loc 1 1162 0
 2957 001a 2000     		movs	r0, r4
 2958 001c FFF7FEFF 		bl	free_link_endpoint
 2959              	.LVL439:
 2960              	.L213:
 2961              	.LBE49:
1165:Source\azure_iot_sdk\uamqp\src/session.c **** 
 2962              		.loc 1 1165 0
 2963              		@ sp needed
 2964              	.LVL440:
 2965 0020 10BD     		pop	{r4, pc}
 2966              		.cfi_endproc
 2967              	.LFE23:
 2968              		.size	session_destroy_link_endpoint, .-session_destroy_link_endpoint
 2969 0022 C046     		.section	.text.session_start_link_endpoint,"ax",%progbits
 2970              		.align	2
 2971              		.global	session_start_link_endpoint
 2972              		.code	16
 2973              		.thumb_func
 2974              		.type	session_start_link_endpoint, %function
 2975              	session_start_link_endpoint:
ARM GAS  C:\Users\Phuong\AppData\Local\Temp\ccX7yw2d.s 			page 82


 2976              	.LFB24:
1168:Source\azure_iot_sdk\uamqp\src/session.c ****     int result;
 2977              		.loc 1 1168 0
 2978              		.cfi_startproc
 2979              		@ args = 4, pretend = 0, frame = 0
 2980              		@ frame_needed = 0, uses_anonymous_args = 0
 2981              	.LVL441:
 2982 0000 10B5     		push	{r4, lr}
 2983              		.cfi_def_cfa_offset 8
 2984              		.cfi_offset 4, -8
 2985              		.cfi_offset 14, -4
 2986 0002 1400     		movs	r4, r2
1171:Source\azure_iot_sdk\uamqp\src/session.c ****         (frame_received_callback == NULL))
 2987              		.loc 1 1171 0
 2988 0004 0028     		cmp	r0, #0
 2989 0006 12D0     		beq	.L218
1171:Source\azure_iot_sdk\uamqp\src/session.c ****         (frame_received_callback == NULL))
 2990              		.loc 1 1171 0 is_stmt 0 discriminator 1
 2991 0008 0029     		cmp	r1, #0
 2992 000a 12D0     		beq	.L219
1178:Source\azure_iot_sdk\uamqp\src/session.c ****         link_endpoint->on_session_state_changed = on_session_state_changed;
 2993              		.loc 1 1178 0 is_stmt 1
 2994 000c C160     		str	r1, [r0, #12]
1179:Source\azure_iot_sdk\uamqp\src/session.c ****         link_endpoint->on_session_flow_on = on_session_flow_on;
 2995              		.loc 1 1179 0
 2996 000e 0261     		str	r2, [r0, #16]
1180:Source\azure_iot_sdk\uamqp\src/session.c ****         link_endpoint->callback_context = context;
 2997              		.loc 1 1180 0
 2998 0010 4361     		str	r3, [r0, #20]
1181:Source\azure_iot_sdk\uamqp\src/session.c ****         link_endpoint->link_endpoint_state = LINK_ENDPOINT_STATE_NOT_ATTACHED;
 2999              		.loc 1 1181 0
 3000 0012 029B     		ldr	r3, [sp, #8]
 3001              	.LVL442:
 3002 0014 8361     		str	r3, [r0, #24]
1182:Source\azure_iot_sdk\uamqp\src/session.c **** 
 3003              		.loc 1 1182 0
 3004 0016 0022     		movs	r2, #0
 3005              	.LVL443:
 3006 0018 2023     		movs	r3, #32
 3007 001a C254     		strb	r2, [r0, r3]
 3008              	.LVL444:
1184:Source\azure_iot_sdk\uamqp\src/session.c ****         {
 3009              		.loc 1 1184 0
 3010 001c 002C     		cmp	r4, #0
 3011 001e 0AD0     		beq	.L220
1186:Source\azure_iot_sdk\uamqp\src/session.c ****         }
 3012              		.loc 1 1186 0
 3013 0020 C369     		ldr	r3, [r0, #28]
 3014 0022 5A7A     		ldrb	r2, [r3, #9]
 3015 0024 197A     		ldrb	r1, [r3, #8]
 3016              	.LVL445:
 3017 0026 0298     		ldr	r0, [sp, #8]
 3018              	.LVL446:
 3019 0028 A047     		blx	r4
