ARM GAS  C:\Users\Phuong\AppData\Local\Temp\ccX7yw2d.s 			page 1


   1              		.syntax unified
   2              		.cpu cortex-m0plus
   3              		.fpu softvfp
   4              		.eabi_attribute 20, 1
   5              		.eabi_attribute 21, 1
   6              		.eabi_attribute 23, 3
   7              		.eabi_attribute 24, 1
   8              		.eabi_attribute 25, 1
   9              		.eabi_attribute 26, 1
  10              		.eabi_attribute 30, 1
  11              		.eabi_attribute 34, 0
  12              		.eabi_attribute 18, 4
  13              		.thumb
  14              		.syntax unified
  15              		.file	"session.c"
  16              		.text
  17              	.Ltext0:
  18              		.cfi_sections	.debug_frame
  19              		.section	.text.session_set_state,"ax",%progbits
  20              		.align	2
  21              		.code	16
  22              		.thumb_func
  23              		.type	session_set_state, %function
  24              	session_set_state:
  25              	.LFB2:
  26              		.file 1 "Source\\azure_iot_sdk\\uamqp\\src\\session.c"
   1:Source\azure_iot_sdk\uamqp\src/session.c **** // Copyright (c) Microsoft. All rights reserved.
   2:Source\azure_iot_sdk\uamqp\src/session.c **** // Licensed under the MIT license. See LICENSE file in the project root for full license informatio
   3:Source\azure_iot_sdk\uamqp\src/session.c **** 
   4:Source\azure_iot_sdk\uamqp\src/session.c **** #include <stdlib.h>
   5:Source\azure_iot_sdk\uamqp\src/session.c **** #include <string.h>
   6:Source\azure_iot_sdk\uamqp\src/session.c **** #include "azure_c_shared_utility/optimize_size.h"
   7:Source\azure_iot_sdk\uamqp\src/session.c **** #include "azure_c_shared_utility/gballoc.h"
   8:Source\azure_iot_sdk\uamqp\src/session.c **** #include "azure_uamqp_c/session.h"
   9:Source\azure_iot_sdk\uamqp\src/session.c **** #include "azure_uamqp_c/connection.h"
  10:Source\azure_iot_sdk\uamqp\src/session.c **** #include "azure_uamqp_c/amqp_definitions.h"
  11:Source\azure_iot_sdk\uamqp\src/session.c **** 
  12:Source\azure_iot_sdk\uamqp\src/session.c **** typedef enum LINK_ENDPOINT_STATE_TAG
  13:Source\azure_iot_sdk\uamqp\src/session.c **** {
  14:Source\azure_iot_sdk\uamqp\src/session.c ****     LINK_ENDPOINT_STATE_NOT_ATTACHED,
  15:Source\azure_iot_sdk\uamqp\src/session.c ****     LINK_ENDPOINT_STATE_ATTACHED,
  16:Source\azure_iot_sdk\uamqp\src/session.c ****     LINK_ENDPOINT_STATE_DETACHING
  17:Source\azure_iot_sdk\uamqp\src/session.c **** } LINK_ENDPOINT_STATE;
  18:Source\azure_iot_sdk\uamqp\src/session.c **** 
  19:Source\azure_iot_sdk\uamqp\src/session.c **** typedef struct LINK_ENDPOINT_INSTANCE_TAG
  20:Source\azure_iot_sdk\uamqp\src/session.c **** {
  21:Source\azure_iot_sdk\uamqp\src/session.c ****     char* name;
  22:Source\azure_iot_sdk\uamqp\src/session.c ****     handle input_handle;
  23:Source\azure_iot_sdk\uamqp\src/session.c ****     handle output_handle;
  24:Source\azure_iot_sdk\uamqp\src/session.c ****     ON_ENDPOINT_FRAME_RECEIVED frame_received_callback;
  25:Source\azure_iot_sdk\uamqp\src/session.c ****     ON_SESSION_STATE_CHANGED on_session_state_changed;
  26:Source\azure_iot_sdk\uamqp\src/session.c ****     ON_SESSION_FLOW_ON on_session_flow_on;
  27:Source\azure_iot_sdk\uamqp\src/session.c ****     void* callback_context;
  28:Source\azure_iot_sdk\uamqp\src/session.c ****     SESSION_HANDLE session;
  29:Source\azure_iot_sdk\uamqp\src/session.c ****     LINK_ENDPOINT_STATE link_endpoint_state;
  30:Source\azure_iot_sdk\uamqp\src/session.c **** } LINK_ENDPOINT_INSTANCE;
  31:Source\azure_iot_sdk\uamqp\src/session.c **** 
ARM GAS  C:\Users\Phuong\AppData\Local\Temp\ccX7yw2d.s 			page 2


  32:Source\azure_iot_sdk\uamqp\src/session.c **** typedef struct SESSION_INSTANCE_TAG
  33:Source\azure_iot_sdk\uamqp\src/session.c **** {
  34:Source\azure_iot_sdk\uamqp\src/session.c ****     ON_ENDPOINT_FRAME_RECEIVED frame_received_callback;
  35:Source\azure_iot_sdk\uamqp\src/session.c ****     void* frame_received_callback_context;
  36:Source\azure_iot_sdk\uamqp\src/session.c ****     SESSION_STATE session_state;
  37:Source\azure_iot_sdk\uamqp\src/session.c ****     SESSION_STATE previous_session_state;
  38:Source\azure_iot_sdk\uamqp\src/session.c ****     CONNECTION_HANDLE connection;
  39:Source\azure_iot_sdk\uamqp\src/session.c ****     ENDPOINT_HANDLE endpoint;
  40:Source\azure_iot_sdk\uamqp\src/session.c ****     LINK_ENDPOINT_INSTANCE** link_endpoints;
  41:Source\azure_iot_sdk\uamqp\src/session.c ****     uint32_t link_endpoint_count;
  42:Source\azure_iot_sdk\uamqp\src/session.c **** 
  43:Source\azure_iot_sdk\uamqp\src/session.c ****     ON_LINK_ATTACHED on_link_attached;
  44:Source\azure_iot_sdk\uamqp\src/session.c ****     void* on_link_attached_callback_context;
  45:Source\azure_iot_sdk\uamqp\src/session.c **** 
  46:Source\azure_iot_sdk\uamqp\src/session.c ****     /* Codes_S_R_S_SESSION_01_016: [next-outgoing-id The next-outgoing-id is the transfer-id to ass
  47:Source\azure_iot_sdk\uamqp\src/session.c ****     transfer_number next_outgoing_id;
  48:Source\azure_iot_sdk\uamqp\src/session.c ****     transfer_number next_incoming_id;
  49:Source\azure_iot_sdk\uamqp\src/session.c ****     uint32_t desired_incoming_window;
  50:Source\azure_iot_sdk\uamqp\src/session.c ****     uint32_t incoming_window;
  51:Source\azure_iot_sdk\uamqp\src/session.c ****     uint32_t outgoing_window;
  52:Source\azure_iot_sdk\uamqp\src/session.c ****     handle handle_max;
  53:Source\azure_iot_sdk\uamqp\src/session.c ****     uint32_t remote_incoming_window;
  54:Source\azure_iot_sdk\uamqp\src/session.c ****     uint32_t remote_outgoing_window;
  55:Source\azure_iot_sdk\uamqp\src/session.c ****     unsigned int is_underlying_connection_open : 1;
  56:Source\azure_iot_sdk\uamqp\src/session.c **** } SESSION_INSTANCE;
  57:Source\azure_iot_sdk\uamqp\src/session.c **** 
  58:Source\azure_iot_sdk\uamqp\src/session.c **** #define UNDERLYING_CONNECTION_NOT_OPEN 0
  59:Source\azure_iot_sdk\uamqp\src/session.c **** #define UNDERLYING_CONNECTION_OPEN 1
  60:Source\azure_iot_sdk\uamqp\src/session.c **** 
  61:Source\azure_iot_sdk\uamqp\src/session.c **** static void remove_link_endpoint(LINK_ENDPOINT_HANDLE link_endpoint)
  62:Source\azure_iot_sdk\uamqp\src/session.c **** {
  63:Source\azure_iot_sdk\uamqp\src/session.c ****     if (link_endpoint != NULL)
  64:Source\azure_iot_sdk\uamqp\src/session.c ****     {
  65:Source\azure_iot_sdk\uamqp\src/session.c ****         LINK_ENDPOINT_INSTANCE* endpoint_instance = (LINK_ENDPOINT_INSTANCE*)link_endpoint;
  66:Source\azure_iot_sdk\uamqp\src/session.c ****         SESSION_INSTANCE* session_instance = endpoint_instance->session;
  67:Source\azure_iot_sdk\uamqp\src/session.c ****         uint32_t i;
  68:Source\azure_iot_sdk\uamqp\src/session.c **** 
  69:Source\azure_iot_sdk\uamqp\src/session.c ****         for (i = 0; i < session_instance->link_endpoint_count; i++)
  70:Source\azure_iot_sdk\uamqp\src/session.c ****         {
  71:Source\azure_iot_sdk\uamqp\src/session.c ****             if (session_instance->link_endpoints[i] == link_endpoint)
  72:Source\azure_iot_sdk\uamqp\src/session.c ****             {
  73:Source\azure_iot_sdk\uamqp\src/session.c ****                 break;
  74:Source\azure_iot_sdk\uamqp\src/session.c ****             }
  75:Source\azure_iot_sdk\uamqp\src/session.c ****         }
  76:Source\azure_iot_sdk\uamqp\src/session.c **** 
  77:Source\azure_iot_sdk\uamqp\src/session.c ****         if (i < session_instance->link_endpoint_count)
  78:Source\azure_iot_sdk\uamqp\src/session.c ****         {
  79:Source\azure_iot_sdk\uamqp\src/session.c ****             LINK_ENDPOINT_INSTANCE** new_endpoints;
  80:Source\azure_iot_sdk\uamqp\src/session.c **** 
  81:Source\azure_iot_sdk\uamqp\src/session.c ****             if (i < (session_instance->link_endpoint_count - 1))
  82:Source\azure_iot_sdk\uamqp\src/session.c ****             {
  83:Source\azure_iot_sdk\uamqp\src/session.c ****                 (void)memmove(&session_instance->link_endpoints[i], &session_instance->link_endpoin
  84:Source\azure_iot_sdk\uamqp\src/session.c ****             }
  85:Source\azure_iot_sdk\uamqp\src/session.c **** 
  86:Source\azure_iot_sdk\uamqp\src/session.c ****             session_instance->link_endpoint_count--;
  87:Source\azure_iot_sdk\uamqp\src/session.c **** 
  88:Source\azure_iot_sdk\uamqp\src/session.c ****             if (session_instance->link_endpoint_count == 0)
ARM GAS  C:\Users\Phuong\AppData\Local\Temp\ccX7yw2d.s 			page 3


  89:Source\azure_iot_sdk\uamqp\src/session.c ****             {
  90:Source\azure_iot_sdk\uamqp\src/session.c ****                 free(session_instance->link_endpoints);
  91:Source\azure_iot_sdk\uamqp\src/session.c ****                 session_instance->link_endpoints = NULL;
  92:Source\azure_iot_sdk\uamqp\src/session.c ****             }
  93:Source\azure_iot_sdk\uamqp\src/session.c ****             else
  94:Source\azure_iot_sdk\uamqp\src/session.c ****             {
  95:Source\azure_iot_sdk\uamqp\src/session.c ****                 new_endpoints = (LINK_ENDPOINT_INSTANCE**)realloc(session_instance->link_endpoints,
  96:Source\azure_iot_sdk\uamqp\src/session.c ****                 if (new_endpoints != NULL)
  97:Source\azure_iot_sdk\uamqp\src/session.c ****                 {
  98:Source\azure_iot_sdk\uamqp\src/session.c ****                     session_instance->link_endpoints = new_endpoints;
  99:Source\azure_iot_sdk\uamqp\src/session.c ****                 }
 100:Source\azure_iot_sdk\uamqp\src/session.c ****             }
 101:Source\azure_iot_sdk\uamqp\src/session.c ****         }
 102:Source\azure_iot_sdk\uamqp\src/session.c ****     }
 103:Source\azure_iot_sdk\uamqp\src/session.c **** }
 104:Source\azure_iot_sdk\uamqp\src/session.c **** 
 105:Source\azure_iot_sdk\uamqp\src/session.c **** static void free_link_endpoint(LINK_ENDPOINT_HANDLE link_endpoint)
 106:Source\azure_iot_sdk\uamqp\src/session.c **** {
 107:Source\azure_iot_sdk\uamqp\src/session.c ****     if (link_endpoint->name != NULL)
 108:Source\azure_iot_sdk\uamqp\src/session.c ****     {
 109:Source\azure_iot_sdk\uamqp\src/session.c ****         free(link_endpoint->name);
 110:Source\azure_iot_sdk\uamqp\src/session.c ****     }
 111:Source\azure_iot_sdk\uamqp\src/session.c **** 
 112:Source\azure_iot_sdk\uamqp\src/session.c ****     free(link_endpoint);
 113:Source\azure_iot_sdk\uamqp\src/session.c **** }
 114:Source\azure_iot_sdk\uamqp\src/session.c **** 
 115:Source\azure_iot_sdk\uamqp\src/session.c **** static void session_set_state(SESSION_INSTANCE* session_instance, SESSION_STATE session_state)
 116:Source\azure_iot_sdk\uamqp\src/session.c **** {
  27              		.loc 1 116 0
  28              		.cfi_startproc
  29              		@ args = 0, pretend = 0, frame = 0
  30              		@ frame_needed = 0, uses_anonymous_args = 0
  31              	.LVL0:
  32 0000 F8B5     		push	{r3, r4, r5, r6, r7, lr}
  33              		.cfi_def_cfa_offset 24
  34              		.cfi_offset 3, -24
  35              		.cfi_offset 4, -20
  36              		.cfi_offset 5, -16
  37              		.cfi_offset 6, -12
  38              		.cfi_offset 7, -8
  39              		.cfi_offset 14, -4
  40 0002 0500     		movs	r5, r0
  41 0004 0E00     		movs	r6, r1
 117:Source\azure_iot_sdk\uamqp\src/session.c ****     uint32_t i;
 118:Source\azure_iot_sdk\uamqp\src/session.c **** 
 119:Source\azure_iot_sdk\uamqp\src/session.c ****     session_instance->previous_session_state = session_instance->session_state;
  42              		.loc 1 119 0
  43 0006 037A     		ldrb	r3, [r0, #8]
  44 0008 4372     		strb	r3, [r0, #9]
 120:Source\azure_iot_sdk\uamqp\src/session.c ****     session_instance->session_state = session_state;
  45              		.loc 1 120 0
  46 000a 2972     		strb	r1, [r5, #8]
  47              	.LVL1:
 121:Source\azure_iot_sdk\uamqp\src/session.c **** 
 122:Source\azure_iot_sdk\uamqp\src/session.c ****     for (i = 0; i < session_instance->link_endpoint_count; i++)
  48              		.loc 1 122 0
  49 000c 0024     		movs	r4, #0
ARM GAS  C:\Users\Phuong\AppData\Local\Temp\ccX7yw2d.s 			page 4


  50 000e 0EE0     		b	.L2
  51              	.LVL2:
  52              	.L4:
 123:Source\azure_iot_sdk\uamqp\src/session.c ****     {
 124:Source\azure_iot_sdk\uamqp\src/session.c ****         if (session_instance->link_endpoints[i]->on_session_state_changed != NULL)
  53              		.loc 1 124 0
  54 0010 A300     		lsls	r3, r4, #2
  55 0012 6A69     		ldr	r2, [r5, #20]
  56 0014 9B58     		ldr	r3, [r3, r2]
  57 0016 1F69     		ldr	r7, [r3, #16]
  58 0018 002F     		cmp	r7, #0
  59 001a 07D0     		beq	.L3
 125:Source\azure_iot_sdk\uamqp\src/session.c ****         {
 126:Source\azure_iot_sdk\uamqp\src/session.c ****             if (session_instance->link_endpoints[i]->link_endpoint_state != LINK_ENDPOINT_STATE_DET
  60              		.loc 1 126 0
  61 001c 2022     		movs	r2, #32
  62 001e 9A5C     		ldrb	r2, [r3, r2]
  63 0020 022A     		cmp	r2, #2
  64 0022 03D0     		beq	.L3
 127:Source\azure_iot_sdk\uamqp\src/session.c ****             {
 128:Source\azure_iot_sdk\uamqp\src/session.c ****                 session_instance->link_endpoints[i]->on_session_state_changed(session_instance->lin
  65              		.loc 1 128 0
  66 0024 6A7A     		ldrb	r2, [r5, #9]
  67 0026 9869     		ldr	r0, [r3, #24]
  68 0028 3100     		movs	r1, r6
  69 002a B847     		blx	r7
  70              	.LVL3:
  71              	.L3:
 122:Source\azure_iot_sdk\uamqp\src/session.c ****     {
  72              		.loc 1 122 0 discriminator 2
  73 002c 0134     		adds	r4, r4, #1
  74              	.LVL4:
  75              	.L2:
 122:Source\azure_iot_sdk\uamqp\src/session.c ****     {
  76              		.loc 1 122 0 is_stmt 0 discriminator 1
  77 002e AB69     		ldr	r3, [r5, #24]
  78 0030 9C42     		cmp	r4, r3
  79 0032 EDD3     		bcc	.L4
 129:Source\azure_iot_sdk\uamqp\src/session.c ****             }
 130:Source\azure_iot_sdk\uamqp\src/session.c ****         }
 131:Source\azure_iot_sdk\uamqp\src/session.c ****     }
 132:Source\azure_iot_sdk\uamqp\src/session.c **** }
  80              		.loc 1 132 0 is_stmt 1
  81              		@ sp needed
  82              	.LVL5:
  83              	.LVL6:
  84 0034 F8BD     		pop	{r3, r4, r5, r6, r7, pc}
  85              		.cfi_endproc
  86              	.LFE2:
  87              		.size	session_set_state, .-session_set_state
  88 0036 C046     		.section	.text.find_link_endpoint_by_input_handle,"ax",%progbits
  89              		.align	2
  90              		.code	16
  91              		.thumb_func
  92              		.type	find_link_endpoint_by_input_handle, %function
  93              	find_link_endpoint_by_input_handle:
  94              	.LFB8:
ARM GAS  C:\Users\Phuong\AppData\Local\Temp\ccX7yw2d.s 			page 5


 133:Source\azure_iot_sdk\uamqp\src/session.c **** 
 134:Source\azure_iot_sdk\uamqp\src/session.c **** static int send_end_frame(SESSION_INSTANCE* session_instance, ERROR_HANDLE error_handle)
 135:Source\azure_iot_sdk\uamqp\src/session.c **** {
 136:Source\azure_iot_sdk\uamqp\src/session.c ****     int result;
 137:Source\azure_iot_sdk\uamqp\src/session.c ****     END_HANDLE end_performative;
 138:Source\azure_iot_sdk\uamqp\src/session.c **** 
 139:Source\azure_iot_sdk\uamqp\src/session.c ****     end_performative = end_create();
 140:Source\azure_iot_sdk\uamqp\src/session.c ****     if (end_performative == NULL)
 141:Source\azure_iot_sdk\uamqp\src/session.c ****     {
 142:Source\azure_iot_sdk\uamqp\src/session.c ****         result = __FAILURE__;
 143:Source\azure_iot_sdk\uamqp\src/session.c ****     }
 144:Source\azure_iot_sdk\uamqp\src/session.c ****     else
 145:Source\azure_iot_sdk\uamqp\src/session.c ****     {
 146:Source\azure_iot_sdk\uamqp\src/session.c ****         if ((error_handle != NULL) &&
 147:Source\azure_iot_sdk\uamqp\src/session.c ****             (end_set_error(end_performative, error_handle) != 0))
 148:Source\azure_iot_sdk\uamqp\src/session.c ****         {
 149:Source\azure_iot_sdk\uamqp\src/session.c ****             result = __FAILURE__;
 150:Source\azure_iot_sdk\uamqp\src/session.c ****         }
 151:Source\azure_iot_sdk\uamqp\src/session.c ****         else
 152:Source\azure_iot_sdk\uamqp\src/session.c ****         {
 153:Source\azure_iot_sdk\uamqp\src/session.c ****             AMQP_VALUE end_performative_value = amqpvalue_create_end(end_performative);
 154:Source\azure_iot_sdk\uamqp\src/session.c ****             if (end_performative_value == NULL)
 155:Source\azure_iot_sdk\uamqp\src/session.c ****             {
 156:Source\azure_iot_sdk\uamqp\src/session.c ****                 result = __FAILURE__;
 157:Source\azure_iot_sdk\uamqp\src/session.c ****             }
 158:Source\azure_iot_sdk\uamqp\src/session.c ****             else
 159:Source\azure_iot_sdk\uamqp\src/session.c ****             {
 160:Source\azure_iot_sdk\uamqp\src/session.c ****                 if (connection_encode_frame(session_instance->endpoint, end_performative_value, NUL
 161:Source\azure_iot_sdk\uamqp\src/session.c ****                 {
 162:Source\azure_iot_sdk\uamqp\src/session.c ****                     result = __FAILURE__;
 163:Source\azure_iot_sdk\uamqp\src/session.c ****                 }
 164:Source\azure_iot_sdk\uamqp\src/session.c ****                 else
 165:Source\azure_iot_sdk\uamqp\src/session.c ****                 {
 166:Source\azure_iot_sdk\uamqp\src/session.c ****                     result = 0;
 167:Source\azure_iot_sdk\uamqp\src/session.c ****                 }
 168:Source\azure_iot_sdk\uamqp\src/session.c **** 
 169:Source\azure_iot_sdk\uamqp\src/session.c ****                 amqpvalue_destroy(end_performative_value);
 170:Source\azure_iot_sdk\uamqp\src/session.c ****             }
 171:Source\azure_iot_sdk\uamqp\src/session.c ****         }
 172:Source\azure_iot_sdk\uamqp\src/session.c **** 
 173:Source\azure_iot_sdk\uamqp\src/session.c ****         end_destroy(end_performative);
 174:Source\azure_iot_sdk\uamqp\src/session.c ****     }
 175:Source\azure_iot_sdk\uamqp\src/session.c **** 
 176:Source\azure_iot_sdk\uamqp\src/session.c ****     return result;
 177:Source\azure_iot_sdk\uamqp\src/session.c **** }
 178:Source\azure_iot_sdk\uamqp\src/session.c **** 
 179:Source\azure_iot_sdk\uamqp\src/session.c **** static void end_session_with_error(SESSION_INSTANCE* session_instance, const char* condition_value,
 180:Source\azure_iot_sdk\uamqp\src/session.c **** {
 181:Source\azure_iot_sdk\uamqp\src/session.c ****     ERROR_HANDLE error_handle = error_create(condition_value);
 182:Source\azure_iot_sdk\uamqp\src/session.c ****     if (error_handle == NULL)
 183:Source\azure_iot_sdk\uamqp\src/session.c ****     {
 184:Source\azure_iot_sdk\uamqp\src/session.c ****         /* fatal error */
 185:Source\azure_iot_sdk\uamqp\src/session.c ****         session_set_state(session_instance, SESSION_STATE_DISCARDING);
 186:Source\azure_iot_sdk\uamqp\src/session.c ****         (void)connection_close(session_instance->connection, "amqp:internal-error", "Cannot allocat
 187:Source\azure_iot_sdk\uamqp\src/session.c ****     }
 188:Source\azure_iot_sdk\uamqp\src/session.c ****     else
 189:Source\azure_iot_sdk\uamqp\src/session.c ****     {
ARM GAS  C:\Users\Phuong\AppData\Local\Temp\ccX7yw2d.s 			page 6


 190:Source\azure_iot_sdk\uamqp\src/session.c ****         if ((error_set_description(error_handle, description) != 0) ||
 191:Source\azure_iot_sdk\uamqp\src/session.c ****             (send_end_frame(session_instance, error_handle) != 0))
 192:Source\azure_iot_sdk\uamqp\src/session.c ****         {
 193:Source\azure_iot_sdk\uamqp\src/session.c ****             /* fatal error */
 194:Source\azure_iot_sdk\uamqp\src/session.c ****             session_set_state(session_instance, SESSION_STATE_DISCARDING);
 195:Source\azure_iot_sdk\uamqp\src/session.c ****             (void)connection_close(session_instance->connection, "amqp:internal-error", "Cannot all
 196:Source\azure_iot_sdk\uamqp\src/session.c ****         }
 197:Source\azure_iot_sdk\uamqp\src/session.c ****         else
 198:Source\azure_iot_sdk\uamqp\src/session.c ****         {
 199:Source\azure_iot_sdk\uamqp\src/session.c ****             session_set_state(session_instance, SESSION_STATE_DISCARDING);
 200:Source\azure_iot_sdk\uamqp\src/session.c ****         }
 201:Source\azure_iot_sdk\uamqp\src/session.c **** 
 202:Source\azure_iot_sdk\uamqp\src/session.c ****         error_destroy(error_handle);
 203:Source\azure_iot_sdk\uamqp\src/session.c ****     }
 204:Source\azure_iot_sdk\uamqp\src/session.c **** }
 205:Source\azure_iot_sdk\uamqp\src/session.c **** 
 206:Source\azure_iot_sdk\uamqp\src/session.c **** static int send_begin(SESSION_INSTANCE* session_instance)
 207:Source\azure_iot_sdk\uamqp\src/session.c **** {
 208:Source\azure_iot_sdk\uamqp\src/session.c ****     int result;
 209:Source\azure_iot_sdk\uamqp\src/session.c ****     BEGIN_HANDLE begin = begin_create(session_instance->next_outgoing_id, session_instance->incomin
 210:Source\azure_iot_sdk\uamqp\src/session.c **** 
 211:Source\azure_iot_sdk\uamqp\src/session.c ****     if (begin == NULL)
 212:Source\azure_iot_sdk\uamqp\src/session.c ****     {
 213:Source\azure_iot_sdk\uamqp\src/session.c ****         result = __FAILURE__;
 214:Source\azure_iot_sdk\uamqp\src/session.c ****     }
 215:Source\azure_iot_sdk\uamqp\src/session.c ****     else
 216:Source\azure_iot_sdk\uamqp\src/session.c ****     {
 217:Source\azure_iot_sdk\uamqp\src/session.c ****         uint16_t remote_channel;
 218:Source\azure_iot_sdk\uamqp\src/session.c ****         if (begin_set_handle_max(begin, session_instance->handle_max) != 0)
 219:Source\azure_iot_sdk\uamqp\src/session.c ****         {
 220:Source\azure_iot_sdk\uamqp\src/session.c ****             result = __FAILURE__;
 221:Source\azure_iot_sdk\uamqp\src/session.c ****         }
 222:Source\azure_iot_sdk\uamqp\src/session.c ****         else if ((session_instance->session_state == SESSION_STATE_BEGIN_RCVD) &&
 223:Source\azure_iot_sdk\uamqp\src/session.c ****             ((connection_endpoint_get_incoming_channel(session_instance->endpoint, &remote_channel)
 224:Source\azure_iot_sdk\uamqp\src/session.c ****             (begin_set_remote_channel(begin, remote_channel) != 0)))
 225:Source\azure_iot_sdk\uamqp\src/session.c ****         {
 226:Source\azure_iot_sdk\uamqp\src/session.c ****             result = __FAILURE__;
 227:Source\azure_iot_sdk\uamqp\src/session.c ****         }
 228:Source\azure_iot_sdk\uamqp\src/session.c ****         else
 229:Source\azure_iot_sdk\uamqp\src/session.c ****         {
 230:Source\azure_iot_sdk\uamqp\src/session.c ****             AMQP_VALUE begin_performative_value = amqpvalue_create_begin(begin);
 231:Source\azure_iot_sdk\uamqp\src/session.c ****             if (begin_performative_value == NULL)
 232:Source\azure_iot_sdk\uamqp\src/session.c ****             {
 233:Source\azure_iot_sdk\uamqp\src/session.c ****                 result = __FAILURE__;
 234:Source\azure_iot_sdk\uamqp\src/session.c ****             }
 235:Source\azure_iot_sdk\uamqp\src/session.c ****             else
 236:Source\azure_iot_sdk\uamqp\src/session.c ****             {
 237:Source\azure_iot_sdk\uamqp\src/session.c ****                 if (connection_encode_frame(session_instance->endpoint, begin_performative_value, N
 238:Source\azure_iot_sdk\uamqp\src/session.c ****                 {
 239:Source\azure_iot_sdk\uamqp\src/session.c ****                     result = __FAILURE__;
 240:Source\azure_iot_sdk\uamqp\src/session.c ****                 }
 241:Source\azure_iot_sdk\uamqp\src/session.c ****                 else
 242:Source\azure_iot_sdk\uamqp\src/session.c ****                 {
 243:Source\azure_iot_sdk\uamqp\src/session.c ****                     result = 0;
 244:Source\azure_iot_sdk\uamqp\src/session.c ****                 }
 245:Source\azure_iot_sdk\uamqp\src/session.c **** 
 246:Source\azure_iot_sdk\uamqp\src/session.c ****                 amqpvalue_destroy(begin_performative_value);
ARM GAS  C:\Users\Phuong\AppData\Local\Temp\ccX7yw2d.s 			page 7


 247:Source\azure_iot_sdk\uamqp\src/session.c ****             }
 248:Source\azure_iot_sdk\uamqp\src/session.c ****         }
 249:Source\azure_iot_sdk\uamqp\src/session.c **** 
 250:Source\azure_iot_sdk\uamqp\src/session.c ****         begin_destroy(begin);
 251:Source\azure_iot_sdk\uamqp\src/session.c ****     }
 252:Source\azure_iot_sdk\uamqp\src/session.c **** 
 253:Source\azure_iot_sdk\uamqp\src/session.c ****     return result;
 254:Source\azure_iot_sdk\uamqp\src/session.c **** }
 255:Source\azure_iot_sdk\uamqp\src/session.c **** 
 256:Source\azure_iot_sdk\uamqp\src/session.c **** static int send_flow(SESSION_INSTANCE* session)
 257:Source\azure_iot_sdk\uamqp\src/session.c **** {
 258:Source\azure_iot_sdk\uamqp\src/session.c ****     int result;
 259:Source\azure_iot_sdk\uamqp\src/session.c ****     if (session == NULL)
 260:Source\azure_iot_sdk\uamqp\src/session.c ****     {
 261:Source\azure_iot_sdk\uamqp\src/session.c ****         result = __FAILURE__;
 262:Source\azure_iot_sdk\uamqp\src/session.c ****     }
 263:Source\azure_iot_sdk\uamqp\src/session.c ****     else
 264:Source\azure_iot_sdk\uamqp\src/session.c ****     {
 265:Source\azure_iot_sdk\uamqp\src/session.c ****         FLOW_HANDLE flow = flow_create(session->incoming_window, session->next_outgoing_id, session
 266:Source\azure_iot_sdk\uamqp\src/session.c **** 
 267:Source\azure_iot_sdk\uamqp\src/session.c ****         if (flow == NULL)
 268:Source\azure_iot_sdk\uamqp\src/session.c ****         {
 269:Source\azure_iot_sdk\uamqp\src/session.c ****             result = __FAILURE__;
 270:Source\azure_iot_sdk\uamqp\src/session.c ****         }
 271:Source\azure_iot_sdk\uamqp\src/session.c ****         else
 272:Source\azure_iot_sdk\uamqp\src/session.c ****         {
 273:Source\azure_iot_sdk\uamqp\src/session.c ****             if (flow_set_next_incoming_id(flow, session->next_incoming_id) != 0)
 274:Source\azure_iot_sdk\uamqp\src/session.c ****             {
 275:Source\azure_iot_sdk\uamqp\src/session.c ****                 result = __FAILURE__;
 276:Source\azure_iot_sdk\uamqp\src/session.c ****             }
 277:Source\azure_iot_sdk\uamqp\src/session.c ****             else
 278:Source\azure_iot_sdk\uamqp\src/session.c ****             {
 279:Source\azure_iot_sdk\uamqp\src/session.c ****                 AMQP_VALUE flow_performative_value = amqpvalue_create_flow(flow);
 280:Source\azure_iot_sdk\uamqp\src/session.c ****                 if (flow_performative_value == NULL)
 281:Source\azure_iot_sdk\uamqp\src/session.c ****                 {
 282:Source\azure_iot_sdk\uamqp\src/session.c ****                     result = __FAILURE__;
 283:Source\azure_iot_sdk\uamqp\src/session.c ****                 }
 284:Source\azure_iot_sdk\uamqp\src/session.c ****                 else
 285:Source\azure_iot_sdk\uamqp\src/session.c ****                 {
 286:Source\azure_iot_sdk\uamqp\src/session.c ****                     if (connection_encode_frame(session->endpoint, flow_performative_value, NULL, 0
 287:Source\azure_iot_sdk\uamqp\src/session.c ****                     {
 288:Source\azure_iot_sdk\uamqp\src/session.c ****                         result = __FAILURE__;
 289:Source\azure_iot_sdk\uamqp\src/session.c ****                     }
 290:Source\azure_iot_sdk\uamqp\src/session.c ****                     else
 291:Source\azure_iot_sdk\uamqp\src/session.c ****                     {
 292:Source\azure_iot_sdk\uamqp\src/session.c ****                         result = 0;
 293:Source\azure_iot_sdk\uamqp\src/session.c ****                     }
 294:Source\azure_iot_sdk\uamqp\src/session.c **** 
 295:Source\azure_iot_sdk\uamqp\src/session.c ****                     amqpvalue_destroy(flow_performative_value);
 296:Source\azure_iot_sdk\uamqp\src/session.c ****                 }
 297:Source\azure_iot_sdk\uamqp\src/session.c ****             }
 298:Source\azure_iot_sdk\uamqp\src/session.c **** 
 299:Source\azure_iot_sdk\uamqp\src/session.c ****             flow_destroy(flow);
 300:Source\azure_iot_sdk\uamqp\src/session.c ****         }
 301:Source\azure_iot_sdk\uamqp\src/session.c ****     }
 302:Source\azure_iot_sdk\uamqp\src/session.c **** 
 303:Source\azure_iot_sdk\uamqp\src/session.c ****     return result;
ARM GAS  C:\Users\Phuong\AppData\Local\Temp\ccX7yw2d.s 			page 8


 304:Source\azure_iot_sdk\uamqp\src/session.c **** }
 305:Source\azure_iot_sdk\uamqp\src/session.c **** 
 306:Source\azure_iot_sdk\uamqp\src/session.c **** static LINK_ENDPOINT_INSTANCE* find_link_endpoint_by_name(SESSION_INSTANCE* session, const char* na
 307:Source\azure_iot_sdk\uamqp\src/session.c **** {
 308:Source\azure_iot_sdk\uamqp\src/session.c ****     uint32_t i;
 309:Source\azure_iot_sdk\uamqp\src/session.c ****     LINK_ENDPOINT_INSTANCE* result;
 310:Source\azure_iot_sdk\uamqp\src/session.c **** 
 311:Source\azure_iot_sdk\uamqp\src/session.c ****     for (i = 0; i < session->link_endpoint_count; i++)
 312:Source\azure_iot_sdk\uamqp\src/session.c ****     {
 313:Source\azure_iot_sdk\uamqp\src/session.c ****         if (strcmp(session->link_endpoints[i]->name, name) == 0)
 314:Source\azure_iot_sdk\uamqp\src/session.c ****         {
 315:Source\azure_iot_sdk\uamqp\src/session.c ****             break;
 316:Source\azure_iot_sdk\uamqp\src/session.c ****         }
 317:Source\azure_iot_sdk\uamqp\src/session.c ****     }
 318:Source\azure_iot_sdk\uamqp\src/session.c **** 
 319:Source\azure_iot_sdk\uamqp\src/session.c ****     if (i == session->link_endpoint_count)
 320:Source\azure_iot_sdk\uamqp\src/session.c ****     {
 321:Source\azure_iot_sdk\uamqp\src/session.c ****         result = NULL;
 322:Source\azure_iot_sdk\uamqp\src/session.c ****     }
 323:Source\azure_iot_sdk\uamqp\src/session.c ****     else
 324:Source\azure_iot_sdk\uamqp\src/session.c ****     {
 325:Source\azure_iot_sdk\uamqp\src/session.c ****         result = session->link_endpoints[i];
 326:Source\azure_iot_sdk\uamqp\src/session.c ****     }
 327:Source\azure_iot_sdk\uamqp\src/session.c **** 
 328:Source\azure_iot_sdk\uamqp\src/session.c ****     return result;
 329:Source\azure_iot_sdk\uamqp\src/session.c **** }
 330:Source\azure_iot_sdk\uamqp\src/session.c **** 
 331:Source\azure_iot_sdk\uamqp\src/session.c **** static LINK_ENDPOINT_INSTANCE* find_link_endpoint_by_input_handle(SESSION_INSTANCE* session, handle
 332:Source\azure_iot_sdk\uamqp\src/session.c **** {
  95              		.loc 1 332 0
  96              		.cfi_startproc
  97              		@ args = 0, pretend = 0, frame = 0
  98              		@ frame_needed = 0, uses_anonymous_args = 0
  99              	.LVL7:
 100 0000 30B5     		push	{r4, r5, lr}
 101              		.cfi_def_cfa_offset 12
 102              		.cfi_offset 4, -12
 103              		.cfi_offset 5, -8
 104              		.cfi_offset 14, -4
 105              	.LVL8:
 333:Source\azure_iot_sdk\uamqp\src/session.c ****     uint32_t i;
 334:Source\azure_iot_sdk\uamqp\src/session.c ****     LINK_ENDPOINT_INSTANCE* result;
 335:Source\azure_iot_sdk\uamqp\src/session.c **** 
 336:Source\azure_iot_sdk\uamqp\src/session.c ****     for (i = 0; i < session->link_endpoint_count; i++)
 106              		.loc 1 336 0
 107 0002 0023     		movs	r3, #0
 108 0004 06E0     		b	.L6
 109              	.LVL9:
 110              	.L8:
 337:Source\azure_iot_sdk\uamqp\src/session.c ****     {
 338:Source\azure_iot_sdk\uamqp\src/session.c ****         if (session->link_endpoints[i]->input_handle == input_handle)
 111              		.loc 1 338 0
 112 0006 9C00     		lsls	r4, r3, #2
 113 0008 4569     		ldr	r5, [r0, #20]
 114 000a 6459     		ldr	r4, [r4, r5]
 115 000c 6468     		ldr	r4, [r4, #4]
 116 000e 8C42     		cmp	r4, r1
ARM GAS  C:\Users\Phuong\AppData\Local\Temp\ccX7yw2d.s 			page 9


 117 0010 03D0     		beq	.L7
 336:Source\azure_iot_sdk\uamqp\src/session.c ****     {
 118              		.loc 1 336 0 discriminator 2
 119 0012 0133     		adds	r3, r3, #1
 120              	.LVL10:
 121              	.L6:
 336:Source\azure_iot_sdk\uamqp\src/session.c ****     {
 122              		.loc 1 336 0 is_stmt 0 discriminator 1
 123 0014 8269     		ldr	r2, [r0, #24]
 124 0016 9342     		cmp	r3, r2
 125 0018 F5D3     		bcc	.L8
 126              	.L7:
 339:Source\azure_iot_sdk\uamqp\src/session.c ****         {
 340:Source\azure_iot_sdk\uamqp\src/session.c ****             break;
 341:Source\azure_iot_sdk\uamqp\src/session.c ****         }
 342:Source\azure_iot_sdk\uamqp\src/session.c ****     }
 343:Source\azure_iot_sdk\uamqp\src/session.c **** 
 344:Source\azure_iot_sdk\uamqp\src/session.c ****     if (i == session->link_endpoint_count)
 127              		.loc 1 344 0 is_stmt 1
 128 001a 9342     		cmp	r3, r2
 129 001c 03D0     		beq	.L10
 345:Source\azure_iot_sdk\uamqp\src/session.c ****     {
 346:Source\azure_iot_sdk\uamqp\src/session.c ****         result = NULL;
 347:Source\azure_iot_sdk\uamqp\src/session.c ****     }
 348:Source\azure_iot_sdk\uamqp\src/session.c ****     else
 349:Source\azure_iot_sdk\uamqp\src/session.c ****     {
 350:Source\azure_iot_sdk\uamqp\src/session.c ****         result = session->link_endpoints[i];
 130              		.loc 1 350 0
 131 001e 4269     		ldr	r2, [r0, #20]
 132 0020 9B00     		lsls	r3, r3, #2
 133              	.LVL11:
 134 0022 D058     		ldr	r0, [r2, r3]
 135              	.LVL12:
 136 0024 00E0     		b	.L9
 137              	.LVL13:
 138              	.L10:
 346:Source\azure_iot_sdk\uamqp\src/session.c ****     }
 139              		.loc 1 346 0
 140 0026 0020     		movs	r0, #0
 141              	.LVL14:
 142              	.L9:
 351:Source\azure_iot_sdk\uamqp\src/session.c ****     }
 352:Source\azure_iot_sdk\uamqp\src/session.c **** 
 353:Source\azure_iot_sdk\uamqp\src/session.c ****     return result;
 354:Source\azure_iot_sdk\uamqp\src/session.c **** }
 143              		.loc 1 354 0
 144              		@ sp needed
 145 0028 30BD     		pop	{r4, r5, pc}
 146              		.cfi_endproc
 147              	.LFE8:
 148              		.size	find_link_endpoint_by_input_handle, .-find_link_endpoint_by_input_handle
 149 002a C046     		.section	.text.free_link_endpoint,"ax",%progbits
 150              		.align	2
 151              		.code	16
 152              		.thumb_func
 153              		.type	free_link_endpoint, %function
 154              	free_link_endpoint:
ARM GAS  C:\Users\Phuong\AppData\Local\Temp\ccX7yw2d.s 			page 10


 155              	.LFB1:
 106:Source\azure_iot_sdk\uamqp\src/session.c ****     if (link_endpoint->name != NULL)
 156              		.loc 1 106 0
 157              		.cfi_startproc
 158              		@ args = 0, pretend = 0, frame = 0
 159              		@ frame_needed = 0, uses_anonymous_args = 0
 160              	.LVL15:
 161 0000 10B5     		push	{r4, lr}
 162              		.cfi_def_cfa_offset 8
 163              		.cfi_offset 4, -8
 164              		.cfi_offset 14, -4
 165 0002 0400     		movs	r4, r0
 107:Source\azure_iot_sdk\uamqp\src/session.c ****     {
 166              		.loc 1 107 0
 167 0004 0068     		ldr	r0, [r0]
 168              	.LVL16:
 169 0006 0028     		cmp	r0, #0
 170 0008 01D0     		beq	.L12
 109:Source\azure_iot_sdk\uamqp\src/session.c ****     }
 171              		.loc 1 109 0
 172 000a FFF7FEFF 		bl	free
 173              	.LVL17:
 174              	.L12:
 112:Source\azure_iot_sdk\uamqp\src/session.c **** }
 175              		.loc 1 112 0
 176 000e 2000     		movs	r0, r4
 177 0010 FFF7FEFF 		bl	free
 178              	.LVL18:
 113:Source\azure_iot_sdk\uamqp\src/session.c **** 
 179              		.loc 1 113 0
 180              		@ sp needed
 181              	.LVL19:
 182 0014 10BD     		pop	{r4, pc}
 183              		.cfi_endproc
 184              	.LFE1:
 185              		.size	free_link_endpoint, .-free_link_endpoint
 186 0016 C046     		.section	.text.encode_frame,"ax",%progbits
 187              		.align	2
 188              		.code	16
 189              		.thumb_func
 190              		.type	encode_frame, %function
 191              	encode_frame:
 192              	.LFB25:
 355:Source\azure_iot_sdk\uamqp\src/session.c **** 
 356:Source\azure_iot_sdk\uamqp\src/session.c **** static void on_connection_state_changed(void* context, CONNECTION_STATE new_connection_state, CONNE
 357:Source\azure_iot_sdk\uamqp\src/session.c **** {
 358:Source\azure_iot_sdk\uamqp\src/session.c ****     SESSION_INSTANCE* session_instance = (SESSION_INSTANCE*)context;
 359:Source\azure_iot_sdk\uamqp\src/session.c **** 
 360:Source\azure_iot_sdk\uamqp\src/session.c ****     /* Codes_S_R_S_SESSION_01_060: [If the previous connection state is not OPENED and the new conn
 361:Source\azure_iot_sdk\uamqp\src/session.c ****     if ((new_connection_state == CONNECTION_STATE_OPENED) && (previous_connection_state != CONNECTI
 362:Source\azure_iot_sdk\uamqp\src/session.c ****     {
 363:Source\azure_iot_sdk\uamqp\src/session.c ****         if (send_begin(session_instance) == 0)
 364:Source\azure_iot_sdk\uamqp\src/session.c ****         {
 365:Source\azure_iot_sdk\uamqp\src/session.c ****             session_set_state(session_instance, SESSION_STATE_BEGIN_SENT);
 366:Source\azure_iot_sdk\uamqp\src/session.c ****         }
 367:Source\azure_iot_sdk\uamqp\src/session.c ****     }
 368:Source\azure_iot_sdk\uamqp\src/session.c ****     /* Codes_S_R_S_SESSION_01_061: [If the previous connection state is OPENED and the new connecti
ARM GAS  C:\Users\Phuong\AppData\Local\Temp\ccX7yw2d.s 			page 11


 369:Source\azure_iot_sdk\uamqp\src/session.c ****     else if ((new_connection_state == CONNECTION_STATE_CLOSE_RCVD) || (new_connection_state == CONN
 370:Source\azure_iot_sdk\uamqp\src/session.c ****     {
 371:Source\azure_iot_sdk\uamqp\src/session.c ****         session_set_state(session_instance, SESSION_STATE_DISCARDING);
 372:Source\azure_iot_sdk\uamqp\src/session.c ****     }
 373:Source\azure_iot_sdk\uamqp\src/session.c ****     /* Codes_S_R_S_SESSION_09_001: [If the new connection state is ERROR, the state shall be switch
 374:Source\azure_iot_sdk\uamqp\src/session.c ****     else if (new_connection_state == CONNECTION_STATE_ERROR)
 375:Source\azure_iot_sdk\uamqp\src/session.c ****     {
 376:Source\azure_iot_sdk\uamqp\src/session.c ****         session_set_state(session_instance, SESSION_STATE_ERROR);
 377:Source\azure_iot_sdk\uamqp\src/session.c ****     }
 378:Source\azure_iot_sdk\uamqp\src/session.c **** }
 379:Source\azure_iot_sdk\uamqp\src/session.c **** 
 380:Source\azure_iot_sdk\uamqp\src/session.c **** static void on_frame_received(void* context, AMQP_VALUE performative, uint32_t payload_size, const 
 381:Source\azure_iot_sdk\uamqp\src/session.c **** {
 382:Source\azure_iot_sdk\uamqp\src/session.c ****     SESSION_INSTANCE* session_instance = (SESSION_INSTANCE*)context;
 383:Source\azure_iot_sdk\uamqp\src/session.c ****     AMQP_VALUE descriptor = amqpvalue_get_inplace_descriptor(performative);
 384:Source\azure_iot_sdk\uamqp\src/session.c **** 
 385:Source\azure_iot_sdk\uamqp\src/session.c ****     if (is_begin_type_by_descriptor(descriptor))
 386:Source\azure_iot_sdk\uamqp\src/session.c ****     {
 387:Source\azure_iot_sdk\uamqp\src/session.c ****         BEGIN_HANDLE begin_handle;
 388:Source\azure_iot_sdk\uamqp\src/session.c **** 
 389:Source\azure_iot_sdk\uamqp\src/session.c ****         if (amqpvalue_get_begin(performative, &begin_handle) != 0)
 390:Source\azure_iot_sdk\uamqp\src/session.c ****         {
 391:Source\azure_iot_sdk\uamqp\src/session.c ****             connection_close(session_instance->connection, "amqp:decode-error", "Cannot decode BEGI
 392:Source\azure_iot_sdk\uamqp\src/session.c ****         }
 393:Source\azure_iot_sdk\uamqp\src/session.c ****         else
 394:Source\azure_iot_sdk\uamqp\src/session.c ****         {
 395:Source\azure_iot_sdk\uamqp\src/session.c ****             if ((begin_get_incoming_window(begin_handle, &session_instance->remote_incoming_window)
 396:Source\azure_iot_sdk\uamqp\src/session.c ****                 (begin_get_next_outgoing_id(begin_handle, &session_instance->next_incoming_id) != 0
 397:Source\azure_iot_sdk\uamqp\src/session.c ****             {
 398:Source\azure_iot_sdk\uamqp\src/session.c ****                 /* error */
 399:Source\azure_iot_sdk\uamqp\src/session.c ****                 begin_destroy(begin_handle);
 400:Source\azure_iot_sdk\uamqp\src/session.c ****                 session_set_state(session_instance, SESSION_STATE_DISCARDING);
 401:Source\azure_iot_sdk\uamqp\src/session.c ****                 connection_close(session_instance->connection, "amqp:decode-error", "Cannot get inc
 402:Source\azure_iot_sdk\uamqp\src/session.c ****             }
 403:Source\azure_iot_sdk\uamqp\src/session.c ****             else
 404:Source\azure_iot_sdk\uamqp\src/session.c ****             {
 405:Source\azure_iot_sdk\uamqp\src/session.c ****                 begin_destroy(begin_handle);
 406:Source\azure_iot_sdk\uamqp\src/session.c **** 
 407:Source\azure_iot_sdk\uamqp\src/session.c ****                 if (session_instance->session_state == SESSION_STATE_BEGIN_SENT)
 408:Source\azure_iot_sdk\uamqp\src/session.c ****                 {
 409:Source\azure_iot_sdk\uamqp\src/session.c ****                     session_set_state(session_instance, SESSION_STATE_MAPPED);
 410:Source\azure_iot_sdk\uamqp\src/session.c ****                 }
 411:Source\azure_iot_sdk\uamqp\src/session.c ****                 else if(session_instance->session_state == SESSION_STATE_UNMAPPED)
 412:Source\azure_iot_sdk\uamqp\src/session.c ****                 {
 413:Source\azure_iot_sdk\uamqp\src/session.c ****                     session_set_state(session_instance, SESSION_STATE_BEGIN_RCVD);
 414:Source\azure_iot_sdk\uamqp\src/session.c ****                     if (send_begin(session_instance) != 0)
 415:Source\azure_iot_sdk\uamqp\src/session.c ****                     {
 416:Source\azure_iot_sdk\uamqp\src/session.c ****                         connection_close(session_instance->connection, "amqp:internal-error", "Fail
 417:Source\azure_iot_sdk\uamqp\src/session.c ****                         session_set_state(session_instance, SESSION_STATE_DISCARDING);
 418:Source\azure_iot_sdk\uamqp\src/session.c ****                     }
 419:Source\azure_iot_sdk\uamqp\src/session.c ****                     else
 420:Source\azure_iot_sdk\uamqp\src/session.c ****                     {
 421:Source\azure_iot_sdk\uamqp\src/session.c ****                         session_set_state(session_instance, SESSION_STATE_MAPPED);
 422:Source\azure_iot_sdk\uamqp\src/session.c ****                     }
 423:Source\azure_iot_sdk\uamqp\src/session.c ****                 }
 424:Source\azure_iot_sdk\uamqp\src/session.c ****             }
 425:Source\azure_iot_sdk\uamqp\src/session.c ****         }
ARM GAS  C:\Users\Phuong\AppData\Local\Temp\ccX7yw2d.s 			page 12


 426:Source\azure_iot_sdk\uamqp\src/session.c ****     }
 427:Source\azure_iot_sdk\uamqp\src/session.c ****     else if (is_attach_type_by_descriptor(descriptor))
 428:Source\azure_iot_sdk\uamqp\src/session.c ****     {
 429:Source\azure_iot_sdk\uamqp\src/session.c ****         const char* name = NULL;
 430:Source\azure_iot_sdk\uamqp\src/session.c ****         ATTACH_HANDLE attach_handle;
 431:Source\azure_iot_sdk\uamqp\src/session.c **** 
 432:Source\azure_iot_sdk\uamqp\src/session.c ****         if (amqpvalue_get_attach(performative, &attach_handle) != 0)
 433:Source\azure_iot_sdk\uamqp\src/session.c ****         {
 434:Source\azure_iot_sdk\uamqp\src/session.c ****             end_session_with_error(session_instance, "amqp:decode-error", "Cannot decode ATTACH fra
 435:Source\azure_iot_sdk\uamqp\src/session.c ****         }
 436:Source\azure_iot_sdk\uamqp\src/session.c ****         else
 437:Source\azure_iot_sdk\uamqp\src/session.c ****         {
 438:Source\azure_iot_sdk\uamqp\src/session.c ****             role role;
 439:Source\azure_iot_sdk\uamqp\src/session.c ****             AMQP_VALUE source;
 440:Source\azure_iot_sdk\uamqp\src/session.c ****             AMQP_VALUE target;
 441:Source\azure_iot_sdk\uamqp\src/session.c **** 
 442:Source\azure_iot_sdk\uamqp\src/session.c ****             if (attach_get_name(attach_handle, &name) != 0)
 443:Source\azure_iot_sdk\uamqp\src/session.c ****             {
 444:Source\azure_iot_sdk\uamqp\src/session.c ****                 end_session_with_error(session_instance, "amqp:decode-error", "Cannot get link name
 445:Source\azure_iot_sdk\uamqp\src/session.c ****             }
 446:Source\azure_iot_sdk\uamqp\src/session.c ****             else if (attach_get_role(attach_handle, &role) != 0)
 447:Source\azure_iot_sdk\uamqp\src/session.c ****             {
 448:Source\azure_iot_sdk\uamqp\src/session.c ****                 end_session_with_error(session_instance, "amqp:decode-error", "Cannot get link role
 449:Source\azure_iot_sdk\uamqp\src/session.c ****             }
 450:Source\azure_iot_sdk\uamqp\src/session.c ****             else
 451:Source\azure_iot_sdk\uamqp\src/session.c ****             {
 452:Source\azure_iot_sdk\uamqp\src/session.c ****                 LINK_ENDPOINT_INSTANCE* link_endpoint;
 453:Source\azure_iot_sdk\uamqp\src/session.c **** 
 454:Source\azure_iot_sdk\uamqp\src/session.c ****                 if (attach_get_source(attach_handle, &source) != 0)
 455:Source\azure_iot_sdk\uamqp\src/session.c ****                 {
 456:Source\azure_iot_sdk\uamqp\src/session.c ****                     source = NULL;
 457:Source\azure_iot_sdk\uamqp\src/session.c ****                 }
 458:Source\azure_iot_sdk\uamqp\src/session.c ****                 if (attach_get_target(attach_handle, &target) != 0)
 459:Source\azure_iot_sdk\uamqp\src/session.c ****                 {
 460:Source\azure_iot_sdk\uamqp\src/session.c ****                     target = NULL;
 461:Source\azure_iot_sdk\uamqp\src/session.c ****                 }
 462:Source\azure_iot_sdk\uamqp\src/session.c **** 
 463:Source\azure_iot_sdk\uamqp\src/session.c ****                 link_endpoint = find_link_endpoint_by_name(session_instance, name);
 464:Source\azure_iot_sdk\uamqp\src/session.c ****                 if (link_endpoint == NULL)
 465:Source\azure_iot_sdk\uamqp\src/session.c ****                 {
 466:Source\azure_iot_sdk\uamqp\src/session.c ****                     /* new link attach */
 467:Source\azure_iot_sdk\uamqp\src/session.c ****                     if (session_instance->on_link_attached != NULL)
 468:Source\azure_iot_sdk\uamqp\src/session.c ****                     {
 469:Source\azure_iot_sdk\uamqp\src/session.c ****                         LINK_ENDPOINT_HANDLE new_link_endpoint = session_create_link_endpoint(sessi
 470:Source\azure_iot_sdk\uamqp\src/session.c ****                         if (new_link_endpoint == NULL)
 471:Source\azure_iot_sdk\uamqp\src/session.c ****                         {
 472:Source\azure_iot_sdk\uamqp\src/session.c ****                             end_session_with_error(session_instance, "amqp:internal-error", "Cannot
 473:Source\azure_iot_sdk\uamqp\src/session.c ****                         }
 474:Source\azure_iot_sdk\uamqp\src/session.c ****                         else if (attach_get_handle(attach_handle, &new_link_endpoint->input_handle)
 475:Source\azure_iot_sdk\uamqp\src/session.c ****                         {
 476:Source\azure_iot_sdk\uamqp\src/session.c ****                             end_session_with_error(session_instance, "amqp:decode-error", "Cannot g
 477:Source\azure_iot_sdk\uamqp\src/session.c ****                         }
 478:Source\azure_iot_sdk\uamqp\src/session.c ****                         else
 479:Source\azure_iot_sdk\uamqp\src/session.c ****                         {
 480:Source\azure_iot_sdk\uamqp\src/session.c ****                             new_link_endpoint->link_endpoint_state = LINK_ENDPOINT_STATE_ATTACHED;
 481:Source\azure_iot_sdk\uamqp\src/session.c **** 
 482:Source\azure_iot_sdk\uamqp\src/session.c ****                             if (!session_instance->on_link_attached(session_instance->on_link_attac
ARM GAS  C:\Users\Phuong\AppData\Local\Temp\ccX7yw2d.s 			page 13


 483:Source\azure_iot_sdk\uamqp\src/session.c ****                             {
 484:Source\azure_iot_sdk\uamqp\src/session.c ****                                 remove_link_endpoint(new_link_endpoint);
 485:Source\azure_iot_sdk\uamqp\src/session.c ****                                 free_link_endpoint(new_link_endpoint);
 486:Source\azure_iot_sdk\uamqp\src/session.c ****                                 new_link_endpoint = NULL;
 487:Source\azure_iot_sdk\uamqp\src/session.c ****                             }
 488:Source\azure_iot_sdk\uamqp\src/session.c ****                             else
 489:Source\azure_iot_sdk\uamqp\src/session.c ****                             {
 490:Source\azure_iot_sdk\uamqp\src/session.c ****                                 if (new_link_endpoint->frame_received_callback != NULL)
 491:Source\azure_iot_sdk\uamqp\src/session.c ****                                 {
 492:Source\azure_iot_sdk\uamqp\src/session.c ****                                     new_link_endpoint->frame_received_callback(new_link_endpoint->c
 493:Source\azure_iot_sdk\uamqp\src/session.c ****                                 }
 494:Source\azure_iot_sdk\uamqp\src/session.c ****                             }
 495:Source\azure_iot_sdk\uamqp\src/session.c ****                         }
 496:Source\azure_iot_sdk\uamqp\src/session.c ****                     }
 497:Source\azure_iot_sdk\uamqp\src/session.c ****                 }
 498:Source\azure_iot_sdk\uamqp\src/session.c ****                 else
 499:Source\azure_iot_sdk\uamqp\src/session.c ****                 {
 500:Source\azure_iot_sdk\uamqp\src/session.c ****                     if (attach_get_handle(attach_handle, &link_endpoint->input_handle) != 0)
 501:Source\azure_iot_sdk\uamqp\src/session.c ****                     {
 502:Source\azure_iot_sdk\uamqp\src/session.c ****                         end_session_with_error(session_instance, "amqp:decode-error", "Cannot get i
 503:Source\azure_iot_sdk\uamqp\src/session.c ****                     }
 504:Source\azure_iot_sdk\uamqp\src/session.c ****                     else
 505:Source\azure_iot_sdk\uamqp\src/session.c ****                     {
 506:Source\azure_iot_sdk\uamqp\src/session.c ****                         link_endpoint->link_endpoint_state = LINK_ENDPOINT_STATE_ATTACHED;
 507:Source\azure_iot_sdk\uamqp\src/session.c **** 
 508:Source\azure_iot_sdk\uamqp\src/session.c ****                         link_endpoint->frame_received_callback(link_endpoint->callback_context, per
 509:Source\azure_iot_sdk\uamqp\src/session.c ****                     }
 510:Source\azure_iot_sdk\uamqp\src/session.c ****                 }
 511:Source\azure_iot_sdk\uamqp\src/session.c ****             }
 512:Source\azure_iot_sdk\uamqp\src/session.c **** 
 513:Source\azure_iot_sdk\uamqp\src/session.c ****             attach_destroy(attach_handle);
 514:Source\azure_iot_sdk\uamqp\src/session.c ****         }
 515:Source\azure_iot_sdk\uamqp\src/session.c ****     }
 516:Source\azure_iot_sdk\uamqp\src/session.c ****     else if (is_detach_type_by_descriptor(descriptor))
 517:Source\azure_iot_sdk\uamqp\src/session.c ****     {
 518:Source\azure_iot_sdk\uamqp\src/session.c ****         DETACH_HANDLE detach_handle;
 519:Source\azure_iot_sdk\uamqp\src/session.c **** 
 520:Source\azure_iot_sdk\uamqp\src/session.c ****         if (amqpvalue_get_detach(performative, &detach_handle) != 0)
 521:Source\azure_iot_sdk\uamqp\src/session.c ****         {
 522:Source\azure_iot_sdk\uamqp\src/session.c ****             end_session_with_error(session_instance, "amqp:decode-error", "Cannot decode DETACH fra
 523:Source\azure_iot_sdk\uamqp\src/session.c ****         }
 524:Source\azure_iot_sdk\uamqp\src/session.c ****         else
 525:Source\azure_iot_sdk\uamqp\src/session.c ****         {
 526:Source\azure_iot_sdk\uamqp\src/session.c ****             uint32_t remote_handle;
 527:Source\azure_iot_sdk\uamqp\src/session.c ****             if (detach_get_handle(detach_handle, &remote_handle) != 0)
 528:Source\azure_iot_sdk\uamqp\src/session.c ****             {
 529:Source\azure_iot_sdk\uamqp\src/session.c ****                 end_session_with_error(session_instance, "amqp:decode-error", "Cannot get handle fr
 530:Source\azure_iot_sdk\uamqp\src/session.c **** 
 531:Source\azure_iot_sdk\uamqp\src/session.c ****                 detach_destroy(detach_handle);
 532:Source\azure_iot_sdk\uamqp\src/session.c ****             }
 533:Source\azure_iot_sdk\uamqp\src/session.c ****             else
 534:Source\azure_iot_sdk\uamqp\src/session.c ****             {
 535:Source\azure_iot_sdk\uamqp\src/session.c ****                 LINK_ENDPOINT_INSTANCE* link_endpoint;
 536:Source\azure_iot_sdk\uamqp\src/session.c ****                 detach_destroy(detach_handle);
 537:Source\azure_iot_sdk\uamqp\src/session.c **** 
 538:Source\azure_iot_sdk\uamqp\src/session.c ****                 link_endpoint = find_link_endpoint_by_input_handle(session_instance, remote_handle)
 539:Source\azure_iot_sdk\uamqp\src/session.c ****                 if (link_endpoint == NULL)
ARM GAS  C:\Users\Phuong\AppData\Local\Temp\ccX7yw2d.s 			page 14


 540:Source\azure_iot_sdk\uamqp\src/session.c ****                 {
 541:Source\azure_iot_sdk\uamqp\src/session.c ****                     end_session_with_error(session_instance, "amqp:session:unattached-handle", "");
 542:Source\azure_iot_sdk\uamqp\src/session.c ****                 }
 543:Source\azure_iot_sdk\uamqp\src/session.c ****                 else
 544:Source\azure_iot_sdk\uamqp\src/session.c ****                 {
 545:Source\azure_iot_sdk\uamqp\src/session.c ****                     if (link_endpoint->link_endpoint_state != LINK_ENDPOINT_STATE_DETACHING)
 546:Source\azure_iot_sdk\uamqp\src/session.c ****                     {
 547:Source\azure_iot_sdk\uamqp\src/session.c ****                         link_endpoint->link_endpoint_state = LINK_ENDPOINT_STATE_DETACHING;
 548:Source\azure_iot_sdk\uamqp\src/session.c ****                         link_endpoint->frame_received_callback(link_endpoint->callback_context, per
 549:Source\azure_iot_sdk\uamqp\src/session.c ****                     }
 550:Source\azure_iot_sdk\uamqp\src/session.c ****                     else
 551:Source\azure_iot_sdk\uamqp\src/session.c ****                     {
 552:Source\azure_iot_sdk\uamqp\src/session.c ****                         /* remove the link endpoint */
 553:Source\azure_iot_sdk\uamqp\src/session.c ****                         remove_link_endpoint(link_endpoint);
 554:Source\azure_iot_sdk\uamqp\src/session.c ****                         free_link_endpoint(link_endpoint);
 555:Source\azure_iot_sdk\uamqp\src/session.c ****                     }
 556:Source\azure_iot_sdk\uamqp\src/session.c ****                 }
 557:Source\azure_iot_sdk\uamqp\src/session.c ****             }
 558:Source\azure_iot_sdk\uamqp\src/session.c ****         }
 559:Source\azure_iot_sdk\uamqp\src/session.c ****     }
 560:Source\azure_iot_sdk\uamqp\src/session.c ****     else if (is_flow_type_by_descriptor(descriptor))
 561:Source\azure_iot_sdk\uamqp\src/session.c ****     {
 562:Source\azure_iot_sdk\uamqp\src/session.c ****         FLOW_HANDLE flow_handle;
 563:Source\azure_iot_sdk\uamqp\src/session.c **** 
 564:Source\azure_iot_sdk\uamqp\src/session.c ****         if (amqpvalue_get_flow(performative, &flow_handle) != 0)
 565:Source\azure_iot_sdk\uamqp\src/session.c ****         {
 566:Source\azure_iot_sdk\uamqp\src/session.c ****             end_session_with_error(session_instance, "amqp:decode-error", "Cannot decode FLOW frame
 567:Source\azure_iot_sdk\uamqp\src/session.c ****         }
 568:Source\azure_iot_sdk\uamqp\src/session.c ****         else
 569:Source\azure_iot_sdk\uamqp\src/session.c ****         {
 570:Source\azure_iot_sdk\uamqp\src/session.c ****             uint32_t remote_handle;
 571:Source\azure_iot_sdk\uamqp\src/session.c ****             transfer_number flow_next_incoming_id;
 572:Source\azure_iot_sdk\uamqp\src/session.c ****             uint32_t flow_incoming_window;
 573:Source\azure_iot_sdk\uamqp\src/session.c **** 
 574:Source\azure_iot_sdk\uamqp\src/session.c ****             if (flow_get_next_incoming_id(flow_handle, &flow_next_incoming_id) != 0)
 575:Source\azure_iot_sdk\uamqp\src/session.c ****             {
 576:Source\azure_iot_sdk\uamqp\src/session.c ****                 /*
 577:Source\azure_iot_sdk\uamqp\src/session.c ****                 If the next-incoming-id field of the flow frame is not set,
 578:Source\azure_iot_sdk\uamqp\src/session.c ****                 then remote-incomingwindow is computed as follows:
 579:Source\azure_iot_sdk\uamqp\src/session.c ****                 initial-outgoing-id(endpoint) + incoming-window(flow) - next-outgoing-id(endpoint)
 580:Source\azure_iot_sdk\uamqp\src/session.c ****                 */
 581:Source\azure_iot_sdk\uamqp\src/session.c ****                 flow_next_incoming_id = session_instance->next_outgoing_id;
 582:Source\azure_iot_sdk\uamqp\src/session.c ****             }
 583:Source\azure_iot_sdk\uamqp\src/session.c **** 
 584:Source\azure_iot_sdk\uamqp\src/session.c ****             if ((flow_get_next_outgoing_id(flow_handle, &session_instance->next_incoming_id) != 0) 
 585:Source\azure_iot_sdk\uamqp\src/session.c ****                 (flow_get_incoming_window(flow_handle, &flow_incoming_window) != 0))
 586:Source\azure_iot_sdk\uamqp\src/session.c ****             {
 587:Source\azure_iot_sdk\uamqp\src/session.c ****                 flow_destroy(flow_handle);
 588:Source\azure_iot_sdk\uamqp\src/session.c **** 
 589:Source\azure_iot_sdk\uamqp\src/session.c ****                 end_session_with_error(session_instance, "amqp:decode-error", "Cannot decode FLOW f
 590:Source\azure_iot_sdk\uamqp\src/session.c ****             }
 591:Source\azure_iot_sdk\uamqp\src/session.c ****             else
 592:Source\azure_iot_sdk\uamqp\src/session.c ****             {
 593:Source\azure_iot_sdk\uamqp\src/session.c ****                 LINK_ENDPOINT_INSTANCE* link_endpoint_instance = NULL;
 594:Source\azure_iot_sdk\uamqp\src/session.c ****                 size_t i;
 595:Source\azure_iot_sdk\uamqp\src/session.c **** 
 596:Source\azure_iot_sdk\uamqp\src/session.c ****                 session_instance->remote_incoming_window = flow_next_incoming_id + flow_incoming_wi
ARM GAS  C:\Users\Phuong\AppData\Local\Temp\ccX7yw2d.s 			page 15


 597:Source\azure_iot_sdk\uamqp\src/session.c **** 
 598:Source\azure_iot_sdk\uamqp\src/session.c ****                 if (flow_get_handle(flow_handle, &remote_handle) == 0)
 599:Source\azure_iot_sdk\uamqp\src/session.c ****                 {
 600:Source\azure_iot_sdk\uamqp\src/session.c ****                     link_endpoint_instance = find_link_endpoint_by_input_handle(session_instance, r
 601:Source\azure_iot_sdk\uamqp\src/session.c ****                 }
 602:Source\azure_iot_sdk\uamqp\src/session.c **** 
 603:Source\azure_iot_sdk\uamqp\src/session.c ****                 flow_destroy(flow_handle);
 604:Source\azure_iot_sdk\uamqp\src/session.c **** 
 605:Source\azure_iot_sdk\uamqp\src/session.c ****                 if (link_endpoint_instance != NULL)
 606:Source\azure_iot_sdk\uamqp\src/session.c ****                 {
 607:Source\azure_iot_sdk\uamqp\src/session.c ****                     if (link_endpoint_instance->link_endpoint_state != LINK_ENDPOINT_STATE_DETACHIN
 608:Source\azure_iot_sdk\uamqp\src/session.c ****                     {
 609:Source\azure_iot_sdk\uamqp\src/session.c ****                         link_endpoint_instance->frame_received_callback(link_endpoint_instance->cal
 610:Source\azure_iot_sdk\uamqp\src/session.c ****                     }
 611:Source\azure_iot_sdk\uamqp\src/session.c ****                 }
 612:Source\azure_iot_sdk\uamqp\src/session.c **** 
 613:Source\azure_iot_sdk\uamqp\src/session.c ****                 i = 0;
 614:Source\azure_iot_sdk\uamqp\src/session.c ****                 while ((session_instance->remote_incoming_window > 0) && (i < session_instance->lin
 615:Source\azure_iot_sdk\uamqp\src/session.c ****                 {
 616:Source\azure_iot_sdk\uamqp\src/session.c ****                     /* notify the caller that it can send here */
 617:Source\azure_iot_sdk\uamqp\src/session.c ****                     if (session_instance->link_endpoints[i]->on_session_flow_on != NULL)
 618:Source\azure_iot_sdk\uamqp\src/session.c ****                     {
 619:Source\azure_iot_sdk\uamqp\src/session.c ****                         session_instance->link_endpoints[i]->on_session_flow_on(session_instance->l
 620:Source\azure_iot_sdk\uamqp\src/session.c ****                     }
 621:Source\azure_iot_sdk\uamqp\src/session.c **** 
 622:Source\azure_iot_sdk\uamqp\src/session.c ****                     i++;
 623:Source\azure_iot_sdk\uamqp\src/session.c ****                 }
 624:Source\azure_iot_sdk\uamqp\src/session.c ****             }
 625:Source\azure_iot_sdk\uamqp\src/session.c ****         }
 626:Source\azure_iot_sdk\uamqp\src/session.c ****     }
 627:Source\azure_iot_sdk\uamqp\src/session.c ****     else if (is_transfer_type_by_descriptor(descriptor))
 628:Source\azure_iot_sdk\uamqp\src/session.c ****     {
 629:Source\azure_iot_sdk\uamqp\src/session.c ****         TRANSFER_HANDLE transfer_handle;
 630:Source\azure_iot_sdk\uamqp\src/session.c **** 
 631:Source\azure_iot_sdk\uamqp\src/session.c ****         if (amqpvalue_get_transfer(performative, &transfer_handle) != 0)
 632:Source\azure_iot_sdk\uamqp\src/session.c ****         {
 633:Source\azure_iot_sdk\uamqp\src/session.c ****             end_session_with_error(session_instance, "amqp:decode-error", "Cannot decode TRANSFER f
 634:Source\azure_iot_sdk\uamqp\src/session.c ****         }
 635:Source\azure_iot_sdk\uamqp\src/session.c ****         else
 636:Source\azure_iot_sdk\uamqp\src/session.c ****         {
 637:Source\azure_iot_sdk\uamqp\src/session.c ****             uint32_t remote_handle;
 638:Source\azure_iot_sdk\uamqp\src/session.c ****             delivery_number delivery_id;
 639:Source\azure_iot_sdk\uamqp\src/session.c **** 
 640:Source\azure_iot_sdk\uamqp\src/session.c ****             transfer_get_delivery_id(transfer_handle, &delivery_id);
 641:Source\azure_iot_sdk\uamqp\src/session.c ****             if (transfer_get_handle(transfer_handle, &remote_handle) != 0)
 642:Source\azure_iot_sdk\uamqp\src/session.c ****             {
 643:Source\azure_iot_sdk\uamqp\src/session.c ****                 transfer_destroy(transfer_handle);
 644:Source\azure_iot_sdk\uamqp\src/session.c ****                 end_session_with_error(session_instance, "amqp:decode-error", "Cannot get handle fr
 645:Source\azure_iot_sdk\uamqp\src/session.c ****             }
 646:Source\azure_iot_sdk\uamqp\src/session.c ****             else
 647:Source\azure_iot_sdk\uamqp\src/session.c ****             {
 648:Source\azure_iot_sdk\uamqp\src/session.c ****                 LINK_ENDPOINT_INSTANCE* link_endpoint;
 649:Source\azure_iot_sdk\uamqp\src/session.c ****                 transfer_destroy(transfer_handle);
 650:Source\azure_iot_sdk\uamqp\src/session.c **** 
 651:Source\azure_iot_sdk\uamqp\src/session.c ****                 session_instance->next_incoming_id++;
 652:Source\azure_iot_sdk\uamqp\src/session.c ****                 session_instance->remote_outgoing_window--;
 653:Source\azure_iot_sdk\uamqp\src/session.c ****                 session_instance->incoming_window--;
ARM GAS  C:\Users\Phuong\AppData\Local\Temp\ccX7yw2d.s 			page 16


 654:Source\azure_iot_sdk\uamqp\src/session.c **** 
 655:Source\azure_iot_sdk\uamqp\src/session.c ****                 link_endpoint = find_link_endpoint_by_input_handle(session_instance, remote_handle)
 656:Source\azure_iot_sdk\uamqp\src/session.c ****                 if (link_endpoint == NULL)
 657:Source\azure_iot_sdk\uamqp\src/session.c ****                 {
 658:Source\azure_iot_sdk\uamqp\src/session.c ****                     end_session_with_error(session_instance, "amqp:session:unattached-handle", "");
 659:Source\azure_iot_sdk\uamqp\src/session.c ****                 }
 660:Source\azure_iot_sdk\uamqp\src/session.c ****                 else
 661:Source\azure_iot_sdk\uamqp\src/session.c ****                 {
 662:Source\azure_iot_sdk\uamqp\src/session.c ****                     if (link_endpoint->link_endpoint_state != LINK_ENDPOINT_STATE_DETACHING)
 663:Source\azure_iot_sdk\uamqp\src/session.c ****                     {
 664:Source\azure_iot_sdk\uamqp\src/session.c ****                         link_endpoint->frame_received_callback(link_endpoint->callback_context, per
 665:Source\azure_iot_sdk\uamqp\src/session.c ****                     }
 666:Source\azure_iot_sdk\uamqp\src/session.c ****                 }
 667:Source\azure_iot_sdk\uamqp\src/session.c **** 
 668:Source\azure_iot_sdk\uamqp\src/session.c ****                 if (session_instance->incoming_window == 0)
 669:Source\azure_iot_sdk\uamqp\src/session.c ****                 {
 670:Source\azure_iot_sdk\uamqp\src/session.c ****                     session_instance->incoming_window = session_instance->desired_incoming_window;
 671:Source\azure_iot_sdk\uamqp\src/session.c ****                     send_flow(session_instance);
 672:Source\azure_iot_sdk\uamqp\src/session.c ****                 }
 673:Source\azure_iot_sdk\uamqp\src/session.c ****             }
 674:Source\azure_iot_sdk\uamqp\src/session.c ****         }
 675:Source\azure_iot_sdk\uamqp\src/session.c ****     }
 676:Source\azure_iot_sdk\uamqp\src/session.c ****     else if (is_disposition_type_by_descriptor(descriptor))
 677:Source\azure_iot_sdk\uamqp\src/session.c ****     {
 678:Source\azure_iot_sdk\uamqp\src/session.c ****         uint32_t i;
 679:Source\azure_iot_sdk\uamqp\src/session.c **** 
 680:Source\azure_iot_sdk\uamqp\src/session.c ****         for (i = 0; i < session_instance->link_endpoint_count; i++)
 681:Source\azure_iot_sdk\uamqp\src/session.c ****         {
 682:Source\azure_iot_sdk\uamqp\src/session.c ****             LINK_ENDPOINT_INSTANCE* link_endpoint = session_instance->link_endpoints[i];
 683:Source\azure_iot_sdk\uamqp\src/session.c ****             if (link_endpoint->link_endpoint_state != LINK_ENDPOINT_STATE_DETACHING)
 684:Source\azure_iot_sdk\uamqp\src/session.c ****             {
 685:Source\azure_iot_sdk\uamqp\src/session.c ****                 link_endpoint->frame_received_callback(link_endpoint->callback_context, performativ
 686:Source\azure_iot_sdk\uamqp\src/session.c ****             }
 687:Source\azure_iot_sdk\uamqp\src/session.c ****         }
 688:Source\azure_iot_sdk\uamqp\src/session.c ****     }
 689:Source\azure_iot_sdk\uamqp\src/session.c ****     else if (is_end_type_by_descriptor(descriptor))
 690:Source\azure_iot_sdk\uamqp\src/session.c ****     {
 691:Source\azure_iot_sdk\uamqp\src/session.c ****         END_HANDLE end_handle;
 692:Source\azure_iot_sdk\uamqp\src/session.c **** 
 693:Source\azure_iot_sdk\uamqp\src/session.c ****         if (amqpvalue_get_end(performative, &end_handle) != 0)
 694:Source\azure_iot_sdk\uamqp\src/session.c ****         {
 695:Source\azure_iot_sdk\uamqp\src/session.c ****             end_session_with_error(session_instance, "amqp:decode-error", "Cannot decode END frame"
 696:Source\azure_iot_sdk\uamqp\src/session.c ****         }
 697:Source\azure_iot_sdk\uamqp\src/session.c ****         else
 698:Source\azure_iot_sdk\uamqp\src/session.c ****         {
 699:Source\azure_iot_sdk\uamqp\src/session.c ****             end_destroy(end_handle);
 700:Source\azure_iot_sdk\uamqp\src/session.c ****             if ((session_instance->session_state != SESSION_STATE_END_RCVD) &&
 701:Source\azure_iot_sdk\uamqp\src/session.c ****                 (session_instance->session_state != SESSION_STATE_DISCARDING))
 702:Source\azure_iot_sdk\uamqp\src/session.c ****             {
 703:Source\azure_iot_sdk\uamqp\src/session.c ****                 session_set_state(session_instance, SESSION_STATE_END_RCVD);
 704:Source\azure_iot_sdk\uamqp\src/session.c ****                 if (send_end_frame(session_instance, NULL) != 0)
 705:Source\azure_iot_sdk\uamqp\src/session.c ****                 {
 706:Source\azure_iot_sdk\uamqp\src/session.c ****                     /* fatal error */
 707:Source\azure_iot_sdk\uamqp\src/session.c ****                     (void)connection_close(session_instance->connection, "amqp:internal-error", "Ca
 708:Source\azure_iot_sdk\uamqp\src/session.c ****                 }
 709:Source\azure_iot_sdk\uamqp\src/session.c **** 
 710:Source\azure_iot_sdk\uamqp\src/session.c ****                 session_set_state(session_instance, SESSION_STATE_DISCARDING);
ARM GAS  C:\Users\Phuong\AppData\Local\Temp\ccX7yw2d.s 			page 17


 711:Source\azure_iot_sdk\uamqp\src/session.c ****             }
 712:Source\azure_iot_sdk\uamqp\src/session.c ****         }
 713:Source\azure_iot_sdk\uamqp\src/session.c ****     }
 714:Source\azure_iot_sdk\uamqp\src/session.c **** }
 715:Source\azure_iot_sdk\uamqp\src/session.c **** 
 716:Source\azure_iot_sdk\uamqp\src/session.c **** SESSION_HANDLE session_create(CONNECTION_HANDLE connection, ON_LINK_ATTACHED on_link_attached, void
 717:Source\azure_iot_sdk\uamqp\src/session.c **** {
 718:Source\azure_iot_sdk\uamqp\src/session.c ****     SESSION_INSTANCE* result;
 719:Source\azure_iot_sdk\uamqp\src/session.c **** 
 720:Source\azure_iot_sdk\uamqp\src/session.c ****     if (connection == NULL)
 721:Source\azure_iot_sdk\uamqp\src/session.c ****     {
 722:Source\azure_iot_sdk\uamqp\src/session.c ****         /* Codes_S_R_S_SESSION_01_031: [If connection is NULL, session_create shall fail and return
 723:Source\azure_iot_sdk\uamqp\src/session.c ****         result = NULL;
 724:Source\azure_iot_sdk\uamqp\src/session.c ****     }
 725:Source\azure_iot_sdk\uamqp\src/session.c ****     else
 726:Source\azure_iot_sdk\uamqp\src/session.c ****     {
 727:Source\azure_iot_sdk\uamqp\src/session.c ****         /* Codes_S_R_S_SESSION_01_030: [session_create shall create a new session instance and retu
 728:Source\azure_iot_sdk\uamqp\src/session.c ****         result = (SESSION_INSTANCE*)malloc(sizeof(SESSION_INSTANCE));
 729:Source\azure_iot_sdk\uamqp\src/session.c ****         /* Codes_S_R_S_SESSION_01_042: [If allocating memory for the session fails, session_create 
 730:Source\azure_iot_sdk\uamqp\src/session.c ****         if (result != NULL)
 731:Source\azure_iot_sdk\uamqp\src/session.c ****         {
 732:Source\azure_iot_sdk\uamqp\src/session.c ****             result->connection = connection;
 733:Source\azure_iot_sdk\uamqp\src/session.c ****             result->link_endpoints = NULL;
 734:Source\azure_iot_sdk\uamqp\src/session.c ****             result->link_endpoint_count = 0;
 735:Source\azure_iot_sdk\uamqp\src/session.c ****             result->handle_max = 4294967295u;
 736:Source\azure_iot_sdk\uamqp\src/session.c **** 
 737:Source\azure_iot_sdk\uamqp\src/session.c ****             /* Codes_S_R_S_SESSION_01_057: [The delivery ids shall be assigned starting at 0.] */
 738:Source\azure_iot_sdk\uamqp\src/session.c ****             /* Codes_S_R_S_SESSION_01_017: [The nextoutgoing-id MAY be initialized to an arbitrary 
 739:Source\azure_iot_sdk\uamqp\src/session.c ****             result->next_outgoing_id = 0;
 740:Source\azure_iot_sdk\uamqp\src/session.c **** 
 741:Source\azure_iot_sdk\uamqp\src/session.c ****             result->desired_incoming_window = 1;
 742:Source\azure_iot_sdk\uamqp\src/session.c ****             result->incoming_window = 1;
 743:Source\azure_iot_sdk\uamqp\src/session.c ****             result->outgoing_window = 1;
 744:Source\azure_iot_sdk\uamqp\src/session.c ****             result->handle_max = 4294967295u;
 745:Source\azure_iot_sdk\uamqp\src/session.c ****             result->remote_incoming_window = 0;
 746:Source\azure_iot_sdk\uamqp\src/session.c ****             result->remote_outgoing_window = 0;
 747:Source\azure_iot_sdk\uamqp\src/session.c ****             result->previous_session_state = SESSION_STATE_UNMAPPED;
 748:Source\azure_iot_sdk\uamqp\src/session.c ****             result->is_underlying_connection_open = UNDERLYING_CONNECTION_NOT_OPEN;
 749:Source\azure_iot_sdk\uamqp\src/session.c ****             result->session_state = SESSION_STATE_UNMAPPED;
 750:Source\azure_iot_sdk\uamqp\src/session.c ****             result->on_link_attached = on_link_attached;
 751:Source\azure_iot_sdk\uamqp\src/session.c ****             result->on_link_attached_callback_context = callback_context;
 752:Source\azure_iot_sdk\uamqp\src/session.c **** 
 753:Source\azure_iot_sdk\uamqp\src/session.c ****             /* Codes_S_R_S_SESSION_01_032: [session_create shall create a new session endpoint by c
 754:Source\azure_iot_sdk\uamqp\src/session.c ****             result->endpoint = connection_create_endpoint(connection);
 755:Source\azure_iot_sdk\uamqp\src/session.c ****             if (result->endpoint == NULL)
 756:Source\azure_iot_sdk\uamqp\src/session.c ****             {
 757:Source\azure_iot_sdk\uamqp\src/session.c ****                 /* Codes_S_R_S_SESSION_01_033: [If connection_create_endpoint fails, session_create
 758:Source\azure_iot_sdk\uamqp\src/session.c ****                 free(result);
 759:Source\azure_iot_sdk\uamqp\src/session.c ****                 result = NULL;
 760:Source\azure_iot_sdk\uamqp\src/session.c ****             }
 761:Source\azure_iot_sdk\uamqp\src/session.c ****             else
 762:Source\azure_iot_sdk\uamqp\src/session.c ****             {
 763:Source\azure_iot_sdk\uamqp\src/session.c ****                 session_set_state(result, SESSION_STATE_UNMAPPED);
 764:Source\azure_iot_sdk\uamqp\src/session.c ****             }
 765:Source\azure_iot_sdk\uamqp\src/session.c ****         }
 766:Source\azure_iot_sdk\uamqp\src/session.c ****     }
 767:Source\azure_iot_sdk\uamqp\src/session.c **** 
ARM GAS  C:\Users\Phuong\AppData\Local\Temp\ccX7yw2d.s 			page 18


 768:Source\azure_iot_sdk\uamqp\src/session.c ****     return result;
 769:Source\azure_iot_sdk\uamqp\src/session.c **** }
 770:Source\azure_iot_sdk\uamqp\src/session.c **** 
 771:Source\azure_iot_sdk\uamqp\src/session.c **** SESSION_HANDLE session_create_from_endpoint(CONNECTION_HANDLE connection, ENDPOINT_HANDLE endpoint,
 772:Source\azure_iot_sdk\uamqp\src/session.c **** {
 773:Source\azure_iot_sdk\uamqp\src/session.c ****     SESSION_INSTANCE* result;
 774:Source\azure_iot_sdk\uamqp\src/session.c **** 
 775:Source\azure_iot_sdk\uamqp\src/session.c ****     if (endpoint == NULL)
 776:Source\azure_iot_sdk\uamqp\src/session.c ****     {
 777:Source\azure_iot_sdk\uamqp\src/session.c ****         result = NULL;
 778:Source\azure_iot_sdk\uamqp\src/session.c ****     }
 779:Source\azure_iot_sdk\uamqp\src/session.c ****     else
 780:Source\azure_iot_sdk\uamqp\src/session.c ****     {
 781:Source\azure_iot_sdk\uamqp\src/session.c ****         result = (SESSION_INSTANCE*)malloc(sizeof(SESSION_INSTANCE));
 782:Source\azure_iot_sdk\uamqp\src/session.c ****         if (result != NULL)
 783:Source\azure_iot_sdk\uamqp\src/session.c ****         {
 784:Source\azure_iot_sdk\uamqp\src/session.c ****             result->connection = connection;
 785:Source\azure_iot_sdk\uamqp\src/session.c ****             result->link_endpoints = NULL;
 786:Source\azure_iot_sdk\uamqp\src/session.c ****             result->link_endpoint_count = 0;
 787:Source\azure_iot_sdk\uamqp\src/session.c ****             result->handle_max = 4294967295u;
 788:Source\azure_iot_sdk\uamqp\src/session.c **** 
 789:Source\azure_iot_sdk\uamqp\src/session.c ****             result->next_outgoing_id = 0;
 790:Source\azure_iot_sdk\uamqp\src/session.c **** 
 791:Source\azure_iot_sdk\uamqp\src/session.c ****             result->desired_incoming_window = 1;
 792:Source\azure_iot_sdk\uamqp\src/session.c ****             result->incoming_window = 1;
 793:Source\azure_iot_sdk\uamqp\src/session.c ****             result->outgoing_window = 1;
 794:Source\azure_iot_sdk\uamqp\src/session.c ****             result->handle_max = 4294967295u;
 795:Source\azure_iot_sdk\uamqp\src/session.c ****             result->remote_incoming_window = 0;
 796:Source\azure_iot_sdk\uamqp\src/session.c ****             result->remote_outgoing_window = 0;
 797:Source\azure_iot_sdk\uamqp\src/session.c ****             result->previous_session_state = SESSION_STATE_UNMAPPED;
 798:Source\azure_iot_sdk\uamqp\src/session.c ****             result->is_underlying_connection_open = UNDERLYING_CONNECTION_NOT_OPEN;
 799:Source\azure_iot_sdk\uamqp\src/session.c ****             result->session_state = SESSION_STATE_UNMAPPED;
 800:Source\azure_iot_sdk\uamqp\src/session.c ****             result->on_link_attached = on_link_attached;
 801:Source\azure_iot_sdk\uamqp\src/session.c ****             result->on_link_attached_callback_context = callback_context;
 802:Source\azure_iot_sdk\uamqp\src/session.c **** 
 803:Source\azure_iot_sdk\uamqp\src/session.c ****             result->endpoint = endpoint;
 804:Source\azure_iot_sdk\uamqp\src/session.c ****             session_set_state(result, SESSION_STATE_UNMAPPED);
 805:Source\azure_iot_sdk\uamqp\src/session.c ****         }
 806:Source\azure_iot_sdk\uamqp\src/session.c ****     }
 807:Source\azure_iot_sdk\uamqp\src/session.c **** 
 808:Source\azure_iot_sdk\uamqp\src/session.c ****     return result;
 809:Source\azure_iot_sdk\uamqp\src/session.c **** }
 810:Source\azure_iot_sdk\uamqp\src/session.c **** 
 811:Source\azure_iot_sdk\uamqp\src/session.c **** void session_destroy(SESSION_HANDLE session)
 812:Source\azure_iot_sdk\uamqp\src/session.c **** {
 813:Source\azure_iot_sdk\uamqp\src/session.c ****     /* Codes_S_R_S_SESSION_01_036: [If session is NULL, session_destroy shall do nothing.] */
 814:Source\azure_iot_sdk\uamqp\src/session.c ****     if (session != NULL)
 815:Source\azure_iot_sdk\uamqp\src/session.c ****     {
 816:Source\azure_iot_sdk\uamqp\src/session.c ****         SESSION_INSTANCE* session_instance = (SESSION_INSTANCE*)session;
 817:Source\azure_iot_sdk\uamqp\src/session.c **** 
 818:Source\azure_iot_sdk\uamqp\src/session.c ****         session_end(session, NULL, NULL);
 819:Source\azure_iot_sdk\uamqp\src/session.c **** 
 820:Source\azure_iot_sdk\uamqp\src/session.c ****         /* Codes_S_R_S_SESSION_01_034: [session_destroy shall free all resources allocated by sessi
 821:Source\azure_iot_sdk\uamqp\src/session.c ****         /* Codes_S_R_S_SESSION_01_035: [The endpoint created in session_create shall be freed by ca
 822:Source\azure_iot_sdk\uamqp\src/session.c ****         connection_destroy_endpoint(session_instance->endpoint);
 823:Source\azure_iot_sdk\uamqp\src/session.c ****         if (session_instance->link_endpoints != NULL)
 824:Source\azure_iot_sdk\uamqp\src/session.c ****         {
ARM GAS  C:\Users\Phuong\AppData\Local\Temp\ccX7yw2d.s 			page 19


 825:Source\azure_iot_sdk\uamqp\src/session.c ****             free(session_instance->link_endpoints);
 826:Source\azure_iot_sdk\uamqp\src/session.c ****         }
 827:Source\azure_iot_sdk\uamqp\src/session.c **** 
 828:Source\azure_iot_sdk\uamqp\src/session.c ****         free(session);
 829:Source\azure_iot_sdk\uamqp\src/session.c ****     }
 830:Source\azure_iot_sdk\uamqp\src/session.c **** }
 831:Source\azure_iot_sdk\uamqp\src/session.c **** 
 832:Source\azure_iot_sdk\uamqp\src/session.c **** int session_begin(SESSION_HANDLE session)
 833:Source\azure_iot_sdk\uamqp\src/session.c **** {
 834:Source\azure_iot_sdk\uamqp\src/session.c ****     int result;
 835:Source\azure_iot_sdk\uamqp\src/session.c **** 
 836:Source\azure_iot_sdk\uamqp\src/session.c ****     if (session == NULL)
 837:Source\azure_iot_sdk\uamqp\src/session.c ****     {
 838:Source\azure_iot_sdk\uamqp\src/session.c ****         result = __FAILURE__;
 839:Source\azure_iot_sdk\uamqp\src/session.c ****     }
 840:Source\azure_iot_sdk\uamqp\src/session.c ****     else
 841:Source\azure_iot_sdk\uamqp\src/session.c ****     {
 842:Source\azure_iot_sdk\uamqp\src/session.c ****         SESSION_INSTANCE* session_instance = (SESSION_INSTANCE*)session;
 843:Source\azure_iot_sdk\uamqp\src/session.c **** 
 844:Source\azure_iot_sdk\uamqp\src/session.c ****         if (connection_start_endpoint(session_instance->endpoint, on_frame_received, on_connection_
 845:Source\azure_iot_sdk\uamqp\src/session.c ****         {
 846:Source\azure_iot_sdk\uamqp\src/session.c ****             result = __FAILURE__;
 847:Source\azure_iot_sdk\uamqp\src/session.c ****         }
 848:Source\azure_iot_sdk\uamqp\src/session.c ****         else
 849:Source\azure_iot_sdk\uamqp\src/session.c ****         {
 850:Source\azure_iot_sdk\uamqp\src/session.c ****             if (!session_instance->is_underlying_connection_open)
 851:Source\azure_iot_sdk\uamqp\src/session.c ****             {
 852:Source\azure_iot_sdk\uamqp\src/session.c ****                 if (connection_open(session_instance->connection) != 0)
 853:Source\azure_iot_sdk\uamqp\src/session.c ****                 {
 854:Source\azure_iot_sdk\uamqp\src/session.c ****                     session_instance->is_underlying_connection_open = UNDERLYING_CONNECTION_NOT_OPE
 855:Source\azure_iot_sdk\uamqp\src/session.c ****                     result = __FAILURE__;
 856:Source\azure_iot_sdk\uamqp\src/session.c ****                 }
 857:Source\azure_iot_sdk\uamqp\src/session.c ****                 else
 858:Source\azure_iot_sdk\uamqp\src/session.c ****                 {
 859:Source\azure_iot_sdk\uamqp\src/session.c ****                     session_instance->is_underlying_connection_open = UNDERLYING_CONNECTION_OPEN;
 860:Source\azure_iot_sdk\uamqp\src/session.c ****                     result = 0;
 861:Source\azure_iot_sdk\uamqp\src/session.c ****                 }
 862:Source\azure_iot_sdk\uamqp\src/session.c ****             }
 863:Source\azure_iot_sdk\uamqp\src/session.c ****             else
 864:Source\azure_iot_sdk\uamqp\src/session.c ****             {
 865:Source\azure_iot_sdk\uamqp\src/session.c ****                 result = 0;
 866:Source\azure_iot_sdk\uamqp\src/session.c ****             }
 867:Source\azure_iot_sdk\uamqp\src/session.c ****         }
 868:Source\azure_iot_sdk\uamqp\src/session.c ****     }
 869:Source\azure_iot_sdk\uamqp\src/session.c **** 
 870:Source\azure_iot_sdk\uamqp\src/session.c ****     return result;
 871:Source\azure_iot_sdk\uamqp\src/session.c **** }
 872:Source\azure_iot_sdk\uamqp\src/session.c **** 
 873:Source\azure_iot_sdk\uamqp\src/session.c **** int session_end(SESSION_HANDLE session, const char* condition_value, const char* description)
 874:Source\azure_iot_sdk\uamqp\src/session.c **** {
 875:Source\azure_iot_sdk\uamqp\src/session.c ****     int result;
 876:Source\azure_iot_sdk\uamqp\src/session.c **** 
 877:Source\azure_iot_sdk\uamqp\src/session.c ****     if (session == NULL)
 878:Source\azure_iot_sdk\uamqp\src/session.c ****     {
 879:Source\azure_iot_sdk\uamqp\src/session.c ****         result = __FAILURE__;
 880:Source\azure_iot_sdk\uamqp\src/session.c ****     }
 881:Source\azure_iot_sdk\uamqp\src/session.c ****     else
ARM GAS  C:\Users\Phuong\AppData\Local\Temp\ccX7yw2d.s 			page 20


 882:Source\azure_iot_sdk\uamqp\src/session.c ****     {
 883:Source\azure_iot_sdk\uamqp\src/session.c ****         SESSION_INSTANCE* session_instance = (SESSION_INSTANCE*)session;
 884:Source\azure_iot_sdk\uamqp\src/session.c ****         size_t i;
 885:Source\azure_iot_sdk\uamqp\src/session.c **** 
 886:Source\azure_iot_sdk\uamqp\src/session.c ****         if ((session_instance->session_state != SESSION_STATE_UNMAPPED) &&
 887:Source\azure_iot_sdk\uamqp\src/session.c ****             (session_instance->session_state != SESSION_STATE_DISCARDING))
 888:Source\azure_iot_sdk\uamqp\src/session.c ****         {
 889:Source\azure_iot_sdk\uamqp\src/session.c ****             ERROR_HANDLE error_handle = NULL;
 890:Source\azure_iot_sdk\uamqp\src/session.c ****             result = 0;
 891:Source\azure_iot_sdk\uamqp\src/session.c **** 
 892:Source\azure_iot_sdk\uamqp\src/session.c ****             if (condition_value != NULL)
 893:Source\azure_iot_sdk\uamqp\src/session.c ****             {
 894:Source\azure_iot_sdk\uamqp\src/session.c ****                 error_handle = error_create(condition_value);
 895:Source\azure_iot_sdk\uamqp\src/session.c ****                 if (error_handle == NULL)
 896:Source\azure_iot_sdk\uamqp\src/session.c ****                 {
 897:Source\azure_iot_sdk\uamqp\src/session.c ****                     result = __FAILURE__;
 898:Source\azure_iot_sdk\uamqp\src/session.c ****                 }
 899:Source\azure_iot_sdk\uamqp\src/session.c ****                 else
 900:Source\azure_iot_sdk\uamqp\src/session.c ****                 {
 901:Source\azure_iot_sdk\uamqp\src/session.c ****                     if (error_set_description(error_handle, description) != 0)
 902:Source\azure_iot_sdk\uamqp\src/session.c ****                     {
 903:Source\azure_iot_sdk\uamqp\src/session.c ****                         result = __FAILURE__;
 904:Source\azure_iot_sdk\uamqp\src/session.c ****                     }
 905:Source\azure_iot_sdk\uamqp\src/session.c ****                 }
 906:Source\azure_iot_sdk\uamqp\src/session.c ****             }
 907:Source\azure_iot_sdk\uamqp\src/session.c **** 
 908:Source\azure_iot_sdk\uamqp\src/session.c ****             if (result == 0)
 909:Source\azure_iot_sdk\uamqp\src/session.c ****             {
 910:Source\azure_iot_sdk\uamqp\src/session.c ****                 if (send_end_frame(session_instance, error_handle) != 0)
 911:Source\azure_iot_sdk\uamqp\src/session.c ****                 {
 912:Source\azure_iot_sdk\uamqp\src/session.c ****                     result = __FAILURE__;
 913:Source\azure_iot_sdk\uamqp\src/session.c ****                 }
 914:Source\azure_iot_sdk\uamqp\src/session.c ****                 else
 915:Source\azure_iot_sdk\uamqp\src/session.c ****                 {
 916:Source\azure_iot_sdk\uamqp\src/session.c ****                     session_set_state(session_instance, SESSION_STATE_DISCARDING);
 917:Source\azure_iot_sdk\uamqp\src/session.c ****                     result = 0;
 918:Source\azure_iot_sdk\uamqp\src/session.c ****                 }
 919:Source\azure_iot_sdk\uamqp\src/session.c ****             }
 920:Source\azure_iot_sdk\uamqp\src/session.c **** 
 921:Source\azure_iot_sdk\uamqp\src/session.c ****             if (error_handle != NULL)
 922:Source\azure_iot_sdk\uamqp\src/session.c ****             {
 923:Source\azure_iot_sdk\uamqp\src/session.c ****                 error_destroy(error_handle);
 924:Source\azure_iot_sdk\uamqp\src/session.c ****             }
 925:Source\azure_iot_sdk\uamqp\src/session.c ****         }
 926:Source\azure_iot_sdk\uamqp\src/session.c ****         else
 927:Source\azure_iot_sdk\uamqp\src/session.c ****         {
 928:Source\azure_iot_sdk\uamqp\src/session.c ****             result = 0;
 929:Source\azure_iot_sdk\uamqp\src/session.c ****         }
 930:Source\azure_iot_sdk\uamqp\src/session.c **** 
 931:Source\azure_iot_sdk\uamqp\src/session.c ****         // all link endpoints are destroyed when the session end happens
 932:Source\azure_iot_sdk\uamqp\src/session.c ****         for (i = 0; i < session_instance->link_endpoint_count; i++)
 933:Source\azure_iot_sdk\uamqp\src/session.c ****         {
 934:Source\azure_iot_sdk\uamqp\src/session.c ****             free_link_endpoint(session_instance->link_endpoints[i]);
 935:Source\azure_iot_sdk\uamqp\src/session.c ****         }
 936:Source\azure_iot_sdk\uamqp\src/session.c **** 
 937:Source\azure_iot_sdk\uamqp\src/session.c ****         session_instance->link_endpoint_count = 0;
 938:Source\azure_iot_sdk\uamqp\src/session.c ****     }
ARM GAS  C:\Users\Phuong\AppData\Local\Temp\ccX7yw2d.s 			page 21


 939:Source\azure_iot_sdk\uamqp\src/session.c **** 
 940:Source\azure_iot_sdk\uamqp\src/session.c ****     return result;
 941:Source\azure_iot_sdk\uamqp\src/session.c **** }
 942:Source\azure_iot_sdk\uamqp\src/session.c **** 
 943:Source\azure_iot_sdk\uamqp\src/session.c **** int session_set_incoming_window(SESSION_HANDLE session, uint32_t incoming_window)
 944:Source\azure_iot_sdk\uamqp\src/session.c **** {
 945:Source\azure_iot_sdk\uamqp\src/session.c ****     int result;
 946:Source\azure_iot_sdk\uamqp\src/session.c **** 
 947:Source\azure_iot_sdk\uamqp\src/session.c ****     if (session == NULL)
 948:Source\azure_iot_sdk\uamqp\src/session.c ****     {
 949:Source\azure_iot_sdk\uamqp\src/session.c ****         result = __FAILURE__;
 950:Source\azure_iot_sdk\uamqp\src/session.c ****     }
 951:Source\azure_iot_sdk\uamqp\src/session.c ****     else
 952:Source\azure_iot_sdk\uamqp\src/session.c ****     {
 953:Source\azure_iot_sdk\uamqp\src/session.c ****         SESSION_INSTANCE* session_instance = (SESSION_INSTANCE*)session;
 954:Source\azure_iot_sdk\uamqp\src/session.c **** 
 955:Source\azure_iot_sdk\uamqp\src/session.c ****         session_instance->desired_incoming_window = incoming_window;
 956:Source\azure_iot_sdk\uamqp\src/session.c ****         session_instance->incoming_window = incoming_window;
 957:Source\azure_iot_sdk\uamqp\src/session.c **** 
 958:Source\azure_iot_sdk\uamqp\src/session.c ****         result = 0;
 959:Source\azure_iot_sdk\uamqp\src/session.c ****     }
 960:Source\azure_iot_sdk\uamqp\src/session.c **** 
 961:Source\azure_iot_sdk\uamqp\src/session.c ****     return result;
 962:Source\azure_iot_sdk\uamqp\src/session.c **** }
 963:Source\azure_iot_sdk\uamqp\src/session.c **** 
 964:Source\azure_iot_sdk\uamqp\src/session.c **** int session_get_incoming_window(SESSION_HANDLE session, uint32_t* incoming_window)
 965:Source\azure_iot_sdk\uamqp\src/session.c **** {
 966:Source\azure_iot_sdk\uamqp\src/session.c ****     int result;
 967:Source\azure_iot_sdk\uamqp\src/session.c **** 
 968:Source\azure_iot_sdk\uamqp\src/session.c ****     if ((session == NULL) ||
 969:Source\azure_iot_sdk\uamqp\src/session.c ****         (incoming_window == NULL))
 970:Source\azure_iot_sdk\uamqp\src/session.c ****     {
 971:Source\azure_iot_sdk\uamqp\src/session.c ****         result = __FAILURE__;
 972:Source\azure_iot_sdk\uamqp\src/session.c ****     }
 973:Source\azure_iot_sdk\uamqp\src/session.c ****     else
 974:Source\azure_iot_sdk\uamqp\src/session.c ****     {
 975:Source\azure_iot_sdk\uamqp\src/session.c ****         SESSION_INSTANCE* session_instance = (SESSION_INSTANCE*)session;
 976:Source\azure_iot_sdk\uamqp\src/session.c **** 
 977:Source\azure_iot_sdk\uamqp\src/session.c ****         *incoming_window = session_instance->incoming_window;
 978:Source\azure_iot_sdk\uamqp\src/session.c **** 
 979:Source\azure_iot_sdk\uamqp\src/session.c ****         result = 0;
 980:Source\azure_iot_sdk\uamqp\src/session.c ****     }
 981:Source\azure_iot_sdk\uamqp\src/session.c **** 
 982:Source\azure_iot_sdk\uamqp\src/session.c ****     return result;
 983:Source\azure_iot_sdk\uamqp\src/session.c **** }
 984:Source\azure_iot_sdk\uamqp\src/session.c **** 
 985:Source\azure_iot_sdk\uamqp\src/session.c **** int session_set_outgoing_window(SESSION_HANDLE session, uint32_t outgoing_window)
 986:Source\azure_iot_sdk\uamqp\src/session.c **** {
 987:Source\azure_iot_sdk\uamqp\src/session.c ****     int result;
 988:Source\azure_iot_sdk\uamqp\src/session.c **** 
 989:Source\azure_iot_sdk\uamqp\src/session.c ****     if (session == NULL)
 990:Source\azure_iot_sdk\uamqp\src/session.c ****     {
 991:Source\azure_iot_sdk\uamqp\src/session.c ****         result = __FAILURE__;
 992:Source\azure_iot_sdk\uamqp\src/session.c ****     }
 993:Source\azure_iot_sdk\uamqp\src/session.c ****     else
 994:Source\azure_iot_sdk\uamqp\src/session.c ****     {
 995:Source\azure_iot_sdk\uamqp\src/session.c ****         SESSION_INSTANCE* session_instance = (SESSION_INSTANCE*)session;
ARM GAS  C:\Users\Phuong\AppData\Local\Temp\ccX7yw2d.s 			page 22


 996:Source\azure_iot_sdk\uamqp\src/session.c **** 
 997:Source\azure_iot_sdk\uamqp\src/session.c ****         session_instance->outgoing_window = outgoing_window;
 998:Source\azure_iot_sdk\uamqp\src/session.c **** 
 999:Source\azure_iot_sdk\uamqp\src/session.c ****         result = 0;
1000:Source\azure_iot_sdk\uamqp\src/session.c ****     }
1001:Source\azure_iot_sdk\uamqp\src/session.c **** 
1002:Source\azure_iot_sdk\uamqp\src/session.c ****     return result;
1003:Source\azure_iot_sdk\uamqp\src/session.c **** }
1004:Source\azure_iot_sdk\uamqp\src/session.c **** 
1005:Source\azure_iot_sdk\uamqp\src/session.c **** int session_get_outgoing_window(SESSION_HANDLE session, uint32_t* outgoing_window)
1006:Source\azure_iot_sdk\uamqp\src/session.c **** {
1007:Source\azure_iot_sdk\uamqp\src/session.c ****     int result;
1008:Source\azure_iot_sdk\uamqp\src/session.c **** 
1009:Source\azure_iot_sdk\uamqp\src/session.c ****     if ((session == NULL) ||
1010:Source\azure_iot_sdk\uamqp\src/session.c ****         (outgoing_window == NULL))
1011:Source\azure_iot_sdk\uamqp\src/session.c ****     {
1012:Source\azure_iot_sdk\uamqp\src/session.c ****         result = __FAILURE__;
1013:Source\azure_iot_sdk\uamqp\src/session.c ****     }
1014:Source\azure_iot_sdk\uamqp\src/session.c ****     else
1015:Source\azure_iot_sdk\uamqp\src/session.c ****     {
1016:Source\azure_iot_sdk\uamqp\src/session.c ****         SESSION_INSTANCE* session_instance = (SESSION_INSTANCE*)session;
1017:Source\azure_iot_sdk\uamqp\src/session.c **** 
1018:Source\azure_iot_sdk\uamqp\src/session.c ****         *outgoing_window = session_instance->outgoing_window;
1019:Source\azure_iot_sdk\uamqp\src/session.c **** 
1020:Source\azure_iot_sdk\uamqp\src/session.c ****         result = 0;
1021:Source\azure_iot_sdk\uamqp\src/session.c ****     }
1022:Source\azure_iot_sdk\uamqp\src/session.c **** 
1023:Source\azure_iot_sdk\uamqp\src/session.c ****     return result;
1024:Source\azure_iot_sdk\uamqp\src/session.c **** }
1025:Source\azure_iot_sdk\uamqp\src/session.c **** 
1026:Source\azure_iot_sdk\uamqp\src/session.c **** int session_set_handle_max(SESSION_HANDLE session, handle handle_max)
1027:Source\azure_iot_sdk\uamqp\src/session.c **** {
1028:Source\azure_iot_sdk\uamqp\src/session.c ****     int result;
1029:Source\azure_iot_sdk\uamqp\src/session.c **** 
1030:Source\azure_iot_sdk\uamqp\src/session.c ****     if (session == NULL)
1031:Source\azure_iot_sdk\uamqp\src/session.c ****     {
1032:Source\azure_iot_sdk\uamqp\src/session.c ****         result = __FAILURE__;
1033:Source\azure_iot_sdk\uamqp\src/session.c ****     }
1034:Source\azure_iot_sdk\uamqp\src/session.c ****     else
1035:Source\azure_iot_sdk\uamqp\src/session.c ****     {
1036:Source\azure_iot_sdk\uamqp\src/session.c ****         SESSION_INSTANCE* session_instance = (SESSION_INSTANCE*)session;
1037:Source\azure_iot_sdk\uamqp\src/session.c **** 
1038:Source\azure_iot_sdk\uamqp\src/session.c ****         session_instance->handle_max = handle_max;
1039:Source\azure_iot_sdk\uamqp\src/session.c **** 
1040:Source\azure_iot_sdk\uamqp\src/session.c ****         result = 0;
1041:Source\azure_iot_sdk\uamqp\src/session.c ****     }
1042:Source\azure_iot_sdk\uamqp\src/session.c **** 
1043:Source\azure_iot_sdk\uamqp\src/session.c ****     return result;
1044:Source\azure_iot_sdk\uamqp\src/session.c **** }
1045:Source\azure_iot_sdk\uamqp\src/session.c **** 
1046:Source\azure_iot_sdk\uamqp\src/session.c **** int session_get_handle_max(SESSION_HANDLE session, handle* handle_max)
1047:Source\azure_iot_sdk\uamqp\src/session.c **** {
1048:Source\azure_iot_sdk\uamqp\src/session.c ****     int result;
1049:Source\azure_iot_sdk\uamqp\src/session.c **** 
1050:Source\azure_iot_sdk\uamqp\src/session.c ****     if ((session == NULL) ||
1051:Source\azure_iot_sdk\uamqp\src/session.c ****         (handle_max == NULL))
1052:Source\azure_iot_sdk\uamqp\src/session.c ****     {
ARM GAS  C:\Users\Phuong\AppData\Local\Temp\ccX7yw2d.s 			page 23


1053:Source\azure_iot_sdk\uamqp\src/session.c ****         result = __FAILURE__;
1054:Source\azure_iot_sdk\uamqp\src/session.c ****     }
1055:Source\azure_iot_sdk\uamqp\src/session.c ****     else
1056:Source\azure_iot_sdk\uamqp\src/session.c ****     {
1057:Source\azure_iot_sdk\uamqp\src/session.c ****         SESSION_INSTANCE* session_instance = (SESSION_INSTANCE*)session;
1058:Source\azure_iot_sdk\uamqp\src/session.c **** 
1059:Source\azure_iot_sdk\uamqp\src/session.c ****         *handle_max = session_instance->handle_max;
1060:Source\azure_iot_sdk\uamqp\src/session.c **** 
1061:Source\azure_iot_sdk\uamqp\src/session.c ****         result = 0;
1062:Source\azure_iot_sdk\uamqp\src/session.c ****     }
1063:Source\azure_iot_sdk\uamqp\src/session.c **** 
1064:Source\azure_iot_sdk\uamqp\src/session.c ****     return result;
1065:Source\azure_iot_sdk\uamqp\src/session.c **** }
1066:Source\azure_iot_sdk\uamqp\src/session.c **** 
1067:Source\azure_iot_sdk\uamqp\src/session.c **** LINK_ENDPOINT_HANDLE session_create_link_endpoint(SESSION_HANDLE session, const char* name)
1068:Source\azure_iot_sdk\uamqp\src/session.c **** {
1069:Source\azure_iot_sdk\uamqp\src/session.c ****     LINK_ENDPOINT_INSTANCE* result;
1070:Source\azure_iot_sdk\uamqp\src/session.c **** 
1071:Source\azure_iot_sdk\uamqp\src/session.c ****     /* Codes_S_R_S_SESSION_01_044: [If session, name or frame_received_callback is NULL, session_cr
1072:Source\azure_iot_sdk\uamqp\src/session.c ****     if ((session == NULL) ||
1073:Source\azure_iot_sdk\uamqp\src/session.c ****         (name == NULL))
1074:Source\azure_iot_sdk\uamqp\src/session.c ****     {
1075:Source\azure_iot_sdk\uamqp\src/session.c ****         result = NULL;
1076:Source\azure_iot_sdk\uamqp\src/session.c ****     }
1077:Source\azure_iot_sdk\uamqp\src/session.c ****     else
1078:Source\azure_iot_sdk\uamqp\src/session.c ****     {
1079:Source\azure_iot_sdk\uamqp\src/session.c ****         /* Codes_S_R_S_SESSION_01_043: [session_create_link_endpoint shall create a link endpoint a
1080:Source\azure_iot_sdk\uamqp\src/session.c ****         SESSION_INSTANCE* session_instance = (SESSION_INSTANCE*)session;
1081:Source\azure_iot_sdk\uamqp\src/session.c **** 
1082:Source\azure_iot_sdk\uamqp\src/session.c ****         result = (LINK_ENDPOINT_INSTANCE*)malloc(sizeof(LINK_ENDPOINT_INSTANCE));
1083:Source\azure_iot_sdk\uamqp\src/session.c ****         /* Codes_S_R_S_SESSION_01_045: [If allocating memory for the link endpoint fails, session_c
1084:Source\azure_iot_sdk\uamqp\src/session.c ****         if (result != NULL)
1085:Source\azure_iot_sdk\uamqp\src/session.c ****         {
1086:Source\azure_iot_sdk\uamqp\src/session.c ****             /* Codes_S_R_S_SESSION_01_046: [An unused handle shall be assigned to the link endpoint
1087:Source\azure_iot_sdk\uamqp\src/session.c ****             handle selected_handle = 0;
1088:Source\azure_iot_sdk\uamqp\src/session.c ****             size_t i;
1089:Source\azure_iot_sdk\uamqp\src/session.c ****             size_t name_length;
1090:Source\azure_iot_sdk\uamqp\src/session.c **** 
1091:Source\azure_iot_sdk\uamqp\src/session.c ****             for (i = 0; i < session_instance->link_endpoint_count; i++)
1092:Source\azure_iot_sdk\uamqp\src/session.c ****             {
1093:Source\azure_iot_sdk\uamqp\src/session.c ****                 if (session_instance->link_endpoints[i]->output_handle > selected_handle)
1094:Source\azure_iot_sdk\uamqp\src/session.c ****                 {
1095:Source\azure_iot_sdk\uamqp\src/session.c ****                     break;
1096:Source\azure_iot_sdk\uamqp\src/session.c ****                 }
1097:Source\azure_iot_sdk\uamqp\src/session.c **** 
1098:Source\azure_iot_sdk\uamqp\src/session.c ****                 selected_handle++;
1099:Source\azure_iot_sdk\uamqp\src/session.c ****             }
1100:Source\azure_iot_sdk\uamqp\src/session.c **** 
1101:Source\azure_iot_sdk\uamqp\src/session.c ****             result->on_session_state_changed = NULL;
1102:Source\azure_iot_sdk\uamqp\src/session.c ****             result->on_session_flow_on = NULL;
1103:Source\azure_iot_sdk\uamqp\src/session.c ****             result->frame_received_callback = NULL;
1104:Source\azure_iot_sdk\uamqp\src/session.c ****             result->callback_context = NULL;
1105:Source\azure_iot_sdk\uamqp\src/session.c ****             result->output_handle = selected_handle;
1106:Source\azure_iot_sdk\uamqp\src/session.c ****             result->input_handle = 0xFFFFFFFF;
1107:Source\azure_iot_sdk\uamqp\src/session.c ****             result->link_endpoint_state = LINK_ENDPOINT_STATE_NOT_ATTACHED;
1108:Source\azure_iot_sdk\uamqp\src/session.c ****             name_length = strlen(name);
1109:Source\azure_iot_sdk\uamqp\src/session.c ****             result->name = (char*)malloc(name_length + 1);
ARM GAS  C:\Users\Phuong\AppData\Local\Temp\ccX7yw2d.s 			page 24


1110:Source\azure_iot_sdk\uamqp\src/session.c ****             if (result->name == NULL)
1111:Source\azure_iot_sdk\uamqp\src/session.c ****             {
1112:Source\azure_iot_sdk\uamqp\src/session.c ****                 /* Codes_S_R_S_SESSION_01_045: [If allocating memory for the link endpoint fails, s
1113:Source\azure_iot_sdk\uamqp\src/session.c ****                 free(result);
1114:Source\azure_iot_sdk\uamqp\src/session.c ****                 result = NULL;
1115:Source\azure_iot_sdk\uamqp\src/session.c ****             }
1116:Source\azure_iot_sdk\uamqp\src/session.c ****             else
1117:Source\azure_iot_sdk\uamqp\src/session.c ****             {
1118:Source\azure_iot_sdk\uamqp\src/session.c ****                 LINK_ENDPOINT_INSTANCE** new_link_endpoints;
1119:Source\azure_iot_sdk\uamqp\src/session.c ****                 (void)memcpy(result->name, name, name_length + 1);
1120:Source\azure_iot_sdk\uamqp\src/session.c ****                 result->session = session;
1121:Source\azure_iot_sdk\uamqp\src/session.c **** 
1122:Source\azure_iot_sdk\uamqp\src/session.c ****                 new_link_endpoints = (LINK_ENDPOINT_INSTANCE**)realloc(session_instance->link_endpo
1123:Source\azure_iot_sdk\uamqp\src/session.c ****                 if (new_link_endpoints == NULL)
1124:Source\azure_iot_sdk\uamqp\src/session.c ****                 {
1125:Source\azure_iot_sdk\uamqp\src/session.c ****                     /* Codes_S_R_S_SESSION_01_045: [If allocating memory for the link endpoint fail
1126:Source\azure_iot_sdk\uamqp\src/session.c ****                     free(result->name);
1127:Source\azure_iot_sdk\uamqp\src/session.c ****                     free(result);
1128:Source\azure_iot_sdk\uamqp\src/session.c ****                     result = NULL;
1129:Source\azure_iot_sdk\uamqp\src/session.c ****                 }
1130:Source\azure_iot_sdk\uamqp\src/session.c ****                 else
1131:Source\azure_iot_sdk\uamqp\src/session.c ****                 {
1132:Source\azure_iot_sdk\uamqp\src/session.c ****                     session_instance->link_endpoints = new_link_endpoints;
1133:Source\azure_iot_sdk\uamqp\src/session.c **** 
1134:Source\azure_iot_sdk\uamqp\src/session.c ****                     if (session_instance->link_endpoint_count - selected_handle > 0)
1135:Source\azure_iot_sdk\uamqp\src/session.c ****                     {
1136:Source\azure_iot_sdk\uamqp\src/session.c ****                         (void)memmove(&session_instance->link_endpoints[selected_handle + 1], &sess
1137:Source\azure_iot_sdk\uamqp\src/session.c ****                     }
1138:Source\azure_iot_sdk\uamqp\src/session.c **** 
1139:Source\azure_iot_sdk\uamqp\src/session.c ****                     session_instance->link_endpoints[selected_handle] = result;
1140:Source\azure_iot_sdk\uamqp\src/session.c ****                     session_instance->link_endpoint_count++;
1141:Source\azure_iot_sdk\uamqp\src/session.c ****                 }
1142:Source\azure_iot_sdk\uamqp\src/session.c ****             }
1143:Source\azure_iot_sdk\uamqp\src/session.c ****         }
1144:Source\azure_iot_sdk\uamqp\src/session.c ****     }
1145:Source\azure_iot_sdk\uamqp\src/session.c **** 
1146:Source\azure_iot_sdk\uamqp\src/session.c ****     return result;
1147:Source\azure_iot_sdk\uamqp\src/session.c **** }
1148:Source\azure_iot_sdk\uamqp\src/session.c **** 
1149:Source\azure_iot_sdk\uamqp\src/session.c **** void session_destroy_link_endpoint(LINK_ENDPOINT_HANDLE link_endpoint)
1150:Source\azure_iot_sdk\uamqp\src/session.c **** {
1151:Source\azure_iot_sdk\uamqp\src/session.c ****     if (link_endpoint != NULL)
1152:Source\azure_iot_sdk\uamqp\src/session.c ****     {
1153:Source\azure_iot_sdk\uamqp\src/session.c ****         LINK_ENDPOINT_INSTANCE* endpoint_instance = (LINK_ENDPOINT_INSTANCE*)link_endpoint;
1154:Source\azure_iot_sdk\uamqp\src/session.c **** 
1155:Source\azure_iot_sdk\uamqp\src/session.c ****         if (endpoint_instance->link_endpoint_state == LINK_ENDPOINT_STATE_ATTACHED)
1156:Source\azure_iot_sdk\uamqp\src/session.c ****         {
1157:Source\azure_iot_sdk\uamqp\src/session.c ****             endpoint_instance->link_endpoint_state = LINK_ENDPOINT_STATE_DETACHING;
1158:Source\azure_iot_sdk\uamqp\src/session.c ****         }
1159:Source\azure_iot_sdk\uamqp\src/session.c ****         else
1160:Source\azure_iot_sdk\uamqp\src/session.c ****         {
1161:Source\azure_iot_sdk\uamqp\src/session.c ****             remove_link_endpoint(link_endpoint);
1162:Source\azure_iot_sdk\uamqp\src/session.c ****             free_link_endpoint(link_endpoint);
1163:Source\azure_iot_sdk\uamqp\src/session.c ****         }
1164:Source\azure_iot_sdk\uamqp\src/session.c ****     }
1165:Source\azure_iot_sdk\uamqp\src/session.c **** }
1166:Source\azure_iot_sdk\uamqp\src/session.c **** 
ARM GAS  C:\Users\Phuong\AppData\Local\Temp\ccX7yw2d.s 			page 25


1167:Source\azure_iot_sdk\uamqp\src/session.c **** int session_start_link_endpoint(LINK_ENDPOINT_HANDLE link_endpoint, ON_ENDPOINT_FRAME_RECEIVED fram
1168:Source\azure_iot_sdk\uamqp\src/session.c **** {
1169:Source\azure_iot_sdk\uamqp\src/session.c ****     int result;
1170:Source\azure_iot_sdk\uamqp\src/session.c **** 
1171:Source\azure_iot_sdk\uamqp\src/session.c ****     if ((link_endpoint == NULL) ||
1172:Source\azure_iot_sdk\uamqp\src/session.c ****         (frame_received_callback == NULL))
1173:Source\azure_iot_sdk\uamqp\src/session.c ****     {
1174:Source\azure_iot_sdk\uamqp\src/session.c ****         result = __FAILURE__;
1175:Source\azure_iot_sdk\uamqp\src/session.c ****     }
1176:Source\azure_iot_sdk\uamqp\src/session.c ****     else
1177:Source\azure_iot_sdk\uamqp\src/session.c ****     {
1178:Source\azure_iot_sdk\uamqp\src/session.c ****         link_endpoint->frame_received_callback = frame_received_callback;
1179:Source\azure_iot_sdk\uamqp\src/session.c ****         link_endpoint->on_session_state_changed = on_session_state_changed;
1180:Source\azure_iot_sdk\uamqp\src/session.c ****         link_endpoint->on_session_flow_on = on_session_flow_on;
1181:Source\azure_iot_sdk\uamqp\src/session.c ****         link_endpoint->callback_context = context;
1182:Source\azure_iot_sdk\uamqp\src/session.c ****         link_endpoint->link_endpoint_state = LINK_ENDPOINT_STATE_NOT_ATTACHED;
1183:Source\azure_iot_sdk\uamqp\src/session.c **** 
1184:Source\azure_iot_sdk\uamqp\src/session.c ****         if (link_endpoint->on_session_state_changed != NULL)
1185:Source\azure_iot_sdk\uamqp\src/session.c ****         {
1186:Source\azure_iot_sdk\uamqp\src/session.c ****             link_endpoint->on_session_state_changed(link_endpoint->callback_context, link_endpoint-
1187:Source\azure_iot_sdk\uamqp\src/session.c ****         }
1188:Source\azure_iot_sdk\uamqp\src/session.c **** 
1189:Source\azure_iot_sdk\uamqp\src/session.c ****         result = 0;
1190:Source\azure_iot_sdk\uamqp\src/session.c ****     }
1191:Source\azure_iot_sdk\uamqp\src/session.c **** 
1192:Source\azure_iot_sdk\uamqp\src/session.c ****     return result;
1193:Source\azure_iot_sdk\uamqp\src/session.c **** }
1194:Source\azure_iot_sdk\uamqp\src/session.c **** 
1195:Source\azure_iot_sdk\uamqp\src/session.c **** static int encode_frame(LINK_ENDPOINT_HANDLE link_endpoint, AMQP_VALUE performative, PAYLOAD* paylo
1196:Source\azure_iot_sdk\uamqp\src/session.c **** {
 193              		.loc 1 1196 0
 194              		.cfi_startproc
 195              		@ args = 0, pretend = 0, frame = 0
 196              		@ frame_needed = 0, uses_anonymous_args = 0
 197              	.LVL20:
 198 0000 10B5     		push	{r4, lr}
 199              		.cfi_def_cfa_offset 8
 200              		.cfi_offset 4, -8
 201              		.cfi_offset 14, -4
 202 0002 82B0     		sub	sp, sp, #8
 203              		.cfi_def_cfa_offset 16
1197:Source\azure_iot_sdk\uamqp\src/session.c ****     int result;
1198:Source\azure_iot_sdk\uamqp\src/session.c **** 
1199:Source\azure_iot_sdk\uamqp\src/session.c ****     if ((link_endpoint == NULL) ||
 204              		.loc 1 1199 0
 205 0004 0028     		cmp	r0, #0
 206 0006 0CD0     		beq	.L15
 207              		.loc 1 1199 0 is_stmt 0 discriminator 1
 208 0008 0029     		cmp	r1, #0
 209 000a 0CD0     		beq	.L16
 210              	.LVL21:
 211              	.LBB2:
1200:Source\azure_iot_sdk\uamqp\src/session.c ****         (performative == NULL))
1201:Source\azure_iot_sdk\uamqp\src/session.c ****     {
1202:Source\azure_iot_sdk\uamqp\src/session.c ****         result = __FAILURE__;
1203:Source\azure_iot_sdk\uamqp\src/session.c ****     }
1204:Source\azure_iot_sdk\uamqp\src/session.c ****     else
ARM GAS  C:\Users\Phuong\AppData\Local\Temp\ccX7yw2d.s 			page 26


1205:Source\azure_iot_sdk\uamqp\src/session.c ****     {
1206:Source\azure_iot_sdk\uamqp\src/session.c ****         LINK_ENDPOINT_INSTANCE* link_endpoint_instance = (LINK_ENDPOINT_INSTANCE*)link_endpoint;
1207:Source\azure_iot_sdk\uamqp\src/session.c ****         SESSION_INSTANCE* session_instance = (SESSION_INSTANCE*)link_endpoint_instance->session;
 212              		.loc 1 1207 0 is_stmt 1
 213 000c C069     		ldr	r0, [r0, #28]
 214              	.LVL22:
1208:Source\azure_iot_sdk\uamqp\src/session.c **** 
1209:Source\azure_iot_sdk\uamqp\src/session.c ****         if (connection_encode_frame(session_instance->endpoint, performative, payloads, payload_cou
 215              		.loc 1 1209 0
 216 000e 0069     		ldr	r0, [r0, #16]
 217              	.LVL23:
 218 0010 0024     		movs	r4, #0
 219 0012 0194     		str	r4, [sp, #4]
 220              	.LVL24:
 221 0014 0094     		str	r4, [sp]
 222 0016 FFF7FEFF 		bl	connection_encode_frame
 223              	.LVL25:
 224 001a 0028     		cmp	r0, #0
 225 001c 05D0     		beq	.L17
1210:Source\azure_iot_sdk\uamqp\src/session.c ****         {
1211:Source\azure_iot_sdk\uamqp\src/session.c ****             result = __FAILURE__;
 226              		.loc 1 1211 0
 227 001e 0448     		ldr	r0, .L18
 228 0020 04E0     		b	.L14
 229              	.LVL26:
 230              	.L15:
 231              	.LBE2:
1202:Source\azure_iot_sdk\uamqp\src/session.c ****     }
 232              		.loc 1 1202 0
 233 0022 0448     		ldr	r0, .L18+4
 234              	.LVL27:
 235 0024 02E0     		b	.L14
 236              	.LVL28:
 237              	.L16:
 238 0026 0348     		ldr	r0, .L18+4
 239              	.LVL29:
 240 0028 00E0     		b	.L14
 241              	.LVL30:
 242              	.L17:
 243              	.LBB3:
1212:Source\azure_iot_sdk\uamqp\src/session.c ****         }
1213:Source\azure_iot_sdk\uamqp\src/session.c ****         else
1214:Source\azure_iot_sdk\uamqp\src/session.c ****         {
1215:Source\azure_iot_sdk\uamqp\src/session.c ****             result = 0;
 244              		.loc 1 1215 0
 245 002a 0020     		movs	r0, #0
 246              	.LVL31:
 247              	.L14:
 248              	.LBE3:
1216:Source\azure_iot_sdk\uamqp\src/session.c ****         }
1217:Source\azure_iot_sdk\uamqp\src/session.c ****     }
1218:Source\azure_iot_sdk\uamqp\src/session.c **** 
1219:Source\azure_iot_sdk\uamqp\src/session.c ****     return result;
1220:Source\azure_iot_sdk\uamqp\src/session.c **** }
 249              		.loc 1 1220 0
 250 002c 02B0     		add	sp, sp, #8
 251              		@ sp needed
ARM GAS  C:\Users\Phuong\AppData\Local\Temp\ccX7yw2d.s 			page 27


 252 002e 10BD     		pop	{r4, pc}
 253              	.L19:
 254              		.align	2
 255              	.L18:
 256 0030 BB040000 		.word	1211
 257 0034 B2040000 		.word	1202
 258              		.cfi_endproc
 259              	.LFE25:
 260              		.size	encode_frame, .-encode_frame
 261              		.section	.text.send_begin,"ax",%progbits
 262              		.align	2
 263              		.code	16
 264              		.thumb_func
 265              		.type	send_begin, %function
 266              	send_begin:
 267              	.LFB5:
 207:Source\azure_iot_sdk\uamqp\src/session.c ****     int result;
 268              		.loc 1 207 0
 269              		.cfi_startproc
 270              		@ args = 0, pretend = 0, frame = 8
 271              		@ frame_needed = 0, uses_anonymous_args = 0
 272              	.LVL32:
 273 0000 70B5     		push	{r4, r5, r6, lr}
 274              		.cfi_def_cfa_offset 16
 275              		.cfi_offset 4, -16
 276              		.cfi_offset 5, -12
 277              		.cfi_offset 6, -8
 278              		.cfi_offset 14, -4
 279 0002 84B0     		sub	sp, sp, #16
 280              		.cfi_def_cfa_offset 32
 281 0004 0400     		movs	r4, r0
 209:Source\azure_iot_sdk\uamqp\src/session.c **** 
 282              		.loc 1 209 0
 283 0006 426B     		ldr	r2, [r0, #52]
 284 0008 016B     		ldr	r1, [r0, #48]
 285 000a 406A     		ldr	r0, [r0, #36]
 286              	.LVL33:
 287 000c FFF7FEFF 		bl	begin_create
 288              	.LVL34:
 289 0010 051E     		subs	r5, r0, #0
 290              	.LVL35:
 211:Source\azure_iot_sdk\uamqp\src/session.c ****     {
 291              		.loc 1 211 0
 292 0012 37D0     		beq	.L25
 293              	.LBB4:
 218:Source\azure_iot_sdk\uamqp\src/session.c ****         {
 294              		.loc 1 218 0
 295 0014 A16B     		ldr	r1, [r4, #56]
 296 0016 FFF7FEFF 		bl	begin_set_handle_max
 297              	.LVL36:
 298 001a 0028     		cmp	r0, #0
 299 001c 27D1     		bne	.L26
 222:Source\azure_iot_sdk\uamqp\src/session.c ****             ((connection_endpoint_get_incoming_channel(session_instance->endpoint, &remote_channel)
 300              		.loc 1 222 0
 301 001e 237A     		ldrb	r3, [r4, #8]
 302 0020 022B     		cmp	r3, #2
 303 0022 0ED1     		bne	.L23
ARM GAS  C:\Users\Phuong\AppData\Local\Temp\ccX7yw2d.s 			page 28


 223:Source\azure_iot_sdk\uamqp\src/session.c ****             (begin_set_remote_channel(begin, remote_channel) != 0)))
 304              		.loc 1 223 0 discriminator 1
 305 0024 0E21     		movs	r1, #14
 306 0026 6944     		add	r1, r1, sp
 307 0028 2069     		ldr	r0, [r4, #16]
 308 002a FFF7FEFF 		bl	connection_endpoint_get_incoming_channel
 309              	.LVL37:
 222:Source\azure_iot_sdk\uamqp\src/session.c ****             ((connection_endpoint_get_incoming_channel(session_instance->endpoint, &remote_channel)
 310              		.loc 1 222 0 discriminator 1
 311 002e 0028     		cmp	r0, #0
 312 0030 1FD1     		bne	.L27
 224:Source\azure_iot_sdk\uamqp\src/session.c ****         {
 313              		.loc 1 224 0
 314 0032 0E23     		movs	r3, #14
 315 0034 6B44     		add	r3, r3, sp
 316 0036 1988     		ldrh	r1, [r3]
 317 0038 2800     		movs	r0, r5
 318 003a FFF7FEFF 		bl	begin_set_remote_channel
 319              	.LVL38:
 223:Source\azure_iot_sdk\uamqp\src/session.c ****             (begin_set_remote_channel(begin, remote_channel) != 0)))
 320              		.loc 1 223 0
 321 003e 0028     		cmp	r0, #0
 322 0040 19D1     		bne	.L28
 323              	.L23:
 324              	.LBB5:
 230:Source\azure_iot_sdk\uamqp\src/session.c ****             if (begin_performative_value == NULL)
 325              		.loc 1 230 0
 326 0042 2800     		movs	r0, r5
 327 0044 FFF7FEFF 		bl	amqpvalue_create_begin
 328              	.LVL39:
 329 0048 061E     		subs	r6, r0, #0
 330              	.LVL40:
 231:Source\azure_iot_sdk\uamqp\src/session.c ****             {
 331              		.loc 1 231 0
 332 004a 16D0     		beq	.L29
 237:Source\azure_iot_sdk\uamqp\src/session.c ****                 {
 333              		.loc 1 237 0
 334 004c 2069     		ldr	r0, [r4, #16]
 335              	.LVL41:
 336 004e 0023     		movs	r3, #0
 337 0050 0193     		str	r3, [sp, #4]
 338 0052 0093     		str	r3, [sp]
 339 0054 0022     		movs	r2, #0
 340 0056 3100     		movs	r1, r6
 341 0058 FFF7FEFF 		bl	connection_encode_frame
 342              	.LVL42:
 343 005c 0028     		cmp	r0, #0
 344 005e 01D0     		beq	.L30
 239:Source\azure_iot_sdk\uamqp\src/session.c ****                 }
 345              		.loc 1 239 0
 346 0060 EF24     		movs	r4, #239
 347              	.LVL43:
 348 0062 00E0     		b	.L24
 349              	.LVL44:
 350              	.L30:
 243:Source\azure_iot_sdk\uamqp\src/session.c ****                 }
 351              		.loc 1 243 0
ARM GAS  C:\Users\Phuong\AppData\Local\Temp\ccX7yw2d.s 			page 29


 352 0064 0024     		movs	r4, #0
 353              	.LVL45:
 354              	.L24:
 246:Source\azure_iot_sdk\uamqp\src/session.c ****             }
 355              		.loc 1 246 0
 356 0066 3000     		movs	r0, r6
 357 0068 FFF7FEFF 		bl	amqpvalue_destroy
 358              	.LVL46:
 359 006c 06E0     		b	.L22
 360              	.LVL47:
 361              	.L26:
 362              	.LBE5:
 220:Source\azure_iot_sdk\uamqp\src/session.c ****         }
 363              		.loc 1 220 0
 364 006e DC24     		movs	r4, #220
 365              	.LVL48:
 366 0070 04E0     		b	.L22
 367              	.LVL49:
 368              	.L27:
 226:Source\azure_iot_sdk\uamqp\src/session.c ****         }
 369              		.loc 1 226 0
 370 0072 E224     		movs	r4, #226
 371              	.LVL50:
 372 0074 02E0     		b	.L22
 373              	.LVL51:
 374              	.L28:
 375 0076 E224     		movs	r4, #226
 376              	.LVL52:
 377 0078 00E0     		b	.L22
 378              	.LVL53:
 379              	.L29:
 380              	.LBB6:
 233:Source\azure_iot_sdk\uamqp\src/session.c ****             }
 381              		.loc 1 233 0
 382 007a E924     		movs	r4, #233
 383              	.LVL54:
 384              	.L22:
 385              	.LBE6:
 250:Source\azure_iot_sdk\uamqp\src/session.c ****     }
 386              		.loc 1 250 0
 387 007c 2800     		movs	r0, r5
 388 007e FFF7FEFF 		bl	begin_destroy
 389              	.LVL55:
 390 0082 00E0     		b	.L21
 391              	.LVL56:
 392              	.L25:
 393              	.LBE4:
 213:Source\azure_iot_sdk\uamqp\src/session.c ****     }
 394              		.loc 1 213 0
 395 0084 D524     		movs	r4, #213
 396              	.LVL57:
 397              	.L21:
 254:Source\azure_iot_sdk\uamqp\src/session.c **** 
 398              		.loc 1 254 0
 399 0086 2000     		movs	r0, r4
 400 0088 04B0     		add	sp, sp, #16
 401              		@ sp needed
ARM GAS  C:\Users\Phuong\AppData\Local\Temp\ccX7yw2d.s 			page 30


 402              	.LVL58:
 403              	.LVL59:
 404 008a 70BD     		pop	{r4, r5, r6, pc}
 405              		.cfi_endproc
 406              	.LFE5:
 407              		.size	send_begin, .-send_begin
 408              		.section	.text.on_connection_state_changed,"ax",%progbits
 409              		.align	2
 410              		.code	16
 411              		.thumb_func
 412              		.type	on_connection_state_changed, %function
 413              	on_connection_state_changed:
 414              	.LFB9:
 357:Source\azure_iot_sdk\uamqp\src/session.c ****     SESSION_INSTANCE* session_instance = (SESSION_INSTANCE*)context;
 415              		.loc 1 357 0
 416              		.cfi_startproc
 417              		@ args = 0, pretend = 0, frame = 0
 418              		@ frame_needed = 0, uses_anonymous_args = 0
 419              	.LVL60:
 420 0000 10B5     		push	{r4, lr}
 421              		.cfi_def_cfa_offset 8
 422              		.cfi_offset 4, -8
 423              		.cfi_offset 14, -4
 424 0002 0400     		movs	r4, r0
 425              	.LVL61:
 361:Source\azure_iot_sdk\uamqp\src/session.c ****     {
 426              		.loc 1 361 0
 427 0004 0929     		cmp	r1, #9
 428 0006 0DD1     		bne	.L32
 361:Source\azure_iot_sdk\uamqp\src/session.c ****     {
 429              		.loc 1 361 0 is_stmt 0 discriminator 1
 430 0008 092A     		cmp	r2, #9
 431 000a 0BD0     		beq	.L32
 361:Source\azure_iot_sdk\uamqp\src/session.c ****     {
 432              		.loc 1 361 0 discriminator 2
 433 000c 037A     		ldrb	r3, [r0, #8]
 434 000e 002B     		cmp	r3, #0
 435 0010 08D1     		bne	.L32
 363:Source\azure_iot_sdk\uamqp\src/session.c ****         {
 436              		.loc 1 363 0 is_stmt 1
 437 0012 FFF7FEFF 		bl	send_begin
 438              	.LVL62:
 439 0016 0028     		cmp	r0, #0
 440 0018 13D1     		bne	.L31
 365:Source\azure_iot_sdk\uamqp\src/session.c ****         }
 441              		.loc 1 365 0
 442 001a 0121     		movs	r1, #1
 443 001c 2000     		movs	r0, r4
 444 001e FFF7FEFF 		bl	session_set_state
 445              	.LVL63:
 446 0022 0EE0     		b	.L31
 447              	.LVL64:
 448              	.L32:
 369:Source\azure_iot_sdk\uamqp\src/session.c ****     {
 449              		.loc 1 369 0
 450 0024 0A29     		cmp	r1, #10
 451 0026 01D0     		beq	.L34
ARM GAS  C:\Users\Phuong\AppData\Local\Temp\ccX7yw2d.s 			page 31


 369:Source\azure_iot_sdk\uamqp\src/session.c ****     {
 452              		.loc 1 369 0 is_stmt 0 discriminator 1
 453 0028 0D29     		cmp	r1, #13
 454 002a 04D1     		bne	.L35
 455              	.L34:
 371:Source\azure_iot_sdk\uamqp\src/session.c ****     }
 456              		.loc 1 371 0 is_stmt 1
 457 002c 0621     		movs	r1, #6
 458              	.LVL65:
 459 002e 2000     		movs	r0, r4
 460              	.LVL66:
 461 0030 FFF7FEFF 		bl	session_set_state
 462              	.LVL67:
 463 0034 05E0     		b	.L31
 464              	.LVL68:
 465              	.L35:
 374:Source\azure_iot_sdk\uamqp\src/session.c ****     {
 466              		.loc 1 374 0
 467 0036 0E29     		cmp	r1, #14
 468 0038 03D1     		bne	.L31
 376:Source\azure_iot_sdk\uamqp\src/session.c ****     }
 469              		.loc 1 376 0
 470 003a 0739     		subs	r1, r1, #7
 471              	.LVL69:
 472 003c 2000     		movs	r0, r4
 473              	.LVL70:
 474 003e FFF7FEFF 		bl	session_set_state
 475              	.LVL71:
 476              	.L31:
 378:Source\azure_iot_sdk\uamqp\src/session.c **** 
 477              		.loc 1 378 0
 478              		@ sp needed
 479              	.LVL72:
 480 0042 10BD     		pop	{r4, pc}
 481              		.cfi_endproc
 482              	.LFE9:
 483              		.size	on_connection_state_changed, .-on_connection_state_changed
 484              		.section	.text.find_link_endpoint_by_name,"ax",%progbits
 485              		.align	2
 486              		.code	16
 487              		.thumb_func
 488              		.type	find_link_endpoint_by_name, %function
 489              	find_link_endpoint_by_name:
 490              	.LFB7:
 307:Source\azure_iot_sdk\uamqp\src/session.c ****     uint32_t i;
 491              		.loc 1 307 0
 492              		.cfi_startproc
 493              		@ args = 0, pretend = 0, frame = 0
 494              		@ frame_needed = 0, uses_anonymous_args = 0
 495              	.LVL73:
 496 0000 F8B5     		push	{r3, r4, r5, r6, r7, lr}
 497              		.cfi_def_cfa_offset 24
 498              		.cfi_offset 3, -24
 499              		.cfi_offset 4, -20
 500              		.cfi_offset 5, -16
 501              		.cfi_offset 6, -12
 502              		.cfi_offset 7, -8
ARM GAS  C:\Users\Phuong\AppData\Local\Temp\ccX7yw2d.s 			page 32


 503              		.cfi_offset 14, -4
 504 0002 0500     		movs	r5, r0
 505 0004 0F00     		movs	r7, r1
 506              	.LVL74:
 311:Source\azure_iot_sdk\uamqp\src/session.c ****     {
 507              		.loc 1 311 0
 508 0006 0024     		movs	r4, #0
 509 0008 09E0     		b	.L37
 510              	.LVL75:
 511              	.L39:
 313:Source\azure_iot_sdk\uamqp\src/session.c ****         {
 512              		.loc 1 313 0
 513 000a A300     		lsls	r3, r4, #2
 514 000c 6A69     		ldr	r2, [r5, #20]
 515 000e 9B58     		ldr	r3, [r3, r2]
 516 0010 1868     		ldr	r0, [r3]
 517 0012 3900     		movs	r1, r7
 518 0014 FFF7FEFF 		bl	strcmp
 519              	.LVL76:
 520 0018 0028     		cmp	r0, #0
 521 001a 03D0     		beq	.L38
 311:Source\azure_iot_sdk\uamqp\src/session.c ****     {
 522              		.loc 1 311 0 discriminator 2
 523 001c 0134     		adds	r4, r4, #1
 524              	.LVL77:
 525              	.L37:
 311:Source\azure_iot_sdk\uamqp\src/session.c ****     {
 526              		.loc 1 311 0 is_stmt 0 discriminator 1
 527 001e AE69     		ldr	r6, [r5, #24]
 528 0020 B442     		cmp	r4, r6
 529 0022 F2D3     		bcc	.L39
 530              	.L38:
 319:Source\azure_iot_sdk\uamqp\src/session.c ****     {
 531              		.loc 1 319 0 is_stmt 1
 532 0024 B442     		cmp	r4, r6
 533 0026 03D0     		beq	.L41
 325:Source\azure_iot_sdk\uamqp\src/session.c ****     }
 534              		.loc 1 325 0
 535 0028 6B69     		ldr	r3, [r5, #20]
 536 002a A400     		lsls	r4, r4, #2
 537              	.LVL78:
 538 002c 1859     		ldr	r0, [r3, r4]
 539              	.LVL79:
 540 002e 00E0     		b	.L40
 541              	.LVL80:
 542              	.L41:
 321:Source\azure_iot_sdk\uamqp\src/session.c ****     }
 543              		.loc 1 321 0
 544 0030 0020     		movs	r0, #0
 545              	.LVL81:
 546              	.L40:
 329:Source\azure_iot_sdk\uamqp\src/session.c **** 
 547              		.loc 1 329 0
 548              		@ sp needed
 549              	.LVL82:
 550              	.LVL83:
 551 0032 F8BD     		pop	{r3, r4, r5, r6, r7, pc}
ARM GAS  C:\Users\Phuong\AppData\Local\Temp\ccX7yw2d.s 			page 33


 552              		.cfi_endproc
 553              	.LFE7:
 554              		.size	find_link_endpoint_by_name, .-find_link_endpoint_by_name
 555              		.section	.text.remove_link_endpoint,"ax",%progbits
 556              		.align	2
 557              		.code	16
 558              		.thumb_func
 559              		.type	remove_link_endpoint, %function
 560              	remove_link_endpoint:
 561              	.LFB0:
  62:Source\azure_iot_sdk\uamqp\src/session.c ****     if (link_endpoint != NULL)
 562              		.loc 1 62 0
 563              		.cfi_startproc
 564              		@ args = 0, pretend = 0, frame = 0
 565              		@ frame_needed = 0, uses_anonymous_args = 0
 566              	.LVL84:
 567 0000 70B5     		push	{r4, r5, r6, lr}
 568              		.cfi_def_cfa_offset 16
 569              		.cfi_offset 4, -16
 570              		.cfi_offset 5, -12
 571              		.cfi_offset 6, -8
 572              		.cfi_offset 14, -4
  63:Source\azure_iot_sdk\uamqp\src/session.c ****     {
 573              		.loc 1 63 0
 574 0002 0028     		cmp	r0, #0
 575 0004 2FD0     		beq	.L42
 576              	.LVL85:
 577              	.LBB7:
  66:Source\azure_iot_sdk\uamqp\src/session.c ****         uint32_t i;
 578              		.loc 1 66 0
 579 0006 C469     		ldr	r4, [r0, #28]
 580              	.LVL86:
  69:Source\azure_iot_sdk\uamqp\src/session.c ****         {
 581              		.loc 1 69 0
 582 0008 0023     		movs	r3, #0
 583 000a 05E0     		b	.L44
 584              	.LVL87:
 585              	.L46:
  71:Source\azure_iot_sdk\uamqp\src/session.c ****             {
 586              		.loc 1 71 0
 587 000c 9900     		lsls	r1, r3, #2
 588 000e 6569     		ldr	r5, [r4, #20]
 589 0010 4959     		ldr	r1, [r1, r5]
 590 0012 8842     		cmp	r0, r1
 591 0014 03D0     		beq	.L45
  69:Source\azure_iot_sdk\uamqp\src/session.c ****         {
 592              		.loc 1 69 0 discriminator 2
 593 0016 0133     		adds	r3, r3, #1
 594              	.LVL88:
 595              	.L44:
  69:Source\azure_iot_sdk\uamqp\src/session.c ****         {
 596              		.loc 1 69 0 is_stmt 0 discriminator 1
 597 0018 A269     		ldr	r2, [r4, #24]
 598 001a 9342     		cmp	r3, r2
 599 001c F6D3     		bcc	.L46
 600              	.L45:
  77:Source\azure_iot_sdk\uamqp\src/session.c ****         {
ARM GAS  C:\Users\Phuong\AppData\Local\Temp\ccX7yw2d.s 			page 34


 601              		.loc 1 77 0 is_stmt 1
 602 001e 9342     		cmp	r3, r2
 603 0020 21D2     		bcs	.L42
 604              	.LBB8:
  81:Source\azure_iot_sdk\uamqp\src/session.c ****             {
 605              		.loc 1 81 0
 606 0022 511E     		subs	r1, r2, #1
 607 0024 8B42     		cmp	r3, r1
 608 0026 0CD2     		bcs	.L47
  83:Source\azure_iot_sdk\uamqp\src/session.c ****             }
 609              		.loc 1 83 0
 610 0028 6569     		ldr	r5, [r4, #20]
 611 002a 9800     		lsls	r0, r3, #2
 612              	.LVL89:
 613 002c 2818     		adds	r0, r5, r0
 614 002e 591C     		adds	r1, r3, #1
 615 0030 8900     		lsls	r1, r1, #2
 616 0032 6918     		adds	r1, r5, r1
 617 0034 D21A     		subs	r2, r2, r3
 618 0036 0C4B     		ldr	r3, .L49
 619              	.LVL90:
 620 0038 9C46     		mov	ip, r3
 621 003a 6244     		add	r2, r2, ip
 622 003c 9200     		lsls	r2, r2, #2
 623 003e FFF7FEFF 		bl	memmove
 624              	.LVL91:
 625              	.L47:
  86:Source\azure_iot_sdk\uamqp\src/session.c **** 
 626              		.loc 1 86 0
 627 0042 A369     		ldr	r3, [r4, #24]
 628 0044 591E     		subs	r1, r3, #1
 629 0046 A161     		str	r1, [r4, #24]
  88:Source\azure_iot_sdk\uamqp\src/session.c ****             {
 630              		.loc 1 88 0
 631 0048 0029     		cmp	r1, #0
 632 004a 05D1     		bne	.L48
  90:Source\azure_iot_sdk\uamqp\src/session.c ****                 session_instance->link_endpoints = NULL;
 633              		.loc 1 90 0
 634 004c 6069     		ldr	r0, [r4, #20]
 635 004e FFF7FEFF 		bl	free
 636              	.LVL92:
  91:Source\azure_iot_sdk\uamqp\src/session.c ****             }
 637              		.loc 1 91 0
 638 0052 0023     		movs	r3, #0
 639 0054 6361     		str	r3, [r4, #20]
 640 0056 06E0     		b	.L42
 641              	.L48:
  95:Source\azure_iot_sdk\uamqp\src/session.c ****                 if (new_endpoints != NULL)
 642              		.loc 1 95 0
 643 0058 8900     		lsls	r1, r1, #2
 644 005a 6069     		ldr	r0, [r4, #20]
 645 005c FFF7FEFF 		bl	realloc
 646              	.LVL93:
  96:Source\azure_iot_sdk\uamqp\src/session.c ****                 {
 647              		.loc 1 96 0
 648 0060 0028     		cmp	r0, #0
 649 0062 00D0     		beq	.L42
ARM GAS  C:\Users\Phuong\AppData\Local\Temp\ccX7yw2d.s 			page 35


  98:Source\azure_iot_sdk\uamqp\src/session.c ****                 }
 650              		.loc 1 98 0
 651 0064 6061     		str	r0, [r4, #20]
 652              	.LVL94:
 653              	.L42:
 654              	.LBE8:
 655              	.LBE7:
 103:Source\azure_iot_sdk\uamqp\src/session.c **** 
 656              		.loc 1 103 0
 657              		@ sp needed
 658 0066 70BD     		pop	{r4, r5, r6, pc}
 659              	.L50:
 660              		.align	2
 661              	.L49:
 662 0068 FFFFFF3F 		.word	1073741823
 663              		.cfi_endproc
 664              	.LFE0:
 665              		.size	remove_link_endpoint, .-remove_link_endpoint
 666              		.section	.text.send_flow,"ax",%progbits
 667              		.align	2
 668              		.code	16
 669              		.thumb_func
 670              		.type	send_flow, %function
 671              	send_flow:
 672              	.LFB6:
 257:Source\azure_iot_sdk\uamqp\src/session.c ****     int result;
 673              		.loc 1 257 0
 674              		.cfi_startproc
 675              		@ args = 0, pretend = 0, frame = 0
 676              		@ frame_needed = 0, uses_anonymous_args = 0
 677              	.LVL95:
 678 0000 70B5     		push	{r4, r5, r6, lr}
 679              		.cfi_def_cfa_offset 16
 680              		.cfi_offset 4, -16
 681              		.cfi_offset 5, -12
 682              		.cfi_offset 6, -8
 683              		.cfi_offset 14, -4
 684 0002 82B0     		sub	sp, sp, #8
 685              		.cfi_def_cfa_offset 24
 686 0004 041E     		subs	r4, r0, #0
 259:Source\azure_iot_sdk\uamqp\src/session.c ****     {
 687              		.loc 1 259 0
 688 0006 2BD0     		beq	.L55
 689              	.LBB9:
 265:Source\azure_iot_sdk\uamqp\src/session.c **** 
 690              		.loc 1 265 0
 691 0008 426B     		ldr	r2, [r0, #52]
 692 000a 416A     		ldr	r1, [r0, #36]
 693 000c 006B     		ldr	r0, [r0, #48]
 694              	.LVL96:
 695 000e FFF7FEFF 		bl	flow_create
 696              	.LVL97:
 697 0012 051E     		subs	r5, r0, #0
 698              	.LVL98:
 267:Source\azure_iot_sdk\uamqp\src/session.c ****         {
 699              		.loc 1 267 0
 700 0014 27D0     		beq	.L56
ARM GAS  C:\Users\Phuong\AppData\Local\Temp\ccX7yw2d.s 			page 36


 273:Source\azure_iot_sdk\uamqp\src/session.c ****             {
 701              		.loc 1 273 0
 702 0016 A16A     		ldr	r1, [r4, #40]
 703 0018 FFF7FEFF 		bl	flow_set_next_incoming_id
 704              	.LVL99:
 705 001c 0028     		cmp	r0, #0
 706 001e 16D1     		bne	.L57
 707              	.LBB10:
 279:Source\azure_iot_sdk\uamqp\src/session.c ****                 if (flow_performative_value == NULL)
 708              		.loc 1 279 0
 709 0020 2800     		movs	r0, r5
 710 0022 FFF7FEFF 		bl	amqpvalue_create_flow
 711              	.LVL100:
 712 0026 061E     		subs	r6, r0, #0
 713              	.LVL101:
 280:Source\azure_iot_sdk\uamqp\src/session.c ****                 {
 714              		.loc 1 280 0
 715 0028 14D0     		beq	.L58
 286:Source\azure_iot_sdk\uamqp\src/session.c ****                     {
 716              		.loc 1 286 0
 717 002a 2069     		ldr	r0, [r4, #16]
 718              	.LVL102:
 719 002c 0023     		movs	r3, #0
 720 002e 0193     		str	r3, [sp, #4]
 721 0030 0093     		str	r3, [sp]
 722 0032 0022     		movs	r2, #0
 723 0034 3100     		movs	r1, r6
 724 0036 FFF7FEFF 		bl	connection_encode_frame
 725              	.LVL103:
 726 003a 0028     		cmp	r0, #0
 727 003c 02D0     		beq	.L59
 288:Source\azure_iot_sdk\uamqp\src/session.c ****                     }
 728              		.loc 1 288 0
 729 003e 9024     		movs	r4, #144
 730              	.LVL104:
 731 0040 6400     		lsls	r4, r4, #1
 732 0042 00E0     		b	.L54
 733              	.LVL105:
 734              	.L59:
 292:Source\azure_iot_sdk\uamqp\src/session.c ****                     }
 735              		.loc 1 292 0
 736 0044 0024     		movs	r4, #0
 737              	.LVL106:
 738              	.L54:
 295:Source\azure_iot_sdk\uamqp\src/session.c ****                 }
 739              		.loc 1 295 0
 740 0046 3000     		movs	r0, r6
 741 0048 FFF7FEFF 		bl	amqpvalue_destroy
 742              	.LVL107:
 743 004c 04E0     		b	.L53
 744              	.LVL108:
 745              	.L57:
 746              	.LBE10:
 275:Source\azure_iot_sdk\uamqp\src/session.c ****             }
 747              		.loc 1 275 0
 748 004e 1424     		movs	r4, #20
 749              	.LVL109:
ARM GAS  C:\Users\Phuong\AppData\Local\Temp\ccX7yw2d.s 			page 37


 750 0050 FF34     		adds	r4, r4, #255
 751 0052 01E0     		b	.L53
 752              	.LVL110:
 753              	.L58:
 754              	.LBB11:
 282:Source\azure_iot_sdk\uamqp\src/session.c ****                 }
 755              		.loc 1 282 0
 756 0054 8D24     		movs	r4, #141
 757              	.LVL111:
 758 0056 6400     		lsls	r4, r4, #1
 759              	.LVL112:
 760              	.L53:
 761              	.LBE11:
 299:Source\azure_iot_sdk\uamqp\src/session.c ****         }
 762              		.loc 1 299 0
 763 0058 2800     		movs	r0, r5
 764 005a FFF7FEFF 		bl	flow_destroy
 765              	.LVL113:
 766 005e 04E0     		b	.L52
 767              	.LVL114:
 768              	.L55:
 769              	.LBE9:
 261:Source\azure_iot_sdk\uamqp\src/session.c ****     }
 770              		.loc 1 261 0
 771 0060 0624     		movs	r4, #6
 772 0062 FF34     		adds	r4, r4, #255
 773 0064 01E0     		b	.L52
 774              	.LVL115:
 775              	.L56:
 776              	.LBB12:
 269:Source\azure_iot_sdk\uamqp\src/session.c ****         }
 777              		.loc 1 269 0
 778 0066 0E24     		movs	r4, #14
 779              	.LVL116:
 780 0068 FF34     		adds	r4, r4, #255
 781              	.LVL117:
 782              	.L52:
 783              	.LBE12:
 304:Source\azure_iot_sdk\uamqp\src/session.c **** 
 784              		.loc 1 304 0
 785 006a 2000     		movs	r0, r4
 786 006c 02B0     		add	sp, sp, #8
 787              		@ sp needed
 788              	.LVL118:
 789 006e 70BD     		pop	{r4, r5, r6, pc}
 790              		.cfi_endproc
 791              	.LFE6:
 792              		.size	send_flow, .-send_flow
 793              		.section	.text.send_end_frame,"ax",%progbits
 794              		.align	2
 795              		.code	16
 796              		.thumb_func
 797              		.type	send_end_frame, %function
 798              	send_end_frame:
 799              	.LFB3:
 135:Source\azure_iot_sdk\uamqp\src/session.c ****     int result;
 800              		.loc 1 135 0
ARM GAS  C:\Users\Phuong\AppData\Local\Temp\ccX7yw2d.s 			page 38


 801              		.cfi_startproc
 802              		@ args = 0, pretend = 0, frame = 0
 803              		@ frame_needed = 0, uses_anonymous_args = 0
 804              	.LVL119:
 805 0000 F0B5     		push	{r4, r5, r6, r7, lr}
 806              		.cfi_def_cfa_offset 20
 807              		.cfi_offset 4, -20
 808              		.cfi_offset 5, -16
 809              		.cfi_offset 6, -12
 810              		.cfi_offset 7, -8
 811              		.cfi_offset 14, -4
 812 0002 83B0     		sub	sp, sp, #12
 813              		.cfi_def_cfa_offset 32
 814 0004 0700     		movs	r7, r0
 815 0006 0D00     		movs	r5, r1
 139:Source\azure_iot_sdk\uamqp\src/session.c ****     if (end_performative == NULL)
 816              		.loc 1 139 0
 817 0008 FFF7FEFF 		bl	end_create
 818              	.LVL120:
 819 000c 041E     		subs	r4, r0, #0
 820              	.LVL121:
 140:Source\azure_iot_sdk\uamqp\src/session.c ****     {
 821              		.loc 1 140 0
 822 000e 23D0     		beq	.L65
 146:Source\azure_iot_sdk\uamqp\src/session.c ****             (end_set_error(end_performative, error_handle) != 0))
 823              		.loc 1 146 0
 824 0010 002D     		cmp	r5, #0
 825 0012 04D0     		beq	.L62
 147:Source\azure_iot_sdk\uamqp\src/session.c ****         {
 826              		.loc 1 147 0 discriminator 1
 827 0014 2900     		movs	r1, r5
 828 0016 FFF7FEFF 		bl	end_set_error
 829              	.LVL122:
 146:Source\azure_iot_sdk\uamqp\src/session.c ****             (end_set_error(end_performative, error_handle) != 0))
 830              		.loc 1 146 0 discriminator 1
 831 001a 0028     		cmp	r0, #0
 832 001c 15D1     		bne	.L66
 833              	.L62:
 834              	.LBB13:
 153:Source\azure_iot_sdk\uamqp\src/session.c ****             if (end_performative_value == NULL)
 835              		.loc 1 153 0
 836 001e 2000     		movs	r0, r4
 837 0020 FFF7FEFF 		bl	amqpvalue_create_end
 838              	.LVL123:
 839 0024 061E     		subs	r6, r0, #0
 840              	.LVL124:
 154:Source\azure_iot_sdk\uamqp\src/session.c ****             {
 841              		.loc 1 154 0
 842 0026 12D0     		beq	.L67
 160:Source\azure_iot_sdk\uamqp\src/session.c ****                 {
 843              		.loc 1 160 0
 844 0028 3869     		ldr	r0, [r7, #16]
 845              	.LVL125:
 846 002a 0023     		movs	r3, #0
 847 002c 0193     		str	r3, [sp, #4]
 848 002e 0093     		str	r3, [sp]
 849 0030 0022     		movs	r2, #0
ARM GAS  C:\Users\Phuong\AppData\Local\Temp\ccX7yw2d.s 			page 39


 850 0032 3100     		movs	r1, r6
 851 0034 FFF7FEFF 		bl	connection_encode_frame
 852              	.LVL126:
 853 0038 0028     		cmp	r0, #0
 854 003a 01D0     		beq	.L68
 162:Source\azure_iot_sdk\uamqp\src/session.c ****                 }
 855              		.loc 1 162 0
 856 003c A225     		movs	r5, #162
 857              	.LVL127:
 858 003e 00E0     		b	.L64
 859              	.LVL128:
 860              	.L68:
 166:Source\azure_iot_sdk\uamqp\src/session.c ****                 }
 861              		.loc 1 166 0
 862 0040 0025     		movs	r5, #0
 863              	.LVL129:
 864              	.L64:
 169:Source\azure_iot_sdk\uamqp\src/session.c ****             }
 865              		.loc 1 169 0
 866 0042 3000     		movs	r0, r6
 867 0044 FFF7FEFF 		bl	amqpvalue_destroy
 868              	.LVL130:
 869 0048 02E0     		b	.L63
 870              	.LVL131:
 871              	.L66:
 872              	.LBE13:
 149:Source\azure_iot_sdk\uamqp\src/session.c ****         }
 873              		.loc 1 149 0
 874 004a 9525     		movs	r5, #149
 875              	.LVL132:
 876 004c 00E0     		b	.L63
 877              	.LVL133:
 878              	.L67:
 879              	.LBB14:
 156:Source\azure_iot_sdk\uamqp\src/session.c ****             }
 880              		.loc 1 156 0
 881 004e 9C25     		movs	r5, #156
 882              	.LVL134:
 883              	.L63:
 884              	.LBE14:
 173:Source\azure_iot_sdk\uamqp\src/session.c ****     }
 885              		.loc 1 173 0
 886 0050 2000     		movs	r0, r4
 887 0052 FFF7FEFF 		bl	end_destroy
 888              	.LVL135:
 889 0056 00E0     		b	.L61
 890              	.LVL136:
 891              	.L65:
 142:Source\azure_iot_sdk\uamqp\src/session.c ****     }
 892              		.loc 1 142 0
 893 0058 8E25     		movs	r5, #142
 894              	.LVL137:
 895              	.L61:
 177:Source\azure_iot_sdk\uamqp\src/session.c **** 
 896              		.loc 1 177 0
 897 005a 2800     		movs	r0, r5
 898 005c 03B0     		add	sp, sp, #12
ARM GAS  C:\Users\Phuong\AppData\Local\Temp\ccX7yw2d.s 			page 40


 899              		@ sp needed
 900              	.LVL138:
 901              	.LVL139:
 902              	.LVL140:
 903 005e F0BD     		pop	{r4, r5, r6, r7, pc}
 904              		.cfi_endproc
 905              	.LFE3:
 906              		.size	send_end_frame, .-send_end_frame
 907              		.section	.text.end_session_with_error,"ax",%progbits
 908              		.align	2
 909              		.code	16
 910              		.thumb_func
 911              		.type	end_session_with_error, %function
 912              	end_session_with_error:
 913              	.LFB4:
 180:Source\azure_iot_sdk\uamqp\src/session.c ****     ERROR_HANDLE error_handle = error_create(condition_value);
 914              		.loc 1 180 0
 915              		.cfi_startproc
 916              		@ args = 0, pretend = 0, frame = 0
 917              		@ frame_needed = 0, uses_anonymous_args = 0
 918              	.LVL141:
 919 0000 70B5     		push	{r4, r5, r6, lr}
 920              		.cfi_def_cfa_offset 16
 921              		.cfi_offset 4, -16
 922              		.cfi_offset 5, -12
 923              		.cfi_offset 6, -8
 924              		.cfi_offset 14, -4
 925 0002 0500     		movs	r5, r0
 926 0004 1600     		movs	r6, r2
 181:Source\azure_iot_sdk\uamqp\src/session.c ****     if (error_handle == NULL)
 927              		.loc 1 181 0
 928 0006 0800     		movs	r0, r1
 929              	.LVL142:
 930 0008 FFF7FEFF 		bl	error_create
 931              	.LVL143:
 932 000c 041E     		subs	r4, r0, #0
 933              	.LVL144:
 182:Source\azure_iot_sdk\uamqp\src/session.c ****     {
 934              		.loc 1 182 0
 935 000e 0AD1     		bne	.L70
 185:Source\azure_iot_sdk\uamqp\src/session.c ****         (void)connection_close(session_instance->connection, "amqp:internal-error", "Cannot allocat
 936              		.loc 1 185 0
 937 0010 0621     		movs	r1, #6
 938 0012 2800     		movs	r0, r5
 939              	.LVL145:
 940 0014 FFF7FEFF 		bl	session_set_state
 941              	.LVL146:
 186:Source\azure_iot_sdk\uamqp\src/session.c ****     }
 942              		.loc 1 186 0
 943 0018 E868     		ldr	r0, [r5, #12]
 944 001a 0023     		movs	r3, #0
 945 001c 114A     		ldr	r2, .L75
 946 001e 1249     		ldr	r1, .L75+4
 947 0020 FFF7FEFF 		bl	connection_close
 948              	.LVL147:
 949 0024 1CE0     		b	.L69
 950              	.LVL148:
ARM GAS  C:\Users\Phuong\AppData\Local\Temp\ccX7yw2d.s 			page 41


 951              	.L70:
 190:Source\azure_iot_sdk\uamqp\src/session.c ****             (send_end_frame(session_instance, error_handle) != 0))
 952              		.loc 1 190 0
 953 0026 3100     		movs	r1, r6
 954 0028 FFF7FEFF 		bl	error_set_description
 955              	.LVL149:
 956 002c 0028     		cmp	r0, #0
 957 002e 05D1     		bne	.L72
 191:Source\azure_iot_sdk\uamqp\src/session.c ****         {
 958              		.loc 1 191 0 discriminator 1
 959 0030 2100     		movs	r1, r4
 960 0032 2800     		movs	r0, r5
 961 0034 FFF7FEFF 		bl	send_end_frame
 962              	.LVL150:
 190:Source\azure_iot_sdk\uamqp\src/session.c ****             (send_end_frame(session_instance, error_handle) != 0))
 963              		.loc 1 190 0 discriminator 1
 964 0038 0028     		cmp	r0, #0
 965 003a 0AD0     		beq	.L73
 966              	.L72:
 194:Source\azure_iot_sdk\uamqp\src/session.c ****             (void)connection_close(session_instance->connection, "amqp:internal-error", "Cannot all
 967              		.loc 1 194 0
 968 003c 0621     		movs	r1, #6
 969 003e 2800     		movs	r0, r5
 970 0040 FFF7FEFF 		bl	session_set_state
 971              	.LVL151:
 195:Source\azure_iot_sdk\uamqp\src/session.c ****         }
 972              		.loc 1 195 0
 973 0044 E868     		ldr	r0, [r5, #12]
 974 0046 0023     		movs	r3, #0
 975 0048 064A     		ldr	r2, .L75
 976 004a 0749     		ldr	r1, .L75+4
 977 004c FFF7FEFF 		bl	connection_close
 978              	.LVL152:
 979 0050 03E0     		b	.L74
 980              	.L73:
 199:Source\azure_iot_sdk\uamqp\src/session.c ****         }
 981              		.loc 1 199 0
 982 0052 0621     		movs	r1, #6
 983 0054 2800     		movs	r0, r5
 984 0056 FFF7FEFF 		bl	session_set_state
 985              	.LVL153:
 986              	.L74:
 202:Source\azure_iot_sdk\uamqp\src/session.c ****     }
 987              		.loc 1 202 0
 988 005a 2000     		movs	r0, r4
 989 005c FFF7FEFF 		bl	error_destroy
 990              	.LVL154:
 991              	.L69:
 204:Source\azure_iot_sdk\uamqp\src/session.c **** 
 992              		.loc 1 204 0
 993              		@ sp needed
 994              	.LVL155:
 995              	.LVL156:
 996              	.LVL157:
 997 0060 70BD     		pop	{r4, r5, r6, pc}
 998              	.L76:
 999 0062 C046     		.align	2
ARM GAS  C:\Users\Phuong\AppData\Local\Temp\ccX7yw2d.s 			page 42


 1000              	.L75:
 1001 0064 00000000 		.word	.LC0
 1002 0068 2C000000 		.word	.LC2
 1003              		.cfi_endproc
 1004              	.LFE4:
 1005              		.size	end_session_with_error, .-end_session_with_error
 1006              		.section	.text.session_create,"ax",%progbits
 1007              		.align	2
 1008              		.global	session_create
 1009              		.code	16
 1010              		.thumb_func
 1011              		.type	session_create, %function
 1012              	session_create:
 1013              	.LFB11:
 717:Source\azure_iot_sdk\uamqp\src/session.c ****     SESSION_INSTANCE* result;
 1014              		.loc 1 717 0
 1015              		.cfi_startproc
 1016              		@ args = 0, pretend = 0, frame = 0
 1017              		@ frame_needed = 0, uses_anonymous_args = 0
 1018              	.LVL158:
 1019 0000 F8B5     		push	{r3, r4, r5, r6, r7, lr}
 1020              		.cfi_def_cfa_offset 24
 1021              		.cfi_offset 3, -24
 1022              		.cfi_offset 4, -20
 1023              		.cfi_offset 5, -16
 1024              		.cfi_offset 6, -12
 1025              		.cfi_offset 7, -8
 1026              		.cfi_offset 14, -4
 1027 0002 0700     		movs	r7, r0
 1028 0004 0E00     		movs	r6, r1
 1029 0006 1500     		movs	r5, r2
 720:Source\azure_iot_sdk\uamqp\src/session.c ****     {
 1030              		.loc 1 720 0
 1031 0008 0028     		cmp	r0, #0
 1032 000a 2AD0     		beq	.L80
 728:Source\azure_iot_sdk\uamqp\src/session.c ****         /* Codes_S_R_S_SESSION_01_042: [If allocating memory for the session fails, session_create 
 1033              		.loc 1 728 0
 1034 000c 4820     		movs	r0, #72
 1035              	.LVL159:
 1036 000e FFF7FEFF 		bl	malloc
 1037              	.LVL160:
 1038 0012 041E     		subs	r4, r0, #0
 1039              	.LVL161:
 730:Source\azure_iot_sdk\uamqp\src/session.c ****         {
 1040              		.loc 1 730 0
 1041 0014 26D0     		beq	.L78
 732:Source\azure_iot_sdk\uamqp\src/session.c ****             result->link_endpoints = NULL;
 1042              		.loc 1 732 0
 1043 0016 C760     		str	r7, [r0, #12]
 733:Source\azure_iot_sdk\uamqp\src/session.c ****             result->link_endpoint_count = 0;
 1044              		.loc 1 733 0
 1045 0018 0023     		movs	r3, #0
 1046 001a 4361     		str	r3, [r0, #20]
 734:Source\azure_iot_sdk\uamqp\src/session.c ****             result->handle_max = 4294967295u;
 1047              		.loc 1 734 0
 1048 001c 8361     		str	r3, [r0, #24]
 735:Source\azure_iot_sdk\uamqp\src/session.c **** 
ARM GAS  C:\Users\Phuong\AppData\Local\Temp\ccX7yw2d.s 			page 43


 1049              		.loc 1 735 0
 1050 001e 0122     		movs	r2, #1
 1051 0020 5242     		rsbs	r2, r2, #0
 1052 0022 8263     		str	r2, [r0, #56]
 739:Source\azure_iot_sdk\uamqp\src/session.c **** 
 1053              		.loc 1 739 0
 1054 0024 4362     		str	r3, [r0, #36]
 741:Source\azure_iot_sdk\uamqp\src/session.c ****             result->incoming_window = 1;
 1055              		.loc 1 741 0
 1056 0026 0232     		adds	r2, r2, #2
 1057 0028 C262     		str	r2, [r0, #44]
 742:Source\azure_iot_sdk\uamqp\src/session.c ****             result->outgoing_window = 1;
 1058              		.loc 1 742 0
 1059 002a 0263     		str	r2, [r0, #48]
 743:Source\azure_iot_sdk\uamqp\src/session.c ****             result->handle_max = 4294967295u;
 1060              		.loc 1 743 0
 1061 002c 4263     		str	r2, [r0, #52]
 745:Source\azure_iot_sdk\uamqp\src/session.c ****             result->remote_outgoing_window = 0;
 1062              		.loc 1 745 0
 1063 002e C363     		str	r3, [r0, #60]
 746:Source\azure_iot_sdk\uamqp\src/session.c ****             result->previous_session_state = SESSION_STATE_UNMAPPED;
 1064              		.loc 1 746 0
 1065 0030 0364     		str	r3, [r0, #64]
 747:Source\azure_iot_sdk\uamqp\src/session.c ****             result->is_underlying_connection_open = UNDERLYING_CONNECTION_NOT_OPEN;
 1066              		.loc 1 747 0
 1067 0032 4372     		strb	r3, [r0, #9]
 748:Source\azure_iot_sdk\uamqp\src/session.c ****             result->session_state = SESSION_STATE_UNMAPPED;
 1068              		.loc 1 748 0
 1069 0034 4420     		movs	r0, #68
 1070              	.LVL162:
 1071 0036 215C     		ldrb	r1, [r4, r0]
 1072 0038 9143     		bics	r1, r2
 1073 003a 2154     		strb	r1, [r4, r0]
 749:Source\azure_iot_sdk\uamqp\src/session.c ****             result->on_link_attached = on_link_attached;
 1074              		.loc 1 749 0
 1075 003c 2372     		strb	r3, [r4, #8]
 750:Source\azure_iot_sdk\uamqp\src/session.c ****             result->on_link_attached_callback_context = callback_context;
 1076              		.loc 1 750 0
 1077 003e E661     		str	r6, [r4, #28]
 751:Source\azure_iot_sdk\uamqp\src/session.c **** 
 1078              		.loc 1 751 0
 1079 0040 2562     		str	r5, [r4, #32]
 754:Source\azure_iot_sdk\uamqp\src/session.c ****             if (result->endpoint == NULL)
 1080              		.loc 1 754 0
 1081 0042 3800     		movs	r0, r7
 1082 0044 FFF7FEFF 		bl	connection_create_endpoint
 1083              	.LVL163:
 1084 0048 2061     		str	r0, [r4, #16]
 755:Source\azure_iot_sdk\uamqp\src/session.c ****             {
 1085              		.loc 1 755 0
 1086 004a 0028     		cmp	r0, #0
 1087 004c 04D1     		bne	.L79
 758:Source\azure_iot_sdk\uamqp\src/session.c ****                 result = NULL;
 1088              		.loc 1 758 0
 1089 004e 2000     		movs	r0, r4
 1090 0050 FFF7FEFF 		bl	free
 1091              	.LVL164:
ARM GAS  C:\Users\Phuong\AppData\Local\Temp\ccX7yw2d.s 			page 44


 759:Source\azure_iot_sdk\uamqp\src/session.c ****             }
 1092              		.loc 1 759 0
 1093 0054 0024     		movs	r4, #0
 1094 0056 05E0     		b	.L78
 1095              	.LVL165:
 1096              	.L79:
 763:Source\azure_iot_sdk\uamqp\src/session.c ****             }
 1097              		.loc 1 763 0
 1098 0058 0021     		movs	r1, #0
 1099 005a 2000     		movs	r0, r4
 1100 005c FFF7FEFF 		bl	session_set_state
 1101              	.LVL166:
 1102 0060 00E0     		b	.L78
 1103              	.LVL167:
 1104              	.L80:
 723:Source\azure_iot_sdk\uamqp\src/session.c ****     }
 1105              		.loc 1 723 0
 1106 0062 0024     		movs	r4, #0
 1107              	.LVL168:
 1108              	.L78:
 769:Source\azure_iot_sdk\uamqp\src/session.c **** 
 1109              		.loc 1 769 0
 1110 0064 2000     		movs	r0, r4
 1111              		@ sp needed
 1112              	.LVL169:
 1113              	.LVL170:
 1114              	.LVL171:
 1115              	.LVL172:
 1116 0066 F8BD     		pop	{r3, r4, r5, r6, r7, pc}
 1117              		.cfi_endproc
 1118              	.LFE11:
 1119              		.size	session_create, .-session_create
 1120              		.section	.text.session_create_from_endpoint,"ax",%progbits
 1121              		.align	2
 1122              		.global	session_create_from_endpoint
 1123              		.code	16
 1124              		.thumb_func
 1125              		.type	session_create_from_endpoint, %function
 1126              	session_create_from_endpoint:
 1127              	.LFB12:
 772:Source\azure_iot_sdk\uamqp\src/session.c ****     SESSION_INSTANCE* result;
 1128              		.loc 1 772 0
 1129              		.cfi_startproc
 1130              		@ args = 0, pretend = 0, frame = 8
 1131              		@ frame_needed = 0, uses_anonymous_args = 0
 1132              	.LVL173:
 1133 0000 F0B5     		push	{r4, r5, r6, r7, lr}
 1134              		.cfi_def_cfa_offset 20
 1135              		.cfi_offset 4, -20
 1136              		.cfi_offset 5, -16
 1137              		.cfi_offset 6, -12
 1138              		.cfi_offset 7, -8
 1139              		.cfi_offset 14, -4
 1140 0002 83B0     		sub	sp, sp, #12
 1141              		.cfi_def_cfa_offset 32
 1142 0004 0700     		movs	r7, r0
 1143 0006 0D00     		movs	r5, r1
ARM GAS  C:\Users\Phuong\AppData\Local\Temp\ccX7yw2d.s 			page 45


 1144 0008 1600     		movs	r6, r2
 1145 000a 0193     		str	r3, [sp, #4]
 775:Source\azure_iot_sdk\uamqp\src/session.c ****     {
 1146              		.loc 1 775 0
 1147 000c 0029     		cmp	r1, #0
 1148 000e 21D0     		beq	.L83
 781:Source\azure_iot_sdk\uamqp\src/session.c ****         if (result != NULL)
 1149              		.loc 1 781 0
 1150 0010 4820     		movs	r0, #72
 1151              	.LVL174:
 1152 0012 FFF7FEFF 		bl	malloc
 1153              	.LVL175:
 1154 0016 041E     		subs	r4, r0, #0
 1155              	.LVL176:
 782:Source\azure_iot_sdk\uamqp\src/session.c ****         {
 1156              		.loc 1 782 0
 1157 0018 1DD0     		beq	.L82
 784:Source\azure_iot_sdk\uamqp\src/session.c ****             result->link_endpoints = NULL;
 1158              		.loc 1 784 0
 1159 001a C760     		str	r7, [r0, #12]
 785:Source\azure_iot_sdk\uamqp\src/session.c ****             result->link_endpoint_count = 0;
 1160              		.loc 1 785 0
 1161 001c 0023     		movs	r3, #0
 1162 001e 4361     		str	r3, [r0, #20]
 786:Source\azure_iot_sdk\uamqp\src/session.c ****             result->handle_max = 4294967295u;
 1163              		.loc 1 786 0
 1164 0020 8361     		str	r3, [r0, #24]
 787:Source\azure_iot_sdk\uamqp\src/session.c **** 
 1165              		.loc 1 787 0
 1166 0022 0122     		movs	r2, #1
 1167 0024 5242     		rsbs	r2, r2, #0
 1168 0026 8263     		str	r2, [r0, #56]
 789:Source\azure_iot_sdk\uamqp\src/session.c **** 
 1169              		.loc 1 789 0
 1170 0028 4362     		str	r3, [r0, #36]
 791:Source\azure_iot_sdk\uamqp\src/session.c ****             result->incoming_window = 1;
 1171              		.loc 1 791 0
 1172 002a 0232     		adds	r2, r2, #2
 1173 002c C262     		str	r2, [r0, #44]
 792:Source\azure_iot_sdk\uamqp\src/session.c ****             result->outgoing_window = 1;
 1174              		.loc 1 792 0
 1175 002e 0263     		str	r2, [r0, #48]
 793:Source\azure_iot_sdk\uamqp\src/session.c ****             result->handle_max = 4294967295u;
 1176              		.loc 1 793 0
 1177 0030 4263     		str	r2, [r0, #52]
 795:Source\azure_iot_sdk\uamqp\src/session.c ****             result->remote_outgoing_window = 0;
 1178              		.loc 1 795 0
 1179 0032 C363     		str	r3, [r0, #60]
 796:Source\azure_iot_sdk\uamqp\src/session.c ****             result->previous_session_state = SESSION_STATE_UNMAPPED;
 1180              		.loc 1 796 0
 1181 0034 0364     		str	r3, [r0, #64]
 797:Source\azure_iot_sdk\uamqp\src/session.c ****             result->is_underlying_connection_open = UNDERLYING_CONNECTION_NOT_OPEN;
 1182              		.loc 1 797 0
 1183 0036 4372     		strb	r3, [r0, #9]
 798:Source\azure_iot_sdk\uamqp\src/session.c ****             result->session_state = SESSION_STATE_UNMAPPED;
 1184              		.loc 1 798 0
 1185 0038 4420     		movs	r0, #68
ARM GAS  C:\Users\Phuong\AppData\Local\Temp\ccX7yw2d.s 			page 46


 1186              	.LVL177:
 1187 003a 215C     		ldrb	r1, [r4, r0]
 1188 003c 9143     		bics	r1, r2
 1189 003e 2154     		strb	r1, [r4, r0]
 799:Source\azure_iot_sdk\uamqp\src/session.c ****             result->on_link_attached = on_link_attached;
 1190              		.loc 1 799 0
 1191 0040 2372     		strb	r3, [r4, #8]
 800:Source\azure_iot_sdk\uamqp\src/session.c ****             result->on_link_attached_callback_context = callback_context;
 1192              		.loc 1 800 0
 1193 0042 E661     		str	r6, [r4, #28]
 801:Source\azure_iot_sdk\uamqp\src/session.c **** 
 1194              		.loc 1 801 0
 1195 0044 019B     		ldr	r3, [sp, #4]
 1196 0046 2362     		str	r3, [r4, #32]
 803:Source\azure_iot_sdk\uamqp\src/session.c ****             session_set_state(result, SESSION_STATE_UNMAPPED);
 1197              		.loc 1 803 0
 1198 0048 2561     		str	r5, [r4, #16]
 804:Source\azure_iot_sdk\uamqp\src/session.c ****         }
 1199              		.loc 1 804 0
 1200 004a 0021     		movs	r1, #0
 1201 004c 2000     		movs	r0, r4
 1202 004e FFF7FEFF 		bl	session_set_state
 1203              	.LVL178:
 1204 0052 00E0     		b	.L82
 1205              	.LVL179:
 1206              	.L83:
 777:Source\azure_iot_sdk\uamqp\src/session.c ****     }
 1207              		.loc 1 777 0
 1208 0054 0024     		movs	r4, #0
 1209              	.LVL180:
 1210              	.L82:
 809:Source\azure_iot_sdk\uamqp\src/session.c **** 
 1211              		.loc 1 809 0
 1212 0056 2000     		movs	r0, r4
 1213 0058 03B0     		add	sp, sp, #12
 1214              		@ sp needed
 1215              	.LVL181:
 1216              	.LVL182:
 1217              	.LVL183:
 1218              	.LVL184:
 1219 005a F0BD     		pop	{r4, r5, r6, r7, pc}
 1220              		.cfi_endproc
 1221              	.LFE12:
 1222              		.size	session_create_from_endpoint, .-session_create_from_endpoint
 1223              		.section	.text.session_begin,"ax",%progbits
 1224              		.align	2
 1225              		.global	session_begin
 1226              		.code	16
 1227              		.thumb_func
 1228              		.type	session_begin, %function
 1229              	session_begin:
 1230              	.LFB14:
 833:Source\azure_iot_sdk\uamqp\src/session.c ****     int result;
 1231              		.loc 1 833 0
 1232              		.cfi_startproc
 1233              		@ args = 0, pretend = 0, frame = 0
 1234              		@ frame_needed = 0, uses_anonymous_args = 0
ARM GAS  C:\Users\Phuong\AppData\Local\Temp\ccX7yw2d.s 			page 47


 1235              	.LVL185:
 1236 0000 10B5     		push	{r4, lr}
 1237              		.cfi_def_cfa_offset 8
 1238              		.cfi_offset 4, -8
 1239              		.cfi_offset 14, -4
 1240 0002 041E     		subs	r4, r0, #0
 836:Source\azure_iot_sdk\uamqp\src/session.c ****     {
 1241              		.loc 1 836 0
 1242 0004 1ED0     		beq	.L87
 1243              	.LVL186:
 1244              	.LBB15:
 844:Source\azure_iot_sdk\uamqp\src/session.c ****         {
 1245              		.loc 1 844 0
 1246 0006 0300     		movs	r3, r0
 1247 0008 114A     		ldr	r2, .L90
 1248 000a 1249     		ldr	r1, .L90+4
 1249 000c 0069     		ldr	r0, [r0, #16]
 1250              	.LVL187:
 1251 000e FFF7FEFF 		bl	connection_start_endpoint
 1252              	.LVL188:
 1253 0012 0028     		cmp	r0, #0
 1254 0014 18D1     		bne	.L88
 850:Source\azure_iot_sdk\uamqp\src/session.c ****             {
 1255              		.loc 1 850 0
 1256 0016 4423     		movs	r3, #68
 1257 0018 E35C     		ldrb	r3, [r4, r3]
 1258 001a DB07     		lsls	r3, r3, #31
 1259 001c 16D4     		bmi	.L89
 852:Source\azure_iot_sdk\uamqp\src/session.c ****                 {
 1260              		.loc 1 852 0
 1261 001e E068     		ldr	r0, [r4, #12]
 1262 0020 FFF7FEFF 		bl	connection_open
 1263              	.LVL189:
 1264 0024 0028     		cmp	r0, #0
 1265 0026 06D0     		beq	.L86
 854:Source\azure_iot_sdk\uamqp\src/session.c ****                     result = __FAILURE__;
 1266              		.loc 1 854 0
 1267 0028 4422     		movs	r2, #68
 1268 002a A35C     		ldrb	r3, [r4, r2]
 1269 002c 0121     		movs	r1, #1
 1270 002e 8B43     		bics	r3, r1
 1271 0030 A354     		strb	r3, [r4, r2]
 1272              	.LVL190:
 855:Source\azure_iot_sdk\uamqp\src/session.c ****                 }
 1273              		.loc 1 855 0
 1274 0032 0948     		ldr	r0, .L90+8
 1275 0034 0BE0     		b	.L85
 1276              	.LVL191:
 1277              	.L86:
 859:Source\azure_iot_sdk\uamqp\src/session.c ****                     result = 0;
 1278              		.loc 1 859 0
 1279 0036 4422     		movs	r2, #68
 1280 0038 A15C     		ldrb	r1, [r4, r2]
 1281 003a 0123     		movs	r3, #1
 1282 003c 0B43     		orrs	r3, r1
 1283 003e A354     		strb	r3, [r4, r2]
 1284              	.LVL192:
ARM GAS  C:\Users\Phuong\AppData\Local\Temp\ccX7yw2d.s 			page 48


 860:Source\azure_iot_sdk\uamqp\src/session.c ****                 }
 1285              		.loc 1 860 0
 1286 0040 0020     		movs	r0, #0
 1287 0042 04E0     		b	.L85
 1288              	.LVL193:
 1289              	.L87:
 1290              	.LBE15:
 838:Source\azure_iot_sdk\uamqp\src/session.c ****     }
 1291              		.loc 1 838 0
 1292 0044 0548     		ldr	r0, .L90+12
 1293              	.LVL194:
 1294 0046 02E0     		b	.L85
 1295              	.LVL195:
 1296              	.L88:
 1297              	.LBB16:
 846:Source\azure_iot_sdk\uamqp\src/session.c ****         }
 1298              		.loc 1 846 0
 1299 0048 0548     		ldr	r0, .L90+16
 1300 004a 00E0     		b	.L85
 1301              	.L89:
 865:Source\azure_iot_sdk\uamqp\src/session.c ****             }
 1302              		.loc 1 865 0
 1303 004c 0020     		movs	r0, #0
 1304              	.LVL196:
 1305              	.L85:
 1306              	.LBE16:
 871:Source\azure_iot_sdk\uamqp\src/session.c **** 
 1307              		.loc 1 871 0
 1308              		@ sp needed
 1309              	.LVL197:
 1310 004e 10BD     		pop	{r4, pc}
 1311              	.L91:
 1312              		.align	2
 1313              	.L90:
 1314 0050 00000000 		.word	on_connection_state_changed
 1315 0054 00000000 		.word	on_frame_received
 1316 0058 57030000 		.word	855
 1317 005c 46030000 		.word	838
 1318 0060 4E030000 		.word	846
 1319              		.cfi_endproc
 1320              	.LFE14:
 1321              		.size	session_begin, .-session_begin
 1322              		.section	.text.session_end,"ax",%progbits
 1323              		.align	2
 1324              		.global	session_end
 1325              		.code	16
 1326              		.thumb_func
 1327              		.type	session_end, %function
 1328              	session_end:
 1329              	.LFB15:
 874:Source\azure_iot_sdk\uamqp\src/session.c ****     int result;
 1330              		.loc 1 874 0
 1331              		.cfi_startproc
 1332              		@ args = 0, pretend = 0, frame = 0
 1333              		@ frame_needed = 0, uses_anonymous_args = 0
 1334              	.LVL198:
 1335 0000 F8B5     		push	{r3, r4, r5, r6, r7, lr}
ARM GAS  C:\Users\Phuong\AppData\Local\Temp\ccX7yw2d.s 			page 49


 1336              		.cfi_def_cfa_offset 24
 1337              		.cfi_offset 3, -24
 1338              		.cfi_offset 4, -20
 1339              		.cfi_offset 5, -16
 1340              		.cfi_offset 6, -12
 1341              		.cfi_offset 7, -8
 1342              		.cfi_offset 14, -4
 1343 0002 0500     		movs	r5, r0
 1344 0004 1400     		movs	r4, r2
 877:Source\azure_iot_sdk\uamqp\src/session.c ****     {
 1345              		.loc 1 877 0
 1346 0006 0028     		cmp	r0, #0
 1347 0008 3ED0     		beq	.L99
 1348              	.LVL199:
 1349              	.LBB17:
 886:Source\azure_iot_sdk\uamqp\src/session.c ****             (session_instance->session_state != SESSION_STATE_DISCARDING))
 1350              		.loc 1 886 0
 1351 000a 037A     		ldrb	r3, [r0, #8]
 1352 000c 002B     		cmp	r3, #0
 1353 000e 2AD0     		beq	.L100
 886:Source\azure_iot_sdk\uamqp\src/session.c ****             (session_instance->session_state != SESSION_STATE_DISCARDING))
 1354              		.loc 1 886 0 is_stmt 0 discriminator 1
 1355 0010 062B     		cmp	r3, #6
 1356 0012 2AD0     		beq	.L101
 1357              	.LVL200:
 1358              	.LBB18:
 892:Source\azure_iot_sdk\uamqp\src/session.c ****             {
 1359              		.loc 1 892 0 is_stmt 1
 1360 0014 0029     		cmp	r1, #0
 1361 0016 0BD0     		beq	.L102
 894:Source\azure_iot_sdk\uamqp\src/session.c ****                 if (error_handle == NULL)
 1362              		.loc 1 894 0
 1363 0018 0800     		movs	r0, r1
 1364              	.LVL201:
 1365 001a FFF7FEFF 		bl	error_create
 1366              	.LVL202:
 1367 001e 071E     		subs	r7, r0, #0
 1368              	.LVL203:
 895:Source\azure_iot_sdk\uamqp\src/session.c ****                 {
 1369              		.loc 1 895 0
 1370 0020 09D0     		beq	.L103
 901:Source\azure_iot_sdk\uamqp\src/session.c ****                     {
 1371              		.loc 1 901 0
 1372 0022 2100     		movs	r1, r4
 1373 0024 FFF7FEFF 		bl	error_set_description
 1374              	.LVL204:
 1375 0028 0028     		cmp	r0, #0
 1376 002a 06D1     		bne	.L104
 890:Source\azure_iot_sdk\uamqp\src/session.c **** 
 1377              		.loc 1 890 0
 1378 002c 0026     		movs	r6, #0
 1379 002e 05E0     		b	.L95
 1380              	.LVL205:
 1381              	.L102:
 889:Source\azure_iot_sdk\uamqp\src/session.c ****             result = 0;
 1382              		.loc 1 889 0
 1383 0030 0027     		movs	r7, #0
ARM GAS  C:\Users\Phuong\AppData\Local\Temp\ccX7yw2d.s 			page 50


 890:Source\azure_iot_sdk\uamqp\src/session.c **** 
 1384              		.loc 1 890 0
 1385 0032 0026     		movs	r6, #0
 1386 0034 02E0     		b	.L95
 1387              	.LVL206:
 1388              	.L103:
 897:Source\azure_iot_sdk\uamqp\src/session.c ****                 }
 1389              		.loc 1 897 0
 1390 0036 164E     		ldr	r6, .L106
 1391 0038 00E0     		b	.L95
 1392              	.LVL207:
 1393              	.L104:
 903:Source\azure_iot_sdk\uamqp\src/session.c ****                     }
 1394              		.loc 1 903 0
 1395 003a 164E     		ldr	r6, .L106+4
 1396              	.LVL208:
 1397              	.L95:
 908:Source\azure_iot_sdk\uamqp\src/session.c ****             {
 1398              		.loc 1 908 0
 1399 003c 002E     		cmp	r6, #0
 1400 003e 0CD1     		bne	.L96
 910:Source\azure_iot_sdk\uamqp\src/session.c ****                 {
 1401              		.loc 1 910 0
 1402 0040 3900     		movs	r1, r7
 1403 0042 2800     		movs	r0, r5
 1404 0044 FFF7FEFF 		bl	send_end_frame
 1405              	.LVL209:
 1406 0048 0028     		cmp	r0, #0
 1407 004a 04D1     		bne	.L105
 916:Source\azure_iot_sdk\uamqp\src/session.c ****                     result = 0;
 1408              		.loc 1 916 0
 1409 004c 0621     		movs	r1, #6
 1410 004e 2800     		movs	r0, r5
 1411 0050 FFF7FEFF 		bl	session_set_state
 1412              	.LVL210:
 1413 0054 01E0     		b	.L96
 1414              	.LVL211:
 1415              	.L105:
 912:Source\azure_iot_sdk\uamqp\src/session.c ****                 }
 1416              		.loc 1 912 0
 1417 0056 E426     		movs	r6, #228
 1418              	.LVL212:
 1419 0058 B600     		lsls	r6, r6, #2
 1420              	.L96:
 1421              	.LVL213:
 921:Source\azure_iot_sdk\uamqp\src/session.c ****             {
 1422              		.loc 1 921 0
 1423 005a 002F     		cmp	r7, #0
 1424 005c 06D0     		beq	.L94
 923:Source\azure_iot_sdk\uamqp\src/session.c ****             }
 1425              		.loc 1 923 0
 1426 005e 3800     		movs	r0, r7
 1427 0060 FFF7FEFF 		bl	error_destroy
 1428              	.LVL214:
 1429 0064 02E0     		b	.L94
 1430              	.LVL215:
 1431              	.L100:
ARM GAS  C:\Users\Phuong\AppData\Local\Temp\ccX7yw2d.s 			page 51


 1432              	.LBE18:
 928:Source\azure_iot_sdk\uamqp\src/session.c ****         }
 1433              		.loc 1 928 0
 1434 0066 0026     		movs	r6, #0
 1435 0068 00E0     		b	.L94
 1436              	.L101:
 1437 006a 0026     		movs	r6, #0
 1438              	.LVL216:
 1439              	.L94:
 932:Source\azure_iot_sdk\uamqp\src/session.c ****         {
 1440              		.loc 1 932 0
 1441 006c 0024     		movs	r4, #0
 1442              	.LVL217:
 1443 006e 05E0     		b	.L97
 1444              	.LVL218:
 1445              	.L98:
 934:Source\azure_iot_sdk\uamqp\src/session.c ****         }
 1446              		.loc 1 934 0 discriminator 3
 1447 0070 A300     		lsls	r3, r4, #2
 1448 0072 6A69     		ldr	r2, [r5, #20]
 1449 0074 D058     		ldr	r0, [r2, r3]
 1450 0076 FFF7FEFF 		bl	free_link_endpoint
 1451              	.LVL219:
 932:Source\azure_iot_sdk\uamqp\src/session.c ****         {
 1452              		.loc 1 932 0 discriminator 3
 1453 007a 0134     		adds	r4, r4, #1
 1454              	.LVL220:
 1455              	.L97:
 932:Source\azure_iot_sdk\uamqp\src/session.c ****         {
 1456              		.loc 1 932 0 is_stmt 0 discriminator 1
 1457 007c AB69     		ldr	r3, [r5, #24]
 1458 007e 9C42     		cmp	r4, r3
 1459 0080 F6D3     		bcc	.L98
 937:Source\azure_iot_sdk\uamqp\src/session.c ****     }
 1460              		.loc 1 937 0 is_stmt 1
 1461 0082 0023     		movs	r3, #0
 1462 0084 AB61     		str	r3, [r5, #24]
 1463 0086 00E0     		b	.L93
 1464              	.LVL221:
 1465              	.L99:
 1466              	.LBE17:
 879:Source\azure_iot_sdk\uamqp\src/session.c ****     }
 1467              		.loc 1 879 0
 1468 0088 034E     		ldr	r6, .L106+8
 1469              	.LVL222:
 1470              	.L93:
 941:Source\azure_iot_sdk\uamqp\src/session.c **** 
 1471              		.loc 1 941 0
 1472 008a 3000     		movs	r0, r6
 1473              		@ sp needed
 1474              	.LVL223:
 1475              	.LVL224:
 1476 008c F8BD     		pop	{r3, r4, r5, r6, r7, pc}
 1477              	.L107:
 1478 008e C046     		.align	2
 1479              	.L106:
 1480 0090 81030000 		.word	897
ARM GAS  C:\Users\Phuong\AppData\Local\Temp\ccX7yw2d.s 			page 52


 1481 0094 87030000 		.word	903
 1482 0098 6F030000 		.word	879
 1483              		.cfi_endproc
 1484              	.LFE15:
 1485              		.size	session_end, .-session_end
 1486              		.section	.text.session_destroy,"ax",%progbits
 1487              		.align	2
 1488              		.global	session_destroy
 1489              		.code	16
 1490              		.thumb_func
 1491              		.type	session_destroy, %function
 1492              	session_destroy:
 1493              	.LFB13:
 812:Source\azure_iot_sdk\uamqp\src/session.c ****     /* Codes_S_R_S_SESSION_01_036: [If session is NULL, session_destroy shall do nothing.] */
 1494              		.loc 1 812 0
 1495              		.cfi_startproc
 1496              		@ args = 0, pretend = 0, frame = 0
 1497              		@ frame_needed = 0, uses_anonymous_args = 0
 1498              	.LVL225:
 1499 0000 10B5     		push	{r4, lr}
 1500              		.cfi_def_cfa_offset 8
 1501              		.cfi_offset 4, -8
 1502              		.cfi_offset 14, -4
 1503 0002 041E     		subs	r4, r0, #0
 814:Source\azure_iot_sdk\uamqp\src/session.c ****     {
 1504              		.loc 1 814 0
 1505 0004 0ED0     		beq	.L108
 1506              	.LVL226:
 1507              	.LBB19:
 818:Source\azure_iot_sdk\uamqp\src/session.c **** 
 1508              		.loc 1 818 0
 1509 0006 0022     		movs	r2, #0
 1510 0008 0021     		movs	r1, #0
 1511 000a FFF7FEFF 		bl	session_end
 1512              	.LVL227:
 822:Source\azure_iot_sdk\uamqp\src/session.c ****         if (session_instance->link_endpoints != NULL)
 1513              		.loc 1 822 0
 1514 000e 2069     		ldr	r0, [r4, #16]
 1515 0010 FFF7FEFF 		bl	connection_destroy_endpoint
 1516              	.LVL228:
 823:Source\azure_iot_sdk\uamqp\src/session.c ****         {
 1517              		.loc 1 823 0
 1518 0014 6069     		ldr	r0, [r4, #20]
 1519 0016 0028     		cmp	r0, #0
 1520 0018 01D0     		beq	.L110
 825:Source\azure_iot_sdk\uamqp\src/session.c ****         }
 1521              		.loc 1 825 0
 1522 001a FFF7FEFF 		bl	free
 1523              	.LVL229:
 1524              	.L110:
 828:Source\azure_iot_sdk\uamqp\src/session.c ****     }
 1525              		.loc 1 828 0
 1526 001e 2000     		movs	r0, r4
 1527 0020 FFF7FEFF 		bl	free
 1528              	.LVL230:
 1529              	.L108:
 1530              	.LBE19:
ARM GAS  C:\Users\Phuong\AppData\Local\Temp\ccX7yw2d.s 			page 53


 830:Source\azure_iot_sdk\uamqp\src/session.c **** 
 1531              		.loc 1 830 0
 1532              		@ sp needed
 1533              	.LVL231:
 1534 0024 10BD     		pop	{r4, pc}
 1535              		.cfi_endproc
 1536              	.LFE13:
 1537              		.size	session_destroy, .-session_destroy
 1538 0026 C046     		.section	.text.session_set_incoming_window,"ax",%progbits
 1539              		.align	2
 1540              		.global	session_set_incoming_window
 1541              		.code	16
 1542              		.thumb_func
 1543              		.type	session_set_incoming_window, %function
 1544              	session_set_incoming_window:
 1545              	.LFB16:
 944:Source\azure_iot_sdk\uamqp\src/session.c ****     int result;
 1546              		.loc 1 944 0
 1547              		.cfi_startproc
 1548              		@ args = 0, pretend = 0, frame = 0
 1549              		@ frame_needed = 0, uses_anonymous_args = 0
 1550              		@ link register save eliminated.
 1551              	.LVL232:
 947:Source\azure_iot_sdk\uamqp\src/session.c ****     {
 1552              		.loc 1 947 0
 1553 0000 0028     		cmp	r0, #0
 1554 0002 03D0     		beq	.L113
 1555              	.LVL233:
 1556              	.LBB20:
 955:Source\azure_iot_sdk\uamqp\src/session.c ****         session_instance->incoming_window = incoming_window;
 1557              		.loc 1 955 0
 1558 0004 C162     		str	r1, [r0, #44]
 956:Source\azure_iot_sdk\uamqp\src/session.c **** 
 1559              		.loc 1 956 0
 1560 0006 0163     		str	r1, [r0, #48]
 1561              	.LVL234:
 958:Source\azure_iot_sdk\uamqp\src/session.c ****     }
 1562              		.loc 1 958 0
 1563 0008 0020     		movs	r0, #0
 1564              	.LVL235:
 1565 000a 00E0     		b	.L112
 1566              	.LVL236:
 1567              	.L113:
 1568              	.LBE20:
 949:Source\azure_iot_sdk\uamqp\src/session.c ****     }
 1569              		.loc 1 949 0
 1570 000c 0048     		ldr	r0, .L114
 1571              	.LVL237:
 1572              	.L112:
 962:Source\azure_iot_sdk\uamqp\src/session.c **** 
 1573              		.loc 1 962 0
 1574              		@ sp needed
 1575 000e 7047     		bx	lr
 1576              	.L115:
 1577              		.align	2
 1578              	.L114:
 1579 0010 B5030000 		.word	949
ARM GAS  C:\Users\Phuong\AppData\Local\Temp\ccX7yw2d.s 			page 54


 1580              		.cfi_endproc
 1581              	.LFE16:
 1582              		.size	session_set_incoming_window, .-session_set_incoming_window
 1583              		.section	.text.session_get_incoming_window,"ax",%progbits
 1584              		.align	2
 1585              		.global	session_get_incoming_window
 1586              		.code	16
 1587              		.thumb_func
 1588              		.type	session_get_incoming_window, %function
 1589              	session_get_incoming_window:
 1590              	.LFB17:
 965:Source\azure_iot_sdk\uamqp\src/session.c ****     int result;
 1591              		.loc 1 965 0
 1592              		.cfi_startproc
 1593              		@ args = 0, pretend = 0, frame = 0
 1594              		@ frame_needed = 0, uses_anonymous_args = 0
 1595              		@ link register save eliminated.
 1596              	.LVL238:
 968:Source\azure_iot_sdk\uamqp\src/session.c ****         (incoming_window == NULL))
 1597              		.loc 1 968 0
 1598 0000 0028     		cmp	r0, #0
 1599 0002 05D0     		beq	.L118
 968:Source\azure_iot_sdk\uamqp\src/session.c ****         (incoming_window == NULL))
 1600              		.loc 1 968 0 is_stmt 0 discriminator 1
 1601 0004 0029     		cmp	r1, #0
 1602 0006 05D0     		beq	.L119
 1603              	.LVL239:
 1604              	.LBB21:
 977:Source\azure_iot_sdk\uamqp\src/session.c **** 
 1605              		.loc 1 977 0 is_stmt 1
 1606 0008 036B     		ldr	r3, [r0, #48]
 1607 000a 0B60     		str	r3, [r1]
 1608              	.LVL240:
 979:Source\azure_iot_sdk\uamqp\src/session.c ****     }
 1609              		.loc 1 979 0
 1610 000c 0020     		movs	r0, #0
 1611              	.LVL241:
 1612 000e 02E0     		b	.L117
 1613              	.LVL242:
 1614              	.L118:
 1615              	.LBE21:
 971:Source\azure_iot_sdk\uamqp\src/session.c ****     }
 1616              		.loc 1 971 0
 1617 0010 0148     		ldr	r0, .L120
 1618              	.LVL243:
 1619 0012 00E0     		b	.L117
 1620              	.LVL244:
 1621              	.L119:
 1622 0014 0048     		ldr	r0, .L120
 1623              	.LVL245:
 1624              	.L117:
 983:Source\azure_iot_sdk\uamqp\src/session.c **** 
 1625              		.loc 1 983 0
 1626              		@ sp needed
 1627 0016 7047     		bx	lr
 1628              	.L121:
 1629              		.align	2
ARM GAS  C:\Users\Phuong\AppData\Local\Temp\ccX7yw2d.s 			page 55


 1630              	.L120:
 1631 0018 CB030000 		.word	971
 1632              		.cfi_endproc
 1633              	.LFE17:
 1634              		.size	session_get_incoming_window, .-session_get_incoming_window
 1635              		.section	.text.session_set_outgoing_window,"ax",%progbits
 1636              		.align	2
 1637              		.global	session_set_outgoing_window
 1638              		.code	16
 1639              		.thumb_func
 1640              		.type	session_set_outgoing_window, %function
 1641              	session_set_outgoing_window:
 1642              	.LFB18:
 986:Source\azure_iot_sdk\uamqp\src/session.c ****     int result;
 1643              		.loc 1 986 0
 1644              		.cfi_startproc
 1645              		@ args = 0, pretend = 0, frame = 0
 1646              		@ frame_needed = 0, uses_anonymous_args = 0
 1647              		@ link register save eliminated.
 1648              	.LVL246:
 989:Source\azure_iot_sdk\uamqp\src/session.c ****     {
 1649              		.loc 1 989 0
 1650 0000 0028     		cmp	r0, #0
 1651 0002 02D0     		beq	.L124
 1652              	.LVL247:
 1653              	.LBB22:
 997:Source\azure_iot_sdk\uamqp\src/session.c **** 
 1654              		.loc 1 997 0
 1655 0004 4163     		str	r1, [r0, #52]
 1656              	.LVL248:
 999:Source\azure_iot_sdk\uamqp\src/session.c ****     }
 1657              		.loc 1 999 0
 1658 0006 0020     		movs	r0, #0
 1659              	.LVL249:
 1660 0008 00E0     		b	.L123
 1661              	.LVL250:
 1662              	.L124:
 1663              	.LBE22:
 991:Source\azure_iot_sdk\uamqp\src/session.c ****     }
 1664              		.loc 1 991 0
 1665 000a 0148     		ldr	r0, .L125
 1666              	.LVL251:
 1667              	.L123:
1003:Source\azure_iot_sdk\uamqp\src/session.c **** 
 1668              		.loc 1 1003 0
 1669              		@ sp needed
 1670 000c 7047     		bx	lr
 1671              	.L126:
 1672 000e C046     		.align	2
 1673              	.L125:
 1674 0010 DF030000 		.word	991
 1675              		.cfi_endproc
 1676              	.LFE18:
 1677              		.size	session_set_outgoing_window, .-session_set_outgoing_window
 1678              		.section	.text.session_get_outgoing_window,"ax",%progbits
 1679              		.align	2
 1680              		.global	session_get_outgoing_window
ARM GAS  C:\Users\Phuong\AppData\Local\Temp\ccX7yw2d.s 			page 56


 1681              		.code	16
 1682              		.thumb_func
 1683              		.type	session_get_outgoing_window, %function
 1684              	session_get_outgoing_window:
 1685              	.LFB19:
1006:Source\azure_iot_sdk\uamqp\src/session.c ****     int result;
 1686              		.loc 1 1006 0
 1687              		.cfi_startproc
 1688              		@ args = 0, pretend = 0, frame = 0
 1689              		@ frame_needed = 0, uses_anonymous_args = 0
 1690              		@ link register save eliminated.
 1691              	.LVL252:
1009:Source\azure_iot_sdk\uamqp\src/session.c ****         (outgoing_window == NULL))
 1692              		.loc 1 1009 0
 1693 0000 0028     		cmp	r0, #0
 1694 0002 05D0     		beq	.L129
1009:Source\azure_iot_sdk\uamqp\src/session.c ****         (outgoing_window == NULL))
 1695              		.loc 1 1009 0 is_stmt 0 discriminator 1
 1696 0004 0029     		cmp	r1, #0
 1697 0006 06D0     		beq	.L130
 1698              	.LVL253:
 1699              	.LBB23:
1018:Source\azure_iot_sdk\uamqp\src/session.c **** 
 1700              		.loc 1 1018 0 is_stmt 1
 1701 0008 436B     		ldr	r3, [r0, #52]
 1702 000a 0B60     		str	r3, [r1]
 1703              	.LVL254:
1020:Source\azure_iot_sdk\uamqp\src/session.c ****     }
 1704              		.loc 1 1020 0
 1705 000c 0020     		movs	r0, #0
 1706              	.LVL255:
 1707 000e 04E0     		b	.L128
 1708              	.LVL256:
 1709              	.L129:
 1710              	.LBE23:
1012:Source\azure_iot_sdk\uamqp\src/session.c ****     }
 1711              		.loc 1 1012 0
 1712 0010 FD20     		movs	r0, #253
 1713              	.LVL257:
 1714 0012 8000     		lsls	r0, r0, #2
 1715 0014 01E0     		b	.L128
 1716              	.LVL258:
 1717              	.L130:
 1718 0016 FD20     		movs	r0, #253
 1719              	.LVL259:
 1720 0018 8000     		lsls	r0, r0, #2
 1721              	.L128:
 1722              	.LVL260:
1024:Source\azure_iot_sdk\uamqp\src/session.c **** 
 1723              		.loc 1 1024 0
 1724              		@ sp needed
 1725 001a 7047     		bx	lr
 1726              		.cfi_endproc
 1727              	.LFE19:
 1728              		.size	session_get_outgoing_window, .-session_get_outgoing_window
 1729              		.section	.text.session_set_handle_max,"ax",%progbits
 1730              		.align	2
ARM GAS  C:\Users\Phuong\AppData\Local\Temp\ccX7yw2d.s 			page 57


 1731              		.global	session_set_handle_max
 1732              		.code	16
 1733              		.thumb_func
 1734              		.type	session_set_handle_max, %function
 1735              	session_set_handle_max:
 1736              	.LFB20:
1027:Source\azure_iot_sdk\uamqp\src/session.c ****     int result;
 1737              		.loc 1 1027 0
 1738              		.cfi_startproc
 1739              		@ args = 0, pretend = 0, frame = 0
 1740              		@ frame_needed = 0, uses_anonymous_args = 0
 1741              		@ link register save eliminated.
 1742              	.LVL261:
1030:Source\azure_iot_sdk\uamqp\src/session.c ****     {
 1743              		.loc 1 1030 0
 1744 0000 0028     		cmp	r0, #0
 1745 0002 02D0     		beq	.L133
 1746              	.LVL262:
 1747              	.LBB24:
1038:Source\azure_iot_sdk\uamqp\src/session.c **** 
 1748              		.loc 1 1038 0
 1749 0004 8163     		str	r1, [r0, #56]
 1750              	.LVL263:
1040:Source\azure_iot_sdk\uamqp\src/session.c ****     }
 1751              		.loc 1 1040 0
 1752 0006 0020     		movs	r0, #0
 1753              	.LVL264:
 1754 0008 01E0     		b	.L132
 1755              	.LVL265:
 1756              	.L133:
 1757              	.LBE24:
1032:Source\azure_iot_sdk\uamqp\src/session.c ****     }
 1758              		.loc 1 1032 0
 1759 000a 8120     		movs	r0, #129
 1760              	.LVL266:
 1761 000c C000     		lsls	r0, r0, #3
 1762              	.L132:
 1763              	.LVL267:
1044:Source\azure_iot_sdk\uamqp\src/session.c **** 
 1764              		.loc 1 1044 0
 1765              		@ sp needed
 1766 000e 7047     		bx	lr
 1767              		.cfi_endproc
 1768              	.LFE20:
 1769              		.size	session_set_handle_max, .-session_set_handle_max
 1770              		.section	.text.session_get_handle_max,"ax",%progbits
 1771              		.align	2
 1772              		.global	session_get_handle_max
 1773              		.code	16
 1774              		.thumb_func
 1775              		.type	session_get_handle_max, %function
 1776              	session_get_handle_max:
 1777              	.LFB21:
1047:Source\azure_iot_sdk\uamqp\src/session.c ****     int result;
 1778              		.loc 1 1047 0
 1779              		.cfi_startproc
 1780              		@ args = 0, pretend = 0, frame = 0
ARM GAS  C:\Users\Phuong\AppData\Local\Temp\ccX7yw2d.s 			page 58


 1781              		@ frame_needed = 0, uses_anonymous_args = 0
 1782              		@ link register save eliminated.
 1783              	.LVL268:
1050:Source\azure_iot_sdk\uamqp\src/session.c ****         (handle_max == NULL))
 1784              		.loc 1 1050 0
 1785 0000 0028     		cmp	r0, #0
 1786 0002 05D0     		beq	.L136
1050:Source\azure_iot_sdk\uamqp\src/session.c ****         (handle_max == NULL))
 1787              		.loc 1 1050 0 is_stmt 0 discriminator 1
 1788 0004 0029     		cmp	r1, #0
 1789 0006 05D0     		beq	.L137
 1790              	.LVL269:
 1791              	.LBB25:
1059:Source\azure_iot_sdk\uamqp\src/session.c **** 
 1792              		.loc 1 1059 0 is_stmt 1
 1793 0008 836B     		ldr	r3, [r0, #56]
 1794 000a 0B60     		str	r3, [r1]
 1795              	.LVL270:
1061:Source\azure_iot_sdk\uamqp\src/session.c ****     }
 1796              		.loc 1 1061 0
 1797 000c 0020     		movs	r0, #0
 1798              	.LVL271:
 1799 000e 02E0     		b	.L135
 1800              	.LVL272:
 1801              	.L136:
 1802              	.LBE25:
1053:Source\azure_iot_sdk\uamqp\src/session.c ****     }
 1803              		.loc 1 1053 0
 1804 0010 0148     		ldr	r0, .L138
 1805              	.LVL273:
 1806 0012 00E0     		b	.L135
 1807              	.LVL274:
 1808              	.L137:
 1809 0014 0048     		ldr	r0, .L138
 1810              	.LVL275:
 1811              	.L135:
1065:Source\azure_iot_sdk\uamqp\src/session.c **** 
 1812              		.loc 1 1065 0
 1813              		@ sp needed
 1814 0016 7047     		bx	lr
 1815              	.L139:
 1816              		.align	2
 1817              	.L138:
 1818 0018 1D040000 		.word	1053
 1819              		.cfi_endproc
 1820              	.LFE21:
 1821              		.size	session_get_handle_max, .-session_get_handle_max
 1822              		.section	.text.session_create_link_endpoint,"ax",%progbits
 1823              		.align	2
 1824              		.global	session_create_link_endpoint
 1825              		.code	16
 1826              		.thumb_func
 1827              		.type	session_create_link_endpoint, %function
 1828              	session_create_link_endpoint:
 1829              	.LFB22:
1068:Source\azure_iot_sdk\uamqp\src/session.c ****     LINK_ENDPOINT_INSTANCE* result;
 1830              		.loc 1 1068 0
ARM GAS  C:\Users\Phuong\AppData\Local\Temp\ccX7yw2d.s 			page 59


 1831              		.cfi_startproc
 1832              		@ args = 0, pretend = 0, frame = 8
 1833              		@ frame_needed = 0, uses_anonymous_args = 0
 1834              	.LVL276:
 1835 0000 F0B5     		push	{r4, r5, r6, r7, lr}
 1836              		.cfi_def_cfa_offset 20
 1837              		.cfi_offset 4, -20
 1838              		.cfi_offset 5, -16
 1839              		.cfi_offset 6, -12
 1840              		.cfi_offset 7, -8
 1841              		.cfi_offset 14, -4
 1842 0002 83B0     		sub	sp, sp, #12
 1843              		.cfi_def_cfa_offset 32
 1844 0004 0500     		movs	r5, r0
 1845 0006 0E00     		movs	r6, r1
1072:Source\azure_iot_sdk\uamqp\src/session.c ****         (name == NULL))
 1846              		.loc 1 1072 0
 1847 0008 0028     		cmp	r0, #0
 1848 000a 5AD0     		beq	.L148
1072:Source\azure_iot_sdk\uamqp\src/session.c ****         (name == NULL))
 1849              		.loc 1 1072 0 is_stmt 0 discriminator 1
 1850 000c 0029     		cmp	r1, #0
 1851 000e 5AD0     		beq	.L149
 1852              	.LVL277:
 1853              	.LBB26:
1082:Source\azure_iot_sdk\uamqp\src/session.c ****         /* Codes_S_R_S_SESSION_01_045: [If allocating memory for the link endpoint fails, session_c
 1854              		.loc 1 1082 0 is_stmt 1
 1855 0010 2420     		movs	r0, #36
 1856              	.LVL278:
 1857 0012 FFF7FEFF 		bl	malloc
 1858              	.LVL279:
 1859 0016 071E     		subs	r7, r0, #0
 1860              	.LVL280:
1084:Source\azure_iot_sdk\uamqp\src/session.c ****         {
 1861              		.loc 1 1084 0
 1862 0018 09D1     		bne	.L150
 1863              	.LBB27:
 1864              	.LBB28:
 1865 001a 55E0     		b	.L141
 1866              	.LVL281:
 1867              	.L144:
 1868              	.LBE28:
1093:Source\azure_iot_sdk\uamqp\src/session.c ****                 {
 1869              		.loc 1 1093 0
 1870 001c 9A00     		lsls	r2, r3, #2
 1871 001e 6969     		ldr	r1, [r5, #20]
 1872 0020 5258     		ldr	r2, [r2, r1]
 1873 0022 9268     		ldr	r2, [r2, #8]
 1874 0024 9442     		cmp	r4, r2
 1875 0026 07D3     		bcc	.L143
1098:Source\azure_iot_sdk\uamqp\src/session.c ****             }
 1876              		.loc 1 1098 0 discriminator 2
 1877 0028 0134     		adds	r4, r4, #1
 1878              	.LVL282:
1091:Source\azure_iot_sdk\uamqp\src/session.c ****             {
 1879              		.loc 1 1091 0 discriminator 2
 1880 002a 0133     		adds	r3, r3, #1
ARM GAS  C:\Users\Phuong\AppData\Local\Temp\ccX7yw2d.s 			page 60


 1881              	.LVL283:
 1882 002c 01E0     		b	.L142
 1883              	.LVL284:
 1884              	.L150:
 1885              	.LBE27:
 1886 002e 0023     		movs	r3, #0
 1887 0030 0024     		movs	r4, #0
 1888              	.L142:
 1889              	.LVL285:
 1890              	.LBB30:
1091:Source\azure_iot_sdk\uamqp\src/session.c ****             {
 1891              		.loc 1 1091 0 is_stmt 0 discriminator 1
 1892 0032 AA69     		ldr	r2, [r5, #24]
 1893 0034 9342     		cmp	r3, r2
 1894 0036 F1D3     		bcc	.L144
 1895              	.L143:
1101:Source\azure_iot_sdk\uamqp\src/session.c ****             result->on_session_flow_on = NULL;
 1896              		.loc 1 1101 0 is_stmt 1
 1897 0038 0023     		movs	r3, #0
 1898              	.LVL286:
 1899 003a 3B61     		str	r3, [r7, #16]
1102:Source\azure_iot_sdk\uamqp\src/session.c ****             result->frame_received_callback = NULL;
 1900              		.loc 1 1102 0
 1901 003c 7B61     		str	r3, [r7, #20]
1103:Source\azure_iot_sdk\uamqp\src/session.c ****             result->callback_context = NULL;
 1902              		.loc 1 1103 0
 1903 003e FB60     		str	r3, [r7, #12]
1104:Source\azure_iot_sdk\uamqp\src/session.c ****             result->output_handle = selected_handle;
 1904              		.loc 1 1104 0
 1905 0040 BB61     		str	r3, [r7, #24]
1105:Source\azure_iot_sdk\uamqp\src/session.c ****             result->input_handle = 0xFFFFFFFF;
 1906              		.loc 1 1105 0
 1907 0042 BC60     		str	r4, [r7, #8]
1106:Source\azure_iot_sdk\uamqp\src/session.c ****             result->link_endpoint_state = LINK_ENDPOINT_STATE_NOT_ATTACHED;
 1908              		.loc 1 1106 0
 1909 0044 0122     		movs	r2, #1
 1910 0046 5242     		rsbs	r2, r2, #0
 1911 0048 7A60     		str	r2, [r7, #4]
1107:Source\azure_iot_sdk\uamqp\src/session.c ****             name_length = strlen(name);
 1912              		.loc 1 1107 0
 1913 004a 2132     		adds	r2, r2, #33
 1914 004c BB54     		strb	r3, [r7, r2]
1108:Source\azure_iot_sdk\uamqp\src/session.c ****             result->name = (char*)malloc(name_length + 1);
 1915              		.loc 1 1108 0
 1916 004e 3000     		movs	r0, r6
 1917              	.LVL287:
 1918 0050 FFF7FEFF 		bl	strlen
 1919              	.LVL288:
1109:Source\azure_iot_sdk\uamqp\src/session.c ****             if (result->name == NULL)
 1920              		.loc 1 1109 0
 1921 0054 431C     		adds	r3, r0, #1
 1922 0056 0193     		str	r3, [sp, #4]
 1923 0058 1800     		movs	r0, r3
 1924              	.LVL289:
 1925 005a FFF7FEFF 		bl	malloc
 1926              	.LVL290:
 1927 005e 3860     		str	r0, [r7]
ARM GAS  C:\Users\Phuong\AppData\Local\Temp\ccX7yw2d.s 			page 61


1110:Source\azure_iot_sdk\uamqp\src/session.c ****             {
 1928              		.loc 1 1110 0
 1929 0060 0028     		cmp	r0, #0
 1930 0062 04D1     		bne	.L145
1113:Source\azure_iot_sdk\uamqp\src/session.c ****                 result = NULL;
 1931              		.loc 1 1113 0
 1932 0064 3800     		movs	r0, r7
 1933 0066 FFF7FEFF 		bl	free
 1934              	.LVL291:
1114:Source\azure_iot_sdk\uamqp\src/session.c ****             }
 1935              		.loc 1 1114 0
 1936 006a 0027     		movs	r7, #0
 1937 006c 2CE0     		b	.L141
 1938              	.LVL292:
 1939              	.L145:
 1940              	.LBB29:
1119:Source\azure_iot_sdk\uamqp\src/session.c ****                 result->session = session;
 1941              		.loc 1 1119 0
 1942 006e 019A     		ldr	r2, [sp, #4]
 1943 0070 3100     		movs	r1, r6
 1944 0072 FFF7FEFF 		bl	memcpy
 1945              	.LVL293:
1120:Source\azure_iot_sdk\uamqp\src/session.c **** 
 1946              		.loc 1 1120 0
 1947 0076 FD61     		str	r5, [r7, #28]
1122:Source\azure_iot_sdk\uamqp\src/session.c ****                 if (new_link_endpoints == NULL)
 1948              		.loc 1 1122 0
 1949 0078 AB69     		ldr	r3, [r5, #24]
 1950 007a 591C     		adds	r1, r3, #1
 1951 007c 8900     		lsls	r1, r1, #2
 1952 007e 6869     		ldr	r0, [r5, #20]
 1953 0080 FFF7FEFF 		bl	realloc
 1954              	.LVL294:
1123:Source\azure_iot_sdk\uamqp\src/session.c ****                 {
 1955              		.loc 1 1123 0
 1956 0084 0028     		cmp	r0, #0
 1957 0086 07D1     		bne	.L146
1126:Source\azure_iot_sdk\uamqp\src/session.c ****                     free(result);
 1958              		.loc 1 1126 0
 1959 0088 3868     		ldr	r0, [r7]
 1960              	.LVL295:
 1961 008a FFF7FEFF 		bl	free
 1962              	.LVL296:
1127:Source\azure_iot_sdk\uamqp\src/session.c ****                     result = NULL;
 1963              		.loc 1 1127 0
 1964 008e 3800     		movs	r0, r7
 1965 0090 FFF7FEFF 		bl	free
 1966              	.LVL297:
1128:Source\azure_iot_sdk\uamqp\src/session.c ****                 }
 1967              		.loc 1 1128 0
 1968 0094 0027     		movs	r7, #0
 1969 0096 17E0     		b	.L141
 1970              	.LVL298:
 1971              	.L146:
1132:Source\azure_iot_sdk\uamqp\src/session.c **** 
 1972              		.loc 1 1132 0
 1973 0098 6861     		str	r0, [r5, #20]
ARM GAS  C:\Users\Phuong\AppData\Local\Temp\ccX7yw2d.s 			page 62


1134:Source\azure_iot_sdk\uamqp\src/session.c ****                     {
 1974              		.loc 1 1134 0
 1975 009a AA69     		ldr	r2, [r5, #24]
 1976 009c 9442     		cmp	r4, r2
 1977 009e 09D0     		beq	.L147
1136:Source\azure_iot_sdk\uamqp\src/session.c ****                     }
 1978              		.loc 1 1136 0
 1979 00a0 631C     		adds	r3, r4, #1
 1980 00a2 9B00     		lsls	r3, r3, #2
 1981 00a4 C318     		adds	r3, r0, r3
 1982 00a6 A100     		lsls	r1, r4, #2
 1983 00a8 4118     		adds	r1, r0, r1
 1984 00aa 121B     		subs	r2, r2, r4
 1985 00ac 9200     		lsls	r2, r2, #2
 1986 00ae 1800     		movs	r0, r3
 1987              	.LVL299:
 1988 00b0 FFF7FEFF 		bl	memmove
 1989              	.LVL300:
 1990              	.L147:
1139:Source\azure_iot_sdk\uamqp\src/session.c ****                     session_instance->link_endpoint_count++;
 1991              		.loc 1 1139 0
 1992 00b4 A400     		lsls	r4, r4, #2
 1993              	.LVL301:
 1994 00b6 6B69     		ldr	r3, [r5, #20]
 1995 00b8 1F51     		str	r7, [r3, r4]
1140:Source\azure_iot_sdk\uamqp\src/session.c ****                 }
 1996              		.loc 1 1140 0
 1997 00ba AB69     		ldr	r3, [r5, #24]
 1998 00bc 0133     		adds	r3, r3, #1
 1999 00be AB61     		str	r3, [r5, #24]
 2000 00c0 02E0     		b	.L141
 2001              	.LVL302:
 2002              	.L148:
 2003              	.LBE29:
 2004              	.LBE30:
 2005              	.LBE26:
1075:Source\azure_iot_sdk\uamqp\src/session.c ****     }
 2006              		.loc 1 1075 0
 2007 00c2 0027     		movs	r7, #0
 2008 00c4 00E0     		b	.L141
 2009              	.L149:
 2010 00c6 0027     		movs	r7, #0
 2011              	.LVL303:
 2012              	.L141:
1147:Source\azure_iot_sdk\uamqp\src/session.c **** 
 2013              		.loc 1 1147 0
 2014 00c8 3800     		movs	r0, r7
 2015 00ca 03B0     		add	sp, sp, #12
 2016              		@ sp needed
 2017              	.LVL304:
 2018              	.LVL305:
 2019              	.LVL306:
 2020 00cc F0BD     		pop	{r4, r5, r6, r7, pc}
 2021              		.cfi_endproc
 2022              	.LFE22:
 2023              		.size	session_create_link_endpoint, .-session_create_link_endpoint
 2024 00ce C046     		.section	.text.on_frame_received,"ax",%progbits
ARM GAS  C:\Users\Phuong\AppData\Local\Temp\ccX7yw2d.s 			page 63


 2025              		.align	2
 2026              		.code	16
 2027              		.thumb_func
 2028              		.type	on_frame_received, %function
 2029              	on_frame_received:
 2030              	.LFB10:
 381:Source\azure_iot_sdk\uamqp\src/session.c ****     SESSION_INSTANCE* session_instance = (SESSION_INSTANCE*)context;
 2031              		.loc 1 381 0
 2032              		.cfi_startproc
 2033              		@ args = 0, pretend = 0, frame = 32
 2034              		@ frame_needed = 0, uses_anonymous_args = 0
 2035              	.LVL307:
 2036 0000 F0B5     		push	{r4, r5, r6, r7, lr}
 2037              		.cfi_def_cfa_offset 20
 2038              		.cfi_offset 4, -20
 2039              		.cfi_offset 5, -16
 2040              		.cfi_offset 6, -12
 2041              		.cfi_offset 7, -8
 2042              		.cfi_offset 14, -4
 2043 0002 4F46     		mov	r7, r9
 2044 0004 80B4     		push	{r7}
 2045              		.cfi_def_cfa_offset 24
 2046              		.cfi_offset 9, -24
 2047 0006 8AB0     		sub	sp, sp, #40
 2048              		.cfi_def_cfa_offset 64
 2049 0008 0600     		movs	r6, r0
 2050 000a 0C00     		movs	r4, r1
 2051 000c 0392     		str	r2, [sp, #12]
 2052 000e 1F00     		movs	r7, r3
 2053              	.LVL308:
 383:Source\azure_iot_sdk\uamqp\src/session.c **** 
 2054              		.loc 1 383 0
 2055 0010 0800     		movs	r0, r1
 2056              	.LVL309:
 2057 0012 FFF7FEFF 		bl	amqpvalue_get_inplace_descriptor
 2058              	.LVL310:
 2059 0016 0500     		movs	r5, r0
 2060              	.LVL311:
 385:Source\azure_iot_sdk\uamqp\src/session.c ****     {
 2061              		.loc 1 385 0
 2062 0018 FFF7FEFF 		bl	is_begin_type_by_descriptor
 2063              	.LVL312:
 2064 001c 0028     		cmp	r0, #0
 2065 001e 4FD0     		beq	.L152
 2066              	.LBB31:
 389:Source\azure_iot_sdk\uamqp\src/session.c ****         {
 2067              		.loc 1 389 0
 2068 0020 09A9     		add	r1, sp, #36
 2069 0022 2000     		movs	r0, r4
 2070 0024 FFF7FEFF 		bl	amqpvalue_get_begin
 2071              	.LVL313:
 2072 0028 0028     		cmp	r0, #0
 2073 002a 06D0     		beq	.L153
 391:Source\azure_iot_sdk\uamqp\src/session.c ****         }
 2074              		.loc 1 391 0
 2075 002c F068     		ldr	r0, [r6, #12]
 2076 002e 0023     		movs	r3, #0
ARM GAS  C:\Users\Phuong\AppData\Local\Temp\ccX7yw2d.s 			page 64


 2077 0030 C84A     		ldr	r2, .L209
 2078 0032 C949     		ldr	r1, .L209+4
 2079 0034 FFF7FEFF 		bl	connection_close
 2080              	.LVL314:
 2081 0038 41E2     		b	.L151
 2082              	.L153:
 395:Source\azure_iot_sdk\uamqp\src/session.c ****                 (begin_get_next_outgoing_id(begin_handle, &session_instance->next_incoming_id) != 0
 2083              		.loc 1 395 0
 2084 003a 3100     		movs	r1, r6
 2085 003c 3C31     		adds	r1, r1, #60
 2086 003e 0998     		ldr	r0, [sp, #36]
 2087 0040 FFF7FEFF 		bl	begin_get_incoming_window
 2088              	.LVL315:
 2089 0044 0028     		cmp	r0, #0
 2090 0046 06D1     		bne	.L155
 396:Source\azure_iot_sdk\uamqp\src/session.c ****             {
 2091              		.loc 1 396 0 discriminator 1
 2092 0048 3100     		movs	r1, r6
 2093 004a 2831     		adds	r1, r1, #40
 2094 004c 0998     		ldr	r0, [sp, #36]
 2095 004e FFF7FEFF 		bl	begin_get_next_outgoing_id
 2096              	.LVL316:
 395:Source\azure_iot_sdk\uamqp\src/session.c ****                 (begin_get_next_outgoing_id(begin_handle, &session_instance->next_incoming_id) != 0
 2097              		.loc 1 395 0 discriminator 1
 2098 0052 0028     		cmp	r0, #0
 2099 0054 0DD0     		beq	.L156
 2100              	.L155:
 399:Source\azure_iot_sdk\uamqp\src/session.c ****                 session_set_state(session_instance, SESSION_STATE_DISCARDING);
 2101              		.loc 1 399 0
 2102 0056 0998     		ldr	r0, [sp, #36]
 2103 0058 FFF7FEFF 		bl	begin_destroy
 2104              	.LVL317:
 400:Source\azure_iot_sdk\uamqp\src/session.c ****                 connection_close(session_instance->connection, "amqp:decode-error", "Cannot get inc
 2105              		.loc 1 400 0
 2106 005c 0621     		movs	r1, #6
 2107 005e 3000     		movs	r0, r6
 2108 0060 FFF7FEFF 		bl	session_set_state
 2109              	.LVL318:
 401:Source\azure_iot_sdk\uamqp\src/session.c ****             }
 2110              		.loc 1 401 0
 2111 0064 F068     		ldr	r0, [r6, #12]
 2112 0066 0023     		movs	r3, #0
 2113 0068 BC4A     		ldr	r2, .L209+8
 2114 006a BB49     		ldr	r1, .L209+4
 2115 006c FFF7FEFF 		bl	connection_close
 2116              	.LVL319:
 2117 0070 25E2     		b	.L151
 2118              	.L156:
 405:Source\azure_iot_sdk\uamqp\src/session.c **** 
 2119              		.loc 1 405 0
 2120 0072 0998     		ldr	r0, [sp, #36]
 2121 0074 FFF7FEFF 		bl	begin_destroy
 2122              	.LVL320:
 407:Source\azure_iot_sdk\uamqp\src/session.c ****                 {
 2123              		.loc 1 407 0
 2124 0078 337A     		ldrb	r3, [r6, #8]
 2125 007a 012B     		cmp	r3, #1
ARM GAS  C:\Users\Phuong\AppData\Local\Temp\ccX7yw2d.s 			page 65


 2126 007c 04D1     		bne	.L157
 409:Source\azure_iot_sdk\uamqp\src/session.c ****                 }
 2127              		.loc 1 409 0
 2128 007e 0321     		movs	r1, #3
 2129 0080 3000     		movs	r0, r6
 2130 0082 FFF7FEFF 		bl	session_set_state
 2131              	.LVL321:
 2132 0086 1AE2     		b	.L151
 2133              	.L157:
 411:Source\azure_iot_sdk\uamqp\src/session.c ****                 {
 2134              		.loc 1 411 0
 2135 0088 002B     		cmp	r3, #0
 2136 008a 00D0     		beq	.LCB2234
 2137 008c 17E2     		b	.L151	@long jump
 2138              	.LCB2234:
 413:Source\azure_iot_sdk\uamqp\src/session.c ****                     if (send_begin(session_instance) != 0)
 2139              		.loc 1 413 0
 2140 008e 0221     		movs	r1, #2
 2141 0090 3000     		movs	r0, r6
 2142 0092 FFF7FEFF 		bl	session_set_state
 2143              	.LVL322:
 414:Source\azure_iot_sdk\uamqp\src/session.c ****                     {
 2144              		.loc 1 414 0
 2145 0096 3000     		movs	r0, r6
 2146 0098 FFF7FEFF 		bl	send_begin
 2147              	.LVL323:
 2148 009c 0028     		cmp	r0, #0
 2149 009e 0AD0     		beq	.L158
 416:Source\azure_iot_sdk\uamqp\src/session.c ****                         session_set_state(session_instance, SESSION_STATE_DISCARDING);
 2150              		.loc 1 416 0
 2151 00a0 0023     		movs	r3, #0
 2152 00a2 AF4A     		ldr	r2, .L209+12
 2153 00a4 AF49     		ldr	r1, .L209+16
 2154 00a6 F068     		ldr	r0, [r6, #12]
 2155 00a8 FFF7FEFF 		bl	connection_close
 2156              	.LVL324:
 417:Source\azure_iot_sdk\uamqp\src/session.c ****                     }
 2157              		.loc 1 417 0
 2158 00ac 0621     		movs	r1, #6
 2159 00ae 3000     		movs	r0, r6
 2160 00b0 FFF7FEFF 		bl	session_set_state
 2161              	.LVL325:
 2162 00b4 03E2     		b	.L151
 2163              	.L158:
 421:Source\azure_iot_sdk\uamqp\src/session.c ****                     }
 2164              		.loc 1 421 0
 2165 00b6 0321     		movs	r1, #3
 2166 00b8 3000     		movs	r0, r6
 2167 00ba FFF7FEFF 		bl	session_set_state
 2168              	.LVL326:
 2169 00be FEE1     		b	.L151
 2170              	.L152:
 2171              	.LBE31:
 427:Source\azure_iot_sdk\uamqp\src/session.c ****     {
 2172              		.loc 1 427 0
 2173 00c0 2800     		movs	r0, r5
 2174 00c2 FFF7FEFF 		bl	is_attach_type_by_descriptor
ARM GAS  C:\Users\Phuong\AppData\Local\Temp\ccX7yw2d.s 			page 66


 2175              	.LVL327:
 2176 00c6 0028     		cmp	r0, #0
 2177 00c8 00D1     		bne	.LCB2274
 2178 00ca 98E0     		b	.L160	@long jump
 2179              	.LCB2274:
 2180              	.LBB32:
 429:Source\azure_iot_sdk\uamqp\src/session.c ****         ATTACH_HANDLE attach_handle;
 2181              		.loc 1 429 0
 2182 00cc 0023     		movs	r3, #0
 2183 00ce 0693     		str	r3, [sp, #24]
 432:Source\azure_iot_sdk\uamqp\src/session.c ****         {
 2184              		.loc 1 432 0
 2185 00d0 07A9     		add	r1, sp, #28
 2186 00d2 2000     		movs	r0, r4
 2187 00d4 FFF7FEFF 		bl	amqpvalue_get_attach
 2188              	.LVL328:
 2189 00d8 0028     		cmp	r0, #0
 2190 00da 05D0     		beq	.L161
 434:Source\azure_iot_sdk\uamqp\src/session.c ****         }
 2191              		.loc 1 434 0
 2192 00dc A24A     		ldr	r2, .L209+20
 2193 00de 9E49     		ldr	r1, .L209+4
 2194 00e0 3000     		movs	r0, r6
 2195 00e2 FFF7FEFF 		bl	end_session_with_error
 2196              	.LVL329:
 2197 00e6 EAE1     		b	.L151
 2198              	.L161:
 2199              	.LBB33:
 442:Source\azure_iot_sdk\uamqp\src/session.c ****             {
 2200              		.loc 1 442 0
 2201 00e8 06A9     		add	r1, sp, #24
 2202 00ea 0798     		ldr	r0, [sp, #28]
 2203 00ec FFF7FEFF 		bl	attach_get_name
 2204              	.LVL330:
 2205 00f0 0028     		cmp	r0, #0
 2206 00f2 05D0     		beq	.L163
 444:Source\azure_iot_sdk\uamqp\src/session.c ****             }
 2207              		.loc 1 444 0
 2208 00f4 9D4A     		ldr	r2, .L209+24
 2209 00f6 9849     		ldr	r1, .L209+4
 2210 00f8 3000     		movs	r0, r6
 2211 00fa FFF7FEFF 		bl	end_session_with_error
 2212              	.LVL331:
 2213 00fe 7AE0     		b	.L164
 2214              	.L163:
 446:Source\azure_iot_sdk\uamqp\src/session.c ****             {
 2215              		.loc 1 446 0
 2216 0100 0F21     		movs	r1, #15
 2217 0102 02AB     		add	r3, sp, #8
 2218 0104 9C46     		mov	ip, r3
 2219 0106 6144     		add	r1, r1, ip
 2220 0108 0798     		ldr	r0, [sp, #28]
 2221 010a FFF7FEFF 		bl	attach_get_role
 2222              	.LVL332:
 2223 010e 0028     		cmp	r0, #0
 2224 0110 05D0     		beq	.L165
 448:Source\azure_iot_sdk\uamqp\src/session.c ****             }
ARM GAS  C:\Users\Phuong\AppData\Local\Temp\ccX7yw2d.s 			page 67


 2225              		.loc 1 448 0
 2226 0112 974A     		ldr	r2, .L209+28
 2227 0114 9049     		ldr	r1, .L209+4
 2228 0116 3000     		movs	r0, r6
 2229 0118 FFF7FEFF 		bl	end_session_with_error
 2230              	.LVL333:
 2231 011c 6BE0     		b	.L164
 2232              	.L165:
 2233              	.LBB34:
 454:Source\azure_iot_sdk\uamqp\src/session.c ****                 {
 2234              		.loc 1 454 0
 2235 011e 08A9     		add	r1, sp, #32
 2236 0120 0798     		ldr	r0, [sp, #28]
 2237 0122 FFF7FEFF 		bl	attach_get_source
 2238              	.LVL334:
 2239 0126 0028     		cmp	r0, #0
 2240 0128 01D0     		beq	.L166
 456:Source\azure_iot_sdk\uamqp\src/session.c ****                 }
 2241              		.loc 1 456 0
 2242 012a 0023     		movs	r3, #0
 2243 012c 0893     		str	r3, [sp, #32]
 2244              	.L166:
 458:Source\azure_iot_sdk\uamqp\src/session.c ****                 {
 2245              		.loc 1 458 0
 2246 012e 09A9     		add	r1, sp, #36
 2247 0130 0798     		ldr	r0, [sp, #28]
 2248 0132 FFF7FEFF 		bl	attach_get_target
 2249              	.LVL335:
 2250 0136 0028     		cmp	r0, #0
 2251 0138 01D0     		beq	.L167
 460:Source\azure_iot_sdk\uamqp\src/session.c ****                 }
 2252              		.loc 1 460 0
 2253 013a 0023     		movs	r3, #0
 2254 013c 0993     		str	r3, [sp, #36]
 2255              	.L167:
 463:Source\azure_iot_sdk\uamqp\src/session.c ****                 if (link_endpoint == NULL)
 2256              		.loc 1 463 0
 2257 013e 069B     		ldr	r3, [sp, #24]
 2258 0140 9946     		mov	r9, r3
 2259 0142 1900     		movs	r1, r3
 2260 0144 3000     		movs	r0, r6
 2261 0146 FFF7FEFF 		bl	find_link_endpoint_by_name
 2262              	.LVL336:
 2263 014a 051E     		subs	r5, r0, #0
 2264              	.LVL337:
 464:Source\azure_iot_sdk\uamqp\src/session.c ****                 {
 2265              		.loc 1 464 0
 2266 014c 3ED1     		bne	.L168
 467:Source\azure_iot_sdk\uamqp\src/session.c ****                     {
 2267              		.loc 1 467 0
 2268 014e F369     		ldr	r3, [r6, #28]
 2269 0150 002B     		cmp	r3, #0
 2270 0152 50D0     		beq	.L164
 2271              	.LBB35:
 469:Source\azure_iot_sdk\uamqp\src/session.c ****                         if (new_link_endpoint == NULL)
 2272              		.loc 1 469 0
 2273 0154 4946     		mov	r1, r9
ARM GAS  C:\Users\Phuong\AppData\Local\Temp\ccX7yw2d.s 			page 68


 2274 0156 3000     		movs	r0, r6
 2275              	.LVL338:
 2276 0158 FFF7FEFF 		bl	session_create_link_endpoint
 2277              	.LVL339:
 2278 015c 051E     		subs	r5, r0, #0
 2279              	.LVL340:
 470:Source\azure_iot_sdk\uamqp\src/session.c ****                         {
 2280              		.loc 1 470 0
 2281 015e 05D1     		bne	.L169
 472:Source\azure_iot_sdk\uamqp\src/session.c ****                         }
 2282              		.loc 1 472 0
 2283 0160 844A     		ldr	r2, .L209+32
 2284 0162 8049     		ldr	r1, .L209+16
 2285 0164 3000     		movs	r0, r6
 2286              	.LVL341:
 2287 0166 FFF7FEFF 		bl	end_session_with_error
 2288              	.LVL342:
 2289 016a 44E0     		b	.L164
 2290              	.LVL343:
 2291              	.L169:
 474:Source\azure_iot_sdk\uamqp\src/session.c ****                         {
 2292              		.loc 1 474 0
 2293 016c 011D     		adds	r1, r0, #4
 2294 016e 0798     		ldr	r0, [sp, #28]
 2295              	.LVL344:
 2296 0170 FFF7FEFF 		bl	attach_get_handle
 2297              	.LVL345:
 2298 0174 0028     		cmp	r0, #0
 2299 0176 05D0     		beq	.L170
 476:Source\azure_iot_sdk\uamqp\src/session.c ****                         }
 2300              		.loc 1 476 0
 2301 0178 7F4A     		ldr	r2, .L209+36
 2302 017a 7749     		ldr	r1, .L209+4
 2303 017c 3000     		movs	r0, r6
 2304 017e FFF7FEFF 		bl	end_session_with_error
 2305              	.LVL346:
 2306 0182 38E0     		b	.L164
 2307              	.L170:
 480:Source\azure_iot_sdk\uamqp\src/session.c **** 
 2308              		.loc 1 480 0
 2309 0184 0122     		movs	r2, #1
 2310 0186 2023     		movs	r3, #32
 2311 0188 EA54     		strb	r2, [r5, r3]
 482:Source\azure_iot_sdk\uamqp\src/session.c ****                             {
 2312              		.loc 1 482 0
 2313 018a F369     		ldr	r3, [r6, #28]
 2314 018c 9946     		mov	r9, r3
 2315 018e 0F23     		movs	r3, #15
 2316 0190 02AA     		add	r2, sp, #8
 2317 0192 9446     		mov	ip, r2
 2318 0194 6344     		add	r3, r3, ip
 2319 0196 1B78     		ldrb	r3, [r3]
 2320 0198 306A     		ldr	r0, [r6, #32]
 2321 019a 099A     		ldr	r2, [sp, #36]
 2322 019c 0192     		str	r2, [sp, #4]
 2323 019e 089A     		ldr	r2, [sp, #32]
 2324 01a0 0092     		str	r2, [sp]
ARM GAS  C:\Users\Phuong\AppData\Local\Temp\ccX7yw2d.s 			page 69


 2325 01a2 069A     		ldr	r2, [sp, #24]
 2326 01a4 2900     		movs	r1, r5
 2327 01a6 C847     		blx	r9
 2328              	.LVL347:
 2329 01a8 0028     		cmp	r0, #0
 2330 01aa 06D1     		bne	.L171
 484:Source\azure_iot_sdk\uamqp\src/session.c ****                                 free_link_endpoint(new_link_endpoint);
 2331              		.loc 1 484 0
 2332 01ac 2800     		movs	r0, r5
 2333 01ae FFF7FEFF 		bl	remove_link_endpoint
 2334              	.LVL348:
 485:Source\azure_iot_sdk\uamqp\src/session.c ****                                 new_link_endpoint = NULL;
 2335              		.loc 1 485 0
 2336 01b2 2800     		movs	r0, r5
 2337 01b4 FFF7FEFF 		bl	free_link_endpoint
 2338              	.LVL349:
 2339 01b8 1DE0     		b	.L164
 2340              	.LVL350:
 2341              	.L171:
 490:Source\azure_iot_sdk\uamqp\src/session.c ****                                 {
 2342              		.loc 1 490 0
 2343 01ba EE68     		ldr	r6, [r5, #12]
 2344              	.LVL351:
 2345 01bc 002E     		cmp	r6, #0
 2346 01be 1AD0     		beq	.L164
 492:Source\azure_iot_sdk\uamqp\src/session.c ****                                 }
 2347              		.loc 1 492 0
 2348 01c0 A869     		ldr	r0, [r5, #24]
 2349 01c2 3B00     		movs	r3, r7
 2350 01c4 039A     		ldr	r2, [sp, #12]
 2351 01c6 2100     		movs	r1, r4
 2352 01c8 B047     		blx	r6
 2353              	.LVL352:
 2354 01ca 14E0     		b	.L164
 2355              	.LVL353:
 2356              	.L168:
 2357              	.LBE35:
 500:Source\azure_iot_sdk\uamqp\src/session.c ****                     {
 2358              		.loc 1 500 0
 2359 01cc 011D     		adds	r1, r0, #4
 2360 01ce 0798     		ldr	r0, [sp, #28]
 2361              	.LVL354:
 2362 01d0 FFF7FEFF 		bl	attach_get_handle
 2363              	.LVL355:
 2364 01d4 0028     		cmp	r0, #0
 2365 01d6 05D0     		beq	.L172
 502:Source\azure_iot_sdk\uamqp\src/session.c ****                     }
 2366              		.loc 1 502 0
 2367 01d8 674A     		ldr	r2, .L209+36
 2368 01da 5F49     		ldr	r1, .L209+4
 2369 01dc 3000     		movs	r0, r6
 2370 01de FFF7FEFF 		bl	end_session_with_error
 2371              	.LVL356:
 2372 01e2 08E0     		b	.L164
 2373              	.L172:
 506:Source\azure_iot_sdk\uamqp\src/session.c **** 
 2374              		.loc 1 506 0
ARM GAS  C:\Users\Phuong\AppData\Local\Temp\ccX7yw2d.s 			page 70


 2375 01e4 0122     		movs	r2, #1
 2376 01e6 2023     		movs	r3, #32
 2377 01e8 EA54     		strb	r2, [r5, r3]
 508:Source\azure_iot_sdk\uamqp\src/session.c ****                     }
 2378              		.loc 1 508 0
 2379 01ea EE68     		ldr	r6, [r5, #12]
 2380              	.LVL357:
 2381 01ec A869     		ldr	r0, [r5, #24]
 2382 01ee 3B00     		movs	r3, r7
 2383 01f0 039A     		ldr	r2, [sp, #12]
 2384 01f2 2100     		movs	r1, r4
 2385 01f4 B047     		blx	r6
 2386              	.LVL358:
 2387              	.L164:
 2388              	.LBE34:
 513:Source\azure_iot_sdk\uamqp\src/session.c ****         }
 2389              		.loc 1 513 0 discriminator 1
 2390 01f6 0798     		ldr	r0, [sp, #28]
 2391 01f8 FFF7FEFF 		bl	attach_destroy
 2392              	.LVL359:
 2393 01fc 5FE1     		b	.L151
 2394              	.LVL360:
 2395              	.L160:
 2396              	.LBE33:
 2397              	.LBE32:
 516:Source\azure_iot_sdk\uamqp\src/session.c ****     {
 2398              		.loc 1 516 0
 2399 01fe 2800     		movs	r0, r5
 2400 0200 FFF7FEFF 		bl	is_detach_type_by_descriptor
 2401              	.LVL361:
 2402 0204 0028     		cmp	r0, #0
 2403 0206 3DD0     		beq	.L173
 2404              	.LBB36:
 520:Source\azure_iot_sdk\uamqp\src/session.c ****         {
 2405              		.loc 1 520 0
 2406 0208 08A9     		add	r1, sp, #32
 2407 020a 2000     		movs	r0, r4
 2408 020c FFF7FEFF 		bl	amqpvalue_get_detach
 2409              	.LVL362:
 2410 0210 0028     		cmp	r0, #0
 2411 0212 05D0     		beq	.L174
 522:Source\azure_iot_sdk\uamqp\src/session.c ****         }
 2412              		.loc 1 522 0
 2413 0214 594A     		ldr	r2, .L209+40
 2414 0216 5049     		ldr	r1, .L209+4
 2415 0218 3000     		movs	r0, r6
 2416 021a FFF7FEFF 		bl	end_session_with_error
 2417              	.LVL363:
 2418 021e 4EE1     		b	.L151
 2419              	.L174:
 2420              	.LBB37:
 527:Source\azure_iot_sdk\uamqp\src/session.c ****             {
 2421              		.loc 1 527 0
 2422 0220 09A9     		add	r1, sp, #36
 2423 0222 0898     		ldr	r0, [sp, #32]
 2424 0224 FFF7FEFF 		bl	detach_get_handle
 2425              	.LVL364:
ARM GAS  C:\Users\Phuong\AppData\Local\Temp\ccX7yw2d.s 			page 71


 2426 0228 0028     		cmp	r0, #0
 2427 022a 08D0     		beq	.L176
 529:Source\azure_iot_sdk\uamqp\src/session.c **** 
 2428              		.loc 1 529 0
 2429 022c 544A     		ldr	r2, .L209+44
 2430 022e 4A49     		ldr	r1, .L209+4
 2431 0230 3000     		movs	r0, r6
 2432 0232 FFF7FEFF 		bl	end_session_with_error
 2433              	.LVL365:
 531:Source\azure_iot_sdk\uamqp\src/session.c ****             }
 2434              		.loc 1 531 0
 2435 0236 0898     		ldr	r0, [sp, #32]
 2436 0238 FFF7FEFF 		bl	detach_destroy
 2437              	.LVL366:
 2438 023c 3FE1     		b	.L151
 2439              	.L176:
 2440              	.LBB38:
 536:Source\azure_iot_sdk\uamqp\src/session.c **** 
 2441              		.loc 1 536 0
 2442 023e 0898     		ldr	r0, [sp, #32]
 2443 0240 FFF7FEFF 		bl	detach_destroy
 2444              	.LVL367:
 538:Source\azure_iot_sdk\uamqp\src/session.c ****                 if (link_endpoint == NULL)
 2445              		.loc 1 538 0
 2446 0244 0999     		ldr	r1, [sp, #36]
 2447 0246 3000     		movs	r0, r6
 2448 0248 FFF7FEFF 		bl	find_link_endpoint_by_input_handle
 2449              	.LVL368:
 2450 024c 051E     		subs	r5, r0, #0
 2451              	.LVL369:
 539:Source\azure_iot_sdk\uamqp\src/session.c ****                 {
 2452              		.loc 1 539 0
 2453 024e 05D1     		bne	.L178
 541:Source\azure_iot_sdk\uamqp\src/session.c ****                 }
 2454              		.loc 1 541 0
 2455 0250 4C4A     		ldr	r2, .L209+48
 2456 0252 4D49     		ldr	r1, .L209+52
 2457 0254 3000     		movs	r0, r6
 2458              	.LVL370:
 2459 0256 FFF7FEFF 		bl	end_session_with_error
 2460              	.LVL371:
 2461 025a 30E1     		b	.L151
 2462              	.LVL372:
 2463              	.L178:
 545:Source\azure_iot_sdk\uamqp\src/session.c ****                     {
 2464              		.loc 1 545 0
 2465 025c 2023     		movs	r3, #32
 2466 025e C35C     		ldrb	r3, [r0, r3]
 2467 0260 022B     		cmp	r3, #2
 2468 0262 09D0     		beq	.L179
 547:Source\azure_iot_sdk\uamqp\src/session.c ****                         link_endpoint->frame_received_callback(link_endpoint->callback_context, per
 2469              		.loc 1 547 0
 2470 0264 0222     		movs	r2, #2
 2471 0266 2023     		movs	r3, #32
 2472 0268 C254     		strb	r2, [r0, r3]
 548:Source\azure_iot_sdk\uamqp\src/session.c ****                     }
 2473              		.loc 1 548 0
ARM GAS  C:\Users\Phuong\AppData\Local\Temp\ccX7yw2d.s 			page 72


 2474 026a C668     		ldr	r6, [r0, #12]
 2475              	.LVL373:
 2476 026c 8069     		ldr	r0, [r0, #24]
 2477              	.LVL374:
 2478 026e 3B00     		movs	r3, r7
 2479 0270 039A     		ldr	r2, [sp, #12]
 2480 0272 2100     		movs	r1, r4
 2481 0274 B047     		blx	r6
 2482              	.LVL375:
 2483 0276 22E1     		b	.L151
 2484              	.LVL376:
 2485              	.L179:
 553:Source\azure_iot_sdk\uamqp\src/session.c ****                         free_link_endpoint(link_endpoint);
 2486              		.loc 1 553 0
 2487 0278 FFF7FEFF 		bl	remove_link_endpoint
 2488              	.LVL377:
 554:Source\azure_iot_sdk\uamqp\src/session.c ****                     }
 2489              		.loc 1 554 0
 2490 027c 2800     		movs	r0, r5
 2491 027e FFF7FEFF 		bl	free_link_endpoint
 2492              	.LVL378:
 2493 0282 1CE1     		b	.L151
 2494              	.LVL379:
 2495              	.L173:
 2496              	.LBE38:
 2497              	.LBE37:
 2498              	.LBE36:
 560:Source\azure_iot_sdk\uamqp\src/session.c ****     {
 2499              		.loc 1 560 0
 2500 0284 2800     		movs	r0, r5
 2501 0286 FFF7FEFF 		bl	is_flow_type_by_descriptor
 2502              	.LVL380:
 2503 028a 0028     		cmp	r0, #0
 2504 028c 00D1     		bne	.LCB2633
 2505 028e 7FE0     		b	.L180	@long jump
 2506              	.LCB2633:
 2507              	.LBB39:
 564:Source\azure_iot_sdk\uamqp\src/session.c ****         {
 2508              		.loc 1 564 0
 2509 0290 06A9     		add	r1, sp, #24
 2510 0292 2000     		movs	r0, r4
 2511 0294 FFF7FEFF 		bl	amqpvalue_get_flow
 2512              	.LVL381:
 2513 0298 0028     		cmp	r0, #0
 2514 029a 05D0     		beq	.L181
 566:Source\azure_iot_sdk\uamqp\src/session.c ****         }
 2515              		.loc 1 566 0
 2516 029c 3B4A     		ldr	r2, .L209+56
 2517 029e 2E49     		ldr	r1, .L209+4
 2518 02a0 3000     		movs	r0, r6
 2519 02a2 FFF7FEFF 		bl	end_session_with_error
 2520              	.LVL382:
 2521 02a6 0AE1     		b	.L151
 2522              	.L181:
 2523              	.LBB40:
 574:Source\azure_iot_sdk\uamqp\src/session.c ****             {
 2524              		.loc 1 574 0
ARM GAS  C:\Users\Phuong\AppData\Local\Temp\ccX7yw2d.s 			page 73


 2525 02a8 08A9     		add	r1, sp, #32
 2526 02aa 0698     		ldr	r0, [sp, #24]
 2527 02ac FFF7FEFF 		bl	flow_get_next_incoming_id
 2528              	.LVL383:
 2529 02b0 0028     		cmp	r0, #0
 2530 02b2 01D0     		beq	.L183
 581:Source\azure_iot_sdk\uamqp\src/session.c ****             }
 2531              		.loc 1 581 0
 2532 02b4 736A     		ldr	r3, [r6, #36]
 2533 02b6 0893     		str	r3, [sp, #32]
 2534              	.L183:
 584:Source\azure_iot_sdk\uamqp\src/session.c ****                 (flow_get_incoming_window(flow_handle, &flow_incoming_window) != 0))
 2535              		.loc 1 584 0
 2536 02b8 3100     		movs	r1, r6
 2537 02ba 2831     		adds	r1, r1, #40
 2538 02bc 0698     		ldr	r0, [sp, #24]
 2539 02be FFF7FEFF 		bl	flow_get_next_outgoing_id
 2540              	.LVL384:
 2541 02c2 0028     		cmp	r0, #0
 2542 02c4 05D1     		bne	.L184
 585:Source\azure_iot_sdk\uamqp\src/session.c ****             {
 2543              		.loc 1 585 0 discriminator 1
 2544 02c6 09A9     		add	r1, sp, #36
 2545 02c8 0698     		ldr	r0, [sp, #24]
 2546 02ca FFF7FEFF 		bl	flow_get_incoming_window
 2547              	.LVL385:
 584:Source\azure_iot_sdk\uamqp\src/session.c ****                 (flow_get_incoming_window(flow_handle, &flow_incoming_window) != 0))
 2548              		.loc 1 584 0 discriminator 1
 2549 02ce 0028     		cmp	r0, #0
 2550 02d0 08D0     		beq	.L185
 2551              	.L184:
 587:Source\azure_iot_sdk\uamqp\src/session.c **** 
 2552              		.loc 1 587 0
 2553 02d2 0698     		ldr	r0, [sp, #24]
 2554 02d4 FFF7FEFF 		bl	flow_destroy
 2555              	.LVL386:
 589:Source\azure_iot_sdk\uamqp\src/session.c ****             }
 2556              		.loc 1 589 0
 2557 02d8 2C4A     		ldr	r2, .L209+56
 2558 02da 1F49     		ldr	r1, .L209+4
 2559 02dc 3000     		movs	r0, r6
 2560 02de FFF7FEFF 		bl	end_session_with_error
 2561              	.LVL387:
 2562 02e2 ECE0     		b	.L151
 2563              	.L185:
 2564              	.LVL388:
 2565              	.LBB41:
 596:Source\azure_iot_sdk\uamqp\src/session.c **** 
 2566              		.loc 1 596 0
 2567 02e4 089B     		ldr	r3, [sp, #32]
 2568 02e6 099A     		ldr	r2, [sp, #36]
 2569 02e8 9446     		mov	ip, r2
 2570 02ea 6344     		add	r3, r3, ip
 2571 02ec 726A     		ldr	r2, [r6, #36]
 2572 02ee 9B1A     		subs	r3, r3, r2
 2573 02f0 F363     		str	r3, [r6, #60]
 598:Source\azure_iot_sdk\uamqp\src/session.c ****                 {
ARM GAS  C:\Users\Phuong\AppData\Local\Temp\ccX7yw2d.s 			page 74


 2574              		.loc 1 598 0
 2575 02f2 07A9     		add	r1, sp, #28
 2576 02f4 0698     		ldr	r0, [sp, #24]
 2577 02f6 FFF7FEFF 		bl	flow_get_handle
 2578              	.LVL389:
 2579 02fa 0028     		cmp	r0, #0
 2580 02fc 05D1     		bne	.L206
 600:Source\azure_iot_sdk\uamqp\src/session.c ****                 }
 2581              		.loc 1 600 0
 2582 02fe 0799     		ldr	r1, [sp, #28]
 2583 0300 3000     		movs	r0, r6
 2584 0302 FFF7FEFF 		bl	find_link_endpoint_by_input_handle
 2585              	.LVL390:
 2586 0306 0500     		movs	r5, r0
 2587              	.LVL391:
 2588 0308 00E0     		b	.L187
 2589              	.LVL392:
 2590              	.L206:
 593:Source\azure_iot_sdk\uamqp\src/session.c ****                 size_t i;
 2591              		.loc 1 593 0
 2592 030a 0025     		movs	r5, #0
 2593              	.LVL393:
 2594              	.L187:
 603:Source\azure_iot_sdk\uamqp\src/session.c **** 
 2595              		.loc 1 603 0
 2596 030c 0698     		ldr	r0, [sp, #24]
 2597 030e FFF7FEFF 		bl	flow_destroy
 2598              	.LVL394:
 605:Source\azure_iot_sdk\uamqp\src/session.c ****                 {
 2599              		.loc 1 605 0
 2600 0312 002D     		cmp	r5, #0
 2601 0314 0AD0     		beq	.L188
 607:Source\azure_iot_sdk\uamqp\src/session.c ****                     {
 2602              		.loc 1 607 0
 2603 0316 2023     		movs	r3, #32
 2604 0318 EB5C     		ldrb	r3, [r5, r3]
 2605 031a 022B     		cmp	r3, #2
 2606 031c 06D0     		beq	.L188
 609:Source\azure_iot_sdk\uamqp\src/session.c ****                     }
 2607              		.loc 1 609 0
 2608 031e EB68     		ldr	r3, [r5, #12]
 2609 0320 9946     		mov	r9, r3
 2610 0322 A869     		ldr	r0, [r5, #24]
 2611 0324 3B00     		movs	r3, r7
 2612 0326 039A     		ldr	r2, [sp, #12]
 2613 0328 2100     		movs	r1, r4
 2614 032a C847     		blx	r9
 2615              	.LVL395:
 2616              	.L188:
 593:Source\azure_iot_sdk\uamqp\src/session.c ****                 size_t i;
 2617              		.loc 1 593 0
 2618 032c 0024     		movs	r4, #0
 2619              	.LVL396:
 2620 032e 08E0     		b	.L189
 2621              	.LVL397:
 2622              	.L191:
 617:Source\azure_iot_sdk\uamqp\src/session.c ****                     {
ARM GAS  C:\Users\Phuong\AppData\Local\Temp\ccX7yw2d.s 			page 75


 2623              		.loc 1 617 0
 2624 0330 A300     		lsls	r3, r4, #2
 2625 0332 7269     		ldr	r2, [r6, #20]
 2626 0334 9A58     		ldr	r2, [r3, r2]
 2627 0336 5369     		ldr	r3, [r2, #20]
 2628 0338 002B     		cmp	r3, #0
 2629 033a 01D0     		beq	.L190
 619:Source\azure_iot_sdk\uamqp\src/session.c ****                     }
 2630              		.loc 1 619 0
 2631 033c 9069     		ldr	r0, [r2, #24]
 2632 033e 9847     		blx	r3
 2633              	.LVL398:
 2634              	.L190:
 622:Source\azure_iot_sdk\uamqp\src/session.c ****                 }
 2635              		.loc 1 622 0
 2636 0340 0134     		adds	r4, r4, #1
 2637              	.LVL399:
 2638              	.L189:
 614:Source\azure_iot_sdk\uamqp\src/session.c ****                 {
 2639              		.loc 1 614 0
 2640 0342 F36B     		ldr	r3, [r6, #60]
 2641 0344 002B     		cmp	r3, #0
 2642 0346 00D1     		bne	.LCB2787
 2643 0348 B9E0     		b	.L151	@long jump
 2644              	.LCB2787:
 614:Source\azure_iot_sdk\uamqp\src/session.c ****                 {
 2645              		.loc 1 614 0 is_stmt 0 discriminator 1
 2646 034a B369     		ldr	r3, [r6, #24]
 2647 034c 9C42     		cmp	r4, r3
 2648 034e EFD3     		bcc	.L191
 2649 0350 B5E0     		b	.L151
 2650              	.L210:
 2651 0352 C046     		.align	2
 2652              	.L209:
 2653 0354 40000000 		.word	.LC6
 2654 0358 5C000000 		.word	.LC8
 2655 035c 70000000 		.word	.LC10
 2656 0360 A4000000 		.word	.LC12
 2657 0364 2C000000 		.word	.LC2
 2658 0368 C0000000 		.word	.LC15
 2659 036c DC000000 		.word	.LC17
 2660 0370 04010000 		.word	.LC19
 2661 0374 2C010000 		.word	.LC21
 2662 0378 48010000 		.word	.LC23
 2663 037c 74010000 		.word	.LC25
 2664 0380 90010000 		.word	.LC27
 2665 0384 B4010000 		.word	.LC29
 2666 0388 B8010000 		.word	.LC31
 2667 038c D8010000 		.word	.LC33
 2668              	.LVL400:
 2669              	.L180:
 2670              	.LBE41:
 2671              	.LBE40:
 2672              	.LBE39:
 627:Source\azure_iot_sdk\uamqp\src/session.c ****     {
 2673              		.loc 1 627 0 is_stmt 1
 2674 0390 2800     		movs	r0, r5
ARM GAS  C:\Users\Phuong\AppData\Local\Temp\ccX7yw2d.s 			page 76


 2675 0392 FFF7FEFF 		bl	is_transfer_type_by_descriptor
 2676              	.LVL401:
 2677 0396 0028     		cmp	r0, #0
 2678 0398 49D0     		beq	.L192
 2679              	.LBB42:
 631:Source\azure_iot_sdk\uamqp\src/session.c ****         {
 2680              		.loc 1 631 0
 2681 039a 07A9     		add	r1, sp, #28
 2682 039c 2000     		movs	r0, r4
 2683 039e FFF7FEFF 		bl	amqpvalue_get_transfer
 2684              	.LVL402:
 2685 03a2 0028     		cmp	r0, #0
 2686 03a4 05D0     		beq	.L193
 633:Source\azure_iot_sdk\uamqp\src/session.c ****         }
 2687              		.loc 1 633 0
 2688 03a6 484A     		ldr	r2, .L211
 2689 03a8 4849     		ldr	r1, .L211+4
 2690 03aa 3000     		movs	r0, r6
 2691 03ac FFF7FEFF 		bl	end_session_with_error
 2692              	.LVL403:
 2693 03b0 85E0     		b	.L151
 2694              	.L193:
 2695              	.LBB43:
 640:Source\azure_iot_sdk\uamqp\src/session.c ****             if (transfer_get_handle(transfer_handle, &remote_handle) != 0)
 2696              		.loc 1 640 0
 2697 03b2 09A9     		add	r1, sp, #36
 2698 03b4 0798     		ldr	r0, [sp, #28]
 2699 03b6 FFF7FEFF 		bl	transfer_get_delivery_id
 2700              	.LVL404:
 641:Source\azure_iot_sdk\uamqp\src/session.c ****             {
 2701              		.loc 1 641 0
 2702 03ba 08A9     		add	r1, sp, #32
 2703 03bc 0798     		ldr	r0, [sp, #28]
 2704 03be FFF7FEFF 		bl	transfer_get_handle
 2705              	.LVL405:
 2706 03c2 0028     		cmp	r0, #0
 2707 03c4 08D0     		beq	.L195
 643:Source\azure_iot_sdk\uamqp\src/session.c ****                 end_session_with_error(session_instance, "amqp:decode-error", "Cannot get handle fr
 2708              		.loc 1 643 0
 2709 03c6 0798     		ldr	r0, [sp, #28]
 2710 03c8 FFF7FEFF 		bl	transfer_destroy
 2711              	.LVL406:
 644:Source\azure_iot_sdk\uamqp\src/session.c ****             }
 2712              		.loc 1 644 0
 2713 03cc 404A     		ldr	r2, .L211+8
 2714 03ce 3F49     		ldr	r1, .L211+4
 2715 03d0 3000     		movs	r0, r6
 2716 03d2 FFF7FEFF 		bl	end_session_with_error
 2717              	.LVL407:
 2718 03d6 72E0     		b	.L151
 2719              	.L195:
 2720              	.LBB44:
 649:Source\azure_iot_sdk\uamqp\src/session.c **** 
 2721              		.loc 1 649 0
 2722 03d8 0798     		ldr	r0, [sp, #28]
 2723 03da FFF7FEFF 		bl	transfer_destroy
 2724              	.LVL408:
ARM GAS  C:\Users\Phuong\AppData\Local\Temp\ccX7yw2d.s 			page 77


 651:Source\azure_iot_sdk\uamqp\src/session.c ****                 session_instance->remote_outgoing_window--;
 2725              		.loc 1 651 0
 2726 03de B36A     		ldr	r3, [r6, #40]
 2727 03e0 0133     		adds	r3, r3, #1
 2728 03e2 B362     		str	r3, [r6, #40]
 652:Source\azure_iot_sdk\uamqp\src/session.c ****                 session_instance->incoming_window--;
 2729              		.loc 1 652 0
 2730 03e4 336C     		ldr	r3, [r6, #64]
 2731 03e6 013B     		subs	r3, r3, #1
 2732 03e8 3364     		str	r3, [r6, #64]
 653:Source\azure_iot_sdk\uamqp\src/session.c **** 
 2733              		.loc 1 653 0
 2734 03ea 336B     		ldr	r3, [r6, #48]
 2735 03ec 013B     		subs	r3, r3, #1
 2736 03ee 3363     		str	r3, [r6, #48]
 655:Source\azure_iot_sdk\uamqp\src/session.c ****                 if (link_endpoint == NULL)
 2737              		.loc 1 655 0
 2738 03f0 0899     		ldr	r1, [sp, #32]
 2739 03f2 3000     		movs	r0, r6
 2740 03f4 FFF7FEFF 		bl	find_link_endpoint_by_input_handle
 2741              	.LVL409:
 656:Source\azure_iot_sdk\uamqp\src/session.c ****                 {
 2742              		.loc 1 656 0
 2743 03f8 0028     		cmp	r0, #0
 2744 03fa 05D1     		bne	.L197
 658:Source\azure_iot_sdk\uamqp\src/session.c ****                 }
 2745              		.loc 1 658 0
 2746 03fc 354A     		ldr	r2, .L211+12
 2747 03fe 3649     		ldr	r1, .L211+16
 2748 0400 3000     		movs	r0, r6
 2749              	.LVL410:
 2750 0402 FFF7FEFF 		bl	end_session_with_error
 2751              	.LVL411:
 2752 0406 09E0     		b	.L198
 2753              	.LVL412:
 2754              	.L197:
 662:Source\azure_iot_sdk\uamqp\src/session.c ****                     {
 2755              		.loc 1 662 0
 2756 0408 2023     		movs	r3, #32
 2757 040a C35C     		ldrb	r3, [r0, r3]
 2758 040c 022B     		cmp	r3, #2
 2759 040e 05D0     		beq	.L198
 664:Source\azure_iot_sdk\uamqp\src/session.c ****                     }
 2760              		.loc 1 664 0
 2761 0410 C568     		ldr	r5, [r0, #12]
 2762              	.LVL413:
 2763 0412 8069     		ldr	r0, [r0, #24]
 2764              	.LVL414:
 2765 0414 3B00     		movs	r3, r7
 2766 0416 039A     		ldr	r2, [sp, #12]
 2767 0418 2100     		movs	r1, r4
 2768 041a A847     		blx	r5
 2769              	.LVL415:
 2770              	.L198:
 668:Source\azure_iot_sdk\uamqp\src/session.c ****                 {
 2771              		.loc 1 668 0
 2772 041c 336B     		ldr	r3, [r6, #48]
ARM GAS  C:\Users\Phuong\AppData\Local\Temp\ccX7yw2d.s 			page 78


 2773 041e 002B     		cmp	r3, #0
 2774 0420 4DD1     		bne	.L151
 670:Source\azure_iot_sdk\uamqp\src/session.c ****                     send_flow(session_instance);
 2775              		.loc 1 670 0
 2776 0422 F36A     		ldr	r3, [r6, #44]
 2777 0424 3363     		str	r3, [r6, #48]
 671:Source\azure_iot_sdk\uamqp\src/session.c ****                 }
 2778              		.loc 1 671 0
 2779 0426 3000     		movs	r0, r6
 2780 0428 FFF7FEFF 		bl	send_flow
 2781              	.LVL416:
 2782 042c 47E0     		b	.L151
 2783              	.LVL417:
 2784              	.L192:
 2785              	.LBE44:
 2786              	.LBE43:
 2787              	.LBE42:
 676:Source\azure_iot_sdk\uamqp\src/session.c ****     {
 2788              		.loc 1 676 0
 2789 042e 2800     		movs	r0, r5
 2790 0430 FFF7FEFF 		bl	is_disposition_type_by_descriptor
 2791              	.LVL418:
 2792 0434 0028     		cmp	r0, #0
 2793 0436 10D1     		bne	.L207
 2794 0438 14E0     		b	.L208
 2795              	.LVL419:
 2796              	.L202:
 2797              	.LBB45:
 2798              	.LBB46:
 682:Source\azure_iot_sdk\uamqp\src/session.c ****             if (link_endpoint->link_endpoint_state != LINK_ENDPOINT_STATE_DETACHING)
 2799              		.loc 1 682 0
 2800 043a AB00     		lsls	r3, r5, #2
 2801 043c 7269     		ldr	r2, [r6, #20]
 2802 043e D358     		ldr	r3, [r2, r3]
 2803              	.LVL420:
 683:Source\azure_iot_sdk\uamqp\src/session.c ****             {
 2804              		.loc 1 683 0
 2805 0440 2022     		movs	r2, #32
 2806 0442 9A5C     		ldrb	r2, [r3, r2]
 2807 0444 022A     		cmp	r2, #2
 2808 0446 06D0     		beq	.L201
 685:Source\azure_iot_sdk\uamqp\src/session.c ****             }
 2809              		.loc 1 685 0
 2810 0448 DA68     		ldr	r2, [r3, #12]
 2811 044a 9146     		mov	r9, r2
 2812 044c 9869     		ldr	r0, [r3, #24]
 2813 044e 3B00     		movs	r3, r7
 2814              	.LVL421:
 2815 0450 039A     		ldr	r2, [sp, #12]
 2816 0452 2100     		movs	r1, r4
 2817 0454 C847     		blx	r9
 2818              	.LVL422:
 2819              	.L201:
 2820              	.LBE46:
 680:Source\azure_iot_sdk\uamqp\src/session.c ****         {
 2821              		.loc 1 680 0 discriminator 2
 2822 0456 0135     		adds	r5, r5, #1
ARM GAS  C:\Users\Phuong\AppData\Local\Temp\ccX7yw2d.s 			page 79


 2823              	.LVL423:
 2824 0458 00E0     		b	.L199
 2825              	.LVL424:
 2826              	.L207:
 2827              	.LBE45:
 2828 045a 0025     		movs	r5, #0
 2829              	.LVL425:
 2830              	.L199:
 2831              	.LBB47:
 680:Source\azure_iot_sdk\uamqp\src/session.c ****         {
 2832              		.loc 1 680 0 is_stmt 0 discriminator 1
 2833 045c B369     		ldr	r3, [r6, #24]
 2834 045e 9D42     		cmp	r5, r3
 2835 0460 EBD3     		bcc	.L202
 2836 0462 2CE0     		b	.L151
 2837              	.LVL426:
 2838              	.L208:
 2839              	.LBE47:
 689:Source\azure_iot_sdk\uamqp\src/session.c ****     {
 2840              		.loc 1 689 0 is_stmt 1
 2841 0464 2800     		movs	r0, r5
 2842 0466 FFF7FEFF 		bl	is_end_type_by_descriptor
 2843              	.LVL427:
 2844 046a 0028     		cmp	r0, #0
 2845 046c 27D0     		beq	.L151
 2846              	.LBB48:
 693:Source\azure_iot_sdk\uamqp\src/session.c ****         {
 2847              		.loc 1 693 0
 2848 046e 09A9     		add	r1, sp, #36
 2849 0470 2000     		movs	r0, r4
 2850 0472 FFF7FEFF 		bl	amqpvalue_get_end
 2851              	.LVL428:
 2852 0476 0028     		cmp	r0, #0
 2853 0478 05D0     		beq	.L203
 695:Source\azure_iot_sdk\uamqp\src/session.c ****         }
 2854              		.loc 1 695 0
 2855 047a 184A     		ldr	r2, .L211+20
 2856 047c 1349     		ldr	r1, .L211+4
 2857 047e 3000     		movs	r0, r6
 2858 0480 FFF7FEFF 		bl	end_session_with_error
 2859              	.LVL429:
 2860 0484 1BE0     		b	.L151
 2861              	.L203:
 699:Source\azure_iot_sdk\uamqp\src/session.c ****             if ((session_instance->session_state != SESSION_STATE_END_RCVD) &&
 2862              		.loc 1 699 0
 2863 0486 0998     		ldr	r0, [sp, #36]
 2864 0488 FFF7FEFF 		bl	end_destroy
 2865              	.LVL430:
 700:Source\azure_iot_sdk\uamqp\src/session.c ****                 (session_instance->session_state != SESSION_STATE_DISCARDING))
 2866              		.loc 1 700 0
 2867 048c 337A     		ldrb	r3, [r6, #8]
 2868 048e 053B     		subs	r3, r3, #5
 2869 0490 DBB2     		uxtb	r3, r3
 2870 0492 012B     		cmp	r3, #1
 2871 0494 13D9     		bls	.L151
 703:Source\azure_iot_sdk\uamqp\src/session.c ****                 if (send_end_frame(session_instance, NULL) != 0)
 2872              		.loc 1 703 0
ARM GAS  C:\Users\Phuong\AppData\Local\Temp\ccX7yw2d.s 			page 80


 2873 0496 0521     		movs	r1, #5
 2874 0498 3000     		movs	r0, r6
 2875 049a FFF7FEFF 		bl	session_set_state
 2876              	.LVL431:
 704:Source\azure_iot_sdk\uamqp\src/session.c ****                 {
 2877              		.loc 1 704 0
 2878 049e 0021     		movs	r1, #0
 2879 04a0 3000     		movs	r0, r6
 2880 04a2 FFF7FEFF 		bl	send_end_frame
 2881              	.LVL432:
 2882 04a6 0028     		cmp	r0, #0
 2883 04a8 05D0     		beq	.L205
 707:Source\azure_iot_sdk\uamqp\src/session.c ****                 }
 2884              		.loc 1 707 0
 2885 04aa 0023     		movs	r3, #0
 2886 04ac 0C4A     		ldr	r2, .L211+24
 2887 04ae 0D49     		ldr	r1, .L211+28
 2888 04b0 F068     		ldr	r0, [r6, #12]
 2889 04b2 FFF7FEFF 		bl	connection_close
 2890              	.LVL433:
 2891              	.L205:
 710:Source\azure_iot_sdk\uamqp\src/session.c ****             }
 2892              		.loc 1 710 0
 2893 04b6 0621     		movs	r1, #6
 2894 04b8 3000     		movs	r0, r6
 2895 04ba FFF7FEFF 		bl	session_set_state
 2896              	.LVL434:
 2897              	.L151:
 2898              	.LBE48:
 714:Source\azure_iot_sdk\uamqp\src/session.c **** 
 2899              		.loc 1 714 0
 2900 04be 0AB0     		add	sp, sp, #40
 2901              		@ sp needed
 2902              	.LVL435:
 2903 04c0 04BC     		pop	{r2}
 2904 04c2 9146     		mov	r9, r2
 2905 04c4 F0BD     		pop	{r4, r5, r6, r7, pc}
 2906              	.L212:
 2907 04c6 C046     		.align	2
 2908              	.L211:
 2909 04c8 F4010000 		.word	.LC35
 2910 04cc 5C000000 		.word	.LC8
 2911 04d0 14020000 		.word	.LC37
 2912 04d4 B4010000 		.word	.LC29
 2913 04d8 B8010000 		.word	.LC31
 2914 04dc 3C020000 		.word	.LC39
 2915 04e0 54020000 		.word	.LC41
 2916 04e4 2C000000 		.word	.LC2
 2917              		.cfi_endproc
 2918              	.LFE10:
 2919              		.size	on_frame_received, .-on_frame_received
 2920              		.section	.text.session_destroy_link_endpoint,"ax",%progbits
 2921              		.align	2
 2922              		.global	session_destroy_link_endpoint
 2923              		.code	16
 2924              		.thumb_func
 2925              		.type	session_destroy_link_endpoint, %function
ARM GAS  C:\Users\Phuong\AppData\Local\Temp\ccX7yw2d.s 			page 81


 2926              	session_destroy_link_endpoint:
 2927              	.LFB23:
1150:Source\azure_iot_sdk\uamqp\src/session.c ****     if (link_endpoint != NULL)
 2928              		.loc 1 1150 0
 2929              		.cfi_startproc
 2930              		@ args = 0, pretend = 0, frame = 0
 2931              		@ frame_needed = 0, uses_anonymous_args = 0
 2932              	.LVL436:
 2933 0000 10B5     		push	{r4, lr}
 2934              		.cfi_def_cfa_offset 8
 2935              		.cfi_offset 4, -8
 2936              		.cfi_offset 14, -4
 2937 0002 041E     		subs	r4, r0, #0
1151:Source\azure_iot_sdk\uamqp\src/session.c ****     {
 2938              		.loc 1 1151 0
 2939 0004 0CD0     		beq	.L213
 2940              	.LVL437:
 2941              	.LBB49:
1155:Source\azure_iot_sdk\uamqp\src/session.c ****         {
 2942              		.loc 1 1155 0
 2943 0006 2023     		movs	r3, #32
 2944 0008 C35C     		ldrb	r3, [r0, r3]
 2945 000a 012B     		cmp	r3, #1
 2946 000c 03D1     		bne	.L215
1157:Source\azure_iot_sdk\uamqp\src/session.c ****         }
 2947              		.loc 1 1157 0
 2948 000e 0222     		movs	r2, #2
 2949 0010 1F33     		adds	r3, r3, #31
 2950 0012 C254     		strb	r2, [r0, r3]
 2951 0014 04E0     		b	.L213
 2952              	.L215:
1161:Source\azure_iot_sdk\uamqp\src/session.c ****             free_link_endpoint(link_endpoint);
 2953              		.loc 1 1161 0
 2954 0016 FFF7FEFF 		bl	remove_link_endpoint
 2955              	.LVL438:
1162:Source\azure_iot_sdk\uamqp\src/session.c ****         }
 2956              		.loc 1 1162 0
 2957 001a 2000     		movs	r0, r4
 2958 001c FFF7FEFF 		bl	free_link_endpoint
 2959              	.LVL439:
 2960              	.L213:
 2961              	.LBE49:
1165:Source\azure_iot_sdk\uamqp\src/session.c **** 
 2962              		.loc 1 1165 0
 2963              		@ sp needed
 2964              	.LVL440:
 2965 0020 10BD     		pop	{r4, pc}
 2966              		.cfi_endproc
 2967              	.LFE23:
 2968              		.size	session_destroy_link_endpoint, .-session_destroy_link_endpoint
 2969 0022 C046     		.section	.text.session_start_link_endpoint,"ax",%progbits
 2970              		.align	2
 2971              		.global	session_start_link_endpoint
 2972              		.code	16
 2973              		.thumb_func
 2974              		.type	session_start_link_endpoint, %function
 2975              	session_start_link_endpoint:
ARM GAS  C:\Users\Phuong\AppData\Local\Temp\ccX7yw2d.s 			page 82


 2976              	.LFB24:
1168:Source\azure_iot_sdk\uamqp\src/session.c ****     int result;
 2977              		.loc 1 1168 0
 2978              		.cfi_startproc
 2979              		@ args = 4, pretend = 0, frame = 0
 2980              		@ frame_needed = 0, uses_anonymous_args = 0
 2981              	.LVL441:
 2982 0000 10B5     		push	{r4, lr}
 2983              		.cfi_def_cfa_offset 8
 2984              		.cfi_offset 4, -8
 2985              		.cfi_offset 14, -4
 2986 0002 1400     		movs	r4, r2
1171:Source\azure_iot_sdk\uamqp\src/session.c ****         (frame_received_callback == NULL))
 2987              		.loc 1 1171 0
 2988 0004 0028     		cmp	r0, #0
 2989 0006 12D0     		beq	.L218
1171:Source\azure_iot_sdk\uamqp\src/session.c ****         (frame_received_callback == NULL))
 2990              		.loc 1 1171 0 is_stmt 0 discriminator 1
 2991 0008 0029     		cmp	r1, #0
 2992 000a 12D0     		beq	.L219
1178:Source\azure_iot_sdk\uamqp\src/session.c ****         link_endpoint->on_session_state_changed = on_session_state_changed;
 2993              		.loc 1 1178 0 is_stmt 1
 2994 000c C160     		str	r1, [r0, #12]
1179:Source\azure_iot_sdk\uamqp\src/session.c ****         link_endpoint->on_session_flow_on = on_session_flow_on;
 2995              		.loc 1 1179 0
 2996 000e 0261     		str	r2, [r0, #16]
1180:Source\azure_iot_sdk\uamqp\src/session.c ****         link_endpoint->callback_context = context;
 2997              		.loc 1 1180 0
 2998 0010 4361     		str	r3, [r0, #20]
1181:Source\azure_iot_sdk\uamqp\src/session.c ****         link_endpoint->link_endpoint_state = LINK_ENDPOINT_STATE_NOT_ATTACHED;
 2999              		.loc 1 1181 0
 3000 0012 029B     		ldr	r3, [sp, #8]
 3001              	.LVL442:
 3002 0014 8361     		str	r3, [r0, #24]
1182:Source\azure_iot_sdk\uamqp\src/session.c **** 
 3003              		.loc 1 1182 0
 3004 0016 0022     		movs	r2, #0
 3005              	.LVL443:
 3006 0018 2023     		movs	r3, #32
 3007 001a C254     		strb	r2, [r0, r3]
 3008              	.LVL444:
1184:Source\azure_iot_sdk\uamqp\src/session.c ****         {
 3009              		.loc 1 1184 0
 3010 001c 002C     		cmp	r4, #0
 3011 001e 0AD0     		beq	.L220
1186:Source\azure_iot_sdk\uamqp\src/session.c ****         }
 3012              		.loc 1 1186 0
 3013 0020 C369     		ldr	r3, [r0, #28]
 3014 0022 5A7A     		ldrb	r2, [r3, #9]
 3015 0024 197A     		ldrb	r1, [r3, #8]
 3016              	.LVL445:
 3017 0026 0298     		ldr	r0, [sp, #8]
 3018              	.LVL446:
 3019 0028 A047     		blx	r4
 3020              	.LVL447:
1189:Source\azure_iot_sdk\uamqp\src/session.c ****     }
 3021              		.loc 1 1189 0
ARM GAS  C:\Users\Phuong\AppData\Local\Temp\ccX7yw2d.s 			page 83


 3022 002a 0020     		movs	r0, #0
 3023 002c 04E0     		b	.L217
 3024              	.LVL448:
 3025              	.L218:
1174:Source\azure_iot_sdk\uamqp\src/session.c ****     }
 3026              		.loc 1 1174 0
 3027 002e 0348     		ldr	r0, .L221
 3028              	.LVL449:
 3029 0030 02E0     		b	.L217
 3030              	.LVL450:
 3031              	.L219:
 3032 0032 0248     		ldr	r0, .L221
 3033              	.LVL451:
 3034 0034 00E0     		b	.L217
 3035              	.LVL452:
 3036              	.L220:
1189:Source\azure_iot_sdk\uamqp\src/session.c ****     }
 3037              		.loc 1 1189 0
 3038 0036 0020     		movs	r0, #0
 3039              	.LVL453:
 3040              	.L217:
1193:Source\azure_iot_sdk\uamqp\src/session.c **** 
 3041              		.loc 1 1193 0
 3042              		@ sp needed
 3043              	.LVL454:
 3044 0038 10BD     		pop	{r4, pc}
 3045              	.L222:
 3046 003a C046     		.align	2
 3047              	.L221:
 3048 003c 96040000 		.word	1174
 3049              		.cfi_endproc
 3050              	.LFE24:
 3051              		.size	session_start_link_endpoint, .-session_start_link_endpoint
 3052              		.section	.text.session_send_flow,"ax",%progbits
 3053              		.align	2
 3054              		.global	session_send_flow
 3055              		.code	16
 3056              		.thumb_func
 3057              		.type	session_send_flow, %function
 3058              	session_send_flow:
 3059              	.LFB26:
1221:Source\azure_iot_sdk\uamqp\src/session.c **** 
1222:Source\azure_iot_sdk\uamqp\src/session.c **** int session_send_flow(LINK_ENDPOINT_HANDLE link_endpoint, FLOW_HANDLE flow)
1223:Source\azure_iot_sdk\uamqp\src/session.c **** {
 3060              		.loc 1 1223 0
 3061              		.cfi_startproc
 3062              		@ args = 0, pretend = 0, frame = 0
 3063              		@ frame_needed = 0, uses_anonymous_args = 0
 3064              	.LVL455:
 3065 0000 F8B5     		push	{r3, r4, r5, r6, r7, lr}
 3066              		.cfi_def_cfa_offset 24
 3067              		.cfi_offset 3, -24
 3068              		.cfi_offset 4, -20
 3069              		.cfi_offset 5, -16
 3070              		.cfi_offset 6, -12
 3071              		.cfi_offset 7, -8
 3072              		.cfi_offset 14, -4
ARM GAS  C:\Users\Phuong\AppData\Local\Temp\ccX7yw2d.s 			page 84


 3073 0002 0500     		movs	r5, r0
 3074 0004 0E00     		movs	r6, r1
1224:Source\azure_iot_sdk\uamqp\src/session.c ****     int result;
1225:Source\azure_iot_sdk\uamqp\src/session.c **** 
1226:Source\azure_iot_sdk\uamqp\src/session.c ****     if ((link_endpoint == NULL) ||
 3075              		.loc 1 1226 0
 3076 0006 0028     		cmp	r0, #0
 3077 0008 42D0     		beq	.L227
 3078              		.loc 1 1226 0 is_stmt 0 discriminator 1
 3079 000a 0029     		cmp	r1, #0
 3080 000c 42D0     		beq	.L228
 3081              	.LVL456:
 3082              	.LBB50:
1227:Source\azure_iot_sdk\uamqp\src/session.c ****         (flow == NULL))
1228:Source\azure_iot_sdk\uamqp\src/session.c ****     {
1229:Source\azure_iot_sdk\uamqp\src/session.c ****         result = __FAILURE__;
1230:Source\azure_iot_sdk\uamqp\src/session.c ****     }
1231:Source\azure_iot_sdk\uamqp\src/session.c ****     else
1232:Source\azure_iot_sdk\uamqp\src/session.c ****     {
1233:Source\azure_iot_sdk\uamqp\src/session.c ****         LINK_ENDPOINT_INSTANCE* link_endpoint_instance = (LINK_ENDPOINT_INSTANCE*)link_endpoint;
1234:Source\azure_iot_sdk\uamqp\src/session.c ****         SESSION_INSTANCE* session_instance = (SESSION_INSTANCE*)link_endpoint_instance->session;
 3083              		.loc 1 1234 0 is_stmt 1
 3084 000e C769     		ldr	r7, [r0, #28]
 3085              	.LVL457:
1235:Source\azure_iot_sdk\uamqp\src/session.c **** 
1236:Source\azure_iot_sdk\uamqp\src/session.c ****         result = 0;
1237:Source\azure_iot_sdk\uamqp\src/session.c **** 
1238:Source\azure_iot_sdk\uamqp\src/session.c ****         if (session_instance->session_state == SESSION_STATE_BEGIN_RCVD)
 3086              		.loc 1 1238 0
 3087 0010 3B7A     		ldrb	r3, [r7, #8]
 3088 0012 022B     		cmp	r3, #2
 3089 0014 07D1     		bne	.L229
1239:Source\azure_iot_sdk\uamqp\src/session.c ****         {
1240:Source\azure_iot_sdk\uamqp\src/session.c ****             if (flow_set_next_incoming_id(flow, session_instance->next_incoming_id) != 0)
 3090              		.loc 1 1240 0
 3091 0016 B96A     		ldr	r1, [r7, #40]
 3092              	.LVL458:
 3093 0018 3000     		movs	r0, r6
 3094              	.LVL459:
 3095 001a FFF7FEFF 		bl	flow_set_next_incoming_id
 3096              	.LVL460:
 3097 001e 0028     		cmp	r0, #0
 3098 0020 03D1     		bne	.L230
1236:Source\azure_iot_sdk\uamqp\src/session.c **** 
 3099              		.loc 1 1236 0
 3100 0022 0024     		movs	r4, #0
 3101 0024 02E0     		b	.L225
 3102              	.LVL461:
 3103              	.L229:
 3104 0026 0024     		movs	r4, #0
 3105 0028 00E0     		b	.L225
 3106              	.LVL462:
 3107              	.L230:
1241:Source\azure_iot_sdk\uamqp\src/session.c ****             {
1242:Source\azure_iot_sdk\uamqp\src/session.c ****                 result = __FAILURE__;
 3108              		.loc 1 1242 0
 3109 002a 224C     		ldr	r4, .L237
ARM GAS  C:\Users\Phuong\AppData\Local\Temp\ccX7yw2d.s 			page 85


 3110              	.L225:
 3111              	.LVL463:
1243:Source\azure_iot_sdk\uamqp\src/session.c ****             }
1244:Source\azure_iot_sdk\uamqp\src/session.c ****         }
1245:Source\azure_iot_sdk\uamqp\src/session.c **** 
1246:Source\azure_iot_sdk\uamqp\src/session.c ****         if (result == 0)
 3112              		.loc 1 1246 0
 3113 002c 002C     		cmp	r4, #0
 3114 002e 3ED1     		bne	.L224
1247:Source\azure_iot_sdk\uamqp\src/session.c ****         {
1248:Source\azure_iot_sdk\uamqp\src/session.c ****             if ((flow_set_next_incoming_id(flow, session_instance->next_incoming_id) != 0) ||
 3115              		.loc 1 1248 0
 3116 0030 B96A     		ldr	r1, [r7, #40]
 3117 0032 3000     		movs	r0, r6
 3118 0034 FFF7FEFF 		bl	flow_set_next_incoming_id
 3119              	.LVL464:
 3120 0038 0028     		cmp	r0, #0
 3121 003a 2DD1     		bne	.L231
1249:Source\azure_iot_sdk\uamqp\src/session.c ****                 (flow_set_incoming_window(flow, session_instance->incoming_window) != 0) ||
 3122              		.loc 1 1249 0 discriminator 1
 3123 003c 396B     		ldr	r1, [r7, #48]
 3124 003e 3000     		movs	r0, r6
 3125 0040 FFF7FEFF 		bl	flow_set_incoming_window
 3126              	.LVL465:
1248:Source\azure_iot_sdk\uamqp\src/session.c ****                 (flow_set_incoming_window(flow, session_instance->incoming_window) != 0) ||
 3127              		.loc 1 1248 0 discriminator 1
 3128 0044 0028     		cmp	r0, #0
 3129 0046 29D1     		bne	.L232
1250:Source\azure_iot_sdk\uamqp\src/session.c ****                 (flow_set_next_outgoing_id(flow, session_instance->next_outgoing_id) != 0) ||
 3130              		.loc 1 1250 0
 3131 0048 796A     		ldr	r1, [r7, #36]
 3132 004a 3000     		movs	r0, r6
 3133 004c FFF7FEFF 		bl	flow_set_next_outgoing_id
 3134              	.LVL466:
1249:Source\azure_iot_sdk\uamqp\src/session.c ****                 (flow_set_incoming_window(flow, session_instance->incoming_window) != 0) ||
 3135              		.loc 1 1249 0
 3136 0050 0028     		cmp	r0, #0
 3137 0052 25D1     		bne	.L233
1251:Source\azure_iot_sdk\uamqp\src/session.c ****                 (flow_set_outgoing_window(flow, session_instance->outgoing_window) != 0) ||
 3138              		.loc 1 1251 0
 3139 0054 796B     		ldr	r1, [r7, #52]
 3140 0056 3000     		movs	r0, r6
 3141 0058 FFF7FEFF 		bl	flow_set_outgoing_window
 3142              	.LVL467:
1250:Source\azure_iot_sdk\uamqp\src/session.c ****                 (flow_set_next_outgoing_id(flow, session_instance->next_outgoing_id) != 0) ||
 3143              		.loc 1 1250 0
 3144 005c 0028     		cmp	r0, #0
 3145 005e 21D1     		bne	.L234
1252:Source\azure_iot_sdk\uamqp\src/session.c ****                 (flow_set_handle(flow, link_endpoint_instance->output_handle) != 0))
 3146              		.loc 1 1252 0
 3147 0060 A968     		ldr	r1, [r5, #8]
 3148 0062 3000     		movs	r0, r6
 3149 0064 FFF7FEFF 		bl	flow_set_handle
 3150              	.LVL468:
1251:Source\azure_iot_sdk\uamqp\src/session.c ****                 (flow_set_outgoing_window(flow, session_instance->outgoing_window) != 0) ||
 3151              		.loc 1 1251 0
 3152 0068 0028     		cmp	r0, #0
ARM GAS  C:\Users\Phuong\AppData\Local\Temp\ccX7yw2d.s 			page 86


 3153 006a 1DD1     		bne	.L235
 3154              	.LBB51:
1253:Source\azure_iot_sdk\uamqp\src/session.c ****             {
1254:Source\azure_iot_sdk\uamqp\src/session.c ****                 result = __FAILURE__;
1255:Source\azure_iot_sdk\uamqp\src/session.c ****             }
1256:Source\azure_iot_sdk\uamqp\src/session.c ****             else
1257:Source\azure_iot_sdk\uamqp\src/session.c ****             {
1258:Source\azure_iot_sdk\uamqp\src/session.c ****                 AMQP_VALUE flow_performative_value = amqpvalue_create_flow(flow);
 3155              		.loc 1 1258 0
 3156 006c 3000     		movs	r0, r6
 3157 006e FFF7FEFF 		bl	amqpvalue_create_flow
 3158              	.LVL469:
 3159 0072 061E     		subs	r6, r0, #0
 3160              	.LVL470:
1259:Source\azure_iot_sdk\uamqp\src/session.c ****                 if (flow_performative_value == NULL)
 3161              		.loc 1 1259 0
 3162 0074 1AD0     		beq	.L236
1260:Source\azure_iot_sdk\uamqp\src/session.c ****                 {
1261:Source\azure_iot_sdk\uamqp\src/session.c ****                     result = __FAILURE__;
1262:Source\azure_iot_sdk\uamqp\src/session.c ****                 }
1263:Source\azure_iot_sdk\uamqp\src/session.c ****                 else
1264:Source\azure_iot_sdk\uamqp\src/session.c ****                 {
1265:Source\azure_iot_sdk\uamqp\src/session.c ****                     if (encode_frame(link_endpoint, flow_performative_value, NULL, 0) != 0)
 3163              		.loc 1 1265 0
 3164 0076 0023     		movs	r3, #0
 3165 0078 1A00     		movs	r2, r3
 3166 007a 0100     		movs	r1, r0
 3167 007c 2800     		movs	r0, r5
 3168              	.LVL471:
 3169 007e FFF7FEFF 		bl	encode_frame
 3170              	.LVL472:
 3171 0082 0028     		cmp	r0, #0
 3172 0084 00D0     		beq	.L226
1266:Source\azure_iot_sdk\uamqp\src/session.c ****                     {
1267:Source\azure_iot_sdk\uamqp\src/session.c ****                         result = __FAILURE__;
 3173              		.loc 1 1267 0
 3174 0086 0C4C     		ldr	r4, .L237+4
 3175              	.LVL473:
 3176              	.L226:
1268:Source\azure_iot_sdk\uamqp\src/session.c ****                     }
1269:Source\azure_iot_sdk\uamqp\src/session.c ****                     else
1270:Source\azure_iot_sdk\uamqp\src/session.c ****                     {
1271:Source\azure_iot_sdk\uamqp\src/session.c ****                         result = 0;
1272:Source\azure_iot_sdk\uamqp\src/session.c ****                     }
1273:Source\azure_iot_sdk\uamqp\src/session.c **** 
1274:Source\azure_iot_sdk\uamqp\src/session.c ****                     amqpvalue_destroy(flow_performative_value);
 3177              		.loc 1 1274 0
 3178 0088 3000     		movs	r0, r6
 3179 008a FFF7FEFF 		bl	amqpvalue_destroy
 3180              	.LVL474:
 3181 008e 0EE0     		b	.L224
 3182              	.LVL475:
 3183              	.L227:
 3184              	.LBE51:
 3185              	.LBE50:
1229:Source\azure_iot_sdk\uamqp\src/session.c ****     }
 3186              		.loc 1 1229 0
ARM GAS  C:\Users\Phuong\AppData\Local\Temp\ccX7yw2d.s 			page 87


 3187 0090 0A4C     		ldr	r4, .L237+8
 3188 0092 0CE0     		b	.L224
 3189              	.L228:
 3190 0094 094C     		ldr	r4, .L237+8
 3191 0096 0AE0     		b	.L224
 3192              	.LVL476:
 3193              	.L231:
 3194              	.LBB53:
1254:Source\azure_iot_sdk\uamqp\src/session.c ****             }
 3195              		.loc 1 1254 0
 3196 0098 094C     		ldr	r4, .L237+12
 3197              	.LVL477:
 3198 009a 08E0     		b	.L224
 3199              	.LVL478:
 3200              	.L232:
 3201 009c 084C     		ldr	r4, .L237+12
 3202              	.LVL479:
 3203 009e 06E0     		b	.L224
 3204              	.LVL480:
 3205              	.L233:
 3206 00a0 074C     		ldr	r4, .L237+12
 3207              	.LVL481:
 3208 00a2 04E0     		b	.L224
 3209              	.LVL482:
 3210              	.L234:
 3211 00a4 064C     		ldr	r4, .L237+12
 3212              	.LVL483:
 3213 00a6 02E0     		b	.L224
 3214              	.LVL484:
 3215              	.L235:
 3216 00a8 054C     		ldr	r4, .L237+12
 3217              	.LVL485:
 3218 00aa 00E0     		b	.L224
 3219              	.LVL486:
 3220              	.L236:
 3221              	.LBB52:
1261:Source\azure_iot_sdk\uamqp\src/session.c ****                 }
 3222              		.loc 1 1261 0
 3223 00ac 054C     		ldr	r4, .L237+16
 3224              	.LVL487:
 3225              	.L224:
 3226              	.LBE52:
 3227              	.LBE53:
1275:Source\azure_iot_sdk\uamqp\src/session.c ****                 }
1276:Source\azure_iot_sdk\uamqp\src/session.c ****             }
1277:Source\azure_iot_sdk\uamqp\src/session.c ****         }
1278:Source\azure_iot_sdk\uamqp\src/session.c ****     }
1279:Source\azure_iot_sdk\uamqp\src/session.c **** 
1280:Source\azure_iot_sdk\uamqp\src/session.c ****     return result;
1281:Source\azure_iot_sdk\uamqp\src/session.c **** }
 3228              		.loc 1 1281 0
 3229 00ae 2000     		movs	r0, r4
 3230              		@ sp needed
 3231              	.LVL488:
 3232              	.LVL489:
 3233 00b0 F8BD     		pop	{r3, r4, r5, r6, r7, pc}
 3234              	.L238:
ARM GAS  C:\Users\Phuong\AppData\Local\Temp\ccX7yw2d.s 			page 88


 3235 00b2 C046     		.align	2
 3236              	.L237:
 3237 00b4 DA040000 		.word	1242
 3238 00b8 F3040000 		.word	1267
 3239 00bc CD040000 		.word	1229
 3240 00c0 E6040000 		.word	1254
 3241 00c4 ED040000 		.word	1261
 3242              		.cfi_endproc
 3243              	.LFE26:
 3244              		.size	session_send_flow, .-session_send_flow
 3245              		.section	.text.session_send_attach,"ax",%progbits
 3246              		.align	2
 3247              		.global	session_send_attach
 3248              		.code	16
 3249              		.thumb_func
 3250              		.type	session_send_attach, %function
 3251              	session_send_attach:
 3252              	.LFB27:
1282:Source\azure_iot_sdk\uamqp\src/session.c **** 
1283:Source\azure_iot_sdk\uamqp\src/session.c **** int session_send_attach(LINK_ENDPOINT_HANDLE link_endpoint, ATTACH_HANDLE attach)
1284:Source\azure_iot_sdk\uamqp\src/session.c **** {
 3253              		.loc 1 1284 0
 3254              		.cfi_startproc
 3255              		@ args = 0, pretend = 0, frame = 0
 3256              		@ frame_needed = 0, uses_anonymous_args = 0
 3257              	.LVL490:
 3258 0000 70B5     		push	{r4, r5, r6, lr}
 3259              		.cfi_def_cfa_offset 16
 3260              		.cfi_offset 4, -16
 3261              		.cfi_offset 5, -12
 3262              		.cfi_offset 6, -8
 3263              		.cfi_offset 14, -4
 3264 0002 0400     		movs	r4, r0
 3265 0004 0D00     		movs	r5, r1
1285:Source\azure_iot_sdk\uamqp\src/session.c ****     int result;
1286:Source\azure_iot_sdk\uamqp\src/session.c **** 
1287:Source\azure_iot_sdk\uamqp\src/session.c ****     if ((link_endpoint == NULL) ||
 3266              		.loc 1 1287 0
 3267 0006 0028     		cmp	r0, #0
 3268 0008 1BD0     		beq	.L242
 3269              		.loc 1 1287 0 is_stmt 0 discriminator 1
 3270 000a 0029     		cmp	r1, #0
 3271 000c 1BD0     		beq	.L243
 3272              	.LVL491:
 3273              	.LBB54:
1288:Source\azure_iot_sdk\uamqp\src/session.c ****         (attach == NULL))
1289:Source\azure_iot_sdk\uamqp\src/session.c ****     {
1290:Source\azure_iot_sdk\uamqp\src/session.c ****         result = __FAILURE__;
1291:Source\azure_iot_sdk\uamqp\src/session.c ****     }
1292:Source\azure_iot_sdk\uamqp\src/session.c ****     else
1293:Source\azure_iot_sdk\uamqp\src/session.c ****     {
1294:Source\azure_iot_sdk\uamqp\src/session.c ****         LINK_ENDPOINT_INSTANCE* link_endpoint_instance = (LINK_ENDPOINT_INSTANCE*)link_endpoint;
1295:Source\azure_iot_sdk\uamqp\src/session.c **** 
1296:Source\azure_iot_sdk\uamqp\src/session.c ****         if (attach_set_handle(attach, link_endpoint_instance->output_handle) != 0)
 3274              		.loc 1 1296 0 is_stmt 1
 3275 000e 8168     		ldr	r1, [r0, #8]
 3276              	.LVL492:
ARM GAS  C:\Users\Phuong\AppData\Local\Temp\ccX7yw2d.s 			page 89


 3277 0010 2800     		movs	r0, r5
 3278              	.LVL493:
 3279 0012 FFF7FEFF 		bl	attach_set_handle
 3280              	.LVL494:
 3281 0016 0028     		cmp	r0, #0
 3282 0018 17D1     		bne	.L244
 3283              	.LBB55:
1297:Source\azure_iot_sdk\uamqp\src/session.c ****         {
1298:Source\azure_iot_sdk\uamqp\src/session.c ****             result = __FAILURE__;
1299:Source\azure_iot_sdk\uamqp\src/session.c ****         }
1300:Source\azure_iot_sdk\uamqp\src/session.c ****         else
1301:Source\azure_iot_sdk\uamqp\src/session.c ****         {
1302:Source\azure_iot_sdk\uamqp\src/session.c ****             AMQP_VALUE attach_performative_value = amqpvalue_create_attach(attach);
 3284              		.loc 1 1302 0
 3285 001a 2800     		movs	r0, r5
 3286 001c FFF7FEFF 		bl	amqpvalue_create_attach
 3287              	.LVL495:
 3288 0020 051E     		subs	r5, r0, #0
 3289              	.LVL496:
1303:Source\azure_iot_sdk\uamqp\src/session.c ****             if (attach_performative_value == NULL)
 3290              		.loc 1 1303 0
 3291 0022 14D0     		beq	.L245
1304:Source\azure_iot_sdk\uamqp\src/session.c ****             {
1305:Source\azure_iot_sdk\uamqp\src/session.c ****                 result = __FAILURE__;
1306:Source\azure_iot_sdk\uamqp\src/session.c ****             }
1307:Source\azure_iot_sdk\uamqp\src/session.c ****             else
1308:Source\azure_iot_sdk\uamqp\src/session.c ****             {
1309:Source\azure_iot_sdk\uamqp\src/session.c ****                 if (encode_frame(link_endpoint, attach_performative_value, NULL, 0) != 0)
 3292              		.loc 1 1309 0
 3293 0024 0023     		movs	r3, #0
 3294 0026 0022     		movs	r2, #0
 3295 0028 0100     		movs	r1, r0
 3296 002a 2000     		movs	r0, r4
 3297              	.LVL497:
 3298 002c FFF7FEFF 		bl	encode_frame
 3299              	.LVL498:
 3300 0030 0028     		cmp	r0, #0
 3301 0032 01D0     		beq	.L246
1310:Source\azure_iot_sdk\uamqp\src/session.c ****                 {
1311:Source\azure_iot_sdk\uamqp\src/session.c ****                     result = __FAILURE__;
 3302              		.loc 1 1311 0
 3303 0034 074C     		ldr	r4, .L247
 3304              	.LVL499:
 3305 0036 00E0     		b	.L241
 3306              	.LVL500:
 3307              	.L246:
1312:Source\azure_iot_sdk\uamqp\src/session.c ****                 }
1313:Source\azure_iot_sdk\uamqp\src/session.c ****                 else
1314:Source\azure_iot_sdk\uamqp\src/session.c ****                 {
1315:Source\azure_iot_sdk\uamqp\src/session.c ****                     result = 0;
 3308              		.loc 1 1315 0
 3309 0038 0024     		movs	r4, #0
 3310              	.LVL501:
 3311              	.L241:
1316:Source\azure_iot_sdk\uamqp\src/session.c ****                 }
1317:Source\azure_iot_sdk\uamqp\src/session.c **** 
1318:Source\azure_iot_sdk\uamqp\src/session.c ****                 amqpvalue_destroy(attach_performative_value);
ARM GAS  C:\Users\Phuong\AppData\Local\Temp\ccX7yw2d.s 			page 90


 3312              		.loc 1 1318 0
 3313 003a 2800     		movs	r0, r5
 3314 003c FFF7FEFF 		bl	amqpvalue_destroy
 3315              	.LVL502:
 3316 0040 06E0     		b	.L240
 3317              	.LVL503:
 3318              	.L242:
 3319              	.LBE55:
 3320              	.LBE54:
1290:Source\azure_iot_sdk\uamqp\src/session.c ****     }
 3321              		.loc 1 1290 0
 3322 0042 054C     		ldr	r4, .L247+4
 3323 0044 04E0     		b	.L240
 3324              	.L243:
 3325 0046 044C     		ldr	r4, .L247+4
 3326 0048 02E0     		b	.L240
 3327              	.LVL504:
 3328              	.L244:
 3329              	.LBB57:
1298:Source\azure_iot_sdk\uamqp\src/session.c ****         }
 3330              		.loc 1 1298 0
 3331 004a 044C     		ldr	r4, .L247+8
 3332              	.LVL505:
 3333 004c 00E0     		b	.L240
 3334              	.LVL506:
 3335              	.L245:
 3336              	.LBB56:
1305:Source\azure_iot_sdk\uamqp\src/session.c ****             }
 3337              		.loc 1 1305 0
 3338 004e 044C     		ldr	r4, .L247+12
 3339              	.LVL507:
 3340              	.L240:
 3341              	.LBE56:
 3342              	.LBE57:
1319:Source\azure_iot_sdk\uamqp\src/session.c ****             }
1320:Source\azure_iot_sdk\uamqp\src/session.c ****         }
1321:Source\azure_iot_sdk\uamqp\src/session.c ****     }
1322:Source\azure_iot_sdk\uamqp\src/session.c **** 
1323:Source\azure_iot_sdk\uamqp\src/session.c ****     return result;
1324:Source\azure_iot_sdk\uamqp\src/session.c **** }
 3343              		.loc 1 1324 0
 3344 0050 2000     		movs	r0, r4
 3345              		@ sp needed
 3346              	.LVL508:
 3347 0052 70BD     		pop	{r4, r5, r6, pc}
 3348              	.L248:
 3349              		.align	2
 3350              	.L247:
 3351 0054 1F050000 		.word	1311
 3352 0058 0A050000 		.word	1290
 3353 005c 12050000 		.word	1298
 3354 0060 19050000 		.word	1305
 3355              		.cfi_endproc
 3356              	.LFE27:
 3357              		.size	session_send_attach, .-session_send_attach
 3358              		.section	.text.session_send_disposition,"ax",%progbits
 3359              		.align	2
ARM GAS  C:\Users\Phuong\AppData\Local\Temp\ccX7yw2d.s 			page 91


 3360              		.global	session_send_disposition
 3361              		.code	16
 3362              		.thumb_func
 3363              		.type	session_send_disposition, %function
 3364              	session_send_disposition:
 3365              	.LFB28:
1325:Source\azure_iot_sdk\uamqp\src/session.c **** 
1326:Source\azure_iot_sdk\uamqp\src/session.c **** int session_send_disposition(LINK_ENDPOINT_HANDLE link_endpoint, DISPOSITION_HANDLE disposition)
1327:Source\azure_iot_sdk\uamqp\src/session.c **** {
 3366              		.loc 1 1327 0
 3367              		.cfi_startproc
 3368              		@ args = 0, pretend = 0, frame = 0
 3369              		@ frame_needed = 0, uses_anonymous_args = 0
 3370              	.LVL509:
 3371 0000 70B5     		push	{r4, r5, r6, lr}
 3372              		.cfi_def_cfa_offset 16
 3373              		.cfi_offset 4, -16
 3374              		.cfi_offset 5, -12
 3375              		.cfi_offset 6, -8
 3376              		.cfi_offset 14, -4
 3377 0002 041E     		subs	r4, r0, #0
1328:Source\azure_iot_sdk\uamqp\src/session.c ****     int result;
1329:Source\azure_iot_sdk\uamqp\src/session.c **** 
1330:Source\azure_iot_sdk\uamqp\src/session.c ****     if ((link_endpoint == NULL) ||
 3378              		.loc 1 1330 0
 3379 0004 15D0     		beq	.L252
 3380              		.loc 1 1330 0 is_stmt 0 discriminator 1
 3381 0006 0029     		cmp	r1, #0
 3382 0008 15D0     		beq	.L253
 3383              	.LBB58:
1331:Source\azure_iot_sdk\uamqp\src/session.c ****         (disposition == NULL))
1332:Source\azure_iot_sdk\uamqp\src/session.c ****     {
1333:Source\azure_iot_sdk\uamqp\src/session.c ****         result = __FAILURE__;
1334:Source\azure_iot_sdk\uamqp\src/session.c ****     }
1335:Source\azure_iot_sdk\uamqp\src/session.c ****     else
1336:Source\azure_iot_sdk\uamqp\src/session.c ****     {
1337:Source\azure_iot_sdk\uamqp\src/session.c ****         AMQP_VALUE disposition_performative_value = amqpvalue_create_disposition(disposition);
 3384              		.loc 1 1337 0 is_stmt 1
 3385 000a 0800     		movs	r0, r1
 3386              	.LVL510:
 3387 000c FFF7FEFF 		bl	amqpvalue_create_disposition
 3388              	.LVL511:
 3389 0010 051E     		subs	r5, r0, #0
 3390              	.LVL512:
1338:Source\azure_iot_sdk\uamqp\src/session.c ****         if (disposition_performative_value == NULL)
 3391              		.loc 1 1338 0
 3392 0012 12D0     		beq	.L254
1339:Source\azure_iot_sdk\uamqp\src/session.c ****         {
1340:Source\azure_iot_sdk\uamqp\src/session.c ****             result = __FAILURE__;
1341:Source\azure_iot_sdk\uamqp\src/session.c ****         }
1342:Source\azure_iot_sdk\uamqp\src/session.c ****         else
1343:Source\azure_iot_sdk\uamqp\src/session.c ****         {
1344:Source\azure_iot_sdk\uamqp\src/session.c ****             if (encode_frame(link_endpoint, disposition_performative_value, NULL, 0) != 0)
 3393              		.loc 1 1344 0
 3394 0014 0023     		movs	r3, #0
 3395 0016 0022     		movs	r2, #0
 3396 0018 0100     		movs	r1, r0
ARM GAS  C:\Users\Phuong\AppData\Local\Temp\ccX7yw2d.s 			page 92


 3397 001a 2000     		movs	r0, r4
 3398              	.LVL513:
 3399 001c FFF7FEFF 		bl	encode_frame
 3400              	.LVL514:
 3401 0020 0028     		cmp	r0, #0
 3402 0022 01D0     		beq	.L255
1345:Source\azure_iot_sdk\uamqp\src/session.c ****             {
1346:Source\azure_iot_sdk\uamqp\src/session.c ****                 result = __FAILURE__;
 3403              		.loc 1 1346 0
 3404 0024 064C     		ldr	r4, .L256
 3405              	.LVL515:
 3406 0026 00E0     		b	.L251
 3407              	.LVL516:
 3408              	.L255:
1347:Source\azure_iot_sdk\uamqp\src/session.c ****             }
1348:Source\azure_iot_sdk\uamqp\src/session.c ****             else
1349:Source\azure_iot_sdk\uamqp\src/session.c ****             {
1350:Source\azure_iot_sdk\uamqp\src/session.c ****                 result = 0;
 3409              		.loc 1 1350 0
 3410 0028 0024     		movs	r4, #0
 3411              	.LVL517:
 3412              	.L251:
1351:Source\azure_iot_sdk\uamqp\src/session.c ****             }
1352:Source\azure_iot_sdk\uamqp\src/session.c **** 
1353:Source\azure_iot_sdk\uamqp\src/session.c ****             amqpvalue_destroy(disposition_performative_value);
 3413              		.loc 1 1353 0
 3414 002a 2800     		movs	r0, r5
 3415 002c FFF7FEFF 		bl	amqpvalue_destroy
 3416              	.LVL518:
 3417 0030 04E0     		b	.L250
 3418              	.LVL519:
 3419              	.L252:
 3420              	.LBE58:
1333:Source\azure_iot_sdk\uamqp\src/session.c ****     }
 3421              		.loc 1 1333 0
 3422 0032 044C     		ldr	r4, .L256+4
 3423 0034 02E0     		b	.L250
 3424              	.L253:
 3425 0036 034C     		ldr	r4, .L256+4
 3426 0038 00E0     		b	.L250
 3427              	.LVL520:
 3428              	.L254:
 3429              	.LBB59:
1340:Source\azure_iot_sdk\uamqp\src/session.c ****         }
 3430              		.loc 1 1340 0
 3431 003a 034C     		ldr	r4, .L256+8
 3432              	.LVL521:
 3433              	.L250:
 3434              	.LBE59:
1354:Source\azure_iot_sdk\uamqp\src/session.c ****         }
1355:Source\azure_iot_sdk\uamqp\src/session.c ****     }
1356:Source\azure_iot_sdk\uamqp\src/session.c **** 
1357:Source\azure_iot_sdk\uamqp\src/session.c ****     return result;
1358:Source\azure_iot_sdk\uamqp\src/session.c **** }
 3435              		.loc 1 1358 0
 3436 003c 2000     		movs	r0, r4
 3437              		@ sp needed
ARM GAS  C:\Users\Phuong\AppData\Local\Temp\ccX7yw2d.s 			page 93


 3438              	.LVL522:
 3439 003e 70BD     		pop	{r4, r5, r6, pc}
 3440              	.L257:
 3441              		.align	2
 3442              	.L256:
 3443 0040 42050000 		.word	1346
 3444 0044 35050000 		.word	1333
 3445 0048 3C050000 		.word	1340
 3446              		.cfi_endproc
 3447              	.LFE28:
 3448              		.size	session_send_disposition, .-session_send_disposition
 3449              		.section	.text.session_send_detach,"ax",%progbits
 3450              		.align	2
 3451              		.global	session_send_detach
 3452              		.code	16
 3453              		.thumb_func
 3454              		.type	session_send_detach, %function
 3455              	session_send_detach:
 3456              	.LFB29:
1359:Source\azure_iot_sdk\uamqp\src/session.c **** 
1360:Source\azure_iot_sdk\uamqp\src/session.c **** int session_send_detach(LINK_ENDPOINT_HANDLE link_endpoint, DETACH_HANDLE detach)
1361:Source\azure_iot_sdk\uamqp\src/session.c **** {
 3457              		.loc 1 1361 0
 3458              		.cfi_startproc
 3459              		@ args = 0, pretend = 0, frame = 0
 3460              		@ frame_needed = 0, uses_anonymous_args = 0
 3461              	.LVL523:
 3462 0000 70B5     		push	{r4, r5, r6, lr}
 3463              		.cfi_def_cfa_offset 16
 3464              		.cfi_offset 4, -16
 3465              		.cfi_offset 5, -12
 3466              		.cfi_offset 6, -8
 3467              		.cfi_offset 14, -4
 3468 0002 0400     		movs	r4, r0
 3469 0004 0D00     		movs	r5, r1
1362:Source\azure_iot_sdk\uamqp\src/session.c ****     int result;
1363:Source\azure_iot_sdk\uamqp\src/session.c **** 
1364:Source\azure_iot_sdk\uamqp\src/session.c ****     if ((link_endpoint == NULL) ||
 3470              		.loc 1 1364 0
 3471 0006 0028     		cmp	r0, #0
 3472 0008 1BD0     		beq	.L261
 3473              		.loc 1 1364 0 is_stmt 0 discriminator 1
 3474 000a 0029     		cmp	r1, #0
 3475 000c 1BD0     		beq	.L262
 3476              	.LVL524:
 3477              	.LBB60:
1365:Source\azure_iot_sdk\uamqp\src/session.c ****         (detach == NULL))
1366:Source\azure_iot_sdk\uamqp\src/session.c ****     {
1367:Source\azure_iot_sdk\uamqp\src/session.c ****         result = __FAILURE__;
1368:Source\azure_iot_sdk\uamqp\src/session.c ****     }
1369:Source\azure_iot_sdk\uamqp\src/session.c ****     else
1370:Source\azure_iot_sdk\uamqp\src/session.c ****     {
1371:Source\azure_iot_sdk\uamqp\src/session.c ****         LINK_ENDPOINT_INSTANCE* link_endpoint_instance = (LINK_ENDPOINT_INSTANCE*)link_endpoint;
1372:Source\azure_iot_sdk\uamqp\src/session.c **** 
1373:Source\azure_iot_sdk\uamqp\src/session.c ****         if (detach_set_handle(detach, link_endpoint_instance->output_handle) != 0)
 3478              		.loc 1 1373 0 is_stmt 1
 3479 000e 8168     		ldr	r1, [r0, #8]
ARM GAS  C:\Users\Phuong\AppData\Local\Temp\ccX7yw2d.s 			page 94


 3480              	.LVL525:
 3481 0010 2800     		movs	r0, r5
 3482              	.LVL526:
 3483 0012 FFF7FEFF 		bl	detach_set_handle
 3484              	.LVL527:
 3485 0016 0028     		cmp	r0, #0
 3486 0018 17D1     		bne	.L263
 3487              	.LBB61:
1374:Source\azure_iot_sdk\uamqp\src/session.c ****         {
1375:Source\azure_iot_sdk\uamqp\src/session.c ****             result = __FAILURE__;
1376:Source\azure_iot_sdk\uamqp\src/session.c ****         }
1377:Source\azure_iot_sdk\uamqp\src/session.c ****         else
1378:Source\azure_iot_sdk\uamqp\src/session.c ****         {
1379:Source\azure_iot_sdk\uamqp\src/session.c ****             AMQP_VALUE detach_performative_value = amqpvalue_create_detach(detach);
 3488              		.loc 1 1379 0
 3489 001a 2800     		movs	r0, r5
 3490 001c FFF7FEFF 		bl	amqpvalue_create_detach
 3491              	.LVL528:
 3492 0020 051E     		subs	r5, r0, #0
 3493              	.LVL529:
1380:Source\azure_iot_sdk\uamqp\src/session.c ****             if (detach_performative_value == NULL)
 3494              		.loc 1 1380 0
 3495 0022 14D0     		beq	.L264
1381:Source\azure_iot_sdk\uamqp\src/session.c ****             {
1382:Source\azure_iot_sdk\uamqp\src/session.c ****                 result = __FAILURE__;
1383:Source\azure_iot_sdk\uamqp\src/session.c ****             }
1384:Source\azure_iot_sdk\uamqp\src/session.c ****             else
1385:Source\azure_iot_sdk\uamqp\src/session.c ****             {
1386:Source\azure_iot_sdk\uamqp\src/session.c ****                 if (encode_frame(link_endpoint, detach_performative_value, NULL, 0) != 0)
 3496              		.loc 1 1386 0
 3497 0024 0023     		movs	r3, #0
 3498 0026 0022     		movs	r2, #0
 3499 0028 0100     		movs	r1, r0
 3500 002a 2000     		movs	r0, r4
 3501              	.LVL530:
 3502 002c FFF7FEFF 		bl	encode_frame
 3503              	.LVL531:
 3504 0030 0028     		cmp	r0, #0
 3505 0032 01D0     		beq	.L265
1387:Source\azure_iot_sdk\uamqp\src/session.c ****                 {
1388:Source\azure_iot_sdk\uamqp\src/session.c ****                     result = __FAILURE__;
 3506              		.loc 1 1388 0
 3507 0034 074C     		ldr	r4, .L266
 3508              	.LVL532:
 3509 0036 00E0     		b	.L260
 3510              	.LVL533:
 3511              	.L265:
1389:Source\azure_iot_sdk\uamqp\src/session.c ****                 }
1390:Source\azure_iot_sdk\uamqp\src/session.c ****                 else
1391:Source\azure_iot_sdk\uamqp\src/session.c ****                 {
1392:Source\azure_iot_sdk\uamqp\src/session.c ****                     result = 0;
 3512              		.loc 1 1392 0
 3513 0038 0024     		movs	r4, #0
 3514              	.LVL534:
 3515              	.L260:
1393:Source\azure_iot_sdk\uamqp\src/session.c ****                 }
1394:Source\azure_iot_sdk\uamqp\src/session.c **** 
ARM GAS  C:\Users\Phuong\AppData\Local\Temp\ccX7yw2d.s 			page 95


1395:Source\azure_iot_sdk\uamqp\src/session.c ****                 amqpvalue_destroy(detach_performative_value);
 3516              		.loc 1 1395 0
 3517 003a 2800     		movs	r0, r5
 3518 003c FFF7FEFF 		bl	amqpvalue_destroy
 3519              	.LVL535:
 3520 0040 06E0     		b	.L259
 3521              	.LVL536:
 3522              	.L261:
 3523              	.LBE61:
 3524              	.LBE60:
1367:Source\azure_iot_sdk\uamqp\src/session.c ****     }
 3525              		.loc 1 1367 0
 3526 0042 054C     		ldr	r4, .L266+4
 3527 0044 04E0     		b	.L259
 3528              	.L262:
 3529 0046 044C     		ldr	r4, .L266+4
 3530 0048 02E0     		b	.L259
 3531              	.LVL537:
 3532              	.L263:
 3533              	.LBB63:
1375:Source\azure_iot_sdk\uamqp\src/session.c ****         }
 3534              		.loc 1 1375 0
 3535 004a 044C     		ldr	r4, .L266+8
 3536              	.LVL538:
 3537 004c 00E0     		b	.L259
 3538              	.LVL539:
 3539              	.L264:
 3540              	.LBB62:
1382:Source\azure_iot_sdk\uamqp\src/session.c ****             }
 3541              		.loc 1 1382 0
 3542 004e 044C     		ldr	r4, .L266+12
 3543              	.LVL540:
 3544              	.L259:
 3545              	.LBE62:
 3546              	.LBE63:
1396:Source\azure_iot_sdk\uamqp\src/session.c ****             }
1397:Source\azure_iot_sdk\uamqp\src/session.c ****         }
1398:Source\azure_iot_sdk\uamqp\src/session.c ****     }
1399:Source\azure_iot_sdk\uamqp\src/session.c **** 
1400:Source\azure_iot_sdk\uamqp\src/session.c ****     return result;
1401:Source\azure_iot_sdk\uamqp\src/session.c **** }
 3547              		.loc 1 1401 0
 3548 0050 2000     		movs	r0, r4
 3549              		@ sp needed
 3550              	.LVL541:
 3551 0052 70BD     		pop	{r4, r5, r6, pc}
 3552              	.L267:
 3553              		.align	2
 3554              	.L266:
 3555 0054 6C050000 		.word	1388
 3556 0058 57050000 		.word	1367
 3557 005c 5F050000 		.word	1375
 3558 0060 66050000 		.word	1382
 3559              		.cfi_endproc
 3560              	.LFE29:
 3561              		.size	session_send_detach, .-session_send_detach
 3562              		.section	.text.session_send_transfer,"ax",%progbits
ARM GAS  C:\Users\Phuong\AppData\Local\Temp\ccX7yw2d.s 			page 96


 3563              		.align	2
 3564              		.global	session_send_transfer
 3565              		.code	16
 3566              		.thumb_func
 3567              		.type	session_send_transfer, %function
 3568              	session_send_transfer:
 3569              	.LFB30:
1402:Source\azure_iot_sdk\uamqp\src/session.c **** 
1403:Source\azure_iot_sdk\uamqp\src/session.c **** /* Codes_S_R_S_SESSION_01_051: [session_send_transfer shall send a transfer frame with the performa
1404:Source\azure_iot_sdk\uamqp\src/session.c **** SESSION_SEND_TRANSFER_RESULT session_send_transfer(LINK_ENDPOINT_HANDLE link_endpoint, TRANSFER_HAN
1405:Source\azure_iot_sdk\uamqp\src/session.c **** {
 3570              		.loc 1 1405 0
 3571              		.cfi_startproc
 3572              		@ args = 12, pretend = 0, frame = 24
 3573              		@ frame_needed = 0, uses_anonymous_args = 0
 3574              	.LVL542:
 3575 0000 F0B5     		push	{r4, r5, r6, r7, lr}
 3576              		.cfi_def_cfa_offset 20
 3577              		.cfi_offset 4, -20
 3578              		.cfi_offset 5, -16
 3579              		.cfi_offset 6, -12
 3580              		.cfi_offset 7, -8
 3581              		.cfi_offset 14, -4
 3582 0002 5F46     		mov	r7, fp
 3583 0004 5646     		mov	r6, r10
 3584 0006 4D46     		mov	r5, r9
 3585 0008 4446     		mov	r4, r8
 3586 000a F0B4     		push	{r4, r5, r6, r7}
 3587              		.cfi_def_cfa_offset 36
 3588              		.cfi_offset 8, -36
 3589              		.cfi_offset 9, -32
 3590              		.cfi_offset 10, -28
 3591              		.cfi_offset 11, -24
 3592 000c 89B0     		sub	sp, sp, #36
 3593              		.cfi_def_cfa_offset 72
 3594 000e 0D00     		movs	r5, r1
 3595 0010 1400     		movs	r4, r2
 3596 0012 1F00     		movs	r7, r3
1406:Source\azure_iot_sdk\uamqp\src/session.c ****     SESSION_SEND_TRANSFER_RESULT result;
1407:Source\azure_iot_sdk\uamqp\src/session.c **** 
1408:Source\azure_iot_sdk\uamqp\src/session.c ****     /* Codes_S_R_S_SESSION_01_054: [If link_endpoint or transfer is NULL, session_send_transfer sha
1409:Source\azure_iot_sdk\uamqp\src/session.c ****     if ((link_endpoint == NULL) ||
 3597              		.loc 1 1409 0
 3598 0014 0028     		cmp	r0, #0
 3599 0016 00D1     		bne	.LCB3871
 3600 0018 1CE1     		b	.L290	@long jump
 3601              	.LCB3871:
 3602              		.loc 1 1409 0 is_stmt 0 discriminator 1
 3603 001a 0029     		cmp	r1, #0
 3604 001c 00D1     		bne	.LCB3873
 3605 001e 1BE1     		b	.L291	@long jump
 3606              	.LCB3873:
 3607              	.LVL543:
 3608              	.LBB64:
1410:Source\azure_iot_sdk\uamqp\src/session.c ****         (transfer == NULL))
1411:Source\azure_iot_sdk\uamqp\src/session.c ****     {
1412:Source\azure_iot_sdk\uamqp\src/session.c ****         result = SESSION_SEND_TRANSFER_ERROR;
ARM GAS  C:\Users\Phuong\AppData\Local\Temp\ccX7yw2d.s 			page 97


1413:Source\azure_iot_sdk\uamqp\src/session.c ****     }
1414:Source\azure_iot_sdk\uamqp\src/session.c ****     else
1415:Source\azure_iot_sdk\uamqp\src/session.c ****     {
1416:Source\azure_iot_sdk\uamqp\src/session.c ****         LINK_ENDPOINT_INSTANCE* link_endpoint_instance = (LINK_ENDPOINT_INSTANCE*)link_endpoint;
1417:Source\azure_iot_sdk\uamqp\src/session.c ****         SESSION_INSTANCE* session_instance = (SESSION_INSTANCE*)link_endpoint_instance->session;
 3609              		.loc 1 1417 0 is_stmt 1
 3610 0020 C669     		ldr	r6, [r0, #28]
 3611              	.LVL544:
1418:Source\azure_iot_sdk\uamqp\src/session.c **** 
1419:Source\azure_iot_sdk\uamqp\src/session.c ****         /* Codes_S_R_S_SESSION_01_059: [When session_send_transfer is called while the session is n
1420:Source\azure_iot_sdk\uamqp\src/session.c ****         if (session_instance->session_state != SESSION_STATE_MAPPED)
 3612              		.loc 1 1420 0
 3613 0022 337A     		ldrb	r3, [r6, #8]
 3614              	.LVL545:
 3615 0024 032B     		cmp	r3, #3
 3616 0026 00D0     		beq	.LCB3881
 3617 0028 18E1     		b	.L292	@long jump
 3618              	.LCB3881:
 3619 002a 0022     		movs	r2, #0
 3620              	.LVL546:
 3621 002c 0021     		movs	r1, #0
 3622              	.LVL547:
 3623 002e 07E0     		b	.L270
 3624              	.LVL548:
 3625              	.L272:
 3626              	.LBB65:
1421:Source\azure_iot_sdk\uamqp\src/session.c ****         {
1422:Source\azure_iot_sdk\uamqp\src/session.c ****             result = SESSION_SEND_TRANSFER_ERROR;
1423:Source\azure_iot_sdk\uamqp\src/session.c ****         }
1424:Source\azure_iot_sdk\uamqp\src/session.c ****         else
1425:Source\azure_iot_sdk\uamqp\src/session.c ****         {
1426:Source\azure_iot_sdk\uamqp\src/session.c ****             size_t payload_size = 0;
1427:Source\azure_iot_sdk\uamqp\src/session.c ****             size_t i;
1428:Source\azure_iot_sdk\uamqp\src/session.c **** 
1429:Source\azure_iot_sdk\uamqp\src/session.c ****             for (i = 0; i < payload_count; i++)
1430:Source\azure_iot_sdk\uamqp\src/session.c ****             {
1431:Source\azure_iot_sdk\uamqp\src/session.c ****                 if ((payloads[i].length > UINT32_MAX) ||
1432:Source\azure_iot_sdk\uamqp\src/session.c ****                     (payload_size + payloads[i].length < payload_size))
 3627              		.loc 1 1432 0
 3628 0030 D300     		lsls	r3, r2, #3
 3629 0032 E318     		adds	r3, r4, r3
 3630 0034 5B68     		ldr	r3, [r3, #4]
 3631 0036 CB18     		adds	r3, r1, r3
1431:Source\azure_iot_sdk\uamqp\src/session.c ****                     (payload_size + payloads[i].length < payload_size))
 3632              		.loc 1 1431 0
 3633 0038 9942     		cmp	r1, r3
 3634 003a 03D8     		bhi	.L271
 3635              	.LVL549:
1429:Source\azure_iot_sdk\uamqp\src/session.c ****             {
 3636              		.loc 1 1429 0 discriminator 2
 3637 003c 0132     		adds	r2, r2, #1
 3638              	.LVL550:
1433:Source\azure_iot_sdk\uamqp\src/session.c ****                 {
1434:Source\azure_iot_sdk\uamqp\src/session.c ****                     break;
1435:Source\azure_iot_sdk\uamqp\src/session.c ****                 }
1436:Source\azure_iot_sdk\uamqp\src/session.c **** 
1437:Source\azure_iot_sdk\uamqp\src/session.c ****                 payload_size += payloads[i].length;
ARM GAS  C:\Users\Phuong\AppData\Local\Temp\ccX7yw2d.s 			page 98


 3639              		.loc 1 1437 0 discriminator 2
 3640 003e 1900     		movs	r1, r3
 3641              	.LVL551:
 3642              	.L270:
1429:Source\azure_iot_sdk\uamqp\src/session.c ****             {
 3643              		.loc 1 1429 0 discriminator 1
 3644 0040 BA42     		cmp	r2, r7
 3645 0042 F5D3     		bcc	.L272
 3646              	.L271:
1438:Source\azure_iot_sdk\uamqp\src/session.c ****             }
1439:Source\azure_iot_sdk\uamqp\src/session.c **** 
1440:Source\azure_iot_sdk\uamqp\src/session.c ****             if ((i < payload_count) ||
 3647              		.loc 1 1440 0
 3648 0044 BA42     		cmp	r2, r7
 3649 0046 00D2     		bcs	.LCB3917
 3650 0048 0AE1     		b	.L293	@long jump
 3651              	.LCB3917:
1441:Source\azure_iot_sdk\uamqp\src/session.c ****                 (payload_size > UINT32_MAX))
1442:Source\azure_iot_sdk\uamqp\src/session.c ****             {
1443:Source\azure_iot_sdk\uamqp\src/session.c ****                 result = SESSION_SEND_TRANSFER_ERROR;
1444:Source\azure_iot_sdk\uamqp\src/session.c ****             }
1445:Source\azure_iot_sdk\uamqp\src/session.c ****             else
1446:Source\azure_iot_sdk\uamqp\src/session.c ****             {
1447:Source\azure_iot_sdk\uamqp\src/session.c ****                 if (session_instance->remote_incoming_window == 0)
 3652              		.loc 1 1447 0
 3653 004a F36B     		ldr	r3, [r6, #60]
 3654 004c 002B     		cmp	r3, #0
 3655 004e 00D1     		bne	.LCB3921
 3656 0050 08E1     		b	.L294	@long jump
 3657              	.LCB3921:
1448:Source\azure_iot_sdk\uamqp\src/session.c ****                 {
1449:Source\azure_iot_sdk\uamqp\src/session.c ****                     result = SESSION_SEND_TRANSFER_BUSY;
1450:Source\azure_iot_sdk\uamqp\src/session.c ****                 }
1451:Source\azure_iot_sdk\uamqp\src/session.c ****                 else
1452:Source\azure_iot_sdk\uamqp\src/session.c ****                 {
1453:Source\azure_iot_sdk\uamqp\src/session.c ****                     /* Codes_S_R_S_SESSION_01_012: [The session endpoint assigns each outgoing tran
1454:Source\azure_iot_sdk\uamqp\src/session.c ****                     /* Codes_S_R_S_SESSION_01_027: [sending a transfer Upon sending a transfer, the
1455:Source\azure_iot_sdk\uamqp\src/session.c ****                     *delivery_id = session_instance->next_outgoing_id;
 3658              		.loc 1 1455 0
 3659 0052 129B     		ldr	r3, [sp, #72]
 3660 0054 726A     		ldr	r2, [r6, #36]
 3661              	.LVL552:
 3662 0056 1A60     		str	r2, [r3]
1456:Source\azure_iot_sdk\uamqp\src/session.c ****                     if ((transfer_set_handle(transfer, link_endpoint_instance->output_handle) != 0)
 3663              		.loc 1 1456 0
 3664 0058 8168     		ldr	r1, [r0, #8]
 3665              	.LVL553:
 3666 005a 2800     		movs	r0, r5
 3667              	.LVL554:
 3668 005c FFF7FEFF 		bl	transfer_set_handle
 3669              	.LVL555:
 3670 0060 0028     		cmp	r0, #0
 3671 0062 00D0     		beq	.LCB3935
 3672 0064 00E1     		b	.L295	@long jump
 3673              	.LCB3935:
1457:Source\azure_iot_sdk\uamqp\src/session.c ****                         (transfer_set_delivery_id(transfer, *delivery_id) != 0) ||
 3674              		.loc 1 1457 0 discriminator 1
ARM GAS  C:\Users\Phuong\AppData\Local\Temp\ccX7yw2d.s 			page 99


 3675 0066 129B     		ldr	r3, [sp, #72]
 3676 0068 1968     		ldr	r1, [r3]
 3677 006a 2800     		movs	r0, r5
 3678 006c FFF7FEFF 		bl	transfer_set_delivery_id
 3679              	.LVL556:
1456:Source\azure_iot_sdk\uamqp\src/session.c ****                     if ((transfer_set_handle(transfer, link_endpoint_instance->output_handle) != 0)
 3680              		.loc 1 1456 0 discriminator 1
 3681 0070 0028     		cmp	r0, #0
 3682 0072 00D0     		beq	.LCB3942
 3683 0074 FAE0     		b	.L296	@long jump
 3684              	.LCB3942:
1458:Source\azure_iot_sdk\uamqp\src/session.c ****                         (transfer_set_more(transfer, false) != 0))
 3685              		.loc 1 1458 0
 3686 0076 0021     		movs	r1, #0
 3687 0078 2800     		movs	r0, r5
 3688 007a FFF7FEFF 		bl	transfer_set_more
 3689              	.LVL557:
1457:Source\azure_iot_sdk\uamqp\src/session.c ****                         (transfer_set_delivery_id(transfer, *delivery_id) != 0) ||
 3690              		.loc 1 1457 0
 3691 007e 0028     		cmp	r0, #0
 3692 0080 00D0     		beq	.LCB3948
 3693 0082 F5E0     		b	.L297	@long jump
 3694              	.LCB3948:
 3695              	.LBB66:
1459:Source\azure_iot_sdk\uamqp\src/session.c ****                     {
1460:Source\azure_iot_sdk\uamqp\src/session.c ****                         /* Codes_S_R_S_SESSION_01_058: [When any other error occurs, session_send_t
1461:Source\azure_iot_sdk\uamqp\src/session.c ****                         result = SESSION_SEND_TRANSFER_ERROR;
1462:Source\azure_iot_sdk\uamqp\src/session.c ****                     }
1463:Source\azure_iot_sdk\uamqp\src/session.c ****                     else
1464:Source\azure_iot_sdk\uamqp\src/session.c ****                     {
1465:Source\azure_iot_sdk\uamqp\src/session.c ****                         AMQP_VALUE transfer_value;
1466:Source\azure_iot_sdk\uamqp\src/session.c **** 
1467:Source\azure_iot_sdk\uamqp\src/session.c ****                         transfer_value = amqpvalue_create_transfer(transfer);
 3696              		.loc 1 1467 0
 3697 0084 2800     		movs	r0, r5
 3698 0086 FFF7FEFF 		bl	amqpvalue_create_transfer
 3699              	.LVL558:
 3700 008a 0590     		str	r0, [sp, #20]
 3701              	.LVL559:
1468:Source\azure_iot_sdk\uamqp\src/session.c ****                         if (transfer_value == NULL)
 3702              		.loc 1 1468 0
 3703 008c 0028     		cmp	r0, #0
 3704 008e 00D1     		bne	.LCB3956
 3705 0090 F0E0     		b	.L298	@long jump
 3706              	.LCB3956:
 3707              	.LBB67:
1469:Source\azure_iot_sdk\uamqp\src/session.c ****                         {
1470:Source\azure_iot_sdk\uamqp\src/session.c ****                             /* Codes_S_R_S_SESSION_01_058: [When any other error occurs, session_se
1471:Source\azure_iot_sdk\uamqp\src/session.c ****                             result = SESSION_SEND_TRANSFER_ERROR;
1472:Source\azure_iot_sdk\uamqp\src/session.c ****                         }
1473:Source\azure_iot_sdk\uamqp\src/session.c ****                         else
1474:Source\azure_iot_sdk\uamqp\src/session.c ****                         {
1475:Source\azure_iot_sdk\uamqp\src/session.c ****                             uint32_t available_frame_size;
1476:Source\azure_iot_sdk\uamqp\src/session.c ****                             size_t encoded_size;
1477:Source\azure_iot_sdk\uamqp\src/session.c **** 
1478:Source\azure_iot_sdk\uamqp\src/session.c ****                             if ((connection_get_remote_max_frame_size(session_instance->connection,
 3708              		.loc 1 1478 0
ARM GAS  C:\Users\Phuong\AppData\Local\Temp\ccX7yw2d.s 			page 100


 3709 0092 06A9     		add	r1, sp, #24
 3710 0094 F068     		ldr	r0, [r6, #12]
 3711              	.LVL560:
 3712 0096 FFF7FEFF 		bl	connection_get_remote_max_frame_size
 3713              	.LVL561:
 3714 009a 0028     		cmp	r0, #0
 3715 009c 00D0     		beq	.LCB3965
 3716 009e CEE0     		b	.L299	@long jump
 3717              	.LCB3965:
1479:Source\azure_iot_sdk\uamqp\src/session.c ****                                 (amqpvalue_get_encoded_size(transfer_value, &encoded_size) != 0))
 3718              		.loc 1 1479 0 discriminator 1
 3719 00a0 07A9     		add	r1, sp, #28
 3720 00a2 0598     		ldr	r0, [sp, #20]
 3721 00a4 FFF7FEFF 		bl	amqpvalue_get_encoded_size
 3722              	.LVL562:
1478:Source\azure_iot_sdk\uamqp\src/session.c ****                                 (amqpvalue_get_encoded_size(transfer_value, &encoded_size) != 0))
 3723              		.loc 1 1478 0 discriminator 1
 3724 00a8 0028     		cmp	r0, #0
 3725 00aa 00D0     		beq	.LCB3971
 3726 00ac C9E0     		b	.L300	@long jump
 3727              	.LCB3971:
 3728 00ae 0023     		movs	r3, #0
 3729 00b0 1900     		movs	r1, r3
 3730 00b2 04E0     		b	.L274
 3731              	.LVL563:
 3732              	.L275:
1480:Source\azure_iot_sdk\uamqp\src/session.c ****                             {
1481:Source\azure_iot_sdk\uamqp\src/session.c ****                                 result = SESSION_SEND_TRANSFER_ERROR;
1482:Source\azure_iot_sdk\uamqp\src/session.c ****                             }
1483:Source\azure_iot_sdk\uamqp\src/session.c ****                             else
1484:Source\azure_iot_sdk\uamqp\src/session.c ****                             {
1485:Source\azure_iot_sdk\uamqp\src/session.c ****                                 payload_size = 0;
1486:Source\azure_iot_sdk\uamqp\src/session.c **** 
1487:Source\azure_iot_sdk\uamqp\src/session.c ****                                 for (i = 0; i < payload_count; i++)
1488:Source\azure_iot_sdk\uamqp\src/session.c ****                                 {
1489:Source\azure_iot_sdk\uamqp\src/session.c ****                                     payload_size += payloads[i].length;
 3733              		.loc 1 1489 0 discriminator 3
 3734 00b4 DA00     		lsls	r2, r3, #3
 3735 00b6 A218     		adds	r2, r4, r2
 3736 00b8 5268     		ldr	r2, [r2, #4]
 3737 00ba 8918     		adds	r1, r1, r2
 3738              	.LVL564:
1487:Source\azure_iot_sdk\uamqp\src/session.c ****                                 {
 3739              		.loc 1 1487 0 discriminator 3
 3740 00bc 0133     		adds	r3, r3, #1
 3741              	.LVL565:
 3742              	.L274:
1487:Source\azure_iot_sdk\uamqp\src/session.c ****                                 {
 3743              		.loc 1 1487 0 is_stmt 0 discriminator 1
 3744 00be BB42     		cmp	r3, r7
 3745 00c0 F8D3     		bcc	.L275
 3746 00c2 8A46     		mov	r10, r1
1490:Source\azure_iot_sdk\uamqp\src/session.c ****                                 }
1491:Source\azure_iot_sdk\uamqp\src/session.c **** 
1492:Source\azure_iot_sdk\uamqp\src/session.c ****                                 available_frame_size -= (uint32_t)encoded_size;
 3747              		.loc 1 1492 0 is_stmt 1
 3748 00c4 069B     		ldr	r3, [sp, #24]
ARM GAS  C:\Users\Phuong\AppData\Local\Temp\ccX7yw2d.s 			page 101


 3749              	.LVL566:
 3750 00c6 079A     		ldr	r2, [sp, #28]
 3751 00c8 9B1A     		subs	r3, r3, r2
1493:Source\azure_iot_sdk\uamqp\src/session.c ****                                 available_frame_size -= 8;
 3752              		.loc 1 1493 0
 3753 00ca 083B     		subs	r3, r3, #8
 3754 00cc 0693     		str	r3, [sp, #24]
1494:Source\azure_iot_sdk\uamqp\src/session.c **** 
1495:Source\azure_iot_sdk\uamqp\src/session.c ****                                 if (available_frame_size >= payload_size)
 3755              		.loc 1 1495 0
 3756 00ce 9942     		cmp	r1, r3
 3757 00d0 00D9     		bls	.LCB4008
 3758 00d2 98E0     		b	.L301	@long jump
 3759              	.LCB4008:
1496:Source\azure_iot_sdk\uamqp\src/session.c ****                                 {
1497:Source\azure_iot_sdk\uamqp\src/session.c ****                                     /* Codes_S_R_S_SESSION_01_055: [The encoding of the frame shall
1498:Source\azure_iot_sdk\uamqp\src/session.c ****                                     if (connection_encode_frame(session_instance->endpoint, transfe
 3760              		.loc 1 1498 0
 3761 00d4 149B     		ldr	r3, [sp, #80]
 3762 00d6 0193     		str	r3, [sp, #4]
 3763 00d8 139B     		ldr	r3, [sp, #76]
 3764 00da 0093     		str	r3, [sp]
 3765 00dc 3B00     		movs	r3, r7
 3766 00de 2200     		movs	r2, r4
 3767 00e0 0599     		ldr	r1, [sp, #20]
 3768              	.LVL567:
 3769 00e2 3069     		ldr	r0, [r6, #16]
 3770 00e4 FFF7FEFF 		bl	connection_encode_frame
 3771              	.LVL568:
 3772 00e8 0028     		cmp	r0, #0
 3773 00ea 00D0     		beq	.LCB4021
 3774 00ec ABE0     		b	.L302	@long jump
 3775              	.LCB4021:
1499:Source\azure_iot_sdk\uamqp\src/session.c ****                                     {
1500:Source\azure_iot_sdk\uamqp\src/session.c ****                                         /* Codes_S_R_S_SESSION_01_056: [If connection_encode_frame 
1501:Source\azure_iot_sdk\uamqp\src/session.c ****                                         result = SESSION_SEND_TRANSFER_ERROR;
1502:Source\azure_iot_sdk\uamqp\src/session.c ****                                     }
1503:Source\azure_iot_sdk\uamqp\src/session.c ****                                     else
1504:Source\azure_iot_sdk\uamqp\src/session.c ****                                     {
1505:Source\azure_iot_sdk\uamqp\src/session.c ****                                         /* Codes_S_R_S_SESSION_01_018: [is incremented after each s
1506:Source\azure_iot_sdk\uamqp\src/session.c ****                                         session_instance->next_outgoing_id++;
 3776              		.loc 1 1506 0
 3777 00ee 736A     		ldr	r3, [r6, #36]
 3778 00f0 0133     		adds	r3, r3, #1
 3779 00f2 7362     		str	r3, [r6, #36]
1507:Source\azure_iot_sdk\uamqp\src/session.c ****                                         session_instance->remote_incoming_window--;
 3780              		.loc 1 1507 0
 3781 00f4 F36B     		ldr	r3, [r6, #60]
 3782 00f6 013B     		subs	r3, r3, #1
 3783 00f8 F363     		str	r3, [r6, #60]
1508:Source\azure_iot_sdk\uamqp\src/session.c ****                                         session_instance->outgoing_window--;
 3784              		.loc 1 1508 0
 3785 00fa 736B     		ldr	r3, [r6, #52]
 3786 00fc 013B     		subs	r3, r3, #1
 3787 00fe 7363     		str	r3, [r6, #52]
 3788              	.LVL569:
1509:Source\azure_iot_sdk\uamqp\src/session.c **** 
ARM GAS  C:\Users\Phuong\AppData\Local\Temp\ccX7yw2d.s 			page 102


1510:Source\azure_iot_sdk\uamqp\src/session.c ****                                         /* Codes_S_R_S_SESSION_01_053: [On success, session_send_tr
1511:Source\azure_iot_sdk\uamqp\src/session.c ****                                         result = SESSION_SEND_TRANSFER_OK;
 3789              		.loc 1 1511 0
 3790 0100 0024     		movs	r4, #0
 3791              	.LVL570:
 3792 0102 A3E0     		b	.L273
 3793              	.LVL571:
 3794              	.L289:
 3795              	.LBB68:
 3796              	.LBB69:
1512:Source\azure_iot_sdk\uamqp\src/session.c ****                                     }
1513:Source\azure_iot_sdk\uamqp\src/session.c ****                                 }
1514:Source\azure_iot_sdk\uamqp\src/session.c ****                                 else
1515:Source\azure_iot_sdk\uamqp\src/session.c ****                                 {
1516:Source\azure_iot_sdk\uamqp\src/session.c ****                                     size_t current_payload_index = 0;
1517:Source\azure_iot_sdk\uamqp\src/session.c ****                                     uint32_t current_payload_pos = 0;
1518:Source\azure_iot_sdk\uamqp\src/session.c **** 
1519:Source\azure_iot_sdk\uamqp\src/session.c ****                                     /* break it down into different deliveries */
1520:Source\azure_iot_sdk\uamqp\src/session.c ****                                     while (payload_size > 0)
1521:Source\azure_iot_sdk\uamqp\src/session.c ****                                     {
1522:Source\azure_iot_sdk\uamqp\src/session.c ****                                         uint32_t transfer_frame_payload_count = 0;
1523:Source\azure_iot_sdk\uamqp\src/session.c ****                                         uint32_t current_transfer_frame_payload_size = (uint32_t)pa
1524:Source\azure_iot_sdk\uamqp\src/session.c ****                                         uint32_t byte_counter;
1525:Source\azure_iot_sdk\uamqp\src/session.c ****                                         size_t temp_current_payload_index = current_payload_index;
1526:Source\azure_iot_sdk\uamqp\src/session.c ****                                         uint32_t temp_current_payload_pos = current_payload_pos;
1527:Source\azure_iot_sdk\uamqp\src/session.c ****                                         AMQP_VALUE multi_transfer_amqp_value;
1528:Source\azure_iot_sdk\uamqp\src/session.c ****                                         PAYLOAD* transfer_frame_payloads;
1529:Source\azure_iot_sdk\uamqp\src/session.c ****                                         bool more;
1530:Source\azure_iot_sdk\uamqp\src/session.c **** 
1531:Source\azure_iot_sdk\uamqp\src/session.c ****                                         if (current_transfer_frame_payload_size > available_frame_s
 3797              		.loc 1 1531 0
 3798 0104 069B     		ldr	r3, [sp, #24]
 3799              	.LVL572:
 3800 0106 9A45     		cmp	r10, r3
 3801 0108 02D8     		bhi	.L303
1523:Source\azure_iot_sdk\uamqp\src/session.c ****                                         uint32_t byte_counter;
 3802              		.loc 1 1523 0
 3803 010a 5246     		mov	r2, r10
 3804 010c 0392     		str	r2, [sp, #12]
 3805 010e 00E0     		b	.L277
 3806              	.L303:
1532:Source\azure_iot_sdk\uamqp\src/session.c ****                                         {
1533:Source\azure_iot_sdk\uamqp\src/session.c ****                                             current_transfer_frame_payload_size = available_frame_s
 3807              		.loc 1 1533 0
 3808 0110 0393     		str	r3, [sp, #12]
 3809              	.L277:
 3810              	.LVL573:
1534:Source\azure_iot_sdk\uamqp\src/session.c ****                                         }
1535:Source\azure_iot_sdk\uamqp\src/session.c **** 
1536:Source\azure_iot_sdk\uamqp\src/session.c ****                                         if (available_frame_size >= payload_size)
 3811              		.loc 1 1536 0
 3812 0112 9A45     		cmp	r10, r3
 3813 0114 01D8     		bhi	.L304
1537:Source\azure_iot_sdk\uamqp\src/session.c ****                                         {
1538:Source\azure_iot_sdk\uamqp\src/session.c ****                                             more = false;
 3814              		.loc 1 1538 0
 3815 0116 0021     		movs	r1, #0
ARM GAS  C:\Users\Phuong\AppData\Local\Temp\ccX7yw2d.s 			page 103


 3816 0118 00E0     		b	.L278
 3817              	.L304:
1539:Source\azure_iot_sdk\uamqp\src/session.c ****                                         }
1540:Source\azure_iot_sdk\uamqp\src/session.c ****                                         else
1541:Source\azure_iot_sdk\uamqp\src/session.c ****                                         {
1542:Source\azure_iot_sdk\uamqp\src/session.c ****                                             more = true;
 3818              		.loc 1 1542 0
 3819 011a 0121     		movs	r1, #1
 3820              	.L278:
 3821              	.LVL574:
1543:Source\azure_iot_sdk\uamqp\src/session.c ****                                         }
1544:Source\azure_iot_sdk\uamqp\src/session.c **** 
1545:Source\azure_iot_sdk\uamqp\src/session.c ****                                         if (transfer_set_more(transfer, more) != 0)
 3822              		.loc 1 1545 0
 3823 011c 4846     		mov	r0, r9
 3824 011e FFF7FEFF 		bl	transfer_set_more
 3825              	.LVL575:
 3826 0122 0028     		cmp	r0, #0
 3827 0124 7AD1     		bne	.L307
1546:Source\azure_iot_sdk\uamqp\src/session.c ****                                         {
1547:Source\azure_iot_sdk\uamqp\src/session.c ****                                             break;
1548:Source\azure_iot_sdk\uamqp\src/session.c ****                                         }
1549:Source\azure_iot_sdk\uamqp\src/session.c **** 
1550:Source\azure_iot_sdk\uamqp\src/session.c ****                                         multi_transfer_amqp_value = amqpvalue_create_transfer(trans
 3828              		.loc 1 1550 0
 3829 0126 4846     		mov	r0, r9
 3830 0128 FFF7FEFF 		bl	amqpvalue_create_transfer
 3831              	.LVL576:
 3832 012c 0490     		str	r0, [sp, #16]
 3833              	.LVL577:
1551:Source\azure_iot_sdk\uamqp\src/session.c ****                                         if (multi_transfer_amqp_value == NULL)
 3834              		.loc 1 1551 0
 3835 012e 0028     		cmp	r0, #0
 3836 0130 76D0     		beq	.L308
 3837 0132 3B00     		movs	r3, r7
 3838 0134 2800     		movs	r0, r5
 3839              	.LVL578:
 3840 0136 039C     		ldr	r4, [sp, #12]
 3841 0138 0CE0     		b	.L280
 3842              	.LVL579:
 3843              	.L283:
1552:Source\azure_iot_sdk\uamqp\src/session.c ****                                         {
1553:Source\azure_iot_sdk\uamqp\src/session.c ****                                             break;
1554:Source\azure_iot_sdk\uamqp\src/session.c ****                                         }
1555:Source\azure_iot_sdk\uamqp\src/session.c **** 
1556:Source\azure_iot_sdk\uamqp\src/session.c ****                                         byte_counter = current_transfer_frame_payload_size;
1557:Source\azure_iot_sdk\uamqp\src/session.c ****                                         while (byte_counter > 0)
1558:Source\azure_iot_sdk\uamqp\src/session.c ****                                         {
1559:Source\azure_iot_sdk\uamqp\src/session.c ****                                             if (payloads[temp_current_payload_index].length - temp_
 3844              		.loc 1 1559 0
 3845 013a C200     		lsls	r2, r0, #3
 3846 013c B218     		adds	r2, r6, r2
 3847 013e 5268     		ldr	r2, [r2, #4]
 3848 0140 D11A     		subs	r1, r2, r3
 3849 0142 8C42     		cmp	r4, r1
 3850 0144 02D8     		bhi	.L281
1560:Source\azure_iot_sdk\uamqp\src/session.c ****                                             {
ARM GAS  C:\Users\Phuong\AppData\Local\Temp\ccX7yw2d.s 			page 104


1561:Source\azure_iot_sdk\uamqp\src/session.c ****                                                 /* more data than we need */
1562:Source\azure_iot_sdk\uamqp\src/session.c ****                                                 temp_current_payload_pos += byte_counter;
 3851              		.loc 1 1562 0
 3852 0146 1B19     		adds	r3, r3, r4
 3853              	.LVL580:
1563:Source\azure_iot_sdk\uamqp\src/session.c ****                                                 byte_counter = 0;
 3854              		.loc 1 1563 0
 3855 0148 0024     		movs	r4, #0
 3856 014a 03E0     		b	.L280
 3857              	.LVL581:
 3858              	.L281:
1564:Source\azure_iot_sdk\uamqp\src/session.c ****                                             }
1565:Source\azure_iot_sdk\uamqp\src/session.c ****                                             else
1566:Source\azure_iot_sdk\uamqp\src/session.c ****                                             {
1567:Source\azure_iot_sdk\uamqp\src/session.c ****                                                 byte_counter -= (uint32_t)payloads[temp_current_pay
 3859              		.loc 1 1567 0
 3860 014c 9B1A     		subs	r3, r3, r2
 3861              	.LVL582:
 3862 014e E418     		adds	r4, r4, r3
 3863              	.LVL583:
1568:Source\azure_iot_sdk\uamqp\src/session.c ****                                                 temp_current_payload_index++;
 3864              		.loc 1 1568 0
 3865 0150 0130     		adds	r0, r0, #1
 3866              	.LVL584:
1569:Source\azure_iot_sdk\uamqp\src/session.c ****                                                 temp_current_payload_pos = 0;
 3867              		.loc 1 1569 0
 3868 0152 0023     		movs	r3, #0
 3869              	.LVL585:
 3870              	.L280:
1557:Source\azure_iot_sdk\uamqp\src/session.c ****                                         {
 3871              		.loc 1 1557 0
 3872 0154 002C     		cmp	r4, #0
 3873 0156 F0D1     		bne	.L283
1570:Source\azure_iot_sdk\uamqp\src/session.c ****                                             }
1571:Source\azure_iot_sdk\uamqp\src/session.c ****                                         }
1572:Source\azure_iot_sdk\uamqp\src/session.c **** 
1573:Source\azure_iot_sdk\uamqp\src/session.c ****                                         transfer_frame_payload_count = (uint32_t)(temp_current_payl
 3874              		.loc 1 1573 0
 3875 0158 401B     		subs	r0, r0, r5
 3876              	.LVL586:
 3877 015a 0130     		adds	r0, r0, #1
 3878              	.LVL587:
1574:Source\azure_iot_sdk\uamqp\src/session.c ****                                         transfer_frame_payloads = (PAYLOAD*)malloc(transfer_frame_p
 3879              		.loc 1 1574 0
 3880 015c C000     		lsls	r0, r0, #3
 3881              	.LVL588:
 3882 015e FFF7FEFF 		bl	malloc
 3883              	.LVL589:
 3884 0162 8046     		mov	r8, r0
 3885              	.LVL590:
1575:Source\azure_iot_sdk\uamqp\src/session.c ****                                         if (transfer_frame_payloads == NULL)
 3886              		.loc 1 1575 0
 3887 0164 0028     		cmp	r0, #0
 3888 0166 26D1     		bne	.L305
 3889 0168 5E46     		mov	r6, fp
 3890              	.LVL591:
1576:Source\azure_iot_sdk\uamqp\src/session.c ****                                         {
ARM GAS  C:\Users\Phuong\AppData\Local\Temp\ccX7yw2d.s 			page 105


1577:Source\azure_iot_sdk\uamqp\src/session.c ****                                             amqpvalue_destroy(multi_transfer_amqp_value);
 3891              		.loc 1 1577 0
 3892 016a 0498     		ldr	r0, [sp, #16]
 3893              	.LVL592:
 3894 016c FFF7FEFF 		bl	amqpvalue_destroy
 3895              	.LVL593:
1578:Source\azure_iot_sdk\uamqp\src/session.c ****                                             break;
 3896              		.loc 1 1578 0
 3897 0170 57E0     		b	.L279
 3898              	.LVL594:
 3899              	.L287:
1579:Source\azure_iot_sdk\uamqp\src/session.c ****                                         }
1580:Source\azure_iot_sdk\uamqp\src/session.c **** 
1581:Source\azure_iot_sdk\uamqp\src/session.c ****                                         /* copy data */
1582:Source\azure_iot_sdk\uamqp\src/session.c ****                                         byte_counter = current_transfer_frame_payload_size;
1583:Source\azure_iot_sdk\uamqp\src/session.c ****                                         transfer_frame_payload_count = 0;
1584:Source\azure_iot_sdk\uamqp\src/session.c **** 
1585:Source\azure_iot_sdk\uamqp\src/session.c ****                                         while (byte_counter > 0)
1586:Source\azure_iot_sdk\uamqp\src/session.c ****                                         {
1587:Source\azure_iot_sdk\uamqp\src/session.c ****                                             if (payloads[current_payload_index].length - current_pa
 3900              		.loc 1 1587 0
 3901 0172 EA00     		lsls	r2, r5, #3
 3902 0174 B218     		adds	r2, r6, r2
 3903 0176 5168     		ldr	r1, [r2, #4]
 3904 0178 C91B     		subs	r1, r1, r7
 3905 017a 8842     		cmp	r0, r1
 3906 017c 0AD2     		bcs	.L285
1588:Source\azure_iot_sdk\uamqp\src/session.c ****                                             {
1589:Source\azure_iot_sdk\uamqp\src/session.c ****                                                 /* more data than we need */
1590:Source\azure_iot_sdk\uamqp\src/session.c ****                                                 transfer_frame_payloads[transfer_frame_payload_coun
 3907              		.loc 1 1590 0
 3908 017e D900     		lsls	r1, r3, #3
 3909 0180 029C     		ldr	r4, [sp, #8]
 3910 0182 A046     		mov	r8, r4
 3911 0184 4144     		add	r1, r1, r8
 3912 0186 1268     		ldr	r2, [r2]
 3913 0188 D219     		adds	r2, r2, r7
 3914 018a 0A60     		str	r2, [r1]
1591:Source\azure_iot_sdk\uamqp\src/session.c ****                                                 transfer_frame_payloads[transfer_frame_payload_coun
 3915              		.loc 1 1591 0
 3916 018c 4860     		str	r0, [r1, #4]
1592:Source\azure_iot_sdk\uamqp\src/session.c ****                                                 current_payload_pos += byte_counter;
 3917              		.loc 1 1592 0
 3918 018e 3F18     		adds	r7, r7, r0
 3919              	.LVL595:
1593:Source\azure_iot_sdk\uamqp\src/session.c ****                                                 byte_counter = 0;
 3920              		.loc 1 1593 0
 3921 0190 6046     		mov	r0, ip
 3922 0192 0EE0     		b	.L286
 3923              	.LVL596:
 3924              	.L285:
1594:Source\azure_iot_sdk\uamqp\src/session.c ****                                             }
1595:Source\azure_iot_sdk\uamqp\src/session.c ****                                             else
1596:Source\azure_iot_sdk\uamqp\src/session.c ****                                             {
1597:Source\azure_iot_sdk\uamqp\src/session.c ****                                                 /* copy entire payload and move to the next */
1598:Source\azure_iot_sdk\uamqp\src/session.c ****                                                 transfer_frame_payloads[transfer_frame_payload_coun
 3925              		.loc 1 1598 0
ARM GAS  C:\Users\Phuong\AppData\Local\Temp\ccX7yw2d.s 			page 106


 3926 0194 D900     		lsls	r1, r3, #3
 3927 0196 029C     		ldr	r4, [sp, #8]
 3928 0198 6418     		adds	r4, r4, r1
 3929 019a 1168     		ldr	r1, [r2]
 3930 019c 8846     		mov	r8, r1
 3931 019e B844     		add	r8, r8, r7
 3932 01a0 4146     		mov	r1, r8
 3933 01a2 2160     		str	r1, [r4]
1599:Source\azure_iot_sdk\uamqp\src/session.c ****                                                 transfer_frame_payloads[transfer_frame_payload_coun
 3934              		.loc 1 1599 0
 3935 01a4 5268     		ldr	r2, [r2, #4]
 3936 01a6 D11B     		subs	r1, r2, r7
 3937 01a8 6160     		str	r1, [r4, #4]
1600:Source\azure_iot_sdk\uamqp\src/session.c ****                                                 byte_counter -= (uint32_t)payloads[current_payload_
 3938              		.loc 1 1600 0
 3939 01aa BF1A     		subs	r7, r7, r2
 3940              	.LVL597:
 3941 01ac C019     		adds	r0, r0, r7
 3942              	.LVL598:
1601:Source\azure_iot_sdk\uamqp\src/session.c ****                                                 current_payload_index++;
 3943              		.loc 1 1601 0
 3944 01ae 0135     		adds	r5, r5, #1
 3945              	.LVL599:
1602:Source\azure_iot_sdk\uamqp\src/session.c ****                                                 current_payload_pos = 0;
 3946              		.loc 1 1602 0
 3947 01b0 0027     		movs	r7, #0
 3948              	.LVL600:
 3949              	.L286:
1603:Source\azure_iot_sdk\uamqp\src/session.c ****                                             }
1604:Source\azure_iot_sdk\uamqp\src/session.c **** 
1605:Source\azure_iot_sdk\uamqp\src/session.c ****                                             transfer_frame_payload_count++;
 3950              		.loc 1 1605 0
 3951 01b2 0133     		adds	r3, r3, #1
 3952              	.LVL601:
 3953 01b4 04E0     		b	.L284
 3954              	.LVL602:
 3955              	.L305:
 3956 01b6 0398     		ldr	r0, [sp, #12]
 3957              	.LVL603:
 3958 01b8 0023     		movs	r3, #0
 3959 01ba A446     		mov	ip, r4
 3960 01bc 4246     		mov	r2, r8
 3961 01be 0292     		str	r2, [sp, #8]
 3962              	.LVL604:
 3963              	.L284:
1585:Source\azure_iot_sdk\uamqp\src/session.c ****                                         {
 3964              		.loc 1 1585 0
 3965 01c0 0028     		cmp	r0, #0
 3966 01c2 D6D1     		bne	.L287
 3967 01c4 029A     		ldr	r2, [sp, #8]
 3968 01c6 9046     		mov	r8, r2
1606:Source\azure_iot_sdk\uamqp\src/session.c ****                                         }
1607:Source\azure_iot_sdk\uamqp\src/session.c **** 
1608:Source\azure_iot_sdk\uamqp\src/session.c ****                                         if (connection_encode_frame(session_instance->endpoint, mul
 3969              		.loc 1 1608 0
 3970 01c8 5A46     		mov	r2, fp
 3971 01ca 1069     		ldr	r0, [r2, #16]
ARM GAS  C:\Users\Phuong\AppData\Local\Temp\ccX7yw2d.s 			page 107


 3972              	.LVL605:
 3973 01cc 149A     		ldr	r2, [sp, #80]
 3974 01ce 0192     		str	r2, [sp, #4]
 3975 01d0 139A     		ldr	r2, [sp, #76]
 3976 01d2 0092     		str	r2, [sp]
 3977 01d4 4246     		mov	r2, r8
 3978 01d6 0499     		ldr	r1, [sp, #16]
 3979 01d8 FFF7FEFF 		bl	connection_encode_frame
 3980              	.LVL606:
 3981 01dc 0028     		cmp	r0, #0
 3982 01de 07D0     		beq	.L288
 3983 01e0 5E46     		mov	r6, fp
 3984              	.LVL607:
1609:Source\azure_iot_sdk\uamqp\src/session.c ****                                         {
1610:Source\azure_iot_sdk\uamqp\src/session.c ****                                             free(transfer_frame_payloads);
 3985              		.loc 1 1610 0
 3986 01e2 4046     		mov	r0, r8
 3987 01e4 FFF7FEFF 		bl	free
 3988              	.LVL608:
1611:Source\azure_iot_sdk\uamqp\src/session.c ****                                             amqpvalue_destroy(multi_transfer_amqp_value);
 3989              		.loc 1 1611 0
 3990 01e8 0498     		ldr	r0, [sp, #16]
 3991 01ea FFF7FEFF 		bl	amqpvalue_destroy
 3992              	.LVL609:
1612:Source\azure_iot_sdk\uamqp\src/session.c ****                                             break;
 3993              		.loc 1 1612 0
 3994 01ee 18E0     		b	.L279
 3995              	.LVL610:
 3996              	.L288:
1613:Source\azure_iot_sdk\uamqp\src/session.c ****                                         }
1614:Source\azure_iot_sdk\uamqp\src/session.c **** 
1615:Source\azure_iot_sdk\uamqp\src/session.c ****                                         free(transfer_frame_payloads);
 3997              		.loc 1 1615 0
 3998 01f0 4046     		mov	r0, r8
 3999 01f2 FFF7FEFF 		bl	free
 4000              	.LVL611:
1616:Source\azure_iot_sdk\uamqp\src/session.c ****                                         amqpvalue_destroy(multi_transfer_amqp_value);
 4001              		.loc 1 1616 0
 4002 01f6 0498     		ldr	r0, [sp, #16]
 4003 01f8 FFF7FEFF 		bl	amqpvalue_destroy
 4004              	.LVL612:
1617:Source\azure_iot_sdk\uamqp\src/session.c ****                                         payload_size -= current_transfer_frame_payload_size;
 4005              		.loc 1 1617 0
 4006 01fc 5346     		mov	r3, r10
 4007 01fe 039A     		ldr	r2, [sp, #12]
 4008 0200 9B1A     		subs	r3, r3, r2
 4009 0202 9A46     		mov	r10, r3
 4010              	.LVL613:
 4011 0204 04E0     		b	.L276
 4012              	.LVL614:
 4013              	.L301:
 4014              	.LBE69:
 4015              	.LBE68:
 4016 0206 0027     		movs	r7, #0
 4017              	.LVL615:
 4018 0208 A946     		mov	r9, r5
 4019 020a 3D00     		movs	r5, r7
ARM GAS  C:\Users\Phuong\AppData\Local\Temp\ccX7yw2d.s 			page 108


 4020              	.LVL616:
 4021 020c B346     		mov	fp, r6
 4022 020e 2600     		movs	r6, r4
 4023              	.LVL617:
 4024              	.L276:
 4025              	.LBB70:
1520:Source\azure_iot_sdk\uamqp\src/session.c ****                                     {
 4026              		.loc 1 1520 0
 4027 0210 5346     		mov	r3, r10
 4028 0212 002B     		cmp	r3, #0
 4029 0214 00D0     		beq	.LCB4368
 4030 0216 75E7     		b	.L289	@long jump
 4031              	.LCB4368:
 4032              	.LVL618:
 4033 0218 5E46     		mov	r6, fp
 4034              	.LVL619:
 4035 021a 02E0     		b	.L279
 4036              	.LVL620:
 4037              	.L307:
 4038 021c 5E46     		mov	r6, fp
 4039              	.LVL621:
 4040 021e 00E0     		b	.L279
 4041              	.LVL622:
 4042              	.L308:
 4043 0220 5E46     		mov	r6, fp
 4044              	.LVL623:
 4045              	.L279:
1618:Source\azure_iot_sdk\uamqp\src/session.c ****                                     }
1619:Source\azure_iot_sdk\uamqp\src/session.c **** 
1620:Source\azure_iot_sdk\uamqp\src/session.c ****                                     if (payload_size > 0)
 4046              		.loc 1 1620 0
 4047 0222 5346     		mov	r3, r10
 4048 0224 002B     		cmp	r3, #0
 4049 0226 10D1     		bne	.L306
 4050              	.LVL624:
1621:Source\azure_iot_sdk\uamqp\src/session.c ****                                     {
1622:Source\azure_iot_sdk\uamqp\src/session.c ****                                         result = SESSION_SEND_TRANSFER_ERROR;
1623:Source\azure_iot_sdk\uamqp\src/session.c ****                                     }
1624:Source\azure_iot_sdk\uamqp\src/session.c ****                                     else
1625:Source\azure_iot_sdk\uamqp\src/session.c ****                                     {
1626:Source\azure_iot_sdk\uamqp\src/session.c ****                                         /* Codes_S_R_S_SESSION_01_018: [is incremented after each s
1627:Source\azure_iot_sdk\uamqp\src/session.c ****                                         session_instance->next_outgoing_id++;
 4051              		.loc 1 1627 0
 4052 0228 736A     		ldr	r3, [r6, #36]
 4053              	.LVL625:
 4054 022a 0133     		adds	r3, r3, #1
 4055 022c 7362     		str	r3, [r6, #36]
1628:Source\azure_iot_sdk\uamqp\src/session.c ****                                         session_instance->remote_incoming_window--;
 4056              		.loc 1 1628 0
 4057 022e F36B     		ldr	r3, [r6, #60]
 4058 0230 013B     		subs	r3, r3, #1
 4059 0232 F363     		str	r3, [r6, #60]
1629:Source\azure_iot_sdk\uamqp\src/session.c ****                                         session_instance->outgoing_window--;
 4060              		.loc 1 1629 0
 4061 0234 736B     		ldr	r3, [r6, #52]
 4062 0236 013B     		subs	r3, r3, #1
 4063 0238 7363     		str	r3, [r6, #52]
ARM GAS  C:\Users\Phuong\AppData\Local\Temp\ccX7yw2d.s 			page 109


 4064              	.LVL626:
1630:Source\azure_iot_sdk\uamqp\src/session.c **** 
1631:Source\azure_iot_sdk\uamqp\src/session.c ****                                         result = SESSION_SEND_TRANSFER_OK;
 4065              		.loc 1 1631 0
 4066 023a 0024     		movs	r4, #0
 4067 023c 06E0     		b	.L273
 4068              	.LVL627:
 4069              	.L299:
 4070              	.LBE70:
1481:Source\azure_iot_sdk\uamqp\src/session.c ****                             }
 4071              		.loc 1 1481 0
 4072 023e 0124     		movs	r4, #1
 4073              	.LVL628:
 4074 0240 04E0     		b	.L273
 4075              	.LVL629:
 4076              	.L300:
 4077 0242 0124     		movs	r4, #1
 4078              	.LVL630:
 4079 0244 02E0     		b	.L273
 4080              	.LVL631:
 4081              	.L302:
1501:Source\azure_iot_sdk\uamqp\src/session.c ****                                     }
 4082              		.loc 1 1501 0
 4083 0246 0124     		movs	r4, #1
 4084              	.LVL632:
 4085 0248 00E0     		b	.L273
 4086              	.LVL633:
 4087              	.L306:
 4088              	.LBB71:
1622:Source\azure_iot_sdk\uamqp\src/session.c ****                                     }
 4089              		.loc 1 1622 0
 4090 024a 0124     		movs	r4, #1
 4091              	.LVL634:
 4092              	.L273:
 4093              	.LBE71:
1632:Source\azure_iot_sdk\uamqp\src/session.c ****                                     }
1633:Source\azure_iot_sdk\uamqp\src/session.c ****                                 }
1634:Source\azure_iot_sdk\uamqp\src/session.c ****                             }
1635:Source\azure_iot_sdk\uamqp\src/session.c **** 
1636:Source\azure_iot_sdk\uamqp\src/session.c ****                             amqpvalue_destroy(transfer_value);
 4094              		.loc 1 1636 0 discriminator 1
 4095 024c 0598     		ldr	r0, [sp, #20]
 4096 024e FFF7FEFF 		bl	amqpvalue_destroy
 4097              	.LVL635:
 4098 0252 10E0     		b	.L269
 4099              	.LVL636:
 4100              	.L290:
 4101              	.LBE67:
 4102              	.LBE66:
 4103              	.LBE65:
 4104              	.LBE64:
1412:Source\azure_iot_sdk\uamqp\src/session.c ****     }
 4105              		.loc 1 1412 0
 4106 0254 0124     		movs	r4, #1
 4107 0256 0EE0     		b	.L269
 4108              	.L291:
 4109 0258 0124     		movs	r4, #1
ARM GAS  C:\Users\Phuong\AppData\Local\Temp\ccX7yw2d.s 			page 110


 4110 025a 0CE0     		b	.L269
 4111              	.LVL637:
 4112              	.L292:
 4113              	.LBB74:
1422:Source\azure_iot_sdk\uamqp\src/session.c ****         }
 4114              		.loc 1 1422 0
 4115 025c 0124     		movs	r4, #1
 4116 025e 0AE0     		b	.L269
 4117              	.LVL638:
 4118              	.L293:
 4119              	.LBB73:
1443:Source\azure_iot_sdk\uamqp\src/session.c ****             }
 4120              		.loc 1 1443 0
 4121 0260 0124     		movs	r4, #1
 4122              	.LVL639:
 4123 0262 08E0     		b	.L269
 4124              	.LVL640:
 4125              	.L294:
1449:Source\azure_iot_sdk\uamqp\src/session.c ****                 }
 4126              		.loc 1 1449 0
 4127 0264 0224     		movs	r4, #2
 4128              	.LVL641:
 4129 0266 06E0     		b	.L269
 4130              	.LVL642:
 4131              	.L295:
1461:Source\azure_iot_sdk\uamqp\src/session.c ****                     }
 4132              		.loc 1 1461 0
 4133 0268 0124     		movs	r4, #1
 4134              	.LVL643:
 4135 026a 04E0     		b	.L269
 4136              	.LVL644:
 4137              	.L296:
 4138 026c 0124     		movs	r4, #1
 4139              	.LVL645:
 4140 026e 02E0     		b	.L269
 4141              	.LVL646:
 4142              	.L297:
 4143 0270 0124     		movs	r4, #1
 4144              	.LVL647:
 4145 0272 00E0     		b	.L269
 4146              	.LVL648:
 4147              	.L298:
 4148              	.LBB72:
1471:Source\azure_iot_sdk\uamqp\src/session.c ****                         }
 4149              		.loc 1 1471 0
 4150 0274 0124     		movs	r4, #1
 4151              	.LVL649:
 4152              	.L269:
 4153              	.LBE72:
 4154              	.LBE73:
 4155              	.LBE74:
1637:Source\azure_iot_sdk\uamqp\src/session.c ****                         }
1638:Source\azure_iot_sdk\uamqp\src/session.c ****                     }
1639:Source\azure_iot_sdk\uamqp\src/session.c ****                 }
1640:Source\azure_iot_sdk\uamqp\src/session.c ****             }
1641:Source\azure_iot_sdk\uamqp\src/session.c ****         }
1642:Source\azure_iot_sdk\uamqp\src/session.c ****     }
ARM GAS  C:\Users\Phuong\AppData\Local\Temp\ccX7yw2d.s 			page 111


1643:Source\azure_iot_sdk\uamqp\src/session.c **** 
1644:Source\azure_iot_sdk\uamqp\src/session.c ****     return result;
1645:Source\azure_iot_sdk\uamqp\src/session.c **** }
 4156              		.loc 1 1645 0
 4157 0276 2000     		movs	r0, r4
 4158 0278 09B0     		add	sp, sp, #36
 4159              		@ sp needed
 4160              	.LVL650:
 4161 027a 3CBC     		pop	{r2, r3, r4, r5}
 4162 027c 9046     		mov	r8, r2
 4163 027e 9946     		mov	r9, r3
 4164 0280 A246     		mov	r10, r4
 4165 0282 AB46     		mov	fp, r5
 4166 0284 F0BD     		pop	{r4, r5, r6, r7, pc}
 4167              		.cfi_endproc
 4168              	.LFE30:
 4169              		.size	session_send_transfer, .-session_send_transfer
 4170 0286 C046     		.section	.rodata.str1.4,"aMS",%progbits,1
 4171              		.align	2
 4172              	.LC0:
 4173 0000 43616E6E 		.ascii	"Cannot allocate error handle to end session\000"
 4173      6F742061 
 4173      6C6C6F63 
 4173      61746520 
 4173      6572726F 
 4174              	.LC2:
 4175 002c 616D7170 		.ascii	"amqp:internal-error\000"
 4175      3A696E74 
 4175      65726E61 
 4175      6C2D6572 
 4175      726F7200 
 4176              	.LC6:
 4177 0040 43616E6E 		.ascii	"Cannot decode BEGIN frame\000"
 4177      6F742064 
 4177      65636F64 
 4177      65204245 
 4177      47494E20 
 4178 005a 0000     		.space	2
 4179              	.LC8:
 4180 005c 616D7170 		.ascii	"amqp:decode-error\000"
 4180      3A646563 
 4180      6F64652D 
 4180      6572726F 
 4180      7200
 4181 006e 0000     		.space	2
 4182              	.LC10:
 4183 0070 43616E6E 		.ascii	"Cannot get incoming windows and next outgoing id\000"
 4183      6F742067 
 4183      65742069 
 4183      6E636F6D 
 4183      696E6720 
 4184 00a1 000000   		.space	3
 4185              	.LC12:
 4186 00a4 4661696C 		.ascii	"Failed sending BEGIN frame\000"
 4186      65642073 
 4186      656E6469 
 4186      6E672042 
ARM GAS  C:\Users\Phuong\AppData\Local\Temp\ccX7yw2d.s 			page 112


 4186      4547494E 
 4187 00bf 00       		.space	1
 4188              	.LC15:
 4189 00c0 43616E6E 		.ascii	"Cannot decode ATTACH frame\000"
 4189      6F742064 
 4189      65636F64 
 4189      65204154 
 4189      54414348 
 4190 00db 00       		.space	1
 4191              	.LC17:
 4192 00dc 43616E6E 		.ascii	"Cannot get link name from ATTACH frame\000"
 4192      6F742067 
 4192      6574206C 
 4192      696E6B20 
 4192      6E616D65 
 4193 0103 00       		.space	1
 4194              	.LC19:
 4195 0104 43616E6E 		.ascii	"Cannot get link role from ATTACH frame\000"
 4195      6F742067 
 4195      6574206C 
 4195      696E6B20 
 4195      726F6C65 
 4196 012b 00       		.space	1
 4197              	.LC21:
 4198 012c 43616E6E 		.ascii	"Cannot create link endpoint\000"
 4198      6F742063 
 4198      72656174 
 4198      65206C69 
 4198      6E6B2065 
 4199              	.LC23:
 4200 0148 43616E6E 		.ascii	"Cannot get input handle from ATTACH frame\000"
 4200      6F742067 
 4200      65742069 
 4200      6E707574 
 4200      2068616E 
 4201 0172 0000     		.space	2
 4202              	.LC25:
 4203 0174 43616E6E 		.ascii	"Cannot decode DETACH frame\000"
 4203      6F742064 
 4203      65636F64 
 4203      65204445 
 4203      54414348 
 4204 018f 00       		.space	1
 4205              	.LC27:
 4206 0190 43616E6E 		.ascii	"Cannot get handle from DETACH frame\000"
 4206      6F742067 
 4206      65742068 
 4206      616E646C 
 4206      65206672 
 4207              	.LC29:
 4208 01b4 00       		.ascii	"\000"
 4209 01b5 000000   		.space	3
 4210              	.LC31:
 4211 01b8 616D7170 		.ascii	"amqp:session:unattached-handle\000"
 4211      3A736573 
 4211      73696F6E 
 4211      3A756E61 
ARM GAS  C:\Users\Phuong\AppData\Local\Temp\ccX7yw2d.s 			page 113


 4211      74746163 
 4212 01d7 00       		.space	1
 4213              	.LC33:
 4214 01d8 43616E6E 		.ascii	"Cannot decode FLOW frame\000"
 4214      6F742064 
 4214      65636F64 
 4214      6520464C 
 4214      4F572066 
 4215 01f1 000000   		.space	3
 4216              	.LC35:
 4217 01f4 43616E6E 		.ascii	"Cannot decode TRANSFER frame\000"
 4217      6F742064 
 4217      65636F64 
 4217      65205452 
 4217      414E5346 
 4218 0211 000000   		.space	3
 4219              	.LC37:
 4220 0214 43616E6E 		.ascii	"Cannot get handle from TRANSFER frame\000"
 4220      6F742067 
 4220      65742068 
 4220      616E646C 
 4220      65206672 
 4221 023a 0000     		.space	2
 4222              	.LC39:
 4223 023c 43616E6E 		.ascii	"Cannot decode END frame\000"
 4223      6F742064 
 4223      65636F64 
 4223      6520454E 
 4223      44206672 
 4224              	.LC41:
 4225 0254 43616E6E 		.ascii	"Cannot send END frame.\000"
 4225      6F742073 
 4225      656E6420 
 4225      454E4420 
 4225      6672616D 
 4226              		.text
 4227              	.Letext0:
 4228              		.file 2 "c:\\program files (x86)\\cypress\\psoc creator\\4.2\\psoc creator\\import\\gnu\\arm\\5.4.
 4229              		.file 3 "c:\\program files (x86)\\cypress\\psoc creator\\4.2\\psoc creator\\import\\gnu\\arm\\5.4.
 4230              		.file 4 "c:\\program files (x86)\\cypress\\psoc creator\\4.2\\psoc creator\\import\\gnu\\arm\\5.4.
 4231              		.file 5 ".\\Source\\azure_iot_sdk\\uamqp\\inc/azure_uamqp_c/amqpvalue.h"
 4232              		.file 6 ".\\Source\\azure_iot_sdk\\uamqp\\inc/azure_uamqp_c/frame_codec.h"
 4233              		.file 7 ".\\Source\\azure_iot_sdk\\c-utility\\inc/azure_c_shared_utility/xio.h"
 4234              		.file 8 ".\\Source\\azure_iot_sdk\\uamqp\\inc/azure_uamqp_c/amqp_definitions_error.h"
 4235              		.file 9 ".\\Source\\azure_iot_sdk\\uamqp\\inc/azure_uamqp_c/connection.h"
 4236              		.file 10 ".\\Source\\azure_iot_sdk\\uamqp\\inc/azure_uamqp_c/amqp_definitions_role.h"
 4237              		.file 11 ".\\Source\\azure_iot_sdk\\uamqp\\inc/azure_uamqp_c/amqp_definitions_handle.h"
 4238              		.file 12 ".\\Source\\azure_iot_sdk\\uamqp\\inc/azure_uamqp_c/amqp_definitions_sequence_no.h"
 4239              		.file 13 ".\\Source\\azure_iot_sdk\\uamqp\\inc/azure_uamqp_c/amqp_definitions_delivery_number.h"
 4240              		.file 14 ".\\Source\\azure_iot_sdk\\uamqp\\inc/azure_uamqp_c/amqp_definitions_disposition.h"
 4241              		.file 15 ".\\Source\\azure_iot_sdk\\uamqp\\inc/azure_uamqp_c/amqp_definitions_transfer_number.h"
 4242              		.file 16 ".\\Source\\azure_iot_sdk\\uamqp\\inc/azure_uamqp_c/amqp_definitions_flow.h"
 4243              		.file 17 ".\\Source\\azure_iot_sdk\\uamqp\\inc/azure_uamqp_c/amqp_definitions_attach.h"
 4244              		.file 18 ".\\Source\\azure_iot_sdk\\uamqp\\inc/azure_uamqp_c/amqp_definitions_detach.h"
 4245              		.file 19 ".\\Source\\azure_iot_sdk\\uamqp\\inc/azure_uamqp_c/amqp_definitions_transfer.h"
 4246              		.file 20 ".\\Source\\azure_iot_sdk\\uamqp\\inc/azure_uamqp_c/session.h"
 4247              		.file 21 ".\\Source\\azure_iot_sdk\\uamqp\\inc/azure_uamqp_c/amqp_definitions_begin.h"
ARM GAS  C:\Users\Phuong\AppData\Local\Temp\ccX7yw2d.s 			page 114


 4248              		.file 22 ".\\Source\\azure_iot_sdk\\uamqp\\inc/azure_uamqp_c/amqp_definitions_end.h"
 4249              		.file 23 "c:\\program files (x86)\\cypress\\psoc creator\\4.2\\psoc creator\\import\\gnu\\arm\\5.4
 4250              		.file 24 "c:\\program files (x86)\\cypress\\psoc creator\\4.2\\psoc creator\\import\\gnu\\arm\\5.4
 4251              		.section	.debug_info,"",%progbits
 4252              	.Ldebug_info0:
 4253 0000 352A0000 		.4byte	0x2a35
 4254 0004 0400     		.2byte	0x4
 4255 0006 00000000 		.4byte	.Ldebug_abbrev0
 4256 000a 04       		.byte	0x4
 4257 000b 01       		.uleb128 0x1
 4258 000c 8C050000 		.4byte	.LASF297
 4259 0010 0C       		.byte	0xc
 4260 0011 EB140000 		.4byte	.LASF298
 4261 0015 85070000 		.4byte	.LASF299
 4262 0019 E8010000 		.4byte	.Ldebug_ranges0+0x1e8
 4263 001d 00000000 		.4byte	0
 4264 0021 00000000 		.4byte	.Ldebug_line0
 4265 0025 02       		.uleb128 0x2
 4266 0026 AE080000 		.4byte	.LASF6
 4267 002a 02       		.byte	0x2
 4268 002b D8       		.byte	0xd8
 4269 002c 30000000 		.4byte	0x30
 4270 0030 03       		.uleb128 0x3
 4271 0031 04       		.byte	0x4
 4272 0032 07       		.byte	0x7
 4273 0033 AB010000 		.4byte	.LASF0
 4274 0037 04       		.uleb128 0x4
 4275 0038 04       		.byte	0x4
 4276 0039 05       		.byte	0x5
 4277 003a 696E7400 		.ascii	"int\000"
 4278 003e 03       		.uleb128 0x3
 4279 003f 08       		.byte	0x8
 4280 0040 05       		.byte	0x5
 4281 0041 4A0C0000 		.4byte	.LASF1
 4282 0045 03       		.uleb128 0x3
 4283 0046 08       		.byte	0x8
 4284 0047 04       		.byte	0x4
 4285 0048 170F0000 		.4byte	.LASF2
 4286 004c 03       		.uleb128 0x3
 4287 004d 01       		.byte	0x1
 4288 004e 06       		.byte	0x6
 4289 004f 8C150000 		.4byte	.LASF3
 4290 0053 03       		.uleb128 0x3
 4291 0054 01       		.byte	0x1
 4292 0055 08       		.byte	0x8
 4293 0056 02140000 		.4byte	.LASF4
 4294 005a 03       		.uleb128 0x3
 4295 005b 02       		.byte	0x2
 4296 005c 05       		.byte	0x5
 4297 005d 6E100000 		.4byte	.LASF5
 4298 0061 02       		.uleb128 0x2
 4299 0062 22070000 		.4byte	.LASF7
 4300 0066 03       		.byte	0x3
 4301 0067 2B       		.byte	0x2b
 4302 0068 6C000000 		.4byte	0x6c
 4303 006c 03       		.uleb128 0x3
 4304 006d 02       		.byte	0x2
ARM GAS  C:\Users\Phuong\AppData\Local\Temp\ccX7yw2d.s 			page 115


 4305 006e 07       		.byte	0x7
 4306 006f AA150000 		.4byte	.LASF8
 4307 0073 03       		.uleb128 0x3
 4308 0074 04       		.byte	0x4
 4309 0075 05       		.byte	0x5
 4310 0076 9B100000 		.4byte	.LASF9
 4311 007a 02       		.uleb128 0x2
 4312 007b 10140000 		.4byte	.LASF10
 4313 007f 03       		.byte	0x3
 4314 0080 41       		.byte	0x41
 4315 0081 85000000 		.4byte	0x85
 4316 0085 03       		.uleb128 0x3
 4317 0086 04       		.byte	0x4
 4318 0087 07       		.byte	0x7
 4319 0088 2A130000 		.4byte	.LASF11
 4320 008c 03       		.uleb128 0x3
 4321 008d 08       		.byte	0x8
 4322 008e 07       		.byte	0x7
 4323 008f C8060000 		.4byte	.LASF12
 4324 0093 03       		.uleb128 0x3
 4325 0094 04       		.byte	0x4
 4326 0095 07       		.byte	0x7
 4327 0096 21130000 		.4byte	.LASF13
 4328 009a 05       		.uleb128 0x5
 4329 009b 04       		.byte	0x4
 4330 009c 06       		.uleb128 0x6
 4331 009d 04       		.byte	0x4
 4332 009e A2000000 		.4byte	0xa2
 4333 00a2 03       		.uleb128 0x3
 4334 00a3 01       		.byte	0x1
 4335 00a4 08       		.byte	0x8
 4336 00a5 E20A0000 		.4byte	.LASF14
 4337 00a9 06       		.uleb128 0x6
 4338 00aa 04       		.byte	0x4
 4339 00ab AF000000 		.4byte	0xaf
 4340 00af 07       		.uleb128 0x7
 4341 00b0 A2000000 		.4byte	0xa2
 4342 00b4 02       		.uleb128 0x2
 4343 00b5 230F0000 		.4byte	.LASF15
 4344 00b9 04       		.byte	0x4
 4345 00ba 24       		.byte	0x24
 4346 00bb 61000000 		.4byte	0x61
 4347 00bf 02       		.uleb128 0x2
 4348 00c0 13050000 		.4byte	.LASF16
 4349 00c4 04       		.byte	0x4
 4350 00c5 30       		.byte	0x30
 4351 00c6 7A000000 		.4byte	0x7a
 4352 00ca 02       		.uleb128 0x2
 4353 00cb 1B100000 		.4byte	.LASF17
 4354 00cf 05       		.byte	0x5
 4355 00d0 15       		.byte	0x15
 4356 00d1 D5000000 		.4byte	0xd5
 4357 00d5 06       		.uleb128 0x6
 4358 00d6 04       		.byte	0x4
 4359 00d7 DB000000 		.4byte	0xdb
 4360 00db 08       		.uleb128 0x8
 4361 00dc 1E060000 		.4byte	.LASF28
ARM GAS  C:\Users\Phuong\AppData\Local\Temp\ccX7yw2d.s 			page 116


 4362 00e0 06       		.uleb128 0x6
 4363 00e1 04       		.byte	0x4
 4364 00e2 E6000000 		.4byte	0xe6
 4365 00e6 07       		.uleb128 0x7
 4366 00e7 53000000 		.4byte	0x53
 4367 00eb 09       		.uleb128 0x9
 4368 00ec 94110000 		.4byte	.LASF69
 4369 00f0 08       		.byte	0x8
 4370 00f1 06       		.byte	0x6
 4371 00f2 15       		.byte	0x15
 4372 00f3 10010000 		.4byte	0x110
 4373 00f7 0A       		.uleb128 0xa
 4374 00f8 99090000 		.4byte	.LASF18
 4375 00fc 06       		.byte	0x6
 4376 00fd 17       		.byte	0x17
 4377 00fe E0000000 		.4byte	0xe0
 4378 0102 00       		.byte	0
 4379 0103 0A       		.uleb128 0xa
 4380 0104 EA100000 		.4byte	.LASF19
 4381 0108 06       		.byte	0x6
 4382 0109 18       		.byte	0x18
 4383 010a 25000000 		.4byte	0x25
 4384 010e 04       		.byte	0x4
 4385 010f 00       		.byte	0
 4386 0110 02       		.uleb128 0x2
 4387 0111 0B170000 		.4byte	.LASF20
 4388 0115 06       		.byte	0x6
 4389 0116 19       		.byte	0x19
 4390 0117 EB000000 		.4byte	0xeb
 4391 011b 06       		.uleb128 0x6
 4392 011c 04       		.byte	0x4
 4393 011d 21010000 		.4byte	0x121
 4394 0121 0B       		.uleb128 0xb
 4395 0122 2C010000 		.4byte	0x12c
 4396 0126 0C       		.uleb128 0xc
 4397 0127 9A000000 		.4byte	0x9a
 4398 012b 00       		.byte	0
 4399 012c 03       		.uleb128 0x3
 4400 012d 01       		.byte	0x1
 4401 012e 02       		.byte	0x2
 4402 012f 3D090000 		.4byte	.LASF21
 4403 0133 0D       		.uleb128 0xd
 4404 0134 88100000 		.4byte	.LASF34
 4405 0138 01       		.byte	0x1
 4406 0139 53000000 		.4byte	0x53
 4407 013d 07       		.byte	0x7
 4408 013e 1B       		.byte	0x1b
 4409 013f 56010000 		.4byte	0x156
 4410 0143 0E       		.uleb128 0xe
 4411 0144 69130000 		.4byte	.LASF22
 4412 0148 00       		.byte	0
 4413 0149 0E       		.uleb128 0xe
 4414 014a 1F030000 		.4byte	.LASF23
 4415 014e 01       		.byte	0x1
 4416 014f 0E       		.uleb128 0xe
 4417 0150 1A0A0000 		.4byte	.LASF24
 4418 0154 02       		.byte	0x2
ARM GAS  C:\Users\Phuong\AppData\Local\Temp\ccX7yw2d.s 			page 117


 4419 0155 00       		.byte	0
 4420 0156 02       		.uleb128 0x2
 4421 0157 82130000 		.4byte	.LASF25
 4422 015b 07       		.byte	0x7
 4423 015c 1B       		.byte	0x1b
 4424 015d 33010000 		.4byte	0x133
 4425 0161 02       		.uleb128 0x2
 4426 0162 D50D0000 		.4byte	.LASF26
 4427 0166 07       		.byte	0x7
 4428 0167 25       		.byte	0x25
 4429 0168 6C010000 		.4byte	0x16c
 4430 016c 06       		.uleb128 0x6
 4431 016d 04       		.byte	0x4
 4432 016e 72010000 		.4byte	0x172
 4433 0172 0B       		.uleb128 0xb
 4434 0173 82010000 		.4byte	0x182
 4435 0177 0C       		.uleb128 0xc
 4436 0178 9A000000 		.4byte	0x9a
 4437 017c 0C       		.uleb128 0xc
 4438 017d 56010000 		.4byte	0x156
 4439 0181 00       		.byte	0
 4440 0182 02       		.uleb128 0x2
 4441 0183 37010000 		.4byte	.LASF27
 4442 0187 08       		.byte	0x8
 4443 0188 18       		.byte	0x18
 4444 0189 8D010000 		.4byte	0x18d
 4445 018d 06       		.uleb128 0x6
 4446 018e 04       		.byte	0x4
 4447 018f 93010000 		.4byte	0x193
 4448 0193 08       		.uleb128 0x8
 4449 0194 3D030000 		.4byte	.LASF29
 4450 0198 02       		.uleb128 0x2
 4451 0199 260D0000 		.4byte	.LASF30
 4452 019d 09       		.byte	0x9
 4453 019e 16       		.byte	0x16
 4454 019f A3010000 		.4byte	0x1a3
 4455 01a3 06       		.uleb128 0x6
 4456 01a4 04       		.byte	0x4
 4457 01a5 A9010000 		.4byte	0x1a9
 4458 01a9 08       		.uleb128 0x8
 4459 01aa E10F0000 		.4byte	.LASF31
 4460 01ae 02       		.uleb128 0x2
 4461 01af 870E0000 		.4byte	.LASF32
 4462 01b3 09       		.byte	0x9
 4463 01b4 17       		.byte	0x17
 4464 01b5 B9010000 		.4byte	0x1b9
 4465 01b9 06       		.uleb128 0x6
 4466 01ba 04       		.byte	0x4
 4467 01bb BF010000 		.4byte	0x1bf
 4468 01bf 08       		.uleb128 0x8
 4469 01c0 010F0000 		.4byte	.LASF33
 4470 01c4 0D       		.uleb128 0xd
 4471 01c5 D5040000 		.4byte	.LASF35
 4472 01c9 01       		.byte	0x1
 4473 01ca 53000000 		.4byte	0x53
 4474 01ce 09       		.byte	0x9
 4475 01cf 1A       		.byte	0x1a
ARM GAS  C:\Users\Phuong\AppData\Local\Temp\ccX7yw2d.s 			page 118


 4476 01d0 2F020000 		.4byte	0x22f
 4477 01d4 0E       		.uleb128 0xe
 4478 01d5 3B110000 		.4byte	.LASF36
 4479 01d9 00       		.byte	0
 4480 01da 0E       		.uleb128 0xe
 4481 01db CC080000 		.4byte	.LASF37
 4482 01df 01       		.byte	0x1
 4483 01e0 0E       		.uleb128 0xe
 4484 01e1 BB040000 		.4byte	.LASF38
 4485 01e5 02       		.byte	0x2
 4486 01e6 0E       		.uleb128 0xe
 4487 01e7 BD150000 		.4byte	.LASF39
 4488 01eb 03       		.byte	0x3
 4489 01ec 0E       		.uleb128 0xe
 4490 01ed BD0C0000 		.4byte	.LASF40
 4491 01f1 04       		.byte	0x4
 4492 01f2 0E       		.uleb128 0xe
 4493 01f3 0B110000 		.4byte	.LASF41
 4494 01f7 05       		.byte	0x5
 4495 01f8 0E       		.uleb128 0xe
 4496 01f9 A4100000 		.4byte	.LASF42
 4497 01fd 06       		.byte	0x6
 4498 01fe 0E       		.uleb128 0xe
 4499 01ff A10D0000 		.4byte	.LASF43
 4500 0203 07       		.byte	0x7
 4501 0204 0E       		.uleb128 0xe
 4502 0205 CF140000 		.4byte	.LASF44
 4503 0209 08       		.byte	0x8
 4504 020a 0E       		.uleb128 0xe
 4505 020b 93010000 		.4byte	.LASF45
 4506 020f 09       		.byte	0x9
 4507 0210 0E       		.uleb128 0xe
 4508 0211 0E010000 		.4byte	.LASF46
 4509 0215 0A       		.byte	0xa
 4510 0216 0E       		.uleb128 0xe
 4511 0217 5E150000 		.4byte	.LASF47
 4512 021b 0B       		.byte	0xb
 4513 021c 0E       		.uleb128 0xe
 4514 021d 0C120000 		.4byte	.LASF48
 4515 0221 0C       		.byte	0xc
 4516 0222 0E       		.uleb128 0xe
 4517 0223 DE010000 		.4byte	.LASF49
 4518 0227 0D       		.byte	0xd
 4519 0228 0E       		.uleb128 0xe
 4520 0229 21170000 		.4byte	.LASF50
 4521 022d 0E       		.byte	0xe
 4522 022e 00       		.byte	0
 4523 022f 02       		.uleb128 0x2
 4524 0230 520B0000 		.4byte	.LASF51
 4525 0234 09       		.byte	0x9
 4526 0235 48       		.byte	0x48
 4527 0236 C4010000 		.4byte	0x1c4
 4528 023a 02       		.uleb128 0x2
 4529 023b C1120000 		.4byte	.LASF52
 4530 023f 09       		.byte	0x9
 4531 0240 4A       		.byte	0x4a
 4532 0241 45020000 		.4byte	0x245
ARM GAS  C:\Users\Phuong\AppData\Local\Temp\ccX7yw2d.s 			page 119


 4533 0245 06       		.uleb128 0x6
 4534 0246 04       		.byte	0x4
 4535 0247 4B020000 		.4byte	0x24b
 4536 024b 0B       		.uleb128 0xb
 4537 024c 65020000 		.4byte	0x265
 4538 0250 0C       		.uleb128 0xc
 4539 0251 9A000000 		.4byte	0x9a
 4540 0255 0C       		.uleb128 0xc
 4541 0256 CA000000 		.4byte	0xca
 4542 025a 0C       		.uleb128 0xc
 4543 025b BF000000 		.4byte	0xbf
 4544 025f 0C       		.uleb128 0xc
 4545 0260 E0000000 		.4byte	0xe0
 4546 0264 00       		.byte	0
 4547 0265 02       		.uleb128 0x2
 4548 0266 C30B0000 		.4byte	.LASF53
 4549 026a 0A       		.byte	0xa
 4550 026b 19       		.byte	0x19
 4551 026c 2C010000 		.4byte	0x12c
 4552 0270 02       		.uleb128 0x2
 4553 0271 DD150000 		.4byte	.LASF54
 4554 0275 0B       		.byte	0xb
 4555 0276 19       		.byte	0x19
 4556 0277 BF000000 		.4byte	0xbf
 4557 027b 02       		.uleb128 0x2
 4558 027c 630B0000 		.4byte	.LASF55
 4559 0280 0C       		.byte	0xc
 4560 0281 19       		.byte	0x19
 4561 0282 BF000000 		.4byte	0xbf
 4562 0286 02       		.uleb128 0x2
 4563 0287 14150000 		.4byte	.LASF56
 4564 028b 0D       		.byte	0xd
 4565 028c 19       		.byte	0x19
 4566 028d 7B020000 		.4byte	0x27b
 4567 0291 02       		.uleb128 0x2
 4568 0292 28120000 		.4byte	.LASF57
 4569 0296 0E       		.byte	0xe
 4570 0297 18       		.byte	0x18
 4571 0298 9C020000 		.4byte	0x29c
 4572 029c 06       		.uleb128 0x6
 4573 029d 04       		.byte	0x4
 4574 029e A2020000 		.4byte	0x2a2
 4575 02a2 08       		.uleb128 0x8
 4576 02a3 DD160000 		.4byte	.LASF58
 4577 02a7 02       		.uleb128 0x2
 4578 02a8 62120000 		.4byte	.LASF59
 4579 02ac 0F       		.byte	0xf
 4580 02ad 19       		.byte	0x19
 4581 02ae 7B020000 		.4byte	0x27b
 4582 02b2 02       		.uleb128 0x2
 4583 02b3 76170000 		.4byte	.LASF60
 4584 02b7 10       		.byte	0x10
 4585 02b8 18       		.byte	0x18
 4586 02b9 BD020000 		.4byte	0x2bd
 4587 02bd 06       		.uleb128 0x6
 4588 02be 04       		.byte	0x4
 4589 02bf C3020000 		.4byte	0x2c3
ARM GAS  C:\Users\Phuong\AppData\Local\Temp\ccX7yw2d.s 			page 120


 4590 02c3 08       		.uleb128 0x8
 4591 02c4 24160000 		.4byte	.LASF61
 4592 02c8 02       		.uleb128 0x2
 4593 02c9 810D0000 		.4byte	.LASF62
 4594 02cd 11       		.byte	0x11
 4595 02ce 18       		.byte	0x18
 4596 02cf D3020000 		.4byte	0x2d3
 4597 02d3 06       		.uleb128 0x6
 4598 02d4 04       		.byte	0x4
 4599 02d5 D9020000 		.4byte	0x2d9
 4600 02d9 08       		.uleb128 0x8
 4601 02da 9A080000 		.4byte	.LASF63
 4602 02de 02       		.uleb128 0x2
 4603 02df E60D0000 		.4byte	.LASF64
 4604 02e3 12       		.byte	0x12
 4605 02e4 18       		.byte	0x18
 4606 02e5 E9020000 		.4byte	0x2e9
 4607 02e9 06       		.uleb128 0x6
 4608 02ea 04       		.byte	0x4
 4609 02eb EF020000 		.4byte	0x2ef
 4610 02ef 08       		.uleb128 0x8
 4611 02f0 D5130000 		.4byte	.LASF65
 4612 02f4 02       		.uleb128 0x2
 4613 02f5 4E150000 		.4byte	.LASF66
 4614 02f9 13       		.byte	0x13
 4615 02fa 18       		.byte	0x18
 4616 02fb FF020000 		.4byte	0x2ff
 4617 02ff 06       		.uleb128 0x6
 4618 0300 04       		.byte	0x4
 4619 0301 05030000 		.4byte	0x305
 4620 0305 08       		.uleb128 0x8
 4621 0306 010B0000 		.4byte	.LASF67
 4622 030a 02       		.uleb128 0x2
 4623 030b F7000000 		.4byte	.LASF68
 4624 030f 14       		.byte	0x14
 4625 0310 26       		.byte	0x26
 4626 0311 15030000 		.4byte	0x315
 4627 0315 06       		.uleb128 0x6
 4628 0316 04       		.byte	0x4
 4629 0317 1B030000 		.4byte	0x31b
 4630 031b 09       		.uleb128 0x9
 4631 031c 71060000 		.4byte	.LASF70
 4632 0320 48       		.byte	0x48
 4633 0321 01       		.byte	0x1
 4634 0322 20       		.byte	0x20
 4635 0323 0F040000 		.4byte	0x40f
 4636 0327 0A       		.uleb128 0xa
 4637 0328 58010000 		.4byte	.LASF71
 4638 032c 01       		.byte	0x1
 4639 032d 22       		.byte	0x22
 4640 032e 3A020000 		.4byte	0x23a
 4641 0332 00       		.byte	0
 4642 0333 0A       		.uleb128 0xa
 4643 0334 A0110000 		.4byte	.LASF72
 4644 0338 01       		.byte	0x1
 4645 0339 23       		.byte	0x23
 4646 033a 9A000000 		.4byte	0x9a
ARM GAS  C:\Users\Phuong\AppData\Local\Temp\ccX7yw2d.s 			page 121


 4647 033e 04       		.byte	0x4
 4648 033f 0A       		.uleb128 0xa
 4649 0340 A6060000 		.4byte	.LASF73
 4650 0344 01       		.byte	0x1
 4651 0345 24       		.byte	0x24
 4652 0346 DA040000 		.4byte	0x4da
 4653 034a 08       		.byte	0x8
 4654 034b 0A       		.uleb128 0xa
 4655 034c F90F0000 		.4byte	.LASF74
 4656 0350 01       		.byte	0x1
 4657 0351 25       		.byte	0x25
 4658 0352 DA040000 		.4byte	0x4da
 4659 0356 09       		.byte	0x9
 4660 0357 0A       		.uleb128 0xa
 4661 0358 3F0C0000 		.4byte	.LASF75
 4662 035c 01       		.byte	0x1
 4663 035d 26       		.byte	0x26
 4664 035e 98010000 		.4byte	0x198
 4665 0362 0C       		.byte	0xc
 4666 0363 0A       		.uleb128 0xa
 4667 0364 AA160000 		.4byte	.LASF76
 4668 0368 01       		.byte	0x1
 4669 0369 27       		.byte	0x27
 4670 036a AE010000 		.4byte	0x1ae
 4671 036e 10       		.byte	0x10
 4672 036f 0A       		.uleb128 0xa
 4673 0370 DB100000 		.4byte	.LASF77
 4674 0374 01       		.byte	0x1
 4675 0375 28       		.byte	0x28
 4676 0376 E2050000 		.4byte	0x5e2
 4677 037a 14       		.byte	0x14
 4678 037b 0A       		.uleb128 0xa
 4679 037c 2B0C0000 		.4byte	.LASF78
 4680 0380 01       		.byte	0x1
 4681 0381 29       		.byte	0x29
 4682 0382 BF000000 		.4byte	0xbf
 4683 0386 18       		.byte	0x18
 4684 0387 0A       		.uleb128 0xa
 4685 0388 0D0C0000 		.4byte	.LASF79
 4686 038c 01       		.byte	0x1
 4687 038d 2B       		.byte	0x2b
 4688 038e 44050000 		.4byte	0x544
 4689 0392 1C       		.byte	0x1c
 4690 0393 0A       		.uleb128 0xa
 4691 0394 5D000000 		.4byte	.LASF80
 4692 0398 01       		.byte	0x1
 4693 0399 2C       		.byte	0x2c
 4694 039a 9A000000 		.4byte	0x9a
 4695 039e 20       		.byte	0x20
 4696 039f 0A       		.uleb128 0xa
 4697 03a0 02050000 		.4byte	.LASF81
 4698 03a4 01       		.byte	0x1
 4699 03a5 2F       		.byte	0x2f
 4700 03a6 A7020000 		.4byte	0x2a7
 4701 03aa 24       		.byte	0x24
 4702 03ab 0A       		.uleb128 0xa
 4703 03ac 4C000000 		.4byte	.LASF82
ARM GAS  C:\Users\Phuong\AppData\Local\Temp\ccX7yw2d.s 			page 122


 4704 03b0 01       		.byte	0x1
 4705 03b1 30       		.byte	0x30
 4706 03b2 A7020000 		.4byte	0x2a7
 4707 03b6 28       		.byte	0x28
 4708 03b7 0A       		.uleb128 0xa
 4709 03b8 3F080000 		.4byte	.LASF83
 4710 03bc 01       		.byte	0x1
 4711 03bd 31       		.byte	0x31
 4712 03be BF000000 		.4byte	0xbf
 4713 03c2 2C       		.byte	0x2c
 4714 03c3 0A       		.uleb128 0xa
 4715 03c4 78100000 		.4byte	.LASF84
 4716 03c8 01       		.byte	0x1
 4717 03c9 32       		.byte	0x32
 4718 03ca BF000000 		.4byte	0xbf
 4719 03ce 30       		.byte	0x30
 4720 03cf 0A       		.uleb128 0xa
 4721 03d0 FC090000 		.4byte	.LASF85
 4722 03d4 01       		.byte	0x1
 4723 03d5 33       		.byte	0x33
 4724 03d6 BF000000 		.4byte	0xbf
 4725 03da 34       		.byte	0x34
 4726 03db 0A       		.uleb128 0xa
 4727 03dc 2B050000 		.4byte	.LASF86
 4728 03e0 01       		.byte	0x1
 4729 03e1 34       		.byte	0x34
 4730 03e2 70020000 		.4byte	0x270
 4731 03e6 38       		.byte	0x38
 4732 03e7 0A       		.uleb128 0xa
 4733 03e8 32060000 		.4byte	.LASF87
 4734 03ec 01       		.byte	0x1
 4735 03ed 35       		.byte	0x35
 4736 03ee BF000000 		.4byte	0xbf
 4737 03f2 3C       		.byte	0x3c
 4738 03f3 0A       		.uleb128 0xa
 4739 03f4 BB000000 		.4byte	.LASF88
 4740 03f8 01       		.byte	0x1
 4741 03f9 36       		.byte	0x36
 4742 03fa BF000000 		.4byte	0xbf
 4743 03fe 40       		.byte	0x40
 4744 03ff 0F       		.uleb128 0xf
 4745 0400 52110000 		.4byte	.LASF300
 4746 0404 01       		.byte	0x1
 4747 0405 37       		.byte	0x37
 4748 0406 30000000 		.4byte	0x30
 4749 040a 04       		.byte	0x4
 4750 040b 01       		.byte	0x1
 4751 040c 1F       		.byte	0x1f
 4752 040d 44       		.byte	0x44
 4753 040e 00       		.byte	0
 4754 040f 02       		.uleb128 0x2
 4755 0410 2A080000 		.4byte	.LASF89
 4756 0414 14       		.byte	0x14
 4757 0415 27       		.byte	0x27
 4758 0416 1A040000 		.4byte	0x41a
 4759 041a 06       		.uleb128 0x6
 4760 041b 04       		.byte	0x4
ARM GAS  C:\Users\Phuong\AppData\Local\Temp\ccX7yw2d.s 			page 123


 4761 041c 20040000 		.4byte	0x420
 4762 0420 09       		.uleb128 0x9
 4763 0421 D80C0000 		.4byte	.LASF90
 4764 0425 24       		.byte	0x24
 4765 0426 01       		.byte	0x1
 4766 0427 13       		.byte	0x13
 4767 0428 99040000 		.4byte	0x499
 4768 042c 0A       		.uleb128 0xa
 4769 042d 3B120000 		.4byte	.LASF91
 4770 0431 01       		.byte	0x1
 4771 0432 15       		.byte	0x15
 4772 0433 9C000000 		.4byte	0x9c
 4773 0437 00       		.byte	0
 4774 0438 0A       		.uleb128 0xa
 4775 0439 A40E0000 		.4byte	.LASF92
 4776 043d 01       		.byte	0x1
 4777 043e 16       		.byte	0x16
 4778 043f 70020000 		.4byte	0x270
 4779 0443 04       		.byte	0x4
 4780 0444 0A       		.uleb128 0xa
 4781 0445 59140000 		.4byte	.LASF93
 4782 0449 01       		.byte	0x1
 4783 044a 17       		.byte	0x17
 4784 044b 70020000 		.4byte	0x270
 4785 044f 08       		.byte	0x8
 4786 0450 0A       		.uleb128 0xa
 4787 0451 58010000 		.4byte	.LASF71
 4788 0455 01       		.byte	0x1
 4789 0456 18       		.byte	0x18
 4790 0457 3A020000 		.4byte	0x23a
 4791 045b 0C       		.byte	0xc
 4792 045c 0A       		.uleb128 0xa
 4793 045d 60090000 		.4byte	.LASF94
 4794 0461 01       		.byte	0x1
 4795 0462 19       		.byte	0x19
 4796 0463 13050000 		.4byte	0x513
 4797 0467 10       		.byte	0x10
 4798 0468 0A       		.uleb128 0xa
 4799 0469 AF090000 		.4byte	.LASF95
 4800 046d 01       		.byte	0x1
 4801 046e 1A       		.byte	0x1a
 4802 046f 39050000 		.4byte	0x539
 4803 0473 14       		.byte	0x14
 4804 0474 0A       		.uleb128 0xa
 4805 0475 A60F0000 		.4byte	.LASF96
 4806 0479 01       		.byte	0x1
 4807 047a 1B       		.byte	0x1b
 4808 047b 9A000000 		.4byte	0x9a
 4809 047f 18       		.byte	0x18
 4810 0480 0A       		.uleb128 0xa
 4811 0481 06010000 		.4byte	.LASF97
 4812 0485 01       		.byte	0x1
 4813 0486 1C       		.byte	0x1c
 4814 0487 0A030000 		.4byte	0x30a
 4815 048b 1C       		.byte	0x1c
 4816 048c 0A       		.uleb128 0xa
 4817 048d B4060000 		.4byte	.LASF98
ARM GAS  C:\Users\Phuong\AppData\Local\Temp\ccX7yw2d.s 			page 124


 4818 0491 01       		.byte	0x1
 4819 0492 1D       		.byte	0x1d
 4820 0493 CC050000 		.4byte	0x5cc
 4821 0497 20       		.byte	0x20
 4822 0498 00       		.byte	0
 4823 0499 0D       		.uleb128 0xd
 4824 049a 27020000 		.4byte	.LASF99
 4825 049e 01       		.byte	0x1
 4826 049f 53000000 		.4byte	0x53
 4827 04a3 14       		.byte	0x14
 4828 04a4 33       		.byte	0x33
 4829 04a5 DA040000 		.4byte	0x4da
 4830 04a9 0E       		.uleb128 0xe
 4831 04aa 170B0000 		.4byte	.LASF100
 4832 04ae 00       		.byte	0
 4833 04af 0E       		.uleb128 0xe
 4834 04b0 680F0000 		.4byte	.LASF101
 4835 04b4 01       		.byte	0x1
 4836 04b5 0E       		.uleb128 0xe
 4837 04b6 DC120000 		.4byte	.LASF102
 4838 04ba 02       		.byte	0x2
 4839 04bb 0E       		.uleb128 0xe
 4840 04bc 1B140000 		.4byte	.LASF103
 4841 04c0 03       		.byte	0x3
 4842 04c1 0E       		.uleb128 0xe
 4843 04c2 24110000 		.4byte	.LASF104
 4844 04c6 04       		.byte	0x4
 4845 04c7 0E       		.uleb128 0xe
 4846 04c8 30140000 		.4byte	.LASF105
 4847 04cc 05       		.byte	0x5
 4848 04cd 0E       		.uleb128 0xe
 4849 04ce E9130000 		.4byte	.LASF106
 4850 04d2 06       		.byte	0x6
 4851 04d3 0E       		.uleb128 0xe
 4852 04d4 44010000 		.4byte	.LASF107
 4853 04d8 07       		.byte	0x7
 4854 04d9 00       		.byte	0
 4855 04da 02       		.uleb128 0x2
 4856 04db 3F0D0000 		.4byte	.LASF108
 4857 04df 14       		.byte	0x14
 4858 04e0 33       		.byte	0x33
 4859 04e1 99040000 		.4byte	0x499
 4860 04e5 0D       		.uleb128 0xd
 4861 04e6 FE020000 		.4byte	.LASF109
 4862 04ea 01       		.byte	0x1
 4863 04eb 53000000 		.4byte	0x53
 4864 04ef 14       		.byte	0x14
 4865 04f0 3A       		.byte	0x3a
 4866 04f1 08050000 		.4byte	0x508
 4867 04f5 0E       		.uleb128 0xe
 4868 04f6 86060000 		.4byte	.LASF110
 4869 04fa 00       		.byte	0
 4870 04fb 0E       		.uleb128 0xe
 4871 04fc 970A0000 		.4byte	.LASF111
 4872 0500 01       		.byte	0x1
 4873 0501 0E       		.uleb128 0xe
 4874 0502 DF060000 		.4byte	.LASF112
ARM GAS  C:\Users\Phuong\AppData\Local\Temp\ccX7yw2d.s 			page 125


 4875 0506 02       		.byte	0x2
 4876 0507 00       		.byte	0
 4877 0508 02       		.uleb128 0x2
 4878 0509 3C130000 		.4byte	.LASF113
 4879 050d 14       		.byte	0x14
 4880 050e 3A       		.byte	0x3a
 4881 050f E5040000 		.4byte	0x4e5
 4882 0513 02       		.uleb128 0x2
 4883 0514 A2130000 		.4byte	.LASF114
 4884 0518 14       		.byte	0x14
 4885 0519 3D       		.byte	0x3d
 4886 051a 1E050000 		.4byte	0x51e
 4887 051e 06       		.uleb128 0x6
 4888 051f 04       		.byte	0x4
 4889 0520 24050000 		.4byte	0x524
 4890 0524 0B       		.uleb128 0xb
 4891 0525 39050000 		.4byte	0x539
 4892 0529 0C       		.uleb128 0xc
 4893 052a 9A000000 		.4byte	0x9a
 4894 052e 0C       		.uleb128 0xc
 4895 052f DA040000 		.4byte	0x4da
 4896 0533 0C       		.uleb128 0xc
 4897 0534 DA040000 		.4byte	0x4da
 4898 0538 00       		.byte	0
 4899 0539 02       		.uleb128 0x2
 4900 053a F3010000 		.4byte	.LASF115
 4901 053e 14       		.byte	0x14
 4902 053f 3E       		.byte	0x3e
 4903 0540 1B010000 		.4byte	0x11b
 4904 0544 02       		.uleb128 0x2
 4905 0545 3C0F0000 		.4byte	.LASF116
 4906 0549 14       		.byte	0x14
 4907 054a 3F       		.byte	0x3f
 4908 054b 4F050000 		.4byte	0x54f
 4909 054f 06       		.uleb128 0x6
 4910 0550 04       		.byte	0x4
 4911 0551 55050000 		.4byte	0x555
 4912 0555 10       		.uleb128 0x10
 4913 0556 2C010000 		.4byte	0x12c
 4914 055a 7D050000 		.4byte	0x57d
 4915 055e 0C       		.uleb128 0xc
 4916 055f 9A000000 		.4byte	0x9a
 4917 0563 0C       		.uleb128 0xc
 4918 0564 0F040000 		.4byte	0x40f
 4919 0568 0C       		.uleb128 0xc
 4920 0569 A9000000 		.4byte	0xa9
 4921 056d 0C       		.uleb128 0xc
 4922 056e 65020000 		.4byte	0x265
 4923 0572 0C       		.uleb128 0xc
 4924 0573 CA000000 		.4byte	0xca
 4925 0577 0C       		.uleb128 0xc
 4926 0578 CA000000 		.4byte	0xca
 4927 057c 00       		.byte	0
 4928 057d 02       		.uleb128 0x2
 4929 057e 1E0C0000 		.4byte	.LASF117
 4930 0582 15       		.byte	0x15
 4931 0583 18       		.byte	0x18
ARM GAS  C:\Users\Phuong\AppData\Local\Temp\ccX7yw2d.s 			page 126


 4932 0584 88050000 		.4byte	0x588
 4933 0588 06       		.uleb128 0x6
 4934 0589 04       		.byte	0x4
 4935 058a 8E050000 		.4byte	0x58e
 4936 058e 08       		.uleb128 0x8
 4937 058f 21040000 		.4byte	.LASF118
 4938 0593 02       		.uleb128 0x2
 4939 0594 10100000 		.4byte	.LASF119
 4940 0598 16       		.byte	0x16
 4941 0599 18       		.byte	0x18
 4942 059a 9E050000 		.4byte	0x59e
 4943 059e 06       		.uleb128 0x6
 4944 059f 04       		.byte	0x4
 4945 05a0 A4050000 		.4byte	0x5a4
 4946 05a4 08       		.uleb128 0x8
 4947 05a5 EB090000 		.4byte	.LASF120
 4948 05a9 0D       		.uleb128 0xd
 4949 05aa D2000000 		.4byte	.LASF121
 4950 05ae 01       		.byte	0x1
 4951 05af 53000000 		.4byte	0x53
 4952 05b3 01       		.byte	0x1
 4953 05b4 0C       		.byte	0xc
 4954 05b5 CC050000 		.4byte	0x5cc
 4955 05b9 0E       		.uleb128 0xe
 4956 05ba 06020000 		.4byte	.LASF122
 4957 05be 00       		.byte	0
 4958 05bf 0E       		.uleb128 0xe
 4959 05c0 20090000 		.4byte	.LASF123
 4960 05c4 01       		.byte	0x1
 4961 05c5 0E       		.uleb128 0xe
 4962 05c6 670A0000 		.4byte	.LASF124
 4963 05ca 02       		.byte	0x2
 4964 05cb 00       		.byte	0
 4965 05cc 02       		.uleb128 0x2
 4966 05cd 5E020000 		.4byte	.LASF125
 4967 05d1 01       		.byte	0x1
 4968 05d2 11       		.byte	0x11
 4969 05d3 A9050000 		.4byte	0x5a9
 4970 05d7 02       		.uleb128 0x2
 4971 05d8 57100000 		.4byte	.LASF126
 4972 05dc 01       		.byte	0x1
 4973 05dd 1E       		.byte	0x1e
 4974 05de 20040000 		.4byte	0x420
 4975 05e2 06       		.uleb128 0x6
 4976 05e3 04       		.byte	0x4
 4977 05e4 E8050000 		.4byte	0x5e8
 4978 05e8 06       		.uleb128 0x6
 4979 05e9 04       		.byte	0x4
 4980 05ea D7050000 		.4byte	0x5d7
 4981 05ee 02       		.uleb128 0x2
 4982 05ef E2110000 		.4byte	.LASF127
 4983 05f3 01       		.byte	0x1
 4984 05f4 38       		.byte	0x38
 4985 05f5 1B030000 		.4byte	0x31b
 4986 05f9 11       		.uleb128 0x11
 4987 05fa 64170000 		.4byte	.LASF130
 4988 05fe 01       		.byte	0x1
ARM GAS  C:\Users\Phuong\AppData\Local\Temp\ccX7yw2d.s 			page 127


 4989 05ff 73       		.byte	0x73
 4990 0600 00000000 		.4byte	.LFB2
 4991 0604 36000000 		.4byte	.LFE2-.LFB2
 4992 0608 01       		.uleb128 0x1
 4993 0609 9C       		.byte	0x9c
 4994 060a 49060000 		.4byte	0x649
 4995 060e 12       		.uleb128 0x12
 4996 060f AA000000 		.4byte	.LASF128
 4997 0613 01       		.byte	0x1
 4998 0614 73       		.byte	0x73
 4999 0615 49060000 		.4byte	0x649
 5000 0619 00000000 		.4byte	.LLST0
 5001 061d 12       		.uleb128 0x12
 5002 061e A6060000 		.4byte	.LASF73
 5003 0622 01       		.byte	0x1
 5004 0623 73       		.byte	0x73
 5005 0624 DA040000 		.4byte	0x4da
 5006 0628 2C000000 		.4byte	.LLST1
 5007 062c 13       		.uleb128 0x13
 5008 062d 6900     		.ascii	"i\000"
 5009 062f 01       		.byte	0x1
 5010 0630 75       		.byte	0x75
 5011 0631 BF000000 		.4byte	0xbf
 5012 0635 4D000000 		.4byte	.LLST2
 5013 0639 14       		.uleb128 0x14
 5014 063a 2C000000 		.4byte	.LVL3
 5015 063e 02       		.uleb128 0x2
 5016 063f 77       		.byte	0x77
 5017 0640 00       		.sleb128 0
 5018 0641 15       		.uleb128 0x15
 5019 0642 01       		.uleb128 0x1
 5020 0643 51       		.byte	0x51
 5021 0644 02       		.uleb128 0x2
 5022 0645 76       		.byte	0x76
 5023 0646 00       		.sleb128 0
 5024 0647 00       		.byte	0
 5025 0648 00       		.byte	0
 5026 0649 06       		.uleb128 0x6
 5027 064a 04       		.byte	0x4
 5028 064b EE050000 		.4byte	0x5ee
 5029 064f 16       		.uleb128 0x16
 5030 0650 2C0A0000 		.4byte	.LASF133
 5031 0654 01       		.byte	0x1
 5032 0655 4B01     		.2byte	0x14b
 5033 0657 E8050000 		.4byte	0x5e8
 5034 065b 00000000 		.4byte	.LFB8
 5035 065f 2A000000 		.4byte	.LFE8-.LFB8
 5036 0663 01       		.uleb128 0x1
 5037 0664 9C       		.byte	0x9c
 5038 0665 A6060000 		.4byte	0x6a6
 5039 0669 17       		.uleb128 0x17
 5040 066a 06010000 		.4byte	.LASF97
 5041 066e 01       		.byte	0x1
 5042 066f 4B01     		.2byte	0x14b
 5043 0671 49060000 		.4byte	0x649
 5044 0675 6C000000 		.4byte	.LLST3
 5045 0679 18       		.uleb128 0x18
ARM GAS  C:\Users\Phuong\AppData\Local\Temp\ccX7yw2d.s 			page 128


 5046 067a A40E0000 		.4byte	.LASF92
 5047 067e 01       		.byte	0x1
 5048 067f 4B01     		.2byte	0x14b
 5049 0681 70020000 		.4byte	0x270
 5050 0685 01       		.uleb128 0x1
 5051 0686 51       		.byte	0x51
 5052 0687 19       		.uleb128 0x19
 5053 0688 6900     		.ascii	"i\000"
 5054 068a 01       		.byte	0x1
 5055 068b 4D01     		.2byte	0x14d
 5056 068d BF000000 		.4byte	0xbf
 5057 0691 A6000000 		.4byte	.LLST4
 5058 0695 1A       		.uleb128 0x1a
 5059 0696 9F060000 		.4byte	.LASF129
 5060 069a 01       		.byte	0x1
 5061 069b 4E01     		.2byte	0x14e
 5062 069d E8050000 		.4byte	0x5e8
 5063 06a1 D0000000 		.4byte	.LLST5
 5064 06a5 00       		.byte	0
 5065 06a6 11       		.uleb128 0x11
 5066 06a7 B1030000 		.4byte	.LASF131
 5067 06ab 01       		.byte	0x1
 5068 06ac 69       		.byte	0x69
 5069 06ad 00000000 		.4byte	.LFB1
 5070 06b1 16000000 		.4byte	.LFE1-.LFB1
 5071 06b5 01       		.uleb128 0x1
 5072 06b6 9C       		.byte	0x9c
 5073 06b7 E4060000 		.4byte	0x6e4
 5074 06bb 12       		.uleb128 0x12
 5075 06bc 74130000 		.4byte	.LASF132
 5076 06c0 01       		.byte	0x1
 5077 06c1 69       		.byte	0x69
 5078 06c2 0F040000 		.4byte	0x40f
 5079 06c6 EE000000 		.4byte	.LLST6
 5080 06ca 1B       		.uleb128 0x1b
 5081 06cb 0E000000 		.4byte	.LVL17
 5082 06cf EB260000 		.4byte	0x26eb
 5083 06d3 1C       		.uleb128 0x1c
 5084 06d4 14000000 		.4byte	.LVL18
 5085 06d8 EB260000 		.4byte	0x26eb
 5086 06dc 15       		.uleb128 0x15
 5087 06dd 01       		.uleb128 0x1
 5088 06de 50       		.byte	0x50
 5089 06df 02       		.uleb128 0x2
 5090 06e0 74       		.byte	0x74
 5091 06e1 00       		.sleb128 0
 5092 06e2 00       		.byte	0
 5093 06e3 00       		.byte	0
 5094 06e4 16       		.uleb128 0x16
 5095 06e5 0C000000 		.4byte	.LASF134
 5096 06e9 01       		.byte	0x1
 5097 06ea AB04     		.2byte	0x4ab
 5098 06ec 37000000 		.4byte	0x37
 5099 06f0 00000000 		.4byte	.LFB25
 5100 06f4 38000000 		.4byte	.LFE25-.LFB25
 5101 06f8 01       		.uleb128 0x1
 5102 06f9 9C       		.byte	0x9c
ARM GAS  C:\Users\Phuong\AppData\Local\Temp\ccX7yw2d.s 			page 129


 5103 06fa A0070000 		.4byte	0x7a0
 5104 06fe 17       		.uleb128 0x17
 5105 06ff 74130000 		.4byte	.LASF132
 5106 0703 01       		.byte	0x1
 5107 0704 AB04     		.2byte	0x4ab
 5108 0706 0F040000 		.4byte	0x40f
 5109 070a 1A010000 		.4byte	.LLST7
 5110 070e 17       		.uleb128 0x17
 5111 070f FD120000 		.4byte	.LASF135
 5112 0713 01       		.byte	0x1
 5113 0714 AB04     		.2byte	0x4ab
 5114 0716 CA000000 		.4byte	0xca
 5115 071a 6D010000 		.4byte	.LLST8
 5116 071e 17       		.uleb128 0x17
 5117 071f 5B170000 		.4byte	.LASF136
 5118 0723 01       		.byte	0x1
 5119 0724 AB04     		.2byte	0x4ab
 5120 0726 A0070000 		.4byte	0x7a0
 5121 072a A7010000 		.4byte	.LLST9
 5122 072e 17       		.uleb128 0x17
 5123 072f CF160000 		.4byte	.LASF137
 5124 0733 01       		.byte	0x1
 5125 0734 AB04     		.2byte	0x4ab
 5126 0736 25000000 		.4byte	0x25
 5127 073a E1010000 		.4byte	.LLST10
 5128 073e 1D       		.uleb128 0x1d
 5129 073f 9F060000 		.4byte	.LASF129
 5130 0743 01       		.byte	0x1
 5131 0744 AD04     		.2byte	0x4ad
 5132 0746 37000000 		.4byte	0x37
 5133 074a 01       		.uleb128 0x1
 5134 074b 50       		.byte	0x50
 5135 074c 1E       		.uleb128 0x1e
 5136 074d 00000000 		.4byte	.Ldebug_ranges0+0
 5137 0751 1A       		.uleb128 0x1a
 5138 0752 75050000 		.4byte	.LASF138
 5139 0756 01       		.byte	0x1
 5140 0757 B604     		.2byte	0x4b6
 5141 0759 E8050000 		.4byte	0x5e8
 5142 075d 1B020000 		.4byte	.LLST11
 5143 0761 1A       		.uleb128 0x1a
 5144 0762 AA000000 		.4byte	.LASF128
 5145 0766 01       		.byte	0x1
 5146 0767 B704     		.2byte	0x4b7
 5147 0769 49060000 		.4byte	0x649
 5148 076d 4A020000 		.4byte	.LLST12
 5149 0771 1C       		.uleb128 0x1c
 5150 0772 1A000000 		.4byte	.LVL25
 5151 0776 F6260000 		.4byte	0x26f6
 5152 077a 15       		.uleb128 0x15
 5153 077b 01       		.uleb128 0x1
 5154 077c 51       		.byte	0x51
 5155 077d 03       		.uleb128 0x3
 5156 077e F3       		.byte	0xf3
 5157 077f 01       		.uleb128 0x1
 5158 0780 51       		.byte	0x51
 5159 0781 15       		.uleb128 0x15
ARM GAS  C:\Users\Phuong\AppData\Local\Temp\ccX7yw2d.s 			page 130


 5160 0782 01       		.uleb128 0x1
 5161 0783 52       		.byte	0x52
 5162 0784 03       		.uleb128 0x3
 5163 0785 F3       		.byte	0xf3
 5164 0786 01       		.uleb128 0x1
 5165 0787 52       		.byte	0x52
 5166 0788 15       		.uleb128 0x15
 5167 0789 01       		.uleb128 0x1
 5168 078a 53       		.byte	0x53
 5169 078b 03       		.uleb128 0x3
 5170 078c F3       		.byte	0xf3
 5171 078d 01       		.uleb128 0x1
 5172 078e 53       		.byte	0x53
 5173 078f 15       		.uleb128 0x15
 5174 0790 02       		.uleb128 0x2
 5175 0791 7D       		.byte	0x7d
 5176 0792 00       		.sleb128 0
 5177 0793 02       		.uleb128 0x2
 5178 0794 74       		.byte	0x74
 5179 0795 00       		.sleb128 0
 5180 0796 15       		.uleb128 0x15
 5181 0797 02       		.uleb128 0x2
 5182 0798 7D       		.byte	0x7d
 5183 0799 04       		.sleb128 4
 5184 079a 02       		.uleb128 0x2
 5185 079b 74       		.byte	0x74
 5186 079c 00       		.sleb128 0
 5187 079d 00       		.byte	0
 5188 079e 00       		.byte	0
 5189 079f 00       		.byte	0
 5190 07a0 06       		.uleb128 0x6
 5191 07a1 04       		.byte	0x4
 5192 07a2 10010000 		.4byte	0x110
 5193 07a6 1F       		.uleb128 0x1f
 5194 07a7 70110000 		.4byte	.LASF139
 5195 07ab 01       		.byte	0x1
 5196 07ac CE       		.byte	0xce
 5197 07ad 37000000 		.4byte	0x37
 5198 07b1 00000000 		.4byte	.LFB5
 5199 07b5 8C000000 		.4byte	.LFE5-.LFB5
 5200 07b9 01       		.uleb128 0x1
 5201 07ba 9C       		.byte	0x9c
 5202 07bb C5080000 		.4byte	0x8c5
 5203 07bf 12       		.uleb128 0x12
 5204 07c0 AA000000 		.4byte	.LASF128
 5205 07c4 01       		.byte	0x1
 5206 07c5 CE       		.byte	0xce
 5207 07c6 49060000 		.4byte	0x649
 5208 07ca 6C020000 		.4byte	.LLST13
 5209 07ce 20       		.uleb128 0x20
 5210 07cf 9F060000 		.4byte	.LASF129
 5211 07d3 01       		.byte	0x1
 5212 07d4 D0       		.byte	0xd0
 5213 07d5 37000000 		.4byte	0x37
 5214 07d9 2E030000 		.4byte	.LLST14
 5215 07dd 20       		.uleb128 0x20
 5216 07de D7150000 		.4byte	.LASF140
ARM GAS  C:\Users\Phuong\AppData\Local\Temp\ccX7yw2d.s 			page 131


 5217 07e2 01       		.byte	0x1
 5218 07e3 D1       		.byte	0xd1
 5219 07e4 7D050000 		.4byte	0x57d
 5220 07e8 62030000 		.4byte	.LLST15
 5221 07ec 21       		.uleb128 0x21
 5222 07ed 14000000 		.4byte	.LBB4
 5223 07f1 70000000 		.4byte	.LBE4-.LBB4
 5224 07f5 BB080000 		.4byte	0x8bb
 5225 07f9 22       		.uleb128 0x22
 5226 07fa 850B0000 		.4byte	.LASF141
 5227 07fe 01       		.byte	0x1
 5228 07ff D9       		.byte	0xd9
 5229 0800 B4000000 		.4byte	0xb4
 5230 0804 02       		.uleb128 0x2
 5231 0805 91       		.byte	0x91
 5232 0806 6E       		.sleb128 -18
 5233 0807 23       		.uleb128 0x23
 5234 0808 18000000 		.4byte	.Ldebug_ranges0+0x18
 5235 080c 6E080000 		.4byte	0x86e
 5236 0810 20       		.uleb128 0x20
 5237 0811 F2150000 		.4byte	.LASF142
 5238 0815 01       		.byte	0x1
 5239 0816 E6       		.byte	0xe6
 5240 0817 CA000000 		.4byte	0xca
 5241 081b 96030000 		.4byte	.LLST16
 5242 081f 24       		.uleb128 0x24
 5243 0820 48000000 		.4byte	.LVL39
 5244 0824 01270000 		.4byte	0x2701
 5245 0828 33080000 		.4byte	0x833
 5246 082c 15       		.uleb128 0x15
 5247 082d 01       		.uleb128 0x1
 5248 082e 50       		.byte	0x50
 5249 082f 02       		.uleb128 0x2
 5250 0830 75       		.byte	0x75
 5251 0831 00       		.sleb128 0
 5252 0832 00       		.byte	0
 5253 0833 24       		.uleb128 0x24
 5254 0834 5C000000 		.4byte	.LVL42
 5255 0838 F6260000 		.4byte	0x26f6
 5256 083c 5D080000 		.4byte	0x85d
 5257 0840 15       		.uleb128 0x15
 5258 0841 01       		.uleb128 0x1
 5259 0842 51       		.byte	0x51
 5260 0843 02       		.uleb128 0x2
 5261 0844 76       		.byte	0x76
 5262 0845 00       		.sleb128 0
 5263 0846 15       		.uleb128 0x15
 5264 0847 01       		.uleb128 0x1
 5265 0848 52       		.byte	0x52
 5266 0849 01       		.uleb128 0x1
 5267 084a 30       		.byte	0x30
 5268 084b 15       		.uleb128 0x15
 5269 084c 01       		.uleb128 0x1
 5270 084d 53       		.byte	0x53
 5271 084e 01       		.uleb128 0x1
 5272 084f 30       		.byte	0x30
 5273 0850 15       		.uleb128 0x15
ARM GAS  C:\Users\Phuong\AppData\Local\Temp\ccX7yw2d.s 			page 132


 5274 0851 02       		.uleb128 0x2
 5275 0852 7D       		.byte	0x7d
 5276 0853 00       		.sleb128 0
 5277 0854 01       		.uleb128 0x1
 5278 0855 30       		.byte	0x30
 5279 0856 15       		.uleb128 0x15
 5280 0857 02       		.uleb128 0x2
 5281 0858 7D       		.byte	0x7d
 5282 0859 04       		.sleb128 4
 5283 085a 01       		.uleb128 0x1
 5284 085b 30       		.byte	0x30
 5285 085c 00       		.byte	0
 5286 085d 1C       		.uleb128 0x1c
 5287 085e 6C000000 		.4byte	.LVL46
 5288 0862 0C270000 		.4byte	0x270c
 5289 0866 15       		.uleb128 0x15
 5290 0867 01       		.uleb128 0x1
 5291 0868 50       		.byte	0x50
 5292 0869 02       		.uleb128 0x2
 5293 086a 76       		.byte	0x76
 5294 086b 00       		.sleb128 0
 5295 086c 00       		.byte	0
 5296 086d 00       		.byte	0
 5297 086e 24       		.uleb128 0x24
 5298 086f 1A000000 		.4byte	.LVL36
 5299 0873 17270000 		.4byte	0x2717
 5300 0877 82080000 		.4byte	0x882
 5301 087b 15       		.uleb128 0x15
 5302 087c 01       		.uleb128 0x1
 5303 087d 50       		.byte	0x50
 5304 087e 02       		.uleb128 0x2
 5305 087f 75       		.byte	0x75
 5306 0880 00       		.sleb128 0
 5307 0881 00       		.byte	0
 5308 0882 24       		.uleb128 0x24
 5309 0883 2E000000 		.4byte	.LVL37
 5310 0887 22270000 		.4byte	0x2722
 5311 088b 96080000 		.4byte	0x896
 5312 088f 15       		.uleb128 0x15
 5313 0890 01       		.uleb128 0x1
 5314 0891 51       		.byte	0x51
 5315 0892 02       		.uleb128 0x2
 5316 0893 91       		.byte	0x91
 5317 0894 6E       		.sleb128 -18
 5318 0895 00       		.byte	0
 5319 0896 24       		.uleb128 0x24
 5320 0897 3E000000 		.4byte	.LVL38
 5321 089b 2D270000 		.4byte	0x272d
 5322 089f AA080000 		.4byte	0x8aa
 5323 08a3 15       		.uleb128 0x15
 5324 08a4 01       		.uleb128 0x1
 5325 08a5 50       		.byte	0x50
 5326 08a6 02       		.uleb128 0x2
 5327 08a7 75       		.byte	0x75
 5328 08a8 00       		.sleb128 0
 5329 08a9 00       		.byte	0
 5330 08aa 1C       		.uleb128 0x1c
ARM GAS  C:\Users\Phuong\AppData\Local\Temp\ccX7yw2d.s 			page 133


 5331 08ab 82000000 		.4byte	.LVL55
 5332 08af 38270000 		.4byte	0x2738
 5333 08b3 15       		.uleb128 0x15
 5334 08b4 01       		.uleb128 0x1
 5335 08b5 50       		.byte	0x50
 5336 08b6 02       		.uleb128 0x2
 5337 08b7 75       		.byte	0x75
 5338 08b8 00       		.sleb128 0
 5339 08b9 00       		.byte	0
 5340 08ba 00       		.byte	0
 5341 08bb 1B       		.uleb128 0x1b
 5342 08bc 10000000 		.4byte	.LVL34
 5343 08c0 43270000 		.4byte	0x2743
 5344 08c4 00       		.byte	0
 5345 08c5 25       		.uleb128 0x25
 5346 08c6 A0140000 		.4byte	.LASF143
 5347 08ca 01       		.byte	0x1
 5348 08cb 6401     		.2byte	0x164
 5349 08cd 00000000 		.4byte	.LFB9
 5350 08d1 44000000 		.4byte	.LFE9-.LFB9
 5351 08d5 01       		.uleb128 0x1
 5352 08d6 9C       		.byte	0x9c
 5353 08d7 72090000 		.4byte	0x972
 5354 08db 17       		.uleb128 0x17
 5355 08dc B50C0000 		.4byte	.LASF144
 5356 08e0 01       		.byte	0x1
 5357 08e1 6401     		.2byte	0x164
 5358 08e3 9A000000 		.4byte	0x9a
 5359 08e7 BF030000 		.4byte	.LLST17
 5360 08eb 17       		.uleb128 0x17
 5361 08ec 2B0E0000 		.4byte	.LASF145
 5362 08f0 01       		.byte	0x1
 5363 08f1 6401     		.2byte	0x164
 5364 08f3 2F020000 		.4byte	0x22f
 5365 08f7 17040000 		.4byte	.LLST18
 5366 08fb 17       		.uleb128 0x17
 5367 08fc 72020000 		.4byte	.LASF146
 5368 0900 01       		.byte	0x1
 5369 0901 6401     		.2byte	0x164
 5370 0903 2F020000 		.4byte	0x22f
 5371 0907 6A040000 		.4byte	.LLST19
 5372 090b 1A       		.uleb128 0x1a
 5373 090c AA000000 		.4byte	.LASF128
 5374 0910 01       		.byte	0x1
 5375 0911 6601     		.2byte	0x166
 5376 0913 49060000 		.4byte	0x649
 5377 0917 BD040000 		.4byte	.LLST20
 5378 091b 24       		.uleb128 0x24
 5379 091c 16000000 		.4byte	.LVL62
 5380 0920 A6070000 		.4byte	0x7a6
 5381 0924 2F090000 		.4byte	0x92f
 5382 0928 15       		.uleb128 0x15
 5383 0929 01       		.uleb128 0x1
 5384 092a 50       		.byte	0x50
 5385 092b 02       		.uleb128 0x2
 5386 092c 74       		.byte	0x74
 5387 092d 00       		.sleb128 0
ARM GAS  C:\Users\Phuong\AppData\Local\Temp\ccX7yw2d.s 			page 134


 5388 092e 00       		.byte	0
 5389 092f 24       		.uleb128 0x24
 5390 0930 22000000 		.4byte	.LVL63
 5391 0934 F9050000 		.4byte	0x5f9
 5392 0938 48090000 		.4byte	0x948
 5393 093c 15       		.uleb128 0x15
 5394 093d 01       		.uleb128 0x1
 5395 093e 50       		.byte	0x50
 5396 093f 02       		.uleb128 0x2
 5397 0940 74       		.byte	0x74
 5398 0941 00       		.sleb128 0
 5399 0942 15       		.uleb128 0x15
 5400 0943 01       		.uleb128 0x1
 5401 0944 51       		.byte	0x51
 5402 0945 01       		.uleb128 0x1
 5403 0946 31       		.byte	0x31
 5404 0947 00       		.byte	0
 5405 0948 24       		.uleb128 0x24
 5406 0949 34000000 		.4byte	.LVL67
 5407 094d F9050000 		.4byte	0x5f9
 5408 0951 61090000 		.4byte	0x961
 5409 0955 15       		.uleb128 0x15
 5410 0956 01       		.uleb128 0x1
 5411 0957 50       		.byte	0x50
 5412 0958 02       		.uleb128 0x2
 5413 0959 74       		.byte	0x74
 5414 095a 00       		.sleb128 0
 5415 095b 15       		.uleb128 0x15
 5416 095c 01       		.uleb128 0x1
 5417 095d 51       		.byte	0x51
 5418 095e 01       		.uleb128 0x1
 5419 095f 36       		.byte	0x36
 5420 0960 00       		.byte	0
 5421 0961 1C       		.uleb128 0x1c
 5422 0962 42000000 		.4byte	.LVL71
 5423 0966 F9050000 		.4byte	0x5f9
 5424 096a 15       		.uleb128 0x15
 5425 096b 01       		.uleb128 0x1
 5426 096c 50       		.byte	0x50
 5427 096d 02       		.uleb128 0x2
 5428 096e 74       		.byte	0x74
 5429 096f 00       		.sleb128 0
 5430 0970 00       		.byte	0
 5431 0971 00       		.byte	0
 5432 0972 16       		.uleb128 0x16
 5433 0973 8F0C0000 		.4byte	.LASF147
 5434 0977 01       		.byte	0x1
 5435 0978 3201     		.2byte	0x132
 5436 097a E8050000 		.4byte	0x5e8
 5437 097e 00000000 		.4byte	.LFB7
 5438 0982 34000000 		.4byte	.LFE7-.LFB7
 5439 0986 01       		.uleb128 0x1
 5440 0987 9C       		.byte	0x9c
 5441 0988 DB090000 		.4byte	0x9db
 5442 098c 17       		.uleb128 0x17
 5443 098d 06010000 		.4byte	.LASF97
 5444 0991 01       		.byte	0x1
ARM GAS  C:\Users\Phuong\AppData\Local\Temp\ccX7yw2d.s 			page 135


 5445 0992 3201     		.2byte	0x132
 5446 0994 49060000 		.4byte	0x649
 5447 0998 15050000 		.4byte	.LLST21
 5448 099c 17       		.uleb128 0x17
 5449 099d 3B120000 		.4byte	.LASF91
 5450 09a1 01       		.byte	0x1
 5451 09a2 3201     		.2byte	0x132
 5452 09a4 A9000000 		.4byte	0xa9
 5453 09a8 41050000 		.4byte	.LLST22
 5454 09ac 19       		.uleb128 0x19
 5455 09ad 6900     		.ascii	"i\000"
 5456 09af 01       		.byte	0x1
 5457 09b0 3401     		.2byte	0x134
 5458 09b2 BF000000 		.4byte	0xbf
 5459 09b6 6D050000 		.4byte	.LLST23
 5460 09ba 1A       		.uleb128 0x1a
 5461 09bb 9F060000 		.4byte	.LASF129
 5462 09bf 01       		.byte	0x1
 5463 09c0 3501     		.2byte	0x135
 5464 09c2 E8050000 		.4byte	0x5e8
 5465 09c6 97050000 		.4byte	.LLST24
 5466 09ca 1C       		.uleb128 0x1c
 5467 09cb 18000000 		.4byte	.LVL76
 5468 09cf 4E270000 		.4byte	0x274e
 5469 09d3 15       		.uleb128 0x15
 5470 09d4 01       		.uleb128 0x1
 5471 09d5 51       		.byte	0x51
 5472 09d6 02       		.uleb128 0x2
 5473 09d7 77       		.byte	0x77
 5474 09d8 00       		.sleb128 0
 5475 09d9 00       		.byte	0
 5476 09da 00       		.byte	0
 5477 09db 11       		.uleb128 0x11
 5478 09dc 52040000 		.4byte	.LASF148
 5479 09e0 01       		.byte	0x1
 5480 09e1 3D       		.byte	0x3d
 5481 09e2 00000000 		.4byte	.LFB0
 5482 09e6 6C000000 		.4byte	.LFE0-.LFB0
 5483 09ea 01       		.uleb128 0x1
 5484 09eb 9C       		.byte	0x9c
 5485 09ec 690A0000 		.4byte	0xa69
 5486 09f0 12       		.uleb128 0x12
 5487 09f1 74130000 		.4byte	.LASF132
 5488 09f5 01       		.byte	0x1
 5489 09f6 3D       		.byte	0x3d
 5490 09f7 0F040000 		.4byte	0x40f
 5491 09fb B5050000 		.4byte	.LLST25
 5492 09ff 26       		.uleb128 0x26
 5493 0a00 06000000 		.4byte	.LBB7
 5494 0a04 60000000 		.4byte	.LBE7-.LBB7
 5495 0a08 20       		.uleb128 0x20
 5496 0a09 F40D0000 		.4byte	.LASF149
 5497 0a0d 01       		.byte	0x1
 5498 0a0e 41       		.byte	0x41
 5499 0a0f E8050000 		.4byte	0x5e8
 5500 0a13 D6050000 		.4byte	.LLST26
 5501 0a17 20       		.uleb128 0x20
ARM GAS  C:\Users\Phuong\AppData\Local\Temp\ccX7yw2d.s 			page 136


 5502 0a18 AA000000 		.4byte	.LASF128
 5503 0a1c 01       		.byte	0x1
 5504 0a1d 42       		.byte	0x42
 5505 0a1e 49060000 		.4byte	0x649
 5506 0a22 F7050000 		.4byte	.LLST27
 5507 0a26 13       		.uleb128 0x13
 5508 0a27 6900     		.ascii	"i\000"
 5509 0a29 01       		.byte	0x1
 5510 0a2a 43       		.byte	0x43
 5511 0a2b BF000000 		.4byte	0xbf
 5512 0a2f 0A060000 		.4byte	.LLST28
 5513 0a33 26       		.uleb128 0x26
 5514 0a34 22000000 		.4byte	.LBB8
 5515 0a38 44000000 		.4byte	.LBE8-.LBB8
 5516 0a3c 20       		.uleb128 0x20
 5517 0a3d 40120000 		.4byte	.LASF150
 5518 0a41 01       		.byte	0x1
 5519 0a42 4F       		.byte	0x4f
 5520 0a43 E2050000 		.4byte	0x5e2
 5521 0a47 29060000 		.4byte	.LLST29
 5522 0a4b 1B       		.uleb128 0x1b
 5523 0a4c 42000000 		.4byte	.LVL91
 5524 0a50 59270000 		.4byte	0x2759
 5525 0a54 1B       		.uleb128 0x1b
 5526 0a55 52000000 		.4byte	.LVL92
 5527 0a59 EB260000 		.4byte	0x26eb
 5528 0a5d 1B       		.uleb128 0x1b
 5529 0a5e 60000000 		.4byte	.LVL93
 5530 0a62 64270000 		.4byte	0x2764
 5531 0a66 00       		.byte	0
 5532 0a67 00       		.byte	0
 5533 0a68 00       		.byte	0
 5534 0a69 16       		.uleb128 0x16
 5535 0a6a 4D0D0000 		.4byte	.LASF151
 5536 0a6e 01       		.byte	0x1
 5537 0a6f 0001     		.2byte	0x100
 5538 0a71 37000000 		.4byte	0x37
 5539 0a75 00000000 		.4byte	.LFB6
 5540 0a79 70000000 		.4byte	.LFE6-.LFB6
 5541 0a7d 01       		.uleb128 0x1
 5542 0a7e 9C       		.byte	0x9c
 5543 0a7f 4F0B0000 		.4byte	0xb4f
 5544 0a83 17       		.uleb128 0x17
 5545 0a84 06010000 		.4byte	.LASF97
 5546 0a88 01       		.byte	0x1
 5547 0a89 0001     		.2byte	0x100
 5548 0a8b 49060000 		.4byte	0x649
 5549 0a8f 3C060000 		.4byte	.LLST30
 5550 0a93 1A       		.uleb128 0x1a
 5551 0a94 9F060000 		.4byte	.LASF129
 5552 0a98 01       		.byte	0x1
 5553 0a99 0201     		.2byte	0x102
 5554 0a9b 37000000 		.4byte	0x37
 5555 0a9f D7060000 		.4byte	.LLST31
 5556 0aa3 1E       		.uleb128 0x1e
 5557 0aa4 30000000 		.4byte	.Ldebug_ranges0+0x30
 5558 0aa8 1A       		.uleb128 0x1a
ARM GAS  C:\Users\Phuong\AppData\Local\Temp\ccX7yw2d.s 			page 137


 5559 0aa9 6A070000 		.4byte	.LASF152
 5560 0aad 01       		.byte	0x1
 5561 0aae 0901     		.2byte	0x109
 5562 0ab0 B2020000 		.4byte	0x2b2
 5563 0ab4 0B070000 		.4byte	.LLST32
 5564 0ab8 23       		.uleb128 0x23
 5565 0ab9 48000000 		.4byte	.Ldebug_ranges0+0x48
 5566 0abd 200B0000 		.4byte	0xb20
 5567 0ac1 1A       		.uleb128 0x1a
 5568 0ac2 D9020000 		.4byte	.LASF153
 5569 0ac6 01       		.byte	0x1
 5570 0ac7 1701     		.2byte	0x117
 5571 0ac9 CA000000 		.4byte	0xca
 5572 0acd 34070000 		.4byte	.LLST33
 5573 0ad1 24       		.uleb128 0x24
 5574 0ad2 26000000 		.4byte	.LVL100
 5575 0ad6 6F270000 		.4byte	0x276f
 5576 0ada E50A0000 		.4byte	0xae5
 5577 0ade 15       		.uleb128 0x15
 5578 0adf 01       		.uleb128 0x1
 5579 0ae0 50       		.byte	0x50
 5580 0ae1 02       		.uleb128 0x2
 5581 0ae2 75       		.byte	0x75
 5582 0ae3 00       		.sleb128 0
 5583 0ae4 00       		.byte	0
 5584 0ae5 24       		.uleb128 0x24
 5585 0ae6 3A000000 		.4byte	.LVL103
 5586 0aea F6260000 		.4byte	0x26f6
 5587 0aee 0F0B0000 		.4byte	0xb0f
 5588 0af2 15       		.uleb128 0x15
 5589 0af3 01       		.uleb128 0x1
 5590 0af4 51       		.byte	0x51
 5591 0af5 02       		.uleb128 0x2
 5592 0af6 76       		.byte	0x76
 5593 0af7 00       		.sleb128 0
 5594 0af8 15       		.uleb128 0x15
 5595 0af9 01       		.uleb128 0x1
 5596 0afa 52       		.byte	0x52
 5597 0afb 01       		.uleb128 0x1
 5598 0afc 30       		.byte	0x30
 5599 0afd 15       		.uleb128 0x15
 5600 0afe 01       		.uleb128 0x1
 5601 0aff 53       		.byte	0x53
 5602 0b00 01       		.uleb128 0x1
 5603 0b01 30       		.byte	0x30
 5604 0b02 15       		.uleb128 0x15
 5605 0b03 02       		.uleb128 0x2
 5606 0b04 7D       		.byte	0x7d
 5607 0b05 00       		.sleb128 0
 5608 0b06 01       		.uleb128 0x1
 5609 0b07 30       		.byte	0x30
 5610 0b08 15       		.uleb128 0x15
 5611 0b09 02       		.uleb128 0x2
 5612 0b0a 7D       		.byte	0x7d
 5613 0b0b 04       		.sleb128 4
 5614 0b0c 01       		.uleb128 0x1
 5615 0b0d 30       		.byte	0x30
ARM GAS  C:\Users\Phuong\AppData\Local\Temp\ccX7yw2d.s 			page 138


 5616 0b0e 00       		.byte	0
 5617 0b0f 1C       		.uleb128 0x1c
 5618 0b10 4C000000 		.4byte	.LVL107
 5619 0b14 0C270000 		.4byte	0x270c
 5620 0b18 15       		.uleb128 0x15
 5621 0b19 01       		.uleb128 0x1
 5622 0b1a 50       		.byte	0x50
 5623 0b1b 02       		.uleb128 0x2
 5624 0b1c 76       		.byte	0x76
 5625 0b1d 00       		.sleb128 0
 5626 0b1e 00       		.byte	0
 5627 0b1f 00       		.byte	0
 5628 0b20 1B       		.uleb128 0x1b
 5629 0b21 12000000 		.4byte	.LVL97
 5630 0b25 7A270000 		.4byte	0x277a
 5631 0b29 24       		.uleb128 0x24
 5632 0b2a 1C000000 		.4byte	.LVL99
 5633 0b2e 85270000 		.4byte	0x2785
 5634 0b32 3D0B0000 		.4byte	0xb3d
 5635 0b36 15       		.uleb128 0x15
 5636 0b37 01       		.uleb128 0x1
 5637 0b38 50       		.byte	0x50
 5638 0b39 02       		.uleb128 0x2
 5639 0b3a 75       		.byte	0x75
 5640 0b3b 00       		.sleb128 0
 5641 0b3c 00       		.byte	0
 5642 0b3d 1C       		.uleb128 0x1c
 5643 0b3e 5E000000 		.4byte	.LVL113
 5644 0b42 90270000 		.4byte	0x2790
 5645 0b46 15       		.uleb128 0x15
 5646 0b47 01       		.uleb128 0x1
 5647 0b48 50       		.byte	0x50
 5648 0b49 02       		.uleb128 0x2
 5649 0b4a 75       		.byte	0x75
 5650 0b4b 00       		.sleb128 0
 5651 0b4c 00       		.byte	0
 5652 0b4d 00       		.byte	0
 5653 0b4e 00       		.byte	0
 5654 0b4f 1F       		.uleb128 0x1f
 5655 0b50 1C050000 		.4byte	.LASF154
 5656 0b54 01       		.byte	0x1
 5657 0b55 86       		.byte	0x86
 5658 0b56 37000000 		.4byte	0x37
 5659 0b5a 00000000 		.4byte	.LFB3
 5660 0b5e 60000000 		.4byte	.LFE3-.LFB3
 5661 0b62 01       		.uleb128 0x1
 5662 0b63 9C       		.byte	0x9c
 5663 0b64 3F0C0000 		.4byte	0xc3f
 5664 0b68 12       		.uleb128 0x12
 5665 0b69 AA000000 		.4byte	.LASF128
 5666 0b6d 01       		.byte	0x1
 5667 0b6e 86       		.byte	0x86
 5668 0b6f 49060000 		.4byte	0x649
 5669 0b73 5D070000 		.4byte	.LLST34
 5670 0b77 12       		.uleb128 0x12
 5671 0b78 970E0000 		.4byte	.LASF155
 5672 0b7c 01       		.byte	0x1
ARM GAS  C:\Users\Phuong\AppData\Local\Temp\ccX7yw2d.s 			page 139


 5673 0b7d 86       		.byte	0x86
 5674 0b7e 82010000 		.4byte	0x182
 5675 0b82 89070000 		.4byte	.LLST35
 5676 0b86 20       		.uleb128 0x20
 5677 0b87 9F060000 		.4byte	.LASF129
 5678 0b8b 01       		.byte	0x1
 5679 0b8c 88       		.byte	0x88
 5680 0b8d 37000000 		.4byte	0x37
 5681 0b91 19080000 		.4byte	.LLST36
 5682 0b95 20       		.uleb128 0x20
 5683 0b96 E6080000 		.4byte	.LASF156
 5684 0b9a 01       		.byte	0x1
 5685 0b9b 89       		.byte	0x89
 5686 0b9c 93050000 		.4byte	0x593
 5687 0ba0 4D080000 		.4byte	.LLST37
 5688 0ba4 23       		.uleb128 0x23
 5689 0ba5 60000000 		.4byte	.Ldebug_ranges0+0x60
 5690 0ba9 0B0C0000 		.4byte	0xc0b
 5691 0bad 20       		.uleb128 0x20
 5692 0bae 39020000 		.4byte	.LASF157
 5693 0bb2 01       		.byte	0x1
 5694 0bb3 99       		.byte	0x99
 5695 0bb4 CA000000 		.4byte	0xca
 5696 0bb8 81080000 		.4byte	.LLST38
 5697 0bbc 24       		.uleb128 0x24
 5698 0bbd 24000000 		.4byte	.LVL123
 5699 0bc1 9B270000 		.4byte	0x279b
 5700 0bc5 D00B0000 		.4byte	0xbd0
 5701 0bc9 15       		.uleb128 0x15
 5702 0bca 01       		.uleb128 0x1
 5703 0bcb 50       		.byte	0x50
 5704 0bcc 02       		.uleb128 0x2
 5705 0bcd 74       		.byte	0x74
 5706 0bce 00       		.sleb128 0
 5707 0bcf 00       		.byte	0
 5708 0bd0 24       		.uleb128 0x24
 5709 0bd1 38000000 		.4byte	.LVL126
 5710 0bd5 F6260000 		.4byte	0x26f6
 5711 0bd9 FA0B0000 		.4byte	0xbfa
 5712 0bdd 15       		.uleb128 0x15
 5713 0bde 01       		.uleb128 0x1
 5714 0bdf 51       		.byte	0x51
 5715 0be0 02       		.uleb128 0x2
 5716 0be1 76       		.byte	0x76
 5717 0be2 00       		.sleb128 0
 5718 0be3 15       		.uleb128 0x15
 5719 0be4 01       		.uleb128 0x1
 5720 0be5 52       		.byte	0x52
 5721 0be6 01       		.uleb128 0x1
 5722 0be7 30       		.byte	0x30
 5723 0be8 15       		.uleb128 0x15
 5724 0be9 01       		.uleb128 0x1
 5725 0bea 53       		.byte	0x53
 5726 0beb 01       		.uleb128 0x1
 5727 0bec 30       		.byte	0x30
 5728 0bed 15       		.uleb128 0x15
 5729 0bee 02       		.uleb128 0x2
ARM GAS  C:\Users\Phuong\AppData\Local\Temp\ccX7yw2d.s 			page 140


 5730 0bef 7D       		.byte	0x7d
 5731 0bf0 00       		.sleb128 0
 5732 0bf1 01       		.uleb128 0x1
 5733 0bf2 30       		.byte	0x30
 5734 0bf3 15       		.uleb128 0x15
 5735 0bf4 02       		.uleb128 0x2
 5736 0bf5 7D       		.byte	0x7d
 5737 0bf6 04       		.sleb128 4
 5738 0bf7 01       		.uleb128 0x1
 5739 0bf8 30       		.byte	0x30
 5740 0bf9 00       		.byte	0
 5741 0bfa 1C       		.uleb128 0x1c
 5742 0bfb 48000000 		.4byte	.LVL130
 5743 0bff 0C270000 		.4byte	0x270c
 5744 0c03 15       		.uleb128 0x15
 5745 0c04 01       		.uleb128 0x1
 5746 0c05 50       		.byte	0x50
 5747 0c06 02       		.uleb128 0x2
 5748 0c07 76       		.byte	0x76
 5749 0c08 00       		.sleb128 0
 5750 0c09 00       		.byte	0
 5751 0c0a 00       		.byte	0
 5752 0c0b 1B       		.uleb128 0x1b
 5753 0c0c 0C000000 		.4byte	.LVL120
 5754 0c10 A6270000 		.4byte	0x27a6
 5755 0c14 24       		.uleb128 0x24
 5756 0c15 1A000000 		.4byte	.LVL122
 5757 0c19 B1270000 		.4byte	0x27b1
 5758 0c1d 2E0C0000 		.4byte	0xc2e
 5759 0c21 15       		.uleb128 0x15
 5760 0c22 01       		.uleb128 0x1
 5761 0c23 50       		.byte	0x50
 5762 0c24 02       		.uleb128 0x2
 5763 0c25 74       		.byte	0x74
 5764 0c26 00       		.sleb128 0
 5765 0c27 15       		.uleb128 0x15
 5766 0c28 01       		.uleb128 0x1
 5767 0c29 51       		.byte	0x51
 5768 0c2a 02       		.uleb128 0x2
 5769 0c2b 75       		.byte	0x75
 5770 0c2c 00       		.sleb128 0
 5771 0c2d 00       		.byte	0
 5772 0c2e 1C       		.uleb128 0x1c
 5773 0c2f 56000000 		.4byte	.LVL135
 5774 0c33 BC270000 		.4byte	0x27bc
 5775 0c37 15       		.uleb128 0x15
 5776 0c38 01       		.uleb128 0x1
 5777 0c39 50       		.byte	0x50
 5778 0c3a 02       		.uleb128 0x2
 5779 0c3b 74       		.byte	0x74
 5780 0c3c 00       		.sleb128 0
 5781 0c3d 00       		.byte	0
 5782 0c3e 00       		.byte	0
 5783 0c3f 11       		.uleb128 0x11
 5784 0c40 AA120000 		.4byte	.LASF158
 5785 0c44 01       		.byte	0x1
 5786 0c45 B3       		.byte	0xb3
ARM GAS  C:\Users\Phuong\AppData\Local\Temp\ccX7yw2d.s 			page 141


 5787 0c46 00000000 		.4byte	.LFB4
 5788 0c4a 6C000000 		.4byte	.LFE4-.LFB4
 5789 0c4e 01       		.uleb128 0x1
 5790 0c4f 9C       		.byte	0x9c
 5791 0c50 790D0000 		.4byte	0xd79
 5792 0c54 12       		.uleb128 0x12
 5793 0c55 AA000000 		.4byte	.LASF128
 5794 0c59 01       		.byte	0x1
 5795 0c5a B3       		.byte	0xb3
 5796 0c5b 49060000 		.4byte	0x649
 5797 0c5f AA080000 		.4byte	.LLST39
 5798 0c63 12       		.uleb128 0x12
 5799 0c64 2C0F0000 		.4byte	.LASF159
 5800 0c68 01       		.byte	0x1
 5801 0c69 B3       		.byte	0xb3
 5802 0c6a A9000000 		.4byte	0xa9
 5803 0c6e D6080000 		.4byte	.LLST40
 5804 0c72 12       		.uleb128 0x12
 5805 0c73 6A0C0000 		.4byte	.LASF160
 5806 0c77 01       		.byte	0x1
 5807 0c78 B3       		.byte	0xb3
 5808 0c79 A9000000 		.4byte	0xa9
 5809 0c7d F7080000 		.4byte	.LLST41
 5810 0c81 20       		.uleb128 0x20
 5811 0c82 970E0000 		.4byte	.LASF155
 5812 0c86 01       		.byte	0x1
 5813 0c87 B5       		.byte	0xb5
 5814 0c88 82010000 		.4byte	0x182
 5815 0c8c 23090000 		.4byte	.LLST42
 5816 0c90 24       		.uleb128 0x24
 5817 0c91 0C000000 		.4byte	.LVL143
 5818 0c95 C7270000 		.4byte	0x27c7
 5819 0c99 A50C0000 		.4byte	0xca5
 5820 0c9d 15       		.uleb128 0x15
 5821 0c9e 01       		.uleb128 0x1
 5822 0c9f 50       		.byte	0x50
 5823 0ca0 03       		.uleb128 0x3
 5824 0ca1 F3       		.byte	0xf3
 5825 0ca2 01       		.uleb128 0x1
 5826 0ca3 51       		.byte	0x51
 5827 0ca4 00       		.byte	0
 5828 0ca5 24       		.uleb128 0x24
 5829 0ca6 18000000 		.4byte	.LVL146
 5830 0caa F9050000 		.4byte	0x5f9
 5831 0cae BE0C0000 		.4byte	0xcbe
 5832 0cb2 15       		.uleb128 0x15
 5833 0cb3 01       		.uleb128 0x1
 5834 0cb4 50       		.byte	0x50
 5835 0cb5 02       		.uleb128 0x2
 5836 0cb6 75       		.byte	0x75
 5837 0cb7 00       		.sleb128 0
 5838 0cb8 15       		.uleb128 0x15
 5839 0cb9 01       		.uleb128 0x1
 5840 0cba 51       		.byte	0x51
 5841 0cbb 01       		.uleb128 0x1
 5842 0cbc 36       		.byte	0x36
 5843 0cbd 00       		.byte	0
ARM GAS  C:\Users\Phuong\AppData\Local\Temp\ccX7yw2d.s 			page 142


 5844 0cbe 24       		.uleb128 0x24
 5845 0cbf 24000000 		.4byte	.LVL147
 5846 0cc3 D2270000 		.4byte	0x27d2
 5847 0cc7 E30C0000 		.4byte	0xce3
 5848 0ccb 15       		.uleb128 0x15
 5849 0ccc 01       		.uleb128 0x1
 5850 0ccd 51       		.byte	0x51
 5851 0cce 05       		.uleb128 0x5
 5852 0ccf 03       		.byte	0x3
 5853 0cd0 2C000000 		.4byte	.LC2
 5854 0cd4 15       		.uleb128 0x15
 5855 0cd5 01       		.uleb128 0x1
 5856 0cd6 52       		.byte	0x52
 5857 0cd7 05       		.uleb128 0x5
 5858 0cd8 03       		.byte	0x3
 5859 0cd9 00000000 		.4byte	.LC0
 5860 0cdd 15       		.uleb128 0x15
 5861 0cde 01       		.uleb128 0x1
 5862 0cdf 53       		.byte	0x53
 5863 0ce0 01       		.uleb128 0x1
 5864 0ce1 30       		.byte	0x30
 5865 0ce2 00       		.byte	0
 5866 0ce3 24       		.uleb128 0x24
 5867 0ce4 2C000000 		.4byte	.LVL149
 5868 0ce8 DD270000 		.4byte	0x27dd
 5869 0cec F70C0000 		.4byte	0xcf7
 5870 0cf0 15       		.uleb128 0x15
 5871 0cf1 01       		.uleb128 0x1
 5872 0cf2 51       		.byte	0x51
 5873 0cf3 02       		.uleb128 0x2
 5874 0cf4 76       		.byte	0x76
 5875 0cf5 00       		.sleb128 0
 5876 0cf6 00       		.byte	0
 5877 0cf7 24       		.uleb128 0x24
 5878 0cf8 38000000 		.4byte	.LVL150
 5879 0cfc 4F0B0000 		.4byte	0xb4f
 5880 0d00 110D0000 		.4byte	0xd11
 5881 0d04 15       		.uleb128 0x15
 5882 0d05 01       		.uleb128 0x1
 5883 0d06 50       		.byte	0x50
 5884 0d07 02       		.uleb128 0x2
 5885 0d08 75       		.byte	0x75
 5886 0d09 00       		.sleb128 0
 5887 0d0a 15       		.uleb128 0x15
 5888 0d0b 01       		.uleb128 0x1
 5889 0d0c 51       		.byte	0x51
 5890 0d0d 02       		.uleb128 0x2
 5891 0d0e 74       		.byte	0x74
 5892 0d0f 00       		.sleb128 0
 5893 0d10 00       		.byte	0
 5894 0d11 24       		.uleb128 0x24
 5895 0d12 44000000 		.4byte	.LVL151
 5896 0d16 F9050000 		.4byte	0x5f9
 5897 0d1a 2A0D0000 		.4byte	0xd2a
 5898 0d1e 15       		.uleb128 0x15
 5899 0d1f 01       		.uleb128 0x1
 5900 0d20 50       		.byte	0x50
ARM GAS  C:\Users\Phuong\AppData\Local\Temp\ccX7yw2d.s 			page 143


 5901 0d21 02       		.uleb128 0x2
 5902 0d22 75       		.byte	0x75
 5903 0d23 00       		.sleb128 0
 5904 0d24 15       		.uleb128 0x15
 5905 0d25 01       		.uleb128 0x1
 5906 0d26 51       		.byte	0x51
 5907 0d27 01       		.uleb128 0x1
 5908 0d28 36       		.byte	0x36
 5909 0d29 00       		.byte	0
 5910 0d2a 24       		.uleb128 0x24
 5911 0d2b 50000000 		.4byte	.LVL152
 5912 0d2f D2270000 		.4byte	0x27d2
 5913 0d33 4F0D0000 		.4byte	0xd4f
 5914 0d37 15       		.uleb128 0x15
 5915 0d38 01       		.uleb128 0x1
 5916 0d39 51       		.byte	0x51
 5917 0d3a 05       		.uleb128 0x5
 5918 0d3b 03       		.byte	0x3
 5919 0d3c 2C000000 		.4byte	.LC2
 5920 0d40 15       		.uleb128 0x15
 5921 0d41 01       		.uleb128 0x1
 5922 0d42 52       		.byte	0x52
 5923 0d43 05       		.uleb128 0x5
 5924 0d44 03       		.byte	0x3
 5925 0d45 00000000 		.4byte	.LC0
 5926 0d49 15       		.uleb128 0x15
 5927 0d4a 01       		.uleb128 0x1
 5928 0d4b 53       		.byte	0x53
 5929 0d4c 01       		.uleb128 0x1
 5930 0d4d 30       		.byte	0x30
 5931 0d4e 00       		.byte	0
 5932 0d4f 24       		.uleb128 0x24
 5933 0d50 5A000000 		.4byte	.LVL153
 5934 0d54 F9050000 		.4byte	0x5f9
 5935 0d58 680D0000 		.4byte	0xd68
 5936 0d5c 15       		.uleb128 0x15
 5937 0d5d 01       		.uleb128 0x1
 5938 0d5e 50       		.byte	0x50
 5939 0d5f 02       		.uleb128 0x2
 5940 0d60 75       		.byte	0x75
 5941 0d61 00       		.sleb128 0
 5942 0d62 15       		.uleb128 0x15
 5943 0d63 01       		.uleb128 0x1
 5944 0d64 51       		.byte	0x51
 5945 0d65 01       		.uleb128 0x1
 5946 0d66 36       		.byte	0x36
 5947 0d67 00       		.byte	0
 5948 0d68 1C       		.uleb128 0x1c
 5949 0d69 60000000 		.4byte	.LVL154
 5950 0d6d E8270000 		.4byte	0x27e8
 5951 0d71 15       		.uleb128 0x15
 5952 0d72 01       		.uleb128 0x1
 5953 0d73 50       		.byte	0x50
 5954 0d74 02       		.uleb128 0x2
 5955 0d75 74       		.byte	0x74
 5956 0d76 00       		.sleb128 0
 5957 0d77 00       		.byte	0
ARM GAS  C:\Users\Phuong\AppData\Local\Temp\ccX7yw2d.s 			page 144


 5958 0d78 00       		.byte	0
 5959 0d79 27       		.uleb128 0x27
 5960 0d7a 7B160000 		.4byte	.LASF161
 5961 0d7e 01       		.byte	0x1
 5962 0d7f CC02     		.2byte	0x2cc
 5963 0d81 0A030000 		.4byte	0x30a
 5964 0d85 00000000 		.4byte	.LFB11
 5965 0d89 68000000 		.4byte	.LFE11-.LFB11
 5966 0d8d 01       		.uleb128 0x1
 5967 0d8e 9C       		.byte	0x9c
 5968 0d8f 250E0000 		.4byte	0xe25
 5969 0d93 17       		.uleb128 0x17
 5970 0d94 3F0C0000 		.4byte	.LASF75
 5971 0d98 01       		.byte	0x1
 5972 0d99 CC02     		.2byte	0x2cc
 5973 0d9b 98010000 		.4byte	0x198
 5974 0d9f 57090000 		.4byte	.LLST43
 5975 0da3 17       		.uleb128 0x17
 5976 0da4 0D0C0000 		.4byte	.LASF79
 5977 0da8 01       		.byte	0x1
 5978 0da9 CC02     		.2byte	0x2cc
 5979 0dab 44050000 		.4byte	0x544
 5980 0daf 99090000 		.4byte	.LLST44
 5981 0db3 17       		.uleb128 0x17
 5982 0db4 A60F0000 		.4byte	.LASF96
 5983 0db8 01       		.byte	0x1
 5984 0db9 CC02     		.2byte	0x2cc
 5985 0dbb 9A000000 		.4byte	0x9a
 5986 0dbf DB090000 		.4byte	.LLST45
 5987 0dc3 1A       		.uleb128 0x1a
 5988 0dc4 9F060000 		.4byte	.LASF129
 5989 0dc8 01       		.byte	0x1
 5990 0dc9 CE02     		.2byte	0x2ce
 5991 0dcb 49060000 		.4byte	0x649
 5992 0dcf 1D0A0000 		.4byte	.LLST46
 5993 0dd3 24       		.uleb128 0x24
 5994 0dd4 12000000 		.4byte	.LVL160
 5995 0dd8 F3270000 		.4byte	0x27f3
 5996 0ddc E70D0000 		.4byte	0xde7
 5997 0de0 15       		.uleb128 0x15
 5998 0de1 01       		.uleb128 0x1
 5999 0de2 50       		.byte	0x50
 6000 0de3 02       		.uleb128 0x2
 6001 0de4 08       		.byte	0x8
 6002 0de5 48       		.byte	0x48
 6003 0de6 00       		.byte	0
 6004 0de7 24       		.uleb128 0x24
 6005 0de8 48000000 		.4byte	.LVL163
 6006 0dec FE270000 		.4byte	0x27fe
 6007 0df0 FB0D0000 		.4byte	0xdfb
 6008 0df4 15       		.uleb128 0x15
 6009 0df5 01       		.uleb128 0x1
 6010 0df6 50       		.byte	0x50
 6011 0df7 02       		.uleb128 0x2
 6012 0df8 77       		.byte	0x77
 6013 0df9 00       		.sleb128 0
 6014 0dfa 00       		.byte	0
ARM GAS  C:\Users\Phuong\AppData\Local\Temp\ccX7yw2d.s 			page 145


 6015 0dfb 24       		.uleb128 0x24
 6016 0dfc 54000000 		.4byte	.LVL164
 6017 0e00 EB260000 		.4byte	0x26eb
 6018 0e04 0F0E0000 		.4byte	0xe0f
 6019 0e08 15       		.uleb128 0x15
 6020 0e09 01       		.uleb128 0x1
 6021 0e0a 50       		.byte	0x50
 6022 0e0b 02       		.uleb128 0x2
 6023 0e0c 74       		.byte	0x74
 6024 0e0d 00       		.sleb128 0
 6025 0e0e 00       		.byte	0
 6026 0e0f 1C       		.uleb128 0x1c
 6027 0e10 60000000 		.4byte	.LVL166
 6028 0e14 F9050000 		.4byte	0x5f9
 6029 0e18 15       		.uleb128 0x15
 6030 0e19 01       		.uleb128 0x1
 6031 0e1a 50       		.byte	0x50
 6032 0e1b 02       		.uleb128 0x2
 6033 0e1c 74       		.byte	0x74
 6034 0e1d 00       		.sleb128 0
 6035 0e1e 15       		.uleb128 0x15
 6036 0e1f 01       		.uleb128 0x1
 6037 0e20 51       		.byte	0x51
 6038 0e21 01       		.uleb128 0x1
 6039 0e22 30       		.byte	0x30
 6040 0e23 00       		.byte	0
 6041 0e24 00       		.byte	0
 6042 0e25 27       		.uleb128 0x27
 6043 0e26 67140000 		.4byte	.LASF162
 6044 0e2a 01       		.byte	0x1
 6045 0e2b 0303     		.2byte	0x303
 6046 0e2d 0A030000 		.4byte	0x30a
 6047 0e31 00000000 		.4byte	.LFB12
 6048 0e35 5C000000 		.4byte	.LFE12-.LFB12
 6049 0e39 01       		.uleb128 0x1
 6050 0e3a 9C       		.byte	0x9c
 6051 0e3b B90E0000 		.4byte	0xeb9
 6052 0e3f 17       		.uleb128 0x17
 6053 0e40 3F0C0000 		.4byte	.LASF75
 6054 0e44 01       		.byte	0x1
 6055 0e45 0303     		.2byte	0x303
 6056 0e47 98010000 		.4byte	0x198
 6057 0e4b 680A0000 		.4byte	.LLST47
 6058 0e4f 17       		.uleb128 0x17
 6059 0e50 AA160000 		.4byte	.LASF76
 6060 0e54 01       		.byte	0x1
 6061 0e55 0303     		.2byte	0x303
 6062 0e57 AE010000 		.4byte	0x1ae
 6063 0e5b AA0A0000 		.4byte	.LLST48
 6064 0e5f 17       		.uleb128 0x17
 6065 0e60 0D0C0000 		.4byte	.LASF79
 6066 0e64 01       		.byte	0x1
 6067 0e65 0303     		.2byte	0x303
 6068 0e67 44050000 		.4byte	0x544
 6069 0e6b EC0A0000 		.4byte	.LLST49
 6070 0e6f 17       		.uleb128 0x17
 6071 0e70 A60F0000 		.4byte	.LASF96
ARM GAS  C:\Users\Phuong\AppData\Local\Temp\ccX7yw2d.s 			page 146


 6072 0e74 01       		.byte	0x1
 6073 0e75 0303     		.2byte	0x303
 6074 0e77 9A000000 		.4byte	0x9a
 6075 0e7b 2E0B0000 		.4byte	.LLST50
 6076 0e7f 1A       		.uleb128 0x1a
 6077 0e80 9F060000 		.4byte	.LASF129
 6078 0e84 01       		.byte	0x1
 6079 0e85 0503     		.2byte	0x305
 6080 0e87 49060000 		.4byte	0x649
 6081 0e8b 640B0000 		.4byte	.LLST51
 6082 0e8f 24       		.uleb128 0x24
 6083 0e90 16000000 		.4byte	.LVL175
 6084 0e94 F3270000 		.4byte	0x27f3
 6085 0e98 A30E0000 		.4byte	0xea3
 6086 0e9c 15       		.uleb128 0x15
 6087 0e9d 01       		.uleb128 0x1
 6088 0e9e 50       		.byte	0x50
 6089 0e9f 02       		.uleb128 0x2
 6090 0ea0 08       		.byte	0x8
 6091 0ea1 48       		.byte	0x48
 6092 0ea2 00       		.byte	0
 6093 0ea3 1C       		.uleb128 0x1c
 6094 0ea4 52000000 		.4byte	.LVL178
 6095 0ea8 F9050000 		.4byte	0x5f9
 6096 0eac 15       		.uleb128 0x15
 6097 0ead 01       		.uleb128 0x1
 6098 0eae 50       		.byte	0x50
 6099 0eaf 02       		.uleb128 0x2
 6100 0eb0 74       		.byte	0x74
 6101 0eb1 00       		.sleb128 0
 6102 0eb2 15       		.uleb128 0x15
 6103 0eb3 01       		.uleb128 0x1
 6104 0eb4 51       		.byte	0x51
 6105 0eb5 01       		.uleb128 0x1
 6106 0eb6 30       		.byte	0x30
 6107 0eb7 00       		.byte	0
 6108 0eb8 00       		.byte	0
 6109 0eb9 27       		.uleb128 0x27
 6110 0eba 7D040000 		.4byte	.LASF163
 6111 0ebe 01       		.byte	0x1
 6112 0ebf 4003     		.2byte	0x340
 6113 0ec1 37000000 		.4byte	0x37
 6114 0ec5 00000000 		.4byte	.LFB14
 6115 0ec9 64000000 		.4byte	.LFE14-.LFB14
 6116 0ecd 01       		.uleb128 0x1
 6117 0ece 9C       		.byte	0x9c
 6118 0ecf 390F0000 		.4byte	0xf39
 6119 0ed3 17       		.uleb128 0x17
 6120 0ed4 06010000 		.4byte	.LASF97
 6121 0ed8 01       		.byte	0x1
 6122 0ed9 4003     		.2byte	0x340
 6123 0edb 0A030000 		.4byte	0x30a
 6124 0edf 980B0000 		.4byte	.LLST52
 6125 0ee3 1A       		.uleb128 0x1a
 6126 0ee4 9F060000 		.4byte	.LASF129
 6127 0ee8 01       		.byte	0x1
 6128 0ee9 4203     		.2byte	0x342
ARM GAS  C:\Users\Phuong\AppData\Local\Temp\ccX7yw2d.s 			page 147


 6129 0eeb 37000000 		.4byte	0x37
 6130 0eef E50B0000 		.4byte	.LLST53
 6131 0ef3 1E       		.uleb128 0x1e
 6132 0ef4 78000000 		.4byte	.Ldebug_ranges0+0x78
 6133 0ef8 1A       		.uleb128 0x1a
 6134 0ef9 AA000000 		.4byte	.LASF128
 6135 0efd 01       		.byte	0x1
 6136 0efe 4A03     		.2byte	0x34a
 6137 0f00 49060000 		.4byte	0x649
 6138 0f04 120C0000 		.4byte	.LLST54
 6139 0f08 24       		.uleb128 0x24
 6140 0f09 12000000 		.4byte	.LVL188
 6141 0f0d 09280000 		.4byte	0x2809
 6142 0f11 2E0F0000 		.4byte	0xf2e
 6143 0f15 15       		.uleb128 0x15
 6144 0f16 01       		.uleb128 0x1
 6145 0f17 51       		.byte	0x51
 6146 0f18 05       		.uleb128 0x5
 6147 0f19 03       		.byte	0x3
 6148 0f1a 00000000 		.4byte	on_frame_received
 6149 0f1e 15       		.uleb128 0x15
 6150 0f1f 01       		.uleb128 0x1
 6151 0f20 52       		.byte	0x52
 6152 0f21 05       		.uleb128 0x5
 6153 0f22 03       		.byte	0x3
 6154 0f23 00000000 		.4byte	on_connection_state_changed
 6155 0f27 15       		.uleb128 0x15
 6156 0f28 01       		.uleb128 0x1
 6157 0f29 53       		.byte	0x53
 6158 0f2a 02       		.uleb128 0x2
 6159 0f2b 74       		.byte	0x74
 6160 0f2c 00       		.sleb128 0
 6161 0f2d 00       		.byte	0
 6162 0f2e 1B       		.uleb128 0x1b
 6163 0f2f 24000000 		.4byte	.LVL189
 6164 0f33 14280000 		.4byte	0x2814
 6165 0f37 00       		.byte	0
 6166 0f38 00       		.byte	0
 6167 0f39 27       		.uleb128 0x27
 6168 0f3a 69050000 		.4byte	.LASF164
 6169 0f3e 01       		.byte	0x1
 6170 0f3f 6903     		.2byte	0x369
 6171 0f41 37000000 		.4byte	0x37
 6172 0f45 00000000 		.4byte	.LFB15
 6173 0f49 9C000000 		.4byte	.LFE15-.LFB15
 6174 0f4d 01       		.uleb128 0x1
 6175 0f4e 9C       		.byte	0x9c
 6176 0f4f 55100000 		.4byte	0x1055
 6177 0f53 17       		.uleb128 0x17
 6178 0f54 06010000 		.4byte	.LASF97
 6179 0f58 01       		.byte	0x1
 6180 0f59 6903     		.2byte	0x369
 6181 0f5b 0A030000 		.4byte	0x30a
 6182 0f5f 460C0000 		.4byte	.LLST55
 6183 0f63 17       		.uleb128 0x17
 6184 0f64 2C0F0000 		.4byte	.LASF159
 6185 0f68 01       		.byte	0x1
ARM GAS  C:\Users\Phuong\AppData\Local\Temp\ccX7yw2d.s 			page 148


 6186 0f69 6903     		.2byte	0x369
 6187 0f6b A9000000 		.4byte	0xa9
 6188 0f6f B40C0000 		.4byte	.LLST56
 6189 0f73 17       		.uleb128 0x17
 6190 0f74 6A0C0000 		.4byte	.LASF160
 6191 0f78 01       		.byte	0x1
 6192 0f79 6903     		.2byte	0x369
 6193 0f7b A9000000 		.4byte	0xa9
 6194 0f7f 200D0000 		.4byte	.LLST57
 6195 0f83 1A       		.uleb128 0x1a
 6196 0f84 9F060000 		.4byte	.LASF129
 6197 0f88 01       		.byte	0x1
 6198 0f89 6B03     		.2byte	0x36b
 6199 0f8b 37000000 		.4byte	0x37
 6200 0f8f 910D0000 		.4byte	.LLST58
 6201 0f93 26       		.uleb128 0x26
 6202 0f94 0A000000 		.4byte	.LBB17
 6203 0f98 7E000000 		.4byte	.LBE17-.LBB17
 6204 0f9c 1A       		.uleb128 0x1a
 6205 0f9d AA000000 		.4byte	.LASF128
 6206 0fa1 01       		.byte	0x1
 6207 0fa2 7303     		.2byte	0x373
 6208 0fa4 49060000 		.4byte	0x649
 6209 0fa8 F30D0000 		.4byte	.LLST59
 6210 0fac 19       		.uleb128 0x19
 6211 0fad 6900     		.ascii	"i\000"
 6212 0faf 01       		.byte	0x1
 6213 0fb0 7403     		.2byte	0x374
 6214 0fb2 25000000 		.4byte	0x25
 6215 0fb6 3D0E0000 		.4byte	.LLST60
 6216 0fba 21       		.uleb128 0x21
 6217 0fbb 14000000 		.4byte	.LBB18
 6218 0fbf 52000000 		.4byte	.LBE18-.LBB18
 6219 0fc3 4A100000 		.4byte	0x104a
 6220 0fc7 1A       		.uleb128 0x1a
 6221 0fc8 970E0000 		.4byte	.LASF155
 6222 0fcc 01       		.byte	0x1
 6223 0fcd 7903     		.2byte	0x379
 6224 0fcf 82010000 		.4byte	0x182
 6225 0fd3 5C0E0000 		.4byte	.LLST61
 6226 0fd7 24       		.uleb128 0x24
 6227 0fd8 1E000000 		.4byte	.LVL202
 6228 0fdc C7270000 		.4byte	0x27c7
 6229 0fe0 EC0F0000 		.4byte	0xfec
 6230 0fe4 15       		.uleb128 0x15
 6231 0fe5 01       		.uleb128 0x1
 6232 0fe6 50       		.byte	0x50
 6233 0fe7 03       		.uleb128 0x3
 6234 0fe8 F3       		.byte	0xf3
 6235 0fe9 01       		.uleb128 0x1
 6236 0fea 51       		.byte	0x51
 6237 0feb 00       		.byte	0
 6238 0fec 24       		.uleb128 0x24
 6239 0fed 28000000 		.4byte	.LVL204
 6240 0ff1 DD270000 		.4byte	0x27dd
 6241 0ff5 06100000 		.4byte	0x1006
 6242 0ff9 15       		.uleb128 0x15
ARM GAS  C:\Users\Phuong\AppData\Local\Temp\ccX7yw2d.s 			page 149


 6243 0ffa 01       		.uleb128 0x1
 6244 0ffb 50       		.byte	0x50
 6245 0ffc 02       		.uleb128 0x2
 6246 0ffd 77       		.byte	0x77
 6247 0ffe 00       		.sleb128 0
 6248 0fff 15       		.uleb128 0x15
 6249 1000 01       		.uleb128 0x1
 6250 1001 51       		.byte	0x51
 6251 1002 02       		.uleb128 0x2
 6252 1003 74       		.byte	0x74
 6253 1004 00       		.sleb128 0
 6254 1005 00       		.byte	0
 6255 1006 24       		.uleb128 0x24
 6256 1007 48000000 		.4byte	.LVL209
 6257 100b 4F0B0000 		.4byte	0xb4f
 6258 100f 20100000 		.4byte	0x1020
 6259 1013 15       		.uleb128 0x15
 6260 1014 01       		.uleb128 0x1
 6261 1015 50       		.byte	0x50
 6262 1016 02       		.uleb128 0x2
 6263 1017 75       		.byte	0x75
 6264 1018 00       		.sleb128 0
 6265 1019 15       		.uleb128 0x15
 6266 101a 01       		.uleb128 0x1
 6267 101b 51       		.byte	0x51
 6268 101c 02       		.uleb128 0x2
 6269 101d 77       		.byte	0x77
 6270 101e 00       		.sleb128 0
 6271 101f 00       		.byte	0
 6272 1020 24       		.uleb128 0x24
 6273 1021 54000000 		.4byte	.LVL210
 6274 1025 F9050000 		.4byte	0x5f9
 6275 1029 39100000 		.4byte	0x1039
 6276 102d 15       		.uleb128 0x15
 6277 102e 01       		.uleb128 0x1
 6278 102f 50       		.byte	0x50
 6279 1030 02       		.uleb128 0x2
 6280 1031 75       		.byte	0x75
 6281 1032 00       		.sleb128 0
 6282 1033 15       		.uleb128 0x15
 6283 1034 01       		.uleb128 0x1
 6284 1035 51       		.byte	0x51
 6285 1036 01       		.uleb128 0x1
 6286 1037 36       		.byte	0x36
 6287 1038 00       		.byte	0
 6288 1039 1C       		.uleb128 0x1c
 6289 103a 64000000 		.4byte	.LVL214
 6290 103e E8270000 		.4byte	0x27e8
 6291 1042 15       		.uleb128 0x15
 6292 1043 01       		.uleb128 0x1
 6293 1044 50       		.byte	0x50
 6294 1045 02       		.uleb128 0x2
 6295 1046 77       		.byte	0x77
 6296 1047 00       		.sleb128 0
 6297 1048 00       		.byte	0
 6298 1049 00       		.byte	0
 6299 104a 1B       		.uleb128 0x1b
ARM GAS  C:\Users\Phuong\AppData\Local\Temp\ccX7yw2d.s 			page 150


 6300 104b 7A000000 		.4byte	.LVL219
 6301 104f A6060000 		.4byte	0x6a6
 6302 1053 00       		.byte	0
 6303 1054 00       		.byte	0
 6304 1055 28       		.uleb128 0x28
 6305 1056 34040000 		.4byte	.LASF192
 6306 105a 01       		.byte	0x1
 6307 105b 2B03     		.2byte	0x32b
 6308 105d 00000000 		.4byte	.LFB13
 6309 1061 26000000 		.4byte	.LFE13-.LFB13
 6310 1065 01       		.uleb128 0x1
 6311 1066 9C       		.byte	0x9c
 6312 1067 D6100000 		.4byte	0x10d6
 6313 106b 17       		.uleb128 0x17
 6314 106c 06010000 		.4byte	.LASF97
 6315 1070 01       		.byte	0x1
 6316 1071 2B03     		.2byte	0x32b
 6317 1073 0A030000 		.4byte	0x30a
 6318 1077 A80E0000 		.4byte	.LLST62
 6319 107b 26       		.uleb128 0x26
 6320 107c 06000000 		.4byte	.LBB19
 6321 1080 1E000000 		.4byte	.LBE19-.LBB19
 6322 1084 1A       		.uleb128 0x1a
 6323 1085 AA000000 		.4byte	.LASF128
 6324 1089 01       		.byte	0x1
 6325 108a 3003     		.2byte	0x330
 6326 108c 49060000 		.4byte	0x649
 6327 1090 D40E0000 		.4byte	.LLST63
 6328 1094 24       		.uleb128 0x24
 6329 1095 0E000000 		.4byte	.LVL227
 6330 1099 390F0000 		.4byte	0xf39
 6331 109d B2100000 		.4byte	0x10b2
 6332 10a1 15       		.uleb128 0x15
 6333 10a2 01       		.uleb128 0x1
 6334 10a3 50       		.byte	0x50
 6335 10a4 02       		.uleb128 0x2
 6336 10a5 74       		.byte	0x74
 6337 10a6 00       		.sleb128 0
 6338 10a7 15       		.uleb128 0x15
 6339 10a8 01       		.uleb128 0x1
 6340 10a9 51       		.byte	0x51
 6341 10aa 01       		.uleb128 0x1
 6342 10ab 30       		.byte	0x30
 6343 10ac 15       		.uleb128 0x15
 6344 10ad 01       		.uleb128 0x1
 6345 10ae 52       		.byte	0x52
 6346 10af 01       		.uleb128 0x1
 6347 10b0 30       		.byte	0x30
 6348 10b1 00       		.byte	0
 6349 10b2 1B       		.uleb128 0x1b
 6350 10b3 14000000 		.4byte	.LVL228
 6351 10b7 1F280000 		.4byte	0x281f
 6352 10bb 1B       		.uleb128 0x1b
 6353 10bc 1E000000 		.4byte	.LVL229
 6354 10c0 EB260000 		.4byte	0x26eb
 6355 10c4 1C       		.uleb128 0x1c
 6356 10c5 24000000 		.4byte	.LVL230
ARM GAS  C:\Users\Phuong\AppData\Local\Temp\ccX7yw2d.s 			page 151


 6357 10c9 EB260000 		.4byte	0x26eb
 6358 10cd 15       		.uleb128 0x15
 6359 10ce 01       		.uleb128 0x1
 6360 10cf 50       		.byte	0x50
 6361 10d0 02       		.uleb128 0x2
 6362 10d1 74       		.byte	0x74
 6363 10d2 00       		.sleb128 0
 6364 10d3 00       		.byte	0
 6365 10d4 00       		.byte	0
 6366 10d5 00       		.byte	0
 6367 10d6 27       		.uleb128 0x27
 6368 10d7 F8030000 		.4byte	.LASF165
 6369 10db 01       		.byte	0x1
 6370 10dc AF03     		.2byte	0x3af
 6371 10de 37000000 		.4byte	0x37
 6372 10e2 00000000 		.4byte	.LFB16
 6373 10e6 14000000 		.4byte	.LFE16-.LFB16
 6374 10ea 01       		.uleb128 0x1
 6375 10eb 9C       		.byte	0x9c
 6376 10ec 39110000 		.4byte	0x1139
 6377 10f0 17       		.uleb128 0x17
 6378 10f1 06010000 		.4byte	.LASF97
 6379 10f5 01       		.byte	0x1
 6380 10f6 AF03     		.2byte	0x3af
 6381 10f8 0A030000 		.4byte	0x30a
 6382 10fc F20E0000 		.4byte	.LLST64
 6383 1100 18       		.uleb128 0x18
 6384 1101 78100000 		.4byte	.LASF84
 6385 1105 01       		.byte	0x1
 6386 1106 AF03     		.2byte	0x3af
 6387 1108 BF000000 		.4byte	0xbf
 6388 110c 01       		.uleb128 0x1
 6389 110d 51       		.byte	0x51
 6390 110e 1A       		.uleb128 0x1a
 6391 110f 9F060000 		.4byte	.LASF129
 6392 1113 01       		.byte	0x1
 6393 1114 B103     		.2byte	0x3b1
 6394 1116 37000000 		.4byte	0x37
 6395 111a 2C0F0000 		.4byte	.LLST65
 6396 111e 26       		.uleb128 0x26
 6397 111f 04000000 		.4byte	.LBB20
 6398 1123 08000000 		.4byte	.LBE20-.LBB20
 6399 1127 1A       		.uleb128 0x1a
 6400 1128 AA000000 		.4byte	.LASF128
 6401 112c 01       		.byte	0x1
 6402 112d B903     		.2byte	0x3b9
 6403 112f 49060000 		.4byte	0x649
 6404 1133 4B0F0000 		.4byte	.LLST66
 6405 1137 00       		.byte	0
 6406 1138 00       		.byte	0
 6407 1139 27       		.uleb128 0x27
 6408 113a 38170000 		.4byte	.LASF166
 6409 113e 01       		.byte	0x1
 6410 113f C403     		.2byte	0x3c4
 6411 1141 37000000 		.4byte	0x37
 6412 1145 00000000 		.4byte	.LFB17
 6413 1149 1C000000 		.4byte	.LFE17-.LFB17
ARM GAS  C:\Users\Phuong\AppData\Local\Temp\ccX7yw2d.s 			page 152


 6414 114d 01       		.uleb128 0x1
 6415 114e 9C       		.byte	0x9c
 6416 114f 9C110000 		.4byte	0x119c
 6417 1153 17       		.uleb128 0x17
 6418 1154 06010000 		.4byte	.LASF97
 6419 1158 01       		.byte	0x1
 6420 1159 C403     		.2byte	0x3c4
 6421 115b 0A030000 		.4byte	0x30a
 6422 115f 6C0F0000 		.4byte	.LLST67
 6423 1163 18       		.uleb128 0x18
 6424 1164 78100000 		.4byte	.LASF84
 6425 1168 01       		.byte	0x1
 6426 1169 C403     		.2byte	0x3c4
 6427 116b 9C110000 		.4byte	0x119c
 6428 116f 01       		.uleb128 0x1
 6429 1170 51       		.byte	0x51
 6430 1171 1A       		.uleb128 0x1a
 6431 1172 9F060000 		.4byte	.LASF129
 6432 1176 01       		.byte	0x1
 6433 1177 C603     		.2byte	0x3c6
 6434 1179 37000000 		.4byte	0x37
 6435 117d BF0F0000 		.4byte	.LLST68
 6436 1181 26       		.uleb128 0x26
 6437 1182 08000000 		.4byte	.LBB21
 6438 1186 08000000 		.4byte	.LBE21-.LBB21
 6439 118a 1A       		.uleb128 0x1a
 6440 118b AA000000 		.4byte	.LASF128
 6441 118f 01       		.byte	0x1
 6442 1190 CF03     		.2byte	0x3cf
 6443 1192 49060000 		.4byte	0x649
 6444 1196 DE0F0000 		.4byte	.LLST69
 6445 119a 00       		.byte	0
 6446 119b 00       		.byte	0
 6447 119c 06       		.uleb128 0x6
 6448 119d 04       		.byte	0x4
 6449 119e BF000000 		.4byte	0xbf
 6450 11a2 27       		.uleb128 0x27
 6451 11a3 B3160000 		.4byte	.LASF167
 6452 11a7 01       		.byte	0x1
 6453 11a8 D903     		.2byte	0x3d9
 6454 11aa 37000000 		.4byte	0x37
 6455 11ae 00000000 		.4byte	.LFB18
 6456 11b2 14000000 		.4byte	.LFE18-.LFB18
 6457 11b6 01       		.uleb128 0x1
 6458 11b7 9C       		.byte	0x9c
 6459 11b8 05120000 		.4byte	0x1205
 6460 11bc 17       		.uleb128 0x17
 6461 11bd 06010000 		.4byte	.LASF97
 6462 11c1 01       		.byte	0x1
 6463 11c2 D903     		.2byte	0x3d9
 6464 11c4 0A030000 		.4byte	0x30a
 6465 11c8 FF0F0000 		.4byte	.LLST70
 6466 11cc 18       		.uleb128 0x18
 6467 11cd FC090000 		.4byte	.LASF85
 6468 11d1 01       		.byte	0x1
 6469 11d2 D903     		.2byte	0x3d9
 6470 11d4 BF000000 		.4byte	0xbf
ARM GAS  C:\Users\Phuong\AppData\Local\Temp\ccX7yw2d.s 			page 153


 6471 11d8 01       		.uleb128 0x1
 6472 11d9 51       		.byte	0x51
 6473 11da 1A       		.uleb128 0x1a
 6474 11db 9F060000 		.4byte	.LASF129
 6475 11df 01       		.byte	0x1
 6476 11e0 DB03     		.2byte	0x3db
 6477 11e2 37000000 		.4byte	0x37
 6478 11e6 39100000 		.4byte	.LLST71
 6479 11ea 26       		.uleb128 0x26
 6480 11eb 04000000 		.4byte	.LBB22
 6481 11ef 06000000 		.4byte	.LBE22-.LBB22
 6482 11f3 1A       		.uleb128 0x1a
 6483 11f4 AA000000 		.4byte	.LASF128
 6484 11f8 01       		.byte	0x1
 6485 11f9 E303     		.2byte	0x3e3
 6486 11fb 49060000 		.4byte	0x649
 6487 11ff 58100000 		.4byte	.LLST72
 6488 1203 00       		.byte	0
 6489 1204 00       		.byte	0
 6490 1205 27       		.uleb128 0x27
 6491 1206 BF100000 		.4byte	.LASF168
 6492 120a 01       		.byte	0x1
 6493 120b ED03     		.2byte	0x3ed
 6494 120d 37000000 		.4byte	0x37
 6495 1211 00000000 		.4byte	.LFB19
 6496 1215 1C000000 		.4byte	.LFE19-.LFB19
 6497 1219 01       		.uleb128 0x1
 6498 121a 9C       		.byte	0x9c
 6499 121b 68120000 		.4byte	0x1268
 6500 121f 17       		.uleb128 0x17
 6501 1220 06010000 		.4byte	.LASF97
 6502 1224 01       		.byte	0x1
 6503 1225 ED03     		.2byte	0x3ed
 6504 1227 0A030000 		.4byte	0x30a
 6505 122b 79100000 		.4byte	.LLST73
 6506 122f 18       		.uleb128 0x18
 6507 1230 FC090000 		.4byte	.LASF85
 6508 1234 01       		.byte	0x1
 6509 1235 ED03     		.2byte	0x3ed
 6510 1237 9C110000 		.4byte	0x119c
 6511 123b 01       		.uleb128 0x1
 6512 123c 51       		.byte	0x51
 6513 123d 1A       		.uleb128 0x1a
 6514 123e 9F060000 		.4byte	.LASF129
 6515 1242 01       		.byte	0x1
 6516 1243 EF03     		.2byte	0x3ef
 6517 1245 37000000 		.4byte	0x37
 6518 1249 CC100000 		.4byte	.LLST74
 6519 124d 26       		.uleb128 0x26
 6520 124e 08000000 		.4byte	.LBB23
 6521 1252 08000000 		.4byte	.LBE23-.LBB23
 6522 1256 1A       		.uleb128 0x1a
 6523 1257 AA000000 		.4byte	.LASF128
 6524 125b 01       		.byte	0x1
 6525 125c F803     		.2byte	0x3f8
 6526 125e 49060000 		.4byte	0x649
 6527 1262 EB100000 		.4byte	.LLST75
ARM GAS  C:\Users\Phuong\AppData\Local\Temp\ccX7yw2d.s 			page 154


 6528 1266 00       		.byte	0
 6529 1267 00       		.byte	0
 6530 1268 27       		.uleb128 0x27
 6531 1269 B5080000 		.4byte	.LASF169
 6532 126d 01       		.byte	0x1
 6533 126e 0204     		.2byte	0x402
 6534 1270 37000000 		.4byte	0x37
 6535 1274 00000000 		.4byte	.LFB20
 6536 1278 10000000 		.4byte	.LFE20-.LFB20
 6537 127c 01       		.uleb128 0x1
 6538 127d 9C       		.byte	0x9c
 6539 127e CB120000 		.4byte	0x12cb
 6540 1282 17       		.uleb128 0x17
 6541 1283 06010000 		.4byte	.LASF97
 6542 1287 01       		.byte	0x1
 6543 1288 0204     		.2byte	0x402
 6544 128a 0A030000 		.4byte	0x30a
 6545 128e 0C110000 		.4byte	.LLST76
 6546 1292 18       		.uleb128 0x18
 6547 1293 2B050000 		.4byte	.LASF86
 6548 1297 01       		.byte	0x1
 6549 1298 0204     		.2byte	0x402
 6550 129a 70020000 		.4byte	0x270
 6551 129e 01       		.uleb128 0x1
 6552 129f 51       		.byte	0x51
 6553 12a0 1A       		.uleb128 0x1a
 6554 12a1 9F060000 		.4byte	.LASF129
 6555 12a5 01       		.byte	0x1
 6556 12a6 0404     		.2byte	0x404
 6557 12a8 37000000 		.4byte	0x37
 6558 12ac 46110000 		.4byte	.LLST77
 6559 12b0 26       		.uleb128 0x26
 6560 12b1 04000000 		.4byte	.LBB24
 6561 12b5 06000000 		.4byte	.LBE24-.LBB24
 6562 12b9 1A       		.uleb128 0x1a
 6563 12ba AA000000 		.4byte	.LASF128
 6564 12be 01       		.byte	0x1
 6565 12bf 0C04     		.2byte	0x40c
 6566 12c1 49060000 		.4byte	0x649
 6567 12c5 65110000 		.4byte	.LLST78
 6568 12c9 00       		.byte	0
 6569 12ca 00       		.byte	0
 6570 12cb 27       		.uleb128 0x27
 6571 12cc 060E0000 		.4byte	.LASF170
 6572 12d0 01       		.byte	0x1
 6573 12d1 1604     		.2byte	0x416
 6574 12d3 37000000 		.4byte	0x37
 6575 12d7 00000000 		.4byte	.LFB21
 6576 12db 1C000000 		.4byte	.LFE21-.LFB21
 6577 12df 01       		.uleb128 0x1
 6578 12e0 9C       		.byte	0x9c
 6579 12e1 2E130000 		.4byte	0x132e
 6580 12e5 17       		.uleb128 0x17
 6581 12e6 06010000 		.4byte	.LASF97
 6582 12ea 01       		.byte	0x1
 6583 12eb 1604     		.2byte	0x416
 6584 12ed 0A030000 		.4byte	0x30a
ARM GAS  C:\Users\Phuong\AppData\Local\Temp\ccX7yw2d.s 			page 155


 6585 12f1 86110000 		.4byte	.LLST79
 6586 12f5 18       		.uleb128 0x18
 6587 12f6 2B050000 		.4byte	.LASF86
 6588 12fa 01       		.byte	0x1
 6589 12fb 1604     		.2byte	0x416
 6590 12fd 2E130000 		.4byte	0x132e
 6591 1301 01       		.uleb128 0x1
 6592 1302 51       		.byte	0x51
 6593 1303 1A       		.uleb128 0x1a
 6594 1304 9F060000 		.4byte	.LASF129
 6595 1308 01       		.byte	0x1
 6596 1309 1804     		.2byte	0x418
 6597 130b 37000000 		.4byte	0x37
 6598 130f D9110000 		.4byte	.LLST80
 6599 1313 26       		.uleb128 0x26
 6600 1314 08000000 		.4byte	.LBB25
 6601 1318 08000000 		.4byte	.LBE25-.LBB25
 6602 131c 1A       		.uleb128 0x1a
 6603 131d AA000000 		.4byte	.LASF128
 6604 1321 01       		.byte	0x1
 6605 1322 2104     		.2byte	0x421
 6606 1324 49060000 		.4byte	0x649
 6607 1328 F8110000 		.4byte	.LLST81
 6608 132c 00       		.byte	0
 6609 132d 00       		.byte	0
 6610 132e 06       		.uleb128 0x6
 6611 132f 04       		.byte	0x4
 6612 1330 70020000 		.4byte	0x270
 6613 1334 27       		.uleb128 0x27
 6614 1335 43090000 		.4byte	.LASF171
 6615 1339 01       		.byte	0x1
 6616 133a 2B04     		.2byte	0x42b
 6617 133c 0F040000 		.4byte	0x40f
 6618 1340 00000000 		.4byte	.LFB22
 6619 1344 CE000000 		.4byte	.LFE22-.LFB22
 6620 1348 01       		.uleb128 0x1
 6621 1349 9C       		.byte	0x9c
 6622 134a 7E140000 		.4byte	0x147e
 6623 134e 17       		.uleb128 0x17
 6624 134f 06010000 		.4byte	.LASF97
 6625 1353 01       		.byte	0x1
 6626 1354 2B04     		.2byte	0x42b
 6627 1356 0A030000 		.4byte	0x30a
 6628 135a 19120000 		.4byte	.LLST82
 6629 135e 17       		.uleb128 0x17
 6630 135f 3B120000 		.4byte	.LASF91
 6631 1363 01       		.byte	0x1
 6632 1364 2B04     		.2byte	0x42b
 6633 1366 A9000000 		.4byte	0xa9
 6634 136a 5B120000 		.4byte	.LLST83
 6635 136e 1A       		.uleb128 0x1a
 6636 136f 9F060000 		.4byte	.LASF129
 6637 1373 01       		.byte	0x1
 6638 1374 2D04     		.2byte	0x42d
 6639 1376 E8050000 		.4byte	0x5e8
 6640 137a 9D120000 		.4byte	.LLST84
 6641 137e 26       		.uleb128 0x26
ARM GAS  C:\Users\Phuong\AppData\Local\Temp\ccX7yw2d.s 			page 156


 6642 137f 10000000 		.4byte	.LBB26
 6643 1383 B2000000 		.4byte	.LBE26-.LBB26
 6644 1387 1A       		.uleb128 0x1a
 6645 1388 AA000000 		.4byte	.LASF128
 6646 138c 01       		.byte	0x1
 6647 138d 3804     		.2byte	0x438
 6648 138f 49060000 		.4byte	0x649
 6649 1393 FF120000 		.4byte	.LLST85
 6650 1397 23       		.uleb128 0x23
 6651 1398 90000000 		.4byte	.Ldebug_ranges0+0x90
 6652 139c 6C140000 		.4byte	0x146c
 6653 13a0 1A       		.uleb128 0x1a
 6654 13a1 89090000 		.4byte	.LASF172
 6655 13a5 01       		.byte	0x1
 6656 13a6 3F04     		.2byte	0x43f
 6657 13a8 70020000 		.4byte	0x270
 6658 13ac 1D130000 		.4byte	.LLST86
 6659 13b0 19       		.uleb128 0x19
 6660 13b1 6900     		.ascii	"i\000"
 6661 13b3 01       		.byte	0x1
 6662 13b4 4004     		.2byte	0x440
 6663 13b6 25000000 		.4byte	0x25
 6664 13ba 3B130000 		.4byte	.LLST87
 6665 13be 1A       		.uleb128 0x1a
 6666 13bf C3140000 		.4byte	.LASF173
 6667 13c3 01       		.byte	0x1
 6668 13c4 4104     		.2byte	0x441
 6669 13c6 25000000 		.4byte	0x25
 6670 13ca 59130000 		.4byte	.LLST88
 6671 13ce 23       		.uleb128 0x23
 6672 13cf A8000000 		.4byte	.Ldebug_ranges0+0xa8
 6673 13d3 32140000 		.4byte	0x1432
 6674 13d7 1A       		.uleb128 0x1a
 6675 13d8 44100000 		.4byte	.LASF174
 6676 13dc 01       		.byte	0x1
 6677 13dd 5E04     		.2byte	0x45e
 6678 13df E2050000 		.4byte	0x5e2
 6679 13e3 89130000 		.4byte	.LLST89
 6680 13e7 24       		.uleb128 0x24
 6681 13e8 76000000 		.4byte	.LVL293
 6682 13ec 2A280000 		.4byte	0x282a
 6683 13f0 02140000 		.4byte	0x1402
 6684 13f4 15       		.uleb128 0x15
 6685 13f5 01       		.uleb128 0x1
 6686 13f6 51       		.byte	0x51
 6687 13f7 02       		.uleb128 0x2
 6688 13f8 76       		.byte	0x76
 6689 13f9 00       		.sleb128 0
 6690 13fa 15       		.uleb128 0x15
 6691 13fb 01       		.uleb128 0x1
 6692 13fc 52       		.byte	0x52
 6693 13fd 03       		.uleb128 0x3
 6694 13fe 91       		.byte	0x91
 6695 13ff 64       		.sleb128 -28
 6696 1400 06       		.byte	0x6
 6697 1401 00       		.byte	0
 6698 1402 1B       		.uleb128 0x1b
ARM GAS  C:\Users\Phuong\AppData\Local\Temp\ccX7yw2d.s 			page 157


 6699 1403 84000000 		.4byte	.LVL294
 6700 1407 64270000 		.4byte	0x2764
 6701 140b 1B       		.uleb128 0x1b
 6702 140c 8E000000 		.4byte	.LVL296
 6703 1410 EB260000 		.4byte	0x26eb
 6704 1414 24       		.uleb128 0x24
 6705 1415 94000000 		.4byte	.LVL297
 6706 1419 EB260000 		.4byte	0x26eb
 6707 141d 28140000 		.4byte	0x1428
 6708 1421 15       		.uleb128 0x15
 6709 1422 01       		.uleb128 0x1
 6710 1423 50       		.byte	0x50
 6711 1424 02       		.uleb128 0x2
 6712 1425 77       		.byte	0x77
 6713 1426 00       		.sleb128 0
 6714 1427 00       		.byte	0
 6715 1428 1B       		.uleb128 0x1b
 6716 1429 B4000000 		.4byte	.LVL300
 6717 142d 59270000 		.4byte	0x2759
 6718 1431 00       		.byte	0
 6719 1432 24       		.uleb128 0x24
 6720 1433 54000000 		.4byte	.LVL288
 6721 1437 33280000 		.4byte	0x2833
 6722 143b 46140000 		.4byte	0x1446
 6723 143f 15       		.uleb128 0x15
 6724 1440 01       		.uleb128 0x1
 6725 1441 50       		.byte	0x50
 6726 1442 02       		.uleb128 0x2
 6727 1443 76       		.byte	0x76
 6728 1444 00       		.sleb128 0
 6729 1445 00       		.byte	0
 6730 1446 24       		.uleb128 0x24
 6731 1447 5E000000 		.4byte	.LVL290
 6732 144b F3270000 		.4byte	0x27f3
 6733 144f 5B140000 		.4byte	0x145b
 6734 1453 15       		.uleb128 0x15
 6735 1454 01       		.uleb128 0x1
 6736 1455 50       		.byte	0x50
 6737 1456 03       		.uleb128 0x3
 6738 1457 91       		.byte	0x91
 6739 1458 64       		.sleb128 -28
 6740 1459 06       		.byte	0x6
 6741 145a 00       		.byte	0
 6742 145b 1C       		.uleb128 0x1c
 6743 145c 6A000000 		.4byte	.LVL291
 6744 1460 EB260000 		.4byte	0x26eb
 6745 1464 15       		.uleb128 0x15
 6746 1465 01       		.uleb128 0x1
 6747 1466 50       		.byte	0x50
 6748 1467 02       		.uleb128 0x2
 6749 1468 77       		.byte	0x77
 6750 1469 00       		.sleb128 0
 6751 146a 00       		.byte	0
 6752 146b 00       		.byte	0
 6753 146c 1C       		.uleb128 0x1c
 6754 146d 16000000 		.4byte	.LVL279
 6755 1471 F3270000 		.4byte	0x27f3
ARM GAS  C:\Users\Phuong\AppData\Local\Temp\ccX7yw2d.s 			page 158


 6756 1475 15       		.uleb128 0x15
 6757 1476 01       		.uleb128 0x1
 6758 1477 50       		.byte	0x50
 6759 1478 02       		.uleb128 0x2
 6760 1479 08       		.byte	0x8
 6761 147a 24       		.byte	0x24
 6762 147b 00       		.byte	0
 6763 147c 00       		.byte	0
 6764 147d 00       		.byte	0
 6765 147e 29       		.uleb128 0x29
 6766 147f 8F0D0000 		.4byte	.LASF175
 6767 1483 01       		.byte	0x1
 6768 1484 7C01     		.2byte	0x17c
 6769 1486 00000000 		.4byte	.LFB10
 6770 148a E8040000 		.4byte	.LFE10-.LFB10
 6771 148e 01       		.uleb128 0x1
 6772 148f 9C       		.byte	0x9c
 6773 1490 131F0000 		.4byte	0x1f13
 6774 1494 17       		.uleb128 0x17
 6775 1495 B50C0000 		.4byte	.LASF144
 6776 1499 01       		.byte	0x1
 6777 149a 7C01     		.2byte	0x17c
 6778 149c 9A000000 		.4byte	0x9a
 6779 14a0 B3130000 		.4byte	.LLST90
 6780 14a4 17       		.uleb128 0x17
 6781 14a5 FD120000 		.4byte	.LASF135
 6782 14a9 01       		.byte	0x1
 6783 14aa 7C01     		.2byte	0x17c
 6784 14ac CA000000 		.4byte	0xca
 6785 14b0 2A140000 		.4byte	.LLST91
 6786 14b4 17       		.uleb128 0x17
 6787 14b5 3F000000 		.4byte	.LASF176
 6788 14b9 01       		.byte	0x1
 6789 14ba 7C01     		.2byte	0x17c
 6790 14bc BF000000 		.4byte	0xbf
 6791 14c0 6F140000 		.4byte	.LLST92
 6792 14c4 17       		.uleb128 0x17
 6793 14c5 50020000 		.4byte	.LASF177
 6794 14c9 01       		.byte	0x1
 6795 14ca 7C01     		.2byte	0x17c
 6796 14cc E0000000 		.4byte	0xe0
 6797 14d0 8E140000 		.4byte	.LLST93
 6798 14d4 1A       		.uleb128 0x1a
 6799 14d5 AA000000 		.4byte	.LASF128
 6800 14d9 01       		.byte	0x1
 6801 14da 7E01     		.2byte	0x17e
 6802 14dc 49060000 		.4byte	0x649
 6803 14e0 BA140000 		.4byte	.LLST94
 6804 14e4 1A       		.uleb128 0x1a
 6805 14e5 A4090000 		.4byte	.LASF178
 6806 14e9 01       		.byte	0x1
 6807 14ea 7F01     		.2byte	0x17f
 6808 14ec CA000000 		.4byte	0xca
 6809 14f0 31150000 		.4byte	.LLST95
 6810 14f4 21       		.uleb128 0x21
 6811 14f5 20000000 		.4byte	.LBB31
 6812 14f9 A0000000 		.4byte	.LBE31-.LBB31
ARM GAS  C:\Users\Phuong\AppData\Local\Temp\ccX7yw2d.s 			page 159


 6813 14fd 61160000 		.4byte	0x1661
 6814 1501 1D       		.uleb128 0x1d
 6815 1502 2A010000 		.4byte	.LASF179
 6816 1506 01       		.byte	0x1
 6817 1507 8301     		.2byte	0x183
 6818 1509 7D050000 		.4byte	0x57d
 6819 150d 02       		.uleb128 0x2
 6820 150e 91       		.byte	0x91
 6821 150f 64       		.sleb128 -28
 6822 1510 24       		.uleb128 0x24
 6823 1511 28000000 		.4byte	.LVL313
 6824 1515 3E280000 		.4byte	0x283e
 6825 1519 2A150000 		.4byte	0x152a
 6826 151d 15       		.uleb128 0x15
 6827 151e 01       		.uleb128 0x1
 6828 151f 50       		.byte	0x50
 6829 1520 02       		.uleb128 0x2
 6830 1521 74       		.byte	0x74
 6831 1522 00       		.sleb128 0
 6832 1523 15       		.uleb128 0x15
 6833 1524 01       		.uleb128 0x1
 6834 1525 51       		.byte	0x51
 6835 1526 02       		.uleb128 0x2
 6836 1527 91       		.byte	0x91
 6837 1528 64       		.sleb128 -28
 6838 1529 00       		.byte	0
 6839 152a 24       		.uleb128 0x24
 6840 152b 38000000 		.4byte	.LVL314
 6841 152f D2270000 		.4byte	0x27d2
 6842 1533 4F150000 		.4byte	0x154f
 6843 1537 15       		.uleb128 0x15
 6844 1538 01       		.uleb128 0x1
 6845 1539 51       		.byte	0x51
 6846 153a 05       		.uleb128 0x5
 6847 153b 03       		.byte	0x3
 6848 153c 5C000000 		.4byte	.LC8
 6849 1540 15       		.uleb128 0x15
 6850 1541 01       		.uleb128 0x1
 6851 1542 52       		.byte	0x52
 6852 1543 05       		.uleb128 0x5
 6853 1544 03       		.byte	0x3
 6854 1545 40000000 		.4byte	.LC6
 6855 1549 15       		.uleb128 0x15
 6856 154a 01       		.uleb128 0x1
 6857 154b 53       		.byte	0x53
 6858 154c 01       		.uleb128 0x1
 6859 154d 30       		.byte	0x30
 6860 154e 00       		.byte	0
 6861 154f 24       		.uleb128 0x24
 6862 1550 44000000 		.4byte	.LVL315
 6863 1554 49280000 		.4byte	0x2849
 6864 1558 63150000 		.4byte	0x1563
 6865 155c 15       		.uleb128 0x15
 6866 155d 01       		.uleb128 0x1
 6867 155e 51       		.byte	0x51
 6868 155f 02       		.uleb128 0x2
 6869 1560 76       		.byte	0x76
ARM GAS  C:\Users\Phuong\AppData\Local\Temp\ccX7yw2d.s 			page 160


 6870 1561 3C       		.sleb128 60
 6871 1562 00       		.byte	0
 6872 1563 24       		.uleb128 0x24
 6873 1564 52000000 		.4byte	.LVL316
 6874 1568 54280000 		.4byte	0x2854
 6875 156c 77150000 		.4byte	0x1577
 6876 1570 15       		.uleb128 0x15
 6877 1571 01       		.uleb128 0x1
 6878 1572 51       		.byte	0x51
 6879 1573 02       		.uleb128 0x2
 6880 1574 76       		.byte	0x76
 6881 1575 28       		.sleb128 40
 6882 1576 00       		.byte	0
 6883 1577 1B       		.uleb128 0x1b
 6884 1578 5C000000 		.4byte	.LVL317
 6885 157c 38270000 		.4byte	0x2738
 6886 1580 24       		.uleb128 0x24
 6887 1581 64000000 		.4byte	.LVL318
 6888 1585 F9050000 		.4byte	0x5f9
 6889 1589 99150000 		.4byte	0x1599
 6890 158d 15       		.uleb128 0x15
 6891 158e 01       		.uleb128 0x1
 6892 158f 50       		.byte	0x50
 6893 1590 02       		.uleb128 0x2
 6894 1591 76       		.byte	0x76
 6895 1592 00       		.sleb128 0
 6896 1593 15       		.uleb128 0x15
 6897 1594 01       		.uleb128 0x1
 6898 1595 51       		.byte	0x51
 6899 1596 01       		.uleb128 0x1
 6900 1597 36       		.byte	0x36
 6901 1598 00       		.byte	0
 6902 1599 24       		.uleb128 0x24
 6903 159a 70000000 		.4byte	.LVL319
 6904 159e D2270000 		.4byte	0x27d2
 6905 15a2 BE150000 		.4byte	0x15be
 6906 15a6 15       		.uleb128 0x15
 6907 15a7 01       		.uleb128 0x1
 6908 15a8 51       		.byte	0x51
 6909 15a9 05       		.uleb128 0x5
 6910 15aa 03       		.byte	0x3
 6911 15ab 5C000000 		.4byte	.LC8
 6912 15af 15       		.uleb128 0x15
 6913 15b0 01       		.uleb128 0x1
 6914 15b1 52       		.byte	0x52
 6915 15b2 05       		.uleb128 0x5
 6916 15b3 03       		.byte	0x3
 6917 15b4 70000000 		.4byte	.LC10
 6918 15b8 15       		.uleb128 0x15
 6919 15b9 01       		.uleb128 0x1
 6920 15ba 53       		.byte	0x53
 6921 15bb 01       		.uleb128 0x1
 6922 15bc 30       		.byte	0x30
 6923 15bd 00       		.byte	0
 6924 15be 1B       		.uleb128 0x1b
 6925 15bf 78000000 		.4byte	.LVL320
 6926 15c3 38270000 		.4byte	0x2738
ARM GAS  C:\Users\Phuong\AppData\Local\Temp\ccX7yw2d.s 			page 161


 6927 15c7 24       		.uleb128 0x24
 6928 15c8 86000000 		.4byte	.LVL321
 6929 15cc F9050000 		.4byte	0x5f9
 6930 15d0 E0150000 		.4byte	0x15e0
 6931 15d4 15       		.uleb128 0x15
 6932 15d5 01       		.uleb128 0x1
 6933 15d6 50       		.byte	0x50
 6934 15d7 02       		.uleb128 0x2
 6935 15d8 76       		.byte	0x76
 6936 15d9 00       		.sleb128 0
 6937 15da 15       		.uleb128 0x15
 6938 15db 01       		.uleb128 0x1
 6939 15dc 51       		.byte	0x51
 6940 15dd 01       		.uleb128 0x1
 6941 15de 33       		.byte	0x33
 6942 15df 00       		.byte	0
 6943 15e0 24       		.uleb128 0x24
 6944 15e1 96000000 		.4byte	.LVL322
 6945 15e5 F9050000 		.4byte	0x5f9
 6946 15e9 F9150000 		.4byte	0x15f9
 6947 15ed 15       		.uleb128 0x15
 6948 15ee 01       		.uleb128 0x1
 6949 15ef 50       		.byte	0x50
 6950 15f0 02       		.uleb128 0x2
 6951 15f1 76       		.byte	0x76
 6952 15f2 00       		.sleb128 0
 6953 15f3 15       		.uleb128 0x15
 6954 15f4 01       		.uleb128 0x1
 6955 15f5 51       		.byte	0x51
 6956 15f6 01       		.uleb128 0x1
 6957 15f7 32       		.byte	0x32
 6958 15f8 00       		.byte	0
 6959 15f9 24       		.uleb128 0x24
 6960 15fa 9C000000 		.4byte	.LVL323
 6961 15fe A6070000 		.4byte	0x7a6
 6962 1602 0D160000 		.4byte	0x160d
 6963 1606 15       		.uleb128 0x15
 6964 1607 01       		.uleb128 0x1
 6965 1608 50       		.byte	0x50
 6966 1609 02       		.uleb128 0x2
 6967 160a 76       		.byte	0x76
 6968 160b 00       		.sleb128 0
 6969 160c 00       		.byte	0
 6970 160d 24       		.uleb128 0x24
 6971 160e AC000000 		.4byte	.LVL324
 6972 1612 D2270000 		.4byte	0x27d2
 6973 1616 32160000 		.4byte	0x1632
 6974 161a 15       		.uleb128 0x15
 6975 161b 01       		.uleb128 0x1
 6976 161c 51       		.byte	0x51
 6977 161d 05       		.uleb128 0x5
 6978 161e 03       		.byte	0x3
 6979 161f 2C000000 		.4byte	.LC2
 6980 1623 15       		.uleb128 0x15
 6981 1624 01       		.uleb128 0x1
 6982 1625 52       		.byte	0x52
 6983 1626 05       		.uleb128 0x5
ARM GAS  C:\Users\Phuong\AppData\Local\Temp\ccX7yw2d.s 			page 162


 6984 1627 03       		.byte	0x3
 6985 1628 A4000000 		.4byte	.LC12
 6986 162c 15       		.uleb128 0x15
 6987 162d 01       		.uleb128 0x1
 6988 162e 53       		.byte	0x53
 6989 162f 01       		.uleb128 0x1
 6990 1630 30       		.byte	0x30
 6991 1631 00       		.byte	0
 6992 1632 24       		.uleb128 0x24
 6993 1633 B4000000 		.4byte	.LVL325
 6994 1637 F9050000 		.4byte	0x5f9
 6995 163b 4B160000 		.4byte	0x164b
 6996 163f 15       		.uleb128 0x15
 6997 1640 01       		.uleb128 0x1
 6998 1641 50       		.byte	0x50
 6999 1642 02       		.uleb128 0x2
 7000 1643 76       		.byte	0x76
 7001 1644 00       		.sleb128 0
 7002 1645 15       		.uleb128 0x15
 7003 1646 01       		.uleb128 0x1
 7004 1647 51       		.byte	0x51
 7005 1648 01       		.uleb128 0x1
 7006 1649 36       		.byte	0x36
 7007 164a 00       		.byte	0
 7008 164b 1C       		.uleb128 0x1c
 7009 164c BE000000 		.4byte	.LVL326
 7010 1650 F9050000 		.4byte	0x5f9
 7011 1654 15       		.uleb128 0x15
 7012 1655 01       		.uleb128 0x1
 7013 1656 50       		.byte	0x50
 7014 1657 02       		.uleb128 0x2
 7015 1658 76       		.byte	0x76
 7016 1659 00       		.sleb128 0
 7017 165a 15       		.uleb128 0x15
 7018 165b 01       		.uleb128 0x1
 7019 165c 51       		.byte	0x51
 7020 165d 01       		.uleb128 0x1
 7021 165e 33       		.byte	0x33
 7022 165f 00       		.byte	0
 7023 1660 00       		.byte	0
 7024 1661 21       		.uleb128 0x21
 7025 1662 CC000000 		.4byte	.LBB32
 7026 1666 32010000 		.4byte	.LBE32-.LBB32
 7027 166a 26190000 		.4byte	0x1926
 7028 166e 1D       		.uleb128 0x1d
 7029 166f 3B120000 		.4byte	.LASF91
 7030 1673 01       		.byte	0x1
 7031 1674 AD01     		.2byte	0x1ad
 7032 1676 A9000000 		.4byte	0xa9
 7033 167a 02       		.uleb128 0x2
 7034 167b 91       		.byte	0x91
 7035 167c 58       		.sleb128 -40
 7036 167d 1D       		.uleb128 0x1d
 7037 167e 1D0E0000 		.4byte	.LASF180
 7038 1682 01       		.byte	0x1
 7039 1683 AE01     		.2byte	0x1ae
 7040 1685 C8020000 		.4byte	0x2c8
ARM GAS  C:\Users\Phuong\AppData\Local\Temp\ccX7yw2d.s 			page 163


 7041 1689 02       		.uleb128 0x2
 7042 168a 91       		.byte	0x91
 7043 168b 5C       		.sleb128 -36
 7044 168c 21       		.uleb128 0x21
 7045 168d E8000000 		.4byte	.LBB33
 7046 1691 16010000 		.4byte	.LBE33-.LBB33
 7047 1695 E9180000 		.4byte	0x18e9
 7048 1699 1D       		.uleb128 0x1d
 7049 169a C30B0000 		.4byte	.LASF53
 7050 169e 01       		.byte	0x1
 7051 169f B601     		.2byte	0x1b6
 7052 16a1 65020000 		.4byte	0x265
 7053 16a5 02       		.uleb128 0x2
 7054 16a6 91       		.byte	0x91
 7055 16a7 57       		.sleb128 -41
 7056 16a8 1D       		.uleb128 0x1d
 7057 16a9 380D0000 		.4byte	.LASF181
 7058 16ad 01       		.byte	0x1
 7059 16ae B701     		.2byte	0x1b7
 7060 16b0 CA000000 		.4byte	0xca
 7061 16b4 02       		.uleb128 0x2
 7062 16b5 91       		.byte	0x91
 7063 16b6 60       		.sleb128 -32
 7064 16b7 1D       		.uleb128 0x1d
 7065 16b8 74160000 		.4byte	.LASF182
 7066 16bc 01       		.byte	0x1
 7067 16bd B801     		.2byte	0x1b8
 7068 16bf CA000000 		.4byte	0xca
 7069 16c3 02       		.uleb128 0x2
 7070 16c4 91       		.byte	0x91
 7071 16c5 64       		.sleb128 -28
 7072 16c6 21       		.uleb128 0x21
 7073 16c7 1E010000 		.4byte	.LBB34
 7074 16cb D8000000 		.4byte	.LBE34-.LBB34
 7075 16cf 6B180000 		.4byte	0x186b
 7076 16d3 1A       		.uleb128 0x1a
 7077 16d4 74130000 		.4byte	.LASF132
 7078 16d8 01       		.byte	0x1
 7079 16d9 C401     		.2byte	0x1c4
 7080 16db E8050000 		.4byte	0x5e8
 7081 16df 9C150000 		.4byte	.LLST96
 7082 16e3 21       		.uleb128 0x21
 7083 16e4 54010000 		.4byte	.LBB35
 7084 16e8 78000000 		.4byte	.LBE35-.LBB35
 7085 16ec D2170000 		.4byte	0x17d2
 7086 16f0 1A       		.uleb128 0x1a
 7087 16f1 36160000 		.4byte	.LASF183
 7088 16f5 01       		.byte	0x1
 7089 16f6 D501     		.2byte	0x1d5
 7090 16f8 0F040000 		.4byte	0x40f
 7091 16fc D0150000 		.4byte	.LLST97
 7092 1700 24       		.uleb128 0x24
 7093 1701 5C010000 		.4byte	.LVL339
 7094 1705 34130000 		.4byte	0x1334
 7095 1709 1A170000 		.4byte	0x171a
 7096 170d 15       		.uleb128 0x15
 7097 170e 01       		.uleb128 0x1
ARM GAS  C:\Users\Phuong\AppData\Local\Temp\ccX7yw2d.s 			page 164


 7098 170f 50       		.byte	0x50
 7099 1710 02       		.uleb128 0x2
 7100 1711 76       		.byte	0x76
 7101 1712 00       		.sleb128 0
 7102 1713 15       		.uleb128 0x15
 7103 1714 01       		.uleb128 0x1
 7104 1715 51       		.byte	0x51
 7105 1716 02       		.uleb128 0x2
 7106 1717 79       		.byte	0x79
 7107 1718 00       		.sleb128 0
 7108 1719 00       		.byte	0
 7109 171a 24       		.uleb128 0x24
 7110 171b 6A010000 		.4byte	.LVL342
 7111 171f 3F0C0000 		.4byte	0xc3f
 7112 1723 40170000 		.4byte	0x1740
 7113 1727 15       		.uleb128 0x15
 7114 1728 01       		.uleb128 0x1
 7115 1729 50       		.byte	0x50
 7116 172a 02       		.uleb128 0x2
 7117 172b 76       		.byte	0x76
 7118 172c 00       		.sleb128 0
 7119 172d 15       		.uleb128 0x15
 7120 172e 01       		.uleb128 0x1
 7121 172f 51       		.byte	0x51
 7122 1730 05       		.uleb128 0x5
 7123 1731 03       		.byte	0x3
 7124 1732 2C000000 		.4byte	.LC2
 7125 1736 15       		.uleb128 0x15
 7126 1737 01       		.uleb128 0x1
 7127 1738 52       		.byte	0x52
 7128 1739 05       		.uleb128 0x5
 7129 173a 03       		.byte	0x3
 7130 173b 2C010000 		.4byte	.LC21
 7131 173f 00       		.byte	0
 7132 1740 24       		.uleb128 0x24
 7133 1741 74010000 		.4byte	.LVL345
 7134 1745 5F280000 		.4byte	0x285f
 7135 1749 54170000 		.4byte	0x1754
 7136 174d 15       		.uleb128 0x15
 7137 174e 01       		.uleb128 0x1
 7138 174f 51       		.byte	0x51
 7139 1750 02       		.uleb128 0x2
 7140 1751 75       		.byte	0x75
 7141 1752 04       		.sleb128 4
 7142 1753 00       		.byte	0
 7143 1754 24       		.uleb128 0x24
 7144 1755 82010000 		.4byte	.LVL346
 7145 1759 3F0C0000 		.4byte	0xc3f
 7146 175d 7A170000 		.4byte	0x177a
 7147 1761 15       		.uleb128 0x15
 7148 1762 01       		.uleb128 0x1
 7149 1763 50       		.byte	0x50
 7150 1764 02       		.uleb128 0x2
 7151 1765 76       		.byte	0x76
 7152 1766 00       		.sleb128 0
 7153 1767 15       		.uleb128 0x15
 7154 1768 01       		.uleb128 0x1
ARM GAS  C:\Users\Phuong\AppData\Local\Temp\ccX7yw2d.s 			page 165


 7155 1769 51       		.byte	0x51
 7156 176a 05       		.uleb128 0x5
 7157 176b 03       		.byte	0x3
 7158 176c 5C000000 		.4byte	.LC8
 7159 1770 15       		.uleb128 0x15
 7160 1771 01       		.uleb128 0x1
 7161 1772 52       		.byte	0x52
 7162 1773 05       		.uleb128 0x5
 7163 1774 03       		.byte	0x3
 7164 1775 48010000 		.4byte	.LC23
 7165 1779 00       		.byte	0
 7166 177a 2A       		.uleb128 0x2a
 7167 177b A8010000 		.4byte	.LVL347
 7168 177f 02       		.uleb128 0x2
 7169 1780 79       		.byte	0x79
 7170 1781 00       		.sleb128 0
 7171 1782 8D170000 		.4byte	0x178d
 7172 1786 15       		.uleb128 0x15
 7173 1787 01       		.uleb128 0x1
 7174 1788 51       		.byte	0x51
 7175 1789 02       		.uleb128 0x2
 7176 178a 75       		.byte	0x75
 7177 178b 00       		.sleb128 0
 7178 178c 00       		.byte	0
 7179 178d 24       		.uleb128 0x24
 7180 178e B2010000 		.4byte	.LVL348
 7181 1792 DB090000 		.4byte	0x9db
 7182 1796 A1170000 		.4byte	0x17a1
 7183 179a 15       		.uleb128 0x15
 7184 179b 01       		.uleb128 0x1
 7185 179c 50       		.byte	0x50
 7186 179d 02       		.uleb128 0x2
 7187 179e 75       		.byte	0x75
 7188 179f 00       		.sleb128 0
 7189 17a0 00       		.byte	0
 7190 17a1 24       		.uleb128 0x24
 7191 17a2 B8010000 		.4byte	.LVL349
 7192 17a6 A6060000 		.4byte	0x6a6
 7193 17aa B5170000 		.4byte	0x17b5
 7194 17ae 15       		.uleb128 0x15
 7195 17af 01       		.uleb128 0x1
 7196 17b0 50       		.byte	0x50
 7197 17b1 02       		.uleb128 0x2
 7198 17b2 75       		.byte	0x75
 7199 17b3 00       		.sleb128 0
 7200 17b4 00       		.byte	0
 7201 17b5 14       		.uleb128 0x14
 7202 17b6 CA010000 		.4byte	.LVL352
 7203 17ba 02       		.uleb128 0x2
 7204 17bb 76       		.byte	0x76
 7205 17bc 00       		.sleb128 0
 7206 17bd 15       		.uleb128 0x15
 7207 17be 01       		.uleb128 0x1
 7208 17bf 51       		.byte	0x51
 7209 17c0 02       		.uleb128 0x2
 7210 17c1 74       		.byte	0x74
 7211 17c2 00       		.sleb128 0
ARM GAS  C:\Users\Phuong\AppData\Local\Temp\ccX7yw2d.s 			page 166


 7212 17c3 15       		.uleb128 0x15
 7213 17c4 01       		.uleb128 0x1
 7214 17c5 52       		.byte	0x52
 7215 17c6 03       		.uleb128 0x3
 7216 17c7 91       		.byte	0x91
 7217 17c8 4C       		.sleb128 -52
 7218 17c9 06       		.byte	0x6
 7219 17ca 15       		.uleb128 0x15
 7220 17cb 01       		.uleb128 0x1
 7221 17cc 53       		.byte	0x53
 7222 17cd 02       		.uleb128 0x2
 7223 17ce 77       		.byte	0x77
 7224 17cf 00       		.sleb128 0
 7225 17d0 00       		.byte	0
 7226 17d1 00       		.byte	0
 7227 17d2 24       		.uleb128 0x24
 7228 17d3 26010000 		.4byte	.LVL334
 7229 17d7 6A280000 		.4byte	0x286a
 7230 17db E6170000 		.4byte	0x17e6
 7231 17df 15       		.uleb128 0x15
 7232 17e0 01       		.uleb128 0x1
 7233 17e1 51       		.byte	0x51
 7234 17e2 02       		.uleb128 0x2
 7235 17e3 91       		.byte	0x91
 7236 17e4 60       		.sleb128 -32
 7237 17e5 00       		.byte	0
 7238 17e6 24       		.uleb128 0x24
 7239 17e7 36010000 		.4byte	.LVL335
 7240 17eb 75280000 		.4byte	0x2875
 7241 17ef FA170000 		.4byte	0x17fa
 7242 17f3 15       		.uleb128 0x15
 7243 17f4 01       		.uleb128 0x1
 7244 17f5 51       		.byte	0x51
 7245 17f6 02       		.uleb128 0x2
 7246 17f7 91       		.byte	0x91
 7247 17f8 64       		.sleb128 -28
 7248 17f9 00       		.byte	0
 7249 17fa 24       		.uleb128 0x24
 7250 17fb 4A010000 		.4byte	.LVL336
 7251 17ff 72090000 		.4byte	0x972
 7252 1803 14180000 		.4byte	0x1814
 7253 1807 15       		.uleb128 0x15
 7254 1808 01       		.uleb128 0x1
 7255 1809 50       		.byte	0x50
 7256 180a 02       		.uleb128 0x2
 7257 180b 76       		.byte	0x76
 7258 180c 00       		.sleb128 0
 7259 180d 15       		.uleb128 0x15
 7260 180e 01       		.uleb128 0x1
 7261 180f 51       		.byte	0x51
 7262 1810 02       		.uleb128 0x2
 7263 1811 79       		.byte	0x79
 7264 1812 00       		.sleb128 0
 7265 1813 00       		.byte	0
 7266 1814 24       		.uleb128 0x24
 7267 1815 D4010000 		.4byte	.LVL355
 7268 1819 5F280000 		.4byte	0x285f
ARM GAS  C:\Users\Phuong\AppData\Local\Temp\ccX7yw2d.s 			page 167


 7269 181d 28180000 		.4byte	0x1828
 7270 1821 15       		.uleb128 0x15
 7271 1822 01       		.uleb128 0x1
 7272 1823 51       		.byte	0x51
 7273 1824 02       		.uleb128 0x2
 7274 1825 75       		.byte	0x75
 7275 1826 04       		.sleb128 4
 7276 1827 00       		.byte	0
 7277 1828 24       		.uleb128 0x24
 7278 1829 E2010000 		.4byte	.LVL356
 7279 182d 3F0C0000 		.4byte	0xc3f
 7280 1831 4E180000 		.4byte	0x184e
 7281 1835 15       		.uleb128 0x15
 7282 1836 01       		.uleb128 0x1
 7283 1837 50       		.byte	0x50
 7284 1838 02       		.uleb128 0x2
 7285 1839 76       		.byte	0x76
 7286 183a 00       		.sleb128 0
 7287 183b 15       		.uleb128 0x15
 7288 183c 01       		.uleb128 0x1
 7289 183d 51       		.byte	0x51
 7290 183e 05       		.uleb128 0x5
 7291 183f 03       		.byte	0x3
 7292 1840 5C000000 		.4byte	.LC8
 7293 1844 15       		.uleb128 0x15
 7294 1845 01       		.uleb128 0x1
 7295 1846 52       		.byte	0x52
 7296 1847 05       		.uleb128 0x5
 7297 1848 03       		.byte	0x3
 7298 1849 48010000 		.4byte	.LC23
 7299 184d 00       		.byte	0
 7300 184e 14       		.uleb128 0x14
 7301 184f F6010000 		.4byte	.LVL358
 7302 1853 02       		.uleb128 0x2
 7303 1854 76       		.byte	0x76
 7304 1855 00       		.sleb128 0
 7305 1856 15       		.uleb128 0x15
 7306 1857 01       		.uleb128 0x1
 7307 1858 51       		.byte	0x51
 7308 1859 02       		.uleb128 0x2
 7309 185a 74       		.byte	0x74
 7310 185b 00       		.sleb128 0
 7311 185c 15       		.uleb128 0x15
 7312 185d 01       		.uleb128 0x1
 7313 185e 52       		.byte	0x52
 7314 185f 03       		.uleb128 0x3
 7315 1860 91       		.byte	0x91
 7316 1861 4C       		.sleb128 -52
 7317 1862 06       		.byte	0x6
 7318 1863 15       		.uleb128 0x15
 7319 1864 01       		.uleb128 0x1
 7320 1865 53       		.byte	0x53
 7321 1866 02       		.uleb128 0x2
 7322 1867 77       		.byte	0x77
 7323 1868 00       		.sleb128 0
 7324 1869 00       		.byte	0
 7325 186a 00       		.byte	0
ARM GAS  C:\Users\Phuong\AppData\Local\Temp\ccX7yw2d.s 			page 168


 7326 186b 24       		.uleb128 0x24
 7327 186c F0000000 		.4byte	.LVL330
 7328 1870 80280000 		.4byte	0x2880
 7329 1874 7F180000 		.4byte	0x187f
 7330 1878 15       		.uleb128 0x15
 7331 1879 01       		.uleb128 0x1
 7332 187a 51       		.byte	0x51
 7333 187b 02       		.uleb128 0x2
 7334 187c 91       		.byte	0x91
 7335 187d 58       		.sleb128 -40
 7336 187e 00       		.byte	0
 7337 187f 24       		.uleb128 0x24
 7338 1880 FE000000 		.4byte	.LVL331
 7339 1884 3F0C0000 		.4byte	0xc3f
 7340 1888 A5180000 		.4byte	0x18a5
 7341 188c 15       		.uleb128 0x15
 7342 188d 01       		.uleb128 0x1
 7343 188e 50       		.byte	0x50
 7344 188f 02       		.uleb128 0x2
 7345 1890 76       		.byte	0x76
 7346 1891 00       		.sleb128 0
 7347 1892 15       		.uleb128 0x15
 7348 1893 01       		.uleb128 0x1
 7349 1894 51       		.byte	0x51
 7350 1895 05       		.uleb128 0x5
 7351 1896 03       		.byte	0x3
 7352 1897 5C000000 		.4byte	.LC8
 7353 189b 15       		.uleb128 0x15
 7354 189c 01       		.uleb128 0x1
 7355 189d 52       		.byte	0x52
 7356 189e 05       		.uleb128 0x5
 7357 189f 03       		.byte	0x3
 7358 18a0 DC000000 		.4byte	.LC17
 7359 18a4 00       		.byte	0
 7360 18a5 24       		.uleb128 0x24
 7361 18a6 0E010000 		.4byte	.LVL332
 7362 18aa 8B280000 		.4byte	0x288b
 7363 18ae B9180000 		.4byte	0x18b9
 7364 18b2 15       		.uleb128 0x15
 7365 18b3 01       		.uleb128 0x1
 7366 18b4 51       		.byte	0x51
 7367 18b5 02       		.uleb128 0x2
 7368 18b6 91       		.byte	0x91
 7369 18b7 57       		.sleb128 -41
 7370 18b8 00       		.byte	0
 7371 18b9 24       		.uleb128 0x24
 7372 18ba 1C010000 		.4byte	.LVL333
 7373 18be 3F0C0000 		.4byte	0xc3f
 7374 18c2 DF180000 		.4byte	0x18df
 7375 18c6 15       		.uleb128 0x15
 7376 18c7 01       		.uleb128 0x1
 7377 18c8 50       		.byte	0x50
 7378 18c9 02       		.uleb128 0x2
 7379 18ca 76       		.byte	0x76
 7380 18cb 00       		.sleb128 0
 7381 18cc 15       		.uleb128 0x15
 7382 18cd 01       		.uleb128 0x1
ARM GAS  C:\Users\Phuong\AppData\Local\Temp\ccX7yw2d.s 			page 169


 7383 18ce 51       		.byte	0x51
 7384 18cf 05       		.uleb128 0x5
 7385 18d0 03       		.byte	0x3
 7386 18d1 5C000000 		.4byte	.LC8
 7387 18d5 15       		.uleb128 0x15
 7388 18d6 01       		.uleb128 0x1
 7389 18d7 52       		.byte	0x52
 7390 18d8 05       		.uleb128 0x5
 7391 18d9 03       		.byte	0x3
 7392 18da 04010000 		.4byte	.LC19
 7393 18de 00       		.byte	0
 7394 18df 1B       		.uleb128 0x1b
 7395 18e0 FC010000 		.4byte	.LVL359
 7396 18e4 96280000 		.4byte	0x2896
 7397 18e8 00       		.byte	0
 7398 18e9 24       		.uleb128 0x24
 7399 18ea D8000000 		.4byte	.LVL328
 7400 18ee A1280000 		.4byte	0x28a1
 7401 18f2 03190000 		.4byte	0x1903
 7402 18f6 15       		.uleb128 0x15
 7403 18f7 01       		.uleb128 0x1
 7404 18f8 50       		.byte	0x50
 7405 18f9 02       		.uleb128 0x2
 7406 18fa 74       		.byte	0x74
 7407 18fb 00       		.sleb128 0
 7408 18fc 15       		.uleb128 0x15
 7409 18fd 01       		.uleb128 0x1
 7410 18fe 51       		.byte	0x51
 7411 18ff 02       		.uleb128 0x2
 7412 1900 91       		.byte	0x91
 7413 1901 5C       		.sleb128 -36
 7414 1902 00       		.byte	0
 7415 1903 1C       		.uleb128 0x1c
 7416 1904 E6000000 		.4byte	.LVL329
 7417 1908 3F0C0000 		.4byte	0xc3f
 7418 190c 15       		.uleb128 0x15
 7419 190d 01       		.uleb128 0x1
 7420 190e 50       		.byte	0x50
 7421 190f 02       		.uleb128 0x2
 7422 1910 76       		.byte	0x76
 7423 1911 00       		.sleb128 0
 7424 1912 15       		.uleb128 0x15
 7425 1913 01       		.uleb128 0x1
 7426 1914 51       		.byte	0x51
 7427 1915 05       		.uleb128 0x5
 7428 1916 03       		.byte	0x3
 7429 1917 5C000000 		.4byte	.LC8
 7430 191b 15       		.uleb128 0x15
 7431 191c 01       		.uleb128 0x1
 7432 191d 52       		.byte	0x52
 7433 191e 05       		.uleb128 0x5
 7434 191f 03       		.byte	0x3
 7435 1920 C0000000 		.4byte	.LC15
 7436 1924 00       		.byte	0
 7437 1925 00       		.byte	0
 7438 1926 21       		.uleb128 0x21
 7439 1927 08020000 		.4byte	.LBB36
ARM GAS  C:\Users\Phuong\AppData\Local\Temp\ccX7yw2d.s 			page 170


 7440 192b 7C000000 		.4byte	.LBE36-.LBB36
 7441 192f 791A0000 		.4byte	0x1a79
 7442 1933 1D       		.uleb128 0x1d
 7443 1934 13170000 		.4byte	.LASF184
 7444 1938 01       		.byte	0x1
 7445 1939 0602     		.2byte	0x206
 7446 193b DE020000 		.4byte	0x2de
 7447 193f 02       		.uleb128 0x2
 7448 1940 91       		.byte	0x91
 7449 1941 60       		.sleb128 -32
 7450 1942 21       		.uleb128 0x21
 7451 1943 20020000 		.4byte	.LBB37
 7452 1947 64000000 		.4byte	.LBE37-.LBB37
 7453 194b 3C1A0000 		.4byte	0x1a3c
 7454 194f 1D       		.uleb128 0x1d
 7455 1950 E4150000 		.4byte	.LASF185
 7456 1954 01       		.byte	0x1
 7457 1955 0E02     		.2byte	0x20e
 7458 1957 BF000000 		.4byte	0xbf
 7459 195b 02       		.uleb128 0x2
 7460 195c 91       		.byte	0x91
 7461 195d 64       		.sleb128 -28
 7462 195e 21       		.uleb128 0x21
 7463 195f 3E020000 		.4byte	.LBB38
 7464 1963 46000000 		.4byte	.LBE38-.LBB38
 7465 1967 F8190000 		.4byte	0x19f8
 7466 196b 1A       		.uleb128 0x1a
 7467 196c 74130000 		.4byte	.LASF132
 7468 1970 01       		.byte	0x1
 7469 1971 1702     		.2byte	0x217
 7470 1973 E8050000 		.4byte	0x5e8
 7471 1977 1B160000 		.4byte	.LLST98
 7472 197b 1B       		.uleb128 0x1b
 7473 197c 44020000 		.4byte	.LVL367
 7474 1980 AC280000 		.4byte	0x28ac
 7475 1984 24       		.uleb128 0x24
 7476 1985 4C020000 		.4byte	.LVL368
 7477 1989 4F060000 		.4byte	0x64f
 7478 198d 98190000 		.4byte	0x1998
 7479 1991 15       		.uleb128 0x15
 7480 1992 01       		.uleb128 0x1
 7481 1993 50       		.byte	0x50
 7482 1994 02       		.uleb128 0x2
 7483 1995 76       		.byte	0x76
 7484 1996 00       		.sleb128 0
 7485 1997 00       		.byte	0
 7486 1998 24       		.uleb128 0x24
 7487 1999 5A020000 		.4byte	.LVL371
 7488 199d 3F0C0000 		.4byte	0xc3f
 7489 19a1 BE190000 		.4byte	0x19be
 7490 19a5 15       		.uleb128 0x15
 7491 19a6 01       		.uleb128 0x1
 7492 19a7 50       		.byte	0x50
 7493 19a8 02       		.uleb128 0x2
 7494 19a9 76       		.byte	0x76
 7495 19aa 00       		.sleb128 0
 7496 19ab 15       		.uleb128 0x15
ARM GAS  C:\Users\Phuong\AppData\Local\Temp\ccX7yw2d.s 			page 171


 7497 19ac 01       		.uleb128 0x1
 7498 19ad 51       		.byte	0x51
 7499 19ae 05       		.uleb128 0x5
 7500 19af 03       		.byte	0x3
 7501 19b0 B8010000 		.4byte	.LC31
 7502 19b4 15       		.uleb128 0x15
 7503 19b5 01       		.uleb128 0x1
 7504 19b6 52       		.byte	0x52
 7505 19b7 05       		.uleb128 0x5
 7506 19b8 03       		.byte	0x3
 7507 19b9 B4010000 		.4byte	.LC29
 7508 19bd 00       		.byte	0
 7509 19be 2A       		.uleb128 0x2a
 7510 19bf 76020000 		.4byte	.LVL375
 7511 19c3 02       		.uleb128 0x2
 7512 19c4 76       		.byte	0x76
 7513 19c5 00       		.sleb128 0
 7514 19c6 DE190000 		.4byte	0x19de
 7515 19ca 15       		.uleb128 0x15
 7516 19cb 01       		.uleb128 0x1
 7517 19cc 51       		.byte	0x51
 7518 19cd 02       		.uleb128 0x2
 7519 19ce 74       		.byte	0x74
 7520 19cf 00       		.sleb128 0
 7521 19d0 15       		.uleb128 0x15
 7522 19d1 01       		.uleb128 0x1
 7523 19d2 52       		.byte	0x52
 7524 19d3 03       		.uleb128 0x3
 7525 19d4 91       		.byte	0x91
 7526 19d5 4C       		.sleb128 -52
 7527 19d6 06       		.byte	0x6
 7528 19d7 15       		.uleb128 0x15
 7529 19d8 01       		.uleb128 0x1
 7530 19d9 53       		.byte	0x53
 7531 19da 02       		.uleb128 0x2
 7532 19db 77       		.byte	0x77
 7533 19dc 00       		.sleb128 0
 7534 19dd 00       		.byte	0
 7535 19de 1B       		.uleb128 0x1b
 7536 19df 7C020000 		.4byte	.LVL377
 7537 19e3 DB090000 		.4byte	0x9db
 7538 19e7 1C       		.uleb128 0x1c
 7539 19e8 82020000 		.4byte	.LVL378
 7540 19ec A6060000 		.4byte	0x6a6
 7541 19f0 15       		.uleb128 0x15
 7542 19f1 01       		.uleb128 0x1
 7543 19f2 50       		.byte	0x50
 7544 19f3 02       		.uleb128 0x2
 7545 19f4 75       		.byte	0x75
 7546 19f5 00       		.sleb128 0
 7547 19f6 00       		.byte	0
 7548 19f7 00       		.byte	0
 7549 19f8 24       		.uleb128 0x24
 7550 19f9 28020000 		.4byte	.LVL364
 7551 19fd B7280000 		.4byte	0x28b7
 7552 1a01 0C1A0000 		.4byte	0x1a0c
 7553 1a05 15       		.uleb128 0x15
ARM GAS  C:\Users\Phuong\AppData\Local\Temp\ccX7yw2d.s 			page 172


 7554 1a06 01       		.uleb128 0x1
 7555 1a07 51       		.byte	0x51
 7556 1a08 02       		.uleb128 0x2
 7557 1a09 91       		.byte	0x91
 7558 1a0a 64       		.sleb128 -28
 7559 1a0b 00       		.byte	0
 7560 1a0c 24       		.uleb128 0x24
 7561 1a0d 36020000 		.4byte	.LVL365
 7562 1a11 3F0C0000 		.4byte	0xc3f
 7563 1a15 321A0000 		.4byte	0x1a32
 7564 1a19 15       		.uleb128 0x15
 7565 1a1a 01       		.uleb128 0x1
 7566 1a1b 50       		.byte	0x50
 7567 1a1c 02       		.uleb128 0x2
 7568 1a1d 76       		.byte	0x76
 7569 1a1e 00       		.sleb128 0
 7570 1a1f 15       		.uleb128 0x15
 7571 1a20 01       		.uleb128 0x1
 7572 1a21 51       		.byte	0x51
 7573 1a22 05       		.uleb128 0x5
 7574 1a23 03       		.byte	0x3
 7575 1a24 5C000000 		.4byte	.LC8
 7576 1a28 15       		.uleb128 0x15
 7577 1a29 01       		.uleb128 0x1
 7578 1a2a 52       		.byte	0x52
 7579 1a2b 05       		.uleb128 0x5
 7580 1a2c 03       		.byte	0x3
 7581 1a2d 90010000 		.4byte	.LC27
 7582 1a31 00       		.byte	0
 7583 1a32 1B       		.uleb128 0x1b
 7584 1a33 3C020000 		.4byte	.LVL366
 7585 1a37 AC280000 		.4byte	0x28ac
 7586 1a3b 00       		.byte	0
 7587 1a3c 24       		.uleb128 0x24
 7588 1a3d 10020000 		.4byte	.LVL362
 7589 1a41 C2280000 		.4byte	0x28c2
 7590 1a45 561A0000 		.4byte	0x1a56
 7591 1a49 15       		.uleb128 0x15
 7592 1a4a 01       		.uleb128 0x1
 7593 1a4b 50       		.byte	0x50
 7594 1a4c 02       		.uleb128 0x2
 7595 1a4d 74       		.byte	0x74
 7596 1a4e 00       		.sleb128 0
 7597 1a4f 15       		.uleb128 0x15
 7598 1a50 01       		.uleb128 0x1
 7599 1a51 51       		.byte	0x51
 7600 1a52 02       		.uleb128 0x2
 7601 1a53 91       		.byte	0x91
 7602 1a54 60       		.sleb128 -32
 7603 1a55 00       		.byte	0
 7604 1a56 1C       		.uleb128 0x1c
 7605 1a57 1E020000 		.4byte	.LVL363
 7606 1a5b 3F0C0000 		.4byte	0xc3f
 7607 1a5f 15       		.uleb128 0x15
 7608 1a60 01       		.uleb128 0x1
 7609 1a61 50       		.byte	0x50
 7610 1a62 02       		.uleb128 0x2
ARM GAS  C:\Users\Phuong\AppData\Local\Temp\ccX7yw2d.s 			page 173


 7611 1a63 76       		.byte	0x76
 7612 1a64 00       		.sleb128 0
 7613 1a65 15       		.uleb128 0x15
 7614 1a66 01       		.uleb128 0x1
 7615 1a67 51       		.byte	0x51
 7616 1a68 05       		.uleb128 0x5
 7617 1a69 03       		.byte	0x3
 7618 1a6a 5C000000 		.4byte	.LC8
 7619 1a6e 15       		.uleb128 0x15
 7620 1a6f 01       		.uleb128 0x1
 7621 1a70 52       		.byte	0x52
 7622 1a71 05       		.uleb128 0x5
 7623 1a72 03       		.byte	0x3
 7624 1a73 74010000 		.4byte	.LC25
 7625 1a77 00       		.byte	0
 7626 1a78 00       		.byte	0
 7627 1a79 21       		.uleb128 0x21
 7628 1a7a 90020000 		.4byte	.LBB39
 7629 1a7e 00010000 		.4byte	.LBE39-.LBB39
 7630 1a82 ED1B0000 		.4byte	0x1bed
 7631 1a86 1D       		.uleb128 0x1d
 7632 1a87 5E070000 		.4byte	.LASF186
 7633 1a8b 01       		.byte	0x1
 7634 1a8c 3202     		.2byte	0x232
 7635 1a8e B2020000 		.4byte	0x2b2
 7636 1a92 02       		.uleb128 0x2
 7637 1a93 91       		.byte	0x91
 7638 1a94 58       		.sleb128 -40
 7639 1a95 21       		.uleb128 0x21
 7640 1a96 A8020000 		.4byte	.LBB40
 7641 1a9a E8000000 		.4byte	.LBE40-.LBB40
 7642 1a9e B01B0000 		.4byte	0x1bb0
 7643 1aa2 1D       		.uleb128 0x1d
 7644 1aa3 E4150000 		.4byte	.LASF185
 7645 1aa7 01       		.byte	0x1
 7646 1aa8 3A02     		.2byte	0x23a
 7647 1aaa BF000000 		.4byte	0xbf
 7648 1aae 02       		.uleb128 0x2
 7649 1aaf 91       		.byte	0x91
 7650 1ab0 5C       		.sleb128 -36
 7651 1ab1 1D       		.uleb128 0x1d
 7652 1ab2 67040000 		.4byte	.LASF187
 7653 1ab6 01       		.byte	0x1
 7654 1ab7 3B02     		.2byte	0x23b
 7655 1ab9 A7020000 		.4byte	0x2a7
 7656 1abd 02       		.uleb128 0x2
 7657 1abe 91       		.byte	0x91
 7658 1abf 60       		.sleb128 -32
 7659 1ac0 1D       		.uleb128 0x1d
 7660 1ac1 F6160000 		.4byte	.LASF188
 7661 1ac5 01       		.byte	0x1
 7662 1ac6 3C02     		.2byte	0x23c
 7663 1ac8 BF000000 		.4byte	0xbf
 7664 1acc 02       		.uleb128 0x2
 7665 1acd 91       		.byte	0x91
 7666 1ace 64       		.sleb128 -28
 7667 1acf 21       		.uleb128 0x21
ARM GAS  C:\Users\Phuong\AppData\Local\Temp\ccX7yw2d.s 			page 174


 7668 1ad0 E4020000 		.4byte	.LBB41
 7669 1ad4 AC000000 		.4byte	.LBE41-.LBB41
 7670 1ad8 481B0000 		.4byte	0x1b48
 7671 1adc 1A       		.uleb128 0x1a
 7672 1add 75050000 		.4byte	.LASF138
 7673 1ae1 01       		.byte	0x1
 7674 1ae2 5102     		.2byte	0x251
 7675 1ae4 E8050000 		.4byte	0x5e8
 7676 1ae8 65160000 		.4byte	.LLST99
 7677 1aec 19       		.uleb128 0x19
 7678 1aed 6900     		.ascii	"i\000"
 7679 1aef 01       		.byte	0x1
 7680 1af0 5202     		.2byte	0x252
 7681 1af2 25000000 		.4byte	0x25
 7682 1af6 9B160000 		.4byte	.LLST100
 7683 1afa 24       		.uleb128 0x24
 7684 1afb FA020000 		.4byte	.LVL389
 7685 1aff CD280000 		.4byte	0x28cd
 7686 1b03 0E1B0000 		.4byte	0x1b0e
 7687 1b07 15       		.uleb128 0x15
 7688 1b08 01       		.uleb128 0x1
 7689 1b09 51       		.byte	0x51
 7690 1b0a 02       		.uleb128 0x2
 7691 1b0b 91       		.byte	0x91
 7692 1b0c 5C       		.sleb128 -36
 7693 1b0d 00       		.byte	0
 7694 1b0e 24       		.uleb128 0x24
 7695 1b0f 06030000 		.4byte	.LVL390
 7696 1b13 4F060000 		.4byte	0x64f
 7697 1b17 221B0000 		.4byte	0x1b22
 7698 1b1b 15       		.uleb128 0x15
 7699 1b1c 01       		.uleb128 0x1
 7700 1b1d 50       		.byte	0x50
 7701 1b1e 02       		.uleb128 0x2
 7702 1b1f 76       		.byte	0x76
 7703 1b20 00       		.sleb128 0
 7704 1b21 00       		.byte	0
 7705 1b22 1B       		.uleb128 0x1b
 7706 1b23 12030000 		.4byte	.LVL394
 7707 1b27 90270000 		.4byte	0x2790
 7708 1b2b 14       		.uleb128 0x14
 7709 1b2c 2C030000 		.4byte	.LVL395
 7710 1b30 02       		.uleb128 0x2
 7711 1b31 79       		.byte	0x79
 7712 1b32 00       		.sleb128 0
 7713 1b33 15       		.uleb128 0x15
 7714 1b34 01       		.uleb128 0x1
 7715 1b35 51       		.byte	0x51
 7716 1b36 02       		.uleb128 0x2
 7717 1b37 74       		.byte	0x74
 7718 1b38 00       		.sleb128 0
 7719 1b39 15       		.uleb128 0x15
 7720 1b3a 01       		.uleb128 0x1
 7721 1b3b 52       		.byte	0x52
 7722 1b3c 03       		.uleb128 0x3
 7723 1b3d 91       		.byte	0x91
 7724 1b3e 4C       		.sleb128 -52
ARM GAS  C:\Users\Phuong\AppData\Local\Temp\ccX7yw2d.s 			page 175


 7725 1b3f 06       		.byte	0x6
 7726 1b40 15       		.uleb128 0x15
 7727 1b41 01       		.uleb128 0x1
 7728 1b42 53       		.byte	0x53
 7729 1b43 02       		.uleb128 0x2
 7730 1b44 77       		.byte	0x77
 7731 1b45 00       		.sleb128 0
 7732 1b46 00       		.byte	0
 7733 1b47 00       		.byte	0
 7734 1b48 24       		.uleb128 0x24
 7735 1b49 B0020000 		.4byte	.LVL383
 7736 1b4d D8280000 		.4byte	0x28d8
 7737 1b51 5C1B0000 		.4byte	0x1b5c
 7738 1b55 15       		.uleb128 0x15
 7739 1b56 01       		.uleb128 0x1
 7740 1b57 51       		.byte	0x51
 7741 1b58 02       		.uleb128 0x2
 7742 1b59 91       		.byte	0x91
 7743 1b5a 60       		.sleb128 -32
 7744 1b5b 00       		.byte	0
 7745 1b5c 24       		.uleb128 0x24
 7746 1b5d C2020000 		.4byte	.LVL384
 7747 1b61 E3280000 		.4byte	0x28e3
 7748 1b65 701B0000 		.4byte	0x1b70
 7749 1b69 15       		.uleb128 0x15
 7750 1b6a 01       		.uleb128 0x1
 7751 1b6b 51       		.byte	0x51
 7752 1b6c 02       		.uleb128 0x2
 7753 1b6d 76       		.byte	0x76
 7754 1b6e 28       		.sleb128 40
 7755 1b6f 00       		.byte	0
 7756 1b70 24       		.uleb128 0x24
 7757 1b71 CE020000 		.4byte	.LVL385
 7758 1b75 EE280000 		.4byte	0x28ee
 7759 1b79 841B0000 		.4byte	0x1b84
 7760 1b7d 15       		.uleb128 0x15
 7761 1b7e 01       		.uleb128 0x1
 7762 1b7f 51       		.byte	0x51
 7763 1b80 02       		.uleb128 0x2
 7764 1b81 91       		.byte	0x91
 7765 1b82 64       		.sleb128 -28
 7766 1b83 00       		.byte	0
 7767 1b84 1B       		.uleb128 0x1b
 7768 1b85 D8020000 		.4byte	.LVL386
 7769 1b89 90270000 		.4byte	0x2790
 7770 1b8d 1C       		.uleb128 0x1c
 7771 1b8e E2020000 		.4byte	.LVL387
 7772 1b92 3F0C0000 		.4byte	0xc3f
 7773 1b96 15       		.uleb128 0x15
 7774 1b97 01       		.uleb128 0x1
 7775 1b98 50       		.byte	0x50
 7776 1b99 02       		.uleb128 0x2
 7777 1b9a 76       		.byte	0x76
 7778 1b9b 00       		.sleb128 0
 7779 1b9c 15       		.uleb128 0x15
 7780 1b9d 01       		.uleb128 0x1
 7781 1b9e 51       		.byte	0x51
ARM GAS  C:\Users\Phuong\AppData\Local\Temp\ccX7yw2d.s 			page 176


 7782 1b9f 05       		.uleb128 0x5
 7783 1ba0 03       		.byte	0x3
 7784 1ba1 5C000000 		.4byte	.LC8
 7785 1ba5 15       		.uleb128 0x15
 7786 1ba6 01       		.uleb128 0x1
 7787 1ba7 52       		.byte	0x52
 7788 1ba8 05       		.uleb128 0x5
 7789 1ba9 03       		.byte	0x3
 7790 1baa D8010000 		.4byte	.LC33
 7791 1bae 00       		.byte	0
 7792 1baf 00       		.byte	0
 7793 1bb0 24       		.uleb128 0x24
 7794 1bb1 98020000 		.4byte	.LVL381
 7795 1bb5 F9280000 		.4byte	0x28f9
 7796 1bb9 CA1B0000 		.4byte	0x1bca
 7797 1bbd 15       		.uleb128 0x15
 7798 1bbe 01       		.uleb128 0x1
 7799 1bbf 50       		.byte	0x50
 7800 1bc0 02       		.uleb128 0x2
 7801 1bc1 74       		.byte	0x74
 7802 1bc2 00       		.sleb128 0
 7803 1bc3 15       		.uleb128 0x15
 7804 1bc4 01       		.uleb128 0x1
 7805 1bc5 51       		.byte	0x51
 7806 1bc6 02       		.uleb128 0x2
 7807 1bc7 91       		.byte	0x91
 7808 1bc8 58       		.sleb128 -40
 7809 1bc9 00       		.byte	0
 7810 1bca 1C       		.uleb128 0x1c
 7811 1bcb A6020000 		.4byte	.LVL382
 7812 1bcf 3F0C0000 		.4byte	0xc3f
 7813 1bd3 15       		.uleb128 0x15
 7814 1bd4 01       		.uleb128 0x1
 7815 1bd5 50       		.byte	0x50
 7816 1bd6 02       		.uleb128 0x2
 7817 1bd7 76       		.byte	0x76
 7818 1bd8 00       		.sleb128 0
 7819 1bd9 15       		.uleb128 0x15
 7820 1bda 01       		.uleb128 0x1
 7821 1bdb 51       		.byte	0x51
 7822 1bdc 05       		.uleb128 0x5
 7823 1bdd 03       		.byte	0x3
 7824 1bde 5C000000 		.4byte	.LC8
 7825 1be2 15       		.uleb128 0x15
 7826 1be3 01       		.uleb128 0x1
 7827 1be4 52       		.byte	0x52
 7828 1be5 05       		.uleb128 0x5
 7829 1be6 03       		.byte	0x3
 7830 1be7 D8010000 		.4byte	.LC33
 7831 1beb 00       		.byte	0
 7832 1bec 00       		.byte	0
 7833 1bed 21       		.uleb128 0x21
 7834 1bee 9A030000 		.4byte	.LBB42
 7835 1bf2 94000000 		.4byte	.LBE42-.LBB42
 7836 1bf6 561D0000 		.4byte	0x1d56
 7837 1bfa 1D       		.uleb128 0x1d
 7838 1bfb 59130000 		.4byte	.LASF189
ARM GAS  C:\Users\Phuong\AppData\Local\Temp\ccX7yw2d.s 			page 177


 7839 1bff 01       		.byte	0x1
 7840 1c00 7502     		.2byte	0x275
 7841 1c02 F4020000 		.4byte	0x2f4
 7842 1c06 02       		.uleb128 0x2
 7843 1c07 91       		.byte	0x91
 7844 1c08 5C       		.sleb128 -36
 7845 1c09 21       		.uleb128 0x21
 7846 1c0a B2030000 		.4byte	.LBB43
 7847 1c0e 7C000000 		.4byte	.LBE43-.LBB43
 7848 1c12 191D0000 		.4byte	0x1d19
 7849 1c16 1D       		.uleb128 0x1d
 7850 1c17 E4150000 		.4byte	.LASF185
 7851 1c1b 01       		.byte	0x1
 7852 1c1c 7D02     		.2byte	0x27d
 7853 1c1e BF000000 		.4byte	0xbf
 7854 1c22 02       		.uleb128 0x2
 7855 1c23 91       		.byte	0x91
 7856 1c24 60       		.sleb128 -32
 7857 1c25 1D       		.uleb128 0x1d
 7858 1c26 16070000 		.4byte	.LASF190
 7859 1c2a 01       		.byte	0x1
 7860 1c2b 7E02     		.2byte	0x27e
 7861 1c2d 86020000 		.4byte	0x286
 7862 1c31 02       		.uleb128 0x2
 7863 1c32 91       		.byte	0x91
 7864 1c33 64       		.sleb128 -28
 7865 1c34 21       		.uleb128 0x21
 7866 1c35 D8030000 		.4byte	.LBB44
 7867 1c39 56000000 		.4byte	.LBE44-.LBB44
 7868 1c3d C51C0000 		.4byte	0x1cc5
 7869 1c41 1A       		.uleb128 0x1a
 7870 1c42 74130000 		.4byte	.LASF132
 7871 1c46 01       		.byte	0x1
 7872 1c47 8802     		.2byte	0x288
 7873 1c49 E8050000 		.4byte	0x5e8
 7874 1c4d AE160000 		.4byte	.LLST101
 7875 1c51 1B       		.uleb128 0x1b
 7876 1c52 DE030000 		.4byte	.LVL408
 7877 1c56 04290000 		.4byte	0x2904
 7878 1c5a 24       		.uleb128 0x24
 7879 1c5b F8030000 		.4byte	.LVL409
 7880 1c5f 4F060000 		.4byte	0x64f
 7881 1c63 6E1C0000 		.4byte	0x1c6e
 7882 1c67 15       		.uleb128 0x15
 7883 1c68 01       		.uleb128 0x1
 7884 1c69 50       		.byte	0x50
 7885 1c6a 02       		.uleb128 0x2
 7886 1c6b 76       		.byte	0x76
 7887 1c6c 00       		.sleb128 0
 7888 1c6d 00       		.byte	0
 7889 1c6e 24       		.uleb128 0x24
 7890 1c6f 06040000 		.4byte	.LVL411
 7891 1c73 3F0C0000 		.4byte	0xc3f
 7892 1c77 941C0000 		.4byte	0x1c94
 7893 1c7b 15       		.uleb128 0x15
 7894 1c7c 01       		.uleb128 0x1
 7895 1c7d 50       		.byte	0x50
ARM GAS  C:\Users\Phuong\AppData\Local\Temp\ccX7yw2d.s 			page 178


 7896 1c7e 02       		.uleb128 0x2
 7897 1c7f 76       		.byte	0x76
 7898 1c80 00       		.sleb128 0
 7899 1c81 15       		.uleb128 0x15
 7900 1c82 01       		.uleb128 0x1
 7901 1c83 51       		.byte	0x51
 7902 1c84 05       		.uleb128 0x5
 7903 1c85 03       		.byte	0x3
 7904 1c86 B8010000 		.4byte	.LC31
 7905 1c8a 15       		.uleb128 0x15
 7906 1c8b 01       		.uleb128 0x1
 7907 1c8c 52       		.byte	0x52
 7908 1c8d 05       		.uleb128 0x5
 7909 1c8e 03       		.byte	0x3
 7910 1c8f B4010000 		.4byte	.LC29
 7911 1c93 00       		.byte	0
 7912 1c94 2A       		.uleb128 0x2a
 7913 1c95 1C040000 		.4byte	.LVL415
 7914 1c99 02       		.uleb128 0x2
 7915 1c9a 75       		.byte	0x75
 7916 1c9b 00       		.sleb128 0
 7917 1c9c B41C0000 		.4byte	0x1cb4
 7918 1ca0 15       		.uleb128 0x15
 7919 1ca1 01       		.uleb128 0x1
 7920 1ca2 51       		.byte	0x51
 7921 1ca3 02       		.uleb128 0x2
 7922 1ca4 74       		.byte	0x74
 7923 1ca5 00       		.sleb128 0
 7924 1ca6 15       		.uleb128 0x15
 7925 1ca7 01       		.uleb128 0x1
 7926 1ca8 52       		.byte	0x52
 7927 1ca9 03       		.uleb128 0x3
 7928 1caa 91       		.byte	0x91
 7929 1cab 4C       		.sleb128 -52
 7930 1cac 06       		.byte	0x6
 7931 1cad 15       		.uleb128 0x15
 7932 1cae 01       		.uleb128 0x1
 7933 1caf 53       		.byte	0x53
 7934 1cb0 02       		.uleb128 0x2
 7935 1cb1 77       		.byte	0x77
 7936 1cb2 00       		.sleb128 0
 7937 1cb3 00       		.byte	0
 7938 1cb4 1C       		.uleb128 0x1c
 7939 1cb5 2C040000 		.4byte	.LVL416
 7940 1cb9 690A0000 		.4byte	0xa69
 7941 1cbd 15       		.uleb128 0x15
 7942 1cbe 01       		.uleb128 0x1
 7943 1cbf 50       		.byte	0x50
 7944 1cc0 02       		.uleb128 0x2
 7945 1cc1 76       		.byte	0x76
 7946 1cc2 00       		.sleb128 0
 7947 1cc3 00       		.byte	0
 7948 1cc4 00       		.byte	0
 7949 1cc5 24       		.uleb128 0x24
 7950 1cc6 BA030000 		.4byte	.LVL404
 7951 1cca 0F290000 		.4byte	0x290f
 7952 1cce D91C0000 		.4byte	0x1cd9
ARM GAS  C:\Users\Phuong\AppData\Local\Temp\ccX7yw2d.s 			page 179


 7953 1cd2 15       		.uleb128 0x15
 7954 1cd3 01       		.uleb128 0x1
 7955 1cd4 51       		.byte	0x51
 7956 1cd5 02       		.uleb128 0x2
 7957 1cd6 91       		.byte	0x91
 7958 1cd7 64       		.sleb128 -28
 7959 1cd8 00       		.byte	0
 7960 1cd9 24       		.uleb128 0x24
 7961 1cda C2030000 		.4byte	.LVL405
 7962 1cde 1A290000 		.4byte	0x291a
 7963 1ce2 ED1C0000 		.4byte	0x1ced
 7964 1ce6 15       		.uleb128 0x15
 7965 1ce7 01       		.uleb128 0x1
 7966 1ce8 51       		.byte	0x51
 7967 1ce9 02       		.uleb128 0x2
 7968 1cea 91       		.byte	0x91
 7969 1ceb 60       		.sleb128 -32
 7970 1cec 00       		.byte	0
 7971 1ced 1B       		.uleb128 0x1b
 7972 1cee CC030000 		.4byte	.LVL406
 7973 1cf2 04290000 		.4byte	0x2904
 7974 1cf6 1C       		.uleb128 0x1c
 7975 1cf7 D6030000 		.4byte	.LVL407
 7976 1cfb 3F0C0000 		.4byte	0xc3f
 7977 1cff 15       		.uleb128 0x15
 7978 1d00 01       		.uleb128 0x1
 7979 1d01 50       		.byte	0x50
 7980 1d02 02       		.uleb128 0x2
 7981 1d03 76       		.byte	0x76
 7982 1d04 00       		.sleb128 0
 7983 1d05 15       		.uleb128 0x15
 7984 1d06 01       		.uleb128 0x1
 7985 1d07 51       		.byte	0x51
 7986 1d08 05       		.uleb128 0x5
 7987 1d09 03       		.byte	0x3
 7988 1d0a 5C000000 		.4byte	.LC8
 7989 1d0e 15       		.uleb128 0x15
 7990 1d0f 01       		.uleb128 0x1
 7991 1d10 52       		.byte	0x52
 7992 1d11 05       		.uleb128 0x5
 7993 1d12 03       		.byte	0x3
 7994 1d13 14020000 		.4byte	.LC37
 7995 1d17 00       		.byte	0
 7996 1d18 00       		.byte	0
 7997 1d19 24       		.uleb128 0x24
 7998 1d1a A2030000 		.4byte	.LVL402
 7999 1d1e 25290000 		.4byte	0x2925
 8000 1d22 331D0000 		.4byte	0x1d33
 8001 1d26 15       		.uleb128 0x15
 8002 1d27 01       		.uleb128 0x1
 8003 1d28 50       		.byte	0x50
 8004 1d29 02       		.uleb128 0x2
 8005 1d2a 74       		.byte	0x74
 8006 1d2b 00       		.sleb128 0
 8007 1d2c 15       		.uleb128 0x15
 8008 1d2d 01       		.uleb128 0x1
 8009 1d2e 51       		.byte	0x51
ARM GAS  C:\Users\Phuong\AppData\Local\Temp\ccX7yw2d.s 			page 180


 8010 1d2f 02       		.uleb128 0x2
 8011 1d30 91       		.byte	0x91
 8012 1d31 5C       		.sleb128 -36
 8013 1d32 00       		.byte	0
 8014 1d33 1C       		.uleb128 0x1c
 8015 1d34 B0030000 		.4byte	.LVL403
 8016 1d38 3F0C0000 		.4byte	0xc3f
 8017 1d3c 15       		.uleb128 0x15
 8018 1d3d 01       		.uleb128 0x1
 8019 1d3e 50       		.byte	0x50
 8020 1d3f 02       		.uleb128 0x2
 8021 1d40 76       		.byte	0x76
 8022 1d41 00       		.sleb128 0
 8023 1d42 15       		.uleb128 0x15
 8024 1d43 01       		.uleb128 0x1
 8025 1d44 51       		.byte	0x51
 8026 1d45 05       		.uleb128 0x5
 8027 1d46 03       		.byte	0x3
 8028 1d47 5C000000 		.4byte	.LC8
 8029 1d4b 15       		.uleb128 0x15
 8030 1d4c 01       		.uleb128 0x1
 8031 1d4d 52       		.byte	0x52
 8032 1d4e 05       		.uleb128 0x5
 8033 1d4f 03       		.byte	0x3
 8034 1d50 F4010000 		.4byte	.LC35
 8035 1d54 00       		.byte	0
 8036 1d55 00       		.byte	0
 8037 1d56 23       		.uleb128 0x23
 8038 1d57 C0000000 		.4byte	.Ldebug_ranges0+0xc0
 8039 1d5b A41D0000 		.4byte	0x1da4
 8040 1d5f 19       		.uleb128 0x19
 8041 1d60 6900     		.ascii	"i\000"
 8042 1d62 01       		.byte	0x1
 8043 1d63 A602     		.2byte	0x2a6
 8044 1d65 BF000000 		.4byte	0xbf
 8045 1d69 CC160000 		.4byte	.LLST102
 8046 1d6d 26       		.uleb128 0x26
 8047 1d6e 3A040000 		.4byte	.LBB46
 8048 1d72 1C000000 		.4byte	.LBE46-.LBB46
 8049 1d76 1A       		.uleb128 0x1a
 8050 1d77 74130000 		.4byte	.LASF132
 8051 1d7b 01       		.byte	0x1
 8052 1d7c AA02     		.2byte	0x2aa
 8053 1d7e E8050000 		.4byte	0x5e8
 8054 1d82 EA160000 		.4byte	.LLST103
 8055 1d86 14       		.uleb128 0x14
 8056 1d87 56040000 		.4byte	.LVL422
 8057 1d8b 02       		.uleb128 0x2
 8058 1d8c 79       		.byte	0x79
 8059 1d8d 00       		.sleb128 0
 8060 1d8e 15       		.uleb128 0x15
 8061 1d8f 01       		.uleb128 0x1
 8062 1d90 51       		.byte	0x51
 8063 1d91 02       		.uleb128 0x2
 8064 1d92 74       		.byte	0x74
 8065 1d93 00       		.sleb128 0
 8066 1d94 15       		.uleb128 0x15
ARM GAS  C:\Users\Phuong\AppData\Local\Temp\ccX7yw2d.s 			page 181


 8067 1d95 01       		.uleb128 0x1
 8068 1d96 52       		.byte	0x52
 8069 1d97 03       		.uleb128 0x3
 8070 1d98 91       		.byte	0x91
 8071 1d99 4C       		.sleb128 -52
 8072 1d9a 06       		.byte	0x6
 8073 1d9b 15       		.uleb128 0x15
 8074 1d9c 01       		.uleb128 0x1
 8075 1d9d 53       		.byte	0x53
 8076 1d9e 02       		.uleb128 0x2
 8077 1d9f 77       		.byte	0x77
 8078 1da0 00       		.sleb128 0
 8079 1da1 00       		.byte	0
 8080 1da2 00       		.byte	0
 8081 1da3 00       		.byte	0
 8082 1da4 21       		.uleb128 0x21
 8083 1da5 6E040000 		.4byte	.LBB48
 8084 1da9 50000000 		.4byte	.LBE48-.LBB48
 8085 1dad 761E0000 		.4byte	0x1e76
 8086 1db1 1D       		.uleb128 0x1d
 8087 1db2 AA0C0000 		.4byte	.LASF191
 8088 1db6 01       		.byte	0x1
 8089 1db7 B302     		.2byte	0x2b3
 8090 1db9 93050000 		.4byte	0x593
 8091 1dbd 02       		.uleb128 0x2
 8092 1dbe 91       		.byte	0x91
 8093 1dbf 64       		.sleb128 -28
 8094 1dc0 24       		.uleb128 0x24
 8095 1dc1 76040000 		.4byte	.LVL428
 8096 1dc5 30290000 		.4byte	0x2930
 8097 1dc9 DA1D0000 		.4byte	0x1dda
 8098 1dcd 15       		.uleb128 0x15
 8099 1dce 01       		.uleb128 0x1
 8100 1dcf 50       		.byte	0x50
 8101 1dd0 02       		.uleb128 0x2
 8102 1dd1 74       		.byte	0x74
 8103 1dd2 00       		.sleb128 0
 8104 1dd3 15       		.uleb128 0x15
 8105 1dd4 01       		.uleb128 0x1
 8106 1dd5 51       		.byte	0x51
 8107 1dd6 02       		.uleb128 0x2
 8108 1dd7 91       		.byte	0x91
 8109 1dd8 64       		.sleb128 -28
 8110 1dd9 00       		.byte	0
 8111 1dda 24       		.uleb128 0x24
 8112 1ddb 84040000 		.4byte	.LVL429
 8113 1ddf 3F0C0000 		.4byte	0xc3f
 8114 1de3 001E0000 		.4byte	0x1e00
 8115 1de7 15       		.uleb128 0x15
 8116 1de8 01       		.uleb128 0x1
 8117 1de9 50       		.byte	0x50
 8118 1dea 02       		.uleb128 0x2
 8119 1deb 76       		.byte	0x76
 8120 1dec 00       		.sleb128 0
 8121 1ded 15       		.uleb128 0x15
 8122 1dee 01       		.uleb128 0x1
 8123 1def 51       		.byte	0x51
ARM GAS  C:\Users\Phuong\AppData\Local\Temp\ccX7yw2d.s 			page 182


 8124 1df0 05       		.uleb128 0x5
 8125 1df1 03       		.byte	0x3
 8126 1df2 5C000000 		.4byte	.LC8
 8127 1df6 15       		.uleb128 0x15
 8128 1df7 01       		.uleb128 0x1
 8129 1df8 52       		.byte	0x52
 8130 1df9 05       		.uleb128 0x5
 8131 1dfa 03       		.byte	0x3
 8132 1dfb 3C020000 		.4byte	.LC39
 8133 1dff 00       		.byte	0
 8134 1e00 1B       		.uleb128 0x1b
 8135 1e01 8C040000 		.4byte	.LVL430
 8136 1e05 BC270000 		.4byte	0x27bc
 8137 1e09 24       		.uleb128 0x24
 8138 1e0a 9E040000 		.4byte	.LVL431
 8139 1e0e F9050000 		.4byte	0x5f9
 8140 1e12 221E0000 		.4byte	0x1e22
 8141 1e16 15       		.uleb128 0x15
 8142 1e17 01       		.uleb128 0x1
 8143 1e18 50       		.byte	0x50
 8144 1e19 02       		.uleb128 0x2
 8145 1e1a 76       		.byte	0x76
 8146 1e1b 00       		.sleb128 0
 8147 1e1c 15       		.uleb128 0x15
 8148 1e1d 01       		.uleb128 0x1
 8149 1e1e 51       		.byte	0x51
 8150 1e1f 01       		.uleb128 0x1
 8151 1e20 35       		.byte	0x35
 8152 1e21 00       		.byte	0
 8153 1e22 24       		.uleb128 0x24
 8154 1e23 A6040000 		.4byte	.LVL432
 8155 1e27 4F0B0000 		.4byte	0xb4f
 8156 1e2b 3B1E0000 		.4byte	0x1e3b
 8157 1e2f 15       		.uleb128 0x15
 8158 1e30 01       		.uleb128 0x1
 8159 1e31 50       		.byte	0x50
 8160 1e32 02       		.uleb128 0x2
 8161 1e33 76       		.byte	0x76
 8162 1e34 00       		.sleb128 0
 8163 1e35 15       		.uleb128 0x15
 8164 1e36 01       		.uleb128 0x1
 8165 1e37 51       		.byte	0x51
 8166 1e38 01       		.uleb128 0x1
 8167 1e39 30       		.byte	0x30
 8168 1e3a 00       		.byte	0
 8169 1e3b 24       		.uleb128 0x24
 8170 1e3c B6040000 		.4byte	.LVL433
 8171 1e40 D2270000 		.4byte	0x27d2
 8172 1e44 601E0000 		.4byte	0x1e60
 8173 1e48 15       		.uleb128 0x15
 8174 1e49 01       		.uleb128 0x1
 8175 1e4a 51       		.byte	0x51
 8176 1e4b 05       		.uleb128 0x5
 8177 1e4c 03       		.byte	0x3
 8178 1e4d 2C000000 		.4byte	.LC2
 8179 1e51 15       		.uleb128 0x15
 8180 1e52 01       		.uleb128 0x1
ARM GAS  C:\Users\Phuong\AppData\Local\Temp\ccX7yw2d.s 			page 183


 8181 1e53 52       		.byte	0x52
 8182 1e54 05       		.uleb128 0x5
 8183 1e55 03       		.byte	0x3
 8184 1e56 54020000 		.4byte	.LC41
 8185 1e5a 15       		.uleb128 0x15
 8186 1e5b 01       		.uleb128 0x1
 8187 1e5c 53       		.byte	0x53
 8188 1e5d 01       		.uleb128 0x1
 8189 1e5e 30       		.byte	0x30
 8190 1e5f 00       		.byte	0
 8191 1e60 1C       		.uleb128 0x1c
 8192 1e61 BE040000 		.4byte	.LVL434
 8193 1e65 F9050000 		.4byte	0x5f9
 8194 1e69 15       		.uleb128 0x15
 8195 1e6a 01       		.uleb128 0x1
 8196 1e6b 50       		.byte	0x50
 8197 1e6c 02       		.uleb128 0x2
 8198 1e6d 76       		.byte	0x76
 8199 1e6e 00       		.sleb128 0
 8200 1e6f 15       		.uleb128 0x15
 8201 1e70 01       		.uleb128 0x1
 8202 1e71 51       		.byte	0x51
 8203 1e72 01       		.uleb128 0x1
 8204 1e73 36       		.byte	0x36
 8205 1e74 00       		.byte	0
 8206 1e75 00       		.byte	0
 8207 1e76 24       		.uleb128 0x24
 8208 1e77 16000000 		.4byte	.LVL310
 8209 1e7b 3B290000 		.4byte	0x293b
 8210 1e7f 8A1E0000 		.4byte	0x1e8a
 8211 1e83 15       		.uleb128 0x15
 8212 1e84 01       		.uleb128 0x1
 8213 1e85 50       		.byte	0x50
 8214 1e86 02       		.uleb128 0x2
 8215 1e87 74       		.byte	0x74
 8216 1e88 00       		.sleb128 0
 8217 1e89 00       		.byte	0
 8218 1e8a 24       		.uleb128 0x24
 8219 1e8b 1C000000 		.4byte	.LVL312
 8220 1e8f 46290000 		.4byte	0x2946
 8221 1e93 9E1E0000 		.4byte	0x1e9e
 8222 1e97 15       		.uleb128 0x15
 8223 1e98 01       		.uleb128 0x1
 8224 1e99 50       		.byte	0x50
 8225 1e9a 02       		.uleb128 0x2
 8226 1e9b 75       		.byte	0x75
 8227 1e9c 00       		.sleb128 0
 8228 1e9d 00       		.byte	0
 8229 1e9e 24       		.uleb128 0x24
 8230 1e9f C6000000 		.4byte	.LVL327
 8231 1ea3 51290000 		.4byte	0x2951
 8232 1ea7 B21E0000 		.4byte	0x1eb2
 8233 1eab 15       		.uleb128 0x15
 8234 1eac 01       		.uleb128 0x1
 8235 1ead 50       		.byte	0x50
 8236 1eae 02       		.uleb128 0x2
 8237 1eaf 75       		.byte	0x75
ARM GAS  C:\Users\Phuong\AppData\Local\Temp\ccX7yw2d.s 			page 184


 8238 1eb0 00       		.sleb128 0
 8239 1eb1 00       		.byte	0
 8240 1eb2 24       		.uleb128 0x24
 8241 1eb3 04020000 		.4byte	.LVL361
 8242 1eb7 5C290000 		.4byte	0x295c
 8243 1ebb C61E0000 		.4byte	0x1ec6
 8244 1ebf 15       		.uleb128 0x15
 8245 1ec0 01       		.uleb128 0x1
 8246 1ec1 50       		.byte	0x50
 8247 1ec2 02       		.uleb128 0x2
 8248 1ec3 75       		.byte	0x75
 8249 1ec4 00       		.sleb128 0
 8250 1ec5 00       		.byte	0
 8251 1ec6 24       		.uleb128 0x24
 8252 1ec7 8A020000 		.4byte	.LVL380
 8253 1ecb 67290000 		.4byte	0x2967
 8254 1ecf DA1E0000 		.4byte	0x1eda
 8255 1ed3 15       		.uleb128 0x15
 8256 1ed4 01       		.uleb128 0x1
 8257 1ed5 50       		.byte	0x50
 8258 1ed6 02       		.uleb128 0x2
 8259 1ed7 75       		.byte	0x75
 8260 1ed8 00       		.sleb128 0
 8261 1ed9 00       		.byte	0
 8262 1eda 24       		.uleb128 0x24
 8263 1edb 96030000 		.4byte	.LVL401
 8264 1edf 72290000 		.4byte	0x2972
 8265 1ee3 EE1E0000 		.4byte	0x1eee
 8266 1ee7 15       		.uleb128 0x15
 8267 1ee8 01       		.uleb128 0x1
 8268 1ee9 50       		.byte	0x50
 8269 1eea 02       		.uleb128 0x2
 8270 1eeb 75       		.byte	0x75
 8271 1eec 00       		.sleb128 0
 8272 1eed 00       		.byte	0
 8273 1eee 24       		.uleb128 0x24
 8274 1eef 34040000 		.4byte	.LVL418
 8275 1ef3 7D290000 		.4byte	0x297d
 8276 1ef7 021F0000 		.4byte	0x1f02
 8277 1efb 15       		.uleb128 0x15
 8278 1efc 01       		.uleb128 0x1
 8279 1efd 50       		.byte	0x50
 8280 1efe 02       		.uleb128 0x2
 8281 1eff 75       		.byte	0x75
 8282 1f00 00       		.sleb128 0
 8283 1f01 00       		.byte	0
 8284 1f02 1C       		.uleb128 0x1c
 8285 1f03 6A040000 		.4byte	.LVL427
 8286 1f07 88290000 		.4byte	0x2988
 8287 1f0b 15       		.uleb128 0x15
 8288 1f0c 01       		.uleb128 0x1
 8289 1f0d 50       		.byte	0x50
 8290 1f0e 02       		.uleb128 0x2
 8291 1f0f 75       		.byte	0x75
 8292 1f10 00       		.sleb128 0
 8293 1f11 00       		.byte	0
 8294 1f12 00       		.byte	0
ARM GAS  C:\Users\Phuong\AppData\Local\Temp\ccX7yw2d.s 			page 185


 8295 1f13 28       		.uleb128 0x28
 8296 1f14 26100000 		.4byte	.LASF193
 8297 1f18 01       		.byte	0x1
 8298 1f19 7D04     		.2byte	0x47d
 8299 1f1b 00000000 		.4byte	.LFB23
 8300 1f1f 22000000 		.4byte	.LFE23-.LFB23
 8301 1f23 01       		.uleb128 0x1
 8302 1f24 9C       		.byte	0x9c
 8303 1f25 6D1F0000 		.4byte	0x1f6d
 8304 1f29 17       		.uleb128 0x17
 8305 1f2a 74130000 		.4byte	.LASF132
 8306 1f2e 01       		.byte	0x1
 8307 1f2f 7D04     		.2byte	0x47d
 8308 1f31 0F040000 		.4byte	0x40f
 8309 1f35 0F170000 		.4byte	.LLST104
 8310 1f39 26       		.uleb128 0x26
 8311 1f3a 06000000 		.4byte	.LBB49
 8312 1f3e 1A000000 		.4byte	.LBE49-.LBB49
 8313 1f42 1A       		.uleb128 0x1a
 8314 1f43 F40D0000 		.4byte	.LASF149
 8315 1f47 01       		.byte	0x1
 8316 1f48 8104     		.2byte	0x481
 8317 1f4a E8050000 		.4byte	0x5e8
 8318 1f4e 3B170000 		.4byte	.LLST105
 8319 1f52 1B       		.uleb128 0x1b
 8320 1f53 1A000000 		.4byte	.LVL438
 8321 1f57 DB090000 		.4byte	0x9db
 8322 1f5b 1C       		.uleb128 0x1c
 8323 1f5c 20000000 		.4byte	.LVL439
 8324 1f60 A6060000 		.4byte	0x6a6
 8325 1f64 15       		.uleb128 0x15
 8326 1f65 01       		.uleb128 0x1
 8327 1f66 50       		.byte	0x50
 8328 1f67 02       		.uleb128 0x2
 8329 1f68 74       		.byte	0x74
 8330 1f69 00       		.sleb128 0
 8331 1f6a 00       		.byte	0
 8332 1f6b 00       		.byte	0
 8333 1f6c 00       		.byte	0
 8334 1f6d 27       		.uleb128 0x27
 8335 1f6e FA060000 		.4byte	.LASF194
 8336 1f72 01       		.byte	0x1
 8337 1f73 8F04     		.2byte	0x48f
 8338 1f75 37000000 		.4byte	0x37
 8339 1f79 00000000 		.4byte	.LFB24
 8340 1f7d 40000000 		.4byte	.LFE24-.LFB24
 8341 1f81 01       		.uleb128 0x1
 8342 1f82 9C       		.byte	0x9c
 8343 1f83 F51F0000 		.4byte	0x1ff5
 8344 1f87 17       		.uleb128 0x17
 8345 1f88 74130000 		.4byte	.LASF132
 8346 1f8c 01       		.byte	0x1
 8347 1f8d 8F04     		.2byte	0x48f
 8348 1f8f 0F040000 		.4byte	0x40f
 8349 1f93 59170000 		.4byte	.LLST106
 8350 1f97 17       		.uleb128 0x17
 8351 1f98 58010000 		.4byte	.LASF71
ARM GAS  C:\Users\Phuong\AppData\Local\Temp\ccX7yw2d.s 			page 186


 8352 1f9c 01       		.byte	0x1
 8353 1f9d 8F04     		.2byte	0x48f
 8354 1f9f 3A020000 		.4byte	0x23a
 8355 1fa3 C5170000 		.4byte	.LLST107
 8356 1fa7 17       		.uleb128 0x17
 8357 1fa8 60090000 		.4byte	.LASF94
 8358 1fac 01       		.byte	0x1
 8359 1fad 8F04     		.2byte	0x48f
 8360 1faf 13050000 		.4byte	0x513
 8361 1fb3 FF170000 		.4byte	.LLST108
 8362 1fb7 17       		.uleb128 0x17
 8363 1fb8 AF090000 		.4byte	.LASF95
 8364 1fbc 01       		.byte	0x1
 8365 1fbd 8F04     		.2byte	0x48f
 8366 1fbf 39050000 		.4byte	0x539
 8367 1fc3 41180000 		.4byte	.LLST109
 8368 1fc7 18       		.uleb128 0x18
 8369 1fc8 B50C0000 		.4byte	.LASF144
 8370 1fcc 01       		.byte	0x1
 8371 1fcd 8F04     		.2byte	0x48f
 8372 1fcf 9A000000 		.4byte	0x9a
 8373 1fd3 02       		.uleb128 0x2
 8374 1fd4 91       		.byte	0x91
 8375 1fd5 00       		.sleb128 0
 8376 1fd6 1D       		.uleb128 0x1d
 8377 1fd7 9F060000 		.4byte	.LASF129
 8378 1fdb 01       		.byte	0x1
 8379 1fdc 9104     		.2byte	0x491
 8380 1fde 37000000 		.4byte	0x37
 8381 1fe2 01       		.uleb128 0x1
 8382 1fe3 50       		.byte	0x50
 8383 1fe4 14       		.uleb128 0x14
 8384 1fe5 2A000000 		.4byte	.LVL447
 8385 1fe9 02       		.uleb128 0x2
 8386 1fea 74       		.byte	0x74
 8387 1feb 00       		.sleb128 0
 8388 1fec 15       		.uleb128 0x15
 8389 1fed 01       		.uleb128 0x1
 8390 1fee 50       		.byte	0x50
 8391 1fef 03       		.uleb128 0x3
 8392 1ff0 91       		.byte	0x91
 8393 1ff1 00       		.sleb128 0
 8394 1ff2 06       		.byte	0x6
 8395 1ff3 00       		.byte	0
 8396 1ff4 00       		.byte	0
 8397 1ff5 27       		.uleb128 0x27
 8398 1ff6 B70F0000 		.4byte	.LASF195
 8399 1ffa 01       		.byte	0x1
 8400 1ffb C604     		.2byte	0x4c6
 8401 1ffd 37000000 		.4byte	0x37
 8402 2001 00000000 		.4byte	.LFB26
 8403 2005 C8000000 		.4byte	.LFE26-.LFB26
 8404 2009 01       		.uleb128 0x1
 8405 200a 9C       		.byte	0x9c
 8406 200b 3C210000 		.4byte	0x213c
 8407 200f 17       		.uleb128 0x17
 8408 2010 74130000 		.4byte	.LASF132
ARM GAS  C:\Users\Phuong\AppData\Local\Temp\ccX7yw2d.s 			page 187


 8409 2014 01       		.byte	0x1
 8410 2015 C604     		.2byte	0x4c6
 8411 2017 0F040000 		.4byte	0x40f
 8412 201b 87180000 		.4byte	.LLST110
 8413 201f 17       		.uleb128 0x17
 8414 2020 6A070000 		.4byte	.LASF152
 8415 2024 01       		.byte	0x1
 8416 2025 C604     		.2byte	0x4c6
 8417 2027 B2020000 		.4byte	0x2b2
 8418 202b DF180000 		.4byte	.LLST111
 8419 202f 1A       		.uleb128 0x1a
 8420 2030 9F060000 		.4byte	.LASF129
 8421 2034 01       		.byte	0x1
 8422 2035 C804     		.2byte	0x4c8
 8423 2037 37000000 		.4byte	0x37
 8424 203b 45190000 		.4byte	.LLST112
 8425 203f 1E       		.uleb128 0x1e
 8426 2040 D8000000 		.4byte	.Ldebug_ranges0+0xd8
 8427 2044 1A       		.uleb128 0x1a
 8428 2045 75050000 		.4byte	.LASF138
 8429 2049 01       		.byte	0x1
 8430 204a D104     		.2byte	0x4d1
 8431 204c E8050000 		.4byte	0x5e8
 8432 2050 B1190000 		.4byte	.LLST113
 8433 2054 1A       		.uleb128 0x1a
 8434 2055 AA000000 		.4byte	.LASF128
 8435 2059 01       		.byte	0x1
 8436 205a D204     		.2byte	0x4d2
 8437 205c 49060000 		.4byte	0x649
 8438 2060 F0190000 		.4byte	.LLST114
 8439 2064 23       		.uleb128 0x23
 8440 2065 F0000000 		.4byte	.Ldebug_ranges0+0xf0
 8441 2069 C6200000 		.4byte	0x20c6
 8442 206d 1A       		.uleb128 0x1a
 8443 206e D9020000 		.4byte	.LASF153
 8444 2072 01       		.byte	0x1
 8445 2073 EA04     		.2byte	0x4ea
 8446 2075 CA000000 		.4byte	0xca
 8447 2079 0E1A0000 		.4byte	.LLST115
 8448 207d 24       		.uleb128 0x24
 8449 207e 72000000 		.4byte	.LVL469
 8450 2082 6F270000 		.4byte	0x276f
 8451 2086 91200000 		.4byte	0x2091
 8452 208a 15       		.uleb128 0x15
 8453 208b 01       		.uleb128 0x1
 8454 208c 50       		.byte	0x50
 8455 208d 02       		.uleb128 0x2
 8456 208e 76       		.byte	0x76
 8457 208f 00       		.sleb128 0
 8458 2090 00       		.byte	0
 8459 2091 24       		.uleb128 0x24
 8460 2092 82000000 		.4byte	.LVL472
 8461 2096 E4060000 		.4byte	0x6e4
 8462 209a B5200000 		.4byte	0x20b5
 8463 209e 15       		.uleb128 0x15
 8464 209f 01       		.uleb128 0x1
 8465 20a0 50       		.byte	0x50
ARM GAS  C:\Users\Phuong\AppData\Local\Temp\ccX7yw2d.s 			page 188


 8466 20a1 02       		.uleb128 0x2
 8467 20a2 75       		.byte	0x75
 8468 20a3 00       		.sleb128 0
 8469 20a4 15       		.uleb128 0x15
 8470 20a5 01       		.uleb128 0x1
 8471 20a6 51       		.byte	0x51
 8472 20a7 02       		.uleb128 0x2
 8473 20a8 76       		.byte	0x76
 8474 20a9 00       		.sleb128 0
 8475 20aa 15       		.uleb128 0x15
 8476 20ab 01       		.uleb128 0x1
 8477 20ac 52       		.byte	0x52
 8478 20ad 01       		.uleb128 0x1
 8479 20ae 30       		.byte	0x30
 8480 20af 15       		.uleb128 0x15
 8481 20b0 01       		.uleb128 0x1
 8482 20b1 53       		.byte	0x53
 8483 20b2 01       		.uleb128 0x1
 8484 20b3 30       		.byte	0x30
 8485 20b4 00       		.byte	0
 8486 20b5 1C       		.uleb128 0x1c
 8487 20b6 8E000000 		.4byte	.LVL474
 8488 20ba 0C270000 		.4byte	0x270c
 8489 20be 15       		.uleb128 0x15
 8490 20bf 01       		.uleb128 0x1
 8491 20c0 50       		.byte	0x50
 8492 20c1 02       		.uleb128 0x2
 8493 20c2 76       		.byte	0x76
 8494 20c3 00       		.sleb128 0
 8495 20c4 00       		.byte	0
 8496 20c5 00       		.byte	0
 8497 20c6 24       		.uleb128 0x24
 8498 20c7 1E000000 		.4byte	.LVL460
 8499 20cb 85270000 		.4byte	0x2785
 8500 20cf DA200000 		.4byte	0x20da
 8501 20d3 15       		.uleb128 0x15
 8502 20d4 01       		.uleb128 0x1
 8503 20d5 50       		.byte	0x50
 8504 20d6 02       		.uleb128 0x2
 8505 20d7 76       		.byte	0x76
 8506 20d8 00       		.sleb128 0
 8507 20d9 00       		.byte	0
 8508 20da 24       		.uleb128 0x24
 8509 20db 38000000 		.4byte	.LVL464
 8510 20df 85270000 		.4byte	0x2785
 8511 20e3 EE200000 		.4byte	0x20ee
 8512 20e7 15       		.uleb128 0x15
 8513 20e8 01       		.uleb128 0x1
 8514 20e9 50       		.byte	0x50
 8515 20ea 02       		.uleb128 0x2
 8516 20eb 76       		.byte	0x76
 8517 20ec 00       		.sleb128 0
 8518 20ed 00       		.byte	0
 8519 20ee 24       		.uleb128 0x24
 8520 20ef 44000000 		.4byte	.LVL465
 8521 20f3 93290000 		.4byte	0x2993
 8522 20f7 02210000 		.4byte	0x2102
ARM GAS  C:\Users\Phuong\AppData\Local\Temp\ccX7yw2d.s 			page 189


 8523 20fb 15       		.uleb128 0x15
 8524 20fc 01       		.uleb128 0x1
 8525 20fd 50       		.byte	0x50
 8526 20fe 02       		.uleb128 0x2
 8527 20ff 76       		.byte	0x76
 8528 2100 00       		.sleb128 0
 8529 2101 00       		.byte	0
 8530 2102 24       		.uleb128 0x24
 8531 2103 50000000 		.4byte	.LVL466
 8532 2107 9E290000 		.4byte	0x299e
 8533 210b 16210000 		.4byte	0x2116
 8534 210f 15       		.uleb128 0x15
 8535 2110 01       		.uleb128 0x1
 8536 2111 50       		.byte	0x50
 8537 2112 02       		.uleb128 0x2
 8538 2113 76       		.byte	0x76
 8539 2114 00       		.sleb128 0
 8540 2115 00       		.byte	0
 8541 2116 24       		.uleb128 0x24
 8542 2117 5C000000 		.4byte	.LVL467
 8543 211b A9290000 		.4byte	0x29a9
 8544 211f 2A210000 		.4byte	0x212a
 8545 2123 15       		.uleb128 0x15
 8546 2124 01       		.uleb128 0x1
 8547 2125 50       		.byte	0x50
 8548 2126 02       		.uleb128 0x2
 8549 2127 76       		.byte	0x76
 8550 2128 00       		.sleb128 0
 8551 2129 00       		.byte	0
 8552 212a 1C       		.uleb128 0x1c
 8553 212b 68000000 		.4byte	.LVL468
 8554 212f B4290000 		.4byte	0x29b4
 8555 2133 15       		.uleb128 0x15
 8556 2134 01       		.uleb128 0x1
 8557 2135 50       		.byte	0x50
 8558 2136 02       		.uleb128 0x2
 8559 2137 76       		.byte	0x76
 8560 2138 00       		.sleb128 0
 8561 2139 00       		.byte	0
 8562 213a 00       		.byte	0
 8563 213b 00       		.byte	0
 8564 213c 27       		.uleb128 0x27
 8565 213d CA010000 		.4byte	.LASF196
 8566 2141 01       		.byte	0x1
 8567 2142 0305     		.2byte	0x503
 8568 2144 37000000 		.4byte	0x37
 8569 2148 00000000 		.4byte	.LFB27
 8570 214c 64000000 		.4byte	.LFE27-.LFB27
 8571 2150 01       		.uleb128 0x1
 8572 2151 9C       		.byte	0x9c
 8573 2152 0F220000 		.4byte	0x220f
 8574 2156 17       		.uleb128 0x17
 8575 2157 74130000 		.4byte	.LASF132
 8576 215b 01       		.byte	0x1
 8577 215c 0305     		.2byte	0x503
 8578 215e 0F040000 		.4byte	0x40f
 8579 2162 421A0000 		.4byte	.LLST116
ARM GAS  C:\Users\Phuong\AppData\Local\Temp\ccX7yw2d.s 			page 190


 8580 2166 17       		.uleb128 0x17
 8581 2167 600A0000 		.4byte	.LASF197
 8582 216b 01       		.byte	0x1
 8583 216c 0305     		.2byte	0x503
 8584 216e C8020000 		.4byte	0x2c8
 8585 2172 C41A0000 		.4byte	.LLST117
 8586 2176 1A       		.uleb128 0x1a
 8587 2177 9F060000 		.4byte	.LASF129
 8588 217b 01       		.byte	0x1
 8589 217c 0505     		.2byte	0x505
 8590 217e 37000000 		.4byte	0x37
 8591 2182 141B0000 		.4byte	.LLST118
 8592 2186 1E       		.uleb128 0x1e
 8593 2187 08010000 		.4byte	.Ldebug_ranges0+0x108
 8594 218b 1A       		.uleb128 0x1a
 8595 218c 75050000 		.4byte	.LASF138
 8596 2190 01       		.byte	0x1
 8597 2191 0E05     		.2byte	0x50e
 8598 2193 E8050000 		.4byte	0x5e8
 8599 2197 3D1B0000 		.4byte	.LLST119
 8600 219b 23       		.uleb128 0x23
 8601 219c 20010000 		.4byte	.Ldebug_ranges0+0x120
 8602 21a0 FD210000 		.4byte	0x21fd
 8603 21a4 1A       		.uleb128 0x1a
 8604 21a5 DE0B0000 		.4byte	.LASF198
 8605 21a9 01       		.byte	0x1
 8606 21aa 1605     		.2byte	0x516
 8607 21ac CA000000 		.4byte	0xca
 8608 21b0 A61B0000 		.4byte	.LLST120
 8609 21b4 24       		.uleb128 0x24
 8610 21b5 20000000 		.4byte	.LVL495
 8611 21b9 BF290000 		.4byte	0x29bf
 8612 21bd C8210000 		.4byte	0x21c8
 8613 21c1 15       		.uleb128 0x15
 8614 21c2 01       		.uleb128 0x1
 8615 21c3 50       		.byte	0x50
 8616 21c4 02       		.uleb128 0x2
 8617 21c5 75       		.byte	0x75
 8618 21c6 00       		.sleb128 0
 8619 21c7 00       		.byte	0
 8620 21c8 24       		.uleb128 0x24
 8621 21c9 30000000 		.4byte	.LVL498
 8622 21cd E4060000 		.4byte	0x6e4
 8623 21d1 EC210000 		.4byte	0x21ec
 8624 21d5 15       		.uleb128 0x15
 8625 21d6 01       		.uleb128 0x1
 8626 21d7 50       		.byte	0x50
 8627 21d8 02       		.uleb128 0x2
 8628 21d9 74       		.byte	0x74
 8629 21da 00       		.sleb128 0
 8630 21db 15       		.uleb128 0x15
 8631 21dc 01       		.uleb128 0x1
 8632 21dd 51       		.byte	0x51
 8633 21de 02       		.uleb128 0x2
 8634 21df 75       		.byte	0x75
 8635 21e0 00       		.sleb128 0
 8636 21e1 15       		.uleb128 0x15
ARM GAS  C:\Users\Phuong\AppData\Local\Temp\ccX7yw2d.s 			page 191


 8637 21e2 01       		.uleb128 0x1
 8638 21e3 52       		.byte	0x52
 8639 21e4 01       		.uleb128 0x1
 8640 21e5 30       		.byte	0x30
 8641 21e6 15       		.uleb128 0x15
 8642 21e7 01       		.uleb128 0x1
 8643 21e8 53       		.byte	0x53
 8644 21e9 01       		.uleb128 0x1
 8645 21ea 30       		.byte	0x30
 8646 21eb 00       		.byte	0
 8647 21ec 1C       		.uleb128 0x1c
 8648 21ed 40000000 		.4byte	.LVL502
 8649 21f1 0C270000 		.4byte	0x270c
 8650 21f5 15       		.uleb128 0x15
 8651 21f6 01       		.uleb128 0x1
 8652 21f7 50       		.byte	0x50
 8653 21f8 02       		.uleb128 0x2
 8654 21f9 75       		.byte	0x75
 8655 21fa 00       		.sleb128 0
 8656 21fb 00       		.byte	0
 8657 21fc 00       		.byte	0
 8658 21fd 1C       		.uleb128 0x1c
 8659 21fe 16000000 		.4byte	.LVL494
 8660 2202 CA290000 		.4byte	0x29ca
 8661 2206 15       		.uleb128 0x15
 8662 2207 01       		.uleb128 0x1
 8663 2208 50       		.byte	0x50
 8664 2209 02       		.uleb128 0x2
 8665 220a 75       		.byte	0x75
 8666 220b 00       		.sleb128 0
 8667 220c 00       		.byte	0
 8668 220d 00       		.byte	0
 8669 220e 00       		.byte	0
 8670 220f 27       		.uleb128 0x27
 8671 2210 BC0D0000 		.4byte	.LASF199
 8672 2214 01       		.byte	0x1
 8673 2215 2E05     		.2byte	0x52e
 8674 2217 37000000 		.4byte	0x37
 8675 221b 00000000 		.4byte	.LFB28
 8676 221f 4C000000 		.4byte	.LFE28-.LFB28
 8677 2223 01       		.uleb128 0x1
 8678 2224 9C       		.byte	0x9c
 8679 2225 B9220000 		.4byte	0x22b9
 8680 2229 17       		.uleb128 0x17
 8681 222a 74130000 		.4byte	.LASF132
 8682 222e 01       		.byte	0x1
 8683 222f 2E05     		.2byte	0x52e
 8684 2231 0F040000 		.4byte	0x40f
 8685 2235 DA1B0000 		.4byte	.LLST121
 8686 2239 17       		.uleb128 0x17
 8687 223a 82170000 		.4byte	.LASF200
 8688 223e 01       		.byte	0x1
 8689 223f 2E05     		.2byte	0x52e
 8690 2241 91020000 		.4byte	0x291
 8691 2245 431C0000 		.4byte	.LLST122
 8692 2249 1A       		.uleb128 0x1a
 8693 224a 9F060000 		.4byte	.LASF129
ARM GAS  C:\Users\Phuong\AppData\Local\Temp\ccX7yw2d.s 			page 192


 8694 224e 01       		.byte	0x1
 8695 224f 3005     		.2byte	0x530
 8696 2251 37000000 		.4byte	0x37
 8697 2255 7D1C0000 		.4byte	.LLST123
 8698 2259 1E       		.uleb128 0x1e
 8699 225a 38010000 		.4byte	.Ldebug_ranges0+0x138
 8700 225e 1A       		.uleb128 0x1a
 8701 225f 500E0000 		.4byte	.LASF201
 8702 2263 01       		.byte	0x1
 8703 2264 3905     		.2byte	0x539
 8704 2266 CA000000 		.4byte	0xca
 8705 226a A61C0000 		.4byte	.LLST124
 8706 226e 24       		.uleb128 0x24
 8707 226f 10000000 		.4byte	.LVL511
 8708 2273 D5290000 		.4byte	0x29d5
 8709 2277 83220000 		.4byte	0x2283
 8710 227b 15       		.uleb128 0x15
 8711 227c 01       		.uleb128 0x1
 8712 227d 50       		.byte	0x50
 8713 227e 03       		.uleb128 0x3
 8714 227f F3       		.byte	0xf3
 8715 2280 01       		.uleb128 0x1
 8716 2281 51       		.byte	0x51
 8717 2282 00       		.byte	0
 8718 2283 24       		.uleb128 0x24
 8719 2284 20000000 		.4byte	.LVL514
 8720 2288 E4060000 		.4byte	0x6e4
 8721 228c A7220000 		.4byte	0x22a7
 8722 2290 15       		.uleb128 0x15
 8723 2291 01       		.uleb128 0x1
 8724 2292 50       		.byte	0x50
 8725 2293 02       		.uleb128 0x2
 8726 2294 74       		.byte	0x74
 8727 2295 00       		.sleb128 0
 8728 2296 15       		.uleb128 0x15
 8729 2297 01       		.uleb128 0x1
 8730 2298 51       		.byte	0x51
 8731 2299 02       		.uleb128 0x2
 8732 229a 75       		.byte	0x75
 8733 229b 00       		.sleb128 0
 8734 229c 15       		.uleb128 0x15
 8735 229d 01       		.uleb128 0x1
 8736 229e 52       		.byte	0x52
 8737 229f 01       		.uleb128 0x1
 8738 22a0 30       		.byte	0x30
 8739 22a1 15       		.uleb128 0x15
 8740 22a2 01       		.uleb128 0x1
 8741 22a3 53       		.byte	0x53
 8742 22a4 01       		.uleb128 0x1
 8743 22a5 30       		.byte	0x30
 8744 22a6 00       		.byte	0
 8745 22a7 1C       		.uleb128 0x1c
 8746 22a8 30000000 		.4byte	.LVL518
 8747 22ac 0C270000 		.4byte	0x270c
 8748 22b0 15       		.uleb128 0x15
 8749 22b1 01       		.uleb128 0x1
 8750 22b2 50       		.byte	0x50
ARM GAS  C:\Users\Phuong\AppData\Local\Temp\ccX7yw2d.s 			page 193


 8751 22b3 02       		.uleb128 0x2
 8752 22b4 75       		.byte	0x75
 8753 22b5 00       		.sleb128 0
 8754 22b6 00       		.byte	0
 8755 22b7 00       		.byte	0
 8756 22b8 00       		.byte	0
 8757 22b9 27       		.uleb128 0x27
 8758 22ba 4E120000 		.4byte	.LASF202
 8759 22be 01       		.byte	0x1
 8760 22bf 5005     		.2byte	0x550
 8761 22c1 37000000 		.4byte	0x37
 8762 22c5 00000000 		.4byte	.LFB29
 8763 22c9 64000000 		.4byte	.LFE29-.LFB29
 8764 22cd 01       		.uleb128 0x1
 8765 22ce 9C       		.byte	0x9c
 8766 22cf 8C230000 		.4byte	0x238c
 8767 22d3 17       		.uleb128 0x17
 8768 22d4 74130000 		.4byte	.LASF132
 8769 22d8 01       		.byte	0x1
 8770 22d9 5005     		.2byte	0x550
 8771 22db 0F040000 		.4byte	0x40f
 8772 22df DA1C0000 		.4byte	.LLST125
 8773 22e3 17       		.uleb128 0x17
 8774 22e4 BC140000 		.4byte	.LASF203
 8775 22e8 01       		.byte	0x1
 8776 22e9 5005     		.2byte	0x550
 8777 22eb DE020000 		.4byte	0x2de
 8778 22ef 5C1D0000 		.4byte	.LLST126
 8779 22f3 1A       		.uleb128 0x1a
 8780 22f4 9F060000 		.4byte	.LASF129
 8781 22f8 01       		.byte	0x1
 8782 22f9 5205     		.2byte	0x552
 8783 22fb 37000000 		.4byte	0x37
 8784 22ff AC1D0000 		.4byte	.LLST127
 8785 2303 1E       		.uleb128 0x1e
 8786 2304 50010000 		.4byte	.Ldebug_ranges0+0x150
 8787 2308 1A       		.uleb128 0x1a
 8788 2309 75050000 		.4byte	.LASF138
 8789 230d 01       		.byte	0x1
 8790 230e 5B05     		.2byte	0x55b
 8791 2310 E8050000 		.4byte	0x5e8
 8792 2314 D51D0000 		.4byte	.LLST128
 8793 2318 23       		.uleb128 0x23
 8794 2319 68010000 		.4byte	.Ldebug_ranges0+0x168
 8795 231d 7A230000 		.4byte	0x237a
 8796 2321 1A       		.uleb128 0x1a
 8797 2322 F1100000 		.4byte	.LASF204
 8798 2326 01       		.byte	0x1
 8799 2327 6305     		.2byte	0x563
 8800 2329 CA000000 		.4byte	0xca
 8801 232d 3E1E0000 		.4byte	.LLST129
 8802 2331 24       		.uleb128 0x24
 8803 2332 20000000 		.4byte	.LVL528
 8804 2336 E0290000 		.4byte	0x29e0
 8805 233a 45230000 		.4byte	0x2345
 8806 233e 15       		.uleb128 0x15
 8807 233f 01       		.uleb128 0x1
ARM GAS  C:\Users\Phuong\AppData\Local\Temp\ccX7yw2d.s 			page 194


 8808 2340 50       		.byte	0x50
 8809 2341 02       		.uleb128 0x2
 8810 2342 75       		.byte	0x75
 8811 2343 00       		.sleb128 0
 8812 2344 00       		.byte	0
 8813 2345 24       		.uleb128 0x24
 8814 2346 30000000 		.4byte	.LVL531
 8815 234a E4060000 		.4byte	0x6e4
 8816 234e 69230000 		.4byte	0x2369
 8817 2352 15       		.uleb128 0x15
 8818 2353 01       		.uleb128 0x1
 8819 2354 50       		.byte	0x50
 8820 2355 02       		.uleb128 0x2
 8821 2356 74       		.byte	0x74
 8822 2357 00       		.sleb128 0
 8823 2358 15       		.uleb128 0x15
 8824 2359 01       		.uleb128 0x1
 8825 235a 51       		.byte	0x51
 8826 235b 02       		.uleb128 0x2
 8827 235c 75       		.byte	0x75
 8828 235d 00       		.sleb128 0
 8829 235e 15       		.uleb128 0x15
 8830 235f 01       		.uleb128 0x1
 8831 2360 52       		.byte	0x52
 8832 2361 01       		.uleb128 0x1
 8833 2362 30       		.byte	0x30
 8834 2363 15       		.uleb128 0x15
 8835 2364 01       		.uleb128 0x1
 8836 2365 53       		.byte	0x53
 8837 2366 01       		.uleb128 0x1
 8838 2367 30       		.byte	0x30
 8839 2368 00       		.byte	0
 8840 2369 1C       		.uleb128 0x1c
 8841 236a 40000000 		.4byte	.LVL535
 8842 236e 0C270000 		.4byte	0x270c
 8843 2372 15       		.uleb128 0x15
 8844 2373 01       		.uleb128 0x1
 8845 2374 50       		.byte	0x50
 8846 2375 02       		.uleb128 0x2
 8847 2376 75       		.byte	0x75
 8848 2377 00       		.sleb128 0
 8849 2378 00       		.byte	0
 8850 2379 00       		.byte	0
 8851 237a 1C       		.uleb128 0x1c
 8852 237b 16000000 		.4byte	.LVL527
 8853 237f EB290000 		.4byte	0x29eb
 8854 2383 15       		.uleb128 0x15
 8855 2384 01       		.uleb128 0x1
 8856 2385 50       		.byte	0x50
 8857 2386 02       		.uleb128 0x2
 8858 2387 75       		.byte	0x75
 8859 2388 00       		.sleb128 0
 8860 2389 00       		.byte	0
 8861 238a 00       		.byte	0
 8862 238b 00       		.byte	0
 8863 238c 27       		.uleb128 0x27
 8864 238d C80B0000 		.4byte	.LASF205
ARM GAS  C:\Users\Phuong\AppData\Local\Temp\ccX7yw2d.s 			page 195


 8865 2391 01       		.byte	0x1
 8866 2392 7C05     		.2byte	0x57c
 8867 2394 08050000 		.4byte	0x508
 8868 2398 00000000 		.4byte	.LFB30
 8869 239c 86020000 		.4byte	.LFE30-.LFB30
 8870 23a0 01       		.uleb128 0x1
 8871 23a1 9C       		.byte	0x9c
 8872 23a2 E5260000 		.4byte	0x26e5
 8873 23a6 17       		.uleb128 0x17
 8874 23a7 74130000 		.4byte	.LASF132
 8875 23ab 01       		.byte	0x1
 8876 23ac 7C05     		.2byte	0x57c
 8877 23ae 0F040000 		.4byte	0x40f
 8878 23b2 721E0000 		.4byte	.LLST130
 8879 23b6 17       		.uleb128 0x17
 8880 23b7 70010000 		.4byte	.LASF206
 8881 23bb 01       		.byte	0x1
 8882 23bc 7C05     		.2byte	0x57c
 8883 23be F4020000 		.4byte	0x2f4
 8884 23c2 AC1E0000 		.4byte	.LLST131
 8885 23c6 17       		.uleb128 0x17
 8886 23c7 5B170000 		.4byte	.LASF136
 8887 23cb 01       		.byte	0x1
 8888 23cc 7C05     		.2byte	0x57c
 8889 23ce A0070000 		.4byte	0x7a0
 8890 23d2 331F0000 		.4byte	.LLST132
 8891 23d6 17       		.uleb128 0x17
 8892 23d7 CF160000 		.4byte	.LASF137
 8893 23db 01       		.byte	0x1
 8894 23dc 7C05     		.2byte	0x57c
 8895 23de 25000000 		.4byte	0x25
 8896 23e2 DE200000 		.4byte	.LLST133
 8897 23e6 18       		.uleb128 0x18
 8898 23e7 16070000 		.4byte	.LASF190
 8899 23eb 01       		.byte	0x1
 8900 23ec 7C05     		.2byte	0x57c
 8901 23ee E5260000 		.4byte	0x26e5
 8902 23f2 02       		.uleb128 0x2
 8903 23f3 91       		.byte	0x91
 8904 23f4 00       		.sleb128 0
 8905 23f5 18       		.uleb128 0x18
 8906 23f6 4F0A0000 		.4byte	.LASF207
 8907 23fa 01       		.byte	0x1
 8908 23fb 7C05     		.2byte	0x57c
 8909 23fd 61010000 		.4byte	0x161
 8910 2401 02       		.uleb128 0x2
 8911 2402 91       		.byte	0x91
 8912 2403 04       		.sleb128 4
 8913 2404 18       		.uleb128 0x18
 8914 2405 A60F0000 		.4byte	.LASF96
 8915 2409 01       		.byte	0x1
 8916 240a 7C05     		.2byte	0x57c
 8917 240c 9A000000 		.4byte	0x9a
 8918 2410 02       		.uleb128 0x2
 8919 2411 91       		.byte	0x91
 8920 2412 08       		.sleb128 8
 8921 2413 1A       		.uleb128 0x1a
ARM GAS  C:\Users\Phuong\AppData\Local\Temp\ccX7yw2d.s 			page 196


 8922 2414 9F060000 		.4byte	.LASF129
 8923 2418 01       		.byte	0x1
 8924 2419 7E05     		.2byte	0x57e
 8925 241b 08050000 		.4byte	0x508
 8926 241f 60210000 		.4byte	.LLST134
 8927 2423 1E       		.uleb128 0x1e
 8928 2424 80010000 		.4byte	.Ldebug_ranges0+0x180
 8929 2428 1A       		.uleb128 0x1a
 8930 2429 75050000 		.4byte	.LASF138
 8931 242d 01       		.byte	0x1
 8932 242e 8805     		.2byte	0x588
 8933 2430 E8050000 		.4byte	0x5e8
 8934 2434 96210000 		.4byte	.LLST135
 8935 2438 1A       		.uleb128 0x1a
 8936 2439 AA000000 		.4byte	.LASF128
 8937 243d 01       		.byte	0x1
 8938 243e 8905     		.2byte	0x589
 8939 2440 49060000 		.4byte	0x649
 8940 2444 D0210000 		.4byte	.LLST136
 8941 2448 1E       		.uleb128 0x1e
 8942 2449 98010000 		.4byte	.Ldebug_ranges0+0x198
 8943 244d 1A       		.uleb128 0x1a
 8944 244e 3F000000 		.4byte	.LASF176
 8945 2452 01       		.byte	0x1
 8946 2453 9205     		.2byte	0x592
 8947 2455 25000000 		.4byte	0x25
 8948 2459 1A220000 		.4byte	.LLST137
 8949 245d 19       		.uleb128 0x19
 8950 245e 6900     		.ascii	"i\000"
 8951 2460 01       		.byte	0x1
 8952 2461 9305     		.2byte	0x593
 8953 2463 25000000 		.4byte	0x25
 8954 2467 DD220000 		.4byte	.LLST138
 8955 246b 23       		.uleb128 0x23
 8956 246c B0010000 		.4byte	.Ldebug_ranges0+0x1b0
 8957 2470 A5260000 		.4byte	0x26a5
 8958 2474 1A       		.uleb128 0x1a
 8959 2475 C2090000 		.4byte	.LASF208
 8960 2479 01       		.byte	0x1
 8961 247a B905     		.2byte	0x5b9
 8962 247c CA000000 		.4byte	0xca
 8963 2480 06230000 		.4byte	.LLST139
 8964 2484 21       		.uleb128 0x21
 8965 2485 92000000 		.4byte	.LBB67
 8966 2489 C2010000 		.4byte	.LBE67-.LBB67
 8967 248d 94260000 		.4byte	0x2694
 8968 2491 1D       		.uleb128 0x1d
 8969 2492 F80B0000 		.4byte	.LASF209
 8970 2496 01       		.byte	0x1
 8971 2497 C305     		.2byte	0x5c3
 8972 2499 BF000000 		.4byte	0xbf
 8973 249d 02       		.uleb128 0x2
 8974 249e 91       		.byte	0x91
 8975 249f 50       		.sleb128 -48
 8976 24a0 1D       		.uleb128 0x1d
 8977 24a1 EA000000 		.4byte	.LASF210
 8978 24a5 01       		.byte	0x1
ARM GAS  C:\Users\Phuong\AppData\Local\Temp\ccX7yw2d.s 			page 197


 8979 24a6 C405     		.2byte	0x5c4
 8980 24a8 25000000 		.4byte	0x25
 8981 24ac 02       		.uleb128 0x2
 8982 24ad 91       		.byte	0x91
 8983 24ae 54       		.sleb128 -44
 8984 24af 23       		.uleb128 0x23
 8985 24b0 C8010000 		.4byte	.Ldebug_ranges0+0x1c8
 8986 24b4 22260000 		.4byte	0x2622
 8987 24b8 1A       		.uleb128 0x1a
 8988 24b9 6F070000 		.4byte	.LASF211
 8989 24bd 01       		.byte	0x1
 8990 24be EC05     		.2byte	0x5ec
 8991 24c0 25000000 		.4byte	0x25
 8992 24c4 30230000 		.4byte	.LLST140
 8993 24c8 1A       		.uleb128 0x1a
 8994 24c9 CE0A0000 		.4byte	.LASF212
 8995 24cd 01       		.byte	0x1
 8996 24ce ED05     		.2byte	0x5ed
 8997 24d0 BF000000 		.4byte	0xbf
 8998 24d4 59230000 		.4byte	.LLST141
 8999 24d8 26       		.uleb128 0x26
 9000 24d9 04010000 		.4byte	.LBB69
 9001 24dd 02010000 		.4byte	.LBE69-.LBB69
 9002 24e1 1A       		.uleb128 0x1a
 9003 24e2 2D070000 		.4byte	.LASF213
 9004 24e6 01       		.byte	0x1
 9005 24e7 F205     		.2byte	0x5f2
 9006 24e9 BF000000 		.4byte	0xbf
 9007 24ed 99230000 		.4byte	.LLST142
 9008 24f1 1A       		.uleb128 0x1a
 9009 24f2 9C020000 		.4byte	.LASF214
 9010 24f6 01       		.byte	0x1
 9011 24f7 F305     		.2byte	0x5f3
 9012 24f9 BF000000 		.4byte	0xbf
 9013 24fd DA230000 		.4byte	.LLST143
 9014 2501 1A       		.uleb128 0x1a
 9015 2502 2E0B0000 		.4byte	.LASF215
 9016 2506 01       		.byte	0x1
 9017 2507 F405     		.2byte	0x5f4
 9018 2509 BF000000 		.4byte	0xbf
 9019 250d 10240000 		.4byte	.LLST144
 9020 2511 1A       		.uleb128 0x1a
 9021 2512 B30A0000 		.4byte	.LASF216
 9022 2516 01       		.byte	0x1
 9023 2517 F505     		.2byte	0x5f5
 9024 2519 25000000 		.4byte	0x25
 9025 251d 72240000 		.4byte	.LLST145
 9026 2521 1A       		.uleb128 0x1a
 9027 2522 C0020000 		.4byte	.LASF217
 9028 2526 01       		.byte	0x1
 9029 2527 F605     		.2byte	0x5f6
 9030 2529 BF000000 		.4byte	0xbf
 9031 252d 9B240000 		.4byte	.LLST146
 9032 2531 1A       		.uleb128 0x1a
 9033 2532 DE030000 		.4byte	.LASF218
 9034 2536 01       		.byte	0x1
 9035 2537 F705     		.2byte	0x5f7
ARM GAS  C:\Users\Phuong\AppData\Local\Temp\ccX7yw2d.s 			page 198


 9036 2539 CA000000 		.4byte	0xca
 9037 253d DB240000 		.4byte	.LLST147
 9038 2541 1A       		.uleb128 0x1a
 9039 2542 6F0E0000 		.4byte	.LASF219
 9040 2546 01       		.byte	0x1
 9041 2547 F805     		.2byte	0x5f8
 9042 2549 A0070000 		.4byte	0x7a0
 9043 254d 05250000 		.4byte	.LLST148
 9044 2551 1A       		.uleb128 0x1a
 9045 2552 8E010000 		.4byte	.LASF220
 9046 2556 01       		.byte	0x1
 9047 2557 F905     		.2byte	0x5f9
 9048 2559 2C010000 		.4byte	0x12c
 9049 255d 51250000 		.4byte	.LLST149
 9050 2561 24       		.uleb128 0x24
 9051 2562 22010000 		.4byte	.LVL575
 9052 2566 F6290000 		.4byte	0x29f6
 9053 256a 75250000 		.4byte	0x2575
 9054 256e 15       		.uleb128 0x15
 9055 256f 01       		.uleb128 0x1
 9056 2570 50       		.byte	0x50
 9057 2571 02       		.uleb128 0x2
 9058 2572 79       		.byte	0x79
 9059 2573 00       		.sleb128 0
 9060 2574 00       		.byte	0
 9061 2575 24       		.uleb128 0x24
 9062 2576 2C010000 		.4byte	.LVL576
 9063 257a 012A0000 		.4byte	0x2a01
 9064 257e 89250000 		.4byte	0x2589
 9065 2582 15       		.uleb128 0x15
 9066 2583 01       		.uleb128 0x1
 9067 2584 50       		.byte	0x50
 9068 2585 02       		.uleb128 0x2
 9069 2586 79       		.byte	0x79
 9070 2587 00       		.sleb128 0
 9071 2588 00       		.byte	0
 9072 2589 1B       		.uleb128 0x1b
 9073 258a 62010000 		.4byte	.LVL589
 9074 258e F3270000 		.4byte	0x27f3
 9075 2592 24       		.uleb128 0x24
 9076 2593 70010000 		.4byte	.LVL593
 9077 2597 0C270000 		.4byte	0x270c
 9078 259b A7250000 		.4byte	0x25a7
 9079 259f 15       		.uleb128 0x15
 9080 25a0 01       		.uleb128 0x1
 9081 25a1 50       		.byte	0x50
 9082 25a2 03       		.uleb128 0x3
 9083 25a3 91       		.byte	0x91
 9084 25a4 48       		.sleb128 -56
 9085 25a5 06       		.byte	0x6
 9086 25a6 00       		.byte	0
 9087 25a7 24       		.uleb128 0x24
 9088 25a8 DC010000 		.4byte	.LVL606
 9089 25ac F6260000 		.4byte	0x26f6
 9090 25b0 D2250000 		.4byte	0x25d2
 9091 25b4 15       		.uleb128 0x15
 9092 25b5 01       		.uleb128 0x1
ARM GAS  C:\Users\Phuong\AppData\Local\Temp\ccX7yw2d.s 			page 199


 9093 25b6 51       		.byte	0x51
 9094 25b7 03       		.uleb128 0x3
 9095 25b8 91       		.byte	0x91
 9096 25b9 48       		.sleb128 -56
 9097 25ba 06       		.byte	0x6
 9098 25bb 15       		.uleb128 0x15
 9099 25bc 01       		.uleb128 0x1
 9100 25bd 52       		.byte	0x52
 9101 25be 02       		.uleb128 0x2
 9102 25bf 78       		.byte	0x78
 9103 25c0 00       		.sleb128 0
 9104 25c1 15       		.uleb128 0x15
 9105 25c2 02       		.uleb128 0x2
 9106 25c3 7D       		.byte	0x7d
 9107 25c4 00       		.sleb128 0
 9108 25c5 03       		.uleb128 0x3
 9109 25c6 91       		.byte	0x91
 9110 25c7 04       		.sleb128 4
 9111 25c8 06       		.byte	0x6
 9112 25c9 15       		.uleb128 0x15
 9113 25ca 02       		.uleb128 0x2
 9114 25cb 7D       		.byte	0x7d
 9115 25cc 04       		.sleb128 4
 9116 25cd 03       		.uleb128 0x3
 9117 25ce 91       		.byte	0x91
 9118 25cf 08       		.sleb128 8
 9119 25d0 06       		.byte	0x6
 9120 25d1 00       		.byte	0
 9121 25d2 24       		.uleb128 0x24
 9122 25d3 E8010000 		.4byte	.LVL608
 9123 25d7 EB260000 		.4byte	0x26eb
 9124 25db E6250000 		.4byte	0x25e6
 9125 25df 15       		.uleb128 0x15
 9126 25e0 01       		.uleb128 0x1
 9127 25e1 50       		.byte	0x50
 9128 25e2 02       		.uleb128 0x2
 9129 25e3 78       		.byte	0x78
 9130 25e4 00       		.sleb128 0
 9131 25e5 00       		.byte	0
 9132 25e6 24       		.uleb128 0x24
 9133 25e7 EE010000 		.4byte	.LVL609
 9134 25eb 0C270000 		.4byte	0x270c
 9135 25ef FB250000 		.4byte	0x25fb
 9136 25f3 15       		.uleb128 0x15
 9137 25f4 01       		.uleb128 0x1
 9138 25f5 50       		.byte	0x50
 9139 25f6 03       		.uleb128 0x3
 9140 25f7 91       		.byte	0x91
 9141 25f8 48       		.sleb128 -56
 9142 25f9 06       		.byte	0x6
 9143 25fa 00       		.byte	0
 9144 25fb 24       		.uleb128 0x24
 9145 25fc F6010000 		.4byte	.LVL611
 9146 2600 EB260000 		.4byte	0x26eb
 9147 2604 0F260000 		.4byte	0x260f
 9148 2608 15       		.uleb128 0x15
 9149 2609 01       		.uleb128 0x1
ARM GAS  C:\Users\Phuong\AppData\Local\Temp\ccX7yw2d.s 			page 200


 9150 260a 50       		.byte	0x50
 9151 260b 02       		.uleb128 0x2
 9152 260c 78       		.byte	0x78
 9153 260d 00       		.sleb128 0
 9154 260e 00       		.byte	0
 9155 260f 1C       		.uleb128 0x1c
 9156 2610 FC010000 		.4byte	.LVL612
 9157 2614 0C270000 		.4byte	0x270c
 9158 2618 15       		.uleb128 0x15
 9159 2619 01       		.uleb128 0x1
 9160 261a 50       		.byte	0x50
 9161 261b 03       		.uleb128 0x3
 9162 261c 91       		.byte	0x91
 9163 261d 48       		.sleb128 -56
 9164 261e 06       		.byte	0x6
 9165 261f 00       		.byte	0
 9166 2620 00       		.byte	0
 9167 2621 00       		.byte	0
 9168 2622 24       		.uleb128 0x24
 9169 2623 9A000000 		.4byte	.LVL561
 9170 2627 0C2A0000 		.4byte	0x2a0c
 9171 262b 36260000 		.4byte	0x2636
 9172 262f 15       		.uleb128 0x15
 9173 2630 01       		.uleb128 0x1
 9174 2631 51       		.byte	0x51
 9175 2632 02       		.uleb128 0x2
 9176 2633 91       		.byte	0x91
 9177 2634 50       		.sleb128 -48
 9178 2635 00       		.byte	0
 9179 2636 24       		.uleb128 0x24
 9180 2637 A8000000 		.4byte	.LVL562
 9181 263b 172A0000 		.4byte	0x2a17
 9182 263f 51260000 		.4byte	0x2651
 9183 2643 15       		.uleb128 0x15
 9184 2644 01       		.uleb128 0x1
 9185 2645 50       		.byte	0x50
 9186 2646 03       		.uleb128 0x3
 9187 2647 91       		.byte	0x91
 9188 2648 4C       		.sleb128 -52
 9189 2649 06       		.byte	0x6
 9190 264a 15       		.uleb128 0x15
 9191 264b 01       		.uleb128 0x1
 9192 264c 51       		.byte	0x51
 9193 264d 02       		.uleb128 0x2
 9194 264e 91       		.byte	0x91
 9195 264f 54       		.sleb128 -44
 9196 2650 00       		.byte	0
 9197 2651 24       		.uleb128 0x24
 9198 2652 E8000000 		.4byte	.LVL568
 9199 2656 F6260000 		.4byte	0x26f6
 9200 265a 82260000 		.4byte	0x2682
 9201 265e 15       		.uleb128 0x15
 9202 265f 01       		.uleb128 0x1
 9203 2660 51       		.byte	0x51
 9204 2661 03       		.uleb128 0x3
 9205 2662 91       		.byte	0x91
 9206 2663 4C       		.sleb128 -52
ARM GAS  C:\Users\Phuong\AppData\Local\Temp\ccX7yw2d.s 			page 201


 9207 2664 06       		.byte	0x6
 9208 2665 15       		.uleb128 0x15
 9209 2666 01       		.uleb128 0x1
 9210 2667 52       		.byte	0x52
 9211 2668 02       		.uleb128 0x2
 9212 2669 74       		.byte	0x74
 9213 266a 00       		.sleb128 0
 9214 266b 15       		.uleb128 0x15
 9215 266c 01       		.uleb128 0x1
 9216 266d 53       		.byte	0x53
 9217 266e 02       		.uleb128 0x2
 9218 266f 77       		.byte	0x77
 9219 2670 00       		.sleb128 0
 9220 2671 15       		.uleb128 0x15
 9221 2672 02       		.uleb128 0x2
 9222 2673 7D       		.byte	0x7d
 9223 2674 00       		.sleb128 0
 9224 2675 03       		.uleb128 0x3
 9225 2676 91       		.byte	0x91
 9226 2677 04       		.sleb128 4
 9227 2678 06       		.byte	0x6
 9228 2679 15       		.uleb128 0x15
 9229 267a 02       		.uleb128 0x2
 9230 267b 7D       		.byte	0x7d
 9231 267c 04       		.sleb128 4
 9232 267d 03       		.uleb128 0x3
 9233 267e 91       		.byte	0x91
 9234 267f 08       		.sleb128 8
 9235 2680 06       		.byte	0x6
 9236 2681 00       		.byte	0
 9237 2682 1C       		.uleb128 0x1c
 9238 2683 52020000 		.4byte	.LVL635
 9239 2687 0C270000 		.4byte	0x270c
 9240 268b 15       		.uleb128 0x15
 9241 268c 01       		.uleb128 0x1
 9242 268d 50       		.byte	0x50
 9243 268e 03       		.uleb128 0x3
 9244 268f 91       		.byte	0x91
 9245 2690 4C       		.sleb128 -52
 9246 2691 06       		.byte	0x6
 9247 2692 00       		.byte	0
 9248 2693 00       		.byte	0
 9249 2694 1C       		.uleb128 0x1c
 9250 2695 8A000000 		.4byte	.LVL558
 9251 2699 012A0000 		.4byte	0x2a01
 9252 269d 15       		.uleb128 0x15
 9253 269e 01       		.uleb128 0x1
 9254 269f 50       		.byte	0x50
 9255 26a0 02       		.uleb128 0x2
 9256 26a1 75       		.byte	0x75
 9257 26a2 00       		.sleb128 0
 9258 26a3 00       		.byte	0
 9259 26a4 00       		.byte	0
 9260 26a5 24       		.uleb128 0x24
 9261 26a6 60000000 		.4byte	.LVL555
 9262 26aa 222A0000 		.4byte	0x2a22
 9263 26ae B9260000 		.4byte	0x26b9
ARM GAS  C:\Users\Phuong\AppData\Local\Temp\ccX7yw2d.s 			page 202


 9264 26b2 15       		.uleb128 0x15
 9265 26b3 01       		.uleb128 0x1
 9266 26b4 50       		.byte	0x50
 9267 26b5 02       		.uleb128 0x2
 9268 26b6 75       		.byte	0x75
 9269 26b7 00       		.sleb128 0
 9270 26b8 00       		.byte	0
 9271 26b9 24       		.uleb128 0x24
 9272 26ba 70000000 		.4byte	.LVL556
 9273 26be 2D2A0000 		.4byte	0x2a2d
 9274 26c2 CD260000 		.4byte	0x26cd
 9275 26c6 15       		.uleb128 0x15
 9276 26c7 01       		.uleb128 0x1
 9277 26c8 50       		.byte	0x50
 9278 26c9 02       		.uleb128 0x2
 9279 26ca 75       		.byte	0x75
 9280 26cb 00       		.sleb128 0
 9281 26cc 00       		.byte	0
 9282 26cd 1C       		.uleb128 0x1c
 9283 26ce 7E000000 		.4byte	.LVL557
 9284 26d2 F6290000 		.4byte	0x29f6
 9285 26d6 15       		.uleb128 0x15
 9286 26d7 01       		.uleb128 0x1
 9287 26d8 50       		.byte	0x50
 9288 26d9 02       		.uleb128 0x2
 9289 26da 75       		.byte	0x75
 9290 26db 00       		.sleb128 0
 9291 26dc 15       		.uleb128 0x15
 9292 26dd 01       		.uleb128 0x1
 9293 26de 51       		.byte	0x51
 9294 26df 01       		.uleb128 0x1
 9295 26e0 30       		.byte	0x30
 9296 26e1 00       		.byte	0
 9297 26e2 00       		.byte	0
 9298 26e3 00       		.byte	0
 9299 26e4 00       		.byte	0
 9300 26e5 06       		.uleb128 0x6
 9301 26e6 04       		.byte	0x4
 9302 26e7 86020000 		.4byte	0x286
 9303 26eb 2B       		.uleb128 0x2b
 9304 26ec 9F090000 		.4byte	.LASF221
 9305 26f0 9F090000 		.4byte	.LASF221
 9306 26f4 17       		.byte	0x17
 9307 26f5 59       		.byte	0x59
 9308 26f6 2B       		.uleb128 0x2b
 9309 26f7 EA040000 		.4byte	.LASF222
 9310 26fb EA040000 		.4byte	.LASF222
 9311 26ff 09       		.byte	0x9
 9312 2700 65       		.byte	0x65
 9313 2701 2B       		.uleb128 0x2b
 9314 2702 3B0B0000 		.4byte	.LASF223
 9315 2706 3B0B0000 		.4byte	.LASF223
 9316 270a 15       		.byte	0x15
 9317 270b 1F       		.byte	0x1f
 9318 270c 2B       		.uleb128 0x2b
 9319 270d EF0E0000 		.4byte	.LASF224
 9320 2711 EF0E0000 		.4byte	.LASF224
ARM GAS  C:\Users\Phuong\AppData\Local\Temp\ccX7yw2d.s 			page 203


 9321 2715 05       		.byte	0x5
 9322 2716 55       		.byte	0x55
 9323 2717 2B       		.uleb128 0x2b
 9324 2718 79010000 		.4byte	.LASF225
 9325 271c 79010000 		.4byte	.LASF225
 9326 2720 15       		.byte	0x15
 9327 2721 2A       		.byte	0x2a
 9328 2722 2B       		.uleb128 0x2b
 9329 2723 F7080000 		.4byte	.LASF226
 9330 2727 F7080000 		.4byte	.LASF226
 9331 272b 09       		.byte	0x9
 9332 272c 63       		.byte	0x63
 9333 272d 2B       		.uleb128 0x2b
 9334 272e 7B110000 		.4byte	.LASF227
 9335 2732 7B110000 		.4byte	.LASF227
 9336 2736 15       		.byte	0x15
 9337 2737 22       		.byte	0x22
 9338 2738 2B       		.uleb128 0x2b
 9339 2739 9C120000 		.4byte	.LASF228
 9340 273d 9C120000 		.4byte	.LASF228
 9341 2741 15       		.byte	0x15
 9342 2742 1C       		.byte	0x1c
 9343 2743 2B       		.uleb128 0x2b
 9344 2744 14040000 		.4byte	.LASF229
 9345 2748 14040000 		.4byte	.LASF229
 9346 274c 15       		.byte	0x15
 9347 274d 1A       		.byte	0x1a
 9348 274e 2B       		.uleb128 0x2b
 9349 274f 54170000 		.4byte	.LASF230
 9350 2753 54170000 		.4byte	.LASF230
 9351 2757 18       		.byte	0x18
 9352 2758 1C       		.byte	0x1c
 9353 2759 2B       		.uleb128 0x2b
 9354 275a F5120000 		.4byte	.LASF231
 9355 275e F5120000 		.4byte	.LASF231
 9356 2762 18       		.byte	0x18
 9357 2763 18       		.byte	0x18
 9358 2764 2B       		.uleb128 0x2b
 9359 2765 46150000 		.4byte	.LASF232
 9360 2769 46150000 		.4byte	.LASF232
 9361 276d 17       		.byte	0x17
 9362 276e 89       		.byte	0x89
 9363 276f 2B       		.uleb128 0x2b
 9364 2770 F30C0000 		.4byte	.LASF233
 9365 2774 F30C0000 		.4byte	.LASF233
 9366 2778 10       		.byte	0x10
 9367 2779 1F       		.byte	0x1f
 9368 277a 2B       		.uleb128 0x2b
 9369 277b 8E080000 		.4byte	.LASF234
 9370 277f 8E080000 		.4byte	.LASF234
 9371 2783 10       		.byte	0x10
 9372 2784 1A       		.byte	0x1a
 9373 2785 2B       		.uleb128 0x2b
 9374 2786 74080000 		.4byte	.LASF235
 9375 278a 74080000 		.4byte	.LASF235
 9376 278e 10       		.byte	0x10
 9377 278f 22       		.byte	0x22
ARM GAS  C:\Users\Phuong\AppData\Local\Temp\ccX7yw2d.s 			page 204


 9378 2790 2B       		.uleb128 0x2b
 9379 2791 F1020000 		.4byte	.LASF236
 9380 2795 F1020000 		.4byte	.LASF236
 9381 2799 10       		.byte	0x10
 9382 279a 1C       		.byte	0x1c
 9383 279b 2B       		.uleb128 0x2b
 9384 279c A6040000 		.4byte	.LASF237
 9385 27a0 A6040000 		.4byte	.LASF237
 9386 27a4 16       		.byte	0x16
 9387 27a5 1F       		.byte	0x1f
 9388 27a6 2B       		.uleb128 0x2b
 9389 27a7 19000000 		.4byte	.LASF238
 9390 27ab 19000000 		.4byte	.LASF238
 9391 27af 16       		.byte	0x16
 9392 27b0 1A       		.byte	0x1a
 9393 27b1 2B       		.uleb128 0x2b
 9394 27b2 44040000 		.4byte	.LASF239
 9395 27b6 44040000 		.4byte	.LASF239
 9396 27ba 16       		.byte	0x16
 9397 27bb 22       		.byte	0x22
 9398 27bc 2B       		.uleb128 0x2b
 9399 27bd 00000000 		.4byte	.LASF240
 9400 27c1 00000000 		.4byte	.LASF240
 9401 27c5 16       		.byte	0x16
 9402 27c6 1C       		.byte	0x1c
 9403 27c7 2B       		.uleb128 0x2b
 9404 27c8 C0110000 		.4byte	.LASF241
 9405 27cc C0110000 		.4byte	.LASF241
 9406 27d0 08       		.byte	0x8
 9407 27d1 1A       		.byte	0x1a
 9408 27d2 2B       		.uleb128 0x2b
 9409 27d3 99160000 		.4byte	.LASF242
 9410 27d7 99160000 		.4byte	.LASF242
 9411 27db 09       		.byte	0x9
 9412 27dc 54       		.byte	0x54
 9413 27dd 2B       		.uleb128 0x2b
 9414 27de 6F0B0000 		.4byte	.LASF243
 9415 27e2 6F0B0000 		.4byte	.LASF243
 9416 27e6 08       		.byte	0x8
 9417 27e7 24       		.byte	0x24
 9418 27e8 2B       		.uleb128 0x2b
 9419 27e9 0C0A0000 		.4byte	.LASF244
 9420 27ed 0C0A0000 		.4byte	.LASF244
 9421 27f1 08       		.byte	0x8
 9422 27f2 1C       		.byte	0x1c
 9423 27f3 2B       		.uleb128 0x2b
 9424 27f4 49060000 		.4byte	.LASF245
 9425 27f8 49060000 		.4byte	.LASF245
 9426 27fc 17       		.byte	0x17
 9427 27fd 64       		.byte	0x64
 9428 27fe 2B       		.uleb128 0x2b
 9429 27ff 570D0000 		.4byte	.LASF246
 9430 2803 570D0000 		.4byte	.LASF246
 9431 2807 09       		.byte	0x9
 9432 2808 61       		.byte	0x61
 9433 2809 2B       		.uleb128 0x2b
 9434 280a D1090000 		.4byte	.LASF247
ARM GAS  C:\Users\Phuong\AppData\Local\Temp\ccX7yw2d.s 			page 205


 9435 280e D1090000 		.4byte	.LASF247
 9436 2812 09       		.byte	0x9
 9437 2813 62       		.byte	0x62
 9438 2814 2B       		.uleb128 0x2b
 9439 2815 8C120000 		.4byte	.LASF248
 9440 2819 8C120000 		.4byte	.LASF248
 9441 281d 09       		.byte	0x9
 9442 281e 52       		.byte	0x52
 9443 281f 2B       		.uleb128 0x2b
 9444 2820 84140000 		.4byte	.LASF249
 9445 2824 84140000 		.4byte	.LASF249
 9446 2828 09       		.byte	0x9
 9447 2829 64       		.byte	0x64
 9448 282a 2C       		.uleb128 0x2c
 9449 282b 9F040000 		.4byte	.LASF301
 9450 282f 9F040000 		.4byte	.LASF301
 9451 2833 2B       		.uleb128 0x2b
 9452 2834 C90E0000 		.4byte	.LASF250
 9453 2838 C90E0000 		.4byte	.LASF250
 9454 283c 18       		.byte	0x18
 9455 283d 21       		.byte	0x21
 9456 283e 2B       		.uleb128 0x2b
 9457 283f 8B040000 		.4byte	.LASF251
 9458 2843 8B040000 		.4byte	.LASF251
 9459 2847 15       		.byte	0x15
 9460 2848 1E       		.byte	0x1e
 9461 2849 2B       		.uleb128 0x2b
 9462 284a 36050000 		.4byte	.LASF252
 9463 284e 36050000 		.4byte	.LASF252
 9464 2852 15       		.byte	0x15
 9465 2853 25       		.byte	0x25
 9466 2854 2B       		.uleb128 0x2b
 9467 2855 24000000 		.4byte	.LASF253
 9468 2859 24000000 		.4byte	.LASF253
 9469 285d 15       		.byte	0x15
 9470 285e 23       		.byte	0x23
 9471 285f 2B       		.uleb128 0x2b
 9472 2860 B8010000 		.4byte	.LASF254
 9473 2864 B8010000 		.4byte	.LASF254
 9474 2868 11       		.byte	0x11
 9475 2869 23       		.byte	0x23
 9476 286a 2B       		.uleb128 0x2b
 9477 286b 7A150000 		.4byte	.LASF255
 9478 286f 7A150000 		.4byte	.LASF255
 9479 2873 11       		.byte	0x11
 9480 2874 2B       		.byte	0x2b
 9481 2875 2B       		.uleb128 0x2b
 9482 2876 47140000 		.4byte	.LASF256
 9483 287a 47140000 		.4byte	.LASF256
 9484 287e 11       		.byte	0x11
 9485 287f 2D       		.byte	0x2d
 9486 2880 2B       		.uleb128 0x2b
 9487 2881 79090000 		.4byte	.LASF257
 9488 2885 79090000 		.4byte	.LASF257
 9489 2889 11       		.byte	0x11
 9490 288a 21       		.byte	0x21
 9491 288b 2B       		.uleb128 0x2b
ARM GAS  C:\Users\Phuong\AppData\Local\Temp\ccX7yw2d.s 			page 206


 9492 288c 2D030000 		.4byte	.LASF258
 9493 2890 2D030000 		.4byte	.LASF258
 9494 2894 11       		.byte	0x11
 9495 2895 25       		.byte	0x25
 9496 2896 2B       		.uleb128 0x2b
 9497 2897 8A160000 		.4byte	.LASF259
 9498 289b 8A160000 		.4byte	.LASF259
 9499 289f 11       		.byte	0x11
 9500 28a0 1C       		.byte	0x1c
 9501 28a1 2B       		.uleb128 0x2b
 9502 28a2 CD110000 		.4byte	.LASF260
 9503 28a6 CD110000 		.4byte	.LASF260
 9504 28aa 11       		.byte	0x11
 9505 28ab 1E       		.byte	0x1e
 9506 28ac 2B       		.uleb128 0x2b
 9507 28ad 720D0000 		.4byte	.LASF261
 9508 28b1 720D0000 		.4byte	.LASF261
 9509 28b5 12       		.byte	0x12
 9510 28b6 1C       		.byte	0x1c
 9511 28b7 2B       		.uleb128 0x2b
 9512 28b8 62160000 		.4byte	.LASF262
 9513 28bc 62160000 		.4byte	.LASF262
 9514 28c0 12       		.byte	0x12
 9515 28c1 21       		.byte	0x21
 9516 28c2 2B       		.uleb128 0x2b
 9517 28c3 7F030000 		.4byte	.LASF263
 9518 28c7 7F030000 		.4byte	.LASF263
 9519 28cb 12       		.byte	0x12
 9520 28cc 1E       		.byte	0x1e
 9521 28cd 2B       		.uleb128 0x2b
 9522 28ce 8C020000 		.4byte	.LASF264
 9523 28d2 8C020000 		.4byte	.LASF264
 9524 28d6 10       		.byte	0x10
 9525 28d7 29       		.byte	0x29
 9526 28d8 2B       		.uleb128 0x2b
 9527 28d9 BB130000 		.4byte	.LASF265
 9528 28dd BB130000 		.4byte	.LASF265
 9529 28e1 10       		.byte	0x10
 9530 28e2 21       		.byte	0x21
 9531 28e3 2B       		.uleb128 0x2b
 9532 28e4 72120000 		.4byte	.LASF266
 9533 28e8 72120000 		.4byte	.LASF266
 9534 28ec 10       		.byte	0x10
 9535 28ed 25       		.byte	0x25
 9536 28ee 2B       		.uleb128 0x2b
 9537 28ef 0B160000 		.4byte	.LASF267
 9538 28f3 0B160000 		.4byte	.LASF267
 9539 28f7 10       		.byte	0x10
 9540 28f8 23       		.byte	0x23
 9541 28f9 2B       		.uleb128 0x2b
 9542 28fa 6C030000 		.4byte	.LASF268
 9543 28fe 6C030000 		.4byte	.LASF268
 9544 2902 10       		.byte	0x10
 9545 2903 1E       		.byte	0x1e
 9546 2904 2B       		.uleb128 0x2b
 9547 2905 91130000 		.4byte	.LASF269
 9548 2909 91130000 		.4byte	.LASF269
ARM GAS  C:\Users\Phuong\AppData\Local\Temp\ccX7yw2d.s 			page 207


 9549 290d 13       		.byte	0x13
 9550 290e 1C       		.byte	0x1c
 9551 290f 2B       		.uleb128 0x2b
 9552 2910 F3110000 		.4byte	.LASF270
 9553 2914 F3110000 		.4byte	.LASF270
 9554 2918 13       		.byte	0x13
 9555 2919 23       		.byte	0x23
 9556 291a 2B       		.uleb128 0x2b
 9557 291b AF0B0000 		.4byte	.LASF271
 9558 291f AF0B0000 		.4byte	.LASF271
 9559 2923 13       		.byte	0x13
 9560 2924 21       		.byte	0x21
 9561 2925 2B       		.uleb128 0x2b
 9562 2926 0A130000 		.4byte	.LASF272
 9563 292a 0A130000 		.4byte	.LASF272
 9564 292e 13       		.byte	0x13
 9565 292f 1E       		.byte	0x1e
 9566 2930 2B       		.uleb128 0x2b
 9567 2931 580C0000 		.4byte	.LASF273
 9568 2935 580C0000 		.4byte	.LASF273
 9569 2939 16       		.byte	0x16
 9570 293a 1E       		.byte	0x1e
 9571 293b 2B       		.uleb128 0x2b
 9572 293c 50060000 		.4byte	.LASF274
 9573 2940 50060000 		.4byte	.LASF274
 9574 2944 05       		.byte	0x5
 9575 2945 69       		.byte	0x69
 9576 2946 2B       		.uleb128 0x2b
 9577 2947 50030000 		.4byte	.LASF275
 9578 294b 50030000 		.4byte	.LASF275
 9579 294f 15       		.byte	0x15
 9580 2950 1D       		.byte	0x1d
 9581 2951 2B       		.uleb128 0x2b
 9582 2952 57080000 		.4byte	.LASF276
 9583 2956 57080000 		.4byte	.LASF276
 9584 295a 11       		.byte	0x11
 9585 295b 1D       		.byte	0x1d
 9586 295c 2B       		.uleb128 0x2b
 9587 295d 090D0000 		.4byte	.LASF277
 9588 2961 090D0000 		.4byte	.LASF277
 9589 2965 12       		.byte	0x12
 9590 2966 1D       		.byte	0x1d
 9591 2967 2B       		.uleb128 0x2b
 9592 2968 4D0F0000 		.4byte	.LASF278
 9593 296c 4D0F0000 		.4byte	.LASF278
 9594 2970 10       		.byte	0x10
 9595 2971 1D       		.byte	0x1d
 9596 2972 2B       		.uleb128 0x2b
 9597 2973 D00E0000 		.4byte	.LASF279
 9598 2977 D00E0000 		.4byte	.LASF279
 9599 297b 13       		.byte	0x13
 9600 297c 1D       		.byte	0x1d
 9601 297d 2B       		.uleb128 0x2b
 9602 297e 24150000 		.4byte	.LASF280
 9603 2982 24150000 		.4byte	.LASF280
 9604 2986 0E       		.byte	0xe
 9605 2987 1D       		.byte	0x1d
ARM GAS  C:\Users\Phuong\AppData\Local\Temp\ccX7yw2d.s 			page 208


 9606 2988 2B       		.uleb128 0x2b
 9607 2989 E70A0000 		.4byte	.LASF281
 9608 298d E70A0000 		.4byte	.LASF281
 9609 2991 16       		.byte	0x16
 9610 2992 1D       		.byte	0x1d
 9611 2993 2B       		.uleb128 0x2b
 9612 2994 50050000 		.4byte	.LASF282
 9613 2998 50050000 		.4byte	.LASF282
 9614 299c 10       		.byte	0x10
 9615 299d 24       		.byte	0x24
 9616 299e 2B       		.uleb128 0x2b
 9617 299f 48160000 		.4byte	.LASF283
 9618 29a3 48160000 		.4byte	.LASF283
 9619 29a7 10       		.byte	0x10
 9620 29a8 26       		.byte	0x26
 9621 29a9 2B       		.uleb128 0x2b
 9622 29aa 7F000000 		.4byte	.LASF284
 9623 29ae 7F000000 		.4byte	.LASF284
 9624 29b2 10       		.byte	0x10
 9625 29b3 28       		.byte	0x28
 9626 29b4 2B       		.uleb128 0x2b
 9627 29b5 400E0000 		.4byte	.LASF285
 9628 29b9 400E0000 		.4byte	.LASF285
 9629 29bd 10       		.byte	0x10
 9630 29be 2A       		.byte	0x2a
 9631 29bf 2B       		.uleb128 0x2b
 9632 29c0 B10E0000 		.4byte	.LASF286
 9633 29c4 B10E0000 		.4byte	.LASF286
 9634 29c8 11       		.byte	0x11
 9635 29c9 1F       		.byte	0x1f
 9636 29ca 2B       		.uleb128 0x2b
 9637 29cb 98150000 		.4byte	.LASF287
 9638 29cf 98150000 		.4byte	.LASF287
 9639 29d3 11       		.byte	0x11
 9640 29d4 24       		.byte	0x24
 9641 29d5 2B       		.uleb128 0x2b
 9642 29d6 94030000 		.4byte	.LASF288
 9643 29da 94030000 		.4byte	.LASF288
 9644 29de 0E       		.byte	0xe
 9645 29df 1F       		.byte	0x1f
 9646 29e0 2B       		.uleb128 0x2b
 9647 29e1 C90F0000 		.4byte	.LASF289
 9648 29e5 C90F0000 		.4byte	.LASF289
 9649 29e9 12       		.byte	0x12
 9650 29ea 1F       		.byte	0x1f
 9651 29eb 2B       		.uleb128 0x2b
 9652 29ec 98000000 		.4byte	.LASF290
 9653 29f0 98000000 		.4byte	.LASF290
 9654 29f4 12       		.byte	0x12
 9655 29f5 22       		.byte	0x22
 9656 29f6 2B       		.uleb128 0x2b
 9657 29f7 850A0000 		.4byte	.LASF291
 9658 29fb 850A0000 		.4byte	.LASF291
 9659 29ff 13       		.byte	0x13
 9660 2a00 2C       		.byte	0x2c
 9661 2a01 2B       		.uleb128 0x2b
 9662 2a02 C4030000 		.4byte	.LASF292
ARM GAS  C:\Users\Phuong\AppData\Local\Temp\ccX7yw2d.s 			page 209


 9663 2a06 C4030000 		.4byte	.LASF292
 9664 2a0a 13       		.byte	0x13
 9665 2a0b 1F       		.byte	0x1f
 9666 2a0c 2B       		.uleb128 0x2b
 9667 2a0d 810F0000 		.4byte	.LASF293
 9668 2a11 810F0000 		.4byte	.LASF293
 9669 2a15 09       		.byte	0x9
 9670 2a16 5D       		.byte	0x5d
 9671 2a17 2B       		.uleb128 0x2b
 9672 2a18 940B0000 		.4byte	.LASF294
 9673 2a1c 940B0000 		.4byte	.LASF294
 9674 2a20 05       		.byte	0x5
 9675 2a21 5E       		.byte	0x5e
 9676 2a22 2B       		.uleb128 0x2b
 9677 2a23 4A070000 		.4byte	.LASF295
 9678 2a27 4A070000 		.4byte	.LASF295
 9679 2a2b 13       		.byte	0x13
 9680 2a2c 22       		.byte	0x22
 9681 2a2d 2B       		.uleb128 0x2b
 9682 2a2e 760C0000 		.4byte	.LASF296
 9683 2a32 760C0000 		.4byte	.LASF296
 9684 2a36 13       		.byte	0x13
 9685 2a37 24       		.byte	0x24
 9686 2a38 00       		.byte	0
 9687              		.section	.debug_abbrev,"",%progbits
 9688              	.Ldebug_abbrev0:
 9689 0000 01       		.uleb128 0x1
 9690 0001 11       		.uleb128 0x11
 9691 0002 01       		.byte	0x1
 9692 0003 25       		.uleb128 0x25
 9693 0004 0E       		.uleb128 0xe
 9694 0005 13       		.uleb128 0x13
 9695 0006 0B       		.uleb128 0xb
 9696 0007 03       		.uleb128 0x3
 9697 0008 0E       		.uleb128 0xe
 9698 0009 1B       		.uleb128 0x1b
 9699 000a 0E       		.uleb128 0xe
 9700 000b 55       		.uleb128 0x55
 9701 000c 17       		.uleb128 0x17
 9702 000d 11       		.uleb128 0x11
 9703 000e 01       		.uleb128 0x1
 9704 000f 10       		.uleb128 0x10
 9705 0010 17       		.uleb128 0x17
 9706 0011 00       		.byte	0
 9707 0012 00       		.byte	0
 9708 0013 02       		.uleb128 0x2
 9709 0014 16       		.uleb128 0x16
 9710 0015 00       		.byte	0
 9711 0016 03       		.uleb128 0x3
 9712 0017 0E       		.uleb128 0xe
 9713 0018 3A       		.uleb128 0x3a
 9714 0019 0B       		.uleb128 0xb
 9715 001a 3B       		.uleb128 0x3b
 9716 001b 0B       		.uleb128 0xb
 9717 001c 49       		.uleb128 0x49
 9718 001d 13       		.uleb128 0x13
 9719 001e 00       		.byte	0
ARM GAS  C:\Users\Phuong\AppData\Local\Temp\ccX7yw2d.s 			page 210


 9720 001f 00       		.byte	0
 9721 0020 03       		.uleb128 0x3
 9722 0021 24       		.uleb128 0x24
 9723 0022 00       		.byte	0
 9724 0023 0B       		.uleb128 0xb
 9725 0024 0B       		.uleb128 0xb
 9726 0025 3E       		.uleb128 0x3e
 9727 0026 0B       		.uleb128 0xb
 9728 0027 03       		.uleb128 0x3
 9729 0028 0E       		.uleb128 0xe
 9730 0029 00       		.byte	0
 9731 002a 00       		.byte	0
 9732 002b 04       		.uleb128 0x4
 9733 002c 24       		.uleb128 0x24
 9734 002d 00       		.byte	0
 9735 002e 0B       		.uleb128 0xb
 9736 002f 0B       		.uleb128 0xb
 9737 0030 3E       		.uleb128 0x3e
 9738 0031 0B       		.uleb128 0xb
 9739 0032 03       		.uleb128 0x3
 9740 0033 08       		.uleb128 0x8
 9741 0034 00       		.byte	0
 9742 0035 00       		.byte	0
 9743 0036 05       		.uleb128 0x5
 9744 0037 0F       		.uleb128 0xf
 9745 0038 00       		.byte	0
 9746 0039 0B       		.uleb128 0xb
 9747 003a 0B       		.uleb128 0xb
 9748 003b 00       		.byte	0
 9749 003c 00       		.byte	0
 9750 003d 06       		.uleb128 0x6
 9751 003e 0F       		.uleb128 0xf
 9752 003f 00       		.byte	0
 9753 0040 0B       		.uleb128 0xb
 9754 0041 0B       		.uleb128 0xb
 9755 0042 49       		.uleb128 0x49
 9756 0043 13       		.uleb128 0x13
 9757 0044 00       		.byte	0
 9758 0045 00       		.byte	0
 9759 0046 07       		.uleb128 0x7
 9760 0047 26       		.uleb128 0x26
 9761 0048 00       		.byte	0
 9762 0049 49       		.uleb128 0x49
 9763 004a 13       		.uleb128 0x13
 9764 004b 00       		.byte	0
 9765 004c 00       		.byte	0
 9766 004d 08       		.uleb128 0x8
 9767 004e 13       		.uleb128 0x13
 9768 004f 00       		.byte	0
 9769 0050 03       		.uleb128 0x3
 9770 0051 0E       		.uleb128 0xe
 9771 0052 3C       		.uleb128 0x3c
 9772 0053 19       		.uleb128 0x19
 9773 0054 00       		.byte	0
 9774 0055 00       		.byte	0
 9775 0056 09       		.uleb128 0x9
 9776 0057 13       		.uleb128 0x13
ARM GAS  C:\Users\Phuong\AppData\Local\Temp\ccX7yw2d.s 			page 211


 9777 0058 01       		.byte	0x1
 9778 0059 03       		.uleb128 0x3
 9779 005a 0E       		.uleb128 0xe
 9780 005b 0B       		.uleb128 0xb
 9781 005c 0B       		.uleb128 0xb
 9782 005d 3A       		.uleb128 0x3a
 9783 005e 0B       		.uleb128 0xb
 9784 005f 3B       		.uleb128 0x3b
 9785 0060 0B       		.uleb128 0xb
 9786 0061 01       		.uleb128 0x1
 9787 0062 13       		.uleb128 0x13
 9788 0063 00       		.byte	0
 9789 0064 00       		.byte	0
 9790 0065 0A       		.uleb128 0xa
 9791 0066 0D       		.uleb128 0xd
 9792 0067 00       		.byte	0
 9793 0068 03       		.uleb128 0x3
 9794 0069 0E       		.uleb128 0xe
 9795 006a 3A       		.uleb128 0x3a
 9796 006b 0B       		.uleb128 0xb
 9797 006c 3B       		.uleb128 0x3b
 9798 006d 0B       		.uleb128 0xb
 9799 006e 49       		.uleb128 0x49
 9800 006f 13       		.uleb128 0x13
 9801 0070 38       		.uleb128 0x38
 9802 0071 0B       		.uleb128 0xb
 9803 0072 00       		.byte	0
 9804 0073 00       		.byte	0
 9805 0074 0B       		.uleb128 0xb
 9806 0075 15       		.uleb128 0x15
 9807 0076 01       		.byte	0x1
 9808 0077 27       		.uleb128 0x27
 9809 0078 19       		.uleb128 0x19
 9810 0079 01       		.uleb128 0x1
 9811 007a 13       		.uleb128 0x13
 9812 007b 00       		.byte	0
 9813 007c 00       		.byte	0
 9814 007d 0C       		.uleb128 0xc
 9815 007e 05       		.uleb128 0x5
 9816 007f 00       		.byte	0
 9817 0080 49       		.uleb128 0x49
 9818 0081 13       		.uleb128 0x13
 9819 0082 00       		.byte	0
 9820 0083 00       		.byte	0
 9821 0084 0D       		.uleb128 0xd
 9822 0085 04       		.uleb128 0x4
 9823 0086 01       		.byte	0x1
 9824 0087 03       		.uleb128 0x3
 9825 0088 0E       		.uleb128 0xe
 9826 0089 0B       		.uleb128 0xb
 9827 008a 0B       		.uleb128 0xb
 9828 008b 49       		.uleb128 0x49
 9829 008c 13       		.uleb128 0x13
 9830 008d 3A       		.uleb128 0x3a
 9831 008e 0B       		.uleb128 0xb
 9832 008f 3B       		.uleb128 0x3b
 9833 0090 0B       		.uleb128 0xb
ARM GAS  C:\Users\Phuong\AppData\Local\Temp\ccX7yw2d.s 			page 212


 9834 0091 01       		.uleb128 0x1
 9835 0092 13       		.uleb128 0x13
 9836 0093 00       		.byte	0
 9837 0094 00       		.byte	0
 9838 0095 0E       		.uleb128 0xe
 9839 0096 28       		.uleb128 0x28
 9840 0097 00       		.byte	0
 9841 0098 03       		.uleb128 0x3
 9842 0099 0E       		.uleb128 0xe
 9843 009a 1C       		.uleb128 0x1c
 9844 009b 0B       		.uleb128 0xb
 9845 009c 00       		.byte	0
 9846 009d 00       		.byte	0
 9847 009e 0F       		.uleb128 0xf
 9848 009f 0D       		.uleb128 0xd
 9849 00a0 00       		.byte	0
 9850 00a1 03       		.uleb128 0x3
 9851 00a2 0E       		.uleb128 0xe
 9852 00a3 3A       		.uleb128 0x3a
 9853 00a4 0B       		.uleb128 0xb
 9854 00a5 3B       		.uleb128 0x3b
 9855 00a6 0B       		.uleb128 0xb
 9856 00a7 49       		.uleb128 0x49
 9857 00a8 13       		.uleb128 0x13
 9858 00a9 0B       		.uleb128 0xb
 9859 00aa 0B       		.uleb128 0xb
 9860 00ab 0D       		.uleb128 0xd
 9861 00ac 0B       		.uleb128 0xb
 9862 00ad 0C       		.uleb128 0xc
 9863 00ae 0B       		.uleb128 0xb
 9864 00af 38       		.uleb128 0x38
 9865 00b0 0B       		.uleb128 0xb
 9866 00b1 00       		.byte	0
 9867 00b2 00       		.byte	0
 9868 00b3 10       		.uleb128 0x10
 9869 00b4 15       		.uleb128 0x15
 9870 00b5 01       		.byte	0x1
 9871 00b6 27       		.uleb128 0x27
 9872 00b7 19       		.uleb128 0x19
 9873 00b8 49       		.uleb128 0x49
 9874 00b9 13       		.uleb128 0x13
 9875 00ba 01       		.uleb128 0x1
 9876 00bb 13       		.uleb128 0x13
 9877 00bc 00       		.byte	0
 9878 00bd 00       		.byte	0
 9879 00be 11       		.uleb128 0x11
 9880 00bf 2E       		.uleb128 0x2e
 9881 00c0 01       		.byte	0x1
 9882 00c1 03       		.uleb128 0x3
 9883 00c2 0E       		.uleb128 0xe
 9884 00c3 3A       		.uleb128 0x3a
 9885 00c4 0B       		.uleb128 0xb
 9886 00c5 3B       		.uleb128 0x3b
 9887 00c6 0B       		.uleb128 0xb
 9888 00c7 27       		.uleb128 0x27
 9889 00c8 19       		.uleb128 0x19
 9890 00c9 11       		.uleb128 0x11
ARM GAS  C:\Users\Phuong\AppData\Local\Temp\ccX7yw2d.s 			page 213


 9891 00ca 01       		.uleb128 0x1
 9892 00cb 12       		.uleb128 0x12
 9893 00cc 06       		.uleb128 0x6
 9894 00cd 40       		.uleb128 0x40
 9895 00ce 18       		.uleb128 0x18
 9896 00cf 9742     		.uleb128 0x2117
 9897 00d1 19       		.uleb128 0x19
 9898 00d2 01       		.uleb128 0x1
 9899 00d3 13       		.uleb128 0x13
 9900 00d4 00       		.byte	0
 9901 00d5 00       		.byte	0
 9902 00d6 12       		.uleb128 0x12
 9903 00d7 05       		.uleb128 0x5
 9904 00d8 00       		.byte	0
 9905 00d9 03       		.uleb128 0x3
 9906 00da 0E       		.uleb128 0xe
 9907 00db 3A       		.uleb128 0x3a
 9908 00dc 0B       		.uleb128 0xb
 9909 00dd 3B       		.uleb128 0x3b
 9910 00de 0B       		.uleb128 0xb
 9911 00df 49       		.uleb128 0x49
 9912 00e0 13       		.uleb128 0x13
 9913 00e1 02       		.uleb128 0x2
 9914 00e2 17       		.uleb128 0x17
 9915 00e3 00       		.byte	0
 9916 00e4 00       		.byte	0
 9917 00e5 13       		.uleb128 0x13
 9918 00e6 34       		.uleb128 0x34
 9919 00e7 00       		.byte	0
 9920 00e8 03       		.uleb128 0x3
 9921 00e9 08       		.uleb128 0x8
 9922 00ea 3A       		.uleb128 0x3a
 9923 00eb 0B       		.uleb128 0xb
 9924 00ec 3B       		.uleb128 0x3b
 9925 00ed 0B       		.uleb128 0xb
 9926 00ee 49       		.uleb128 0x49
 9927 00ef 13       		.uleb128 0x13
 9928 00f0 02       		.uleb128 0x2
 9929 00f1 17       		.uleb128 0x17
 9930 00f2 00       		.byte	0
 9931 00f3 00       		.byte	0
 9932 00f4 14       		.uleb128 0x14
 9933 00f5 898201   		.uleb128 0x4109
 9934 00f8 01       		.byte	0x1
 9935 00f9 11       		.uleb128 0x11
 9936 00fa 01       		.uleb128 0x1
 9937 00fb 9342     		.uleb128 0x2113
 9938 00fd 18       		.uleb128 0x18
 9939 00fe 00       		.byte	0
 9940 00ff 00       		.byte	0
 9941 0100 15       		.uleb128 0x15
 9942 0101 8A8201   		.uleb128 0x410a
 9943 0104 00       		.byte	0
 9944 0105 02       		.uleb128 0x2
 9945 0106 18       		.uleb128 0x18
 9946 0107 9142     		.uleb128 0x2111
 9947 0109 18       		.uleb128 0x18
ARM GAS  C:\Users\Phuong\AppData\Local\Temp\ccX7yw2d.s 			page 214


 9948 010a 00       		.byte	0
 9949 010b 00       		.byte	0
 9950 010c 16       		.uleb128 0x16
 9951 010d 2E       		.uleb128 0x2e
 9952 010e 01       		.byte	0x1
 9953 010f 03       		.uleb128 0x3
 9954 0110 0E       		.uleb128 0xe
 9955 0111 3A       		.uleb128 0x3a
 9956 0112 0B       		.uleb128 0xb
 9957 0113 3B       		.uleb128 0x3b
 9958 0114 05       		.uleb128 0x5
 9959 0115 27       		.uleb128 0x27
 9960 0116 19       		.uleb128 0x19
 9961 0117 49       		.uleb128 0x49
 9962 0118 13       		.uleb128 0x13
 9963 0119 11       		.uleb128 0x11
 9964 011a 01       		.uleb128 0x1
 9965 011b 12       		.uleb128 0x12
 9966 011c 06       		.uleb128 0x6
 9967 011d 40       		.uleb128 0x40
 9968 011e 18       		.uleb128 0x18
 9969 011f 9742     		.uleb128 0x2117
 9970 0121 19       		.uleb128 0x19
 9971 0122 01       		.uleb128 0x1
 9972 0123 13       		.uleb128 0x13
 9973 0124 00       		.byte	0
 9974 0125 00       		.byte	0
 9975 0126 17       		.uleb128 0x17
 9976 0127 05       		.uleb128 0x5
 9977 0128 00       		.byte	0
 9978 0129 03       		.uleb128 0x3
 9979 012a 0E       		.uleb128 0xe
 9980 012b 3A       		.uleb128 0x3a
 9981 012c 0B       		.uleb128 0xb
 9982 012d 3B       		.uleb128 0x3b
 9983 012e 05       		.uleb128 0x5
 9984 012f 49       		.uleb128 0x49
 9985 0130 13       		.uleb128 0x13
 9986 0131 02       		.uleb128 0x2
 9987 0132 17       		.uleb128 0x17
 9988 0133 00       		.byte	0
 9989 0134 00       		.byte	0
 9990 0135 18       		.uleb128 0x18
 9991 0136 05       		.uleb128 0x5
 9992 0137 00       		.byte	0
 9993 0138 03       		.uleb128 0x3
 9994 0139 0E       		.uleb128 0xe
 9995 013a 3A       		.uleb128 0x3a
 9996 013b 0B       		.uleb128 0xb
 9997 013c 3B       		.uleb128 0x3b
 9998 013d 05       		.uleb128 0x5
 9999 013e 49       		.uleb128 0x49
 10000 013f 13       		.uleb128 0x13
 10001 0140 02       		.uleb128 0x2
 10002 0141 18       		.uleb128 0x18
 10003 0142 00       		.byte	0
 10004 0143 00       		.byte	0
ARM GAS  C:\Users\Phuong\AppData\Local\Temp\ccX7yw2d.s 			page 215


 10005 0144 19       		.uleb128 0x19
 10006 0145 34       		.uleb128 0x34
 10007 0146 00       		.byte	0
 10008 0147 03       		.uleb128 0x3
 10009 0148 08       		.uleb128 0x8
 10010 0149 3A       		.uleb128 0x3a
 10011 014a 0B       		.uleb128 0xb
 10012 014b 3B       		.uleb128 0x3b
 10013 014c 05       		.uleb128 0x5
 10014 014d 49       		.uleb128 0x49
 10015 014e 13       		.uleb128 0x13
 10016 014f 02       		.uleb128 0x2
 10017 0150 17       		.uleb128 0x17
 10018 0151 00       		.byte	0
 10019 0152 00       		.byte	0
 10020 0153 1A       		.uleb128 0x1a
 10021 0154 34       		.uleb128 0x34
 10022 0155 00       		.byte	0
 10023 0156 03       		.uleb128 0x3
 10024 0157 0E       		.uleb128 0xe
 10025 0158 3A       		.uleb128 0x3a
 10026 0159 0B       		.uleb128 0xb
 10027 015a 3B       		.uleb128 0x3b
 10028 015b 05       		.uleb128 0x5
 10029 015c 49       		.uleb128 0x49
 10030 015d 13       		.uleb128 0x13
 10031 015e 02       		.uleb128 0x2
 10032 015f 17       		.uleb128 0x17
 10033 0160 00       		.byte	0
 10034 0161 00       		.byte	0
 10035 0162 1B       		.uleb128 0x1b
 10036 0163 898201   		.uleb128 0x4109
 10037 0166 00       		.byte	0
 10038 0167 11       		.uleb128 0x11
 10039 0168 01       		.uleb128 0x1
 10040 0169 31       		.uleb128 0x31
 10041 016a 13       		.uleb128 0x13
 10042 016b 00       		.byte	0
 10043 016c 00       		.byte	0
 10044 016d 1C       		.uleb128 0x1c
 10045 016e 898201   		.uleb128 0x4109
 10046 0171 01       		.byte	0x1
 10047 0172 11       		.uleb128 0x11
 10048 0173 01       		.uleb128 0x1
 10049 0174 31       		.uleb128 0x31
 10050 0175 13       		.uleb128 0x13
 10051 0176 00       		.byte	0
 10052 0177 00       		.byte	0
 10053 0178 1D       		.uleb128 0x1d
 10054 0179 34       		.uleb128 0x34
 10055 017a 00       		.byte	0
 10056 017b 03       		.uleb128 0x3
 10057 017c 0E       		.uleb128 0xe
 10058 017d 3A       		.uleb128 0x3a
 10059 017e 0B       		.uleb128 0xb
 10060 017f 3B       		.uleb128 0x3b
 10061 0180 05       		.uleb128 0x5
ARM GAS  C:\Users\Phuong\AppData\Local\Temp\ccX7yw2d.s 			page 216


 10062 0181 49       		.uleb128 0x49
 10063 0182 13       		.uleb128 0x13
 10064 0183 02       		.uleb128 0x2
 10065 0184 18       		.uleb128 0x18
 10066 0185 00       		.byte	0
 10067 0186 00       		.byte	0
 10068 0187 1E       		.uleb128 0x1e
 10069 0188 0B       		.uleb128 0xb
 10070 0189 01       		.byte	0x1
 10071 018a 55       		.uleb128 0x55
 10072 018b 17       		.uleb128 0x17
 10073 018c 00       		.byte	0
 10074 018d 00       		.byte	0
 10075 018e 1F       		.uleb128 0x1f
 10076 018f 2E       		.uleb128 0x2e
 10077 0190 01       		.byte	0x1
 10078 0191 03       		.uleb128 0x3
 10079 0192 0E       		.uleb128 0xe
 10080 0193 3A       		.uleb128 0x3a
 10081 0194 0B       		.uleb128 0xb
 10082 0195 3B       		.uleb128 0x3b
 10083 0196 0B       		.uleb128 0xb
 10084 0197 27       		.uleb128 0x27
 10085 0198 19       		.uleb128 0x19
 10086 0199 49       		.uleb128 0x49
 10087 019a 13       		.uleb128 0x13
 10088 019b 11       		.uleb128 0x11
 10089 019c 01       		.uleb128 0x1
 10090 019d 12       		.uleb128 0x12
 10091 019e 06       		.uleb128 0x6
 10092 019f 40       		.uleb128 0x40
 10093 01a0 18       		.uleb128 0x18
 10094 01a1 9742     		.uleb128 0x2117
 10095 01a3 19       		.uleb128 0x19
 10096 01a4 01       		.uleb128 0x1
 10097 01a5 13       		.uleb128 0x13
 10098 01a6 00       		.byte	0
 10099 01a7 00       		.byte	0
 10100 01a8 20       		.uleb128 0x20
 10101 01a9 34       		.uleb128 0x34
 10102 01aa 00       		.byte	0
 10103 01ab 03       		.uleb128 0x3
 10104 01ac 0E       		.uleb128 0xe
 10105 01ad 3A       		.uleb128 0x3a
 10106 01ae 0B       		.uleb128 0xb
 10107 01af 3B       		.uleb128 0x3b
 10108 01b0 0B       		.uleb128 0xb
 10109 01b1 49       		.uleb128 0x49
 10110 01b2 13       		.uleb128 0x13
 10111 01b3 02       		.uleb128 0x2
 10112 01b4 17       		.uleb128 0x17
 10113 01b5 00       		.byte	0
 10114 01b6 00       		.byte	0
 10115 01b7 21       		.uleb128 0x21
 10116 01b8 0B       		.uleb128 0xb
 10117 01b9 01       		.byte	0x1
 10118 01ba 11       		.uleb128 0x11
ARM GAS  C:\Users\Phuong\AppData\Local\Temp\ccX7yw2d.s 			page 217


 10119 01bb 01       		.uleb128 0x1
 10120 01bc 12       		.uleb128 0x12
 10121 01bd 06       		.uleb128 0x6
 10122 01be 01       		.uleb128 0x1
 10123 01bf 13       		.uleb128 0x13
 10124 01c0 00       		.byte	0
 10125 01c1 00       		.byte	0
 10126 01c2 22       		.uleb128 0x22
 10127 01c3 34       		.uleb128 0x34
 10128 01c4 00       		.byte	0
 10129 01c5 03       		.uleb128 0x3
 10130 01c6 0E       		.uleb128 0xe
 10131 01c7 3A       		.uleb128 0x3a
 10132 01c8 0B       		.uleb128 0xb
 10133 01c9 3B       		.uleb128 0x3b
 10134 01ca 0B       		.uleb128 0xb
 10135 01cb 49       		.uleb128 0x49
 10136 01cc 13       		.uleb128 0x13
 10137 01cd 02       		.uleb128 0x2
 10138 01ce 18       		.uleb128 0x18
 10139 01cf 00       		.byte	0
 10140 01d0 00       		.byte	0
 10141 01d1 23       		.uleb128 0x23
 10142 01d2 0B       		.uleb128 0xb
 10143 01d3 01       		.byte	0x1
 10144 01d4 55       		.uleb128 0x55
 10145 01d5 17       		.uleb128 0x17
 10146 01d6 01       		.uleb128 0x1
 10147 01d7 13       		.uleb128 0x13
 10148 01d8 00       		.byte	0
 10149 01d9 00       		.byte	0
 10150 01da 24       		.uleb128 0x24
 10151 01db 898201   		.uleb128 0x4109
 10152 01de 01       		.byte	0x1
 10153 01df 11       		.uleb128 0x11
 10154 01e0 01       		.uleb128 0x1
 10155 01e1 31       		.uleb128 0x31
 10156 01e2 13       		.uleb128 0x13
 10157 01e3 01       		.uleb128 0x1
 10158 01e4 13       		.uleb128 0x13
 10159 01e5 00       		.byte	0
 10160 01e6 00       		.byte	0
 10161 01e7 25       		.uleb128 0x25
 10162 01e8 2E       		.uleb128 0x2e
 10163 01e9 01       		.byte	0x1
 10164 01ea 03       		.uleb128 0x3
 10165 01eb 0E       		.uleb128 0xe
 10166 01ec 3A       		.uleb128 0x3a
 10167 01ed 0B       		.uleb128 0xb
 10168 01ee 3B       		.uleb128 0x3b
 10169 01ef 05       		.uleb128 0x5
 10170 01f0 27       		.uleb128 0x27
 10171 01f1 19       		.uleb128 0x19
 10172 01f2 11       		.uleb128 0x11
 10173 01f3 01       		.uleb128 0x1
 10174 01f4 12       		.uleb128 0x12
 10175 01f5 06       		.uleb128 0x6
ARM GAS  C:\Users\Phuong\AppData\Local\Temp\ccX7yw2d.s 			page 218


 10176 01f6 40       		.uleb128 0x40
 10177 01f7 18       		.uleb128 0x18
 10178 01f8 9742     		.uleb128 0x2117
 10179 01fa 19       		.uleb128 0x19
 10180 01fb 01       		.uleb128 0x1
 10181 01fc 13       		.uleb128 0x13
 10182 01fd 00       		.byte	0
 10183 01fe 00       		.byte	0
 10184 01ff 26       		.uleb128 0x26
 10185 0200 0B       		.uleb128 0xb
 10186 0201 01       		.byte	0x1
 10187 0202 11       		.uleb128 0x11
 10188 0203 01       		.uleb128 0x1
 10189 0204 12       		.uleb128 0x12
 10190 0205 06       		.uleb128 0x6
 10191 0206 00       		.byte	0
 10192 0207 00       		.byte	0
 10193 0208 27       		.uleb128 0x27
 10194 0209 2E       		.uleb128 0x2e
 10195 020a 01       		.byte	0x1
 10196 020b 3F       		.uleb128 0x3f
 10197 020c 19       		.uleb128 0x19
 10198 020d 03       		.uleb128 0x3
 10199 020e 0E       		.uleb128 0xe
 10200 020f 3A       		.uleb128 0x3a
 10201 0210 0B       		.uleb128 0xb
 10202 0211 3B       		.uleb128 0x3b
 10203 0212 05       		.uleb128 0x5
 10204 0213 27       		.uleb128 0x27
 10205 0214 19       		.uleb128 0x19
 10206 0215 49       		.uleb128 0x49
 10207 0216 13       		.uleb128 0x13
 10208 0217 11       		.uleb128 0x11
 10209 0218 01       		.uleb128 0x1
 10210 0219 12       		.uleb128 0x12
 10211 021a 06       		.uleb128 0x6
 10212 021b 40       		.uleb128 0x40
 10213 021c 18       		.uleb128 0x18
 10214 021d 9742     		.uleb128 0x2117
 10215 021f 19       		.uleb128 0x19
 10216 0220 01       		.uleb128 0x1
 10217 0221 13       		.uleb128 0x13
 10218 0222 00       		.byte	0
 10219 0223 00       		.byte	0
 10220 0224 28       		.uleb128 0x28
 10221 0225 2E       		.uleb128 0x2e
 10222 0226 01       		.byte	0x1
 10223 0227 3F       		.uleb128 0x3f
 10224 0228 19       		.uleb128 0x19
 10225 0229 03       		.uleb128 0x3
 10226 022a 0E       		.uleb128 0xe
 10227 022b 3A       		.uleb128 0x3a
 10228 022c 0B       		.uleb128 0xb
 10229 022d 3B       		.uleb128 0x3b
 10230 022e 05       		.uleb128 0x5
 10231 022f 27       		.uleb128 0x27
 10232 0230 19       		.uleb128 0x19
ARM GAS  C:\Users\Phuong\AppData\Local\Temp\ccX7yw2d.s 			page 219


 10233 0231 11       		.uleb128 0x11
 10234 0232 01       		.uleb128 0x1
 10235 0233 12       		.uleb128 0x12
 10236 0234 06       		.uleb128 0x6
 10237 0235 40       		.uleb128 0x40
 10238 0236 18       		.uleb128 0x18
 10239 0237 9742     		.uleb128 0x2117
 10240 0239 19       		.uleb128 0x19
 10241 023a 01       		.uleb128 0x1
 10242 023b 13       		.uleb128 0x13
 10243 023c 00       		.byte	0
 10244 023d 00       		.byte	0
 10245 023e 29       		.uleb128 0x29
 10246 023f 2E       		.uleb128 0x2e
 10247 0240 01       		.byte	0x1
 10248 0241 03       		.uleb128 0x3
 10249 0242 0E       		.uleb128 0xe
 10250 0243 3A       		.uleb128 0x3a
 10251 0244 0B       		.uleb128 0xb
 10252 0245 3B       		.uleb128 0x3b
 10253 0246 05       		.uleb128 0x5
 10254 0247 27       		.uleb128 0x27
 10255 0248 19       		.uleb128 0x19
 10256 0249 11       		.uleb128 0x11
 10257 024a 01       		.uleb128 0x1
 10258 024b 12       		.uleb128 0x12
 10259 024c 06       		.uleb128 0x6
 10260 024d 40       		.uleb128 0x40
 10261 024e 18       		.uleb128 0x18
 10262 024f 9642     		.uleb128 0x2116
 10263 0251 19       		.uleb128 0x19
 10264 0252 01       		.uleb128 0x1
 10265 0253 13       		.uleb128 0x13
 10266 0254 00       		.byte	0
 10267 0255 00       		.byte	0
 10268 0256 2A       		.uleb128 0x2a
 10269 0257 898201   		.uleb128 0x4109
 10270 025a 01       		.byte	0x1
 10271 025b 11       		.uleb128 0x11
 10272 025c 01       		.uleb128 0x1
 10273 025d 9342     		.uleb128 0x2113
 10274 025f 18       		.uleb128 0x18
 10275 0260 01       		.uleb128 0x1
 10276 0261 13       		.uleb128 0x13
 10277 0262 00       		.byte	0
 10278 0263 00       		.byte	0
 10279 0264 2B       		.uleb128 0x2b
 10280 0265 2E       		.uleb128 0x2e
 10281 0266 00       		.byte	0
 10282 0267 3F       		.uleb128 0x3f
 10283 0268 19       		.uleb128 0x19
 10284 0269 3C       		.uleb128 0x3c
 10285 026a 19       		.uleb128 0x19
 10286 026b 6E       		.uleb128 0x6e
 10287 026c 0E       		.uleb128 0xe
 10288 026d 03       		.uleb128 0x3
 10289 026e 0E       		.uleb128 0xe
ARM GAS  C:\Users\Phuong\AppData\Local\Temp\ccX7yw2d.s 			page 220


 10290 026f 3A       		.uleb128 0x3a
 10291 0270 0B       		.uleb128 0xb
 10292 0271 3B       		.uleb128 0x3b
 10293 0272 0B       		.uleb128 0xb
 10294 0273 00       		.byte	0
 10295 0274 00       		.byte	0
 10296 0275 2C       		.uleb128 0x2c
 10297 0276 2E       		.uleb128 0x2e
 10298 0277 00       		.byte	0
 10299 0278 3F       		.uleb128 0x3f
 10300 0279 19       		.uleb128 0x19
 10301 027a 3C       		.uleb128 0x3c
 10302 027b 19       		.uleb128 0x19
 10303 027c 6E       		.uleb128 0x6e
 10304 027d 0E       		.uleb128 0xe
 10305 027e 03       		.uleb128 0x3
 10306 027f 0E       		.uleb128 0xe
 10307 0280 00       		.byte	0
 10308 0281 00       		.byte	0
 10309 0282 00       		.byte	0
 10310              		.section	.debug_loc,"",%progbits
 10311              	.Ldebug_loc0:
 10312              	.LLST0:
 10313 0000 00000000 		.4byte	.LVL0
 10314 0004 10000000 		.4byte	.LVL2
 10315 0008 0100     		.2byte	0x1
 10316 000a 50       		.byte	0x50
 10317 000b 10000000 		.4byte	.LVL2
 10318 000f 34000000 		.4byte	.LVL6
 10319 0013 0100     		.2byte	0x1
 10320 0015 55       		.byte	0x55
 10321 0016 34000000 		.4byte	.LVL6
 10322 001a 36000000 		.4byte	.LFE2
 10323 001e 0400     		.2byte	0x4
 10324 0020 F3       		.byte	0xf3
 10325 0021 01       		.uleb128 0x1
 10326 0022 50       		.byte	0x50
 10327 0023 9F       		.byte	0x9f
 10328 0024 00000000 		.4byte	0
 10329 0028 00000000 		.4byte	0
 10330              	.LLST1:
 10331 002c 00000000 		.4byte	.LVL0
 10332 0030 10000000 		.4byte	.LVL2
 10333 0034 0100     		.2byte	0x1
 10334 0036 51       		.byte	0x51
 10335 0037 10000000 		.4byte	.LVL2
 10336 003b 36000000 		.4byte	.LFE2
 10337 003f 0400     		.2byte	0x4
 10338 0041 F3       		.byte	0xf3
 10339 0042 01       		.uleb128 0x1
 10340 0043 51       		.byte	0x51
 10341 0044 9F       		.byte	0x9f
 10342 0045 00000000 		.4byte	0
 10343 0049 00000000 		.4byte	0
 10344              	.LLST2:
 10345 004d 0C000000 		.4byte	.LVL1
 10346 0051 10000000 		.4byte	.LVL2
ARM GAS  C:\Users\Phuong\AppData\Local\Temp\ccX7yw2d.s 			page 221


 10347 0055 0200     		.2byte	0x2
 10348 0057 30       		.byte	0x30
 10349 0058 9F       		.byte	0x9f
 10350 0059 10000000 		.4byte	.LVL2
 10351 005d 34000000 		.4byte	.LVL5
 10352 0061 0100     		.2byte	0x1
 10353 0063 54       		.byte	0x54
 10354 0064 00000000 		.4byte	0
 10355 0068 00000000 		.4byte	0
 10356              	.LLST3:
 10357 006c 00000000 		.4byte	.LVL7
 10358 0070 24000000 		.4byte	.LVL12
 10359 0074 0100     		.2byte	0x1
 10360 0076 50       		.byte	0x50
 10361 0077 24000000 		.4byte	.LVL12
 10362 007b 26000000 		.4byte	.LVL13
 10363 007f 0400     		.2byte	0x4
 10364 0081 F3       		.byte	0xf3
 10365 0082 01       		.uleb128 0x1
 10366 0083 50       		.byte	0x50
 10367 0084 9F       		.byte	0x9f
 10368 0085 26000000 		.4byte	.LVL13
 10369 0089 28000000 		.4byte	.LVL14
 10370 008d 0100     		.2byte	0x1
 10371 008f 50       		.byte	0x50
 10372 0090 28000000 		.4byte	.LVL14
 10373 0094 2A000000 		.4byte	.LFE8
 10374 0098 0400     		.2byte	0x4
 10375 009a F3       		.byte	0xf3
 10376 009b 01       		.uleb128 0x1
 10377 009c 50       		.byte	0x50
 10378 009d 9F       		.byte	0x9f
 10379 009e 00000000 		.4byte	0
 10380 00a2 00000000 		.4byte	0
 10381              	.LLST4:
 10382 00a6 02000000 		.4byte	.LVL8
 10383 00aa 06000000 		.4byte	.LVL9
 10384 00ae 0200     		.2byte	0x2
 10385 00b0 30       		.byte	0x30
 10386 00b1 9F       		.byte	0x9f
 10387 00b2 06000000 		.4byte	.LVL9
 10388 00b6 22000000 		.4byte	.LVL11
 10389 00ba 0100     		.2byte	0x1
 10390 00bc 53       		.byte	0x53
 10391 00bd 26000000 		.4byte	.LVL13
 10392 00c1 28000000 		.4byte	.LVL14
 10393 00c5 0100     		.2byte	0x1
 10394 00c7 53       		.byte	0x53
 10395 00c8 00000000 		.4byte	0
 10396 00cc 00000000 		.4byte	0
 10397              	.LLST5:
 10398 00d0 24000000 		.4byte	.LVL12
 10399 00d4 26000000 		.4byte	.LVL13
 10400 00d8 0100     		.2byte	0x1
 10401 00da 50       		.byte	0x50
 10402 00db 28000000 		.4byte	.LVL14
 10403 00df 2A000000 		.4byte	.LFE8
ARM GAS  C:\Users\Phuong\AppData\Local\Temp\ccX7yw2d.s 			page 222


 10404 00e3 0100     		.2byte	0x1
 10405 00e5 50       		.byte	0x50
 10406 00e6 00000000 		.4byte	0
 10407 00ea 00000000 		.4byte	0
 10408              	.LLST6:
 10409 00ee 00000000 		.4byte	.LVL15
 10410 00f2 06000000 		.4byte	.LVL16
 10411 00f6 0100     		.2byte	0x1
 10412 00f8 50       		.byte	0x50
 10413 00f9 06000000 		.4byte	.LVL16
 10414 00fd 14000000 		.4byte	.LVL19
 10415 0101 0100     		.2byte	0x1
 10416 0103 54       		.byte	0x54
 10417 0104 14000000 		.4byte	.LVL19
 10418 0108 16000000 		.4byte	.LFE1
 10419 010c 0400     		.2byte	0x4
 10420 010e F3       		.byte	0xf3
 10421 010f 01       		.uleb128 0x1
 10422 0110 50       		.byte	0x50
 10423 0111 9F       		.byte	0x9f
 10424 0112 00000000 		.4byte	0
 10425 0116 00000000 		.4byte	0
 10426              	.LLST7:
 10427 011a 00000000 		.4byte	.LVL20
 10428 011e 0E000000 		.4byte	.LVL22
 10429 0122 0100     		.2byte	0x1
 10430 0124 50       		.byte	0x50
 10431 0125 0E000000 		.4byte	.LVL22
 10432 0129 22000000 		.4byte	.LVL26
 10433 012d 0400     		.2byte	0x4
 10434 012f F3       		.byte	0xf3
 10435 0130 01       		.uleb128 0x1
 10436 0131 50       		.byte	0x50
 10437 0132 9F       		.byte	0x9f
 10438 0133 22000000 		.4byte	.LVL26
 10439 0137 24000000 		.4byte	.LVL27
 10440 013b 0100     		.2byte	0x1
 10441 013d 50       		.byte	0x50
 10442 013e 24000000 		.4byte	.LVL27
 10443 0142 26000000 		.4byte	.LVL28
 10444 0146 0400     		.2byte	0x4
 10445 0148 F3       		.byte	0xf3
 10446 0149 01       		.uleb128 0x1
 10447 014a 50       		.byte	0x50
 10448 014b 9F       		.byte	0x9f
 10449 014c 26000000 		.4byte	.LVL28
 10450 0150 28000000 		.4byte	.LVL29
 10451 0154 0100     		.2byte	0x1
 10452 0156 50       		.byte	0x50
 10453 0157 28000000 		.4byte	.LVL29
 10454 015b 38000000 		.4byte	.LFE25
 10455 015f 0400     		.2byte	0x4
 10456 0161 F3       		.byte	0xf3
 10457 0162 01       		.uleb128 0x1
 10458 0163 50       		.byte	0x50
 10459 0164 9F       		.byte	0x9f
 10460 0165 00000000 		.4byte	0
ARM GAS  C:\Users\Phuong\AppData\Local\Temp\ccX7yw2d.s 			page 223


 10461 0169 00000000 		.4byte	0
 10462              	.LLST8:
 10463 016d 00000000 		.4byte	.LVL20
 10464 0171 19000000 		.4byte	.LVL25-1
 10465 0175 0100     		.2byte	0x1
 10466 0177 51       		.byte	0x51
 10467 0178 19000000 		.4byte	.LVL25-1
 10468 017c 22000000 		.4byte	.LVL26
 10469 0180 0400     		.2byte	0x4
 10470 0182 F3       		.byte	0xf3
 10471 0183 01       		.uleb128 0x1
 10472 0184 51       		.byte	0x51
 10473 0185 9F       		.byte	0x9f
 10474 0186 22000000 		.4byte	.LVL26
 10475 018a 2A000000 		.4byte	.LVL30
 10476 018e 0100     		.2byte	0x1
 10477 0190 51       		.byte	0x51
 10478 0191 2A000000 		.4byte	.LVL30
 10479 0195 38000000 		.4byte	.LFE25
 10480 0199 0400     		.2byte	0x4
 10481 019b F3       		.byte	0xf3
 10482 019c 01       		.uleb128 0x1
 10483 019d 51       		.byte	0x51
 10484 019e 9F       		.byte	0x9f
 10485 019f 00000000 		.4byte	0
 10486 01a3 00000000 		.4byte	0
 10487              	.LLST9:
 10488 01a7 00000000 		.4byte	.LVL20
 10489 01ab 19000000 		.4byte	.LVL25-1
 10490 01af 0100     		.2byte	0x1
 10491 01b1 52       		.byte	0x52
 10492 01b2 19000000 		.4byte	.LVL25-1
 10493 01b6 22000000 		.4byte	.LVL26
 10494 01ba 0400     		.2byte	0x4
 10495 01bc F3       		.byte	0xf3
 10496 01bd 01       		.uleb128 0x1
 10497 01be 52       		.byte	0x52
 10498 01bf 9F       		.byte	0x9f
 10499 01c0 22000000 		.4byte	.LVL26
 10500 01c4 2A000000 		.4byte	.LVL30
 10501 01c8 0100     		.2byte	0x1
 10502 01ca 52       		.byte	0x52
 10503 01cb 2A000000 		.4byte	.LVL30
 10504 01cf 38000000 		.4byte	.LFE25
 10505 01d3 0400     		.2byte	0x4
 10506 01d5 F3       		.byte	0xf3
 10507 01d6 01       		.uleb128 0x1
 10508 01d7 52       		.byte	0x52
 10509 01d8 9F       		.byte	0x9f
 10510 01d9 00000000 		.4byte	0
 10511 01dd 00000000 		.4byte	0
 10512              	.LLST10:
 10513 01e1 00000000 		.4byte	.LVL20
 10514 01e5 19000000 		.4byte	.LVL25-1
 10515 01e9 0100     		.2byte	0x1
 10516 01eb 53       		.byte	0x53
 10517 01ec 19000000 		.4byte	.LVL25-1
ARM GAS  C:\Users\Phuong\AppData\Local\Temp\ccX7yw2d.s 			page 224


 10518 01f0 22000000 		.4byte	.LVL26
 10519 01f4 0400     		.2byte	0x4
 10520 01f6 F3       		.byte	0xf3
 10521 01f7 01       		.uleb128 0x1
 10522 01f8 53       		.byte	0x53
 10523 01f9 9F       		.byte	0x9f
 10524 01fa 22000000 		.4byte	.LVL26
 10525 01fe 2A000000 		.4byte	.LVL30
 10526 0202 0100     		.2byte	0x1
 10527 0204 53       		.byte	0x53
 10528 0205 2A000000 		.4byte	.LVL30
 10529 0209 38000000 		.4byte	.LFE25
 10530 020d 0400     		.2byte	0x4
 10531 020f F3       		.byte	0xf3
 10532 0210 01       		.uleb128 0x1
 10533 0211 53       		.byte	0x53
 10534 0212 9F       		.byte	0x9f
 10535 0213 00000000 		.4byte	0
 10536 0217 00000000 		.4byte	0
 10537              	.LLST11:
 10538 021b 0C000000 		.4byte	.LVL21
 10539 021f 0E000000 		.4byte	.LVL22
 10540 0223 0100     		.2byte	0x1
 10541 0225 50       		.byte	0x50
 10542 0226 0E000000 		.4byte	.LVL22
 10543 022a 22000000 		.4byte	.LVL26
 10544 022e 0400     		.2byte	0x4
 10545 0230 F3       		.byte	0xf3
 10546 0231 01       		.uleb128 0x1
 10547 0232 50       		.byte	0x50
 10548 0233 9F       		.byte	0x9f
 10549 0234 2A000000 		.4byte	.LVL30
 10550 0238 2C000000 		.4byte	.LVL31
 10551 023c 0400     		.2byte	0x4
 10552 023e F3       		.byte	0xf3
 10553 023f 01       		.uleb128 0x1
 10554 0240 50       		.byte	0x50
 10555 0241 9F       		.byte	0x9f
 10556 0242 00000000 		.4byte	0
 10557 0246 00000000 		.4byte	0
 10558              	.LLST12:
 10559 024a 0E000000 		.4byte	.LVL22
 10560 024e 10000000 		.4byte	.LVL23
 10561 0252 0100     		.2byte	0x1
 10562 0254 50       		.byte	0x50
 10563 0255 10000000 		.4byte	.LVL23
 10564 0259 14000000 		.4byte	.LVL24
 10565 025d 0500     		.2byte	0x5
 10566 025f F3       		.byte	0xf3
 10567 0260 01       		.uleb128 0x1
 10568 0261 50       		.byte	0x50
 10569 0262 23       		.byte	0x23
 10570 0263 1C       		.uleb128 0x1c
 10571 0264 00000000 		.4byte	0
 10572 0268 00000000 		.4byte	0
 10573              	.LLST13:
 10574 026c 00000000 		.4byte	.LVL32
ARM GAS  C:\Users\Phuong\AppData\Local\Temp\ccX7yw2d.s 			page 225


 10575 0270 0C000000 		.4byte	.LVL33
 10576 0274 0100     		.2byte	0x1
 10577 0276 50       		.byte	0x50
 10578 0277 0C000000 		.4byte	.LVL33
 10579 027b 62000000 		.4byte	.LVL43
 10580 027f 0100     		.2byte	0x1
 10581 0281 54       		.byte	0x54
 10582 0282 62000000 		.4byte	.LVL43
 10583 0286 64000000 		.4byte	.LVL44
 10584 028a 0400     		.2byte	0x4
 10585 028c F3       		.byte	0xf3
 10586 028d 01       		.uleb128 0x1
 10587 028e 50       		.byte	0x50
 10588 028f 9F       		.byte	0x9f
 10589 0290 64000000 		.4byte	.LVL44
 10590 0294 66000000 		.4byte	.LVL45
 10591 0298 0100     		.2byte	0x1
 10592 029a 54       		.byte	0x54
 10593 029b 66000000 		.4byte	.LVL45
 10594 029f 6E000000 		.4byte	.LVL47
 10595 02a3 0400     		.2byte	0x4
 10596 02a5 F3       		.byte	0xf3
 10597 02a6 01       		.uleb128 0x1
 10598 02a7 50       		.byte	0x50
 10599 02a8 9F       		.byte	0x9f
 10600 02a9 6E000000 		.4byte	.LVL47
 10601 02ad 70000000 		.4byte	.LVL48
 10602 02b1 0100     		.2byte	0x1
 10603 02b3 54       		.byte	0x54
 10604 02b4 70000000 		.4byte	.LVL48
 10605 02b8 72000000 		.4byte	.LVL49
 10606 02bc 0400     		.2byte	0x4
 10607 02be F3       		.byte	0xf3
 10608 02bf 01       		.uleb128 0x1
 10609 02c0 50       		.byte	0x50
 10610 02c1 9F       		.byte	0x9f
 10611 02c2 72000000 		.4byte	.LVL49
 10612 02c6 74000000 		.4byte	.LVL50
 10613 02ca 0100     		.2byte	0x1
 10614 02cc 54       		.byte	0x54
 10615 02cd 74000000 		.4byte	.LVL50
 10616 02d1 76000000 		.4byte	.LVL51
 10617 02d5 0400     		.2byte	0x4
 10618 02d7 F3       		.byte	0xf3
 10619 02d8 01       		.uleb128 0x1
 10620 02d9 50       		.byte	0x50
 10621 02da 9F       		.byte	0x9f
 10622 02db 76000000 		.4byte	.LVL51
 10623 02df 78000000 		.4byte	.LVL52
 10624 02e3 0100     		.2byte	0x1
 10625 02e5 54       		.byte	0x54
 10626 02e6 78000000 		.4byte	.LVL52
 10627 02ea 7A000000 		.4byte	.LVL53
 10628 02ee 0400     		.2byte	0x4
 10629 02f0 F3       		.byte	0xf3
 10630 02f1 01       		.uleb128 0x1
 10631 02f2 50       		.byte	0x50
ARM GAS  C:\Users\Phuong\AppData\Local\Temp\ccX7yw2d.s 			page 226


 10632 02f3 9F       		.byte	0x9f
 10633 02f4 7A000000 		.4byte	.LVL53
 10634 02f8 7C000000 		.4byte	.LVL54
 10635 02fc 0100     		.2byte	0x1
 10636 02fe 54       		.byte	0x54
 10637 02ff 7C000000 		.4byte	.LVL54
 10638 0303 84000000 		.4byte	.LVL56
 10639 0307 0400     		.2byte	0x4
 10640 0309 F3       		.byte	0xf3
 10641 030a 01       		.uleb128 0x1
 10642 030b 50       		.byte	0x50
 10643 030c 9F       		.byte	0x9f
 10644 030d 84000000 		.4byte	.LVL56
 10645 0311 86000000 		.4byte	.LVL57
 10646 0315 0100     		.2byte	0x1
 10647 0317 54       		.byte	0x54
 10648 0318 86000000 		.4byte	.LVL57
 10649 031c 8C000000 		.4byte	.LFE5
 10650 0320 0400     		.2byte	0x4
 10651 0322 F3       		.byte	0xf3
 10652 0323 01       		.uleb128 0x1
 10653 0324 50       		.byte	0x50
 10654 0325 9F       		.byte	0x9f
 10655 0326 00000000 		.4byte	0
 10656 032a 00000000 		.4byte	0
 10657              	.LLST14:
 10658 032e 66000000 		.4byte	.LVL45
 10659 0332 6E000000 		.4byte	.LVL47
 10660 0336 0100     		.2byte	0x1
 10661 0338 54       		.byte	0x54
 10662 0339 7C000000 		.4byte	.LVL54
 10663 033d 84000000 		.4byte	.LVL56
 10664 0341 0100     		.2byte	0x1
 10665 0343 54       		.byte	0x54
 10666 0344 86000000 		.4byte	.LVL57
 10667 0348 8A000000 		.4byte	.LVL58
 10668 034c 0100     		.2byte	0x1
 10669 034e 54       		.byte	0x54
 10670 034f 8A000000 		.4byte	.LVL58
 10671 0353 8C000000 		.4byte	.LFE5
 10672 0357 0100     		.2byte	0x1
 10673 0359 50       		.byte	0x50
 10674 035a 00000000 		.4byte	0
 10675 035e 00000000 		.4byte	0
 10676              	.LLST15:
 10677 0362 12000000 		.4byte	.LVL35
 10678 0366 19000000 		.4byte	.LVL36-1
 10679 036a 0100     		.2byte	0x1
 10680 036c 50       		.byte	0x50
 10681 036d 19000000 		.4byte	.LVL36-1
 10682 0371 84000000 		.4byte	.LVL56
 10683 0375 0100     		.2byte	0x1
 10684 0377 55       		.byte	0x55
 10685 0378 84000000 		.4byte	.LVL56
 10686 037c 86000000 		.4byte	.LVL57
 10687 0380 0100     		.2byte	0x1
 10688 0382 50       		.byte	0x50
ARM GAS  C:\Users\Phuong\AppData\Local\Temp\ccX7yw2d.s 			page 227


 10689 0383 86000000 		.4byte	.LVL57
 10690 0387 8A000000 		.4byte	.LVL59
 10691 038b 0100     		.2byte	0x1
 10692 038d 55       		.byte	0x55
 10693 038e 00000000 		.4byte	0
 10694 0392 00000000 		.4byte	0
 10695              	.LLST16:
 10696 0396 4A000000 		.4byte	.LVL40
 10697 039a 4E000000 		.4byte	.LVL41
 10698 039e 0100     		.2byte	0x1
 10699 03a0 50       		.byte	0x50
 10700 03a1 4E000000 		.4byte	.LVL41
 10701 03a5 6E000000 		.4byte	.LVL47
 10702 03a9 0100     		.2byte	0x1
 10703 03ab 56       		.byte	0x56
 10704 03ac 7A000000 		.4byte	.LVL53
 10705 03b0 7C000000 		.4byte	.LVL54
 10706 03b4 0100     		.2byte	0x1
 10707 03b6 50       		.byte	0x50
 10708 03b7 00000000 		.4byte	0
 10709 03bb 00000000 		.4byte	0
 10710              	.LLST17:
 10711 03bf 00000000 		.4byte	.LVL60
 10712 03c3 15000000 		.4byte	.LVL62-1
 10713 03c7 0100     		.2byte	0x1
 10714 03c9 50       		.byte	0x50
 10715 03ca 15000000 		.4byte	.LVL62-1
 10716 03ce 24000000 		.4byte	.LVL64
 10717 03d2 0100     		.2byte	0x1
 10718 03d4 54       		.byte	0x54
 10719 03d5 24000000 		.4byte	.LVL64
 10720 03d9 30000000 		.4byte	.LVL66
 10721 03dd 0100     		.2byte	0x1
 10722 03df 50       		.byte	0x50
 10723 03e0 30000000 		.4byte	.LVL66
 10724 03e4 36000000 		.4byte	.LVL68
 10725 03e8 0100     		.2byte	0x1
 10726 03ea 54       		.byte	0x54
 10727 03eb 36000000 		.4byte	.LVL68
 10728 03ef 3E000000 		.4byte	.LVL70
 10729 03f3 0100     		.2byte	0x1
 10730 03f5 50       		.byte	0x50
 10731 03f6 3E000000 		.4byte	.LVL70
 10732 03fa 42000000 		.4byte	.LVL72
 10733 03fe 0100     		.2byte	0x1
 10734 0400 54       		.byte	0x54
 10735 0401 42000000 		.4byte	.LVL72
 10736 0405 44000000 		.4byte	.LFE9
 10737 0409 0400     		.2byte	0x4
 10738 040b F3       		.byte	0xf3
 10739 040c 01       		.uleb128 0x1
 10740 040d 50       		.byte	0x50
 10741 040e 9F       		.byte	0x9f
 10742 040f 00000000 		.4byte	0
 10743 0413 00000000 		.4byte	0
 10744              	.LLST18:
 10745 0417 00000000 		.4byte	.LVL60
ARM GAS  C:\Users\Phuong\AppData\Local\Temp\ccX7yw2d.s 			page 228


 10746 041b 15000000 		.4byte	.LVL62-1
 10747 041f 0100     		.2byte	0x1
 10748 0421 51       		.byte	0x51
 10749 0422 15000000 		.4byte	.LVL62-1
 10750 0426 24000000 		.4byte	.LVL64
 10751 042a 0400     		.2byte	0x4
 10752 042c F3       		.byte	0xf3
 10753 042d 01       		.uleb128 0x1
 10754 042e 51       		.byte	0x51
 10755 042f 9F       		.byte	0x9f
 10756 0430 24000000 		.4byte	.LVL64
 10757 0434 2E000000 		.4byte	.LVL65
 10758 0438 0100     		.2byte	0x1
 10759 043a 51       		.byte	0x51
 10760 043b 2E000000 		.4byte	.LVL65
 10761 043f 36000000 		.4byte	.LVL68
 10762 0443 0400     		.2byte	0x4
 10763 0445 F3       		.byte	0xf3
 10764 0446 01       		.uleb128 0x1
 10765 0447 51       		.byte	0x51
 10766 0448 9F       		.byte	0x9f
 10767 0449 36000000 		.4byte	.LVL68
 10768 044d 3C000000 		.4byte	.LVL69
 10769 0451 0100     		.2byte	0x1
 10770 0453 51       		.byte	0x51
 10771 0454 3C000000 		.4byte	.LVL69
 10772 0458 44000000 		.4byte	.LFE9
 10773 045c 0400     		.2byte	0x4
 10774 045e F3       		.byte	0xf3
 10775 045f 01       		.uleb128 0x1
 10776 0460 51       		.byte	0x51
 10777 0461 9F       		.byte	0x9f
 10778 0462 00000000 		.4byte	0
 10779 0466 00000000 		.4byte	0
 10780              	.LLST19:
 10781 046a 00000000 		.4byte	.LVL60
 10782 046e 15000000 		.4byte	.LVL62-1
 10783 0472 0100     		.2byte	0x1
 10784 0474 52       		.byte	0x52
 10785 0475 15000000 		.4byte	.LVL62-1
 10786 0479 24000000 		.4byte	.LVL64
 10787 047d 0400     		.2byte	0x4
 10788 047f F3       		.byte	0xf3
 10789 0480 01       		.uleb128 0x1
 10790 0481 52       		.byte	0x52
 10791 0482 9F       		.byte	0x9f
 10792 0483 24000000 		.4byte	.LVL64
 10793 0487 33000000 		.4byte	.LVL67-1
 10794 048b 0100     		.2byte	0x1
 10795 048d 52       		.byte	0x52
 10796 048e 33000000 		.4byte	.LVL67-1
 10797 0492 36000000 		.4byte	.LVL68
 10798 0496 0400     		.2byte	0x4
 10799 0498 F3       		.byte	0xf3
 10800 0499 01       		.uleb128 0x1
 10801 049a 52       		.byte	0x52
 10802 049b 9F       		.byte	0x9f
ARM GAS  C:\Users\Phuong\AppData\Local\Temp\ccX7yw2d.s 			page 229


 10803 049c 36000000 		.4byte	.LVL68
 10804 04a0 41000000 		.4byte	.LVL71-1
 10805 04a4 0100     		.2byte	0x1
 10806 04a6 52       		.byte	0x52
 10807 04a7 41000000 		.4byte	.LVL71-1
 10808 04ab 44000000 		.4byte	.LFE9
 10809 04af 0400     		.2byte	0x4
 10810 04b1 F3       		.byte	0xf3
 10811 04b2 01       		.uleb128 0x1
 10812 04b3 52       		.byte	0x52
 10813 04b4 9F       		.byte	0x9f
 10814 04b5 00000000 		.4byte	0
 10815 04b9 00000000 		.4byte	0
 10816              	.LLST20:
 10817 04bd 04000000 		.4byte	.LVL61
 10818 04c1 15000000 		.4byte	.LVL62-1
 10819 04c5 0100     		.2byte	0x1
 10820 04c7 50       		.byte	0x50
 10821 04c8 15000000 		.4byte	.LVL62-1
 10822 04cc 24000000 		.4byte	.LVL64
 10823 04d0 0100     		.2byte	0x1
 10824 04d2 54       		.byte	0x54
 10825 04d3 24000000 		.4byte	.LVL64
 10826 04d7 30000000 		.4byte	.LVL66
 10827 04db 0100     		.2byte	0x1
 10828 04dd 50       		.byte	0x50
 10829 04de 30000000 		.4byte	.LVL66
 10830 04e2 36000000 		.4byte	.LVL68
 10831 04e6 0100     		.2byte	0x1
 10832 04e8 54       		.byte	0x54
 10833 04e9 36000000 		.4byte	.LVL68
 10834 04ed 3E000000 		.4byte	.LVL70
 10835 04f1 0100     		.2byte	0x1
 10836 04f3 50       		.byte	0x50
 10837 04f4 3E000000 		.4byte	.LVL70
 10838 04f8 42000000 		.4byte	.LVL72
 10839 04fc 0100     		.2byte	0x1
 10840 04fe 54       		.byte	0x54
 10841 04ff 42000000 		.4byte	.LVL72
 10842 0503 44000000 		.4byte	.LFE9
 10843 0507 0400     		.2byte	0x4
 10844 0509 F3       		.byte	0xf3
 10845 050a 01       		.uleb128 0x1
 10846 050b 50       		.byte	0x50
 10847 050c 9F       		.byte	0x9f
 10848 050d 00000000 		.4byte	0
 10849 0511 00000000 		.4byte	0
 10850              	.LLST21:
 10851 0515 00000000 		.4byte	.LVL73
 10852 0519 0A000000 		.4byte	.LVL75
 10853 051d 0100     		.2byte	0x1
 10854 051f 50       		.byte	0x50
 10855 0520 0A000000 		.4byte	.LVL75
 10856 0524 32000000 		.4byte	.LVL82
 10857 0528 0100     		.2byte	0x1
 10858 052a 55       		.byte	0x55
 10859 052b 32000000 		.4byte	.LVL82
ARM GAS  C:\Users\Phuong\AppData\Local\Temp\ccX7yw2d.s 			page 230


 10860 052f 34000000 		.4byte	.LFE7
 10861 0533 0400     		.2byte	0x4
 10862 0535 F3       		.byte	0xf3
 10863 0536 01       		.uleb128 0x1
 10864 0537 50       		.byte	0x50
 10865 0538 9F       		.byte	0x9f
 10866 0539 00000000 		.4byte	0
 10867 053d 00000000 		.4byte	0
 10868              	.LLST22:
 10869 0541 00000000 		.4byte	.LVL73
 10870 0545 0A000000 		.4byte	.LVL75
 10871 0549 0100     		.2byte	0x1
 10872 054b 51       		.byte	0x51
 10873 054c 0A000000 		.4byte	.LVL75
 10874 0550 32000000 		.4byte	.LVL83
 10875 0554 0100     		.2byte	0x1
 10876 0556 57       		.byte	0x57
 10877 0557 32000000 		.4byte	.LVL83
 10878 055b 34000000 		.4byte	.LFE7
 10879 055f 0400     		.2byte	0x4
 10880 0561 F3       		.byte	0xf3
 10881 0562 01       		.uleb128 0x1
 10882 0563 51       		.byte	0x51
 10883 0564 9F       		.byte	0x9f
 10884 0565 00000000 		.4byte	0
 10885 0569 00000000 		.4byte	0
 10886              	.LLST23:
 10887 056d 06000000 		.4byte	.LVL74
 10888 0571 0A000000 		.4byte	.LVL75
 10889 0575 0200     		.2byte	0x2
 10890 0577 30       		.byte	0x30
 10891 0578 9F       		.byte	0x9f
 10892 0579 0A000000 		.4byte	.LVL75
 10893 057d 2C000000 		.4byte	.LVL78
 10894 0581 0100     		.2byte	0x1
 10895 0583 54       		.byte	0x54
 10896 0584 30000000 		.4byte	.LVL80
 10897 0588 32000000 		.4byte	.LVL81
 10898 058c 0100     		.2byte	0x1
 10899 058e 54       		.byte	0x54
 10900 058f 00000000 		.4byte	0
 10901 0593 00000000 		.4byte	0
 10902              	.LLST24:
 10903 0597 2E000000 		.4byte	.LVL79
 10904 059b 30000000 		.4byte	.LVL80
 10905 059f 0100     		.2byte	0x1
 10906 05a1 50       		.byte	0x50
 10907 05a2 32000000 		.4byte	.LVL81
 10908 05a6 34000000 		.4byte	.LFE7
 10909 05aa 0100     		.2byte	0x1
 10910 05ac 50       		.byte	0x50
 10911 05ad 00000000 		.4byte	0
 10912 05b1 00000000 		.4byte	0
 10913              	.LLST25:
 10914 05b5 00000000 		.4byte	.LVL84
 10915 05b9 2C000000 		.4byte	.LVL89
 10916 05bd 0100     		.2byte	0x1
ARM GAS  C:\Users\Phuong\AppData\Local\Temp\ccX7yw2d.s 			page 231


 10917 05bf 50       		.byte	0x50
 10918 05c0 2C000000 		.4byte	.LVL89
 10919 05c4 6C000000 		.4byte	.LFE0
 10920 05c8 0400     		.2byte	0x4
 10921 05ca F3       		.byte	0xf3
 10922 05cb 01       		.uleb128 0x1
 10923 05cc 50       		.byte	0x50
 10924 05cd 9F       		.byte	0x9f
 10925 05ce 00000000 		.4byte	0
 10926 05d2 00000000 		.4byte	0
 10927              	.LLST26:
 10928 05d6 06000000 		.4byte	.LVL85
 10929 05da 2C000000 		.4byte	.LVL89
 10930 05de 0100     		.2byte	0x1
 10931 05e0 50       		.byte	0x50
 10932 05e1 2C000000 		.4byte	.LVL89
 10933 05e5 66000000 		.4byte	.LVL94
 10934 05e9 0400     		.2byte	0x4
 10935 05eb F3       		.byte	0xf3
 10936 05ec 01       		.uleb128 0x1
 10937 05ed 50       		.byte	0x50
 10938 05ee 9F       		.byte	0x9f
 10939 05ef 00000000 		.4byte	0
 10940 05f3 00000000 		.4byte	0
 10941              	.LLST27:
 10942 05f7 08000000 		.4byte	.LVL86
 10943 05fb 66000000 		.4byte	.LVL94
 10944 05ff 0100     		.2byte	0x1
 10945 0601 54       		.byte	0x54
 10946 0602 00000000 		.4byte	0
 10947 0606 00000000 		.4byte	0
 10948              	.LLST28:
 10949 060a 08000000 		.4byte	.LVL86
 10950 060e 0C000000 		.4byte	.LVL87
 10951 0612 0200     		.2byte	0x2
 10952 0614 30       		.byte	0x30
 10953 0615 9F       		.byte	0x9f
 10954 0616 0C000000 		.4byte	.LVL87
 10955 061a 38000000 		.4byte	.LVL90
 10956 061e 0100     		.2byte	0x1
 10957 0620 53       		.byte	0x53
 10958 0621 00000000 		.4byte	0
 10959 0625 00000000 		.4byte	0
 10960              	.LLST29:
 10961 0629 60000000 		.4byte	.LVL93
 10962 062d 66000000 		.4byte	.LVL94
 10963 0631 0100     		.2byte	0x1
 10964 0633 50       		.byte	0x50
 10965 0634 00000000 		.4byte	0
 10966 0638 00000000 		.4byte	0
 10967              	.LLST30:
 10968 063c 00000000 		.4byte	.LVL95
 10969 0640 0E000000 		.4byte	.LVL96
 10970 0644 0100     		.2byte	0x1
 10971 0646 50       		.byte	0x50
 10972 0647 0E000000 		.4byte	.LVL96
 10973 064b 40000000 		.4byte	.LVL104
ARM GAS  C:\Users\Phuong\AppData\Local\Temp\ccX7yw2d.s 			page 232


 10974 064f 0100     		.2byte	0x1
 10975 0651 54       		.byte	0x54
 10976 0652 40000000 		.4byte	.LVL104
 10977 0656 44000000 		.4byte	.LVL105
 10978 065a 0400     		.2byte	0x4
 10979 065c F3       		.byte	0xf3
 10980 065d 01       		.uleb128 0x1
 10981 065e 50       		.byte	0x50
 10982 065f 9F       		.byte	0x9f
 10983 0660 44000000 		.4byte	.LVL105
 10984 0664 46000000 		.4byte	.LVL106
 10985 0668 0100     		.2byte	0x1
 10986 066a 54       		.byte	0x54
 10987 066b 46000000 		.4byte	.LVL106
 10988 066f 4E000000 		.4byte	.LVL108
 10989 0673 0400     		.2byte	0x4
 10990 0675 F3       		.byte	0xf3
 10991 0676 01       		.uleb128 0x1
 10992 0677 50       		.byte	0x50
 10993 0678 9F       		.byte	0x9f
 10994 0679 4E000000 		.4byte	.LVL108
 10995 067d 50000000 		.4byte	.LVL109
 10996 0681 0100     		.2byte	0x1
 10997 0683 54       		.byte	0x54
 10998 0684 50000000 		.4byte	.LVL109
 10999 0688 54000000 		.4byte	.LVL110
 11000 068c 0400     		.2byte	0x4
 11001 068e F3       		.byte	0xf3
 11002 068f 01       		.uleb128 0x1
 11003 0690 50       		.byte	0x50
 11004 0691 9F       		.byte	0x9f
 11005 0692 54000000 		.4byte	.LVL110
 11006 0696 56000000 		.4byte	.LVL111
 11007 069a 0100     		.2byte	0x1
 11008 069c 54       		.byte	0x54
 11009 069d 56000000 		.4byte	.LVL111
 11010 06a1 60000000 		.4byte	.LVL114
 11011 06a5 0400     		.2byte	0x4
 11012 06a7 F3       		.byte	0xf3
 11013 06a8 01       		.uleb128 0x1
 11014 06a9 50       		.byte	0x50
 11015 06aa 9F       		.byte	0x9f
 11016 06ab 60000000 		.4byte	.LVL114
 11017 06af 66000000 		.4byte	.LVL115
 11018 06b3 0100     		.2byte	0x1
 11019 06b5 50       		.byte	0x50
 11020 06b6 66000000 		.4byte	.LVL115
 11021 06ba 68000000 		.4byte	.LVL116
 11022 06be 0100     		.2byte	0x1
 11023 06c0 54       		.byte	0x54
 11024 06c1 68000000 		.4byte	.LVL116
 11025 06c5 70000000 		.4byte	.LFE6
 11026 06c9 0400     		.2byte	0x4
 11027 06cb F3       		.byte	0xf3
 11028 06cc 01       		.uleb128 0x1
 11029 06cd 50       		.byte	0x50
 11030 06ce 9F       		.byte	0x9f
ARM GAS  C:\Users\Phuong\AppData\Local\Temp\ccX7yw2d.s 			page 233


 11031 06cf 00000000 		.4byte	0
 11032 06d3 00000000 		.4byte	0
 11033              	.LLST31:
 11034 06d7 46000000 		.4byte	.LVL106
 11035 06db 4E000000 		.4byte	.LVL108
 11036 06df 0100     		.2byte	0x1
 11037 06e1 54       		.byte	0x54
 11038 06e2 58000000 		.4byte	.LVL112
 11039 06e6 60000000 		.4byte	.LVL114
 11040 06ea 0100     		.2byte	0x1
 11041 06ec 54       		.byte	0x54
 11042 06ed 6A000000 		.4byte	.LVL117
 11043 06f1 6E000000 		.4byte	.LVL118
 11044 06f5 0100     		.2byte	0x1
 11045 06f7 54       		.byte	0x54
 11046 06f8 6E000000 		.4byte	.LVL118
 11047 06fc 70000000 		.4byte	.LFE6
 11048 0700 0100     		.2byte	0x1
 11049 0702 50       		.byte	0x50
 11050 0703 00000000 		.4byte	0
 11051 0707 00000000 		.4byte	0
 11052              	.LLST32:
 11053 070b 14000000 		.4byte	.LVL98
 11054 070f 1B000000 		.4byte	.LVL99-1
 11055 0713 0100     		.2byte	0x1
 11056 0715 50       		.byte	0x50
 11057 0716 1B000000 		.4byte	.LVL99-1
 11058 071a 60000000 		.4byte	.LVL114
 11059 071e 0100     		.2byte	0x1
 11060 0720 55       		.byte	0x55
 11061 0721 66000000 		.4byte	.LVL115
 11062 0725 6A000000 		.4byte	.LVL117
 11063 0729 0100     		.2byte	0x1
 11064 072b 50       		.byte	0x50
 11065 072c 00000000 		.4byte	0
 11066 0730 00000000 		.4byte	0
 11067              	.LLST33:
 11068 0734 28000000 		.4byte	.LVL101
 11069 0738 2C000000 		.4byte	.LVL102
 11070 073c 0100     		.2byte	0x1
 11071 073e 50       		.byte	0x50
 11072 073f 2C000000 		.4byte	.LVL102
 11073 0743 4E000000 		.4byte	.LVL108
 11074 0747 0100     		.2byte	0x1
 11075 0749 56       		.byte	0x56
 11076 074a 54000000 		.4byte	.LVL110
 11077 074e 58000000 		.4byte	.LVL112
 11078 0752 0100     		.2byte	0x1
 11079 0754 50       		.byte	0x50
 11080 0755 00000000 		.4byte	0
 11081 0759 00000000 		.4byte	0
 11082              	.LLST34:
 11083 075d 00000000 		.4byte	.LVL119
 11084 0761 0B000000 		.4byte	.LVL120-1
 11085 0765 0100     		.2byte	0x1
 11086 0767 50       		.byte	0x50
 11087 0768 0B000000 		.4byte	.LVL120-1
ARM GAS  C:\Users\Phuong\AppData\Local\Temp\ccX7yw2d.s 			page 234


 11088 076c 5E000000 		.4byte	.LVL140
 11089 0770 0100     		.2byte	0x1
 11090 0772 57       		.byte	0x57
 11091 0773 5E000000 		.4byte	.LVL140
 11092 0777 60000000 		.4byte	.LFE3
 11093 077b 0400     		.2byte	0x4
 11094 077d F3       		.byte	0xf3
 11095 077e 01       		.uleb128 0x1
 11096 077f 50       		.byte	0x50
 11097 0780 9F       		.byte	0x9f
 11098 0781 00000000 		.4byte	0
 11099 0785 00000000 		.4byte	0
 11100              	.LLST35:
 11101 0789 00000000 		.4byte	.LVL119
 11102 078d 0B000000 		.4byte	.LVL120-1
 11103 0791 0100     		.2byte	0x1
 11104 0793 51       		.byte	0x51
 11105 0794 0B000000 		.4byte	.LVL120-1
 11106 0798 3E000000 		.4byte	.LVL127
 11107 079c 0100     		.2byte	0x1
 11108 079e 55       		.byte	0x55
 11109 079f 3E000000 		.4byte	.LVL127
 11110 07a3 40000000 		.4byte	.LVL128
 11111 07a7 0400     		.2byte	0x4
 11112 07a9 F3       		.byte	0xf3
 11113 07aa 01       		.uleb128 0x1
 11114 07ab 51       		.byte	0x51
 11115 07ac 9F       		.byte	0x9f
 11116 07ad 40000000 		.4byte	.LVL128
 11117 07b1 42000000 		.4byte	.LVL129
 11118 07b5 0100     		.2byte	0x1
 11119 07b7 55       		.byte	0x55
 11120 07b8 42000000 		.4byte	.LVL129
 11121 07bc 4A000000 		.4byte	.LVL131
 11122 07c0 0400     		.2byte	0x4
 11123 07c2 F3       		.byte	0xf3
 11124 07c3 01       		.uleb128 0x1
 11125 07c4 51       		.byte	0x51
 11126 07c5 9F       		.byte	0x9f
 11127 07c6 4A000000 		.4byte	.LVL131
 11128 07ca 4C000000 		.4byte	.LVL132
 11129 07ce 0100     		.2byte	0x1
 11130 07d0 55       		.byte	0x55
 11131 07d1 4C000000 		.4byte	.LVL132
 11132 07d5 4E000000 		.4byte	.LVL133
 11133 07d9 0400     		.2byte	0x4
 11134 07db F3       		.byte	0xf3
 11135 07dc 01       		.uleb128 0x1
 11136 07dd 51       		.byte	0x51
 11137 07de 9F       		.byte	0x9f
 11138 07df 4E000000 		.4byte	.LVL133
 11139 07e3 50000000 		.4byte	.LVL134
 11140 07e7 0100     		.2byte	0x1
 11141 07e9 55       		.byte	0x55
 11142 07ea 50000000 		.4byte	.LVL134
 11143 07ee 58000000 		.4byte	.LVL136
 11144 07f2 0400     		.2byte	0x4
ARM GAS  C:\Users\Phuong\AppData\Local\Temp\ccX7yw2d.s 			page 235


 11145 07f4 F3       		.byte	0xf3
 11146 07f5 01       		.uleb128 0x1
 11147 07f6 51       		.byte	0x51
 11148 07f7 9F       		.byte	0x9f
 11149 07f8 58000000 		.4byte	.LVL136
 11150 07fc 5A000000 		.4byte	.LVL137
 11151 0800 0100     		.2byte	0x1
 11152 0802 55       		.byte	0x55
 11153 0803 5A000000 		.4byte	.LVL137
 11154 0807 60000000 		.4byte	.LFE3
 11155 080b 0400     		.2byte	0x4
 11156 080d F3       		.byte	0xf3
 11157 080e 01       		.uleb128 0x1
 11158 080f 51       		.byte	0x51
 11159 0810 9F       		.byte	0x9f
 11160 0811 00000000 		.4byte	0
 11161 0815 00000000 		.4byte	0
 11162              	.LLST36:
 11163 0819 42000000 		.4byte	.LVL129
 11164 081d 4A000000 		.4byte	.LVL131
 11165 0821 0100     		.2byte	0x1
 11166 0823 55       		.byte	0x55
 11167 0824 50000000 		.4byte	.LVL134
 11168 0828 58000000 		.4byte	.LVL136
 11169 082c 0100     		.2byte	0x1
 11170 082e 55       		.byte	0x55
 11171 082f 5A000000 		.4byte	.LVL137
 11172 0833 5E000000 		.4byte	.LVL139
 11173 0837 0100     		.2byte	0x1
 11174 0839 55       		.byte	0x55
 11175 083a 5E000000 		.4byte	.LVL139
 11176 083e 60000000 		.4byte	.LFE3
 11177 0842 0100     		.2byte	0x1
 11178 0844 50       		.byte	0x50
 11179 0845 00000000 		.4byte	0
 11180 0849 00000000 		.4byte	0
 11181              	.LLST37:
 11182 084d 0E000000 		.4byte	.LVL121
 11183 0851 19000000 		.4byte	.LVL122-1
 11184 0855 0100     		.2byte	0x1
 11185 0857 50       		.byte	0x50
 11186 0858 19000000 		.4byte	.LVL122-1
 11187 085c 58000000 		.4byte	.LVL136
 11188 0860 0100     		.2byte	0x1
 11189 0862 54       		.byte	0x54
 11190 0863 58000000 		.4byte	.LVL136
 11191 0867 5A000000 		.4byte	.LVL137
 11192 086b 0100     		.2byte	0x1
 11193 086d 50       		.byte	0x50
 11194 086e 5A000000 		.4byte	.LVL137
 11195 0872 5E000000 		.4byte	.LVL138
 11196 0876 0100     		.2byte	0x1
 11197 0878 54       		.byte	0x54
 11198 0879 00000000 		.4byte	0
 11199 087d 00000000 		.4byte	0
 11200              	.LLST38:
 11201 0881 26000000 		.4byte	.LVL124
ARM GAS  C:\Users\Phuong\AppData\Local\Temp\ccX7yw2d.s 			page 236


 11202 0885 2A000000 		.4byte	.LVL125
 11203 0889 0100     		.2byte	0x1
 11204 088b 50       		.byte	0x50
 11205 088c 2A000000 		.4byte	.LVL125
 11206 0890 4A000000 		.4byte	.LVL131
 11207 0894 0100     		.2byte	0x1
 11208 0896 56       		.byte	0x56
 11209 0897 4E000000 		.4byte	.LVL133
 11210 089b 50000000 		.4byte	.LVL134
 11211 089f 0100     		.2byte	0x1
 11212 08a1 50       		.byte	0x50
 11213 08a2 00000000 		.4byte	0
 11214 08a6 00000000 		.4byte	0
 11215              	.LLST39:
 11216 08aa 00000000 		.4byte	.LVL141
 11217 08ae 08000000 		.4byte	.LVL142
 11218 08b2 0100     		.2byte	0x1
 11219 08b4 50       		.byte	0x50
 11220 08b5 08000000 		.4byte	.LVL142
 11221 08b9 60000000 		.4byte	.LVL156
 11222 08bd 0100     		.2byte	0x1
 11223 08bf 55       		.byte	0x55
 11224 08c0 60000000 		.4byte	.LVL156
 11225 08c4 6C000000 		.4byte	.LFE4
 11226 08c8 0400     		.2byte	0x4
 11227 08ca F3       		.byte	0xf3
 11228 08cb 01       		.uleb128 0x1
 11229 08cc 50       		.byte	0x50
 11230 08cd 9F       		.byte	0x9f
 11231 08ce 00000000 		.4byte	0
 11232 08d2 00000000 		.4byte	0
 11233              	.LLST40:
 11234 08d6 00000000 		.4byte	.LVL141
 11235 08da 0B000000 		.4byte	.LVL143-1
 11236 08de 0100     		.2byte	0x1
 11237 08e0 51       		.byte	0x51
 11238 08e1 0B000000 		.4byte	.LVL143-1
 11239 08e5 6C000000 		.4byte	.LFE4
 11240 08e9 0400     		.2byte	0x4
 11241 08eb F3       		.byte	0xf3
 11242 08ec 01       		.uleb128 0x1
 11243 08ed 51       		.byte	0x51
 11244 08ee 9F       		.byte	0x9f
 11245 08ef 00000000 		.4byte	0
 11246 08f3 00000000 		.4byte	0
 11247              	.LLST41:
 11248 08f7 00000000 		.4byte	.LVL141
 11249 08fb 0B000000 		.4byte	.LVL143-1
 11250 08ff 0100     		.2byte	0x1
 11251 0901 52       		.byte	0x52
 11252 0902 0B000000 		.4byte	.LVL143-1
 11253 0906 60000000 		.4byte	.LVL157
 11254 090a 0100     		.2byte	0x1
 11255 090c 56       		.byte	0x56
 11256 090d 60000000 		.4byte	.LVL157
 11257 0911 6C000000 		.4byte	.LFE4
 11258 0915 0400     		.2byte	0x4
ARM GAS  C:\Users\Phuong\AppData\Local\Temp\ccX7yw2d.s 			page 237


 11259 0917 F3       		.byte	0xf3
 11260 0918 01       		.uleb128 0x1
 11261 0919 52       		.byte	0x52
 11262 091a 9F       		.byte	0x9f
 11263 091b 00000000 		.4byte	0
 11264 091f 00000000 		.4byte	0
 11265              	.LLST42:
 11266 0923 0E000000 		.4byte	.LVL144
 11267 0927 14000000 		.4byte	.LVL145
 11268 092b 0100     		.2byte	0x1
 11269 092d 50       		.byte	0x50
 11270 092e 14000000 		.4byte	.LVL145
 11271 0932 26000000 		.4byte	.LVL148
 11272 0936 0100     		.2byte	0x1
 11273 0938 54       		.byte	0x54
 11274 0939 26000000 		.4byte	.LVL148
 11275 093d 2B000000 		.4byte	.LVL149-1
 11276 0941 0100     		.2byte	0x1
 11277 0943 50       		.byte	0x50
 11278 0944 2B000000 		.4byte	.LVL149-1
 11279 0948 60000000 		.4byte	.LVL155
 11280 094c 0100     		.2byte	0x1
 11281 094e 54       		.byte	0x54
 11282 094f 00000000 		.4byte	0
 11283 0953 00000000 		.4byte	0
 11284              	.LLST43:
 11285 0957 00000000 		.4byte	.LVL158
 11286 095b 0E000000 		.4byte	.LVL159
 11287 095f 0100     		.2byte	0x1
 11288 0961 50       		.byte	0x50
 11289 0962 0E000000 		.4byte	.LVL159
 11290 0966 62000000 		.4byte	.LVL167
 11291 096a 0100     		.2byte	0x1
 11292 096c 57       		.byte	0x57
 11293 096d 62000000 		.4byte	.LVL167
 11294 0971 64000000 		.4byte	.LVL168
 11295 0975 0100     		.2byte	0x1
 11296 0977 50       		.byte	0x50
 11297 0978 64000000 		.4byte	.LVL168
 11298 097c 66000000 		.4byte	.LVL172
 11299 0980 0100     		.2byte	0x1
 11300 0982 57       		.byte	0x57
 11301 0983 66000000 		.4byte	.LVL172
 11302 0987 68000000 		.4byte	.LFE11
 11303 098b 0400     		.2byte	0x4
 11304 098d F3       		.byte	0xf3
 11305 098e 01       		.uleb128 0x1
 11306 098f 50       		.byte	0x50
 11307 0990 9F       		.byte	0x9f
 11308 0991 00000000 		.4byte	0
 11309 0995 00000000 		.4byte	0
 11310              	.LLST44:
 11311 0999 00000000 		.4byte	.LVL158
 11312 099d 11000000 		.4byte	.LVL160-1
 11313 09a1 0100     		.2byte	0x1
 11314 09a3 51       		.byte	0x51
 11315 09a4 11000000 		.4byte	.LVL160-1
ARM GAS  C:\Users\Phuong\AppData\Local\Temp\ccX7yw2d.s 			page 238


 11316 09a8 62000000 		.4byte	.LVL167
 11317 09ac 0100     		.2byte	0x1
 11318 09ae 56       		.byte	0x56
 11319 09af 62000000 		.4byte	.LVL167
 11320 09b3 64000000 		.4byte	.LVL168
 11321 09b7 0100     		.2byte	0x1
 11322 09b9 51       		.byte	0x51
 11323 09ba 64000000 		.4byte	.LVL168
 11324 09be 66000000 		.4byte	.LVL171
 11325 09c2 0100     		.2byte	0x1
 11326 09c4 56       		.byte	0x56
 11327 09c5 66000000 		.4byte	.LVL171
 11328 09c9 68000000 		.4byte	.LFE11
 11329 09cd 0400     		.2byte	0x4
 11330 09cf F3       		.byte	0xf3
 11331 09d0 01       		.uleb128 0x1
 11332 09d1 51       		.byte	0x51
 11333 09d2 9F       		.byte	0x9f
 11334 09d3 00000000 		.4byte	0
 11335 09d7 00000000 		.4byte	0
 11336              	.LLST45:
 11337 09db 00000000 		.4byte	.LVL158
 11338 09df 11000000 		.4byte	.LVL160-1
 11339 09e3 0100     		.2byte	0x1
 11340 09e5 52       		.byte	0x52
 11341 09e6 11000000 		.4byte	.LVL160-1
 11342 09ea 62000000 		.4byte	.LVL167
 11343 09ee 0100     		.2byte	0x1
 11344 09f0 55       		.byte	0x55
 11345 09f1 62000000 		.4byte	.LVL167
 11346 09f5 64000000 		.4byte	.LVL168
 11347 09f9 0100     		.2byte	0x1
 11348 09fb 52       		.byte	0x52
 11349 09fc 64000000 		.4byte	.LVL168
 11350 0a00 66000000 		.4byte	.LVL170
 11351 0a04 0100     		.2byte	0x1
 11352 0a06 55       		.byte	0x55
 11353 0a07 66000000 		.4byte	.LVL170
 11354 0a0b 68000000 		.4byte	.LFE11
 11355 0a0f 0400     		.2byte	0x4
 11356 0a11 F3       		.byte	0xf3
 11357 0a12 01       		.uleb128 0x1
 11358 0a13 52       		.byte	0x52
 11359 0a14 9F       		.byte	0x9f
 11360 0a15 00000000 		.4byte	0
 11361 0a19 00000000 		.4byte	0
 11362              	.LLST46:
 11363 0a1d 14000000 		.4byte	.LVL161
 11364 0a21 36000000 		.4byte	.LVL162
 11365 0a25 0100     		.2byte	0x1
 11366 0a27 50       		.byte	0x50
 11367 0a28 36000000 		.4byte	.LVL162
 11368 0a2c 54000000 		.4byte	.LVL164
 11369 0a30 0100     		.2byte	0x1
 11370 0a32 54       		.byte	0x54
 11371 0a33 54000000 		.4byte	.LVL164
 11372 0a37 58000000 		.4byte	.LVL165
ARM GAS  C:\Users\Phuong\AppData\Local\Temp\ccX7yw2d.s 			page 239


 11373 0a3b 0200     		.2byte	0x2
 11374 0a3d 30       		.byte	0x30
 11375 0a3e 9F       		.byte	0x9f
 11376 0a3f 58000000 		.4byte	.LVL165
 11377 0a43 62000000 		.4byte	.LVL167
 11378 0a47 0100     		.2byte	0x1
 11379 0a49 54       		.byte	0x54
 11380 0a4a 64000000 		.4byte	.LVL168
 11381 0a4e 66000000 		.4byte	.LVL169
 11382 0a52 0100     		.2byte	0x1
 11383 0a54 54       		.byte	0x54
 11384 0a55 66000000 		.4byte	.LVL169
 11385 0a59 68000000 		.4byte	.LFE11
 11386 0a5d 0100     		.2byte	0x1
 11387 0a5f 50       		.byte	0x50
 11388 0a60 00000000 		.4byte	0
 11389 0a64 00000000 		.4byte	0
 11390              	.LLST47:
 11391 0a68 00000000 		.4byte	.LVL173
 11392 0a6c 12000000 		.4byte	.LVL174
 11393 0a70 0100     		.2byte	0x1
 11394 0a72 50       		.byte	0x50
 11395 0a73 12000000 		.4byte	.LVL174
 11396 0a77 54000000 		.4byte	.LVL179
 11397 0a7b 0100     		.2byte	0x1
 11398 0a7d 57       		.byte	0x57
 11399 0a7e 54000000 		.4byte	.LVL179
 11400 0a82 56000000 		.4byte	.LVL180
 11401 0a86 0100     		.2byte	0x1
 11402 0a88 50       		.byte	0x50
 11403 0a89 56000000 		.4byte	.LVL180
 11404 0a8d 5A000000 		.4byte	.LVL184
 11405 0a91 0100     		.2byte	0x1
 11406 0a93 57       		.byte	0x57
 11407 0a94 5A000000 		.4byte	.LVL184
 11408 0a98 5C000000 		.4byte	.LFE12
 11409 0a9c 0400     		.2byte	0x4
 11410 0a9e F3       		.byte	0xf3
 11411 0a9f 01       		.uleb128 0x1
 11412 0aa0 50       		.byte	0x50
 11413 0aa1 9F       		.byte	0x9f
 11414 0aa2 00000000 		.4byte	0
 11415 0aa6 00000000 		.4byte	0
 11416              	.LLST48:
 11417 0aaa 00000000 		.4byte	.LVL173
 11418 0aae 15000000 		.4byte	.LVL175-1
 11419 0ab2 0100     		.2byte	0x1
 11420 0ab4 51       		.byte	0x51
 11421 0ab5 15000000 		.4byte	.LVL175-1
 11422 0ab9 54000000 		.4byte	.LVL179
 11423 0abd 0100     		.2byte	0x1
 11424 0abf 55       		.byte	0x55
 11425 0ac0 54000000 		.4byte	.LVL179
 11426 0ac4 56000000 		.4byte	.LVL180
 11427 0ac8 0100     		.2byte	0x1
 11428 0aca 51       		.byte	0x51
 11429 0acb 56000000 		.4byte	.LVL180
ARM GAS  C:\Users\Phuong\AppData\Local\Temp\ccX7yw2d.s 			page 240


 11430 0acf 5A000000 		.4byte	.LVL182
 11431 0ad3 0100     		.2byte	0x1
 11432 0ad5 55       		.byte	0x55
 11433 0ad6 5A000000 		.4byte	.LVL182
 11434 0ada 5C000000 		.4byte	.LFE12
 11435 0ade 0400     		.2byte	0x4
 11436 0ae0 F3       		.byte	0xf3
 11437 0ae1 01       		.uleb128 0x1
 11438 0ae2 51       		.byte	0x51
 11439 0ae3 9F       		.byte	0x9f
 11440 0ae4 00000000 		.4byte	0
 11441 0ae8 00000000 		.4byte	0
 11442              	.LLST49:
 11443 0aec 00000000 		.4byte	.LVL173
 11444 0af0 15000000 		.4byte	.LVL175-1
 11445 0af4 0100     		.2byte	0x1
 11446 0af6 52       		.byte	0x52
 11447 0af7 15000000 		.4byte	.LVL175-1
 11448 0afb 54000000 		.4byte	.LVL179
 11449 0aff 0100     		.2byte	0x1
 11450 0b01 56       		.byte	0x56
 11451 0b02 54000000 		.4byte	.LVL179
 11452 0b06 56000000 		.4byte	.LVL180
 11453 0b0a 0100     		.2byte	0x1
 11454 0b0c 52       		.byte	0x52
 11455 0b0d 56000000 		.4byte	.LVL180
 11456 0b11 5A000000 		.4byte	.LVL183
 11457 0b15 0100     		.2byte	0x1
 11458 0b17 56       		.byte	0x56
 11459 0b18 5A000000 		.4byte	.LVL183
 11460 0b1c 5C000000 		.4byte	.LFE12
 11461 0b20 0400     		.2byte	0x4
 11462 0b22 F3       		.byte	0xf3
 11463 0b23 01       		.uleb128 0x1
 11464 0b24 52       		.byte	0x52
 11465 0b25 9F       		.byte	0x9f
 11466 0b26 00000000 		.4byte	0
 11467 0b2a 00000000 		.4byte	0
 11468              	.LLST50:
 11469 0b2e 00000000 		.4byte	.LVL173
 11470 0b32 15000000 		.4byte	.LVL175-1
 11471 0b36 0100     		.2byte	0x1
 11472 0b38 53       		.byte	0x53
 11473 0b39 15000000 		.4byte	.LVL175-1
 11474 0b3d 54000000 		.4byte	.LVL179
 11475 0b41 0200     		.2byte	0x2
 11476 0b43 91       		.byte	0x91
 11477 0b44 64       		.sleb128 -28
 11478 0b45 54000000 		.4byte	.LVL179
 11479 0b49 56000000 		.4byte	.LVL180
 11480 0b4d 0100     		.2byte	0x1
 11481 0b4f 53       		.byte	0x53
 11482 0b50 56000000 		.4byte	.LVL180
 11483 0b54 5C000000 		.4byte	.LFE12
 11484 0b58 0200     		.2byte	0x2
 11485 0b5a 91       		.byte	0x91
 11486 0b5b 64       		.sleb128 -28
ARM GAS  C:\Users\Phuong\AppData\Local\Temp\ccX7yw2d.s 			page 241


 11487 0b5c 00000000 		.4byte	0
 11488 0b60 00000000 		.4byte	0
 11489              	.LLST51:
 11490 0b64 18000000 		.4byte	.LVL176
 11491 0b68 3A000000 		.4byte	.LVL177
 11492 0b6c 0100     		.2byte	0x1
 11493 0b6e 50       		.byte	0x50
 11494 0b6f 3A000000 		.4byte	.LVL177
 11495 0b73 54000000 		.4byte	.LVL179
 11496 0b77 0100     		.2byte	0x1
 11497 0b79 54       		.byte	0x54
 11498 0b7a 56000000 		.4byte	.LVL180
 11499 0b7e 5A000000 		.4byte	.LVL181
 11500 0b82 0100     		.2byte	0x1
 11501 0b84 54       		.byte	0x54
 11502 0b85 5A000000 		.4byte	.LVL181
 11503 0b89 5C000000 		.4byte	.LFE12
 11504 0b8d 0100     		.2byte	0x1
 11505 0b8f 50       		.byte	0x50
 11506 0b90 00000000 		.4byte	0
 11507 0b94 00000000 		.4byte	0
 11508              	.LLST52:
 11509 0b98 00000000 		.4byte	.LVL185
 11510 0b9c 0E000000 		.4byte	.LVL187
 11511 0ba0 0100     		.2byte	0x1
 11512 0ba2 50       		.byte	0x50
 11513 0ba3 0E000000 		.4byte	.LVL187
 11514 0ba7 11000000 		.4byte	.LVL188-1
 11515 0bab 0100     		.2byte	0x1
 11516 0bad 53       		.byte	0x53
 11517 0bae 11000000 		.4byte	.LVL188-1
 11518 0bb2 44000000 		.4byte	.LVL193
 11519 0bb6 0100     		.2byte	0x1
 11520 0bb8 54       		.byte	0x54
 11521 0bb9 44000000 		.4byte	.LVL193
 11522 0bbd 46000000 		.4byte	.LVL194
 11523 0bc1 0100     		.2byte	0x1
 11524 0bc3 50       		.byte	0x50
 11525 0bc4 46000000 		.4byte	.LVL194
 11526 0bc8 4E000000 		.4byte	.LVL197
 11527 0bcc 0100     		.2byte	0x1
 11528 0bce 54       		.byte	0x54
 11529 0bcf 4E000000 		.4byte	.LVL197
 11530 0bd3 64000000 		.4byte	.LFE14
 11531 0bd7 0400     		.2byte	0x4
 11532 0bd9 F3       		.byte	0xf3
 11533 0bda 01       		.uleb128 0x1
 11534 0bdb 50       		.byte	0x50
 11535 0bdc 9F       		.byte	0x9f
 11536 0bdd 00000000 		.4byte	0
 11537 0be1 00000000 		.4byte	0
 11538              	.LLST53:
 11539 0be5 32000000 		.4byte	.LVL190
 11540 0be9 36000000 		.4byte	.LVL191
 11541 0bed 0400     		.2byte	0x4
 11542 0bef 0A       		.byte	0xa
 11543 0bf0 5703     		.2byte	0x357
ARM GAS  C:\Users\Phuong\AppData\Local\Temp\ccX7yw2d.s 			page 242


 11544 0bf2 9F       		.byte	0x9f
 11545 0bf3 40000000 		.4byte	.LVL192
 11546 0bf7 44000000 		.4byte	.LVL193
 11547 0bfb 0200     		.2byte	0x2
 11548 0bfd 30       		.byte	0x30
 11549 0bfe 9F       		.byte	0x9f
 11550 0bff 4E000000 		.4byte	.LVL196
 11551 0c03 64000000 		.4byte	.LFE14
 11552 0c07 0100     		.2byte	0x1
 11553 0c09 50       		.byte	0x50
 11554 0c0a 00000000 		.4byte	0
 11555 0c0e 00000000 		.4byte	0
 11556              	.LLST54:
 11557 0c12 06000000 		.4byte	.LVL186
 11558 0c16 0E000000 		.4byte	.LVL187
 11559 0c1a 0100     		.2byte	0x1
 11560 0c1c 50       		.byte	0x50
 11561 0c1d 0E000000 		.4byte	.LVL187
 11562 0c21 11000000 		.4byte	.LVL188-1
 11563 0c25 0100     		.2byte	0x1
 11564 0c27 53       		.byte	0x53
 11565 0c28 11000000 		.4byte	.LVL188-1
 11566 0c2c 44000000 		.4byte	.LVL193
 11567 0c30 0100     		.2byte	0x1
 11568 0c32 54       		.byte	0x54
 11569 0c33 48000000 		.4byte	.LVL195
 11570 0c37 4E000000 		.4byte	.LVL196
 11571 0c3b 0100     		.2byte	0x1
 11572 0c3d 54       		.byte	0x54
 11573 0c3e 00000000 		.4byte	0
 11574 0c42 00000000 		.4byte	0
 11575              	.LLST55:
 11576 0c46 00000000 		.4byte	.LVL198
 11577 0c4a 1A000000 		.4byte	.LVL201
 11578 0c4e 0100     		.2byte	0x1
 11579 0c50 50       		.byte	0x50
 11580 0c51 1A000000 		.4byte	.LVL201
 11581 0c55 30000000 		.4byte	.LVL205
 11582 0c59 0100     		.2byte	0x1
 11583 0c5b 55       		.byte	0x55
 11584 0c5c 30000000 		.4byte	.LVL205
 11585 0c60 36000000 		.4byte	.LVL206
 11586 0c64 0100     		.2byte	0x1
 11587 0c66 50       		.byte	0x50
 11588 0c67 36000000 		.4byte	.LVL206
 11589 0c6b 66000000 		.4byte	.LVL215
 11590 0c6f 0100     		.2byte	0x1
 11591 0c71 55       		.byte	0x55
 11592 0c72 66000000 		.4byte	.LVL215
 11593 0c76 6C000000 		.4byte	.LVL216
 11594 0c7a 0100     		.2byte	0x1
 11595 0c7c 50       		.byte	0x50
 11596 0c7d 6C000000 		.4byte	.LVL216
 11597 0c81 88000000 		.4byte	.LVL221
 11598 0c85 0100     		.2byte	0x1
 11599 0c87 55       		.byte	0x55
 11600 0c88 88000000 		.4byte	.LVL221
ARM GAS  C:\Users\Phuong\AppData\Local\Temp\ccX7yw2d.s 			page 243


 11601 0c8c 8A000000 		.4byte	.LVL222
 11602 0c90 0100     		.2byte	0x1
 11603 0c92 50       		.byte	0x50
 11604 0c93 8A000000 		.4byte	.LVL222
 11605 0c97 8C000000 		.4byte	.LVL223
 11606 0c9b 0100     		.2byte	0x1
 11607 0c9d 55       		.byte	0x55
 11608 0c9e 8C000000 		.4byte	.LVL223
 11609 0ca2 9C000000 		.4byte	.LFE15
 11610 0ca6 0400     		.2byte	0x4
 11611 0ca8 F3       		.byte	0xf3
 11612 0ca9 01       		.uleb128 0x1
 11613 0caa 50       		.byte	0x50
 11614 0cab 9F       		.byte	0x9f
 11615 0cac 00000000 		.4byte	0
 11616 0cb0 00000000 		.4byte	0
 11617              	.LLST56:
 11618 0cb4 00000000 		.4byte	.LVL198
 11619 0cb8 1D000000 		.4byte	.LVL202-1
 11620 0cbc 0100     		.2byte	0x1
 11621 0cbe 51       		.byte	0x51
 11622 0cbf 1D000000 		.4byte	.LVL202-1
 11623 0cc3 30000000 		.4byte	.LVL205
 11624 0cc7 0400     		.2byte	0x4
 11625 0cc9 F3       		.byte	0xf3
 11626 0cca 01       		.uleb128 0x1
 11627 0ccb 51       		.byte	0x51
 11628 0ccc 9F       		.byte	0x9f
 11629 0ccd 30000000 		.4byte	.LVL205
 11630 0cd1 36000000 		.4byte	.LVL206
 11631 0cd5 0100     		.2byte	0x1
 11632 0cd7 51       		.byte	0x51
 11633 0cd8 36000000 		.4byte	.LVL206
 11634 0cdc 66000000 		.4byte	.LVL215
 11635 0ce0 0400     		.2byte	0x4
 11636 0ce2 F3       		.byte	0xf3
 11637 0ce3 01       		.uleb128 0x1
 11638 0ce4 51       		.byte	0x51
 11639 0ce5 9F       		.byte	0x9f
 11640 0ce6 66000000 		.4byte	.LVL215
 11641 0cea 6C000000 		.4byte	.LVL216
 11642 0cee 0100     		.2byte	0x1
 11643 0cf0 51       		.byte	0x51
 11644 0cf1 6C000000 		.4byte	.LVL216
 11645 0cf5 88000000 		.4byte	.LVL221
 11646 0cf9 0400     		.2byte	0x4
 11647 0cfb F3       		.byte	0xf3
 11648 0cfc 01       		.uleb128 0x1
 11649 0cfd 51       		.byte	0x51
 11650 0cfe 9F       		.byte	0x9f
 11651 0cff 88000000 		.4byte	.LVL221
 11652 0d03 8A000000 		.4byte	.LVL222
 11653 0d07 0100     		.2byte	0x1
 11654 0d09 51       		.byte	0x51
 11655 0d0a 8A000000 		.4byte	.LVL222
 11656 0d0e 9C000000 		.4byte	.LFE15
 11657 0d12 0400     		.2byte	0x4
ARM GAS  C:\Users\Phuong\AppData\Local\Temp\ccX7yw2d.s 			page 244


 11658 0d14 F3       		.byte	0xf3
 11659 0d15 01       		.uleb128 0x1
 11660 0d16 51       		.byte	0x51
 11661 0d17 9F       		.byte	0x9f
 11662 0d18 00000000 		.4byte	0
 11663 0d1c 00000000 		.4byte	0
 11664              	.LLST57:
 11665 0d20 00000000 		.4byte	.LVL198
 11666 0d24 1D000000 		.4byte	.LVL202-1
 11667 0d28 0100     		.2byte	0x1
 11668 0d2a 52       		.byte	0x52
 11669 0d2b 1D000000 		.4byte	.LVL202-1
 11670 0d2f 30000000 		.4byte	.LVL205
 11671 0d33 0100     		.2byte	0x1
 11672 0d35 54       		.byte	0x54
 11673 0d36 30000000 		.4byte	.LVL205
 11674 0d3a 36000000 		.4byte	.LVL206
 11675 0d3e 0100     		.2byte	0x1
 11676 0d40 52       		.byte	0x52
 11677 0d41 36000000 		.4byte	.LVL206
 11678 0d45 66000000 		.4byte	.LVL215
 11679 0d49 0100     		.2byte	0x1
 11680 0d4b 54       		.byte	0x54
 11681 0d4c 66000000 		.4byte	.LVL215
 11682 0d50 6C000000 		.4byte	.LVL216
 11683 0d54 0100     		.2byte	0x1
 11684 0d56 52       		.byte	0x52
 11685 0d57 6C000000 		.4byte	.LVL216
 11686 0d5b 6E000000 		.4byte	.LVL217
 11687 0d5f 0100     		.2byte	0x1
 11688 0d61 54       		.byte	0x54
 11689 0d62 6E000000 		.4byte	.LVL217
 11690 0d66 88000000 		.4byte	.LVL221
 11691 0d6a 0400     		.2byte	0x4
 11692 0d6c F3       		.byte	0xf3
 11693 0d6d 01       		.uleb128 0x1
 11694 0d6e 52       		.byte	0x52
 11695 0d6f 9F       		.byte	0x9f
 11696 0d70 88000000 		.4byte	.LVL221
 11697 0d74 8A000000 		.4byte	.LVL222
 11698 0d78 0100     		.2byte	0x1
 11699 0d7a 52       		.byte	0x52
 11700 0d7b 8A000000 		.4byte	.LVL222
 11701 0d7f 9C000000 		.4byte	.LFE15
 11702 0d83 0400     		.2byte	0x4
 11703 0d85 F3       		.byte	0xf3
 11704 0d86 01       		.uleb128 0x1
 11705 0d87 52       		.byte	0x52
 11706 0d88 9F       		.byte	0x9f
 11707 0d89 00000000 		.4byte	0
 11708 0d8d 00000000 		.4byte	0
 11709              	.LLST58:
 11710 0d91 14000000 		.4byte	.LVL200
 11711 0d95 3C000000 		.4byte	.LVL208
 11712 0d99 0200     		.2byte	0x2
 11713 0d9b 30       		.byte	0x30
 11714 0d9c 9F       		.byte	0x9f
ARM GAS  C:\Users\Phuong\AppData\Local\Temp\ccX7yw2d.s 			page 245


 11715 0d9d 3C000000 		.4byte	.LVL208
 11716 0da1 54000000 		.4byte	.LVL210
 11717 0da5 0100     		.2byte	0x1
 11718 0da7 56       		.byte	0x56
 11719 0da8 54000000 		.4byte	.LVL210
 11720 0dac 56000000 		.4byte	.LVL211
 11721 0db0 0200     		.2byte	0x2
 11722 0db2 30       		.byte	0x30
 11723 0db3 9F       		.byte	0x9f
 11724 0db4 56000000 		.4byte	.LVL211
 11725 0db8 58000000 		.4byte	.LVL212
 11726 0dbc 0100     		.2byte	0x1
 11727 0dbe 56       		.byte	0x56
 11728 0dbf 5A000000 		.4byte	.LVL213
 11729 0dc3 66000000 		.4byte	.LVL215
 11730 0dc7 0100     		.2byte	0x1
 11731 0dc9 56       		.byte	0x56
 11732 0dca 6C000000 		.4byte	.LVL216
 11733 0dce 88000000 		.4byte	.LVL221
 11734 0dd2 0100     		.2byte	0x1
 11735 0dd4 56       		.byte	0x56
 11736 0dd5 8A000000 		.4byte	.LVL222
 11737 0dd9 8C000000 		.4byte	.LVL224
 11738 0ddd 0100     		.2byte	0x1
 11739 0ddf 56       		.byte	0x56
 11740 0de0 8C000000 		.4byte	.LVL224
 11741 0de4 9C000000 		.4byte	.LFE15
 11742 0de8 0100     		.2byte	0x1
 11743 0dea 50       		.byte	0x50
 11744 0deb 00000000 		.4byte	0
 11745 0def 00000000 		.4byte	0
 11746              	.LLST59:
 11747 0df3 0A000000 		.4byte	.LVL199
 11748 0df7 1A000000 		.4byte	.LVL201
 11749 0dfb 0100     		.2byte	0x1
 11750 0dfd 50       		.byte	0x50
 11751 0dfe 1A000000 		.4byte	.LVL201
 11752 0e02 30000000 		.4byte	.LVL205
 11753 0e06 0100     		.2byte	0x1
 11754 0e08 55       		.byte	0x55
 11755 0e09 30000000 		.4byte	.LVL205
 11756 0e0d 36000000 		.4byte	.LVL206
 11757 0e11 0100     		.2byte	0x1
 11758 0e13 50       		.byte	0x50
 11759 0e14 36000000 		.4byte	.LVL206
 11760 0e18 66000000 		.4byte	.LVL215
 11761 0e1c 0100     		.2byte	0x1
 11762 0e1e 55       		.byte	0x55
 11763 0e1f 66000000 		.4byte	.LVL215
 11764 0e23 6C000000 		.4byte	.LVL216
 11765 0e27 0100     		.2byte	0x1
 11766 0e29 50       		.byte	0x50
 11767 0e2a 6C000000 		.4byte	.LVL216
 11768 0e2e 88000000 		.4byte	.LVL221
 11769 0e32 0100     		.2byte	0x1
 11770 0e34 55       		.byte	0x55
 11771 0e35 00000000 		.4byte	0
ARM GAS  C:\Users\Phuong\AppData\Local\Temp\ccX7yw2d.s 			page 246


 11772 0e39 00000000 		.4byte	0
 11773              	.LLST60:
 11774 0e3d 6C000000 		.4byte	.LVL216
 11775 0e41 70000000 		.4byte	.LVL218
 11776 0e45 0200     		.2byte	0x2
 11777 0e47 30       		.byte	0x30
 11778 0e48 9F       		.byte	0x9f
 11779 0e49 70000000 		.4byte	.LVL218
 11780 0e4d 88000000 		.4byte	.LVL221
 11781 0e51 0100     		.2byte	0x1
 11782 0e53 54       		.byte	0x54
 11783 0e54 00000000 		.4byte	0
 11784 0e58 00000000 		.4byte	0
 11785              	.LLST61:
 11786 0e5c 14000000 		.4byte	.LVL200
 11787 0e60 20000000 		.4byte	.LVL203
 11788 0e64 0200     		.2byte	0x2
 11789 0e66 30       		.byte	0x30
 11790 0e67 9F       		.byte	0x9f
 11791 0e68 20000000 		.4byte	.LVL203
 11792 0e6c 27000000 		.4byte	.LVL204-1
 11793 0e70 0100     		.2byte	0x1
 11794 0e72 50       		.byte	0x50
 11795 0e73 27000000 		.4byte	.LVL204-1
 11796 0e77 30000000 		.4byte	.LVL205
 11797 0e7b 0100     		.2byte	0x1
 11798 0e7d 57       		.byte	0x57
 11799 0e7e 30000000 		.4byte	.LVL205
 11800 0e82 36000000 		.4byte	.LVL206
 11801 0e86 0200     		.2byte	0x2
 11802 0e88 30       		.byte	0x30
 11803 0e89 9F       		.byte	0x9f
 11804 0e8a 36000000 		.4byte	.LVL206
 11805 0e8e 3A000000 		.4byte	.LVL207
 11806 0e92 0100     		.2byte	0x1
 11807 0e94 50       		.byte	0x50
 11808 0e95 3A000000 		.4byte	.LVL207
 11809 0e99 66000000 		.4byte	.LVL215
 11810 0e9d 0100     		.2byte	0x1
 11811 0e9f 57       		.byte	0x57
 11812 0ea0 00000000 		.4byte	0
 11813 0ea4 00000000 		.4byte	0
 11814              	.LLST62:
 11815 0ea8 00000000 		.4byte	.LVL225
 11816 0eac 0D000000 		.4byte	.LVL227-1
 11817 0eb0 0100     		.2byte	0x1
 11818 0eb2 50       		.byte	0x50
 11819 0eb3 0D000000 		.4byte	.LVL227-1
 11820 0eb7 24000000 		.4byte	.LVL231
 11821 0ebb 0100     		.2byte	0x1
 11822 0ebd 54       		.byte	0x54
 11823 0ebe 24000000 		.4byte	.LVL231
 11824 0ec2 26000000 		.4byte	.LFE13
 11825 0ec6 0400     		.2byte	0x4
 11826 0ec8 F3       		.byte	0xf3
 11827 0ec9 01       		.uleb128 0x1
 11828 0eca 50       		.byte	0x50
ARM GAS  C:\Users\Phuong\AppData\Local\Temp\ccX7yw2d.s 			page 247


 11829 0ecb 9F       		.byte	0x9f
 11830 0ecc 00000000 		.4byte	0
 11831 0ed0 00000000 		.4byte	0
 11832              	.LLST63:
 11833 0ed4 06000000 		.4byte	.LVL226
 11834 0ed8 0D000000 		.4byte	.LVL227-1
 11835 0edc 0100     		.2byte	0x1
 11836 0ede 50       		.byte	0x50
 11837 0edf 0D000000 		.4byte	.LVL227-1
 11838 0ee3 24000000 		.4byte	.LVL230
 11839 0ee7 0100     		.2byte	0x1
 11840 0ee9 54       		.byte	0x54
 11841 0eea 00000000 		.4byte	0
 11842 0eee 00000000 		.4byte	0
 11843              	.LLST64:
 11844 0ef2 00000000 		.4byte	.LVL232
 11845 0ef6 0A000000 		.4byte	.LVL235
 11846 0efa 0100     		.2byte	0x1
 11847 0efc 50       		.byte	0x50
 11848 0efd 0A000000 		.4byte	.LVL235
 11849 0f01 0C000000 		.4byte	.LVL236
 11850 0f05 0400     		.2byte	0x4
 11851 0f07 F3       		.byte	0xf3
 11852 0f08 01       		.uleb128 0x1
 11853 0f09 50       		.byte	0x50
 11854 0f0a 9F       		.byte	0x9f
 11855 0f0b 0C000000 		.4byte	.LVL236
 11856 0f0f 0E000000 		.4byte	.LVL237
 11857 0f13 0100     		.2byte	0x1
 11858 0f15 50       		.byte	0x50
 11859 0f16 0E000000 		.4byte	.LVL237
 11860 0f1a 14000000 		.4byte	.LFE16
 11861 0f1e 0400     		.2byte	0x4
 11862 0f20 F3       		.byte	0xf3
 11863 0f21 01       		.uleb128 0x1
 11864 0f22 50       		.byte	0x50
 11865 0f23 9F       		.byte	0x9f
 11866 0f24 00000000 		.4byte	0
 11867 0f28 00000000 		.4byte	0
 11868              	.LLST65:
 11869 0f2c 08000000 		.4byte	.LVL234
 11870 0f30 0C000000 		.4byte	.LVL236
 11871 0f34 0200     		.2byte	0x2
 11872 0f36 30       		.byte	0x30
 11873 0f37 9F       		.byte	0x9f
 11874 0f38 0E000000 		.4byte	.LVL237
 11875 0f3c 14000000 		.4byte	.LFE16
 11876 0f40 0100     		.2byte	0x1
 11877 0f42 50       		.byte	0x50
 11878 0f43 00000000 		.4byte	0
 11879 0f47 00000000 		.4byte	0
 11880              	.LLST66:
 11881 0f4b 04000000 		.4byte	.LVL233
 11882 0f4f 0A000000 		.4byte	.LVL235
 11883 0f53 0100     		.2byte	0x1
 11884 0f55 50       		.byte	0x50
 11885 0f56 0A000000 		.4byte	.LVL235
ARM GAS  C:\Users\Phuong\AppData\Local\Temp\ccX7yw2d.s 			page 248


 11886 0f5a 0C000000 		.4byte	.LVL236
 11887 0f5e 0400     		.2byte	0x4
 11888 0f60 F3       		.byte	0xf3
 11889 0f61 01       		.uleb128 0x1
 11890 0f62 50       		.byte	0x50
 11891 0f63 9F       		.byte	0x9f
 11892 0f64 00000000 		.4byte	0
 11893 0f68 00000000 		.4byte	0
 11894              	.LLST67:
 11895 0f6c 00000000 		.4byte	.LVL238
 11896 0f70 0E000000 		.4byte	.LVL241
 11897 0f74 0100     		.2byte	0x1
 11898 0f76 50       		.byte	0x50
 11899 0f77 0E000000 		.4byte	.LVL241
 11900 0f7b 10000000 		.4byte	.LVL242
 11901 0f7f 0400     		.2byte	0x4
 11902 0f81 F3       		.byte	0xf3
 11903 0f82 01       		.uleb128 0x1
 11904 0f83 50       		.byte	0x50
 11905 0f84 9F       		.byte	0x9f
 11906 0f85 10000000 		.4byte	.LVL242
 11907 0f89 12000000 		.4byte	.LVL243
 11908 0f8d 0100     		.2byte	0x1
 11909 0f8f 50       		.byte	0x50
 11910 0f90 12000000 		.4byte	.LVL243
 11911 0f94 14000000 		.4byte	.LVL244
 11912 0f98 0400     		.2byte	0x4
 11913 0f9a F3       		.byte	0xf3
 11914 0f9b 01       		.uleb128 0x1
 11915 0f9c 50       		.byte	0x50
 11916 0f9d 9F       		.byte	0x9f
 11917 0f9e 14000000 		.4byte	.LVL244
 11918 0fa2 16000000 		.4byte	.LVL245
 11919 0fa6 0100     		.2byte	0x1
 11920 0fa8 50       		.byte	0x50
 11921 0fa9 16000000 		.4byte	.LVL245
 11922 0fad 1C000000 		.4byte	.LFE17
 11923 0fb1 0400     		.2byte	0x4
 11924 0fb3 F3       		.byte	0xf3
 11925 0fb4 01       		.uleb128 0x1
 11926 0fb5 50       		.byte	0x50
 11927 0fb6 9F       		.byte	0x9f
 11928 0fb7 00000000 		.4byte	0
 11929 0fbb 00000000 		.4byte	0
 11930              	.LLST68:
 11931 0fbf 0C000000 		.4byte	.LVL240
 11932 0fc3 10000000 		.4byte	.LVL242
 11933 0fc7 0200     		.2byte	0x2
 11934 0fc9 30       		.byte	0x30
 11935 0fca 9F       		.byte	0x9f
 11936 0fcb 16000000 		.4byte	.LVL245
 11937 0fcf 1C000000 		.4byte	.LFE17
 11938 0fd3 0100     		.2byte	0x1
 11939 0fd5 50       		.byte	0x50
 11940 0fd6 00000000 		.4byte	0
 11941 0fda 00000000 		.4byte	0
 11942              	.LLST69:
ARM GAS  C:\Users\Phuong\AppData\Local\Temp\ccX7yw2d.s 			page 249


 11943 0fde 08000000 		.4byte	.LVL239
 11944 0fe2 0E000000 		.4byte	.LVL241
 11945 0fe6 0100     		.2byte	0x1
 11946 0fe8 50       		.byte	0x50
 11947 0fe9 0E000000 		.4byte	.LVL241
 11948 0fed 10000000 		.4byte	.LVL242
 11949 0ff1 0400     		.2byte	0x4
 11950 0ff3 F3       		.byte	0xf3
 11951 0ff4 01       		.uleb128 0x1
 11952 0ff5 50       		.byte	0x50
 11953 0ff6 9F       		.byte	0x9f
 11954 0ff7 00000000 		.4byte	0
 11955 0ffb 00000000 		.4byte	0
 11956              	.LLST70:
 11957 0fff 00000000 		.4byte	.LVL246
 11958 1003 08000000 		.4byte	.LVL249
 11959 1007 0100     		.2byte	0x1
 11960 1009 50       		.byte	0x50
 11961 100a 08000000 		.4byte	.LVL249
 11962 100e 0A000000 		.4byte	.LVL250
 11963 1012 0400     		.2byte	0x4
 11964 1014 F3       		.byte	0xf3
 11965 1015 01       		.uleb128 0x1
 11966 1016 50       		.byte	0x50
 11967 1017 9F       		.byte	0x9f
 11968 1018 0A000000 		.4byte	.LVL250
 11969 101c 0C000000 		.4byte	.LVL251
 11970 1020 0100     		.2byte	0x1
 11971 1022 50       		.byte	0x50
 11972 1023 0C000000 		.4byte	.LVL251
 11973 1027 14000000 		.4byte	.LFE18
 11974 102b 0400     		.2byte	0x4
 11975 102d F3       		.byte	0xf3
 11976 102e 01       		.uleb128 0x1
 11977 102f 50       		.byte	0x50
 11978 1030 9F       		.byte	0x9f
 11979 1031 00000000 		.4byte	0
 11980 1035 00000000 		.4byte	0
 11981              	.LLST71:
 11982 1039 06000000 		.4byte	.LVL248
 11983 103d 0A000000 		.4byte	.LVL250
 11984 1041 0200     		.2byte	0x2
 11985 1043 30       		.byte	0x30
 11986 1044 9F       		.byte	0x9f
 11987 1045 0C000000 		.4byte	.LVL251
 11988 1049 14000000 		.4byte	.LFE18
 11989 104d 0100     		.2byte	0x1
 11990 104f 50       		.byte	0x50
 11991 1050 00000000 		.4byte	0
 11992 1054 00000000 		.4byte	0
 11993              	.LLST72:
 11994 1058 04000000 		.4byte	.LVL247
 11995 105c 08000000 		.4byte	.LVL249
 11996 1060 0100     		.2byte	0x1
 11997 1062 50       		.byte	0x50
 11998 1063 08000000 		.4byte	.LVL249
 11999 1067 0A000000 		.4byte	.LVL250
ARM GAS  C:\Users\Phuong\AppData\Local\Temp\ccX7yw2d.s 			page 250


 12000 106b 0400     		.2byte	0x4
 12001 106d F3       		.byte	0xf3
 12002 106e 01       		.uleb128 0x1
 12003 106f 50       		.byte	0x50
 12004 1070 9F       		.byte	0x9f
 12005 1071 00000000 		.4byte	0
 12006 1075 00000000 		.4byte	0
 12007              	.LLST73:
 12008 1079 00000000 		.4byte	.LVL252
 12009 107d 0E000000 		.4byte	.LVL255
 12010 1081 0100     		.2byte	0x1
 12011 1083 50       		.byte	0x50
 12012 1084 0E000000 		.4byte	.LVL255
 12013 1088 10000000 		.4byte	.LVL256
 12014 108c 0400     		.2byte	0x4
 12015 108e F3       		.byte	0xf3
 12016 108f 01       		.uleb128 0x1
 12017 1090 50       		.byte	0x50
 12018 1091 9F       		.byte	0x9f
 12019 1092 10000000 		.4byte	.LVL256
 12020 1096 12000000 		.4byte	.LVL257
 12021 109a 0100     		.2byte	0x1
 12022 109c 50       		.byte	0x50
 12023 109d 12000000 		.4byte	.LVL257
 12024 10a1 16000000 		.4byte	.LVL258
 12025 10a5 0400     		.2byte	0x4
 12026 10a7 F3       		.byte	0xf3
 12027 10a8 01       		.uleb128 0x1
 12028 10a9 50       		.byte	0x50
 12029 10aa 9F       		.byte	0x9f
 12030 10ab 16000000 		.4byte	.LVL258
 12031 10af 18000000 		.4byte	.LVL259
 12032 10b3 0100     		.2byte	0x1
 12033 10b5 50       		.byte	0x50
 12034 10b6 18000000 		.4byte	.LVL259
 12035 10ba 1C000000 		.4byte	.LFE19
 12036 10be 0400     		.2byte	0x4
 12037 10c0 F3       		.byte	0xf3
 12038 10c1 01       		.uleb128 0x1
 12039 10c2 50       		.byte	0x50
 12040 10c3 9F       		.byte	0x9f
 12041 10c4 00000000 		.4byte	0
 12042 10c8 00000000 		.4byte	0
 12043              	.LLST74:
 12044 10cc 0C000000 		.4byte	.LVL254
 12045 10d0 10000000 		.4byte	.LVL256
 12046 10d4 0200     		.2byte	0x2
 12047 10d6 30       		.byte	0x30
 12048 10d7 9F       		.byte	0x9f
 12049 10d8 1A000000 		.4byte	.LVL260
 12050 10dc 1C000000 		.4byte	.LFE19
 12051 10e0 0100     		.2byte	0x1
 12052 10e2 50       		.byte	0x50
 12053 10e3 00000000 		.4byte	0
 12054 10e7 00000000 		.4byte	0
 12055              	.LLST75:
 12056 10eb 08000000 		.4byte	.LVL253
ARM GAS  C:\Users\Phuong\AppData\Local\Temp\ccX7yw2d.s 			page 251


 12057 10ef 0E000000 		.4byte	.LVL255
 12058 10f3 0100     		.2byte	0x1
 12059 10f5 50       		.byte	0x50
 12060 10f6 0E000000 		.4byte	.LVL255
 12061 10fa 10000000 		.4byte	.LVL256
 12062 10fe 0400     		.2byte	0x4
 12063 1100 F3       		.byte	0xf3
 12064 1101 01       		.uleb128 0x1
 12065 1102 50       		.byte	0x50
 12066 1103 9F       		.byte	0x9f
 12067 1104 00000000 		.4byte	0
 12068 1108 00000000 		.4byte	0
 12069              	.LLST76:
 12070 110c 00000000 		.4byte	.LVL261
 12071 1110 08000000 		.4byte	.LVL264
 12072 1114 0100     		.2byte	0x1
 12073 1116 50       		.byte	0x50
 12074 1117 08000000 		.4byte	.LVL264
 12075 111b 0A000000 		.4byte	.LVL265
 12076 111f 0400     		.2byte	0x4
 12077 1121 F3       		.byte	0xf3
 12078 1122 01       		.uleb128 0x1
 12079 1123 50       		.byte	0x50
 12080 1124 9F       		.byte	0x9f
 12081 1125 0A000000 		.4byte	.LVL265
 12082 1129 0C000000 		.4byte	.LVL266
 12083 112d 0100     		.2byte	0x1
 12084 112f 50       		.byte	0x50
 12085 1130 0C000000 		.4byte	.LVL266
 12086 1134 10000000 		.4byte	.LFE20
 12087 1138 0400     		.2byte	0x4
 12088 113a F3       		.byte	0xf3
 12089 113b 01       		.uleb128 0x1
 12090 113c 50       		.byte	0x50
 12091 113d 9F       		.byte	0x9f
 12092 113e 00000000 		.4byte	0
 12093 1142 00000000 		.4byte	0
 12094              	.LLST77:
 12095 1146 06000000 		.4byte	.LVL263
 12096 114a 0A000000 		.4byte	.LVL265
 12097 114e 0200     		.2byte	0x2
 12098 1150 30       		.byte	0x30
 12099 1151 9F       		.byte	0x9f
 12100 1152 0E000000 		.4byte	.LVL267
 12101 1156 10000000 		.4byte	.LFE20
 12102 115a 0100     		.2byte	0x1
 12103 115c 50       		.byte	0x50
 12104 115d 00000000 		.4byte	0
 12105 1161 00000000 		.4byte	0
 12106              	.LLST78:
 12107 1165 04000000 		.4byte	.LVL262
 12108 1169 08000000 		.4byte	.LVL264
 12109 116d 0100     		.2byte	0x1
 12110 116f 50       		.byte	0x50
 12111 1170 08000000 		.4byte	.LVL264
 12112 1174 0A000000 		.4byte	.LVL265
 12113 1178 0400     		.2byte	0x4
ARM GAS  C:\Users\Phuong\AppData\Local\Temp\ccX7yw2d.s 			page 252


 12114 117a F3       		.byte	0xf3
 12115 117b 01       		.uleb128 0x1
 12116 117c 50       		.byte	0x50
 12117 117d 9F       		.byte	0x9f
 12118 117e 00000000 		.4byte	0
 12119 1182 00000000 		.4byte	0
 12120              	.LLST79:
 12121 1186 00000000 		.4byte	.LVL268
 12122 118a 0E000000 		.4byte	.LVL271
 12123 118e 0100     		.2byte	0x1
 12124 1190 50       		.byte	0x50
 12125 1191 0E000000 		.4byte	.LVL271
 12126 1195 10000000 		.4byte	.LVL272
 12127 1199 0400     		.2byte	0x4
 12128 119b F3       		.byte	0xf3
 12129 119c 01       		.uleb128 0x1
 12130 119d 50       		.byte	0x50
 12131 119e 9F       		.byte	0x9f
 12132 119f 10000000 		.4byte	.LVL272
 12133 11a3 12000000 		.4byte	.LVL273
 12134 11a7 0100     		.2byte	0x1
 12135 11a9 50       		.byte	0x50
 12136 11aa 12000000 		.4byte	.LVL273
 12137 11ae 14000000 		.4byte	.LVL274
 12138 11b2 0400     		.2byte	0x4
 12139 11b4 F3       		.byte	0xf3
 12140 11b5 01       		.uleb128 0x1
 12141 11b6 50       		.byte	0x50
 12142 11b7 9F       		.byte	0x9f
 12143 11b8 14000000 		.4byte	.LVL274
 12144 11bc 16000000 		.4byte	.LVL275
 12145 11c0 0100     		.2byte	0x1
 12146 11c2 50       		.byte	0x50
 12147 11c3 16000000 		.4byte	.LVL275
 12148 11c7 1C000000 		.4byte	.LFE21
 12149 11cb 0400     		.2byte	0x4
 12150 11cd F3       		.byte	0xf3
 12151 11ce 01       		.uleb128 0x1
 12152 11cf 50       		.byte	0x50
 12153 11d0 9F       		.byte	0x9f
 12154 11d1 00000000 		.4byte	0
 12155 11d5 00000000 		.4byte	0
 12156              	.LLST80:
 12157 11d9 0C000000 		.4byte	.LVL270
 12158 11dd 10000000 		.4byte	.LVL272
 12159 11e1 0200     		.2byte	0x2
 12160 11e3 30       		.byte	0x30
 12161 11e4 9F       		.byte	0x9f
 12162 11e5 16000000 		.4byte	.LVL275
 12163 11e9 1C000000 		.4byte	.LFE21
 12164 11ed 0100     		.2byte	0x1
 12165 11ef 50       		.byte	0x50
 12166 11f0 00000000 		.4byte	0
 12167 11f4 00000000 		.4byte	0
 12168              	.LLST81:
 12169 11f8 08000000 		.4byte	.LVL269
 12170 11fc 0E000000 		.4byte	.LVL271
ARM GAS  C:\Users\Phuong\AppData\Local\Temp\ccX7yw2d.s 			page 253


 12171 1200 0100     		.2byte	0x1
 12172 1202 50       		.byte	0x50
 12173 1203 0E000000 		.4byte	.LVL271
 12174 1207 10000000 		.4byte	.LVL272
 12175 120b 0400     		.2byte	0x4
 12176 120d F3       		.byte	0xf3
 12177 120e 01       		.uleb128 0x1
 12178 120f 50       		.byte	0x50
 12179 1210 9F       		.byte	0x9f
 12180 1211 00000000 		.4byte	0
 12181 1215 00000000 		.4byte	0
 12182              	.LLST82:
 12183 1219 00000000 		.4byte	.LVL276
 12184 121d 12000000 		.4byte	.LVL278
 12185 1221 0100     		.2byte	0x1
 12186 1223 50       		.byte	0x50
 12187 1224 12000000 		.4byte	.LVL278
 12188 1228 C2000000 		.4byte	.LVL302
 12189 122c 0100     		.2byte	0x1
 12190 122e 55       		.byte	0x55
 12191 122f C2000000 		.4byte	.LVL302
 12192 1233 C8000000 		.4byte	.LVL303
 12193 1237 0100     		.2byte	0x1
 12194 1239 50       		.byte	0x50
 12195 123a C8000000 		.4byte	.LVL303
 12196 123e CC000000 		.4byte	.LVL304
 12197 1242 0100     		.2byte	0x1
 12198 1244 55       		.byte	0x55
 12199 1245 CC000000 		.4byte	.LVL304
 12200 1249 CE000000 		.4byte	.LFE22
 12201 124d 0400     		.2byte	0x4
 12202 124f F3       		.byte	0xf3
 12203 1250 01       		.uleb128 0x1
 12204 1251 50       		.byte	0x50
 12205 1252 9F       		.byte	0x9f
 12206 1253 00000000 		.4byte	0
 12207 1257 00000000 		.4byte	0
 12208              	.LLST83:
 12209 125b 00000000 		.4byte	.LVL276
 12210 125f 15000000 		.4byte	.LVL279-1
 12211 1263 0100     		.2byte	0x1
 12212 1265 51       		.byte	0x51
 12213 1266 15000000 		.4byte	.LVL279-1
 12214 126a C2000000 		.4byte	.LVL302
 12215 126e 0100     		.2byte	0x1
 12216 1270 56       		.byte	0x56
 12217 1271 C2000000 		.4byte	.LVL302
 12218 1275 C8000000 		.4byte	.LVL303
 12219 1279 0100     		.2byte	0x1
 12220 127b 51       		.byte	0x51
 12221 127c C8000000 		.4byte	.LVL303
 12222 1280 CC000000 		.4byte	.LVL305
 12223 1284 0100     		.2byte	0x1
 12224 1286 56       		.byte	0x56
 12225 1287 CC000000 		.4byte	.LVL305
 12226 128b CE000000 		.4byte	.LFE22
 12227 128f 0400     		.2byte	0x4
ARM GAS  C:\Users\Phuong\AppData\Local\Temp\ccX7yw2d.s 			page 254


 12228 1291 F3       		.byte	0xf3
 12229 1292 01       		.uleb128 0x1
 12230 1293 51       		.byte	0x51
 12231 1294 9F       		.byte	0x9f
 12232 1295 00000000 		.4byte	0
 12233 1299 00000000 		.4byte	0
 12234              	.LLST84:
 12235 129d 18000000 		.4byte	.LVL280
 12236 12a1 50000000 		.4byte	.LVL287
 12237 12a5 0100     		.2byte	0x1
 12238 12a7 50       		.byte	0x50
 12239 12a8 50000000 		.4byte	.LVL287
 12240 12ac 6A000000 		.4byte	.LVL291
 12241 12b0 0100     		.2byte	0x1
 12242 12b2 57       		.byte	0x57
 12243 12b3 6A000000 		.4byte	.LVL291
 12244 12b7 6E000000 		.4byte	.LVL292
 12245 12bb 0200     		.2byte	0x2
 12246 12bd 30       		.byte	0x30
 12247 12be 9F       		.byte	0x9f
 12248 12bf 6E000000 		.4byte	.LVL292
 12249 12c3 94000000 		.4byte	.LVL297
 12250 12c7 0100     		.2byte	0x1
 12251 12c9 57       		.byte	0x57
 12252 12ca 94000000 		.4byte	.LVL297
 12253 12ce 98000000 		.4byte	.LVL298
 12254 12d2 0200     		.2byte	0x2
 12255 12d4 30       		.byte	0x30
 12256 12d5 9F       		.byte	0x9f
 12257 12d6 98000000 		.4byte	.LVL298
 12258 12da C2000000 		.4byte	.LVL302
 12259 12de 0100     		.2byte	0x1
 12260 12e0 57       		.byte	0x57
 12261 12e1 C8000000 		.4byte	.LVL303
 12262 12e5 CC000000 		.4byte	.LVL306
 12263 12e9 0100     		.2byte	0x1
 12264 12eb 57       		.byte	0x57
 12265 12ec CC000000 		.4byte	.LVL306
 12266 12f0 CE000000 		.4byte	.LFE22
 12267 12f4 0100     		.2byte	0x1
 12268 12f6 50       		.byte	0x50
 12269 12f7 00000000 		.4byte	0
 12270 12fb 00000000 		.4byte	0
 12271              	.LLST85:
 12272 12ff 10000000 		.4byte	.LVL277
 12273 1303 12000000 		.4byte	.LVL278
 12274 1307 0100     		.2byte	0x1
 12275 1309 50       		.byte	0x50
 12276 130a 12000000 		.4byte	.LVL278
 12277 130e C2000000 		.4byte	.LVL302
 12278 1312 0100     		.2byte	0x1
 12279 1314 55       		.byte	0x55
 12280 1315 00000000 		.4byte	0
 12281 1319 00000000 		.4byte	0
 12282              	.LLST86:
 12283 131d 1C000000 		.4byte	.LVL281
 12284 1321 2E000000 		.4byte	.LVL284
ARM GAS  C:\Users\Phuong\AppData\Local\Temp\ccX7yw2d.s 			page 255


 12285 1325 0100     		.2byte	0x1
 12286 1327 54       		.byte	0x54
 12287 1328 32000000 		.4byte	.LVL285
 12288 132c B6000000 		.4byte	.LVL301
 12289 1330 0100     		.2byte	0x1
 12290 1332 54       		.byte	0x54
 12291 1333 00000000 		.4byte	0
 12292 1337 00000000 		.4byte	0
 12293              	.LLST87:
 12294 133b 1C000000 		.4byte	.LVL281
 12295 133f 2E000000 		.4byte	.LVL284
 12296 1343 0100     		.2byte	0x1
 12297 1345 53       		.byte	0x53
 12298 1346 32000000 		.4byte	.LVL285
 12299 134a 3A000000 		.4byte	.LVL286
 12300 134e 0100     		.2byte	0x1
 12301 1350 53       		.byte	0x53
 12302 1351 00000000 		.4byte	0
 12303 1355 00000000 		.4byte	0
 12304              	.LLST88:
 12305 1359 54000000 		.4byte	.LVL288
 12306 135d 5A000000 		.4byte	.LVL289
 12307 1361 0100     		.2byte	0x1
 12308 1363 50       		.byte	0x50
 12309 1364 5A000000 		.4byte	.LVL289
 12310 1368 5D000000 		.4byte	.LVL290-1
 12311 136c 0300     		.2byte	0x3
 12312 136e 70       		.byte	0x70
 12313 136f 7F       		.sleb128 -1
 12314 1370 9F       		.byte	0x9f
 12315 1371 5D000000 		.4byte	.LVL290-1
 12316 1375 C2000000 		.4byte	.LVL302
 12317 1379 0600     		.2byte	0x6
 12318 137b 91       		.byte	0x91
 12319 137c 64       		.sleb128 -28
 12320 137d 06       		.byte	0x6
 12321 137e 31       		.byte	0x31
 12322 137f 1C       		.byte	0x1c
 12323 1380 9F       		.byte	0x9f
 12324 1381 00000000 		.4byte	0
 12325 1385 00000000 		.4byte	0
 12326              	.LLST89:
 12327 1389 84000000 		.4byte	.LVL294
 12328 138d 8A000000 		.4byte	.LVL295
 12329 1391 0100     		.2byte	0x1
 12330 1393 50       		.byte	0x50
 12331 1394 98000000 		.4byte	.LVL298
 12332 1398 B0000000 		.4byte	.LVL299
 12333 139c 0100     		.2byte	0x1
 12334 139e 50       		.byte	0x50
 12335 139f B0000000 		.4byte	.LVL299
 12336 13a3 B3000000 		.4byte	.LVL300-1
 12337 13a7 0200     		.2byte	0x2
 12338 13a9 75       		.byte	0x75
 12339 13aa 14       		.sleb128 20
 12340 13ab 00000000 		.4byte	0
 12341 13af 00000000 		.4byte	0
ARM GAS  C:\Users\Phuong\AppData\Local\Temp\ccX7yw2d.s 			page 256


 12342              	.LLST90:
 12343 13b3 00000000 		.4byte	.LVL307
 12344 13b7 12000000 		.4byte	.LVL309
 12345 13bb 0100     		.2byte	0x1
 12346 13bd 50       		.byte	0x50
 12347 13be 12000000 		.4byte	.LVL309
 12348 13c2 BC010000 		.4byte	.LVL351
 12349 13c6 0100     		.2byte	0x1
 12350 13c8 56       		.byte	0x56
 12351 13c9 BC010000 		.4byte	.LVL351
 12352 13cd CC010000 		.4byte	.LVL353
 12353 13d1 0400     		.2byte	0x4
 12354 13d3 F3       		.byte	0xf3
 12355 13d4 01       		.uleb128 0x1
 12356 13d5 50       		.byte	0x50
 12357 13d6 9F       		.byte	0x9f
 12358 13d7 CC010000 		.4byte	.LVL353
 12359 13db EC010000 		.4byte	.LVL357
 12360 13df 0100     		.2byte	0x1
 12361 13e1 56       		.byte	0x56
 12362 13e2 EC010000 		.4byte	.LVL357
 12363 13e6 FE010000 		.4byte	.LVL360
 12364 13ea 0400     		.2byte	0x4
 12365 13ec F3       		.byte	0xf3
 12366 13ed 01       		.uleb128 0x1
 12367 13ee 50       		.byte	0x50
 12368 13ef 9F       		.byte	0x9f
 12369 13f0 FE010000 		.4byte	.LVL360
 12370 13f4 6C020000 		.4byte	.LVL373
 12371 13f8 0100     		.2byte	0x1
 12372 13fa 56       		.byte	0x56
 12373 13fb 6C020000 		.4byte	.LVL373
 12374 13ff 78020000 		.4byte	.LVL376
 12375 1403 0400     		.2byte	0x4
 12376 1405 F3       		.byte	0xf3
 12377 1406 01       		.uleb128 0x1
 12378 1407 50       		.byte	0x50
 12379 1408 9F       		.byte	0x9f
 12380 1409 78020000 		.4byte	.LVL376
 12381 140d BE040000 		.4byte	.LVL434
 12382 1411 0100     		.2byte	0x1
 12383 1413 56       		.byte	0x56
 12384 1414 BE040000 		.4byte	.LVL434
 12385 1418 E8040000 		.4byte	.LFE10
 12386 141c 0400     		.2byte	0x4
 12387 141e F3       		.byte	0xf3
 12388 141f 01       		.uleb128 0x1
 12389 1420 50       		.byte	0x50
 12390 1421 9F       		.byte	0x9f
 12391 1422 00000000 		.4byte	0
 12392 1426 00000000 		.4byte	0
 12393              	.LLST91:
 12394 142a 00000000 		.4byte	.LVL307
 12395 142e 15000000 		.4byte	.LVL310-1
 12396 1432 0100     		.2byte	0x1
 12397 1434 51       		.byte	0x51
 12398 1435 15000000 		.4byte	.LVL310-1
ARM GAS  C:\Users\Phuong\AppData\Local\Temp\ccX7yw2d.s 			page 257


 12399 1439 2E030000 		.4byte	.LVL396
 12400 143d 0100     		.2byte	0x1
 12401 143f 54       		.byte	0x54
 12402 1440 2E030000 		.4byte	.LVL396
 12403 1444 90030000 		.4byte	.LVL400
 12404 1448 0400     		.2byte	0x4
 12405 144a F3       		.byte	0xf3
 12406 144b 01       		.uleb128 0x1
 12407 144c 51       		.byte	0x51
 12408 144d 9F       		.byte	0x9f
 12409 144e 90030000 		.4byte	.LVL400
 12410 1452 BE040000 		.4byte	.LVL434
 12411 1456 0100     		.2byte	0x1
 12412 1458 54       		.byte	0x54
 12413 1459 BE040000 		.4byte	.LVL434
 12414 145d E8040000 		.4byte	.LFE10
 12415 1461 0400     		.2byte	0x4
 12416 1463 F3       		.byte	0xf3
 12417 1464 01       		.uleb128 0x1
 12418 1465 51       		.byte	0x51
 12419 1466 9F       		.byte	0x9f
 12420 1467 00000000 		.4byte	0
 12421 146b 00000000 		.4byte	0
 12422              	.LLST92:
 12423 146f 00000000 		.4byte	.LVL307
 12424 1473 15000000 		.4byte	.LVL310-1
 12425 1477 0100     		.2byte	0x1
 12426 1479 52       		.byte	0x52
 12427 147a 15000000 		.4byte	.LVL310-1
 12428 147e E8040000 		.4byte	.LFE10
 12429 1482 0200     		.2byte	0x2
 12430 1484 91       		.byte	0x91
 12431 1485 4C       		.sleb128 -52
 12432 1486 00000000 		.4byte	0
 12433 148a 00000000 		.4byte	0
 12434              	.LLST93:
 12435 148e 00000000 		.4byte	.LVL307
 12436 1492 15000000 		.4byte	.LVL310-1
 12437 1496 0100     		.2byte	0x1
 12438 1498 53       		.byte	0x53
 12439 1499 15000000 		.4byte	.LVL310-1
 12440 149d C0040000 		.4byte	.LVL435
 12441 14a1 0100     		.2byte	0x1
 12442 14a3 57       		.byte	0x57
 12443 14a4 C0040000 		.4byte	.LVL435
 12444 14a8 E8040000 		.4byte	.LFE10
 12445 14ac 0400     		.2byte	0x4
 12446 14ae F3       		.byte	0xf3
 12447 14af 01       		.uleb128 0x1
 12448 14b0 53       		.byte	0x53
 12449 14b1 9F       		.byte	0x9f
 12450 14b2 00000000 		.4byte	0
 12451 14b6 00000000 		.4byte	0
 12452              	.LLST94:
 12453 14ba 10000000 		.4byte	.LVL308
 12454 14be 12000000 		.4byte	.LVL309
 12455 14c2 0100     		.2byte	0x1
ARM GAS  C:\Users\Phuong\AppData\Local\Temp\ccX7yw2d.s 			page 258


 12456 14c4 50       		.byte	0x50
 12457 14c5 12000000 		.4byte	.LVL309
 12458 14c9 BC010000 		.4byte	.LVL351
 12459 14cd 0100     		.2byte	0x1
 12460 14cf 56       		.byte	0x56
 12461 14d0 BC010000 		.4byte	.LVL351
 12462 14d4 CC010000 		.4byte	.LVL353
 12463 14d8 0400     		.2byte	0x4
 12464 14da F3       		.byte	0xf3
 12465 14db 01       		.uleb128 0x1
 12466 14dc 50       		.byte	0x50
 12467 14dd 9F       		.byte	0x9f
 12468 14de CC010000 		.4byte	.LVL353
 12469 14e2 EC010000 		.4byte	.LVL357
 12470 14e6 0100     		.2byte	0x1
 12471 14e8 56       		.byte	0x56
 12472 14e9 EC010000 		.4byte	.LVL357
 12473 14ed FE010000 		.4byte	.LVL360
 12474 14f1 0400     		.2byte	0x4
 12475 14f3 F3       		.byte	0xf3
 12476 14f4 01       		.uleb128 0x1
 12477 14f5 50       		.byte	0x50
 12478 14f6 9F       		.byte	0x9f
 12479 14f7 FE010000 		.4byte	.LVL360
 12480 14fb 6C020000 		.4byte	.LVL373
 12481 14ff 0100     		.2byte	0x1
 12482 1501 56       		.byte	0x56
 12483 1502 6C020000 		.4byte	.LVL373
 12484 1506 78020000 		.4byte	.LVL376
 12485 150a 0400     		.2byte	0x4
 12486 150c F3       		.byte	0xf3
 12487 150d 01       		.uleb128 0x1
 12488 150e 50       		.byte	0x50
 12489 150f 9F       		.byte	0x9f
 12490 1510 78020000 		.4byte	.LVL376
 12491 1514 BE040000 		.4byte	.LVL434
 12492 1518 0100     		.2byte	0x1
 12493 151a 56       		.byte	0x56
 12494 151b BE040000 		.4byte	.LVL434
 12495 151f E8040000 		.4byte	.LFE10
 12496 1523 0400     		.2byte	0x4
 12497 1525 F3       		.byte	0xf3
 12498 1526 01       		.uleb128 0x1
 12499 1527 50       		.byte	0x50
 12500 1528 9F       		.byte	0x9f
 12501 1529 00000000 		.4byte	0
 12502 152d 00000000 		.4byte	0
 12503              	.LLST95:
 12504 1531 18000000 		.4byte	.LVL311
 12505 1535 1B000000 		.4byte	.LVL312-1
 12506 1539 0100     		.2byte	0x1
 12507 153b 50       		.byte	0x50
 12508 153c 1B000000 		.4byte	.LVL312-1
 12509 1540 4C010000 		.4byte	.LVL337
 12510 1544 0100     		.2byte	0x1
 12511 1546 55       		.byte	0x55
 12512 1547 FE010000 		.4byte	.LVL360
ARM GAS  C:\Users\Phuong\AppData\Local\Temp\ccX7yw2d.s 			page 259


 12513 154b 4E020000 		.4byte	.LVL369
 12514 154f 0100     		.2byte	0x1
 12515 1551 55       		.byte	0x55
 12516 1552 84020000 		.4byte	.LVL379
 12517 1556 08030000 		.4byte	.LVL391
 12518 155a 0100     		.2byte	0x1
 12519 155c 55       		.byte	0x55
 12520 155d 0A030000 		.4byte	.LVL392
 12521 1561 0C030000 		.4byte	.LVL393
 12522 1565 0100     		.2byte	0x1
 12523 1567 55       		.byte	0x55
 12524 1568 90030000 		.4byte	.LVL400
 12525 156c 12040000 		.4byte	.LVL413
 12526 1570 0100     		.2byte	0x1
 12527 1572 55       		.byte	0x55
 12528 1573 2E040000 		.4byte	.LVL417
 12529 1577 3A040000 		.4byte	.LVL419
 12530 157b 0100     		.2byte	0x1
 12531 157d 55       		.byte	0x55
 12532 157e 5A040000 		.4byte	.LVL424
 12533 1582 5C040000 		.4byte	.LVL425
 12534 1586 0100     		.2byte	0x1
 12535 1588 55       		.byte	0x55
 12536 1589 64040000 		.4byte	.LVL426
 12537 158d BE040000 		.4byte	.LVL434
 12538 1591 0100     		.2byte	0x1
 12539 1593 55       		.byte	0x55
 12540 1594 00000000 		.4byte	0
 12541 1598 00000000 		.4byte	0
 12542              	.LLST96:
 12543 159c 4C010000 		.4byte	.LVL337
 12544 15a0 58010000 		.4byte	.LVL338
 12545 15a4 0100     		.2byte	0x1
 12546 15a6 50       		.byte	0x50
 12547 15a7 58010000 		.4byte	.LVL338
 12548 15ab 5E010000 		.4byte	.LVL340
 12549 15af 0100     		.2byte	0x1
 12550 15b1 55       		.byte	0x55
 12551 15b2 CC010000 		.4byte	.LVL353
 12552 15b6 D0010000 		.4byte	.LVL354
 12553 15ba 0100     		.2byte	0x1
 12554 15bc 50       		.byte	0x50
 12555 15bd D0010000 		.4byte	.LVL354
 12556 15c1 F6010000 		.4byte	.LVL358
 12557 15c5 0100     		.2byte	0x1
 12558 15c7 55       		.byte	0x55
 12559 15c8 00000000 		.4byte	0
 12560 15cc 00000000 		.4byte	0
 12561              	.LLST97:
 12562 15d0 5E010000 		.4byte	.LVL340
 12563 15d4 66010000 		.4byte	.LVL341
 12564 15d8 0100     		.2byte	0x1
 12565 15da 50       		.byte	0x50
 12566 15db 66010000 		.4byte	.LVL341
 12567 15df 6C010000 		.4byte	.LVL343
 12568 15e3 0100     		.2byte	0x1
 12569 15e5 55       		.byte	0x55
ARM GAS  C:\Users\Phuong\AppData\Local\Temp\ccX7yw2d.s 			page 260


 12570 15e6 6C010000 		.4byte	.LVL343
 12571 15ea 70010000 		.4byte	.LVL344
 12572 15ee 0100     		.2byte	0x1
 12573 15f0 50       		.byte	0x50
 12574 15f1 70010000 		.4byte	.LVL344
 12575 15f5 B8010000 		.4byte	.LVL349
 12576 15f9 0100     		.2byte	0x1
 12577 15fb 55       		.byte	0x55
 12578 15fc B8010000 		.4byte	.LVL349
 12579 1600 BA010000 		.4byte	.LVL350
 12580 1604 0200     		.2byte	0x2
 12581 1606 30       		.byte	0x30
 12582 1607 9F       		.byte	0x9f
 12583 1608 BA010000 		.4byte	.LVL350
 12584 160c CC010000 		.4byte	.LVL353
 12585 1610 0100     		.2byte	0x1
 12586 1612 55       		.byte	0x55
 12587 1613 00000000 		.4byte	0
 12588 1617 00000000 		.4byte	0
 12589              	.LLST98:
 12590 161b 4E020000 		.4byte	.LVL369
 12591 161f 56020000 		.4byte	.LVL370
 12592 1623 0100     		.2byte	0x1
 12593 1625 50       		.byte	0x50
 12594 1626 56020000 		.4byte	.LVL370
 12595 162a 5C020000 		.4byte	.LVL372
 12596 162e 0100     		.2byte	0x1
 12597 1630 55       		.byte	0x55
 12598 1631 5C020000 		.4byte	.LVL372
 12599 1635 6E020000 		.4byte	.LVL374
 12600 1639 0100     		.2byte	0x1
 12601 163b 50       		.byte	0x50
 12602 163c 6E020000 		.4byte	.LVL374
 12603 1640 78020000 		.4byte	.LVL376
 12604 1644 0100     		.2byte	0x1
 12605 1646 55       		.byte	0x55
 12606 1647 78020000 		.4byte	.LVL376
 12607 164b 7B020000 		.4byte	.LVL377-1
 12608 164f 0100     		.2byte	0x1
 12609 1651 50       		.byte	0x50
 12610 1652 7B020000 		.4byte	.LVL377-1
 12611 1656 84020000 		.4byte	.LVL379
 12612 165a 0100     		.2byte	0x1
 12613 165c 55       		.byte	0x55
 12614 165d 00000000 		.4byte	0
 12615 1661 00000000 		.4byte	0
 12616              	.LLST99:
 12617 1665 E4020000 		.4byte	.LVL388
 12618 1669 08030000 		.4byte	.LVL391
 12619 166d 0200     		.2byte	0x2
 12620 166f 30       		.byte	0x30
 12621 1670 9F       		.byte	0x9f
 12622 1671 08030000 		.4byte	.LVL391
 12623 1675 0A030000 		.4byte	.LVL392
 12624 1679 0100     		.2byte	0x1
 12625 167b 50       		.byte	0x50
 12626 167c 0A030000 		.4byte	.LVL392
ARM GAS  C:\Users\Phuong\AppData\Local\Temp\ccX7yw2d.s 			page 261


 12627 1680 0C030000 		.4byte	.LVL393
 12628 1684 0200     		.2byte	0x2
 12629 1686 30       		.byte	0x30
 12630 1687 9F       		.byte	0x9f
 12631 1688 0C030000 		.4byte	.LVL393
 12632 168c 90030000 		.4byte	.LVL400
 12633 1690 0100     		.2byte	0x1
 12634 1692 55       		.byte	0x55
 12635 1693 00000000 		.4byte	0
 12636 1697 00000000 		.4byte	0
 12637              	.LLST100:
 12638 169b 30030000 		.4byte	.LVL397
 12639 169f 90030000 		.4byte	.LVL400
 12640 16a3 0100     		.2byte	0x1
 12641 16a5 54       		.byte	0x54
 12642 16a6 00000000 		.4byte	0
 12643 16aa 00000000 		.4byte	0
 12644              	.LLST101:
 12645 16ae F8030000 		.4byte	.LVL409
 12646 16b2 02040000 		.4byte	.LVL410
 12647 16b6 0100     		.2byte	0x1
 12648 16b8 50       		.byte	0x50
 12649 16b9 08040000 		.4byte	.LVL412
 12650 16bd 14040000 		.4byte	.LVL414
 12651 16c1 0100     		.2byte	0x1
 12652 16c3 50       		.byte	0x50
 12653 16c4 00000000 		.4byte	0
 12654 16c8 00000000 		.4byte	0
 12655              	.LLST102:
 12656 16cc 3A040000 		.4byte	.LVL419
 12657 16d0 5A040000 		.4byte	.LVL424
 12658 16d4 0100     		.2byte	0x1
 12659 16d6 55       		.byte	0x55
 12660 16d7 5C040000 		.4byte	.LVL425
 12661 16db 64040000 		.4byte	.LVL426
 12662 16df 0100     		.2byte	0x1
 12663 16e1 55       		.byte	0x55
 12664 16e2 00000000 		.4byte	0
 12665 16e6 00000000 		.4byte	0
 12666              	.LLST103:
 12667 16ea 40040000 		.4byte	.LVL420
 12668 16ee 50040000 		.4byte	.LVL421
 12669 16f2 0100     		.2byte	0x1
 12670 16f4 53       		.byte	0x53
 12671 16f5 50040000 		.4byte	.LVL421
 12672 16f9 55040000 		.4byte	.LVL422-1
 12673 16fd 0800     		.2byte	0x8
 12674 16ff 75       		.byte	0x75
 12675 1700 00       		.sleb128 0
 12676 1701 32       		.byte	0x32
 12677 1702 24       		.byte	0x24
 12678 1703 76       		.byte	0x76
 12679 1704 14       		.sleb128 20
 12680 1705 06       		.byte	0x6
 12681 1706 22       		.byte	0x22
 12682 1707 00000000 		.4byte	0
 12683 170b 00000000 		.4byte	0
ARM GAS  C:\Users\Phuong\AppData\Local\Temp\ccX7yw2d.s 			page 262


 12684              	.LLST104:
 12685 170f 00000000 		.4byte	.LVL436
 12686 1713 19000000 		.4byte	.LVL438-1
 12687 1717 0100     		.2byte	0x1
 12688 1719 50       		.byte	0x50
 12689 171a 19000000 		.4byte	.LVL438-1
 12690 171e 20000000 		.4byte	.LVL440
 12691 1722 0100     		.2byte	0x1
 12692 1724 54       		.byte	0x54
 12693 1725 20000000 		.4byte	.LVL440
 12694 1729 22000000 		.4byte	.LFE23
 12695 172d 0400     		.2byte	0x4
 12696 172f F3       		.byte	0xf3
 12697 1730 01       		.uleb128 0x1
 12698 1731 50       		.byte	0x50
 12699 1732 9F       		.byte	0x9f
 12700 1733 00000000 		.4byte	0
 12701 1737 00000000 		.4byte	0
 12702              	.LLST105:
 12703 173b 06000000 		.4byte	.LVL437
 12704 173f 19000000 		.4byte	.LVL438-1
 12705 1743 0100     		.2byte	0x1
 12706 1745 50       		.byte	0x50
 12707 1746 19000000 		.4byte	.LVL438-1
 12708 174a 20000000 		.4byte	.LVL439
 12709 174e 0100     		.2byte	0x1
 12710 1750 54       		.byte	0x54
 12711 1751 00000000 		.4byte	0
 12712 1755 00000000 		.4byte	0
 12713              	.LLST106:
 12714 1759 00000000 		.4byte	.LVL441
 12715 175d 28000000 		.4byte	.LVL446
 12716 1761 0100     		.2byte	0x1
 12717 1763 50       		.byte	0x50
 12718 1764 28000000 		.4byte	.LVL446
 12719 1768 2E000000 		.4byte	.LVL448
 12720 176c 0400     		.2byte	0x4
 12721 176e F3       		.byte	0xf3
 12722 176f 01       		.uleb128 0x1
 12723 1770 50       		.byte	0x50
 12724 1771 9F       		.byte	0x9f
 12725 1772 2E000000 		.4byte	.LVL448
 12726 1776 30000000 		.4byte	.LVL449
 12727 177a 0100     		.2byte	0x1
 12728 177c 50       		.byte	0x50
 12729 177d 30000000 		.4byte	.LVL449
 12730 1781 32000000 		.4byte	.LVL450
 12731 1785 0400     		.2byte	0x4
 12732 1787 F3       		.byte	0xf3
 12733 1788 01       		.uleb128 0x1
 12734 1789 50       		.byte	0x50
 12735 178a 9F       		.byte	0x9f
 12736 178b 32000000 		.4byte	.LVL450
 12737 178f 34000000 		.4byte	.LVL451
 12738 1793 0100     		.2byte	0x1
 12739 1795 50       		.byte	0x50
 12740 1796 34000000 		.4byte	.LVL451
ARM GAS  C:\Users\Phuong\AppData\Local\Temp\ccX7yw2d.s 			page 263


 12741 179a 36000000 		.4byte	.LVL452
 12742 179e 0400     		.2byte	0x4
 12743 17a0 F3       		.byte	0xf3
 12744 17a1 01       		.uleb128 0x1
 12745 17a2 50       		.byte	0x50
 12746 17a3 9F       		.byte	0x9f
 12747 17a4 36000000 		.4byte	.LVL452
 12748 17a8 38000000 		.4byte	.LVL453
 12749 17ac 0100     		.2byte	0x1
 12750 17ae 50       		.byte	0x50
 12751 17af 38000000 		.4byte	.LVL453
 12752 17b3 40000000 		.4byte	.LFE24
 12753 17b7 0400     		.2byte	0x4
 12754 17b9 F3       		.byte	0xf3
 12755 17ba 01       		.uleb128 0x1
 12756 17bb 50       		.byte	0x50
 12757 17bc 9F       		.byte	0x9f
 12758 17bd 00000000 		.4byte	0
 12759 17c1 00000000 		.4byte	0
 12760              	.LLST107:
 12761 17c5 00000000 		.4byte	.LVL441
 12762 17c9 26000000 		.4byte	.LVL445
 12763 17cd 0100     		.2byte	0x1
 12764 17cf 51       		.byte	0x51
 12765 17d0 26000000 		.4byte	.LVL445
 12766 17d4 2E000000 		.4byte	.LVL448
 12767 17d8 0400     		.2byte	0x4
 12768 17da F3       		.byte	0xf3
 12769 17db 01       		.uleb128 0x1
 12770 17dc 51       		.byte	0x51
 12771 17dd 9F       		.byte	0x9f
 12772 17de 2E000000 		.4byte	.LVL448
 12773 17e2 38000000 		.4byte	.LVL453
 12774 17e6 0100     		.2byte	0x1
 12775 17e8 51       		.byte	0x51
 12776 17e9 38000000 		.4byte	.LVL453
 12777 17ed 40000000 		.4byte	.LFE24
 12778 17f1 0400     		.2byte	0x4
 12779 17f3 F3       		.byte	0xf3
 12780 17f4 01       		.uleb128 0x1
 12781 17f5 51       		.byte	0x51
 12782 17f6 9F       		.byte	0x9f
 12783 17f7 00000000 		.4byte	0
 12784 17fb 00000000 		.4byte	0
 12785              	.LLST108:
 12786 17ff 00000000 		.4byte	.LVL441
 12787 1803 18000000 		.4byte	.LVL443
 12788 1807 0100     		.2byte	0x1
 12789 1809 52       		.byte	0x52
 12790 180a 18000000 		.4byte	.LVL443
 12791 180e 2E000000 		.4byte	.LVL448
 12792 1812 0100     		.2byte	0x1
 12793 1814 54       		.byte	0x54
 12794 1815 2E000000 		.4byte	.LVL448
 12795 1819 36000000 		.4byte	.LVL452
 12796 181d 0100     		.2byte	0x1
 12797 181f 52       		.byte	0x52
ARM GAS  C:\Users\Phuong\AppData\Local\Temp\ccX7yw2d.s 			page 264


 12798 1820 36000000 		.4byte	.LVL452
 12799 1824 38000000 		.4byte	.LVL454
 12800 1828 0100     		.2byte	0x1
 12801 182a 54       		.byte	0x54
 12802 182b 38000000 		.4byte	.LVL454
 12803 182f 40000000 		.4byte	.LFE24
 12804 1833 0400     		.2byte	0x4
 12805 1835 F3       		.byte	0xf3
 12806 1836 01       		.uleb128 0x1
 12807 1837 52       		.byte	0x52
 12808 1838 9F       		.byte	0x9f
 12809 1839 00000000 		.4byte	0
 12810 183d 00000000 		.4byte	0
 12811              	.LLST109:
 12812 1841 00000000 		.4byte	.LVL441
 12813 1845 14000000 		.4byte	.LVL442
 12814 1849 0100     		.2byte	0x1
 12815 184b 53       		.byte	0x53
 12816 184c 14000000 		.4byte	.LVL442
 12817 1850 1C000000 		.4byte	.LVL444
 12818 1854 0200     		.2byte	0x2
 12819 1856 70       		.byte	0x70
 12820 1857 14       		.sleb128 20
 12821 1858 1C000000 		.4byte	.LVL444
 12822 185c 2E000000 		.4byte	.LVL448
 12823 1860 0400     		.2byte	0x4
 12824 1862 F3       		.byte	0xf3
 12825 1863 01       		.uleb128 0x1
 12826 1864 53       		.byte	0x53
 12827 1865 9F       		.byte	0x9f
 12828 1866 2E000000 		.4byte	.LVL448
 12829 186a 36000000 		.4byte	.LVL452
 12830 186e 0100     		.2byte	0x1
 12831 1870 53       		.byte	0x53
 12832 1871 36000000 		.4byte	.LVL452
 12833 1875 40000000 		.4byte	.LFE24
 12834 1879 0400     		.2byte	0x4
 12835 187b F3       		.byte	0xf3
 12836 187c 01       		.uleb128 0x1
 12837 187d 53       		.byte	0x53
 12838 187e 9F       		.byte	0x9f
 12839 187f 00000000 		.4byte	0
 12840 1883 00000000 		.4byte	0
 12841              	.LLST110:
 12842 1887 00000000 		.4byte	.LVL455
 12843 188b 1A000000 		.4byte	.LVL459
 12844 188f 0100     		.2byte	0x1
 12845 1891 50       		.byte	0x50
 12846 1892 1A000000 		.4byte	.LVL459
 12847 1896 26000000 		.4byte	.LVL461
 12848 189a 0100     		.2byte	0x1
 12849 189c 55       		.byte	0x55
 12850 189d 26000000 		.4byte	.LVL461
 12851 18a1 2A000000 		.4byte	.LVL462
 12852 18a5 0100     		.2byte	0x1
 12853 18a7 50       		.byte	0x50
 12854 18a8 2A000000 		.4byte	.LVL462
ARM GAS  C:\Users\Phuong\AppData\Local\Temp\ccX7yw2d.s 			page 265


 12855 18ac 90000000 		.4byte	.LVL475
 12856 18b0 0100     		.2byte	0x1
 12857 18b2 55       		.byte	0x55
 12858 18b3 90000000 		.4byte	.LVL475
 12859 18b7 98000000 		.4byte	.LVL476
 12860 18bb 0100     		.2byte	0x1
 12861 18bd 50       		.byte	0x50
 12862 18be 98000000 		.4byte	.LVL476
 12863 18c2 B0000000 		.4byte	.LVL489
 12864 18c6 0100     		.2byte	0x1
 12865 18c8 55       		.byte	0x55
 12866 18c9 B0000000 		.4byte	.LVL489
 12867 18cd C8000000 		.4byte	.LFE26
 12868 18d1 0400     		.2byte	0x4
 12869 18d3 F3       		.byte	0xf3
 12870 18d4 01       		.uleb128 0x1
 12871 18d5 50       		.byte	0x50
 12872 18d6 9F       		.byte	0x9f
 12873 18d7 00000000 		.4byte	0
 12874 18db 00000000 		.4byte	0
 12875              	.LLST111:
 12876 18df 00000000 		.4byte	.LVL455
 12877 18e3 18000000 		.4byte	.LVL458
 12878 18e7 0100     		.2byte	0x1
 12879 18e9 51       		.byte	0x51
 12880 18ea 18000000 		.4byte	.LVL458
 12881 18ee 26000000 		.4byte	.LVL461
 12882 18f2 0100     		.2byte	0x1
 12883 18f4 56       		.byte	0x56
 12884 18f5 26000000 		.4byte	.LVL461
 12885 18f9 2A000000 		.4byte	.LVL462
 12886 18fd 0100     		.2byte	0x1
 12887 18ff 51       		.byte	0x51
 12888 1900 2A000000 		.4byte	.LVL462
 12889 1904 74000000 		.4byte	.LVL470
 12890 1908 0100     		.2byte	0x1
 12891 190a 56       		.byte	0x56
 12892 190b 74000000 		.4byte	.LVL470
 12893 190f 90000000 		.4byte	.LVL475
 12894 1913 0400     		.2byte	0x4
 12895 1915 F3       		.byte	0xf3
 12896 1916 01       		.uleb128 0x1
 12897 1917 51       		.byte	0x51
 12898 1918 9F       		.byte	0x9f
 12899 1919 90000000 		.4byte	.LVL475
 12900 191d 98000000 		.4byte	.LVL476
 12901 1921 0100     		.2byte	0x1
 12902 1923 51       		.byte	0x51
 12903 1924 98000000 		.4byte	.LVL476
 12904 1928 AC000000 		.4byte	.LVL486
 12905 192c 0100     		.2byte	0x1
 12906 192e 56       		.byte	0x56
 12907 192f AC000000 		.4byte	.LVL486
 12908 1933 C8000000 		.4byte	.LFE26
 12909 1937 0400     		.2byte	0x4
 12910 1939 F3       		.byte	0xf3
 12911 193a 01       		.uleb128 0x1
ARM GAS  C:\Users\Phuong\AppData\Local\Temp\ccX7yw2d.s 			page 266


 12912 193b 51       		.byte	0x51
 12913 193c 9F       		.byte	0x9f
 12914 193d 00000000 		.4byte	0
 12915 1941 00000000 		.4byte	0
 12916              	.LLST112:
 12917 1945 10000000 		.4byte	.LVL457
 12918 1949 2C000000 		.4byte	.LVL463
 12919 194d 0200     		.2byte	0x2
 12920 194f 30       		.byte	0x30
 12921 1950 9F       		.byte	0x9f
 12922 1951 2C000000 		.4byte	.LVL463
 12923 1955 90000000 		.4byte	.LVL475
 12924 1959 0100     		.2byte	0x1
 12925 195b 54       		.byte	0x54
 12926 195c 98000000 		.4byte	.LVL476
 12927 1960 9A000000 		.4byte	.LVL477
 12928 1964 0100     		.2byte	0x1
 12929 1966 54       		.byte	0x54
 12930 1967 9C000000 		.4byte	.LVL478
 12931 196b 9E000000 		.4byte	.LVL479
 12932 196f 0100     		.2byte	0x1
 12933 1971 54       		.byte	0x54
 12934 1972 A0000000 		.4byte	.LVL480
 12935 1976 A2000000 		.4byte	.LVL481
 12936 197a 0100     		.2byte	0x1
 12937 197c 54       		.byte	0x54
 12938 197d A4000000 		.4byte	.LVL482
 12939 1981 A6000000 		.4byte	.LVL483
 12940 1985 0100     		.2byte	0x1
 12941 1987 54       		.byte	0x54
 12942 1988 A8000000 		.4byte	.LVL484
 12943 198c AA000000 		.4byte	.LVL485
 12944 1990 0100     		.2byte	0x1
 12945 1992 54       		.byte	0x54
 12946 1993 AC000000 		.4byte	.LVL486
 12947 1997 B0000000 		.4byte	.LVL488
 12948 199b 0100     		.2byte	0x1
 12949 199d 54       		.byte	0x54
 12950 199e B0000000 		.4byte	.LVL488
 12951 19a2 C8000000 		.4byte	.LFE26
 12952 19a6 0100     		.2byte	0x1
 12953 19a8 50       		.byte	0x50
 12954 19a9 00000000 		.4byte	0
 12955 19ad 00000000 		.4byte	0
 12956              	.LLST113:
 12957 19b1 0E000000 		.4byte	.LVL456
 12958 19b5 1A000000 		.4byte	.LVL459
 12959 19b9 0100     		.2byte	0x1
 12960 19bb 50       		.byte	0x50
 12961 19bc 1A000000 		.4byte	.LVL459
 12962 19c0 26000000 		.4byte	.LVL461
 12963 19c4 0100     		.2byte	0x1
 12964 19c6 55       		.byte	0x55
 12965 19c7 26000000 		.4byte	.LVL461
 12966 19cb 2A000000 		.4byte	.LVL462
 12967 19cf 0100     		.2byte	0x1
 12968 19d1 50       		.byte	0x50
ARM GAS  C:\Users\Phuong\AppData\Local\Temp\ccX7yw2d.s 			page 267


 12969 19d2 2A000000 		.4byte	.LVL462
 12970 19d6 90000000 		.4byte	.LVL475
 12971 19da 0100     		.2byte	0x1
 12972 19dc 55       		.byte	0x55
 12973 19dd 98000000 		.4byte	.LVL476
 12974 19e1 AE000000 		.4byte	.LVL487
 12975 19e5 0100     		.2byte	0x1
 12976 19e7 55       		.byte	0x55
 12977 19e8 00000000 		.4byte	0
 12978 19ec 00000000 		.4byte	0
 12979              	.LLST114:
 12980 19f0 10000000 		.4byte	.LVL457
 12981 19f4 90000000 		.4byte	.LVL475
 12982 19f8 0100     		.2byte	0x1
 12983 19fa 57       		.byte	0x57
 12984 19fb 98000000 		.4byte	.LVL476
 12985 19ff AE000000 		.4byte	.LVL487
 12986 1a03 0100     		.2byte	0x1
 12987 1a05 57       		.byte	0x57
 12988 1a06 00000000 		.4byte	0
 12989 1a0a 00000000 		.4byte	0
 12990              	.LLST115:
 12991 1a0e 74000000 		.4byte	.LVL470
 12992 1a12 7E000000 		.4byte	.LVL471
 12993 1a16 0100     		.2byte	0x1
 12994 1a18 50       		.byte	0x50
 12995 1a19 7E000000 		.4byte	.LVL471
 12996 1a1d 81000000 		.4byte	.LVL472-1
 12997 1a21 0100     		.2byte	0x1
 12998 1a23 51       		.byte	0x51
 12999 1a24 81000000 		.4byte	.LVL472-1
 13000 1a28 90000000 		.4byte	.LVL475
 13001 1a2c 0100     		.2byte	0x1
 13002 1a2e 56       		.byte	0x56
 13003 1a2f AC000000 		.4byte	.LVL486
 13004 1a33 AE000000 		.4byte	.LVL487
 13005 1a37 0100     		.2byte	0x1
 13006 1a39 50       		.byte	0x50
 13007 1a3a 00000000 		.4byte	0
 13008 1a3e 00000000 		.4byte	0
 13009              	.LLST116:
 13010 1a42 00000000 		.4byte	.LVL490
 13011 1a46 12000000 		.4byte	.LVL493
 13012 1a4a 0100     		.2byte	0x1
 13013 1a4c 50       		.byte	0x50
 13014 1a4d 12000000 		.4byte	.LVL493
 13015 1a51 36000000 		.4byte	.LVL499
 13016 1a55 0100     		.2byte	0x1
 13017 1a57 54       		.byte	0x54
 13018 1a58 36000000 		.4byte	.LVL499
 13019 1a5c 38000000 		.4byte	.LVL500
 13020 1a60 0400     		.2byte	0x4
 13021 1a62 F3       		.byte	0xf3
 13022 1a63 01       		.uleb128 0x1
 13023 1a64 50       		.byte	0x50
 13024 1a65 9F       		.byte	0x9f
 13025 1a66 38000000 		.4byte	.LVL500
ARM GAS  C:\Users\Phuong\AppData\Local\Temp\ccX7yw2d.s 			page 268


 13026 1a6a 3A000000 		.4byte	.LVL501
 13027 1a6e 0100     		.2byte	0x1
 13028 1a70 54       		.byte	0x54
 13029 1a71 3A000000 		.4byte	.LVL501
 13030 1a75 42000000 		.4byte	.LVL503
 13031 1a79 0400     		.2byte	0x4
 13032 1a7b F3       		.byte	0xf3
 13033 1a7c 01       		.uleb128 0x1
 13034 1a7d 50       		.byte	0x50
 13035 1a7e 9F       		.byte	0x9f
 13036 1a7f 42000000 		.4byte	.LVL503
 13037 1a83 4A000000 		.4byte	.LVL504
 13038 1a87 0100     		.2byte	0x1
 13039 1a89 50       		.byte	0x50
 13040 1a8a 4A000000 		.4byte	.LVL504
 13041 1a8e 4C000000 		.4byte	.LVL505
 13042 1a92 0100     		.2byte	0x1
 13043 1a94 54       		.byte	0x54
 13044 1a95 4C000000 		.4byte	.LVL505
 13045 1a99 4E000000 		.4byte	.LVL506
 13046 1a9d 0400     		.2byte	0x4
 13047 1a9f F3       		.byte	0xf3
 13048 1aa0 01       		.uleb128 0x1
 13049 1aa1 50       		.byte	0x50
 13050 1aa2 9F       		.byte	0x9f
 13051 1aa3 4E000000 		.4byte	.LVL506
 13052 1aa7 50000000 		.4byte	.LVL507
 13053 1aab 0100     		.2byte	0x1
 13054 1aad 54       		.byte	0x54
 13055 1aae 50000000 		.4byte	.LVL507
 13056 1ab2 64000000 		.4byte	.LFE27
 13057 1ab6 0400     		.2byte	0x4
 13058 1ab8 F3       		.byte	0xf3
 13059 1ab9 01       		.uleb128 0x1
 13060 1aba 50       		.byte	0x50
 13061 1abb 9F       		.byte	0x9f
 13062 1abc 00000000 		.4byte	0
 13063 1ac0 00000000 		.4byte	0
 13064              	.LLST117:
 13065 1ac4 00000000 		.4byte	.LVL490
 13066 1ac8 10000000 		.4byte	.LVL492
 13067 1acc 0100     		.2byte	0x1
 13068 1ace 51       		.byte	0x51
 13069 1acf 10000000 		.4byte	.LVL492
 13070 1ad3 22000000 		.4byte	.LVL496
 13071 1ad7 0100     		.2byte	0x1
 13072 1ad9 55       		.byte	0x55
 13073 1ada 22000000 		.4byte	.LVL496
 13074 1ade 42000000 		.4byte	.LVL503
 13075 1ae2 0400     		.2byte	0x4
 13076 1ae4 F3       		.byte	0xf3
 13077 1ae5 01       		.uleb128 0x1
 13078 1ae6 51       		.byte	0x51
 13079 1ae7 9F       		.byte	0x9f
 13080 1ae8 42000000 		.4byte	.LVL503
 13081 1aec 4A000000 		.4byte	.LVL504
 13082 1af0 0100     		.2byte	0x1
ARM GAS  C:\Users\Phuong\AppData\Local\Temp\ccX7yw2d.s 			page 269


 13083 1af2 51       		.byte	0x51
 13084 1af3 4A000000 		.4byte	.LVL504
 13085 1af7 4E000000 		.4byte	.LVL506
 13086 1afb 0100     		.2byte	0x1
 13087 1afd 55       		.byte	0x55
 13088 1afe 4E000000 		.4byte	.LVL506
 13089 1b02 64000000 		.4byte	.LFE27
 13090 1b06 0400     		.2byte	0x4
 13091 1b08 F3       		.byte	0xf3
 13092 1b09 01       		.uleb128 0x1
 13093 1b0a 51       		.byte	0x51
 13094 1b0b 9F       		.byte	0x9f
 13095 1b0c 00000000 		.4byte	0
 13096 1b10 00000000 		.4byte	0
 13097              	.LLST118:
 13098 1b14 3A000000 		.4byte	.LVL501
 13099 1b18 42000000 		.4byte	.LVL503
 13100 1b1c 0100     		.2byte	0x1
 13101 1b1e 54       		.byte	0x54
 13102 1b1f 50000000 		.4byte	.LVL507
 13103 1b23 52000000 		.4byte	.LVL508
 13104 1b27 0100     		.2byte	0x1
 13105 1b29 54       		.byte	0x54
 13106 1b2a 52000000 		.4byte	.LVL508
 13107 1b2e 64000000 		.4byte	.LFE27
 13108 1b32 0100     		.2byte	0x1
 13109 1b34 50       		.byte	0x50
 13110 1b35 00000000 		.4byte	0
 13111 1b39 00000000 		.4byte	0
 13112              	.LLST119:
 13113 1b3d 0E000000 		.4byte	.LVL491
 13114 1b41 12000000 		.4byte	.LVL493
 13115 1b45 0100     		.2byte	0x1
 13116 1b47 50       		.byte	0x50
 13117 1b48 12000000 		.4byte	.LVL493
 13118 1b4c 36000000 		.4byte	.LVL499
 13119 1b50 0100     		.2byte	0x1
 13120 1b52 54       		.byte	0x54
 13121 1b53 36000000 		.4byte	.LVL499
 13122 1b57 38000000 		.4byte	.LVL500
 13123 1b5b 0400     		.2byte	0x4
 13124 1b5d F3       		.byte	0xf3
 13125 1b5e 01       		.uleb128 0x1
 13126 1b5f 50       		.byte	0x50
 13127 1b60 9F       		.byte	0x9f
 13128 1b61 38000000 		.4byte	.LVL500
 13129 1b65 3A000000 		.4byte	.LVL501
 13130 1b69 0100     		.2byte	0x1
 13131 1b6b 54       		.byte	0x54
 13132 1b6c 3A000000 		.4byte	.LVL501
 13133 1b70 42000000 		.4byte	.LVL503
 13134 1b74 0400     		.2byte	0x4
 13135 1b76 F3       		.byte	0xf3
 13136 1b77 01       		.uleb128 0x1
 13137 1b78 50       		.byte	0x50
 13138 1b79 9F       		.byte	0x9f
 13139 1b7a 4A000000 		.4byte	.LVL504
ARM GAS  C:\Users\Phuong\AppData\Local\Temp\ccX7yw2d.s 			page 270


 13140 1b7e 4C000000 		.4byte	.LVL505
 13141 1b82 0100     		.2byte	0x1
 13142 1b84 54       		.byte	0x54
 13143 1b85 4C000000 		.4byte	.LVL505
 13144 1b89 4E000000 		.4byte	.LVL506
 13145 1b8d 0400     		.2byte	0x4
 13146 1b8f F3       		.byte	0xf3
 13147 1b90 01       		.uleb128 0x1
 13148 1b91 50       		.byte	0x50
 13149 1b92 9F       		.byte	0x9f
 13150 1b93 4E000000 		.4byte	.LVL506
 13151 1b97 50000000 		.4byte	.LVL507
 13152 1b9b 0100     		.2byte	0x1
 13153 1b9d 54       		.byte	0x54
 13154 1b9e 00000000 		.4byte	0
 13155 1ba2 00000000 		.4byte	0
 13156              	.LLST120:
 13157 1ba6 22000000 		.4byte	.LVL496
 13158 1baa 2C000000 		.4byte	.LVL497
 13159 1bae 0100     		.2byte	0x1
 13160 1bb0 50       		.byte	0x50
 13161 1bb1 2C000000 		.4byte	.LVL497
 13162 1bb5 2F000000 		.4byte	.LVL498-1
 13163 1bb9 0100     		.2byte	0x1
 13164 1bbb 51       		.byte	0x51
 13165 1bbc 2F000000 		.4byte	.LVL498-1
 13166 1bc0 42000000 		.4byte	.LVL503
 13167 1bc4 0100     		.2byte	0x1
 13168 1bc6 55       		.byte	0x55
 13169 1bc7 4E000000 		.4byte	.LVL506
 13170 1bcb 50000000 		.4byte	.LVL507
 13171 1bcf 0100     		.2byte	0x1
 13172 1bd1 50       		.byte	0x50
 13173 1bd2 00000000 		.4byte	0
 13174 1bd6 00000000 		.4byte	0
 13175              	.LLST121:
 13176 1bda 00000000 		.4byte	.LVL509
 13177 1bde 0C000000 		.4byte	.LVL510
 13178 1be2 0100     		.2byte	0x1
 13179 1be4 50       		.byte	0x50
 13180 1be5 0C000000 		.4byte	.LVL510
 13181 1be9 26000000 		.4byte	.LVL515
 13182 1bed 0100     		.2byte	0x1
 13183 1bef 54       		.byte	0x54
 13184 1bf0 26000000 		.4byte	.LVL515
 13185 1bf4 28000000 		.4byte	.LVL516
 13186 1bf8 0400     		.2byte	0x4
 13187 1bfa F3       		.byte	0xf3
 13188 1bfb 01       		.uleb128 0x1
 13189 1bfc 50       		.byte	0x50
 13190 1bfd 9F       		.byte	0x9f
 13191 1bfe 28000000 		.4byte	.LVL516
 13192 1c02 2A000000 		.4byte	.LVL517
 13193 1c06 0100     		.2byte	0x1
 13194 1c08 54       		.byte	0x54
 13195 1c09 2A000000 		.4byte	.LVL517
 13196 1c0d 32000000 		.4byte	.LVL519
ARM GAS  C:\Users\Phuong\AppData\Local\Temp\ccX7yw2d.s 			page 271


 13197 1c11 0400     		.2byte	0x4
 13198 1c13 F3       		.byte	0xf3
 13199 1c14 01       		.uleb128 0x1
 13200 1c15 50       		.byte	0x50
 13201 1c16 9F       		.byte	0x9f
 13202 1c17 32000000 		.4byte	.LVL519
 13203 1c1b 3A000000 		.4byte	.LVL520
 13204 1c1f 0100     		.2byte	0x1
 13205 1c21 50       		.byte	0x50
 13206 1c22 3A000000 		.4byte	.LVL520
 13207 1c26 3C000000 		.4byte	.LVL521
 13208 1c2a 0100     		.2byte	0x1
 13209 1c2c 54       		.byte	0x54
 13210 1c2d 3C000000 		.4byte	.LVL521
 13211 1c31 4C000000 		.4byte	.LFE28
 13212 1c35 0400     		.2byte	0x4
 13213 1c37 F3       		.byte	0xf3
 13214 1c38 01       		.uleb128 0x1
 13215 1c39 50       		.byte	0x50
 13216 1c3a 9F       		.byte	0x9f
 13217 1c3b 00000000 		.4byte	0
 13218 1c3f 00000000 		.4byte	0
 13219              	.LLST122:
 13220 1c43 00000000 		.4byte	.LVL509
 13221 1c47 0F000000 		.4byte	.LVL511-1
 13222 1c4b 0100     		.2byte	0x1
 13223 1c4d 51       		.byte	0x51
 13224 1c4e 0F000000 		.4byte	.LVL511-1
 13225 1c52 32000000 		.4byte	.LVL519
 13226 1c56 0400     		.2byte	0x4
 13227 1c58 F3       		.byte	0xf3
 13228 1c59 01       		.uleb128 0x1
 13229 1c5a 51       		.byte	0x51
 13230 1c5b 9F       		.byte	0x9f
 13231 1c5c 32000000 		.4byte	.LVL519
 13232 1c60 3A000000 		.4byte	.LVL520
 13233 1c64 0100     		.2byte	0x1
 13234 1c66 51       		.byte	0x51
 13235 1c67 3A000000 		.4byte	.LVL520
 13236 1c6b 4C000000 		.4byte	.LFE28
 13237 1c6f 0400     		.2byte	0x4
 13238 1c71 F3       		.byte	0xf3
 13239 1c72 01       		.uleb128 0x1
 13240 1c73 51       		.byte	0x51
 13241 1c74 9F       		.byte	0x9f
 13242 1c75 00000000 		.4byte	0
 13243 1c79 00000000 		.4byte	0
 13244              	.LLST123:
 13245 1c7d 2A000000 		.4byte	.LVL517
 13246 1c81 32000000 		.4byte	.LVL519
 13247 1c85 0100     		.2byte	0x1
 13248 1c87 54       		.byte	0x54
 13249 1c88 3C000000 		.4byte	.LVL521
 13250 1c8c 3E000000 		.4byte	.LVL522
 13251 1c90 0100     		.2byte	0x1
 13252 1c92 54       		.byte	0x54
 13253 1c93 3E000000 		.4byte	.LVL522
ARM GAS  C:\Users\Phuong\AppData\Local\Temp\ccX7yw2d.s 			page 272


 13254 1c97 4C000000 		.4byte	.LFE28
 13255 1c9b 0100     		.2byte	0x1
 13256 1c9d 50       		.byte	0x50
 13257 1c9e 00000000 		.4byte	0
 13258 1ca2 00000000 		.4byte	0
 13259              	.LLST124:
 13260 1ca6 12000000 		.4byte	.LVL512
 13261 1caa 1C000000 		.4byte	.LVL513
 13262 1cae 0100     		.2byte	0x1
 13263 1cb0 50       		.byte	0x50
 13264 1cb1 1C000000 		.4byte	.LVL513
 13265 1cb5 1F000000 		.4byte	.LVL514-1
 13266 1cb9 0100     		.2byte	0x1
 13267 1cbb 51       		.byte	0x51
 13268 1cbc 1F000000 		.4byte	.LVL514-1
 13269 1cc0 32000000 		.4byte	.LVL519
 13270 1cc4 0100     		.2byte	0x1
 13271 1cc6 55       		.byte	0x55
 13272 1cc7 3A000000 		.4byte	.LVL520
 13273 1ccb 3C000000 		.4byte	.LVL521
 13274 1ccf 0100     		.2byte	0x1
 13275 1cd1 50       		.byte	0x50
 13276 1cd2 00000000 		.4byte	0
 13277 1cd6 00000000 		.4byte	0
 13278              	.LLST125:
 13279 1cda 00000000 		.4byte	.LVL523
 13280 1cde 12000000 		.4byte	.LVL526
 13281 1ce2 0100     		.2byte	0x1
 13282 1ce4 50       		.byte	0x50
 13283 1ce5 12000000 		.4byte	.LVL526
 13284 1ce9 36000000 		.4byte	.LVL532
 13285 1ced 0100     		.2byte	0x1
 13286 1cef 54       		.byte	0x54
 13287 1cf0 36000000 		.4byte	.LVL532
 13288 1cf4 38000000 		.4byte	.LVL533
 13289 1cf8 0400     		.2byte	0x4
 13290 1cfa F3       		.byte	0xf3
 13291 1cfb 01       		.uleb128 0x1
 13292 1cfc 50       		.byte	0x50
 13293 1cfd 9F       		.byte	0x9f
 13294 1cfe 38000000 		.4byte	.LVL533
 13295 1d02 3A000000 		.4byte	.LVL534
 13296 1d06 0100     		.2byte	0x1
 13297 1d08 54       		.byte	0x54
 13298 1d09 3A000000 		.4byte	.LVL534
 13299 1d0d 42000000 		.4byte	.LVL536
 13300 1d11 0400     		.2byte	0x4
 13301 1d13 F3       		.byte	0xf3
 13302 1d14 01       		.uleb128 0x1
 13303 1d15 50       		.byte	0x50
 13304 1d16 9F       		.byte	0x9f
 13305 1d17 42000000 		.4byte	.LVL536
 13306 1d1b 4A000000 		.4byte	.LVL537
 13307 1d1f 0100     		.2byte	0x1
 13308 1d21 50       		.byte	0x50
 13309 1d22 4A000000 		.4byte	.LVL537
 13310 1d26 4C000000 		.4byte	.LVL538
ARM GAS  C:\Users\Phuong\AppData\Local\Temp\ccX7yw2d.s 			page 273


 13311 1d2a 0100     		.2byte	0x1
 13312 1d2c 54       		.byte	0x54
 13313 1d2d 4C000000 		.4byte	.LVL538
 13314 1d31 4E000000 		.4byte	.LVL539
 13315 1d35 0400     		.2byte	0x4
 13316 1d37 F3       		.byte	0xf3
 13317 1d38 01       		.uleb128 0x1
 13318 1d39 50       		.byte	0x50
 13319 1d3a 9F       		.byte	0x9f
 13320 1d3b 4E000000 		.4byte	.LVL539
 13321 1d3f 50000000 		.4byte	.LVL540
 13322 1d43 0100     		.2byte	0x1
 13323 1d45 54       		.byte	0x54
 13324 1d46 50000000 		.4byte	.LVL540
 13325 1d4a 64000000 		.4byte	.LFE29
 13326 1d4e 0400     		.2byte	0x4
 13327 1d50 F3       		.byte	0xf3
 13328 1d51 01       		.uleb128 0x1
 13329 1d52 50       		.byte	0x50
 13330 1d53 9F       		.byte	0x9f
 13331 1d54 00000000 		.4byte	0
 13332 1d58 00000000 		.4byte	0
 13333              	.LLST126:
 13334 1d5c 00000000 		.4byte	.LVL523
 13335 1d60 10000000 		.4byte	.LVL525
 13336 1d64 0100     		.2byte	0x1
 13337 1d66 51       		.byte	0x51
 13338 1d67 10000000 		.4byte	.LVL525
 13339 1d6b 22000000 		.4byte	.LVL529
 13340 1d6f 0100     		.2byte	0x1
 13341 1d71 55       		.byte	0x55
 13342 1d72 22000000 		.4byte	.LVL529
 13343 1d76 42000000 		.4byte	.LVL536
 13344 1d7a 0400     		.2byte	0x4
 13345 1d7c F3       		.byte	0xf3
 13346 1d7d 01       		.uleb128 0x1
 13347 1d7e 51       		.byte	0x51
 13348 1d7f 9F       		.byte	0x9f
 13349 1d80 42000000 		.4byte	.LVL536
 13350 1d84 4A000000 		.4byte	.LVL537
 13351 1d88 0100     		.2byte	0x1
 13352 1d8a 51       		.byte	0x51
 13353 1d8b 4A000000 		.4byte	.LVL537
 13354 1d8f 4E000000 		.4byte	.LVL539
 13355 1d93 0100     		.2byte	0x1
 13356 1d95 55       		.byte	0x55
 13357 1d96 4E000000 		.4byte	.LVL539
 13358 1d9a 64000000 		.4byte	.LFE29
 13359 1d9e 0400     		.2byte	0x4
 13360 1da0 F3       		.byte	0xf3
 13361 1da1 01       		.uleb128 0x1
 13362 1da2 51       		.byte	0x51
 13363 1da3 9F       		.byte	0x9f
 13364 1da4 00000000 		.4byte	0
 13365 1da8 00000000 		.4byte	0
 13366              	.LLST127:
 13367 1dac 3A000000 		.4byte	.LVL534
ARM GAS  C:\Users\Phuong\AppData\Local\Temp\ccX7yw2d.s 			page 274


 13368 1db0 42000000 		.4byte	.LVL536
 13369 1db4 0100     		.2byte	0x1
 13370 1db6 54       		.byte	0x54
 13371 1db7 50000000 		.4byte	.LVL540
 13372 1dbb 52000000 		.4byte	.LVL541
 13373 1dbf 0100     		.2byte	0x1
 13374 1dc1 54       		.byte	0x54
 13375 1dc2 52000000 		.4byte	.LVL541
 13376 1dc6 64000000 		.4byte	.LFE29
 13377 1dca 0100     		.2byte	0x1
 13378 1dcc 50       		.byte	0x50
 13379 1dcd 00000000 		.4byte	0
 13380 1dd1 00000000 		.4byte	0
 13381              	.LLST128:
 13382 1dd5 0E000000 		.4byte	.LVL524
 13383 1dd9 12000000 		.4byte	.LVL526
 13384 1ddd 0100     		.2byte	0x1
 13385 1ddf 50       		.byte	0x50
 13386 1de0 12000000 		.4byte	.LVL526
 13387 1de4 36000000 		.4byte	.LVL532
 13388 1de8 0100     		.2byte	0x1
 13389 1dea 54       		.byte	0x54
 13390 1deb 36000000 		.4byte	.LVL532
 13391 1def 38000000 		.4byte	.LVL533
 13392 1df3 0400     		.2byte	0x4
 13393 1df5 F3       		.byte	0xf3
 13394 1df6 01       		.uleb128 0x1
 13395 1df7 50       		.byte	0x50
 13396 1df8 9F       		.byte	0x9f
 13397 1df9 38000000 		.4byte	.LVL533
 13398 1dfd 3A000000 		.4byte	.LVL534
 13399 1e01 0100     		.2byte	0x1
 13400 1e03 54       		.byte	0x54
 13401 1e04 3A000000 		.4byte	.LVL534
 13402 1e08 42000000 		.4byte	.LVL536
 13403 1e0c 0400     		.2byte	0x4
 13404 1e0e F3       		.byte	0xf3
 13405 1e0f 01       		.uleb128 0x1
 13406 1e10 50       		.byte	0x50
 13407 1e11 9F       		.byte	0x9f
 13408 1e12 4A000000 		.4byte	.LVL537
 13409 1e16 4C000000 		.4byte	.LVL538
 13410 1e1a 0100     		.2byte	0x1
 13411 1e1c 54       		.byte	0x54
 13412 1e1d 4C000000 		.4byte	.LVL538
 13413 1e21 4E000000 		.4byte	.LVL539
 13414 1e25 0400     		.2byte	0x4
 13415 1e27 F3       		.byte	0xf3
 13416 1e28 01       		.uleb128 0x1
 13417 1e29 50       		.byte	0x50
 13418 1e2a 9F       		.byte	0x9f
 13419 1e2b 4E000000 		.4byte	.LVL539
 13420 1e2f 50000000 		.4byte	.LVL540
 13421 1e33 0100     		.2byte	0x1
 13422 1e35 54       		.byte	0x54
 13423 1e36 00000000 		.4byte	0
 13424 1e3a 00000000 		.4byte	0
ARM GAS  C:\Users\Phuong\AppData\Local\Temp\ccX7yw2d.s 			page 275


 13425              	.LLST129:
 13426 1e3e 22000000 		.4byte	.LVL529
 13427 1e42 2C000000 		.4byte	.LVL530
 13428 1e46 0100     		.2byte	0x1
 13429 1e48 50       		.byte	0x50
 13430 1e49 2C000000 		.4byte	.LVL530
 13431 1e4d 2F000000 		.4byte	.LVL531-1
 13432 1e51 0100     		.2byte	0x1
 13433 1e53 51       		.byte	0x51
 13434 1e54 2F000000 		.4byte	.LVL531-1
 13435 1e58 42000000 		.4byte	.LVL536
 13436 1e5c 0100     		.2byte	0x1
 13437 1e5e 55       		.byte	0x55
 13438 1e5f 4E000000 		.4byte	.LVL539
 13439 1e63 50000000 		.4byte	.LVL540
 13440 1e67 0100     		.2byte	0x1
 13441 1e69 50       		.byte	0x50
 13442 1e6a 00000000 		.4byte	0
 13443 1e6e 00000000 		.4byte	0
 13444              	.LLST130:
 13445 1e72 00000000 		.4byte	.LVL542
 13446 1e76 5C000000 		.4byte	.LVL554
 13447 1e7a 0100     		.2byte	0x1
 13448 1e7c 50       		.byte	0x50
 13449 1e7d 5C000000 		.4byte	.LVL554
 13450 1e81 54020000 		.4byte	.LVL636
 13451 1e85 0400     		.2byte	0x4
 13452 1e87 F3       		.byte	0xf3
 13453 1e88 01       		.uleb128 0x1
 13454 1e89 50       		.byte	0x50
 13455 1e8a 9F       		.byte	0x9f
 13456 1e8b 54020000 		.4byte	.LVL636
 13457 1e8f 68020000 		.4byte	.LVL642
 13458 1e93 0100     		.2byte	0x1
 13459 1e95 50       		.byte	0x50
 13460 1e96 68020000 		.4byte	.LVL642
 13461 1e9a 86020000 		.4byte	.LFE30
 13462 1e9e 0400     		.2byte	0x4
 13463 1ea0 F3       		.byte	0xf3
 13464 1ea1 01       		.uleb128 0x1
 13465 1ea2 50       		.byte	0x50
 13466 1ea3 9F       		.byte	0x9f
 13467 1ea4 00000000 		.4byte	0
 13468 1ea8 00000000 		.4byte	0
 13469              	.LLST131:
 13470 1eac 00000000 		.4byte	.LVL542
 13471 1eb0 2E000000 		.4byte	.LVL547
 13472 1eb4 0100     		.2byte	0x1
 13473 1eb6 51       		.byte	0x51
 13474 1eb7 2E000000 		.4byte	.LVL547
 13475 1ebb 04010000 		.4byte	.LVL571
 13476 1ebf 0100     		.2byte	0x1
 13477 1ec1 55       		.byte	0x55
 13478 1ec2 04010000 		.4byte	.LVL571
 13479 1ec6 06020000 		.4byte	.LVL614
 13480 1eca 0100     		.2byte	0x1
 13481 1ecc 59       		.byte	0x59
ARM GAS  C:\Users\Phuong\AppData\Local\Temp\ccX7yw2d.s 			page 276


 13482 1ecd 06020000 		.4byte	.LVL614
 13483 1ed1 0C020000 		.4byte	.LVL616
 13484 1ed5 0100     		.2byte	0x1
 13485 1ed7 55       		.byte	0x55
 13486 1ed8 0C020000 		.4byte	.LVL616
 13487 1edc 3E020000 		.4byte	.LVL627
 13488 1ee0 0100     		.2byte	0x1
 13489 1ee2 59       		.byte	0x59
 13490 1ee3 3E020000 		.4byte	.LVL627
 13491 1ee7 4A020000 		.4byte	.LVL633
 13492 1eeb 0100     		.2byte	0x1
 13493 1eed 55       		.byte	0x55
 13494 1eee 4A020000 		.4byte	.LVL633
 13495 1ef2 4C020000 		.4byte	.LVL634
 13496 1ef6 0100     		.2byte	0x1
 13497 1ef8 59       		.byte	0x59
 13498 1ef9 4C020000 		.4byte	.LVL634
 13499 1efd 54020000 		.4byte	.LVL636
 13500 1f01 0400     		.2byte	0x4
 13501 1f03 F3       		.byte	0xf3
 13502 1f04 01       		.uleb128 0x1
 13503 1f05 51       		.byte	0x51
 13504 1f06 9F       		.byte	0x9f
 13505 1f07 54020000 		.4byte	.LVL636
 13506 1f0b 60020000 		.4byte	.LVL638
 13507 1f0f 0100     		.2byte	0x1
 13508 1f11 51       		.byte	0x51
 13509 1f12 60020000 		.4byte	.LVL638
 13510 1f16 76020000 		.4byte	.LVL649
 13511 1f1a 0100     		.2byte	0x1
 13512 1f1c 55       		.byte	0x55
 13513 1f1d 76020000 		.4byte	.LVL649
 13514 1f21 86020000 		.4byte	.LFE30
 13515 1f25 0400     		.2byte	0x4
 13516 1f27 F3       		.byte	0xf3
 13517 1f28 01       		.uleb128 0x1
 13518 1f29 51       		.byte	0x51
 13519 1f2a 9F       		.byte	0x9f
 13520 1f2b 00000000 		.4byte	0
 13521 1f2f 00000000 		.4byte	0
 13522              	.LLST132:
 13523 1f33 00000000 		.4byte	.LVL542
 13524 1f37 2C000000 		.4byte	.LVL546
 13525 1f3b 0100     		.2byte	0x1
 13526 1f3d 52       		.byte	0x52
 13527 1f3e 2C000000 		.4byte	.LVL546
 13528 1f42 02010000 		.4byte	.LVL570
 13529 1f46 0100     		.2byte	0x1
 13530 1f48 54       		.byte	0x54
 13531 1f49 02010000 		.4byte	.LVL570
 13532 1f4d 04010000 		.4byte	.LVL571
 13533 1f51 0400     		.2byte	0x4
 13534 1f53 F3       		.byte	0xf3
 13535 1f54 01       		.uleb128 0x1
 13536 1f55 52       		.byte	0x52
 13537 1f56 9F       		.byte	0x9f
 13538 1f57 04010000 		.4byte	.LVL571
ARM GAS  C:\Users\Phuong\AppData\Local\Temp\ccX7yw2d.s 			page 277


 13539 1f5b 6A010000 		.4byte	.LVL591
 13540 1f5f 0100     		.2byte	0x1
 13541 1f61 56       		.byte	0x56
 13542 1f62 6A010000 		.4byte	.LVL591
 13543 1f66 72010000 		.4byte	.LVL594
 13544 1f6a 0400     		.2byte	0x4
 13545 1f6c F3       		.byte	0xf3
 13546 1f6d 01       		.uleb128 0x1
 13547 1f6e 52       		.byte	0x52
 13548 1f6f 9F       		.byte	0x9f
 13549 1f70 72010000 		.4byte	.LVL594
 13550 1f74 E2010000 		.4byte	.LVL607
 13551 1f78 0100     		.2byte	0x1
 13552 1f7a 56       		.byte	0x56
 13553 1f7b E2010000 		.4byte	.LVL607
 13554 1f7f F0010000 		.4byte	.LVL610
 13555 1f83 0400     		.2byte	0x4
 13556 1f85 F3       		.byte	0xf3
 13557 1f86 01       		.uleb128 0x1
 13558 1f87 52       		.byte	0x52
 13559 1f88 9F       		.byte	0x9f
 13560 1f89 F0010000 		.4byte	.LVL610
 13561 1f8d 06020000 		.4byte	.LVL614
 13562 1f91 0100     		.2byte	0x1
 13563 1f93 56       		.byte	0x56
 13564 1f94 06020000 		.4byte	.LVL614
 13565 1f98 10020000 		.4byte	.LVL617
 13566 1f9c 0100     		.2byte	0x1
 13567 1f9e 54       		.byte	0x54
 13568 1f9f 10020000 		.4byte	.LVL617
 13569 1fa3 1A020000 		.4byte	.LVL619
 13570 1fa7 0100     		.2byte	0x1
 13571 1fa9 56       		.byte	0x56
 13572 1faa 1A020000 		.4byte	.LVL619
 13573 1fae 1C020000 		.4byte	.LVL620
 13574 1fb2 0400     		.2byte	0x4
 13575 1fb4 F3       		.byte	0xf3
 13576 1fb5 01       		.uleb128 0x1
 13577 1fb6 52       		.byte	0x52
 13578 1fb7 9F       		.byte	0x9f
 13579 1fb8 1C020000 		.4byte	.LVL620
 13580 1fbc 1E020000 		.4byte	.LVL621
 13581 1fc0 0100     		.2byte	0x1
 13582 1fc2 56       		.byte	0x56
 13583 1fc3 1E020000 		.4byte	.LVL621
 13584 1fc7 20020000 		.4byte	.LVL622
 13585 1fcb 0400     		.2byte	0x4
 13586 1fcd F3       		.byte	0xf3
 13587 1fce 01       		.uleb128 0x1
 13588 1fcf 52       		.byte	0x52
 13589 1fd0 9F       		.byte	0x9f
 13590 1fd1 20020000 		.4byte	.LVL622
 13591 1fd5 22020000 		.4byte	.LVL623
 13592 1fd9 0100     		.2byte	0x1
 13593 1fdb 56       		.byte	0x56
 13594 1fdc 22020000 		.4byte	.LVL623
 13595 1fe0 3E020000 		.4byte	.LVL627
ARM GAS  C:\Users\Phuong\AppData\Local\Temp\ccX7yw2d.s 			page 278


 13596 1fe4 0400     		.2byte	0x4
 13597 1fe6 F3       		.byte	0xf3
 13598 1fe7 01       		.uleb128 0x1
 13599 1fe8 52       		.byte	0x52
 13600 1fe9 9F       		.byte	0x9f
 13601 1fea 3E020000 		.4byte	.LVL627
 13602 1fee 40020000 		.4byte	.LVL628
 13603 1ff2 0100     		.2byte	0x1
 13604 1ff4 54       		.byte	0x54
 13605 1ff5 40020000 		.4byte	.LVL628
 13606 1ff9 42020000 		.4byte	.LVL629
 13607 1ffd 0400     		.2byte	0x4
 13608 1fff F3       		.byte	0xf3
 13609 2000 01       		.uleb128 0x1
 13610 2001 52       		.byte	0x52
 13611 2002 9F       		.byte	0x9f
 13612 2003 42020000 		.4byte	.LVL629
 13613 2007 44020000 		.4byte	.LVL630
 13614 200b 0100     		.2byte	0x1
 13615 200d 54       		.byte	0x54
 13616 200e 44020000 		.4byte	.LVL630
 13617 2012 46020000 		.4byte	.LVL631
 13618 2016 0400     		.2byte	0x4
 13619 2018 F3       		.byte	0xf3
 13620 2019 01       		.uleb128 0x1
 13621 201a 52       		.byte	0x52
 13622 201b 9F       		.byte	0x9f
 13623 201c 46020000 		.4byte	.LVL631
 13624 2020 48020000 		.4byte	.LVL632
 13625 2024 0100     		.2byte	0x1
 13626 2026 54       		.byte	0x54
 13627 2027 48020000 		.4byte	.LVL632
 13628 202b 54020000 		.4byte	.LVL636
 13629 202f 0400     		.2byte	0x4
 13630 2031 F3       		.byte	0xf3
 13631 2032 01       		.uleb128 0x1
 13632 2033 52       		.byte	0x52
 13633 2034 9F       		.byte	0x9f
 13634 2035 54020000 		.4byte	.LVL636
 13635 2039 60020000 		.4byte	.LVL638
 13636 203d 0100     		.2byte	0x1
 13637 203f 52       		.byte	0x52
 13638 2040 60020000 		.4byte	.LVL638
 13639 2044 62020000 		.4byte	.LVL639
 13640 2048 0100     		.2byte	0x1
 13641 204a 54       		.byte	0x54
 13642 204b 62020000 		.4byte	.LVL639
 13643 204f 64020000 		.4byte	.LVL640
 13644 2053 0400     		.2byte	0x4
 13645 2055 F3       		.byte	0xf3
 13646 2056 01       		.uleb128 0x1
 13647 2057 52       		.byte	0x52
 13648 2058 9F       		.byte	0x9f
 13649 2059 64020000 		.4byte	.LVL640
 13650 205d 66020000 		.4byte	.LVL641
 13651 2061 0100     		.2byte	0x1
 13652 2063 54       		.byte	0x54
ARM GAS  C:\Users\Phuong\AppData\Local\Temp\ccX7yw2d.s 			page 279


 13653 2064 66020000 		.4byte	.LVL641
 13654 2068 68020000 		.4byte	.LVL642
 13655 206c 0400     		.2byte	0x4
 13656 206e F3       		.byte	0xf3
 13657 206f 01       		.uleb128 0x1
 13658 2070 52       		.byte	0x52
 13659 2071 9F       		.byte	0x9f
 13660 2072 68020000 		.4byte	.LVL642
 13661 2076 6A020000 		.4byte	.LVL643
 13662 207a 0100     		.2byte	0x1
 13663 207c 54       		.byte	0x54
 13664 207d 6A020000 		.4byte	.LVL643
 13665 2081 6C020000 		.4byte	.LVL644
 13666 2085 0400     		.2byte	0x4
 13667 2087 F3       		.byte	0xf3
 13668 2088 01       		.uleb128 0x1
 13669 2089 52       		.byte	0x52
 13670 208a 9F       		.byte	0x9f
 13671 208b 6C020000 		.4byte	.LVL644
 13672 208f 6E020000 		.4byte	.LVL645
 13673 2093 0100     		.2byte	0x1
 13674 2095 54       		.byte	0x54
 13675 2096 6E020000 		.4byte	.LVL645
 13676 209a 70020000 		.4byte	.LVL646
 13677 209e 0400     		.2byte	0x4
 13678 20a0 F3       		.byte	0xf3
 13679 20a1 01       		.uleb128 0x1
 13680 20a2 52       		.byte	0x52
 13681 20a3 9F       		.byte	0x9f
 13682 20a4 70020000 		.4byte	.LVL646
 13683 20a8 72020000 		.4byte	.LVL647
 13684 20ac 0100     		.2byte	0x1
 13685 20ae 54       		.byte	0x54
 13686 20af 72020000 		.4byte	.LVL647
 13687 20b3 74020000 		.4byte	.LVL648
 13688 20b7 0400     		.2byte	0x4
 13689 20b9 F3       		.byte	0xf3
 13690 20ba 01       		.uleb128 0x1
 13691 20bb 52       		.byte	0x52
 13692 20bc 9F       		.byte	0x9f
 13693 20bd 74020000 		.4byte	.LVL648
 13694 20c1 76020000 		.4byte	.LVL649
 13695 20c5 0100     		.2byte	0x1
 13696 20c7 54       		.byte	0x54
 13697 20c8 76020000 		.4byte	.LVL649
 13698 20cc 86020000 		.4byte	.LFE30
 13699 20d0 0400     		.2byte	0x4
 13700 20d2 F3       		.byte	0xf3
 13701 20d3 01       		.uleb128 0x1
 13702 20d4 52       		.byte	0x52
 13703 20d5 9F       		.byte	0x9f
 13704 20d6 00000000 		.4byte	0
 13705 20da 00000000 		.4byte	0
 13706              	.LLST133:
 13707 20de 00000000 		.4byte	.LVL542
 13708 20e2 24000000 		.4byte	.LVL545
 13709 20e6 0100     		.2byte	0x1
ARM GAS  C:\Users\Phuong\AppData\Local\Temp\ccX7yw2d.s 			page 280


 13710 20e8 53       		.byte	0x53
 13711 20e9 24000000 		.4byte	.LVL545
 13712 20ed 04010000 		.4byte	.LVL571
 13713 20f1 0100     		.2byte	0x1
 13714 20f3 57       		.byte	0x57
 13715 20f4 04010000 		.4byte	.LVL571
 13716 20f8 06020000 		.4byte	.LVL614
 13717 20fc 0400     		.2byte	0x4
 13718 20fe F3       		.byte	0xf3
 13719 20ff 01       		.uleb128 0x1
 13720 2100 53       		.byte	0x53
 13721 2101 9F       		.byte	0x9f
 13722 2102 06020000 		.4byte	.LVL614
 13723 2106 08020000 		.4byte	.LVL615
 13724 210a 0100     		.2byte	0x1
 13725 210c 57       		.byte	0x57
 13726 210d 08020000 		.4byte	.LVL615
 13727 2111 3E020000 		.4byte	.LVL627
 13728 2115 0400     		.2byte	0x4
 13729 2117 F3       		.byte	0xf3
 13730 2118 01       		.uleb128 0x1
 13731 2119 53       		.byte	0x53
 13732 211a 9F       		.byte	0x9f
 13733 211b 3E020000 		.4byte	.LVL627
 13734 211f 4A020000 		.4byte	.LVL633
 13735 2123 0100     		.2byte	0x1
 13736 2125 57       		.byte	0x57
 13737 2126 4A020000 		.4byte	.LVL633
 13738 212a 54020000 		.4byte	.LVL636
 13739 212e 0400     		.2byte	0x4
 13740 2130 F3       		.byte	0xf3
 13741 2131 01       		.uleb128 0x1
 13742 2132 53       		.byte	0x53
 13743 2133 9F       		.byte	0x9f
 13744 2134 54020000 		.4byte	.LVL636
 13745 2138 5C020000 		.4byte	.LVL637
 13746 213c 0100     		.2byte	0x1
 13747 213e 53       		.byte	0x53
 13748 213f 5C020000 		.4byte	.LVL637
 13749 2143 76020000 		.4byte	.LVL649
 13750 2147 0100     		.2byte	0x1
 13751 2149 57       		.byte	0x57
 13752 214a 76020000 		.4byte	.LVL649
 13753 214e 86020000 		.4byte	.LFE30
 13754 2152 0400     		.2byte	0x4
 13755 2154 F3       		.byte	0xf3
 13756 2155 01       		.uleb128 0x1
 13757 2156 53       		.byte	0x53
 13758 2157 9F       		.byte	0x9f
 13759 2158 00000000 		.4byte	0
 13760 215c 00000000 		.4byte	0
 13761              	.LLST134:
 13762 2160 00010000 		.4byte	.LVL569
 13763 2164 04010000 		.4byte	.LVL571
 13764 2168 0200     		.2byte	0x2
 13765 216a 30       		.byte	0x30
 13766 216b 9F       		.byte	0x9f
ARM GAS  C:\Users\Phuong\AppData\Local\Temp\ccX7yw2d.s 			page 281


 13767 216c 3A020000 		.4byte	.LVL626
 13768 2170 3E020000 		.4byte	.LVL627
 13769 2174 0200     		.2byte	0x2
 13770 2176 30       		.byte	0x30
 13771 2177 9F       		.byte	0x9f
 13772 2178 4C020000 		.4byte	.LVL634
 13773 217c 54020000 		.4byte	.LVL636
 13774 2180 0100     		.2byte	0x1
 13775 2182 54       		.byte	0x54
 13776 2183 76020000 		.4byte	.LVL649
 13777 2187 7A020000 		.4byte	.LVL650
 13778 218b 0100     		.2byte	0x1
 13779 218d 54       		.byte	0x54
 13780 218e 00000000 		.4byte	0
 13781 2192 00000000 		.4byte	0
 13782              	.LLST135:
 13783 2196 20000000 		.4byte	.LVL543
 13784 219a 5C000000 		.4byte	.LVL554
 13785 219e 0100     		.2byte	0x1
 13786 21a0 50       		.byte	0x50
 13787 21a1 5C000000 		.4byte	.LVL554
 13788 21a5 54020000 		.4byte	.LVL636
 13789 21a9 0400     		.2byte	0x4
 13790 21ab F3       		.byte	0xf3
 13791 21ac 01       		.uleb128 0x1
 13792 21ad 50       		.byte	0x50
 13793 21ae 9F       		.byte	0x9f
 13794 21af 5C020000 		.4byte	.LVL637
 13795 21b3 68020000 		.4byte	.LVL642
 13796 21b7 0100     		.2byte	0x1
 13797 21b9 50       		.byte	0x50
 13798 21ba 68020000 		.4byte	.LVL642
 13799 21be 76020000 		.4byte	.LVL649
 13800 21c2 0400     		.2byte	0x4
 13801 21c4 F3       		.byte	0xf3
 13802 21c5 01       		.uleb128 0x1
 13803 21c6 50       		.byte	0x50
 13804 21c7 9F       		.byte	0x9f
 13805 21c8 00000000 		.4byte	0
 13806 21cc 00000000 		.4byte	0
 13807              	.LLST136:
 13808 21d0 22000000 		.4byte	.LVL544
 13809 21d4 04010000 		.4byte	.LVL571
 13810 21d8 0100     		.2byte	0x1
 13811 21da 56       		.byte	0x56
 13812 21db 04010000 		.4byte	.LVL571
 13813 21df 06020000 		.4byte	.LVL614
 13814 21e3 0100     		.2byte	0x1
 13815 21e5 5B       		.byte	0x5b
 13816 21e6 06020000 		.4byte	.LVL614
 13817 21ea 10020000 		.4byte	.LVL617
 13818 21ee 0100     		.2byte	0x1
 13819 21f0 56       		.byte	0x56
 13820 21f1 10020000 		.4byte	.LVL617
 13821 21f5 22020000 		.4byte	.LVL623
 13822 21f9 0100     		.2byte	0x1
 13823 21fb 5B       		.byte	0x5b
ARM GAS  C:\Users\Phuong\AppData\Local\Temp\ccX7yw2d.s 			page 282


 13824 21fc 22020000 		.4byte	.LVL623
 13825 2200 54020000 		.4byte	.LVL636
 13826 2204 0100     		.2byte	0x1
 13827 2206 56       		.byte	0x56
 13828 2207 5C020000 		.4byte	.LVL637
 13829 220b 76020000 		.4byte	.LVL649
 13830 220f 0100     		.2byte	0x1
 13831 2211 56       		.byte	0x56
 13832 2212 00000000 		.4byte	0
 13833 2216 00000000 		.4byte	0
 13834              	.LLST137:
 13835 221a 30000000 		.4byte	.LVL548
 13836 221e 3C000000 		.4byte	.LVL549
 13837 2222 0100     		.2byte	0x1
 13838 2224 51       		.byte	0x51
 13839 2225 3C000000 		.4byte	.LVL549
 13840 2229 40000000 		.4byte	.LVL551
 13841 222d 0100     		.2byte	0x1
 13842 222f 53       		.byte	0x53
 13843 2230 40000000 		.4byte	.LVL551
 13844 2234 5A000000 		.4byte	.LVL553
 13845 2238 0100     		.2byte	0x1
 13846 223a 51       		.byte	0x51
 13847 223b B4000000 		.4byte	.LVL563
 13848 223f E2000000 		.4byte	.LVL567
 13849 2243 0100     		.2byte	0x1
 13850 2245 51       		.byte	0x51
 13851 2246 E2000000 		.4byte	.LVL567
 13852 224a 04010000 		.4byte	.LVL571
 13853 224e 0100     		.2byte	0x1
 13854 2250 5A       		.byte	0x5a
 13855 2251 04010000 		.4byte	.LVL571
 13856 2255 06010000 		.4byte	.LVL572
 13857 2259 0100     		.2byte	0x1
 13858 225b 53       		.byte	0x53
 13859 225c 06010000 		.4byte	.LVL572
 13860 2260 04020000 		.4byte	.LVL613
 13861 2264 0100     		.2byte	0x1
 13862 2266 5A       		.byte	0x5a
 13863 2267 04020000 		.4byte	.LVL613
 13864 226b 06020000 		.4byte	.LVL614
 13865 226f 0100     		.2byte	0x1
 13866 2271 53       		.byte	0x53
 13867 2272 06020000 		.4byte	.LVL614
 13868 2276 10020000 		.4byte	.LVL617
 13869 227a 0100     		.2byte	0x1
 13870 227c 51       		.byte	0x51
 13871 227d 10020000 		.4byte	.LVL617
 13872 2281 18020000 		.4byte	.LVL618
 13873 2285 0100     		.2byte	0x1
 13874 2287 5A       		.byte	0x5a
 13875 2288 18020000 		.4byte	.LVL618
 13876 228c 1C020000 		.4byte	.LVL620
 13877 2290 0100     		.2byte	0x1
 13878 2292 53       		.byte	0x53
 13879 2293 1C020000 		.4byte	.LVL620
 13880 2297 28020000 		.4byte	.LVL624
ARM GAS  C:\Users\Phuong\AppData\Local\Temp\ccX7yw2d.s 			page 283


 13881 229b 0100     		.2byte	0x1
 13882 229d 5A       		.byte	0x5a
 13883 229e 28020000 		.4byte	.LVL624
 13884 22a2 2A020000 		.4byte	.LVL625
 13885 22a6 0100     		.2byte	0x1
 13886 22a8 53       		.byte	0x53
 13887 22a9 2A020000 		.4byte	.LVL625
 13888 22ad 3E020000 		.4byte	.LVL627
 13889 22b1 0100     		.2byte	0x1
 13890 22b3 5A       		.byte	0x5a
 13891 22b4 46020000 		.4byte	.LVL631
 13892 22b8 4A020000 		.4byte	.LVL633
 13893 22bc 0100     		.2byte	0x1
 13894 22be 5A       		.byte	0x5a
 13895 22bf 4A020000 		.4byte	.LVL633
 13896 22c3 4C020000 		.4byte	.LVL634
 13897 22c7 0100     		.2byte	0x1
 13898 22c9 53       		.byte	0x53
 13899 22ca 60020000 		.4byte	.LVL638
 13900 22ce 68020000 		.4byte	.LVL642
 13901 22d2 0100     		.2byte	0x1
 13902 22d4 51       		.byte	0x51
 13903 22d5 00000000 		.4byte	0
 13904 22d9 00000000 		.4byte	0
 13905              	.LLST138:
 13906 22dd 30000000 		.4byte	.LVL548
 13907 22e1 56000000 		.4byte	.LVL552
 13908 22e5 0100     		.2byte	0x1
 13909 22e7 52       		.byte	0x52
 13910 22e8 B4000000 		.4byte	.LVL563
 13911 22ec C6000000 		.4byte	.LVL566
 13912 22f0 0100     		.2byte	0x1
 13913 22f2 53       		.byte	0x53
 13914 22f3 60020000 		.4byte	.LVL638
 13915 22f7 68020000 		.4byte	.LVL642
 13916 22fb 0100     		.2byte	0x1
 13917 22fd 52       		.byte	0x52
 13918 22fe 00000000 		.4byte	0
 13919 2302 00000000 		.4byte	0
 13920              	.LLST139:
 13921 2306 8C000000 		.4byte	.LVL559
 13922 230a 96000000 		.4byte	.LVL560
 13923 230e 0100     		.2byte	0x1
 13924 2310 50       		.byte	0x50
 13925 2311 96000000 		.4byte	.LVL560
 13926 2315 54020000 		.4byte	.LVL636
 13927 2319 0200     		.2byte	0x2
 13928 231b 91       		.byte	0x91
 13929 231c 4C       		.sleb128 -52
 13930 231d 74020000 		.4byte	.LVL648
 13931 2321 76020000 		.4byte	.LVL649
 13932 2325 0100     		.2byte	0x1
 13933 2327 50       		.byte	0x50
 13934 2328 00000000 		.4byte	0
 13935 232c 00000000 		.4byte	0
 13936              	.LLST140:
 13937 2330 04010000 		.4byte	.LVL571
ARM GAS  C:\Users\Phuong\AppData\Local\Temp\ccX7yw2d.s 			page 284


 13938 2334 06020000 		.4byte	.LVL614
 13939 2338 0100     		.2byte	0x1
 13940 233a 55       		.byte	0x55
 13941 233b 10020000 		.4byte	.LVL617
 13942 233f 3E020000 		.4byte	.LVL627
 13943 2343 0100     		.2byte	0x1
 13944 2345 55       		.byte	0x55
 13945 2346 4A020000 		.4byte	.LVL633
 13946 234a 4C020000 		.4byte	.LVL634
 13947 234e 0100     		.2byte	0x1
 13948 2350 55       		.byte	0x55
 13949 2351 00000000 		.4byte	0
 13950 2355 00000000 		.4byte	0
 13951              	.LLST141:
 13952 2359 04010000 		.4byte	.LVL571
 13953 235d AC010000 		.4byte	.LVL597
 13954 2361 0100     		.2byte	0x1
 13955 2363 57       		.byte	0x57
 13956 2364 B0010000 		.4byte	.LVL599
 13957 2368 B2010000 		.4byte	.LVL600
 13958 236c 0200     		.2byte	0x2
 13959 236e 30       		.byte	0x30
 13960 236f 9F       		.byte	0x9f
 13961 2370 B2010000 		.4byte	.LVL600
 13962 2374 06020000 		.4byte	.LVL614
 13963 2378 0100     		.2byte	0x1
 13964 237a 57       		.byte	0x57
 13965 237b 10020000 		.4byte	.LVL617
 13966 237f 3E020000 		.4byte	.LVL627
 13967 2383 0100     		.2byte	0x1
 13968 2385 57       		.byte	0x57
 13969 2386 4A020000 		.4byte	.LVL633
 13970 238a 4C020000 		.4byte	.LVL634
 13971 238e 0100     		.2byte	0x1
 13972 2390 57       		.byte	0x57
 13973 2391 00000000 		.4byte	0
 13974 2395 00000000 		.4byte	0
 13975              	.LLST142:
 13976 2399 04010000 		.4byte	.LVL571
 13977 239d 5C010000 		.4byte	.LVL587
 13978 23a1 0200     		.2byte	0x2
 13979 23a3 30       		.byte	0x30
 13980 23a4 9F       		.byte	0x9f
 13981 23a5 5C010000 		.4byte	.LVL587
 13982 23a9 5E010000 		.4byte	.LVL588
 13983 23ad 0100     		.2byte	0x1
 13984 23af 50       		.byte	0x50
 13985 23b0 72010000 		.4byte	.LVL594
 13986 23b4 B6010000 		.4byte	.LVL602
 13987 23b8 0100     		.2byte	0x1
 13988 23ba 53       		.byte	0x53
 13989 23bb C0010000 		.4byte	.LVL604
 13990 23bf DB010000 		.4byte	.LVL606-1
 13991 23c3 0100     		.2byte	0x1
 13992 23c5 53       		.byte	0x53
 13993 23c6 1C020000 		.4byte	.LVL620
 13994 23ca 22020000 		.4byte	.LVL623
ARM GAS  C:\Users\Phuong\AppData\Local\Temp\ccX7yw2d.s 			page 285


 13995 23ce 0200     		.2byte	0x2
 13996 23d0 30       		.byte	0x30
 13997 23d1 9F       		.byte	0x9f
 13998 23d2 00000000 		.4byte	0
 13999 23d6 00000000 		.4byte	0
 14000              	.LLST143:
 14001 23da 04010000 		.4byte	.LVL571
 14002 23de 06010000 		.4byte	.LVL572
 14003 23e2 0100     		.2byte	0x1
 14004 23e4 53       		.byte	0x53
 14005 23e5 06010000 		.4byte	.LVL572
 14006 23e9 12010000 		.4byte	.LVL573
 14007 23ed 0100     		.2byte	0x1
 14008 23ef 5A       		.byte	0x5a
 14009 23f0 12010000 		.4byte	.LVL573
 14010 23f4 06020000 		.4byte	.LVL614
 14011 23f8 0200     		.2byte	0x2
 14012 23fa 91       		.byte	0x91
 14013 23fb 44       		.sleb128 -60
 14014 23fc 1C020000 		.4byte	.LVL620
 14015 2400 22020000 		.4byte	.LVL623
 14016 2404 0200     		.2byte	0x2
 14017 2406 91       		.byte	0x91
 14018 2407 44       		.sleb128 -60
 14019 2408 00000000 		.4byte	0
 14020 240c 00000000 		.4byte	0
 14021              	.LLST144:
 14022 2410 3A010000 		.4byte	.LVL579
 14023 2414 48010000 		.4byte	.LVL580
 14024 2418 0100     		.2byte	0x1
 14025 241a 54       		.byte	0x54
 14026 241b 48010000 		.4byte	.LVL580
 14027 241f 4C010000 		.4byte	.LVL581
 14028 2423 0200     		.2byte	0x2
 14029 2425 30       		.byte	0x30
 14030 2426 9F       		.byte	0x9f
 14031 2427 4C010000 		.4byte	.LVL581
 14032 242b 72010000 		.4byte	.LVL594
 14033 242f 0100     		.2byte	0x1
 14034 2431 54       		.byte	0x54
 14035 2432 72010000 		.4byte	.LVL594
 14036 2436 90010000 		.4byte	.LVL595
 14037 243a 0100     		.2byte	0x1
 14038 243c 50       		.byte	0x50
 14039 243d 90010000 		.4byte	.LVL595
 14040 2441 94010000 		.4byte	.LVL596
 14041 2445 0200     		.2byte	0x2
 14042 2447 30       		.byte	0x30
 14043 2448 9F       		.byte	0x9f
 14044 2449 94010000 		.4byte	.LVL596
 14045 244d B6010000 		.4byte	.LVL602
 14046 2451 0100     		.2byte	0x1
 14047 2453 50       		.byte	0x50
 14048 2454 B6010000 		.4byte	.LVL602
 14049 2458 C0010000 		.4byte	.LVL604
 14050 245c 0100     		.2byte	0x1
 14051 245e 54       		.byte	0x54
ARM GAS  C:\Users\Phuong\AppData\Local\Temp\ccX7yw2d.s 			page 286


 14052 245f C0010000 		.4byte	.LVL604
 14053 2463 CC010000 		.4byte	.LVL605
 14054 2467 0100     		.2byte	0x1
 14055 2469 50       		.byte	0x50
 14056 246a 00000000 		.4byte	0
 14057 246e 00000000 		.4byte	0
 14058              	.LLST145:
 14059 2472 04010000 		.4byte	.LVL571
 14060 2476 3A010000 		.4byte	.LVL579
 14061 247a 0100     		.2byte	0x1
 14062 247c 55       		.byte	0x55
 14063 247d 3A010000 		.4byte	.LVL579
 14064 2481 5A010000 		.4byte	.LVL586
 14065 2485 0100     		.2byte	0x1
 14066 2487 50       		.byte	0x50
 14067 2488 1C020000 		.4byte	.LVL620
 14068 248c 22020000 		.4byte	.LVL623
 14069 2490 0100     		.2byte	0x1
 14070 2492 55       		.byte	0x55
 14071 2493 00000000 		.4byte	0
 14072 2497 00000000 		.4byte	0
 14073              	.LLST146:
 14074 249b 04010000 		.4byte	.LVL571
 14075 249f 3A010000 		.4byte	.LVL579
 14076 24a3 0100     		.2byte	0x1
 14077 24a5 57       		.byte	0x57
 14078 24a6 3A010000 		.4byte	.LVL579
 14079 24aa 4E010000 		.4byte	.LVL582
 14080 24ae 0100     		.2byte	0x1
 14081 24b0 53       		.byte	0x53
 14082 24b1 52010000 		.4byte	.LVL584
 14083 24b5 54010000 		.4byte	.LVL585
 14084 24b9 0200     		.2byte	0x2
 14085 24bb 30       		.byte	0x30
 14086 24bc 9F       		.byte	0x9f
 14087 24bd 54010000 		.4byte	.LVL585
 14088 24c1 61010000 		.4byte	.LVL589-1
 14089 24c5 0100     		.2byte	0x1
 14090 24c7 53       		.byte	0x53
 14091 24c8 1C020000 		.4byte	.LVL620
 14092 24cc 22020000 		.4byte	.LVL623
 14093 24d0 0100     		.2byte	0x1
 14094 24d2 57       		.byte	0x57
 14095 24d3 00000000 		.4byte	0
 14096 24d7 00000000 		.4byte	0
 14097              	.LLST147:
 14098 24db 2E010000 		.4byte	.LVL577
 14099 24df 36010000 		.4byte	.LVL578
 14100 24e3 0100     		.2byte	0x1
 14101 24e5 50       		.byte	0x50
 14102 24e6 36010000 		.4byte	.LVL578
 14103 24ea 06020000 		.4byte	.LVL614
 14104 24ee 0200     		.2byte	0x2
 14105 24f0 91       		.byte	0x91
 14106 24f1 48       		.sleb128 -56
 14107 24f2 20020000 		.4byte	.LVL622
 14108 24f6 22020000 		.4byte	.LVL623
ARM GAS  C:\Users\Phuong\AppData\Local\Temp\ccX7yw2d.s 			page 287


 14109 24fa 0100     		.2byte	0x1
 14110 24fc 50       		.byte	0x50
 14111 24fd 00000000 		.4byte	0
 14112 2501 00000000 		.4byte	0
 14113              	.LLST148:
 14114 2505 64010000 		.4byte	.LVL590
 14115 2509 6C010000 		.4byte	.LVL592
 14116 250d 0100     		.2byte	0x1
 14117 250f 50       		.byte	0x50
 14118 2510 6C010000 		.4byte	.LVL592
 14119 2514 72010000 		.4byte	.LVL594
 14120 2518 0100     		.2byte	0x1
 14121 251a 58       		.byte	0x58
 14122 251b 72010000 		.4byte	.LVL594
 14123 251f B6010000 		.4byte	.LVL602
 14124 2523 0200     		.2byte	0x2
 14125 2525 91       		.byte	0x91
 14126 2526 40       		.sleb128 -64
 14127 2527 B6010000 		.4byte	.LVL602
 14128 252b B8010000 		.4byte	.LVL603
 14129 252f 0100     		.2byte	0x1
 14130 2531 50       		.byte	0x50
 14131 2532 B8010000 		.4byte	.LVL603
 14132 2536 C0010000 		.4byte	.LVL604
 14133 253a 0100     		.2byte	0x1
 14134 253c 58       		.byte	0x58
 14135 253d C0010000 		.4byte	.LVL604
 14136 2541 06020000 		.4byte	.LVL614
 14137 2545 0200     		.2byte	0x2
 14138 2547 91       		.byte	0x91
 14139 2548 40       		.sleb128 -64
 14140 2549 00000000 		.4byte	0
 14141 254d 00000000 		.4byte	0
 14142              	.LLST149:
 14143 2551 1C010000 		.4byte	.LVL574
 14144 2555 21010000 		.4byte	.LVL575-1
 14145 2559 0100     		.2byte	0x1
 14146 255b 51       		.byte	0x51
 14147 255c 00000000 		.4byte	0
 14148 2560 00000000 		.4byte	0
 14149              		.section	.debug_aranges,"",%progbits
 14150 0000 0C010000 		.4byte	0x10c
 14151 0004 0200     		.2byte	0x2
 14152 0006 00000000 		.4byte	.Ldebug_info0
 14153 000a 04       		.byte	0x4
 14154 000b 00       		.byte	0
 14155 000c 0000     		.2byte	0
 14156 000e 0000     		.2byte	0
 14157 0010 00000000 		.4byte	.LFB2
 14158 0014 36000000 		.4byte	.LFE2-.LFB2
 14159 0018 00000000 		.4byte	.LFB8
 14160 001c 2A000000 		.4byte	.LFE8-.LFB8
 14161 0020 00000000 		.4byte	.LFB1
 14162 0024 16000000 		.4byte	.LFE1-.LFB1
 14163 0028 00000000 		.4byte	.LFB25
 14164 002c 38000000 		.4byte	.LFE25-.LFB25
 14165 0030 00000000 		.4byte	.LFB5
ARM GAS  C:\Users\Phuong\AppData\Local\Temp\ccX7yw2d.s 			page 288


 14166 0034 8C000000 		.4byte	.LFE5-.LFB5
 14167 0038 00000000 		.4byte	.LFB9
 14168 003c 44000000 		.4byte	.LFE9-.LFB9
 14169 0040 00000000 		.4byte	.LFB7
 14170 0044 34000000 		.4byte	.LFE7-.LFB7
 14171 0048 00000000 		.4byte	.LFB0
 14172 004c 6C000000 		.4byte	.LFE0-.LFB0
 14173 0050 00000000 		.4byte	.LFB6
 14174 0054 70000000 		.4byte	.LFE6-.LFB6
 14175 0058 00000000 		.4byte	.LFB3
 14176 005c 60000000 		.4byte	.LFE3-.LFB3
 14177 0060 00000000 		.4byte	.LFB4
 14178 0064 6C000000 		.4byte	.LFE4-.LFB4
 14179 0068 00000000 		.4byte	.LFB11
 14180 006c 68000000 		.4byte	.LFE11-.LFB11
 14181 0070 00000000 		.4byte	.LFB12
 14182 0074 5C000000 		.4byte	.LFE12-.LFB12
 14183 0078 00000000 		.4byte	.LFB14
 14184 007c 64000000 		.4byte	.LFE14-.LFB14
 14185 0080 00000000 		.4byte	.LFB15
 14186 0084 9C000000 		.4byte	.LFE15-.LFB15
 14187 0088 00000000 		.4byte	.LFB13
 14188 008c 26000000 		.4byte	.LFE13-.LFB13
 14189 0090 00000000 		.4byte	.LFB16
 14190 0094 14000000 		.4byte	.LFE16-.LFB16
 14191 0098 00000000 		.4byte	.LFB17
 14192 009c 1C000000 		.4byte	.LFE17-.LFB17
 14193 00a0 00000000 		.4byte	.LFB18
 14194 00a4 14000000 		.4byte	.LFE18-.LFB18
 14195 00a8 00000000 		.4byte	.LFB19
 14196 00ac 1C000000 		.4byte	.LFE19-.LFB19
 14197 00b0 00000000 		.4byte	.LFB20
 14198 00b4 10000000 		.4byte	.LFE20-.LFB20
 14199 00b8 00000000 		.4byte	.LFB21
 14200 00bc 1C000000 		.4byte	.LFE21-.LFB21
 14201 00c0 00000000 		.4byte	.LFB22
 14202 00c4 CE000000 		.4byte	.LFE22-.LFB22
 14203 00c8 00000000 		.4byte	.LFB10
 14204 00cc E8040000 		.4byte	.LFE10-.LFB10
 14205 00d0 00000000 		.4byte	.LFB23
 14206 00d4 22000000 		.4byte	.LFE23-.LFB23
 14207 00d8 00000000 		.4byte	.LFB24
 14208 00dc 40000000 		.4byte	.LFE24-.LFB24
 14209 00e0 00000000 		.4byte	.LFB26
 14210 00e4 C8000000 		.4byte	.LFE26-.LFB26
 14211 00e8 00000000 		.4byte	.LFB27
 14212 00ec 64000000 		.4byte	.LFE27-.LFB27
 14213 00f0 00000000 		.4byte	.LFB28
 14214 00f4 4C000000 		.4byte	.LFE28-.LFB28
 14215 00f8 00000000 		.4byte	.LFB29
 14216 00fc 64000000 		.4byte	.LFE29-.LFB29
 14217 0100 00000000 		.4byte	.LFB30
 14218 0104 86020000 		.4byte	.LFE30-.LFB30
 14219 0108 00000000 		.4byte	0
 14220 010c 00000000 		.4byte	0
 14221              		.section	.debug_ranges,"",%progbits
 14222              	.Ldebug_ranges0:
ARM GAS  C:\Users\Phuong\AppData\Local\Temp\ccX7yw2d.s 			page 289


 14223 0000 0C000000 		.4byte	.LBB2
 14224 0004 22000000 		.4byte	.LBE2
 14225 0008 2A000000 		.4byte	.LBB3
 14226 000c 2C000000 		.4byte	.LBE3
 14227 0010 00000000 		.4byte	0
 14228 0014 00000000 		.4byte	0
 14229 0018 42000000 		.4byte	.LBB5
 14230 001c 6E000000 		.4byte	.LBE5
 14231 0020 7A000000 		.4byte	.LBB6
 14232 0024 7C000000 		.4byte	.LBE6
 14233 0028 00000000 		.4byte	0
 14234 002c 00000000 		.4byte	0
 14235 0030 08000000 		.4byte	.LBB9
 14236 0034 60000000 		.4byte	.LBE9
 14237 0038 66000000 		.4byte	.LBB12
 14238 003c 6A000000 		.4byte	.LBE12
 14239 0040 00000000 		.4byte	0
 14240 0044 00000000 		.4byte	0
 14241 0048 20000000 		.4byte	.LBB10
 14242 004c 4E000000 		.4byte	.LBE10
 14243 0050 54000000 		.4byte	.LBB11
 14244 0054 58000000 		.4byte	.LBE11
 14245 0058 00000000 		.4byte	0
 14246 005c 00000000 		.4byte	0
 14247 0060 1E000000 		.4byte	.LBB13
 14248 0064 4A000000 		.4byte	.LBE13
 14249 0068 4E000000 		.4byte	.LBB14
 14250 006c 50000000 		.4byte	.LBE14
 14251 0070 00000000 		.4byte	0
 14252 0074 00000000 		.4byte	0
 14253 0078 06000000 		.4byte	.LBB15
 14254 007c 44000000 		.4byte	.LBE15
 14255 0080 48000000 		.4byte	.LBB16
 14256 0084 4E000000 		.4byte	.LBE16
 14257 0088 00000000 		.4byte	0
 14258 008c 00000000 		.4byte	0
 14259 0090 1A000000 		.4byte	.LBB27
 14260 0094 2E000000 		.4byte	.LBE27
 14261 0098 32000000 		.4byte	.LBB30
 14262 009c C2000000 		.4byte	.LBE30
 14263 00a0 00000000 		.4byte	0
 14264 00a4 00000000 		.4byte	0
 14265 00a8 1A000000 		.4byte	.LBB28
 14266 00ac 1C000000 		.4byte	.LBE28
 14267 00b0 6E000000 		.4byte	.LBB29
 14268 00b4 C2000000 		.4byte	.LBE29
 14269 00b8 00000000 		.4byte	0
 14270 00bc 00000000 		.4byte	0
 14271 00c0 3A040000 		.4byte	.LBB45
 14272 00c4 5A040000 		.4byte	.LBE45
 14273 00c8 5C040000 		.4byte	.LBB47
 14274 00cc 64040000 		.4byte	.LBE47
 14275 00d0 00000000 		.4byte	0
 14276 00d4 00000000 		.4byte	0
 14277 00d8 0E000000 		.4byte	.LBB50
 14278 00dc 90000000 		.4byte	.LBE50
 14279 00e0 98000000 		.4byte	.LBB53
ARM GAS  C:\Users\Phuong\AppData\Local\Temp\ccX7yw2d.s 			page 290


 14280 00e4 AE000000 		.4byte	.LBE53
 14281 00e8 00000000 		.4byte	0
 14282 00ec 00000000 		.4byte	0
 14283 00f0 6C000000 		.4byte	.LBB51
 14284 00f4 90000000 		.4byte	.LBE51
 14285 00f8 AC000000 		.4byte	.LBB52
 14286 00fc AE000000 		.4byte	.LBE52
 14287 0100 00000000 		.4byte	0
 14288 0104 00000000 		.4byte	0
 14289 0108 0E000000 		.4byte	.LBB54
 14290 010c 42000000 		.4byte	.LBE54
 14291 0110 4A000000 		.4byte	.LBB57
 14292 0114 50000000 		.4byte	.LBE57
 14293 0118 00000000 		.4byte	0
 14294 011c 00000000 		.4byte	0
 14295 0120 1A000000 		.4byte	.LBB55
 14296 0124 42000000 		.4byte	.LBE55
 14297 0128 4E000000 		.4byte	.LBB56
 14298 012c 50000000 		.4byte	.LBE56
 14299 0130 00000000 		.4byte	0
 14300 0134 00000000 		.4byte	0
 14301 0138 0A000000 		.4byte	.LBB58
 14302 013c 32000000 		.4byte	.LBE58
 14303 0140 3A000000 		.4byte	.LBB59
 14304 0144 3C000000 		.4byte	.LBE59
 14305 0148 00000000 		.4byte	0
 14306 014c 00000000 		.4byte	0
 14307 0150 0E000000 		.4byte	.LBB60
 14308 0154 42000000 		.4byte	.LBE60
 14309 0158 4A000000 		.4byte	.LBB63
 14310 015c 50000000 		.4byte	.LBE63
 14311 0160 00000000 		.4byte	0
 14312 0164 00000000 		.4byte	0
 14313 0168 1A000000 		.4byte	.LBB61
 14314 016c 42000000 		.4byte	.LBE61
 14315 0170 4E000000 		.4byte	.LBB62
 14316 0174 50000000 		.4byte	.LBE62
 14317 0178 00000000 		.4byte	0
 14318 017c 00000000 		.4byte	0
 14319 0180 20000000 		.4byte	.LBB64
 14320 0184 54020000 		.4byte	.LBE64
 14321 0188 5C020000 		.4byte	.LBB74
 14322 018c 76020000 		.4byte	.LBE74
 14323 0190 00000000 		.4byte	0
 14324 0194 00000000 		.4byte	0
 14325 0198 30000000 		.4byte	.LBB65
 14326 019c 54020000 		.4byte	.LBE65
 14327 01a0 60020000 		.4byte	.LBB73
 14328 01a4 76020000 		.4byte	.LBE73
 14329 01a8 00000000 		.4byte	0
 14330 01ac 00000000 		.4byte	0
 14331 01b0 84000000 		.4byte	.LBB66
 14332 01b4 54020000 		.4byte	.LBE66
 14333 01b8 74020000 		.4byte	.LBB72
 14334 01bc 76020000 		.4byte	.LBE72
 14335 01c0 00000000 		.4byte	0
 14336 01c4 00000000 		.4byte	0
ARM GAS  C:\Users\Phuong\AppData\Local\Temp\ccX7yw2d.s 			page 291


 14337 01c8 04010000 		.4byte	.LBB68
 14338 01cc 06020000 		.4byte	.LBE68
 14339 01d0 10020000 		.4byte	.LBB70
 14340 01d4 3E020000 		.4byte	.LBE70
 14341 01d8 4A020000 		.4byte	.LBB71
 14342 01dc 4C020000 		.4byte	.LBE71
 14343 01e0 00000000 		.4byte	0
 14344 01e4 00000000 		.4byte	0
 14345 01e8 00000000 		.4byte	.LFB2
 14346 01ec 36000000 		.4byte	.LFE2
 14347 01f0 00000000 		.4byte	.LFB8
 14348 01f4 2A000000 		.4byte	.LFE8
 14349 01f8 00000000 		.4byte	.LFB1
 14350 01fc 16000000 		.4byte	.LFE1
 14351 0200 00000000 		.4byte	.LFB25
 14352 0204 38000000 		.4byte	.LFE25
 14353 0208 00000000 		.4byte	.LFB5
 14354 020c 8C000000 		.4byte	.LFE5
 14355 0210 00000000 		.4byte	.LFB9
 14356 0214 44000000 		.4byte	.LFE9
 14357 0218 00000000 		.4byte	.LFB7
 14358 021c 34000000 		.4byte	.LFE7
 14359 0220 00000000 		.4byte	.LFB0
 14360 0224 6C000000 		.4byte	.LFE0
 14361 0228 00000000 		.4byte	.LFB6
 14362 022c 70000000 		.4byte	.LFE6
 14363 0230 00000000 		.4byte	.LFB3
 14364 0234 60000000 		.4byte	.LFE3
 14365 0238 00000000 		.4byte	.LFB4
 14366 023c 6C000000 		.4byte	.LFE4
 14367 0240 00000000 		.4byte	.LFB11
 14368 0244 68000000 		.4byte	.LFE11
 14369 0248 00000000 		.4byte	.LFB12
 14370 024c 5C000000 		.4byte	.LFE12
 14371 0250 00000000 		.4byte	.LFB14
 14372 0254 64000000 		.4byte	.LFE14
 14373 0258 00000000 		.4byte	.LFB15
 14374 025c 9C000000 		.4byte	.LFE15
 14375 0260 00000000 		.4byte	.LFB13
 14376 0264 26000000 		.4byte	.LFE13
 14377 0268 00000000 		.4byte	.LFB16
 14378 026c 14000000 		.4byte	.LFE16
 14379 0270 00000000 		.4byte	.LFB17
 14380 0274 1C000000 		.4byte	.LFE17
 14381 0278 00000000 		.4byte	.LFB18
 14382 027c 14000000 		.4byte	.LFE18
 14383 0280 00000000 		.4byte	.LFB19
 14384 0284 1C000000 		.4byte	.LFE19
 14385 0288 00000000 		.4byte	.LFB20
 14386 028c 10000000 		.4byte	.LFE20
 14387 0290 00000000 		.4byte	.LFB21
 14388 0294 1C000000 		.4byte	.LFE21
 14389 0298 00000000 		.4byte	.LFB22
 14390 029c CE000000 		.4byte	.LFE22
 14391 02a0 00000000 		.4byte	.LFB10
 14392 02a4 E8040000 		.4byte	.LFE10
 14393 02a8 00000000 		.4byte	.LFB23
ARM GAS  C:\Users\Phuong\AppData\Local\Temp\ccX7yw2d.s 			page 292


 14394 02ac 22000000 		.4byte	.LFE23
 14395 02b0 00000000 		.4byte	.LFB24
 14396 02b4 40000000 		.4byte	.LFE24
 14397 02b8 00000000 		.4byte	.LFB26
 14398 02bc C8000000 		.4byte	.LFE26
 14399 02c0 00000000 		.4byte	.LFB27
 14400 02c4 64000000 		.4byte	.LFE27
 14401 02c8 00000000 		.4byte	.LFB28
 14402 02cc 4C000000 		.4byte	.LFE28
 14403 02d0 00000000 		.4byte	.LFB29
 14404 02d4 64000000 		.4byte	.LFE29
 14405 02d8 00000000 		.4byte	.LFB30
 14406 02dc 86020000 		.4byte	.LFE30
 14407 02e0 00000000 		.4byte	0
 14408 02e4 00000000 		.4byte	0
 14409              		.section	.debug_line,"",%progbits
 14410              	.Ldebug_line0:
 14411 0000 900A0000 		.section	.debug_str,"MS",%progbits,1
 14411      02007D04 
 14411      00000201 
 14411      FB0E0D00 
 14411      01010101 
 14412              	.LASF240:
 14413 0000 656E645F 		.ascii	"end_destroy\000"
 14413      64657374 
 14413      726F7900 
 14414              	.LASF134:
 14415 000c 656E636F 		.ascii	"encode_frame\000"
 14415      64655F66 
 14415      72616D65 
 14415      00
 14416              	.LASF238:
 14417 0019 656E645F 		.ascii	"end_create\000"
 14417      63726561 
 14417      746500
 14418              	.LASF253:
 14419 0024 62656769 		.ascii	"begin_get_next_outgoing_id\000"
 14419      6E5F6765 
 14419      745F6E65 
 14419      78745F6F 
 14419      7574676F 
 14420              	.LASF176:
 14421 003f 7061796C 		.ascii	"payload_size\000"
 14421      6F61645F 
 14421      73697A65 
 14421      00
 14422              	.LASF82:
 14423 004c 6E657874 		.ascii	"next_incoming_id\000"
 14423      5F696E63 
 14423      6F6D696E 
 14423      675F6964 
 14423      00
 14424              	.LASF80:
 14425 005d 6F6E5F6C 		.ascii	"on_link_attached_callback_context\000"
 14425      696E6B5F 
 14425      61747461 
 14425      63686564 
ARM GAS  C:\Users\Phuong\AppData\Local\Temp\ccX7yw2d.s 			page 293


 14425      5F63616C 
 14426              	.LASF284:
 14427 007f 666C6F77 		.ascii	"flow_set_outgoing_window\000"
 14427      5F736574 
 14427      5F6F7574 
 14427      676F696E 
 14427      675F7769 
 14428              	.LASF290:
 14429 0098 64657461 		.ascii	"detach_set_handle\000"
 14429      63685F73 
 14429      65745F68 
 14429      616E646C 
 14429      6500
 14430              	.LASF128:
 14431 00aa 73657373 		.ascii	"session_instance\000"
 14431      696F6E5F 
 14431      696E7374 
 14431      616E6365 
 14431      00
 14432              	.LASF88:
 14433 00bb 72656D6F 		.ascii	"remote_outgoing_window\000"
 14433      74655F6F 
 14433      7574676F 
 14433      696E675F 
 14433      77696E64 
 14434              	.LASF121:
 14435 00d2 4C494E4B 		.ascii	"LINK_ENDPOINT_STATE_TAG\000"
 14435      5F454E44 
 14435      504F494E 
 14435      545F5354 
 14435      4154455F 
 14436              	.LASF210:
 14437 00ea 656E636F 		.ascii	"encoded_size\000"
 14437      6465645F 
 14437      73697A65 
 14437      00
 14438              	.LASF68:
 14439 00f7 53455353 		.ascii	"SESSION_HANDLE\000"
 14439      494F4E5F 
 14439      48414E44 
 14439      4C4500
 14440              	.LASF97:
 14441 0106 73657373 		.ascii	"session\000"
 14441      696F6E00 
 14442              	.LASF46:
 14443 010e 434F4E4E 		.ascii	"CONNECTION_STATE_CLOSE_RCVD\000"
 14443      45435449 
 14443      4F4E5F53 
 14443      54415445 
 14443      5F434C4F 
 14444              	.LASF179:
 14445 012a 62656769 		.ascii	"begin_handle\000"
 14445      6E5F6861 
 14445      6E646C65 
 14445      00
 14446              	.LASF27:
 14447 0137 4552524F 		.ascii	"ERROR_HANDLE\000"
ARM GAS  C:\Users\Phuong\AppData\Local\Temp\ccX7yw2d.s 			page 294


 14447      525F4841 
 14447      4E444C45 
 14447      00
 14448              	.LASF107:
 14449 0144 53455353 		.ascii	"SESSION_STATE_ERROR\000"
 14449      494F4E5F 
 14449      53544154 
 14449      455F4552 
 14449      524F5200 
 14450              	.LASF71:
 14451 0158 6672616D 		.ascii	"frame_received_callback\000"
 14451      655F7265 
 14451      63656976 
 14451      65645F63 
 14451      616C6C62 
 14452              	.LASF206:
 14453 0170 7472616E 		.ascii	"transfer\000"
 14453      73666572 
 14453      00
 14454              	.LASF225:
 14455 0179 62656769 		.ascii	"begin_set_handle_max\000"
 14455      6E5F7365 
 14455      745F6861 
 14455      6E646C65 
 14455      5F6D6178 
 14456              	.LASF220:
 14457 018e 6D6F7265 		.ascii	"more\000"
 14457      00
 14458              	.LASF45:
 14459 0193 434F4E4E 		.ascii	"CONNECTION_STATE_OPENED\000"
 14459      45435449 
 14459      4F4E5F53 
 14459      54415445 
 14459      5F4F5045 
 14460              	.LASF0:
 14461 01ab 756E7369 		.ascii	"unsigned int\000"
 14461      676E6564 
 14461      20696E74 
 14461      00
 14462              	.LASF254:
 14463 01b8 61747461 		.ascii	"attach_get_handle\000"
 14463      63685F67 
 14463      65745F68 
 14463      616E646C 
 14463      6500
 14464              	.LASF196:
 14465 01ca 73657373 		.ascii	"session_send_attach\000"
 14465      696F6E5F 
 14465      73656E64 
 14465      5F617474 
 14465      61636800 
 14466              	.LASF49:
 14467 01de 434F4E4E 		.ascii	"CONNECTION_STATE_END\000"
 14467      45435449 
 14467      4F4E5F53 
 14467      54415445 
 14467      5F454E44 
ARM GAS  C:\Users\Phuong\AppData\Local\Temp\ccX7yw2d.s 			page 295


 14468              	.LASF115:
 14469 01f3 4F4E5F53 		.ascii	"ON_SESSION_FLOW_ON\000"
 14469      45535349 
 14469      4F4E5F46 
 14469      4C4F575F 
 14469      4F4E00
 14470              	.LASF122:
 14471 0206 4C494E4B 		.ascii	"LINK_ENDPOINT_STATE_NOT_ATTACHED\000"
 14471      5F454E44 
 14471      504F494E 
 14471      545F5354 
 14471      4154455F 
 14472              	.LASF99:
 14473 0227 53455353 		.ascii	"SESSION_STATE_TAG\000"
 14473      494F4E5F 
 14473      53544154 
 14473      455F5441 
 14473      4700
 14474              	.LASF157:
 14475 0239 656E645F 		.ascii	"end_performative_value\000"
 14475      70657266 
 14475      6F726D61 
 14475      74697665 
 14475      5F76616C 
 14476              	.LASF177:
 14477 0250 7061796C 		.ascii	"payload_bytes\000"
 14477      6F61645F 
 14477      62797465 
 14477      7300
 14478              	.LASF125:
 14479 025e 4C494E4B 		.ascii	"LINK_ENDPOINT_STATE\000"
 14479      5F454E44 
 14479      504F494E 
 14479      545F5354 
 14479      41544500 
 14480              	.LASF146:
 14481 0272 70726576 		.ascii	"previous_connection_state\000"
 14481      696F7573 
 14481      5F636F6E 
 14481      6E656374 
 14481      696F6E5F 
 14482              	.LASF264:
 14483 028c 666C6F77 		.ascii	"flow_get_handle\000"
 14483      5F676574 
 14483      5F68616E 
 14483      646C6500 
 14484              	.LASF214:
 14485 029c 63757272 		.ascii	"current_transfer_frame_payload_size\000"
 14485      656E745F 
 14485      7472616E 
 14485      73666572 
 14485      5F667261 
 14486              	.LASF217:
 14487 02c0 74656D70 		.ascii	"temp_current_payload_pos\000"
 14487      5F637572 
 14487      72656E74 
 14487      5F706179 
ARM GAS  C:\Users\Phuong\AppData\Local\Temp\ccX7yw2d.s 			page 296


 14487      6C6F6164 
 14488              	.LASF153:
 14489 02d9 666C6F77 		.ascii	"flow_performative_value\000"
 14489      5F706572 
 14489      666F726D 
 14489      61746976 
 14489      655F7661 
 14490              	.LASF236:
 14491 02f1 666C6F77 		.ascii	"flow_destroy\000"
 14491      5F646573 
 14491      74726F79 
 14491      00
 14492              	.LASF109:
 14493 02fe 53455353 		.ascii	"SESSION_SEND_TRANSFER_RESULT_TAG\000"
 14493      494F4E5F 
 14493      53454E44 
 14493      5F545241 
 14493      4E534645 
 14494              	.LASF23:
 14495 031f 494F5F53 		.ascii	"IO_SEND_ERROR\000"
 14495      454E445F 
 14495      4552524F 
 14495      5200
 14496              	.LASF258:
 14497 032d 61747461 		.ascii	"attach_get_role\000"
 14497      63685F67 
 14497      65745F72 
 14497      6F6C6500 
 14498              	.LASF29:
 14499 033d 4552524F 		.ascii	"ERROR_INSTANCE_TAG\000"
 14499      525F494E 
 14499      5354414E 
 14499      43455F54 
 14499      414700
 14500              	.LASF275:
 14501 0350 69735F62 		.ascii	"is_begin_type_by_descriptor\000"
 14501      6567696E 
 14501      5F747970 
 14501      655F6279 
 14501      5F646573 
 14502              	.LASF268:
 14503 036c 616D7170 		.ascii	"amqpvalue_get_flow\000"
 14503      76616C75 
 14503      655F6765 
 14503      745F666C 
 14503      6F7700
 14504              	.LASF263:
 14505 037f 616D7170 		.ascii	"amqpvalue_get_detach\000"
 14505      76616C75 
 14505      655F6765 
 14505      745F6465 
 14505      74616368 
 14506              	.LASF288:
 14507 0394 616D7170 		.ascii	"amqpvalue_create_disposition\000"
 14507      76616C75 
 14507      655F6372 
 14507      65617465 
ARM GAS  C:\Users\Phuong\AppData\Local\Temp\ccX7yw2d.s 			page 297


 14507      5F646973 
 14508              	.LASF131:
 14509 03b1 66726565 		.ascii	"free_link_endpoint\000"
 14509      5F6C696E 
 14509      6B5F656E 
 14509      64706F69 
 14509      6E7400
 14510              	.LASF292:
 14511 03c4 616D7170 		.ascii	"amqpvalue_create_transfer\000"
 14511      76616C75 
 14511      655F6372 
 14511      65617465 
 14511      5F747261 
 14512              	.LASF218:
 14513 03de 6D756C74 		.ascii	"multi_transfer_amqp_value\000"
 14513      695F7472 
 14513      616E7366 
 14513      65725F61 
 14513      6D71705F 
 14514              	.LASF165:
 14515 03f8 73657373 		.ascii	"session_set_incoming_window\000"
 14515      696F6E5F 
 14515      7365745F 
 14515      696E636F 
 14515      6D696E67 
 14516              	.LASF229:
 14517 0414 62656769 		.ascii	"begin_create\000"
 14517      6E5F6372 
 14517      65617465 
 14517      00
 14518              	.LASF118:
 14519 0421 42454749 		.ascii	"BEGIN_INSTANCE_TAG\000"
 14519      4E5F494E 
 14519      5354414E 
 14519      43455F54 
 14519      414700
 14520              	.LASF192:
 14521 0434 73657373 		.ascii	"session_destroy\000"
 14521      696F6E5F 
 14521      64657374 
 14521      726F7900 
 14522              	.LASF239:
 14523 0444 656E645F 		.ascii	"end_set_error\000"
 14523      7365745F 
 14523      6572726F 
 14523      7200
 14524              	.LASF148:
 14525 0452 72656D6F 		.ascii	"remove_link_endpoint\000"
 14525      76655F6C 
 14525      696E6B5F 
 14525      656E6470 
 14525      6F696E74 
 14526              	.LASF187:
 14527 0467 666C6F77 		.ascii	"flow_next_incoming_id\000"
 14527      5F6E6578 
 14527      745F696E 
 14527      636F6D69 
ARM GAS  C:\Users\Phuong\AppData\Local\Temp\ccX7yw2d.s 			page 298


 14527      6E675F69 
 14528              	.LASF163:
 14529 047d 73657373 		.ascii	"session_begin\000"
 14529      696F6E5F 
 14529      62656769 
 14529      6E00
 14530              	.LASF251:
 14531 048b 616D7170 		.ascii	"amqpvalue_get_begin\000"
 14531      76616C75 
 14531      655F6765 
 14531      745F6265 
 14531      67696E00 
 14532              	.LASF301:
 14533 049f 6D656D63 		.ascii	"memcpy\000"
 14533      707900
 14534              	.LASF237:
 14535 04a6 616D7170 		.ascii	"amqpvalue_create_end\000"
 14535      76616C75 
 14535      655F6372 
 14535      65617465 
 14535      5F656E64 
 14536              	.LASF38:
 14537 04bb 434F4E4E 		.ascii	"CONNECTION_STATE_HDR_SENT\000"
 14537      45435449 
 14537      4F4E5F53 
 14537      54415445 
 14537      5F484452 
 14538              	.LASF35:
 14539 04d5 434F4E4E 		.ascii	"CONNECTION_STATE_TAG\000"
 14539      45435449 
 14539      4F4E5F53 
 14539      54415445 
 14539      5F544147 
 14540              	.LASF222:
 14541 04ea 636F6E6E 		.ascii	"connection_encode_frame\000"
 14541      65637469 
 14541      6F6E5F65 
 14541      6E636F64 
 14541      655F6672 
 14542              	.LASF81:
 14543 0502 6E657874 		.ascii	"next_outgoing_id\000"
 14543      5F6F7574 
 14543      676F696E 
 14543      675F6964 
 14543      00
 14544              	.LASF16:
 14545 0513 75696E74 		.ascii	"uint32_t\000"
 14545      33325F74 
 14545      00
 14546              	.LASF154:
 14547 051c 73656E64 		.ascii	"send_end_frame\000"
 14547      5F656E64 
 14547      5F667261 
 14547      6D6500
 14548              	.LASF86:
 14549 052b 68616E64 		.ascii	"handle_max\000"
 14549      6C655F6D 
ARM GAS  C:\Users\Phuong\AppData\Local\Temp\ccX7yw2d.s 			page 299


 14549      617800
 14550              	.LASF252:
 14551 0536 62656769 		.ascii	"begin_get_incoming_window\000"
 14551      6E5F6765 
 14551      745F696E 
 14551      636F6D69 
 14551      6E675F77 
 14552              	.LASF282:
 14553 0550 666C6F77 		.ascii	"flow_set_incoming_window\000"
 14553      5F736574 
 14553      5F696E63 
 14553      6F6D696E 
 14553      675F7769 
 14554              	.LASF164:
 14555 0569 73657373 		.ascii	"session_end\000"
 14555      696F6E5F 
 14555      656E6400 
 14556              	.LASF138:
 14557 0575 6C696E6B 		.ascii	"link_endpoint_instance\000"
 14557      5F656E64 
 14557      706F696E 
 14557      745F696E 
 14557      7374616E 
 14558              	.LASF297:
 14559 058c 474E5520 		.ascii	"GNU C11 5.4.1 20160609 (release) [ARM/embedded-5-br"
 14559      43313120 
 14559      352E342E 
 14559      31203230 
 14559      31363036 
 14560 05bf 616E6368 		.ascii	"anch revision 237715] -mcpu=cortex-m0plus -mthumb -"
 14560      20726576 
 14560      6973696F 
 14560      6E203233 
 14560      37373135 
 14561 05f2 67202D4F 		.ascii	"g -Og -ffunction-sections -ffat-lto-objects\000"
 14561      67202D66 
 14561      66756E63 
 14561      74696F6E 
 14561      2D736563 
 14562              	.LASF28:
 14563 061e 414D5150 		.ascii	"AMQP_VALUE_DATA_TAG\000"
 14563      5F56414C 
 14563      55455F44 
 14563      4154415F 
 14563      54414700 
 14564              	.LASF87:
 14565 0632 72656D6F 		.ascii	"remote_incoming_window\000"
 14565      74655F69 
 14565      6E636F6D 
 14565      696E675F 
 14565      77696E64 
 14566              	.LASF245:
 14567 0649 6D616C6C 		.ascii	"malloc\000"
 14567      6F6300
 14568              	.LASF274:
 14569 0650 616D7170 		.ascii	"amqpvalue_get_inplace_descriptor\000"
 14569      76616C75 
ARM GAS  C:\Users\Phuong\AppData\Local\Temp\ccX7yw2d.s 			page 300


 14569      655F6765 
 14569      745F696E 
 14569      706C6163 
 14570              	.LASF70:
 14571 0671 53455353 		.ascii	"SESSION_INSTANCE_TAG\000"
 14571      494F4E5F 
 14571      494E5354 
 14571      414E4345 
 14571      5F544147 
 14572              	.LASF110:
 14573 0686 53455353 		.ascii	"SESSION_SEND_TRANSFER_OK\000"
 14573      494F4E5F 
 14573      53454E44 
 14573      5F545241 
 14573      4E534645 
 14574              	.LASF129:
 14575 069f 72657375 		.ascii	"result\000"
 14575      6C7400
 14576              	.LASF73:
 14577 06a6 73657373 		.ascii	"session_state\000"
 14577      696F6E5F 
 14577      73746174 
 14577      6500
 14578              	.LASF98:
 14579 06b4 6C696E6B 		.ascii	"link_endpoint_state\000"
 14579      5F656E64 
 14579      706F696E 
 14579      745F7374 
 14579      61746500 
 14580              	.LASF12:
 14581 06c8 6C6F6E67 		.ascii	"long long unsigned int\000"
 14581      206C6F6E 
 14581      6720756E 
 14581      7369676E 
 14581      65642069 
 14582              	.LASF112:
 14583 06df 53455353 		.ascii	"SESSION_SEND_TRANSFER_BUSY\000"
 14583      494F4E5F 
 14583      53454E44 
 14583      5F545241 
 14583      4E534645 
 14584              	.LASF194:
 14585 06fa 73657373 		.ascii	"session_start_link_endpoint\000"
 14585      696F6E5F 
 14585      73746172 
 14585      745F6C69 
 14585      6E6B5F65 
 14586              	.LASF190:
 14587 0716 64656C69 		.ascii	"delivery_id\000"
 14587      76657279 
 14587      5F696400 
 14588              	.LASF7:
 14589 0722 5F5F7569 		.ascii	"__uint16_t\000"
 14589      6E743136 
 14589      5F7400
 14590              	.LASF213:
 14591 072d 7472616E 		.ascii	"transfer_frame_payload_count\000"
ARM GAS  C:\Users\Phuong\AppData\Local\Temp\ccX7yw2d.s 			page 301


 14591      73666572 
 14591      5F667261 
 14591      6D655F70 
 14591      61796C6F 
 14592              	.LASF295:
 14593 074a 7472616E 		.ascii	"transfer_set_handle\000"
 14593      73666572 
 14593      5F736574 
 14593      5F68616E 
 14593      646C6500 
 14594              	.LASF186:
 14595 075e 666C6F77 		.ascii	"flow_handle\000"
 14595      5F68616E 
 14595      646C6500 
 14596              	.LASF152:
 14597 076a 666C6F77 		.ascii	"flow\000"
 14597      00
 14598              	.LASF211:
 14599 076f 63757272 		.ascii	"current_payload_index\000"
 14599      656E745F 
 14599      7061796C 
 14599      6F61645F 
 14599      696E6465 
 14600              	.LASF299:
 14601 0785 433A5C55 		.ascii	"C:\\Users\\Phuong\\Documents\\PSoC Creator\\Dec0820"
 14601      73657273 
 14601      5C506875 
 14601      6F6E675C 
 14601      446F6375 
 14602 07b3 31385C69 		.ascii	"18\\iot-sdk-iot-dev\\PSOC6_FreeRTOS+LwIP+MbedTLS_Az"
 14602      6F742D73 
 14602      646B2D69 
 14602      6F742D64 
 14602      65765C50 
 14603 07e4 7572652D 		.ascii	"ure-IOT-Hub-Demo\\PSOC6_FreeRTOS+LwIP+MbedTLS_Azure"
 14603      494F542D 
 14603      4875622D 
 14603      44656D6F 
 14603      5C50534F 
 14604 0816 2D494F54 		.ascii	"-IOT-Hub-Demo.cydsn\000"
 14604      2D487562 
 14604      2D44656D 
 14604      6F2E6379 
 14604      64736E00 
 14605              	.LASF89:
 14606 082a 4C494E4B 		.ascii	"LINK_ENDPOINT_HANDLE\000"
 14606      5F454E44 
 14606      504F494E 
 14606      545F4841 
 14606      4E444C45 
 14607              	.LASF83:
 14608 083f 64657369 		.ascii	"desired_incoming_window\000"
 14608      7265645F 
 14608      696E636F 
 14608      6D696E67 
 14608      5F77696E 
 14609              	.LASF276:
ARM GAS  C:\Users\Phuong\AppData\Local\Temp\ccX7yw2d.s 			page 302


 14610 0857 69735F61 		.ascii	"is_attach_type_by_descriptor\000"
 14610      74746163 
 14610      685F7479 
 14610      70655F62 
 14610      795F6465 
 14611              	.LASF235:
 14612 0874 666C6F77 		.ascii	"flow_set_next_incoming_id\000"
 14612      5F736574 
 14612      5F6E6578 
 14612      745F696E 
 14612      636F6D69 
 14613              	.LASF234:
 14614 088e 666C6F77 		.ascii	"flow_create\000"
 14614      5F637265 
 14614      61746500 
 14615              	.LASF63:
 14616 089a 41545441 		.ascii	"ATTACH_INSTANCE_TAG\000"
 14616      43485F49 
 14616      4E535441 
 14616      4E43455F 
 14616      54414700 
 14617              	.LASF6:
 14618 08ae 73697A65 		.ascii	"size_t\000"
 14618      5F7400
 14619              	.LASF169:
 14620 08b5 73657373 		.ascii	"session_set_handle_max\000"
 14620      696F6E5F 
 14620      7365745F 
 14620      68616E64 
 14620      6C655F6D 
 14621              	.LASF37:
 14622 08cc 434F4E4E 		.ascii	"CONNECTION_STATE_HDR_RCVD\000"
 14622      45435449 
 14622      4F4E5F53 
 14622      54415445 
 14622      5F484452 
 14623              	.LASF156:
 14624 08e6 656E645F 		.ascii	"end_performative\000"
 14624      70657266 
 14624      6F726D61 
 14624      74697665 
 14624      00
 14625              	.LASF226:
 14626 08f7 636F6E6E 		.ascii	"connection_endpoint_get_incoming_channel\000"
 14626      65637469 
 14626      6F6E5F65 
 14626      6E64706F 
 14626      696E745F 
 14627              	.LASF123:
 14628 0920 4C494E4B 		.ascii	"LINK_ENDPOINT_STATE_ATTACHED\000"
 14628      5F454E44 
 14628      504F494E 
 14628      545F5354 
 14628      4154455F 
 14629              	.LASF21:
 14630 093d 5F426F6F 		.ascii	"_Bool\000"
 14630      6C00
ARM GAS  C:\Users\Phuong\AppData\Local\Temp\ccX7yw2d.s 			page 303


 14631              	.LASF171:
 14632 0943 73657373 		.ascii	"session_create_link_endpoint\000"
 14632      696F6E5F 
 14632      63726561 
 14632      74655F6C 
 14632      696E6B5F 
 14633              	.LASF94:
 14634 0960 6F6E5F73 		.ascii	"on_session_state_changed\000"
 14634      65737369 
 14634      6F6E5F73 
 14634      74617465 
 14634      5F636861 
 14635              	.LASF257:
 14636 0979 61747461 		.ascii	"attach_get_name\000"
 14636      63685F67 
 14636      65745F6E 
 14636      616D6500 
 14637              	.LASF172:
 14638 0989 73656C65 		.ascii	"selected_handle\000"
 14638      63746564 
 14638      5F68616E 
 14638      646C6500 
 14639              	.LASF18:
 14640 0999 62797465 		.ascii	"bytes\000"
 14640      7300
 14641              	.LASF221:
 14642 099f 66726565 		.ascii	"free\000"
 14642      00
 14643              	.LASF178:
 14644 09a4 64657363 		.ascii	"descriptor\000"
 14644      72697074 
 14644      6F7200
 14645              	.LASF95:
 14646 09af 6F6E5F73 		.ascii	"on_session_flow_on\000"
 14646      65737369 
 14646      6F6E5F66 
 14646      6C6F775F 
 14646      6F6E00
 14647              	.LASF208:
 14648 09c2 7472616E 		.ascii	"transfer_value\000"
 14648      73666572 
 14648      5F76616C 
 14648      756500
 14649              	.LASF247:
 14650 09d1 636F6E6E 		.ascii	"connection_start_endpoint\000"
 14650      65637469 
 14650      6F6E5F73 
 14650      74617274 
 14650      5F656E64 
 14651              	.LASF120:
 14652 09eb 454E445F 		.ascii	"END_INSTANCE_TAG\000"
 14652      494E5354 
 14652      414E4345 
 14652      5F544147 
 14652      00
 14653              	.LASF85:
 14654 09fc 6F757467 		.ascii	"outgoing_window\000"
ARM GAS  C:\Users\Phuong\AppData\Local\Temp\ccX7yw2d.s 			page 304


 14654      6F696E67 
 14654      5F77696E 
 14654      646F7700 
 14655              	.LASF244:
 14656 0a0c 6572726F 		.ascii	"error_destroy\000"
 14656      725F6465 
 14656      7374726F 
 14656      7900
 14657              	.LASF24:
 14658 0a1a 494F5F53 		.ascii	"IO_SEND_CANCELLED\000"
 14658      454E445F 
 14658      43414E43 
 14658      454C4C45 
 14658      4400
 14659              	.LASF133:
 14660 0a2c 66696E64 		.ascii	"find_link_endpoint_by_input_handle\000"
 14660      5F6C696E 
 14660      6B5F656E 
 14660      64706F69 
 14660      6E745F62 
 14661              	.LASF207:
 14662 0a4f 6F6E5F73 		.ascii	"on_send_complete\000"
 14662      656E645F 
 14662      636F6D70 
 14662      6C657465 
 14662      00
 14663              	.LASF197:
 14664 0a60 61747461 		.ascii	"attach\000"
 14664      636800
 14665              	.LASF124:
 14666 0a67 4C494E4B 		.ascii	"LINK_ENDPOINT_STATE_DETACHING\000"
 14666      5F454E44 
 14666      504F494E 
 14666      545F5354 
 14666      4154455F 
 14667              	.LASF291:
 14668 0a85 7472616E 		.ascii	"transfer_set_more\000"
 14668      73666572 
 14668      5F736574 
 14668      5F6D6F72 
 14668      6500
 14669              	.LASF111:
 14670 0a97 53455353 		.ascii	"SESSION_SEND_TRANSFER_ERROR\000"
 14670      494F4E5F 
 14670      53454E44 
 14670      5F545241 
 14670      4E534645 
 14671              	.LASF216:
 14672 0ab3 74656D70 		.ascii	"temp_current_payload_index\000"
 14672      5F637572 
 14672      72656E74 
 14672      5F706179 
 14672      6C6F6164 
 14673              	.LASF212:
 14674 0ace 63757272 		.ascii	"current_payload_pos\000"
 14674      656E745F 
 14674      7061796C 
ARM GAS  C:\Users\Phuong\AppData\Local\Temp\ccX7yw2d.s 			page 305


 14674      6F61645F 
 14674      706F7300 
 14675              	.LASF14:
 14676 0ae2 63686172 		.ascii	"char\000"
 14676      00
 14677              	.LASF281:
 14678 0ae7 69735F65 		.ascii	"is_end_type_by_descriptor\000"
 14678      6E645F74 
 14678      7970655F 
 14678      62795F64 
 14678      65736372 
 14679              	.LASF67:
 14680 0b01 5452414E 		.ascii	"TRANSFER_INSTANCE_TAG\000"
 14680      53464552 
 14680      5F494E53 
 14680      54414E43 
 14680      455F5441 
 14681              	.LASF100:
 14682 0b17 53455353 		.ascii	"SESSION_STATE_UNMAPPED\000"
 14682      494F4E5F 
 14682      53544154 
 14682      455F554E 
 14682      4D415050 
 14683              	.LASF215:
 14684 0b2e 62797465 		.ascii	"byte_counter\000"
 14684      5F636F75 
 14684      6E746572 
 14684      00
 14685              	.LASF223:
 14686 0b3b 616D7170 		.ascii	"amqpvalue_create_begin\000"
 14686      76616C75 
 14686      655F6372 
 14686      65617465 
 14686      5F626567 
 14687              	.LASF51:
 14688 0b52 434F4E4E 		.ascii	"CONNECTION_STATE\000"
 14688      45435449 
 14688      4F4E5F53 
 14688      54415445 
 14688      00
 14689              	.LASF55:
 14690 0b63 73657175 		.ascii	"sequence_no\000"
 14690      656E6365 
 14690      5F6E6F00 
 14691              	.LASF243:
 14692 0b6f 6572726F 		.ascii	"error_set_description\000"
 14692      725F7365 
 14692      745F6465 
 14692      73637269 
 14692      7074696F 
 14693              	.LASF141:
 14694 0b85 72656D6F 		.ascii	"remote_channel\000"
 14694      74655F63 
 14694      68616E6E 
 14694      656C00
 14695              	.LASF294:
 14696 0b94 616D7170 		.ascii	"amqpvalue_get_encoded_size\000"
ARM GAS  C:\Users\Phuong\AppData\Local\Temp\ccX7yw2d.s 			page 306


 14696      76616C75 
 14696      655F6765 
 14696      745F656E 
 14696      636F6465 
 14697              	.LASF271:
 14698 0baf 7472616E 		.ascii	"transfer_get_handle\000"
 14698      73666572 
 14698      5F676574 
 14698      5F68616E 
 14698      646C6500 
 14699              	.LASF53:
 14700 0bc3 726F6C65 		.ascii	"role\000"
 14700      00
 14701              	.LASF205:
 14702 0bc8 73657373 		.ascii	"session_send_transfer\000"
 14702      696F6E5F 
 14702      73656E64 
 14702      5F747261 
 14702      6E736665 
 14703              	.LASF198:
 14704 0bde 61747461 		.ascii	"attach_performative_value\000"
 14704      63685F70 
 14704      6572666F 
 14704      726D6174 
 14704      6976655F 
 14705              	.LASF209:
 14706 0bf8 61766169 		.ascii	"available_frame_size\000"
 14706      6C61626C 
 14706      655F6672 
 14706      616D655F 
 14706      73697A65 
 14707              	.LASF79:
 14708 0c0d 6F6E5F6C 		.ascii	"on_link_attached\000"
 14708      696E6B5F 
 14708      61747461 
 14708      63686564 
 14708      00
 14709              	.LASF117:
 14710 0c1e 42454749 		.ascii	"BEGIN_HANDLE\000"
 14710      4E5F4841 
 14710      4E444C45 
 14710      00
 14711              	.LASF78:
 14712 0c2b 6C696E6B 		.ascii	"link_endpoint_count\000"
 14712      5F656E64 
 14712      706F696E 
 14712      745F636F 
 14712      756E7400 
 14713              	.LASF75:
 14714 0c3f 636F6E6E 		.ascii	"connection\000"
 14714      65637469 
 14714      6F6E00
 14715              	.LASF1:
 14716 0c4a 6C6F6E67 		.ascii	"long long int\000"
 14716      206C6F6E 
 14716      6720696E 
 14716      7400
ARM GAS  C:\Users\Phuong\AppData\Local\Temp\ccX7yw2d.s 			page 307


 14717              	.LASF273:
 14718 0c58 616D7170 		.ascii	"amqpvalue_get_end\000"
 14718      76616C75 
 14718      655F6765 
 14718      745F656E 
 14718      6400
 14719              	.LASF160:
 14720 0c6a 64657363 		.ascii	"description\000"
 14720      72697074 
 14720      696F6E00 
 14721              	.LASF296:
 14722 0c76 7472616E 		.ascii	"transfer_set_delivery_id\000"
 14722      73666572 
 14722      5F736574 
 14722      5F64656C 
 14722      69766572 
 14723              	.LASF147:
 14724 0c8f 66696E64 		.ascii	"find_link_endpoint_by_name\000"
 14724      5F6C696E 
 14724      6B5F656E 
 14724      64706F69 
 14724      6E745F62 
 14725              	.LASF191:
 14726 0caa 656E645F 		.ascii	"end_handle\000"
 14726      68616E64 
 14726      6C6500
 14727              	.LASF144:
 14728 0cb5 636F6E74 		.ascii	"context\000"
 14728      65787400 
 14729              	.LASF40:
 14730 0cbd 434F4E4E 		.ascii	"CONNECTION_STATE_OPEN_PIPE\000"
 14730      45435449 
 14730      4F4E5F53 
 14730      54415445 
 14730      5F4F5045 
 14731              	.LASF90:
 14732 0cd8 4C494E4B 		.ascii	"LINK_ENDPOINT_INSTANCE_TAG\000"
 14732      5F454E44 
 14732      504F494E 
 14732      545F494E 
 14732      5354414E 
 14733              	.LASF233:
 14734 0cf3 616D7170 		.ascii	"amqpvalue_create_flow\000"
 14734      76616C75 
 14734      655F6372 
 14734      65617465 
 14734      5F666C6F 
 14735              	.LASF277:
 14736 0d09 69735F64 		.ascii	"is_detach_type_by_descriptor\000"
 14736      65746163 
 14736      685F7479 
 14736      70655F62 
 14736      795F6465 
 14737              	.LASF30:
 14738 0d26 434F4E4E 		.ascii	"CONNECTION_HANDLE\000"
 14738      45435449 
 14738      4F4E5F48 
ARM GAS  C:\Users\Phuong\AppData\Local\Temp\ccX7yw2d.s 			page 308


 14738      414E444C 
 14738      4500
 14739              	.LASF181:
 14740 0d38 736F7572 		.ascii	"source\000"
 14740      636500
 14741              	.LASF108:
 14742 0d3f 53455353 		.ascii	"SESSION_STATE\000"
 14742      494F4E5F 
 14742      53544154 
 14742      4500
 14743              	.LASF151:
 14744 0d4d 73656E64 		.ascii	"send_flow\000"
 14744      5F666C6F 
 14744      7700
 14745              	.LASF246:
 14746 0d57 636F6E6E 		.ascii	"connection_create_endpoint\000"
 14746      65637469 
 14746      6F6E5F63 
 14746      72656174 
 14746      655F656E 
 14747              	.LASF261:
 14748 0d72 64657461 		.ascii	"detach_destroy\000"
 14748      63685F64 
 14748      65737472 
 14748      6F7900
 14749              	.LASF62:
 14750 0d81 41545441 		.ascii	"ATTACH_HANDLE\000"
 14750      43485F48 
 14750      414E444C 
 14750      4500
 14751              	.LASF175:
 14752 0d8f 6F6E5F66 		.ascii	"on_frame_received\000"
 14752      72616D65 
 14752      5F726563 
 14752      65697665 
 14752      6400
 14753              	.LASF43:
 14754 0da1 434F4E4E 		.ascii	"CONNECTION_STATE_OPEN_SENT\000"
 14754      45435449 
 14754      4F4E5F53 
 14754      54415445 
 14754      5F4F5045 
 14755              	.LASF199:
 14756 0dbc 73657373 		.ascii	"session_send_disposition\000"
 14756      696F6E5F 
 14756      73656E64 
 14756      5F646973 
 14756      706F7369 
 14757              	.LASF26:
 14758 0dd5 4F4E5F53 		.ascii	"ON_SEND_COMPLETE\000"
 14758      454E445F 
 14758      434F4D50 
 14758      4C455445 
 14758      00
 14759              	.LASF64:
 14760 0de6 44455441 		.ascii	"DETACH_HANDLE\000"
 14760      43485F48 
ARM GAS  C:\Users\Phuong\AppData\Local\Temp\ccX7yw2d.s 			page 309


 14760      414E444C 
 14760      4500
 14761              	.LASF149:
 14762 0df4 656E6470 		.ascii	"endpoint_instance\000"
 14762      6F696E74 
 14762      5F696E73 
 14762      74616E63 
 14762      6500
 14763              	.LASF170:
 14764 0e06 73657373 		.ascii	"session_get_handle_max\000"
 14764      696F6E5F 
 14764      6765745F 
 14764      68616E64 
 14764      6C655F6D 
 14765              	.LASF180:
 14766 0e1d 61747461 		.ascii	"attach_handle\000"
 14766      63685F68 
 14766      616E646C 
 14766      6500
 14767              	.LASF145:
 14768 0e2b 6E65775F 		.ascii	"new_connection_state\000"
 14768      636F6E6E 
 14768      65637469 
 14768      6F6E5F73 
 14768      74617465 
 14769              	.LASF285:
 14770 0e40 666C6F77 		.ascii	"flow_set_handle\000"
 14770      5F736574 
 14770      5F68616E 
 14770      646C6500 
 14771              	.LASF201:
 14772 0e50 64697370 		.ascii	"disposition_performative_value\000"
 14772      6F736974 
 14772      696F6E5F 
 14772      70657266 
 14772      6F726D61 
 14773              	.LASF219:
 14774 0e6f 7472616E 		.ascii	"transfer_frame_payloads\000"
 14774      73666572 
 14774      5F667261 
 14774      6D655F70 
 14774      61796C6F 
 14775              	.LASF32:
 14776 0e87 454E4450 		.ascii	"ENDPOINT_HANDLE\000"
 14776      4F494E54 
 14776      5F48414E 
 14776      444C4500 
 14777              	.LASF155:
 14778 0e97 6572726F 		.ascii	"error_handle\000"
 14778      725F6861 
 14778      6E646C65 
 14778      00
 14779              	.LASF92:
 14780 0ea4 696E7075 		.ascii	"input_handle\000"
 14780      745F6861 
 14780      6E646C65 
 14780      00
ARM GAS  C:\Users\Phuong\AppData\Local\Temp\ccX7yw2d.s 			page 310


 14781              	.LASF286:
 14782 0eb1 616D7170 		.ascii	"amqpvalue_create_attach\000"
 14782      76616C75 
 14782      655F6372 
 14782      65617465 
 14782      5F617474 
 14783              	.LASF250:
 14784 0ec9 7374726C 		.ascii	"strlen\000"
 14784      656E00
 14785              	.LASF279:
 14786 0ed0 69735F74 		.ascii	"is_transfer_type_by_descriptor\000"
 14786      72616E73 
 14786      6665725F 
 14786      74797065 
 14786      5F62795F 
 14787              	.LASF224:
 14788 0eef 616D7170 		.ascii	"amqpvalue_destroy\000"
 14788      76616C75 
 14788      655F6465 
 14788      7374726F 
 14788      7900
 14789              	.LASF33:
 14790 0f01 454E4450 		.ascii	"ENDPOINT_INSTANCE_TAG\000"
 14790      4F494E54 
 14790      5F494E53 
 14790      54414E43 
 14790      455F5441 
 14791              	.LASF2:
 14792 0f17 6C6F6E67 		.ascii	"long double\000"
 14792      20646F75 
 14792      626C6500 
 14793              	.LASF15:
 14794 0f23 75696E74 		.ascii	"uint16_t\000"
 14794      31365F74 
 14794      00
 14795              	.LASF159:
 14796 0f2c 636F6E64 		.ascii	"condition_value\000"
 14796      6974696F 
 14796      6E5F7661 
 14796      6C756500 
 14797              	.LASF116:
 14798 0f3c 4F4E5F4C 		.ascii	"ON_LINK_ATTACHED\000"
 14798      494E4B5F 
 14798      41545441 
 14798      43484544 
 14798      00
 14799              	.LASF278:
 14800 0f4d 69735F66 		.ascii	"is_flow_type_by_descriptor\000"
 14800      6C6F775F 
 14800      74797065 
 14800      5F62795F 
 14800      64657363 
 14801              	.LASF101:
 14802 0f68 53455353 		.ascii	"SESSION_STATE_BEGIN_SENT\000"
 14802      494F4E5F 
 14802      53544154 
 14802      455F4245 
ARM GAS  C:\Users\Phuong\AppData\Local\Temp\ccX7yw2d.s 			page 311


 14802      47494E5F 
 14803              	.LASF293:
 14804 0f81 636F6E6E 		.ascii	"connection_get_remote_max_frame_size\000"
 14804      65637469 
 14804      6F6E5F67 
 14804      65745F72 
 14804      656D6F74 
 14805              	.LASF96:
 14806 0fa6 63616C6C 		.ascii	"callback_context\000"
 14806      6261636B 
 14806      5F636F6E 
 14806      74657874 
 14806      00
 14807              	.LASF195:
 14808 0fb7 73657373 		.ascii	"session_send_flow\000"
 14808      696F6E5F 
 14808      73656E64 
 14808      5F666C6F 
 14808      7700
 14809              	.LASF289:
 14810 0fc9 616D7170 		.ascii	"amqpvalue_create_detach\000"
 14810      76616C75 
 14810      655F6372 
 14810      65617465 
 14810      5F646574 
 14811              	.LASF31:
 14812 0fe1 434F4E4E 		.ascii	"CONNECTION_INSTANCE_TAG\000"
 14812      45435449 
 14812      4F4E5F49 
 14812      4E535441 
 14812      4E43455F 
 14813              	.LASF74:
 14814 0ff9 70726576 		.ascii	"previous_session_state\000"
 14814      696F7573 
 14814      5F736573 
 14814      73696F6E 
 14814      5F737461 
 14815              	.LASF119:
 14816 1010 454E445F 		.ascii	"END_HANDLE\000"
 14816      48414E44 
 14816      4C4500
 14817              	.LASF17:
 14818 101b 414D5150 		.ascii	"AMQP_VALUE\000"
 14818      5F56414C 
 14818      554500
 14819              	.LASF193:
 14820 1026 73657373 		.ascii	"session_destroy_link_endpoint\000"
 14820      696F6E5F 
 14820      64657374 
 14820      726F795F 
 14820      6C696E6B 
 14821              	.LASF174:
 14822 1044 6E65775F 		.ascii	"new_link_endpoints\000"
 14822      6C696E6B 
 14822      5F656E64 
 14822      706F696E 
 14822      747300
ARM GAS  C:\Users\Phuong\AppData\Local\Temp\ccX7yw2d.s 			page 312


 14823              	.LASF126:
 14824 1057 4C494E4B 		.ascii	"LINK_ENDPOINT_INSTANCE\000"
 14824      5F454E44 
 14824      504F494E 
 14824      545F494E 
 14824      5354414E 
 14825              	.LASF5:
 14826 106e 73686F72 		.ascii	"short int\000"
 14826      7420696E 
 14826      7400
 14827              	.LASF84:
 14828 1078 696E636F 		.ascii	"incoming_window\000"
 14828      6D696E67 
 14828      5F77696E 
 14828      646F7700 
 14829              	.LASF34:
 14830 1088 494F5F53 		.ascii	"IO_SEND_RESULT_TAG\000"
 14830      454E445F 
 14830      52455355 
 14830      4C545F54 
 14830      414700
 14831              	.LASF9:
 14832 109b 6C6F6E67 		.ascii	"long int\000"
 14832      20696E74 
 14832      00
 14833              	.LASF42:
 14834 10a4 434F4E4E 		.ascii	"CONNECTION_STATE_OPEN_RCVD\000"
 14834      45435449 
 14834      4F4E5F53 
 14834      54415445 
 14834      5F4F5045 
 14835              	.LASF168:
 14836 10bf 73657373 		.ascii	"session_get_outgoing_window\000"
 14836      696F6E5F 
 14836      6765745F 
 14836      6F757467 
 14836      6F696E67 
 14837              	.LASF77:
 14838 10db 6C696E6B 		.ascii	"link_endpoints\000"
 14838      5F656E64 
 14838      706F696E 
 14838      747300
 14839              	.LASF19:
 14840 10ea 6C656E67 		.ascii	"length\000"
 14840      746800
 14841              	.LASF204:
 14842 10f1 64657461 		.ascii	"detach_performative_value\000"
 14842      63685F70 
 14842      6572666F 
 14842      726D6174 
 14842      6976655F 
 14843              	.LASF41:
 14844 110b 434F4E4E 		.ascii	"CONNECTION_STATE_OC_PIPE\000"
 14844      45435449 
 14844      4F4E5F53 
 14844      54415445 
 14844      5F4F435F 
ARM GAS  C:\Users\Phuong\AppData\Local\Temp\ccX7yw2d.s 			page 313


 14845              	.LASF104:
 14846 1124 53455353 		.ascii	"SESSION_STATE_END_SENT\000"
 14846      494F4E5F 
 14846      53544154 
 14846      455F454E 
 14846      445F5345 
 14847              	.LASF36:
 14848 113b 434F4E4E 		.ascii	"CONNECTION_STATE_START\000"
 14848      45435449 
 14848      4F4E5F53 
 14848      54415445 
 14848      5F535441 
 14849              	.LASF300:
 14850 1152 69735F75 		.ascii	"is_underlying_connection_open\000"
 14850      6E646572 
 14850      6C79696E 
 14850      675F636F 
 14850      6E6E6563 
 14851              	.LASF139:
 14852 1170 73656E64 		.ascii	"send_begin\000"
 14852      5F626567 
 14852      696E00
 14853              	.LASF227:
 14854 117b 62656769 		.ascii	"begin_set_remote_channel\000"
 14854      6E5F7365 
 14854      745F7265 
 14854      6D6F7465 
 14854      5F636861 
 14855              	.LASF69:
 14856 1194 5041594C 		.ascii	"PAYLOAD_TAG\000"
 14856      4F41445F 
 14856      54414700 
 14857              	.LASF72:
 14858 11a0 6672616D 		.ascii	"frame_received_callback_context\000"
 14858      655F7265 
 14858      63656976 
 14858      65645F63 
 14858      616C6C62 
 14859              	.LASF241:
 14860 11c0 6572726F 		.ascii	"error_create\000"
 14860      725F6372 
 14860      65617465 
 14860      00
 14861              	.LASF260:
 14862 11cd 616D7170 		.ascii	"amqpvalue_get_attach\000"
 14862      76616C75 
 14862      655F6765 
 14862      745F6174 
 14862      74616368 
 14863              	.LASF127:
 14864 11e2 53455353 		.ascii	"SESSION_INSTANCE\000"
 14864      494F4E5F 
 14864      494E5354 
 14864      414E4345 
 14864      00
 14865              	.LASF270:
 14866 11f3 7472616E 		.ascii	"transfer_get_delivery_id\000"
ARM GAS  C:\Users\Phuong\AppData\Local\Temp\ccX7yw2d.s 			page 314


 14866      73666572 
 14866      5F676574 
 14866      5F64656C 
 14866      69766572 
 14867              	.LASF48:
 14868 120c 434F4E4E 		.ascii	"CONNECTION_STATE_DISCARDING\000"
 14868      45435449 
 14868      4F4E5F53 
 14868      54415445 
 14868      5F444953 
 14869              	.LASF57:
 14870 1228 44495350 		.ascii	"DISPOSITION_HANDLE\000"
 14870      4F534954 
 14870      494F4E5F 
 14870      48414E44 
 14870      4C4500
 14871              	.LASF91:
 14872 123b 6E616D65 		.ascii	"name\000"
 14872      00
 14873              	.LASF150:
 14874 1240 6E65775F 		.ascii	"new_endpoints\000"
 14874      656E6470 
 14874      6F696E74 
 14874      7300
 14875              	.LASF202:
 14876 124e 73657373 		.ascii	"session_send_detach\000"
 14876      696F6E5F 
 14876      73656E64 
 14876      5F646574 
 14876      61636800 
 14877              	.LASF59:
 14878 1262 7472616E 		.ascii	"transfer_number\000"
 14878      73666572 
 14878      5F6E756D 
 14878      62657200 
 14879              	.LASF266:
 14880 1272 666C6F77 		.ascii	"flow_get_next_outgoing_id\000"
 14880      5F676574 
 14880      5F6E6578 
 14880      745F6F75 
 14880      74676F69 
 14881              	.LASF248:
 14882 128c 636F6E6E 		.ascii	"connection_open\000"
 14882      65637469 
 14882      6F6E5F6F 
 14882      70656E00 
 14883              	.LASF228:
 14884 129c 62656769 		.ascii	"begin_destroy\000"
 14884      6E5F6465 
 14884      7374726F 
 14884      7900
 14885              	.LASF158:
 14886 12aa 656E645F 		.ascii	"end_session_with_error\000"
 14886      73657373 
 14886      696F6E5F 
 14886      77697468 
 14886      5F657272 
ARM GAS  C:\Users\Phuong\AppData\Local\Temp\ccX7yw2d.s 			page 315


 14887              	.LASF52:
 14888 12c1 4F4E5F45 		.ascii	"ON_ENDPOINT_FRAME_RECEIVED\000"
 14888      4E44504F 
 14888      494E545F 
 14888      4652414D 
 14888      455F5245 
 14889              	.LASF102:
 14890 12dc 53455353 		.ascii	"SESSION_STATE_BEGIN_RCVD\000"
 14890      494F4E5F 
 14890      53544154 
 14890      455F4245 
 14890      47494E5F 
 14891              	.LASF231:
 14892 12f5 6D656D6D 		.ascii	"memmove\000"
 14892      6F766500 
 14893              	.LASF135:
 14894 12fd 70657266 		.ascii	"performative\000"
 14894      6F726D61 
 14894      74697665 
 14894      00
 14895              	.LASF272:
 14896 130a 616D7170 		.ascii	"amqpvalue_get_transfer\000"
 14896      76616C75 
 14896      655F6765 
 14896      745F7472 
 14896      616E7366 
 14897              	.LASF13:
 14898 1321 73697A65 		.ascii	"sizetype\000"
 14898      74797065 
 14898      00
 14899              	.LASF11:
 14900 132a 6C6F6E67 		.ascii	"long unsigned int\000"
 14900      20756E73 
 14900      69676E65 
 14900      6420696E 
 14900      7400
 14901              	.LASF113:
 14902 133c 53455353 		.ascii	"SESSION_SEND_TRANSFER_RESULT\000"
 14902      494F4E5F 
 14902      53454E44 
 14902      5F545241 
 14902      4E534645 
 14903              	.LASF189:
 14904 1359 7472616E 		.ascii	"transfer_handle\000"
 14904      73666572 
 14904      5F68616E 
 14904      646C6500 
 14905              	.LASF22:
 14906 1369 494F5F53 		.ascii	"IO_SEND_OK\000"
 14906      454E445F 
 14906      4F4B00
 14907              	.LASF132:
 14908 1374 6C696E6B 		.ascii	"link_endpoint\000"
 14908      5F656E64 
 14908      706F696E 
 14908      7400
 14909              	.LASF25:
ARM GAS  C:\Users\Phuong\AppData\Local\Temp\ccX7yw2d.s 			page 316


 14910 1382 494F5F53 		.ascii	"IO_SEND_RESULT\000"
 14910      454E445F 
 14910      52455355 
 14910      4C5400
 14911              	.LASF269:
 14912 1391 7472616E 		.ascii	"transfer_destroy\000"
 14912      73666572 
 14912      5F646573 
 14912      74726F79 
 14912      00
 14913              	.LASF114:
 14914 13a2 4F4E5F53 		.ascii	"ON_SESSION_STATE_CHANGED\000"
 14914      45535349 
 14914      4F4E5F53 
 14914      54415445 
 14914      5F434841 
 14915              	.LASF265:
 14916 13bb 666C6F77 		.ascii	"flow_get_next_incoming_id\000"
 14916      5F676574 
 14916      5F6E6578 
 14916      745F696E 
 14916      636F6D69 
 14917              	.LASF65:
 14918 13d5 44455441 		.ascii	"DETACH_INSTANCE_TAG\000"
 14918      43485F49 
 14918      4E535441 
 14918      4E43455F 
 14918      54414700 
 14919              	.LASF106:
 14920 13e9 53455353 		.ascii	"SESSION_STATE_DISCARDING\000"
 14920      494F4E5F 
 14920      53544154 
 14920      455F4449 
 14920      53434152 
 14921              	.LASF4:
 14922 1402 756E7369 		.ascii	"unsigned char\000"
 14922      676E6564 
 14922      20636861 
 14922      7200
 14923              	.LASF10:
 14924 1410 5F5F7569 		.ascii	"__uint32_t\000"
 14924      6E743332 
 14924      5F7400
 14925              	.LASF103:
 14926 141b 53455353 		.ascii	"SESSION_STATE_MAPPED\000"
 14926      494F4E5F 
 14926      53544154 
 14926      455F4D41 
 14926      50504544 
 14927              	.LASF105:
 14928 1430 53455353 		.ascii	"SESSION_STATE_END_RCVD\000"
 14928      494F4E5F 
 14928      53544154 
 14928      455F454E 
 14928      445F5243 
 14929              	.LASF256:
 14930 1447 61747461 		.ascii	"attach_get_target\000"
ARM GAS  C:\Users\Phuong\AppData\Local\Temp\ccX7yw2d.s 			page 317


 14930      63685F67 
 14930      65745F74 
 14930      61726765 
 14930      7400
 14931              	.LASF93:
 14932 1459 6F757470 		.ascii	"output_handle\000"
 14932      75745F68 
 14932      616E646C 
 14932      6500
 14933              	.LASF162:
 14934 1467 73657373 		.ascii	"session_create_from_endpoint\000"
 14934      696F6E5F 
 14934      63726561 
 14934      74655F66 
 14934      726F6D5F 
 14935              	.LASF249:
 14936 1484 636F6E6E 		.ascii	"connection_destroy_endpoint\000"
 14936      65637469 
 14936      6F6E5F64 
 14936      65737472 
 14936      6F795F65 
 14937              	.LASF143:
 14938 14a0 6F6E5F63 		.ascii	"on_connection_state_changed\000"
 14938      6F6E6E65 
 14938      6374696F 
 14938      6E5F7374 
 14938      6174655F 
 14939              	.LASF203:
 14940 14bc 64657461 		.ascii	"detach\000"
 14940      636800
 14941              	.LASF173:
 14942 14c3 6E616D65 		.ascii	"name_length\000"
 14942      5F6C656E 
 14942      67746800 
 14943              	.LASF44:
 14944 14cf 434F4E4E 		.ascii	"CONNECTION_STATE_CLOSE_PIPE\000"
 14944      45435449 
 14944      4F4E5F53 
 14944      54415445 
 14944      5F434C4F 
 14945              	.LASF298:
 14946 14eb 536F7572 		.ascii	"Source\\azure_iot_sdk\\uamqp\\src\\session.c\000"
 14946      63655C61 
 14946      7A757265 
 14946      5F696F74 
 14946      5F73646B 
 14947              	.LASF56:
 14948 1514 64656C69 		.ascii	"delivery_number\000"
 14948      76657279 
 14948      5F6E756D 
 14948      62657200 
 14949              	.LASF280:
 14950 1524 69735F64 		.ascii	"is_disposition_type_by_descriptor\000"
 14950      6973706F 
 14950      73697469 
 14950      6F6E5F74 
 14950      7970655F 
ARM GAS  C:\Users\Phuong\AppData\Local\Temp\ccX7yw2d.s 			page 318


 14951              	.LASF232:
 14952 1546 7265616C 		.ascii	"realloc\000"
 14952      6C6F6300 
 14953              	.LASF66:
 14954 154e 5452414E 		.ascii	"TRANSFER_HANDLE\000"
 14954      53464552 
 14954      5F48414E 
 14954      444C4500 
 14955              	.LASF47:
 14956 155e 434F4E4E 		.ascii	"CONNECTION_STATE_CLOSE_SENT\000"
 14956      45435449 
 14956      4F4E5F53 
 14956      54415445 
 14956      5F434C4F 
 14957              	.LASF255:
 14958 157a 61747461 		.ascii	"attach_get_source\000"
 14958      63685F67 
 14958      65745F73 
 14958      6F757263 
 14958      6500
 14959              	.LASF3:
 14960 158c 7369676E 		.ascii	"signed char\000"
 14960      65642063 
 14960      68617200 
 14961              	.LASF287:
 14962 1598 61747461 		.ascii	"attach_set_handle\000"
 14962      63685F73 
 14962      65745F68 
 14962      616E646C 
 14962      6500
 14963              	.LASF8:
 14964 15aa 73686F72 		.ascii	"short unsigned int\000"
 14964      7420756E 
 14964      7369676E 
 14964      65642069 
 14964      6E7400
 14965              	.LASF39:
 14966 15bd 434F4E4E 		.ascii	"CONNECTION_STATE_HDR_EXCH\000"
 14966      45435449 
 14966      4F4E5F53 
 14966      54415445 
 14966      5F484452 
 14967              	.LASF140:
 14968 15d7 62656769 		.ascii	"begin\000"
 14968      6E00
 14969              	.LASF54:
 14970 15dd 68616E64 		.ascii	"handle\000"
 14970      6C6500
 14971              	.LASF185:
 14972 15e4 72656D6F 		.ascii	"remote_handle\000"
 14972      74655F68 
 14972      616E646C 
 14972      6500
 14973              	.LASF142:
 14974 15f2 62656769 		.ascii	"begin_performative_value\000"
 14974      6E5F7065 
 14974      72666F72 
ARM GAS  C:\Users\Phuong\AppData\Local\Temp\ccX7yw2d.s 			page 319


 14974      6D617469 
 14974      76655F76 
 14975              	.LASF267:
 14976 160b 666C6F77 		.ascii	"flow_get_incoming_window\000"
 14976      5F676574 
 14976      5F696E63 
 14976      6F6D696E 
 14976      675F7769 
 14977              	.LASF61:
 14978 1624 464C4F57 		.ascii	"FLOW_INSTANCE_TAG\000"
 14978      5F494E53 
 14978      54414E43 
 14978      455F5441 
 14978      4700
 14979              	.LASF183:
 14980 1636 6E65775F 		.ascii	"new_link_endpoint\000"
 14980      6C696E6B 
 14980      5F656E64 
 14980      706F696E 
 14980      7400
 14981              	.LASF283:
 14982 1648 666C6F77 		.ascii	"flow_set_next_outgoing_id\000"
 14982      5F736574 
 14982      5F6E6578 
 14982      745F6F75 
 14982      74676F69 
 14983              	.LASF262:
 14984 1662 64657461 		.ascii	"detach_get_handle\000"
 14984      63685F67 
 14984      65745F68 
 14984      616E646C 
 14984      6500
 14985              	.LASF182:
 14986 1674 74617267 		.ascii	"target\000"
 14986      657400
 14987              	.LASF161:
 14988 167b 73657373 		.ascii	"session_create\000"
 14988      696F6E5F 
 14988      63726561 
 14988      746500
 14989              	.LASF259:
 14990 168a 61747461 		.ascii	"attach_destroy\000"
 14990      63685F64 
 14990      65737472 
 14990      6F7900
 14991              	.LASF242:
 14992 1699 636F6E6E 		.ascii	"connection_close\000"
 14992      65637469 
 14992      6F6E5F63 
 14992      6C6F7365 
 14992      00
 14993              	.LASF76:
 14994 16aa 656E6470 		.ascii	"endpoint\000"
 14994      6F696E74 
 14994      00
 14995              	.LASF167:
 14996 16b3 73657373 		.ascii	"session_set_outgoing_window\000"
ARM GAS  C:\Users\Phuong\AppData\Local\Temp\ccX7yw2d.s 			page 320


 14996      696F6E5F 
 14996      7365745F 
 14996      6F757467 
 14996      6F696E67 
 14997              	.LASF137:
 14998 16cf 7061796C 		.ascii	"payload_count\000"
 14998      6F61645F 
 14998      636F756E 
 14998      7400
 14999              	.LASF58:
 15000 16dd 44495350 		.ascii	"DISPOSITION_INSTANCE_TAG\000"
 15000      4F534954 
 15000      494F4E5F 
 15000      494E5354 
 15000      414E4345 
 15001              	.LASF188:
 15002 16f6 666C6F77 		.ascii	"flow_incoming_window\000"
 15002      5F696E63 
 15002      6F6D696E 
 15002      675F7769 
 15002      6E646F77 
 15003              	.LASF20:
 15004 170b 5041594C 		.ascii	"PAYLOAD\000"
 15004      4F414400 
 15005              	.LASF184:
 15006 1713 64657461 		.ascii	"detach_handle\000"
 15006      63685F68 
 15006      616E646C 
 15006      6500
 15007              	.LASF50:
 15008 1721 434F4E4E 		.ascii	"CONNECTION_STATE_ERROR\000"
 15008      45435449 
 15008      4F4E5F53 
 15008      54415445 
 15008      5F455252 
 15009              	.LASF166:
 15010 1738 73657373 		.ascii	"session_get_incoming_window\000"
 15010      696F6E5F 
 15010      6765745F 
 15010      696E636F 
 15010      6D696E67 
 15011              	.LASF230:
 15012 1754 73747263 		.ascii	"strcmp\000"
 15012      6D7000
 15013              	.LASF136:
 15014 175b 7061796C 		.ascii	"payloads\000"
 15014      6F616473 
 15014      00
 15015              	.LASF130:
 15016 1764 73657373 		.ascii	"session_set_state\000"
 15016      696F6E5F 
 15016      7365745F 
 15016      73746174 
 15016      6500
 15017              	.LASF60:
 15018 1776 464C4F57 		.ascii	"FLOW_HANDLE\000"
 15018      5F48414E 
ARM GAS  C:\Users\Phuong\AppData\Local\Temp\ccX7yw2d.s 			page 321


 15018      444C4500 
 15019              	.LASF200:
 15020 1782 64697370 		.ascii	"disposition\000"
 15020      6F736974 
 15020      696F6E00 
 15021              		.ident	"GCC: (GNU Tools for ARM Embedded Processors) 5.4.1 20160609 (release) [ARM/embedded-5-bran
