ARM GAS  C:\Users\Phuong\AppData\Local\Temp\ccuEFeTd.s 			page 1


   1              		.syntax unified
   2              		.cpu cortex-m0plus
   3              		.fpu softvfp
   4              		.eabi_attribute 20, 1
   5              		.eabi_attribute 21, 1
   6              		.eabi_attribute 23, 3
   7              		.eabi_attribute 24, 1
   8              		.eabi_attribute 25, 1
   9              		.eabi_attribute 26, 1
  10              		.eabi_attribute 30, 1
  11              		.eabi_attribute 34, 0
  12              		.eabi_attribute 18, 4
  13              		.thumb
  14              		.syntax unified
  15              		.file	"sha256.c"
  16              		.text
  17              	.Ltext0:
  18              		.cfi_sections	.debug_frame
  19              		.section	.text.mbedtls_sha256_init,"ax",%progbits
  20              		.align	2
  21              		.global	mbedtls_sha256_init
  22              		.code	16
  23              		.thumb_func
  24              		.type	mbedtls_sha256_init, %function
  25              	mbedtls_sha256_init:
  26              	.LFB1:
  27              		.file 1 "Source\\mbedtls_open\\library\\sha256.c"
   1:Source\mbedtls_open\library/sha256.c **** /*
   2:Source\mbedtls_open\library/sha256.c ****  *  FIPS-180-2 compliant SHA-256 implementation
   3:Source\mbedtls_open\library/sha256.c ****  *
   4:Source\mbedtls_open\library/sha256.c ****  *  Copyright (C) 2006-2015, ARM Limited, All Rights Reserved
   5:Source\mbedtls_open\library/sha256.c ****  *  SPDX-License-Identifier: Apache-2.0
   6:Source\mbedtls_open\library/sha256.c ****  *
   7:Source\mbedtls_open\library/sha256.c ****  *  Licensed under the Apache License, Version 2.0 (the "License"); you may
   8:Source\mbedtls_open\library/sha256.c ****  *  not use this file except in compliance with the License.
   9:Source\mbedtls_open\library/sha256.c ****  *  You may obtain a copy of the License at
  10:Source\mbedtls_open\library/sha256.c ****  *
  11:Source\mbedtls_open\library/sha256.c ****  *  http://www.apache.org/licenses/LICENSE-2.0
  12:Source\mbedtls_open\library/sha256.c ****  *
  13:Source\mbedtls_open\library/sha256.c ****  *  Unless required by applicable law or agreed to in writing, software
  14:Source\mbedtls_open\library/sha256.c ****  *  distributed under the License is distributed on an "AS IS" BASIS, WITHOUT
  15:Source\mbedtls_open\library/sha256.c ****  *  WARRANTIES OR CONDITIONS OF ANY KIND, either express or implied.
  16:Source\mbedtls_open\library/sha256.c ****  *  See the License for the specific language governing permissions and
  17:Source\mbedtls_open\library/sha256.c ****  *  limitations under the License.
  18:Source\mbedtls_open\library/sha256.c ****  *
  19:Source\mbedtls_open\library/sha256.c ****  *  This file is part of mbed TLS (https://tls.mbed.org)
  20:Source\mbedtls_open\library/sha256.c ****  */
  21:Source\mbedtls_open\library/sha256.c **** /*
  22:Source\mbedtls_open\library/sha256.c ****  *  The SHA-256 Secure Hash Standard was published by NIST in 2002.
  23:Source\mbedtls_open\library/sha256.c ****  *
  24:Source\mbedtls_open\library/sha256.c ****  *  http://csrc.nist.gov/publications/fips/fips180-2/fips180-2.pdf
  25:Source\mbedtls_open\library/sha256.c ****  */
  26:Source\mbedtls_open\library/sha256.c **** 
  27:Source\mbedtls_open\library/sha256.c **** #if !defined(MBEDTLS_CONFIG_FILE)
  28:Source\mbedtls_open\library/sha256.c **** #include "mbedtls/config.h"
  29:Source\mbedtls_open\library/sha256.c **** #else
  30:Source\mbedtls_open\library/sha256.c **** #include MBEDTLS_CONFIG_FILE
ARM GAS  C:\Users\Phuong\AppData\Local\Temp\ccuEFeTd.s 			page 2


  31:Source\mbedtls_open\library/sha256.c **** #endif
  32:Source\mbedtls_open\library/sha256.c **** 
  33:Source\mbedtls_open\library/sha256.c **** #if defined(MBEDTLS_SHA256_C)
  34:Source\mbedtls_open\library/sha256.c **** 
  35:Source\mbedtls_open\library/sha256.c **** #include "mbedtls/sha256.h"
  36:Source\mbedtls_open\library/sha256.c **** #include "mbedtls/platform_util.h"
  37:Source\mbedtls_open\library/sha256.c **** 
  38:Source\mbedtls_open\library/sha256.c **** #include <string.h>
  39:Source\mbedtls_open\library/sha256.c **** 
  40:Source\mbedtls_open\library/sha256.c **** #if defined(MBEDTLS_SELF_TEST)
  41:Source\mbedtls_open\library/sha256.c **** #if defined(MBEDTLS_PLATFORM_C)
  42:Source\mbedtls_open\library/sha256.c **** #include "mbedtls/platform.h"
  43:Source\mbedtls_open\library/sha256.c **** #else
  44:Source\mbedtls_open\library/sha256.c **** #include <stdio.h>
  45:Source\mbedtls_open\library/sha256.c **** #include <stdlib.h>
  46:Source\mbedtls_open\library/sha256.c **** #define mbedtls_printf printf
  47:Source\mbedtls_open\library/sha256.c **** #define mbedtls_calloc    calloc
  48:Source\mbedtls_open\library/sha256.c **** #define mbedtls_free       free
  49:Source\mbedtls_open\library/sha256.c **** #endif /* MBEDTLS_PLATFORM_C */
  50:Source\mbedtls_open\library/sha256.c **** #endif /* MBEDTLS_SELF_TEST */
  51:Source\mbedtls_open\library/sha256.c **** 
  52:Source\mbedtls_open\library/sha256.c **** #if !defined(MBEDTLS_SHA256_ALT)
  53:Source\mbedtls_open\library/sha256.c **** 
  54:Source\mbedtls_open\library/sha256.c **** /*
  55:Source\mbedtls_open\library/sha256.c ****  * 32-bit integer manipulation macros (big endian)
  56:Source\mbedtls_open\library/sha256.c ****  */
  57:Source\mbedtls_open\library/sha256.c **** #ifndef GET_UINT32_BE
  58:Source\mbedtls_open\library/sha256.c **** #define GET_UINT32_BE(n,b,i)                            \
  59:Source\mbedtls_open\library/sha256.c **** do {                                                    \
  60:Source\mbedtls_open\library/sha256.c ****     (n) = ( (uint32_t) (b)[(i)    ] << 24 )             \
  61:Source\mbedtls_open\library/sha256.c ****         | ( (uint32_t) (b)[(i) + 1] << 16 )             \
  62:Source\mbedtls_open\library/sha256.c ****         | ( (uint32_t) (b)[(i) + 2] <<  8 )             \
  63:Source\mbedtls_open\library/sha256.c ****         | ( (uint32_t) (b)[(i) + 3]       );            \
  64:Source\mbedtls_open\library/sha256.c **** } while( 0 )
  65:Source\mbedtls_open\library/sha256.c **** #endif
  66:Source\mbedtls_open\library/sha256.c **** 
  67:Source\mbedtls_open\library/sha256.c **** #ifndef PUT_UINT32_BE
  68:Source\mbedtls_open\library/sha256.c **** #define PUT_UINT32_BE(n,b,i)                            \
  69:Source\mbedtls_open\library/sha256.c **** do {                                                    \
  70:Source\mbedtls_open\library/sha256.c ****     (b)[(i)    ] = (unsigned char) ( (n) >> 24 );       \
  71:Source\mbedtls_open\library/sha256.c ****     (b)[(i) + 1] = (unsigned char) ( (n) >> 16 );       \
  72:Source\mbedtls_open\library/sha256.c ****     (b)[(i) + 2] = (unsigned char) ( (n) >>  8 );       \
  73:Source\mbedtls_open\library/sha256.c ****     (b)[(i) + 3] = (unsigned char) ( (n)       );       \
  74:Source\mbedtls_open\library/sha256.c **** } while( 0 )
  75:Source\mbedtls_open\library/sha256.c **** #endif
  76:Source\mbedtls_open\library/sha256.c **** 
  77:Source\mbedtls_open\library/sha256.c **** void mbedtls_sha256_init( mbedtls_sha256_context *ctx )
  78:Source\mbedtls_open\library/sha256.c **** {
  28              		.loc 1 78 0
  29              		.cfi_startproc
  30              		@ args = 0, pretend = 0, frame = 0
  31              		@ frame_needed = 0, uses_anonymous_args = 0
  32              	.LVL0:
  33 0000 10B5     		push	{r4, lr}
  34              		.cfi_def_cfa_offset 8
  35              		.cfi_offset 4, -8
  36              		.cfi_offset 14, -4
ARM GAS  C:\Users\Phuong\AppData\Local\Temp\ccuEFeTd.s 			page 3


  79:Source\mbedtls_open\library/sha256.c ****     memset( ctx, 0, sizeof( mbedtls_sha256_context ) );
  37              		.loc 1 79 0
  38 0002 6C22     		movs	r2, #108
  39 0004 0021     		movs	r1, #0
  40 0006 FFF7FEFF 		bl	memset
  41              	.LVL1:
  80:Source\mbedtls_open\library/sha256.c **** }
  42              		.loc 1 80 0
  43              		@ sp needed
  44 000a 10BD     		pop	{r4, pc}
  45              		.cfi_endproc
  46              	.LFE1:
  47              		.size	mbedtls_sha256_init, .-mbedtls_sha256_init
  48              		.section	.text.mbedtls_sha256_free,"ax",%progbits
  49              		.align	2
  50              		.global	mbedtls_sha256_free
  51              		.code	16
  52              		.thumb_func
  53              		.type	mbedtls_sha256_free, %function
  54              	mbedtls_sha256_free:
  55              	.LFB2:
  81:Source\mbedtls_open\library/sha256.c **** 
  82:Source\mbedtls_open\library/sha256.c **** void mbedtls_sha256_free( mbedtls_sha256_context *ctx )
  83:Source\mbedtls_open\library/sha256.c **** {
  56              		.loc 1 83 0
  57              		.cfi_startproc
  58              		@ args = 0, pretend = 0, frame = 0
  59              		@ frame_needed = 0, uses_anonymous_args = 0
  60              	.LVL2:
  61 0000 10B5     		push	{r4, lr}
  62              		.cfi_def_cfa_offset 8
  63              		.cfi_offset 4, -8
  64              		.cfi_offset 14, -4
  84:Source\mbedtls_open\library/sha256.c ****     if( ctx == NULL )
  65              		.loc 1 84 0
  66 0002 0028     		cmp	r0, #0
  67 0004 02D0     		beq	.L2
  85:Source\mbedtls_open\library/sha256.c ****         return;
  86:Source\mbedtls_open\library/sha256.c **** 
  87:Source\mbedtls_open\library/sha256.c ****     mbedtls_platform_zeroize( ctx, sizeof( mbedtls_sha256_context ) );
  68              		.loc 1 87 0
  69 0006 6C21     		movs	r1, #108
  70 0008 FFF7FEFF 		bl	mbedtls_platform_zeroize
  71              	.LVL3:
  72              	.L2:
  88:Source\mbedtls_open\library/sha256.c **** }
  73              		.loc 1 88 0
  74              		@ sp needed
  75 000c 10BD     		pop	{r4, pc}
  76              		.cfi_endproc
  77              	.LFE2:
  78              		.size	mbedtls_sha256_free, .-mbedtls_sha256_free
  79 000e C046     		.section	.text.mbedtls_sha256_clone,"ax",%progbits
  80              		.align	2
  81              		.global	mbedtls_sha256_clone
  82              		.code	16
  83              		.thumb_func
ARM GAS  C:\Users\Phuong\AppData\Local\Temp\ccuEFeTd.s 			page 4


  84              		.type	mbedtls_sha256_clone, %function
  85              	mbedtls_sha256_clone:
  86              	.LFB3:
  89:Source\mbedtls_open\library/sha256.c **** 
  90:Source\mbedtls_open\library/sha256.c **** void mbedtls_sha256_clone( mbedtls_sha256_context *dst,
  91:Source\mbedtls_open\library/sha256.c ****                            const mbedtls_sha256_context *src )
  92:Source\mbedtls_open\library/sha256.c **** {
  87              		.loc 1 92 0
  88              		.cfi_startproc
  89              		@ args = 0, pretend = 0, frame = 0
  90              		@ frame_needed = 0, uses_anonymous_args = 0
  91              	.LVL4:
  92 0000 10B5     		push	{r4, lr}
  93              		.cfi_def_cfa_offset 8
  94              		.cfi_offset 4, -8
  95              		.cfi_offset 14, -4
  93:Source\mbedtls_open\library/sha256.c ****     *dst = *src;
  96              		.loc 1 93 0
  97 0002 6C22     		movs	r2, #108
  98 0004 FFF7FEFF 		bl	memcpy
  99              	.LVL5:
  94:Source\mbedtls_open\library/sha256.c **** }
 100              		.loc 1 94 0
 101              		@ sp needed
 102 0008 10BD     		pop	{r4, pc}
 103              		.cfi_endproc
 104              	.LFE3:
 105              		.size	mbedtls_sha256_clone, .-mbedtls_sha256_clone
 106 000a C046     		.section	.text.mbedtls_sha256_starts_ret,"ax",%progbits
 107              		.align	2
 108              		.global	mbedtls_sha256_starts_ret
 109              		.code	16
 110              		.thumb_func
 111              		.type	mbedtls_sha256_starts_ret, %function
 112              	mbedtls_sha256_starts_ret:
 113              	.LFB4:
  95:Source\mbedtls_open\library/sha256.c **** 
  96:Source\mbedtls_open\library/sha256.c **** /*
  97:Source\mbedtls_open\library/sha256.c ****  * SHA-256 context setup
  98:Source\mbedtls_open\library/sha256.c ****  */
  99:Source\mbedtls_open\library/sha256.c **** int mbedtls_sha256_starts_ret( mbedtls_sha256_context *ctx, int is224 )
 100:Source\mbedtls_open\library/sha256.c **** {
 114              		.loc 1 100 0
 115              		.cfi_startproc
 116              		@ args = 0, pretend = 0, frame = 0
 117              		@ frame_needed = 0, uses_anonymous_args = 0
 118              		@ link register save eliminated.
 119              	.LVL6:
 101:Source\mbedtls_open\library/sha256.c ****     ctx->total[0] = 0;
 120              		.loc 1 101 0
 121 0000 0023     		movs	r3, #0
 122 0002 0360     		str	r3, [r0]
 102:Source\mbedtls_open\library/sha256.c ****     ctx->total[1] = 0;
 123              		.loc 1 102 0
 124 0004 4360     		str	r3, [r0, #4]
 103:Source\mbedtls_open\library/sha256.c **** 
 104:Source\mbedtls_open\library/sha256.c ****     if( is224 == 0 )
ARM GAS  C:\Users\Phuong\AppData\Local\Temp\ccuEFeTd.s 			page 5


 125              		.loc 1 104 0
 126 0006 0029     		cmp	r1, #0
 127 0008 10D1     		bne	.L6
 105:Source\mbedtls_open\library/sha256.c ****     {
 106:Source\mbedtls_open\library/sha256.c ****         /* SHA-256 */
 107:Source\mbedtls_open\library/sha256.c ****         ctx->state[0] = 0x6A09E667;
 128              		.loc 1 107 0
 129 000a 124B     		ldr	r3, .L8
 130 000c 8360     		str	r3, [r0, #8]
 108:Source\mbedtls_open\library/sha256.c ****         ctx->state[1] = 0xBB67AE85;
 131              		.loc 1 108 0
 132 000e 124B     		ldr	r3, .L8+4
 133 0010 C360     		str	r3, [r0, #12]
 109:Source\mbedtls_open\library/sha256.c ****         ctx->state[2] = 0x3C6EF372;
 134              		.loc 1 109 0
 135 0012 124B     		ldr	r3, .L8+8
 136 0014 0361     		str	r3, [r0, #16]
 110:Source\mbedtls_open\library/sha256.c ****         ctx->state[3] = 0xA54FF53A;
 137              		.loc 1 110 0
 138 0016 124B     		ldr	r3, .L8+12
 139 0018 4361     		str	r3, [r0, #20]
 111:Source\mbedtls_open\library/sha256.c ****         ctx->state[4] = 0x510E527F;
 140              		.loc 1 111 0
 141 001a 124B     		ldr	r3, .L8+16
 142 001c 8361     		str	r3, [r0, #24]
 112:Source\mbedtls_open\library/sha256.c ****         ctx->state[5] = 0x9B05688C;
 143              		.loc 1 112 0
 144 001e 124B     		ldr	r3, .L8+20
 145 0020 C361     		str	r3, [r0, #28]
 113:Source\mbedtls_open\library/sha256.c ****         ctx->state[6] = 0x1F83D9AB;
 146              		.loc 1 113 0
 147 0022 124B     		ldr	r3, .L8+24
 148 0024 0362     		str	r3, [r0, #32]
 114:Source\mbedtls_open\library/sha256.c ****         ctx->state[7] = 0x5BE0CD19;
 149              		.loc 1 114 0
 150 0026 124B     		ldr	r3, .L8+28
 151 0028 4362     		str	r3, [r0, #36]
 152 002a 0FE0     		b	.L7
 153              	.L6:
 115:Source\mbedtls_open\library/sha256.c ****     }
 116:Source\mbedtls_open\library/sha256.c ****     else
 117:Source\mbedtls_open\library/sha256.c ****     {
 118:Source\mbedtls_open\library/sha256.c ****         /* SHA-224 */
 119:Source\mbedtls_open\library/sha256.c ****         ctx->state[0] = 0xC1059ED8;
 154              		.loc 1 119 0
 155 002c 114B     		ldr	r3, .L8+32
 156 002e 8360     		str	r3, [r0, #8]
 120:Source\mbedtls_open\library/sha256.c ****         ctx->state[1] = 0x367CD507;
 157              		.loc 1 120 0
 158 0030 114B     		ldr	r3, .L8+36
 159 0032 C360     		str	r3, [r0, #12]
 121:Source\mbedtls_open\library/sha256.c ****         ctx->state[2] = 0x3070DD17;
 160              		.loc 1 121 0
 161 0034 114B     		ldr	r3, .L8+40
 162 0036 0361     		str	r3, [r0, #16]
 122:Source\mbedtls_open\library/sha256.c ****         ctx->state[3] = 0xF70E5939;
 163              		.loc 1 122 0
ARM GAS  C:\Users\Phuong\AppData\Local\Temp\ccuEFeTd.s 			page 6


 164 0038 114B     		ldr	r3, .L8+44
 165 003a 4361     		str	r3, [r0, #20]
 123:Source\mbedtls_open\library/sha256.c ****         ctx->state[4] = 0xFFC00B31;
 166              		.loc 1 123 0
 167 003c 114B     		ldr	r3, .L8+48
 168 003e 8361     		str	r3, [r0, #24]
 124:Source\mbedtls_open\library/sha256.c ****         ctx->state[5] = 0x68581511;
 169              		.loc 1 124 0
 170 0040 114B     		ldr	r3, .L8+52
 171 0042 C361     		str	r3, [r0, #28]
 125:Source\mbedtls_open\library/sha256.c ****         ctx->state[6] = 0x64F98FA7;
 172              		.loc 1 125 0
 173 0044 114B     		ldr	r3, .L8+56
 174 0046 0362     		str	r3, [r0, #32]
 126:Source\mbedtls_open\library/sha256.c ****         ctx->state[7] = 0xBEFA4FA4;
 175              		.loc 1 126 0
 176 0048 114B     		ldr	r3, .L8+60
 177 004a 4362     		str	r3, [r0, #36]
 178              	.L7:
 127:Source\mbedtls_open\library/sha256.c ****     }
 128:Source\mbedtls_open\library/sha256.c **** 
 129:Source\mbedtls_open\library/sha256.c ****     ctx->is224 = is224;
 179              		.loc 1 129 0
 180 004c 8166     		str	r1, [r0, #104]
 130:Source\mbedtls_open\library/sha256.c **** 
 131:Source\mbedtls_open\library/sha256.c ****     return( 0 );
 132:Source\mbedtls_open\library/sha256.c **** }
 181              		.loc 1 132 0
 182 004e 0020     		movs	r0, #0
 183              	.LVL7:
 184              		@ sp needed
 185 0050 7047     		bx	lr
 186              	.L9:
 187 0052 C046     		.align	2
 188              	.L8:
 189 0054 67E6096A 		.word	1779033703
 190 0058 85AE67BB 		.word	-1150833019
 191 005c 72F36E3C 		.word	1013904242
 192 0060 3AF54FA5 		.word	-1521486534
 193 0064 7F520E51 		.word	1359893119
 194 0068 8C68059B 		.word	-1694144372
 195 006c ABD9831F 		.word	528734635
 196 0070 19CDE05B 		.word	1541459225
 197 0074 D89E05C1 		.word	-1056596264
 198 0078 07D57C36 		.word	914150663
 199 007c 17DD7030 		.word	812702999
 200 0080 39590EF7 		.word	-150054599
 201 0084 310BC0FF 		.word	-4191439
 202 0088 11155868 		.word	1750603025
 203 008c A78FF964 		.word	1694076839
 204 0090 A44FFABE 		.word	-1090891868
 205              		.cfi_endproc
 206              	.LFE4:
 207              		.size	mbedtls_sha256_starts_ret, .-mbedtls_sha256_starts_ret
 208              		.section	.text.mbedtls_sha256_starts,"ax",%progbits
 209              		.align	2
 210              		.global	mbedtls_sha256_starts
ARM GAS  C:\Users\Phuong\AppData\Local\Temp\ccuEFeTd.s 			page 7


 211              		.code	16
 212              		.thumb_func
 213              		.type	mbedtls_sha256_starts, %function
 214              	mbedtls_sha256_starts:
 215              	.LFB5:
 133:Source\mbedtls_open\library/sha256.c **** 
 134:Source\mbedtls_open\library/sha256.c **** #if !defined(MBEDTLS_DEPRECATED_REMOVED)
 135:Source\mbedtls_open\library/sha256.c **** void mbedtls_sha256_starts( mbedtls_sha256_context *ctx,
 136:Source\mbedtls_open\library/sha256.c ****                             int is224 )
 137:Source\mbedtls_open\library/sha256.c **** {
 216              		.loc 1 137 0
 217              		.cfi_startproc
 218              		@ args = 0, pretend = 0, frame = 0
 219              		@ frame_needed = 0, uses_anonymous_args = 0
 220              	.LVL8:
 221 0000 10B5     		push	{r4, lr}
 222              		.cfi_def_cfa_offset 8
 223              		.cfi_offset 4, -8
 224              		.cfi_offset 14, -4
 138:Source\mbedtls_open\library/sha256.c ****     mbedtls_sha256_starts_ret( ctx, is224 );
 225              		.loc 1 138 0
 226 0002 FFF7FEFF 		bl	mbedtls_sha256_starts_ret
 227              	.LVL9:
 139:Source\mbedtls_open\library/sha256.c **** }
 228              		.loc 1 139 0
 229              		@ sp needed
 230 0006 10BD     		pop	{r4, pc}
 231              		.cfi_endproc
 232              	.LFE5:
 233              		.size	mbedtls_sha256_starts, .-mbedtls_sha256_starts
 234              		.section	.text.mbedtls_internal_sha256_process,"ax",%progbits
 235              		.align	2
 236              		.global	mbedtls_internal_sha256_process
 237              		.code	16
 238              		.thumb_func
 239              		.type	mbedtls_internal_sha256_process, %function
 240              	mbedtls_internal_sha256_process:
 241              	.LFB6:
 140:Source\mbedtls_open\library/sha256.c **** #endif
 141:Source\mbedtls_open\library/sha256.c **** 
 142:Source\mbedtls_open\library/sha256.c **** #if !defined(MBEDTLS_SHA256_PROCESS_ALT)
 143:Source\mbedtls_open\library/sha256.c **** static const uint32_t K[] =
 144:Source\mbedtls_open\library/sha256.c **** {
 145:Source\mbedtls_open\library/sha256.c ****     0x428A2F98, 0x71374491, 0xB5C0FBCF, 0xE9B5DBA5,
 146:Source\mbedtls_open\library/sha256.c ****     0x3956C25B, 0x59F111F1, 0x923F82A4, 0xAB1C5ED5,
 147:Source\mbedtls_open\library/sha256.c ****     0xD807AA98, 0x12835B01, 0x243185BE, 0x550C7DC3,
 148:Source\mbedtls_open\library/sha256.c ****     0x72BE5D74, 0x80DEB1FE, 0x9BDC06A7, 0xC19BF174,
 149:Source\mbedtls_open\library/sha256.c ****     0xE49B69C1, 0xEFBE4786, 0x0FC19DC6, 0x240CA1CC,
 150:Source\mbedtls_open\library/sha256.c ****     0x2DE92C6F, 0x4A7484AA, 0x5CB0A9DC, 0x76F988DA,
 151:Source\mbedtls_open\library/sha256.c ****     0x983E5152, 0xA831C66D, 0xB00327C8, 0xBF597FC7,
 152:Source\mbedtls_open\library/sha256.c ****     0xC6E00BF3, 0xD5A79147, 0x06CA6351, 0x14292967,
 153:Source\mbedtls_open\library/sha256.c ****     0x27B70A85, 0x2E1B2138, 0x4D2C6DFC, 0x53380D13,
 154:Source\mbedtls_open\library/sha256.c ****     0x650A7354, 0x766A0ABB, 0x81C2C92E, 0x92722C85,
 155:Source\mbedtls_open\library/sha256.c ****     0xA2BFE8A1, 0xA81A664B, 0xC24B8B70, 0xC76C51A3,
 156:Source\mbedtls_open\library/sha256.c ****     0xD192E819, 0xD6990624, 0xF40E3585, 0x106AA070,
 157:Source\mbedtls_open\library/sha256.c ****     0x19A4C116, 0x1E376C08, 0x2748774C, 0x34B0BCB5,
 158:Source\mbedtls_open\library/sha256.c ****     0x391C0CB3, 0x4ED8AA4A, 0x5B9CCA4F, 0x682E6FF3,
ARM GAS  C:\Users\Phuong\AppData\Local\Temp\ccuEFeTd.s 			page 8


 159:Source\mbedtls_open\library/sha256.c ****     0x748F82EE, 0x78A5636F, 0x84C87814, 0x8CC70208,
 160:Source\mbedtls_open\library/sha256.c ****     0x90BEFFFA, 0xA4506CEB, 0xBEF9A3F7, 0xC67178F2,
 161:Source\mbedtls_open\library/sha256.c **** };
 162:Source\mbedtls_open\library/sha256.c **** 
 163:Source\mbedtls_open\library/sha256.c **** #define  SHR(x,n) ((x & 0xFFFFFFFF) >> n)
 164:Source\mbedtls_open\library/sha256.c **** #define ROTR(x,n) (SHR(x,n) | (x << (32 - n)))
 165:Source\mbedtls_open\library/sha256.c **** 
 166:Source\mbedtls_open\library/sha256.c **** #define S0(x) (ROTR(x, 7) ^ ROTR(x,18) ^  SHR(x, 3))
 167:Source\mbedtls_open\library/sha256.c **** #define S1(x) (ROTR(x,17) ^ ROTR(x,19) ^  SHR(x,10))
 168:Source\mbedtls_open\library/sha256.c **** 
 169:Source\mbedtls_open\library/sha256.c **** #define S2(x) (ROTR(x, 2) ^ ROTR(x,13) ^ ROTR(x,22))
 170:Source\mbedtls_open\library/sha256.c **** #define S3(x) (ROTR(x, 6) ^ ROTR(x,11) ^ ROTR(x,25))
 171:Source\mbedtls_open\library/sha256.c **** 
 172:Source\mbedtls_open\library/sha256.c **** #define F0(x,y,z) ((x & y) | (z & (x | y)))
 173:Source\mbedtls_open\library/sha256.c **** #define F1(x,y,z) (z ^ (x & (y ^ z)))
 174:Source\mbedtls_open\library/sha256.c **** 
 175:Source\mbedtls_open\library/sha256.c **** #define R(t)                                    \
 176:Source\mbedtls_open\library/sha256.c **** (                                               \
 177:Source\mbedtls_open\library/sha256.c ****     W[t] = S1(W[t -  2]) + W[t -  7] +          \
 178:Source\mbedtls_open\library/sha256.c ****            S0(W[t - 15]) + W[t - 16]            \
 179:Source\mbedtls_open\library/sha256.c **** )
 180:Source\mbedtls_open\library/sha256.c **** 
 181:Source\mbedtls_open\library/sha256.c **** #define P(a,b,c,d,e,f,g,h,x,K)                  \
 182:Source\mbedtls_open\library/sha256.c **** {                                               \
 183:Source\mbedtls_open\library/sha256.c ****     temp1 = h + S3(e) + F1(e,f,g) + K + x;      \
 184:Source\mbedtls_open\library/sha256.c ****     temp2 = S2(a) + F0(a,b,c);                  \
 185:Source\mbedtls_open\library/sha256.c ****     d += temp1; h = temp1 + temp2;              \
 186:Source\mbedtls_open\library/sha256.c **** }
 187:Source\mbedtls_open\library/sha256.c **** 
 188:Source\mbedtls_open\library/sha256.c **** int mbedtls_internal_sha256_process( mbedtls_sha256_context *ctx,
 189:Source\mbedtls_open\library/sha256.c ****                                 const unsigned char data[64] )
 190:Source\mbedtls_open\library/sha256.c **** {
 242              		.loc 1 190 0
 243              		.cfi_startproc
 244              		@ args = 0, pretend = 0, frame = 336
 245              		@ frame_needed = 0, uses_anonymous_args = 0
 246              	.LVL10:
 247 0000 F0B5     		push	{r4, r5, r6, r7, lr}
 248              		.cfi_def_cfa_offset 20
 249              		.cfi_offset 4, -20
 250              		.cfi_offset 5, -16
 251              		.cfi_offset 6, -12
 252              		.cfi_offset 7, -8
 253              		.cfi_offset 14, -4
 254 0002 5F46     		mov	r7, fp
 255 0004 5646     		mov	r6, r10
 256 0006 4D46     		mov	r5, r9
 257 0008 4446     		mov	r4, r8
 258 000a F0B4     		push	{r4, r5, r6, r7}
 259              		.cfi_def_cfa_offset 36
 260              		.cfi_offset 8, -36
 261              		.cfi_offset 9, -32
 262              		.cfi_offset 10, -28
 263              		.cfi_offset 11, -24
 264 000c D5B0     		sub	sp, sp, #340
 265              		.cfi_def_cfa_offset 376
 266 000e 0B90     		str	r0, [sp, #44]
ARM GAS  C:\Users\Phuong\AppData\Local\Temp\ccuEFeTd.s 			page 9


 267              	.LVL11:
 191:Source\mbedtls_open\library/sha256.c ****     uint32_t temp1, temp2, W[64];
 192:Source\mbedtls_open\library/sha256.c ****     uint32_t A[8];
 193:Source\mbedtls_open\library/sha256.c ****     unsigned int i;
 194:Source\mbedtls_open\library/sha256.c **** 
 195:Source\mbedtls_open\library/sha256.c ****     for( i = 0; i < 8; i++ )
 268              		.loc 1 195 0
 269 0010 0023     		movs	r3, #0
 270 0012 0400     		movs	r4, r0
 271 0014 06E0     		b	.L12
 272              	.LVL12:
 273              	.L13:
 196:Source\mbedtls_open\library/sha256.c ****         A[i] = ctx->state[i];
 274              		.loc 1 196 0 discriminator 3
 275 0016 9A1C     		adds	r2, r3, #2
 276 0018 9200     		lsls	r2, r2, #2
 277 001a 1059     		ldr	r0, [r2, r4]
 278 001c 9A00     		lsls	r2, r3, #2
 279 001e 0CAD     		add	r5, sp, #48
 280 0020 5051     		str	r0, [r2, r5]
 195:Source\mbedtls_open\library/sha256.c ****         A[i] = ctx->state[i];
 281              		.loc 1 195 0 discriminator 3
 282 0022 0133     		adds	r3, r3, #1
 283              	.LVL13:
 284              	.L12:
 195:Source\mbedtls_open\library/sha256.c ****         A[i] = ctx->state[i];
 285              		.loc 1 195 0 is_stmt 0 discriminator 1
 286 0024 072B     		cmp	r3, #7
 287 0026 F6D9     		bls	.L13
 288 0028 0020     		movs	r0, #0
 289 002a 0EE0     		b	.L14
 290              	.LVL14:
 291              	.L15:
 197:Source\mbedtls_open\library/sha256.c **** 
 198:Source\mbedtls_open\library/sha256.c **** #if defined(MBEDTLS_SHA256_SMALLER)
 199:Source\mbedtls_open\library/sha256.c ****     for( i = 0; i < 64; i++ )
 200:Source\mbedtls_open\library/sha256.c ****     {
 201:Source\mbedtls_open\library/sha256.c ****         if( i < 16 )
 202:Source\mbedtls_open\library/sha256.c ****             GET_UINT32_BE( W[i], data, 4 * i );
 203:Source\mbedtls_open\library/sha256.c ****         else
 204:Source\mbedtls_open\library/sha256.c ****             R( i );
 205:Source\mbedtls_open\library/sha256.c **** 
 206:Source\mbedtls_open\library/sha256.c ****         P( A[0], A[1], A[2], A[3], A[4], A[5], A[6], A[7], W[i], K[i] );
 207:Source\mbedtls_open\library/sha256.c **** 
 208:Source\mbedtls_open\library/sha256.c ****         temp1 = A[7]; A[7] = A[6]; A[6] = A[5]; A[5] = A[4]; A[4] = A[3];
 209:Source\mbedtls_open\library/sha256.c ****         A[3] = A[2]; A[2] = A[1]; A[1] = A[0]; A[0] = temp1;
 210:Source\mbedtls_open\library/sha256.c ****     }
 211:Source\mbedtls_open\library/sha256.c **** #else /* MBEDTLS_SHA256_SMALLER */
 212:Source\mbedtls_open\library/sha256.c ****     for( i = 0; i < 16; i++ )
 213:Source\mbedtls_open\library/sha256.c ****         GET_UINT32_BE( W[i], data, 4 * i );
 292              		.loc 1 213 0 is_stmt 1 discriminator 3
 293 002c 8400     		lsls	r4, r0, #2
 294 002e 0B5D     		ldrb	r3, [r1, r4]
 295 0030 1A06     		lsls	r2, r3, #24
 296 0032 0D19     		adds	r5, r1, r4
 297 0034 6B78     		ldrb	r3, [r5, #1]
 298 0036 1B04     		lsls	r3, r3, #16
ARM GAS  C:\Users\Phuong\AppData\Local\Temp\ccuEFeTd.s 			page 10


 299 0038 1343     		orrs	r3, r2
 300 003a AA78     		ldrb	r2, [r5, #2]
 301 003c 1202     		lsls	r2, r2, #8
 302 003e 1343     		orrs	r3, r2
 303 0040 EA78     		ldrb	r2, [r5, #3]
 304 0042 1343     		orrs	r3, r2
 305 0044 14AA     		add	r2, sp, #80
 306 0046 A350     		str	r3, [r4, r2]
 212:Source\mbedtls_open\library/sha256.c ****         GET_UINT32_BE( W[i], data, 4 * i );
 307              		.loc 1 212 0 discriminator 3
 308 0048 0130     		adds	r0, r0, #1
 309              	.LVL15:
 310              	.L14:
 212:Source\mbedtls_open\library/sha256.c ****         GET_UINT32_BE( W[i], data, 4 * i );
 311              		.loc 1 212 0 is_stmt 0 discriminator 1
 312 004a 0F28     		cmp	r0, #15
 313 004c EED9     		bls	.L15
 314 004e 0023     		movs	r3, #0
 315 0050 9A46     		mov	r10, r3
 316 0052 09E2     		b	.L16
 317              	.LVL16:
 318              	.L17:
 214:Source\mbedtls_open\library/sha256.c **** 
 215:Source\mbedtls_open\library/sha256.c ****     for( i = 0; i < 16; i += 8 )
 216:Source\mbedtls_open\library/sha256.c ****     {
 217:Source\mbedtls_open\library/sha256.c ****         P( A[0], A[1], A[2], A[3], A[4], A[5], A[6], A[7], W[i+0], K[i+0] );
 319              		.loc 1 217 0 is_stmt 1 discriminator 3
 320 0054 139B     		ldr	r3, [sp, #76]
 321              	.LVL17:
 322 0056 0093     		str	r3, [sp]
 323 0058 109C     		ldr	r4, [sp, #64]
 324 005a 2000     		movs	r0, r4
 325 005c 0623     		movs	r3, #6
 326 005e D841     		rors	r0, r0, r3
 327 0060 2300     		movs	r3, r4
 328 0062 0B22     		movs	r2, #11
 329 0064 D341     		rors	r3, r3, r2
 330 0066 5840     		eors	r0, r3
 331 0068 2300     		movs	r3, r4
 332 006a 0E32     		adds	r2, r2, #14
 333 006c D341     		rors	r3, r3, r2
 334 006e 5840     		eors	r0, r3
 335 0070 009B     		ldr	r3, [sp]
 336 0072 9C46     		mov	ip, r3
 337 0074 6044     		add	r0, r0, ip
 338 0076 119B     		ldr	r3, [sp, #68]
 339 0078 129F     		ldr	r7, [sp, #72]
 340 007a 0093     		str	r3, [sp]
 341 007c 7B40     		eors	r3, r7
 342 007e 2340     		ands	r3, r4
 343 0080 7B40     		eors	r3, r7
 344 0082 C018     		adds	r0, r0, r3
 345 0084 FC4A     		ldr	r2, .L22
 346 0086 9446     		mov	ip, r2
 347 0088 5246     		mov	r2, r10
 348 008a 9300     		lsls	r3, r2, #2
 349 008c 6246     		mov	r2, ip
ARM GAS  C:\Users\Phuong\AppData\Local\Temp\ccuEFeTd.s 			page 11


 350 008e 9A58     		ldr	r2, [r3, r2]
 351 0090 9046     		mov	r8, r2
 352 0092 4044     		add	r0, r0, r8
 353 0094 0CAA     		add	r2, sp, #48
 354 0096 2021     		movs	r1, #32
 355 0098 5218     		adds	r2, r2, r1
 356 009a D358     		ldr	r3, [r2, r3]
 357 009c C318     		adds	r3, r0, r3
 358              	.LVL18:
 359 009e 0C98     		ldr	r0, [sp, #48]
 360 00a0 0222     		movs	r2, #2
 361 00a2 D041     		rors	r0, r0, r2
 362 00a4 0C9A     		ldr	r2, [sp, #48]
 363 00a6 1339     		subs	r1, r1, #19
 364 00a8 CA41     		rors	r2, r2, r1
 365 00aa 4240     		eors	r2, r0
 366 00ac 0C98     		ldr	r0, [sp, #48]
 367 00ae 0931     		adds	r1, r1, #9
 368 00b0 C841     		rors	r0, r0, r1
 369 00b2 4240     		eors	r2, r0
 370 00b4 0D98     		ldr	r0, [sp, #52]
 371 00b6 0C99     		ldr	r1, [sp, #48]
 372 00b8 0840     		ands	r0, r1
 373 00ba 0E99     		ldr	r1, [sp, #56]
 374 00bc 0E00     		movs	r6, r1
 375 00be 0C99     		ldr	r1, [sp, #48]
 376 00c0 0D9D     		ldr	r5, [sp, #52]
 377 00c2 2943     		orrs	r1, r5
 378 00c4 3140     		ands	r1, r6
 379 00c6 0843     		orrs	r0, r1
 380 00c8 1018     		adds	r0, r2, r0
 381              	.LVL19:
 382 00ca 0F9A     		ldr	r2, [sp, #60]
 383 00cc 9918     		adds	r1, r3, r2
 384 00ce 1818     		adds	r0, r3, r0
 385              	.LVL20:
 218:Source\mbedtls_open\library/sha256.c ****         P( A[7], A[0], A[1], A[2], A[3], A[4], A[5], A[6], W[i+1], K[i+1] );
 386              		.loc 1 218 0 discriminator 3
 387 00d0 0A00     		movs	r2, r1
 388 00d2 0623     		movs	r3, #6
 389              	.LVL21:
 390 00d4 DA41     		rors	r2, r2, r3
 391 00d6 0D00     		movs	r5, r1
 392              	.LVL22:
 393 00d8 0B00     		movs	r3, r1
 394              	.LVL23:
 395 00da 0B21     		movs	r1, #11
 396              	.LVL24:
 397 00dc CB41     		rors	r3, r3, r1
 398 00de 5A40     		eors	r2, r3
 399 00e0 0195     		str	r5, [sp, #4]
 400 00e2 2B00     		movs	r3, r5
 401 00e4 0E31     		adds	r1, r1, #14
 402              	.LVL25:
 403 00e6 CB41     		rors	r3, r3, r1
 404 00e8 5A40     		eors	r2, r3
 405 00ea BA18     		adds	r2, r7, r2
ARM GAS  C:\Users\Phuong\AppData\Local\Temp\ccuEFeTd.s 			page 12


 406 00ec 009D     		ldr	r5, [sp]
 407 00ee 2B00     		movs	r3, r5
 408 00f0 6340     		eors	r3, r4
 409 00f2 0199     		ldr	r1, [sp, #4]
 410              	.LVL26:
 411 00f4 0B40     		ands	r3, r1
 412 00f6 6B40     		eors	r3, r5
 413 00f8 D218     		adds	r2, r2, r3
 414 00fa 5346     		mov	r3, r10
 415 00fc 0133     		adds	r3, r3, #1
 416 00fe 9B00     		lsls	r3, r3, #2
 417 0100 6146     		mov	r1, ip
 418 0102 5958     		ldr	r1, [r3, r1]
 419 0104 8846     		mov	r8, r1
 420              	.LVL27:
 421 0106 4244     		add	r2, r2, r8
 422 0108 0CA9     		add	r1, sp, #48
 423              	.LVL28:
 424 010a 2027     		movs	r7, #32
 425              	.LVL29:
 426 010c C919     		adds	r1, r1, r7
 427              	.LVL30:
 428 010e CB58     		ldr	r3, [r1, r3]
 429 0110 D218     		adds	r2, r2, r3
 430              	.LVL31:
 431 0112 0300     		movs	r3, r0
 432 0114 0221     		movs	r1, #2
 433              	.LVL32:
 434 0116 CB41     		rors	r3, r3, r1
 435 0118 1F00     		movs	r7, r3
 436              	.LVL33:
 437 011a 0300     		movs	r3, r0
 438 011c 0B31     		adds	r1, r1, #11
 439              	.LVL34:
 440 011e CB41     		rors	r3, r3, r1
 441 0120 7B40     		eors	r3, r7
 442 0122 0700     		movs	r7, r0
 443 0124 0931     		adds	r1, r1, #9
 444 0126 CF41     		rors	r7, r7, r1
 445 0128 5F40     		eors	r7, r3
 446 012a 0300     		movs	r3, r0
 447 012c 0C99     		ldr	r1, [sp, #48]
 448 012e 0B40     		ands	r3, r1
 449 0130 9946     		mov	r9, r3
 450 0132 0B00     		movs	r3, r1
 451 0134 0343     		orrs	r3, r0
 452 0136 0D99     		ldr	r1, [sp, #52]
 453 0138 0B40     		ands	r3, r1
 454 013a 4946     		mov	r1, r9
 455 013c 0B43     		orrs	r3, r1
 456 013e FB18     		adds	r3, r7, r3
 457              	.LVL35:
 458 0140 B718     		adds	r7, r6, r2
 459 0142 D318     		adds	r3, r2, r3
 460              	.LVL36:
 461 0144 0293     		str	r3, [sp, #8]
 219:Source\mbedtls_open\library/sha256.c ****         P( A[6], A[7], A[0], A[1], A[2], A[3], A[4], A[5], W[i+2], K[i+2] );
ARM GAS  C:\Users\Phuong\AppData\Local\Temp\ccuEFeTd.s 			page 13


 462              		.loc 1 219 0 discriminator 3
 463 0146 3B00     		movs	r3, r7
 464 0148 0621     		movs	r1, #6
 465              	.LVL37:
 466 014a CB41     		rors	r3, r3, r1
 467 014c 9846     		mov	r8, r3
 468 014e 3B00     		movs	r3, r7
 469 0150 0531     		adds	r1, r1, #5
 470 0152 CB41     		rors	r3, r3, r1
 471 0154 4646     		mov	r6, r8
 472 0156 5E40     		eors	r6, r3
 473 0158 3B00     		movs	r3, r7
 474 015a 0E31     		adds	r1, r1, #14
 475 015c CB41     		rors	r3, r3, r1
 476 015e 7340     		eors	r3, r6
 477 0160 A846     		mov	r8, r5
 478 0162 9844     		add	r8, r8, r3
 479 0164 2300     		movs	r3, r4
 480 0166 019A     		ldr	r2, [sp, #4]
 481              	.LVL38:
 482 0168 5340     		eors	r3, r2
 483 016a 3B40     		ands	r3, r7
 484 016c 6340     		eors	r3, r4
 485 016e 4344     		add	r3, r3, r8
 486 0170 0222     		movs	r2, #2
 487              	.LVL39:
 488 0172 5244     		add	r2, r2, r10
 489              	.LVL40:
 490 0174 9200     		lsls	r2, r2, #2
 491 0176 9146     		mov	r9, r2
 492              	.LVL41:
 493 0178 6246     		mov	r2, ip
 494 017a 4946     		mov	r1, r9
 495 017c 8A58     		ldr	r2, [r1, r2]
 496 017e 9046     		mov	r8, r2
 497 0180 4344     		add	r3, r3, r8
 498 0182 0CAA     		add	r2, sp, #48
 499              	.LVL42:
 500 0184 2026     		movs	r6, #32
 501              	.LVL43:
 502 0186 9219     		adds	r2, r2, r6
 503              	.LVL44:
 504 0188 5258     		ldr	r2, [r2, r1]
 505              	.LVL45:
 506 018a 9046     		mov	r8, r2
 507 018c 9844     		add	r8, r8, r3
 508              	.LVL46:
 509 018e 029E     		ldr	r6, [sp, #8]
 510 0190 3300     		movs	r3, r6
 511 0192 0222     		movs	r2, #2
 512              	.LVL47:
 513 0194 D341     		rors	r3, r3, r2
 514 0196 9946     		mov	r9, r3
 515 0198 3300     		movs	r3, r6
 516 019a 0B32     		adds	r2, r2, #11
 517              	.LVL48:
 518 019c D341     		rors	r3, r3, r2
ARM GAS  C:\Users\Phuong\AppData\Local\Temp\ccuEFeTd.s 			page 14


 519 019e 4A46     		mov	r2, r9
 520              	.LVL49:
 521 01a0 5340     		eors	r3, r2
 522 01a2 3200     		movs	r2, r6
 523 01a4 1621     		movs	r1, #22
 524 01a6 CA41     		rors	r2, r2, r1
 525 01a8 5A40     		eors	r2, r3
 526 01aa 9146     		mov	r9, r2
 527 01ac 3300     		movs	r3, r6
 528 01ae 0340     		ands	r3, r0
 529 01b0 9B46     		mov	fp, r3
 530 01b2 0300     		movs	r3, r0
 531 01b4 3500     		movs	r5, r6
 532 01b6 3343     		orrs	r3, r6
 533 01b8 0C9A     		ldr	r2, [sp, #48]
 534 01ba 1340     		ands	r3, r2
 535 01bc 5A46     		mov	r2, fp
 536 01be 1343     		orrs	r3, r2
 537 01c0 4B44     		add	r3, r3, r9
 538              	.LVL50:
 539 01c2 0D9E     		ldr	r6, [sp, #52]
 540 01c4 4644     		add	r6, r6, r8
 541 01c6 4344     		add	r3, r3, r8
 542              	.LVL51:
 543 01c8 0093     		str	r3, [sp]
 220:Source\mbedtls_open\library/sha256.c ****         P( A[5], A[6], A[7], A[0], A[1], A[2], A[3], A[4], W[i+3], K[i+3] );
 544              		.loc 1 220 0 discriminator 3
 545 01ca 3200     		movs	r2, r6
 546              	.LVL52:
 547 01cc 0621     		movs	r1, #6
 548 01ce CA41     		rors	r2, r2, r1
 549 01d0 9146     		mov	r9, r2
 550              	.LVL53:
 551 01d2 3200     		movs	r2, r6
 552 01d4 0531     		adds	r1, r1, #5
 553 01d6 CA41     		rors	r2, r2, r1
 554 01d8 9046     		mov	r8, r2
 555              	.LVL54:
 556 01da 4A46     		mov	r2, r9
 557 01dc 4146     		mov	r1, r8
 558              	.LVL55:
 559 01de 4A40     		eors	r2, r1
 560 01e0 9146     		mov	r9, r2
 561 01e2 3200     		movs	r2, r6
 562 01e4 1921     		movs	r1, #25
 563 01e6 CA41     		rors	r2, r2, r1
 564 01e8 9046     		mov	r8, r2
 565 01ea 4A46     		mov	r2, r9
 566 01ec 4146     		mov	r1, r8
 567 01ee 4A40     		eors	r2, r1
 568 01f0 9046     		mov	r8, r2
 569 01f2 A044     		add	r8, r8, r4
 570 01f4 019A     		ldr	r2, [sp, #4]
 571 01f6 1400     		movs	r4, r2
 572              	.LVL56:
 573 01f8 7C40     		eors	r4, r7
 574 01fa 3440     		ands	r4, r6
ARM GAS  C:\Users\Phuong\AppData\Local\Temp\ccuEFeTd.s 			page 15


 575 01fc 5440     		eors	r4, r2
 576 01fe 4444     		add	r4, r4, r8
 577 0200 0322     		movs	r2, #3
 578 0202 5244     		add	r2, r2, r10
 579 0204 9200     		lsls	r2, r2, #2
 580 0206 9346     		mov	fp, r2
 581              	.LVL57:
 582 0208 6246     		mov	r2, ip
 583 020a 5946     		mov	r1, fp
 584 020c 8A58     		ldr	r2, [r1, r2]
 585 020e 9046     		mov	r8, r2
 586 0210 4444     		add	r4, r4, r8
 587 0212 0CAA     		add	r2, sp, #48
 588              	.LVL58:
 589 0214 2023     		movs	r3, #32
 590              	.LVL59:
 591 0216 D218     		adds	r2, r2, r3
 592              	.LVL60:
 593 0218 5258     		ldr	r2, [r2, r1]
 594              	.LVL61:
 595 021a 9046     		mov	r8, r2
 596 021c A044     		add	r8, r8, r4
 597              	.LVL62:
 598 021e 0099     		ldr	r1, [sp]
 599 0220 0A00     		movs	r2, r1
 600 0222 1E3B     		subs	r3, r3, #30
 601 0224 DA41     		rors	r2, r2, r3
 602 0226 0C00     		movs	r4, r1
 603 0228 0B33     		adds	r3, r3, #11
 604 022a DC41     		rors	r4, r4, r3
 605 022c 5440     		eors	r4, r2
 606 022e 0A00     		movs	r2, r1
 607 0230 1623     		movs	r3, #22
 608              	.LVL63:
 609 0232 DA41     		rors	r2, r2, r3
 610 0234 6240     		eors	r2, r4
 611 0236 9146     		mov	r9, r2
 612 0238 0B00     		movs	r3, r1
 613              	.LVL64:
 614 023a 0A00     		movs	r2, r1
 615 023c 2A40     		ands	r2, r5
 616 023e 2C00     		movs	r4, r5
 617 0240 1C43     		orrs	r4, r3
 618 0242 0440     		ands	r4, r0
 619 0244 1443     		orrs	r4, r2
 620 0246 4C44     		add	r4, r4, r9
 621              	.LVL65:
 622 0248 0C9D     		ldr	r5, [sp, #48]
 623 024a 4544     		add	r5, r5, r8
 624 024c 4444     		add	r4, r4, r8
 625              	.LVL66:
 221:Source\mbedtls_open\library/sha256.c ****         P( A[4], A[5], A[6], A[7], A[0], A[1], A[2], A[3], W[i+4], K[i+4] );
 626              		.loc 1 221 0 discriminator 3
 627 024e 2A00     		movs	r2, r5
 628              	.LVL67:
 629 0250 0623     		movs	r3, #6
 630 0252 DA41     		rors	r2, r2, r3
ARM GAS  C:\Users\Phuong\AppData\Local\Temp\ccuEFeTd.s 			page 16


 631 0254 9146     		mov	r9, r2
 632              	.LVL68:
 633 0256 2A00     		movs	r2, r5
 634 0258 0533     		adds	r3, r3, #5
 635 025a DA41     		rors	r2, r2, r3
 636 025c 9046     		mov	r8, r2
 637              	.LVL69:
 638 025e 4A46     		mov	r2, r9
 639 0260 4346     		mov	r3, r8
 640              	.LVL70:
 641 0262 5A40     		eors	r2, r3
 642 0264 9146     		mov	r9, r2
 643 0266 2A00     		movs	r2, r5
 644 0268 1923     		movs	r3, #25
 645              	.LVL71:
 646 026a DA41     		rors	r2, r2, r3
 647 026c 9046     		mov	r8, r2
 648 026e 4A46     		mov	r2, r9
 649 0270 4346     		mov	r3, r8
 650              	.LVL72:
 651 0272 5A40     		eors	r2, r3
 652 0274 9046     		mov	r8, r2
 653 0276 019A     		ldr	r2, [sp, #4]
 654 0278 9146     		mov	r9, r2
 655 027a C844     		add	r8, r8, r9
 656 027c 3900     		movs	r1, r7
 657              	.LVL73:
 658 027e 7140     		eors	r1, r6
 659 0280 0195     		str	r5, [sp, #4]
 660              	.LVL74:
 661 0282 2940     		ands	r1, r5
 662 0284 7940     		eors	r1, r7
 663 0286 4144     		add	r1, r1, r8
 664 0288 0422     		movs	r2, #4
 665              	.LVL75:
 666 028a 5244     		add	r2, r2, r10
 667 028c 9300     		lsls	r3, r2, #2
 668 028e 9B46     		mov	fp, r3
 669              	.LVL76:
 670 0290 6346     		mov	r3, ip
 671 0292 5A46     		mov	r2, fp
 672 0294 D358     		ldr	r3, [r2, r3]
 673 0296 9846     		mov	r8, r3
 674 0298 4144     		add	r1, r1, r8
 675 029a 0CAB     		add	r3, sp, #48
 676              	.LVL77:
 677 029c 2025     		movs	r5, #32
 678              	.LVL78:
 679 029e 5B19     		adds	r3, r3, r5
 680              	.LVL79:
 681 02a0 9B58     		ldr	r3, [r3, r2]
 682              	.LVL80:
 683 02a2 9846     		mov	r8, r3
 684 02a4 8844     		add	r8, r8, r1
 685              	.LVL81:
 686 02a6 2200     		movs	r2, r4
 687 02a8 0223     		movs	r3, #2
ARM GAS  C:\Users\Phuong\AppData\Local\Temp\ccuEFeTd.s 			page 17


 688 02aa DA41     		rors	r2, r2, r3
 689 02ac 2100     		movs	r1, r4
 690 02ae 0B33     		adds	r3, r3, #11
 691 02b0 D941     		rors	r1, r1, r3
 692 02b2 5140     		eors	r1, r2
 693 02b4 2200     		movs	r2, r4
 694 02b6 1623     		movs	r3, #22
 695              	.LVL82:
 696 02b8 DA41     		rors	r2, r2, r3
 697 02ba 4A40     		eors	r2, r1
 698 02bc 9146     		mov	r9, r2
 699 02be 2200     		movs	r2, r4
 700 02c0 009B     		ldr	r3, [sp]
 701              	.LVL83:
 702 02c2 1A40     		ands	r2, r3
 703 02c4 9346     		mov	fp, r2
 704 02c6 1900     		movs	r1, r3
 705 02c8 2143     		orrs	r1, r4
 706 02ca 029A     		ldr	r2, [sp, #8]
 707 02cc 1140     		ands	r1, r2
 708 02ce 5B46     		mov	r3, fp
 709 02d0 1943     		orrs	r1, r3
 710 02d2 4944     		add	r1, r1, r9
 711              	.LVL84:
 712 02d4 4044     		add	r0, r0, r8
 713 02d6 1390     		str	r0, [sp, #76]
 714 02d8 4144     		add	r1, r1, r8
 715              	.LVL85:
 716 02da 0F91     		str	r1, [sp, #60]
 222:Source\mbedtls_open\library/sha256.c ****         P( A[3], A[4], A[5], A[6], A[7], A[0], A[1], A[2], W[i+5], K[i+5] );
 717              		.loc 1 222 0 discriminator 3
 718 02dc 0200     		movs	r2, r0
 719 02de 0623     		movs	r3, #6
 720              	.LVL86:
 721 02e0 DA41     		rors	r2, r2, r3
 722 02e2 9146     		mov	r9, r2
 723              	.LVL87:
 724 02e4 0200     		movs	r2, r0
 725 02e6 0533     		adds	r3, r3, #5
 726 02e8 DA41     		rors	r2, r2, r3
 727 02ea 9046     		mov	r8, r2
 728              	.LVL88:
 729 02ec 4A46     		mov	r2, r9
 730 02ee 4346     		mov	r3, r8
 731 02f0 5A40     		eors	r2, r3
 732 02f2 9146     		mov	r9, r2
 733 02f4 0200     		movs	r2, r0
 734 02f6 1923     		movs	r3, #25
 735 02f8 DA41     		rors	r2, r2, r3
 736 02fa 9046     		mov	r8, r2
 737 02fc 4A46     		mov	r2, r9
 738 02fe 4346     		mov	r3, r8
 739 0300 5A40     		eors	r2, r3
 740 0302 9046     		mov	r8, r2
 741 0304 B844     		add	r8, r8, r7
 742 0306 3700     		movs	r7, r6
 743 0308 019D     		ldr	r5, [sp, #4]
ARM GAS  C:\Users\Phuong\AppData\Local\Temp\ccuEFeTd.s 			page 18


 744 030a 6F40     		eors	r7, r5
 745 030c 0740     		ands	r7, r0
 746 030e 7740     		eors	r7, r6
 747 0310 4744     		add	r7, r7, r8
 748 0312 0522     		movs	r2, #5
 749 0314 5244     		add	r2, r2, r10
 750 0316 9300     		lsls	r3, r2, #2
 751 0318 9B46     		mov	fp, r3
 752              	.LVL89:
 753 031a 6346     		mov	r3, ip
 754 031c 5A46     		mov	r2, fp
 755 031e D358     		ldr	r3, [r2, r3]
 756 0320 9846     		mov	r8, r3
 757 0322 4744     		add	r7, r7, r8
 758 0324 0CAB     		add	r3, sp, #48
 759 0326 2025     		movs	r5, #32
 760 0328 5B19     		adds	r3, r3, r5
 761 032a 9B58     		ldr	r3, [r3, r2]
 762 032c 9846     		mov	r8, r3
 763 032e B844     		add	r8, r8, r7
 764              	.LVL90:
 765 0330 0A00     		movs	r2, r1
 766 0332 0223     		movs	r3, #2
 767              	.LVL91:
 768 0334 DA41     		rors	r2, r2, r3
 769 0336 0F00     		movs	r7, r1
 770 0338 0B33     		adds	r3, r3, #11
 771              	.LVL92:
 772 033a DF41     		rors	r7, r7, r3
 773 033c 5740     		eors	r7, r2
 774 033e 0A00     		movs	r2, r1
 775 0340 1623     		movs	r3, #22
 776              	.LVL93:
 777 0342 DA41     		rors	r2, r2, r3
 778 0344 7A40     		eors	r2, r7
 779 0346 9146     		mov	r9, r2
 780 0348 0A00     		movs	r2, r1
 781 034a 2240     		ands	r2, r4
 782 034c 2700     		movs	r7, r4
 783 034e 0F43     		orrs	r7, r1
 784 0350 009B     		ldr	r3, [sp]
 785              	.LVL94:
 786 0352 1F40     		ands	r7, r3
 787 0354 1743     		orrs	r7, r2
 788 0356 4F44     		add	r7, r7, r9
 789              	.LVL95:
 790 0358 029A     		ldr	r2, [sp, #8]
 791 035a 4244     		add	r2, r2, r8
 792 035c 1292     		str	r2, [sp, #72]
 793 035e 4744     		add	r7, r7, r8
 794              	.LVL96:
 795 0360 0E97     		str	r7, [sp, #56]
 223:Source\mbedtls_open\library/sha256.c ****         P( A[2], A[3], A[4], A[5], A[6], A[7], A[0], A[1], W[i+6], K[i+6] );
 796              		.loc 1 223 0 discriminator 3
 797 0362 1500     		movs	r5, r2
 798 0364 0623     		movs	r3, #6
 799 0366 DD41     		rors	r5, r5, r3
ARM GAS  C:\Users\Phuong\AppData\Local\Temp\ccuEFeTd.s 			page 19


 800 0368 A946     		mov	r9, r5
 801              	.LVL97:
 802 036a 1500     		movs	r5, r2
 803 036c 0533     		adds	r3, r3, #5
 804 036e DD41     		rors	r5, r5, r3
 805 0370 A846     		mov	r8, r5
 806              	.LVL98:
 807 0372 4D46     		mov	r5, r9
 808 0374 4346     		mov	r3, r8
 809 0376 5D40     		eors	r5, r3
 810 0378 A946     		mov	r9, r5
 811 037a 0292     		str	r2, [sp, #8]
 812 037c 1500     		movs	r5, r2
 813 037e 1923     		movs	r3, #25
 814 0380 DD41     		rors	r5, r5, r3
 815 0382 A846     		mov	r8, r5
 816 0384 4D46     		mov	r5, r9
 817 0386 4346     		mov	r3, r8
 818 0388 5D40     		eors	r5, r3
 819 038a A846     		mov	r8, r5
 820 038c B044     		add	r8, r8, r6
 821 038e 019A     		ldr	r2, [sp, #4]
 822 0390 1600     		movs	r6, r2
 823 0392 4640     		eors	r6, r0
 824 0394 029D     		ldr	r5, [sp, #8]
 825 0396 2E40     		ands	r6, r5
 826 0398 5640     		eors	r6, r2
 827 039a 4644     		add	r6, r6, r8
 828 039c 0625     		movs	r5, #6
 829 039e 5544     		add	r5, r5, r10
 830 03a0 AB00     		lsls	r3, r5, #2
 831 03a2 9B46     		mov	fp, r3
 832 03a4 6346     		mov	r3, ip
 833 03a6 5D46     		mov	r5, fp
 834 03a8 EB58     		ldr	r3, [r5, r3]
 835 03aa 9846     		mov	r8, r3
 836 03ac 4644     		add	r6, r6, r8
 837 03ae 0CAB     		add	r3, sp, #48
 838 03b0 2022     		movs	r2, #32
 839 03b2 9B18     		adds	r3, r3, r2
 840 03b4 5B59     		ldr	r3, [r3, r5]
 841 03b6 9846     		mov	r8, r3
 842 03b8 B044     		add	r8, r8, r6
 843              	.LVL99:
 844 03ba 3D00     		movs	r5, r7
 845 03bc 0223     		movs	r3, #2
 846              	.LVL100:
 847 03be DD41     		rors	r5, r5, r3
 848 03c0 3E00     		movs	r6, r7
 849 03c2 0B33     		adds	r3, r3, #11
 850              	.LVL101:
 851 03c4 DE41     		rors	r6, r6, r3
 852 03c6 6E40     		eors	r6, r5
 853 03c8 3D00     		movs	r5, r7
 854 03ca 1623     		movs	r3, #22
 855              	.LVL102:
 856 03cc DD41     		rors	r5, r5, r3
ARM GAS  C:\Users\Phuong\AppData\Local\Temp\ccuEFeTd.s 			page 20


 857 03ce 7540     		eors	r5, r6
 858 03d0 A946     		mov	r9, r5
 859 03d2 3D00     		movs	r5, r7
 860 03d4 0D40     		ands	r5, r1
 861 03d6 0E00     		movs	r6, r1
 862 03d8 3E43     		orrs	r6, r7
 863 03da 2640     		ands	r6, r4
 864 03dc 2E43     		orrs	r6, r5
 865 03de 4E44     		add	r6, r6, r9
 866              	.LVL103:
 867 03e0 009B     		ldr	r3, [sp]
 868 03e2 4344     		add	r3, r3, r8
 869 03e4 1193     		str	r3, [sp, #68]
 870 03e6 4644     		add	r6, r6, r8
 871              	.LVL104:
 872 03e8 0D96     		str	r6, [sp, #52]
 224:Source\mbedtls_open\library/sha256.c ****         P( A[1], A[2], A[3], A[4], A[5], A[6], A[7], A[0], W[i+7], K[i+7] );
 873              		.loc 1 224 0 discriminator 3
 874 03ea 1D00     		movs	r5, r3
 875              	.LVL105:
 876 03ec 1A3A     		subs	r2, r2, #26
 877 03ee D541     		rors	r5, r5, r2
 878 03f0 A846     		mov	r8, r5
 879              	.LVL106:
 880 03f2 1D00     		movs	r5, r3
 881 03f4 0532     		adds	r2, r2, #5
 882 03f6 D541     		rors	r5, r5, r2
 883 03f8 A946     		mov	r9, r5
 884              	.LVL107:
 885 03fa 4546     		mov	r5, r8
 886 03fc 4A46     		mov	r2, r9
 887 03fe 5540     		eors	r5, r2
 888 0400 A846     		mov	r8, r5
 889 0402 1D00     		movs	r5, r3
 890 0404 1922     		movs	r2, #25
 891 0406 D541     		rors	r5, r5, r2
 892 0408 A946     		mov	r9, r5
 893 040a 4546     		mov	r5, r8
 894 040c 4A46     		mov	r2, r9
 895 040e 5540     		eors	r5, r2
 896 0410 A846     		mov	r8, r5
 897 0412 019A     		ldr	r2, [sp, #4]
 898 0414 1500     		movs	r5, r2
 899 0416 4544     		add	r5, r5, r8
 900 0418 029A     		ldr	r2, [sp, #8]
 901 041a 4240     		eors	r2, r0
 902 041c 1A40     		ands	r2, r3
 903 041e 5040     		eors	r0, r2
 904 0420 2D18     		adds	r5, r5, r0
 905 0422 5346     		mov	r3, r10
 906 0424 0733     		adds	r3, r3, #7
 907 0426 9B00     		lsls	r3, r3, #2
 908 0428 6246     		mov	r2, ip
 909 042a 9858     		ldr	r0, [r3, r2]
 910 042c 2D18     		adds	r5, r5, r0
 911 042e 0CAA     		add	r2, sp, #48
 912 0430 2020     		movs	r0, #32
ARM GAS  C:\Users\Phuong\AppData\Local\Temp\ccuEFeTd.s 			page 21


 913 0432 1218     		adds	r2, r2, r0
 914 0434 D058     		ldr	r0, [r2, r3]
 915 0436 2818     		adds	r0, r5, r0
 916              	.LVL108:
 917 0438 3500     		movs	r5, r6
 918 043a 0223     		movs	r3, #2
 919              	.LVL109:
 920 043c DD41     		rors	r5, r5, r3
 921 043e 3300     		movs	r3, r6
 922              	.LVL110:
 923 0440 0D22     		movs	r2, #13
 924 0442 D341     		rors	r3, r3, r2
 925 0444 5D40     		eors	r5, r3
 926 0446 3300     		movs	r3, r6
 927 0448 0932     		adds	r2, r2, #9
 928 044a D341     		rors	r3, r3, r2
 929 044c 5D40     		eors	r5, r3
 930 044e 3300     		movs	r3, r6
 931 0450 3B40     		ands	r3, r7
 932 0452 3E43     		orrs	r6, r7
 933 0454 0E40     		ands	r6, r1
 934 0456 3343     		orrs	r3, r6
 935 0458 E918     		adds	r1, r5, r3
 936              	.LVL111:
 937 045a 2418     		adds	r4, r4, r0
 938 045c 1094     		str	r4, [sp, #64]
 939 045e 4518     		adds	r5, r0, r1
 940 0460 0C95     		str	r5, [sp, #48]
 215:Source\mbedtls_open\library/sha256.c ****     {
 941              		.loc 1 215 0 discriminator 3
 942 0462 0823     		movs	r3, #8
 943 0464 9C46     		mov	ip, r3
 944 0466 E244     		add	r10, r10, ip
 945              	.LVL112:
 946              	.L16:
 215:Source\mbedtls_open\library/sha256.c ****     {
 947              		.loc 1 215 0 is_stmt 0 discriminator 1
 948 0468 5346     		mov	r3, r10
 949 046a 0F2B     		cmp	r3, #15
 950 046c 00D8     		bhi	.LCB949
 951 046e F1E5     		b	.L17	@long jump
 952              	.LCB949:
 953 0470 1023     		movs	r3, #16
 954 0472 0093     		str	r3, [sp]
 955 0474 47E3     		b	.L18
 956              	.L23:
 957 0476 C046     		.align	2
 958              	.L22:
 959 0478 00000000 		.word	.LANCHOR0
 960              	.LVL113:
 961              	.L19:
 225:Source\mbedtls_open\library/sha256.c ****     }
 226:Source\mbedtls_open\library/sha256.c **** 
 227:Source\mbedtls_open\library/sha256.c ****     for( i = 16; i < 64; i += 8 )
 228:Source\mbedtls_open\library/sha256.c ****     {
 229:Source\mbedtls_open\library/sha256.c ****         P( A[0], A[1], A[2], A[3], A[4], A[5], A[6], A[7], R(i+0), K[i+0] );
 962              		.loc 1 229 0 is_stmt 1 discriminator 3
ARM GAS  C:\Users\Phuong\AppData\Local\Temp\ccuEFeTd.s 			page 22


 963 047c 139B     		ldr	r3, [sp, #76]
 964              	.LVL114:
 965 047e 0193     		str	r3, [sp, #4]
 966 0480 109B     		ldr	r3, [sp, #64]
 967 0482 1C00     		movs	r4, r3
 968 0484 0622     		movs	r2, #6
 969 0486 D441     		rors	r4, r4, r2
 970 0488 1A00     		movs	r2, r3
 971 048a 0B21     		movs	r1, #11
 972 048c CB41     		rors	r3, r3, r1
 973 048e 5C40     		eors	r4, r3
 974 0490 1300     		movs	r3, r2
 975 0492 0E31     		adds	r1, r1, #14
 976 0494 CB41     		rors	r3, r3, r1
 977 0496 5C40     		eors	r4, r3
 978 0498 019B     		ldr	r3, [sp, #4]
 979 049a 9C46     		mov	ip, r3
 980 049c 6444     		add	r4, r4, ip
 981 049e 119B     		ldr	r3, [sp, #68]
 982 04a0 1299     		ldr	r1, [sp, #72]
 983 04a2 0393     		str	r3, [sp, #12]
 984 04a4 4B40     		eors	r3, r1
 985 04a6 1340     		ands	r3, r2
 986 04a8 0191     		str	r1, [sp, #4]
 987 04aa 4B40     		eors	r3, r1
 988 04ac E418     		adds	r4, r4, r3
 989 04ae 009B     		ldr	r3, [sp]
 990 04b0 9800     		lsls	r0, r3, #2
 991 04b2 FE4D     		ldr	r5, .L24
 992 04b4 0490     		str	r0, [sp, #16]
 993 04b6 4559     		ldr	r5, [r0, r5]
 994 04b8 6719     		adds	r7, r4, r5
 995 04ba 1800     		movs	r0, r3
 996 04bc 991E     		subs	r1, r3, #2
 997 04be 14AB     		add	r3, sp, #80
 998 04c0 8D00     		lsls	r5, r1, #2
 999 04c2 0795     		str	r5, [sp, #28]
 1000 04c4 ED58     		ldr	r5, [r5, r3]
 1001 04c6 2C00     		movs	r4, r5
 1002 04c8 1126     		movs	r6, #17
 1003 04ca F441     		rors	r4, r4, r6
 1004 04cc 2E00     		movs	r6, r5
 1005 04ce 1321     		movs	r1, #19
 1006 04d0 CE41     		rors	r6, r6, r1
 1007 04d2 3100     		movs	r1, r6
 1008 04d4 6140     		eors	r1, r4
 1009 04d6 AD0A     		lsrs	r5, r5, #10
 1010 04d8 6940     		eors	r1, r5
 1011 04da 0400     		movs	r4, r0
 1012 04dc 0738     		subs	r0, r0, #7
 1013 04de 8000     		lsls	r0, r0, #2
 1014 04e0 C558     		ldr	r5, [r0, r3]
 1015 04e2 4D19     		adds	r5, r1, r5
 1016 04e4 0094     		str	r4, [sp]
 1017              	.LVL115:
 1018 04e6 2600     		movs	r6, r4
 1019 04e8 0F3E     		subs	r6, r6, #15
ARM GAS  C:\Users\Phuong\AppData\Local\Temp\ccuEFeTd.s 			page 23


 1020 04ea B100     		lsls	r1, r6, #2
 1021 04ec 8846     		mov	r8, r1
 1022 04ee C958     		ldr	r1, [r1, r3]
 1023 04f0 0C00     		movs	r4, r1
 1024 04f2 0720     		movs	r0, #7
 1025 04f4 C441     		rors	r4, r4, r0
 1026 04f6 0800     		movs	r0, r1
 1027 04f8 1226     		movs	r6, #18
 1028 04fa F041     		rors	r0, r0, r6
 1029 04fc 6040     		eors	r0, r4
 1030 04fe C908     		lsrs	r1, r1, #3
 1031 0500 4840     		eors	r0, r1
 1032 0502 2D18     		adds	r5, r5, r0
 1033 0504 0099     		ldr	r1, [sp]
 1034 0506 1039     		subs	r1, r1, #16
 1035 0508 8900     		lsls	r1, r1, #2
 1036 050a CC58     		ldr	r4, [r1, r3]
 1037 050c 2C19     		adds	r4, r5, r4
 1038 050e 0498     		ldr	r0, [sp, #16]
 1039 0510 C450     		str	r4, [r0, r3]
 1040 0512 3C19     		adds	r4, r7, r4
 1041              	.LVL116:
 1042 0514 0C9F     		ldr	r7, [sp, #48]
 1043 0516 103E     		subs	r6, r6, #16
 1044 0518 F741     		rors	r7, r7, r6
 1045 051a 3D00     		movs	r5, r7
 1046 051c 0C9F     		ldr	r7, [sp, #48]
 1047 051e 0B36     		adds	r6, r6, #11
 1048 0520 F741     		rors	r7, r7, r6
 1049 0522 7D40     		eors	r5, r7
 1050 0524 0C9F     		ldr	r7, [sp, #48]
 1051 0526 0936     		adds	r6, r6, #9
 1052 0528 F741     		rors	r7, r7, r6
 1053 052a 7D40     		eors	r5, r7
 1054 052c 0D9F     		ldr	r7, [sp, #52]
 1055 052e 0C99     		ldr	r1, [sp, #48]
 1056 0530 3940     		ands	r1, r7
 1057 0532 0800     		movs	r0, r1
 1058 0534 0E99     		ldr	r1, [sp, #56]
 1059 0536 0E00     		movs	r6, r1
 1060 0538 0C99     		ldr	r1, [sp, #48]
 1061 053a 0297     		str	r7, [sp, #8]
 1062 053c 3943     		orrs	r1, r7
 1063 053e 0596     		str	r6, [sp, #20]
 1064 0540 3140     		ands	r1, r6
 1065 0542 0843     		orrs	r0, r1
 1066 0544 2818     		adds	r0, r5, r0
 1067              	.LVL117:
 1068 0546 0F9E     		ldr	r6, [sp, #60]
 1069 0548 A519     		adds	r5, r4, r6
 1070 054a A146     		mov	r9, r4
 1071 054c 8144     		add	r9, r9, r0
 230:Source\mbedtls_open\library/sha256.c ****         P( A[7], A[0], A[1], A[2], A[3], A[4], A[5], A[6], R(i+1), K[i+1] );
 1072              		.loc 1 230 0 discriminator 3
 1073 054e 2C00     		movs	r4, r5
 1074              	.LVL118:
 1075 0550 0626     		movs	r6, #6
ARM GAS  C:\Users\Phuong\AppData\Local\Temp\ccuEFeTd.s 			page 24


 1076              	.LVL119:
 1077 0552 F441     		rors	r4, r4, r6
 1078 0554 2000     		movs	r0, r4
 1079              	.LVL120:
 1080 0556 2900     		movs	r1, r5
 1081              	.LVL121:
 1082 0558 0B24     		movs	r4, #11
 1083              	.LVL122:
 1084 055a E141     		rors	r1, r1, r4
 1085 055c 4840     		eors	r0, r1
 1086 055e 2900     		movs	r1, r5
 1087 0560 0E34     		adds	r4, r4, #14
 1088              	.LVL123:
 1089 0562 E141     		rors	r1, r1, r4
 1090 0564 4840     		eors	r0, r1
 1091 0566 019C     		ldr	r4, [sp, #4]
 1092              	.LVL124:
 1093 0568 2418     		adds	r4, r4, r0
 1094 056a 0399     		ldr	r1, [sp, #12]
 1095 056c 0800     		movs	r0, r1
 1096 056e 5040     		eors	r0, r2
 1097 0570 0195     		str	r5, [sp, #4]
 1098 0572 2840     		ands	r0, r5
 1099 0574 4140     		eors	r1, r0
 1100 0576 6018     		adds	r0, r4, r1
 1101 0578 009F     		ldr	r7, [sp]
 1102              	.LVL125:
 1103 057a 791C     		adds	r1, r7, #1
 1104 057c 8C00     		lsls	r4, r1, #2
 1105 057e A246     		mov	r10, r4
 1106 0580 CA4C     		ldr	r4, .L24
 1107              	.LVL126:
 1108 0582 5646     		mov	r6, r10
 1109              	.LVL127:
 1110 0584 3459     		ldr	r4, [r6, r4]
 1111              	.LVL128:
 1112 0586 A446     		mov	ip, r4
 1113              	.LVL129:
 1114 0588 6044     		add	r0, r0, ip
 1115 058a 791E     		subs	r1, r7, #1
 1116 058c 8C00     		lsls	r4, r1, #2
 1117 058e 0894     		str	r4, [sp, #32]
 1118 0590 E558     		ldr	r5, [r4, r3]
 1119 0592 2C00     		movs	r4, r5
 1120 0594 1126     		movs	r6, #17
 1121 0596 F441     		rors	r4, r4, r6
 1122 0598 2900     		movs	r1, r5
 1123 059a 0236     		adds	r6, r6, #2
 1124 059c F141     		rors	r1, r1, r6
 1125 059e 6140     		eors	r1, r4
 1126 05a0 AD0A     		lsrs	r5, r5, #10
 1127 05a2 6940     		eors	r1, r5
 1128 05a4 3C00     		movs	r4, r7
 1129 05a6 063C     		subs	r4, r4, #6
 1130 05a8 A400     		lsls	r4, r4, #2
 1131 05aa E558     		ldr	r5, [r4, r3]
 1132 05ac 4D19     		adds	r5, r1, r5
ARM GAS  C:\Users\Phuong\AppData\Local\Temp\ccuEFeTd.s 			page 25


 1133 05ae 0097     		str	r7, [sp]
 1134 05b0 3C00     		movs	r4, r7
 1135 05b2 0E3C     		subs	r4, r4, #14
 1136 05b4 A600     		lsls	r6, r4, #2
 1137 05b6 B446     		mov	ip, r6
 1138 05b8 F158     		ldr	r1, [r6, r3]
 1139 05ba 0C00     		movs	r4, r1
 1140 05bc 0726     		movs	r6, #7
 1141 05be F441     		rors	r4, r4, r6
 1142 05c0 A346     		mov	fp, r4
 1143 05c2 0C00     		movs	r4, r1
 1144 05c4 0B36     		adds	r6, r6, #11
 1145 05c6 F441     		rors	r4, r4, r6
 1146 05c8 5E46     		mov	r6, fp
 1147 05ca 7440     		eors	r4, r6
 1148 05cc C908     		lsrs	r1, r1, #3
 1149 05ce 4C40     		eors	r4, r1
 1150 05d0 2C19     		adds	r4, r5, r4
 1151 05d2 4146     		mov	r1, r8
 1152 05d4 CD58     		ldr	r5, [r1, r3]
 1153 05d6 6419     		adds	r4, r4, r5
 1154 05d8 5646     		mov	r6, r10
 1155 05da F450     		str	r4, [r6, r3]
 1156              	.LVL130:
 1157 05dc 0019     		adds	r0, r0, r4
 1158              	.LVL131:
 1159 05de 4E46     		mov	r6, r9
 1160 05e0 0224     		movs	r4, #2
 1161 05e2 E641     		rors	r6, r6, r4
 1162 05e4 3400     		movs	r4, r6
 1163 05e6 4E46     		mov	r6, r9
 1164 05e8 0D27     		movs	r7, #13
 1165 05ea FE41     		rors	r6, r6, r7
 1166 05ec 3100     		movs	r1, r6
 1167 05ee 6140     		eors	r1, r4
 1168 05f0 4E46     		mov	r6, r9
 1169 05f2 1624     		movs	r4, #22
 1170 05f4 E641     		rors	r6, r6, r4
 1171 05f6 7140     		eors	r1, r6
 1172 05f8 0C9E     		ldr	r6, [sp, #48]
 1173 05fa 4C46     		mov	r4, r9
 1174 05fc 2640     		ands	r6, r4
 1175 05fe 3400     		movs	r4, r6
 1176 0600 0C9E     		ldr	r6, [sp, #48]
 1177 0602 4F46     		mov	r7, r9
 1178 0604 3E43     		orrs	r6, r7
 1179 0606 029D     		ldr	r5, [sp, #8]
 1180 0608 2E40     		ands	r6, r5
 1181 060a 3443     		orrs	r4, r6
 1182 060c 0C19     		adds	r4, r1, r4
 1183              	.LVL132:
 1184 060e 059E     		ldr	r6, [sp, #20]
 1185 0610 3118     		adds	r1, r6, r0
 1186 0612 8346     		mov	fp, r0
 1187 0614 A344     		add	fp, fp, r4
 231:Source\mbedtls_open\library/sha256.c ****         P( A[6], A[7], A[0], A[1], A[2], A[3], A[4], A[5], R(i+2), K[i+2] );
 1188              		.loc 1 231 0 discriminator 3
ARM GAS  C:\Users\Phuong\AppData\Local\Temp\ccuEFeTd.s 			page 26


 1189 0616 0E00     		movs	r6, r1
 1190 0618 0627     		movs	r7, #6
 1191 061a FE41     		rors	r6, r6, r7
 1192 061c 3400     		movs	r4, r6
 1193              	.LVL133:
 1194 061e 0800     		movs	r0, r1
 1195              	.LVL134:
 1196 0620 0E00     		movs	r6, r1
 1197 0622 0537     		adds	r7, r7, #5
 1198              	.LVL135:
 1199 0624 FE41     		rors	r6, r6, r7
 1200 0626 7440     		eors	r4, r6
 1201 0628 0290     		str	r0, [sp, #8]
 1202 062a 0600     		movs	r6, r0
 1203 062c 0E37     		adds	r7, r7, #14
 1204 062e FE41     		rors	r6, r6, r7
 1205 0630 7440     		eors	r4, r6
 1206 0632 0399     		ldr	r1, [sp, #12]
 1207 0634 0819     		adds	r0, r1, r4
 1208 0636 1400     		movs	r4, r2
 1209 0638 019F     		ldr	r7, [sp, #4]
 1210 063a 7C40     		eors	r4, r7
 1211 063c 0299     		ldr	r1, [sp, #8]
 1212 063e 0C40     		ands	r4, r1
 1213 0640 0392     		str	r2, [sp, #12]
 1214 0642 1100     		movs	r1, r2
 1215 0644 6140     		eors	r1, r4
 1216 0646 4418     		adds	r4, r0, r1
 1217 0648 0098     		ldr	r0, [sp]
 1218 064a 811C     		adds	r1, r0, #2
 1219 064c 8E00     		lsls	r6, r1, #2
 1220 064e 3200     		movs	r2, r6
 1221              	.LVL136:
 1222 0650 964F     		ldr	r7, .L24
 1223              	.LVL137:
 1224 0652 F659     		ldr	r6, [r6, r7]
 1225 0654 B046     		mov	r8, r6
 1226 0656 4444     		add	r4, r4, r8
 1227 0658 0498     		ldr	r0, [sp, #16]
 1228 065a C658     		ldr	r6, [r0, r3]
 1229 065c 3000     		movs	r0, r6
 1230 065e 1127     		movs	r7, #17
 1231              	.LVL138:
 1232 0660 F841     		rors	r0, r0, r7
 1233 0662 3100     		movs	r1, r6
 1234 0664 0237     		adds	r7, r7, #2
 1235 0666 F941     		rors	r1, r1, r7
 1236 0668 4140     		eors	r1, r0
 1237 066a B60A     		lsrs	r6, r6, #10
 1238 066c 7140     		eors	r1, r6
 1239 066e 009F     		ldr	r7, [sp]
 1240 0670 3800     		movs	r0, r7
 1241 0672 0538     		subs	r0, r0, #5
 1242 0674 8000     		lsls	r0, r0, #2
 1243 0676 C658     		ldr	r6, [r0, r3]
 1244 0678 8819     		adds	r0, r1, r6
 1245 067a 0590     		str	r0, [sp, #20]
ARM GAS  C:\Users\Phuong\AppData\Local\Temp\ccuEFeTd.s 			page 27


 1246 067c 3800     		movs	r0, r7
 1247 067e 0D38     		subs	r0, r0, #13
 1248 0680 8000     		lsls	r0, r0, #2
 1249 0682 C158     		ldr	r1, [r0, r3]
 1250 0684 0727     		movs	r7, #7
 1251 0686 F941     		rors	r1, r1, r7
 1252 0688 C758     		ldr	r7, [r0, r3]
 1253 068a 1226     		movs	r6, #18
 1254 068c F741     		rors	r7, r7, r6
 1255 068e 4F40     		eors	r7, r1
 1256 0690 C658     		ldr	r6, [r0, r3]
 1257 0692 F108     		lsrs	r1, r6, #3
 1258 0694 7940     		eors	r1, r7
 1259 0696 059E     		ldr	r6, [sp, #20]
 1260 0698 B046     		mov	r8, r6
 1261 069a 4144     		add	r1, r1, r8
 1262 069c 6646     		mov	r6, ip
 1263 069e F658     		ldr	r6, [r6, r3]
 1264 06a0 8919     		adds	r1, r1, r6
 1265 06a2 0692     		str	r2, [sp, #24]
 1266 06a4 D150     		str	r1, [r2, r3]
 1267              	.LVL139:
 1268 06a6 6418     		adds	r4, r4, r1
 1269              	.LVL140:
 1270 06a8 5E46     		mov	r6, fp
 1271 06aa 0222     		movs	r2, #2
 1272              	.LVL141:
 1273 06ac D641     		rors	r6, r6, r2
 1274 06ae 5A46     		mov	r2, fp
 1275              	.LVL142:
 1276 06b0 0D27     		movs	r7, #13
 1277              	.LVL143:
 1278 06b2 FA41     		rors	r2, r2, r7
 1279 06b4 5640     		eors	r6, r2
 1280 06b6 5A46     		mov	r2, fp
 1281 06b8 0937     		adds	r7, r7, #9
 1282              	.LVL144:
 1283 06ba FA41     		rors	r2, r2, r7
 1284 06bc 5640     		eors	r6, r2
 1285 06be 4A46     		mov	r2, r9
 1286 06c0 5F46     		mov	r7, fp
 1287 06c2 3A40     		ands	r2, r7
 1288 06c4 9446     		mov	ip, r2
 1289 06c6 4A46     		mov	r2, r9
 1290 06c8 3A43     		orrs	r2, r7
 1291 06ca 1100     		movs	r1, r2
 1292 06cc 0C9A     		ldr	r2, [sp, #48]
 1293 06ce 1140     		ands	r1, r2
 1294 06d0 6246     		mov	r2, ip
 1295 06d2 1143     		orrs	r1, r2
 1296 06d4 7118     		adds	r1, r6, r1
 1297              	.LVL145:
 1298 06d6 2D19     		adds	r5, r5, r4
 1299 06d8 6118     		adds	r1, r4, r1
 1300              	.LVL146:
 1301 06da 0A00     		movs	r2, r1
 1302              	.LVL147:
ARM GAS  C:\Users\Phuong\AppData\Local\Temp\ccuEFeTd.s 			page 28


 232:Source\mbedtls_open\library/sha256.c ****         P( A[5], A[6], A[7], A[0], A[1], A[2], A[3], A[4], R(i+3), K[i+3] );
 1303              		.loc 1 232 0 discriminator 3
 1304 06dc 2F00     		movs	r7, r5
 1305              	.LVL148:
 1306 06de 0626     		movs	r6, #6
 1307              	.LVL149:
 1308 06e0 F741     		rors	r7, r7, r6
 1309 06e2 3C00     		movs	r4, r7
 1310              	.LVL150:
 1311 06e4 2F00     		movs	r7, r5
 1312 06e6 0536     		adds	r6, r6, #5
 1313              	.LVL151:
 1314 06e8 F741     		rors	r7, r7, r6
 1315 06ea 3900     		movs	r1, r7
 1316 06ec 6140     		eors	r1, r4
 1317 06ee 2F00     		movs	r7, r5
 1318 06f0 0E36     		adds	r6, r6, #14
 1319              	.LVL152:
 1320 06f2 F741     		rors	r7, r7, r6
 1321 06f4 7940     		eors	r1, r7
 1322 06f6 039C     		ldr	r4, [sp, #12]
 1323 06f8 A446     		mov	ip, r4
 1324              	.LVL153:
 1325 06fa 6144     		add	r1, r1, ip
 1326 06fc 019F     		ldr	r7, [sp, #4]
 1327 06fe 029E     		ldr	r6, [sp, #8]
 1328              	.LVL154:
 1329 0700 7740     		eors	r7, r6
 1330 0702 3C00     		movs	r4, r7
 1331 0704 0395     		str	r5, [sp, #12]
 1332 0706 2C40     		ands	r4, r5
 1333 0708 019F     		ldr	r7, [sp, #4]
 1334 070a 7C40     		eors	r4, r7
 1335 070c 0919     		adds	r1, r1, r4
 1336 070e 009C     		ldr	r4, [sp]
 1337 0710 0334     		adds	r4, r4, #3
 1338 0712 A400     		lsls	r4, r4, #2
 1339 0714 2500     		movs	r5, r4
 1340 0716 654F     		ldr	r7, .L24
 1341              	.LVL155:
 1342 0718 E759     		ldr	r7, [r4, r7]
 1343              	.LVL156:
 1344 071a BC46     		mov	ip, r7
 1345 071c 8C44     		add	ip, ip, r1
 1346 071e 5746     		mov	r7, r10
 1347 0720 FC58     		ldr	r4, [r7, r3]
 1348 0722 2700     		movs	r7, r4
 1349 0724 1126     		movs	r6, #17
 1350 0726 F741     		rors	r7, r7, r6
 1351 0728 B846     		mov	r8, r7
 1352 072a 2100     		movs	r1, r4
 1353 072c 1327     		movs	r7, #19
 1354 072e F941     		rors	r1, r1, r7
 1355 0730 4746     		mov	r7, r8
 1356 0732 7940     		eors	r1, r7
 1357 0734 A40A     		lsrs	r4, r4, #10
 1358 0736 6140     		eors	r1, r4
ARM GAS  C:\Users\Phuong\AppData\Local\Temp\ccuEFeTd.s 			page 29


 1359 0738 009E     		ldr	r6, [sp]
 1360 073a 3400     		movs	r4, r6
 1361 073c 043C     		subs	r4, r4, #4
 1362 073e A400     		lsls	r4, r4, #2
 1363 0740 E458     		ldr	r4, [r4, r3]
 1364 0742 8846     		mov	r8, r1
 1365 0744 A044     		add	r8, r8, r4
 1366 0746 3700     		movs	r7, r6
 1367 0748 0C3F     		subs	r7, r7, #12
 1368 074a BC00     		lsls	r4, r7, #2
 1369 074c E758     		ldr	r7, [r4, r3]
 1370 074e 0726     		movs	r6, #7
 1371 0750 F741     		rors	r7, r7, r6
 1372 0752 BA46     		mov	r10, r7
 1373 0754 E158     		ldr	r1, [r4, r3]
 1374 0756 1227     		movs	r7, #18
 1375 0758 F941     		rors	r1, r1, r7
 1376 075a 5746     		mov	r7, r10
 1377 075c 4F40     		eors	r7, r1
 1378 075e BA46     		mov	r10, r7
 1379 0760 E758     		ldr	r7, [r4, r3]
 1380 0762 F908     		lsrs	r1, r7, #3
 1381 0764 5746     		mov	r7, r10
 1382 0766 7940     		eors	r1, r7
 1383 0768 4144     		add	r1, r1, r8
 1384 076a C058     		ldr	r0, [r0, r3]
 1385 076c 0918     		adds	r1, r1, r0
 1386 076e 0995     		str	r5, [sp, #36]
 1387 0770 E950     		str	r1, [r5, r3]
 1388              	.LVL157:
 1389 0772 6144     		add	r1, r1, ip
 1390              	.LVL158:
 1391 0774 1000     		movs	r0, r2
 1392 0776 0227     		movs	r7, #2
 1393              	.LVL159:
 1394 0778 F841     		rors	r0, r0, r7
 1395 077a 8446     		mov	ip, r0
 1396 077c 1600     		movs	r6, r2
 1397 077e 1000     		movs	r0, r2
 1398 0780 0B37     		adds	r7, r7, #11
 1399              	.LVL160:
 1400 0782 F841     		rors	r0, r0, r7
 1401 0784 6746     		mov	r7, ip
 1402 0786 7840     		eors	r0, r7
 1403 0788 1627     		movs	r7, #22
 1404 078a FA41     		rors	r2, r2, r7
 1405 078c 1700     		movs	r7, r2
 1406 078e 4740     		eors	r7, r0
 1407 0790 BC46     		mov	ip, r7
 1408 0792 5F46     		mov	r7, fp
 1409 0794 3200     		movs	r2, r6
 1410 0796 3740     		ands	r7, r6
 1411 0798 B846     		mov	r8, r7
 1412 079a 5F46     		mov	r7, fp
 1413 079c 3743     		orrs	r7, r6
 1414 079e 3800     		movs	r0, r7
 1415 07a0 4F46     		mov	r7, r9
ARM GAS  C:\Users\Phuong\AppData\Local\Temp\ccuEFeTd.s 			page 30


 1416 07a2 3840     		ands	r0, r7
 1417 07a4 4746     		mov	r7, r8
 1418 07a6 3843     		orrs	r0, r7
 1419 07a8 6044     		add	r0, r0, ip
 1420              	.LVL161:
 1421 07aa 0C9F     		ldr	r7, [sp, #48]
 1422 07ac BC46     		mov	ip, r7
 1423 07ae 8C44     		add	ip, ip, r1
 1424 07b0 6546     		mov	r5, ip
 1425 07b2 8A46     		mov	r10, r1
 1426 07b4 8244     		add	r10, r10, r0
 233:Source\mbedtls_open\library/sha256.c ****         P( A[4], A[5], A[6], A[7], A[0], A[1], A[2], A[3], R(i+4), K[i+4] );
 1427              		.loc 1 233 0 discriminator 3
 1428 07b6 6046     		mov	r0, ip
 1429              	.LVL162:
 1430 07b8 0627     		movs	r7, #6
 1431 07ba F841     		rors	r0, r0, r7
 1432 07bc 6146     		mov	r1, ip
 1433              	.LVL163:
 1434 07be 0537     		adds	r7, r7, #5
 1435              	.LVL164:
 1436 07c0 F941     		rors	r1, r1, r7
 1437 07c2 4840     		eors	r0, r1
 1438 07c4 6146     		mov	r1, ip
 1439 07c6 0E37     		adds	r7, r7, #14
 1440              	.LVL165:
 1441 07c8 F941     		rors	r1, r1, r7
 1442 07ca 4140     		eors	r1, r0
 1443 07cc 019F     		ldr	r7, [sp, #4]
 1444              	.LVL166:
 1445 07ce 7F18     		adds	r7, r7, r1
 1446 07d0 029E     		ldr	r6, [sp, #8]
 1447 07d2 3100     		movs	r1, r6
 1448 07d4 0398     		ldr	r0, [sp, #12]
 1449 07d6 4140     		eors	r1, r0
 1450 07d8 0595     		str	r5, [sp, #20]
 1451 07da 2940     		ands	r1, r5
 1452 07dc 7140     		eors	r1, r6
 1453 07de 7918     		adds	r1, r7, r1
 1454 07e0 0098     		ldr	r0, [sp]
 1455 07e2 0430     		adds	r0, r0, #4
 1456 07e4 8700     		lsls	r7, r0, #2
 1457 07e6 3D00     		movs	r5, r7
 1458 07e8 304E     		ldr	r6, .L24
 1459              	.LVL167:
 1460 07ea BF59     		ldr	r7, [r7, r6]
 1461 07ec BC46     		mov	ip, r7
 1462 07ee 0F00     		movs	r7, r1
 1463 07f0 6744     		add	r7, r7, ip
 1464 07f2 0197     		str	r7, [sp, #4]
 1465              	.LVL168:
 1466 07f4 069F     		ldr	r7, [sp, #24]
 1467 07f6 FF58     		ldr	r7, [r7, r3]
 1468 07f8 3800     		movs	r0, r7
 1469 07fa 1126     		movs	r6, #17
 1470 07fc F041     		rors	r0, r0, r6
 1471 07fe 8446     		mov	ip, r0
ARM GAS  C:\Users\Phuong\AppData\Local\Temp\ccuEFeTd.s 			page 31


 1472 0800 3800     		movs	r0, r7
 1473 0802 0236     		adds	r6, r6, #2
 1474 0804 F041     		rors	r0, r0, r6
 1475 0806 6646     		mov	r6, ip
 1476 0808 7040     		eors	r0, r6
 1477 080a BF0A     		lsrs	r7, r7, #10
 1478 080c 7840     		eors	r0, r7
 1479 080e 0099     		ldr	r1, [sp]
 1480 0810 CF1E     		subs	r7, r1, #3
 1481 0812 BF00     		lsls	r7, r7, #2
 1482 0814 FF58     		ldr	r7, [r7, r3]
 1483 0816 8446     		mov	ip, r0
 1484 0818 BC44     		add	ip, ip, r7
 1485 081a 0F00     		movs	r7, r1
 1486 081c 0B3F     		subs	r7, r7, #11
 1487 081e BF00     		lsls	r7, r7, #2
 1488 0820 F858     		ldr	r0, [r7, r3]
 1489 0822 0726     		movs	r6, #7
 1490 0824 F041     		rors	r0, r0, r6
 1491 0826 FE58     		ldr	r6, [r7, r3]
 1492 0828 1221     		movs	r1, #18
 1493 082a CE41     		rors	r6, r6, r1
 1494 082c 4640     		eors	r6, r0
 1495 082e B046     		mov	r8, r6
 1496              	.LVL169:
 1497 0830 FE58     		ldr	r6, [r7, r3]
 1498 0832 F008     		lsrs	r0, r6, #3
 1499 0834 4646     		mov	r6, r8
 1500 0836 7040     		eors	r0, r6
 1501 0838 6044     		add	r0, r0, ip
 1502 083a E458     		ldr	r4, [r4, r3]
 1503 083c 0019     		adds	r0, r0, r4
 1504 083e 0A95     		str	r5, [sp, #40]
 1505 0840 E850     		str	r0, [r5, r3]
 1506 0842 019C     		ldr	r4, [sp, #4]
 1507 0844 2118     		adds	r1, r4, r0
 1508              	.LVL170:
 1509 0846 5646     		mov	r6, r10
 1510 0848 0220     		movs	r0, #2
 1511              	.LVL171:
 1512 084a C641     		rors	r6, r6, r0
 1513 084c 3400     		movs	r4, r6
 1514 084e 5646     		mov	r6, r10
 1515 0850 0B30     		adds	r0, r0, #11
 1516              	.LVL172:
 1517 0852 C641     		rors	r6, r6, r0
 1518 0854 3000     		movs	r0, r6
 1519              	.LVL173:
 1520 0856 6040     		eors	r0, r4
 1521 0858 5646     		mov	r6, r10
 1522 085a 1624     		movs	r4, #22
 1523              	.LVL174:
 1524 085c E641     		rors	r6, r6, r4
 1525 085e 7040     		eors	r0, r6
 1526 0860 1400     		movs	r4, r2
 1527              	.LVL175:
 1528 0862 5646     		mov	r6, r10
ARM GAS  C:\Users\Phuong\AppData\Local\Temp\ccuEFeTd.s 			page 32


 1529 0864 3440     		ands	r4, r6
 1530 0866 A446     		mov	ip, r4
 1531 0868 1400     		movs	r4, r2
 1532 086a 3443     		orrs	r4, r6
 1533 086c 5E46     		mov	r6, fp
 1534 086e 3440     		ands	r4, r6
 1535 0870 6646     		mov	r6, ip
 1536 0872 3443     		orrs	r4, r6
 1537 0874 0419     		adds	r4, r0, r4
 1538              	.LVL176:
 1539 0876 4E46     		mov	r6, r9
 1540 0878 7018     		adds	r0, r6, r1
 1541 087a 1390     		str	r0, [sp, #76]
 1542 087c 0E19     		adds	r6, r1, r4
 1543 087e 0196     		str	r6, [sp, #4]
 1544 0880 0F96     		str	r6, [sp, #60]
 234:Source\mbedtls_open\library/sha256.c ****         P( A[3], A[4], A[5], A[6], A[7], A[0], A[1], A[2], R(i+5), K[i+5] );
 1545              		.loc 1 234 0 discriminator 3
 1546 0882 0600     		movs	r6, r0
 1547 0884 0621     		movs	r1, #6
 1548              	.LVL177:
 1549 0886 CE41     		rors	r6, r6, r1
 1550 0888 B446     		mov	ip, r6
 1551 088a 0600     		movs	r6, r0
 1552 088c 0531     		adds	r1, r1, #5
 1553 088e CE41     		rors	r6, r6, r1
 1554 0890 3400     		movs	r4, r6
 1555              	.LVL178:
 1556 0892 6646     		mov	r6, ip
 1557 0894 6640     		eors	r6, r4
 1558 0896 B446     		mov	ip, r6
 1559 0898 0600     		movs	r6, r0
 1560 089a 0E31     		adds	r1, r1, #14
 1561 089c CE41     		rors	r6, r6, r1
 1562 089e 3400     		movs	r4, r6
 1563 08a0 6646     		mov	r6, ip
 1564 08a2 7440     		eors	r4, r6
 1565 08a4 029D     		ldr	r5, [sp, #8]
 1566 08a6 2D19     		adds	r5, r5, r4
 1567 08a8 059C     		ldr	r4, [sp, #20]
 1568 08aa 01E0     		b	.L25
 1569              	.L26:
 1570              		.align	2
 1571              	.L24:
 1572 08ac 00000000 		.word	.LANCHOR0
 1573              	.L25:
 1574 08b0 0399     		ldr	r1, [sp, #12]
 1575 08b2 4C40     		eors	r4, r1
 1576 08b4 0440     		ands	r4, r0
 1577 08b6 4C40     		eors	r4, r1
 1578 08b8 2D19     		adds	r5, r5, r4
 1579 08ba 0099     		ldr	r1, [sp]
 1580 08bc 4C1D     		adds	r4, r1, #5
 1581 08be A400     		lsls	r4, r4, #2
 1582 08c0 9E4E     		ldr	r6, .L27
 1583 08c2 0694     		str	r4, [sp, #24]
 1584 08c4 A659     		ldr	r6, [r4, r6]
ARM GAS  C:\Users\Phuong\AppData\Local\Temp\ccuEFeTd.s 			page 33


 1585 08c6 B446     		mov	ip, r6
 1586 08c8 6544     		add	r5, r5, ip
 1587 08ca 099C     		ldr	r4, [sp, #36]
 1588 08cc E458     		ldr	r4, [r4, r3]
 1589 08ce 2600     		movs	r6, r4
 1590 08d0 1121     		movs	r1, #17
 1591 08d2 CE41     		rors	r6, r6, r1
 1592 08d4 B046     		mov	r8, r6
 1593 08d6 2600     		movs	r6, r4
 1594 08d8 0231     		adds	r1, r1, #2
 1595 08da CE41     		rors	r6, r6, r1
 1596 08dc B446     		mov	ip, r6
 1597 08de 4646     		mov	r6, r8
 1598 08e0 6146     		mov	r1, ip
 1599 08e2 4E40     		eors	r6, r1
 1600 08e4 A40A     		lsrs	r4, r4, #10
 1601 08e6 7440     		eors	r4, r6
 1602 08e8 0799     		ldr	r1, [sp, #28]
 1603 08ea C958     		ldr	r1, [r1, r3]
 1604 08ec 8846     		mov	r8, r1
 1605 08ee A044     		add	r8, r8, r4
 1606 08f0 0099     		ldr	r1, [sp]
 1607 08f2 0A39     		subs	r1, r1, #10
 1608 08f4 8900     		lsls	r1, r1, #2
 1609 08f6 8C46     		mov	ip, r1
 1610 08f8 C958     		ldr	r1, [r1, r3]
 1611 08fa 0726     		movs	r6, #7
 1612 08fc F141     		rors	r1, r1, r6
 1613 08fe 0C00     		movs	r4, r1
 1614 0900 6146     		mov	r1, ip
 1615 0902 C958     		ldr	r1, [r1, r3]
 1616 0904 0B36     		adds	r6, r6, #11
 1617 0906 F141     		rors	r1, r1, r6
 1618 0908 6140     		eors	r1, r4
 1619 090a 8946     		mov	r9, r1
 1620 090c 6146     		mov	r1, ip
 1621 090e C958     		ldr	r1, [r1, r3]
 1622 0910 CC08     		lsrs	r4, r1, #3
 1623 0912 4946     		mov	r1, r9
 1624 0914 4C40     		eors	r4, r1
 1625 0916 4444     		add	r4, r4, r8
 1626 0918 FF58     		ldr	r7, [r7, r3]
 1627 091a E419     		adds	r4, r4, r7
 1628 091c 069F     		ldr	r7, [sp, #24]
 1629 091e FC50     		str	r4, [r7, r3]
 1630 0920 2D19     		adds	r5, r5, r4
 1631              	.LVL179:
 1632 0922 019E     		ldr	r6, [sp, #4]
 1633 0924 3700     		movs	r7, r6
 1634 0926 0221     		movs	r1, #2
 1635              	.LVL180:
 1636 0928 CF41     		rors	r7, r7, r1
 1637 092a 3100     		movs	r1, r6
 1638              	.LVL181:
 1639 092c 0D26     		movs	r6, #13
 1640 092e F141     		rors	r1, r1, r6
 1641 0930 0C00     		movs	r4, r1
ARM GAS  C:\Users\Phuong\AppData\Local\Temp\ccuEFeTd.s 			page 34


 1642 0932 7C40     		eors	r4, r7
 1643 0934 019E     		ldr	r6, [sp, #4]
 1644 0936 3700     		movs	r7, r6
 1645 0938 1621     		movs	r1, #22
 1646              	.LVL182:
 1647 093a CF41     		rors	r7, r7, r1
 1648 093c 7C40     		eors	r4, r7
 1649 093e 5146     		mov	r1, r10
 1650              	.LVL183:
 1651 0940 3140     		ands	r1, r6
 1652 0942 5746     		mov	r7, r10
 1653 0944 3743     		orrs	r7, r6
 1654 0946 1740     		ands	r7, r2
 1655 0948 0F43     		orrs	r7, r1
 1656 094a E719     		adds	r7, r4, r7
 1657              	.LVL184:
 1658 094c 5946     		mov	r1, fp
 1659 094e 4C19     		adds	r4, r1, r5
 1660 0950 1294     		str	r4, [sp, #72]
 1661 0952 ED19     		adds	r5, r5, r7
 1662              	.LVL185:
 1663 0954 0E95     		str	r5, [sp, #56]
 235:Source\mbedtls_open\library/sha256.c ****         P( A[2], A[3], A[4], A[5], A[6], A[7], A[0], A[1], R(i+6), K[i+6] );
 1664              		.loc 1 235 0 discriminator 3
 1665 0956 2100     		movs	r1, r4
 1666 0958 0626     		movs	r6, #6
 1667              	.LVL186:
 1668 095a F141     		rors	r1, r1, r6
 1669 095c 8846     		mov	r8, r1
 1670 095e 2700     		movs	r7, r4
 1671              	.LVL187:
 1672 0960 0B21     		movs	r1, #11
 1673 0962 CF41     		rors	r7, r7, r1
 1674 0964 4146     		mov	r1, r8
 1675 0966 7940     		eors	r1, r7
 1676 0968 8846     		mov	r8, r1
 1677 096a 0294     		str	r4, [sp, #8]
 1678              	.LVL188:
 1679 096c 2700     		movs	r7, r4
 1680 096e 1921     		movs	r1, #25
 1681 0970 CF41     		rors	r7, r7, r1
 1682 0972 4146     		mov	r1, r8
 1683 0974 4F40     		eors	r7, r1
 1684 0976 039C     		ldr	r4, [sp, #12]
 1685 0978 E619     		adds	r6, r4, r7
 1686 097a 059C     		ldr	r4, [sp, #20]
 1687 097c 2700     		movs	r7, r4
 1688 097e 4740     		eors	r7, r0
 1689 0980 0299     		ldr	r1, [sp, #8]
 1690 0982 0F40     		ands	r7, r1
 1691 0984 6740     		eors	r7, r4
 1692 0986 F619     		adds	r6, r6, r7
 1693 0988 0099     		ldr	r1, [sp]
 1694 098a 8F1D     		adds	r7, r1, #6
 1695 098c BF00     		lsls	r7, r7, #2
 1696 098e 6B49     		ldr	r1, .L27
 1697 0990 7958     		ldr	r1, [r7, r1]
ARM GAS  C:\Users\Phuong\AppData\Local\Temp\ccuEFeTd.s 			page 35


 1698 0992 8846     		mov	r8, r1
 1699 0994 B044     		add	r8, r8, r6
 1700 0996 0A9E     		ldr	r6, [sp, #40]
 1701 0998 F158     		ldr	r1, [r6, r3]
 1702 099a 0391     		str	r1, [sp, #12]
 1703 099c 1126     		movs	r6, #17
 1704 099e F141     		rors	r1, r1, r6
 1705 09a0 8B46     		mov	fp, r1
 1706 09a2 0399     		ldr	r1, [sp, #12]
 1707 09a4 0236     		adds	r6, r6, #2
 1708 09a6 F141     		rors	r1, r1, r6
 1709 09a8 8946     		mov	r9, r1
 1710 09aa 5946     		mov	r1, fp
 1711 09ac 4E46     		mov	r6, r9
 1712 09ae 7140     		eors	r1, r6
 1713 09b0 8946     		mov	r9, r1
 1714 09b2 0399     		ldr	r1, [sp, #12]
 1715 09b4 8E0A     		lsrs	r6, r1, #10
 1716 09b6 4946     		mov	r1, r9
 1717 09b8 4E40     		eors	r6, r1
 1718 09ba 0899     		ldr	r1, [sp, #32]
 1719 09bc C958     		ldr	r1, [r1, r3]
 1720 09be 8946     		mov	r9, r1
 1721 09c0 B144     		add	r9, r9, r6
 1722 09c2 009E     		ldr	r6, [sp]
 1723 09c4 093E     		subs	r6, r6, #9
 1724 09c6 B100     		lsls	r1, r6, #2
 1725 09c8 8B46     		mov	fp, r1
 1726 09ca CE58     		ldr	r6, [r1, r3]
 1727 09cc 0721     		movs	r1, #7
 1728 09ce CE41     		rors	r6, r6, r1
 1729 09d0 0396     		str	r6, [sp, #12]
 1730 09d2 5E46     		mov	r6, fp
 1731 09d4 F658     		ldr	r6, [r6, r3]
 1732 09d6 0B31     		adds	r1, r1, #11
 1733 09d8 CE41     		rors	r6, r6, r1
 1734 09da 0399     		ldr	r1, [sp, #12]
 1735 09dc 7140     		eors	r1, r6
 1736 09de 5E46     		mov	r6, fp
 1737 09e0 F658     		ldr	r6, [r6, r3]
 1738 09e2 F608     		lsrs	r6, r6, #3
 1739 09e4 4E40     		eors	r6, r1
 1740 09e6 4E44     		add	r6, r6, r9
 1741 09e8 6146     		mov	r1, ip
 1742 09ea C958     		ldr	r1, [r1, r3]
 1743 09ec 8946     		mov	r9, r1
 1744 09ee 4E44     		add	r6, r6, r9
 1745 09f0 FE50     		str	r6, [r7, r3]
 1746 09f2 B146     		mov	r9, r6
 1747 09f4 C144     		add	r9, r9, r8
 1748              	.LVL189:
 1749 09f6 2900     		movs	r1, r5
 1750 09f8 0227     		movs	r7, #2
 1751              	.LVL190:
 1752 09fa F941     		rors	r1, r1, r7
 1753 09fc 8C46     		mov	ip, r1
 1754 09fe 2900     		movs	r1, r5
ARM GAS  C:\Users\Phuong\AppData\Local\Temp\ccuEFeTd.s 			page 36


 1755 0a00 0B37     		adds	r7, r7, #11
 1756              	.LVL191:
 1757 0a02 F941     		rors	r1, r1, r7
 1758 0a04 0F00     		movs	r7, r1
 1759 0a06 6146     		mov	r1, ip
 1760 0a08 4F40     		eors	r7, r1
 1761 0a0a 2900     		movs	r1, r5
 1762 0a0c 1626     		movs	r6, #22
 1763              	.LVL192:
 1764 0a0e F141     		rors	r1, r1, r6
 1765 0a10 7940     		eors	r1, r7
 1766 0a12 8C46     		mov	ip, r1
 1767 0a14 2900     		movs	r1, r5
 1768 0a16 019E     		ldr	r6, [sp, #4]
 1769              	.LVL193:
 1770 0a18 3140     		ands	r1, r6
 1771 0a1a 8846     		mov	r8, r1
 1772 0a1c 3100     		movs	r1, r6
 1773 0a1e 2943     		orrs	r1, r5
 1774 0a20 0F00     		movs	r7, r1
 1775 0a22 5146     		mov	r1, r10
 1776 0a24 0F40     		ands	r7, r1
 1777 0a26 4146     		mov	r1, r8
 1778 0a28 0F43     		orrs	r7, r1
 1779 0a2a BC44     		add	ip, ip, r7
 1780              	.LVL194:
 1781 0a2c 1700     		movs	r7, r2
 1782 0a2e 4F44     		add	r7, r7, r9
 1783 0a30 1197     		str	r7, [sp, #68]
 1784 0a32 E144     		add	r9, r9, ip
 1785              	.LVL195:
 1786 0a34 4E46     		mov	r6, r9
 1787 0a36 0D96     		str	r6, [sp, #52]
 236:Source\mbedtls_open\library/sha256.c ****         P( A[1], A[2], A[3], A[4], A[5], A[6], A[7], A[0], R(i+7), K[i+7] );
 1788              		.loc 1 236 0 discriminator 3
 1789 0a38 3900     		movs	r1, r7
 1790 0a3a 0622     		movs	r2, #6
 1791 0a3c D141     		rors	r1, r1, r2
 1792 0a3e 8846     		mov	r8, r1
 1793 0a40 3900     		movs	r1, r7
 1794 0a42 0532     		adds	r2, r2, #5
 1795 0a44 D141     		rors	r1, r1, r2
 1796 0a46 8C46     		mov	ip, r1
 1797              	.LVL196:
 1798 0a48 4146     		mov	r1, r8
 1799 0a4a 6246     		mov	r2, ip
 1800 0a4c 5140     		eors	r1, r2
 1801 0a4e 8846     		mov	r8, r1
 1802 0a50 3900     		movs	r1, r7
 1803 0a52 1922     		movs	r2, #25
 1804 0a54 D141     		rors	r1, r1, r2
 1805 0a56 8C46     		mov	ip, r1
 1806 0a58 4146     		mov	r1, r8
 1807 0a5a 6246     		mov	r2, ip
 1808 0a5c 5140     		eors	r1, r2
 1809 0a5e 8C46     		mov	ip, r1
 1810 0a60 A046     		mov	r8, r4
ARM GAS  C:\Users\Phuong\AppData\Local\Temp\ccuEFeTd.s 			page 37


 1811 0a62 C444     		add	ip, ip, r8
 1812 0a64 029C     		ldr	r4, [sp, #8]
 1813 0a66 4440     		eors	r4, r0
 1814 0a68 3C40     		ands	r4, r7
 1815 0a6a 4440     		eors	r4, r0
 1816 0a6c 6444     		add	r4, r4, ip
 1817 0a6e 009A     		ldr	r2, [sp]
 1818 0a70 D71D     		adds	r7, r2, #7
 1819 0a72 BF00     		lsls	r7, r7, #2
 1820 0a74 3149     		ldr	r1, .L27
 1821 0a76 7858     		ldr	r0, [r7, r1]
 1822 0a78 2018     		adds	r0, r4, r0
 1823 0a7a 069C     		ldr	r4, [sp, #24]
 1824 0a7c E458     		ldr	r4, [r4, r3]
 1825 0a7e 2100     		movs	r1, r4
 1826 0a80 1122     		movs	r2, #17
 1827 0a82 D141     		rors	r1, r1, r2
 1828 0a84 8846     		mov	r8, r1
 1829 0a86 2100     		movs	r1, r4
 1830 0a88 0232     		adds	r2, r2, #2
 1831 0a8a D141     		rors	r1, r1, r2
 1832 0a8c 8C46     		mov	ip, r1
 1833 0a8e 4146     		mov	r1, r8
 1834 0a90 6246     		mov	r2, ip
 1835 0a92 5140     		eors	r1, r2
 1836 0a94 A40A     		lsrs	r4, r4, #10
 1837 0a96 4C40     		eors	r4, r1
 1838 0a98 049A     		ldr	r2, [sp, #16]
 1839 0a9a D258     		ldr	r2, [r2, r3]
 1840 0a9c 9446     		mov	ip, r2
 1841 0a9e A444     		add	ip, ip, r4
 1842 0aa0 009C     		ldr	r4, [sp]
 1843 0aa2 083C     		subs	r4, r4, #8
 1844 0aa4 A400     		lsls	r4, r4, #2
 1845 0aa6 E458     		ldr	r4, [r4, r3]
 1846 0aa8 2200     		movs	r2, r4
 1847 0aaa 0721     		movs	r1, #7
 1848 0aac CA41     		rors	r2, r2, r1
 1849 0aae 9146     		mov	r9, r2
 1850 0ab0 2200     		movs	r2, r4
 1851 0ab2 0B31     		adds	r1, r1, #11
 1852 0ab4 CA41     		rors	r2, r2, r1
 1853 0ab6 9046     		mov	r8, r2
 1854 0ab8 4A46     		mov	r2, r9
 1855 0aba 4146     		mov	r1, r8
 1856 0abc 4A40     		eors	r2, r1
 1857 0abe E408     		lsrs	r4, r4, #3
 1858 0ac0 5440     		eors	r4, r2
 1859 0ac2 6444     		add	r4, r4, ip
 1860 0ac4 5A46     		mov	r2, fp
 1861 0ac6 D258     		ldr	r2, [r2, r3]
 1862 0ac8 9446     		mov	ip, r2
 1863 0aca 6444     		add	r4, r4, ip
 1864 0acc FC50     		str	r4, [r7, r3]
 1865 0ace 0419     		adds	r4, r0, r4
 1866              	.LVL197:
 1867 0ad0 3000     		movs	r0, r6
ARM GAS  C:\Users\Phuong\AppData\Local\Temp\ccuEFeTd.s 			page 38


 1868 0ad2 0223     		movs	r3, #2
 1869              	.LVL198:
 1870 0ad4 D841     		rors	r0, r0, r3
 1871 0ad6 3300     		movs	r3, r6
 1872              	.LVL199:
 1873 0ad8 0D22     		movs	r2, #13
 1874 0ada D341     		rors	r3, r3, r2
 1875 0adc 5840     		eors	r0, r3
 1876 0ade 3300     		movs	r3, r6
 1877 0ae0 0932     		adds	r2, r2, #9
 1878 0ae2 D341     		rors	r3, r3, r2
 1879 0ae4 5840     		eors	r0, r3
 1880 0ae6 3700     		movs	r7, r6
 1881 0ae8 2F40     		ands	r7, r5
 1882 0aea 2E43     		orrs	r6, r5
 1883 0aec 0199     		ldr	r1, [sp, #4]
 1884 0aee 0E40     		ands	r6, r1
 1885 0af0 3900     		movs	r1, r7
 1886 0af2 3143     		orrs	r1, r6
 1887 0af4 4118     		adds	r1, r0, r1
 1888              	.LVL200:
 1889 0af6 5346     		mov	r3, r10
 1890 0af8 1B19     		adds	r3, r3, r4
 1891 0afa 1093     		str	r3, [sp, #64]
 1892 0afc 6018     		adds	r0, r4, r1
 1893 0afe 0C90     		str	r0, [sp, #48]
 227:Source\mbedtls_open\library/sha256.c ****     {
 1894              		.loc 1 227 0 discriminator 3
 1895 0b00 009B     		ldr	r3, [sp]
 1896 0b02 0833     		adds	r3, r3, #8
 1897 0b04 0093     		str	r3, [sp]
 1898              	.LVL201:
 1899              	.L18:
 227:Source\mbedtls_open\library/sha256.c ****     {
 1900              		.loc 1 227 0 is_stmt 0 discriminator 1
 1901 0b06 009B     		ldr	r3, [sp]
 1902 0b08 3F2B     		cmp	r3, #63
 1903 0b0a 00D8     		bhi	.LCB1992
 1904 0b0c B6E4     		b	.L19	@long jump
 1905              	.LCB1992:
 1906 0b0e 0022     		movs	r2, #0
 1907 0b10 0B98     		ldr	r0, [sp, #44]
 1908 0b12 09E0     		b	.L20
 1909              	.LVL202:
 1910              	.L21:
 237:Source\mbedtls_open\library/sha256.c ****     }
 238:Source\mbedtls_open\library/sha256.c **** #endif /* MBEDTLS_SHA256_SMALLER */
 239:Source\mbedtls_open\library/sha256.c **** 
 240:Source\mbedtls_open\library/sha256.c ****     for( i = 0; i < 8; i++ )
 241:Source\mbedtls_open\library/sha256.c ****         ctx->state[i] += A[i];
 1911              		.loc 1 241 0 is_stmt 1 discriminator 3
 1912 0b14 9300     		lsls	r3, r2, #2
 1913 0b16 0CA9     		add	r1, sp, #48
 1914 0b18 5958     		ldr	r1, [r3, r1]
 1915 0b1a 931C     		adds	r3, r2, #2
 1916 0b1c 9B00     		lsls	r3, r3, #2
 1917 0b1e 1C58     		ldr	r4, [r3, r0]
ARM GAS  C:\Users\Phuong\AppData\Local\Temp\ccuEFeTd.s 			page 39


 1918 0b20 A446     		mov	ip, r4
 1919 0b22 6144     		add	r1, r1, ip
 1920 0b24 1950     		str	r1, [r3, r0]
 240:Source\mbedtls_open\library/sha256.c ****         ctx->state[i] += A[i];
 1921              		.loc 1 240 0 discriminator 3
 1922 0b26 0132     		adds	r2, r2, #1
 1923              	.LVL203:
 1924              	.L20:
 240:Source\mbedtls_open\library/sha256.c ****         ctx->state[i] += A[i];
 1925              		.loc 1 240 0 is_stmt 0 discriminator 1
 1926 0b28 072A     		cmp	r2, #7
 1927 0b2a F3D9     		bls	.L21
 242:Source\mbedtls_open\library/sha256.c **** 
 243:Source\mbedtls_open\library/sha256.c ****     return( 0 );
 244:Source\mbedtls_open\library/sha256.c **** }
 1928              		.loc 1 244 0 is_stmt 1
 1929 0b2c 0020     		movs	r0, #0
 1930 0b2e 55B0     		add	sp, sp, #340
 1931              		@ sp needed
 1932 0b30 3CBC     		pop	{r2, r3, r4, r5}
 1933 0b32 9046     		mov	r8, r2
 1934 0b34 9946     		mov	r9, r3
 1935 0b36 A246     		mov	r10, r4
 1936 0b38 AB46     		mov	fp, r5
 1937 0b3a F0BD     		pop	{r4, r5, r6, r7, pc}
 1938              	.L28:
 1939              		.align	2
 1940              	.L27:
 1941 0b3c 00000000 		.word	.LANCHOR0
 1942              		.cfi_endproc
 1943              	.LFE6:
 1944              		.size	mbedtls_internal_sha256_process, .-mbedtls_internal_sha256_process
 1945              		.section	.text.mbedtls_sha256_process,"ax",%progbits
 1946              		.align	2
 1947              		.global	mbedtls_sha256_process
 1948              		.code	16
 1949              		.thumb_func
 1950              		.type	mbedtls_sha256_process, %function
 1951              	mbedtls_sha256_process:
 1952              	.LFB7:
 245:Source\mbedtls_open\library/sha256.c **** 
 246:Source\mbedtls_open\library/sha256.c **** #if !defined(MBEDTLS_DEPRECATED_REMOVED)
 247:Source\mbedtls_open\library/sha256.c **** void mbedtls_sha256_process( mbedtls_sha256_context *ctx,
 248:Source\mbedtls_open\library/sha256.c ****                              const unsigned char data[64] )
 249:Source\mbedtls_open\library/sha256.c **** {
 1953              		.loc 1 249 0
 1954              		.cfi_startproc
 1955              		@ args = 0, pretend = 0, frame = 0
 1956              		@ frame_needed = 0, uses_anonymous_args = 0
 1957              	.LVL204:
 1958 0000 10B5     		push	{r4, lr}
 1959              		.cfi_def_cfa_offset 8
 1960              		.cfi_offset 4, -8
 1961              		.cfi_offset 14, -4
 250:Source\mbedtls_open\library/sha256.c ****     mbedtls_internal_sha256_process( ctx, data );
 1962              		.loc 1 250 0
 1963 0002 FFF7FEFF 		bl	mbedtls_internal_sha256_process
ARM GAS  C:\Users\Phuong\AppData\Local\Temp\ccuEFeTd.s 			page 40


 1964              	.LVL205:
 251:Source\mbedtls_open\library/sha256.c **** }
 1965              		.loc 1 251 0
 1966              		@ sp needed
 1967 0006 10BD     		pop	{r4, pc}
 1968              		.cfi_endproc
 1969              	.LFE7:
 1970              		.size	mbedtls_sha256_process, .-mbedtls_sha256_process
 1971              		.section	.text.mbedtls_sha256_update_ret,"ax",%progbits
 1972              		.align	2
 1973              		.global	mbedtls_sha256_update_ret
 1974              		.code	16
 1975              		.thumb_func
 1976              		.type	mbedtls_sha256_update_ret, %function
 1977              	mbedtls_sha256_update_ret:
 1978              	.LFB8:
 252:Source\mbedtls_open\library/sha256.c **** #endif
 253:Source\mbedtls_open\library/sha256.c **** #endif /* !MBEDTLS_SHA256_PROCESS_ALT */
 254:Source\mbedtls_open\library/sha256.c **** 
 255:Source\mbedtls_open\library/sha256.c **** /*
 256:Source\mbedtls_open\library/sha256.c ****  * SHA-256 process buffer
 257:Source\mbedtls_open\library/sha256.c ****  */
 258:Source\mbedtls_open\library/sha256.c **** int mbedtls_sha256_update_ret( mbedtls_sha256_context *ctx,
 259:Source\mbedtls_open\library/sha256.c ****                                const unsigned char *input,
 260:Source\mbedtls_open\library/sha256.c ****                                size_t ilen )
 261:Source\mbedtls_open\library/sha256.c **** {
 1979              		.loc 1 261 0
 1980              		.cfi_startproc
 1981              		@ args = 0, pretend = 0, frame = 0
 1982              		@ frame_needed = 0, uses_anonymous_args = 0
 1983              	.LVL206:
 1984 0000 F8B5     		push	{r3, r4, r5, r6, r7, lr}
 1985              		.cfi_def_cfa_offset 24
 1986              		.cfi_offset 3, -24
 1987              		.cfi_offset 4, -20
 1988              		.cfi_offset 5, -16
 1989              		.cfi_offset 6, -12
 1990              		.cfi_offset 7, -8
 1991              		.cfi_offset 14, -4
 1992 0002 4F46     		mov	r7, r9
 1993 0004 4646     		mov	r6, r8
 1994 0006 C0B4     		push	{r6, r7}
 1995              		.cfi_def_cfa_offset 32
 1996              		.cfi_offset 8, -32
 1997              		.cfi_offset 9, -28
 1998 0008 0600     		movs	r6, r0
 1999 000a 0D00     		movs	r5, r1
 2000 000c 141E     		subs	r4, r2, #0
 262:Source\mbedtls_open\library/sha256.c ****     int ret;
 263:Source\mbedtls_open\library/sha256.c ****     size_t fill;
 264:Source\mbedtls_open\library/sha256.c ****     uint32_t left;
 265:Source\mbedtls_open\library/sha256.c **** 
 266:Source\mbedtls_open\library/sha256.c ****     if( ilen == 0 )
 2001              		.loc 1 266 0
 2002 000e 38D0     		beq	.L36
 267:Source\mbedtls_open\library/sha256.c ****         return( 0 );
 268:Source\mbedtls_open\library/sha256.c **** 
ARM GAS  C:\Users\Phuong\AppData\Local\Temp\ccuEFeTd.s 			page 41


 269:Source\mbedtls_open\library/sha256.c ****     left = ctx->total[0] & 0x3F;
 2003              		.loc 1 269 0
 2004 0010 0368     		ldr	r3, [r0]
 2005 0012 3F27     		movs	r7, #63
 2006 0014 1F40     		ands	r7, r3
 2007              	.LVL207:
 270:Source\mbedtls_open\library/sha256.c ****     fill = 64 - left;
 2008              		.loc 1 270 0
 2009 0016 4022     		movs	r2, #64
 2010              	.LVL208:
 2011 0018 D21B     		subs	r2, r2, r7
 2012 001a 9046     		mov	r8, r2
 2013              	.LVL209:
 271:Source\mbedtls_open\library/sha256.c **** 
 272:Source\mbedtls_open\library/sha256.c ****     ctx->total[0] += (uint32_t) ilen;
 2014              		.loc 1 272 0
 2015 001c E318     		adds	r3, r4, r3
 2016 001e 0360     		str	r3, [r0]
 273:Source\mbedtls_open\library/sha256.c ****     ctx->total[0] &= 0xFFFFFFFF;
 274:Source\mbedtls_open\library/sha256.c **** 
 275:Source\mbedtls_open\library/sha256.c ****     if( ctx->total[0] < (uint32_t) ilen )
 2017              		.loc 1 275 0
 2018 0020 9C42     		cmp	r4, r3
 2019 0022 02D9     		bls	.L32
 276:Source\mbedtls_open\library/sha256.c ****         ctx->total[1]++;
 2020              		.loc 1 276 0
 2021 0024 4368     		ldr	r3, [r0, #4]
 2022 0026 0133     		adds	r3, r3, #1
 2023 0028 4360     		str	r3, [r0, #4]
 2024              	.L32:
 277:Source\mbedtls_open\library/sha256.c **** 
 278:Source\mbedtls_open\library/sha256.c ****     if( left && ilen >= fill )
 2025              		.loc 1 278 0
 2026 002a 002F     		cmp	r7, #0
 2027 002c 1DD0     		beq	.L34
 2028              		.loc 1 278 0 is_stmt 0 discriminator 1
 2029 002e 4445     		cmp	r4, r8
 2030 0030 1BD3     		bcc	.L34
 279:Source\mbedtls_open\library/sha256.c ****     {
 280:Source\mbedtls_open\library/sha256.c ****         memcpy( (void *) (ctx->buffer + left), input, fill );
 2031              		.loc 1 280 0 is_stmt 1
 2032 0032 2823     		movs	r3, #40
 2033 0034 9946     		mov	r9, r3
 2034 0036 B144     		add	r9, r9, r6
 2035 0038 3800     		movs	r0, r7
 2036              	.LVL210:
 2037 003a 4844     		add	r0, r0, r9
 2038 003c 4246     		mov	r2, r8
 2039              	.LVL211:
 2040 003e 2900     		movs	r1, r5
 2041              	.LVL212:
 2042 0040 FFF7FEFF 		bl	memcpy
 2043              	.LVL213:
 281:Source\mbedtls_open\library/sha256.c **** 
 282:Source\mbedtls_open\library/sha256.c ****         if( ( ret = mbedtls_internal_sha256_process( ctx, ctx->buffer ) ) != 0 )
 2044              		.loc 1 282 0
 2045 0044 4946     		mov	r1, r9
ARM GAS  C:\Users\Phuong\AppData\Local\Temp\ccuEFeTd.s 			page 42


 2046 0046 3000     		movs	r0, r6
 2047 0048 FFF7FEFF 		bl	mbedtls_internal_sha256_process
 2048              	.LVL214:
 2049 004c 0028     		cmp	r0, #0
 2050 004e 1BD1     		bne	.L31
 283:Source\mbedtls_open\library/sha256.c ****             return( ret );
 284:Source\mbedtls_open\library/sha256.c **** 
 285:Source\mbedtls_open\library/sha256.c ****         input += fill;
 2051              		.loc 1 285 0
 2052 0050 4544     		add	r5, r5, r8
 2053              	.LVL215:
 286:Source\mbedtls_open\library/sha256.c ****         ilen  -= fill;
 2054              		.loc 1 286 0
 2055 0052 4346     		mov	r3, r8
 2056 0054 E41A     		subs	r4, r4, r3
 2057              	.LVL216:
 287:Source\mbedtls_open\library/sha256.c ****         left = 0;
 2058              		.loc 1 287 0
 2059 0056 0027     		movs	r7, #0
 2060 0058 07E0     		b	.L34
 2061              	.LVL217:
 2062              	.L35:
 288:Source\mbedtls_open\library/sha256.c ****     }
 289:Source\mbedtls_open\library/sha256.c **** 
 290:Source\mbedtls_open\library/sha256.c ****     while( ilen >= 64 )
 291:Source\mbedtls_open\library/sha256.c ****     {
 292:Source\mbedtls_open\library/sha256.c ****         if( ( ret = mbedtls_internal_sha256_process( ctx, input ) ) != 0 )
 2063              		.loc 1 292 0
 2064 005a 2900     		movs	r1, r5
 2065 005c 3000     		movs	r0, r6
 2066 005e FFF7FEFF 		bl	mbedtls_internal_sha256_process
 2067              	.LVL218:
 2068 0062 0028     		cmp	r0, #0
 2069 0064 10D1     		bne	.L31
 293:Source\mbedtls_open\library/sha256.c ****             return( ret );
 294:Source\mbedtls_open\library/sha256.c **** 
 295:Source\mbedtls_open\library/sha256.c ****         input += 64;
 2070              		.loc 1 295 0
 2071 0066 4035     		adds	r5, r5, #64
 2072              	.LVL219:
 296:Source\mbedtls_open\library/sha256.c ****         ilen  -= 64;
 2073              		.loc 1 296 0
 2074 0068 403C     		subs	r4, r4, #64
 2075              	.LVL220:
 2076              	.L34:
 290:Source\mbedtls_open\library/sha256.c ****     {
 2077              		.loc 1 290 0
 2078 006a 3F2C     		cmp	r4, #63
 2079 006c F5D8     		bhi	.L35
 297:Source\mbedtls_open\library/sha256.c ****     }
 298:Source\mbedtls_open\library/sha256.c **** 
 299:Source\mbedtls_open\library/sha256.c ****     if( ilen > 0 )
 2080              		.loc 1 299 0
 2081 006e 002C     		cmp	r4, #0
 2082 0070 09D0     		beq	.L39
 300:Source\mbedtls_open\library/sha256.c ****         memcpy( (void *) (ctx->buffer + left), input, ilen );
 2083              		.loc 1 300 0
ARM GAS  C:\Users\Phuong\AppData\Local\Temp\ccuEFeTd.s 			page 43


 2084 0072 2836     		adds	r6, r6, #40
 2085              	.LVL221:
 2086 0074 F019     		adds	r0, r6, r7
 2087 0076 2200     		movs	r2, r4
 2088 0078 2900     		movs	r1, r5
 2089 007a FFF7FEFF 		bl	memcpy
 2090              	.LVL222:
 301:Source\mbedtls_open\library/sha256.c **** 
 302:Source\mbedtls_open\library/sha256.c ****     return( 0 );
 2091              		.loc 1 302 0
 2092 007e 0020     		movs	r0, #0
 2093 0080 02E0     		b	.L31
 2094              	.LVL223:
 2095              	.L36:
 267:Source\mbedtls_open\library/sha256.c **** 
 2096              		.loc 1 267 0
 2097 0082 0020     		movs	r0, #0
 2098              	.LVL224:
 2099 0084 00E0     		b	.L31
 2100              	.LVL225:
 2101              	.L39:
 2102              		.loc 1 302 0
 2103 0086 0020     		movs	r0, #0
 2104              	.LVL226:
 2105              	.L31:
 303:Source\mbedtls_open\library/sha256.c **** }
 2106              		.loc 1 303 0
 2107              		@ sp needed
 2108              	.LVL227:
 2109              	.LVL228:
 2110 0088 0CBC     		pop	{r2, r3}
 2111 008a 9046     		mov	r8, r2
 2112 008c 9946     		mov	r9, r3
 2113 008e F8BD     		pop	{r3, r4, r5, r6, r7, pc}
 2114              		.cfi_endproc
 2115              	.LFE8:
 2116              		.size	mbedtls_sha256_update_ret, .-mbedtls_sha256_update_ret
 2117              		.section	.text.mbedtls_sha256_update,"ax",%progbits
 2118              		.align	2
 2119              		.global	mbedtls_sha256_update
 2120              		.code	16
 2121              		.thumb_func
 2122              		.type	mbedtls_sha256_update, %function
 2123              	mbedtls_sha256_update:
 2124              	.LFB9:
 304:Source\mbedtls_open\library/sha256.c **** 
 305:Source\mbedtls_open\library/sha256.c **** #if !defined(MBEDTLS_DEPRECATED_REMOVED)
 306:Source\mbedtls_open\library/sha256.c **** void mbedtls_sha256_update( mbedtls_sha256_context *ctx,
 307:Source\mbedtls_open\library/sha256.c ****                             const unsigned char *input,
 308:Source\mbedtls_open\library/sha256.c ****                             size_t ilen )
 309:Source\mbedtls_open\library/sha256.c **** {
 2125              		.loc 1 309 0
 2126              		.cfi_startproc
 2127              		@ args = 0, pretend = 0, frame = 0
 2128              		@ frame_needed = 0, uses_anonymous_args = 0
 2129              	.LVL229:
 2130 0000 10B5     		push	{r4, lr}
ARM GAS  C:\Users\Phuong\AppData\Local\Temp\ccuEFeTd.s 			page 44


 2131              		.cfi_def_cfa_offset 8
 2132              		.cfi_offset 4, -8
 2133              		.cfi_offset 14, -4
 310:Source\mbedtls_open\library/sha256.c ****     mbedtls_sha256_update_ret( ctx, input, ilen );
 2134              		.loc 1 310 0
 2135 0002 FFF7FEFF 		bl	mbedtls_sha256_update_ret
 2136              	.LVL230:
 311:Source\mbedtls_open\library/sha256.c **** }
 2137              		.loc 1 311 0
 2138              		@ sp needed
 2139 0006 10BD     		pop	{r4, pc}
 2140              		.cfi_endproc
 2141              	.LFE9:
 2142              		.size	mbedtls_sha256_update, .-mbedtls_sha256_update
 2143              		.section	.text.mbedtls_sha256_finish_ret,"ax",%progbits
 2144              		.align	2
 2145              		.global	mbedtls_sha256_finish_ret
 2146              		.code	16
 2147              		.thumb_func
 2148              		.type	mbedtls_sha256_finish_ret, %function
 2149              	mbedtls_sha256_finish_ret:
 2150              	.LFB10:
 312:Source\mbedtls_open\library/sha256.c **** #endif
 313:Source\mbedtls_open\library/sha256.c **** 
 314:Source\mbedtls_open\library/sha256.c **** /*
 315:Source\mbedtls_open\library/sha256.c ****  * SHA-256 final digest
 316:Source\mbedtls_open\library/sha256.c ****  */
 317:Source\mbedtls_open\library/sha256.c **** int mbedtls_sha256_finish_ret( mbedtls_sha256_context *ctx,
 318:Source\mbedtls_open\library/sha256.c ****                                unsigned char output[32] )
 319:Source\mbedtls_open\library/sha256.c **** {
 2151              		.loc 1 319 0
 2152              		.cfi_startproc
 2153              		@ args = 0, pretend = 0, frame = 0
 2154              		@ frame_needed = 0, uses_anonymous_args = 0
 2155              	.LVL231:
 2156 0000 70B5     		push	{r4, r5, r6, lr}
 2157              		.cfi_def_cfa_offset 16
 2158              		.cfi_offset 4, -16
 2159              		.cfi_offset 5, -12
 2160              		.cfi_offset 6, -8
 2161              		.cfi_offset 14, -4
 2162 0002 0400     		movs	r4, r0
 2163 0004 0D00     		movs	r5, r1
 320:Source\mbedtls_open\library/sha256.c ****     int ret;
 321:Source\mbedtls_open\library/sha256.c ****     uint32_t used;
 322:Source\mbedtls_open\library/sha256.c ****     uint32_t high, low;
 323:Source\mbedtls_open\library/sha256.c **** 
 324:Source\mbedtls_open\library/sha256.c ****     /*
 325:Source\mbedtls_open\library/sha256.c ****      * Add padding: 0x80 then 0x00 until 8 bytes remain for the length
 326:Source\mbedtls_open\library/sha256.c ****      */
 327:Source\mbedtls_open\library/sha256.c ****     used = ctx->total[0] & 0x3F;
 2164              		.loc 1 327 0
 2165 0006 3F23     		movs	r3, #63
 2166 0008 0268     		ldr	r2, [r0]
 2167 000a 1340     		ands	r3, r2
 2168              	.LVL232:
 328:Source\mbedtls_open\library/sha256.c **** 
ARM GAS  C:\Users\Phuong\AppData\Local\Temp\ccuEFeTd.s 			page 45


 329:Source\mbedtls_open\library/sha256.c ****     ctx->buffer[used++] = 0x80;
 2169              		.loc 1 329 0
 2170 000c 581C     		adds	r0, r3, #1
 2171              	.LVL233:
 2172 000e E318     		adds	r3, r4, r3
 2173 0010 2833     		adds	r3, r3, #40
 2174 0012 8022     		movs	r2, #128
 2175 0014 1A70     		strb	r2, [r3]
 330:Source\mbedtls_open\library/sha256.c **** 
 331:Source\mbedtls_open\library/sha256.c ****     if( used <= 56 )
 2176              		.loc 1 331 0
 2177 0016 3828     		cmp	r0, #56
 2178 0018 08D8     		bhi	.L42
 332:Source\mbedtls_open\library/sha256.c ****     {
 333:Source\mbedtls_open\library/sha256.c ****         /* Enough room for padding + length in current block */
 334:Source\mbedtls_open\library/sha256.c ****         memset( ctx->buffer + used, 0, 56 - used );
 2179              		.loc 1 334 0
 2180 001a 2300     		movs	r3, r4
 2181 001c 2833     		adds	r3, r3, #40
 2182 001e 483A     		subs	r2, r2, #72
 2183 0020 121A     		subs	r2, r2, r0
 2184 0022 1818     		adds	r0, r3, r0
 2185              	.LVL234:
 2186 0024 0021     		movs	r1, #0
 2187              	.LVL235:
 2188 0026 FFF7FEFF 		bl	memset
 2189              	.LVL236:
 2190 002a 12E0     		b	.L43
 2191              	.LVL237:
 2192              	.L42:
 335:Source\mbedtls_open\library/sha256.c ****     }
 336:Source\mbedtls_open\library/sha256.c ****     else
 337:Source\mbedtls_open\library/sha256.c ****     {
 338:Source\mbedtls_open\library/sha256.c ****         /* We'll need an extra block */
 339:Source\mbedtls_open\library/sha256.c ****         memset( ctx->buffer + used, 0, 64 - used );
 2193              		.loc 1 339 0
 2194 002c 2600     		movs	r6, r4
 2195 002e 2836     		adds	r6, r6, #40
 2196 0030 4022     		movs	r2, #64
 2197 0032 121A     		subs	r2, r2, r0
 2198 0034 3018     		adds	r0, r6, r0
 2199              	.LVL238:
 2200 0036 0021     		movs	r1, #0
 2201              	.LVL239:
 2202 0038 FFF7FEFF 		bl	memset
 2203              	.LVL240:
 340:Source\mbedtls_open\library/sha256.c **** 
 341:Source\mbedtls_open\library/sha256.c ****         if( ( ret = mbedtls_internal_sha256_process( ctx, ctx->buffer ) ) != 0 )
 2204              		.loc 1 341 0
 2205 003c 3100     		movs	r1, r6
 2206 003e 2000     		movs	r0, r4
 2207 0040 FFF7FEFF 		bl	mbedtls_internal_sha256_process
 2208              	.LVL241:
 2209 0044 0028     		cmp	r0, #0
 2210 0046 76D1     		bne	.L44
 342:Source\mbedtls_open\library/sha256.c ****             return( ret );
 343:Source\mbedtls_open\library/sha256.c **** 
ARM GAS  C:\Users\Phuong\AppData\Local\Temp\ccuEFeTd.s 			page 46


 344:Source\mbedtls_open\library/sha256.c ****         memset( ctx->buffer, 0, 56 );
 2211              		.loc 1 344 0
 2212 0048 3822     		movs	r2, #56
 2213 004a 0021     		movs	r1, #0
 2214 004c 3000     		movs	r0, r6
 2215              	.LVL242:
 2216 004e FFF7FEFF 		bl	memset
 2217              	.LVL243:
 2218              	.L43:
 345:Source\mbedtls_open\library/sha256.c ****     }
 346:Source\mbedtls_open\library/sha256.c **** 
 347:Source\mbedtls_open\library/sha256.c ****     /*
 348:Source\mbedtls_open\library/sha256.c ****      * Add message length
 349:Source\mbedtls_open\library/sha256.c ****      */
 350:Source\mbedtls_open\library/sha256.c ****     high = ( ctx->total[0] >> 29 )
 2219              		.loc 1 350 0
 2220 0052 2268     		ldr	r2, [r4]
 2221 0054 510F     		lsrs	r1, r2, #29
 351:Source\mbedtls_open\library/sha256.c ****          | ( ctx->total[1] <<  3 );
 2222              		.loc 1 351 0
 2223 0056 6368     		ldr	r3, [r4, #4]
 2224 0058 DB00     		lsls	r3, r3, #3
 350:Source\mbedtls_open\library/sha256.c ****          | ( ctx->total[1] <<  3 );
 2225              		.loc 1 350 0
 2226 005a 0B43     		orrs	r3, r1
 2227              	.LVL244:
 352:Source\mbedtls_open\library/sha256.c ****     low  = ( ctx->total[0] <<  3 );
 2228              		.loc 1 352 0
 2229 005c D200     		lsls	r2, r2, #3
 2230              	.LVL245:
 353:Source\mbedtls_open\library/sha256.c **** 
 354:Source\mbedtls_open\library/sha256.c ****     PUT_UINT32_BE( high, ctx->buffer, 56 );
 2231              		.loc 1 354 0
 2232 005e 180E     		lsrs	r0, r3, #24
 2233 0060 6021     		movs	r1, #96
 2234 0062 6054     		strb	r0, [r4, r1]
 2235 0064 180C     		lsrs	r0, r3, #16
 2236 0066 0131     		adds	r1, r1, #1
 2237 0068 6054     		strb	r0, [r4, r1]
 2238 006a 180A     		lsrs	r0, r3, #8
 2239 006c 0131     		adds	r1, r1, #1
 2240 006e 6054     		strb	r0, [r4, r1]
 2241 0070 0131     		adds	r1, r1, #1
 2242 0072 6354     		strb	r3, [r4, r1]
 355:Source\mbedtls_open\library/sha256.c ****     PUT_UINT32_BE( low,  ctx->buffer, 60 );
 2243              		.loc 1 355 0
 2244 0074 110E     		lsrs	r1, r2, #24
 2245 0076 6423     		movs	r3, #100
 2246              	.LVL246:
 2247 0078 E154     		strb	r1, [r4, r3]
 2248 007a 110C     		lsrs	r1, r2, #16
 2249 007c 0133     		adds	r3, r3, #1
 2250 007e E154     		strb	r1, [r4, r3]
 2251 0080 110A     		lsrs	r1, r2, #8
 2252 0082 0133     		adds	r3, r3, #1
 2253 0084 E154     		strb	r1, [r4, r3]
 2254 0086 0133     		adds	r3, r3, #1
ARM GAS  C:\Users\Phuong\AppData\Local\Temp\ccuEFeTd.s 			page 47


 2255 0088 E254     		strb	r2, [r4, r3]
 356:Source\mbedtls_open\library/sha256.c **** 
 357:Source\mbedtls_open\library/sha256.c ****     if( ( ret = mbedtls_internal_sha256_process( ctx, ctx->buffer ) ) != 0 )
 2256              		.loc 1 357 0
 2257 008a 2100     		movs	r1, r4
 2258 008c 2831     		adds	r1, r1, #40
 2259 008e 2000     		movs	r0, r4
 2260 0090 FFF7FEFF 		bl	mbedtls_internal_sha256_process
 2261              	.LVL247:
 2262 0094 0028     		cmp	r0, #0
 2263 0096 4ED1     		bne	.L44
 358:Source\mbedtls_open\library/sha256.c ****         return( ret );
 359:Source\mbedtls_open\library/sha256.c **** 
 360:Source\mbedtls_open\library/sha256.c ****     /*
 361:Source\mbedtls_open\library/sha256.c ****      * Output final state
 362:Source\mbedtls_open\library/sha256.c ****      */
 363:Source\mbedtls_open\library/sha256.c ****     PUT_UINT32_BE( ctx->state[0], output,  0 );
 2264              		.loc 1 363 0
 2265 0098 E37A     		ldrb	r3, [r4, #11]
 2266 009a 2B70     		strb	r3, [r5]
 2267 009c A37A     		ldrb	r3, [r4, #10]
 2268 009e 6B70     		strb	r3, [r5, #1]
 2269 00a0 A368     		ldr	r3, [r4, #8]
 2270 00a2 1B0A     		lsrs	r3, r3, #8
 2271 00a4 AB70     		strb	r3, [r5, #2]
 2272 00a6 237A     		ldrb	r3, [r4, #8]
 2273 00a8 EB70     		strb	r3, [r5, #3]
 364:Source\mbedtls_open\library/sha256.c ****     PUT_UINT32_BE( ctx->state[1], output,  4 );
 2274              		.loc 1 364 0
 2275 00aa E37B     		ldrb	r3, [r4, #15]
 2276 00ac 2B71     		strb	r3, [r5, #4]
 2277 00ae A37B     		ldrb	r3, [r4, #14]
 2278 00b0 6B71     		strb	r3, [r5, #5]
 2279 00b2 E368     		ldr	r3, [r4, #12]
 2280 00b4 1B0A     		lsrs	r3, r3, #8
 2281 00b6 AB71     		strb	r3, [r5, #6]
 2282 00b8 237B     		ldrb	r3, [r4, #12]
 2283 00ba EB71     		strb	r3, [r5, #7]
 365:Source\mbedtls_open\library/sha256.c ****     PUT_UINT32_BE( ctx->state[2], output,  8 );
 2284              		.loc 1 365 0
 2285 00bc E37C     		ldrb	r3, [r4, #19]
 2286 00be 2B72     		strb	r3, [r5, #8]
 2287 00c0 A37C     		ldrb	r3, [r4, #18]
 2288 00c2 6B72     		strb	r3, [r5, #9]
 2289 00c4 2369     		ldr	r3, [r4, #16]
 2290 00c6 1B0A     		lsrs	r3, r3, #8
 2291 00c8 AB72     		strb	r3, [r5, #10]
 2292 00ca 237C     		ldrb	r3, [r4, #16]
 2293 00cc EB72     		strb	r3, [r5, #11]
 366:Source\mbedtls_open\library/sha256.c ****     PUT_UINT32_BE( ctx->state[3], output, 12 );
 2294              		.loc 1 366 0
 2295 00ce E37D     		ldrb	r3, [r4, #23]
 2296 00d0 2B73     		strb	r3, [r5, #12]
 2297 00d2 A37D     		ldrb	r3, [r4, #22]
 2298 00d4 6B73     		strb	r3, [r5, #13]
 2299 00d6 6369     		ldr	r3, [r4, #20]
 2300 00d8 1B0A     		lsrs	r3, r3, #8
ARM GAS  C:\Users\Phuong\AppData\Local\Temp\ccuEFeTd.s 			page 48


 2301 00da AB73     		strb	r3, [r5, #14]
 2302 00dc 237D     		ldrb	r3, [r4, #20]
 2303 00de EB73     		strb	r3, [r5, #15]
 367:Source\mbedtls_open\library/sha256.c ****     PUT_UINT32_BE( ctx->state[4], output, 16 );
 2304              		.loc 1 367 0
 2305 00e0 E37E     		ldrb	r3, [r4, #27]
 2306 00e2 2B74     		strb	r3, [r5, #16]
 2307 00e4 A37E     		ldrb	r3, [r4, #26]
 2308 00e6 6B74     		strb	r3, [r5, #17]
 2309 00e8 A369     		ldr	r3, [r4, #24]
 2310 00ea 1B0A     		lsrs	r3, r3, #8
 2311 00ec AB74     		strb	r3, [r5, #18]
 2312 00ee 237E     		ldrb	r3, [r4, #24]
 2313 00f0 EB74     		strb	r3, [r5, #19]
 368:Source\mbedtls_open\library/sha256.c ****     PUT_UINT32_BE( ctx->state[5], output, 20 );
 2314              		.loc 1 368 0
 2315 00f2 E37F     		ldrb	r3, [r4, #31]
 2316 00f4 2B75     		strb	r3, [r5, #20]
 2317 00f6 A37F     		ldrb	r3, [r4, #30]
 2318 00f8 6B75     		strb	r3, [r5, #21]
 2319 00fa E369     		ldr	r3, [r4, #28]
 2320 00fc 1B0A     		lsrs	r3, r3, #8
 2321 00fe AB75     		strb	r3, [r5, #22]
 2322 0100 237F     		ldrb	r3, [r4, #28]
 2323 0102 EB75     		strb	r3, [r5, #23]
 369:Source\mbedtls_open\library/sha256.c ****     PUT_UINT32_BE( ctx->state[6], output, 24 );
 2324              		.loc 1 369 0
 2325 0104 236A     		ldr	r3, [r4, #32]
 2326 0106 1B0E     		lsrs	r3, r3, #24
 2327 0108 2B76     		strb	r3, [r5, #24]
 2328 010a 638C     		ldrh	r3, [r4, #34]
 2329 010c 6B76     		strb	r3, [r5, #25]
 2330 010e 236A     		ldr	r3, [r4, #32]
 2331 0110 1B0A     		lsrs	r3, r3, #8
 2332 0112 AB76     		strb	r3, [r5, #26]
 2333 0114 236A     		ldr	r3, [r4, #32]
 2334 0116 EB76     		strb	r3, [r5, #27]
 370:Source\mbedtls_open\library/sha256.c **** 
 371:Source\mbedtls_open\library/sha256.c ****     if( ctx->is224 == 0 )
 2335              		.loc 1 371 0
 2336 0118 A06E     		ldr	r0, [r4, #104]
 2337              	.LVL248:
 2338 011a 0028     		cmp	r0, #0
 2339 011c 0AD1     		bne	.L47
 372:Source\mbedtls_open\library/sha256.c ****         PUT_UINT32_BE( ctx->state[7], output, 28 );
 2340              		.loc 1 372 0
 2341 011e 636A     		ldr	r3, [r4, #36]
 2342 0120 1B0E     		lsrs	r3, r3, #24
 2343 0122 2B77     		strb	r3, [r5, #28]
 2344 0124 E38C     		ldrh	r3, [r4, #38]
 2345 0126 6B77     		strb	r3, [r5, #29]
 2346 0128 636A     		ldr	r3, [r4, #36]
 2347 012a 1B0A     		lsrs	r3, r3, #8
 2348 012c AB77     		strb	r3, [r5, #30]
 2349 012e 636A     		ldr	r3, [r4, #36]
 2350 0130 EB77     		strb	r3, [r5, #31]
 2351 0132 00E0     		b	.L44
ARM GAS  C:\Users\Phuong\AppData\Local\Temp\ccuEFeTd.s 			page 49


 2352              	.L47:
 373:Source\mbedtls_open\library/sha256.c **** 
 374:Source\mbedtls_open\library/sha256.c ****     return( 0 );
 2353              		.loc 1 374 0
 2354 0134 0020     		movs	r0, #0
 2355              	.L44:
 375:Source\mbedtls_open\library/sha256.c **** }
 2356              		.loc 1 375 0
 2357              		@ sp needed
 2358              	.LVL249:
 2359              	.LVL250:
 2360 0136 70BD     		pop	{r4, r5, r6, pc}
 2361              		.cfi_endproc
 2362              	.LFE10:
 2363              		.size	mbedtls_sha256_finish_ret, .-mbedtls_sha256_finish_ret
 2364              		.section	.text.mbedtls_sha256_finish,"ax",%progbits
 2365              		.align	2
 2366              		.global	mbedtls_sha256_finish
 2367              		.code	16
 2368              		.thumb_func
 2369              		.type	mbedtls_sha256_finish, %function
 2370              	mbedtls_sha256_finish:
 2371              	.LFB11:
 376:Source\mbedtls_open\library/sha256.c **** 
 377:Source\mbedtls_open\library/sha256.c **** #if !defined(MBEDTLS_DEPRECATED_REMOVED)
 378:Source\mbedtls_open\library/sha256.c **** void mbedtls_sha256_finish( mbedtls_sha256_context *ctx,
 379:Source\mbedtls_open\library/sha256.c ****                             unsigned char output[32] )
 380:Source\mbedtls_open\library/sha256.c **** {
 2372              		.loc 1 380 0
 2373              		.cfi_startproc
 2374              		@ args = 0, pretend = 0, frame = 0
 2375              		@ frame_needed = 0, uses_anonymous_args = 0
 2376              	.LVL251:
 2377 0000 10B5     		push	{r4, lr}
 2378              		.cfi_def_cfa_offset 8
 2379              		.cfi_offset 4, -8
 2380              		.cfi_offset 14, -4
 381:Source\mbedtls_open\library/sha256.c ****     mbedtls_sha256_finish_ret( ctx, output );
 2381              		.loc 1 381 0
 2382 0002 FFF7FEFF 		bl	mbedtls_sha256_finish_ret
 2383              	.LVL252:
 382:Source\mbedtls_open\library/sha256.c **** }
 2384              		.loc 1 382 0
 2385              		@ sp needed
 2386 0006 10BD     		pop	{r4, pc}
 2387              		.cfi_endproc
 2388              	.LFE11:
 2389              		.size	mbedtls_sha256_finish, .-mbedtls_sha256_finish
 2390              		.section	.text.mbedtls_sha256_ret,"ax",%progbits
 2391              		.align	2
 2392              		.global	mbedtls_sha256_ret
 2393              		.code	16
 2394              		.thumb_func
 2395              		.type	mbedtls_sha256_ret, %function
 2396              	mbedtls_sha256_ret:
 2397              	.LFB12:
 383:Source\mbedtls_open\library/sha256.c **** #endif
ARM GAS  C:\Users\Phuong\AppData\Local\Temp\ccuEFeTd.s 			page 50


 384:Source\mbedtls_open\library/sha256.c **** 
 385:Source\mbedtls_open\library/sha256.c **** #endif /* !MBEDTLS_SHA256_ALT */
 386:Source\mbedtls_open\library/sha256.c **** 
 387:Source\mbedtls_open\library/sha256.c **** /*
 388:Source\mbedtls_open\library/sha256.c ****  * output = SHA-256( input buffer )
 389:Source\mbedtls_open\library/sha256.c ****  */
 390:Source\mbedtls_open\library/sha256.c **** int mbedtls_sha256_ret( const unsigned char *input,
 391:Source\mbedtls_open\library/sha256.c ****                         size_t ilen,
 392:Source\mbedtls_open\library/sha256.c ****                         unsigned char output[32],
 393:Source\mbedtls_open\library/sha256.c ****                         int is224 )
 394:Source\mbedtls_open\library/sha256.c **** {
 2398              		.loc 1 394 0
 2399              		.cfi_startproc
 2400              		@ args = 0, pretend = 0, frame = 112
 2401              		@ frame_needed = 0, uses_anonymous_args = 0
 2402              	.LVL253:
 2403 0000 F0B5     		push	{r4, r5, r6, r7, lr}
 2404              		.cfi_def_cfa_offset 20
 2405              		.cfi_offset 4, -20
 2406              		.cfi_offset 5, -16
 2407              		.cfi_offset 6, -12
 2408              		.cfi_offset 7, -8
 2409              		.cfi_offset 14, -4
 2410 0002 9DB0     		sub	sp, sp, #116
 2411              		.cfi_def_cfa_offset 136
 2412 0004 0500     		movs	r5, r0
 2413 0006 0E00     		movs	r6, r1
 2414 0008 1700     		movs	r7, r2
 2415 000a 1C00     		movs	r4, r3
 395:Source\mbedtls_open\library/sha256.c ****     int ret;
 396:Source\mbedtls_open\library/sha256.c ****     mbedtls_sha256_context ctx;
 397:Source\mbedtls_open\library/sha256.c **** 
 398:Source\mbedtls_open\library/sha256.c ****     mbedtls_sha256_init( &ctx );
 2416              		.loc 1 398 0
 2417 000c 01A8     		add	r0, sp, #4
 2418              	.LVL254:
 2419 000e FFF7FEFF 		bl	mbedtls_sha256_init
 2420              	.LVL255:
 399:Source\mbedtls_open\library/sha256.c **** 
 400:Source\mbedtls_open\library/sha256.c ****     if( ( ret = mbedtls_sha256_starts_ret( &ctx, is224 ) ) != 0 )
 2421              		.loc 1 400 0
 2422 0012 2100     		movs	r1, r4
 2423 0014 01A8     		add	r0, sp, #4
 2424 0016 FFF7FEFF 		bl	mbedtls_sha256_starts_ret
 2425              	.LVL256:
 2426 001a 041E     		subs	r4, r0, #0
 2427              	.LVL257:
 2428 001c 0BD1     		bne	.L50
 401:Source\mbedtls_open\library/sha256.c ****         goto exit;
 402:Source\mbedtls_open\library/sha256.c **** 
 403:Source\mbedtls_open\library/sha256.c ****     if( ( ret = mbedtls_sha256_update_ret( &ctx, input, ilen ) ) != 0 )
 2429              		.loc 1 403 0
 2430 001e 3200     		movs	r2, r6
 2431 0020 2900     		movs	r1, r5
 2432 0022 01A8     		add	r0, sp, #4
 2433              	.LVL258:
 2434 0024 FFF7FEFF 		bl	mbedtls_sha256_update_ret
ARM GAS  C:\Users\Phuong\AppData\Local\Temp\ccuEFeTd.s 			page 51


 2435              	.LVL259:
 2436 0028 041E     		subs	r4, r0, #0
 2437              	.LVL260:
 2438 002a 04D1     		bne	.L50
 404:Source\mbedtls_open\library/sha256.c ****         goto exit;
 405:Source\mbedtls_open\library/sha256.c **** 
 406:Source\mbedtls_open\library/sha256.c ****     if( ( ret = mbedtls_sha256_finish_ret( &ctx, output ) ) != 0 )
 2439              		.loc 1 406 0
 2440 002c 3900     		movs	r1, r7
 2441 002e 01A8     		add	r0, sp, #4
 2442              	.LVL261:
 2443 0030 FFF7FEFF 		bl	mbedtls_sha256_finish_ret
 2444              	.LVL262:
 2445 0034 0400     		movs	r4, r0
 2446              	.LVL263:
 2447              	.L50:
 407:Source\mbedtls_open\library/sha256.c ****         goto exit;
 408:Source\mbedtls_open\library/sha256.c **** 
 409:Source\mbedtls_open\library/sha256.c **** exit:
 410:Source\mbedtls_open\library/sha256.c ****     mbedtls_sha256_free( &ctx );
 2448              		.loc 1 410 0
 2449 0036 01A8     		add	r0, sp, #4
 2450              	.LVL264:
 2451 0038 FFF7FEFF 		bl	mbedtls_sha256_free
 2452              	.LVL265:
 411:Source\mbedtls_open\library/sha256.c **** 
 412:Source\mbedtls_open\library/sha256.c ****     return( ret );
 413:Source\mbedtls_open\library/sha256.c **** }
 2453              		.loc 1 413 0
 2454 003c 2000     		movs	r0, r4
 2455 003e 1DB0     		add	sp, sp, #116
 2456              		@ sp needed
 2457              	.LVL266:
 2458              	.LVL267:
 2459              	.LVL268:
 2460              	.LVL269:
 2461 0040 F0BD     		pop	{r4, r5, r6, r7, pc}
 2462              		.cfi_endproc
 2463              	.LFE12:
 2464              		.size	mbedtls_sha256_ret, .-mbedtls_sha256_ret
 2465 0042 C046     		.section	.text.mbedtls_sha256,"ax",%progbits
 2466              		.align	2
 2467              		.global	mbedtls_sha256
 2468              		.code	16
 2469              		.thumb_func
 2470              		.type	mbedtls_sha256, %function
 2471              	mbedtls_sha256:
 2472              	.LFB13:
 414:Source\mbedtls_open\library/sha256.c **** 
 415:Source\mbedtls_open\library/sha256.c **** #if !defined(MBEDTLS_DEPRECATED_REMOVED)
 416:Source\mbedtls_open\library/sha256.c **** void mbedtls_sha256( const unsigned char *input,
 417:Source\mbedtls_open\library/sha256.c ****                      size_t ilen,
 418:Source\mbedtls_open\library/sha256.c ****                      unsigned char output[32],
 419:Source\mbedtls_open\library/sha256.c ****                      int is224 )
 420:Source\mbedtls_open\library/sha256.c **** {
 2473              		.loc 1 420 0
 2474              		.cfi_startproc
ARM GAS  C:\Users\Phuong\AppData\Local\Temp\ccuEFeTd.s 			page 52


 2475              		@ args = 0, pretend = 0, frame = 0
 2476              		@ frame_needed = 0, uses_anonymous_args = 0
 2477              	.LVL270:
 2478 0000 10B5     		push	{r4, lr}
 2479              		.cfi_def_cfa_offset 8
 2480              		.cfi_offset 4, -8
 2481              		.cfi_offset 14, -4
 421:Source\mbedtls_open\library/sha256.c ****     mbedtls_sha256_ret( input, ilen, output, is224 );
 2482              		.loc 1 421 0
 2483 0002 FFF7FEFF 		bl	mbedtls_sha256_ret
 2484              	.LVL271:
 422:Source\mbedtls_open\library/sha256.c **** }
 2485              		.loc 1 422 0
 2486              		@ sp needed
 2487 0006 10BD     		pop	{r4, pc}
 2488              		.cfi_endproc
 2489              	.LFE13:
 2490              		.size	mbedtls_sha256, .-mbedtls_sha256
 2491              		.global	__aeabi_idivmod
 2492              		.section	.text.mbedtls_sha256_self_test,"ax",%progbits
 2493              		.align	2
 2494              		.global	mbedtls_sha256_self_test
 2495              		.code	16
 2496              		.thumb_func
 2497              		.type	mbedtls_sha256_self_test, %function
 2498              	mbedtls_sha256_self_test:
 2499              	.LFB14:
 423:Source\mbedtls_open\library/sha256.c **** #endif
 424:Source\mbedtls_open\library/sha256.c **** 
 425:Source\mbedtls_open\library/sha256.c **** #if defined(MBEDTLS_SELF_TEST)
 426:Source\mbedtls_open\library/sha256.c **** /*
 427:Source\mbedtls_open\library/sha256.c ****  * FIPS-180-2 test vectors
 428:Source\mbedtls_open\library/sha256.c ****  */
 429:Source\mbedtls_open\library/sha256.c **** static const unsigned char sha256_test_buf[3][57] =
 430:Source\mbedtls_open\library/sha256.c **** {
 431:Source\mbedtls_open\library/sha256.c ****     { "abc" },
 432:Source\mbedtls_open\library/sha256.c ****     { "abcdbcdecdefdefgefghfghighijhijkijkljklmklmnlmnomnopnopq" },
 433:Source\mbedtls_open\library/sha256.c ****     { "" }
 434:Source\mbedtls_open\library/sha256.c **** };
 435:Source\mbedtls_open\library/sha256.c **** 
 436:Source\mbedtls_open\library/sha256.c **** static const size_t sha256_test_buflen[3] =
 437:Source\mbedtls_open\library/sha256.c **** {
 438:Source\mbedtls_open\library/sha256.c ****     3, 56, 1000
 439:Source\mbedtls_open\library/sha256.c **** };
 440:Source\mbedtls_open\library/sha256.c **** 
 441:Source\mbedtls_open\library/sha256.c **** static const unsigned char sha256_test_sum[6][32] =
 442:Source\mbedtls_open\library/sha256.c **** {
 443:Source\mbedtls_open\library/sha256.c ****     /*
 444:Source\mbedtls_open\library/sha256.c ****      * SHA-224 test vectors
 445:Source\mbedtls_open\library/sha256.c ****      */
 446:Source\mbedtls_open\library/sha256.c ****     { 0x23, 0x09, 0x7D, 0x22, 0x34, 0x05, 0xD8, 0x22,
 447:Source\mbedtls_open\library/sha256.c ****       0x86, 0x42, 0xA4, 0x77, 0xBD, 0xA2, 0x55, 0xB3,
 448:Source\mbedtls_open\library/sha256.c ****       0x2A, 0xAD, 0xBC, 0xE4, 0xBD, 0xA0, 0xB3, 0xF7,
 449:Source\mbedtls_open\library/sha256.c ****       0xE3, 0x6C, 0x9D, 0xA7 },
 450:Source\mbedtls_open\library/sha256.c ****     { 0x75, 0x38, 0x8B, 0x16, 0x51, 0x27, 0x76, 0xCC,
 451:Source\mbedtls_open\library/sha256.c ****       0x5D, 0xBA, 0x5D, 0xA1, 0xFD, 0x89, 0x01, 0x50,
 452:Source\mbedtls_open\library/sha256.c ****       0xB0, 0xC6, 0x45, 0x5C, 0xB4, 0xF5, 0x8B, 0x19,
ARM GAS  C:\Users\Phuong\AppData\Local\Temp\ccuEFeTd.s 			page 53


 453:Source\mbedtls_open\library/sha256.c ****       0x52, 0x52, 0x25, 0x25 },
 454:Source\mbedtls_open\library/sha256.c ****     { 0x20, 0x79, 0x46, 0x55, 0x98, 0x0C, 0x91, 0xD8,
 455:Source\mbedtls_open\library/sha256.c ****       0xBB, 0xB4, 0xC1, 0xEA, 0x97, 0x61, 0x8A, 0x4B,
 456:Source\mbedtls_open\library/sha256.c ****       0xF0, 0x3F, 0x42, 0x58, 0x19, 0x48, 0xB2, 0xEE,
 457:Source\mbedtls_open\library/sha256.c ****       0x4E, 0xE7, 0xAD, 0x67 },
 458:Source\mbedtls_open\library/sha256.c **** 
 459:Source\mbedtls_open\library/sha256.c ****     /*
 460:Source\mbedtls_open\library/sha256.c ****      * SHA-256 test vectors
 461:Source\mbedtls_open\library/sha256.c ****      */
 462:Source\mbedtls_open\library/sha256.c ****     { 0xBA, 0x78, 0x16, 0xBF, 0x8F, 0x01, 0xCF, 0xEA,
 463:Source\mbedtls_open\library/sha256.c ****       0x41, 0x41, 0x40, 0xDE, 0x5D, 0xAE, 0x22, 0x23,
 464:Source\mbedtls_open\library/sha256.c ****       0xB0, 0x03, 0x61, 0xA3, 0x96, 0x17, 0x7A, 0x9C,
 465:Source\mbedtls_open\library/sha256.c ****       0xB4, 0x10, 0xFF, 0x61, 0xF2, 0x00, 0x15, 0xAD },
 466:Source\mbedtls_open\library/sha256.c ****     { 0x24, 0x8D, 0x6A, 0x61, 0xD2, 0x06, 0x38, 0xB8,
 467:Source\mbedtls_open\library/sha256.c ****       0xE5, 0xC0, 0x26, 0x93, 0x0C, 0x3E, 0x60, 0x39,
 468:Source\mbedtls_open\library/sha256.c ****       0xA3, 0x3C, 0xE4, 0x59, 0x64, 0xFF, 0x21, 0x67,
 469:Source\mbedtls_open\library/sha256.c ****       0xF6, 0xEC, 0xED, 0xD4, 0x19, 0xDB, 0x06, 0xC1 },
 470:Source\mbedtls_open\library/sha256.c ****     { 0xCD, 0xC7, 0x6E, 0x5C, 0x99, 0x14, 0xFB, 0x92,
 471:Source\mbedtls_open\library/sha256.c ****       0x81, 0xA1, 0xC7, 0xE2, 0x84, 0xD7, 0x3E, 0x67,
 472:Source\mbedtls_open\library/sha256.c ****       0xF1, 0x80, 0x9A, 0x48, 0xA4, 0x97, 0x20, 0x0E,
 473:Source\mbedtls_open\library/sha256.c ****       0x04, 0x6D, 0x39, 0xCC, 0xC7, 0x11, 0x2C, 0xD0 }
 474:Source\mbedtls_open\library/sha256.c **** };
 475:Source\mbedtls_open\library/sha256.c **** 
 476:Source\mbedtls_open\library/sha256.c **** /*
 477:Source\mbedtls_open\library/sha256.c ****  * Checkup routine
 478:Source\mbedtls_open\library/sha256.c ****  */
 479:Source\mbedtls_open\library/sha256.c **** int mbedtls_sha256_self_test( int verbose )
 480:Source\mbedtls_open\library/sha256.c **** {
 2500              		.loc 1 480 0
 2501              		.cfi_startproc
 2502              		@ args = 0, pretend = 0, frame = 152
 2503              		@ frame_needed = 0, uses_anonymous_args = 0
 2504              	.LVL272:
 2505 0000 F0B5     		push	{r4, r5, r6, r7, lr}
 2506              		.cfi_def_cfa_offset 20
 2507              		.cfi_offset 4, -20
 2508              		.cfi_offset 5, -16
 2509              		.cfi_offset 6, -12
 2510              		.cfi_offset 7, -8
 2511              		.cfi_offset 14, -4
 2512 0002 4746     		mov	r7, r8
 2513 0004 80B4     		push	{r7}
 2514              		.cfi_def_cfa_offset 24
 2515              		.cfi_offset 8, -24
 2516 0006 A6B0     		sub	sp, sp, #152
 2517              		.cfi_def_cfa_offset 176
 2518 0008 8046     		mov	r8, r0
 2519              	.LVL273:
 481:Source\mbedtls_open\library/sha256.c ****     int i, j, k, buflen, ret = 0;
 482:Source\mbedtls_open\library/sha256.c ****     unsigned char *buf;
 483:Source\mbedtls_open\library/sha256.c ****     unsigned char sha256sum[32];
 484:Source\mbedtls_open\library/sha256.c ****     mbedtls_sha256_context ctx;
 485:Source\mbedtls_open\library/sha256.c **** 
 486:Source\mbedtls_open\library/sha256.c ****     buf = mbedtls_calloc( 1024, sizeof(unsigned char) );
 2520              		.loc 1 486 0
 2521 000a 0121     		movs	r1, #1
 2522 000c 8020     		movs	r0, #128
ARM GAS  C:\Users\Phuong\AppData\Local\Temp\ccuEFeTd.s 			page 54


 2523              	.LVL274:
 2524 000e C000     		lsls	r0, r0, #3
 2525 0010 FFF7FEFF 		bl	calloc
 2526              	.LVL275:
 2527 0014 0190     		str	r0, [sp, #4]
 2528              	.LVL276:
 487:Source\mbedtls_open\library/sha256.c ****     if( NULL == buf )
 2529              		.loc 1 487 0
 2530 0016 0028     		cmp	r0, #0
 2531 0018 08D1     		bne	.L53
 488:Source\mbedtls_open\library/sha256.c ****     {
 489:Source\mbedtls_open\library/sha256.c ****         if( verbose != 0 )
 2532              		.loc 1 489 0
 2533 001a 4346     		mov	r3, r8
 2534 001c 002B     		cmp	r3, #0
 2535 001e 00D1     		bne	.LCB2685
 2536 0020 7CE0     		b	.L65	@long jump
 2537              	.LCB2685:
 490:Source\mbedtls_open\library/sha256.c ****             mbedtls_printf( "Buffer allocation failed\n" );
 2538              		.loc 1 490 0
 2539 0022 4148     		ldr	r0, .L67
 2540              	.LVL277:
 2541 0024 FFF7FEFF 		bl	puts
 2542              	.LVL278:
 491:Source\mbedtls_open\library/sha256.c **** 
 492:Source\mbedtls_open\library/sha256.c ****         return( 1 );
 2543              		.loc 1 492 0
 2544 0028 0120     		movs	r0, #1
 2545 002a 78E0     		b	.L54
 2546              	.LVL279:
 2547              	.L53:
 493:Source\mbedtls_open\library/sha256.c ****     }
 494:Source\mbedtls_open\library/sha256.c **** 
 495:Source\mbedtls_open\library/sha256.c ****     mbedtls_sha256_init( &ctx );
 2548              		.loc 1 495 0
 2549 002c 03A8     		add	r0, sp, #12
 2550              	.LVL280:
 2551 002e FFF7FEFF 		bl	mbedtls_sha256_init
 2552              	.LVL281:
 481:Source\mbedtls_open\library/sha256.c ****     unsigned char *buf;
 2553              		.loc 1 481 0
 2554 0032 0024     		movs	r4, #0
 496:Source\mbedtls_open\library/sha256.c **** 
 497:Source\mbedtls_open\library/sha256.c ****     for( i = 0; i < 6; i++ )
 2555              		.loc 1 497 0
 2556 0034 0026     		movs	r6, #0
 2557 0036 59E0     		b	.L55
 2558              	.LVL282:
 2559              	.L63:
 498:Source\mbedtls_open\library/sha256.c ****     {
 499:Source\mbedtls_open\library/sha256.c ****         j = i % 3;
 2560              		.loc 1 499 0
 2561 0038 0321     		movs	r1, #3
 2562 003a 3000     		movs	r0, r6
 2563 003c FFF7FEFF 		bl	__aeabi_idivmod
 2564              	.LVL283:
 2565 0040 0D00     		movs	r5, r1
ARM GAS  C:\Users\Phuong\AppData\Local\Temp\ccuEFeTd.s 			page 55


 2566              	.LVL284:
 500:Source\mbedtls_open\library/sha256.c ****         k = i < 3;
 2567              		.loc 1 500 0
 2568 0042 F70F     		lsrs	r7, r6, #31
 2569 0044 0023     		movs	r3, #0
 2570 0046 0221     		movs	r1, #2
 2571              	.LVL285:
 2572 0048 B142     		cmp	r1, r6
 2573 004a 5F41     		adcs	r7, r7, r3
 2574 004c FFB2     		uxtb	r7, r7
 2575              	.LVL286:
 501:Source\mbedtls_open\library/sha256.c **** 
 502:Source\mbedtls_open\library/sha256.c ****         if( verbose != 0 )
 2576              		.loc 1 502 0
 2577 004e 4346     		mov	r3, r8
 2578 0050 002B     		cmp	r3, #0
 2579 0052 06D0     		beq	.L56
 2580              	.LVL287:
 503:Source\mbedtls_open\library/sha256.c ****             mbedtls_printf( "  SHA-%d test #%d: ", 256 - k * 32, j + 1 );
 2581              		.loc 1 503 0
 2582 0054 0631     		adds	r1, r1, #6
 2583 0056 C91B     		subs	r1, r1, r7
 2584 0058 6A1C     		adds	r2, r5, #1
 2585 005a 4901     		lsls	r1, r1, #5
 2586 005c 3348     		ldr	r0, .L67+4
 2587 005e FFF7FEFF 		bl	printf
 2588              	.LVL288:
 2589              	.L56:
 504:Source\mbedtls_open\library/sha256.c **** 
 505:Source\mbedtls_open\library/sha256.c ****         if( ( ret = mbedtls_sha256_starts_ret( &ctx, k ) ) != 0 )
 2590              		.loc 1 505 0
 2591 0062 3900     		movs	r1, r7
 2592 0064 03A8     		add	r0, sp, #12
 2593 0066 FFF7FEFF 		bl	mbedtls_sha256_starts_ret
 2594              	.LVL289:
 2595 006a 041E     		subs	r4, r0, #0
 2596              	.LVL290:
 2597 006c 48D1     		bne	.L57
 506:Source\mbedtls_open\library/sha256.c ****             goto fail;
 507:Source\mbedtls_open\library/sha256.c **** 
 508:Source\mbedtls_open\library/sha256.c ****         if( j == 2 )
 2598              		.loc 1 508 0
 2599 006e 022D     		cmp	r5, #2
 2600 0070 14D1     		bne	.L58
 2601              	.LVL291:
 509:Source\mbedtls_open\library/sha256.c ****         {
 510:Source\mbedtls_open\library/sha256.c ****             memset( buf, 'a', buflen = 1000 );
 2602              		.loc 1 510 0
 2603 0072 FA22     		movs	r2, #250
 2604 0074 9200     		lsls	r2, r2, #2
 2605 0076 6121     		movs	r1, #97
 2606 0078 0198     		ldr	r0, [sp, #4]
 2607              	.LVL292:
 2608 007a FFF7FEFF 		bl	memset
 2609              	.LVL293:
 511:Source\mbedtls_open\library/sha256.c **** 
 512:Source\mbedtls_open\library/sha256.c ****             for( j = 0; j < 1000; j++ )
ARM GAS  C:\Users\Phuong\AppData\Local\Temp\ccuEFeTd.s 			page 56


 2610              		.loc 1 512 0
 2611 007e 0025     		movs	r5, #0
 2612 0080 08E0     		b	.L59
 2613              	.LVL294:
 2614              	.L60:
 513:Source\mbedtls_open\library/sha256.c ****             {
 514:Source\mbedtls_open\library/sha256.c ****                 ret = mbedtls_sha256_update_ret( &ctx, buf, buflen );
 2615              		.loc 1 514 0
 2616 0082 FA22     		movs	r2, #250
 2617 0084 9200     		lsls	r2, r2, #2
 2618 0086 0199     		ldr	r1, [sp, #4]
 2619 0088 03A8     		add	r0, sp, #12
 2620 008a FFF7FEFF 		bl	mbedtls_sha256_update_ret
 2621              	.LVL295:
 2622 008e 041E     		subs	r4, r0, #0
 2623              	.LVL296:
 515:Source\mbedtls_open\library/sha256.c ****                 if( ret != 0 )
 2624              		.loc 1 515 0
 2625 0090 36D1     		bne	.L57
 512:Source\mbedtls_open\library/sha256.c ****             {
 2626              		.loc 1 512 0 discriminator 2
 2627 0092 0135     		adds	r5, r5, #1
 2628              	.LVL297:
 2629              	.L59:
 512:Source\mbedtls_open\library/sha256.c ****             {
 2630              		.loc 1 512 0 is_stmt 0 discriminator 1
 2631 0094 264B     		ldr	r3, .L67+8
 2632 0096 9D42     		cmp	r5, r3
 2633 0098 F3DD     		ble	.L60
 2634 009a 0EE0     		b	.L61
 2635              	.LVL298:
 2636              	.L58:
 516:Source\mbedtls_open\library/sha256.c ****                     goto fail;
 517:Source\mbedtls_open\library/sha256.c ****             }
 518:Source\mbedtls_open\library/sha256.c **** 
 519:Source\mbedtls_open\library/sha256.c ****         }
 520:Source\mbedtls_open\library/sha256.c ****         else
 521:Source\mbedtls_open\library/sha256.c ****         {
 522:Source\mbedtls_open\library/sha256.c ****             ret = mbedtls_sha256_update_ret( &ctx, sha256_test_buf[j],
 2637              		.loc 1 522 0 is_stmt 1
 2638 009c E900     		lsls	r1, r5, #3
 2639 009e 491B     		subs	r1, r1, r5
 2640 00a0 C900     		lsls	r1, r1, #3
 2641 00a2 4919     		adds	r1, r1, r5
 2642 00a4 234B     		ldr	r3, .L67+12
 2643 00a6 5918     		adds	r1, r3, r1
 2644 00a8 AD00     		lsls	r5, r5, #2
 2645              	.LVL299:
 2646 00aa 234B     		ldr	r3, .L67+16
 2647 00ac 5D19     		adds	r5, r3, r5
 2648 00ae EA6A     		ldr	r2, [r5, #44]
 2649 00b0 03A8     		add	r0, sp, #12
 2650              	.LVL300:
 2651 00b2 FFF7FEFF 		bl	mbedtls_sha256_update_ret
 2652              	.LVL301:
 2653 00b6 041E     		subs	r4, r0, #0
 2654              	.LVL302:
ARM GAS  C:\Users\Phuong\AppData\Local\Temp\ccuEFeTd.s 			page 57


 523:Source\mbedtls_open\library/sha256.c ****                                              sha256_test_buflen[j] );
 524:Source\mbedtls_open\library/sha256.c ****             if( ret != 0 )
 2655              		.loc 1 524 0
 2656 00b8 22D1     		bne	.L57
 2657              	.LVL303:
 2658              	.L61:
 525:Source\mbedtls_open\library/sha256.c ****                  goto fail;
 526:Source\mbedtls_open\library/sha256.c ****         }
 527:Source\mbedtls_open\library/sha256.c **** 
 528:Source\mbedtls_open\library/sha256.c ****         if( ( ret = mbedtls_sha256_finish_ret( &ctx, sha256sum ) ) != 0 )
 2659              		.loc 1 528 0
 2660 00ba 1EA9     		add	r1, sp, #120
 2661 00bc 03A8     		add	r0, sp, #12
 2662 00be FFF7FEFF 		bl	mbedtls_sha256_finish_ret
 2663              	.LVL304:
 2664 00c2 041E     		subs	r4, r0, #0
 2665              	.LVL305:
 2666 00c4 1CD1     		bne	.L57
 529:Source\mbedtls_open\library/sha256.c ****             goto fail;
 530:Source\mbedtls_open\library/sha256.c **** 
 531:Source\mbedtls_open\library/sha256.c **** 
 532:Source\mbedtls_open\library/sha256.c ****         if( memcmp( sha256sum, sha256_test_sum[i], 32 - k * 4 ) != 0 )
 2667              		.loc 1 532 0
 2668 00c6 7301     		lsls	r3, r6, #5
 2669 00c8 1B49     		ldr	r1, .L67+16
 2670 00ca 3831     		adds	r1, r1, #56
 2671 00cc C918     		adds	r1, r1, r3
 2672 00ce 0822     		movs	r2, #8
 2673 00d0 D21B     		subs	r2, r2, r7
 2674 00d2 9200     		lsls	r2, r2, #2
 2675 00d4 1EA8     		add	r0, sp, #120
 2676              	.LVL306:
 2677 00d6 FFF7FEFF 		bl	memcmp
 2678              	.LVL307:
 2679 00da 0028     		cmp	r0, #0
 2680 00dc 0FD1     		bne	.L66
 533:Source\mbedtls_open\library/sha256.c ****         {
 534:Source\mbedtls_open\library/sha256.c ****             ret = 1;
 535:Source\mbedtls_open\library/sha256.c ****             goto fail;
 536:Source\mbedtls_open\library/sha256.c ****         }
 537:Source\mbedtls_open\library/sha256.c **** 
 538:Source\mbedtls_open\library/sha256.c ****         if( verbose != 0 )
 2681              		.loc 1 538 0
 2682 00de 4346     		mov	r3, r8
 2683 00e0 002B     		cmp	r3, #0
 2684 00e2 02D0     		beq	.L62
 2685              	.LVL308:
 539:Source\mbedtls_open\library/sha256.c ****             mbedtls_printf( "passed\n" );
 2686              		.loc 1 539 0
 2687 00e4 1548     		ldr	r0, .L67+20
 2688 00e6 FFF7FEFF 		bl	puts
 2689              	.LVL309:
 2690              	.L62:
 497:Source\mbedtls_open\library/sha256.c ****     {
 2691              		.loc 1 497 0 discriminator 2
 2692 00ea 0136     		adds	r6, r6, #1
 2693              	.LVL310:
ARM GAS  C:\Users\Phuong\AppData\Local\Temp\ccuEFeTd.s 			page 58


 2694              	.L55:
 497:Source\mbedtls_open\library/sha256.c ****     {
 2695              		.loc 1 497 0 is_stmt 0 discriminator 1
 2696 00ec 052E     		cmp	r6, #5
 2697 00ee A3DD     		ble	.L63
 540:Source\mbedtls_open\library/sha256.c ****     }
 541:Source\mbedtls_open\library/sha256.c **** 
 542:Source\mbedtls_open\library/sha256.c ****     if( verbose != 0 )
 2698              		.loc 1 542 0 is_stmt 1
 2699 00f0 4346     		mov	r3, r8
 2700 00f2 002B     		cmp	r3, #0
 2701 00f4 0AD0     		beq	.L64
 2702              	.LVL311:
 543:Source\mbedtls_open\library/sha256.c ****         mbedtls_printf( "\n" );
 2703              		.loc 1 543 0
 2704 00f6 0A20     		movs	r0, #10
 2705 00f8 FFF7FEFF 		bl	putchar
 2706              	.LVL312:
 2707 00fc 06E0     		b	.L64
 2708              	.LVL313:
 2709              	.L66:
 534:Source\mbedtls_open\library/sha256.c ****             goto fail;
 2710              		.loc 1 534 0
 2711 00fe 0124     		movs	r4, #1
 2712              	.LVL314:
 2713              	.L57:
 544:Source\mbedtls_open\library/sha256.c **** 
 545:Source\mbedtls_open\library/sha256.c ****     goto exit;
 546:Source\mbedtls_open\library/sha256.c **** 
 547:Source\mbedtls_open\library/sha256.c **** fail:
 548:Source\mbedtls_open\library/sha256.c ****     if( verbose != 0 )
 2714              		.loc 1 548 0
 2715 0100 4346     		mov	r3, r8
 2716 0102 002B     		cmp	r3, #0
 2717 0104 02D0     		beq	.L64
 2718              	.LVL315:
 549:Source\mbedtls_open\library/sha256.c ****         mbedtls_printf( "failed\n" );
 2719              		.loc 1 549 0
 2720 0106 0E48     		ldr	r0, .L67+24
 2721 0108 FFF7FEFF 		bl	puts
 2722              	.LVL316:
 2723              	.L64:
 550:Source\mbedtls_open\library/sha256.c **** 
 551:Source\mbedtls_open\library/sha256.c **** exit:
 552:Source\mbedtls_open\library/sha256.c ****     mbedtls_sha256_free( &ctx );
 2724              		.loc 1 552 0
 2725 010c 03A8     		add	r0, sp, #12
 2726 010e FFF7FEFF 		bl	mbedtls_sha256_free
 2727              	.LVL317:
 553:Source\mbedtls_open\library/sha256.c ****     mbedtls_free( buf );
 2728              		.loc 1 553 0
 2729 0112 0198     		ldr	r0, [sp, #4]
 2730 0114 FFF7FEFF 		bl	free
 2731              	.LVL318:
 554:Source\mbedtls_open\library/sha256.c **** 
 555:Source\mbedtls_open\library/sha256.c ****     return( ret );
 2732              		.loc 1 555 0
ARM GAS  C:\Users\Phuong\AppData\Local\Temp\ccuEFeTd.s 			page 59


 2733 0118 2000     		movs	r0, r4
 2734 011a 00E0     		b	.L54
 2735              	.LVL319:
 2736              	.L65:
 492:Source\mbedtls_open\library/sha256.c ****     }
 2737              		.loc 1 492 0
 2738 011c 0120     		movs	r0, #1
 2739              	.LVL320:
 2740              	.L54:
 556:Source\mbedtls_open\library/sha256.c **** }
 2741              		.loc 1 556 0
 2742 011e 26B0     		add	sp, sp, #152
 2743              		@ sp needed
 2744              	.LVL321:
 2745 0120 04BC     		pop	{r2}
 2746 0122 9046     		mov	r8, r2
 2747 0124 F0BD     		pop	{r4, r5, r6, r7, pc}
 2748              	.L68:
 2749 0126 C046     		.align	2
 2750              	.L67:
 2751 0128 00000000 		.word	.LC1
 2752 012c 1C000000 		.word	.LC3
 2753 0130 E7030000 		.word	999
 2754 0134 00010000 		.word	.LANCHOR1
 2755 0138 80010000 		.word	.LANCHOR2
 2756 013c 30000000 		.word	.LC7
 2757 0140 38000000 		.word	.LC9
 2758              		.cfi_endproc
 2759              	.LFE14:
 2760              		.size	mbedtls_sha256_self_test, .-mbedtls_sha256_self_test
 2761              		.section	.rodata
 2762              		.align	2
 2763              		.set	.LANCHOR0,. + 0
 2764              		.set	.LANCHOR1,. + 256
 2765              		.set	.LANCHOR2,. + 384
 2766              		.type	K, %object
 2767              		.size	K, 256
 2768              	K:
 2769 0000 982F8A42 		.word	1116352408
 2770 0004 91443771 		.word	1899447441
 2771 0008 CFFBC0B5 		.word	-1245643825
 2772 000c A5DBB5E9 		.word	-373957723
 2773 0010 5BC25639 		.word	961987163
 2774 0014 F111F159 		.word	1508970993
 2775 0018 A4823F92 		.word	-1841331548
 2776 001c D55E1CAB 		.word	-1424204075
 2777 0020 98AA07D8 		.word	-670586216
 2778 0024 015B8312 		.word	310598401
 2779 0028 BE853124 		.word	607225278
 2780 002c C37D0C55 		.word	1426881987
 2781 0030 745DBE72 		.word	1925078388
 2782 0034 FEB1DE80 		.word	-2132889090
 2783 0038 A706DC9B 		.word	-1680079193
 2784 003c 74F19BC1 		.word	-1046744716
 2785 0040 C1699BE4 		.word	-459576895
 2786 0044 8647BEEF 		.word	-272742522
 2787 0048 C69DC10F 		.word	264347078
ARM GAS  C:\Users\Phuong\AppData\Local\Temp\ccuEFeTd.s 			page 60


 2788 004c CCA10C24 		.word	604807628
 2789 0050 6F2CE92D 		.word	770255983
 2790 0054 AA84744A 		.word	1249150122
 2791 0058 DCA9B05C 		.word	1555081692
 2792 005c DA88F976 		.word	1996064986
 2793 0060 52513E98 		.word	-1740746414
 2794 0064 6DC631A8 		.word	-1473132947
 2795 0068 C82703B0 		.word	-1341970488
 2796 006c C77F59BF 		.word	-1084653625
 2797 0070 F30BE0C6 		.word	-958395405
 2798 0074 4791A7D5 		.word	-710438585
 2799 0078 5163CA06 		.word	113926993
 2800 007c 67292914 		.word	338241895
 2801 0080 850AB727 		.word	666307205
 2802 0084 38211B2E 		.word	773529912
 2803 0088 FC6D2C4D 		.word	1294757372
 2804 008c 130D3853 		.word	1396182291
 2805 0090 54730A65 		.word	1695183700
 2806 0094 BB0A6A76 		.word	1986661051
 2807 0098 2EC9C281 		.word	-2117940946
 2808 009c 852C7292 		.word	-1838011259
 2809 00a0 A1E8BFA2 		.word	-1564481375
 2810 00a4 4B661AA8 		.word	-1474664885
 2811 00a8 708B4BC2 		.word	-1035236496
 2812 00ac A3516CC7 		.word	-949202525
 2813 00b0 19E892D1 		.word	-778901479
 2814 00b4 240699D6 		.word	-694614492
 2815 00b8 85350EF4 		.word	-200395387
 2816 00bc 70A06A10 		.word	275423344
 2817 00c0 16C1A419 		.word	430227734
 2818 00c4 086C371E 		.word	506948616
 2819 00c8 4C774827 		.word	659060556
 2820 00cc B5BCB034 		.word	883997877
 2821 00d0 B30C1C39 		.word	958139571
 2822 00d4 4AAAD84E 		.word	1322822218
 2823 00d8 4FCA9C5B 		.word	1537002063
 2824 00dc F36F2E68 		.word	1747873779
 2825 00e0 EE828F74 		.word	1955562222
 2826 00e4 6F63A578 		.word	2024104815
 2827 00e8 1478C884 		.word	-2067236844
 2828 00ec 0802C78C 		.word	-1933114872
 2829 00f0 FAFFBE90 		.word	-1866530822
 2830 00f4 EB6C50A4 		.word	-1538233109
 2831 00f8 F7A3F9BE 		.word	-1090935817
 2832 00fc F27871C6 		.word	-965641998
 2833              		.type	sha256_test_buf, %object
 2834              		.size	sha256_test_buf, 171
 2835              	sha256_test_buf:
 2836 0100 61626300 		.ascii	"abc\000"
 2837 0104 00000000 		.space	53
 2837      00000000 
 2837      00000000 
 2837      00000000 
 2837      00000000 
 2838 0139 61626364 		.ascii	"abcdbcdecdefdefgefghfghighijhijkijkljklmklmnlmnomno"
 2838      62636465 
 2838      63646566 
ARM GAS  C:\Users\Phuong\AppData\Local\Temp\ccuEFeTd.s 			page 61


 2838      64656667 
 2838      65666768 
 2839 016c 706E6F70 		.ascii	"pnopq\000"
 2839      7100
 2840 0172 00       		.ascii	"\000"
 2841 0173 00000000 		.space	56
 2841      00000000 
 2841      00000000 
 2841      00000000 
 2841      00000000 
 2842 01ab 00       		.space	1
 2843              		.type	sha256_test_buflen, %object
 2844              		.size	sha256_test_buflen, 12
 2845              	sha256_test_buflen:
 2846 01ac 03000000 		.word	3
 2847 01b0 38000000 		.word	56
 2848 01b4 E8030000 		.word	1000
 2849              		.type	sha256_test_sum, %object
 2850              		.size	sha256_test_sum, 192
 2851              	sha256_test_sum:
 2852 01b8 23       		.byte	35
 2853 01b9 09       		.byte	9
 2854 01ba 7D       		.byte	125
 2855 01bb 22       		.byte	34
 2856 01bc 34       		.byte	52
 2857 01bd 05       		.byte	5
 2858 01be D8       		.byte	-40
 2859 01bf 22       		.byte	34
 2860 01c0 86       		.byte	-122
 2861 01c1 42       		.byte	66
 2862 01c2 A4       		.byte	-92
 2863 01c3 77       		.byte	119
 2864 01c4 BD       		.byte	-67
 2865 01c5 A2       		.byte	-94
 2866 01c6 55       		.byte	85
 2867 01c7 B3       		.byte	-77
 2868 01c8 2A       		.byte	42
 2869 01c9 AD       		.byte	-83
 2870 01ca BC       		.byte	-68
 2871 01cb E4       		.byte	-28
 2872 01cc BD       		.byte	-67
 2873 01cd A0       		.byte	-96
 2874 01ce B3       		.byte	-77
 2875 01cf F7       		.byte	-9
 2876 01d0 E3       		.byte	-29
 2877 01d1 6C       		.byte	108
 2878 01d2 9D       		.byte	-99
 2879 01d3 A7       		.byte	-89
 2880 01d4 00000000 		.space	4
 2881 01d8 75       		.byte	117
 2882 01d9 38       		.byte	56
 2883 01da 8B       		.byte	-117
 2884 01db 16       		.byte	22
 2885 01dc 51       		.byte	81
 2886 01dd 27       		.byte	39
 2887 01de 76       		.byte	118
 2888 01df CC       		.byte	-52
ARM GAS  C:\Users\Phuong\AppData\Local\Temp\ccuEFeTd.s 			page 62


 2889 01e0 5D       		.byte	93
 2890 01e1 BA       		.byte	-70
 2891 01e2 5D       		.byte	93
 2892 01e3 A1       		.byte	-95
 2893 01e4 FD       		.byte	-3
 2894 01e5 89       		.byte	-119
 2895 01e6 01       		.byte	1
 2896 01e7 50       		.byte	80
 2897 01e8 B0       		.byte	-80
 2898 01e9 C6       		.byte	-58
 2899 01ea 45       		.byte	69
 2900 01eb 5C       		.byte	92
 2901 01ec B4       		.byte	-76
 2902 01ed F5       		.byte	-11
 2903 01ee 8B       		.byte	-117
 2904 01ef 19       		.byte	25
 2905 01f0 52       		.byte	82
 2906 01f1 52       		.byte	82
 2907 01f2 25       		.byte	37
 2908 01f3 25       		.byte	37
 2909 01f4 00000000 		.space	4
 2910 01f8 20       		.byte	32
 2911 01f9 79       		.byte	121
 2912 01fa 46       		.byte	70
 2913 01fb 55       		.byte	85
 2914 01fc 98       		.byte	-104
 2915 01fd 0C       		.byte	12
 2916 01fe 91       		.byte	-111
 2917 01ff D8       		.byte	-40
 2918 0200 BB       		.byte	-69
 2919 0201 B4       		.byte	-76
 2920 0202 C1       		.byte	-63
 2921 0203 EA       		.byte	-22
 2922 0204 97       		.byte	-105
 2923 0205 61       		.byte	97
 2924 0206 8A       		.byte	-118
 2925 0207 4B       		.byte	75
 2926 0208 F0       		.byte	-16
 2927 0209 3F       		.byte	63
 2928 020a 42       		.byte	66
 2929 020b 58       		.byte	88
 2930 020c 19       		.byte	25
 2931 020d 48       		.byte	72
 2932 020e B2       		.byte	-78
 2933 020f EE       		.byte	-18
 2934 0210 4E       		.byte	78
 2935 0211 E7       		.byte	-25
 2936 0212 AD       		.byte	-83
 2937 0213 67       		.byte	103
 2938 0214 00000000 		.space	4
 2939 0218 BA       		.byte	-70
 2940 0219 78       		.byte	120
 2941 021a 16       		.byte	22
 2942 021b BF       		.byte	-65
 2943 021c 8F       		.byte	-113
 2944 021d 01       		.byte	1
 2945 021e CF       		.byte	-49
ARM GAS  C:\Users\Phuong\AppData\Local\Temp\ccuEFeTd.s 			page 63


 2946 021f EA       		.byte	-22
 2947 0220 41       		.byte	65
 2948 0221 41       		.byte	65
 2949 0222 40       		.byte	64
 2950 0223 DE       		.byte	-34
 2951 0224 5D       		.byte	93
 2952 0225 AE       		.byte	-82
 2953 0226 22       		.byte	34
 2954 0227 23       		.byte	35
 2955 0228 B0       		.byte	-80
 2956 0229 03       		.byte	3
 2957 022a 61       		.byte	97
 2958 022b A3       		.byte	-93
 2959 022c 96       		.byte	-106
 2960 022d 17       		.byte	23
 2961 022e 7A       		.byte	122
 2962 022f 9C       		.byte	-100
 2963 0230 B4       		.byte	-76
 2964 0231 10       		.byte	16
 2965 0232 FF       		.byte	-1
 2966 0233 61       		.byte	97
 2967 0234 F2       		.byte	-14
 2968 0235 00       		.byte	0
 2969 0236 15       		.byte	21
 2970 0237 AD       		.byte	-83
 2971 0238 24       		.byte	36
 2972 0239 8D       		.byte	-115
 2973 023a 6A       		.byte	106
 2974 023b 61       		.byte	97
 2975 023c D2       		.byte	-46
 2976 023d 06       		.byte	6
 2977 023e 38       		.byte	56
 2978 023f B8       		.byte	-72
 2979 0240 E5       		.byte	-27
 2980 0241 C0       		.byte	-64
 2981 0242 26       		.byte	38
 2982 0243 93       		.byte	-109
 2983 0244 0C       		.byte	12
 2984 0245 3E       		.byte	62
 2985 0246 60       		.byte	96
 2986 0247 39       		.byte	57
 2987 0248 A3       		.byte	-93
 2988 0249 3C       		.byte	60
 2989 024a E4       		.byte	-28
 2990 024b 59       		.byte	89
 2991 024c 64       		.byte	100
 2992 024d FF       		.byte	-1
 2993 024e 21       		.byte	33
 2994 024f 67       		.byte	103
 2995 0250 F6       		.byte	-10
 2996 0251 EC       		.byte	-20
 2997 0252 ED       		.byte	-19
 2998 0253 D4       		.byte	-44
 2999 0254 19       		.byte	25
 3000 0255 DB       		.byte	-37
 3001 0256 06       		.byte	6
 3002 0257 C1       		.byte	-63
ARM GAS  C:\Users\Phuong\AppData\Local\Temp\ccuEFeTd.s 			page 64


 3003 0258 CD       		.byte	-51
 3004 0259 C7       		.byte	-57
 3005 025a 6E       		.byte	110
 3006 025b 5C       		.byte	92
 3007 025c 99       		.byte	-103
 3008 025d 14       		.byte	20
 3009 025e FB       		.byte	-5
 3010 025f 92       		.byte	-110
 3011 0260 81       		.byte	-127
 3012 0261 A1       		.byte	-95
 3013 0262 C7       		.byte	-57
 3014 0263 E2       		.byte	-30
 3015 0264 84       		.byte	-124
 3016 0265 D7       		.byte	-41
 3017 0266 3E       		.byte	62
 3018 0267 67       		.byte	103
 3019 0268 F1       		.byte	-15
 3020 0269 80       		.byte	-128
 3021 026a 9A       		.byte	-102
 3022 026b 48       		.byte	72
 3023 026c A4       		.byte	-92
 3024 026d 97       		.byte	-105
 3025 026e 20       		.byte	32
 3026 026f 0E       		.byte	14
 3027 0270 04       		.byte	4
 3028 0271 6D       		.byte	109
 3029 0272 39       		.byte	57
 3030 0273 CC       		.byte	-52
 3031 0274 C7       		.byte	-57
 3032 0275 11       		.byte	17
 3033 0276 2C       		.byte	44
 3034 0277 D0       		.byte	-48
 3035              		.section	.rodata.str1.4,"aMS",%progbits,1
 3036              		.align	2
 3037              	.LC1:
 3038 0000 42756666 		.ascii	"Buffer allocation failed\000"
 3038      65722061 
 3038      6C6C6F63 
 3038      6174696F 
 3038      6E206661 
 3039 0019 000000   		.space	3
 3040              	.LC3:
 3041 001c 20205348 		.ascii	"  SHA-%d test #%d: \000"
 3041      412D2564 
 3041      20746573 
 3041      74202325 
 3041      643A2000 
 3042              	.LC7:
 3043 0030 70617373 		.ascii	"passed\000"
 3043      656400
 3044 0037 00       		.space	1
 3045              	.LC9:
 3046 0038 6661696C 		.ascii	"failed\000"
 3046      656400
 3047              		.text
 3048              	.Letext0:
 3049              		.file 2 "c:\\program files (x86)\\cypress\\psoc creator\\4.2\\psoc creator\\import\\gnu\\arm\\5.4.
ARM GAS  C:\Users\Phuong\AppData\Local\Temp\ccuEFeTd.s 			page 65


 3050              		.file 3 "c:\\program files (x86)\\cypress\\psoc creator\\4.2\\psoc creator\\import\\gnu\\arm\\5.4.
 3051              		.file 4 "c:\\program files (x86)\\cypress\\psoc creator\\4.2\\psoc creator\\import\\gnu\\arm\\5.4.
 3052              		.file 5 ".\\Source\\mbedtls_open\\include/mbedtls/sha256.h"
 3053              		.file 6 ".\\Source\\mbedtls_open\\include/mbedtls/platform_util.h"
 3054              		.file 7 "c:\\program files (x86)\\cypress\\psoc creator\\4.2\\psoc creator\\import\\gnu\\arm\\5.4.
 3055              		.file 8 "c:\\program files (x86)\\cypress\\psoc creator\\4.2\\psoc creator\\import\\gnu\\arm\\5.4.
 3056              		.file 9 "c:\\program files (x86)\\cypress\\psoc creator\\4.2\\psoc creator\\import\\gnu\\arm\\5.4.
 3057              		.file 10 "<built-in>"