ARM GAS  C:\Users\Phuong\AppData\Local\Temp\ccqJesaa.s 			page 1


   1              		.syntax unified
   2              		.cpu cortex-m0plus
   3              		.fpu softvfp
   4              		.eabi_attribute 20, 1
   5              		.eabi_attribute 21, 1
   6              		.eabi_attribute 23, 3
   7              		.eabi_attribute 24, 1
   8              		.eabi_attribute 25, 1
   9              		.eabi_attribute 26, 1
  10              		.eabi_attribute 30, 1
  11              		.eabi_attribute 34, 0
  12              		.eabi_attribute 18, 4
  13              		.thumb
  14              		.syntax unified
  15              		.file	"sha224.c"
  16              		.text
  17              	.Ltext0:
  18              		.cfi_sections	.debug_frame
  19              		.section	.text.SHA224_256ProcessMessageBlock,"ax",%progbits
  20              		.align	2
  21              		.code	16
  22              		.thumb_func
  23              		.type	SHA224_256ProcessMessageBlock, %function
  24              	SHA224_256ProcessMessageBlock:
  25              	.LFB10:
  26              		.file 1 "Source\\azure_iot_sdk\\c-utility\\src\\sha224.c"
   1:Source\azure_iot_sdk\c-utility\src/sha224.c **** // Copyright (c) Microsoft. All rights reserved.
   2:Source\azure_iot_sdk\c-utility\src/sha224.c **** // Licensed under the MIT license. See LICENSE file in the project root for full license informatio
   3:Source\azure_iot_sdk\c-utility\src/sha224.c **** 
   4:Source\azure_iot_sdk\c-utility\src/sha224.c **** /*************************** sha224-256.c ***************************/
   5:Source\azure_iot_sdk\c-utility\src/sha224.c **** /********************* See RFC 4634 for details *********************/
   6:Source\azure_iot_sdk\c-utility\src/sha224.c **** /*
   7:Source\azure_iot_sdk\c-utility\src/sha224.c **** * Description:
   8:Source\azure_iot_sdk\c-utility\src/sha224.c **** *   This file implements the Secure Hash Signature Standard
   9:Source\azure_iot_sdk\c-utility\src/sha224.c **** *   algorithms as defined in the National Institute of Standards
  10:Source\azure_iot_sdk\c-utility\src/sha224.c **** *   and Technology Federal Information Processing Standards
  11:Source\azure_iot_sdk\c-utility\src/sha224.c **** *   Publication (FIPS PUB) 180-1 published on April 17, 1995, 180-2
  12:Source\azure_iot_sdk\c-utility\src/sha224.c **** *   published on August 1, 2002, and the FIPS PUB 180-2 Change
  13:Source\azure_iot_sdk\c-utility\src/sha224.c **** *   Notice published on February 28, 2004.
  14:Source\azure_iot_sdk\c-utility\src/sha224.c **** *
  15:Source\azure_iot_sdk\c-utility\src/sha224.c **** *   A combined document showing all algorithms is available at
  16:Source\azure_iot_sdk\c-utility\src/sha224.c **** *       http://csrc.nist.gov/publications/fips/
  17:Source\azure_iot_sdk\c-utility\src/sha224.c **** *       fips180-2/fips180-2withchangenotice.pdf
  18:Source\azure_iot_sdk\c-utility\src/sha224.c **** *
  19:Source\azure_iot_sdk\c-utility\src/sha224.c **** *   The SHA-224 and SHA-256 algorithms produce 224-bit and 256-bit
  20:Source\azure_iot_sdk\c-utility\src/sha224.c **** *   message digests for a given data stream. It should take about
  21:Source\azure_iot_sdk\c-utility\src/sha224.c **** *   2**n steps to find a message with the same digest as a given
  22:Source\azure_iot_sdk\c-utility\src/sha224.c **** *   message and 2**(n/2) to find any two messages with the same
  23:Source\azure_iot_sdk\c-utility\src/sha224.c **** *   digest, when n is the digest size in bits. Therefore, this
  24:Source\azure_iot_sdk\c-utility\src/sha224.c **** *   algorithm can serve as a means of providing a
  25:Source\azure_iot_sdk\c-utility\src/sha224.c **** *   "fingerprint" for a message.
  26:Source\azure_iot_sdk\c-utility\src/sha224.c **** *
  27:Source\azure_iot_sdk\c-utility\src/sha224.c **** * Portability Issues:
  28:Source\azure_iot_sdk\c-utility\src/sha224.c **** *   SHA-224 and SHA-256 are defined in terms of 32-bit "words".
  29:Source\azure_iot_sdk\c-utility\src/sha224.c **** *   This code uses <stdint.h> (included via "sha.h") to define 32
  30:Source\azure_iot_sdk\c-utility\src/sha224.c **** *   and 8 bit unsigned integer types. If your C compiler does not
  31:Source\azure_iot_sdk\c-utility\src/sha224.c **** *   support 32 bit unsigned integers, this code is not
ARM GAS  C:\Users\Phuong\AppData\Local\Temp\ccqJesaa.s 			page 2


  32:Source\azure_iot_sdk\c-utility\src/sha224.c **** *   appropriate.
  33:Source\azure_iot_sdk\c-utility\src/sha224.c **** *
  34:Source\azure_iot_sdk\c-utility\src/sha224.c **** * Caveats:
  35:Source\azure_iot_sdk\c-utility\src/sha224.c **** *   SHA-224 and SHA-256 are designed to work with messages less
  36:Source\azure_iot_sdk\c-utility\src/sha224.c **** *   than 2^64 bits long. This implementation uses SHA224/256Input()
  37:Source\azure_iot_sdk\c-utility\src/sha224.c **** *   to hash the bits that are a multiple of the size of an 8-bit
  38:Source\azure_iot_sdk\c-utility\src/sha224.c **** *   character, and then uses SHA224/256FinalBits() to hash the
  39:Source\azure_iot_sdk\c-utility\src/sha224.c **** *   final few bits of the input.
  40:Source\azure_iot_sdk\c-utility\src/sha224.c **** */
  41:Source\azure_iot_sdk\c-utility\src/sha224.c **** 
  42:Source\azure_iot_sdk\c-utility\src/sha224.c **** #include <stdlib.h>
  43:Source\azure_iot_sdk\c-utility\src/sha224.c **** #include "azure_c_shared_utility/gballoc.h"
  44:Source\azure_iot_sdk\c-utility\src/sha224.c **** 
  45:Source\azure_iot_sdk\c-utility\src/sha224.c **** #include "azure_c_shared_utility/sha.h"
  46:Source\azure_iot_sdk\c-utility\src/sha224.c **** #include "azure_c_shared_utility/sha-private.h"
  47:Source\azure_iot_sdk\c-utility\src/sha224.c **** /* Define the SHA shift, rotate left and rotate right macro */
  48:Source\azure_iot_sdk\c-utility\src/sha224.c **** #define SHA256_SHR(bits,word)      ((word) >> (bits))
  49:Source\azure_iot_sdk\c-utility\src/sha224.c **** #define SHA256_ROTL(bits,word)                         \
  50:Source\azure_iot_sdk\c-utility\src/sha224.c ****   (((word) << (bits)) | ((word) >> (32-(bits))))
  51:Source\azure_iot_sdk\c-utility\src/sha224.c **** #define SHA256_ROTR(bits,word)                         \
  52:Source\azure_iot_sdk\c-utility\src/sha224.c ****   (((word) >> (bits)) | ((word) << (32-(bits))))
  53:Source\azure_iot_sdk\c-utility\src/sha224.c **** 
  54:Source\azure_iot_sdk\c-utility\src/sha224.c **** /* Define the SHA SIGMA and sigma macros */
  55:Source\azure_iot_sdk\c-utility\src/sha224.c **** #define SHA256_SIGMA0(word)   \
  56:Source\azure_iot_sdk\c-utility\src/sha224.c ****   (SHA256_ROTR( 2,word) ^ SHA256_ROTR(13,word) ^ SHA256_ROTR(22,word))
  57:Source\azure_iot_sdk\c-utility\src/sha224.c **** #define SHA256_SIGMA1(word)   \
  58:Source\azure_iot_sdk\c-utility\src/sha224.c ****   (SHA256_ROTR( 6,word) ^ SHA256_ROTR(11,word) ^ SHA256_ROTR(25,word))
  59:Source\azure_iot_sdk\c-utility\src/sha224.c **** #define SHA256_sigma0(word)   \
  60:Source\azure_iot_sdk\c-utility\src/sha224.c ****   (SHA256_ROTR( 7,word) ^ SHA256_ROTR(18,word) ^ SHA256_SHR( 3,word))
  61:Source\azure_iot_sdk\c-utility\src/sha224.c **** #define SHA256_sigma1(word)   \
  62:Source\azure_iot_sdk\c-utility\src/sha224.c ****   (SHA256_ROTR(17,word) ^ SHA256_ROTR(19,word) ^ SHA256_SHR(10,word))
  63:Source\azure_iot_sdk\c-utility\src/sha224.c **** 
  64:Source\azure_iot_sdk\c-utility\src/sha224.c **** /*
  65:Source\azure_iot_sdk\c-utility\src/sha224.c **** * add "length" to the length
  66:Source\azure_iot_sdk\c-utility\src/sha224.c **** */
  67:Source\azure_iot_sdk\c-utility\src/sha224.c **** #define SHA224_256AddLength(context, length)               \
  68:Source\azure_iot_sdk\c-utility\src/sha224.c ****   (addTemp = (context)->Length_Low, (context)->Corrupted = \
  69:Source\azure_iot_sdk\c-utility\src/sha224.c ****     (((context)->Length_Low += (length)) < addTemp) &&     \
  70:Source\azure_iot_sdk\c-utility\src/sha224.c ****     (++(context)->Length_High == 0) ? 1 : 0)
  71:Source\azure_iot_sdk\c-utility\src/sha224.c **** 
  72:Source\azure_iot_sdk\c-utility\src/sha224.c **** /* Local Function Prototypes */
  73:Source\azure_iot_sdk\c-utility\src/sha224.c **** static void SHA224_256Finalize(SHA256Context *context,
  74:Source\azure_iot_sdk\c-utility\src/sha224.c ****     uint8_t Pad_Byte);
  75:Source\azure_iot_sdk\c-utility\src/sha224.c **** static void SHA224_256PadMessage(SHA256Context *context,
  76:Source\azure_iot_sdk\c-utility\src/sha224.c ****     uint8_t Pad_Byte);
  77:Source\azure_iot_sdk\c-utility\src/sha224.c **** static void SHA224_256ProcessMessageBlock(SHA256Context *context);
  78:Source\azure_iot_sdk\c-utility\src/sha224.c **** static int SHA224_256Reset(SHA256Context *context, uint32_t *H0);
  79:Source\azure_iot_sdk\c-utility\src/sha224.c **** static int SHA224_256ResultN(SHA256Context *context,
  80:Source\azure_iot_sdk\c-utility\src/sha224.c ****     uint8_t Message_Digest[], int HashSize);
  81:Source\azure_iot_sdk\c-utility\src/sha224.c **** 
  82:Source\azure_iot_sdk\c-utility\src/sha224.c **** /* Initial Hash Values: FIPS-180-2 Change Notice 1 */
  83:Source\azure_iot_sdk\c-utility\src/sha224.c **** static uint32_t SHA224_H0[SHA256HashSize / 4] = {
  84:Source\azure_iot_sdk\c-utility\src/sha224.c ****     0xC1059ED8, 0x367CD507, 0x3070DD17, 0xF70E5939,
  85:Source\azure_iot_sdk\c-utility\src/sha224.c ****     0xFFC00B31, 0x68581511, 0x64F98FA7, 0xBEFA4FA4
  86:Source\azure_iot_sdk\c-utility\src/sha224.c **** };
  87:Source\azure_iot_sdk\c-utility\src/sha224.c **** 
  88:Source\azure_iot_sdk\c-utility\src/sha224.c **** /* Initial Hash Values: FIPS-180-2 section 5.3.2 */
ARM GAS  C:\Users\Phuong\AppData\Local\Temp\ccqJesaa.s 			page 3


  89:Source\azure_iot_sdk\c-utility\src/sha224.c **** static uint32_t SHA256_H0[SHA256HashSize / 4] = {
  90:Source\azure_iot_sdk\c-utility\src/sha224.c ****     0x6A09E667, 0xBB67AE85, 0x3C6EF372, 0xA54FF53A,
  91:Source\azure_iot_sdk\c-utility\src/sha224.c ****     0x510E527F, 0x9B05688C, 0x1F83D9AB, 0x5BE0CD19
  92:Source\azure_iot_sdk\c-utility\src/sha224.c **** };
  93:Source\azure_iot_sdk\c-utility\src/sha224.c **** 
  94:Source\azure_iot_sdk\c-utility\src/sha224.c **** /*
  95:Source\azure_iot_sdk\c-utility\src/sha224.c **** * SHA224Reset
  96:Source\azure_iot_sdk\c-utility\src/sha224.c **** *
  97:Source\azure_iot_sdk\c-utility\src/sha224.c **** * Description:
  98:Source\azure_iot_sdk\c-utility\src/sha224.c **** *   This function will initialize the SHA384Context in preparation
  99:Source\azure_iot_sdk\c-utility\src/sha224.c **** *   for computing a new SHA224 message digest.
 100:Source\azure_iot_sdk\c-utility\src/sha224.c **** *
 101:Source\azure_iot_sdk\c-utility\src/sha224.c **** * Parameters:
 102:Source\azure_iot_sdk\c-utility\src/sha224.c **** *   context: [in/out]
 103:Source\azure_iot_sdk\c-utility\src/sha224.c **** *     The context to reset.
 104:Source\azure_iot_sdk\c-utility\src/sha224.c **** *
 105:Source\azure_iot_sdk\c-utility\src/sha224.c **** * Returns:
 106:Source\azure_iot_sdk\c-utility\src/sha224.c **** *   sha Error Code.
 107:Source\azure_iot_sdk\c-utility\src/sha224.c **** */
 108:Source\azure_iot_sdk\c-utility\src/sha224.c **** int SHA224Reset(SHA224Context *context)
 109:Source\azure_iot_sdk\c-utility\src/sha224.c **** {
 110:Source\azure_iot_sdk\c-utility\src/sha224.c ****     return SHA224_256Reset(context, SHA224_H0);
 111:Source\azure_iot_sdk\c-utility\src/sha224.c **** }
 112:Source\azure_iot_sdk\c-utility\src/sha224.c **** 
 113:Source\azure_iot_sdk\c-utility\src/sha224.c **** /*
 114:Source\azure_iot_sdk\c-utility\src/sha224.c **** * SHA224Input
 115:Source\azure_iot_sdk\c-utility\src/sha224.c **** *
 116:Source\azure_iot_sdk\c-utility\src/sha224.c **** * Description:
 117:Source\azure_iot_sdk\c-utility\src/sha224.c **** *   This function accepts an array of octets as the next portion
 118:Source\azure_iot_sdk\c-utility\src/sha224.c **** *   of the message.
 119:Source\azure_iot_sdk\c-utility\src/sha224.c **** *
 120:Source\azure_iot_sdk\c-utility\src/sha224.c **** * Parameters:
 121:Source\azure_iot_sdk\c-utility\src/sha224.c **** *   context: [in/out]
 122:Source\azure_iot_sdk\c-utility\src/sha224.c **** *     The SHA context to update
 123:Source\azure_iot_sdk\c-utility\src/sha224.c **** *   message_array: [in]
 124:Source\azure_iot_sdk\c-utility\src/sha224.c **** *     An array of characters representing the next portion of
 125:Source\azure_iot_sdk\c-utility\src/sha224.c **** *     the message.
 126:Source\azure_iot_sdk\c-utility\src/sha224.c **** *   length: [in]
 127:Source\azure_iot_sdk\c-utility\src/sha224.c **** *     The length of the message in message_array
 128:Source\azure_iot_sdk\c-utility\src/sha224.c **** *
 129:Source\azure_iot_sdk\c-utility\src/sha224.c **** * Returns:
 130:Source\azure_iot_sdk\c-utility\src/sha224.c **** *   sha Error Code.
 131:Source\azure_iot_sdk\c-utility\src/sha224.c **** *
 132:Source\azure_iot_sdk\c-utility\src/sha224.c **** */
 133:Source\azure_iot_sdk\c-utility\src/sha224.c **** int SHA224Input(SHA224Context *context, const uint8_t *message_array,
 134:Source\azure_iot_sdk\c-utility\src/sha224.c ****     unsigned int length)
 135:Source\azure_iot_sdk\c-utility\src/sha224.c **** {
 136:Source\azure_iot_sdk\c-utility\src/sha224.c ****     return SHA256Input(context, message_array, length);
 137:Source\azure_iot_sdk\c-utility\src/sha224.c **** }
 138:Source\azure_iot_sdk\c-utility\src/sha224.c **** 
 139:Source\azure_iot_sdk\c-utility\src/sha224.c **** /*
 140:Source\azure_iot_sdk\c-utility\src/sha224.c **** * SHA224FinalBits
 141:Source\azure_iot_sdk\c-utility\src/sha224.c **** *
 142:Source\azure_iot_sdk\c-utility\src/sha224.c **** * Description:
 143:Source\azure_iot_sdk\c-utility\src/sha224.c **** *   This function will add in any final bits of the message.
 144:Source\azure_iot_sdk\c-utility\src/sha224.c **** *
 145:Source\azure_iot_sdk\c-utility\src/sha224.c **** * Parameters:
ARM GAS  C:\Users\Phuong\AppData\Local\Temp\ccqJesaa.s 			page 4


 146:Source\azure_iot_sdk\c-utility\src/sha224.c **** *   context: [in/out]
 147:Source\azure_iot_sdk\c-utility\src/sha224.c **** *     The SHA context to update
 148:Source\azure_iot_sdk\c-utility\src/sha224.c **** *   message_bits: [in]
 149:Source\azure_iot_sdk\c-utility\src/sha224.c **** *     The final bits of the message, in the upper portion of the
 150:Source\azure_iot_sdk\c-utility\src/sha224.c **** *     byte. (Use 0b###00000 instead of 0b00000### to input the
 151:Source\azure_iot_sdk\c-utility\src/sha224.c **** *     three bits ###.)
 152:Source\azure_iot_sdk\c-utility\src/sha224.c **** *   length: [in]
 153:Source\azure_iot_sdk\c-utility\src/sha224.c **** *     The number of bits in message_bits, between 1 and 7.
 154:Source\azure_iot_sdk\c-utility\src/sha224.c **** *
 155:Source\azure_iot_sdk\c-utility\src/sha224.c **** * Returns:
 156:Source\azure_iot_sdk\c-utility\src/sha224.c **** *   sha Error Code.
 157:Source\azure_iot_sdk\c-utility\src/sha224.c **** */
 158:Source\azure_iot_sdk\c-utility\src/sha224.c **** int SHA224FinalBits(SHA224Context *context,
 159:Source\azure_iot_sdk\c-utility\src/sha224.c ****     const uint8_t message_bits, unsigned int length)
 160:Source\azure_iot_sdk\c-utility\src/sha224.c **** {
 161:Source\azure_iot_sdk\c-utility\src/sha224.c ****     return SHA256FinalBits(context, message_bits, length);
 162:Source\azure_iot_sdk\c-utility\src/sha224.c **** }
 163:Source\azure_iot_sdk\c-utility\src/sha224.c **** 
 164:Source\azure_iot_sdk\c-utility\src/sha224.c **** /*
 165:Source\azure_iot_sdk\c-utility\src/sha224.c **** * SHA224Result
 166:Source\azure_iot_sdk\c-utility\src/sha224.c **** *
 167:Source\azure_iot_sdk\c-utility\src/sha224.c **** * Description:
 168:Source\azure_iot_sdk\c-utility\src/sha224.c **** *   This function will return the 224-bit message
 169:Source\azure_iot_sdk\c-utility\src/sha224.c **** *   digest into the Message_Digest array provided by the caller.
 170:Source\azure_iot_sdk\c-utility\src/sha224.c **** *   NOTE: The first octet of hash is stored in the 0th element,
 171:Source\azure_iot_sdk\c-utility\src/sha224.c **** *      the last octet of hash in the 28th element.
 172:Source\azure_iot_sdk\c-utility\src/sha224.c **** *
 173:Source\azure_iot_sdk\c-utility\src/sha224.c **** * Parameters:
 174:Source\azure_iot_sdk\c-utility\src/sha224.c **** *   context: [in/out]
 175:Source\azure_iot_sdk\c-utility\src/sha224.c **** *     The context to use to calculate the SHA hash.
 176:Source\azure_iot_sdk\c-utility\src/sha224.c **** *   Message_Digest: [out]
 177:Source\azure_iot_sdk\c-utility\src/sha224.c **** *     Where the digest is returned.
 178:Source\azure_iot_sdk\c-utility\src/sha224.c **** *
 179:Source\azure_iot_sdk\c-utility\src/sha224.c **** * Returns:
 180:Source\azure_iot_sdk\c-utility\src/sha224.c **** *   sha Error Code.
 181:Source\azure_iot_sdk\c-utility\src/sha224.c **** */
 182:Source\azure_iot_sdk\c-utility\src/sha224.c **** int SHA224Result(SHA224Context *context,
 183:Source\azure_iot_sdk\c-utility\src/sha224.c ****     uint8_t Message_Digest[SHA224HashSize])
 184:Source\azure_iot_sdk\c-utility\src/sha224.c **** {
 185:Source\azure_iot_sdk\c-utility\src/sha224.c ****     return SHA224_256ResultN(context, Message_Digest, SHA224HashSize);
 186:Source\azure_iot_sdk\c-utility\src/sha224.c **** }
 187:Source\azure_iot_sdk\c-utility\src/sha224.c **** 
 188:Source\azure_iot_sdk\c-utility\src/sha224.c **** /*
 189:Source\azure_iot_sdk\c-utility\src/sha224.c **** * SHA256Reset
 190:Source\azure_iot_sdk\c-utility\src/sha224.c **** *
 191:Source\azure_iot_sdk\c-utility\src/sha224.c **** * Description:
 192:Source\azure_iot_sdk\c-utility\src/sha224.c **** *   This function will initialize the SHA256Context in preparation
 193:Source\azure_iot_sdk\c-utility\src/sha224.c **** *   for computing a new SHA256 message digest.
 194:Source\azure_iot_sdk\c-utility\src/sha224.c **** *
 195:Source\azure_iot_sdk\c-utility\src/sha224.c **** * Parameters:
 196:Source\azure_iot_sdk\c-utility\src/sha224.c **** *   context: [in/out]
 197:Source\azure_iot_sdk\c-utility\src/sha224.c **** *     The context to reset.
 198:Source\azure_iot_sdk\c-utility\src/sha224.c **** *
 199:Source\azure_iot_sdk\c-utility\src/sha224.c **** * Returns:
 200:Source\azure_iot_sdk\c-utility\src/sha224.c **** *   sha Error Code.
 201:Source\azure_iot_sdk\c-utility\src/sha224.c **** */
 202:Source\azure_iot_sdk\c-utility\src/sha224.c **** int SHA256Reset(SHA256Context *context)
ARM GAS  C:\Users\Phuong\AppData\Local\Temp\ccqJesaa.s 			page 5


 203:Source\azure_iot_sdk\c-utility\src/sha224.c **** {
 204:Source\azure_iot_sdk\c-utility\src/sha224.c ****     return SHA224_256Reset(context, SHA256_H0);
 205:Source\azure_iot_sdk\c-utility\src/sha224.c **** }
 206:Source\azure_iot_sdk\c-utility\src/sha224.c **** 
 207:Source\azure_iot_sdk\c-utility\src/sha224.c **** /*
 208:Source\azure_iot_sdk\c-utility\src/sha224.c **** * SHA256Input
 209:Source\azure_iot_sdk\c-utility\src/sha224.c **** *
 210:Source\azure_iot_sdk\c-utility\src/sha224.c **** * Description:
 211:Source\azure_iot_sdk\c-utility\src/sha224.c **** *   This function accepts an array of octets as the next portion
 212:Source\azure_iot_sdk\c-utility\src/sha224.c **** *   of the message.
 213:Source\azure_iot_sdk\c-utility\src/sha224.c **** *
 214:Source\azure_iot_sdk\c-utility\src/sha224.c **** * Parameters:
 215:Source\azure_iot_sdk\c-utility\src/sha224.c **** *   context: [in/out]
 216:Source\azure_iot_sdk\c-utility\src/sha224.c **** *     The SHA context to update
 217:Source\azure_iot_sdk\c-utility\src/sha224.c **** *   message_array: [in]
 218:Source\azure_iot_sdk\c-utility\src/sha224.c **** *     An array of characters representing the next portion of
 219:Source\azure_iot_sdk\c-utility\src/sha224.c **** *     the message.
 220:Source\azure_iot_sdk\c-utility\src/sha224.c **** *   length: [in]
 221:Source\azure_iot_sdk\c-utility\src/sha224.c **** *     The length of the message in message_array
 222:Source\azure_iot_sdk\c-utility\src/sha224.c **** *
 223:Source\azure_iot_sdk\c-utility\src/sha224.c **** * Returns:
 224:Source\azure_iot_sdk\c-utility\src/sha224.c **** *   sha Error Code.
 225:Source\azure_iot_sdk\c-utility\src/sha224.c **** */
 226:Source\azure_iot_sdk\c-utility\src/sha224.c **** int SHA256Input(SHA256Context *context, const uint8_t *message_array,
 227:Source\azure_iot_sdk\c-utility\src/sha224.c ****     unsigned int length)
 228:Source\azure_iot_sdk\c-utility\src/sha224.c **** {
 229:Source\azure_iot_sdk\c-utility\src/sha224.c ****     uint32_t addTemp;
 230:Source\azure_iot_sdk\c-utility\src/sha224.c ****     if (!length)
 231:Source\azure_iot_sdk\c-utility\src/sha224.c ****         return shaSuccess;
 232:Source\azure_iot_sdk\c-utility\src/sha224.c **** 
 233:Source\azure_iot_sdk\c-utility\src/sha224.c ****     if (!context || !message_array)
 234:Source\azure_iot_sdk\c-utility\src/sha224.c ****         return shaNull;
 235:Source\azure_iot_sdk\c-utility\src/sha224.c **** 
 236:Source\azure_iot_sdk\c-utility\src/sha224.c ****     if (context->Computed) {
 237:Source\azure_iot_sdk\c-utility\src/sha224.c ****         context->Corrupted = shaStateError;
 238:Source\azure_iot_sdk\c-utility\src/sha224.c ****         return shaStateError;
 239:Source\azure_iot_sdk\c-utility\src/sha224.c ****     }
 240:Source\azure_iot_sdk\c-utility\src/sha224.c **** 
 241:Source\azure_iot_sdk\c-utility\src/sha224.c ****     if (context->Corrupted)
 242:Source\azure_iot_sdk\c-utility\src/sha224.c ****         return context->Corrupted;
 243:Source\azure_iot_sdk\c-utility\src/sha224.c **** 
 244:Source\azure_iot_sdk\c-utility\src/sha224.c ****     while (length-- && !context->Corrupted) {
 245:Source\azure_iot_sdk\c-utility\src/sha224.c ****         context->Message_Block[context->Message_Block_Index++] =
 246:Source\azure_iot_sdk\c-utility\src/sha224.c ****             (*message_array & 0xFF);
 247:Source\azure_iot_sdk\c-utility\src/sha224.c **** 
 248:Source\azure_iot_sdk\c-utility\src/sha224.c ****         if (!SHA224_256AddLength(context, 8) &&
 249:Source\azure_iot_sdk\c-utility\src/sha224.c ****             (context->Message_Block_Index == SHA256_Message_Block_Size))
 250:Source\azure_iot_sdk\c-utility\src/sha224.c ****             SHA224_256ProcessMessageBlock(context);
 251:Source\azure_iot_sdk\c-utility\src/sha224.c **** 
 252:Source\azure_iot_sdk\c-utility\src/sha224.c ****         message_array++;
 253:Source\azure_iot_sdk\c-utility\src/sha224.c ****     }
 254:Source\azure_iot_sdk\c-utility\src/sha224.c **** 
 255:Source\azure_iot_sdk\c-utility\src/sha224.c ****     return shaSuccess;
 256:Source\azure_iot_sdk\c-utility\src/sha224.c **** 
 257:Source\azure_iot_sdk\c-utility\src/sha224.c **** }
 258:Source\azure_iot_sdk\c-utility\src/sha224.c **** 
 259:Source\azure_iot_sdk\c-utility\src/sha224.c **** /*
ARM GAS  C:\Users\Phuong\AppData\Local\Temp\ccqJesaa.s 			page 6


 260:Source\azure_iot_sdk\c-utility\src/sha224.c **** * SHA256FinalBits
 261:Source\azure_iot_sdk\c-utility\src/sha224.c **** *
 262:Source\azure_iot_sdk\c-utility\src/sha224.c **** * Description:
 263:Source\azure_iot_sdk\c-utility\src/sha224.c **** *   This function will add in any final bits of the message.
 264:Source\azure_iot_sdk\c-utility\src/sha224.c **** *
 265:Source\azure_iot_sdk\c-utility\src/sha224.c **** * Parameters:
 266:Source\azure_iot_sdk\c-utility\src/sha224.c **** *   context: [in/out]
 267:Source\azure_iot_sdk\c-utility\src/sha224.c **** *     The SHA context to update
 268:Source\azure_iot_sdk\c-utility\src/sha224.c **** *   message_bits: [in]
 269:Source\azure_iot_sdk\c-utility\src/sha224.c **** *     The final bits of the message, in the upper portion of the
 270:Source\azure_iot_sdk\c-utility\src/sha224.c **** *     byte. (Use 0b###00000 instead of 0b00000### to input the
 271:Source\azure_iot_sdk\c-utility\src/sha224.c **** *     three bits ###.)
 272:Source\azure_iot_sdk\c-utility\src/sha224.c **** *   length: [in]
 273:Source\azure_iot_sdk\c-utility\src/sha224.c **** *     The number of bits in message_bits, between 1 and 7.
 274:Source\azure_iot_sdk\c-utility\src/sha224.c **** *
 275:Source\azure_iot_sdk\c-utility\src/sha224.c **** * Returns:
 276:Source\azure_iot_sdk\c-utility\src/sha224.c **** *   sha Error Code.
 277:Source\azure_iot_sdk\c-utility\src/sha224.c **** */
 278:Source\azure_iot_sdk\c-utility\src/sha224.c **** int SHA256FinalBits(SHA256Context *context,
 279:Source\azure_iot_sdk\c-utility\src/sha224.c ****     const uint8_t message_bits, unsigned int length)
 280:Source\azure_iot_sdk\c-utility\src/sha224.c **** {
 281:Source\azure_iot_sdk\c-utility\src/sha224.c ****     uint32_t addTemp;
 282:Source\azure_iot_sdk\c-utility\src/sha224.c ****     uint8_t masks[8] = {
 283:Source\azure_iot_sdk\c-utility\src/sha224.c ****         /* 0 0b00000000 */ 0x00, /* 1 0b10000000 */ 0x80,
 284:Source\azure_iot_sdk\c-utility\src/sha224.c ****         /* 2 0b11000000 */ 0xC0, /* 3 0b11100000 */ 0xE0,
 285:Source\azure_iot_sdk\c-utility\src/sha224.c ****         /* 4 0b11110000 */ 0xF0, /* 5 0b11111000 */ 0xF8,
 286:Source\azure_iot_sdk\c-utility\src/sha224.c ****         /* 6 0b11111100 */ 0xFC, /* 7 0b11111110 */ 0xFE
 287:Source\azure_iot_sdk\c-utility\src/sha224.c ****     };
 288:Source\azure_iot_sdk\c-utility\src/sha224.c **** 
 289:Source\azure_iot_sdk\c-utility\src/sha224.c ****     uint8_t markbit[8] = {
 290:Source\azure_iot_sdk\c-utility\src/sha224.c ****         /* 0 0b10000000 */ 0x80, /* 1 0b01000000 */ 0x40,
 291:Source\azure_iot_sdk\c-utility\src/sha224.c ****         /* 2 0b00100000 */ 0x20, /* 3 0b00010000 */ 0x10,
 292:Source\azure_iot_sdk\c-utility\src/sha224.c ****         /* 4 0b00001000 */ 0x08, /* 5 0b00000100 */ 0x04,
 293:Source\azure_iot_sdk\c-utility\src/sha224.c ****         /* 6 0b00000010 */ 0x02, /* 7 0b00000001 */ 0x01
 294:Source\azure_iot_sdk\c-utility\src/sha224.c ****     };
 295:Source\azure_iot_sdk\c-utility\src/sha224.c **** 
 296:Source\azure_iot_sdk\c-utility\src/sha224.c ****     if (!length)
 297:Source\azure_iot_sdk\c-utility\src/sha224.c ****         return shaSuccess;
 298:Source\azure_iot_sdk\c-utility\src/sha224.c **** 
 299:Source\azure_iot_sdk\c-utility\src/sha224.c ****     if (!context)
 300:Source\azure_iot_sdk\c-utility\src/sha224.c ****         return shaNull;
 301:Source\azure_iot_sdk\c-utility\src/sha224.c **** 
 302:Source\azure_iot_sdk\c-utility\src/sha224.c ****     if ((context->Computed) || (length >= 8) || (length == 0)) {
 303:Source\azure_iot_sdk\c-utility\src/sha224.c ****         context->Corrupted = shaStateError;
 304:Source\azure_iot_sdk\c-utility\src/sha224.c ****         return shaStateError;
 305:Source\azure_iot_sdk\c-utility\src/sha224.c ****     }
 306:Source\azure_iot_sdk\c-utility\src/sha224.c **** 
 307:Source\azure_iot_sdk\c-utility\src/sha224.c ****     if (context->Corrupted)
 308:Source\azure_iot_sdk\c-utility\src/sha224.c ****         return context->Corrupted;
 309:Source\azure_iot_sdk\c-utility\src/sha224.c **** 
 310:Source\azure_iot_sdk\c-utility\src/sha224.c ****     SHA224_256AddLength(context, length);
 311:Source\azure_iot_sdk\c-utility\src/sha224.c ****     SHA224_256Finalize(context, (uint8_t)
 312:Source\azure_iot_sdk\c-utility\src/sha224.c ****         ((message_bits & masks[length]) | markbit[length]));
 313:Source\azure_iot_sdk\c-utility\src/sha224.c **** 
 314:Source\azure_iot_sdk\c-utility\src/sha224.c ****     return shaSuccess;
 315:Source\azure_iot_sdk\c-utility\src/sha224.c **** }
 316:Source\azure_iot_sdk\c-utility\src/sha224.c **** 
ARM GAS  C:\Users\Phuong\AppData\Local\Temp\ccqJesaa.s 			page 7


 317:Source\azure_iot_sdk\c-utility\src/sha224.c **** /*
 318:Source\azure_iot_sdk\c-utility\src/sha224.c **** * SHA256Result
 319:Source\azure_iot_sdk\c-utility\src/sha224.c **** *
 320:Source\azure_iot_sdk\c-utility\src/sha224.c **** * Description:
 321:Source\azure_iot_sdk\c-utility\src/sha224.c **** *   This function will return the 256-bit message
 322:Source\azure_iot_sdk\c-utility\src/sha224.c **** *   digest into the Message_Digest array provided by the caller.
 323:Source\azure_iot_sdk\c-utility\src/sha224.c **** *   NOTE: The first octet of hash is stored in the 0th element,
 324:Source\azure_iot_sdk\c-utility\src/sha224.c **** *      the last octet of hash in the 32nd element.
 325:Source\azure_iot_sdk\c-utility\src/sha224.c **** *
 326:Source\azure_iot_sdk\c-utility\src/sha224.c **** * Parameters:
 327:Source\azure_iot_sdk\c-utility\src/sha224.c **** *   context: [in/out]
 328:Source\azure_iot_sdk\c-utility\src/sha224.c **** *     The context to use to calculate the SHA hash.
 329:Source\azure_iot_sdk\c-utility\src/sha224.c **** *   Message_Digest: [out]
 330:Source\azure_iot_sdk\c-utility\src/sha224.c **** *     Where the digest is returned.
 331:Source\azure_iot_sdk\c-utility\src/sha224.c **** *
 332:Source\azure_iot_sdk\c-utility\src/sha224.c **** * Returns:
 333:Source\azure_iot_sdk\c-utility\src/sha224.c **** *   sha Error Code.
 334:Source\azure_iot_sdk\c-utility\src/sha224.c **** */
 335:Source\azure_iot_sdk\c-utility\src/sha224.c **** int SHA256Result(SHA256Context *context, uint8_t Message_Digest[])
 336:Source\azure_iot_sdk\c-utility\src/sha224.c **** {
 337:Source\azure_iot_sdk\c-utility\src/sha224.c ****         return SHA224_256ResultN(context, Message_Digest, SHA256HashSize);
 338:Source\azure_iot_sdk\c-utility\src/sha224.c **** }
 339:Source\azure_iot_sdk\c-utility\src/sha224.c **** 
 340:Source\azure_iot_sdk\c-utility\src/sha224.c **** /*
 341:Source\azure_iot_sdk\c-utility\src/sha224.c **** * SHA224_256Finalize
 342:Source\azure_iot_sdk\c-utility\src/sha224.c **** *
 343:Source\azure_iot_sdk\c-utility\src/sha224.c **** * Description:
 344:Source\azure_iot_sdk\c-utility\src/sha224.c **** *   This helper function finishes off the digest calculations.
 345:Source\azure_iot_sdk\c-utility\src/sha224.c **** *
 346:Source\azure_iot_sdk\c-utility\src/sha224.c **** * Parameters:
 347:Source\azure_iot_sdk\c-utility\src/sha224.c **** *   context: [in/out]
 348:Source\azure_iot_sdk\c-utility\src/sha224.c **** *     The SHA context to update
 349:Source\azure_iot_sdk\c-utility\src/sha224.c **** *   Pad_Byte: [in]
 350:Source\azure_iot_sdk\c-utility\src/sha224.c **** *     The last byte to add to the digest before the 0-padding
 351:Source\azure_iot_sdk\c-utility\src/sha224.c **** *     and length. This will contain the last bits of the message
 352:Source\azure_iot_sdk\c-utility\src/sha224.c **** *     followed by another single bit. If the message was an
 353:Source\azure_iot_sdk\c-utility\src/sha224.c **** *     exact multiple of 8-bits long, Pad_Byte will be 0x80.
 354:Source\azure_iot_sdk\c-utility\src/sha224.c **** *
 355:Source\azure_iot_sdk\c-utility\src/sha224.c **** * Returns:
 356:Source\azure_iot_sdk\c-utility\src/sha224.c **** *   sha Error Code.
 357:Source\azure_iot_sdk\c-utility\src/sha224.c **** */
 358:Source\azure_iot_sdk\c-utility\src/sha224.c **** static void SHA224_256Finalize(SHA256Context *context,
 359:Source\azure_iot_sdk\c-utility\src/sha224.c ****     uint8_t Pad_Byte)
 360:Source\azure_iot_sdk\c-utility\src/sha224.c **** {
 361:Source\azure_iot_sdk\c-utility\src/sha224.c ****     int i;
 362:Source\azure_iot_sdk\c-utility\src/sha224.c ****     SHA224_256PadMessage(context, Pad_Byte);
 363:Source\azure_iot_sdk\c-utility\src/sha224.c ****     /* message may be sensitive, so clear it out */
 364:Source\azure_iot_sdk\c-utility\src/sha224.c ****     for (i = 0; i < SHA256_Message_Block_Size; ++i)
 365:Source\azure_iot_sdk\c-utility\src/sha224.c ****         context->Message_Block[i] = 0;
 366:Source\azure_iot_sdk\c-utility\src/sha224.c ****     context->Length_Low = 0;  /* and clear length */
 367:Source\azure_iot_sdk\c-utility\src/sha224.c ****     context->Length_High = 0;
 368:Source\azure_iot_sdk\c-utility\src/sha224.c ****     context->Computed = 1;
 369:Source\azure_iot_sdk\c-utility\src/sha224.c **** }
 370:Source\azure_iot_sdk\c-utility\src/sha224.c **** 
 371:Source\azure_iot_sdk\c-utility\src/sha224.c **** /*
 372:Source\azure_iot_sdk\c-utility\src/sha224.c **** * SHA224_256PadMessage
 373:Source\azure_iot_sdk\c-utility\src/sha224.c **** *
ARM GAS  C:\Users\Phuong\AppData\Local\Temp\ccqJesaa.s 			page 8


 374:Source\azure_iot_sdk\c-utility\src/sha224.c **** * Description:
 375:Source\azure_iot_sdk\c-utility\src/sha224.c **** *   According to the standard, the message must be padded to an
 376:Source\azure_iot_sdk\c-utility\src/sha224.c **** *   even 512 bits. The first padding bit must be a '1'. The
 377:Source\azure_iot_sdk\c-utility\src/sha224.c **** *   last 64 bits represent the length of the original message.
 378:Source\azure_iot_sdk\c-utility\src/sha224.c **** *   All bits in between should be 0. This helper function will pad
 379:Source\azure_iot_sdk\c-utility\src/sha224.c **** *   the message according to those rules by filling the
 380:Source\azure_iot_sdk\c-utility\src/sha224.c **** *   Message_Block array accordingly. When it returns, it can be
 381:Source\azure_iot_sdk\c-utility\src/sha224.c **** *   assumed that the message digest has been computed.
 382:Source\azure_iot_sdk\c-utility\src/sha224.c **** *
 383:Source\azure_iot_sdk\c-utility\src/sha224.c **** * Parameters:
 384:Source\azure_iot_sdk\c-utility\src/sha224.c **** *   context: [in/out]
 385:Source\azure_iot_sdk\c-utility\src/sha224.c **** *     The context to pad
 386:Source\azure_iot_sdk\c-utility\src/sha224.c **** *   Pad_Byte: [in]
 387:Source\azure_iot_sdk\c-utility\src/sha224.c **** *     The last byte to add to the digest before the 0-padding
 388:Source\azure_iot_sdk\c-utility\src/sha224.c **** *     and length. This will contain the last bits of the message
 389:Source\azure_iot_sdk\c-utility\src/sha224.c **** *     followed by another single bit. If the message was an
 390:Source\azure_iot_sdk\c-utility\src/sha224.c **** *     exact multiple of 8-bits long, Pad_Byte will be 0x80.
 391:Source\azure_iot_sdk\c-utility\src/sha224.c **** *
 392:Source\azure_iot_sdk\c-utility\src/sha224.c **** * Returns:
 393:Source\azure_iot_sdk\c-utility\src/sha224.c **** *   Nothing.
 394:Source\azure_iot_sdk\c-utility\src/sha224.c **** */
 395:Source\azure_iot_sdk\c-utility\src/sha224.c **** static void SHA224_256PadMessage(SHA256Context *context,
 396:Source\azure_iot_sdk\c-utility\src/sha224.c ****     uint8_t Pad_Byte)
 397:Source\azure_iot_sdk\c-utility\src/sha224.c **** {
 398:Source\azure_iot_sdk\c-utility\src/sha224.c ****     /*
 399:Source\azure_iot_sdk\c-utility\src/sha224.c ****     * Check to see if the current message block is too small to hold
 400:Source\azure_iot_sdk\c-utility\src/sha224.c ****     * the initial padding bits and length. If so, we will pad the
 401:Source\azure_iot_sdk\c-utility\src/sha224.c ****     * block, process it, and then continue padding into a second
 402:Source\azure_iot_sdk\c-utility\src/sha224.c ****     * block.
 403:Source\azure_iot_sdk\c-utility\src/sha224.c ****     */
 404:Source\azure_iot_sdk\c-utility\src/sha224.c ****     if (context->Message_Block_Index >= (SHA256_Message_Block_Size - 8)) {
 405:Source\azure_iot_sdk\c-utility\src/sha224.c ****         context->Message_Block[context->Message_Block_Index++] = Pad_Byte;
 406:Source\azure_iot_sdk\c-utility\src/sha224.c ****         while (context->Message_Block_Index < SHA256_Message_Block_Size)
 407:Source\azure_iot_sdk\c-utility\src/sha224.c ****             context->Message_Block[context->Message_Block_Index++] = 0;
 408:Source\azure_iot_sdk\c-utility\src/sha224.c ****         SHA224_256ProcessMessageBlock(context);
 409:Source\azure_iot_sdk\c-utility\src/sha224.c ****     }
 410:Source\azure_iot_sdk\c-utility\src/sha224.c ****     else
 411:Source\azure_iot_sdk\c-utility\src/sha224.c ****         context->Message_Block[context->Message_Block_Index++] = Pad_Byte;
 412:Source\azure_iot_sdk\c-utility\src/sha224.c **** 
 413:Source\azure_iot_sdk\c-utility\src/sha224.c ****     while (context->Message_Block_Index < (SHA256_Message_Block_Size - 8))
 414:Source\azure_iot_sdk\c-utility\src/sha224.c ****         context->Message_Block[context->Message_Block_Index++] = 0;
 415:Source\azure_iot_sdk\c-utility\src/sha224.c **** 
 416:Source\azure_iot_sdk\c-utility\src/sha224.c ****     /*
 417:Source\azure_iot_sdk\c-utility\src/sha224.c ****     * Store the message length as the last 8 octets
 418:Source\azure_iot_sdk\c-utility\src/sha224.c ****     */
 419:Source\azure_iot_sdk\c-utility\src/sha224.c ****     context->Message_Block[56] = (uint8_t)(context->Length_High >> 24);
 420:Source\azure_iot_sdk\c-utility\src/sha224.c ****     context->Message_Block[57] = (uint8_t)(context->Length_High >> 16);
 421:Source\azure_iot_sdk\c-utility\src/sha224.c ****     context->Message_Block[58] = (uint8_t)(context->Length_High >> 8);
 422:Source\azure_iot_sdk\c-utility\src/sha224.c ****     context->Message_Block[59] = (uint8_t)(context->Length_High);
 423:Source\azure_iot_sdk\c-utility\src/sha224.c ****     context->Message_Block[60] = (uint8_t)(context->Length_Low >> 24);
 424:Source\azure_iot_sdk\c-utility\src/sha224.c ****     context->Message_Block[61] = (uint8_t)(context->Length_Low >> 16);
 425:Source\azure_iot_sdk\c-utility\src/sha224.c ****     context->Message_Block[62] = (uint8_t)(context->Length_Low >> 8);
 426:Source\azure_iot_sdk\c-utility\src/sha224.c ****     context->Message_Block[63] = (uint8_t)(context->Length_Low);
 427:Source\azure_iot_sdk\c-utility\src/sha224.c **** 
 428:Source\azure_iot_sdk\c-utility\src/sha224.c ****     SHA224_256ProcessMessageBlock(context);
 429:Source\azure_iot_sdk\c-utility\src/sha224.c **** }
 430:Source\azure_iot_sdk\c-utility\src/sha224.c **** 
ARM GAS  C:\Users\Phuong\AppData\Local\Temp\ccqJesaa.s 			page 9


 431:Source\azure_iot_sdk\c-utility\src/sha224.c **** /*
 432:Source\azure_iot_sdk\c-utility\src/sha224.c **** * SHA224_256ProcessMessageBlock
 433:Source\azure_iot_sdk\c-utility\src/sha224.c **** *
 434:Source\azure_iot_sdk\c-utility\src/sha224.c **** * Description:
 435:Source\azure_iot_sdk\c-utility\src/sha224.c **** *   This function will process the next 512 bits of the message
 436:Source\azure_iot_sdk\c-utility\src/sha224.c **** *   stored in the Message_Block array.
 437:Source\azure_iot_sdk\c-utility\src/sha224.c **** *
 438:Source\azure_iot_sdk\c-utility\src/sha224.c **** * Parameters:
 439:Source\azure_iot_sdk\c-utility\src/sha224.c **** *   context: [in/out]
 440:Source\azure_iot_sdk\c-utility\src/sha224.c **** *     The SHA context to update
 441:Source\azure_iot_sdk\c-utility\src/sha224.c **** *
 442:Source\azure_iot_sdk\c-utility\src/sha224.c **** * Returns:
 443:Source\azure_iot_sdk\c-utility\src/sha224.c **** *   Nothing.
 444:Source\azure_iot_sdk\c-utility\src/sha224.c **** *
 445:Source\azure_iot_sdk\c-utility\src/sha224.c **** * Comments:
 446:Source\azure_iot_sdk\c-utility\src/sha224.c **** *   Many of the variable names in this code, especially the
 447:Source\azure_iot_sdk\c-utility\src/sha224.c **** *   single character names, were used because those were the
 448:Source\azure_iot_sdk\c-utility\src/sha224.c **** *   names used in the publication.
 449:Source\azure_iot_sdk\c-utility\src/sha224.c **** */
 450:Source\azure_iot_sdk\c-utility\src/sha224.c **** static void SHA224_256ProcessMessageBlock(SHA256Context *context)
 451:Source\azure_iot_sdk\c-utility\src/sha224.c **** {
  27              		.loc 1 451 0
  28              		.cfi_startproc
  29              		@ args = 0, pretend = 0, frame = 296
  30              		@ frame_needed = 0, uses_anonymous_args = 0
  31              	.LVL0:
  32 0000 F0B5     		push	{r4, r5, r6, r7, lr}
  33              		.cfi_def_cfa_offset 20
  34              		.cfi_offset 4, -20
  35              		.cfi_offset 5, -16
  36              		.cfi_offset 6, -12
  37              		.cfi_offset 7, -8
  38              		.cfi_offset 14, -4
  39 0002 5F46     		mov	r7, fp
  40 0004 5646     		mov	r6, r10
  41 0006 4D46     		mov	r5, r9
  42 0008 4446     		mov	r4, r8
  43 000a F0B4     		push	{r4, r5, r6, r7}
  44              		.cfi_def_cfa_offset 36
  45              		.cfi_offset 8, -36
  46              		.cfi_offset 9, -32
  47              		.cfi_offset 10, -28
  48              		.cfi_offset 11, -24
  49 000c CBB0     		sub	sp, sp, #300
  50              		.cfi_def_cfa_offset 336
  51 000e 8346     		mov	fp, r0
  52              	.LVL1:
 452:Source\azure_iot_sdk\c-utility\src/sha224.c ****     /* Constants defined in FIPS-180-2, section 4.2.2 */
 453:Source\azure_iot_sdk\c-utility\src/sha224.c ****     static const uint32_t K[64] = {
 454:Source\azure_iot_sdk\c-utility\src/sha224.c ****         0x428a2f98, 0x71374491, 0xb5c0fbcf, 0xe9b5dba5, 0x3956c25b,
 455:Source\azure_iot_sdk\c-utility\src/sha224.c ****         0x59f111f1, 0x923f82a4, 0xab1c5ed5, 0xd807aa98, 0x12835b01,
 456:Source\azure_iot_sdk\c-utility\src/sha224.c ****         0x243185be, 0x550c7dc3, 0x72be5d74, 0x80deb1fe, 0x9bdc06a7,
 457:Source\azure_iot_sdk\c-utility\src/sha224.c ****         0xc19bf174, 0xe49b69c1, 0xefbe4786, 0x0fc19dc6, 0x240ca1cc,
 458:Source\azure_iot_sdk\c-utility\src/sha224.c ****         0x2de92c6f, 0x4a7484aa, 0x5cb0a9dc, 0x76f988da, 0x983e5152,
 459:Source\azure_iot_sdk\c-utility\src/sha224.c ****         0xa831c66d, 0xb00327c8, 0xbf597fc7, 0xc6e00bf3, 0xd5a79147,
 460:Source\azure_iot_sdk\c-utility\src/sha224.c ****         0x06ca6351, 0x14292967, 0x27b70a85, 0x2e1b2138, 0x4d2c6dfc,
 461:Source\azure_iot_sdk\c-utility\src/sha224.c ****         0x53380d13, 0x650a7354, 0x766a0abb, 0x81c2c92e, 0x92722c85,
ARM GAS  C:\Users\Phuong\AppData\Local\Temp\ccqJesaa.s 			page 10


 462:Source\azure_iot_sdk\c-utility\src/sha224.c ****         0xa2bfe8a1, 0xa81a664b, 0xc24b8b70, 0xc76c51a3, 0xd192e819,
 463:Source\azure_iot_sdk\c-utility\src/sha224.c ****         0xd6990624, 0xf40e3585, 0x106aa070, 0x19a4c116, 0x1e376c08,
 464:Source\azure_iot_sdk\c-utility\src/sha224.c ****         0x2748774c, 0x34b0bcb5, 0x391c0cb3, 0x4ed8aa4a, 0x5b9cca4f,
 465:Source\azure_iot_sdk\c-utility\src/sha224.c ****         0x682e6ff3, 0x748f82ee, 0x78a5636f, 0x84c87814, 0x8cc70208,
 466:Source\azure_iot_sdk\c-utility\src/sha224.c ****         0x90befffa, 0xa4506ceb, 0xbef9a3f7, 0xc67178f2
 467:Source\azure_iot_sdk\c-utility\src/sha224.c ****     };
 468:Source\azure_iot_sdk\c-utility\src/sha224.c ****     int        t, t4;                   /* Loop counter */
 469:Source\azure_iot_sdk\c-utility\src/sha224.c ****     uint32_t   temp1, temp2;            /* Temporary word value */
 470:Source\azure_iot_sdk\c-utility\src/sha224.c ****     uint32_t   W[64];                   /* Word sequence */
 471:Source\azure_iot_sdk\c-utility\src/sha224.c ****     uint32_t   A, B, C, D, E, F, G, H;  /* Word buffers */
 472:Source\azure_iot_sdk\c-utility\src/sha224.c **** 
 473:Source\azure_iot_sdk\c-utility\src/sha224.c ****     /*
 474:Source\azure_iot_sdk\c-utility\src/sha224.c ****     * Initialize the first 16 words in the array W
 475:Source\azure_iot_sdk\c-utility\src/sha224.c ****     */
 476:Source\azure_iot_sdk\c-utility\src/sha224.c ****     for (t = t4 = 0; t < 16; t++, t4 += 4)
  53              		.loc 1 476 0
  54 0010 0021     		movs	r1, #0
  55 0012 0020     		movs	r0, #0
  56              	.LVL2:
  57 0014 5C46     		mov	r4, fp
  58 0016 19E0     		b	.L2
  59              	.LVL3:
  60              	.L3:
 477:Source\azure_iot_sdk\c-utility\src/sha224.c ****         W[t] = (((uint32_t)context->Message_Block[t4]) << 24) |
  61              		.loc 1 477 0 discriminator 3
  62 0018 6318     		adds	r3, r4, r1
  63 001a 2A33     		adds	r3, r3, #42
  64 001c 1B78     		ldrb	r3, [r3]
  65 001e 1D06     		lsls	r5, r3, #24
 478:Source\azure_iot_sdk\c-utility\src/sha224.c ****         (((uint32_t)context->Message_Block[t4 + 1]) << 16) |
  66              		.loc 1 478 0 discriminator 3
  67 0020 4A1C     		adds	r2, r1, #1
  68 0022 A218     		adds	r2, r4, r2
  69 0024 2A32     		adds	r2, r2, #42
  70 0026 1378     		ldrb	r3, [r2]
  71 0028 1B04     		lsls	r3, r3, #16
 477:Source\azure_iot_sdk\c-utility\src/sha224.c ****         W[t] = (((uint32_t)context->Message_Block[t4]) << 24) |
  72              		.loc 1 477 0 discriminator 3
  73 002a 2B43     		orrs	r3, r5
 479:Source\azure_iot_sdk\c-utility\src/sha224.c ****         (((uint32_t)context->Message_Block[t4 + 2]) << 8) |
  74              		.loc 1 479 0 discriminator 3
  75 002c 8A1C     		adds	r2, r1, #2
  76 002e A218     		adds	r2, r4, r2
  77 0030 2A32     		adds	r2, r2, #42
  78 0032 1278     		ldrb	r2, [r2]
  79 0034 1202     		lsls	r2, r2, #8
 478:Source\azure_iot_sdk\c-utility\src/sha224.c ****         (((uint32_t)context->Message_Block[t4 + 1]) << 16) |
  80              		.loc 1 478 0 discriminator 3
  81 0036 1343     		orrs	r3, r2
 480:Source\azure_iot_sdk\c-utility\src/sha224.c ****         (((uint32_t)context->Message_Block[t4 + 3]));
  82              		.loc 1 480 0 discriminator 3
  83 0038 CA1C     		adds	r2, r1, #3
  84 003a A218     		adds	r2, r4, r2
  85 003c 2A32     		adds	r2, r2, #42
  86 003e 1278     		ldrb	r2, [r2]
 479:Source\azure_iot_sdk\c-utility\src/sha224.c ****         (((uint32_t)context->Message_Block[t4 + 2]) << 8) |
  87              		.loc 1 479 0 discriminator 3
ARM GAS  C:\Users\Phuong\AppData\Local\Temp\ccqJesaa.s 			page 11


  88 0040 1343     		orrs	r3, r2
 477:Source\azure_iot_sdk\c-utility\src/sha224.c ****         (((uint32_t)context->Message_Block[t4 + 1]) << 16) |
  89              		.loc 1 477 0 discriminator 3
  90 0042 8200     		lsls	r2, r0, #2
  91 0044 0AAD     		add	r5, sp, #40
  92 0046 5351     		str	r3, [r2, r5]
 476:Source\azure_iot_sdk\c-utility\src/sha224.c ****         W[t] = (((uint32_t)context->Message_Block[t4]) << 24) |
  93              		.loc 1 476 0 discriminator 3
  94 0048 0130     		adds	r0, r0, #1
  95              	.LVL4:
  96 004a 0431     		adds	r1, r1, #4
  97              	.LVL5:
  98              	.L2:
 476:Source\azure_iot_sdk\c-utility\src/sha224.c ****         W[t] = (((uint32_t)context->Message_Block[t4]) << 24) |
  99              		.loc 1 476 0 is_stmt 0 discriminator 1
 100 004c 0F28     		cmp	r0, #15
 101 004e E3DD     		ble	.L3
 102 0050 A346     		mov	fp, r4
 103 0052 1024     		movs	r4, #16
 104              	.LVL6:
 105 0054 2BE0     		b	.L4
 106              	.LVL7:
 107              	.L5:
 481:Source\azure_iot_sdk\c-utility\src/sha224.c **** 
 482:Source\azure_iot_sdk\c-utility\src/sha224.c ****     for (t = 16; t < 64; t++)
 483:Source\azure_iot_sdk\c-utility\src/sha224.c ****         W[t] = SHA256_sigma1(W[t - 2]) + W[t - 7] +
 108              		.loc 1 483 0 is_stmt 1 discriminator 3
 109 0056 A31E     		subs	r3, r4, #2
 110 0058 9B00     		lsls	r3, r3, #2
 111 005a 0AAA     		add	r2, sp, #40
 112 005c 9A58     		ldr	r2, [r3, r2]
 113 005e 1123     		movs	r3, #17
 114 0060 1100     		movs	r1, r2
 115 0062 D941     		rors	r1, r1, r3
 116 0064 0233     		adds	r3, r3, #2
 117 0066 1000     		movs	r0, r2
 118 0068 D841     		rors	r0, r0, r3
 119 006a 0300     		movs	r3, r0
 120 006c 4B40     		eors	r3, r1
 121 006e 920A     		lsrs	r2, r2, #10
 122 0070 5A40     		eors	r2, r3
 123 0072 E31F     		subs	r3, r4, #7
 124 0074 9B00     		lsls	r3, r3, #2
 125 0076 0AA9     		add	r1, sp, #40
 126 0078 5B58     		ldr	r3, [r3, r1]
 127 007a D118     		adds	r1, r2, r3
 484:Source\azure_iot_sdk\c-utility\src/sha224.c ****         SHA256_sigma0(W[t - 15]) + W[t - 16];
 128              		.loc 1 484 0 discriminator 3
 129 007c 2300     		movs	r3, r4
 130 007e 0F3B     		subs	r3, r3, #15
 131 0080 9B00     		lsls	r3, r3, #2
 132 0082 0AAA     		add	r2, sp, #40
 133 0084 9B58     		ldr	r3, [r3, r2]
 134 0086 0722     		movs	r2, #7
 135 0088 1800     		movs	r0, r3
 136 008a D041     		rors	r0, r0, r2
 137 008c 0B32     		adds	r2, r2, #11
ARM GAS  C:\Users\Phuong\AppData\Local\Temp\ccqJesaa.s 			page 12


 138 008e 1D00     		movs	r5, r3
 139 0090 D541     		rors	r5, r5, r2
 140 0092 6840     		eors	r0, r5
 141 0094 DA08     		lsrs	r2, r3, #3
 142 0096 0300     		movs	r3, r0
 143 0098 5340     		eors	r3, r2
 483:Source\azure_iot_sdk\c-utility\src/sha224.c ****         SHA256_sigma0(W[t - 15]) + W[t - 16];
 144              		.loc 1 483 0 discriminator 3
 145 009a CB18     		adds	r3, r1, r3
 146              		.loc 1 484 0 discriminator 3
 147 009c 2200     		movs	r2, r4
 148 009e 103A     		subs	r2, r2, #16
 149 00a0 9200     		lsls	r2, r2, #2
 150 00a2 0AA9     		add	r1, sp, #40
 151 00a4 5258     		ldr	r2, [r2, r1]
 152 00a6 9B18     		adds	r3, r3, r2
 483:Source\azure_iot_sdk\c-utility\src/sha224.c ****         SHA256_sigma0(W[t - 15]) + W[t - 16];
 153              		.loc 1 483 0 discriminator 3
 154 00a8 A200     		lsls	r2, r4, #2
 155 00aa 5350     		str	r3, [r2, r1]
 482:Source\azure_iot_sdk\c-utility\src/sha224.c ****         W[t] = SHA256_sigma1(W[t - 2]) + W[t - 7] +
 156              		.loc 1 482 0 discriminator 3
 157 00ac 0134     		adds	r4, r4, #1
 158              	.LVL8:
 159              	.L4:
 482:Source\azure_iot_sdk\c-utility\src/sha224.c ****         W[t] = SHA256_sigma1(W[t - 2]) + W[t - 7] +
 160              		.loc 1 482 0 is_stmt 0 discriminator 1
 161 00ae 3F2C     		cmp	r4, #63
 162 00b0 D1DD     		ble	.L5
 485:Source\azure_iot_sdk\c-utility\src/sha224.c **** 
 486:Source\azure_iot_sdk\c-utility\src/sha224.c ****     A = context->Intermediate_Hash[0];
 163              		.loc 1 486 0 is_stmt 1
 164 00b2 5B46     		mov	r3, fp
 165 00b4 1B68     		ldr	r3, [r3]
 166 00b6 9946     		mov	r9, r3
 167              	.LVL9:
 487:Source\azure_iot_sdk\c-utility\src/sha224.c ****     B = context->Intermediate_Hash[1];
 168              		.loc 1 487 0
 169 00b8 5B46     		mov	r3, fp
 170              	.LVL10:
 171 00ba 5B68     		ldr	r3, [r3, #4]
 172 00bc 9846     		mov	r8, r3
 173              	.LVL11:
 488:Source\azure_iot_sdk\c-utility\src/sha224.c ****     C = context->Intermediate_Hash[2];
 174              		.loc 1 488 0
 175 00be 5B46     		mov	r3, fp
 176              	.LVL12:
 177 00c0 9B68     		ldr	r3, [r3, #8]
 178 00c2 0393     		str	r3, [sp, #12]
 179              	.LVL13:
 489:Source\azure_iot_sdk\c-utility\src/sha224.c ****     D = context->Intermediate_Hash[3];
 180              		.loc 1 489 0
 181 00c4 5A46     		mov	r2, fp
 182 00c6 D268     		ldr	r2, [r2, #12]
 183 00c8 0492     		str	r2, [sp, #16]
 184              	.LVL14:
 490:Source\azure_iot_sdk\c-utility\src/sha224.c ****     E = context->Intermediate_Hash[4];
ARM GAS  C:\Users\Phuong\AppData\Local\Temp\ccqJesaa.s 			page 13


 185              		.loc 1 490 0
 186 00ca 5946     		mov	r1, fp
 187 00cc 0969     		ldr	r1, [r1, #16]
 188 00ce 0591     		str	r1, [sp, #20]
 189              	.LVL15:
 491:Source\azure_iot_sdk\c-utility\src/sha224.c ****     F = context->Intermediate_Hash[5];
 190              		.loc 1 491 0
 191 00d0 5846     		mov	r0, fp
 192 00d2 4069     		ldr	r0, [r0, #20]
 193 00d4 0690     		str	r0, [sp, #24]
 194              	.LVL16:
 492:Source\azure_iot_sdk\c-utility\src/sha224.c ****     G = context->Intermediate_Hash[6];
 195              		.loc 1 492 0
 196 00d6 5C46     		mov	r4, fp
 197              	.LVL17:
 198 00d8 A469     		ldr	r4, [r4, #24]
 199 00da 2500     		movs	r5, r4
 200 00dc 0794     		str	r4, [sp, #28]
 201              	.LVL18:
 493:Source\azure_iot_sdk\c-utility\src/sha224.c ****     H = context->Intermediate_Hash[7];
 202              		.loc 1 493 0
 203 00de 5C46     		mov	r4, fp
 204              	.LVL19:
 205 00e0 E469     		ldr	r4, [r4, #28]
 206 00e2 0894     		str	r4, [sp, #32]
 207              	.LVL20:
 492:Source\azure_iot_sdk\c-utility\src/sha224.c ****     G = context->Intermediate_Hash[6];
 208              		.loc 1 492 0
 209 00e4 0295     		str	r5, [sp, #8]
 491:Source\azure_iot_sdk\c-utility\src/sha224.c ****     F = context->Intermediate_Hash[5];
 210              		.loc 1 491 0
 211 00e6 0190     		str	r0, [sp, #4]
 490:Source\azure_iot_sdk\c-utility\src/sha224.c ****     F = context->Intermediate_Hash[5];
 212              		.loc 1 490 0
 213 00e8 0D00     		movs	r5, r1
 214              	.LVL21:
 489:Source\azure_iot_sdk\c-utility\src/sha224.c ****     E = context->Intermediate_Hash[4];
 215              		.loc 1 489 0
 216 00ea 9246     		mov	r10, r2
 488:Source\azure_iot_sdk\c-utility\src/sha224.c ****     D = context->Intermediate_Hash[3];
 217              		.loc 1 488 0
 218 00ec 1800     		movs	r0, r3
 219              	.LVL22:
 487:Source\azure_iot_sdk\c-utility\src/sha224.c ****     C = context->Intermediate_Hash[2];
 220              		.loc 1 487 0
 221 00ee 4746     		mov	r7, r8
 486:Source\azure_iot_sdk\c-utility\src/sha224.c ****     B = context->Intermediate_Hash[1];
 222              		.loc 1 486 0
 223 00f0 4E46     		mov	r6, r9
 494:Source\azure_iot_sdk\c-utility\src/sha224.c **** 
 495:Source\azure_iot_sdk\c-utility\src/sha224.c ****     for (t = 0; t < 64; t++) {
 224              		.loc 1 495 0
 225 00f2 0023     		movs	r3, #0
 226              	.LVL23:
 227 00f4 1900     		movs	r1, r3
 228              	.LVL24:
 229 00f6 CC46     		mov	ip, r9
ARM GAS  C:\Users\Phuong\AppData\Local\Temp\ccqJesaa.s 			page 14


 230 00f8 0997     		str	r7, [sp, #36]
 231 00fa A046     		mov	r8, r4
 232              	.LVL25:
 233 00fc 43E0     		b	.L6
 234              	.LVL26:
 235              	.L7:
 496:Source\azure_iot_sdk\c-utility\src/sha224.c ****         temp1 = H + SHA256_SIGMA1(E) + SHA_Ch(E, F, G) + K[t] + W[t];
 236              		.loc 1 496 0 discriminator 3
 237 00fe 0623     		movs	r3, #6
 238 0100 2A00     		movs	r2, r5
 239 0102 DA41     		rors	r2, r2, r3
 240 0104 0533     		adds	r3, r3, #5
 241 0106 2C00     		movs	r4, r5
 242 0108 DC41     		rors	r4, r4, r3
 243 010a 6240     		eors	r2, r4
 244 010c 1923     		movs	r3, #25
 245 010e 2C00     		movs	r4, r5
 246 0110 DC41     		rors	r4, r4, r3
 247 0112 2300     		movs	r3, r4
 248 0114 5340     		eors	r3, r2
 249 0116 4344     		add	r3, r3, r8
 250 0118 019C     		ldr	r4, [sp, #4]
 251 011a 2C40     		ands	r4, r5
 252 011c 029A     		ldr	r2, [sp, #8]
 253 011e AA43     		bics	r2, r5
 254 0120 6240     		eors	r2, r4
 255 0122 9A18     		adds	r2, r3, r2
 256 0124 8C00     		lsls	r4, r1, #2
 257 0126 314B     		ldr	r3, .L8
 258 0128 E358     		ldr	r3, [r4, r3]
 259 012a D218     		adds	r2, r2, r3
 260 012c 0AAB     		add	r3, sp, #40
 261 012e E358     		ldr	r3, [r4, r3]
 262 0130 D218     		adds	r2, r2, r3
 263              	.LVL27:
 497:Source\azure_iot_sdk\c-utility\src/sha224.c ****         temp2 = SHA256_SIGMA0(A) + SHA_Maj(A, B, C);
 264              		.loc 1 497 0 discriminator 3
 265 0132 0223     		movs	r3, #2
 266 0134 3400     		movs	r4, r6
 267 0136 DC41     		rors	r4, r4, r3
 268 0138 A046     		mov	r8, r4
 269              	.LVL28:
 270 013a 0B33     		adds	r3, r3, #11
 271 013c 3400     		movs	r4, r6
 272 013e DC41     		rors	r4, r4, r3
 273 0140 2300     		movs	r3, r4
 274 0142 4446     		mov	r4, r8
 275 0144 6340     		eors	r3, r4
 276 0146 9946     		mov	r9, r3
 277 0148 1624     		movs	r4, #22
 278 014a A046     		mov	r8, r4
 279 014c 3400     		movs	r4, r6
 280 014e 4346     		mov	r3, r8
 281 0150 DC41     		rors	r4, r4, r3
 282 0152 4B46     		mov	r3, r9
 283 0154 5C40     		eors	r4, r3
 284 0156 A046     		mov	r8, r4
ARM GAS  C:\Users\Phuong\AppData\Local\Temp\ccqJesaa.s 			page 15


 285 0158 3B00     		movs	r3, r7
 286 015a 3340     		ands	r3, r6
 287 015c 9946     		mov	r9, r3
 288 015e 0300     		movs	r3, r0
 289 0160 3340     		ands	r3, r6
 290 0162 4C46     		mov	r4, r9
 291 0164 5C40     		eors	r4, r3
 292 0166 0300     		movs	r3, r0
 293 0168 3B40     		ands	r3, r7
 294 016a 6340     		eors	r3, r4
 295 016c 4344     		add	r3, r3, r8
 296              	.LVL29:
 495:Source\azure_iot_sdk\c-utility\src/sha224.c ****         temp1 = H + SHA256_SIGMA1(E) + SHA_Ch(E, F, G) + K[t] + W[t];
 297              		.loc 1 495 0 discriminator 3
 298 016e 0131     		adds	r1, r1, #1
 299              	.LVL30:
 498:Source\azure_iot_sdk\c-utility\src/sha224.c ****         H = G;
 300              		.loc 1 498 0 discriminator 3
 301 0170 029C     		ldr	r4, [sp, #8]
 302 0172 A046     		mov	r8, r4
 499:Source\azure_iot_sdk\c-utility\src/sha224.c ****         G = F;
 303              		.loc 1 499 0 discriminator 3
 304 0174 019C     		ldr	r4, [sp, #4]
 305 0176 0294     		str	r4, [sp, #8]
 306              	.LVL31:
 500:Source\azure_iot_sdk\c-utility\src/sha224.c ****         F = E;
 307              		.loc 1 500 0 discriminator 3
 308 0178 0195     		str	r5, [sp, #4]
 309              	.LVL32:
 501:Source\azure_iot_sdk\c-utility\src/sha224.c ****         E = D + temp1;
 310              		.loc 1 501 0 discriminator 3
 311 017a 5446     		mov	r4, r10
 312              	.LVL33:
 313 017c A518     		adds	r5, r4, r2
 314              	.LVL34:
 502:Source\azure_iot_sdk\c-utility\src/sha224.c ****         D = C;
 315              		.loc 1 502 0 discriminator 3
 316 017e 8246     		mov	r10, r0
 503:Source\azure_iot_sdk\c-utility\src/sha224.c ****         C = B;
 317              		.loc 1 503 0 discriminator 3
 318 0180 3800     		movs	r0, r7
 319              	.LVL35:
 504:Source\azure_iot_sdk\c-utility\src/sha224.c ****         B = A;
 320              		.loc 1 504 0 discriminator 3
 321 0182 3700     		movs	r7, r6
 322              	.LVL36:
 505:Source\azure_iot_sdk\c-utility\src/sha224.c ****         A = temp1 + temp2;
 323              		.loc 1 505 0 discriminator 3
 324 0184 D618     		adds	r6, r2, r3
 325              	.LVL37:
 326              	.L6:
 495:Source\azure_iot_sdk\c-utility\src/sha224.c ****         temp1 = H + SHA256_SIGMA1(E) + SHA_Ch(E, F, G) + K[t] + W[t];
 327              		.loc 1 495 0 discriminator 1
 328 0186 3F29     		cmp	r1, #63
 329 0188 B9DD     		ble	.L7
 330 018a 4446     		mov	r4, r8
 331 018c 099B     		ldr	r3, [sp, #36]
ARM GAS  C:\Users\Phuong\AppData\Local\Temp\ccqJesaa.s 			page 16


 332 018e 9846     		mov	r8, r3
 333              	.LVL38:
 506:Source\azure_iot_sdk\c-utility\src/sha224.c ****     }
 507:Source\azure_iot_sdk\c-utility\src/sha224.c **** 
 508:Source\azure_iot_sdk\c-utility\src/sha224.c ****     context->Intermediate_Hash[0] += A;
 334              		.loc 1 508 0
 335 0190 6644     		add	r6, r6, ip
 336              	.LVL39:
 337 0192 5B46     		mov	r3, fp
 338 0194 1E60     		str	r6, [r3]
 509:Source\azure_iot_sdk\c-utility\src/sha224.c ****     context->Intermediate_Hash[1] += B;
 339              		.loc 1 509 0
 340 0196 3B00     		movs	r3, r7
 341 0198 4344     		add	r3, r3, r8
 342 019a 5A46     		mov	r2, fp
 343 019c 5360     		str	r3, [r2, #4]
 510:Source\azure_iot_sdk\c-utility\src/sha224.c ****     context->Intermediate_Hash[2] += C;
 344              		.loc 1 510 0
 345 019e 039B     		ldr	r3, [sp, #12]
 346 01a0 C318     		adds	r3, r0, r3
 347 01a2 9360     		str	r3, [r2, #8]
 511:Source\azure_iot_sdk\c-utility\src/sha224.c ****     context->Intermediate_Hash[3] += D;
 348              		.loc 1 511 0
 349 01a4 049B     		ldr	r3, [sp, #16]
 350 01a6 5344     		add	r3, r3, r10
 351 01a8 D360     		str	r3, [r2, #12]
 512:Source\azure_iot_sdk\c-utility\src/sha224.c ****     context->Intermediate_Hash[4] += E;
 352              		.loc 1 512 0
 353 01aa 059B     		ldr	r3, [sp, #20]
 354 01ac 9C46     		mov	ip, r3
 355 01ae 6544     		add	r5, r5, ip
 356              	.LVL40:
 357 01b0 1561     		str	r5, [r2, #16]
 513:Source\azure_iot_sdk\c-utility\src/sha224.c ****     context->Intermediate_Hash[5] += F;
 358              		.loc 1 513 0
 359 01b2 019B     		ldr	r3, [sp, #4]
 360 01b4 069A     		ldr	r2, [sp, #24]
 361 01b6 9446     		mov	ip, r2
 362 01b8 6344     		add	r3, r3, ip
 363 01ba 1800     		movs	r0, r3
 364              	.LVL41:
 365 01bc 5B46     		mov	r3, fp
 366 01be 5861     		str	r0, [r3, #20]
 514:Source\azure_iot_sdk\c-utility\src/sha224.c ****     context->Intermediate_Hash[6] += G;
 367              		.loc 1 514 0
 368 01c0 029B     		ldr	r3, [sp, #8]
 369 01c2 079A     		ldr	r2, [sp, #28]
 370 01c4 9446     		mov	ip, r2
 371 01c6 6344     		add	r3, r3, ip
 372 01c8 1F00     		movs	r7, r3
 373              	.LVL42:
 374 01ca 5B46     		mov	r3, fp
 375 01cc 9F61     		str	r7, [r3, #24]
 515:Source\azure_iot_sdk\c-utility\src/sha224.c ****     context->Intermediate_Hash[7] += H;
 376              		.loc 1 515 0
 377 01ce 089B     		ldr	r3, [sp, #32]
 378 01d0 9C46     		mov	ip, r3
ARM GAS  C:\Users\Phuong\AppData\Local\Temp\ccqJesaa.s 			page 17


 379 01d2 6444     		add	r4, r4, ip
 380              	.LVL43:
 381 01d4 5B46     		mov	r3, fp
 382 01d6 DC61     		str	r4, [r3, #28]
 516:Source\azure_iot_sdk\c-utility\src/sha224.c **** 
 517:Source\azure_iot_sdk\c-utility\src/sha224.c ****     context->Message_Block_Index = 0;
 383              		.loc 1 517 0
 384 01d8 0023     		movs	r3, #0
 385 01da 5A46     		mov	r2, fp
 386 01dc 1385     		strh	r3, [r2, #40]
 518:Source\azure_iot_sdk\c-utility\src/sha224.c **** }
 387              		.loc 1 518 0
 388 01de 4BB0     		add	sp, sp, #300
 389              		@ sp needed
 390              	.LVL44:
 391              	.LVL45:
 392 01e0 3CBC     		pop	{r2, r3, r4, r5}
 393 01e2 9046     		mov	r8, r2
 394 01e4 9946     		mov	r9, r3
 395 01e6 A246     		mov	r10, r4
 396 01e8 AB46     		mov	fp, r5
 397 01ea F0BD     		pop	{r4, r5, r6, r7, pc}
 398              	.L9:
 399              		.align	2
 400              	.L8:
 401 01ec 00000000 		.word	.LANCHOR0
 402              		.cfi_endproc
 403              	.LFE10:
 404              		.size	SHA224_256ProcessMessageBlock, .-SHA224_256ProcessMessageBlock
 405              		.section	.text.SHA224_256PadMessage,"ax",%progbits
 406              		.align	2
 407              		.code	16
 408              		.thumb_func
 409              		.type	SHA224_256PadMessage, %function
 410              	SHA224_256PadMessage:
 411              	.LFB9:
 397:Source\azure_iot_sdk\c-utility\src/sha224.c ****     /*
 412              		.loc 1 397 0
 413              		.cfi_startproc
 414              		@ args = 0, pretend = 0, frame = 0
 415              		@ frame_needed = 0, uses_anonymous_args = 0
 416              	.LVL46:
 417 0000 10B5     		push	{r4, lr}
 418              		.cfi_def_cfa_offset 8
 419              		.cfi_offset 4, -8
 420              		.cfi_offset 14, -4
 421 0002 0400     		movs	r4, r0
 404:Source\azure_iot_sdk\c-utility\src/sha224.c ****         context->Message_Block[context->Message_Block_Index++] = Pad_Byte;
 422              		.loc 1 404 0
 423 0004 2822     		movs	r2, #40
 424 0006 835E     		ldrsh	r3, [r0, r2]
 425 0008 372B     		cmp	r3, #55
 426 000a 13DD     		ble	.L11
 405:Source\azure_iot_sdk\c-utility\src/sha224.c ****         while (context->Message_Block_Index < SHA256_Message_Block_Size)
 427              		.loc 1 405 0
 428 000c 5A1C     		adds	r2, r3, #1
 429 000e 0285     		strh	r2, [r0, #40]
ARM GAS  C:\Users\Phuong\AppData\Local\Temp\ccqJesaa.s 			page 18


 430 0010 C318     		adds	r3, r0, r3
 431 0012 2A33     		adds	r3, r3, #42
 432 0014 1970     		strb	r1, [r3]
 406:Source\azure_iot_sdk\c-utility\src/sha224.c ****             context->Message_Block[context->Message_Block_Index++] = 0;
 433              		.loc 1 406 0
 434 0016 05E0     		b	.L12
 435              	.L13:
 407:Source\azure_iot_sdk\c-utility\src/sha224.c ****         SHA224_256ProcessMessageBlock(context);
 436              		.loc 1 407 0
 437 0018 5A1C     		adds	r2, r3, #1
 438 001a 2285     		strh	r2, [r4, #40]
 439 001c E318     		adds	r3, r4, r3
 440 001e 2A33     		adds	r3, r3, #42
 441 0020 0022     		movs	r2, #0
 442 0022 1A70     		strb	r2, [r3]
 443              	.L12:
 406:Source\azure_iot_sdk\c-utility\src/sha224.c ****             context->Message_Block[context->Message_Block_Index++] = 0;
 444              		.loc 1 406 0
 445 0024 2822     		movs	r2, #40
 446 0026 A35E     		ldrsh	r3, [r4, r2]
 447 0028 3F2B     		cmp	r3, #63
 448 002a F5DD     		ble	.L13
 408:Source\azure_iot_sdk\c-utility\src/sha224.c ****     }
 449              		.loc 1 408 0
 450 002c 2000     		movs	r0, r4
 451              	.LVL47:
 452 002e FFF7FEFF 		bl	SHA224_256ProcessMessageBlock
 453              	.LVL48:
 454 0032 0BE0     		b	.L14
 455              	.LVL49:
 456              	.L11:
 411:Source\azure_iot_sdk\c-utility\src/sha224.c **** 
 457              		.loc 1 411 0
 458 0034 5A1C     		adds	r2, r3, #1
 459 0036 0285     		strh	r2, [r0, #40]
 460 0038 C318     		adds	r3, r0, r3
 461 003a 2A33     		adds	r3, r3, #42
 462 003c 1970     		strb	r1, [r3]
 463 003e 05E0     		b	.L14
 464              	.LVL50:
 465              	.L16:
 414:Source\azure_iot_sdk\c-utility\src/sha224.c **** 
 466              		.loc 1 414 0
 467 0040 5A1C     		adds	r2, r3, #1
 468 0042 2285     		strh	r2, [r4, #40]
 469 0044 E318     		adds	r3, r4, r3
 470 0046 2A33     		adds	r3, r3, #42
 471 0048 0022     		movs	r2, #0
 472 004a 1A70     		strb	r2, [r3]
 473              	.L14:
 413:Source\azure_iot_sdk\c-utility\src/sha224.c ****         context->Message_Block[context->Message_Block_Index++] = 0;
 474              		.loc 1 413 0
 475 004c 2822     		movs	r2, #40
 476 004e A35E     		ldrsh	r3, [r4, r2]
 477 0050 372B     		cmp	r3, #55
 478 0052 F5DD     		ble	.L16
 419:Source\azure_iot_sdk\c-utility\src/sha224.c ****     context->Message_Block[57] = (uint8_t)(context->Length_High >> 16);
ARM GAS  C:\Users\Phuong\AppData\Local\Temp\ccqJesaa.s 			page 19


 479              		.loc 1 419 0
 480 0054 636A     		ldr	r3, [r4, #36]
 481 0056 190E     		lsrs	r1, r3, #24
 482 0058 6222     		movs	r2, #98
 483 005a A154     		strb	r1, [r4, r2]
 420:Source\azure_iot_sdk\c-utility\src/sha224.c ****     context->Message_Block[58] = (uint8_t)(context->Length_High >> 8);
 484              		.loc 1 420 0
 485 005c 190C     		lsrs	r1, r3, #16
 486 005e 0132     		adds	r2, r2, #1
 487 0060 A154     		strb	r1, [r4, r2]
 421:Source\azure_iot_sdk\c-utility\src/sha224.c ****     context->Message_Block[59] = (uint8_t)(context->Length_High);
 488              		.loc 1 421 0
 489 0062 190A     		lsrs	r1, r3, #8
 490 0064 0132     		adds	r2, r2, #1
 491 0066 A154     		strb	r1, [r4, r2]
 422:Source\azure_iot_sdk\c-utility\src/sha224.c ****     context->Message_Block[60] = (uint8_t)(context->Length_Low >> 24);
 492              		.loc 1 422 0
 493 0068 0132     		adds	r2, r2, #1
 494 006a A354     		strb	r3, [r4, r2]
 423:Source\azure_iot_sdk\c-utility\src/sha224.c ****     context->Message_Block[61] = (uint8_t)(context->Length_Low >> 16);
 495              		.loc 1 423 0
 496 006c 236A     		ldr	r3, [r4, #32]
 497 006e 190E     		lsrs	r1, r3, #24
 498 0070 0132     		adds	r2, r2, #1
 499 0072 A154     		strb	r1, [r4, r2]
 424:Source\azure_iot_sdk\c-utility\src/sha224.c ****     context->Message_Block[62] = (uint8_t)(context->Length_Low >> 8);
 500              		.loc 1 424 0
 501 0074 190C     		lsrs	r1, r3, #16
 502 0076 0132     		adds	r2, r2, #1
 503 0078 A154     		strb	r1, [r4, r2]
 425:Source\azure_iot_sdk\c-utility\src/sha224.c ****     context->Message_Block[63] = (uint8_t)(context->Length_Low);
 504              		.loc 1 425 0
 505 007a 190A     		lsrs	r1, r3, #8
 506 007c 0132     		adds	r2, r2, #1
 507 007e A154     		strb	r1, [r4, r2]
 426:Source\azure_iot_sdk\c-utility\src/sha224.c **** 
 508              		.loc 1 426 0
 509 0080 0132     		adds	r2, r2, #1
 510 0082 A354     		strb	r3, [r4, r2]
 428:Source\azure_iot_sdk\c-utility\src/sha224.c **** }
 511              		.loc 1 428 0
 512 0084 2000     		movs	r0, r4
 513 0086 FFF7FEFF 		bl	SHA224_256ProcessMessageBlock
 514              	.LVL51:
 429:Source\azure_iot_sdk\c-utility\src/sha224.c **** 
 515              		.loc 1 429 0
 516              		@ sp needed
 517              	.LVL52:
 518 008a 10BD     		pop	{r4, pc}
 519              		.cfi_endproc
 520              	.LFE9:
 521              		.size	SHA224_256PadMessage, .-SHA224_256PadMessage
 522              		.section	.text.SHA224_256Finalize,"ax",%progbits
 523              		.align	2
 524              		.code	16
 525              		.thumb_func
 526              		.type	SHA224_256Finalize, %function
ARM GAS  C:\Users\Phuong\AppData\Local\Temp\ccqJesaa.s 			page 20


 527              	SHA224_256Finalize:
 528              	.LFB8:
 360:Source\azure_iot_sdk\c-utility\src/sha224.c ****     int i;
 529              		.loc 1 360 0
 530              		.cfi_startproc
 531              		@ args = 0, pretend = 0, frame = 0
 532              		@ frame_needed = 0, uses_anonymous_args = 0
 533              	.LVL53:
 534 0000 10B5     		push	{r4, lr}
 535              		.cfi_def_cfa_offset 8
 536              		.cfi_offset 4, -8
 537              		.cfi_offset 14, -4
 538 0002 0400     		movs	r4, r0
 362:Source\azure_iot_sdk\c-utility\src/sha224.c ****     /* message may be sensitive, so clear it out */
 539              		.loc 1 362 0
 540 0004 FFF7FEFF 		bl	SHA224_256PadMessage
 541              	.LVL54:
 364:Source\azure_iot_sdk\c-utility\src/sha224.c ****         context->Message_Block[i] = 0;
 542              		.loc 1 364 0
 543 0008 0023     		movs	r3, #0
 544 000a 04E0     		b	.L18
 545              	.LVL55:
 546              	.L19:
 365:Source\azure_iot_sdk\c-utility\src/sha224.c ****     context->Length_Low = 0;  /* and clear length */
 547              		.loc 1 365 0 discriminator 3
 548 000c E218     		adds	r2, r4, r3
 549 000e 2A32     		adds	r2, r2, #42
 550 0010 0021     		movs	r1, #0
 551 0012 1170     		strb	r1, [r2]
 364:Source\azure_iot_sdk\c-utility\src/sha224.c ****         context->Message_Block[i] = 0;
 552              		.loc 1 364 0 discriminator 3
 553 0014 0133     		adds	r3, r3, #1
 554              	.LVL56:
 555              	.L18:
 364:Source\azure_iot_sdk\c-utility\src/sha224.c ****         context->Message_Block[i] = 0;
 556              		.loc 1 364 0 is_stmt 0 discriminator 1
 557 0016 3F2B     		cmp	r3, #63
 558 0018 F8DD     		ble	.L19
 366:Source\azure_iot_sdk\c-utility\src/sha224.c ****     context->Length_High = 0;
 559              		.loc 1 366 0 is_stmt 1
 560 001a 0023     		movs	r3, #0
 561              	.LVL57:
 562 001c 2362     		str	r3, [r4, #32]
 367:Source\azure_iot_sdk\c-utility\src/sha224.c ****     context->Computed = 1;
 563              		.loc 1 367 0
 564 001e 6362     		str	r3, [r4, #36]
 368:Source\azure_iot_sdk\c-utility\src/sha224.c **** }
 565              		.loc 1 368 0
 566 0020 0133     		adds	r3, r3, #1
 567 0022 E366     		str	r3, [r4, #108]
 369:Source\azure_iot_sdk\c-utility\src/sha224.c **** 
 568              		.loc 1 369 0
 569              		@ sp needed
 570              	.LVL58:
 571 0024 10BD     		pop	{r4, pc}
 572              		.cfi_endproc
 573              	.LFE8:
ARM GAS  C:\Users\Phuong\AppData\Local\Temp\ccqJesaa.s 			page 21


 574              		.size	SHA224_256Finalize, .-SHA224_256Finalize
 575 0026 C046     		.section	.text.SHA224_256Reset,"ax",%progbits
 576              		.align	2
 577              		.code	16
 578              		.thumb_func
 579              		.type	SHA224_256Reset, %function
 580              	SHA224_256Reset:
 581              	.LFB11:
 519:Source\azure_iot_sdk\c-utility\src/sha224.c **** 
 520:Source\azure_iot_sdk\c-utility\src/sha224.c **** /*
 521:Source\azure_iot_sdk\c-utility\src/sha224.c **** * SHA224_256Reset
 522:Source\azure_iot_sdk\c-utility\src/sha224.c **** *
 523:Source\azure_iot_sdk\c-utility\src/sha224.c **** * Description:
 524:Source\azure_iot_sdk\c-utility\src/sha224.c **** *   This helper function will initialize the SHA256Context in
 525:Source\azure_iot_sdk\c-utility\src/sha224.c **** *   preparation for computing a new SHA256 message digest.
 526:Source\azure_iot_sdk\c-utility\src/sha224.c **** *
 527:Source\azure_iot_sdk\c-utility\src/sha224.c **** * Parameters:
 528:Source\azure_iot_sdk\c-utility\src/sha224.c **** *   context: [in/out]
 529:Source\azure_iot_sdk\c-utility\src/sha224.c **** *     The context to reset.
 530:Source\azure_iot_sdk\c-utility\src/sha224.c **** *   H0
 531:Source\azure_iot_sdk\c-utility\src/sha224.c **** *     The initial hash value to use.
 532:Source\azure_iot_sdk\c-utility\src/sha224.c **** *
 533:Source\azure_iot_sdk\c-utility\src/sha224.c **** * Returns:
 534:Source\azure_iot_sdk\c-utility\src/sha224.c **** *   sha Error Code.
 535:Source\azure_iot_sdk\c-utility\src/sha224.c **** */
 536:Source\azure_iot_sdk\c-utility\src/sha224.c **** static int SHA224_256Reset(SHA256Context *context, uint32_t *H0)
 537:Source\azure_iot_sdk\c-utility\src/sha224.c **** {
 582              		.loc 1 537 0
 583              		.cfi_startproc
 584              		@ args = 0, pretend = 0, frame = 0
 585              		@ frame_needed = 0, uses_anonymous_args = 0
 586              		@ link register save eliminated.
 587              	.LVL59:
 538:Source\azure_iot_sdk\c-utility\src/sha224.c ****     if (!context)
 588              		.loc 1 538 0
 589 0000 0028     		cmp	r0, #0
 590 0002 17D0     		beq	.L22
 539:Source\azure_iot_sdk\c-utility\src/sha224.c ****         return shaNull;
 540:Source\azure_iot_sdk\c-utility\src/sha224.c **** 
 541:Source\azure_iot_sdk\c-utility\src/sha224.c ****     context->Length_Low = 0;
 591              		.loc 1 541 0
 592 0004 0023     		movs	r3, #0
 593 0006 0362     		str	r3, [r0, #32]
 542:Source\azure_iot_sdk\c-utility\src/sha224.c ****     context->Length_High = 0;
 594              		.loc 1 542 0
 595 0008 4362     		str	r3, [r0, #36]
 543:Source\azure_iot_sdk\c-utility\src/sha224.c ****     context->Message_Block_Index = 0;
 596              		.loc 1 543 0
 597 000a 0385     		strh	r3, [r0, #40]
 544:Source\azure_iot_sdk\c-utility\src/sha224.c **** 
 545:Source\azure_iot_sdk\c-utility\src/sha224.c ****     context->Intermediate_Hash[0] = H0[0];
 598              		.loc 1 545 0
 599 000c 0A68     		ldr	r2, [r1]
 600 000e 0260     		str	r2, [r0]
 546:Source\azure_iot_sdk\c-utility\src/sha224.c ****     context->Intermediate_Hash[1] = H0[1];
 601              		.loc 1 546 0
 602 0010 4A68     		ldr	r2, [r1, #4]
ARM GAS  C:\Users\Phuong\AppData\Local\Temp\ccqJesaa.s 			page 22


 603 0012 4260     		str	r2, [r0, #4]
 547:Source\azure_iot_sdk\c-utility\src/sha224.c ****     context->Intermediate_Hash[2] = H0[2];
 604              		.loc 1 547 0
 605 0014 8A68     		ldr	r2, [r1, #8]
 606 0016 8260     		str	r2, [r0, #8]
 548:Source\azure_iot_sdk\c-utility\src/sha224.c ****     context->Intermediate_Hash[3] = H0[3];
 607              		.loc 1 548 0
 608 0018 CA68     		ldr	r2, [r1, #12]
 609 001a C260     		str	r2, [r0, #12]
 549:Source\azure_iot_sdk\c-utility\src/sha224.c ****     context->Intermediate_Hash[4] = H0[4];
 610              		.loc 1 549 0
 611 001c 0A69     		ldr	r2, [r1, #16]
 612 001e 0261     		str	r2, [r0, #16]
 550:Source\azure_iot_sdk\c-utility\src/sha224.c ****     context->Intermediate_Hash[5] = H0[5];
 613              		.loc 1 550 0
 614 0020 4A69     		ldr	r2, [r1, #20]
 615 0022 4261     		str	r2, [r0, #20]
 551:Source\azure_iot_sdk\c-utility\src/sha224.c ****     context->Intermediate_Hash[6] = H0[6];
 616              		.loc 1 551 0
 617 0024 8A69     		ldr	r2, [r1, #24]
 618 0026 8261     		str	r2, [r0, #24]
 552:Source\azure_iot_sdk\c-utility\src/sha224.c ****     context->Intermediate_Hash[7] = H0[7];
 619              		.loc 1 552 0
 620 0028 CA69     		ldr	r2, [r1, #28]
 621 002a C261     		str	r2, [r0, #28]
 553:Source\azure_iot_sdk\c-utility\src/sha224.c **** 
 554:Source\azure_iot_sdk\c-utility\src/sha224.c ****     context->Computed = 0;
 622              		.loc 1 554 0
 623 002c C366     		str	r3, [r0, #108]
 555:Source\azure_iot_sdk\c-utility\src/sha224.c ****     context->Corrupted = 0;
 624              		.loc 1 555 0
 625 002e 0367     		str	r3, [r0, #112]
 556:Source\azure_iot_sdk\c-utility\src/sha224.c **** 
 557:Source\azure_iot_sdk\c-utility\src/sha224.c ****     return shaSuccess;
 626              		.loc 1 557 0
 627 0030 0020     		movs	r0, #0
 628              	.LVL60:
 629 0032 00E0     		b	.L21
 630              	.LVL61:
 631              	.L22:
 539:Source\azure_iot_sdk\c-utility\src/sha224.c **** 
 632              		.loc 1 539 0
 633 0034 0120     		movs	r0, #1
 634              	.LVL62:
 635              	.L21:
 558:Source\azure_iot_sdk\c-utility\src/sha224.c **** }
 636              		.loc 1 558 0
 637              		@ sp needed
 638 0036 7047     		bx	lr
 639              		.cfi_endproc
 640              	.LFE11:
 641              		.size	SHA224_256Reset, .-SHA224_256Reset
 642              		.section	.text.SHA224_256ResultN,"ax",%progbits
 643              		.align	2
 644              		.code	16
 645              		.thumb_func
 646              		.type	SHA224_256ResultN, %function
ARM GAS  C:\Users\Phuong\AppData\Local\Temp\ccqJesaa.s 			page 23


 647              	SHA224_256ResultN:
 648              	.LFB12:
 559:Source\azure_iot_sdk\c-utility\src/sha224.c **** 
 560:Source\azure_iot_sdk\c-utility\src/sha224.c **** /*
 561:Source\azure_iot_sdk\c-utility\src/sha224.c **** * SHA224_256ResultN
 562:Source\azure_iot_sdk\c-utility\src/sha224.c **** *
 563:Source\azure_iot_sdk\c-utility\src/sha224.c **** * Description:
 564:Source\azure_iot_sdk\c-utility\src/sha224.c **** *   This helper function will return the 224-bit or 256-bit message
 565:Source\azure_iot_sdk\c-utility\src/sha224.c **** *   digest into the Message_Digest array provided by the caller.
 566:Source\azure_iot_sdk\c-utility\src/sha224.c **** *   NOTE: The first octet of hash is stored in the 0th element,
 567:Source\azure_iot_sdk\c-utility\src/sha224.c **** *      the last octet of hash in the 28th/32nd element.
 568:Source\azure_iot_sdk\c-utility\src/sha224.c **** *
 569:Source\azure_iot_sdk\c-utility\src/sha224.c **** * Parameters:
 570:Source\azure_iot_sdk\c-utility\src/sha224.c **** *   context: [in/out]
 571:Source\azure_iot_sdk\c-utility\src/sha224.c **** *     The context to use to calculate the SHA hash.
 572:Source\azure_iot_sdk\c-utility\src/sha224.c **** *   Message_Digest: [out]
 573:Source\azure_iot_sdk\c-utility\src/sha224.c **** *     Where the digest is returned.
 574:Source\azure_iot_sdk\c-utility\src/sha224.c **** *   HashSize: [in]
 575:Source\azure_iot_sdk\c-utility\src/sha224.c **** *     The size of the hash, either 28 or 32.
 576:Source\azure_iot_sdk\c-utility\src/sha224.c **** *
 577:Source\azure_iot_sdk\c-utility\src/sha224.c **** * Returns:
 578:Source\azure_iot_sdk\c-utility\src/sha224.c **** *   sha Error Code.
 579:Source\azure_iot_sdk\c-utility\src/sha224.c **** */
 580:Source\azure_iot_sdk\c-utility\src/sha224.c **** static int SHA224_256ResultN(SHA256Context *context,
 581:Source\azure_iot_sdk\c-utility\src/sha224.c ****     uint8_t Message_Digest[], int HashSize)
 582:Source\azure_iot_sdk\c-utility\src/sha224.c **** {
 649              		.loc 1 582 0
 650              		.cfi_startproc
 651              		@ args = 0, pretend = 0, frame = 0
 652              		@ frame_needed = 0, uses_anonymous_args = 0
 653              	.LVL63:
 654 0000 F8B5     		push	{r3, r4, r5, r6, r7, lr}
 655              		.cfi_def_cfa_offset 24
 656              		.cfi_offset 3, -24
 657              		.cfi_offset 4, -20
 658              		.cfi_offset 5, -16
 659              		.cfi_offset 6, -12
 660              		.cfi_offset 7, -8
 661              		.cfi_offset 14, -4
 662 0002 0400     		movs	r4, r0
 663 0004 0D00     		movs	r5, r1
 664 0006 1600     		movs	r6, r2
 583:Source\azure_iot_sdk\c-utility\src/sha224.c ****     int i;
 584:Source\azure_iot_sdk\c-utility\src/sha224.c **** 
 585:Source\azure_iot_sdk\c-utility\src/sha224.c ****     if (!context || !Message_Digest)
 665              		.loc 1 585 0
 666 0008 0028     		cmp	r0, #0
 667 000a 18D0     		beq	.L28
 668              		.loc 1 585 0 is_stmt 0 discriminator 1
 669 000c 0029     		cmp	r1, #0
 670 000e 18D0     		beq	.L29
 586:Source\azure_iot_sdk\c-utility\src/sha224.c ****         return shaNull;
 587:Source\azure_iot_sdk\c-utility\src/sha224.c **** 
 588:Source\azure_iot_sdk\c-utility\src/sha224.c ****     if (context->Corrupted)
 671              		.loc 1 588 0 is_stmt 1
 672 0010 076F     		ldr	r7, [r0, #112]
 673 0012 002F     		cmp	r7, #0
ARM GAS  C:\Users\Phuong\AppData\Local\Temp\ccqJesaa.s 			page 24


 674 0014 16D1     		bne	.L24
 589:Source\azure_iot_sdk\c-utility\src/sha224.c ****         return context->Corrupted;
 590:Source\azure_iot_sdk\c-utility\src/sha224.c **** 
 591:Source\azure_iot_sdk\c-utility\src/sha224.c ****     if (!context->Computed)
 675              		.loc 1 591 0
 676 0016 C36E     		ldr	r3, [r0, #108]
 677 0018 002B     		cmp	r3, #0
 678 001a 02D1     		bne	.L25
 592:Source\azure_iot_sdk\c-utility\src/sha224.c ****         SHA224_256Finalize(context, 0x80);
 679              		.loc 1 592 0
 680 001c 8021     		movs	r1, #128
 681              	.LVL64:
 682 001e FFF7FEFF 		bl	SHA224_256Finalize
 683              	.LVL65:
 684              	.L25:
 582:Source\azure_iot_sdk\c-utility\src/sha224.c ****     int i;
 685              		.loc 1 582 0 discriminator 1
 686 0022 0023     		movs	r3, #0
 687 0024 08E0     		b	.L26
 688              	.LVL66:
 689              	.L27:
 593:Source\azure_iot_sdk\c-utility\src/sha224.c **** 
 594:Source\azure_iot_sdk\c-utility\src/sha224.c ****     for (i = 0; i < HashSize; ++i)
 595:Source\azure_iot_sdk\c-utility\src/sha224.c ****         Message_Digest[i] = (uint8_t)
 596:Source\azure_iot_sdk\c-utility\src/sha224.c ****         (context->Intermediate_Hash[i >> 2] >> 8 * (3 - (i & 0x03)));
 690              		.loc 1 596 0 discriminator 3
 691 0026 9A10     		asrs	r2, r3, #2
 692 0028 9200     		lsls	r2, r2, #2
 693 002a 1159     		ldr	r1, [r2, r4]
 694 002c 0322     		movs	r2, #3
 695 002e 9A43     		bics	r2, r3
 696 0030 D200     		lsls	r2, r2, #3
 697 0032 D140     		lsrs	r1, r1, r2
 595:Source\azure_iot_sdk\c-utility\src/sha224.c ****         (context->Intermediate_Hash[i >> 2] >> 8 * (3 - (i & 0x03)));
 698              		.loc 1 595 0 discriminator 3
 699 0034 E954     		strb	r1, [r5, r3]
 594:Source\azure_iot_sdk\c-utility\src/sha224.c ****         Message_Digest[i] = (uint8_t)
 700              		.loc 1 594 0 discriminator 3
 701 0036 0133     		adds	r3, r3, #1
 702              	.LVL67:
 703              	.L26:
 594:Source\azure_iot_sdk\c-utility\src/sha224.c ****         Message_Digest[i] = (uint8_t)
 704              		.loc 1 594 0 is_stmt 0 discriminator 1
 705 0038 B342     		cmp	r3, r6
 706 003a F4DB     		blt	.L27
 707 003c 02E0     		b	.L24
 708              	.LVL68:
 709              	.L28:
 586:Source\azure_iot_sdk\c-utility\src/sha224.c **** 
 710              		.loc 1 586 0 is_stmt 1
 711 003e 0127     		movs	r7, #1
 712 0040 00E0     		b	.L24
 713              	.L29:
 714 0042 0127     		movs	r7, #1
 715              	.LVL69:
 716              	.L24:
 597:Source\azure_iot_sdk\c-utility\src/sha224.c **** 
ARM GAS  C:\Users\Phuong\AppData\Local\Temp\ccqJesaa.s 			page 25


 598:Source\azure_iot_sdk\c-utility\src/sha224.c ****     return shaSuccess;
 599:Source\azure_iot_sdk\c-utility\src/sha224.c **** }
 717              		.loc 1 599 0
 718 0044 3800     		movs	r0, r7
 719              		@ sp needed
 720              	.LVL70:
 721              	.LVL71:
 722              	.LVL72:
 723 0046 F8BD     		pop	{r3, r4, r5, r6, r7, pc}
 724              		.cfi_endproc
 725              	.LFE12:
 726              		.size	SHA224_256ResultN, .-SHA224_256ResultN
 727              		.section	.text.SHA224Reset,"ax",%progbits
 728              		.align	2
 729              		.global	SHA224Reset
 730              		.code	16
 731              		.thumb_func
 732              		.type	SHA224Reset, %function
 733              	SHA224Reset:
 734              	.LFB0:
 109:Source\azure_iot_sdk\c-utility\src/sha224.c ****     return SHA224_256Reset(context, SHA224_H0);
 735              		.loc 1 109 0
 736              		.cfi_startproc
 737              		@ args = 0, pretend = 0, frame = 0
 738              		@ frame_needed = 0, uses_anonymous_args = 0
 739              	.LVL73:
 740 0000 10B5     		push	{r4, lr}
 741              		.cfi_def_cfa_offset 8
 742              		.cfi_offset 4, -8
 743              		.cfi_offset 14, -4
 110:Source\azure_iot_sdk\c-utility\src/sha224.c **** }
 744              		.loc 1 110 0
 745 0002 0249     		ldr	r1, .L31
 746 0004 FFF7FEFF 		bl	SHA224_256Reset
 747              	.LVL74:
 111:Source\azure_iot_sdk\c-utility\src/sha224.c **** 
 748              		.loc 1 111 0
 749              		@ sp needed
 750 0008 10BD     		pop	{r4, pc}
 751              	.L32:
 752 000a C046     		.align	2
 753              	.L31:
 754 000c 00000000 		.word	.LANCHOR1
 755              		.cfi_endproc
 756              	.LFE0:
 757              		.size	SHA224Reset, .-SHA224Reset
 758              		.section	.text.SHA224Result,"ax",%progbits
 759              		.align	2
 760              		.global	SHA224Result
 761              		.code	16
 762              		.thumb_func
 763              		.type	SHA224Result, %function
 764              	SHA224Result:
 765              	.LFB3:
 184:Source\azure_iot_sdk\c-utility\src/sha224.c ****     return SHA224_256ResultN(context, Message_Digest, SHA224HashSize);
 766              		.loc 1 184 0
 767              		.cfi_startproc
ARM GAS  C:\Users\Phuong\AppData\Local\Temp\ccqJesaa.s 			page 26


 768              		@ args = 0, pretend = 0, frame = 0
 769              		@ frame_needed = 0, uses_anonymous_args = 0
 770              	.LVL75:
 771 0000 10B5     		push	{r4, lr}
 772              		.cfi_def_cfa_offset 8
 773              		.cfi_offset 4, -8
 774              		.cfi_offset 14, -4
 185:Source\azure_iot_sdk\c-utility\src/sha224.c **** }
 775              		.loc 1 185 0
 776 0002 1C22     		movs	r2, #28
 777 0004 FFF7FEFF 		bl	SHA224_256ResultN
 778              	.LVL76:
 186:Source\azure_iot_sdk\c-utility\src/sha224.c **** 
 779              		.loc 1 186 0
 780              		@ sp needed
 781 0008 10BD     		pop	{r4, pc}
 782              		.cfi_endproc
 783              	.LFE3:
 784              		.size	SHA224Result, .-SHA224Result
 785 000a C046     		.section	.text.SHA256Reset,"ax",%progbits
 786              		.align	2
 787              		.global	SHA256Reset
 788              		.code	16
 789              		.thumb_func
 790              		.type	SHA256Reset, %function
 791              	SHA256Reset:
 792              	.LFB4:
 203:Source\azure_iot_sdk\c-utility\src/sha224.c ****     return SHA224_256Reset(context, SHA256_H0);
 793              		.loc 1 203 0
 794              		.cfi_startproc
 795              		@ args = 0, pretend = 0, frame = 0
 796              		@ frame_needed = 0, uses_anonymous_args = 0
 797              	.LVL77:
 798 0000 10B5     		push	{r4, lr}
 799              		.cfi_def_cfa_offset 8
 800              		.cfi_offset 4, -8
 801              		.cfi_offset 14, -4
 204:Source\azure_iot_sdk\c-utility\src/sha224.c **** }
 802              		.loc 1 204 0
 803 0002 0249     		ldr	r1, .L35
 804 0004 2031     		adds	r1, r1, #32
 805 0006 FFF7FEFF 		bl	SHA224_256Reset
 806              	.LVL78:
 205:Source\azure_iot_sdk\c-utility\src/sha224.c **** 
 807              		.loc 1 205 0
 808              		@ sp needed
 809 000a 10BD     		pop	{r4, pc}
 810              	.L36:
 811              		.align	2
 812              	.L35:
 813 000c 00000000 		.word	.LANCHOR1
 814              		.cfi_endproc
 815              	.LFE4:
 816              		.size	SHA256Reset, .-SHA256Reset
 817              		.section	.text.SHA256Input,"ax",%progbits
 818              		.align	2
 819              		.global	SHA256Input
ARM GAS  C:\Users\Phuong\AppData\Local\Temp\ccqJesaa.s 			page 27


 820              		.code	16
 821              		.thumb_func
 822              		.type	SHA256Input, %function
 823              	SHA256Input:
 824              	.LFB5:
 228:Source\azure_iot_sdk\c-utility\src/sha224.c ****     uint32_t addTemp;
 825              		.loc 1 228 0
 826              		.cfi_startproc
 827              		@ args = 0, pretend = 0, frame = 0
 828              		@ frame_needed = 0, uses_anonymous_args = 0
 829              	.LVL79:
 830 0000 F8B5     		push	{r3, r4, r5, r6, r7, lr}
 831              		.cfi_def_cfa_offset 24
 832              		.cfi_offset 3, -24
 833              		.cfi_offset 4, -20
 834              		.cfi_offset 5, -16
 835              		.cfi_offset 6, -12
 836              		.cfi_offset 7, -8
 837              		.cfi_offset 14, -4
 838 0002 0400     		movs	r4, r0
 839 0004 0E00     		movs	r6, r1
 230:Source\azure_iot_sdk\c-utility\src/sha224.c ****         return shaSuccess;
 840              		.loc 1 230 0
 841 0006 002A     		cmp	r2, #0
 842 0008 35D0     		beq	.L44
 233:Source\azure_iot_sdk\c-utility\src/sha224.c ****         return shaNull;
 843              		.loc 1 233 0
 844 000a 0028     		cmp	r0, #0
 845 000c 35D0     		beq	.L45
 233:Source\azure_iot_sdk\c-utility\src/sha224.c ****         return shaNull;
 846              		.loc 1 233 0 is_stmt 0 discriminator 1
 847 000e 0029     		cmp	r1, #0
 848 0010 35D0     		beq	.L46
 236:Source\azure_iot_sdk\c-utility\src/sha224.c ****         context->Corrupted = shaStateError;
 849              		.loc 1 236 0 is_stmt 1
 850 0012 C36E     		ldr	r3, [r0, #108]
 851 0014 002B     		cmp	r3, #0
 852 0016 03D0     		beq	.L39
 237:Source\azure_iot_sdk\c-utility\src/sha224.c ****         return shaStateError;
 853              		.loc 1 237 0
 854 0018 0323     		movs	r3, #3
 855 001a 0367     		str	r3, [r0, #112]
 238:Source\azure_iot_sdk\c-utility\src/sha224.c ****     }
 856              		.loc 1 238 0
 857 001c 0325     		movs	r5, #3
 858 001e 2FE0     		b	.L38
 859              	.L39:
 241:Source\azure_iot_sdk\c-utility\src/sha224.c ****         return context->Corrupted;
 860              		.loc 1 241 0
 861 0020 056F     		ldr	r5, [r0, #112]
 862 0022 002D     		cmp	r5, #0
 863 0024 20D0     		beq	.L40
 864 0026 2BE0     		b	.L38
 865              	.LVL80:
 866              	.L43:
 245:Source\azure_iot_sdk\c-utility\src/sha224.c ****             (*message_array & 0xFF);
 867              		.loc 1 245 0
ARM GAS  C:\Users\Phuong\AppData\Local\Temp\ccqJesaa.s 			page 28


 868 0028 2821     		movs	r1, #40
 869 002a 635E     		ldrsh	r3, [r4, r1]
 870 002c 591C     		adds	r1, r3, #1
 871 002e 2185     		strh	r1, [r4, #40]
 246:Source\azure_iot_sdk\c-utility\src/sha224.c **** 
 872              		.loc 1 246 0
 873 0030 3178     		ldrb	r1, [r6]
 245:Source\azure_iot_sdk\c-utility\src/sha224.c ****             (*message_array & 0xFF);
 874              		.loc 1 245 0
 875 0032 E318     		adds	r3, r4, r3
 876 0034 2A33     		adds	r3, r3, #42
 877 0036 1970     		strb	r1, [r3]
 248:Source\azure_iot_sdk\c-utility\src/sha224.c ****             (context->Message_Block_Index == SHA256_Message_Block_Size))
 878              		.loc 1 248 0
 879 0038 216A     		ldr	r1, [r4, #32]
 880              	.LVL81:
 881 003a 0B00     		movs	r3, r1
 882 003c 0833     		adds	r3, r3, #8
 883 003e 2362     		str	r3, [r4, #32]
 884 0040 9942     		cmp	r1, r3
 885 0042 05D9     		bls	.L41
 248:Source\azure_iot_sdk\c-utility\src/sha224.c ****             (context->Message_Block_Index == SHA256_Message_Block_Size))
 886              		.loc 1 248 0 is_stmt 0 discriminator 1
 887 0044 636A     		ldr	r3, [r4, #36]
 888 0046 0133     		adds	r3, r3, #1
 889 0048 6362     		str	r3, [r4, #36]
 890 004a 002B     		cmp	r3, #0
 891 004c 00D1     		bne	.L41
 248:Source\azure_iot_sdk\c-utility\src/sha224.c ****             (context->Message_Block_Index == SHA256_Message_Block_Size))
 892              		.loc 1 248 0
 893 004e 0122     		movs	r2, #1
 894              	.L41:
 248:Source\azure_iot_sdk\c-utility\src/sha224.c ****             (context->Message_Block_Index == SHA256_Message_Block_Size))
 895              		.loc 1 248 0 discriminator 6
 896 0050 2267     		str	r2, [r4, #112]
 897 0052 002A     		cmp	r2, #0
 898 0054 06D1     		bne	.L42
 249:Source\azure_iot_sdk\c-utility\src/sha224.c ****             SHA224_256ProcessMessageBlock(context);
 899              		.loc 1 249 0 is_stmt 1 discriminator 7
 900 0056 2822     		movs	r2, #40
 901 0058 A35E     		ldrsh	r3, [r4, r2]
 248:Source\azure_iot_sdk\c-utility\src/sha224.c ****             (context->Message_Block_Index == SHA256_Message_Block_Size))
 902              		.loc 1 248 0 discriminator 7
 903 005a 402B     		cmp	r3, #64
 904 005c 02D1     		bne	.L42
 250:Source\azure_iot_sdk\c-utility\src/sha224.c **** 
 905              		.loc 1 250 0
 906 005e 2000     		movs	r0, r4
 907 0060 FFF7FEFF 		bl	SHA224_256ProcessMessageBlock
 908              	.LVL82:
 909              	.L42:
 252:Source\azure_iot_sdk\c-utility\src/sha224.c ****     }
 910              		.loc 1 252 0
 911 0064 0136     		adds	r6, r6, #1
 912              	.LVL83:
 244:Source\azure_iot_sdk\c-utility\src/sha224.c ****         context->Message_Block[context->Message_Block_Index++] =
 913              		.loc 1 244 0
ARM GAS  C:\Users\Phuong\AppData\Local\Temp\ccqJesaa.s 			page 29


 914 0066 3A00     		movs	r2, r7
 915              	.LVL84:
 916              	.L40:
 917 0068 571E     		subs	r7, r2, #1
 918              	.LVL85:
 919 006a 002A     		cmp	r2, #0
 920 006c 08D0     		beq	.L38
 244:Source\azure_iot_sdk\c-utility\src/sha224.c ****         context->Message_Block[context->Message_Block_Index++] =
 921              		.loc 1 244 0 is_stmt 0 discriminator 1
 922 006e 226F     		ldr	r2, [r4, #112]
 923 0070 002A     		cmp	r2, #0
 924 0072 D9D0     		beq	.L43
 925 0074 04E0     		b	.L38
 926              	.LVL86:
 927              	.L44:
 231:Source\azure_iot_sdk\c-utility\src/sha224.c **** 
 928              		.loc 1 231 0 is_stmt 1
 929 0076 0025     		movs	r5, #0
 930 0078 02E0     		b	.L38
 931              	.L45:
 234:Source\azure_iot_sdk\c-utility\src/sha224.c **** 
 932              		.loc 1 234 0
 933 007a 0125     		movs	r5, #1
 934 007c 00E0     		b	.L38
 935              	.L46:
 936 007e 0125     		movs	r5, #1
 937              	.LVL87:
 938              	.L38:
 257:Source\azure_iot_sdk\c-utility\src/sha224.c **** 
 939              		.loc 1 257 0
 940 0080 2800     		movs	r0, r5
 941              		@ sp needed
 942              	.LVL88:
 943              	.LVL89:
 944 0082 F8BD     		pop	{r3, r4, r5, r6, r7, pc}
 945              		.cfi_endproc
 946              	.LFE5:
 947              		.size	SHA256Input, .-SHA256Input
 948              		.section	.text.SHA224Input,"ax",%progbits
 949              		.align	2
 950              		.global	SHA224Input
 951              		.code	16
 952              		.thumb_func
 953              		.type	SHA224Input, %function
 954              	SHA224Input:
 955              	.LFB1:
 135:Source\azure_iot_sdk\c-utility\src/sha224.c ****     return SHA256Input(context, message_array, length);
 956              		.loc 1 135 0
 957              		.cfi_startproc
 958              		@ args = 0, pretend = 0, frame = 0
 959              		@ frame_needed = 0, uses_anonymous_args = 0
 960              	.LVL90:
 961 0000 10B5     		push	{r4, lr}
 962              		.cfi_def_cfa_offset 8
 963              		.cfi_offset 4, -8
 964              		.cfi_offset 14, -4
 136:Source\azure_iot_sdk\c-utility\src/sha224.c **** }
ARM GAS  C:\Users\Phuong\AppData\Local\Temp\ccqJesaa.s 			page 30


 965              		.loc 1 136 0
 966 0002 FFF7FEFF 		bl	SHA256Input
 967              	.LVL91:
 137:Source\azure_iot_sdk\c-utility\src/sha224.c **** 
 968              		.loc 1 137 0
 969              		@ sp needed
 970 0006 10BD     		pop	{r4, pc}
 971              		.cfi_endproc
 972              	.LFE1:
 973              		.size	SHA224Input, .-SHA224Input
 974              		.section	.text.SHA256FinalBits,"ax",%progbits
 975              		.align	2
 976              		.global	SHA256FinalBits
 977              		.code	16
 978              		.thumb_func
 979              		.type	SHA256FinalBits, %function
 980              	SHA256FinalBits:
 981              	.LFB6:
 280:Source\azure_iot_sdk\c-utility\src/sha224.c ****     uint32_t addTemp;
 982              		.loc 1 280 0
 983              		.cfi_startproc
 984              		@ args = 0, pretend = 0, frame = 16
 985              		@ frame_needed = 0, uses_anonymous_args = 0
 986              	.LVL92:
 987 0000 F0B5     		push	{r4, r5, r6, r7, lr}
 988              		.cfi_def_cfa_offset 20
 989              		.cfi_offset 4, -20
 990              		.cfi_offset 5, -16
 991              		.cfi_offset 6, -12
 992              		.cfi_offset 7, -8
 993              		.cfi_offset 14, -4
 994 0002 85B0     		sub	sp, sp, #20
 995              		.cfi_def_cfa_offset 40
 996 0004 0500     		movs	r5, r0
 997 0006 0E00     		movs	r6, r1
 998 0008 1700     		movs	r7, r2
 282:Source\azure_iot_sdk\c-utility\src/sha224.c ****         /* 0 0b00000000 */ 0x00, /* 1 0b10000000 */ 0x80,
 999              		.loc 1 282 0
 1000 000a 1F4C     		ldr	r4, .L57
 1001 000c 0822     		movs	r2, #8
 1002              	.LVL93:
 1003 000e 2100     		movs	r1, r4
 1004              	.LVL94:
 1005 0010 02A8     		add	r0, sp, #8
 1006              	.LVL95:
 1007 0012 FFF7FEFF 		bl	memcpy
 1008              	.LVL96:
 289:Source\azure_iot_sdk\c-utility\src/sha224.c ****         /* 0 0b10000000 */ 0x80, /* 1 0b01000000 */ 0x40,
 1009              		.loc 1 289 0
 1010 0016 2100     		movs	r1, r4
 1011 0018 0831     		adds	r1, r1, #8
 1012 001a 0822     		movs	r2, #8
 1013 001c 6846     		mov	r0, sp
 1014 001e FFF7FEFF 		bl	memcpy
 1015              	.LVL97:
 296:Source\azure_iot_sdk\c-utility\src/sha224.c ****         return shaSuccess;
 1016              		.loc 1 296 0
ARM GAS  C:\Users\Phuong\AppData\Local\Temp\ccqJesaa.s 			page 31


 1017 0022 002F     		cmp	r7, #0
 1018 0024 2AD0     		beq	.L53
 299:Source\azure_iot_sdk\c-utility\src/sha224.c ****         return shaNull;
 1019              		.loc 1 299 0
 1020 0026 002D     		cmp	r5, #0
 1021 0028 2AD0     		beq	.L54
 302:Source\azure_iot_sdk\c-utility\src/sha224.c ****         context->Corrupted = shaStateError;
 1022              		.loc 1 302 0
 1023 002a EB6E     		ldr	r3, [r5, #108]
 1024 002c 002B     		cmp	r3, #0
 1025 002e 03D1     		bne	.L50
 302:Source\azure_iot_sdk\c-utility\src/sha224.c ****         context->Corrupted = shaStateError;
 1026              		.loc 1 302 0 is_stmt 0 discriminator 1
 1027 0030 072F     		cmp	r7, #7
 1028 0032 01D8     		bhi	.L50
 302:Source\azure_iot_sdk\c-utility\src/sha224.c ****         context->Corrupted = shaStateError;
 1029              		.loc 1 302 0 discriminator 2
 1030 0034 002F     		cmp	r7, #0
 1031 0036 03D1     		bne	.L51
 1032              	.L50:
 303:Source\azure_iot_sdk\c-utility\src/sha224.c ****         return shaStateError;
 1033              		.loc 1 303 0 is_stmt 1
 1034 0038 0323     		movs	r3, #3
 1035 003a 2B67     		str	r3, [r5, #112]
 304:Source\azure_iot_sdk\c-utility\src/sha224.c ****     }
 1036              		.loc 1 304 0
 1037 003c 0324     		movs	r4, #3
 1038 003e 20E0     		b	.L49
 1039              	.L51:
 307:Source\azure_iot_sdk\c-utility\src/sha224.c ****         return context->Corrupted;
 1040              		.loc 1 307 0
 1041 0040 2C6F     		ldr	r4, [r5, #112]
 1042 0042 002C     		cmp	r4, #0
 1043 0044 1DD1     		bne	.L49
 310:Source\azure_iot_sdk\c-utility\src/sha224.c ****     SHA224_256Finalize(context, (uint8_t)
 1044              		.loc 1 310 0
 1045 0046 2A6A     		ldr	r2, [r5, #32]
 1046              	.LVL98:
 1047 0048 BB18     		adds	r3, r7, r2
 1048 004a 2B62     		str	r3, [r5, #32]
 1049 004c 9A42     		cmp	r2, r3
 1050 004e 06D9     		bls	.L55
 310:Source\azure_iot_sdk\c-utility\src/sha224.c ****     SHA224_256Finalize(context, (uint8_t)
 1051              		.loc 1 310 0 is_stmt 0 discriminator 1
 1052 0050 6B6A     		ldr	r3, [r5, #36]
 1053 0052 0133     		adds	r3, r3, #1
 1054 0054 6B62     		str	r3, [r5, #36]
 1055 0056 002B     		cmp	r3, #0
 1056 0058 03D1     		bne	.L56
 310:Source\azure_iot_sdk\c-utility\src/sha224.c ****     SHA224_256Finalize(context, (uint8_t)
 1057              		.loc 1 310 0
 1058 005a 0133     		adds	r3, r3, #1
 1059 005c 02E0     		b	.L52
 1060              	.L55:
 1061 005e 2300     		movs	r3, r4
 1062 0060 00E0     		b	.L52
 1063              	.L56:
ARM GAS  C:\Users\Phuong\AppData\Local\Temp\ccqJesaa.s 			page 32


 1064 0062 2300     		movs	r3, r4
 1065              	.L52:
 310:Source\azure_iot_sdk\c-utility\src/sha224.c ****     SHA224_256Finalize(context, (uint8_t)
 1066              		.loc 1 310 0 discriminator 6
 1067 0064 2B67     		str	r3, [r5, #112]
 312:Source\azure_iot_sdk\c-utility\src/sha224.c **** 
 1068              		.loc 1 312 0 is_stmt 1 discriminator 6
 1069 0066 02AB     		add	r3, sp, #8
 1070 0068 D95D     		ldrb	r1, [r3, r7]
 1071 006a 6B46     		mov	r3, sp
 1072 006c DB5D     		ldrb	r3, [r3, r7]
 311:Source\azure_iot_sdk\c-utility\src/sha224.c ****         ((message_bits & masks[length]) | markbit[length]));
 1073              		.loc 1 311 0 discriminator 6
 1074 006e 0E40     		ands	r6, r1
 1075 0070 3343     		orrs	r3, r6
 1076 0072 1900     		movs	r1, r3
 1077 0074 2800     		movs	r0, r5
 1078 0076 FFF7FEFF 		bl	SHA224_256Finalize
 1079              	.LVL99:
 314:Source\azure_iot_sdk\c-utility\src/sha224.c **** }
 1080              		.loc 1 314 0 discriminator 6
 1081 007a 02E0     		b	.L49
 1082              	.L53:
 297:Source\azure_iot_sdk\c-utility\src/sha224.c **** 
 1083              		.loc 1 297 0
 1084 007c 0024     		movs	r4, #0
 1085 007e 00E0     		b	.L49
 1086              	.L54:
 300:Source\azure_iot_sdk\c-utility\src/sha224.c **** 
 1087              		.loc 1 300 0
 1088 0080 0124     		movs	r4, #1
 1089              	.L49:
 315:Source\azure_iot_sdk\c-utility\src/sha224.c **** 
 1090              		.loc 1 315 0
 1091 0082 2000     		movs	r0, r4
 1092 0084 05B0     		add	sp, sp, #20
 1093              		@ sp needed
 1094              	.LVL100:
 1095              	.LVL101:
 1096 0086 F0BD     		pop	{r4, r5, r6, r7, pc}
 1097              	.L58:
 1098              		.align	2
 1099              	.L57:
 1100 0088 00010000 		.word	.LANCHOR2
 1101              		.cfi_endproc
 1102              	.LFE6:
 1103              		.size	SHA256FinalBits, .-SHA256FinalBits
 1104              		.section	.text.SHA224FinalBits,"ax",%progbits
 1105              		.align	2
 1106              		.global	SHA224FinalBits
 1107              		.code	16
 1108              		.thumb_func
 1109              		.type	SHA224FinalBits, %function
 1110              	SHA224FinalBits:
 1111              	.LFB2:
 160:Source\azure_iot_sdk\c-utility\src/sha224.c ****     return SHA256FinalBits(context, message_bits, length);
 1112              		.loc 1 160 0
ARM GAS  C:\Users\Phuong\AppData\Local\Temp\ccqJesaa.s 			page 33


 1113              		.cfi_startproc
 1114              		@ args = 0, pretend = 0, frame = 0
 1115              		@ frame_needed = 0, uses_anonymous_args = 0
 1116              	.LVL102:
 1117 0000 10B5     		push	{r4, lr}
 1118              		.cfi_def_cfa_offset 8
 1119              		.cfi_offset 4, -8
 1120              		.cfi_offset 14, -4
 161:Source\azure_iot_sdk\c-utility\src/sha224.c **** }
 1121              		.loc 1 161 0
 1122 0002 FFF7FEFF 		bl	SHA256FinalBits
 1123              	.LVL103:
 162:Source\azure_iot_sdk\c-utility\src/sha224.c **** 
 1124              		.loc 1 162 0
 1125              		@ sp needed
 1126 0006 10BD     		pop	{r4, pc}
 1127              		.cfi_endproc
 1128              	.LFE2:
 1129              		.size	SHA224FinalBits, .-SHA224FinalBits
 1130              		.section	.text.SHA256Result,"ax",%progbits
 1131              		.align	2
 1132              		.global	SHA256Result
 1133              		.code	16
 1134              		.thumb_func
 1135              		.type	SHA256Result, %function
 1136              	SHA256Result:
 1137              	.LFB7:
 336:Source\azure_iot_sdk\c-utility\src/sha224.c ****         return SHA224_256ResultN(context, Message_Digest, SHA256HashSize);
 1138              		.loc 1 336 0
 1139              		.cfi_startproc
 1140              		@ args = 0, pretend = 0, frame = 0
 1141              		@ frame_needed = 0, uses_anonymous_args = 0
 1142              	.LVL104:
 1143 0000 10B5     		push	{r4, lr}
 1144              		.cfi_def_cfa_offset 8
 1145              		.cfi_offset 4, -8
 1146              		.cfi_offset 14, -4
 337:Source\azure_iot_sdk\c-utility\src/sha224.c **** }
 1147              		.loc 1 337 0
 1148 0002 2022     		movs	r2, #32
 1149 0004 FFF7FEFF 		bl	SHA224_256ResultN
 1150              	.LVL105:
 338:Source\azure_iot_sdk\c-utility\src/sha224.c **** 
 1151              		.loc 1 338 0
 1152              		@ sp needed
 1153 0008 10BD     		pop	{r4, pc}
 1154              		.cfi_endproc
 1155              	.LFE7:
 1156              		.size	SHA256Result, .-SHA256Result
 1157 000a C046     		.section	.rodata
 1158              		.align	2
 1159              		.set	.LANCHOR0,. + 0
 1160              		.set	.LANCHOR2,. + 256
 1161              		.type	K.5235, %object
 1162              		.size	K.5235, 256
 1163              	K.5235:
 1164 0000 982F8A42 		.word	1116352408
ARM GAS  C:\Users\Phuong\AppData\Local\Temp\ccqJesaa.s 			page 34


 1165 0004 91443771 		.word	1899447441
 1166 0008 CFFBC0B5 		.word	-1245643825
 1167 000c A5DBB5E9 		.word	-373957723
 1168 0010 5BC25639 		.word	961987163
 1169 0014 F111F159 		.word	1508970993
 1170 0018 A4823F92 		.word	-1841331548
 1171 001c D55E1CAB 		.word	-1424204075
 1172 0020 98AA07D8 		.word	-670586216
 1173 0024 015B8312 		.word	310598401
 1174 0028 BE853124 		.word	607225278
 1175 002c C37D0C55 		.word	1426881987
 1176 0030 745DBE72 		.word	1925078388
 1177 0034 FEB1DE80 		.word	-2132889090
 1178 0038 A706DC9B 		.word	-1680079193
 1179 003c 74F19BC1 		.word	-1046744716
 1180 0040 C1699BE4 		.word	-459576895
 1181 0044 8647BEEF 		.word	-272742522
 1182 0048 C69DC10F 		.word	264347078
 1183 004c CCA10C24 		.word	604807628
 1184 0050 6F2CE92D 		.word	770255983
 1185 0054 AA84744A 		.word	1249150122
 1186 0058 DCA9B05C 		.word	1555081692
 1187 005c DA88F976 		.word	1996064986
 1188 0060 52513E98 		.word	-1740746414
 1189 0064 6DC631A8 		.word	-1473132947
 1190 0068 C82703B0 		.word	-1341970488
 1191 006c C77F59BF 		.word	-1084653625
 1192 0070 F30BE0C6 		.word	-958395405
 1193 0074 4791A7D5 		.word	-710438585
 1194 0078 5163CA06 		.word	113926993
 1195 007c 67292914 		.word	338241895
 1196 0080 850AB727 		.word	666307205
 1197 0084 38211B2E 		.word	773529912
 1198 0088 FC6D2C4D 		.word	1294757372
 1199 008c 130D3853 		.word	1396182291
 1200 0090 54730A65 		.word	1695183700
 1201 0094 BB0A6A76 		.word	1986661051
 1202 0098 2EC9C281 		.word	-2117940946
 1203 009c 852C7292 		.word	-1838011259
 1204 00a0 A1E8BFA2 		.word	-1564481375
 1205 00a4 4B661AA8 		.word	-1474664885
 1206 00a8 708B4BC2 		.word	-1035236496
 1207 00ac A3516CC7 		.word	-949202525
 1208 00b0 19E892D1 		.word	-778901479
 1209 00b4 240699D6 		.word	-694614492
 1210 00b8 85350EF4 		.word	-200395387
 1211 00bc 70A06A10 		.word	275423344
 1212 00c0 16C1A419 		.word	430227734
 1213 00c4 086C371E 		.word	506948616
 1214 00c8 4C774827 		.word	659060556
 1215 00cc B5BCB034 		.word	883997877
 1216 00d0 B30C1C39 		.word	958139571
 1217 00d4 4AAAD84E 		.word	1322822218
 1218 00d8 4FCA9C5B 		.word	1537002063
 1219 00dc F36F2E68 		.word	1747873779
 1220 00e0 EE828F74 		.word	1955562222
 1221 00e4 6F63A578 		.word	2024104815
ARM GAS  C:\Users\Phuong\AppData\Local\Temp\ccqJesaa.s 			page 35


 1222 00e8 1478C884 		.word	-2067236844
 1223 00ec 0802C78C 		.word	-1933114872
 1224 00f0 FAFFBE90 		.word	-1866530822
 1225 00f4 EB6C50A4 		.word	-1538233109
 1226 00f8 F7A3F9BE 		.word	-1090935817
 1227 00fc F27871C6 		.word	-965641998
 1228              	.LC0:
 1229 0100 00       		.byte	0
 1230 0101 80       		.byte	-128
 1231 0102 C0       		.byte	-64
 1232 0103 E0       		.byte	-32
 1233 0104 F0       		.byte	-16
 1234 0105 F8       		.byte	-8
 1235 0106 FC       		.byte	-4
 1236 0107 FE       		.byte	-2
 1237              	.LC1:
 1238 0108 80       		.byte	-128
 1239 0109 40       		.byte	64
 1240 010a 20       		.byte	32
 1241 010b 10       		.byte	16
 1242 010c 08       		.byte	8
 1243 010d 04       		.byte	4
 1244 010e 02       		.byte	2
 1245 010f 01       		.byte	1
 1246              		.data
 1247              		.align	2
 1248              		.set	.LANCHOR1,. + 0
 1249              		.type	SHA224_H0, %object
 1250              		.size	SHA224_H0, 32
 1251              	SHA224_H0:
 1252 0000 D89E05C1 		.word	-1056596264
 1253 0004 07D57C36 		.word	914150663
 1254 0008 17DD7030 		.word	812702999
 1255 000c 39590EF7 		.word	-150054599
 1256 0010 310BC0FF 		.word	-4191439
 1257 0014 11155868 		.word	1750603025
 1258 0018 A78FF964 		.word	1694076839
 1259 001c A44FFABE 		.word	-1090891868
 1260              		.type	SHA256_H0, %object
 1261              		.size	SHA256_H0, 32
 1262              	SHA256_H0:
 1263 0020 67E6096A 		.word	1779033703
 1264 0024 85AE67BB 		.word	-1150833019
 1265 0028 72F36E3C 		.word	1013904242
 1266 002c 3AF54FA5 		.word	-1521486534
 1267 0030 7F520E51 		.word	1359893119
 1268 0034 8C68059B 		.word	-1694144372
 1269 0038 ABD9831F 		.word	528734635
 1270 003c 19CDE05B 		.word	1541459225
 1271              		.text
 1272              	.Letext0:
 1273              		.file 2 "c:\\program files (x86)\\cypress\\psoc creator\\4.2\\psoc creator\\import\\gnu\\arm\\5.4.
 1274              		.file 3 "c:\\program files (x86)\\cypress\\psoc creator\\4.2\\psoc creator\\import\\gnu\\arm\\5.4.
 1275              		.file 4 "c:\\program files (x86)\\cypress\\psoc creator\\4.2\\psoc creator\\import\\gnu\\arm\\5.4.
 1276              		.file 5 ".\\Source\\azure_iot_sdk\\c-utility\\inc/azure_c_shared_utility/sha.h"