ARM GAS  C:\Users\Phuong\AppData\Local\Temp\ccuEFeTd.s 			page 1


   1              		.syntax unified
   2              		.cpu cortex-m0plus
   3              		.fpu softvfp
   4              		.eabi_attribute 20, 1
   5              		.eabi_attribute 21, 1
   6              		.eabi_attribute 23, 3
   7              		.eabi_attribute 24, 1
   8              		.eabi_attribute 25, 1
   9              		.eabi_attribute 26, 1
  10              		.eabi_attribute 30, 1
  11              		.eabi_attribute 34, 0
  12              		.eabi_attribute 18, 4
  13              		.thumb
  14              		.syntax unified
  15              		.file	"sha256.c"
  16              		.text
  17              	.Ltext0:
  18              		.cfi_sections	.debug_frame
  19              		.section	.text.mbedtls_sha256_init,"ax",%progbits
  20              		.align	2
  21              		.global	mbedtls_sha256_init
  22              		.code	16
  23              		.thumb_func
  24              		.type	mbedtls_sha256_init, %function
  25              	mbedtls_sha256_init:
  26              	.LFB1:
  27              		.file 1 "Source\\mbedtls_open\\library\\sha256.c"
   1:Source\mbedtls_open\library/sha256.c **** /*
   2:Source\mbedtls_open\library/sha256.c ****  *  FIPS-180-2 compliant SHA-256 implementation
   3:Source\mbedtls_open\library/sha256.c ****  *
   4:Source\mbedtls_open\library/sha256.c ****  *  Copyright (C) 2006-2015, ARM Limited, All Rights Reserved
   5:Source\mbedtls_open\library/sha256.c ****  *  SPDX-License-Identifier: Apache-2.0
   6:Source\mbedtls_open\library/sha256.c ****  *
   7:Source\mbedtls_open\library/sha256.c ****  *  Licensed under the Apache License, Version 2.0 (the "License"); you may
   8:Source\mbedtls_open\library/sha256.c ****  *  not use this file except in compliance with the License.
   9:Source\mbedtls_open\library/sha256.c ****  *  You may obtain a copy of the License at
  10:Source\mbedtls_open\library/sha256.c ****  *
  11:Source\mbedtls_open\library/sha256.c ****  *  http://www.apache.org/licenses/LICENSE-2.0
  12:Source\mbedtls_open\library/sha256.c ****  *
  13:Source\mbedtls_open\library/sha256.c ****  *  Unless required by applicable law or agreed to in writing, software
  14:Source\mbedtls_open\library/sha256.c ****  *  distributed under the License is distributed on an "AS IS" BASIS, WITHOUT
  15:Source\mbedtls_open\library/sha256.c ****  *  WARRANTIES OR CONDITIONS OF ANY KIND, either express or implied.
  16:Source\mbedtls_open\library/sha256.c ****  *  See the License for the specific language governing permissions and
  17:Source\mbedtls_open\library/sha256.c ****  *  limitations under the License.
  18:Source\mbedtls_open\library/sha256.c ****  *
  19:Source\mbedtls_open\library/sha256.c ****  *  This file is part of mbed TLS (https://tls.mbed.org)
  20:Source\mbedtls_open\library/sha256.c ****  */
  21:Source\mbedtls_open\library/sha256.c **** /*
  22:Source\mbedtls_open\library/sha256.c ****  *  The SHA-256 Secure Hash Standard was published by NIST in 2002.
  23:Source\mbedtls_open\library/sha256.c ****  *
  24:Source\mbedtls_open\library/sha256.c ****  *  http://csrc.nist.gov/publications/fips/fips180-2/fips180-2.pdf
  25:Source\mbedtls_open\library/sha256.c ****  */
  26:Source\mbedtls_open\library/sha256.c **** 
  27:Source\mbedtls_open\library/sha256.c **** #if !defined(MBEDTLS_CONFIG_FILE)
  28:Source\mbedtls_open\library/sha256.c **** #include "mbedtls/config.h"
  29:Source\mbedtls_open\library/sha256.c **** #else
  30:Source\mbedtls_open\library/sha256.c **** #include MBEDTLS_CONFIG_FILE
ARM GAS  C:\Users\Phuong\AppData\Local\Temp\ccuEFeTd.s 			page 2


  31:Source\mbedtls_open\library/sha256.c **** #endif
  32:Source\mbedtls_open\library/sha256.c **** 
  33:Source\mbedtls_open\library/sha256.c **** #if defined(MBEDTLS_SHA256_C)
  34:Source\mbedtls_open\library/sha256.c **** 
  35:Source\mbedtls_open\library/sha256.c **** #include "mbedtls/sha256.h"
  36:Source\mbedtls_open\library/sha256.c **** #include "mbedtls/platform_util.h"
  37:Source\mbedtls_open\library/sha256.c **** 
  38:Source\mbedtls_open\library/sha256.c **** #include <string.h>
  39:Source\mbedtls_open\library/sha256.c **** 
  40:Source\mbedtls_open\library/sha256.c **** #if defined(MBEDTLS_SELF_TEST)
  41:Source\mbedtls_open\library/sha256.c **** #if defined(MBEDTLS_PLATFORM_C)
  42:Source\mbedtls_open\library/sha256.c **** #include "mbedtls/platform.h"
  43:Source\mbedtls_open\library/sha256.c **** #else
  44:Source\mbedtls_open\library/sha256.c **** #include <stdio.h>
  45:Source\mbedtls_open\library/sha256.c **** #include <stdlib.h>
  46:Source\mbedtls_open\library/sha256.c **** #define mbedtls_printf printf
  47:Source\mbedtls_open\library/sha256.c **** #define mbedtls_calloc    calloc
  48:Source\mbedtls_open\library/sha256.c **** #define mbedtls_free       free
  49:Source\mbedtls_open\library/sha256.c **** #endif /* MBEDTLS_PLATFORM_C */
  50:Source\mbedtls_open\library/sha256.c **** #endif /* MBEDTLS_SELF_TEST */
  51:Source\mbedtls_open\library/sha256.c **** 
  52:Source\mbedtls_open\library/sha256.c **** #if !defined(MBEDTLS_SHA256_ALT)
  53:Source\mbedtls_open\library/sha256.c **** 
  54:Source\mbedtls_open\library/sha256.c **** /*
  55:Source\mbedtls_open\library/sha256.c ****  * 32-bit integer manipulation macros (big endian)
  56:Source\mbedtls_open\library/sha256.c ****  */
  57:Source\mbedtls_open\library/sha256.c **** #ifndef GET_UINT32_BE
  58:Source\mbedtls_open\library/sha256.c **** #define GET_UINT32_BE(n,b,i)                            \
  59:Source\mbedtls_open\library/sha256.c **** do {                                                    \
  60:Source\mbedtls_open\library/sha256.c ****     (n) = ( (uint32_t) (b)[(i)    ] << 24 )             \
  61:Source\mbedtls_open\library/sha256.c ****         | ( (uint32_t) (b)[(i) + 1] << 16 )             \
  62:Source\mbedtls_open\library/sha256.c ****         | ( (uint32_t) (b)[(i) + 2] <<  8 )             \
  63:Source\mbedtls_open\library/sha256.c ****         | ( (uint32_t) (b)[(i) + 3]       );            \
  64:Source\mbedtls_open\library/sha256.c **** } while( 0 )
  65:Source\mbedtls_open\library/sha256.c **** #endif
  66:Source\mbedtls_open\library/sha256.c **** 
  67:Source\mbedtls_open\library/sha256.c **** #ifndef PUT_UINT32_BE
  68:Source\mbedtls_open\library/sha256.c **** #define PUT_UINT32_BE(n,b,i)                            \
  69:Source\mbedtls_open\library/sha256.c **** do {                                                    \
  70:Source\mbedtls_open\library/sha256.c ****     (b)[(i)    ] = (unsigned char) ( (n) >> 24 );       \
  71:Source\mbedtls_open\library/sha256.c ****     (b)[(i) + 1] = (unsigned char) ( (n) >> 16 );       \
  72:Source\mbedtls_open\library/sha256.c ****     (b)[(i) + 2] = (unsigned char) ( (n) >>  8 );       \
  73:Source\mbedtls_open\library/sha256.c ****     (b)[(i) + 3] = (unsigned char) ( (n)       );       \
  74:Source\mbedtls_open\library/sha256.c **** } while( 0 )
  75:Source\mbedtls_open\library/sha256.c **** #endif
  76:Source\mbedtls_open\library/sha256.c **** 
  77:Source\mbedtls_open\library/sha256.c **** void mbedtls_sha256_init( mbedtls_sha256_context *ctx )
  78:Source\mbedtls_open\library/sha256.c **** {
  28              		.loc 1 78 0
  29              		.cfi_startproc
  30              		@ args = 0, pretend = 0, frame = 0
  31              		@ frame_needed = 0, uses_anonymous_args = 0
  32              	.LVL0:
  33 0000 10B5     		push	{r4, lr}
  34              		.cfi_def_cfa_offset 8
  35              		.cfi_offset 4, -8
  36              		.cfi_offset 14, -4
ARM GAS  C:\Users\Phuong\AppData\Local\Temp\ccuEFeTd.s 			page 3


  79:Source\mbedtls_open\library/sha256.c ****     memset( ctx, 0, sizeof( mbedtls_sha256_context ) );
  37              		.loc 1 79 0
  38 0002 6C22     		movs	r2, #108
  39 0004 0021     		movs	r1, #0
  40 0006 FFF7FEFF 		bl	memset
  41              	.LVL1:
  80:Source\mbedtls_open\library/sha256.c **** }
  42              		.loc 1 80 0
  43              		@ sp needed
  44 000a 10BD     		pop	{r4, pc}
  45              		.cfi_endproc
  46              	.LFE1:
  47              		.size	mbedtls_sha256_init, .-mbedtls_sha256_init
  48              		.section	.text.mbedtls_sha256_free,"ax",%progbits
  49              		.align	2
  50              		.global	mbedtls_sha256_free
  51              		.code	16
  52              		.thumb_func
  53              		.type	mbedtls_sha256_free, %function
  54              	mbedtls_sha256_free:
  55              	.LFB2:
  81:Source\mbedtls_open\library/sha256.c **** 
  82:Source\mbedtls_open\library/sha256.c **** void mbedtls_sha256_free( mbedtls_sha256_context *ctx )
  83:Source\mbedtls_open\library/sha256.c **** {
  56              		.loc 1 83 0
  57              		.cfi_startproc
  58              		@ args = 0, pretend = 0, frame = 0
  59              		@ frame_needed = 0, uses_anonymous_args = 0
  60              	.LVL2:
  61 0000 10B5     		push	{r4, lr}
  62              		.cfi_def_cfa_offset 8
  63              		.cfi_offset 4, -8
  64              		.cfi_offset 14, -4
  84:Source\mbedtls_open\library/sha256.c ****     if( ctx == NULL )
  65              		.loc 1 84 0
  66 0002 0028     		cmp	r0, #0
  67 0004 02D0     		beq	.L2
  85:Source\mbedtls_open\library/sha256.c ****         return;
  86:Source\mbedtls_open\library/sha256.c **** 
  87:Source\mbedtls_open\library/sha256.c ****     mbedtls_platform_zeroize( ctx, sizeof( mbedtls_sha256_context ) );
  68              		.loc 1 87 0
  69 0006 6C21     		movs	r1, #108
  70 0008 FFF7FEFF 		bl	mbedtls_platform_zeroize
  71              	.LVL3:
  72              	.L2:
  88:Source\mbedtls_open\library/sha256.c **** }
  73              		.loc 1 88 0
  74              		@ sp needed
  75 000c 10BD     		pop	{r4, pc}
  76              		.cfi_endproc
  77              	.LFE2:
  78              		.size	mbedtls_sha256_free, .-mbedtls_sha256_free
  79 000e C046     		.section	.text.mbedtls_sha256_clone,"ax",%progbits
  80              		.align	2
  81              		.global	mbedtls_sha256_clone
  82              		.code	16
  83              		.thumb_func
ARM GAS  C:\Users\Phuong\AppData\Local\Temp\ccuEFeTd.s 			page 4


  84              		.type	mbedtls_sha256_clone, %function
  85              	mbedtls_sha256_clone:
  86              	.LFB3:
  89:Source\mbedtls_open\library/sha256.c **** 
  90:Source\mbedtls_open\library/sha256.c **** void mbedtls_sha256_clone( mbedtls_sha256_context *dst,
  91:Source\mbedtls_open\library/sha256.c ****                            const mbedtls_sha256_context *src )
  92:Source\mbedtls_open\library/sha256.c **** {
  87              		.loc 1 92 0
  88              		.cfi_startproc
  89              		@ args = 0, pretend = 0, frame = 0
  90              		@ frame_needed = 0, uses_anonymous_args = 0
  91              	.LVL4:
  92 0000 10B5     		push	{r4, lr}
  93              		.cfi_def_cfa_offset 8
  94              		.cfi_offset 4, -8
  95              		.cfi_offset 14, -4
  93:Source\mbedtls_open\library/sha256.c ****     *dst = *src;
  96              		.loc 1 93 0
  97 0002 6C22     		movs	r2, #108
  98 0004 FFF7FEFF 		bl	memcpy
  99              	.LVL5:
  94:Source\mbedtls_open\library/sha256.c **** }
 100              		.loc 1 94 0
 101              		@ sp needed
 102 0008 10BD     		pop	{r4, pc}
 103              		.cfi_endproc
 104              	.LFE3:
 105              		.size	mbedtls_sha256_clone, .-mbedtls_sha256_clone
 106 000a C046     		.section	.text.mbedtls_sha256_starts_ret,"ax",%progbits
 107              		.align	2
 108              		.global	mbedtls_sha256_starts_ret
 109              		.code	16
 110              		.thumb_func
 111              		.type	mbedtls_sha256_starts_ret, %function
 112              	mbedtls_sha256_starts_ret:
 113              	.LFB4:
  95:Source\mbedtls_open\library/sha256.c **** 
  96:Source\mbedtls_open\library/sha256.c **** /*
  97:Source\mbedtls_open\library/sha256.c ****  * SHA-256 context setup
  98:Source\mbedtls_open\library/sha256.c ****  */
  99:Source\mbedtls_open\library/sha256.c **** int mbedtls_sha256_starts_ret( mbedtls_sha256_context *ctx, int is224 )
 100:Source\mbedtls_open\library/sha256.c **** {
 114              		.loc 1 100 0
 115              		.cfi_startproc
 116              		@ args = 0, pretend = 0, frame = 0
 117              		@ frame_needed = 0, uses_anonymous_args = 0
 118              		@ link register save eliminated.
 119              	.LVL6:
 101:Source\mbedtls_open\library/sha256.c ****     ctx->total[0] = 0;
 120              		.loc 1 101 0
 121 0000 0023     		movs	r3, #0
 122 0002 0360     		str	r3, [r0]
 102:Source\mbedtls_open\library/sha256.c ****     ctx->total[1] = 0;
 123              		.loc 1 102 0
 124 0004 4360     		str	r3, [r0, #4]
 103:Source\mbedtls_open\library/sha256.c **** 
 104:Source\mbedtls_open\library/sha256.c ****     if( is224 == 0 )
ARM GAS  C:\Users\Phuong\AppData\Local\Temp\ccuEFeTd.s 			page 5


 125              		.loc 1 104 0
 126 0006 0029     		cmp	r1, #0
 127 0008 10D1     		bne	.L6
 105:Source\mbedtls_open\library/sha256.c ****     {
 106:Source\mbedtls_open\library/sha256.c ****         /* SHA-256 */
 107:Source\mbedtls_open\library/sha256.c ****         ctx->state[0] = 0x6A09E667;
 128              		.loc 1 107 0
 129 000a 124B     		ldr	r3, .L8
 130 000c 8360     		str	r3, [r0, #8]
 108:Source\mbedtls_open\library/sha256.c ****         ctx->state[1] = 0xBB67AE85;
 131              		.loc 1 108 0
 132 000e 124B     		ldr	r3, .L8+4
 133 0010 C360     		str	r3, [r0, #12]
 109:Source\mbedtls_open\library/sha256.c ****         ctx->state[2] = 0x3C6EF372;
 134              		.loc 1 109 0
 135 0012 124B     		ldr	r3, .L8+8
 136 0014 0361     		str	r3, [r0, #16]
 110:Source\mbedtls_open\library/sha256.c ****         ctx->state[3] = 0xA54FF53A;
 137              		.loc 1 110 0
 138 0016 124B     		ldr	r3, .L8+12
 139 0018 4361     		str	r3, [r0, #20]
 111:Source\mbedtls_open\library/sha256.c ****         ctx->state[4] = 0x510E527F;
 140              		.loc 1 111 0
 141 001a 124B     		ldr	r3, .L8+16
 142 001c 8361     		str	r3, [r0, #24]
 112:Source\mbedtls_open\library/sha256.c ****         ctx->state[5] = 0x9B05688C;
 143              		.loc 1 112 0
 144 001e 124B     		ldr	r3, .L8+20
 145 0020 C361     		str	r3, [r0, #28]
 113:Source\mbedtls_open\library/sha256.c ****         ctx->state[6] = 0x1F83D9AB;
 146              		.loc 1 113 0
 147 0022 124B     		ldr	r3, .L8+24
 148 0024 0362     		str	r3, [r0, #32]
 114:Source\mbedtls_open\library/sha256.c ****         ctx->state[7] = 0x5BE0CD19;
 149              		.loc 1 114 0
 150 0026 124B     		ldr	r3, .L8+28
 151 0028 4362     		str	r3, [r0, #36]
 152 002a 0FE0     		b	.L7
 153              	.L6:
 115:Source\mbedtls_open\library/sha256.c ****     }
 116:Source\mbedtls_open\library/sha256.c ****     else
 117:Source\mbedtls_open\library/sha256.c ****     {
 118:Source\mbedtls_open\library/sha256.c ****         /* SHA-224 */
 119:Source\mbedtls_open\library/sha256.c ****         ctx->state[0] = 0xC1059ED8;
 154              		.loc 1 119 0
 155 002c 114B     		ldr	r3, .L8+32
 156 002e 8360     		str	r3, [r0, #8]
 120:Source\mbedtls_open\library/sha256.c ****         ctx->state[1] = 0x367CD507;
 157              		.loc 1 120 0
 158 0030 114B     		ldr	r3, .L8+36
 159 0032 C360     		str	r3, [r0, #12]
 121:Source\mbedtls_open\library/sha256.c ****         ctx->state[2] = 0x3070DD17;
 160              		.loc 1 121 0
 161 0034 114B     		ldr	r3, .L8+40
 162 0036 0361     		str	r3, [r0, #16]
 122:Source\mbedtls_open\library/sha256.c ****         ctx->state[3] = 0xF70E5939;
 163              		.loc 1 122 0
ARM GAS  C:\Users\Phuong\AppData\Local\Temp\ccuEFeTd.s 			page 6


 164 0038 114B     		ldr	r3, .L8+44
 165 003a 4361     		str	r3, [r0, #20]
 123:Source\mbedtls_open\library/sha256.c ****         ctx->state[4] = 0xFFC00B31;
 166              		.loc 1 123 0
 167 003c 114B     		ldr	r3, .L8+48
 168 003e 8361     		str	r3, [r0, #24]
 124:Source\mbedtls_open\library/sha256.c ****         ctx->state[5] = 0x68581511;
 169              		.loc 1 124 0
 170 0040 114B     		ldr	r3, .L8+52
 171 0042 C361     		str	r3, [r0, #28]
 125:Source\mbedtls_open\library/sha256.c ****         ctx->state[6] = 0x64F98FA7;
 172              		.loc 1 125 0
 173 0044 114B     		ldr	r3, .L8+56
 174 0046 0362     		str	r3, [r0, #32]
 126:Source\mbedtls_open\library/sha256.c ****         ctx->state[7] = 0xBEFA4FA4;
 175              		.loc 1 126 0
 176 0048 114B     		ldr	r3, .L8+60
 177 004a 4362     		str	r3, [r0, #36]
 178              	.L7:
 127:Source\mbedtls_open\library/sha256.c ****     }
 128:Source\mbedtls_open\library/sha256.c **** 
 129:Source\mbedtls_open\library/sha256.c ****     ctx->is224 = is224;
 179              		.loc 1 129 0
 180 004c 8166     		str	r1, [r0, #104]
 130:Source\mbedtls_open\library/sha256.c **** 
 131:Source\mbedtls_open\library/sha256.c ****     return( 0 );
 132:Source\mbedtls_open\library/sha256.c **** }
 181              		.loc 1 132 0
 182 004e 0020     		movs	r0, #0
 183              	.LVL7:
 184              		@ sp needed
 185 0050 7047     		bx	lr
 186              	.L9:
 187 0052 C046     		.align	2
 188              	.L8:
 189 0054 67E6096A 		.word	1779033703
 190 0058 85AE67BB 		.word	-1150833019
 191 005c 72F36E3C 		.word	1013904242
 192 0060 3AF54FA5 		.word	-1521486534
 193 0064 7F520E51 		.word	1359893119
 194 0068 8C68059B 		.word	-1694144372
 195 006c ABD9831F 		.word	528734635
 196 0070 19CDE05B 		.word	1541459225
 197 0074 D89E05C1 		.word	-1056596264
 198 0078 07D57C36 		.word	914150663
 199 007c 17DD7030 		.word	812702999
 200 0080 39590EF7 		.word	-150054599
 201 0084 310BC0FF 		.word	-4191439
 202 0088 11155868 		.word	1750603025
 203 008c A78FF964 		.word	1694076839
 204 0090 A44FFABE 		.word	-1090891868
 205              		.cfi_endproc
 206              	.LFE4:
 207              		.size	mbedtls_sha256_starts_ret, .-mbedtls_sha256_starts_ret
 208              		.section	.text.mbedtls_sha256_starts,"ax",%progbits
 209              		.align	2
 210              		.global	mbedtls_sha256_starts
ARM GAS  C:\Users\Phuong\AppData\Local\Temp\ccuEFeTd.s 			page 7


 211              		.code	16
 212              		.thumb_func
 213              		.type	mbedtls_sha256_starts, %function
 214              	mbedtls_sha256_starts:
 215              	.LFB5:
 133:Source\mbedtls_open\library/sha256.c **** 
 134:Source\mbedtls_open\library/sha256.c **** #if !defined(MBEDTLS_DEPRECATED_REMOVED)
 135:Source\mbedtls_open\library/sha256.c **** void mbedtls_sha256_starts( mbedtls_sha256_context *ctx,
 136:Source\mbedtls_open\library/sha256.c ****                             int is224 )
 137:Source\mbedtls_open\library/sha256.c **** {
 216              		.loc 1 137 0
 217              		.cfi_startproc
 218              		@ args = 0, pretend = 0, frame = 0
 219              		@ frame_needed = 0, uses_anonymous_args = 0
 220              	.LVL8:
 221 0000 10B5     		push	{r4, lr}
 222              		.cfi_def_cfa_offset 8
 223              		.cfi_offset 4, -8
 224              		.cfi_offset 14, -4
 138:Source\mbedtls_open\library/sha256.c ****     mbedtls_sha256_starts_ret( ctx, is224 );
 225              		.loc 1 138 0
 226 0002 FFF7FEFF 		bl	mbedtls_sha256_starts_ret
 227              	.LVL9:
 139:Source\mbedtls_open\library/sha256.c **** }
 228              		.loc 1 139 0
 229              		@ sp needed
 230 0006 10BD     		pop	{r4, pc}
 231              		.cfi_endproc
 232              	.LFE5:
 233              		.size	mbedtls_sha256_starts, .-mbedtls_sha256_starts
 234              		.section	.text.mbedtls_internal_sha256_process,"ax",%progbits
 235              		.align	2
 236              		.global	mbedtls_internal_sha256_process
 237              		.code	16
 238              		.thumb_func
 239              		.type	mbedtls_internal_sha256_process, %function
 240              	mbedtls_internal_sha256_process:
 241              	.LFB6:
 140:Source\mbedtls_open\library/sha256.c **** #endif
 141:Source\mbedtls_open\library/sha256.c **** 
 142:Source\mbedtls_open\library/sha256.c **** #if !defined(MBEDTLS_SHA256_PROCESS_ALT)
 143:Source\mbedtls_open\library/sha256.c **** static const uint32_t K[] =
 144:Source\mbedtls_open\library/sha256.c **** {
 145:Source\mbedtls_open\library/sha256.c ****     0x428A2F98, 0x71374491, 0xB5C0FBCF, 0xE9B5DBA5,
 146:Source\mbedtls_open\library/sha256.c ****     0x3956C25B, 0x59F111F1, 0x923F82A4, 0xAB1C5ED5,
 147:Source\mbedtls_open\library/sha256.c ****     0xD807AA98, 0x12835B01, 0x243185BE, 0x550C7DC3,
 148:Source\mbedtls_open\library/sha256.c ****     0x72BE5D74, 0x80DEB1FE, 0x9BDC06A7, 0xC19BF174,
 149:Source\mbedtls_open\library/sha256.c ****     0xE49B69C1, 0xEFBE4786, 0x0FC19DC6, 0x240CA1CC,
 150:Source\mbedtls_open\library/sha256.c ****     0x2DE92C6F, 0x4A7484AA, 0x5CB0A9DC, 0x76F988DA,
 151:Source\mbedtls_open\library/sha256.c ****     0x983E5152, 0xA831C66D, 0xB00327C8, 0xBF597FC7,
 152:Source\mbedtls_open\library/sha256.c ****     0xC6E00BF3, 0xD5A79147, 0x06CA6351, 0x14292967,
 153:Source\mbedtls_open\library/sha256.c ****     0x27B70A85, 0x2E1B2138, 0x4D2C6DFC, 0x53380D13,
 154:Source\mbedtls_open\library/sha256.c ****     0x650A7354, 0x766A0ABB, 0x81C2C92E, 0x92722C85,
 155:Source\mbedtls_open\library/sha256.c ****     0xA2BFE8A1, 0xA81A664B, 0xC24B8B70, 0xC76C51A3,
 156:Source\mbedtls_open\library/sha256.c ****     0xD192E819, 0xD6990624, 0xF40E3585, 0x106AA070,
 157:Source\mbedtls_open\library/sha256.c ****     0x19A4C116, 0x1E376C08, 0x2748774C, 0x34B0BCB5,
 158:Source\mbedtls_open\library/sha256.c ****     0x391C0CB3, 0x4ED8AA4A, 0x5B9CCA4F, 0x682E6FF3,
ARM GAS  C:\Users\Phuong\AppData\Local\Temp\ccuEFeTd.s 			page 8


 159:Source\mbedtls_open\library/sha256.c ****     0x748F82EE, 0x78A5636F, 0x84C87814, 0x8CC70208,
 160:Source\mbedtls_open\library/sha256.c ****     0x90BEFFFA, 0xA4506CEB, 0xBEF9A3F7, 0xC67178F2,
 161:Source\mbedtls_open\library/sha256.c **** };
 162:Source\mbedtls_open\library/sha256.c **** 
 163:Source\mbedtls_open\library/sha256.c **** #define  SHR(x,n) ((x & 0xFFFFFFFF) >> n)
 164:Source\mbedtls_open\library/sha256.c **** #define ROTR(x,n) (SHR(x,n) | (x << (32 - n)))
 165:Source\mbedtls_open\library/sha256.c **** 
 166:Source\mbedtls_open\library/sha256.c **** #define S0(x) (ROTR(x, 7) ^ ROTR(x,18) ^  SHR(x, 3))
 167:Source\mbedtls_open\library/sha256.c **** #define S1(x) (ROTR(x,17) ^ ROTR(x,19) ^  SHR(x,10))
 168:Source\mbedtls_open\library/sha256.c **** 
 169:Source\mbedtls_open\library/sha256.c **** #define S2(x) (ROTR(x, 2) ^ ROTR(x,13) ^ ROTR(x,22))
 170:Source\mbedtls_open\library/sha256.c **** #define S3(x) (ROTR(x, 6) ^ ROTR(x,11) ^ ROTR(x,25))
 171:Source\mbedtls_open\library/sha256.c **** 
 172:Source\mbedtls_open\library/sha256.c **** #define F0(x,y,z) ((x & y) | (z & (x | y)))
 173:Source\mbedtls_open\library/sha256.c **** #define F1(x,y,z) (z ^ (x & (y ^ z)))
 174:Source\mbedtls_open\library/sha256.c **** 
 175:Source\mbedtls_open\library/sha256.c **** #define R(t)                                    \
 176:Source\mbedtls_open\library/sha256.c **** (                                               \
 177:Source\mbedtls_open\library/sha256.c ****     W[t] = S1(W[t -  2]) + W[t -  7] +          \
 178:Source\mbedtls_open\library/sha256.c ****            S0(W[t - 15]) + W[t - 16]            \
 179:Source\mbedtls_open\library/sha256.c **** )
 180:Source\mbedtls_open\library/sha256.c **** 
 181:Source\mbedtls_open\library/sha256.c **** #define P(a,b,c,d,e,f,g,h,x,K)                  \
 182:Source\mbedtls_open\library/sha256.c **** {                                               \
 183:Source\mbedtls_open\library/sha256.c ****     temp1 = h + S3(e) + F1(e,f,g) + K + x;      \
 184:Source\mbedtls_open\library/sha256.c ****     temp2 = S2(a) + F0(a,b,c);                  \
 185:Source\mbedtls_open\library/sha256.c ****     d += temp1; h = temp1 + temp2;              \
 186:Source\mbedtls_open\library/sha256.c **** }
 187:Source\mbedtls_open\library/sha256.c **** 
 188:Source\mbedtls_open\library/sha256.c **** int mbedtls_internal_sha256_process( mbedtls_sha256_context *ctx,
 189:Source\mbedtls_open\library/sha256.c ****                                 const unsigned char data[64] )
 190:Source\mbedtls_open\library/sha256.c **** {
 242              		.loc 1 190 0
 243              		.cfi_startproc
 244              		@ args = 0, pretend = 0, frame = 336
 245              		@ frame_needed = 0, uses_anonymous_args = 0
 246              	.LVL10:
 247 0000 F0B5     		push	{r4, r5, r6, r7, lr}
 248              		.cfi_def_cfa_offset 20
 249              		.cfi_offset 4, -20
 250              		.cfi_offset 5, -16
 251              		.cfi_offset 6, -12
 252              		.cfi_offset 7, -8
 253              		.cfi_offset 14, -4
 254 0002 5F46     		mov	r7, fp
 255 0004 5646     		mov	r6, r10
 256 0006 4D46     		mov	r5, r9
 257 0008 4446     		mov	r4, r8
 258 000a F0B4     		push	{r4, r5, r6, r7}
 259              		.cfi_def_cfa_offset 36
 260              		.cfi_offset 8, -36
 261              		.cfi_offset 9, -32
 262              		.cfi_offset 10, -28
 263              		.cfi_offset 11, -24
 264 000c D5B0     		sub	sp, sp, #340
 265              		.cfi_def_cfa_offset 376
 266 000e 0B90     		str	r0, [sp, #44]
ARM GAS  C:\Users\Phuong\AppData\Local\Temp\ccuEFeTd.s 			page 9


 267              	.LVL11:
 191:Source\mbedtls_open\library/sha256.c ****     uint32_t temp1, temp2, W[64];
 192:Source\mbedtls_open\library/sha256.c ****     uint32_t A[8];
 193:Source\mbedtls_open\library/sha256.c ****     unsigned int i;
 194:Source\mbedtls_open\library/sha256.c **** 
 195:Source\mbedtls_open\library/sha256.c ****     for( i = 0; i < 8; i++ )
 268              		.loc 1 195 0
 269 0010 0023     		movs	r3, #0
 270 0012 0400     		movs	r4, r0
 271 0014 06E0     		b	.L12
 272              	.LVL12:
 273              	.L13:
 196:Source\mbedtls_open\library/sha256.c ****         A[i] = ctx->state[i];
 274              		.loc 1 196 0 discriminator 3
 275 0016 9A1C     		adds	r2, r3, #2
 276 0018 9200     		lsls	r2, r2, #2
 277 001a 1059     		ldr	r0, [r2, r4]
 278 001c 9A00     		lsls	r2, r3, #2
 279 001e 0CAD     		add	r5, sp, #48
 280 0020 5051     		str	r0, [r2, r5]
 195:Source\mbedtls_open\library/sha256.c ****         A[i] = ctx->state[i];
 281              		.loc 1 195 0 discriminator 3
 282 0022 0133     		adds	r3, r3, #1
 283              	.LVL13:
 284              	.L12:
 195:Source\mbedtls_open\library/sha256.c ****         A[i] = ctx->state[i];
 285              		.loc 1 195 0 is_stmt 0 discriminator 1
 286 0024 072B     		cmp	r3, #7
 287 0026 F6D9     		bls	.L13
 288 0028 0020     		movs	r0, #0
 289 002a 0EE0     		b	.L14
 290              	.LVL14:
 291              	.L15:
 197:Source\mbedtls_open\library/sha256.c **** 
 198:Source\mbedtls_open\library/sha256.c **** #if defined(MBEDTLS_SHA256_SMALLER)
 199:Source\mbedtls_open\library/sha256.c ****     for( i = 0; i < 64; i++ )
 200:Source\mbedtls_open\library/sha256.c ****     {
 201:Source\mbedtls_open\library/sha256.c ****         if( i < 16 )
 202:Source\mbedtls_open\library/sha256.c ****             GET_UINT32_BE( W[i], data, 4 * i );
 203:Source\mbedtls_open\library/sha256.c ****         else
 204:Source\mbedtls_open\library/sha256.c ****             R( i );
 205:Source\mbedtls_open\library/sha256.c **** 
 206:Source\mbedtls_open\library/sha256.c ****         P( A[0], A[1], A[2], A[3], A[4], A[5], A[6], A[7], W[i], K[i] );
 207:Source\mbedtls_open\library/sha256.c **** 
 208:Source\mbedtls_open\library/sha256.c ****         temp1 = A[7]; A[7] = A[6]; A[6] = A[5]; A[5] = A[4]; A[4] = A[3];
 209:Source\mbedtls_open\library/sha256.c ****         A[3] = A[2]; A[2] = A[1]; A[1] = A[0]; A[0] = temp1;
 210:Source\mbedtls_open\library/sha256.c ****     }
 211:Source\mbedtls_open\library/sha256.c **** #else /* MBEDTLS_SHA256_SMALLER */
 212:Source\mbedtls_open\library/sha256.c ****     for( i = 0; i < 16; i++ )
 213:Source\mbedtls_open\library/sha256.c ****         GET_UINT32_BE( W[i], data, 4 * i );
 292              		.loc 1 213 0 is_stmt 1 discriminator 3
 293 002c 8400     		lsls	r4, r0, #2
 294 002e 0B5D     		ldrb	r3, [r1, r4]
 295 0030 1A06     		lsls	r2, r3, #24
 296 0032 0D19     		adds	r5, r1, r4
 297 0034 6B78     		ldrb	r3, [r5, #1]
 298 0036 1B04     		lsls	r3, r3, #16
ARM GAS  C:\Users\Phuong\AppData\Local\Temp\ccuEFeTd.s 			page 10


 299 0038 1343     		orrs	r3, r2
 300 003a AA78     		ldrb	r2, [r5, #2]
 301 003c 1202     		lsls	r2, r2, #8
 302 003e 1343     		orrs	r3, r2
 303 0040 EA78     		ldrb	r2, [r5, #3]
 304 0042 1343     		orrs	r3, r2
 305 0044 14AA     		add	r2, sp, #80
 306 0046 A350     		str	r3, [r4, r2]
 212:Source\mbedtls_open\library/sha256.c ****         GET_UINT32_BE( W[i], data, 4 * i );
 307              		.loc 1 212 0 discriminator 3
 308 0048 0130     		adds	r0, r0, #1
 309              	.LVL15:
 310              	.L14:
 212:Source\mbedtls_open\library/sha256.c ****         GET_UINT32_BE( W[i], data, 4 * i );
 311              		.loc 1 212 0 is_stmt 0 discriminator 1
 312 004a 0F28     		cmp	r0, #15
 313 004c EED9     		bls	.L15
 314 004e 0023     		movs	r3, #0
 315 0050 9A46     		mov	r10, r3
 316 0052 09E2     		b	.L16
 317              	.LVL16:
 318              	.L17:
 214:Source\mbedtls_open\library/sha256.c **** 
 215:Source\mbedtls_open\library/sha256.c ****     for( i = 0; i < 16; i += 8 )
 216:Source\mbedtls_open\library/sha256.c ****     {
 217:Source\mbedtls_open\library/sha256.c ****         P( A[0], A[1], A[2], A[3], A[4], A[5], A[6], A[7], W[i+0], K[i+0] );
 319              		.loc 1 217 0 is_stmt 1 discriminator 3
 320 0054 139B     		ldr	r3, [sp, #76]
 321              	.LVL17:
 322 0056 0093     		str	r3, [sp]
 323 0058 109C     		ldr	r4, [sp, #64]
 324 005a 2000     		movs	r0, r4
 325 005c 0623     		movs	r3, #6
 326 005e D841     		rors	r0, r0, r3
 327 0060 2300     		movs	r3, r4
 328 0062 0B22     		movs	r2, #11
 329 0064 D341     		rors	r3, r3, r2
 330 0066 5840     		eors	r0, r3
 331 0068 2300     		movs	r3, r4
 332 006a 0E32     		adds	r2, r2, #14
 333 006c D341     		rors	r3, r3, r2
 334 006e 5840     		eors	r0, r3
 335 0070 009B     		ldr	r3, [sp]
 336 0072 9C46     		mov	ip, r3
 337 0074 6044     		add	r0, r0, ip
 338 0076 119B     		ldr	r3, [sp, #68]
 339 0078 129F     		ldr	r7, [sp, #72]
 340 007a 0093     		str	r3, [sp]
 341 007c 7B40     		eors	r3, r7
 342 007e 2340     		ands	r3, r4
 343 0080 7B40     		eors	r3, r7
 344 0082 C018     		adds	r0, r0, r3
 345 0084 FC4A     		ldr	r2, .L22
 346 0086 9446     		mov	ip, r2
 347 0088 5246     		mov	r2, r10
 348 008a 9300     		lsls	r3, r2, #2
 349 008c 6246     		mov	r2, ip
ARM GAS  C:\Users\Phuong\AppData\Local\Temp\ccuEFeTd.s 			page 11


 350 008e 9A58     		ldr	r2, [r3, r2]
 351 0090 9046     		mov	r8, r2
 352 0092 4044     		add	r0, r0, r8
 353 0094 0CAA     		add	r2, sp, #48
 354 0096 2021     		movs	r1, #32
 355 0098 5218     		adds	r2, r2, r1
 356 009a D358     		ldr	r3, [r2, r3]
 357 009c C318     		adds	r3, r0, r3
 358              	.LVL18:
 359 009e 0C98     		ldr	r0, [sp, #48]
 360 00a0 0222     		movs	r2, #2
 361 00a2 D041     		rors	r0, r0, r2
 362 00a4 0C9A     		ldr	r2, [sp, #48]
 363 00a6 1339     		subs	r1, r1, #19
 364 00a8 CA41     		rors	r2, r2, r1
 365 00aa 4240     		eors	r2, r0
 366 00ac 0C98     		ldr	r0, [sp, #48]
 367 00ae 0931     		adds	r1, r1, #9
 368 00b0 C841     		rors	r0, r0, r1
 369 00b2 4240     		eors	r2, r0
 370 00b4 0D98     		ldr	r0, [sp, #52]
 371 00b6 0C99     		ldr	r1, [sp, #48]
 372 00b8 0840     		ands	r0, r1
 373 00ba 0E99     		ldr	r1, [sp, #56]
 374 00bc 0E00     		movs	r6, r1
 375 00be 0C99     		ldr	r1, [sp, #48]
 376 00c0 0D9D     		ldr	r5, [sp, #52]
 377 00c2 2943     		orrs	r1, r5
 378 00c4 3140     		ands	r1, r6
 379 00c6 0843     		orrs	r0, r1
 380 00c8 1018     		adds	r0, r2, r0
 381              	.LVL19:
 382 00ca 0F9A     		ldr	r2, [sp, #60]
 383 00cc 9918     		adds	r1, r3, r2
 384 00ce 1818     		adds	r0, r3, r0
 385              	.LVL20:
 218:Source\mbedtls_open\library/sha256.c ****         P( A[7], A[0], A[1], A[2], A[3], A[4], A[5], A[6], W[i+1], K[i+1] );
 386              		.loc 1 218 0 discriminator 3
 387 00d0 0A00     		movs	r2, r1
 388 00d2 0623     		movs	r3, #6
 389              	.LVL21:
 390 00d4 DA41     		rors	r2, r2, r3
 391 00d6 0D00     		movs	r5, r1
 392              	.LVL22:
 393 00d8 0B00     		movs	r3, r1
 394              	.LVL23:
 395 00da 0B21     		movs	r1, #11
 396              	.LVL24:
 397 00dc CB41     		rors	r3, r3, r1
 398 00de 5A40     		eors	r2, r3
 399 00e0 0195     		str	r5, [sp, #4]
 400 00e2 2B00     		movs	r3, r5
 401 00e4 0E31     		adds	r1, r1, #14
 402              	.LVL25:
 403 00e6 CB41     		rors	r3, r3, r1
 404 00e8 5A40     		eors	r2, r3
 405 00ea BA18     		adds	r2, r7, r2
ARM GAS  C:\Users\Phuong\AppData\Local\Temp\ccuEFeTd.s 			page 12


 406 00ec 009D     		ldr	r5, [sp]
 407 00ee 2B00     		movs	r3, r5
 408 00f0 6340     		eors	r3, r4
 409 00f2 0199     		ldr	r1, [sp, #4]
 410              	.LVL26:
 411 00f4 0B40     		ands	r3, r1
 412 00f6 6B40     		eors	r3, r5
 413 00f8 D218     		adds	r2, r2, r3
 414 00fa 5346     		mov	r3, r10
 415 00fc 0133     		adds	r3, r3, #1
 416 00fe 9B00     		lsls	r3, r3, #2
 417 0100 6146     		mov	r1, ip
 418 0102 5958     		ldr	r1, [r3, r1]
 419 0104 8846     		mov	r8, r1
 420              	.LVL27:
 421 0106 4244     		add	r2, r2, r8
 422 0108 0CA9     		add	r1, sp, #48
 423              	.LVL28:
 424 010a 2027     		movs	r7, #32
 425              	.LVL29:
 426 010c C919     		adds	r1, r1, r7
 427              	.LVL30:
 428 010e CB58     		ldr	r3, [r1, r3]
 429 0110 D218     		adds	r2, r2, r3
 430              	.LVL31:
 431 0112 0300     		movs	r3, r0
 432 0114 0221     		movs	r1, #2
 433              	.LVL32:
 434 0116 CB41     		rors	r3, r3, r1
 435 0118 1F00     		movs	r7, r3
 436              	.LVL33:
 437 011a 0300     		movs	r3, r0
 438 011c 0B31     		adds	r1, r1, #11
 439              	.LVL34:
 440 011e CB41     		rors	r3, r3, r1
 441 0120 7B40     		eors	r3, r7
 442 0122 0700     		movs	r7, r0
 443 0124 0931     		adds	r1, r1, #9
 444 0126 CF41     		rors	r7, r7, r1
 445 0128 5F40     		eors	r7, r3
 446 012a 0300     		movs	r3, r0
 447 012c 0C99     		ldr	r1, [sp, #48]
 448 012e 0B40     		ands	r3, r1
 449 0130 9946     		mov	r9, r3
 450 0132 0B00     		movs	r3, r1
 451 0134 0343     		orrs	r3, r0
 452 0136 0D99     		ldr	r1, [sp, #52]
 453 0138 0B40     		ands	r3, r1
 454 013a 4946     		mov	r1, r9
 455 013c 0B43     		orrs	r3, r1
 456 013e FB18     		adds	r3, r7, r3
 457              	.LVL35:
 458 0140 B718     		adds	r7, r6, r2
 459 0142 D318     		adds	r3, r2, r3
 460              	.LVL36:
 461 0144 0293     		str	r3, [sp, #8]
 219:Source\mbedtls_open\library/sha256.c ****         P( A[6], A[7], A[0], A[1], A[2], A[3], A[4], A[5], W[i+2], K[i+2] );
ARM GAS  C:\Users\Phuong\AppData\Local\Temp\ccuEFeTd.s 			page 13


 462              		.loc 1 219 0 discriminator 3
 463 0146 3B00     		movs	r3, r7
 464 0148 0621     		movs	r1, #6
 465              	.LVL37:
 466 014a CB41     		rors	r3, r3, r1
 467 014c 9846     		mov	r8, r3
 468 014e 3B00     		movs	r3, r7
 469 0150 0531     		adds	r1, r1, #5
 470 0152 CB41     		rors	r3, r3, r1
 471 0154 4646     		mov	r6, r8
 472 0156 5E40     		eors	r6, r3
 473 0158 3B00     		movs	r3, r7
 474 015a 0E31     		adds	r1, r1, #14
 475 015c CB41     		rors	r3, r3, r1
 476 015e 7340     		eors	r3, r6
 477 0160 A846     		mov	r8, r5
 478 0162 9844     		add	r8, r8, r3
 479 0164 2300     		movs	r3, r4
 480 0166 019A     		ldr	r2, [sp, #4]
 481              	.LVL38:
 482 0168 5340     		eors	r3, r2
 483 016a 3B40     		ands	r3, r7
 484 016c 6340     		eors	r3, r4
 485 016e 4344     		add	r3, r3, r8
 486 0170 0222     		movs	r2, #2
 487              	.LVL39:
 488 0172 5244     		add	r2, r2, r10
 489              	.LVL40:
 490 0174 9200     		lsls	r2, r2, #2
 491 0176 9146     		mov	r9, r2
 492              	.LVL41:
 493 0178 6246     		mov	r2, ip
 494 017a 4946     		mov	r1, r9
 495 017c 8A58     		ldr	r2, [r1, r2]
 496 017e 9046     		mov	r8, r2
 497 0180 4344     		add	r3, r3, r8
 498 0182 0CAA     		add	r2, sp, #48
 499              	.LVL42:
 500 0184 2026     		movs	r6, #32
 501              	.LVL43:
 502 0186 9219     		adds	r2, r2, r6
 503              	.LVL44:
 504 0188 5258     		ldr	r2, [r2, r1]
 505              	.LVL45:
 506 018a 9046     		mov	r8, r2
 507 018c 9844     		add	r8, r8, r3
 508              	.LVL46:
 509 018e 029E     		ldr	r6, [sp, #8]
 510 0190 3300     		movs	r3, r6
 511 0192 0222     		movs	r2, #2
 512              	.LVL47:
 513 0194 D341     		rors	r3, r3, r2
 514 0196 9946     		mov	r9, r3
 515 0198 3300     		movs	r3, r6
 516 019a 0B32     		adds	r2, r2, #11
 517              	.LVL48:
 518 019c D341     		rors	r3, r3, r2
ARM GAS  C:\Users\Phuong\AppData\Local\Temp\ccuEFeTd.s 			page 14


 519 019e 4A46     		mov	r2, r9
 520              	.LVL49:
 521 01a0 5340     		eors	r3, r2
 522 01a2 3200     		movs	r2, r6
 523 01a4 1621     		movs	r1, #22
 524 01a6 CA41     		rors	r2, r2, r1
 525 01a8 5A40     		eors	r2, r3
 526 01aa 9146     		mov	r9, r2
 527 01ac 3300     		movs	r3, r6
 528 01ae 0340     		ands	r3, r0
 529 01b0 9B46     		mov	fp, r3
 530 01b2 0300     		movs	r3, r0
 531 01b4 3500     		movs	r5, r6
 532 01b6 3343     		orrs	r3, r6
 533 01b8 0C9A     		ldr	r2, [sp, #48]
 534 01ba 1340     		ands	r3, r2
 535 01bc 5A46     		mov	r2, fp
 536 01be 1343     		orrs	r3, r2
 537 01c0 4B44     		add	r3, r3, r9
 538              	.LVL50:
 539 01c2 0D9E     		ldr	r6, [sp, #52]
 540 01c4 4644     		add	r6, r6, r8
 541 01c6 4344     		add	r3, r3, r8
 542              	.LVL51:
 543 01c8 0093     		str	r3, [sp]
 220:Source\mbedtls_open\library/sha256.c ****         P( A[5], A[6], A[7], A[0], A[1], A[2], A[3], A[4], W[i+3], K[i+3] );
 544              		.loc 1 220 0 discriminator 3
 545 01ca 3200     		movs	r2, r6
 546              	.LVL52:
 547 01cc 0621     		movs	r1, #6
 548 01ce CA41     		rors	r2, r2, r1
 549 01d0 9146     		mov	r9, r2
 550              	.LVL53:
 551 01d2 3200     		movs	r2, r6
 552 01d4 0531     		adds	r1, r1, #5
 553 01d6 CA41     		rors	r2, r2, r1
 554 01d8 9046     		mov	r8, r2
 555              	.LVL54:
 556 01da 4A46     		mov	r2, r9
 557 01dc 4146     		mov	r1, r8
 558              	.LVL55:
 559 01de 4A40     		eors	r2, r1
 560 01e0 9146     		mov	r9, r2
 561 01e2 3200     		movs	r2, r6
 562 01e4 1921     		movs	r1, #25
 563 01e6 CA41     		rors	r2, r2, r1
 564 01e8 9046     		mov	r8, r2
 565 01ea 4A46     		mov	r2, r9
 566 01ec 4146     		mov	r1, r8
 567 01ee 4A40     		eors	r2, r1
 568 01f0 9046     		mov	r8, r2
 569 01f2 A044     		add	r8, r8, r4
 570 01f4 019A     		ldr	r2, [sp, #4]
 571 01f6 1400     		movs	r4, r2
 572              	.LVL56:
 573 01f8 7C40     		eors	r4, r7
 574 01fa 3440     		ands	r4, r6
ARM GAS  C:\Users\Phuong\AppData\Local\Temp\ccuEFeTd.s 			page 15


 575 01fc 5440     		eors	r4, r2
 576 01fe 4444     		add	r4, r4, r8
 577 0200 0322     		movs	r2, #3
 578 0202 5244     		add	r2, r2, r10
 579 0204 9200     		lsls	r2, r2, #2
 580 0206 9346     		mov	fp, r2
 581              	.LVL57:
 582 0208 6246     		mov	r2, ip
 583 020a 5946     		mov	r1, fp
 584 020c 8A58     		ldr	r2, [r1, r2]
 585 020e 9046     		mov	r8, r2
 586 0210 4444     		add	r4, r4, r8
 587 0212 0CAA     		add	r2, sp, #48
 588              	.LVL58:
 589 0214 2023     		movs	r3, #32
 590              	.LVL59:
 591 0216 D218     		adds	r2, r2, r3
 592              	.LVL60:
 593 0218 5258     		ldr	r2, [r2, r1]
 594              	.LVL61:
 595 021a 9046     		mov	r8, r2
 596 021c A044     		add	r8, r8, r4
 597              	.LVL62:
 598 021e 0099     		ldr	r1, [sp]
 599 0220 0A00     		movs	r2, r1
 600 0222 1E3B     		subs	r3, r3, #30
 601 0224 DA41     		rors	r2, r2, r3
 602 0226 0C00     		movs	r4, r1
 603 0228 0B33     		adds	r3, r3, #11
 604 022a DC41     		rors	r4, r4, r3
 605 022c 5440     		eors	r4, r2
 606 022e 0A00     		movs	r2, r1
 607 0230 1623     		movs	r3, #22
 608              	.LVL63:
 609 0232 DA41     		rors	r2, r2, r3
 610 0234 6240     		eors	r2, r4
 611 0236 9146     		mov	r9, r2
 612 0238 0B00     		movs	r3, r1
 613              	.LVL64:
 614 023a 0A00     		movs	r2, r1
 615 023c 2A40     		ands	r2, r5
 616 023e 2C00     		movs	r4, r5
 617 0240 1C43     		orrs	r4, r3
 618 0242 0440     		ands	r4, r0
 619 0244 1443     		orrs	r4, r2
 620 0246 4C44     		add	r4, r4, r9
 621              	.LVL65:
 622 0248 0C9D     		ldr	r5, [sp, #48]
 623 024a 4544     		add	r5, r5, r8
 624 024c 4444     		add	r4, r4, r8
 625              	.LVL66:
 221:Source\mbedtls_open\library/sha256.c ****         P( A[4], A[5], A[6], A[7], A[0], A[1], A[2], A[3], W[i+4], K[i+4] );
 626              		.loc 1 221 0 discriminator 3
 627 024e 2A00     		movs	r2, r5
 628              	.LVL67:
 629 0250 0623     		movs	r3, #6
 630 0252 DA41     		rors	r2, r2, r3
ARM GAS  C:\Users\Phuong\AppData\Local\Temp\ccuEFeTd.s 			page 16


 631 0254 9146     		mov	r9, r2
 632              	.LVL68:
 633 0256 2A00     		movs	r2, r5
 634 0258 0533     		adds	r3, r3, #5
 635 025a DA41     		rors	r2, r2, r3
 636 025c 9046     		mov	r8, r2
 637              	.LVL69:
 638 025e 4A46     		mov	r2, r9
 639 0260 4346     		mov	r3, r8
 640              	.LVL70:
 641 0262 5A40     		eors	r2, r3
 642 0264 9146     		mov	r9, r2
 643 0266 2A00     		movs	r2, r5
 644 0268 1923     		movs	r3, #25
 645              	.LVL71:
 646 026a DA41     		rors	r2, r2, r3
 647 026c 9046     		mov	r8, r2
 648 026e 4A46     		mov	r2, r9
 649 0270 4346     		mov	r3, r8
 650              	.LVL72:
 651 0272 5A40     		eors	r2, r3
 652 0274 9046     		mov	r8, r2
 653 0276 019A     		ldr	r2, [sp, #4]
 654 0278 9146     		mov	r9, r2
 655 027a C844     		add	r8, r8, r9
 656 027c 3900     		movs	r1, r7
 657              	.LVL73:
 658 027e 7140     		eors	r1, r6
 659 0280 0195     		str	r5, [sp, #4]
 660              	.LVL74:
 661 0282 2940     		ands	r1, r5
 662 0284 7940     		eors	r1, r7
 663 0286 4144     		add	r1, r1, r8
 664 0288 0422     		movs	r2, #4
 665              	.LVL75:
 666 028a 5244     		add	r2, r2, r10
 667 028c 9300     		lsls	r3, r2, #2
 668 028e 9B46     		mov	fp, r3
 669              	.LVL76:
 670 0290 6346     		mov	r3, ip
 671 0292 5A46     		mov	r2, fp
 672 0294 D358     		ldr	r3, [r2, r3]
 673 0296 9846     		mov	r8, r3
 674 0298 4144     		add	r1, r1, r8
 675 029a 0CAB     		add	r3, sp, #48
 676              	.LVL77:
 677 029c 2025     		movs	r5, #32
 678              	.LVL78:
 679 029e 5B19     		adds	r3, r3, r5
 680              	.LVL79:
 681 02a0 9B58     		ldr	r3, [r3, r2]
 682              	.LVL80:
 683 02a2 9846     		mov	r8, r3
 684 02a4 8844     		add	r8, r8, r1
 685              	.LVL81:
 686 02a6 2200     		movs	r2, r4
 687 02a8 0223     		movs	r3, #2
ARM GAS  C:\Users\Phuong\AppData\Local\Temp\ccuEFeTd.s 			page 17


 688 02aa DA41     		rors	r2, r2, r3
 689 02ac 2100     		movs	r1, r4
 690 02ae 0B33     		adds	r3, r3, #11
 691 02b0 D941     		rors	r1, r1, r3
 692 02b2 5140     		eors	r1, r2
 693 02b4 2200     		movs	r2, r4
 694 02b6 1623     		movs	r3, #22
 695              	.LVL82:
 696 02b8 DA41     		rors	r2, r2, r3
 697 02ba 4A40     		eors	r2, r1
 698 02bc 9146     		mov	r9, r2
 699 02be 2200     		movs	r2, r4
 700 02c0 009B     		ldr	r3, [sp]
 701              	.LVL83:
 702 02c2 1A40     		ands	r2, r3
 703 02c4 9346     		mov	fp, r2
 704 02c6 1900     		movs	r1, r3
 705 02c8 2143     		orrs	r1, r4
 706 02ca 029A     		ldr	r2, [sp, #8]
 707 02cc 1140     		ands	r1, r2
 708 02ce 5B46     		mov	r3, fp
 709 02d0 1943     		orrs	r1, r3
 710 02d2 4944     		add	r1, r1, r9
 711              	.LVL84:
 712 02d4 4044     		add	r0, r0, r8
 713 02d6 1390     		str	r0, [sp, #76]
 714 02d8 4144     		add	r1, r1, r8
 715              	.LVL85:
 716 02da 0F91     		str	r1, [sp, #60]
 222:Source\mbedtls_open\library/sha256.c ****         P( A[3], A[4], A[5], A[6], A[7], A[0], A[1], A[2], W[i+5], K[i+5] );
 717              		.loc 1 222 0 discriminator 3
 718 02dc 0200     		movs	r2, r0
 719 02de 0623     		movs	r3, #6
 720              	.LVL86:
 721 02e0 DA41     		rors	r2, r2, r3
 722 02e2 9146     		mov	r9, r2
 723              	.LVL87:
 724 02e4 0200     		movs	r2, r0
 725 02e6 0533     		adds	r3, r3, #5
 726 02e8 DA41     		rors	r2, r2, r3
 727 02ea 9046     		mov	r8, r2
 728              	.LVL88:
 729 02ec 4A46     		mov	r2, r9
 730 02ee 4346     		mov	r3, r8
 731 02f0 5A40     		eors	r2, r3
 732 02f2 9146     		mov	r9, r2
 733 02f4 0200     		movs	r2, r0
 734 02f6 1923     		movs	r3, #25
 735 02f8 DA41     		rors	r2, r2, r3
 736 02fa 9046     		mov	r8, r2
 737 02fc 4A46     		mov	r2, r9
 738 02fe 4346     		mov	r3, r8
 739 0300 5A40     		eors	r2, r3
 740 0302 9046     		mov	r8, r2
 741 0304 B844     		add	r8, r8, r7
 742 0306 3700     		movs	r7, r6
 743 0308 019D     		ldr	r5, [sp, #4]
ARM GAS  C:\Users\Phuong\AppData\Local\Temp\ccuEFeTd.s 			page 18


 744 030a 6F40     		eors	r7, r5
 745 030c 0740     		ands	r7, r0
 746 030e 7740     		eors	r7, r6
 747 0310 4744     		add	r7, r7, r8
 748 0312 0522     		movs	r2, #5
 749 0314 5244     		add	r2, r2, r10
 750 0316 9300     		lsls	r3, r2, #2
 751 0318 9B46     		mov	fp, r3
 752              	.LVL89:
 753 031a 6346     		mov	r3, ip
 754 031c 5A46     		mov	r2, fp
 755 031e D358     		ldr	r3, [r2, r3]
 756 0320 9846     		mov	r8, r3
 757 0322 4744     		add	r7, r7, r8
 758 0324 0CAB     		add	r3, sp, #48
 759 0326 2025     		movs	r5, #32
 760 0328 5B19     		adds	r3, r3, r5
 761 032a 9B58     		ldr	r3, [r3, r2]
 762 032c 9846     		mov	r8, r3
 763 032e B844     		add	r8, r8, r7
 764              	.LVL90:
 765 0330 0A00     		movs	r2, r1
 766 0332 0223     		movs	r3, #2
 767              	.LVL91:
 768 0334 DA41     		rors	r2, r2, r3
 769 0336 0F00     		movs	r7, r1
 770 0338 0B33     		adds	r3, r3, #11
 771              	.LVL92:
 772 033a DF41     		rors	r7, r7, r3
 773 033c 5740     		eors	r7, r2
 774 033e 0A00     		movs	r2, r1
 775 0340 1623     		movs	r3, #22
 776              	.LVL93:
 777 0342 DA41     		rors	r2, r2, r3
 778 0344 7A40     		eors	r2, r7
 779 0346 9146     		mov	r9, r2
 780 0348 0A00     		movs	r2, r1
 781 034a 2240     		ands	r2, r4
 782 034c 2700     		movs	r7, r4
 783 034e 0F43     		orrs	r7, r1
 784 0350 009B     		ldr	r3, [sp]
 785              	.LVL94:
 786 0352 1F40     		ands	r7, r3
 787 0354 1743     		orrs	r7, r2
 788 0356 4F44     		add	r7, r7, r9
 789              	.LVL95:
 790 0358 029A     		ldr	r2, [sp, #8]
 791 035a 4244     		add	r2, r2, r8
 792 035c 1292     		str	r2, [sp, #72]
 793 035e 4744     		add	r7, r7, r8
 794              	.LVL96:
 795 0360 0E97     		str	r7, [sp, #56]
 223:Source\mbedtls_open\library/sha256.c ****         P( A[2], A[3], A[4], A[5], A[6], A[7], A[0], A[1], W[i+6], K[i+6] );
 796              		.loc 1 223 0 discriminator 3
 797 0362 1500     		movs	r5, r2
 798 0364 0623     		movs	r3, #6
 799 0366 DD41     		rors	r5, r5, r3
ARM GAS  C:\Users\Phuong\AppData\Local\Temp\ccuEFeTd.s 			page 19


 800 0368 A946     		mov	r9, r5
 801              	.LVL97:
 802 036a 1500     		movs	r5, r2
 803 036c 0533     		adds	r3, r3, #5
 804 036e DD41     		rors	r5, r5, r3
 805 0370 A846     		mov	r8, r5
 806              	.LVL98:
 807 0372 4D46     		mov	r5, r9
 808 0374 4346     		mov	r3, r8
 809 0376 5D40     		eors	r5, r3
 810 0378 A946     		mov	r9, r5
 811 037a 0292     		str	r2, [sp, #8]
 812 037c 1500     		movs	r5, r2
 813 037e 1923     		movs	r3, #25
 814 0380 DD41     		rors	r5, r5, r3
 815 0382 A846     		mov	r8, r5
 816 0384 4D46     		mov	r5, r9
 817 0386 4346     		mov	r3, r8
 818 0388 5D40     		eors	r5, r3
 819 038a A846     		mov	r8, r5
 820 038c B044     		add	r8, r8, r6
 821 038e 019A     		ldr	r2, [sp, #4]
 822 0390 1600     		movs	r6, r2
 823 0392 4640     		eors	r6, r0
 824 0394 029D     		ldr	r5, [sp, #8]
 825 0396 2E40     		ands	r6, r5
 826 0398 5640     		eors	r6, r2
 827 039a 4644     		add	r6, r6, r8
 828 039c 0625     		movs	r5, #6
 829 039e 5544     		add	r5, r5, r10
 830 03a0 AB00     		lsls	r3, r5, #2
 831 03a2 9B46     		mov	fp, r3
 832 03a4 6346     		mov	r3, ip
 833 03a6 5D46     		mov	r5, fp
 834 03a8 EB58     		ldr	r3, [r5, r3]
 835 03aa 9846     		mov	r8, r3
 836 03ac 4644     		add	r6, r6, r8
 837 03ae 0CAB     		add	r3, sp, #48
 838 03b0 2022     		movs	r2, #32
 839 03b2 9B18     		adds	r3, r3, r2
 840 03b4 5B59     		ldr	r3, [r3, r5]
 841 03b6 9846     		mov	r8, r3
 842 03b8 B044     		add	r8, r8, r6
 843              	.LVL99:
 844 03ba 3D00     		movs	r5, r7
 845 03bc 0223     		movs	r3, #2
 846              	.LVL100:
 847 03be DD41     		rors	r5, r5, r3
 848 03c0 3E00     		movs	r6, r7
 849 03c2 0B33     		adds	r3, r3, #11
 850              	.LVL101:
 851 03c4 DE41     		rors	r6, r6, r3
 852 03c6 6E40     		eors	r6, r5
 853 03c8 3D00     		movs	r5, r7
 854 03ca 1623     		movs	r3, #22
 855              	.LVL102:
 856 03cc DD41     		rors	r5, r5, r3
ARM GAS  C:\Users\Phuong\AppData\Local\Temp\ccuEFeTd.s 			page 20


 857 03ce 7540     		eors	r5, r6
 858 03d0 A946     		mov	r9, r5
 859 03d2 3D00     		movs	r5, r7
 860 03d4 0D40     		ands	r5, r1
 861 03d6 0E00     		movs	r6, r1
 862 03d8 3E43     		orrs	r6, r7
 863 03da 2640     		ands	r6, r4
 864 03dc 2E43     		orrs	r6, r5
 865 03de 4E44     		add	r6, r6, r9
 866              	.LVL103:
 867 03e0 009B     		ldr	r3, [sp]
 868 03e2 4344     		add	r3, r3, r8
 869 03e4 1193     		str	r3, [sp, #68]
 870 03e6 4644     		add	r6, r6, r8
 871              	.LVL104:
 872 03e8 0D96     		str	r6, [sp, #52]
 224:Source\mbedtls_open\library/sha256.c ****         P( A[1], A[2], A[3], A[4], A[5], A[6], A[7], A[0], W[i+7], K[i+7] );
 873              		.loc 1 224 0 discriminator 3
 874 03ea 1D00     		movs	r5, r3
 875              	.LVL105:
 876 03ec 1A3A     		subs	r2, r2, #26
 877 03ee D541     		rors	r5, r5, r2
 878 03f0 A846     		mov	r8, r5
 879              	.LVL106:
 880 03f2 1D00     		movs	r5, r3
 881 03f4 0532     		adds	r2, r2, #5
 882 03f6 D541     		rors	r5, r5, r2
 883 03f8 A946     		mov	r9, r5
 884              	.LVL107:
 885 03fa 4546     		mov	r5, r8
 886 03fc 4A46     		mov	r2, r9
 887 03fe 5540     		eors	r5, r2
 888 0400 A846     		mov	r8, r5
 889 0402 1D00     		movs	r5, r3
 890 0404 1922     		movs	r2, #25
 891 0406 D541     		rors	r5, r5, r2
 892 0408 A946     		mov	r9, r5
 893 040a 4546     		mov	r5, r8
 894 040c 4A46     		mov	r2, r9
 895 040e 5540     		eors	r5, r2
 896 0410 A846     		mov	r8, r5
 897 0412 019A     		ldr	r2, [sp, #4]
 898 0414 1500     		movs	r5, r2
 899 0416 4544     		add	r5, r5, r8
 900 0418 029A     		ldr	r2, [sp, #8]
 901 041a 4240     		eors	r2, r0
 902 041c 1A40     		ands	r2, r3
 903 041e 5040     		eors	r0, r2
 904 0420 2D18     		adds	r5, r5, r0
 905 0422 5346     		mov	r3, r10
 906 0424 0733     		adds	r3, r3, #7
 907 0426 9B00     		lsls	r3, r3, #2
 908 0428 6246     		mov	r2, ip
 909 042a 9858     		ldr	r0, [r3, r2]
 910 042c 2D18     		adds	r5, r5, r0
 911 042e 0CAA     		add	r2, sp, #48
 912 0430 2020     		movs	r0, #32
ARM GAS  C:\Users\Phuong\AppData\Local\Temp\ccuEFeTd.s 			page 21


 913 0432 1218     		adds	r2, r2, r0
 914 0434 D058     		ldr	r0, [r2, r3]
 915 0436 2818     		adds	r0, r5, r0
 916              	.LVL108:
 917 0438 3500     		movs	r5, r6
 918 043a 0223     		movs	r3, #2
 919              	.LVL109:
 920 043c DD41     		rors	r5, r5, r3
 921 043e 3300     		movs	r3, r6
 922              	.LVL110:
 923 0440 0D22     		movs	r2, #13
 924 0442 D341     		rors	r3, r3, r2
 925 0444 5D40     		eors	r5, r3
 926 0446 3300     		movs	r3, r6
 927 0448 0932     		adds	r2, r2, #9
 928 044a D341     		rors	r3, r3, r2
 929 044c 5D40     		eors	r5, r3
 930 044e 3300     		movs	r3, r6
 931 0450 3B40     		ands	r3, r7
 932 0452 3E43     		orrs	r6, r7
 933 0454 0E40     		ands	r6, r1
 934 0456 3343     		orrs	r3, r6
 935 0458 E918     		adds	r1, r5, r3
 936              	.LVL111:
 937 045a 2418     		adds	r4, r4, r0
 938 045c 1094     		str	r4, [sp, #64]
 939 045e 4518     		adds	r5, r0, r1
 940 0460 0C95     		str	r5, [sp, #48]
 215:Source\mbedtls_open\library/sha256.c ****     {
 941              		.loc 1 215 0 discriminator 3
 942 0462 0823     		movs	r3, #8
 943 0464 9C46     		mov	ip, r3
 944 0466 E244     		add	r10, r10, ip
 945              	.LVL112:
 946              	.L16:
 215:Source\mbedtls_open\library/sha256.c ****     {
 947              		.loc 1 215 0 is_stmt 0 discriminator 1
 948 0468 5346     		mov	r3, r10
 949 046a 0F2B     		cmp	r3, #15
 950 046c 00D8     		bhi	.LCB949
 951 046e F1E5     		b	.L17	@long jump
 952              	.LCB949:
 953 0470 1023     		movs	r3, #16
 954 0472 0093     		str	r3, [sp]
 955 0474 47E3     		b	.L18
 956              	.L23:
 957 0476 C046     		.align	2
 958              	.L22:
 959 0478 00000000 		.word	.LANCHOR0
 960              	.LVL113:
 961              	.L19:
 225:Source\mbedtls_open\library/sha256.c ****     }
 226:Source\mbedtls_open\library/sha256.c **** 
 227:Source\mbedtls_open\library/sha256.c ****     for( i = 16; i < 64; i += 8 )
 228:Source\mbedtls_open\library/sha256.c ****     {
 229:Source\mbedtls_open\library/sha256.c ****         P( A[0], A[1], A[2], A[3], A[4], A[5], A[6], A[7], R(i+0), K[i+0] );
 962              		.loc 1 229 0 is_stmt 1 discriminator 3
ARM GAS  C:\Users\Phuong\AppData\Local\Temp\ccuEFeTd.s 			page 22


 963 047c 139B     		ldr	r3, [sp, #76]
 964              	.LVL114:
 965 047e 0193     		str	r3, [sp, #4]
 966 0480 109B     		ldr	r3, [sp, #64]
 967 0482 1C00     		movs	r4, r3
 968 0484 0622     		movs	r2, #6
 969 0486 D441     		rors	r4, r4, r2
 970 0488 1A00     		movs	r2, r3
 971 048a 0B21     		movs	r1, #11
 972 048c CB41     		rors	r3, r3, r1
 973 048e 5C40     		eors	r4, r3
 974 0490 1300     		movs	r3, r2
 975 0492 0E31     		adds	r1, r1, #14
 976 0494 CB41     		rors	r3, r3, r1
 977 0496 5C40     		eors	r4, r3
 978 0498 019B     		ldr	r3, [sp, #4]
 979 049a 9C46     		mov	ip, r3
 980 049c 6444     		add	r4, r4, ip
 981 049e 119B     		ldr	r3, [sp, #68]
 982 04a0 1299     		ldr	r1, [sp, #72]
 983 04a2 0393     		str	r3, [sp, #12]
 984 04a4 4B40     		eors	r3, r1
 985 04a6 1340     		ands	r3, r2
 986 04a8 0191     		str	r1, [sp, #4]
 987 04aa 4B40     		eors	r3, r1
 988 04ac E418     		adds	r4, r4, r3
 989 04ae 009B     		ldr	r3, [sp]
 990 04b0 9800     		lsls	r0, r3, #2
 991 04b2 FE4D     		ldr	r5, .L24
 992 04b4 0490     		str	r0, [sp, #16]
 993 04b6 4559     		ldr	r5, [r0, r5]
 994 04b8 6719     		adds	r7, r4, r5
 995 04ba 1800     		movs	r0, r3
 996 04bc 991E     		subs	r1, r3, #2
 997 04be 14AB     		add	r3, sp, #80
 998 04c0 8D00     		lsls	r5, r1, #2
 999 04c2 0795     		str	r5, [sp, #28]
 1000 04c4 ED58     		ldr	r5, [r5, r3]
 1001 04c6 2C00     		movs	r4, r5
 1002 04c8 1126     		movs	r6, #17
 1003 04ca F441     		rors	r4, r4, r6
 1004 04cc 2E00     		movs	r6, r5
 1005 04ce 1321     		movs	r1, #19
 1006 04d0 CE41     		rors	r6, r6, r1
 1007 04d2 3100     		movs	r1, r6
 1008 04d4 6140     		eors	r1, r4
 1009 04d6 AD0A     		lsrs	r5, r5, #10
 1010 04d8 6940     		eors	r1, r5
 1011 04da 0400     		movs	r4, r0
 1012 04dc 0738     		subs	r0, r0, #7
 1013 04de 8000     		lsls	r0, r0, #2
 1014 04e0 C558     		ldr	r5, [r0, r3]
 1015 04e2 4D19     		adds	r5, r1, r5
 1016 04e4 0094     		str	r4, [sp]
 1017              	.LVL115:
 1018 04e6 2600     		movs	r6, r4
 1019 04e8 0F3E     		subs	r6, r6, #15
ARM GAS  C:\Users\Phuong\AppData\Local\Temp\ccuEFeTd.s 			page 23


 1020 04ea B100     		lsls	r1, r6, #2
 1021 04ec 8846     		mov	r8, r1
 1022 04ee C958     		ldr	r1, [r1, r3]
 1023 04f0 0C00     		movs	r4, r1
 1024 04f2 0720     		movs	r0, #7
 1025 04f4 C441     		rors	r4, r4, r0
 1026 04f6 0800     		movs	r0, r1
 1027 04f8 1226     		movs	r6, #18
 1028 04fa F041     		rors	r0, r0, r6
 1029 04fc 6040     		eors	r0, r4
 1030 04fe C908     		lsrs	r1, r1, #3
 1031 0500 4840     		eors	r0, r1
 1032 0502 2D18     		adds	r5, r5, r0
 1033 0504 0099     		ldr	r1, [sp]
 1034 0506 1039     		subs	r1, r1, #16
 1035 0508 8900     		lsls	r1, r1, #2
 1036 050a CC58     		ldr	r4, [r1, r3]
 1037 050c 2C19     		adds	r4, r5, r4
 1038 050e 0498     		ldr	r0, [sp, #16]
 1039 0510 C450     		str	r4, [r0, r3]
 1040 0512 3C19     		adds	r4, r7, r4
 1041              	.LVL116:
 1042 0514 0C9F     		ldr	r7, [sp, #48]
 1043 0516 103E     		subs	r6, r6, #16
 1044 0518 F741     		rors	r7, r7, r6
 1045 051a 3D00     		movs	r5, r7
 1046 051c 0C9F     		ldr	r7, [sp, #48]
 1047 051e 0B36     		adds	r6, r6, #11
 1048 0520 F741     		rors	r7, r7, r6
 1049 0522 7D40     		eors	r5, r7
 1050 0524 0C9F     		ldr	r7, [sp, #48]
 1051 0526 0936     		adds	r6, r6, #9
 1052 0528 F741     		rors	r7, r7, r6
 1053 052a 7D40     		eors	r5, r7
 1054 052c 0D9F     		ldr	r7, [sp, #52]
 1055 052e 0C99     		ldr	r1, [sp, #48]
 1056 0530 3940     		ands	r1, r7
 1057 0532 0800     		movs	r0, r1
 1058 0534 0E99     		ldr	r1, [sp, #56]
 1059 0536 0E00     		movs	r6, r1
 1060 0538 0C99     		ldr	r1, [sp, #48]
 1061 053a 0297     		str	r7, [sp, #8]
 1062 053c 3943     		orrs	r1, r7
 1063 053e 0596     		str	r6, [sp, #20]
 1064 0540 3140     		ands	r1, r6
 1065 0542 0843     		orrs	r0, r1
 1066 0544 2818     		adds	r0, r5, r0
 1067              	.LVL117:
 1068 0546 0F9E     		ldr	r6, [sp, #60]
 1069 0548 A519     		adds	r5, r4, r6
 1070 054a A146     		mov	r9, r4
 1071 054c 8144     		add	r9, r9, r0
 230:Source\mbedtls_open\library/sha256.c ****         P( A[7], A[0], A[1], A[2], A[3], A[4], A[5], A[6], R(i+1), K[i+1] );
 1072              		.loc 1 230 0 discriminator 3
 1073 054e 2C00     		movs	r4, r5
 1074              	.LVL118:
 1075 0550 0626     		movs	r6, #6
ARM GAS  C:\Users\Phuong\AppData\Local\Temp\ccuEFeTd.s 			page 24


 1076              	.LVL119:
 1077 0552 F441     		rors	r4, r4, r6
 1078 0554 2000     		movs	r0, r4
 1079              	.LVL120:
 1080 0556 2900     		movs	r1, r5
 1081              	.LVL121:
 1082 0558 0B24     		movs	r4, #11
 1083              	.LVL122:
 1084 055a E141     		rors	r1, r1, r4
 1085 055c 4840     		eors	r0, r1
 1086 055e 2900     		movs	r1, r5
 1087 0560 0E34     		adds	r4, r4, #14
 1088              	.LVL123:
 1089 0562 E141     		rors	r1, r1, r4
 1090 0564 4840     		eors	r0, r1
 1091 0566 019C     		ldr	r4, [sp, #4]
 1092              	.LVL124:
 1093 0568 2418     		adds	r4, r4, r0
 1094 056a 0399     		ldr	r1, [sp, #12]
 1095 056c 0800     		movs	r0, r1
 1096 056e 5040     		eors	r0, r2
 1097 0570 0195     		str	r5, [sp, #4]
 1098 0572 2840     		ands	r0, r5
 1099 0574 4140     		eors	r1, r0
 1100 0576 6018     		adds	r0, r4, r1
 1101 0578 009F     		ldr	r7, [sp]
 1102              	.LVL125:
 1103 057a 791C     		adds	r1, r7, #1
 1104 057c 8C00     		lsls	r4, r1, #2
 1105 057e A246     		mov	r10, r4
 1106 0580 CA4C     		ldr	r4, .L24
 1107              	.LVL126:
 1108 0582 5646     		mov	r6, r10
 1109              	.LVL127:
 1110 0584 3459     		ldr	r4, [r6, r4]
 1111              	.LVL128:
 1112 0586 A446     		mov	ip, r4
 1113              	.LVL129:
 1114 0588 6044     		add	r0, r0, ip
 1115 058a 791E     		subs	r1, r7, #1
 1116 058c 8C00     		lsls	r4, r1, #2
 1117 058e 0894     		str	r4, [sp, #32]
 1118 0590 E558     		ldr	r5, [r4, r3]
 1119 0592 2C00     		movs	r4, r5
 1120 0594 1126     		movs	r6, #17
 1121 0596 F441     		rors	r4, r4, r6
 1122 0598 2900     		movs	r1, r5
 1123 059a 0236     		adds	r6, r6, #2
 1124 059c F141     		rors	r1, r1, r6
 1125 059e 6140     		eors	r1, r4
 1126 05a0 AD0A     		lsrs	r5, r5, #10
 1127 05a2 6940     		eors	r1, r5
 1128 05a4 3C00     		movs	r4, r7
 1129 05a6 063C     		subs	r4, r4, #6
 1130 05a8 A400     		lsls	r4, r4, #2
 1131 05aa E558     		ldr	r5, [r4, r3]
 1132 05ac 4D19     		adds	r5, r1, r5
ARM GAS  C:\Users\Phuong\AppData\Local\Temp\ccuEFeTd.s 			page 25


 1133 05ae 0097     		str	r7, [sp]
 1134 05b0 3C00     		movs	r4, r7
 1135 05b2 0E3C     		subs	r4, r4, #14
 1136 05b4 A600     		lsls	r6, r4, #2
 1137 05b6 B446     		mov	ip, r6
 1138 05b8 F158     		ldr	r1, [r6, r3]
 1139 05ba 0C00     		movs	r4, r1
 1140 05bc 0726     		movs	r6, #7
 1141 05be F441     		rors	r4, r4, r6
 1142 05c0 A346     		mov	fp, r4
 1143 05c2 0C00     		movs	r4, r1
 1144 05c4 0B36     		adds	r6, r6, #11
 1145 05c6 F441     		rors	r4, r4, r6
 1146 05c8 5E46     		mov	r6, fp
 1147 05ca 7440     		eors	r4, r6
 1148 05cc C908     		lsrs	r1, r1, #3
 1149 05ce 4C40     		eors	r4, r1
 1150 05d0 2C19     		adds	r4, r5, r4
 1151 05d2 4146     		mov	r1, r8
 1152 05d4 CD58     		ldr	r5, [r1, r3]
 1153 05d6 6419     		adds	r4, r4, r5
 1154 05d8 5646     		mov	r6, r10
 1155 05da F450     		str	r4, [r6, r3]
 1156              	.LVL130:
 1157 05dc 0019     		adds	r0, r0, r4
 1158              	.LVL131:
 1159 05de 4E46     		mov	r6, r9
 1160 05e0 0224     		movs	r4, #2
 1161 05e2 E641     		rors	r6, r6, r4
 1162 05e4 3400     		movs	r4, r6
 1163 05e6 4E46     		mov	r6, r9
 1164 05e8 0D27     		movs	r7, #13
 1165 05ea FE41     		rors	r6, r6, r7
 1166 05ec 3100     		movs	r1, r6
 1167 05ee 6140     		eors	r1, r4
 1168 05f0 4E46     		mov	r6, r9
 1169 05f2 1624     		movs	r4, #22
 1170 05f4 E641     		rors	r6, r6, r4
 1171 05f6 7140     		eors	r1, r6
 1172 05f8 0C9E     		ldr	r6, [sp, #48]
 1173 05fa 4C46     		mov	r4, r9
 1174 05fc 2640     		ands	r6, r4
 1175 05fe 3400     		movs	r4, r6
 1176 0600 0C9E     		ldr	r6, [sp, #48]
 1177 0602 4F46     		mov	r7, r9
 1178 0604 3E43     		orrs	r6, r7
 1179 0606 029D     		ldr	r5, [sp, #8]
 1180 0608 2E40     		ands	r6, r5
 1181 060a 3443     		orrs	r4, r6
 1182 060c 0C19     		adds	r4, r1, r4
 1183              	.LVL132:
 1184 060e 059E     		ldr	r6, [sp, #20]
 1185 0610 3118     		adds	r1, r6, r0
 1186 0612 8346     		mov	fp, r0
 1187 0614 A344     		add	fp, fp, r4
 231:Source\mbedtls_open\library/sha256.c ****         P( A[6], A[7], A[0], A[1], A[2], A[3], A[4], A[5], R(i+2), K[i+2] );
 1188              		.loc 1 231 0 discriminator 3
ARM GAS  C:\Users\Phuong\AppData\Local\Temp\ccuEFeTd.s 			page 26


 1189 0616 0E00     		movs	r6, r1
 1190 0618 0627     		movs	r7, #6
 1191 061a FE41     		rors	r6, r6, r7
 1192 061c 3400     		movs	r4, r6
 1193              	.LVL133:
 1194 061e 0800     		movs	r0, r1
 1195              	.LVL134:
 1196 0620 0E00     		movs	r6, r1
 1197 0622 0537     		adds	r7, r7, #5
 1198              	.LVL135:
 1199 0624 FE41     		rors	r6, r6, r7
 1200 0626 7440     		eors	r4, r6
 1201 0628 0290     		str	r0, [sp, #8]
 1202 062a 0600     		movs	r6, r0
 1203 062c 0E37     		adds	r7, r7, #14
 1204 062e FE41     		rors	r6, r6, r7
 1205 0630 7440     		eors	r4, r6
 1206 0632 0399     		ldr	r1, [sp, #12]
 1207 0634 0819     		adds	r0, r1, r4
 1208 0636 1400     		movs	r4, r2
 1209 0638 019F     		ldr	r7, [sp, #4]
 1210 063a 7C40     		eors	r4, r7
 1211 063c 0299     		ldr	r1, [sp, #8]
 1212 063e 0C40     		ands	r4, r1
 1213 0640 0392     		str	r2, [sp, #12]
 1214 0642 1100     		movs	r1, r2
 1215 0644 6140     		eors	r1, r4
 1216 0646 4418     		adds	r4, r0, r1
 1217 0648 0098     		ldr	r0, [sp]
 1218 064a 811C     		adds	r1, r0, #2
 1219 064c 8E00     		lsls	r6, r1, #2
 1220 064e 3200     		movs	r2, r6
 1221              	.LVL136:
 1222 0650 964F     		ldr	r7, .L24
 1223              	.LVL137:
 1224 0652 F659     		ldr	r6, [r6, r7]
 1225 0654 B046     		mov	r8, r6
 1226 0656 4444     		add	r4, r4, r8
 1227 0658 0498     		ldr	r0, [sp, #16]
 1228 065a C658     		ldr	r6, [r0, r3]
 1229 065c 3000     		movs	r0, r6
 1230 065e 1127     		movs	r7, #17
 1231              	.LVL138:
 1232 0660 F841     		rors	r0, r0, r7
 1233 0662 3100     		movs	r1, r6
 1234 0664 0237     		adds	r7, r7, #2
 1235 0666 F941     		rors	r1, r1, r7
 1236 0668 4140     		eors	r1, r0
 1237 066a B60A     		lsrs	r6, r6, #10
 1238 066c 7140     		eors	r1, r6
 1239 066e 009F     		ldr	r7, [sp]
 1240 0670 3800     		movs	r0, r7
 1241 0672 0538     		subs	r0, r0, #5
 1242 0674 8000     		lsls	r0, r0, #2
 1243 0676 C658     		ldr	r6, [r0, r3]
 1244 0678 8819     		adds	r0, r1, r6
 1245 067a 0590     		str	r0, [sp, #20]
ARM GAS  C:\Users\Phuong\AppData\Local\Temp\ccuEFeTd.s 			page 27


 1246 067c 3800     		movs	r0, r7
 1247 067e 0D38     		subs	r0, r0, #13
 1248 0680 8000     		lsls	r0, r0, #2
 1249 0682 C158     		ldr	r1, [r0, r3]
 1250 0684 0727     		movs	r7, #7
 1251 0686 F941     		rors	r1, r1, r7
 1252 0688 C758     		ldr	r7, [r0, r3]
 1253 068a 1226     		movs	r6, #18
 1254 068c F741     		rors	r7, r7, r6
 1255 068e 4F40     		eors	r7, r1
 1256 0690 C658     		ldr	r6, [r0, r3]
 1257 0692 F108     		lsrs	r1, r6, #3
 1258 0694 7940     		eors	r1, r7
 1259 0696 059E     		ldr	r6, [sp, #20]
 1260 0698 B046     		mov	r8, r6
 1261 069a 4144     		add	r1, r1, r8
 1262 069c 6646     		mov	r6, ip
 1263 069e F658     		ldr	r6, [r6, r3]
 1264 06a0 8919     		adds	r1, r1, r6
 1265 06a2 0692     		str	r2, [sp, #24]
 1266 06a4 D150     		str	r1, [r2, r3]
 1267              	.LVL139:
 1268 06a6 6418     		adds	r4, r4, r1
 1269              	.LVL140:
 1270 06a8 5E46     		mov	r6, fp
 1271 06aa 0222     		movs	r2, #2
 1272              	.LVL141:
 1273 06ac D641     		rors	r6, r6, r2
 1274 06ae 5A46     		mov	r2, fp
 1275              	.LVL142:
 1276 06b0 0D27     		movs	r7, #13
 1277              	.LVL143:
 1278 06b2 FA41     		rors	r2, r2, r7
 1279 06b4 5640     		eors	r6, r2
 1280 06b6 5A46     		mov	r2, fp
 1281 06b8 0937     		adds	r7, r7, #9
 1282              	.LVL144:
 1283 06ba FA41     		rors	r2, r2, r7
 1284 06bc 5640     		eors	r6, r2
 1285 06be 4A46     		mov	r2, r9
 1286 06c0 5F46     		mov	r7, fp
 1287 06c2 3A40     		ands	r2, r7
 1288 06c4 9446     		mov	ip, r2
 1289 06c6 4A46     		mov	r2, r9
 1290 06c8 3A43     		orrs	r2, r7
 1291 06ca 1100     		movs	r1, r2
 1292 06cc 0C9A     		ldr	r2, [sp, #48]
 1293 06ce 1140     		ands	r1, r2
 1294 06d0 6246     		mov	r2, ip
 1295 06d2 1143     		orrs	r1, r2
 1296 06d4 7118     		adds	r1, r6, r1
 1297              	.LVL145:
 1298 06d6 2D19     		adds	r5, r5, r4
 1299 06d8 6118     		adds	r1, r4, r1
 1300              	.LVL146:
 1301 06da 0A00     		movs	r2, r1
 1302              	.LVL147:
ARM GAS  C:\Users\Phuong\AppData\Local\Temp\ccuEFeTd.s 			page 28


 232:Source\mbedtls_open\library/sha256.c ****         P( A[5], A[6], A[7], A[0], A[1], A[2], A[3], A[4], R(i+3), K[i+3] );
 1303              		.loc 1 232 0 discriminator 3
 1304 06dc 2F00     		movs	r7, r5
 1305              	.LVL148:
 1306 06de 0626     		movs	r6, #6
 1307              	.LVL149:
 1308 06e0 F741     		rors	r7, r7, r6
 1309 06e2 3C00     		movs	r4, r7
 1310              	.LVL150:
 1311 06e4 2F00     		movs	r7, r5
 1312 06e6 0536     		adds	r6, r6, #5
 1313              	.LVL151:
 1314 06e8 F741     		rors	r7, r7, r6
 1315 06ea 3900     		movs	r1, r7
 1316 06ec 6140     		eors	r1, r4
 1317 06ee 2F00     		movs	r7, r5
 1318 06f0 0E36     		adds	r6, r6, #14
 1319              	.LVL152:
 1320 06f2 F741     		rors	r7, r7, r6
 1321 06f4 7940     		eors	r1, r7
 1322 06f6 039C     		ldr	r4, [sp, #12]
 1323 06f8 A446     		mov	ip, r4
 1324              	.LVL153:
 1325 06fa 6144     		add	r1, r1, ip
 1326 06fc 019F     		ldr	r7, [sp, #4]
 1327 06fe 029E     		ldr	r6, [sp, #8]
 1328              	.LVL154:
 1329 0700 7740     		eors	r7, r6
 1330 0702 3C00     		movs	r4, r7
 1331 0704 0395     		str	r5, [sp, #12]
 1332 0706 2C40     		ands	r4, r5
 1333 0708 019F     		ldr	r7, [sp, #4]
 1334 070a 7C40     		eors	r4, r7
 1335 070c 0919     		adds	r1, r1, r4
 1336 070e 009C     		ldr	r4, [sp]
 1337 0710 0334     		adds	r4, r4, #3
 1338 0712 A400     		lsls	r4, r4, #2
 1339 0714 2500     		movs	r5, r4
 1340 0716 654F     		ldr	r7, .L24
 1341              	.LVL155:
 1342 0718 E759     		ldr	r7, [r4, r7]
 1343              	.LVL156:
 1344 071a BC46     		mov	ip, r7
 1345 071c 8C44     		add	ip, ip, r1
 1346 071e 5746     		mov	r7, r10
 1347 0720 FC58     		ldr	r4, [r7, r3]
 1348 0722 2700     		movs	r7, r4
 1349 0724 1126     		movs	r6, #17
 1350 0726 F741     		rors	r7, r7, r6
 1351 0728 B846     		mov	r8, r7
 1352 072a 2100     		movs	r1, r4
 1353 072c 1327     		movs	r7, #19
 1354 072e F941     		rors	r1, r1, r7
 1355 0730 4746     		mov	r7, r8
 1356 0732 7940     		eors	r1, r7
 1357 0734 A40A     		lsrs	r4, r4, #10
 1358 0736 6140     		eors	r1, r4
ARM GAS  C:\Users\Phuong\AppData\Local\Temp\ccuEFeTd.s 			page 29


 1359 0738 009E     		ldr	r6, [sp]
 1360 073a 3400     		movs	r4, r6
 1361 073c 043C     		subs	r4, r4, #4
 1362 073e A400     		lsls	r4, r4, #2
 1363 0740 E458     		ldr	r4, [r4, r3]
 1364 0742 8846     		mov	r8, r1
 1365 0744 A044     		add	r8, r8, r4
 1366 0746 3700     		movs	r7, r6
 1367 0748 0C3F     		subs	r7, r7, #12
 1368 074a BC00     		lsls	r4, r7, #2
 1369 074c E758     		ldr	r7, [r4, r3]
 1370 074e 0726     		movs	r6, #7
 1371 0750 F741     		rors	r7, r7, r6
 1372 0752 BA46     		mov	r10, r7
 1373 0754 E158     		ldr	r1, [r4, r3]
 1374 0756 1227     		movs	r7, #18
 1375 0758 F941     		rors	r1, r1, r7
 1376 075a 5746     		mov	r7, r10
 1377 075c 4F40     		eors	r7, r1
 1378 075e BA46     		mov	r10, r7
 1379 0760 E758     		ldr	r7, [r4, r3]
 1380 0762 F908     		lsrs	r1, r7, #3
 1381 0764 5746     		mov	r7, r10
 1382 0766 7940     		eors	r1, r7
 1383 0768 4144     		add	r1, r1, r8
 1384 076a C058     		ldr	r0, [r0, r3]
 1385 076c 0918     		adds	r1, r1, r0
 1386 076e 0995     		str	r5, [sp, #36]
 1387 0770 E950     		str	r1, [r5, r3]
 1388              	.LVL157:
 1389 0772 6144     		add	r1, r1, ip
 1390              	.LVL158:
 1391 0774 1000     		movs	r0, r2
 1392 0776 0227     		movs	r7, #2
 1393              	.LVL159:
 1394 0778 F841     		rors	r0, r0, r7
 1395 077a 8446     		mov	ip, r0
 1396 077c 1600     		movs	r6, r2
 1397 077e 1000     		movs	r0, r2
 1398 0780 0B37     		adds	r7, r7, #11
 1399              	.LVL160:
 1400 0782 F841     		rors	r0, r0, r7
 1401 0784 6746     		mov	r7, ip
 1402 0786 7840     		eors	r0, r7
 1403 0788 1627     		movs	r7, #22
 1404 078a FA41     		rors	r2, r2, r7
 1405 078c 1700     		movs	r7, r2
 1406 078e 4740     		eors	r7, r0
 1407 0790 BC46     		mov	ip, r7
 1408 0792 5F46     		mov	r7, fp
 1409 0794 3200     		movs	r2, r6
 1410 0796 3740     		ands	r7, r6
 1411 0798 B846     		mov	r8, r7
 1412 079a 5F46     		mov	r7, fp
 1413 079c 3743     		orrs	r7, r6
 1414 079e 3800     		movs	r0, r7
 1415 07a0 4F46     		mov	r7, r9
ARM GAS  C:\Users\Phuong\AppData\Local\Temp\ccuEFeTd.s 			page 30


 1416 07a2 3840     		ands	r0, r7
 1417 07a4 4746     		mov	r7, r8
 1418 07a6 3843     		orrs	r0, r7
 1419 07a8 6044     		add	r0, r0, ip
 1420              	.LVL161:
 1421 07aa 0C9F     		ldr	r7, [sp, #48]
 1422 07ac BC46     		mov	ip, r7
 1423 07ae 8C44     		add	ip, ip, r1
 1424 07b0 6546     		mov	r5, ip
 1425 07b2 8A46     		mov	r10, r1
 1426 07b4 8244     		add	r10, r10, r0
 233:Source\mbedtls_open\library/sha256.c ****         P( A[4], A[5], A[6], A[7], A[0], A[1], A[2], A[3], R(i+4), K[i+4] );
 1427              		.loc 1 233 0 discriminator 3
 1428 07b6 6046     		mov	r0, ip
 1429              	.LVL162:
 1430 07b8 0627     		movs	r7, #6
 1431 07ba F841     		rors	r0, r0, r7
 1432 07bc 6146     		mov	r1, ip
 1433              	.LVL163:
 1434 07be 0537     		adds	r7, r7, #5
 1435              	.LVL164:
 1436 07c0 F941     		rors	r1, r1, r7
 1437 07c2 4840     		eors	r0, r1
 1438 07c4 6146     		mov	r1, ip
 1439 07c6 0E37     		adds	r7, r7, #14
 1440              	.LVL165:
 1441 07c8 F941     		rors	r1, r1, r7
 1442 07ca 4140     		eors	r1, r0
 1443 07cc 019F     		ldr	r7, [sp, #4]
 1444              	.LVL166:
 1445 07ce 7F18     		adds	r7, r7, r1
 1446 07d0 029E     		ldr	r6, [sp, #8]
 1447 07d2 3100     		movs	r1, r6
 1448 07d4 0398     		ldr	r0, [sp, #12]
 1449 07d6 4140     		eors	r1, r0
 1450 07d8 0595     		str	r5, [sp, #20]
 1451 07da 2940     		ands	r1, r5
 1452 07dc 7140     		eors	r1, r6
 1453 07de 7918     		adds	r1, r7, r1
 1454 07e0 0098     		ldr	r0, [sp]
 1455 07e2 0430     		adds	r0, r0, #4
 1456 07e4 8700     		lsls	r7, r0, #2
 1457 07e6 3D00     		movs	r5, r7
 1458 07e8 304E     		ldr	r6, .L24
 1459              	.LVL167:
 1460 07ea BF59     		ldr	r7, [r7, r6]
 1461 07ec BC46     		mov	ip, r7
 1462 07ee 0F00     		movs	r7, r1
 1463 07f0 6744     		add	r7, r7, ip
 1464 07f2 0197     		str	r7, [sp, #4]
 1465              	.LVL168:
 1466 07f4 069F     		ldr	r7, [sp, #24]
 1467 07f6 FF58     		ldr	r7, [r7, r3]
 1468 07f8 3800     		movs	r0, r7
 1469 07fa 1126     		movs	r6, #17
 1470 07fc F041     		rors	r0, r0, r6
 1471 07fe 8446     		mov	ip, r0
ARM GAS  C:\Users\Phuong\AppData\Local\Temp\ccuEFeTd.s 			page 31


 1472 0800 3800     		movs	r0, r7
 1473 0802 0236     		adds	r6, r6, #2
 1474 0804 F041     		rors	r0, r0, r6
 1475 0806 6646     		mov	r6, ip
 1476 0808 7040     		eors	r0, r6
 1477 080a BF0A     		lsrs	r7, r7, #10
 1478 080c 7840     		eors	r0, r7
 1479 080e 0099     		ldr	r1, [sp]
 1480 0810 CF1E     		subs	r7, r1, #3
 1481 0812 BF00     		lsls	r7, r7, #2
 1482 0814 FF58     		ldr	r7, [r7, r3]
 1483 0816 8446     		mov	ip, r0
 1484 0818 BC44     		add	ip, ip, r7
 1485 081a 0F00     		movs	r7, r1
 1486 081c 0B3F     		subs	r7, r7, #11
 1487 081e BF00     		lsls	r7, r7, #2
 1488 0820 F858     		ldr	r0, [r7, r3]
 1489 0822 0726     		movs	r6, #7
 1490 0824 F041     		rors	r0, r0, r6
 1491 0826 FE58     		ldr	r6, [r7, r3]
 1492 0828 1221     		movs	r1, #18
 1493 082a CE41     		rors	r6, r6, r1
 1494 082c 4640     		eors	r6, r0
 1495 082e B046     		mov	r8, r6
 1496              	.LVL169:
 1497 0830 FE58     		ldr	r6, [r7, r3]
 1498 0832 F008     		lsrs	r0, r6, #3
 1499 0834 4646     		mov	r6, r8
 1500 0836 7040     		eors	r0, r6
 1501 0838 6044     		add	r0, r0, ip
 1502 083a E458     		ldr	r4, [r4, r3]
 1503 083c 0019     		adds	r0, r0, r4
 1504 083e 0A95     		str	r5, [sp, #40]
 1505 0840 E850     		str	r0, [r5, r3]
 1506 0842 019C     		ldr	r4, [sp, #4]
 1507 0844 2118     		adds	r1, r4, r0
 1508              	.LVL170:
 1509 0846 5646     		mov	r6, r10
 1510 0848 0220     		movs	r0, #2
 1511              	.LVL171:
 1512 084a C641     		rors	r6, r6, r0
 1513 084c 3400     		movs	r4, r6
 1514 084e 5646     		mov	r6, r10
 1515 0850 0B30     		adds	r0, r0, #11
 1516              	.LVL172:
 1517 0852 C641     		rors	r6, r6, r0
 1518 0854 3000     		movs	r0, r6
 1519              	.LVL173:
 1520 0856 6040     		eors	r0, r4
 1521 0858 5646     		mov	r6, r10
 1522 085a 1624     		movs	r4, #22
 1523              	.LVL174:
 1524 085c E641     		rors	r6, r6, r4
 1525 085e 7040     		eors	r0, r6
 1526 0860 1400     		movs	r4, r2
 1527              	.LVL175:
 1528 0862 5646     		mov	r6, r10
ARM GAS  C:\Users\Phuong\AppData\Local\Temp\ccuEFeTd.s 			page 32


 1529 0864 3440     		ands	r4, r6
 1530 0866 A446     		mov	ip, r4
 1531 0868 1400     		movs	r4, r2
 1532 086a 3443     		orrs	r4, r6
 1533 086c 5E46     		mov	r6, fp
 1534 086e 3440     		ands	r4, r6
 1535 0870 6646     		mov	r6, ip
 1536 0872 3443     		orrs	r4, r6
 1537 0874 0419     		adds	r4, r0, r4
 1538              	.LVL176:
 1539 0876 4E46     		mov	r6, r9
 1540 0878 7018     		adds	r0, r6, r1
 1541 087a 1390     		str	r0, [sp, #76]
 1542 087c 0E19     		adds	r6, r1, r4
 1543 087e 0196     		str	r6, [sp, #4]
 1544 0880 0F96     		str	r6, [sp, #60]
 234:Source\mbedtls_open\library/sha256.c ****         P( A[3], A[4], A[5], A[6], A[7], A[0], A[1], A[2], R(i+5), K[i+5] );
 1545              		.loc 1 234 0 discriminator 3
 1546 0882 0600     		movs	r6, r0
 1547 0884 0621     		movs	r1, #6
 1548              	.LVL177:
 1549 0886 CE41     		rors	r6, r6, r1
 1550 0888 B446     		mov	ip, r6
 1551 088a 0600     		movs	r6, r0
 1552 088c 0531     		adds	r1, r1, #5
 1553 088e CE41     		rors	r6, r6, r1
 1554 0890 3400     		movs	r4, r6
 1555              	.LVL178:
 1556 0892 6646     		mov	r6, ip
 1557 0894 6640     		eors	r6, r4
 1558 0896 B446     		mov	ip, r6
 1559 0898 0600     		movs	r6, r0
 1560 089a 0E31     		adds	r1, r1, #14
 1561 089c CE41     		rors	r6, r6, r1
 1562 089e 3400     		movs	r4, r6
 1563 08a0 6646     		mov	r6, ip
 1564 08a2 7440     		eors	r4, r6
 1565 08a4 029D     		ldr	r5, [sp, #8]
 1566 08a6 2D19     		adds	r5, r5, r4
 1567 08a8 059C     		ldr	r4, [sp, #20]
 1568 08aa 01E0     		b	.L25
 1569              	.L26:
 1570              		.align	2
 1571              	.L24:
 1572 08ac 00000000 		.word	.LANCHOR0
 1573              	.L25:
 1574 08b0 0399     		ldr	r1, [sp, #12]
 1575 08b2 4C40     		eors	r4, r1
 1576 08b4 0440     		ands	r4, r0
 1577 08b6 4C40     		eors	r4, r1
 1578 08b8 2D19     		adds	r5, r5, r4
 1579 08ba 0099     		ldr	r1, [sp]
 1580 08bc 4C1D     		adds	r4, r1, #5
 1581 08be A400     		lsls	r4, r4, #2
 1582 08c0 9E4E     		ldr	r6, .L27
 1583 08c2 0694     		str	r4, [sp, #24]
 1584 08c4 A659     		ldr	r6, [r4, r6]
ARM GAS  C:\Users\Phuong\AppData\Local\Temp\ccuEFeTd.s 			page 33


 1585 08c6 B446     		mov	ip, r6
 1586 08c8 6544     		add	r5, r5, ip
 1587 08ca 099C     		ldr	r4, [sp, #36]
 1588 08cc E458     		ldr	r4, [r4, r3]
 1589 08ce 2600     		movs	r6, r4
 1590 08d0 1121     		movs	r1, #17
 1591 08d2 CE41     		rors	r6, r6, r1
 1592 08d4 B046     		mov	r8, r6
 1593 08d6 2600     		movs	r6, r4
 1594 08d8 0231     		adds	r1, r1, #2
 1595 08da CE41     		rors	r6, r6, r1
 1596 08dc B446     		mov	ip, r6
 1597 08de 4646     		mov	r6, r8
 1598 08e0 6146     		mov	r1, ip
 1599 08e2 4E40     		eors	r6, r1
 1600 08e4 A40A     		lsrs	r4, r4, #10
 1601 08e6 7440     		eors	r4, r6
 1602 08e8 0799     		ldr	r1, [sp, #28]
 1603 08ea C958     		ldr	r1, [r1, r3]
 1604 08ec 8846     		mov	r8, r1
 1605 08ee A044     		add	r8, r8, r4
 1606 08f0 0099     		ldr	r1, [sp]
 1607 08f2 0A39     		subs	r1, r1, #10
 1608 08f4 8900     		lsls	r1, r1, #2
 1609 08f6 8C46     		mov	ip, r1
 1610 08f8 C958     		ldr	r1, [r1, r3]
 1611 08fa 0726     		movs	r6, #7
 1612 08fc F141     		rors	r1, r1, r6
 1613 08fe 0C00     		movs	r4, r1
 1614 0900 6146     		mov	r1, ip
 1615 0902 C958     		ldr	r1, [r1, r3]
 1616 0904 0B36     		adds	r6, r6, #11
 1617 0906 F141     		rors	r1, r1, r6
 1618 0908 6140     		eors	r1, r4
 1619 090a 8946     		mov	r9, r1
 1620 090c 6146     		mov	r1, ip
 1621 090e C958     		ldr	r1, [r1, r3]
 1622 0910 CC08     		lsrs	r4, r1, #3
 1623 0912 4946     		mov	r1, r9
 1624 0914 4C40     		eors	r4, r1
 1625 0916 4444     		add	r4, r4, r8
 1626 0918 FF58     		ldr	r7, [r7, r3]
 1627 091a E419     		adds	r4, r4, r7
 1628 091c 069F     		ldr	r7, [sp, #24]
 1629 091e FC50     		str	r4, [r7, r3]
 1630 0920 2D19     		adds	r5, r5, r4
 1631              	.LVL179:
 1632 0922 019E     		ldr	r6, [sp, #4]
 1633 0924 3700     		movs	r7, r6
 1634 0926 0221     		movs	r1, #2
 1635              	.LVL180:
 1636 0928 CF41     		rors	r7, r7, r1
 1637 092a 3100     		movs	r1, r6
 1638              	.LVL181:
 1639 092c 0D26     		movs	r6, #13
 1640 092e F141     		rors	r1, r1, r6
 1641 0930 0C00     		movs	r4, r1
ARM GAS  C:\Users\Phuong\AppData\Local\Temp\ccuEFeTd.s 			page 34


 1642 0932 7C40     		eors	r4, r7
 1643 0934 019E     		ldr	r6, [sp, #4]
 1644 0936 3700     		movs	r7, r6
 1645 0938 1621     		movs	r1, #22
 1646              	.LVL182:
 1647 093a CF41     		rors	r7, r7, r1
 1648 093c 7C40     		eors	r4, r7
 1649 093e 5146     		mov	r1, r10
 1650              	.LVL183:
 1651 0940 3140     		ands	r1, r6
 1652 0942 5746     		mov	r7, r10
 1653 0944 3743     		orrs	r7, r6
 1654 0946 1740     		ands	r7, r2
 1655 0948 0F43     		orrs	r7, r1
 1656 094a E719     		adds	r7, r4, r7
 1657              	.LVL184:
 1658 094c 5946     		mov	r1, fp
 1659 094e 4C19     		adds	r4, r1, r5
 1660 0950 1294     		str	r4, [sp, #72]
 1661 0952 ED19     		adds	r5, r5, r7
 1662              	.LVL185:
 1663 0954 0E95     		str	r5, [sp, #56]
 235:Source\mbedtls_open\library/sha256.c ****         P( A[2], A[3], A[4], A[5], A[6], A[7], A[0], A[1], R(i+6), K[i+6] );
 1664              		.loc 1 235 0 discriminator 3
 1665 0956 2100     		movs	r1, r4
 1666 0958 0626     		movs	r6, #6
 1667              	.LVL186:
 1668 095a F141     		rors	r1, r1, r6
 1669 095c 8846     		mov	r8, r1
 1670 095e 2700     		movs	r7, r4
 1671              	.LVL187:
 1672 0960 0B21     		movs	r1, #11
 1673 0962 CF41     		rors	r7, r7, r1
 1674 0964 4146     		mov	r1, r8
 1675 0966 7940     		eors	r1, r7
 1676 0968 8846     		mov	r8, r1
 1677 096a 0294     		str	r4, [sp, #8]
 1678              	.LVL188:
 1679 096c 2700     		movs	r7, r4
 1680 096e 1921     		movs	r1, #25
 1681 0970 CF41     		rors	r7, r7, r1
 1682 0972 4146     		mov	r1, r8
 1683 0974 4F40     		eors	r7, r1
 1684 0976 039C     		ldr	r4, [sp, #12]
 1685 0978 E619     		adds	r6, r4, r7
 1686 097a 059C     		ldr	r4, [sp, #20]
 1687 097c 2700     		movs	r7, r4
 1688 097e 4740     		eors	r7, r0
 1689 0980 0299     		ldr	r1, [sp, #8]
 1690 0982 0F40     		ands	r7, r1
 1691 0984 6740     		eors	r7, r4
 1692 0986 F619     		adds	r6, r6, r7
 1693 0988 0099     		ldr	r1, [sp]
 1694 098a 8F1D     		adds	r7, r1, #6
 1695 098c BF00     		lsls	r7, r7, #2
 1696 098e 6B49     		ldr	r1, .L27
 1697 0990 7958     		ldr	r1, [r7, r1]
ARM GAS  C:\Users\Phuong\AppData\Local\Temp\ccuEFeTd.s 			page 35


 1698 0992 8846     		mov	r8, r1
 1699 0994 B044     		add	r8, r8, r6
 1700 0996 0A9E     		ldr	r6, [sp, #40]
 1701 0998 F158     		ldr	r1, [r6, r3]
 1702 099a 0391     		str	r1, [sp, #12]
 1703 099c 1126     		movs	r6, #17
 1704 099e F141     		rors	r1, r1, r6
 1705 09a0 8B46     		mov	fp, r1
 1706 09a2 0399     		ldr	r1, [sp, #12]
 1707 09a4 0236     		adds	r6, r6, #2
 1708 09a6 F141     		rors	r1, r1, r6
 1709 09a8 8946     		mov	r9, r1
 1710 09aa 5946     		mov	r1, fp
 1711 09ac 4E46     		mov	r6, r9
 1712 09ae 7140     		eors	r1, r6
 1713 09b0 8946     		mov	r9, r1
 1714 09b2 0399     		ldr	r1, [sp, #12]
 1715 09b4 8E0A     		lsrs	r6, r1, #10
 1716 09b6 4946     		mov	r1, r9
 1717 09b8 4E40     		eors	r6, r1
 1718 09ba 0899     		ldr	r1, [sp, #32]
 1719 09bc C958     		ldr	r1, [r1, r3]
 1720 09be 8946     		mov	r9, r1
 1721 09c0 B144     		add	r9, r9, r6
 1722 09c2 009E     		ldr	r6, [sp]
 1723 09c4 093E     		subs	r6, r6, #9
 1724 09c6 B100     		lsls	r1, r6, #2
 1725 09c8 8B46     		mov	fp, r1
 1726 09ca CE58     		ldr	r6, [r1, r3]
 1727 09cc 0721     		movs	r1, #7
 1728 09ce CE41     		rors	r6, r6, r1
 1729 09d0 0396     		str	r6, [sp, #12]
 1730 09d2 5E46     		mov	r6, fp
 1731 09d4 F658     		ldr	r6, [r6, r3]
 1732 09d6 0B31     		adds	r1, r1, #11
 1733 09d8 CE41     		rors	r6, r6, r1
 1734 09da 0399     		ldr	r1, [sp, #12]
 1735 09dc 7140     		eors	r1, r6
 1736 09de 5E46     		mov	r6, fp
 1737 09e0 F658     		ldr	r6, [r6, r3]
 1738 09e2 F608     		lsrs	r6, r6, #3
 1739 09e4 4E40     		eors	r6, r1
 1740 09e6 4E44     		add	r6, r6, r9
 1741 09e8 6146     		mov	r1, ip
 1742 09ea C958     		ldr	r1, [r1, r3]
 1743 09ec 8946     		mov	r9, r1
 1744 09ee 4E44     		add	r6, r6, r9
 1745 09f0 FE50     		str	r6, [r7, r3]
 1746 09f2 B146     		mov	r9, r6
 1747 09f4 C144     		add	r9, r9, r8
 1748              	.LVL189:
 1749 09f6 2900     		movs	r1, r5
 1750 09f8 0227     		movs	r7, #2
 1751              	.LVL190:
 1752 09fa F941     		rors	r1, r1, r7
 1753 09fc 8C46     		mov	ip, r1
 1754 09fe 2900     		movs	r1, r5
ARM GAS  C:\Users\Phuong\AppData\Local\Temp\ccuEFeTd.s 			page 36


 1755 0a00 0B37     		adds	r7, r7, #11
 1756              	.LVL191:
 1757 0a02 F941     		rors	r1, r1, r7
 1758 0a04 0F00     		movs	r7, r1
 1759 0a06 6146     		mov	r1, ip
 1760 0a08 4F40     		eors	r7, r1
 1761 0a0a 2900     		movs	r1, r5
 1762 0a0c 1626     		movs	r6, #22
 1763              	.LVL192:
 1764 0a0e F141     		rors	r1, r1, r6
 1765 0a10 7940     		eors	r1, r7
 1766 0a12 8C46     		mov	ip, r1
 1767 0a14 2900     		movs	r1, r5
 1768 0a16 019E     		ldr	r6, [sp, #4]
 1769              	.LVL193:
 1770 0a18 3140     		ands	r1, r6
 1771 0a1a 8846     		mov	r8, r1
 1772 0a1c 3100     		movs	r1, r6
 1773 0a1e 2943     		orrs	r1, r5
 1774 0a20 0F00     		movs	r7, r1
 1775 0a22 5146     		mov	r1, r10
 1776 0a24 0F40     		ands	r7, r1
 1777 0a26 4146     		mov	r1, r8
 1778 0a28 0F43     		orrs	r7, r1
 1779 0a2a BC44     		add	ip, ip, r7
 1780              	.LVL194:
 1781 0a2c 1700     		movs	r7, r2
 1782 0a2e 4F44     		add	r7, r7, r9
 1783 0a30 1197     		str	r7, [sp, #68]
 1784 0a32 E144     		add	r9, r9, ip
 1785              	.LVL195:
 1786 0a34 4E46     		mov	r6, r9
 1787 0a36 0D96     		str	r6, [sp, #52]
 236:Source\mbedtls_open\library/sha256.c ****         P( A[1], A[2], A[3], A[4], A[5], A[6], A[7], A[0], R(i+7), K[i+7] );
 1788              		.loc 1 236 0 discriminator 3
 1789 0a38 3900     		movs	r1, r7
 1790 0a3a 0622     		movs	r2, #6
 1791 0a3c D141     		rors	r1, r1, r2
 1792 0a3e 8846     		mov	r8, r1
 1793 0a40 3900     		movs	r1, r7
 1794 0a42 0532     		adds	r2, r2, #5
 1795 0a44 D141     		rors	r1, r1, r2
 1796 0a46 8C46     		mov	ip, r1
 1797              	.LVL196:
 1798 0a48 4146     		mov	r1, r8
 1799 0a4a 6246     		mov	r2, ip
 1800 0a4c 5140     		eors	r1, r2
 1801 0a4e 8846     		mov	r8, r1
 1802 0a50 3900     		movs	r1, r7
 1803 0a52 1922     		movs	r2, #25
 1804 0a54 D141     		rors	r1, r1, r2
 1805 0a56 8C46     		mov	ip, r1
 1806 0a58 4146     		mov	r1, r8
 1807 0a5a 6246     		mov	r2, ip
 1808 0a5c 5140     		eors	r1, r2
 1809 0a5e 8C46     		mov	ip, r1
 1810 0a60 A046     		mov	r8, r4
ARM GAS  C:\Users\Phuong\AppData\Local\Temp\ccuEFeTd.s 			page 37


 1811 0a62 C444     		add	ip, ip, r8
 1812 0a64 029C     		ldr	r4, [sp, #8]
 1813 0a66 4440     		eors	r4, r0
 1814 0a68 3C40     		ands	r4, r7
 1815 0a6a 4440     		eors	r4, r0
 1816 0a6c 6444     		add	r4, r4, ip
 1817 0a6e 009A     		ldr	r2, [sp]
 1818 0a70 D71D     		adds	r7, r2, #7
 1819 0a72 BF00     		lsls	r7, r7, #2
 1820 0a74 3149     		ldr	r1, .L27
 1821 0a76 7858     		ldr	r0, [r7, r1]
 1822 0a78 2018     		adds	r0, r4, r0
 1823 0a7a 069C     		ldr	r4, [sp, #24]
 1824 0a7c E458     		ldr	r4, [r4, r3]
 1825 0a7e 2100     		movs	r1, r4
 1826 0a80 1122     		movs	r2, #17
 1827 0a82 D141     		rors	r1, r1, r2
 1828 0a84 8846     		mov	r8, r1
 1829 0a86 2100     		movs	r1, r4
 1830 0a88 0232     		adds	r2, r2, #2
 1831 0a8a D141     		rors	r1, r1, r2
 1832 0a8c 8C46     		mov	ip, r1
 1833 0a8e 4146     		mov	r1, r8
 1834 0a90 6246     		mov	r2, ip
 1835 0a92 5140     		eors	r1, r2
 1836 0a94 A40A     		lsrs	r4, r4, #10
 1837 0a96 4C40     		eors	r4, r1
 1838 0a98 049A     		ldr	r2, [sp, #16]
 1839 0a9a D258     		ldr	r2, [r2, r3]
 1840 0a9c 9446     		mov	ip, r2
 1841 0a9e A444     		add	ip, ip, r4
 1842 0aa0 009C     		ldr	r4, [sp]
 1843 0aa2 083C     		subs	r4, r4, #8
 1844 0aa4 A400     		lsls	r4, r4, #2
 1845 0aa6 E458     		ldr	r4, [r4, r3]
 1846 0aa8 2200     		movs	r2, r4
 1847 0aaa 0721     		movs	r1, #7
 1848 0aac CA41     		rors	r2, r2, r1
 1849 0aae 9146     		mov	r9, r2
 1850 0ab0 2200     		movs	r2, r4
 1851 0ab2 0B31     		adds	r1, r1, #11
 1852 0ab4 CA41     		rors	r2, r2, r1
 1853 0ab6 9046     		mov	r8, r2
 1854 0ab8 4A46     		mov	r2, r9
 1855 0aba 4146     		mov	r1, r8
 1856 0abc 4A40     		eors	r2, r1
 1857 0abe E408     		lsrs	r4, r4, #3
 1858 0ac0 5440     		eors	r4, r2
 1859 0ac2 6444     		add	r4, r4, ip
 1860 0ac4 5A46     		mov	r2, fp
 1861 0ac6 D258     		ldr	r2, [r2, r3]
 1862 0ac8 9446     		mov	ip, r2
 1863 0aca 6444     		add	r4, r4, ip
 1864 0acc FC50     		str	r4, [r7, r3]
 1865 0ace 0419     		adds	r4, r0, r4
 1866              	.LVL197:
 1867 0ad0 3000     		movs	r0, r6
ARM GAS  C:\Users\Phuong\AppData\Local\Temp\ccuEFeTd.s 			page 38


 1868 0ad2 0223     		movs	r3, #2
 1869              	.LVL198:
 1870 0ad4 D841     		rors	r0, r0, r3
 1871 0ad6 3300     		movs	r3, r6
 1872              	.LVL199:
 1873 0ad8 0D22     		movs	r2, #13
 1874 0ada D341     		rors	r3, r3, r2
 1875 0adc 5840     		eors	r0, r3
 1876 0ade 3300     		movs	r3, r6
 1877 0ae0 0932     		adds	r2, r2, #9
 1878 0ae2 D341     		rors	r3, r3, r2
 1879 0ae4 5840     		eors	r0, r3
 1880 0ae6 3700     		movs	r7, r6
 1881 0ae8 2F40     		ands	r7, r5
 1882 0aea 2E43     		orrs	r6, r5
 1883 0aec 0199     		ldr	r1, [sp, #4]
 1884 0aee 0E40     		ands	r6, r1
 1885 0af0 3900     		movs	r1, r7
 1886 0af2 3143     		orrs	r1, r6
 1887 0af4 4118     		adds	r1, r0, r1
 1888              	.LVL200:
 1889 0af6 5346     		mov	r3, r10
 1890 0af8 1B19     		adds	r3, r3, r4
 1891 0afa 1093     		str	r3, [sp, #64]
 1892 0afc 6018     		adds	r0, r4, r1
 1893 0afe 0C90     		str	r0, [sp, #48]
 227:Source\mbedtls_open\library/sha256.c ****     {
 1894              		.loc 1 227 0 discriminator 3
 1895 0b00 009B     		ldr	r3, [sp]
 1896 0b02 0833     		adds	r3, r3, #8
 1897 0b04 0093     		str	r3, [sp]
 1898              	.LVL201:
 1899              	.L18:
 227:Source\mbedtls_open\library/sha256.c ****     {
 1900              		.loc 1 227 0 is_stmt 0 discriminator 1
 1901 0b06 009B     		ldr	r3, [sp]
 1902 0b08 3F2B     		cmp	r3, #63
 1903 0b0a 00D8     		bhi	.LCB1992
 1904 0b0c B6E4     		b	.L19	@long jump
 1905              	.LCB1992:
 1906 0b0e 0022     		movs	r2, #0
 1907 0b10 0B98     		ldr	r0, [sp, #44]
 1908 0b12 09E0     		b	.L20
 1909              	.LVL202:
 1910              	.L21:
 237:Source\mbedtls_open\library/sha256.c ****     }
 238:Source\mbedtls_open\library/sha256.c **** #endif /* MBEDTLS_SHA256_SMALLER */
 239:Source\mbedtls_open\library/sha256.c **** 
 240:Source\mbedtls_open\library/sha256.c ****     for( i = 0; i < 8; i++ )
 241:Source\mbedtls_open\library/sha256.c ****         ctx->state[i] += A[i];
 1911              		.loc 1 241 0 is_stmt 1 discriminator 3
 1912 0b14 9300     		lsls	r3, r2, #2
 1913 0b16 0CA9     		add	r1, sp, #48
 1914 0b18 5958     		ldr	r1, [r3, r1]
 1915 0b1a 931C     		adds	r3, r2, #2
 1916 0b1c 9B00     		lsls	r3, r3, #2
 1917 0b1e 1C58     		ldr	r4, [r3, r0]
ARM GAS  C:\Users\Phuong\AppData\Local\Temp\ccuEFeTd.s 			page 39


 1918 0b20 A446     		mov	ip, r4
 1919 0b22 6144     		add	r1, r1, ip
 1920 0b24 1950     		str	r1, [r3, r0]
 240:Source\mbedtls_open\library/sha256.c ****         ctx->state[i] += A[i];
 1921              		.loc 1 240 0 discriminator 3
 1922 0b26 0132     		adds	r2, r2, #1
 1923              	.LVL203:
 1924              	.L20:
 240:Source\mbedtls_open\library/sha256.c ****         ctx->state[i] += A[i];
 1925              		.loc 1 240 0 is_stmt 0 discriminator 1
 1926 0b28 072A     		cmp	r2, #7
 1927 0b2a F3D9     		bls	.L21
 242:Source\mbedtls_open\library/sha256.c **** 
 243:Source\mbedtls_open\library/sha256.c ****     return( 0 );
 244:Source\mbedtls_open\library/sha256.c **** }
 1928              		.loc 1 244 0 is_stmt 1
 1929 0b2c 0020     		movs	r0, #0
 1930 0b2e 55B0     		add	sp, sp, #340
 1931              		@ sp needed
 1932 0b30 3CBC     		pop	{r2, r3, r4, r5}
 1933 0b32 9046     		mov	r8, r2
 1934 0b34 9946     		mov	r9, r3
 1935 0b36 A246     		mov	r10, r4
 1936 0b38 AB46     		mov	fp, r5
 1937 0b3a F0BD     		pop	{r4, r5, r6, r7, pc}
 1938              	.L28:
 1939              		.align	2
 1940              	.L27:
 1941 0b3c 00000000 		.word	.LANCHOR0
 1942              		.cfi_endproc
 1943              	.LFE6:
 1944              		.size	mbedtls_internal_sha256_process, .-mbedtls_internal_sha256_process
 1945              		.section	.text.mbedtls_sha256_process,"ax",%progbits
 1946              		.align	2
 1947              		.global	mbedtls_sha256_process
 1948              		.code	16
 1949              		.thumb_func
 1950              		.type	mbedtls_sha256_process, %function
 1951              	mbedtls_sha256_process:
 1952              	.LFB7:
 245:Source\mbedtls_open\library/sha256.c **** 
 246:Source\mbedtls_open\library/sha256.c **** #if !defined(MBEDTLS_DEPRECATED_REMOVED)
 247:Source\mbedtls_open\library/sha256.c **** void mbedtls_sha256_process( mbedtls_sha256_context *ctx,
 248:Source\mbedtls_open\library/sha256.c ****                              const unsigned char data[64] )
 249:Source\mbedtls_open\library/sha256.c **** {
 1953              		.loc 1 249 0
 1954              		.cfi_startproc
 1955              		@ args = 0, pretend = 0, frame = 0
 1956              		@ frame_needed = 0, uses_anonymous_args = 0
 1957              	.LVL204:
 1958 0000 10B5     		push	{r4, lr}
 1959              		.cfi_def_cfa_offset 8
 1960              		.cfi_offset 4, -8
 1961              		.cfi_offset 14, -4
 250:Source\mbedtls_open\library/sha256.c ****     mbedtls_internal_sha256_process( ctx, data );
 1962              		.loc 1 250 0
 1963 0002 FFF7FEFF 		bl	mbedtls_internal_sha256_process
ARM GAS  C:\Users\Phuong\AppData\Local\Temp\ccuEFeTd.s 			page 40


 1964              	.LVL205:
 251:Source\mbedtls_open\library/sha256.c **** }
 1965              		.loc 1 251 0
 1966              		@ sp needed
 1967 0006 10BD     		pop	{r4, pc}
 1968              		.cfi_endproc
 1969              	.LFE7:
 1970              		.size	mbedtls_sha256_process, .-mbedtls_sha256_process
 1971              		.section	.text.mbedtls_sha256_update_ret,"ax",%progbits
 1972              		.align	2
 1973              		.global	mbedtls_sha256_update_ret
 1974              		.code	16
 1975              		.thumb_func
 1976              		.type	mbedtls_sha256_update_ret, %function
 1977              	mbedtls_sha256_update_ret:
 1978              	.LFB8:
 252:Source\mbedtls_open\library/sha256.c **** #endif
 253:Source\mbedtls_open\library/sha256.c **** #endif /* !MBEDTLS_SHA256_PROCESS_ALT */
 254:Source\mbedtls_open\library/sha256.c **** 
 255:Source\mbedtls_open\library/sha256.c **** /*
 256:Source\mbedtls_open\library/sha256.c ****  * SHA-256 process buffer
 257:Source\mbedtls_open\library/sha256.c ****  */
 258:Source\mbedtls_open\library/sha256.c **** int mbedtls_sha256_update_ret( mbedtls_sha256_context *ctx,
 259:Source\mbedtls_open\library/sha256.c ****                                const unsigned char *input,
 260:Source\mbedtls_open\library/sha256.c ****                                size_t ilen )
 261:Source\mbedtls_open\library/sha256.c **** {
 1979              		.loc 1 261 0
 1980              		.cfi_startproc
 1981              		@ args = 0, pretend = 0, frame = 0
 1982              		@ frame_needed = 0, uses_anonymous_args = 0
 1983              	.LVL206:
 1984 0000 F8B5     		push	{r3, r4, r5, r6, r7, lr}
 1985              		.cfi_def_cfa_offset 24
 1986              		.cfi_offset 3, -24
 1987              		.cfi_offset 4, -20
 1988              		.cfi_offset 5, -16
 1989              		.cfi_offset 6, -12
 1990              		.cfi_offset 7, -8
 1991              		.cfi_offset 14, -4
 1992 0002 4F46     		mov	r7, r9
 1993 0004 4646     		mov	r6, r8
 1994 0006 C0B4     		push	{r6, r7}
 1995              		.cfi_def_cfa_offset 32
 1996              		.cfi_offset 8, -32
 1997              		.cfi_offset 9, -28
 1998 0008 0600     		movs	r6, r0
 1999 000a 0D00     		movs	r5, r1
 2000 000c 141E     		subs	r4, r2, #0
 262:Source\mbedtls_open\library/sha256.c ****     int ret;
 263:Source\mbedtls_open\library/sha256.c ****     size_t fill;
 264:Source\mbedtls_open\library/sha256.c ****     uint32_t left;
 265:Source\mbedtls_open\library/sha256.c **** 
 266:Source\mbedtls_open\library/sha256.c ****     if( ilen == 0 )
 2001              		.loc 1 266 0
 2002 000e 38D0     		beq	.L36
 267:Source\mbedtls_open\library/sha256.c ****         return( 0 );
 268:Source\mbedtls_open\library/sha256.c **** 
ARM GAS  C:\Users\Phuong\AppData\Local\Temp\ccuEFeTd.s 			page 41


 269:Source\mbedtls_open\library/sha256.c ****     left = ctx->total[0] & 0x3F;
 2003              		.loc 1 269 0
 2004 0010 0368     		ldr	r3, [r0]
 2005 0012 3F27     		movs	r7, #63
 2006 0014 1F40     		ands	r7, r3
 2007              	.LVL207:
 270:Source\mbedtls_open\library/sha256.c ****     fill = 64 - left;
 2008              		.loc 1 270 0
 2009 0016 4022     		movs	r2, #64
 2010              	.LVL208:
 2011 0018 D21B     		subs	r2, r2, r7
 2012 001a 9046     		mov	r8, r2
 2013              	.LVL209:
 271:Source\mbedtls_open\library/sha256.c **** 
 272:Source\mbedtls_open\library/sha256.c ****     ctx->total[0] += (uint32_t) ilen;
 2014              		.loc 1 272 0
 2015 001c E318     		adds	r3, r4, r3
 2016 001e 0360     		str	r3, [r0]
 273:Source\mbedtls_open\library/sha256.c ****     ctx->total[0] &= 0xFFFFFFFF;
 274:Source\mbedtls_open\library/sha256.c **** 
 275:Source\mbedtls_open\library/sha256.c ****     if( ctx->total[0] < (uint32_t) ilen )
 2017              		.loc 1 275 0
 2018 0020 9C42     		cmp	r4, r3
 2019 0022 02D9     		bls	.L32
 276:Source\mbedtls_open\library/sha256.c ****         ctx->total[1]++;
 2020              		.loc 1 276 0
 2021 0024 4368     		ldr	r3, [r0, #4]
 2022 0026 0133     		adds	r3, r3, #1
 2023 0028 4360     		str	r3, [r0, #4]
 2024              	.L32:
 277:Source\mbedtls_open\library/sha256.c **** 
 278:Source\mbedtls_open\library/sha256.c ****     if( left && ilen >= fill )
 2025              		.loc 1 278 0
 2026 002a 002F     		cmp	r7, #0
 2027 002c 1DD0     		beq	.L34
 2028              		.loc 1 278 0 is_stmt 0 discriminator 1
 2029 002e 4445     		cmp	r4, r8
 2030 0030 1BD3     		bcc	.L34
 279:Source\mbedtls_open\library/sha256.c ****     {
 280:Source\mbedtls_open\library/sha256.c ****         memcpy( (void *) (ctx->buffer + left), input, fill );
 2031              		.loc 1 280 0 is_stmt 1
 2032 0032 2823     		movs	r3, #40
 2033 0034 9946     		mov	r9, r3
 2034 0036 B144     		add	r9, r9, r6
 2035 0038 3800     		movs	r0, r7
 2036              	.LVL210:
 2037 003a 4844     		add	r0, r0, r9
 2038 003c 4246     		mov	r2, r8
 2039              	.LVL211:
 2040 003e 2900     		movs	r1, r5
 2041              	.LVL212:
 2042 0040 FFF7FEFF 		bl	memcpy
 2043              	.LVL213:
 281:Source\mbedtls_open\library/sha256.c **** 
 282:Source\mbedtls_open\library/sha256.c ****         if( ( ret = mbedtls_internal_sha256_process( ctx, ctx->buffer ) ) != 0 )
 2044              		.loc 1 282 0
 2045 0044 4946     		mov	r1, r9
ARM GAS  C:\Users\Phuong\AppData\Local\Temp\ccuEFeTd.s 			page 42


 2046 0046 3000     		movs	r0, r6
 2047 0048 FFF7FEFF 		bl	mbedtls_internal_sha256_process
 2048              	.LVL214:
 2049 004c 0028     		cmp	r0, #0
 2050 004e 1BD1     		bne	.L31
 283:Source\mbedtls_open\library/sha256.c ****             return( ret );
 284:Source\mbedtls_open\library/sha256.c **** 
 285:Source\mbedtls_open\library/sha256.c ****         input += fill;
 2051              		.loc 1 285 0
 2052 0050 4544     		add	r5, r5, r8
 2053              	.LVL215:
 286:Source\mbedtls_open\library/sha256.c ****         ilen  -= fill;
 2054              		.loc 1 286 0
 2055 0052 4346     		mov	r3, r8
 2056 0054 E41A     		subs	r4, r4, r3
 2057              	.LVL216:
 287:Source\mbedtls_open\library/sha256.c ****         left = 0;
 2058              		.loc 1 287 0
 2059 0056 0027     		movs	r7, #0
 2060 0058 07E0     		b	.L34
 2061              	.LVL217:
 2062              	.L35:
 288:Source\mbedtls_open\library/sha256.c ****     }
 289:Source\mbedtls_open\library/sha256.c **** 
 290:Source\mbedtls_open\library/sha256.c ****     while( ilen >= 64 )
 291:Source\mbedtls_open\library/sha256.c ****     {
 292:Source\mbedtls_open\library/sha256.c ****         if( ( ret = mbedtls_internal_sha256_process( ctx, input ) ) != 0 )
 2063              		.loc 1 292 0
 2064 005a 2900     		movs	r1, r5
 2065 005c 3000     		movs	r0, r6
 2066 005e FFF7FEFF 		bl	mbedtls_internal_sha256_process
 2067              	.LVL218:
 2068 0062 0028     		cmp	r0, #0
 2069 0064 10D1     		bne	.L31
 293:Source\mbedtls_open\library/sha256.c ****             return( ret );
 294:Source\mbedtls_open\library/sha256.c **** 
 295:Source\mbedtls_open\library/sha256.c ****         input += 64;
 2070              		.loc 1 295 0
 2071 0066 4035     		adds	r5, r5, #64
 2072              	.LVL219:
 296:Source\mbedtls_open\library/sha256.c ****         ilen  -= 64;
 2073              		.loc 1 296 0
 2074 0068 403C     		subs	r4, r4, #64
 2075              	.LVL220:
 2076              	.L34:
 290:Source\mbedtls_open\library/sha256.c ****     {
 2077              		.loc 1 290 0
 2078 006a 3F2C     		cmp	r4, #63
 2079 006c F5D8     		bhi	.L35
 297:Source\mbedtls_open\library/sha256.c ****     }
 298:Source\mbedtls_open\library/sha256.c **** 
 299:Source\mbedtls_open\library/sha256.c ****     if( ilen > 0 )
 2080              		.loc 1 299 0
 2081 006e 002C     		cmp	r4, #0
 2082 0070 09D0     		beq	.L39
 300:Source\mbedtls_open\library/sha256.c ****         memcpy( (void *) (ctx->buffer + left), input, ilen );
 2083              		.loc 1 300 0
ARM GAS  C:\Users\Phuong\AppData\Local\Temp\ccuEFeTd.s 			page 43


 2084 0072 2836     		adds	r6, r6, #40
 2085              	.LVL221:
 2086 0074 F019     		adds	r0, r6, r7
 2087 0076 2200     		movs	r2, r4
 2088 0078 2900     		movs	r1, r5
 2089 007a FFF7FEFF 		bl	memcpy
 2090              	.LVL222:
 301:Source\mbedtls_open\library/sha256.c **** 
 302:Source\mbedtls_open\library/sha256.c ****     return( 0 );
 2091              		.loc 1 302 0
 2092 007e 0020     		movs	r0, #0
 2093 0080 02E0     		b	.L31
 2094              	.LVL223:
 2095              	.L36:
 267:Source\mbedtls_open\library/sha256.c **** 
 2096              		.loc 1 267 0
 2097 0082 0020     		movs	r0, #0
 2098              	.LVL224:
 2099 0084 00E0     		b	.L31
 2100              	.LVL225:
 2101              	.L39:
 2102              		.loc 1 302 0
 2103 0086 0020     		movs	r0, #0
 2104              	.LVL226:
 2105              	.L31:
 303:Source\mbedtls_open\library/sha256.c **** }
 2106              		.loc 1 303 0
 2107              		@ sp needed
 2108              	.LVL227:
 2109              	.LVL228:
 2110 0088 0CBC     		pop	{r2, r3}
 2111 008a 9046     		mov	r8, r2
 2112 008c 9946     		mov	r9, r3
 2113 008e F8BD     		pop	{r3, r4, r5, r6, r7, pc}
 2114              		.cfi_endproc
 2115              	.LFE8:
 2116              		.size	mbedtls_sha256_update_ret, .-mbedtls_sha256_update_ret
 2117              		.section	.text.mbedtls_sha256_update,"ax",%progbits
 2118              		.align	2
 2119              		.global	mbedtls_sha256_update
 2120              		.code	16
 2121              		.thumb_func
 2122              		.type	mbedtls_sha256_update, %function
 2123              	mbedtls_sha256_update:
 2124              	.LFB9:
 304:Source\mbedtls_open\library/sha256.c **** 
 305:Source\mbedtls_open\library/sha256.c **** #if !defined(MBEDTLS_DEPRECATED_REMOVED)
 306:Source\mbedtls_open\library/sha256.c **** void mbedtls_sha256_update( mbedtls_sha256_context *ctx,
 307:Source\mbedtls_open\library/sha256.c ****                             const unsigned char *input,
 308:Source\mbedtls_open\library/sha256.c ****                             size_t ilen )
 309:Source\mbedtls_open\library/sha256.c **** {
 2125              		.loc 1 309 0
 2126              		.cfi_startproc
 2127              		@ args = 0, pretend = 0, frame = 0
 2128              		@ frame_needed = 0, uses_anonymous_args = 0
 2129              	.LVL229:
 2130 0000 10B5     		push	{r4, lr}
ARM GAS  C:\Users\Phuong\AppData\Local\Temp\ccuEFeTd.s 			page 44


 2131              		.cfi_def_cfa_offset 8
 2132              		.cfi_offset 4, -8
 2133              		.cfi_offset 14, -4
 310:Source\mbedtls_open\library/sha256.c ****     mbedtls_sha256_update_ret( ctx, input, ilen );
 2134              		.loc 1 310 0
 2135 0002 FFF7FEFF 		bl	mbedtls_sha256_update_ret
 2136              	.LVL230:
 311:Source\mbedtls_open\library/sha256.c **** }
 2137              		.loc 1 311 0
 2138              		@ sp needed
 2139 0006 10BD     		pop	{r4, pc}
 2140              		.cfi_endproc
 2141              	.LFE9:
 2142              		.size	mbedtls_sha256_update, .-mbedtls_sha256_update
 2143              		.section	.text.mbedtls_sha256_finish_ret,"ax",%progbits
 2144              		.align	2
 2145              		.global	mbedtls_sha256_finish_ret
 2146              		.code	16
 2147              		.thumb_func
 2148              		.type	mbedtls_sha256_finish_ret, %function
 2149              	mbedtls_sha256_finish_ret:
 2150              	.LFB10:
 312:Source\mbedtls_open\library/sha256.c **** #endif
 313:Source\mbedtls_open\library/sha256.c **** 
 314:Source\mbedtls_open\library/sha256.c **** /*
 315:Source\mbedtls_open\library/sha256.c ****  * SHA-256 final digest
 316:Source\mbedtls_open\library/sha256.c ****  */
 317:Source\mbedtls_open\library/sha256.c **** int mbedtls_sha256_finish_ret( mbedtls_sha256_context *ctx,
 318:Source\mbedtls_open\library/sha256.c ****                                unsigned char output[32] )
 319:Source\mbedtls_open\library/sha256.c **** {
 2151              		.loc 1 319 0
 2152              		.cfi_startproc
 2153              		@ args = 0, pretend = 0, frame = 0
 2154              		@ frame_needed = 0, uses_anonymous_args = 0
 2155              	.LVL231:
 2156 0000 70B5     		push	{r4, r5, r6, lr}
 2157              		.cfi_def_cfa_offset 16
 2158              		.cfi_offset 4, -16
 2159              		.cfi_offset 5, -12
 2160              		.cfi_offset 6, -8
 2161              		.cfi_offset 14, -4
 2162 0002 0400     		movs	r4, r0
 2163 0004 0D00     		movs	r5, r1
 320:Source\mbedtls_open\library/sha256.c ****     int ret;
 321:Source\mbedtls_open\library/sha256.c ****     uint32_t used;
 322:Source\mbedtls_open\library/sha256.c ****     uint32_t high, low;
 323:Source\mbedtls_open\library/sha256.c **** 
 324:Source\mbedtls_open\library/sha256.c ****     /*
 325:Source\mbedtls_open\library/sha256.c ****      * Add padding: 0x80 then 0x00 until 8 bytes remain for the length
 326:Source\mbedtls_open\library/sha256.c ****      */
 327:Source\mbedtls_open\library/sha256.c ****     used = ctx->total[0] & 0x3F;
 2164              		.loc 1 327 0
 2165 0006 3F23     		movs	r3, #63
 2166 0008 0268     		ldr	r2, [r0]
 2167 000a 1340     		ands	r3, r2
 2168              	.LVL232:
 328:Source\mbedtls_open\library/sha256.c **** 
ARM GAS  C:\Users\Phuong\AppData\Local\Temp\ccuEFeTd.s 			page 45


 329:Source\mbedtls_open\library/sha256.c ****     ctx->buffer[used++] = 0x80;
 2169              		.loc 1 329 0
 2170 000c 581C     		adds	r0, r3, #1
 2171              	.LVL233:
 2172 000e E318     		adds	r3, r4, r3
 2173 0010 2833     		adds	r3, r3, #40
 2174 0012 8022     		movs	r2, #128
 2175 0014 1A70     		strb	r2, [r3]
 330:Source\mbedtls_open\library/sha256.c **** 
 331:Source\mbedtls_open\library/sha256.c ****     if( used <= 56 )
 2176              		.loc 1 331 0
 2177 0016 3828     		cmp	r0, #56
 2178 0018 08D8     		bhi	.L42
 332:Source\mbedtls_open\library/sha256.c ****     {
 333:Source\mbedtls_open\library/sha256.c ****         /* Enough room for padding + length in current block */
 334:Source\mbedtls_open\library/sha256.c ****         memset( ctx->buffer + used, 0, 56 - used );
 2179              		.loc 1 334 0
 2180 001a 2300     		movs	r3, r4
 2181 001c 2833     		adds	r3, r3, #40
 2182 001e 483A     		subs	r2, r2, #72
 2183 0020 121A     		subs	r2, r2, r0
 2184 0022 1818     		adds	r0, r3, r0
 2185              	.LVL234:
 2186 0024 0021     		movs	r1, #0
 2187              	.LVL235:
 2188 0026 FFF7FEFF 		bl	memset
 2189              	.LVL236:
 2190 002a 12E0     		b	.L43
 2191              	.LVL237:
 2192              	.L42:
 335:Source\mbedtls_open\library/sha256.c ****     }
 336:Source\mbedtls_open\library/sha256.c ****     else
 337:Source\mbedtls_open\library/sha256.c ****     {
 338:Source\mbedtls_open\library/sha256.c ****         /* We'll need an extra block */
 339:Source\mbedtls_open\library/sha256.c ****         memset( ctx->buffer + used, 0, 64 - used );
 2193              		.loc 1 339 0
 2194 002c 2600     		movs	r6, r4
 2195 002e 2836     		adds	r6, r6, #40
 2196 0030 4022     		movs	r2, #64
 2197 0032 121A     		subs	r2, r2, r0
 2198 0034 3018     		adds	r0, r6, r0
 2199              	.LVL238:
 2200 0036 0021     		movs	r1, #0
 2201              	.LVL239:
 2202 0038 FFF7FEFF 		bl	memset
 2203              	.LVL240:
 340:Source\mbedtls_open\library/sha256.c **** 
 341:Source\mbedtls_open\library/sha256.c ****         if( ( ret = mbedtls_internal_sha256_process( ctx, ctx->buffer ) ) != 0 )
 2204              		.loc 1 341 0
 2205 003c 3100     		movs	r1, r6
 2206 003e 2000     		movs	r0, r4
 2207 0040 FFF7FEFF 		bl	mbedtls_internal_sha256_process
 2208              	.LVL241:
 2209 0044 0028     		cmp	r0, #0
 2210 0046 76D1     		bne	.L44
 342:Source\mbedtls_open\library/sha256.c ****             return( ret );
 343:Source\mbedtls_open\library/sha256.c **** 
ARM GAS  C:\Users\Phuong\AppData\Local\Temp\ccuEFeTd.s 			page 46


 344:Source\mbedtls_open\library/sha256.c ****         memset( ctx->buffer, 0, 56 );
 2211              		.loc 1 344 0
 2212 0048 3822     		movs	r2, #56
 2213 004a 0021     		movs	r1, #0
 2214 004c 3000     		movs	r0, r6
 2215              	.LVL242:
 2216 004e FFF7FEFF 		bl	memset
 2217              	.LVL243:
 2218              	.L43:
 345:Source\mbedtls_open\library/sha256.c ****     }
 346:Source\mbedtls_open\library/sha256.c **** 
 347:Source\mbedtls_open\library/sha256.c ****     /*
 348:Source\mbedtls_open\library/sha256.c ****      * Add message length
 349:Source\mbedtls_open\library/sha256.c ****      */
 350:Source\mbedtls_open\library/sha256.c ****     high = ( ctx->total[0] >> 29 )
 2219              		.loc 1 350 0
 2220 0052 2268     		ldr	r2, [r4]
 2221 0054 510F     		lsrs	r1, r2, #29
 351:Source\mbedtls_open\library/sha256.c ****          | ( ctx->total[1] <<  3 );
 2222              		.loc 1 351 0
 2223 0056 6368     		ldr	r3, [r4, #4]
 2224 0058 DB00     		lsls	r3, r3, #3
 350:Source\mbedtls_open\library/sha256.c ****          | ( ctx->total[1] <<  3 );
 2225              		.loc 1 350 0
 2226 005a 0B43     		orrs	r3, r1
 2227              	.LVL244:
 352:Source\mbedtls_open\library/sha256.c ****     low  = ( ctx->total[0] <<  3 );
 2228              		.loc 1 352 0
 2229 005c D200     		lsls	r2, r2, #3
 2230              	.LVL245:
 353:Source\mbedtls_open\library/sha256.c **** 
 354:Source\mbedtls_open\library/sha256.c ****     PUT_UINT32_BE( high, ctx->buffer, 56 );
 2231              		.loc 1 354 0
 2232 005e 180E     		lsrs	r0, r3, #24
 2233 0060 6021     		movs	r1, #96
 2234 0062 6054     		strb	r0, [r4, r1]
 2235 0064 180C     		lsrs	r0, r3, #16
 2236 0066 0131     		adds	r1, r1, #1
 2237 0068 6054     		strb	r0, [r4, r1]
 2238 006a 180A     		lsrs	r0, r3, #8
 2239 006c 0131     		adds	r1, r1, #1
 2240 006e 6054     		strb	r0, [r4, r1]
 2241 0070 0131     		adds	r1, r1, #1
 2242 0072 6354     		strb	r3, [r4, r1]
 355:Source\mbedtls_open\library/sha256.c ****     PUT_UINT32_BE( low,  ctx->buffer, 60 );
 2243              		.loc 1 355 0
 2244 0074 110E     		lsrs	r1, r2, #24
 2245 0076 6423     		movs	r3, #100
 2246              	.LVL246:
 2247 0078 E154     		strb	r1, [r4, r3]
 2248 007a 110C     		lsrs	r1, r2, #16
 2249 007c 0133     		adds	r3, r3, #1
 2250 007e E154     		strb	r1, [r4, r3]
 2251 0080 110A     		lsrs	r1, r2, #8
 2252 0082 0133     		adds	r3, r3, #1
 2253 0084 E154     		strb	r1, [r4, r3]
 2254 0086 0133     		adds	r3, r3, #1
ARM GAS  C:\Users\Phuong\AppData\Local\Temp\ccuEFeTd.s 			page 47


 2255 0088 E254     		strb	r2, [r4, r3]
 356:Source\mbedtls_open\library/sha256.c **** 
 357:Source\mbedtls_open\library/sha256.c ****     if( ( ret = mbedtls_internal_sha256_process( ctx, ctx->buffer ) ) != 0 )
 2256              		.loc 1 357 0
 2257 008a 2100     		movs	r1, r4
 2258 008c 2831     		adds	r1, r1, #40
 2259 008e 2000     		movs	r0, r4
 2260 0090 FFF7FEFF 		bl	mbedtls_internal_sha256_process
 2261              	.LVL247:
 2262 0094 0028     		cmp	r0, #0
 2263 0096 4ED1     		bne	.L44
 358:Source\mbedtls_open\library/sha256.c ****         return( ret );
 359:Source\mbedtls_open\library/sha256.c **** 
 360:Source\mbedtls_open\library/sha256.c ****     /*
 361:Source\mbedtls_open\library/sha256.c ****      * Output final state
 362:Source\mbedtls_open\library/sha256.c ****      */
 363:Source\mbedtls_open\library/sha256.c ****     PUT_UINT32_BE( ctx->state[0], output,  0 );
 2264              		.loc 1 363 0
 2265 0098 E37A     		ldrb	r3, [r4, #11]
 2266 009a 2B70     		strb	r3, [r5]
 2267 009c A37A     		ldrb	r3, [r4, #10]
 2268 009e 6B70     		strb	r3, [r5, #1]
 2269 00a0 A368     		ldr	r3, [r4, #8]
 2270 00a2 1B0A     		lsrs	r3, r3, #8
 2271 00a4 AB70     		strb	r3, [r5, #2]
 2272 00a6 237A     		ldrb	r3, [r4, #8]
 2273 00a8 EB70     		strb	r3, [r5, #3]
 364:Source\mbedtls_open\library/sha256.c ****     PUT_UINT32_BE( ctx->state[1], output,  4 );
 2274              		.loc 1 364 0
 2275 00aa E37B     		ldrb	r3, [r4, #15]
 2276 00ac 2B71     		strb	r3, [r5, #4]
 2277 00ae A37B     		ldrb	r3, [r4, #14]
 2278 00b0 6B71     		strb	r3, [r5, #5]
 2279 00b2 E368     		ldr	r3, [r4, #12]
 2280 00b4 1B0A     		lsrs	r3, r3, #8
 2281 00b6 AB71     		strb	r3, [r5, #6]
 2282 00b8 237B     		ldrb	r3, [r4, #12]
 2283 00ba EB71     		strb	r3, [r5, #7]
 365:Source\mbedtls_open\library/sha256.c ****     PUT_UINT32_BE( ctx->state[2], output,  8 );
 2284              		.loc 1 365 0
 2285 00bc E37C     		ldrb	r3, [r4, #19]
 2286 00be 2B72     		strb	r3, [r5, #8]
 2287 00c0 A37C     		ldrb	r3, [r4, #18]
 2288 00c2 6B72     		strb	r3, [r5, #9]
 2289 00c4 2369     		ldr	r3, [r4, #16]
 2290 00c6 1B0A     		lsrs	r3, r3, #8
 2291 00c8 AB72     		strb	r3, [r5, #10]
 2292 00ca 237C     		ldrb	r3, [r4, #16]
 2293 00cc EB72     		strb	r3, [r5, #11]
 366:Source\mbedtls_open\library/sha256.c ****     PUT_UINT32_BE( ctx->state[3], output, 12 );
 2294              		.loc 1 366 0
 2295 00ce E37D     		ldrb	r3, [r4, #23]
 2296 00d0 2B73     		strb	r3, [r5, #12]
 2297 00d2 A37D     		ldrb	r3, [r4, #22]
 2298 00d4 6B73     		strb	r3, [r5, #13]
 2299 00d6 6369     		ldr	r3, [r4, #20]
 2300 00d8 1B0A     		lsrs	r3, r3, #8
ARM GAS  C:\Users\Phuong\AppData\Local\Temp\ccuEFeTd.s 			page 48


 2301 00da AB73     		strb	r3, [r5, #14]
 2302 00dc 237D     		ldrb	r3, [r4, #20]
 2303 00de EB73     		strb	r3, [r5, #15]
 367:Source\mbedtls_open\library/sha256.c ****     PUT_UINT32_BE( ctx->state[4], output, 16 );
 2304              		.loc 1 367 0
 2305 00e0 E37E     		ldrb	r3, [r4, #27]
 2306 00e2 2B74     		strb	r3, [r5, #16]
 2307 00e4 A37E     		ldrb	r3, [r4, #26]
 2308 00e6 6B74     		strb	r3, [r5, #17]
 2309 00e8 A369     		ldr	r3, [r4, #24]
 2310 00ea 1B0A     		lsrs	r3, r3, #8
 2311 00ec AB74     		strb	r3, [r5, #18]
 2312 00ee 237E     		ldrb	r3, [r4, #24]
 2313 00f0 EB74     		strb	r3, [r5, #19]
 368:Source\mbedtls_open\library/sha256.c ****     PUT_UINT32_BE( ctx->state[5], output, 20 );
 2314              		.loc 1 368 0
 2315 00f2 E37F     		ldrb	r3, [r4, #31]
 2316 00f4 2B75     		strb	r3, [r5, #20]
 2317 00f6 A37F     		ldrb	r3, [r4, #30]
 2318 00f8 6B75     		strb	r3, [r5, #21]
 2319 00fa E369     		ldr	r3, [r4, #28]
 2320 00fc 1B0A     		lsrs	r3, r3, #8
 2321 00fe AB75     		strb	r3, [r5, #22]
 2322 0100 237F     		ldrb	r3, [r4, #28]
 2323 0102 EB75     		strb	r3, [r5, #23]
 369:Source\mbedtls_open\library/sha256.c ****     PUT_UINT32_BE( ctx->state[6], output, 24 );
 2324              		.loc 1 369 0
 2325 0104 236A     		ldr	r3, [r4, #32]
 2326 0106 1B0E     		lsrs	r3, r3, #24
 2327 0108 2B76     		strb	r3, [r5, #24]
 2328 010a 638C     		ldrh	r3, [r4, #34]
 2329 010c 6B76     		strb	r3, [r5, #25]
 2330 010e 236A     		ldr	r3, [r4, #32]
 2331 0110 1B0A     		lsrs	r3, r3, #8
 2332 0112 AB76     		strb	r3, [r5, #26]
 2333 0114 236A     		ldr	r3, [r4, #32]
 2334 0116 EB76     		strb	r3, [r5, #27]
 370:Source\mbedtls_open\library/sha256.c **** 
 371:Source\mbedtls_open\library/sha256.c ****     if( ctx->is224 == 0 )
 2335              		.loc 1 371 0
 2336 0118 A06E     		ldr	r0, [r4, #104]
 2337              	.LVL248:
 2338 011a 0028     		cmp	r0, #0
 2339 011c 0AD1     		bne	.L47
 372:Source\mbedtls_open\library/sha256.c ****         PUT_UINT32_BE( ctx->state[7], output, 28 );
 2340              		.loc 1 372 0
 2341 011e 636A     		ldr	r3, [r4, #36]
 2342 0120 1B0E     		lsrs	r3, r3, #24
 2343 0122 2B77     		strb	r3, [r5, #28]
 2344 0124 E38C     		ldrh	r3, [r4, #38]
 2345 0126 6B77     		strb	r3, [r5, #29]
 2346 0128 636A     		ldr	r3, [r4, #36]
 2347 012a 1B0A     		lsrs	r3, r3, #8
 2348 012c AB77     		strb	r3, [r5, #30]
 2349 012e 636A     		ldr	r3, [r4, #36]
 2350 0130 EB77     		strb	r3, [r5, #31]
 2351 0132 00E0     		b	.L44
ARM GAS  C:\Users\Phuong\AppData\Local\Temp\ccuEFeTd.s 			page 49


 2352              	.L47:
 373:Source\mbedtls_open\library/sha256.c **** 
 374:Source\mbedtls_open\library/sha256.c ****     return( 0 );
 2353              		.loc 1 374 0
 2354 0134 0020     		movs	r0, #0
 2355              	.L44:
 375:Source\mbedtls_open\library/sha256.c **** }
 2356              		.loc 1 375 0
 2357              		@ sp needed
 2358              	.LVL249:
 2359              	.LVL250:
 2360 0136 70BD     		pop	{r4, r5, r6, pc}
 2361              		.cfi_endproc
 2362              	.LFE10:
 2363              		.size	mbedtls_sha256_finish_ret, .-mbedtls_sha256_finish_ret
 2364              		.section	.text.mbedtls_sha256_finish,"ax",%progbits
 2365              		.align	2
 2366              		.global	mbedtls_sha256_finish
 2367              		.code	16
 2368              		.thumb_func
 2369              		.type	mbedtls_sha256_finish, %function
 2370              	mbedtls_sha256_finish:
 2371              	.LFB11:
 376:Source\mbedtls_open\library/sha256.c **** 
 377:Source\mbedtls_open\library/sha256.c **** #if !defined(MBEDTLS_DEPRECATED_REMOVED)
 378:Source\mbedtls_open\library/sha256.c **** void mbedtls_sha256_finish( mbedtls_sha256_context *ctx,
 379:Source\mbedtls_open\library/sha256.c ****                             unsigned char output[32] )
 380:Source\mbedtls_open\library/sha256.c **** {
 2372              		.loc 1 380 0
 2373              		.cfi_startproc
 2374              		@ args = 0, pretend = 0, frame = 0
 2375              		@ frame_needed = 0, uses_anonymous_args = 0
 2376              	.LVL251:
 2377 0000 10B5     		push	{r4, lr}
 2378              		.cfi_def_cfa_offset 8
 2379              		.cfi_offset 4, -8
 2380              		.cfi_offset 14, -4
 381:Source\mbedtls_open\library/sha256.c ****     mbedtls_sha256_finish_ret( ctx, output );
 2381              		.loc 1 381 0
 2382 0002 FFF7FEFF 		bl	mbedtls_sha256_finish_ret
 2383              	.LVL252:
 382:Source\mbedtls_open\library/sha256.c **** }
 2384              		.loc 1 382 0
 2385              		@ sp needed
 2386 0006 10BD     		pop	{r4, pc}
 2387              		.cfi_endproc
 2388              	.LFE11:
 2389              		.size	mbedtls_sha256_finish, .-mbedtls_sha256_finish
 2390              		.section	.text.mbedtls_sha256_ret,"ax",%progbits
 2391              		.align	2
 2392              		.global	mbedtls_sha256_ret
 2393              		.code	16
 2394              		.thumb_func
 2395              		.type	mbedtls_sha256_ret, %function
 2396              	mbedtls_sha256_ret:
 2397              	.LFB12:
 383:Source\mbedtls_open\library/sha256.c **** #endif
ARM GAS  C:\Users\Phuong\AppData\Local\Temp\ccuEFeTd.s 			page 50


 384:Source\mbedtls_open\library/sha256.c **** 
 385:Source\mbedtls_open\library/sha256.c **** #endif /* !MBEDTLS_SHA256_ALT */
 386:Source\mbedtls_open\library/sha256.c **** 
 387:Source\mbedtls_open\library/sha256.c **** /*
 388:Source\mbedtls_open\library/sha256.c ****  * output = SHA-256( input buffer )
 389:Source\mbedtls_open\library/sha256.c ****  */
 390:Source\mbedtls_open\library/sha256.c **** int mbedtls_sha256_ret( const unsigned char *input,
 391:Source\mbedtls_open\library/sha256.c ****                         size_t ilen,
 392:Source\mbedtls_open\library/sha256.c ****                         unsigned char output[32],
 393:Source\mbedtls_open\library/sha256.c ****                         int is224 )
 394:Source\mbedtls_open\library/sha256.c **** {
 2398              		.loc 1 394 0
 2399              		.cfi_startproc
 2400              		@ args = 0, pretend = 0, frame = 112
 2401              		@ frame_needed = 0, uses_anonymous_args = 0
 2402              	.LVL253:
 2403 0000 F0B5     		push	{r4, r5, r6, r7, lr}
 2404              		.cfi_def_cfa_offset 20
 2405              		.cfi_offset 4, -20
 2406              		.cfi_offset 5, -16
 2407              		.cfi_offset 6, -12
 2408              		.cfi_offset 7, -8
 2409              		.cfi_offset 14, -4
 2410 0002 9DB0     		sub	sp, sp, #116
 2411              		.cfi_def_cfa_offset 136
 2412 0004 0500     		movs	r5, r0
 2413 0006 0E00     		movs	r6, r1
 2414 0008 1700     		movs	r7, r2
 2415 000a 1C00     		movs	r4, r3
 395:Source\mbedtls_open\library/sha256.c ****     int ret;
 396:Source\mbedtls_open\library/sha256.c ****     mbedtls_sha256_context ctx;
 397:Source\mbedtls_open\library/sha256.c **** 
 398:Source\mbedtls_open\library/sha256.c ****     mbedtls_sha256_init( &ctx );
 2416              		.loc 1 398 0
 2417 000c 01A8     		add	r0, sp, #4
 2418              	.LVL254:
 2419 000e FFF7FEFF 		bl	mbedtls_sha256_init
 2420              	.LVL255:
 399:Source\mbedtls_open\library/sha256.c **** 
 400:Source\mbedtls_open\library/sha256.c ****     if( ( ret = mbedtls_sha256_starts_ret( &ctx, is224 ) ) != 0 )
 2421              		.loc 1 400 0
 2422 0012 2100     		movs	r1, r4
 2423 0014 01A8     		add	r0, sp, #4
 2424 0016 FFF7FEFF 		bl	mbedtls_sha256_starts_ret
 2425              	.LVL256:
 2426 001a 041E     		subs	r4, r0, #0
 2427              	.LVL257:
 2428 001c 0BD1     		bne	.L50
 401:Source\mbedtls_open\library/sha256.c ****         goto exit;
 402:Source\mbedtls_open\library/sha256.c **** 
 403:Source\mbedtls_open\library/sha256.c ****     if( ( ret = mbedtls_sha256_update_ret( &ctx, input, ilen ) ) != 0 )
 2429              		.loc 1 403 0
 2430 001e 3200     		movs	r2, r6
 2431 0020 2900     		movs	r1, r5
 2432 0022 01A8     		add	r0, sp, #4
 2433              	.LVL258:
 2434 0024 FFF7FEFF 		bl	mbedtls_sha256_update_ret
ARM GAS  C:\Users\Phuong\AppData\Local\Temp\ccuEFeTd.s 			page 51


 2435              	.LVL259:
 2436 0028 041E     		subs	r4, r0, #0
 2437              	.LVL260:
 2438 002a 04D1     		bne	.L50
 404:Source\mbedtls_open\library/sha256.c ****         goto exit;
 405:Source\mbedtls_open\library/sha256.c **** 
 406:Source\mbedtls_open\library/sha256.c ****     if( ( ret = mbedtls_sha256_finish_ret( &ctx, output ) ) != 0 )
 2439              		.loc 1 406 0
 2440 002c 3900     		movs	r1, r7
 2441 002e 01A8     		add	r0, sp, #4
 2442              	.LVL261:
 2443 0030 FFF7FEFF 		bl	mbedtls_sha256_finish_ret
 2444              	.LVL262:
 2445 0034 0400     		movs	r4, r0
 2446              	.LVL263:
 2447              	.L50:
 407:Source\mbedtls_open\library/sha256.c ****         goto exit;
 408:Source\mbedtls_open\library/sha256.c **** 
 409:Source\mbedtls_open\library/sha256.c **** exit:
 410:Source\mbedtls_open\library/sha256.c ****     mbedtls_sha256_free( &ctx );
 2448              		.loc 1 410 0
 2449 0036 01A8     		add	r0, sp, #4
 2450              	.LVL264:
 2451 0038 FFF7FEFF 		bl	mbedtls_sha256_free
 2452              	.LVL265:
 411:Source\mbedtls_open\library/sha256.c **** 
 412:Source\mbedtls_open\library/sha256.c ****     return( ret );
 413:Source\mbedtls_open\library/sha256.c **** }
 2453              		.loc 1 413 0
 2454 003c 2000     		movs	r0, r4
 2455 003e 1DB0     		add	sp, sp, #116
 2456              		@ sp needed
 2457              	.LVL266:
 2458              	.LVL267:
 2459              	.LVL268:
 2460              	.LVL269:
 2461 0040 F0BD     		pop	{r4, r5, r6, r7, pc}
 2462              		.cfi_endproc
 2463              	.LFE12:
 2464              		.size	mbedtls_sha256_ret, .-mbedtls_sha256_ret
 2465 0042 C046     		.section	.text.mbedtls_sha256,"ax",%progbits
 2466              		.align	2
 2467              		.global	mbedtls_sha256
 2468              		.code	16
 2469              		.thumb_func
 2470              		.type	mbedtls_sha256, %function
 2471              	mbedtls_sha256:
 2472              	.LFB13:
 414:Source\mbedtls_open\library/sha256.c **** 
 415:Source\mbedtls_open\library/sha256.c **** #if !defined(MBEDTLS_DEPRECATED_REMOVED)
 416:Source\mbedtls_open\library/sha256.c **** void mbedtls_sha256( const unsigned char *input,
 417:Source\mbedtls_open\library/sha256.c ****                      size_t ilen,
 418:Source\mbedtls_open\library/sha256.c ****                      unsigned char output[32],
 419:Source\mbedtls_open\library/sha256.c ****                      int is224 )
 420:Source\mbedtls_open\library/sha256.c **** {
 2473              		.loc 1 420 0
 2474              		.cfi_startproc
ARM GAS  C:\Users\Phuong\AppData\Local\Temp\ccuEFeTd.s 			page 52


 2475              		@ args = 0, pretend = 0, frame = 0
 2476              		@ frame_needed = 0, uses_anonymous_args = 0
 2477              	.LVL270:
 2478 0000 10B5     		push	{r4, lr}
 2479              		.cfi_def_cfa_offset 8
 2480              		.cfi_offset 4, -8
 2481              		.cfi_offset 14, -4
 421:Source\mbedtls_open\library/sha256.c ****     mbedtls_sha256_ret( input, ilen, output, is224 );
 2482              		.loc 1 421 0
 2483 0002 FFF7FEFF 		bl	mbedtls_sha256_ret
 2484              	.LVL271:
 422:Source\mbedtls_open\library/sha256.c **** }
 2485              		.loc 1 422 0
 2486              		@ sp needed
 2487 0006 10BD     		pop	{r4, pc}
 2488              		.cfi_endproc
 2489              	.LFE13:
 2490              		.size	mbedtls_sha256, .-mbedtls_sha256
 2491              		.global	__aeabi_idivmod
 2492              		.section	.text.mbedtls_sha256_self_test,"ax",%progbits
 2493              		.align	2
 2494              		.global	mbedtls_sha256_self_test
 2495              		.code	16
 2496              		.thumb_func
 2497              		.type	mbedtls_sha256_self_test, %function
 2498              	mbedtls_sha256_self_test:
 2499              	.LFB14:
 423:Source\mbedtls_open\library/sha256.c **** #endif
 424:Source\mbedtls_open\library/sha256.c **** 
 425:Source\mbedtls_open\library/sha256.c **** #if defined(MBEDTLS_SELF_TEST)
 426:Source\mbedtls_open\library/sha256.c **** /*
 427:Source\mbedtls_open\library/sha256.c ****  * FIPS-180-2 test vectors
 428:Source\mbedtls_open\library/sha256.c ****  */
 429:Source\mbedtls_open\library/sha256.c **** static const unsigned char sha256_test_buf[3][57] =
 430:Source\mbedtls_open\library/sha256.c **** {
 431:Source\mbedtls_open\library/sha256.c ****     { "abc" },
 432:Source\mbedtls_open\library/sha256.c ****     { "abcdbcdecdefdefgefghfghighijhijkijkljklmklmnlmnomnopnopq" },
 433:Source\mbedtls_open\library/sha256.c ****     { "" }
 434:Source\mbedtls_open\library/sha256.c **** };
 435:Source\mbedtls_open\library/sha256.c **** 
 436:Source\mbedtls_open\library/sha256.c **** static const size_t sha256_test_buflen[3] =
 437:Source\mbedtls_open\library/sha256.c **** {
 438:Source\mbedtls_open\library/sha256.c ****     3, 56, 1000
 439:Source\mbedtls_open\library/sha256.c **** };
 440:Source\mbedtls_open\library/sha256.c **** 
 441:Source\mbedtls_open\library/sha256.c **** static const unsigned char sha256_test_sum[6][32] =
 442:Source\mbedtls_open\library/sha256.c **** {
 443:Source\mbedtls_open\library/sha256.c ****     /*
 444:Source\mbedtls_open\library/sha256.c ****      * SHA-224 test vectors
 445:Source\mbedtls_open\library/sha256.c ****      */
 446:Source\mbedtls_open\library/sha256.c ****     { 0x23, 0x09, 0x7D, 0x22, 0x34, 0x05, 0xD8, 0x22,
 447:Source\mbedtls_open\library/sha256.c ****       0x86, 0x42, 0xA4, 0x77, 0xBD, 0xA2, 0x55, 0xB3,
 448:Source\mbedtls_open\library/sha256.c ****       0x2A, 0xAD, 0xBC, 0xE4, 0xBD, 0xA0, 0xB3, 0xF7,
 449:Source\mbedtls_open\library/sha256.c ****       0xE3, 0x6C, 0x9D, 0xA7 },
 450:Source\mbedtls_open\library/sha256.c ****     { 0x75, 0x38, 0x8B, 0x16, 0x51, 0x27, 0x76, 0xCC,
 451:Source\mbedtls_open\library/sha256.c ****       0x5D, 0xBA, 0x5D, 0xA1, 0xFD, 0x89, 0x01, 0x50,
 452:Source\mbedtls_open\library/sha256.c ****       0xB0, 0xC6, 0x45, 0x5C, 0xB4, 0xF5, 0x8B, 0x19,
ARM GAS  C:\Users\Phuong\AppData\Local\Temp\ccuEFeTd.s 			page 53


 453:Source\mbedtls_open\library/sha256.c ****       0x52, 0x52, 0x25, 0x25 },
 454:Source\mbedtls_open\library/sha256.c ****     { 0x20, 0x79, 0x46, 0x55, 0x98, 0x0C, 0x91, 0xD8,
 455:Source\mbedtls_open\library/sha256.c ****       0xBB, 0xB4, 0xC1, 0xEA, 0x97, 0x61, 0x8A, 0x4B,
 456:Source\mbedtls_open\library/sha256.c ****       0xF0, 0x3F, 0x42, 0x58, 0x19, 0x48, 0xB2, 0xEE,
 457:Source\mbedtls_open\library/sha256.c ****       0x4E, 0xE7, 0xAD, 0x67 },
 458:Source\mbedtls_open\library/sha256.c **** 
 459:Source\mbedtls_open\library/sha256.c ****     /*
 460:Source\mbedtls_open\library/sha256.c ****      * SHA-256 test vectors
 461:Source\mbedtls_open\library/sha256.c ****      */
 462:Source\mbedtls_open\library/sha256.c ****     { 0xBA, 0x78, 0x16, 0xBF, 0x8F, 0x01, 0xCF, 0xEA,
 463:Source\mbedtls_open\library/sha256.c ****       0x41, 0x41, 0x40, 0xDE, 0x5D, 0xAE, 0x22, 0x23,
 464:Source\mbedtls_open\library/sha256.c ****       0xB0, 0x03, 0x61, 0xA3, 0x96, 0x17, 0x7A, 0x9C,
 465:Source\mbedtls_open\library/sha256.c ****       0xB4, 0x10, 0xFF, 0x61, 0xF2, 0x00, 0x15, 0xAD },
 466:Source\mbedtls_open\library/sha256.c ****     { 0x24, 0x8D, 0x6A, 0x61, 0xD2, 0x06, 0x38, 0xB8,
 467:Source\mbedtls_open\library/sha256.c ****       0xE5, 0xC0, 0x26, 0x93, 0x0C, 0x3E, 0x60, 0x39,
 468:Source\mbedtls_open\library/sha256.c ****       0xA3, 0x3C, 0xE4, 0x59, 0x64, 0xFF, 0x21, 0x67,
 469:Source\mbedtls_open\library/sha256.c ****       0xF6, 0xEC, 0xED, 0xD4, 0x19, 0xDB, 0x06, 0xC1 },
 470:Source\mbedtls_open\library/sha256.c ****     { 0xCD, 0xC7, 0x6E, 0x5C, 0x99, 0x14, 0xFB, 0x92,
 471:Source\mbedtls_open\library/sha256.c ****       0x81, 0xA1, 0xC7, 0xE2, 0x84, 0xD7, 0x3E, 0x67,
 472:Source\mbedtls_open\library/sha256.c ****       0xF1, 0x80, 0x9A, 0x48, 0xA4, 0x97, 0x20, 0x0E,
 473:Source\mbedtls_open\library/sha256.c ****       0x04, 0x6D, 0x39, 0xCC, 0xC7, 0x11, 0x2C, 0xD0 }
 474:Source\mbedtls_open\library/sha256.c **** };
 475:Source\mbedtls_open\library/sha256.c **** 
 476:Source\mbedtls_open\library/sha256.c **** /*
 477:Source\mbedtls_open\library/sha256.c ****  * Checkup routine
 478:Source\mbedtls_open\library/sha256.c ****  */
 479:Source\mbedtls_open\library/sha256.c **** int mbedtls_sha256_self_test( int verbose )
 480:Source\mbedtls_open\library/sha256.c **** {
 2500              		.loc 1 480 0
 2501              		.cfi_startproc
 2502              		@ args = 0, pretend = 0, frame = 152
 2503              		@ frame_needed = 0, uses_anonymous_args = 0
 2504              	.LVL272:
 2505 0000 F0B5     		push	{r4, r5, r6, r7, lr}
 2506              		.cfi_def_cfa_offset 20
 2507              		.cfi_offset 4, -20
 2508              		.cfi_offset 5, -16
 2509              		.cfi_offset 6, -12
 2510              		.cfi_offset 7, -8
 2511              		.cfi_offset 14, -4
 2512 0002 4746     		mov	r7, r8
 2513 0004 80B4     		push	{r7}
 2514              		.cfi_def_cfa_offset 24
 2515              		.cfi_offset 8, -24
 2516 0006 A6B0     		sub	sp, sp, #152
 2517              		.cfi_def_cfa_offset 176
 2518 0008 8046     		mov	r8, r0
 2519              	.LVL273:
 481:Source\mbedtls_open\library/sha256.c ****     int i, j, k, buflen, ret = 0;
 482:Source\mbedtls_open\library/sha256.c ****     unsigned char *buf;
 483:Source\mbedtls_open\library/sha256.c ****     unsigned char sha256sum[32];
 484:Source\mbedtls_open\library/sha256.c ****     mbedtls_sha256_context ctx;
 485:Source\mbedtls_open\library/sha256.c **** 
 486:Source\mbedtls_open\library/sha256.c ****     buf = mbedtls_calloc( 1024, sizeof(unsigned char) );
 2520              		.loc 1 486 0
 2521 000a 0121     		movs	r1, #1
 2522 000c 8020     		movs	r0, #128
ARM GAS  C:\Users\Phuong\AppData\Local\Temp\ccuEFeTd.s 			page 54


 2523              	.LVL274:
 2524 000e C000     		lsls	r0, r0, #3
 2525 0010 FFF7FEFF 		bl	calloc
 2526              	.LVL275:
 2527 0014 0190     		str	r0, [sp, #4]
 2528              	.LVL276:
 487:Source\mbedtls_open\library/sha256.c ****     if( NULL == buf )
 2529              		.loc 1 487 0
 2530 0016 0028     		cmp	r0, #0
 2531 0018 08D1     		bne	.L53
 488:Source\mbedtls_open\library/sha256.c ****     {
 489:Source\mbedtls_open\library/sha256.c ****         if( verbose != 0 )
 2532              		.loc 1 489 0
 2533 001a 4346     		mov	r3, r8
 2534 001c 002B     		cmp	r3, #0
 2535 001e 00D1     		bne	.LCB2685
 2536 0020 7CE0     		b	.L65	@long jump
 2537              	.LCB2685:
 490:Source\mbedtls_open\library/sha256.c ****             mbedtls_printf( "Buffer allocation failed\n" );
 2538              		.loc 1 490 0
 2539 0022 4148     		ldr	r0, .L67
 2540              	.LVL277:
 2541 0024 FFF7FEFF 		bl	puts
 2542              	.LVL278:
 491:Source\mbedtls_open\library/sha256.c **** 
 492:Source\mbedtls_open\library/sha256.c ****         return( 1 );
 2543              		.loc 1 492 0
 2544 0028 0120     		movs	r0, #1
 2545 002a 78E0     		b	.L54
 2546              	.LVL279:
 2547              	.L53:
 493:Source\mbedtls_open\library/sha256.c ****     }
 494:Source\mbedtls_open\library/sha256.c **** 
 495:Source\mbedtls_open\library/sha256.c ****     mbedtls_sha256_init( &ctx );
 2548              		.loc 1 495 0
 2549 002c 03A8     		add	r0, sp, #12
 2550              	.LVL280:
 2551 002e FFF7FEFF 		bl	mbedtls_sha256_init
 2552              	.LVL281:
 481:Source\mbedtls_open\library/sha256.c ****     unsigned char *buf;
 2553              		.loc 1 481 0
 2554 0032 0024     		movs	r4, #0
 496:Source\mbedtls_open\library/sha256.c **** 
 497:Source\mbedtls_open\library/sha256.c ****     for( i = 0; i < 6; i++ )
 2555              		.loc 1 497 0
 2556 0034 0026     		movs	r6, #0
 2557 0036 59E0     		b	.L55
 2558              	.LVL282:
 2559              	.L63:
 498:Source\mbedtls_open\library/sha256.c ****     {
 499:Source\mbedtls_open\library/sha256.c ****         j = i % 3;
 2560              		.loc 1 499 0
 2561 0038 0321     		movs	r1, #3
 2562 003a 3000     		movs	r0, r6
 2563 003c FFF7FEFF 		bl	__aeabi_idivmod
 2564              	.LVL283:
 2565 0040 0D00     		movs	r5, r1
ARM GAS  C:\Users\Phuong\AppData\Local\Temp\ccuEFeTd.s 			page 55


 2566              	.LVL284:
 500:Source\mbedtls_open\library/sha256.c ****         k = i < 3;
 2567              		.loc 1 500 0
 2568 0042 F70F     		lsrs	r7, r6, #31
 2569 0044 0023     		movs	r3, #0
 2570 0046 0221     		movs	r1, #2
 2571              	.LVL285:
 2572 0048 B142     		cmp	r1, r6
 2573 004a 5F41     		adcs	r7, r7, r3
 2574 004c FFB2     		uxtb	r7, r7
 2575              	.LVL286:
 501:Source\mbedtls_open\library/sha256.c **** 
 502:Source\mbedtls_open\library/sha256.c ****         if( verbose != 0 )
 2576              		.loc 1 502 0
 2577 004e 4346     		mov	r3, r8
 2578 0050 002B     		cmp	r3, #0
 2579 0052 06D0     		beq	.L56
 2580              	.LVL287:
 503:Source\mbedtls_open\library/sha256.c ****             mbedtls_printf( "  SHA-%d test #%d: ", 256 - k * 32, j + 1 );
 2581              		.loc 1 503 0
 2582 0054 0631     		adds	r1, r1, #6
 2583 0056 C91B     		subs	r1, r1, r7
 2584 0058 6A1C     		adds	r2, r5, #1
 2585 005a 4901     		lsls	r1, r1, #5
 2586 005c 3348     		ldr	r0, .L67+4
 2587 005e FFF7FEFF 		bl	printf
 2588              	.LVL288:
 2589              	.L56:
 504:Source\mbedtls_open\library/sha256.c **** 
 505:Source\mbedtls_open\library/sha256.c ****         if( ( ret = mbedtls_sha256_starts_ret( &ctx, k ) ) != 0 )
 2590              		.loc 1 505 0
 2591 0062 3900     		movs	r1, r7
 2592 0064 03A8     		add	r0, sp, #12
 2593 0066 FFF7FEFF 		bl	mbedtls_sha256_starts_ret
 2594              	.LVL289:
 2595 006a 041E     		subs	r4, r0, #0
 2596              	.LVL290:
 2597 006c 48D1     		bne	.L57
 506:Source\mbedtls_open\library/sha256.c ****             goto fail;
 507:Source\mbedtls_open\library/sha256.c **** 
 508:Source\mbedtls_open\library/sha256.c ****         if( j == 2 )
 2598              		.loc 1 508 0
 2599 006e 022D     		cmp	r5, #2
 2600 0070 14D1     		bne	.L58
 2601              	.LVL291:
 509:Source\mbedtls_open\library/sha256.c ****         {
 510:Source\mbedtls_open\library/sha256.c ****             memset( buf, 'a', buflen = 1000 );
 2602              		.loc 1 510 0
 2603 0072 FA22     		movs	r2, #250
 2604 0074 9200     		lsls	r2, r2, #2
 2605 0076 6121     		movs	r1, #97
 2606 0078 0198     		ldr	r0, [sp, #4]
 2607              	.LVL292:
 2608 007a FFF7FEFF 		bl	memset
 2609              	.LVL293:
 511:Source\mbedtls_open\library/sha256.c **** 
 512:Source\mbedtls_open\library/sha256.c ****             for( j = 0; j < 1000; j++ )
ARM GAS  C:\Users\Phuong\AppData\Local\Temp\ccuEFeTd.s 			page 56


 2610              		.loc 1 512 0
 2611 007e 0025     		movs	r5, #0
 2612 0080 08E0     		b	.L59
 2613              	.LVL294:
 2614              	.L60:
 513:Source\mbedtls_open\library/sha256.c ****             {
 514:Source\mbedtls_open\library/sha256.c ****                 ret = mbedtls_sha256_update_ret( &ctx, buf, buflen );
 2615              		.loc 1 514 0
 2616 0082 FA22     		movs	r2, #250
 2617 0084 9200     		lsls	r2, r2, #2
 2618 0086 0199     		ldr	r1, [sp, #4]
 2619 0088 03A8     		add	r0, sp, #12
 2620 008a FFF7FEFF 		bl	mbedtls_sha256_update_ret
 2621              	.LVL295:
 2622 008e 041E     		subs	r4, r0, #0
 2623              	.LVL296:
 515:Source\mbedtls_open\library/sha256.c ****                 if( ret != 0 )
 2624              		.loc 1 515 0
 2625 0090 36D1     		bne	.L57
 512:Source\mbedtls_open\library/sha256.c ****             {
 2626              		.loc 1 512 0 discriminator 2
 2627 0092 0135     		adds	r5, r5, #1
 2628              	.LVL297:
 2629              	.L59:
 512:Source\mbedtls_open\library/sha256.c ****             {
 2630              		.loc 1 512 0 is_stmt 0 discriminator 1
 2631 0094 264B     		ldr	r3, .L67+8
 2632 0096 9D42     		cmp	r5, r3
 2633 0098 F3DD     		ble	.L60
 2634 009a 0EE0     		b	.L61
 2635              	.LVL298:
 2636              	.L58:
 516:Source\mbedtls_open\library/sha256.c ****                     goto fail;
 517:Source\mbedtls_open\library/sha256.c ****             }
 518:Source\mbedtls_open\library/sha256.c **** 
 519:Source\mbedtls_open\library/sha256.c ****         }
 520:Source\mbedtls_open\library/sha256.c ****         else
 521:Source\mbedtls_open\library/sha256.c ****         {
 522:Source\mbedtls_open\library/sha256.c ****             ret = mbedtls_sha256_update_ret( &ctx, sha256_test_buf[j],
 2637              		.loc 1 522 0 is_stmt 1
 2638 009c E900     		lsls	r1, r5, #3
 2639 009e 491B     		subs	r1, r1, r5
 2640 00a0 C900     		lsls	r1, r1, #3
 2641 00a2 4919     		adds	r1, r1, r5
 2642 00a4 234B     		ldr	r3, .L67+12
 2643 00a6 5918     		adds	r1, r3, r1
 2644 00a8 AD00     		lsls	r5, r5, #2
 2645              	.LVL299:
 2646 00aa 234B     		ldr	r3, .L67+16
 2647 00ac 5D19     		adds	r5, r3, r5
 2648 00ae EA6A     		ldr	r2, [r5, #44]
 2649 00b0 03A8     		add	r0, sp, #12
 2650              	.LVL300:
 2651 00b2 FFF7FEFF 		bl	mbedtls_sha256_update_ret
 2652              	.LVL301:
 2653 00b6 041E     		subs	r4, r0, #0
 2654              	.LVL302:
ARM GAS  C:\Users\Phuong\AppData\Local\Temp\ccuEFeTd.s 			page 57


 523:Source\mbedtls_open\library/sha256.c ****                                              sha256_test_buflen[j] );
 524:Source\mbedtls_open\library/sha256.c ****             if( ret != 0 )
 2655              		.loc 1 524 0
 2656 00b8 22D1     		bne	.L57
 2657              	.LVL303:
 2658              	.L61:
 525:Source\mbedtls_open\library/sha256.c ****                  goto fail;
 526:Source\mbedtls_open\library/sha256.c ****         }
 527:Source\mbedtls_open\library/sha256.c **** 
 528:Source\mbedtls_open\library/sha256.c ****         if( ( ret = mbedtls_sha256_finish_ret( &ctx, sha256sum ) ) != 0 )
 2659              		.loc 1 528 0
 2660 00ba 1EA9     		add	r1, sp, #120
 2661 00bc 03A8     		add	r0, sp, #12
 2662 00be FFF7FEFF 		bl	mbedtls_sha256_finish_ret
 2663              	.LVL304:
 2664 00c2 041E     		subs	r4, r0, #0
 2665              	.LVL305:
 2666 00c4 1CD1     		bne	.L57
 529:Source\mbedtls_open\library/sha256.c ****             goto fail;
 530:Source\mbedtls_open\library/sha256.c **** 
 531:Source\mbedtls_open\library/sha256.c **** 
 532:Source\mbedtls_open\library/sha256.c ****         if( memcmp( sha256sum, sha256_test_sum[i], 32 - k * 4 ) != 0 )
 2667              		.loc 1 532 0
 2668 00c6 7301     		lsls	r3, r6, #5
 2669 00c8 1B49     		ldr	r1, .L67+16
 2670 00ca 3831     		adds	r1, r1, #56
 2671 00cc C918     		adds	r1, r1, r3
 2672 00ce 0822     		movs	r2, #8
 2673 00d0 D21B     		subs	r2, r2, r7
 2674 00d2 9200     		lsls	r2, r2, #2
 2675 00d4 1EA8     		add	r0, sp, #120
 2676              	.LVL306:
 2677 00d6 FFF7FEFF 		bl	memcmp
 2678              	.LVL307:
 2679 00da 0028     		cmp	r0, #0
 2680 00dc 0FD1     		bne	.L66
 533:Source\mbedtls_open\library/sha256.c ****         {
 534:Source\mbedtls_open\library/sha256.c ****             ret = 1;
 535:Source\mbedtls_open\library/sha256.c ****             goto fail;
 536:Source\mbedtls_open\library/sha256.c ****         }
 537:Source\mbedtls_open\library/sha256.c **** 
 538:Source\mbedtls_open\library/sha256.c ****         if( verbose != 0 )
 2681              		.loc 1 538 0
 2682 00de 4346     		mov	r3, r8
 2683 00e0 002B     		cmp	r3, #0
 2684 00e2 02D0     		beq	.L62
 2685              	.LVL308:
 539:Source\mbedtls_open\library/sha256.c ****             mbedtls_printf( "passed\n" );
 2686              		.loc 1 539 0
 2687 00e4 1548     		ldr	r0, .L67+20
 2688 00e6 FFF7FEFF 		bl	puts
 2689              	.LVL309:
 2690              	.L62:
 497:Source\mbedtls_open\library/sha256.c ****     {
 2691              		.loc 1 497 0 discriminator 2
 2692 00ea 0136     		adds	r6, r6, #1
 2693              	.LVL310:
ARM GAS  C:\Users\Phuong\AppData\Local\Temp\ccuEFeTd.s 			page 58


 2694              	.L55:
 497:Source\mbedtls_open\library/sha256.c ****     {
 2695              		.loc 1 497 0 is_stmt 0 discriminator 1
 2696 00ec 052E     		cmp	r6, #5
 2697 00ee A3DD     		ble	.L63
 540:Source\mbedtls_open\library/sha256.c ****     }
 541:Source\mbedtls_open\library/sha256.c **** 
 542:Source\mbedtls_open\library/sha256.c ****     if( verbose != 0 )
 2698              		.loc 1 542 0 is_stmt 1
 2699 00f0 4346     		mov	r3, r8
 2700 00f2 002B     		cmp	r3, #0
 2701 00f4 0AD0     		beq	.L64
 2702              	.LVL311:
 543:Source\mbedtls_open\library/sha256.c ****         mbedtls_printf( "\n" );
 2703              		.loc 1 543 0
 2704 00f6 0A20     		movs	r0, #10
 2705 00f8 FFF7FEFF 		bl	putchar
 2706              	.LVL312:
 2707 00fc 06E0     		b	.L64
 2708              	.LVL313:
 2709              	.L66:
 534:Source\mbedtls_open\library/sha256.c ****             goto fail;
 2710              		.loc 1 534 0
 2711 00fe 0124     		movs	r4, #1
 2712              	.LVL314:
 2713              	.L57:
 544:Source\mbedtls_open\library/sha256.c **** 
 545:Source\mbedtls_open\library/sha256.c ****     goto exit;
 546:Source\mbedtls_open\library/sha256.c **** 
 547:Source\mbedtls_open\library/sha256.c **** fail:
 548:Source\mbedtls_open\library/sha256.c ****     if( verbose != 0 )
 2714              		.loc 1 548 0
 2715 0100 4346     		mov	r3, r8
 2716 0102 002B     		cmp	r3, #0
 2717 0104 02D0     		beq	.L64
 2718              	.LVL315:
 549:Source\mbedtls_open\library/sha256.c ****         mbedtls_printf( "failed\n" );
 2719              		.loc 1 549 0
 2720 0106 0E48     		ldr	r0, .L67+24
 2721 0108 FFF7FEFF 		bl	puts
 2722              	.LVL316:
 2723              	.L64:
 550:Source\mbedtls_open\library/sha256.c **** 
 551:Source\mbedtls_open\library/sha256.c **** exit:
 552:Source\mbedtls_open\library/sha256.c ****     mbedtls_sha256_free( &ctx );
 2724              		.loc 1 552 0
 2725 010c 03A8     		add	r0, sp, #12
 2726 010e FFF7FEFF 		bl	mbedtls_sha256_free
 2727              	.LVL317:
 553:Source\mbedtls_open\library/sha256.c ****     mbedtls_free( buf );
 2728              		.loc 1 553 0
 2729 0112 0198     		ldr	r0, [sp, #4]
 2730 0114 FFF7FEFF 		bl	free
 2731              	.LVL318:
 554:Source\mbedtls_open\library/sha256.c **** 
 555:Source\mbedtls_open\library/sha256.c ****     return( ret );
 2732              		.loc 1 555 0
ARM GAS  C:\Users\Phuong\AppData\Local\Temp\ccuEFeTd.s 			page 59


 2733 0118 2000     		movs	r0, r4
 2734 011a 00E0     		b	.L54
 2735              	.LVL319:
 2736              	.L65:
 492:Source\mbedtls_open\library/sha256.c ****     }
 2737              		.loc 1 492 0
 2738 011c 0120     		movs	r0, #1
 2739              	.LVL320:
 2740              	.L54:
 556:Source\mbedtls_open\library/sha256.c **** }
 2741              		.loc 1 556 0
 2742 011e 26B0     		add	sp, sp, #152
 2743              		@ sp needed
 2744              	.LVL321:
 2745 0120 04BC     		pop	{r2}
 2746 0122 9046     		mov	r8, r2
 2747 0124 F0BD     		pop	{r4, r5, r6, r7, pc}
 2748              	.L68:
 2749 0126 C046     		.align	2
 2750              	.L67:
 2751 0128 00000000 		.word	.LC1
 2752 012c 1C000000 		.word	.LC3
 2753 0130 E7030000 		.word	999
 2754 0134 00010000 		.word	.LANCHOR1
 2755 0138 80010000 		.word	.LANCHOR2
 2756 013c 30000000 		.word	.LC7
 2757 0140 38000000 		.word	.LC9
 2758              		.cfi_endproc
 2759              	.LFE14:
 2760              		.size	mbedtls_sha256_self_test, .-mbedtls_sha256_self_test
 2761              		.section	.rodata
 2762              		.align	2
 2763              		.set	.LANCHOR0,. + 0
 2764              		.set	.LANCHOR1,. + 256
 2765              		.set	.LANCHOR2,. + 384
 2766              		.type	K, %object
 2767              		.size	K, 256
 2768              	K:
 2769 0000 982F8A42 		.word	1116352408
 2770 0004 91443771 		.word	1899447441
 2771 0008 CFFBC0B5 		.word	-1245643825
 2772 000c A5DBB5E9 		.word	-373957723
 2773 0010 5BC25639 		.word	961987163
 2774 0014 F111F159 		.word	1508970993
 2775 0018 A4823F92 		.word	-1841331548
 2776 001c D55E1CAB 		.word	-1424204075
 2777 0020 98AA07D8 		.word	-670586216
 2778 0024 015B8312 		.word	310598401
 2779 0028 BE853124 		.word	607225278
 2780 002c C37D0C55 		.word	1426881987
 2781 0030 745DBE72 		.word	1925078388
 2782 0034 FEB1DE80 		.word	-2132889090
 2783 0038 A706DC9B 		.word	-1680079193
 2784 003c 74F19BC1 		.word	-1046744716
 2785 0040 C1699BE4 		.word	-459576895
 2786 0044 8647BEEF 		.word	-272742522
 2787 0048 C69DC10F 		.word	264347078
ARM GAS  C:\Users\Phuong\AppData\Local\Temp\ccuEFeTd.s 			page 60


 2788 004c CCA10C24 		.word	604807628
 2789 0050 6F2CE92D 		.word	770255983
 2790 0054 AA84744A 		.word	1249150122
 2791 0058 DCA9B05C 		.word	1555081692
 2792 005c DA88F976 		.word	1996064986
 2793 0060 52513E98 		.word	-1740746414
 2794 0064 6DC631A8 		.word	-1473132947
 2795 0068 C82703B0 		.word	-1341970488
 2796 006c C77F59BF 		.word	-1084653625
 2797 0070 F30BE0C6 		.word	-958395405
 2798 0074 4791A7D5 		.word	-710438585
 2799 0078 5163CA06 		.word	113926993
 2800 007c 67292914 		.word	338241895
 2801 0080 850AB727 		.word	666307205
 2802 0084 38211B2E 		.word	773529912
 2803 0088 FC6D2C4D 		.word	1294757372
 2804 008c 130D3853 		.word	1396182291
 2805 0090 54730A65 		.word	1695183700
 2806 0094 BB0A6A76 		.word	1986661051
 2807 0098 2EC9C281 		.word	-2117940946
 2808 009c 852C7292 		.word	-1838011259
 2809 00a0 A1E8BFA2 		.word	-1564481375
 2810 00a4 4B661AA8 		.word	-1474664885
 2811 00a8 708B4BC2 		.word	-1035236496
 2812 00ac A3516CC7 		.word	-949202525
 2813 00b0 19E892D1 		.word	-778901479
 2814 00b4 240699D6 		.word	-694614492
 2815 00b8 85350EF4 		.word	-200395387
 2816 00bc 70A06A10 		.word	275423344
 2817 00c0 16C1A419 		.word	430227734
 2818 00c4 086C371E 		.word	506948616
 2819 00c8 4C774827 		.word	659060556
 2820 00cc B5BCB034 		.word	883997877
 2821 00d0 B30C1C39 		.word	958139571
 2822 00d4 4AAAD84E 		.word	1322822218
 2823 00d8 4FCA9C5B 		.word	1537002063
 2824 00dc F36F2E68 		.word	1747873779
 2825 00e0 EE828F74 		.word	1955562222
 2826 00e4 6F63A578 		.word	2024104815
 2827 00e8 1478C884 		.word	-2067236844
 2828 00ec 0802C78C 		.word	-1933114872
 2829 00f0 FAFFBE90 		.word	-1866530822
 2830 00f4 EB6C50A4 		.word	-1538233109
 2831 00f8 F7A3F9BE 		.word	-1090935817
 2832 00fc F27871C6 		.word	-965641998
 2833              		.type	sha256_test_buf, %object
 2834              		.size	sha256_test_buf, 171
 2835              	sha256_test_buf:
 2836 0100 61626300 		.ascii	"abc\000"
 2837 0104 00000000 		.space	53
 2837      00000000 
 2837      00000000 
 2837      00000000 
 2837      00000000 
 2838 0139 61626364 		.ascii	"abcdbcdecdefdefgefghfghighijhijkijkljklmklmnlmnomno"
 2838      62636465 
 2838      63646566 
ARM GAS  C:\Users\Phuong\AppData\Local\Temp\ccuEFeTd.s 			page 61


 2838      64656667 
 2838      65666768 
 2839 016c 706E6F70 		.ascii	"pnopq\000"
 2839      7100
 2840 0172 00       		.ascii	"\000"
 2841 0173 00000000 		.space	56
 2841      00000000 
 2841      00000000 
 2841      00000000 
 2841      00000000 
 2842 01ab 00       		.space	1
 2843              		.type	sha256_test_buflen, %object
 2844              		.size	sha256_test_buflen, 12
 2845              	sha256_test_buflen:
 2846 01ac 03000000 		.word	3
 2847 01b0 38000000 		.word	56
 2848 01b4 E8030000 		.word	1000
 2849              		.type	sha256_test_sum, %object
 2850              		.size	sha256_test_sum, 192
 2851              	sha256_test_sum:
 2852 01b8 23       		.byte	35
 2853 01b9 09       		.byte	9
 2854 01ba 7D       		.byte	125
 2855 01bb 22       		.byte	34
 2856 01bc 34       		.byte	52
 2857 01bd 05       		.byte	5
 2858 01be D8       		.byte	-40
 2859 01bf 22       		.byte	34
 2860 01c0 86       		.byte	-122
 2861 01c1 42       		.byte	66
 2862 01c2 A4       		.byte	-92
 2863 01c3 77       		.byte	119
 2864 01c4 BD       		.byte	-67
 2865 01c5 A2       		.byte	-94
 2866 01c6 55       		.byte	85
 2867 01c7 B3       		.byte	-77
 2868 01c8 2A       		.byte	42
 2869 01c9 AD       		.byte	-83
 2870 01ca BC       		.byte	-68
 2871 01cb E4       		.byte	-28
 2872 01cc BD       		.byte	-67
 2873 01cd A0       		.byte	-96
 2874 01ce B3       		.byte	-77
 2875 01cf F7       		.byte	-9
 2876 01d0 E3       		.byte	-29
 2877 01d1 6C       		.byte	108
 2878 01d2 9D       		.byte	-99
 2879 01d3 A7       		.byte	-89
 2880 01d4 00000000 		.space	4
 2881 01d8 75       		.byte	117
 2882 01d9 38       		.byte	56
 2883 01da 8B       		.byte	-117
 2884 01db 16       		.byte	22
 2885 01dc 51       		.byte	81
 2886 01dd 27       		.byte	39
 2887 01de 76       		.byte	118
 2888 01df CC       		.byte	-52
ARM GAS  C:\Users\Phuong\AppData\Local\Temp\ccuEFeTd.s 			page 62


 2889 01e0 5D       		.byte	93
 2890 01e1 BA       		.byte	-70
 2891 01e2 5D       		.byte	93
 2892 01e3 A1       		.byte	-95
 2893 01e4 FD       		.byte	-3
 2894 01e5 89       		.byte	-119
 2895 01e6 01       		.byte	1
 2896 01e7 50       		.byte	80
 2897 01e8 B0       		.byte	-80
 2898 01e9 C6       		.byte	-58
 2899 01ea 45       		.byte	69
 2900 01eb 5C       		.byte	92
 2901 01ec B4       		.byte	-76
 2902 01ed F5       		.byte	-11
 2903 01ee 8B       		.byte	-117
 2904 01ef 19       		.byte	25
 2905 01f0 52       		.byte	82
 2906 01f1 52       		.byte	82
 2907 01f2 25       		.byte	37
 2908 01f3 25       		.byte	37
 2909 01f4 00000000 		.space	4
 2910 01f8 20       		.byte	32
 2911 01f9 79       		.byte	121
 2912 01fa 46       		.byte	70
 2913 01fb 55       		.byte	85
 2914 01fc 98       		.byte	-104
 2915 01fd 0C       		.byte	12
 2916 01fe 91       		.byte	-111
 2917 01ff D8       		.byte	-40
 2918 0200 BB       		.byte	-69
 2919 0201 B4       		.byte	-76
 2920 0202 C1       		.byte	-63
 2921 0203 EA       		.byte	-22
 2922 0204 97       		.byte	-105
 2923 0205 61       		.byte	97
 2924 0206 8A       		.byte	-118
 2925 0207 4B       		.byte	75
 2926 0208 F0       		.byte	-16
 2927 0209 3F       		.byte	63
 2928 020a 42       		.byte	66
 2929 020b 58       		.byte	88
 2930 020c 19       		.byte	25
 2931 020d 48       		.byte	72
 2932 020e B2       		.byte	-78
 2933 020f EE       		.byte	-18
 2934 0210 4E       		.byte	78
 2935 0211 E7       		.byte	-25
 2936 0212 AD       		.byte	-83
 2937 0213 67       		.byte	103
 2938 0214 00000000 		.space	4
 2939 0218 BA       		.byte	-70
 2940 0219 78       		.byte	120
 2941 021a 16       		.byte	22
 2942 021b BF       		.byte	-65
 2943 021c 8F       		.byte	-113
 2944 021d 01       		.byte	1
 2945 021e CF       		.byte	-49
ARM GAS  C:\Users\Phuong\AppData\Local\Temp\ccuEFeTd.s 			page 63


 2946 021f EA       		.byte	-22
 2947 0220 41       		.byte	65
 2948 0221 41       		.byte	65
 2949 0222 40       		.byte	64
 2950 0223 DE       		.byte	-34
 2951 0224 5D       		.byte	93
 2952 0225 AE       		.byte	-82
 2953 0226 22       		.byte	34
 2954 0227 23       		.byte	35
 2955 0228 B0       		.byte	-80
 2956 0229 03       		.byte	3
 2957 022a 61       		.byte	97
 2958 022b A3       		.byte	-93
 2959 022c 96       		.byte	-106
 2960 022d 17       		.byte	23
 2961 022e 7A       		.byte	122
 2962 022f 9C       		.byte	-100
 2963 0230 B4       		.byte	-76
 2964 0231 10       		.byte	16
 2965 0232 FF       		.byte	-1
 2966 0233 61       		.byte	97
 2967 0234 F2       		.byte	-14
 2968 0235 00       		.byte	0
 2969 0236 15       		.byte	21
 2970 0237 AD       		.byte	-83
 2971 0238 24       		.byte	36
 2972 0239 8D       		.byte	-115
 2973 023a 6A       		.byte	106
 2974 023b 61       		.byte	97
 2975 023c D2       		.byte	-46
 2976 023d 06       		.byte	6
 2977 023e 38       		.byte	56
 2978 023f B8       		.byte	-72
 2979 0240 E5       		.byte	-27
 2980 0241 C0       		.byte	-64
 2981 0242 26       		.byte	38
 2982 0243 93       		.byte	-109
 2983 0244 0C       		.byte	12
 2984 0245 3E       		.byte	62
 2985 0246 60       		.byte	96
 2986 0247 39       		.byte	57
 2987 0248 A3       		.byte	-93
 2988 0249 3C       		.byte	60
 2989 024a E4       		.byte	-28
 2990 024b 59       		.byte	89
 2991 024c 64       		.byte	100
 2992 024d FF       		.byte	-1
 2993 024e 21       		.byte	33
 2994 024f 67       		.byte	103
 2995 0250 F6       		.byte	-10
 2996 0251 EC       		.byte	-20
 2997 0252 ED       		.byte	-19
 2998 0253 D4       		.byte	-44
 2999 0254 19       		.byte	25
 3000 0255 DB       		.byte	-37
 3001 0256 06       		.byte	6
 3002 0257 C1       		.byte	-63
ARM GAS  C:\Users\Phuong\AppData\Local\Temp\ccuEFeTd.s 			page 64


 3003 0258 CD       		.byte	-51
 3004 0259 C7       		.byte	-57
 3005 025a 6E       		.byte	110
 3006 025b 5C       		.byte	92
 3007 025c 99       		.byte	-103
 3008 025d 14       		.byte	20
 3009 025e FB       		.byte	-5
 3010 025f 92       		.byte	-110
 3011 0260 81       		.byte	-127
 3012 0261 A1       		.byte	-95
 3013 0262 C7       		.byte	-57
 3014 0263 E2       		.byte	-30
 3015 0264 84       		.byte	-124
 3016 0265 D7       		.byte	-41
 3017 0266 3E       		.byte	62
 3018 0267 67       		.byte	103
 3019 0268 F1       		.byte	-15
 3020 0269 80       		.byte	-128
 3021 026a 9A       		.byte	-102
 3022 026b 48       		.byte	72
 3023 026c A4       		.byte	-92
 3024 026d 97       		.byte	-105
 3025 026e 20       		.byte	32
 3026 026f 0E       		.byte	14
 3027 0270 04       		.byte	4
 3028 0271 6D       		.byte	109
 3029 0272 39       		.byte	57
 3030 0273 CC       		.byte	-52
 3031 0274 C7       		.byte	-57
 3032 0275 11       		.byte	17
 3033 0276 2C       		.byte	44
 3034 0277 D0       		.byte	-48
 3035              		.section	.rodata.str1.4,"aMS",%progbits,1
 3036              		.align	2
 3037              	.LC1:
 3038 0000 42756666 		.ascii	"Buffer allocation failed\000"
 3038      65722061 
 3038      6C6C6F63 
 3038      6174696F 
 3038      6E206661 
 3039 0019 000000   		.space	3
 3040              	.LC3:
 3041 001c 20205348 		.ascii	"  SHA-%d test #%d: \000"
 3041      412D2564 
 3041      20746573 
 3041      74202325 
 3041      643A2000 
 3042              	.LC7:
 3043 0030 70617373 		.ascii	"passed\000"
 3043      656400
 3044 0037 00       		.space	1
 3045              	.LC9:
 3046 0038 6661696C 		.ascii	"failed\000"
 3046      656400
 3047              		.text
 3048              	.Letext0:
 3049              		.file 2 "c:\\program files (x86)\\cypress\\psoc creator\\4.2\\psoc creator\\import\\gnu\\arm\\5.4.
ARM GAS  C:\Users\Phuong\AppData\Local\Temp\ccuEFeTd.s 			page 65


 3050              		.file 3 "c:\\program files (x86)\\cypress\\psoc creator\\4.2\\psoc creator\\import\\gnu\\arm\\5.4.
 3051              		.file 4 "c:\\program files (x86)\\cypress\\psoc creator\\4.2\\psoc creator\\import\\gnu\\arm\\5.4.
 3052              		.file 5 ".\\Source\\mbedtls_open\\include/mbedtls/sha256.h"
 3053              		.file 6 ".\\Source\\mbedtls_open\\include/mbedtls/platform_util.h"
 3054              		.file 7 "c:\\program files (x86)\\cypress\\psoc creator\\4.2\\psoc creator\\import\\gnu\\arm\\5.4.
 3055              		.file 8 "c:\\program files (x86)\\cypress\\psoc creator\\4.2\\psoc creator\\import\\gnu\\arm\\5.4.
 3056              		.file 9 "c:\\program files (x86)\\cypress\\psoc creator\\4.2\\psoc creator\\import\\gnu\\arm\\5.4.
 3057              		.file 10 "<built-in>"
 3058              		.section	.debug_info,"",%progbits
 3059              	.Ldebug_info0:
 3060 0000 000B0000 		.4byte	0xb00
 3061 0004 0400     		.2byte	0x4
 3062 0006 00000000 		.4byte	.Ldebug_abbrev0
 3063 000a 04       		.byte	0x4
 3064 000b 01       		.uleb128 0x1
 3065 000c 11030000 		.4byte	.LASF63
 3066 0010 0C       		.byte	0xc
 3067 0011 4E020000 		.4byte	.LASF64
 3068 0015 F8000000 		.4byte	.LASF65
 3069 0019 00000000 		.4byte	.Ldebug_ranges0+0
 3070 001d 00000000 		.4byte	0
 3071 0021 00000000 		.4byte	.Ldebug_line0
 3072 0025 02       		.uleb128 0x2
 3073 0026 01       		.byte	0x1
 3074 0027 06       		.byte	0x6
 3075 0028 A2000000 		.4byte	.LASF0
 3076 002c 02       		.uleb128 0x2
 3077 002d 01       		.byte	0x1
 3078 002e 08       		.byte	0x8
 3079 002f 98020000 		.4byte	.LASF1
 3080 0033 02       		.uleb128 0x2
 3081 0034 02       		.byte	0x2
 3082 0035 05       		.byte	0x5
 3083 0036 A6020000 		.4byte	.LASF2
 3084 003a 02       		.uleb128 0x2
 3085 003b 02       		.byte	0x2
 3086 003c 07       		.byte	0x7
 3087 003d 13020000 		.4byte	.LASF3
 3088 0041 02       		.uleb128 0x2
 3089 0042 04       		.byte	0x4
 3090 0043 05       		.byte	0x5
 3091 0044 DB000000 		.4byte	.LASF4
 3092 0048 03       		.uleb128 0x3
 3093 0049 BB010000 		.4byte	.LASF9
 3094 004d 02       		.byte	0x2
 3095 004e 41       		.byte	0x41
 3096 004f 53000000 		.4byte	0x53
 3097 0053 02       		.uleb128 0x2
 3098 0054 04       		.byte	0x4
 3099 0055 07       		.byte	0x7
 3100 0056 EA010000 		.4byte	.LASF5
 3101 005a 02       		.uleb128 0x2
 3102 005b 08       		.byte	0x8
 3103 005c 05       		.byte	0x5
 3104 005d 94000000 		.4byte	.LASF6
 3105 0061 02       		.uleb128 0x2
 3106 0062 08       		.byte	0x8
ARM GAS  C:\Users\Phuong\AppData\Local\Temp\ccuEFeTd.s 			page 66


 3107 0063 07       		.byte	0x7
 3108 0064 78000000 		.4byte	.LASF7
 3109 0068 04       		.uleb128 0x4
 3110 0069 04       		.byte	0x4
 3111 006a 05       		.byte	0x5
 3112 006b 696E7400 		.ascii	"int\000"
 3113 006f 02       		.uleb128 0x2
 3114 0070 04       		.byte	0x4
 3115 0071 07       		.byte	0x7
 3116 0072 DD010000 		.4byte	.LASF8
 3117 0076 03       		.uleb128 0x3
 3118 0077 37000000 		.4byte	.LASF10
 3119 007b 03       		.byte	0x3
 3120 007c D8       		.byte	0xd8
 3121 007d 6F000000 		.4byte	0x6f
 3122 0081 02       		.uleb128 0x2
 3123 0082 08       		.byte	0x8
 3124 0083 04       		.byte	0x4
 3125 0084 42020000 		.4byte	.LASF11
 3126 0088 03       		.uleb128 0x3
 3127 0089 03030000 		.4byte	.LASF12
 3128 008d 04       		.byte	0x4
 3129 008e 30       		.byte	0x30
 3130 008f 48000000 		.4byte	0x48
 3131 0093 05       		.uleb128 0x5
 3132 0094 F2030000 		.4byte	.LASF18
 3133 0098 6C       		.byte	0x6c
 3134 0099 05       		.byte	0x5
 3135 009a 38       		.byte	0x38
 3136 009b D0000000 		.4byte	0xd0
 3137 009f 06       		.uleb128 0x6
 3138 00a0 2C020000 		.4byte	.LASF13
 3139 00a4 05       		.byte	0x5
 3140 00a5 3A       		.byte	0x3a
 3141 00a6 D0000000 		.4byte	0xd0
 3142 00aa 00       		.byte	0
 3143 00ab 06       		.uleb128 0x6
 3144 00ac D5000000 		.4byte	.LASF14
 3145 00b0 05       		.byte	0x5
 3146 00b1 3B       		.byte	0x3b
 3147 00b2 E7000000 		.4byte	0xe7
 3148 00b6 08       		.byte	0x8
 3149 00b7 06       		.uleb128 0x6
 3150 00b8 DF030000 		.4byte	.LASF15
 3151 00bc 05       		.byte	0x5
 3152 00bd 3C       		.byte	0x3c
 3153 00be F7000000 		.4byte	0xf7
 3154 00c2 28       		.byte	0x28
 3155 00c3 06       		.uleb128 0x6
 3156 00c4 26020000 		.4byte	.LASF16
 3157 00c8 05       		.byte	0x5
 3158 00c9 3D       		.byte	0x3d
 3159 00ca 68000000 		.4byte	0x68
 3160 00ce 68       		.byte	0x68
 3161 00cf 00       		.byte	0
 3162 00d0 07       		.uleb128 0x7
 3163 00d1 88000000 		.4byte	0x88
ARM GAS  C:\Users\Phuong\AppData\Local\Temp\ccuEFeTd.s 			page 67


 3164 00d5 E0000000 		.4byte	0xe0
 3165 00d9 08       		.uleb128 0x8
 3166 00da E0000000 		.4byte	0xe0
 3167 00de 01       		.byte	0x1
 3168 00df 00       		.byte	0
 3169 00e0 02       		.uleb128 0x2
 3170 00e1 04       		.byte	0x4
 3171 00e2 07       		.byte	0x7
 3172 00e3 39020000 		.4byte	.LASF17
 3173 00e7 07       		.uleb128 0x7
 3174 00e8 88000000 		.4byte	0x88
 3175 00ec F7000000 		.4byte	0xf7
 3176 00f0 08       		.uleb128 0x8
 3177 00f1 E0000000 		.4byte	0xe0
 3178 00f5 07       		.byte	0x7
 3179 00f6 00       		.byte	0
 3180 00f7 07       		.uleb128 0x7
 3181 00f8 2C000000 		.4byte	0x2c
 3182 00fc 07010000 		.4byte	0x107
 3183 0100 08       		.uleb128 0x8
 3184 0101 E0000000 		.4byte	0xe0
 3185 0105 3F       		.byte	0x3f
 3186 0106 00       		.byte	0
 3187 0107 03       		.uleb128 0x3
 3188 0108 F2030000 		.4byte	.LASF18
 3189 010c 05       		.byte	0x5
 3190 010d 40       		.byte	0x40
 3191 010e 93000000 		.4byte	0x93
 3192 0112 09       		.uleb128 0x9
 3193 0113 04       		.byte	0x4
 3194 0114 2C000000 		.4byte	0x2c
 3195 0118 02       		.uleb128 0x2
 3196 0119 01       		.byte	0x1
 3197 011a 08       		.byte	0x8
 3198 011b A3030000 		.4byte	.LASF19
 3199 011f 0A       		.uleb128 0xa
 3200 0120 AE000000 		.4byte	.LASF20
 3201 0124 01       		.byte	0x1
 3202 0125 4D       		.byte	0x4d
 3203 0126 00000000 		.4byte	.LFB1
 3204 012a 0C000000 		.4byte	.LFE1-.LFB1
 3205 012e 01       		.uleb128 0x1
 3206 012f 9C       		.byte	0x9c
 3207 0130 60010000 		.4byte	0x160
 3208 0134 0B       		.uleb128 0xb
 3209 0135 63747800 		.ascii	"ctx\000"
 3210 0139 01       		.byte	0x1
 3211 013a 4D       		.byte	0x4d
 3212 013b 60010000 		.4byte	0x160
 3213 013f 00000000 		.4byte	.LLST0
 3214 0143 0C       		.uleb128 0xc
 3215 0144 0A000000 		.4byte	.LVL1
 3216 0148 910A0000 		.4byte	0xa91
 3217 014c 0D       		.uleb128 0xd
 3218 014d 01       		.uleb128 0x1
 3219 014e 50       		.byte	0x50
 3220 014f 03       		.uleb128 0x3
ARM GAS  C:\Users\Phuong\AppData\Local\Temp\ccuEFeTd.s 			page 68


 3221 0150 F3       		.byte	0xf3
 3222 0151 01       		.uleb128 0x1
 3223 0152 50       		.byte	0x50
 3224 0153 0D       		.uleb128 0xd
 3225 0154 01       		.uleb128 0x1
 3226 0155 51       		.byte	0x51
 3227 0156 01       		.uleb128 0x1
 3228 0157 30       		.byte	0x30
 3229 0158 0D       		.uleb128 0xd
 3230 0159 01       		.uleb128 0x1
 3231 015a 52       		.byte	0x52
 3232 015b 02       		.uleb128 0x2
 3233 015c 08       		.byte	0x8
 3234 015d 6C       		.byte	0x6c
 3235 015e 00       		.byte	0
 3236 015f 00       		.byte	0
 3237 0160 09       		.uleb128 0x9
 3238 0161 04       		.byte	0x4
 3239 0162 07010000 		.4byte	0x107
 3240 0166 0A       		.uleb128 0xa
 3241 0167 E4000000 		.4byte	.LASF21
 3242 016b 01       		.byte	0x1
 3243 016c 52       		.byte	0x52
 3244 016d 00000000 		.4byte	.LFB2
 3245 0171 0E000000 		.4byte	.LFE2-.LFB2
 3246 0175 01       		.uleb128 0x1
 3247 0176 9C       		.byte	0x9c
 3248 0177 A2010000 		.4byte	0x1a2
 3249 017b 0B       		.uleb128 0xb
 3250 017c 63747800 		.ascii	"ctx\000"
 3251 0180 01       		.byte	0x1
 3252 0181 52       		.byte	0x52
 3253 0182 60010000 		.4byte	0x160
 3254 0186 21000000 		.4byte	.LLST1
 3255 018a 0C       		.uleb128 0xc
 3256 018b 0C000000 		.4byte	.LVL3
 3257 018f 9A0A0000 		.4byte	0xa9a
 3258 0193 0D       		.uleb128 0xd
 3259 0194 01       		.uleb128 0x1
 3260 0195 50       		.byte	0x50
 3261 0196 03       		.uleb128 0x3
 3262 0197 F3       		.byte	0xf3
 3263 0198 01       		.uleb128 0x1
 3264 0199 50       		.byte	0x50
 3265 019a 0D       		.uleb128 0xd
 3266 019b 01       		.uleb128 0x1
 3267 019c 51       		.byte	0x51
 3268 019d 02       		.uleb128 0x2
 3269 019e 08       		.byte	0x8
 3270 019f 6C       		.byte	0x6c
 3271 01a0 00       		.byte	0
 3272 01a1 00       		.byte	0
 3273 01a2 0A       		.uleb128 0xa
 3274 01a3 29040000 		.4byte	.LASF22
 3275 01a7 01       		.byte	0x1
 3276 01a8 5A       		.byte	0x5a
 3277 01a9 00000000 		.4byte	.LFB3
ARM GAS  C:\Users\Phuong\AppData\Local\Temp\ccuEFeTd.s 			page 69


 3278 01ad 0A000000 		.4byte	.LFE3-.LFB3
 3279 01b1 01       		.uleb128 0x1
 3280 01b2 9C       		.byte	0x9c
 3281 01b3 F4010000 		.4byte	0x1f4
 3282 01b7 0B       		.uleb128 0xb
 3283 01b8 64737400 		.ascii	"dst\000"
 3284 01bc 01       		.byte	0x1
 3285 01bd 5A       		.byte	0x5a
 3286 01be 60010000 		.4byte	0x160
 3287 01c2 42000000 		.4byte	.LLST2
 3288 01c6 0B       		.uleb128 0xb
 3289 01c7 73726300 		.ascii	"src\000"
 3290 01cb 01       		.byte	0x1
 3291 01cc 5B       		.byte	0x5b
 3292 01cd F4010000 		.4byte	0x1f4
 3293 01d1 63000000 		.4byte	.LLST3
 3294 01d5 0C       		.uleb128 0xc
 3295 01d6 08000000 		.4byte	.LVL5
 3296 01da A50A0000 		.4byte	0xaa5
 3297 01de 0D       		.uleb128 0xd
 3298 01df 01       		.uleb128 0x1
 3299 01e0 50       		.byte	0x50
 3300 01e1 03       		.uleb128 0x3
 3301 01e2 F3       		.byte	0xf3
 3302 01e3 01       		.uleb128 0x1
 3303 01e4 50       		.byte	0x50
 3304 01e5 0D       		.uleb128 0xd
 3305 01e6 01       		.uleb128 0x1
 3306 01e7 51       		.byte	0x51
 3307 01e8 03       		.uleb128 0x3
 3308 01e9 F3       		.byte	0xf3
 3309 01ea 01       		.uleb128 0x1
 3310 01eb 51       		.byte	0x51
 3311 01ec 0D       		.uleb128 0xd
 3312 01ed 01       		.uleb128 0x1
 3313 01ee 52       		.byte	0x52
 3314 01ef 02       		.uleb128 0x2
 3315 01f0 08       		.byte	0x8
 3316 01f1 6C       		.byte	0x6c
 3317 01f2 00       		.byte	0
 3318 01f3 00       		.byte	0
 3319 01f4 09       		.uleb128 0x9
 3320 01f5 04       		.byte	0x4
 3321 01f6 FA010000 		.4byte	0x1fa
 3322 01fa 0E       		.uleb128 0xe
 3323 01fb 07010000 		.4byte	0x107
 3324 01ff 0F       		.uleb128 0xf
 3325 0200 3E000000 		.4byte	.LASF24
 3326 0204 01       		.byte	0x1
 3327 0205 63       		.byte	0x63
 3328 0206 68000000 		.4byte	0x68
 3329 020a 00000000 		.4byte	.LFB4
 3330 020e 94000000 		.4byte	.LFE4-.LFB4
 3331 0212 01       		.uleb128 0x1
 3332 0213 9C       		.byte	0x9c
 3333 0214 35020000 		.4byte	0x235
 3334 0218 0B       		.uleb128 0xb
ARM GAS  C:\Users\Phuong\AppData\Local\Temp\ccuEFeTd.s 			page 70


 3335 0219 63747800 		.ascii	"ctx\000"
 3336 021d 01       		.byte	0x1
 3337 021e 63       		.byte	0x63
 3338 021f 60010000 		.4byte	0x160
 3339 0223 84000000 		.4byte	.LLST4
 3340 0227 10       		.uleb128 0x10
 3341 0228 26020000 		.4byte	.LASF16
 3342 022c 01       		.byte	0x1
 3343 022d 63       		.byte	0x63
 3344 022e 68000000 		.4byte	0x68
 3345 0232 01       		.uleb128 0x1
 3346 0233 51       		.byte	0x51
 3347 0234 00       		.byte	0
 3348 0235 0A       		.uleb128 0xa
 3349 0236 07000000 		.4byte	.LASF23
 3350 023a 01       		.byte	0x1
 3351 023b 87       		.byte	0x87
 3352 023c 00000000 		.4byte	.LFB5
 3353 0240 08000000 		.4byte	.LFE5-.LFB5
 3354 0244 01       		.uleb128 0x1
 3355 0245 9C       		.byte	0x9c
 3356 0246 81020000 		.4byte	0x281
 3357 024a 0B       		.uleb128 0xb
 3358 024b 63747800 		.ascii	"ctx\000"
 3359 024f 01       		.byte	0x1
 3360 0250 87       		.byte	0x87
 3361 0251 60010000 		.4byte	0x160
 3362 0255 A5000000 		.4byte	.LLST5
 3363 0259 11       		.uleb128 0x11
 3364 025a 26020000 		.4byte	.LASF16
 3365 025e 01       		.byte	0x1
 3366 025f 88       		.byte	0x88
 3367 0260 68000000 		.4byte	0x68
 3368 0264 C6000000 		.4byte	.LLST6
 3369 0268 0C       		.uleb128 0xc
 3370 0269 06000000 		.4byte	.LVL9
 3371 026d FF010000 		.4byte	0x1ff
 3372 0271 0D       		.uleb128 0xd
 3373 0272 01       		.uleb128 0x1
 3374 0273 50       		.byte	0x50
 3375 0274 03       		.uleb128 0x3
 3376 0275 F3       		.byte	0xf3
 3377 0276 01       		.uleb128 0x1
 3378 0277 50       		.byte	0x50
 3379 0278 0D       		.uleb128 0xd
 3380 0279 01       		.uleb128 0x1
 3381 027a 51       		.byte	0x51
 3382 027b 03       		.uleb128 0x3
 3383 027c F3       		.byte	0xf3
 3384 027d 01       		.uleb128 0x1
 3385 027e 51       		.byte	0x51
 3386 027f 00       		.byte	0
 3387 0280 00       		.byte	0
 3388 0281 0F       		.uleb128 0xf
 3389 0282 09040000 		.4byte	.LASF25
 3390 0286 01       		.byte	0x1
 3391 0287 BC       		.byte	0xbc
ARM GAS  C:\Users\Phuong\AppData\Local\Temp\ccuEFeTd.s 			page 71


 3392 0288 68000000 		.4byte	0x68
 3393 028c 00000000 		.4byte	.LFB6
 3394 0290 400B0000 		.4byte	.LFE6-.LFB6
 3395 0294 01       		.uleb128 0x1
 3396 0295 9C       		.byte	0x9c
 3397 0296 FE020000 		.4byte	0x2fe
 3398 029a 0B       		.uleb128 0xb
 3399 029b 63747800 		.ascii	"ctx\000"
 3400 029f 01       		.byte	0x1
 3401 02a0 BC       		.byte	0xbc
 3402 02a1 60010000 		.4byte	0x160
 3403 02a5 E7000000 		.4byte	.LLST7
 3404 02a9 11       		.uleb128 0x11
 3405 02aa 0E020000 		.4byte	.LASF26
 3406 02ae 01       		.byte	0x1
 3407 02af BD       		.byte	0xbd
 3408 02b0 FE020000 		.4byte	0x2fe
 3409 02b4 12010000 		.4byte	.LLST8
 3410 02b8 12       		.uleb128 0x12
 3411 02b9 B7020000 		.4byte	.LASF27
 3412 02bd 01       		.byte	0x1
 3413 02be BF       		.byte	0xbf
 3414 02bf 88000000 		.4byte	0x88
 3415 02c3 33010000 		.4byte	.LLST9
 3416 02c7 12       		.uleb128 0x12
 3417 02c8 BD020000 		.4byte	.LASF28
 3418 02cc 01       		.byte	0x1
 3419 02cd BF       		.byte	0xbf
 3420 02ce 88000000 		.4byte	0x88
 3421 02d2 AB170000 		.4byte	.LLST10
 3422 02d6 13       		.uleb128 0x13
 3423 02d7 5700     		.ascii	"W\000"
 3424 02d9 01       		.byte	0x1
 3425 02da BF       		.byte	0xbf
 3426 02db 09030000 		.4byte	0x309
 3427 02df 03       		.uleb128 0x3
 3428 02e0 91       		.byte	0x91
 3429 02e1 D87D     		.sleb128 -296
 3430 02e3 13       		.uleb128 0x13
 3431 02e4 4100     		.ascii	"A\000"
 3432 02e6 01       		.byte	0x1
 3433 02e7 C0       		.byte	0xc0
 3434 02e8 E7000000 		.4byte	0xe7
 3435 02ec 03       		.uleb128 0x3
 3436 02ed 91       		.byte	0x91
 3437 02ee B87D     		.sleb128 -328
 3438 02f0 14       		.uleb128 0x14
 3439 02f1 6900     		.ascii	"i\000"
 3440 02f3 01       		.byte	0x1
 3441 02f4 C1       		.byte	0xc1
 3442 02f5 6F000000 		.4byte	0x6f
 3443 02f9 2B2E0000 		.4byte	.LLST11
 3444 02fd 00       		.byte	0
 3445 02fe 09       		.uleb128 0x9
 3446 02ff 04       		.byte	0x4
 3447 0300 04030000 		.4byte	0x304
 3448 0304 0E       		.uleb128 0xe
ARM GAS  C:\Users\Phuong\AppData\Local\Temp\ccuEFeTd.s 			page 72


 3449 0305 2C000000 		.4byte	0x2c
 3450 0309 07       		.uleb128 0x7
 3451 030a 88000000 		.4byte	0x88
 3452 030e 19030000 		.4byte	0x319
 3453 0312 08       		.uleb128 0x8
 3454 0313 E0000000 		.4byte	0xe0
 3455 0317 3F       		.byte	0x3f
 3456 0318 00       		.byte	0
 3457 0319 0A       		.uleb128 0xa
 3458 031a C6010000 		.4byte	.LASF29
 3459 031e 01       		.byte	0x1
 3460 031f F7       		.byte	0xf7
 3461 0320 00000000 		.4byte	.LFB7
 3462 0324 08000000 		.4byte	.LFE7-.LFB7
 3463 0328 01       		.uleb128 0x1
 3464 0329 9C       		.byte	0x9c
 3465 032a 65030000 		.4byte	0x365
 3466 032e 0B       		.uleb128 0xb
 3467 032f 63747800 		.ascii	"ctx\000"
 3468 0333 01       		.byte	0x1
 3469 0334 F7       		.byte	0xf7
 3470 0335 60010000 		.4byte	0x160
 3471 0339 992E0000 		.4byte	.LLST12
 3472 033d 11       		.uleb128 0x11
 3473 033e 0E020000 		.4byte	.LASF26
 3474 0342 01       		.byte	0x1
 3475 0343 F8       		.byte	0xf8
 3476 0344 FE020000 		.4byte	0x2fe
 3477 0348 BA2E0000 		.4byte	.LLST13
 3478 034c 0C       		.uleb128 0xc
 3479 034d 06000000 		.4byte	.LVL205
 3480 0351 81020000 		.4byte	0x281
 3481 0355 0D       		.uleb128 0xd
 3482 0356 01       		.uleb128 0x1
 3483 0357 50       		.byte	0x50
 3484 0358 03       		.uleb128 0x3
 3485 0359 F3       		.byte	0xf3
 3486 035a 01       		.uleb128 0x1
 3487 035b 50       		.byte	0x50
 3488 035c 0D       		.uleb128 0xd
 3489 035d 01       		.uleb128 0x1
 3490 035e 51       		.byte	0x51
 3491 035f 03       		.uleb128 0x3
 3492 0360 F3       		.byte	0xf3
 3493 0361 01       		.uleb128 0x1
 3494 0362 51       		.byte	0x51
 3495 0363 00       		.byte	0
 3496 0364 00       		.byte	0
 3497 0365 15       		.uleb128 0x15
 3498 0366 D7020000 		.4byte	.LASF30
 3499 036a 01       		.byte	0x1
 3500 036b 0201     		.2byte	0x102
 3501 036d 68000000 		.4byte	0x68
 3502 0371 00000000 		.4byte	.LFB8
 3503 0375 90000000 		.4byte	.LFE8-.LFB8
 3504 0379 01       		.uleb128 0x1
 3505 037a 9C       		.byte	0x9c
ARM GAS  C:\Users\Phuong\AppData\Local\Temp\ccuEFeTd.s 			page 73


 3506 037b 56040000 		.4byte	0x456
 3507 037f 16       		.uleb128 0x16
 3508 0380 63747800 		.ascii	"ctx\000"
 3509 0384 01       		.byte	0x1
 3510 0385 0201     		.2byte	0x102
 3511 0387 60010000 		.4byte	0x160
 3512 038b DB2E0000 		.4byte	.LLST14
 3513 038f 17       		.uleb128 0x17
 3514 0390 FD020000 		.4byte	.LASF31
 3515 0394 01       		.byte	0x1
 3516 0395 0301     		.2byte	0x103
 3517 0397 FE020000 		.4byte	0x2fe
 3518 039b 2A2F0000 		.4byte	.LLST15
 3519 039f 17       		.uleb128 0x17
 3520 03a0 58040000 		.4byte	.LASF32
 3521 03a4 01       		.byte	0x1
 3522 03a5 0401     		.2byte	0x104
 3523 03a7 76000000 		.4byte	0x76
 3524 03ab 5E2F0000 		.4byte	.LLST16
 3525 03af 18       		.uleb128 0x18
 3526 03b0 72657400 		.ascii	"ret\000"
 3527 03b4 01       		.byte	0x1
 3528 03b5 0601     		.2byte	0x106
 3529 03b7 68000000 		.4byte	0x68
 3530 03bb 922F0000 		.4byte	.LLST17
 3531 03bf 19       		.uleb128 0x19
 3532 03c0 C3020000 		.4byte	.LASF33
 3533 03c4 01       		.byte	0x1
 3534 03c5 0701     		.2byte	0x107
 3535 03c7 76000000 		.4byte	0x76
 3536 03cb B02F0000 		.4byte	.LLST18
 3537 03cf 19       		.uleb128 0x19
 3538 03d0 7B040000 		.4byte	.LASF34
 3539 03d4 01       		.byte	0x1
 3540 03d5 0801     		.2byte	0x108
 3541 03d7 88000000 		.4byte	0x88
 3542 03db D92F0000 		.4byte	.LLST19
 3543 03df 1A       		.uleb128 0x1a
 3544 03e0 44000000 		.4byte	.LVL213
 3545 03e4 A50A0000 		.4byte	0xaa5
 3546 03e8 02040000 		.4byte	0x402
 3547 03ec 0D       		.uleb128 0xd
 3548 03ed 01       		.uleb128 0x1
 3549 03ee 50       		.byte	0x50
 3550 03ef 05       		.uleb128 0x5
 3551 03f0 79       		.byte	0x79
 3552 03f1 00       		.sleb128 0
 3553 03f2 77       		.byte	0x77
 3554 03f3 00       		.sleb128 0
 3555 03f4 22       		.byte	0x22
 3556 03f5 0D       		.uleb128 0xd
 3557 03f6 01       		.uleb128 0x1
 3558 03f7 51       		.byte	0x51
 3559 03f8 02       		.uleb128 0x2
 3560 03f9 75       		.byte	0x75
 3561 03fa 00       		.sleb128 0
 3562 03fb 0D       		.uleb128 0xd
ARM GAS  C:\Users\Phuong\AppData\Local\Temp\ccuEFeTd.s 			page 74


 3563 03fc 01       		.uleb128 0x1
 3564 03fd 52       		.byte	0x52
 3565 03fe 02       		.uleb128 0x2
 3566 03ff 78       		.byte	0x78
 3567 0400 00       		.sleb128 0
 3568 0401 00       		.byte	0
 3569 0402 1A       		.uleb128 0x1a
 3570 0403 4C000000 		.4byte	.LVL214
 3571 0407 81020000 		.4byte	0x281
 3572 040b 1C040000 		.4byte	0x41c
 3573 040f 0D       		.uleb128 0xd
 3574 0410 01       		.uleb128 0x1
 3575 0411 50       		.byte	0x50
 3576 0412 02       		.uleb128 0x2
 3577 0413 76       		.byte	0x76
 3578 0414 00       		.sleb128 0
 3579 0415 0D       		.uleb128 0xd
 3580 0416 01       		.uleb128 0x1
 3581 0417 51       		.byte	0x51
 3582 0418 02       		.uleb128 0x2
 3583 0419 79       		.byte	0x79
 3584 041a 00       		.sleb128 0
 3585 041b 00       		.byte	0
 3586 041c 1A       		.uleb128 0x1a
 3587 041d 62000000 		.4byte	.LVL218
 3588 0421 81020000 		.4byte	0x281
 3589 0425 36040000 		.4byte	0x436
 3590 0429 0D       		.uleb128 0xd
 3591 042a 01       		.uleb128 0x1
 3592 042b 50       		.byte	0x50
 3593 042c 02       		.uleb128 0x2
 3594 042d 76       		.byte	0x76
 3595 042e 00       		.sleb128 0
 3596 042f 0D       		.uleb128 0xd
 3597 0430 01       		.uleb128 0x1
 3598 0431 51       		.byte	0x51
 3599 0432 02       		.uleb128 0x2
 3600 0433 75       		.byte	0x75
 3601 0434 00       		.sleb128 0
 3602 0435 00       		.byte	0
 3603 0436 0C       		.uleb128 0xc
 3604 0437 7E000000 		.4byte	.LVL222
 3605 043b A50A0000 		.4byte	0xaa5
 3606 043f 0D       		.uleb128 0xd
 3607 0440 01       		.uleb128 0x1
 3608 0441 50       		.byte	0x50
 3609 0442 05       		.uleb128 0x5
 3610 0443 76       		.byte	0x76
 3611 0444 00       		.sleb128 0
 3612 0445 77       		.byte	0x77
 3613 0446 00       		.sleb128 0
 3614 0447 22       		.byte	0x22
 3615 0448 0D       		.uleb128 0xd
 3616 0449 01       		.uleb128 0x1
 3617 044a 51       		.byte	0x51
 3618 044b 02       		.uleb128 0x2
 3619 044c 75       		.byte	0x75
ARM GAS  C:\Users\Phuong\AppData\Local\Temp\ccuEFeTd.s 			page 75


 3620 044d 00       		.sleb128 0
 3621 044e 0D       		.uleb128 0xd
 3622 044f 01       		.uleb128 0x1
 3623 0450 52       		.byte	0x52
 3624 0451 02       		.uleb128 0x2
 3625 0452 74       		.byte	0x74
 3626 0453 00       		.sleb128 0
 3627 0454 00       		.byte	0
 3628 0455 00       		.byte	0
 3629 0456 1B       		.uleb128 0x1b
 3630 0457 A8030000 		.4byte	.LASF35
 3631 045b 01       		.byte	0x1
 3632 045c 3201     		.2byte	0x132
 3633 045e 00000000 		.4byte	.LFB9
 3634 0462 08000000 		.4byte	.LFE9-.LFB9
 3635 0466 01       		.uleb128 0x1
 3636 0467 9C       		.byte	0x9c
 3637 0468 BC040000 		.4byte	0x4bc
 3638 046c 16       		.uleb128 0x16
 3639 046d 63747800 		.ascii	"ctx\000"
 3640 0471 01       		.byte	0x1
 3641 0472 3201     		.2byte	0x132
 3642 0474 60010000 		.4byte	0x160
 3643 0478 0E300000 		.4byte	.LLST20
 3644 047c 17       		.uleb128 0x17
 3645 047d FD020000 		.4byte	.LASF31
 3646 0481 01       		.byte	0x1
 3647 0482 3301     		.2byte	0x133
 3648 0484 FE020000 		.4byte	0x2fe
 3649 0488 2F300000 		.4byte	.LLST21
 3650 048c 17       		.uleb128 0x17
 3651 048d 58040000 		.4byte	.LASF32
 3652 0491 01       		.byte	0x1
 3653 0492 3401     		.2byte	0x134
 3654 0494 76000000 		.4byte	0x76
 3655 0498 50300000 		.4byte	.LLST22
 3656 049c 0C       		.uleb128 0xc
 3657 049d 06000000 		.4byte	.LVL230
 3658 04a1 65030000 		.4byte	0x365
 3659 04a5 0D       		.uleb128 0xd
 3660 04a6 01       		.uleb128 0x1
 3661 04a7 50       		.byte	0x50
 3662 04a8 03       		.uleb128 0x3
 3663 04a9 F3       		.byte	0xf3
 3664 04aa 01       		.uleb128 0x1
 3665 04ab 50       		.byte	0x50
 3666 04ac 0D       		.uleb128 0xd
 3667 04ad 01       		.uleb128 0x1
 3668 04ae 51       		.byte	0x51
 3669 04af 03       		.uleb128 0x3
 3670 04b0 F3       		.byte	0xf3
 3671 04b1 01       		.uleb128 0x1
 3672 04b2 51       		.byte	0x51
 3673 04b3 0D       		.uleb128 0xd
 3674 04b4 01       		.uleb128 0x1
 3675 04b5 52       		.byte	0x52
 3676 04b6 03       		.uleb128 0x3
ARM GAS  C:\Users\Phuong\AppData\Local\Temp\ccuEFeTd.s 			page 76


 3677 04b7 F3       		.byte	0xf3
 3678 04b8 01       		.uleb128 0x1
 3679 04b9 52       		.byte	0x52
 3680 04ba 00       		.byte	0
 3681 04bb 00       		.byte	0
 3682 04bc 15       		.uleb128 0x15
 3683 04bd 1D000000 		.4byte	.LASF36
 3684 04c1 01       		.byte	0x1
 3685 04c2 3D01     		.2byte	0x13d
 3686 04c4 68000000 		.4byte	0x68
 3687 04c8 00000000 		.4byte	.LFB10
 3688 04cc 38010000 		.4byte	.LFE10-.LFB10
 3689 04d0 01       		.uleb128 0x1
 3690 04d1 9C       		.byte	0x9c
 3691 04d2 AC050000 		.4byte	0x5ac
 3692 04d6 16       		.uleb128 0x16
 3693 04d7 63747800 		.ascii	"ctx\000"
 3694 04db 01       		.byte	0x1
 3695 04dc 3D01     		.2byte	0x13d
 3696 04de 60010000 		.4byte	0x160
 3697 04e2 71300000 		.4byte	.LLST23
 3698 04e6 17       		.uleb128 0x17
 3699 04e7 32020000 		.4byte	.LASF37
 3700 04eb 01       		.byte	0x1
 3701 04ec 3E01     		.2byte	0x13e
 3702 04ee 12010000 		.4byte	0x112
 3703 04f2 9D300000 		.4byte	.LLST24
 3704 04f6 18       		.uleb128 0x18
 3705 04f7 72657400 		.ascii	"ret\000"
 3706 04fb 01       		.byte	0x1
 3707 04fc 4001     		.2byte	0x140
 3708 04fe 68000000 		.4byte	0x68
 3709 0502 DF300000 		.4byte	.LLST25
 3710 0506 19       		.uleb128 0x19
 3711 0507 83020000 		.4byte	.LASF38
 3712 050b 01       		.byte	0x1
 3713 050c 4101     		.2byte	0x141
 3714 050e 88000000 		.4byte	0x88
 3715 0512 FD300000 		.4byte	.LLST26
 3716 0516 19       		.uleb128 0x19
 3717 0517 E6030000 		.4byte	.LASF39
 3718 051b 01       		.byte	0x1
 3719 051c 4201     		.2byte	0x142
 3720 051e 88000000 		.4byte	0x88
 3721 0522 26310000 		.4byte	.LLST27
 3722 0526 18       		.uleb128 0x18
 3723 0527 6C6F7700 		.ascii	"low\000"
 3724 052b 01       		.byte	0x1
 3725 052c 4201     		.2byte	0x142
 3726 052e 88000000 		.4byte	0x88
 3727 0532 39310000 		.4byte	.LLST28
 3728 0536 1A       		.uleb128 0x1a
 3729 0537 2A000000 		.4byte	.LVL236
 3730 053b 910A0000 		.4byte	0xa91
 3731 053f 49050000 		.4byte	0x549
 3732 0543 0D       		.uleb128 0xd
 3733 0544 01       		.uleb128 0x1
ARM GAS  C:\Users\Phuong\AppData\Local\Temp\ccuEFeTd.s 			page 77


 3734 0545 51       		.byte	0x51
 3735 0546 01       		.uleb128 0x1
 3736 0547 30       		.byte	0x30
 3737 0548 00       		.byte	0
 3738 0549 1A       		.uleb128 0x1a
 3739 054a 3C000000 		.4byte	.LVL240
 3740 054e 910A0000 		.4byte	0xa91
 3741 0552 5C050000 		.4byte	0x55c
 3742 0556 0D       		.uleb128 0xd
 3743 0557 01       		.uleb128 0x1
 3744 0558 51       		.byte	0x51
 3745 0559 01       		.uleb128 0x1
 3746 055a 30       		.byte	0x30
 3747 055b 00       		.byte	0
 3748 055c 1A       		.uleb128 0x1a
 3749 055d 44000000 		.4byte	.LVL241
 3750 0561 81020000 		.4byte	0x281
 3751 0565 76050000 		.4byte	0x576
 3752 0569 0D       		.uleb128 0xd
 3753 056a 01       		.uleb128 0x1
 3754 056b 50       		.byte	0x50
 3755 056c 02       		.uleb128 0x2
 3756 056d 74       		.byte	0x74
 3757 056e 00       		.sleb128 0
 3758 056f 0D       		.uleb128 0xd
 3759 0570 01       		.uleb128 0x1
 3760 0571 51       		.byte	0x51
 3761 0572 02       		.uleb128 0x2
 3762 0573 76       		.byte	0x76
 3763 0574 00       		.sleb128 0
 3764 0575 00       		.byte	0
 3765 0576 1A       		.uleb128 0x1a
 3766 0577 52000000 		.4byte	.LVL243
 3767 057b 910A0000 		.4byte	0xa91
 3768 057f 95050000 		.4byte	0x595
 3769 0583 0D       		.uleb128 0xd
 3770 0584 01       		.uleb128 0x1
 3771 0585 50       		.byte	0x50
 3772 0586 02       		.uleb128 0x2
 3773 0587 76       		.byte	0x76
 3774 0588 00       		.sleb128 0
 3775 0589 0D       		.uleb128 0xd
 3776 058a 01       		.uleb128 0x1
 3777 058b 51       		.byte	0x51
 3778 058c 01       		.uleb128 0x1
 3779 058d 30       		.byte	0x30
 3780 058e 0D       		.uleb128 0xd
 3781 058f 01       		.uleb128 0x1
 3782 0590 52       		.byte	0x52
 3783 0591 02       		.uleb128 0x2
 3784 0592 08       		.byte	0x8
 3785 0593 38       		.byte	0x38
 3786 0594 00       		.byte	0
 3787 0595 0C       		.uleb128 0xc
 3788 0596 94000000 		.4byte	.LVL247
 3789 059a 81020000 		.4byte	0x281
 3790 059e 0D       		.uleb128 0xd
ARM GAS  C:\Users\Phuong\AppData\Local\Temp\ccuEFeTd.s 			page 78


 3791 059f 01       		.uleb128 0x1
 3792 05a0 50       		.byte	0x50
 3793 05a1 02       		.uleb128 0x2
 3794 05a2 74       		.byte	0x74
 3795 05a3 00       		.sleb128 0
 3796 05a4 0D       		.uleb128 0xd
 3797 05a5 01       		.uleb128 0x1
 3798 05a6 51       		.byte	0x51
 3799 05a7 02       		.uleb128 0x2
 3800 05a8 74       		.byte	0x74
 3801 05a9 28       		.sleb128 40
 3802 05aa 00       		.byte	0
 3803 05ab 00       		.byte	0
 3804 05ac 1B       		.uleb128 0x1b
 3805 05ad 58000000 		.4byte	.LASF40
 3806 05b1 01       		.byte	0x1
 3807 05b2 7A01     		.2byte	0x17a
 3808 05b4 00000000 		.4byte	.LFB11
 3809 05b8 08000000 		.4byte	.LFE11-.LFB11
 3810 05bc 01       		.uleb128 0x1
 3811 05bd 9C       		.byte	0x9c
 3812 05be FB050000 		.4byte	0x5fb
 3813 05c2 16       		.uleb128 0x16
 3814 05c3 63747800 		.ascii	"ctx\000"
 3815 05c7 01       		.byte	0x1
 3816 05c8 7A01     		.2byte	0x17a
 3817 05ca 60010000 		.4byte	0x160
 3818 05ce 4C310000 		.4byte	.LLST29
 3819 05d2 17       		.uleb128 0x17
 3820 05d3 32020000 		.4byte	.LASF37
 3821 05d7 01       		.byte	0x1
 3822 05d8 7B01     		.2byte	0x17b
 3823 05da 12010000 		.4byte	0x112
 3824 05de 6D310000 		.4byte	.LLST30
 3825 05e2 0C       		.uleb128 0xc
 3826 05e3 06000000 		.4byte	.LVL252
 3827 05e7 BC040000 		.4byte	0x4bc
 3828 05eb 0D       		.uleb128 0xd
 3829 05ec 01       		.uleb128 0x1
 3830 05ed 50       		.byte	0x50
 3831 05ee 03       		.uleb128 0x3
 3832 05ef F3       		.byte	0xf3
 3833 05f0 01       		.uleb128 0x1
 3834 05f1 50       		.byte	0x50
 3835 05f2 0D       		.uleb128 0xd
 3836 05f3 01       		.uleb128 0x1
 3837 05f4 51       		.byte	0x51
 3838 05f5 03       		.uleb128 0x3
 3839 05f6 F3       		.byte	0xf3
 3840 05f7 01       		.uleb128 0x1
 3841 05f8 51       		.byte	0x51
 3842 05f9 00       		.byte	0
 3843 05fa 00       		.byte	0
 3844 05fb 15       		.uleb128 0x15
 3845 05fc C2000000 		.4byte	.LASF41
 3846 0600 01       		.byte	0x1
 3847 0601 8601     		.2byte	0x186
ARM GAS  C:\Users\Phuong\AppData\Local\Temp\ccuEFeTd.s 			page 79


 3848 0603 68000000 		.4byte	0x68
 3849 0607 00000000 		.4byte	.LFB12
 3850 060b 42000000 		.4byte	.LFE12-.LFB12
 3851 060f 01       		.uleb128 0x1
 3852 0610 9C       		.byte	0x9c
 3853 0611 FF060000 		.4byte	0x6ff
 3854 0615 17       		.uleb128 0x17
 3855 0616 FD020000 		.4byte	.LASF31
 3856 061a 01       		.byte	0x1
 3857 061b 8601     		.2byte	0x186
 3858 061d FE020000 		.4byte	0x2fe
 3859 0621 8E310000 		.4byte	.LLST31
 3860 0625 17       		.uleb128 0x17
 3861 0626 58040000 		.4byte	.LASF32
 3862 062a 01       		.byte	0x1
 3863 062b 8701     		.2byte	0x187
 3864 062d 76000000 		.4byte	0x76
 3865 0631 BA310000 		.4byte	.LLST32
 3866 0635 17       		.uleb128 0x17
 3867 0636 32020000 		.4byte	.LASF37
 3868 063a 01       		.byte	0x1
 3869 063b 8801     		.2byte	0x188
 3870 063d 12010000 		.4byte	0x112
 3871 0641 E6310000 		.4byte	.LLST33
 3872 0645 17       		.uleb128 0x17
 3873 0646 26020000 		.4byte	.LASF16
 3874 064a 01       		.byte	0x1
 3875 064b 8901     		.2byte	0x189
 3876 064d 68000000 		.4byte	0x68
 3877 0651 12320000 		.4byte	.LLST34
 3878 0655 18       		.uleb128 0x18
 3879 0656 72657400 		.ascii	"ret\000"
 3880 065a 01       		.byte	0x1
 3881 065b 8B01     		.2byte	0x18b
 3882 065d 68000000 		.4byte	0x68
 3883 0661 3E320000 		.4byte	.LLST35
 3884 0665 1C       		.uleb128 0x1c
 3885 0666 63747800 		.ascii	"ctx\000"
 3886 066a 01       		.byte	0x1
 3887 066b 8C01     		.2byte	0x18c
 3888 066d 07010000 		.4byte	0x107
 3889 0671 03       		.uleb128 0x3
 3890 0672 91       		.byte	0x91
 3891 0673 FC7E     		.sleb128 -132
 3892 0675 1D       		.uleb128 0x1d
 3893 0676 F8020000 		.4byte	.LASF47
 3894 067a 01       		.byte	0x1
 3895 067b 9901     		.2byte	0x199
 3896 067d 36000000 		.4byte	.L50
 3897 0681 1A       		.uleb128 0x1a
 3898 0682 12000000 		.4byte	.LVL255
 3899 0686 1F010000 		.4byte	0x11f
 3900 068a 96060000 		.4byte	0x696
 3901 068e 0D       		.uleb128 0xd
 3902 068f 01       		.uleb128 0x1
 3903 0690 50       		.byte	0x50
 3904 0691 03       		.uleb128 0x3
ARM GAS  C:\Users\Phuong\AppData\Local\Temp\ccuEFeTd.s 			page 80


 3905 0692 91       		.byte	0x91
 3906 0693 FC7E     		.sleb128 -132
 3907 0695 00       		.byte	0
 3908 0696 1A       		.uleb128 0x1a
 3909 0697 1A000000 		.4byte	.LVL256
 3910 069b FF010000 		.4byte	0x1ff
 3911 069f B1060000 		.4byte	0x6b1
 3912 06a3 0D       		.uleb128 0xd
 3913 06a4 01       		.uleb128 0x1
 3914 06a5 50       		.byte	0x50
 3915 06a6 03       		.uleb128 0x3
 3916 06a7 91       		.byte	0x91
 3917 06a8 FC7E     		.sleb128 -132
 3918 06aa 0D       		.uleb128 0xd
 3919 06ab 01       		.uleb128 0x1
 3920 06ac 51       		.byte	0x51
 3921 06ad 02       		.uleb128 0x2
 3922 06ae 74       		.byte	0x74
 3923 06af 00       		.sleb128 0
 3924 06b0 00       		.byte	0
 3925 06b1 1A       		.uleb128 0x1a
 3926 06b2 28000000 		.4byte	.LVL259
 3927 06b6 65030000 		.4byte	0x365
 3928 06ba D2060000 		.4byte	0x6d2
 3929 06be 0D       		.uleb128 0xd
 3930 06bf 01       		.uleb128 0x1
 3931 06c0 50       		.byte	0x50
 3932 06c1 03       		.uleb128 0x3
 3933 06c2 91       		.byte	0x91
 3934 06c3 FC7E     		.sleb128 -132
 3935 06c5 0D       		.uleb128 0xd
 3936 06c6 01       		.uleb128 0x1
 3937 06c7 51       		.byte	0x51
 3938 06c8 02       		.uleb128 0x2
 3939 06c9 75       		.byte	0x75
 3940 06ca 00       		.sleb128 0
 3941 06cb 0D       		.uleb128 0xd
 3942 06cc 01       		.uleb128 0x1
 3943 06cd 52       		.byte	0x52
 3944 06ce 02       		.uleb128 0x2
 3945 06cf 76       		.byte	0x76
 3946 06d0 00       		.sleb128 0
 3947 06d1 00       		.byte	0
 3948 06d2 1A       		.uleb128 0x1a
 3949 06d3 34000000 		.4byte	.LVL262
 3950 06d7 BC040000 		.4byte	0x4bc
 3951 06db ED060000 		.4byte	0x6ed
 3952 06df 0D       		.uleb128 0xd
 3953 06e0 01       		.uleb128 0x1
 3954 06e1 50       		.byte	0x50
 3955 06e2 03       		.uleb128 0x3
 3956 06e3 91       		.byte	0x91
 3957 06e4 FC7E     		.sleb128 -132
 3958 06e6 0D       		.uleb128 0xd
 3959 06e7 01       		.uleb128 0x1
 3960 06e8 51       		.byte	0x51
 3961 06e9 02       		.uleb128 0x2
ARM GAS  C:\Users\Phuong\AppData\Local\Temp\ccuEFeTd.s 			page 81


 3962 06ea 77       		.byte	0x77
 3963 06eb 00       		.sleb128 0
 3964 06ec 00       		.byte	0
 3965 06ed 0C       		.uleb128 0xc
 3966 06ee 3C000000 		.4byte	.LVL265
 3967 06f2 66010000 		.4byte	0x166
 3968 06f6 0D       		.uleb128 0xd
 3969 06f7 01       		.uleb128 0x1
 3970 06f8 50       		.byte	0x50
 3971 06f9 03       		.uleb128 0x3
 3972 06fa 91       		.byte	0x91
 3973 06fb FC7E     		.sleb128 -132
 3974 06fd 00       		.byte	0
 3975 06fe 00       		.byte	0
 3976 06ff 1B       		.uleb128 0x1b
 3977 0700 C8020000 		.4byte	.LASF42
 3978 0704 01       		.byte	0x1
 3979 0705 A001     		.2byte	0x1a0
 3980 0707 00000000 		.4byte	.LFB13
 3981 070b 08000000 		.4byte	.LFE13-.LFB13
 3982 070f 01       		.uleb128 0x1
 3983 0710 9C       		.byte	0x9c
 3984 0711 7C070000 		.4byte	0x77c
 3985 0715 17       		.uleb128 0x17
 3986 0716 FD020000 		.4byte	.LASF31
 3987 071a 01       		.byte	0x1
 3988 071b A001     		.2byte	0x1a0
 3989 071d FE020000 		.4byte	0x2fe
 3990 0721 93320000 		.4byte	.LLST36
 3991 0725 17       		.uleb128 0x17
 3992 0726 58040000 		.4byte	.LASF32
 3993 072a 01       		.byte	0x1
 3994 072b A101     		.2byte	0x1a1
 3995 072d 76000000 		.4byte	0x76
 3996 0731 B4320000 		.4byte	.LLST37
 3997 0735 17       		.uleb128 0x17
 3998 0736 32020000 		.4byte	.LASF37
 3999 073a 01       		.byte	0x1
 4000 073b A201     		.2byte	0x1a2
 4001 073d 12010000 		.4byte	0x112
 4002 0741 D5320000 		.4byte	.LLST38
 4003 0745 17       		.uleb128 0x17
 4004 0746 26020000 		.4byte	.LASF16
 4005 074a 01       		.byte	0x1
 4006 074b A301     		.2byte	0x1a3
 4007 074d 68000000 		.4byte	0x68
 4008 0751 F6320000 		.4byte	.LLST39
 4009 0755 0C       		.uleb128 0xc
 4010 0756 06000000 		.4byte	.LVL271
 4011 075a FB050000 		.4byte	0x5fb
 4012 075e 0D       		.uleb128 0xd
 4013 075f 01       		.uleb128 0x1
 4014 0760 50       		.byte	0x50
 4015 0761 03       		.uleb128 0x3
 4016 0762 F3       		.byte	0xf3
 4017 0763 01       		.uleb128 0x1
 4018 0764 50       		.byte	0x50
ARM GAS  C:\Users\Phuong\AppData\Local\Temp\ccuEFeTd.s 			page 82


 4019 0765 0D       		.uleb128 0xd
 4020 0766 01       		.uleb128 0x1
 4021 0767 51       		.byte	0x51
 4022 0768 03       		.uleb128 0x3
 4023 0769 F3       		.byte	0xf3
 4024 076a 01       		.uleb128 0x1
 4025 076b 51       		.byte	0x51
 4026 076c 0D       		.uleb128 0xd
 4027 076d 01       		.uleb128 0x1
 4028 076e 52       		.byte	0x52
 4029 076f 03       		.uleb128 0x3
 4030 0770 F3       		.byte	0xf3
 4031 0771 01       		.uleb128 0x1
 4032 0772 52       		.byte	0x52
 4033 0773 0D       		.uleb128 0xd
 4034 0774 01       		.uleb128 0x1
 4035 0775 53       		.byte	0x53
 4036 0776 03       		.uleb128 0x3
 4037 0777 F3       		.byte	0xf3
 4038 0778 01       		.uleb128 0x1
 4039 0779 53       		.byte	0x53
 4040 077a 00       		.byte	0
 4041 077b 00       		.byte	0
 4042 077c 1E       		.uleb128 0x1e
 4043 077d 5D040000 		.4byte	.LASF43
 4044 0781 01       		.byte	0x1
 4045 0782 DF01     		.2byte	0x1df
 4046 0784 68000000 		.4byte	0x68
 4047 0788 00000000 		.4byte	.LFB14
 4048 078c 44010000 		.4byte	.LFE14-.LFB14
 4049 0790 01       		.uleb128 0x1
 4050 0791 9C       		.byte	0x9c
 4051 0792 D2090000 		.4byte	0x9d2
 4052 0796 17       		.uleb128 0x17
 4053 0797 D7030000 		.4byte	.LASF44
 4054 079b 01       		.byte	0x1
 4055 079c DF01     		.2byte	0x1df
 4056 079e 68000000 		.4byte	0x68
 4057 07a2 17330000 		.4byte	.LLST40
 4058 07a6 18       		.uleb128 0x18
 4059 07a7 6900     		.ascii	"i\000"
 4060 07a9 01       		.byte	0x1
 4061 07aa E101     		.2byte	0x1e1
 4062 07ac 68000000 		.4byte	0x68
 4063 07b0 B1330000 		.4byte	.LLST41
 4064 07b4 18       		.uleb128 0x18
 4065 07b5 6A00     		.ascii	"j\000"
 4066 07b7 01       		.byte	0x1
 4067 07b8 E101     		.2byte	0x1e1
 4068 07ba 68000000 		.4byte	0x68
 4069 07be D0330000 		.4byte	.LLST42
 4070 07c2 18       		.uleb128 0x18
 4071 07c3 6B00     		.ascii	"k\000"
 4072 07c5 01       		.byte	0x1
 4073 07c6 E101     		.2byte	0x1e1
 4074 07c8 68000000 		.4byte	0x68
 4075 07cc 05340000 		.4byte	.LLST43
ARM GAS  C:\Users\Phuong\AppData\Local\Temp\ccuEFeTd.s 			page 83


 4076 07d0 19       		.uleb128 0x19
 4077 07d1 F1020000 		.4byte	.LASF45
 4078 07d5 01       		.byte	0x1
 4079 07d6 E101     		.2byte	0x1e1
 4080 07d8 68000000 		.4byte	0x68
 4081 07dc 23340000 		.4byte	.LLST44
 4082 07e0 18       		.uleb128 0x18
 4083 07e1 72657400 		.ascii	"ret\000"
 4084 07e5 01       		.byte	0x1
 4085 07e6 E101     		.2byte	0x1e1
 4086 07e8 68000000 		.4byte	0x68
 4087 07ec 39340000 		.4byte	.LLST45
 4088 07f0 18       		.uleb128 0x18
 4089 07f1 62756600 		.ascii	"buf\000"
 4090 07f5 01       		.byte	0x1
 4091 07f6 E201     		.2byte	0x1e2
 4092 07f8 12010000 		.4byte	0x112
 4093 07fc D2340000 		.4byte	.LLST46
 4094 0800 1F       		.uleb128 0x1f
 4095 0801 6E000000 		.4byte	.LASF46
 4096 0805 01       		.byte	0x1
 4097 0806 E301     		.2byte	0x1e3
 4098 0808 D2090000 		.4byte	0x9d2
 4099 080c 02       		.uleb128 0x2
 4100 080d 91       		.byte	0x91
 4101 080e 48       		.sleb128 -56
 4102 080f 1C       		.uleb128 0x1c
 4103 0810 63747800 		.ascii	"ctx\000"
 4104 0814 01       		.byte	0x1
 4105 0815 E401     		.2byte	0x1e4
 4106 0817 07010000 		.4byte	0x107
 4107 081b 03       		.uleb128 0x3
 4108 081c 91       		.byte	0x91
 4109 081d DC7E     		.sleb128 -164
 4110 081f 1D       		.uleb128 0x1d
 4111 0820 0C030000 		.4byte	.LASF48
 4112 0824 01       		.byte	0x1
 4113 0825 2302     		.2byte	0x223
 4114 0827 00010000 		.4byte	.L57
 4115 082b 1D       		.uleb128 0x1d
 4116 082c F8020000 		.4byte	.LASF47
 4117 0830 01       		.byte	0x1
 4118 0831 2702     		.2byte	0x227
 4119 0833 0C010000 		.4byte	.L64
 4120 0837 1A       		.uleb128 0x1a
 4121 0838 14000000 		.4byte	.LVL275
 4122 083c AE0A0000 		.4byte	0xaae
 4123 0840 51080000 		.4byte	0x851
 4124 0844 0D       		.uleb128 0xd
 4125 0845 01       		.uleb128 0x1
 4126 0846 50       		.byte	0x50
 4127 0847 03       		.uleb128 0x3
 4128 0848 0A       		.byte	0xa
 4129 0849 0004     		.2byte	0x400
 4130 084b 0D       		.uleb128 0xd
 4131 084c 01       		.uleb128 0x1
 4132 084d 51       		.byte	0x51
ARM GAS  C:\Users\Phuong\AppData\Local\Temp\ccuEFeTd.s 			page 84


 4133 084e 01       		.uleb128 0x1
 4134 084f 31       		.byte	0x31
 4135 0850 00       		.byte	0
 4136 0851 1A       		.uleb128 0x1a
 4137 0852 28000000 		.4byte	.LVL278
 4138 0856 B90A0000 		.4byte	0xab9
 4139 085a 68080000 		.4byte	0x868
 4140 085e 0D       		.uleb128 0xd
 4141 085f 01       		.uleb128 0x1
 4142 0860 50       		.byte	0x50
 4143 0861 05       		.uleb128 0x5
 4144 0862 03       		.byte	0x3
 4145 0863 00000000 		.4byte	.LC1
 4146 0867 00       		.byte	0
 4147 0868 1A       		.uleb128 0x1a
 4148 0869 32000000 		.4byte	.LVL281
 4149 086d 1F010000 		.4byte	0x11f
 4150 0871 7D080000 		.4byte	0x87d
 4151 0875 0D       		.uleb128 0xd
 4152 0876 01       		.uleb128 0x1
 4153 0877 50       		.byte	0x50
 4154 0878 03       		.uleb128 0x3
 4155 0879 91       		.byte	0x91
 4156 087a DC7E     		.sleb128 -164
 4157 087c 00       		.byte	0
 4158 087d 1A       		.uleb128 0x1a
 4159 087e 62000000 		.4byte	.LVL288
 4160 0882 C80A0000 		.4byte	0xac8
 4161 0886 A4080000 		.4byte	0x8a4
 4162 088a 0D       		.uleb128 0xd
 4163 088b 01       		.uleb128 0x1
 4164 088c 50       		.byte	0x50
 4165 088d 05       		.uleb128 0x5
 4166 088e 03       		.byte	0x3
 4167 088f 1C000000 		.4byte	.LC3
 4168 0893 0D       		.uleb128 0xd
 4169 0894 01       		.uleb128 0x1
 4170 0895 51       		.byte	0x51
 4171 0896 06       		.uleb128 0x6
 4172 0897 38       		.byte	0x38
 4173 0898 77       		.byte	0x77
 4174 0899 00       		.sleb128 0
 4175 089a 1C       		.byte	0x1c
 4176 089b 35       		.byte	0x35
 4177 089c 24       		.byte	0x24
 4178 089d 0D       		.uleb128 0xd
 4179 089e 01       		.uleb128 0x1
 4180 089f 52       		.byte	0x52
 4181 08a0 02       		.uleb128 0x2
 4182 08a1 75       		.byte	0x75
 4183 08a2 01       		.sleb128 1
 4184 08a3 00       		.byte	0
 4185 08a4 1A       		.uleb128 0x1a
 4186 08a5 6A000000 		.4byte	.LVL289
 4187 08a9 FF010000 		.4byte	0x1ff
 4188 08ad BF080000 		.4byte	0x8bf
 4189 08b1 0D       		.uleb128 0xd
ARM GAS  C:\Users\Phuong\AppData\Local\Temp\ccuEFeTd.s 			page 85


 4190 08b2 01       		.uleb128 0x1
 4191 08b3 50       		.byte	0x50
 4192 08b4 03       		.uleb128 0x3
 4193 08b5 91       		.byte	0x91
 4194 08b6 DC7E     		.sleb128 -164
 4195 08b8 0D       		.uleb128 0xd
 4196 08b9 01       		.uleb128 0x1
 4197 08ba 51       		.byte	0x51
 4198 08bb 02       		.uleb128 0x2
 4199 08bc 77       		.byte	0x77
 4200 08bd 00       		.sleb128 0
 4201 08be 00       		.byte	0
 4202 08bf 1A       		.uleb128 0x1a
 4203 08c0 7E000000 		.4byte	.LVL293
 4204 08c4 D30A0000 		.4byte	0xad3
 4205 08c8 E2080000 		.4byte	0x8e2
 4206 08cc 0D       		.uleb128 0xd
 4207 08cd 01       		.uleb128 0x1
 4208 08ce 50       		.byte	0x50
 4209 08cf 04       		.uleb128 0x4
 4210 08d0 91       		.byte	0x91
 4211 08d1 D47E     		.sleb128 -172
 4212 08d3 06       		.byte	0x6
 4213 08d4 0D       		.uleb128 0xd
 4214 08d5 01       		.uleb128 0x1
 4215 08d6 51       		.byte	0x51
 4216 08d7 02       		.uleb128 0x2
 4217 08d8 08       		.byte	0x8
 4218 08d9 61       		.byte	0x61
 4219 08da 0D       		.uleb128 0xd
 4220 08db 01       		.uleb128 0x1
 4221 08dc 52       		.byte	0x52
 4222 08dd 03       		.uleb128 0x3
 4223 08de 0A       		.byte	0xa
 4224 08df E803     		.2byte	0x3e8
 4225 08e1 00       		.byte	0
 4226 08e2 1A       		.uleb128 0x1a
 4227 08e3 8E000000 		.4byte	.LVL295
 4228 08e7 65030000 		.4byte	0x365
 4229 08eb 06090000 		.4byte	0x906
 4230 08ef 0D       		.uleb128 0xd
 4231 08f0 01       		.uleb128 0x1
 4232 08f1 50       		.byte	0x50
 4233 08f2 03       		.uleb128 0x3
 4234 08f3 91       		.byte	0x91
 4235 08f4 DC7E     		.sleb128 -164
 4236 08f6 0D       		.uleb128 0xd
 4237 08f7 01       		.uleb128 0x1
 4238 08f8 51       		.byte	0x51
 4239 08f9 04       		.uleb128 0x4
 4240 08fa 91       		.byte	0x91
 4241 08fb D47E     		.sleb128 -172
 4242 08fd 06       		.byte	0x6
 4243 08fe 0D       		.uleb128 0xd
 4244 08ff 01       		.uleb128 0x1
 4245 0900 52       		.byte	0x52
 4246 0901 03       		.uleb128 0x3
ARM GAS  C:\Users\Phuong\AppData\Local\Temp\ccuEFeTd.s 			page 86


 4247 0902 0A       		.byte	0xa
 4248 0903 E803     		.2byte	0x3e8
 4249 0905 00       		.byte	0
 4250 0906 1A       		.uleb128 0x1a
 4251 0907 B6000000 		.4byte	.LVL301
 4252 090b 65030000 		.4byte	0x365
 4253 090f 22090000 		.4byte	0x922
 4254 0913 0D       		.uleb128 0xd
 4255 0914 01       		.uleb128 0x1
 4256 0915 50       		.byte	0x50
 4257 0916 03       		.uleb128 0x3
 4258 0917 91       		.byte	0x91
 4259 0918 DC7E     		.sleb128 -164
 4260 091a 0D       		.uleb128 0xd
 4261 091b 01       		.uleb128 0x1
 4262 091c 52       		.byte	0x52
 4263 091d 03       		.uleb128 0x3
 4264 091e 75       		.byte	0x75
 4265 091f 2C       		.sleb128 44
 4266 0920 06       		.byte	0x6
 4267 0921 00       		.byte	0
 4268 0922 1A       		.uleb128 0x1a
 4269 0923 C2000000 		.4byte	.LVL304
 4270 0927 BC040000 		.4byte	0x4bc
 4271 092b 3D090000 		.4byte	0x93d
 4272 092f 0D       		.uleb128 0xd
 4273 0930 01       		.uleb128 0x1
 4274 0931 50       		.byte	0x50
 4275 0932 03       		.uleb128 0x3
 4276 0933 91       		.byte	0x91
 4277 0934 DC7E     		.sleb128 -164
 4278 0936 0D       		.uleb128 0xd
 4279 0937 01       		.uleb128 0x1
 4280 0938 51       		.byte	0x51
 4281 0939 02       		.uleb128 0x2
 4282 093a 91       		.byte	0x91
 4283 093b 48       		.sleb128 -56
 4284 093c 00       		.byte	0
 4285 093d 1A       		.uleb128 0x1a
 4286 093e DA000000 		.4byte	.LVL307
 4287 0942 DE0A0000 		.4byte	0xade
 4288 0946 69090000 		.4byte	0x969
 4289 094a 0D       		.uleb128 0xd
 4290 094b 01       		.uleb128 0x1
 4291 094c 50       		.byte	0x50
 4292 094d 02       		.uleb128 0x2
 4293 094e 91       		.byte	0x91
 4294 094f 48       		.sleb128 -56
 4295 0950 0D       		.uleb128 0xd
 4296 0951 01       		.uleb128 0x1
 4297 0952 51       		.byte	0x51
 4298 0953 0A       		.uleb128 0xa
 4299 0954 76       		.byte	0x76
 4300 0955 00       		.sleb128 0
 4301 0956 35       		.byte	0x35
 4302 0957 24       		.byte	0x24
 4303 0958 03       		.byte	0x3
ARM GAS  C:\Users\Phuong\AppData\Local\Temp\ccuEFeTd.s 			page 87


 4304 0959 B8010000 		.4byte	.LANCHOR2+56
 4305 095d 22       		.byte	0x22
 4306 095e 0D       		.uleb128 0xd
 4307 095f 01       		.uleb128 0x1
 4308 0960 52       		.byte	0x52
 4309 0961 06       		.uleb128 0x6
 4310 0962 38       		.byte	0x38
 4311 0963 77       		.byte	0x77
 4312 0964 00       		.sleb128 0
 4313 0965 1C       		.byte	0x1c
 4314 0966 32       		.byte	0x32
 4315 0967 24       		.byte	0x24
 4316 0968 00       		.byte	0
 4317 0969 1A       		.uleb128 0x1a
 4318 096a EA000000 		.4byte	.LVL309
 4319 096e B90A0000 		.4byte	0xab9
 4320 0972 80090000 		.4byte	0x980
 4321 0976 0D       		.uleb128 0xd
 4322 0977 01       		.uleb128 0x1
 4323 0978 50       		.byte	0x50
 4324 0979 05       		.uleb128 0x5
 4325 097a 03       		.byte	0x3
 4326 097b 30000000 		.4byte	.LC7
 4327 097f 00       		.byte	0
 4328 0980 1A       		.uleb128 0x1a
 4329 0981 FC000000 		.4byte	.LVL312
 4330 0985 E90A0000 		.4byte	0xae9
 4331 0989 93090000 		.4byte	0x993
 4332 098d 0D       		.uleb128 0xd
 4333 098e 01       		.uleb128 0x1
 4334 098f 50       		.byte	0x50
 4335 0990 01       		.uleb128 0x1
 4336 0991 3A       		.byte	0x3a
 4337 0992 00       		.byte	0
 4338 0993 1A       		.uleb128 0x1a
 4339 0994 0C010000 		.4byte	.LVL316
 4340 0998 B90A0000 		.4byte	0xab9
 4341 099c AA090000 		.4byte	0x9aa
 4342 09a0 0D       		.uleb128 0xd
 4343 09a1 01       		.uleb128 0x1
 4344 09a2 50       		.byte	0x50
 4345 09a3 05       		.uleb128 0x5
 4346 09a4 03       		.byte	0x3
 4347 09a5 38000000 		.4byte	.LC9
 4348 09a9 00       		.byte	0
 4349 09aa 1A       		.uleb128 0x1a
 4350 09ab 12010000 		.4byte	.LVL317
 4351 09af 66010000 		.4byte	0x166
 4352 09b3 BF090000 		.4byte	0x9bf
 4353 09b7 0D       		.uleb128 0xd
 4354 09b8 01       		.uleb128 0x1
 4355 09b9 50       		.byte	0x50
 4356 09ba 03       		.uleb128 0x3
 4357 09bb 91       		.byte	0x91
 4358 09bc DC7E     		.sleb128 -164
 4359 09be 00       		.byte	0
 4360 09bf 0C       		.uleb128 0xc
ARM GAS  C:\Users\Phuong\AppData\Local\Temp\ccuEFeTd.s 			page 88


 4361 09c0 18010000 		.4byte	.LVL318
 4362 09c4 F80A0000 		.4byte	0xaf8
 4363 09c8 0D       		.uleb128 0xd
 4364 09c9 01       		.uleb128 0x1
 4365 09ca 50       		.byte	0x50
 4366 09cb 04       		.uleb128 0x4
 4367 09cc 91       		.byte	0x91
 4368 09cd D47E     		.sleb128 -172
 4369 09cf 06       		.byte	0x6
 4370 09d0 00       		.byte	0
 4371 09d1 00       		.byte	0
 4372 09d2 07       		.uleb128 0x7
 4373 09d3 2C000000 		.4byte	0x2c
 4374 09d7 E2090000 		.4byte	0x9e2
 4375 09db 08       		.uleb128 0x8
 4376 09dc E0000000 		.4byte	0xe0
 4377 09e0 1F       		.byte	0x1f
 4378 09e1 00       		.byte	0
 4379 09e2 07       		.uleb128 0x7
 4380 09e3 F2090000 		.4byte	0x9f2
 4381 09e7 F2090000 		.4byte	0x9f2
 4382 09eb 08       		.uleb128 0x8
 4383 09ec E0000000 		.4byte	0xe0
 4384 09f0 3F       		.byte	0x3f
 4385 09f1 00       		.byte	0
 4386 09f2 0E       		.uleb128 0xe
 4387 09f3 88000000 		.4byte	0x88
 4388 09f7 13       		.uleb128 0x13
 4389 09f8 4B00     		.ascii	"K\000"
 4390 09fa 01       		.byte	0x1
 4391 09fb 8F       		.byte	0x8f
 4392 09fc 060A0000 		.4byte	0xa06
 4393 0a00 05       		.uleb128 0x5
 4394 0a01 03       		.byte	0x3
 4395 0a02 00000000 		.4byte	K
 4396 0a06 0E       		.uleb128 0xe
 4397 0a07 E2090000 		.4byte	0x9e2
 4398 0a0b 07       		.uleb128 0x7
 4399 0a0c 04030000 		.4byte	0x304
 4400 0a10 210A0000 		.4byte	0xa21
 4401 0a14 08       		.uleb128 0x8
 4402 0a15 E0000000 		.4byte	0xe0
 4403 0a19 02       		.byte	0x2
 4404 0a1a 08       		.uleb128 0x8
 4405 0a1b E0000000 		.4byte	0xe0
 4406 0a1f 38       		.byte	0x38
 4407 0a20 00       		.byte	0
 4408 0a21 1F       		.uleb128 0x1f
 4409 0a22 88020000 		.4byte	.LASF49
 4410 0a26 01       		.byte	0x1
 4411 0a27 AD01     		.2byte	0x1ad
 4412 0a29 330A0000 		.4byte	0xa33
 4413 0a2d 05       		.uleb128 0x5
 4414 0a2e 03       		.byte	0x3
 4415 0a2f 00010000 		.4byte	sha256_test_buf
 4416 0a33 0E       		.uleb128 0xe
 4417 0a34 0B0A0000 		.4byte	0xa0b
ARM GAS  C:\Users\Phuong\AppData\Local\Temp\ccuEFeTd.s 			page 89


 4418 0a38 07       		.uleb128 0x7
 4419 0a39 480A0000 		.4byte	0xa48
 4420 0a3d 480A0000 		.4byte	0xa48
 4421 0a41 08       		.uleb128 0x8
 4422 0a42 E0000000 		.4byte	0xe0
 4423 0a46 02       		.byte	0x2
 4424 0a47 00       		.byte	0
 4425 0a48 0E       		.uleb128 0xe
 4426 0a49 76000000 		.4byte	0x76
 4427 0a4d 1F       		.uleb128 0x1f
 4428 0a4e 3E040000 		.4byte	.LASF50
 4429 0a52 01       		.byte	0x1
 4430 0a53 B401     		.2byte	0x1b4
 4431 0a55 5F0A0000 		.4byte	0xa5f
 4432 0a59 05       		.uleb128 0x5
 4433 0a5a 03       		.byte	0x3
 4434 0a5b AC010000 		.4byte	sha256_test_buflen
 4435 0a5f 0E       		.uleb128 0xe
 4436 0a60 380A0000 		.4byte	0xa38
 4437 0a64 07       		.uleb128 0x7
 4438 0a65 04030000 		.4byte	0x304
 4439 0a69 7A0A0000 		.4byte	0xa7a
 4440 0a6d 08       		.uleb128 0x8
 4441 0a6e E0000000 		.4byte	0xe0
 4442 0a72 05       		.byte	0x5
 4443 0a73 08       		.uleb128 0x8
 4444 0a74 E0000000 		.4byte	0xe0
 4445 0a78 1F       		.byte	0x1f
 4446 0a79 00       		.byte	0
 4447 0a7a 1F       		.uleb128 0x1f
 4448 0a7b 73020000 		.4byte	.LASF51
 4449 0a7f 01       		.byte	0x1
 4450 0a80 B901     		.2byte	0x1b9
 4451 0a82 8C0A0000 		.4byte	0xa8c
 4452 0a86 05       		.uleb128 0x5
 4453 0a87 03       		.byte	0x3
 4454 0a88 B8010000 		.4byte	sha256_test_sum
 4455 0a8c 0E       		.uleb128 0xe
 4456 0a8d 640A0000 		.4byte	0xa64
 4457 0a91 20       		.uleb128 0x20
 4458 0a92 B0020000 		.4byte	.LASF52
 4459 0a96 B0020000 		.4byte	.LASF52
 4460 0a9a 21       		.uleb128 0x21
 4461 0a9b BE030000 		.4byte	.LASF54
 4462 0a9f BE030000 		.4byte	.LASF54
 4463 0aa3 06       		.byte	0x6
 4464 0aa4 42       		.byte	0x42
 4465 0aa5 20       		.uleb128 0x20
 4466 0aa6 AC010000 		.4byte	.LASF53
 4467 0aaa AC010000 		.4byte	.LASF53
 4468 0aae 21       		.uleb128 0x21
 4469 0aaf 51040000 		.4byte	.LASF55
 4470 0ab3 51040000 		.4byte	.LASF55
 4471 0ab7 07       		.byte	0x7
 4472 0ab8 56       		.byte	0x56
 4473 0ab9 22       		.uleb128 0x22
 4474 0aba 76040000 		.4byte	.LASF58
ARM GAS  C:\Users\Phuong\AppData\Local\Temp\ccuEFeTd.s 			page 90


 4475 0abe 9D010000 		.4byte	.LASF60
 4476 0ac2 0A       		.byte	0xa
 4477 0ac3 00       		.byte	0
 4478 0ac4 76040000 		.4byte	.LASF58
 4479 0ac8 21       		.uleb128 0x21
 4480 0ac9 00000000 		.4byte	.LASF56
 4481 0acd 00000000 		.4byte	.LASF56
 4482 0ad1 08       		.byte	0x8
 4483 0ad2 BB       		.byte	0xbb
 4484 0ad3 21       		.uleb128 0x21
 4485 0ad4 B0020000 		.4byte	.LASF52
 4486 0ad8 B0020000 		.4byte	.LASF52
 4487 0adc 09       		.byte	0x9
 4488 0add 19       		.byte	0x19
 4489 0ade 21       		.uleb128 0x21
 4490 0adf EB030000 		.4byte	.LASF57
 4491 0ae3 EB030000 		.4byte	.LASF57
 4492 0ae7 09       		.byte	0x9
 4493 0ae8 16       		.byte	0x16
 4494 0ae9 22       		.uleb128 0x22
 4495 0aea B3010000 		.4byte	.LASF59
 4496 0aee FC010000 		.4byte	.LASF61
 4497 0af2 0A       		.byte	0xa
 4498 0af3 00       		.byte	0
 4499 0af4 B3010000 		.4byte	.LASF59
 4500 0af8 21       		.uleb128 0x21
 4501 0af9 8F000000 		.4byte	.LASF62
 4502 0afd 8F000000 		.4byte	.LASF62
 4503 0b01 07       		.byte	0x7
 4504 0b02 59       		.byte	0x59
 4505 0b03 00       		.byte	0
 4506              		.section	.debug_abbrev,"",%progbits
 4507              	.Ldebug_abbrev0:
 4508 0000 01       		.uleb128 0x1
 4509 0001 11       		.uleb128 0x11
 4510 0002 01       		.byte	0x1
 4511 0003 25       		.uleb128 0x25
 4512 0004 0E       		.uleb128 0xe
 4513 0005 13       		.uleb128 0x13
 4514 0006 0B       		.uleb128 0xb
 4515 0007 03       		.uleb128 0x3
 4516 0008 0E       		.uleb128 0xe
 4517 0009 1B       		.uleb128 0x1b
 4518 000a 0E       		.uleb128 0xe
 4519 000b 55       		.uleb128 0x55
 4520 000c 17       		.uleb128 0x17
 4521 000d 11       		.uleb128 0x11
 4522 000e 01       		.uleb128 0x1
 4523 000f 10       		.uleb128 0x10
 4524 0010 17       		.uleb128 0x17
 4525 0011 00       		.byte	0
 4526 0012 00       		.byte	0
 4527 0013 02       		.uleb128 0x2
 4528 0014 24       		.uleb128 0x24
 4529 0015 00       		.byte	0
 4530 0016 0B       		.uleb128 0xb
 4531 0017 0B       		.uleb128 0xb
ARM GAS  C:\Users\Phuong\AppData\Local\Temp\ccuEFeTd.s 			page 91


 4532 0018 3E       		.uleb128 0x3e
 4533 0019 0B       		.uleb128 0xb
 4534 001a 03       		.uleb128 0x3
 4535 001b 0E       		.uleb128 0xe
 4536 001c 00       		.byte	0
 4537 001d 00       		.byte	0
 4538 001e 03       		.uleb128 0x3
 4539 001f 16       		.uleb128 0x16
 4540 0020 00       		.byte	0
 4541 0021 03       		.uleb128 0x3
 4542 0022 0E       		.uleb128 0xe
 4543 0023 3A       		.uleb128 0x3a
 4544 0024 0B       		.uleb128 0xb
 4545 0025 3B       		.uleb128 0x3b
 4546 0026 0B       		.uleb128 0xb
 4547 0027 49       		.uleb128 0x49
 4548 0028 13       		.uleb128 0x13
 4549 0029 00       		.byte	0
 4550 002a 00       		.byte	0
 4551 002b 04       		.uleb128 0x4
 4552 002c 24       		.uleb128 0x24
 4553 002d 00       		.byte	0
 4554 002e 0B       		.uleb128 0xb
 4555 002f 0B       		.uleb128 0xb
 4556 0030 3E       		.uleb128 0x3e
 4557 0031 0B       		.uleb128 0xb
 4558 0032 03       		.uleb128 0x3
 4559 0033 08       		.uleb128 0x8
 4560 0034 00       		.byte	0
 4561 0035 00       		.byte	0
 4562 0036 05       		.uleb128 0x5
 4563 0037 13       		.uleb128 0x13
 4564 0038 01       		.byte	0x1
 4565 0039 03       		.uleb128 0x3
 4566 003a 0E       		.uleb128 0xe
 4567 003b 0B       		.uleb128 0xb
 4568 003c 0B       		.uleb128 0xb
 4569 003d 3A       		.uleb128 0x3a
 4570 003e 0B       		.uleb128 0xb
 4571 003f 3B       		.uleb128 0x3b
 4572 0040 0B       		.uleb128 0xb
 4573 0041 01       		.uleb128 0x1
 4574 0042 13       		.uleb128 0x13
 4575 0043 00       		.byte	0
 4576 0044 00       		.byte	0
 4577 0045 06       		.uleb128 0x6
 4578 0046 0D       		.uleb128 0xd
 4579 0047 00       		.byte	0
 4580 0048 03       		.uleb128 0x3
 4581 0049 0E       		.uleb128 0xe
 4582 004a 3A       		.uleb128 0x3a
 4583 004b 0B       		.uleb128 0xb
 4584 004c 3B       		.uleb128 0x3b
 4585 004d 0B       		.uleb128 0xb
 4586 004e 49       		.uleb128 0x49
 4587 004f 13       		.uleb128 0x13
 4588 0050 38       		.uleb128 0x38
ARM GAS  C:\Users\Phuong\AppData\Local\Temp\ccuEFeTd.s 			page 92


 4589 0051 0B       		.uleb128 0xb
 4590 0052 00       		.byte	0
 4591 0053 00       		.byte	0
 4592 0054 07       		.uleb128 0x7
 4593 0055 01       		.uleb128 0x1
 4594 0056 01       		.byte	0x1
 4595 0057 49       		.uleb128 0x49
 4596 0058 13       		.uleb128 0x13
 4597 0059 01       		.uleb128 0x1
 4598 005a 13       		.uleb128 0x13
 4599 005b 00       		.byte	0
 4600 005c 00       		.byte	0
 4601 005d 08       		.uleb128 0x8
 4602 005e 21       		.uleb128 0x21
 4603 005f 00       		.byte	0
 4604 0060 49       		.uleb128 0x49
 4605 0061 13       		.uleb128 0x13
 4606 0062 2F       		.uleb128 0x2f
 4607 0063 0B       		.uleb128 0xb
 4608 0064 00       		.byte	0
 4609 0065 00       		.byte	0
 4610 0066 09       		.uleb128 0x9
 4611 0067 0F       		.uleb128 0xf
 4612 0068 00       		.byte	0
 4613 0069 0B       		.uleb128 0xb
 4614 006a 0B       		.uleb128 0xb
 4615 006b 49       		.uleb128 0x49
 4616 006c 13       		.uleb128 0x13
 4617 006d 00       		.byte	0
 4618 006e 00       		.byte	0
 4619 006f 0A       		.uleb128 0xa
 4620 0070 2E       		.uleb128 0x2e
 4621 0071 01       		.byte	0x1
 4622 0072 3F       		.uleb128 0x3f
 4623 0073 19       		.uleb128 0x19
 4624 0074 03       		.uleb128 0x3
 4625 0075 0E       		.uleb128 0xe
 4626 0076 3A       		.uleb128 0x3a
 4627 0077 0B       		.uleb128 0xb
 4628 0078 3B       		.uleb128 0x3b
 4629 0079 0B       		.uleb128 0xb
 4630 007a 27       		.uleb128 0x27
 4631 007b 19       		.uleb128 0x19
 4632 007c 11       		.uleb128 0x11
 4633 007d 01       		.uleb128 0x1
 4634 007e 12       		.uleb128 0x12
 4635 007f 06       		.uleb128 0x6
 4636 0080 40       		.uleb128 0x40
 4637 0081 18       		.uleb128 0x18
 4638 0082 9742     		.uleb128 0x2117
 4639 0084 19       		.uleb128 0x19
 4640 0085 01       		.uleb128 0x1
 4641 0086 13       		.uleb128 0x13
 4642 0087 00       		.byte	0
 4643 0088 00       		.byte	0
 4644 0089 0B       		.uleb128 0xb
 4645 008a 05       		.uleb128 0x5
ARM GAS  C:\Users\Phuong\AppData\Local\Temp\ccuEFeTd.s 			page 93


 4646 008b 00       		.byte	0
 4647 008c 03       		.uleb128 0x3
 4648 008d 08       		.uleb128 0x8
 4649 008e 3A       		.uleb128 0x3a
 4650 008f 0B       		.uleb128 0xb
 4651 0090 3B       		.uleb128 0x3b
 4652 0091 0B       		.uleb128 0xb
 4653 0092 49       		.uleb128 0x49
 4654 0093 13       		.uleb128 0x13
 4655 0094 02       		.uleb128 0x2
 4656 0095 17       		.uleb128 0x17
 4657 0096 00       		.byte	0
 4658 0097 00       		.byte	0
 4659 0098 0C       		.uleb128 0xc
 4660 0099 898201   		.uleb128 0x4109
 4661 009c 01       		.byte	0x1
 4662 009d 11       		.uleb128 0x11
 4663 009e 01       		.uleb128 0x1
 4664 009f 31       		.uleb128 0x31
 4665 00a0 13       		.uleb128 0x13
 4666 00a1 00       		.byte	0
 4667 00a2 00       		.byte	0
 4668 00a3 0D       		.uleb128 0xd
 4669 00a4 8A8201   		.uleb128 0x410a
 4670 00a7 00       		.byte	0
 4671 00a8 02       		.uleb128 0x2
 4672 00a9 18       		.uleb128 0x18
 4673 00aa 9142     		.uleb128 0x2111
 4674 00ac 18       		.uleb128 0x18
 4675 00ad 00       		.byte	0
 4676 00ae 00       		.byte	0
 4677 00af 0E       		.uleb128 0xe
 4678 00b0 26       		.uleb128 0x26
 4679 00b1 00       		.byte	0
 4680 00b2 49       		.uleb128 0x49
 4681 00b3 13       		.uleb128 0x13
 4682 00b4 00       		.byte	0
 4683 00b5 00       		.byte	0
 4684 00b6 0F       		.uleb128 0xf
 4685 00b7 2E       		.uleb128 0x2e
 4686 00b8 01       		.byte	0x1
 4687 00b9 3F       		.uleb128 0x3f
 4688 00ba 19       		.uleb128 0x19
 4689 00bb 03       		.uleb128 0x3
 4690 00bc 0E       		.uleb128 0xe
 4691 00bd 3A       		.uleb128 0x3a
 4692 00be 0B       		.uleb128 0xb
 4693 00bf 3B       		.uleb128 0x3b
 4694 00c0 0B       		.uleb128 0xb
 4695 00c1 27       		.uleb128 0x27
 4696 00c2 19       		.uleb128 0x19
 4697 00c3 49       		.uleb128 0x49
 4698 00c4 13       		.uleb128 0x13
 4699 00c5 11       		.uleb128 0x11
 4700 00c6 01       		.uleb128 0x1
 4701 00c7 12       		.uleb128 0x12
 4702 00c8 06       		.uleb128 0x6
ARM GAS  C:\Users\Phuong\AppData\Local\Temp\ccuEFeTd.s 			page 94


 4703 00c9 40       		.uleb128 0x40
 4704 00ca 18       		.uleb128 0x18
 4705 00cb 9742     		.uleb128 0x2117
 4706 00cd 19       		.uleb128 0x19
 4707 00ce 01       		.uleb128 0x1
 4708 00cf 13       		.uleb128 0x13
 4709 00d0 00       		.byte	0
 4710 00d1 00       		.byte	0
 4711 00d2 10       		.uleb128 0x10
 4712 00d3 05       		.uleb128 0x5
 4713 00d4 00       		.byte	0
 4714 00d5 03       		.uleb128 0x3
 4715 00d6 0E       		.uleb128 0xe
 4716 00d7 3A       		.uleb128 0x3a
 4717 00d8 0B       		.uleb128 0xb
 4718 00d9 3B       		.uleb128 0x3b
 4719 00da 0B       		.uleb128 0xb
 4720 00db 49       		.uleb128 0x49
 4721 00dc 13       		.uleb128 0x13
 4722 00dd 02       		.uleb128 0x2
 4723 00de 18       		.uleb128 0x18
 4724 00df 00       		.byte	0
 4725 00e0 00       		.byte	0
 4726 00e1 11       		.uleb128 0x11
 4727 00e2 05       		.uleb128 0x5
 4728 00e3 00       		.byte	0
 4729 00e4 03       		.uleb128 0x3
 4730 00e5 0E       		.uleb128 0xe
 4731 00e6 3A       		.uleb128 0x3a
 4732 00e7 0B       		.uleb128 0xb
 4733 00e8 3B       		.uleb128 0x3b
 4734 00e9 0B       		.uleb128 0xb
 4735 00ea 49       		.uleb128 0x49
 4736 00eb 13       		.uleb128 0x13
 4737 00ec 02       		.uleb128 0x2
 4738 00ed 17       		.uleb128 0x17
 4739 00ee 00       		.byte	0
 4740 00ef 00       		.byte	0
 4741 00f0 12       		.uleb128 0x12
 4742 00f1 34       		.uleb128 0x34
 4743 00f2 00       		.byte	0
 4744 00f3 03       		.uleb128 0x3
 4745 00f4 0E       		.uleb128 0xe
 4746 00f5 3A       		.uleb128 0x3a
 4747 00f6 0B       		.uleb128 0xb
 4748 00f7 3B       		.uleb128 0x3b
 4749 00f8 0B       		.uleb128 0xb
 4750 00f9 49       		.uleb128 0x49
 4751 00fa 13       		.uleb128 0x13
 4752 00fb 02       		.uleb128 0x2
 4753 00fc 17       		.uleb128 0x17
 4754 00fd 00       		.byte	0
 4755 00fe 00       		.byte	0
 4756 00ff 13       		.uleb128 0x13
 4757 0100 34       		.uleb128 0x34
 4758 0101 00       		.byte	0
 4759 0102 03       		.uleb128 0x3
ARM GAS  C:\Users\Phuong\AppData\Local\Temp\ccuEFeTd.s 			page 95


 4760 0103 08       		.uleb128 0x8
 4761 0104 3A       		.uleb128 0x3a
 4762 0105 0B       		.uleb128 0xb
 4763 0106 3B       		.uleb128 0x3b
 4764 0107 0B       		.uleb128 0xb
 4765 0108 49       		.uleb128 0x49
 4766 0109 13       		.uleb128 0x13
 4767 010a 02       		.uleb128 0x2
 4768 010b 18       		.uleb128 0x18
 4769 010c 00       		.byte	0
 4770 010d 00       		.byte	0
 4771 010e 14       		.uleb128 0x14
 4772 010f 34       		.uleb128 0x34
 4773 0110 00       		.byte	0
 4774 0111 03       		.uleb128 0x3
 4775 0112 08       		.uleb128 0x8
 4776 0113 3A       		.uleb128 0x3a
 4777 0114 0B       		.uleb128 0xb
 4778 0115 3B       		.uleb128 0x3b
 4779 0116 0B       		.uleb128 0xb
 4780 0117 49       		.uleb128 0x49
 4781 0118 13       		.uleb128 0x13
 4782 0119 02       		.uleb128 0x2
 4783 011a 17       		.uleb128 0x17
 4784 011b 00       		.byte	0
 4785 011c 00       		.byte	0
 4786 011d 15       		.uleb128 0x15
 4787 011e 2E       		.uleb128 0x2e
 4788 011f 01       		.byte	0x1
 4789 0120 3F       		.uleb128 0x3f
 4790 0121 19       		.uleb128 0x19
 4791 0122 03       		.uleb128 0x3
 4792 0123 0E       		.uleb128 0xe
 4793 0124 3A       		.uleb128 0x3a
 4794 0125 0B       		.uleb128 0xb
 4795 0126 3B       		.uleb128 0x3b
 4796 0127 05       		.uleb128 0x5
 4797 0128 27       		.uleb128 0x27
 4798 0129 19       		.uleb128 0x19
 4799 012a 49       		.uleb128 0x49
 4800 012b 13       		.uleb128 0x13
 4801 012c 11       		.uleb128 0x11
 4802 012d 01       		.uleb128 0x1
 4803 012e 12       		.uleb128 0x12
 4804 012f 06       		.uleb128 0x6
 4805 0130 40       		.uleb128 0x40
 4806 0131 18       		.uleb128 0x18
 4807 0132 9742     		.uleb128 0x2117
 4808 0134 19       		.uleb128 0x19
 4809 0135 01       		.uleb128 0x1
 4810 0136 13       		.uleb128 0x13
 4811 0137 00       		.byte	0
 4812 0138 00       		.byte	0
 4813 0139 16       		.uleb128 0x16
 4814 013a 05       		.uleb128 0x5
 4815 013b 00       		.byte	0
 4816 013c 03       		.uleb128 0x3
ARM GAS  C:\Users\Phuong\AppData\Local\Temp\ccuEFeTd.s 			page 96


 4817 013d 08       		.uleb128 0x8
 4818 013e 3A       		.uleb128 0x3a
 4819 013f 0B       		.uleb128 0xb
 4820 0140 3B       		.uleb128 0x3b
 4821 0141 05       		.uleb128 0x5
 4822 0142 49       		.uleb128 0x49
 4823 0143 13       		.uleb128 0x13
 4824 0144 02       		.uleb128 0x2
 4825 0145 17       		.uleb128 0x17
 4826 0146 00       		.byte	0
 4827 0147 00       		.byte	0
 4828 0148 17       		.uleb128 0x17
 4829 0149 05       		.uleb128 0x5
 4830 014a 00       		.byte	0
 4831 014b 03       		.uleb128 0x3
 4832 014c 0E       		.uleb128 0xe
 4833 014d 3A       		.uleb128 0x3a
 4834 014e 0B       		.uleb128 0xb
 4835 014f 3B       		.uleb128 0x3b
 4836 0150 05       		.uleb128 0x5
 4837 0151 49       		.uleb128 0x49
 4838 0152 13       		.uleb128 0x13
 4839 0153 02       		.uleb128 0x2
 4840 0154 17       		.uleb128 0x17
 4841 0155 00       		.byte	0
 4842 0156 00       		.byte	0
 4843 0157 18       		.uleb128 0x18
 4844 0158 34       		.uleb128 0x34
 4845 0159 00       		.byte	0
 4846 015a 03       		.uleb128 0x3
 4847 015b 08       		.uleb128 0x8
 4848 015c 3A       		.uleb128 0x3a
 4849 015d 0B       		.uleb128 0xb
 4850 015e 3B       		.uleb128 0x3b
 4851 015f 05       		.uleb128 0x5
 4852 0160 49       		.uleb128 0x49
 4853 0161 13       		.uleb128 0x13
 4854 0162 02       		.uleb128 0x2
 4855 0163 17       		.uleb128 0x17
 4856 0164 00       		.byte	0
 4857 0165 00       		.byte	0
 4858 0166 19       		.uleb128 0x19
 4859 0167 34       		.uleb128 0x34
 4860 0168 00       		.byte	0
 4861 0169 03       		.uleb128 0x3
 4862 016a 0E       		.uleb128 0xe
 4863 016b 3A       		.uleb128 0x3a
 4864 016c 0B       		.uleb128 0xb
 4865 016d 3B       		.uleb128 0x3b
 4866 016e 05       		.uleb128 0x5
 4867 016f 49       		.uleb128 0x49
 4868 0170 13       		.uleb128 0x13
 4869 0171 02       		.uleb128 0x2
 4870 0172 17       		.uleb128 0x17
 4871 0173 00       		.byte	0
 4872 0174 00       		.byte	0
 4873 0175 1A       		.uleb128 0x1a
ARM GAS  C:\Users\Phuong\AppData\Local\Temp\ccuEFeTd.s 			page 97


 4874 0176 898201   		.uleb128 0x4109
 4875 0179 01       		.byte	0x1
 4876 017a 11       		.uleb128 0x11
 4877 017b 01       		.uleb128 0x1
 4878 017c 31       		.uleb128 0x31
 4879 017d 13       		.uleb128 0x13
 4880 017e 01       		.uleb128 0x1
 4881 017f 13       		.uleb128 0x13
 4882 0180 00       		.byte	0
 4883 0181 00       		.byte	0
 4884 0182 1B       		.uleb128 0x1b
 4885 0183 2E       		.uleb128 0x2e
 4886 0184 01       		.byte	0x1
 4887 0185 3F       		.uleb128 0x3f
 4888 0186 19       		.uleb128 0x19
 4889 0187 03       		.uleb128 0x3
 4890 0188 0E       		.uleb128 0xe
 4891 0189 3A       		.uleb128 0x3a
 4892 018a 0B       		.uleb128 0xb
 4893 018b 3B       		.uleb128 0x3b
 4894 018c 05       		.uleb128 0x5
 4895 018d 27       		.uleb128 0x27
 4896 018e 19       		.uleb128 0x19
 4897 018f 11       		.uleb128 0x11
 4898 0190 01       		.uleb128 0x1
 4899 0191 12       		.uleb128 0x12
 4900 0192 06       		.uleb128 0x6
 4901 0193 40       		.uleb128 0x40
 4902 0194 18       		.uleb128 0x18
 4903 0195 9742     		.uleb128 0x2117
 4904 0197 19       		.uleb128 0x19
 4905 0198 01       		.uleb128 0x1
 4906 0199 13       		.uleb128 0x13
 4907 019a 00       		.byte	0
 4908 019b 00       		.byte	0
 4909 019c 1C       		.uleb128 0x1c
 4910 019d 34       		.uleb128 0x34
 4911 019e 00       		.byte	0
 4912 019f 03       		.uleb128 0x3
 4913 01a0 08       		.uleb128 0x8
 4914 01a1 3A       		.uleb128 0x3a
 4915 01a2 0B       		.uleb128 0xb
 4916 01a3 3B       		.uleb128 0x3b
 4917 01a4 05       		.uleb128 0x5
 4918 01a5 49       		.uleb128 0x49
 4919 01a6 13       		.uleb128 0x13
 4920 01a7 02       		.uleb128 0x2
 4921 01a8 18       		.uleb128 0x18
 4922 01a9 00       		.byte	0
 4923 01aa 00       		.byte	0
 4924 01ab 1D       		.uleb128 0x1d
 4925 01ac 0A       		.uleb128 0xa
 4926 01ad 00       		.byte	0
 4927 01ae 03       		.uleb128 0x3
 4928 01af 0E       		.uleb128 0xe
 4929 01b0 3A       		.uleb128 0x3a
 4930 01b1 0B       		.uleb128 0xb
ARM GAS  C:\Users\Phuong\AppData\Local\Temp\ccuEFeTd.s 			page 98


 4931 01b2 3B       		.uleb128 0x3b
 4932 01b3 05       		.uleb128 0x5
 4933 01b4 11       		.uleb128 0x11
 4934 01b5 01       		.uleb128 0x1
 4935 01b6 00       		.byte	0
 4936 01b7 00       		.byte	0
 4937 01b8 1E       		.uleb128 0x1e
 4938 01b9 2E       		.uleb128 0x2e
 4939 01ba 01       		.byte	0x1
 4940 01bb 3F       		.uleb128 0x3f
 4941 01bc 19       		.uleb128 0x19
 4942 01bd 03       		.uleb128 0x3
 4943 01be 0E       		.uleb128 0xe
 4944 01bf 3A       		.uleb128 0x3a
 4945 01c0 0B       		.uleb128 0xb
 4946 01c1 3B       		.uleb128 0x3b
 4947 01c2 05       		.uleb128 0x5
 4948 01c3 27       		.uleb128 0x27
 4949 01c4 19       		.uleb128 0x19
 4950 01c5 49       		.uleb128 0x49
 4951 01c6 13       		.uleb128 0x13
 4952 01c7 11       		.uleb128 0x11
 4953 01c8 01       		.uleb128 0x1
 4954 01c9 12       		.uleb128 0x12
 4955 01ca 06       		.uleb128 0x6
 4956 01cb 40       		.uleb128 0x40
 4957 01cc 18       		.uleb128 0x18
 4958 01cd 9642     		.uleb128 0x2116
 4959 01cf 19       		.uleb128 0x19
 4960 01d0 01       		.uleb128 0x1
 4961 01d1 13       		.uleb128 0x13
 4962 01d2 00       		.byte	0
 4963 01d3 00       		.byte	0
 4964 01d4 1F       		.uleb128 0x1f
 4965 01d5 34       		.uleb128 0x34
 4966 01d6 00       		.byte	0
 4967 01d7 03       		.uleb128 0x3
 4968 01d8 0E       		.uleb128 0xe
 4969 01d9 3A       		.uleb128 0x3a
 4970 01da 0B       		.uleb128 0xb
 4971 01db 3B       		.uleb128 0x3b
 4972 01dc 05       		.uleb128 0x5
 4973 01dd 49       		.uleb128 0x49
 4974 01de 13       		.uleb128 0x13
 4975 01df 02       		.uleb128 0x2
 4976 01e0 18       		.uleb128 0x18
 4977 01e1 00       		.byte	0
 4978 01e2 00       		.byte	0
 4979 01e3 20       		.uleb128 0x20
 4980 01e4 2E       		.uleb128 0x2e
 4981 01e5 00       		.byte	0
 4982 01e6 3F       		.uleb128 0x3f
 4983 01e7 19       		.uleb128 0x19
 4984 01e8 3C       		.uleb128 0x3c
 4985 01e9 19       		.uleb128 0x19
 4986 01ea 6E       		.uleb128 0x6e
 4987 01eb 0E       		.uleb128 0xe
ARM GAS  C:\Users\Phuong\AppData\Local\Temp\ccuEFeTd.s 			page 99


 4988 01ec 03       		.uleb128 0x3
 4989 01ed 0E       		.uleb128 0xe
 4990 01ee 00       		.byte	0
 4991 01ef 00       		.byte	0
 4992 01f0 21       		.uleb128 0x21
 4993 01f1 2E       		.uleb128 0x2e
 4994 01f2 00       		.byte	0
 4995 01f3 3F       		.uleb128 0x3f
 4996 01f4 19       		.uleb128 0x19
 4997 01f5 3C       		.uleb128 0x3c
 4998 01f6 19       		.uleb128 0x19
 4999 01f7 6E       		.uleb128 0x6e
 5000 01f8 0E       		.uleb128 0xe
 5001 01f9 03       		.uleb128 0x3
 5002 01fa 0E       		.uleb128 0xe
 5003 01fb 3A       		.uleb128 0x3a
 5004 01fc 0B       		.uleb128 0xb
 5005 01fd 3B       		.uleb128 0x3b
 5006 01fe 0B       		.uleb128 0xb
 5007 01ff 00       		.byte	0
 5008 0200 00       		.byte	0
 5009 0201 22       		.uleb128 0x22
 5010 0202 2E       		.uleb128 0x2e
 5011 0203 00       		.byte	0
 5012 0204 3F       		.uleb128 0x3f
 5013 0205 19       		.uleb128 0x19
 5014 0206 3C       		.uleb128 0x3c
 5015 0207 19       		.uleb128 0x19
 5016 0208 6E       		.uleb128 0x6e
 5017 0209 0E       		.uleb128 0xe
 5018 020a 03       		.uleb128 0x3
 5019 020b 0E       		.uleb128 0xe
 5020 020c 3A       		.uleb128 0x3a
 5021 020d 0B       		.uleb128 0xb
 5022 020e 3B       		.uleb128 0x3b
 5023 020f 0B       		.uleb128 0xb
 5024 0210 6E       		.uleb128 0x6e
 5025 0211 0E       		.uleb128 0xe
 5026 0212 00       		.byte	0
 5027 0213 00       		.byte	0
 5028 0214 00       		.byte	0
 5029              		.section	.debug_loc,"",%progbits
 5030              	.Ldebug_loc0:
 5031              	.LLST0:
 5032 0000 00000000 		.4byte	.LVL0
 5033 0004 09000000 		.4byte	.LVL1-1
 5034 0008 0100     		.2byte	0x1
 5035 000a 50       		.byte	0x50
 5036 000b 09000000 		.4byte	.LVL1-1
 5037 000f 0C000000 		.4byte	.LFE1
 5038 0013 0400     		.2byte	0x4
 5039 0015 F3       		.byte	0xf3
 5040 0016 01       		.uleb128 0x1
 5041 0017 50       		.byte	0x50
 5042 0018 9F       		.byte	0x9f
 5043 0019 00000000 		.4byte	0
 5044 001d 00000000 		.4byte	0
ARM GAS  C:\Users\Phuong\AppData\Local\Temp\ccuEFeTd.s 			page 100


 5045              	.LLST1:
 5046 0021 00000000 		.4byte	.LVL2
 5047 0025 0B000000 		.4byte	.LVL3-1
 5048 0029 0100     		.2byte	0x1
 5049 002b 50       		.byte	0x50
 5050 002c 0B000000 		.4byte	.LVL3-1
 5051 0030 0E000000 		.4byte	.LFE2
 5052 0034 0400     		.2byte	0x4
 5053 0036 F3       		.byte	0xf3
 5054 0037 01       		.uleb128 0x1
 5055 0038 50       		.byte	0x50
 5056 0039 9F       		.byte	0x9f
 5057 003a 00000000 		.4byte	0
 5058 003e 00000000 		.4byte	0
 5059              	.LLST2:
 5060 0042 00000000 		.4byte	.LVL4
 5061 0046 07000000 		.4byte	.LVL5-1
 5062 004a 0100     		.2byte	0x1
 5063 004c 50       		.byte	0x50
 5064 004d 07000000 		.4byte	.LVL5-1
 5065 0051 0A000000 		.4byte	.LFE3
 5066 0055 0400     		.2byte	0x4
 5067 0057 F3       		.byte	0xf3
 5068 0058 01       		.uleb128 0x1
 5069 0059 50       		.byte	0x50
 5070 005a 9F       		.byte	0x9f
 5071 005b 00000000 		.4byte	0
 5072 005f 00000000 		.4byte	0
 5073              	.LLST3:
 5074 0063 00000000 		.4byte	.LVL4
 5075 0067 07000000 		.4byte	.LVL5-1
 5076 006b 0100     		.2byte	0x1
 5077 006d 51       		.byte	0x51
 5078 006e 07000000 		.4byte	.LVL5-1
 5079 0072 0A000000 		.4byte	.LFE3
 5080 0076 0400     		.2byte	0x4
 5081 0078 F3       		.byte	0xf3
 5082 0079 01       		.uleb128 0x1
 5083 007a 51       		.byte	0x51
 5084 007b 9F       		.byte	0x9f
 5085 007c 00000000 		.4byte	0
 5086 0080 00000000 		.4byte	0
 5087              	.LLST4:
 5088 0084 00000000 		.4byte	.LVL6
 5089 0088 50000000 		.4byte	.LVL7
 5090 008c 0100     		.2byte	0x1
 5091 008e 50       		.byte	0x50
 5092 008f 50000000 		.4byte	.LVL7
 5093 0093 94000000 		.4byte	.LFE4
 5094 0097 0400     		.2byte	0x4
 5095 0099 F3       		.byte	0xf3
 5096 009a 01       		.uleb128 0x1
 5097 009b 50       		.byte	0x50
 5098 009c 9F       		.byte	0x9f
 5099 009d 00000000 		.4byte	0
 5100 00a1 00000000 		.4byte	0
 5101              	.LLST5:
ARM GAS  C:\Users\Phuong\AppData\Local\Temp\ccuEFeTd.s 			page 101


 5102 00a5 00000000 		.4byte	.LVL8
 5103 00a9 05000000 		.4byte	.LVL9-1
 5104 00ad 0100     		.2byte	0x1
 5105 00af 50       		.byte	0x50
 5106 00b0 05000000 		.4byte	.LVL9-1
 5107 00b4 08000000 		.4byte	.LFE5
 5108 00b8 0400     		.2byte	0x4
 5109 00ba F3       		.byte	0xf3
 5110 00bb 01       		.uleb128 0x1
 5111 00bc 50       		.byte	0x50
 5112 00bd 9F       		.byte	0x9f
 5113 00be 00000000 		.4byte	0
 5114 00c2 00000000 		.4byte	0
 5115              	.LLST6:
 5116 00c6 00000000 		.4byte	.LVL8
 5117 00ca 05000000 		.4byte	.LVL9-1
 5118 00ce 0100     		.2byte	0x1
 5119 00d0 51       		.byte	0x51
 5120 00d1 05000000 		.4byte	.LVL9-1
 5121 00d5 08000000 		.4byte	.LFE5
 5122 00d9 0400     		.2byte	0x4
 5123 00db F3       		.byte	0xf3
 5124 00dc 01       		.uleb128 0x1
 5125 00dd 51       		.byte	0x51
 5126 00de 9F       		.byte	0x9f
 5127 00df 00000000 		.4byte	0
 5128 00e3 00000000 		.4byte	0
 5129              	.LLST7:
 5130 00e7 00000000 		.4byte	.LVL10
 5131 00eb 16000000 		.4byte	.LVL12
 5132 00ef 0100     		.2byte	0x1
 5133 00f1 50       		.byte	0x50
 5134 00f2 16000000 		.4byte	.LVL12
 5135 00f6 2C000000 		.4byte	.LVL14
 5136 00fa 0100     		.2byte	0x1
 5137 00fc 54       		.byte	0x54
 5138 00fd 2C000000 		.4byte	.LVL14
 5139 0101 400B0000 		.4byte	.LFE6
 5140 0105 0300     		.2byte	0x3
 5141 0107 91       		.byte	0x91
 5142 0108 B47D     		.sleb128 -332
 5143 010a 00000000 		.4byte	0
 5144 010e 00000000 		.4byte	0
 5145              	.LLST8:
 5146 0112 00000000 		.4byte	.LVL10
 5147 0116 54000000 		.4byte	.LVL16
 5148 011a 0100     		.2byte	0x1
 5149 011c 51       		.byte	0x51
 5150 011d 54000000 		.4byte	.LVL16
 5151 0121 400B0000 		.4byte	.LFE6
 5152 0125 0400     		.2byte	0x4
 5153 0127 F3       		.byte	0xf3
 5154 0128 01       		.uleb128 0x1
 5155 0129 51       		.byte	0x51
 5156 012a 9F       		.byte	0x9f
 5157 012b 00000000 		.4byte	0
 5158 012f 00000000 		.4byte	0
ARM GAS  C:\Users\Phuong\AppData\Local\Temp\ccuEFeTd.s 			page 102


 5159              	.LLST9:
 5160 0133 9E000000 		.4byte	.LVL18
 5161 0137 D4000000 		.4byte	.LVL21
 5162 013b 0100     		.2byte	0x1
 5163 013d 53       		.byte	0x53
 5164 013e D4000000 		.4byte	.LVL21
 5165 0142 DA000000 		.4byte	.LVL23
 5166 0146 4A00     		.2byte	0x4a
 5167 0148 74       		.byte	0x74
 5168 0149 00       		.sleb128 0
 5169 014a 73       		.byte	0x73
 5170 014b 00       		.sleb128 0
 5171 014c 14       		.byte	0x14
 5172 014d 14       		.byte	0x14
 5173 014e 1F       		.byte	0x1f
 5174 014f 23       		.byte	0x23
 5175 0150 20       		.uleb128 0x20
 5176 0151 24       		.byte	0x24
 5177 0152 17       		.byte	0x17
 5178 0153 25       		.byte	0x25
 5179 0154 21       		.byte	0x21
 5180 0155 74       		.byte	0x74
 5181 0156 00       		.sleb128 0
 5182 0157 3B       		.byte	0x3b
 5183 0158 14       		.byte	0x14
 5184 0159 14       		.byte	0x14
 5185 015a 1F       		.byte	0x1f
 5186 015b 23       		.byte	0x23
 5187 015c 20       		.uleb128 0x20
 5188 015d 24       		.byte	0x24
 5189 015e 17       		.byte	0x17
 5190 015f 25       		.byte	0x25
 5191 0160 21       		.byte	0x21
 5192 0161 27       		.byte	0x27
 5193 0162 74       		.byte	0x74
 5194 0163 00       		.sleb128 0
 5195 0164 49       		.byte	0x49
 5196 0165 14       		.byte	0x14
 5197 0166 14       		.byte	0x14
 5198 0167 1F       		.byte	0x1f
 5199 0168 23       		.byte	0x23
 5200 0169 20       		.uleb128 0x20
 5201 016a 24       		.byte	0x24
 5202 016b 17       		.byte	0x17
 5203 016c 25       		.byte	0x25
 5204 016d 21       		.byte	0x21
 5205 016e 27       		.byte	0x27
 5206 016f 7D       		.byte	0x7d
 5207 0170 00       		.sleb128 0
 5208 0171 06       		.byte	0x6
 5209 0172 77       		.byte	0x77
 5210 0173 00       		.sleb128 0
 5211 0174 27       		.byte	0x27
 5212 0175 74       		.byte	0x74
 5213 0176 00       		.sleb128 0
 5214 0177 1A       		.byte	0x1a
 5215 0178 77       		.byte	0x77
ARM GAS  C:\Users\Phuong\AppData\Local\Temp\ccuEFeTd.s 			page 103


 5216 0179 00       		.sleb128 0
 5217 017a 27       		.byte	0x27
 5218 017b 22       		.byte	0x22
 5219 017c 7A       		.byte	0x7a
 5220 017d 00       		.sleb128 0
 5221 017e 32       		.byte	0x32
 5222 017f 24       		.byte	0x24
 5223 0180 91       		.byte	0x91
 5224 0181 00       		.sleb128 0
 5225 0182 22       		.byte	0x22
 5226 0183 0A       		.byte	0xa
 5227 0184 2801     		.2byte	0x128
 5228 0186 1C       		.byte	0x1c
 5229 0187 06       		.byte	0x6
 5230 0188 22       		.byte	0x22
 5231 0189 91       		.byte	0x91
 5232 018a D47D     		.sleb128 -300
 5233 018c 06       		.byte	0x6
 5234 018d 22       		.byte	0x22
 5235 018e 78       		.byte	0x78
 5236 018f 00       		.sleb128 0
 5237 0190 22       		.byte	0x22
 5238 0191 9F       		.byte	0x9f
 5239 0192 DA000000 		.4byte	.LVL23
 5240 0196 DC000000 		.4byte	.LVL24
 5241 019a 4900     		.2byte	0x49
 5242 019c 74       		.byte	0x74
 5243 019d 00       		.sleb128 0
 5244 019e 36       		.byte	0x36
 5245 019f 14       		.byte	0x14
 5246 01a0 14       		.byte	0x14
 5247 01a1 1F       		.byte	0x1f
 5248 01a2 23       		.byte	0x23
 5249 01a3 20       		.uleb128 0x20
 5250 01a4 24       		.byte	0x24
 5251 01a5 17       		.byte	0x17
 5252 01a6 25       		.byte	0x25
 5253 01a7 21       		.byte	0x21
 5254 01a8 74       		.byte	0x74
 5255 01a9 00       		.sleb128 0
 5256 01aa 3B       		.byte	0x3b
 5257 01ab 14       		.byte	0x14
 5258 01ac 14       		.byte	0x14
 5259 01ad 1F       		.byte	0x1f
 5260 01ae 23       		.byte	0x23
 5261 01af 20       		.uleb128 0x20
 5262 01b0 24       		.byte	0x24
 5263 01b1 17       		.byte	0x17
 5264 01b2 25       		.byte	0x25
 5265 01b3 21       		.byte	0x21
 5266 01b4 27       		.byte	0x27
 5267 01b5 74       		.byte	0x74
 5268 01b6 00       		.sleb128 0
 5269 01b7 49       		.byte	0x49
 5270 01b8 14       		.byte	0x14
 5271 01b9 14       		.byte	0x14
 5272 01ba 1F       		.byte	0x1f
ARM GAS  C:\Users\Phuong\AppData\Local\Temp\ccuEFeTd.s 			page 104


 5273 01bb 23       		.byte	0x23
 5274 01bc 20       		.uleb128 0x20
 5275 01bd 24       		.byte	0x24
 5276 01be 17       		.byte	0x17
 5277 01bf 25       		.byte	0x25
 5278 01c0 21       		.byte	0x21
 5279 01c1 27       		.byte	0x27
 5280 01c2 7D       		.byte	0x7d
 5281 01c3 00       		.sleb128 0
 5282 01c4 06       		.byte	0x6
 5283 01c5 77       		.byte	0x77
 5284 01c6 00       		.sleb128 0
 5285 01c7 27       		.byte	0x27
 5286 01c8 74       		.byte	0x74
 5287 01c9 00       		.sleb128 0
 5288 01ca 1A       		.byte	0x1a
 5289 01cb 77       		.byte	0x77
 5290 01cc 00       		.sleb128 0
 5291 01cd 27       		.byte	0x27
 5292 01ce 22       		.byte	0x22
 5293 01cf 7A       		.byte	0x7a
 5294 01d0 00       		.sleb128 0
 5295 01d1 32       		.byte	0x32
 5296 01d2 24       		.byte	0x24
 5297 01d3 91       		.byte	0x91
 5298 01d4 00       		.sleb128 0
 5299 01d5 22       		.byte	0x22
 5300 01d6 0A       		.byte	0xa
 5301 01d7 2801     		.2byte	0x128
 5302 01d9 1C       		.byte	0x1c
 5303 01da 06       		.byte	0x6
 5304 01db 22       		.byte	0x22
 5305 01dc 91       		.byte	0x91
 5306 01dd D47D     		.sleb128 -300
 5307 01df 06       		.byte	0x6
 5308 01e0 22       		.byte	0x22
 5309 01e1 78       		.byte	0x78
 5310 01e2 00       		.sleb128 0
 5311 01e3 22       		.byte	0x22
 5312 01e4 9F       		.byte	0x9f
 5313 01e5 DC000000 		.4byte	.LVL24
 5314 01e9 E6000000 		.4byte	.LVL25
 5315 01ed 4B00     		.2byte	0x4b
 5316 01ef 74       		.byte	0x74
 5317 01f0 00       		.sleb128 0
 5318 01f1 36       		.byte	0x36
 5319 01f2 14       		.byte	0x14
 5320 01f3 14       		.byte	0x14
 5321 01f4 1F       		.byte	0x1f
 5322 01f5 23       		.byte	0x23
 5323 01f6 20       		.uleb128 0x20
 5324 01f7 24       		.byte	0x24
 5325 01f8 17       		.byte	0x17
 5326 01f9 25       		.byte	0x25
 5327 01fa 21       		.byte	0x21
 5328 01fb 74       		.byte	0x74
 5329 01fc 00       		.sleb128 0
ARM GAS  C:\Users\Phuong\AppData\Local\Temp\ccuEFeTd.s 			page 105


 5330 01fd 71       		.byte	0x71
 5331 01fe 00       		.sleb128 0
 5332 01ff 14       		.byte	0x14
 5333 0200 14       		.byte	0x14
 5334 0201 1F       		.byte	0x1f
 5335 0202 23       		.byte	0x23
 5336 0203 20       		.uleb128 0x20
 5337 0204 24       		.byte	0x24
 5338 0205 17       		.byte	0x17
 5339 0206 25       		.byte	0x25
 5340 0207 21       		.byte	0x21
 5341 0208 27       		.byte	0x27
 5342 0209 74       		.byte	0x74
 5343 020a 00       		.sleb128 0
 5344 020b 71       		.byte	0x71
 5345 020c 0E       		.sleb128 14
 5346 020d 14       		.byte	0x14
 5347 020e 14       		.byte	0x14
 5348 020f 1F       		.byte	0x1f
 5349 0210 23       		.byte	0x23
 5350 0211 20       		.uleb128 0x20
 5351 0212 24       		.byte	0x24
 5352 0213 17       		.byte	0x17
 5353 0214 25       		.byte	0x25
 5354 0215 21       		.byte	0x21
 5355 0216 27       		.byte	0x27
 5356 0217 7D       		.byte	0x7d
 5357 0218 00       		.sleb128 0
 5358 0219 06       		.byte	0x6
 5359 021a 77       		.byte	0x77
 5360 021b 00       		.sleb128 0
 5361 021c 27       		.byte	0x27
 5362 021d 74       		.byte	0x74
 5363 021e 00       		.sleb128 0
 5364 021f 1A       		.byte	0x1a
 5365 0220 77       		.byte	0x77
 5366 0221 00       		.sleb128 0
 5367 0222 27       		.byte	0x27
 5368 0223 22       		.byte	0x22
 5369 0224 7A       		.byte	0x7a
 5370 0225 00       		.sleb128 0
 5371 0226 32       		.byte	0x32
 5372 0227 24       		.byte	0x24
 5373 0228 91       		.byte	0x91
 5374 0229 00       		.sleb128 0
 5375 022a 22       		.byte	0x22
 5376 022b 0A       		.byte	0xa
 5377 022c 2801     		.2byte	0x128
 5378 022e 1C       		.byte	0x1c
 5379 022f 06       		.byte	0x6
 5380 0230 22       		.byte	0x22
 5381 0231 91       		.byte	0x91
 5382 0232 D47D     		.sleb128 -300
 5383 0234 06       		.byte	0x6
 5384 0235 22       		.byte	0x22
 5385 0236 78       		.byte	0x78
 5386 0237 00       		.sleb128 0
ARM GAS  C:\Users\Phuong\AppData\Local\Temp\ccuEFeTd.s 			page 106


 5387 0238 22       		.byte	0x22
 5388 0239 9F       		.byte	0x9f
 5389 023a E6000000 		.4byte	.LVL25
 5390 023e F4000000 		.4byte	.LVL26
 5391 0242 4A00     		.2byte	0x4a
 5392 0244 74       		.byte	0x74
 5393 0245 00       		.sleb128 0
 5394 0246 36       		.byte	0x36
 5395 0247 14       		.byte	0x14
 5396 0248 14       		.byte	0x14
 5397 0249 1F       		.byte	0x1f
 5398 024a 23       		.byte	0x23
 5399 024b 20       		.uleb128 0x20
 5400 024c 24       		.byte	0x24
 5401 024d 17       		.byte	0x17
 5402 024e 25       		.byte	0x25
 5403 024f 21       		.byte	0x21
 5404 0250 74       		.byte	0x74
 5405 0251 00       		.sleb128 0
 5406 0252 3B       		.byte	0x3b
 5407 0253 14       		.byte	0x14
 5408 0254 14       		.byte	0x14
 5409 0255 1F       		.byte	0x1f
 5410 0256 23       		.byte	0x23
 5411 0257 20       		.uleb128 0x20
 5412 0258 24       		.byte	0x24
 5413 0259 17       		.byte	0x17
 5414 025a 25       		.byte	0x25
 5415 025b 21       		.byte	0x21
 5416 025c 27       		.byte	0x27
 5417 025d 74       		.byte	0x74
 5418 025e 00       		.sleb128 0
 5419 025f 71       		.byte	0x71
 5420 0260 00       		.sleb128 0
 5421 0261 14       		.byte	0x14
 5422 0262 14       		.byte	0x14
 5423 0263 1F       		.byte	0x1f
 5424 0264 23       		.byte	0x23
 5425 0265 20       		.uleb128 0x20
 5426 0266 24       		.byte	0x24
 5427 0267 17       		.byte	0x17
 5428 0268 25       		.byte	0x25
 5429 0269 21       		.byte	0x21
 5430 026a 27       		.byte	0x27
 5431 026b 7D       		.byte	0x7d
 5432 026c 00       		.sleb128 0
 5433 026d 06       		.byte	0x6
 5434 026e 77       		.byte	0x77
 5435 026f 00       		.sleb128 0
 5436 0270 27       		.byte	0x27
 5437 0271 74       		.byte	0x74
 5438 0272 00       		.sleb128 0
 5439 0273 1A       		.byte	0x1a
 5440 0274 77       		.byte	0x77
 5441 0275 00       		.sleb128 0
 5442 0276 27       		.byte	0x27
 5443 0277 22       		.byte	0x22
ARM GAS  C:\Users\Phuong\AppData\Local\Temp\ccuEFeTd.s 			page 107


 5444 0278 7A       		.byte	0x7a
 5445 0279 00       		.sleb128 0
 5446 027a 32       		.byte	0x32
 5447 027b 24       		.byte	0x24
 5448 027c 91       		.byte	0x91
 5449 027d 00       		.sleb128 0
 5450 027e 22       		.byte	0x22
 5451 027f 0A       		.byte	0xa
 5452 0280 2801     		.2byte	0x128
 5453 0282 1C       		.byte	0x1c
 5454 0283 06       		.byte	0x6
 5455 0284 22       		.byte	0x22
 5456 0285 91       		.byte	0x91
 5457 0286 D47D     		.sleb128 -300
 5458 0288 06       		.byte	0x6
 5459 0289 22       		.byte	0x22
 5460 028a 78       		.byte	0x78
 5461 028b 00       		.sleb128 0
 5462 028c 22       		.byte	0x22
 5463 028d 9F       		.byte	0x9f
 5464 028e F4000000 		.4byte	.LVL26
 5465 0292 06010000 		.4byte	.LVL27
 5466 0296 4900     		.2byte	0x49
 5467 0298 74       		.byte	0x74
 5468 0299 00       		.sleb128 0
 5469 029a 36       		.byte	0x36
 5470 029b 14       		.byte	0x14
 5471 029c 14       		.byte	0x14
 5472 029d 1F       		.byte	0x1f
 5473 029e 23       		.byte	0x23
 5474 029f 20       		.uleb128 0x20
 5475 02a0 24       		.byte	0x24
 5476 02a1 17       		.byte	0x17
 5477 02a2 25       		.byte	0x25
 5478 02a3 21       		.byte	0x21
 5479 02a4 74       		.byte	0x74
 5480 02a5 00       		.sleb128 0
 5481 02a6 3B       		.byte	0x3b
 5482 02a7 14       		.byte	0x14
 5483 02a8 14       		.byte	0x14
 5484 02a9 1F       		.byte	0x1f
 5485 02aa 23       		.byte	0x23
 5486 02ab 20       		.uleb128 0x20
 5487 02ac 24       		.byte	0x24
 5488 02ad 17       		.byte	0x17
 5489 02ae 25       		.byte	0x25
 5490 02af 21       		.byte	0x21
 5491 02b0 27       		.byte	0x27
 5492 02b1 74       		.byte	0x74
 5493 02b2 00       		.sleb128 0
 5494 02b3 49       		.byte	0x49
 5495 02b4 14       		.byte	0x14
 5496 02b5 14       		.byte	0x14
 5497 02b6 1F       		.byte	0x1f
 5498 02b7 23       		.byte	0x23
 5499 02b8 20       		.uleb128 0x20
 5500 02b9 24       		.byte	0x24
ARM GAS  C:\Users\Phuong\AppData\Local\Temp\ccuEFeTd.s 			page 108


 5501 02ba 17       		.byte	0x17
 5502 02bb 25       		.byte	0x25
 5503 02bc 21       		.byte	0x21
 5504 02bd 27       		.byte	0x27
 5505 02be 7D       		.byte	0x7d
 5506 02bf 00       		.sleb128 0
 5507 02c0 06       		.byte	0x6
 5508 02c1 77       		.byte	0x77
 5509 02c2 00       		.sleb128 0
 5510 02c3 27       		.byte	0x27
 5511 02c4 74       		.byte	0x74
 5512 02c5 00       		.sleb128 0
 5513 02c6 1A       		.byte	0x1a
 5514 02c7 77       		.byte	0x77
 5515 02c8 00       		.sleb128 0
 5516 02c9 27       		.byte	0x27
 5517 02ca 22       		.byte	0x22
 5518 02cb 7A       		.byte	0x7a
 5519 02cc 00       		.sleb128 0
 5520 02cd 32       		.byte	0x32
 5521 02ce 24       		.byte	0x24
 5522 02cf 91       		.byte	0x91
 5523 02d0 00       		.sleb128 0
 5524 02d1 22       		.byte	0x22
 5525 02d2 0A       		.byte	0xa
 5526 02d3 2801     		.2byte	0x128
 5527 02d5 1C       		.byte	0x1c
 5528 02d6 06       		.byte	0x6
 5529 02d7 22       		.byte	0x22
 5530 02d8 91       		.byte	0x91
 5531 02d9 D47D     		.sleb128 -300
 5532 02db 06       		.byte	0x6
 5533 02dc 22       		.byte	0x22
 5534 02dd 78       		.byte	0x78
 5535 02de 00       		.sleb128 0
 5536 02df 22       		.byte	0x22
 5537 02e0 9F       		.byte	0x9f
 5538 02e1 06010000 		.4byte	.LVL27
 5539 02e5 0A010000 		.4byte	.LVL28
 5540 02e9 4F00     		.2byte	0x4f
 5541 02eb 74       		.byte	0x74
 5542 02ec 00       		.sleb128 0
 5543 02ed 36       		.byte	0x36
 5544 02ee 14       		.byte	0x14
 5545 02ef 14       		.byte	0x14
 5546 02f0 1F       		.byte	0x1f
 5547 02f1 23       		.byte	0x23
 5548 02f2 20       		.uleb128 0x20
 5549 02f3 24       		.byte	0x24
 5550 02f4 17       		.byte	0x17
 5551 02f5 25       		.byte	0x25
 5552 02f6 21       		.byte	0x21
 5553 02f7 74       		.byte	0x74
 5554 02f8 00       		.sleb128 0
 5555 02f9 3B       		.byte	0x3b
 5556 02fa 14       		.byte	0x14
 5557 02fb 14       		.byte	0x14
ARM GAS  C:\Users\Phuong\AppData\Local\Temp\ccuEFeTd.s 			page 109


 5558 02fc 1F       		.byte	0x1f
 5559 02fd 23       		.byte	0x23
 5560 02fe 20       		.uleb128 0x20
 5561 02ff 24       		.byte	0x24
 5562 0300 17       		.byte	0x17
 5563 0301 25       		.byte	0x25
 5564 0302 21       		.byte	0x21
 5565 0303 27       		.byte	0x27
 5566 0304 74       		.byte	0x74
 5567 0305 00       		.sleb128 0
 5568 0306 49       		.byte	0x49
 5569 0307 14       		.byte	0x14
 5570 0308 14       		.byte	0x14
 5571 0309 1F       		.byte	0x1f
 5572 030a 23       		.byte	0x23
 5573 030b 20       		.uleb128 0x20
 5574 030c 24       		.byte	0x24
 5575 030d 17       		.byte	0x17
 5576 030e 25       		.byte	0x25
 5577 030f 21       		.byte	0x21
 5578 0310 27       		.byte	0x27
 5579 0311 7D       		.byte	0x7d
 5580 0312 00       		.sleb128 0
 5581 0313 06       		.byte	0x6
 5582 0314 77       		.byte	0x77
 5583 0315 00       		.sleb128 0
 5584 0316 27       		.byte	0x27
 5585 0317 74       		.byte	0x74
 5586 0318 00       		.sleb128 0
 5587 0319 1A       		.byte	0x1a
 5588 031a 77       		.byte	0x77
 5589 031b 00       		.sleb128 0
 5590 031c 27       		.byte	0x27
 5591 031d 22       		.byte	0x22
 5592 031e 7A       		.byte	0x7a
 5593 031f 00       		.sleb128 0
 5594 0320 32       		.byte	0x32
 5595 0321 24       		.byte	0x24
 5596 0322 91       		.byte	0x91
 5597 0323 00       		.sleb128 0
 5598 0324 22       		.byte	0x22
 5599 0325 0A       		.byte	0xa
 5600 0326 2801     		.2byte	0x128
 5601 0328 1C       		.byte	0x1c
 5602 0329 06       		.byte	0x6
 5603 032a 22       		.byte	0x22
 5604 032b 91       		.byte	0x91
 5605 032c D47D     		.sleb128 -300
 5606 032e 06       		.byte	0x6
 5607 032f 22       		.byte	0x22
 5608 0330 7A       		.byte	0x7a
 5609 0331 00       		.sleb128 0
 5610 0332 32       		.byte	0x32
 5611 0333 24       		.byte	0x24
 5612 0334 7C       		.byte	0x7c
 5613 0335 00       		.sleb128 0
 5614 0336 22       		.byte	0x22
ARM GAS  C:\Users\Phuong\AppData\Local\Temp\ccuEFeTd.s 			page 110


 5615 0337 06       		.byte	0x6
 5616 0338 22       		.byte	0x22
 5617 0339 9F       		.byte	0x9f
 5618 033a 0A010000 		.4byte	.LVL28
 5619 033e 0C010000 		.4byte	.LVL29
 5620 0342 4D00     		.2byte	0x4d
 5621 0344 74       		.byte	0x74
 5622 0345 00       		.sleb128 0
 5623 0346 36       		.byte	0x36
 5624 0347 14       		.byte	0x14
 5625 0348 14       		.byte	0x14
 5626 0349 1F       		.byte	0x1f
 5627 034a 23       		.byte	0x23
 5628 034b 20       		.uleb128 0x20
 5629 034c 24       		.byte	0x24
 5630 034d 17       		.byte	0x17
 5631 034e 25       		.byte	0x25
 5632 034f 21       		.byte	0x21
 5633 0350 74       		.byte	0x74
 5634 0351 00       		.sleb128 0
 5635 0352 3B       		.byte	0x3b
 5636 0353 14       		.byte	0x14
 5637 0354 14       		.byte	0x14
 5638 0355 1F       		.byte	0x1f
 5639 0356 23       		.byte	0x23
 5640 0357 20       		.uleb128 0x20
 5641 0358 24       		.byte	0x24
 5642 0359 17       		.byte	0x17
 5643 035a 25       		.byte	0x25
 5644 035b 21       		.byte	0x21
 5645 035c 27       		.byte	0x27
 5646 035d 74       		.byte	0x74
 5647 035e 00       		.sleb128 0
 5648 035f 49       		.byte	0x49
 5649 0360 14       		.byte	0x14
 5650 0361 14       		.byte	0x14
 5651 0362 1F       		.byte	0x1f
 5652 0363 23       		.byte	0x23
 5653 0364 20       		.uleb128 0x20
 5654 0365 24       		.byte	0x24
 5655 0366 17       		.byte	0x17
 5656 0367 25       		.byte	0x25
 5657 0368 21       		.byte	0x21
 5658 0369 27       		.byte	0x27
 5659 036a 7D       		.byte	0x7d
 5660 036b 00       		.sleb128 0
 5661 036c 06       		.byte	0x6
 5662 036d 77       		.byte	0x77
 5663 036e 00       		.sleb128 0
 5664 036f 27       		.byte	0x27
 5665 0370 74       		.byte	0x74
 5666 0371 00       		.sleb128 0
 5667 0372 1A       		.byte	0x1a
 5668 0373 77       		.byte	0x77
 5669 0374 00       		.sleb128 0
 5670 0375 27       		.byte	0x27
 5671 0376 22       		.byte	0x22
ARM GAS  C:\Users\Phuong\AppData\Local\Temp\ccuEFeTd.s 			page 111


 5672 0377 7A       		.byte	0x7a
 5673 0378 00       		.sleb128 0
 5674 0379 32       		.byte	0x32
 5675 037a 24       		.byte	0x24
 5676 037b 71       		.byte	0x71
 5677 037c 00       		.sleb128 0
 5678 037d 22       		.byte	0x22
 5679 037e 23       		.byte	0x23
 5680 037f 20       		.uleb128 0x20
 5681 0380 06       		.byte	0x6
 5682 0381 22       		.byte	0x22
 5683 0382 91       		.byte	0x91
 5684 0383 D47D     		.sleb128 -300
 5685 0385 06       		.byte	0x6
 5686 0386 22       		.byte	0x22
 5687 0387 7A       		.byte	0x7a
 5688 0388 00       		.sleb128 0
 5689 0389 32       		.byte	0x32
 5690 038a 24       		.byte	0x24
 5691 038b 7C       		.byte	0x7c
 5692 038c 00       		.sleb128 0
 5693 038d 22       		.byte	0x22
 5694 038e 06       		.byte	0x6
 5695 038f 22       		.byte	0x22
 5696 0390 9F       		.byte	0x9f
 5697 0391 0C010000 		.4byte	.LVL29
 5698 0395 0E010000 		.4byte	.LVL30
 5699 0399 5200     		.2byte	0x52
 5700 039b 74       		.byte	0x74
 5701 039c 00       		.sleb128 0
 5702 039d 36       		.byte	0x36
 5703 039e 14       		.byte	0x14
 5704 039f 14       		.byte	0x14
 5705 03a0 1F       		.byte	0x1f
 5706 03a1 23       		.byte	0x23
 5707 03a2 20       		.uleb128 0x20
 5708 03a3 24       		.byte	0x24
 5709 03a4 17       		.byte	0x17
 5710 03a5 25       		.byte	0x25
 5711 03a6 21       		.byte	0x21
 5712 03a7 74       		.byte	0x74
 5713 03a8 00       		.sleb128 0
 5714 03a9 3B       		.byte	0x3b
 5715 03aa 14       		.byte	0x14
 5716 03ab 14       		.byte	0x14
 5717 03ac 1F       		.byte	0x1f
 5718 03ad 23       		.byte	0x23
 5719 03ae 20       		.uleb128 0x20
 5720 03af 24       		.byte	0x24
 5721 03b0 17       		.byte	0x17
 5722 03b1 25       		.byte	0x25
 5723 03b2 21       		.byte	0x21
 5724 03b3 27       		.byte	0x27
 5725 03b4 74       		.byte	0x74
 5726 03b5 00       		.sleb128 0
 5727 03b6 49       		.byte	0x49
 5728 03b7 14       		.byte	0x14
ARM GAS  C:\Users\Phuong\AppData\Local\Temp\ccuEFeTd.s 			page 112


 5729 03b8 14       		.byte	0x14
 5730 03b9 1F       		.byte	0x1f
 5731 03ba 23       		.byte	0x23
 5732 03bb 20       		.uleb128 0x20
 5733 03bc 24       		.byte	0x24
 5734 03bd 17       		.byte	0x17
 5735 03be 25       		.byte	0x25
 5736 03bf 21       		.byte	0x21
 5737 03c0 27       		.byte	0x27
 5738 03c1 7D       		.byte	0x7d
 5739 03c2 00       		.sleb128 0
 5740 03c3 06       		.byte	0x6
 5741 03c4 91       		.byte	0x91
 5742 03c5 D07D     		.sleb128 -304
 5743 03c7 06       		.byte	0x6
 5744 03c8 27       		.byte	0x27
 5745 03c9 74       		.byte	0x74
 5746 03ca 00       		.sleb128 0
 5747 03cb 1A       		.byte	0x1a
 5748 03cc 91       		.byte	0x91
 5749 03cd D07D     		.sleb128 -304
 5750 03cf 06       		.byte	0x6
 5751 03d0 27       		.byte	0x27
 5752 03d1 22       		.byte	0x22
 5753 03d2 7A       		.byte	0x7a
 5754 03d3 00       		.sleb128 0
 5755 03d4 32       		.byte	0x32
 5756 03d5 24       		.byte	0x24
 5757 03d6 71       		.byte	0x71
 5758 03d7 00       		.sleb128 0
 5759 03d8 22       		.byte	0x22
 5760 03d9 77       		.byte	0x77
 5761 03da 00       		.sleb128 0
 5762 03db 22       		.byte	0x22
 5763 03dc 06       		.byte	0x6
 5764 03dd 22       		.byte	0x22
 5765 03de 91       		.byte	0x91
 5766 03df D47D     		.sleb128 -300
 5767 03e1 06       		.byte	0x6
 5768 03e2 22       		.byte	0x22
 5769 03e3 7A       		.byte	0x7a
 5770 03e4 00       		.sleb128 0
 5771 03e5 32       		.byte	0x32
 5772 03e6 24       		.byte	0x24
 5773 03e7 7C       		.byte	0x7c
 5774 03e8 00       		.sleb128 0
 5775 03e9 22       		.byte	0x22
 5776 03ea 06       		.byte	0x6
 5777 03eb 22       		.byte	0x22
 5778 03ec 9F       		.byte	0x9f
 5779 03ed 0E010000 		.4byte	.LVL30
 5780 03f1 12010000 		.4byte	.LVL31
 5781 03f5 4F00     		.2byte	0x4f
 5782 03f7 74       		.byte	0x74
 5783 03f8 00       		.sleb128 0
 5784 03f9 36       		.byte	0x36
 5785 03fa 14       		.byte	0x14
ARM GAS  C:\Users\Phuong\AppData\Local\Temp\ccuEFeTd.s 			page 113


 5786 03fb 14       		.byte	0x14
 5787 03fc 1F       		.byte	0x1f
 5788 03fd 23       		.byte	0x23
 5789 03fe 20       		.uleb128 0x20
 5790 03ff 24       		.byte	0x24
 5791 0400 17       		.byte	0x17
 5792 0401 25       		.byte	0x25
 5793 0402 21       		.byte	0x21
 5794 0403 74       		.byte	0x74
 5795 0404 00       		.sleb128 0
 5796 0405 3B       		.byte	0x3b
 5797 0406 14       		.byte	0x14
 5798 0407 14       		.byte	0x14
 5799 0408 1F       		.byte	0x1f
 5800 0409 23       		.byte	0x23
 5801 040a 20       		.uleb128 0x20
 5802 040b 24       		.byte	0x24
 5803 040c 17       		.byte	0x17
 5804 040d 25       		.byte	0x25
 5805 040e 21       		.byte	0x21
 5806 040f 27       		.byte	0x27
 5807 0410 74       		.byte	0x74
 5808 0411 00       		.sleb128 0
 5809 0412 49       		.byte	0x49
 5810 0413 14       		.byte	0x14
 5811 0414 14       		.byte	0x14
 5812 0415 1F       		.byte	0x1f
 5813 0416 23       		.byte	0x23
 5814 0417 20       		.uleb128 0x20
 5815 0418 24       		.byte	0x24
 5816 0419 17       		.byte	0x17
 5817 041a 25       		.byte	0x25
 5818 041b 21       		.byte	0x21
 5819 041c 27       		.byte	0x27
 5820 041d 7D       		.byte	0x7d
 5821 041e 00       		.sleb128 0
 5822 041f 06       		.byte	0x6
 5823 0420 91       		.byte	0x91
 5824 0421 D07D     		.sleb128 -304
 5825 0423 06       		.byte	0x6
 5826 0424 27       		.byte	0x27
 5827 0425 74       		.byte	0x74
 5828 0426 00       		.sleb128 0
 5829 0427 1A       		.byte	0x1a
 5830 0428 91       		.byte	0x91
 5831 0429 D07D     		.sleb128 -304
 5832 042b 06       		.byte	0x6
 5833 042c 27       		.byte	0x27
 5834 042d 22       		.byte	0x22
 5835 042e 7A       		.byte	0x7a
 5836 042f 00       		.sleb128 0
 5837 0430 32       		.byte	0x32
 5838 0431 24       		.byte	0x24
 5839 0432 71       		.byte	0x71
 5840 0433 00       		.sleb128 0
 5841 0434 22       		.byte	0x22
 5842 0435 06       		.byte	0x6
ARM GAS  C:\Users\Phuong\AppData\Local\Temp\ccuEFeTd.s 			page 114


 5843 0436 22       		.byte	0x22
 5844 0437 91       		.byte	0x91
 5845 0438 D47D     		.sleb128 -300
 5846 043a 06       		.byte	0x6
 5847 043b 22       		.byte	0x22
 5848 043c 7A       		.byte	0x7a
 5849 043d 00       		.sleb128 0
 5850 043e 32       		.byte	0x32
 5851 043f 24       		.byte	0x24
 5852 0440 7C       		.byte	0x7c
 5853 0441 00       		.sleb128 0
 5854 0442 22       		.byte	0x22
 5855 0443 06       		.byte	0x6
 5856 0444 22       		.byte	0x22
 5857 0445 9F       		.byte	0x9f
 5858 0446 12010000 		.4byte	.LVL31
 5859 044a 68010000 		.4byte	.LVL38
 5860 044e 0100     		.2byte	0x1
 5861 0450 52       		.byte	0x52
 5862 0451 68010000 		.4byte	.LVL38
 5863 0455 72010000 		.4byte	.LVL39
 5864 0459 5000     		.2byte	0x50
 5865 045b 72       		.byte	0x72
 5866 045c 00       		.sleb128 0
 5867 045d 36       		.byte	0x36
 5868 045e 14       		.byte	0x14
 5869 045f 14       		.byte	0x14
 5870 0460 1F       		.byte	0x1f
 5871 0461 23       		.byte	0x23
 5872 0462 20       		.uleb128 0x20
 5873 0463 24       		.byte	0x24
 5874 0464 17       		.byte	0x17
 5875 0465 25       		.byte	0x25
 5876 0466 21       		.byte	0x21
 5877 0467 72       		.byte	0x72
 5878 0468 00       		.sleb128 0
 5879 0469 3B       		.byte	0x3b
 5880 046a 14       		.byte	0x14
 5881 046b 14       		.byte	0x14
 5882 046c 1F       		.byte	0x1f
 5883 046d 23       		.byte	0x23
 5884 046e 20       		.uleb128 0x20
 5885 046f 24       		.byte	0x24
 5886 0470 17       		.byte	0x17
 5887 0471 25       		.byte	0x25
 5888 0472 21       		.byte	0x21
 5889 0473 27       		.byte	0x27
 5890 0474 72       		.byte	0x72
 5891 0475 00       		.sleb128 0
 5892 0476 49       		.byte	0x49
 5893 0477 14       		.byte	0x14
 5894 0478 14       		.byte	0x14
 5895 0479 1F       		.byte	0x1f
 5896 047a 23       		.byte	0x23
 5897 047b 20       		.uleb128 0x20
 5898 047c 24       		.byte	0x24
 5899 047d 17       		.byte	0x17
ARM GAS  C:\Users\Phuong\AppData\Local\Temp\ccuEFeTd.s 			page 115


 5900 047e 25       		.byte	0x25
 5901 047f 21       		.byte	0x21
 5902 0480 27       		.byte	0x27
 5903 0481 7D       		.byte	0x7d
 5904 0482 00       		.sleb128 0
 5905 0483 06       		.byte	0x6
 5906 0484 74       		.byte	0x74
 5907 0485 00       		.sleb128 0
 5908 0486 27       		.byte	0x27
 5909 0487 72       		.byte	0x72
 5910 0488 00       		.sleb128 0
 5911 0489 1A       		.byte	0x1a
 5912 048a 7D       		.byte	0x7d
 5913 048b 00       		.sleb128 0
 5914 048c 06       		.byte	0x6
 5915 048d 27       		.byte	0x27
 5916 048e 22       		.byte	0x22
 5917 048f 7A       		.byte	0x7a
 5918 0490 01       		.sleb128 1
 5919 0491 32       		.byte	0x32
 5920 0492 24       		.byte	0x24
 5921 0493 91       		.byte	0x91
 5922 0494 00       		.sleb128 0
 5923 0495 22       		.byte	0x22
 5924 0496 0A       		.byte	0xa
 5925 0497 2801     		.2byte	0x128
 5926 0499 1C       		.byte	0x1c
 5927 049a 06       		.byte	0x6
 5928 049b 22       		.byte	0x22
 5929 049c 91       		.byte	0x91
 5930 049d D07D     		.sleb128 -304
 5931 049f 06       		.byte	0x6
 5932 04a0 22       		.byte	0x22
 5933 04a1 7A       		.byte	0x7a
 5934 04a2 01       		.sleb128 1
 5935 04a3 32       		.byte	0x32
 5936 04a4 24       		.byte	0x24
 5937 04a5 7C       		.byte	0x7c
 5938 04a6 00       		.sleb128 0
 5939 04a7 22       		.byte	0x22
 5940 04a8 06       		.byte	0x6
 5941 04a9 22       		.byte	0x22
 5942 04aa 9F       		.byte	0x9f
 5943 04ab 72010000 		.4byte	.LVL39
 5944 04af 84010000 		.4byte	.LVL42
 5945 04b3 5800     		.2byte	0x58
 5946 04b5 91       		.byte	0x91
 5947 04b6 8C7D     		.sleb128 -372
 5948 04b8 06       		.byte	0x6
 5949 04b9 36       		.byte	0x36
 5950 04ba 14       		.byte	0x14
 5951 04bb 14       		.byte	0x14
 5952 04bc 1F       		.byte	0x1f
 5953 04bd 23       		.byte	0x23
 5954 04be 20       		.uleb128 0x20
 5955 04bf 24       		.byte	0x24
 5956 04c0 17       		.byte	0x17
ARM GAS  C:\Users\Phuong\AppData\Local\Temp\ccuEFeTd.s 			page 116


 5957 04c1 25       		.byte	0x25
 5958 04c2 21       		.byte	0x21
 5959 04c3 91       		.byte	0x91
 5960 04c4 8C7D     		.sleb128 -372
 5961 04c6 06       		.byte	0x6
 5962 04c7 3B       		.byte	0x3b
 5963 04c8 14       		.byte	0x14
 5964 04c9 14       		.byte	0x14
 5965 04ca 1F       		.byte	0x1f
 5966 04cb 23       		.byte	0x23
 5967 04cc 20       		.uleb128 0x20
 5968 04cd 24       		.byte	0x24
 5969 04ce 17       		.byte	0x17
 5970 04cf 25       		.byte	0x25
 5971 04d0 21       		.byte	0x21
 5972 04d1 27       		.byte	0x27
 5973 04d2 91       		.byte	0x91
 5974 04d3 8C7D     		.sleb128 -372
 5975 04d5 06       		.byte	0x6
 5976 04d6 49       		.byte	0x49
 5977 04d7 14       		.byte	0x14
 5978 04d8 14       		.byte	0x14
 5979 04d9 1F       		.byte	0x1f
 5980 04da 23       		.byte	0x23
 5981 04db 20       		.uleb128 0x20
 5982 04dc 24       		.byte	0x24
 5983 04dd 17       		.byte	0x17
 5984 04de 25       		.byte	0x25
 5985 04df 21       		.byte	0x21
 5986 04e0 27       		.byte	0x27
 5987 04e1 7D       		.byte	0x7d
 5988 04e2 00       		.sleb128 0
 5989 04e3 06       		.byte	0x6
 5990 04e4 74       		.byte	0x74
 5991 04e5 00       		.sleb128 0
 5992 04e6 27       		.byte	0x27
 5993 04e7 91       		.byte	0x91
 5994 04e8 8C7D     		.sleb128 -372
 5995 04ea 06       		.byte	0x6
 5996 04eb 1A       		.byte	0x1a
 5997 04ec 7D       		.byte	0x7d
 5998 04ed 00       		.sleb128 0
 5999 04ee 06       		.byte	0x6
 6000 04ef 27       		.byte	0x27
 6001 04f0 22       		.byte	0x22
 6002 04f1 7A       		.byte	0x7a
 6003 04f2 01       		.sleb128 1
 6004 04f3 32       		.byte	0x32
 6005 04f4 24       		.byte	0x24
 6006 04f5 91       		.byte	0x91
 6007 04f6 00       		.sleb128 0
 6008 04f7 22       		.byte	0x22
 6009 04f8 0A       		.byte	0xa
 6010 04f9 2801     		.2byte	0x128
 6011 04fb 1C       		.byte	0x1c
 6012 04fc 06       		.byte	0x6
 6013 04fd 22       		.byte	0x22
ARM GAS  C:\Users\Phuong\AppData\Local\Temp\ccuEFeTd.s 			page 117


 6014 04fe 91       		.byte	0x91
 6015 04ff D07D     		.sleb128 -304
 6016 0501 06       		.byte	0x6
 6017 0502 22       		.byte	0x22
 6018 0503 7A       		.byte	0x7a
 6019 0504 01       		.sleb128 1
 6020 0505 32       		.byte	0x32
 6021 0506 24       		.byte	0x24
 6022 0507 7C       		.byte	0x7c
 6023 0508 00       		.sleb128 0
 6024 0509 22       		.byte	0x22
 6025 050a 06       		.byte	0x6
 6026 050b 22       		.byte	0x22
 6027 050c 9F       		.byte	0x9f
 6028 050d 84010000 		.4byte	.LVL42
 6029 0511 86010000 		.4byte	.LVL43
 6030 0515 5600     		.2byte	0x56
 6031 0517 91       		.byte	0x91
 6032 0518 8C7D     		.sleb128 -372
 6033 051a 06       		.byte	0x6
 6034 051b 36       		.byte	0x36
 6035 051c 14       		.byte	0x14
 6036 051d 14       		.byte	0x14
 6037 051e 1F       		.byte	0x1f
 6038 051f 23       		.byte	0x23
 6039 0520 20       		.uleb128 0x20
 6040 0521 24       		.byte	0x24
 6041 0522 17       		.byte	0x17
 6042 0523 25       		.byte	0x25
 6043 0524 21       		.byte	0x21
 6044 0525 91       		.byte	0x91
 6045 0526 8C7D     		.sleb128 -372
 6046 0528 06       		.byte	0x6
 6047 0529 3B       		.byte	0x3b
 6048 052a 14       		.byte	0x14
 6049 052b 14       		.byte	0x14
 6050 052c 1F       		.byte	0x1f
 6051 052d 23       		.byte	0x23
 6052 052e 20       		.uleb128 0x20
 6053 052f 24       		.byte	0x24
 6054 0530 17       		.byte	0x17
 6055 0531 25       		.byte	0x25
 6056 0532 21       		.byte	0x21
 6057 0533 27       		.byte	0x27
 6058 0534 91       		.byte	0x91
 6059 0535 8C7D     		.sleb128 -372
 6060 0537 06       		.byte	0x6
 6061 0538 49       		.byte	0x49
 6062 0539 14       		.byte	0x14
 6063 053a 14       		.byte	0x14
 6064 053b 1F       		.byte	0x1f
 6065 053c 23       		.byte	0x23
 6066 053d 20       		.uleb128 0x20
 6067 053e 24       		.byte	0x24
 6068 053f 17       		.byte	0x17
 6069 0540 25       		.byte	0x25
 6070 0541 21       		.byte	0x21
ARM GAS  C:\Users\Phuong\AppData\Local\Temp\ccuEFeTd.s 			page 118


 6071 0542 27       		.byte	0x27
 6072 0543 7D       		.byte	0x7d
 6073 0544 00       		.sleb128 0
 6074 0545 06       		.byte	0x6
 6075 0546 74       		.byte	0x74
 6076 0547 00       		.sleb128 0
 6077 0548 27       		.byte	0x27
 6078 0549 91       		.byte	0x91
 6079 054a 8C7D     		.sleb128 -372
 6080 054c 06       		.byte	0x6
 6081 054d 1A       		.byte	0x1a
 6082 054e 7D       		.byte	0x7d
 6083 054f 00       		.sleb128 0
 6084 0550 06       		.byte	0x6
 6085 0551 27       		.byte	0x27
 6086 0552 22       		.byte	0x22
 6087 0553 7A       		.byte	0x7a
 6088 0554 01       		.sleb128 1
 6089 0555 32       		.byte	0x32
 6090 0556 24       		.byte	0x24
 6091 0557 72       		.byte	0x72
 6092 0558 00       		.sleb128 0
 6093 0559 22       		.byte	0x22
 6094 055a 23       		.byte	0x23
 6095 055b 20       		.uleb128 0x20
 6096 055c 06       		.byte	0x6
 6097 055d 22       		.byte	0x22
 6098 055e 91       		.byte	0x91
 6099 055f D07D     		.sleb128 -304
 6100 0561 06       		.byte	0x6
 6101 0562 22       		.byte	0x22
 6102 0563 7A       		.byte	0x7a
 6103 0564 01       		.sleb128 1
 6104 0565 32       		.byte	0x32
 6105 0566 24       		.byte	0x24
 6106 0567 7C       		.byte	0x7c
 6107 0568 00       		.sleb128 0
 6108 0569 22       		.byte	0x22
 6109 056a 06       		.byte	0x6
 6110 056b 22       		.byte	0x22
 6111 056c 9F       		.byte	0x9f
 6112 056d 86010000 		.4byte	.LVL43
 6113 0571 88010000 		.4byte	.LVL44
 6114 0575 5700     		.2byte	0x57
 6115 0577 91       		.byte	0x91
 6116 0578 8C7D     		.sleb128 -372
 6117 057a 06       		.byte	0x6
 6118 057b 36       		.byte	0x36
 6119 057c 14       		.byte	0x14
 6120 057d 14       		.byte	0x14
 6121 057e 1F       		.byte	0x1f
 6122 057f 23       		.byte	0x23
 6123 0580 20       		.uleb128 0x20
 6124 0581 24       		.byte	0x24
 6125 0582 17       		.byte	0x17
 6126 0583 25       		.byte	0x25
 6127 0584 21       		.byte	0x21
ARM GAS  C:\Users\Phuong\AppData\Local\Temp\ccuEFeTd.s 			page 119


 6128 0585 91       		.byte	0x91
 6129 0586 8C7D     		.sleb128 -372
 6130 0588 06       		.byte	0x6
 6131 0589 3B       		.byte	0x3b
 6132 058a 14       		.byte	0x14
 6133 058b 14       		.byte	0x14
 6134 058c 1F       		.byte	0x1f
 6135 058d 23       		.byte	0x23
 6136 058e 20       		.uleb128 0x20
 6137 058f 24       		.byte	0x24
 6138 0590 17       		.byte	0x17
 6139 0591 25       		.byte	0x25
 6140 0592 21       		.byte	0x21
 6141 0593 27       		.byte	0x27
 6142 0594 91       		.byte	0x91
 6143 0595 8C7D     		.sleb128 -372
 6144 0597 06       		.byte	0x6
 6145 0598 49       		.byte	0x49
 6146 0599 14       		.byte	0x14
 6147 059a 14       		.byte	0x14
 6148 059b 1F       		.byte	0x1f
 6149 059c 23       		.byte	0x23
 6150 059d 20       		.uleb128 0x20
 6151 059e 24       		.byte	0x24
 6152 059f 17       		.byte	0x17
 6153 05a0 25       		.byte	0x25
 6154 05a1 21       		.byte	0x21
 6155 05a2 27       		.byte	0x27
 6156 05a3 7D       		.byte	0x7d
 6157 05a4 00       		.sleb128 0
 6158 05a5 06       		.byte	0x6
 6159 05a6 74       		.byte	0x74
 6160 05a7 00       		.sleb128 0
 6161 05a8 27       		.byte	0x27
 6162 05a9 91       		.byte	0x91
 6163 05aa 8C7D     		.sleb128 -372
 6164 05ac 06       		.byte	0x6
 6165 05ad 1A       		.byte	0x1a
 6166 05ae 7D       		.byte	0x7d
 6167 05af 00       		.sleb128 0
 6168 05b0 06       		.byte	0x6
 6169 05b1 27       		.byte	0x27
 6170 05b2 22       		.byte	0x22
 6171 05b3 7A       		.byte	0x7a
 6172 05b4 01       		.sleb128 1
 6173 05b5 32       		.byte	0x32
 6174 05b6 24       		.byte	0x24
 6175 05b7 72       		.byte	0x72
 6176 05b8 00       		.sleb128 0
 6177 05b9 22       		.byte	0x22
 6178 05ba 76       		.byte	0x76
 6179 05bb 00       		.sleb128 0
 6180 05bc 22       		.byte	0x22
 6181 05bd 06       		.byte	0x6
 6182 05be 22       		.byte	0x22
 6183 05bf 91       		.byte	0x91
 6184 05c0 D07D     		.sleb128 -304
ARM GAS  C:\Users\Phuong\AppData\Local\Temp\ccuEFeTd.s 			page 120


 6185 05c2 06       		.byte	0x6
 6186 05c3 22       		.byte	0x22
 6187 05c4 7A       		.byte	0x7a
 6188 05c5 01       		.sleb128 1
 6189 05c6 32       		.byte	0x32
 6190 05c7 24       		.byte	0x24
 6191 05c8 7C       		.byte	0x7c
 6192 05c9 00       		.sleb128 0
 6193 05ca 22       		.byte	0x22
 6194 05cb 06       		.byte	0x6
 6195 05cc 22       		.byte	0x22
 6196 05cd 9F       		.byte	0x9f
 6197 05ce 88010000 		.4byte	.LVL44
 6198 05d2 8A010000 		.4byte	.LVL45
 6199 05d6 5400     		.2byte	0x54
 6200 05d8 91       		.byte	0x91
 6201 05d9 8C7D     		.sleb128 -372
 6202 05db 06       		.byte	0x6
 6203 05dc 36       		.byte	0x36
 6204 05dd 14       		.byte	0x14
 6205 05de 14       		.byte	0x14
 6206 05df 1F       		.byte	0x1f
 6207 05e0 23       		.byte	0x23
 6208 05e1 20       		.uleb128 0x20
 6209 05e2 24       		.byte	0x24
 6210 05e3 17       		.byte	0x17
 6211 05e4 25       		.byte	0x25
 6212 05e5 21       		.byte	0x21
 6213 05e6 91       		.byte	0x91
 6214 05e7 8C7D     		.sleb128 -372
 6215 05e9 06       		.byte	0x6
 6216 05ea 3B       		.byte	0x3b
 6217 05eb 14       		.byte	0x14
 6218 05ec 14       		.byte	0x14
 6219 05ed 1F       		.byte	0x1f
 6220 05ee 23       		.byte	0x23
 6221 05ef 20       		.uleb128 0x20
 6222 05f0 24       		.byte	0x24
 6223 05f1 17       		.byte	0x17
 6224 05f2 25       		.byte	0x25
 6225 05f3 21       		.byte	0x21
 6226 05f4 27       		.byte	0x27
 6227 05f5 91       		.byte	0x91
 6228 05f6 8C7D     		.sleb128 -372
 6229 05f8 06       		.byte	0x6
 6230 05f9 49       		.byte	0x49
 6231 05fa 14       		.byte	0x14
 6232 05fb 14       		.byte	0x14
 6233 05fc 1F       		.byte	0x1f
 6234 05fd 23       		.byte	0x23
 6235 05fe 20       		.uleb128 0x20
 6236 05ff 24       		.byte	0x24
 6237 0600 17       		.byte	0x17
 6238 0601 25       		.byte	0x25
 6239 0602 21       		.byte	0x21
 6240 0603 27       		.byte	0x27
 6241 0604 7D       		.byte	0x7d
ARM GAS  C:\Users\Phuong\AppData\Local\Temp\ccuEFeTd.s 			page 121


 6242 0605 00       		.sleb128 0
 6243 0606 06       		.byte	0x6
 6244 0607 74       		.byte	0x74
 6245 0608 00       		.sleb128 0
 6246 0609 27       		.byte	0x27
 6247 060a 91       		.byte	0x91
 6248 060b 8C7D     		.sleb128 -372
 6249 060d 06       		.byte	0x6
 6250 060e 1A       		.byte	0x1a
 6251 060f 7D       		.byte	0x7d
 6252 0610 00       		.sleb128 0
 6253 0611 06       		.byte	0x6
 6254 0612 27       		.byte	0x27
 6255 0613 22       		.byte	0x22
 6256 0614 7A       		.byte	0x7a
 6257 0615 01       		.sleb128 1
 6258 0616 32       		.byte	0x32
 6259 0617 24       		.byte	0x24
 6260 0618 72       		.byte	0x72
 6261 0619 00       		.sleb128 0
 6262 061a 22       		.byte	0x22
 6263 061b 06       		.byte	0x6
 6264 061c 22       		.byte	0x22
 6265 061d 91       		.byte	0x91
 6266 061e D07D     		.sleb128 -304
 6267 0620 06       		.byte	0x6
 6268 0621 22       		.byte	0x22
 6269 0622 7A       		.byte	0x7a
 6270 0623 01       		.sleb128 1
 6271 0624 32       		.byte	0x32
 6272 0625 24       		.byte	0x24
 6273 0626 7C       		.byte	0x7c
 6274 0627 00       		.sleb128 0
 6275 0628 22       		.byte	0x22
 6276 0629 06       		.byte	0x6
 6277 062a 22       		.byte	0x22
 6278 062b 9F       		.byte	0x9f
 6279 062c 8A010000 		.4byte	.LVL45
 6280 0630 8E010000 		.4byte	.LVL46
 6281 0634 5B00     		.2byte	0x5b
 6282 0636 91       		.byte	0x91
 6283 0637 8C7D     		.sleb128 -372
 6284 0639 06       		.byte	0x6
 6285 063a 36       		.byte	0x36
 6286 063b 14       		.byte	0x14
 6287 063c 14       		.byte	0x14
 6288 063d 1F       		.byte	0x1f
 6289 063e 23       		.byte	0x23
 6290 063f 20       		.uleb128 0x20
 6291 0640 24       		.byte	0x24
 6292 0641 17       		.byte	0x17
 6293 0642 25       		.byte	0x25
 6294 0643 21       		.byte	0x21
 6295 0644 91       		.byte	0x91
 6296 0645 8C7D     		.sleb128 -372
 6297 0647 06       		.byte	0x6
 6298 0648 3B       		.byte	0x3b
ARM GAS  C:\Users\Phuong\AppData\Local\Temp\ccuEFeTd.s 			page 122


 6299 0649 14       		.byte	0x14
 6300 064a 14       		.byte	0x14
 6301 064b 1F       		.byte	0x1f
 6302 064c 23       		.byte	0x23
 6303 064d 20       		.uleb128 0x20
 6304 064e 24       		.byte	0x24
 6305 064f 17       		.byte	0x17
 6306 0650 25       		.byte	0x25
 6307 0651 21       		.byte	0x21
 6308 0652 27       		.byte	0x27
 6309 0653 91       		.byte	0x91
 6310 0654 8C7D     		.sleb128 -372
 6311 0656 06       		.byte	0x6
 6312 0657 49       		.byte	0x49
 6313 0658 14       		.byte	0x14
 6314 0659 14       		.byte	0x14
 6315 065a 1F       		.byte	0x1f
 6316 065b 23       		.byte	0x23
 6317 065c 20       		.uleb128 0x20
 6318 065d 24       		.byte	0x24
 6319 065e 17       		.byte	0x17
 6320 065f 25       		.byte	0x25
 6321 0660 21       		.byte	0x21
 6322 0661 27       		.byte	0x27
 6323 0662 7D       		.byte	0x7d
 6324 0663 00       		.sleb128 0
 6325 0664 06       		.byte	0x6
 6326 0665 74       		.byte	0x74
 6327 0666 00       		.sleb128 0
 6328 0667 27       		.byte	0x27
 6329 0668 91       		.byte	0x91
 6330 0669 8C7D     		.sleb128 -372
 6331 066b 06       		.byte	0x6
 6332 066c 1A       		.byte	0x1a
 6333 066d 7D       		.byte	0x7d
 6334 066e 00       		.sleb128 0
 6335 066f 06       		.byte	0x6
 6336 0670 27       		.byte	0x27
 6337 0671 22       		.byte	0x22
 6338 0672 7A       		.byte	0x7a
 6339 0673 01       		.sleb128 1
 6340 0674 32       		.byte	0x32
 6341 0675 24       		.byte	0x24
 6342 0676 91       		.byte	0x91
 6343 0677 00       		.sleb128 0
 6344 0678 22       		.byte	0x22
 6345 0679 76       		.byte	0x76
 6346 067a 00       		.sleb128 0
 6347 067b 22       		.byte	0x22
 6348 067c 0A       		.byte	0xa
 6349 067d 4801     		.2byte	0x148
 6350 067f 1C       		.byte	0x1c
 6351 0680 06       		.byte	0x6
 6352 0681 22       		.byte	0x22
 6353 0682 91       		.byte	0x91
 6354 0683 D07D     		.sleb128 -304
 6355 0685 06       		.byte	0x6
ARM GAS  C:\Users\Phuong\AppData\Local\Temp\ccuEFeTd.s 			page 123


 6356 0686 22       		.byte	0x22
 6357 0687 7A       		.byte	0x7a
 6358 0688 01       		.sleb128 1
 6359 0689 32       		.byte	0x32
 6360 068a 24       		.byte	0x24
 6361 068b 7C       		.byte	0x7c
 6362 068c 00       		.sleb128 0
 6363 068d 22       		.byte	0x22
 6364 068e 06       		.byte	0x6
 6365 068f 22       		.byte	0x22
 6366 0690 9F       		.byte	0x9f
 6367 0691 8E010000 		.4byte	.LVL46
 6368 0695 DA010000 		.4byte	.LVL54
 6369 0699 0100     		.2byte	0x1
 6370 069b 58       		.byte	0x58
 6371 069c DA010000 		.4byte	.LVL54
 6372 06a0 DE010000 		.4byte	.LVL55
 6373 06a4 5200     		.2byte	0x52
 6374 06a6 74       		.byte	0x74
 6375 06a7 00       		.sleb128 0
 6376 06a8 91       		.byte	0x91
 6377 06a9 8C7D     		.sleb128 -372
 6378 06ab 06       		.byte	0x6
 6379 06ac 27       		.byte	0x27
 6380 06ad 77       		.byte	0x77
 6381 06ae 00       		.sleb128 0
 6382 06af 1A       		.byte	0x1a
 6383 06b0 74       		.byte	0x74
 6384 06b1 00       		.sleb128 0
 6385 06b2 27       		.byte	0x27
 6386 06b3 77       		.byte	0x77
 6387 06b4 00       		.sleb128 0
 6388 06b5 36       		.byte	0x36
 6389 06b6 14       		.byte	0x14
 6390 06b7 14       		.byte	0x14
 6391 06b8 1F       		.byte	0x1f
 6392 06b9 23       		.byte	0x23
 6393 06ba 20       		.uleb128 0x20
 6394 06bb 24       		.byte	0x24
 6395 06bc 17       		.byte	0x17
 6396 06bd 25       		.byte	0x25
 6397 06be 21       		.byte	0x21
 6398 06bf 77       		.byte	0x77
 6399 06c0 00       		.sleb128 0
 6400 06c1 71       		.byte	0x71
 6401 06c2 00       		.sleb128 0
 6402 06c3 14       		.byte	0x14
 6403 06c4 14       		.byte	0x14
 6404 06c5 1F       		.byte	0x1f
 6405 06c6 23       		.byte	0x23
 6406 06c7 20       		.uleb128 0x20
 6407 06c8 24       		.byte	0x24
 6408 06c9 17       		.byte	0x17
 6409 06ca 25       		.byte	0x25
 6410 06cb 21       		.byte	0x21
 6411 06cc 27       		.byte	0x27
 6412 06cd 77       		.byte	0x77
ARM GAS  C:\Users\Phuong\AppData\Local\Temp\ccuEFeTd.s 			page 124


 6413 06ce 00       		.sleb128 0
 6414 06cf 71       		.byte	0x71
 6415 06d0 0E       		.sleb128 14
 6416 06d1 14       		.byte	0x14
 6417 06d2 14       		.byte	0x14
 6418 06d3 1F       		.byte	0x1f
 6419 06d4 23       		.byte	0x23
 6420 06d5 20       		.uleb128 0x20
 6421 06d6 24       		.byte	0x24
 6422 06d7 17       		.byte	0x17
 6423 06d8 25       		.byte	0x25
 6424 06d9 21       		.byte	0x21
 6425 06da 27       		.byte	0x27
 6426 06db 22       		.byte	0x22
 6427 06dc 7A       		.byte	0x7a
 6428 06dd 02       		.sleb128 2
 6429 06de 32       		.byte	0x32
 6430 06df 24       		.byte	0x24
 6431 06e0 91       		.byte	0x91
 6432 06e1 00       		.sleb128 0
 6433 06e2 22       		.byte	0x22
 6434 06e3 0A       		.byte	0xa
 6435 06e4 2801     		.2byte	0x128
 6436 06e6 1C       		.byte	0x1c
 6437 06e7 06       		.byte	0x6
 6438 06e8 22       		.byte	0x22
 6439 06e9 91       		.byte	0x91
 6440 06ea CC7D     		.sleb128 -308
 6441 06ec 06       		.byte	0x6
 6442 06ed 22       		.byte	0x22
 6443 06ee 7A       		.byte	0x7a
 6444 06ef 02       		.sleb128 2
 6445 06f0 32       		.byte	0x32
 6446 06f1 24       		.byte	0x24
 6447 06f2 7C       		.byte	0x7c
 6448 06f3 00       		.sleb128 0
 6449 06f4 22       		.byte	0x22
 6450 06f5 06       		.byte	0x6
 6451 06f6 22       		.byte	0x22
 6452 06f7 9F       		.byte	0x9f
 6453 06f8 DE010000 		.4byte	.LVL55
 6454 06fc F8010000 		.4byte	.LVL56
 6455 0700 5000     		.2byte	0x50
 6456 0702 74       		.byte	0x74
 6457 0703 00       		.sleb128 0
 6458 0704 91       		.byte	0x91
 6459 0705 8C7D     		.sleb128 -372
 6460 0707 06       		.byte	0x6
 6461 0708 27       		.byte	0x27
 6462 0709 77       		.byte	0x77
 6463 070a 00       		.sleb128 0
 6464 070b 1A       		.byte	0x1a
 6465 070c 74       		.byte	0x74
 6466 070d 00       		.sleb128 0
 6467 070e 27       		.byte	0x27
 6468 070f 77       		.byte	0x77
 6469 0710 00       		.sleb128 0
ARM GAS  C:\Users\Phuong\AppData\Local\Temp\ccuEFeTd.s 			page 125


 6470 0711 36       		.byte	0x36
 6471 0712 14       		.byte	0x14
 6472 0713 14       		.byte	0x14
 6473 0714 1F       		.byte	0x1f
 6474 0715 23       		.byte	0x23
 6475 0716 20       		.uleb128 0x20
 6476 0717 24       		.byte	0x24
 6477 0718 17       		.byte	0x17
 6478 0719 25       		.byte	0x25
 6479 071a 21       		.byte	0x21
 6480 071b 77       		.byte	0x77
 6481 071c 00       		.sleb128 0
 6482 071d 3B       		.byte	0x3b
 6483 071e 14       		.byte	0x14
 6484 071f 14       		.byte	0x14
 6485 0720 1F       		.byte	0x1f
 6486 0721 23       		.byte	0x23
 6487 0722 20       		.uleb128 0x20
 6488 0723 24       		.byte	0x24
 6489 0724 17       		.byte	0x17
 6490 0725 25       		.byte	0x25
 6491 0726 21       		.byte	0x21
 6492 0727 27       		.byte	0x27
 6493 0728 77       		.byte	0x77
 6494 0729 00       		.sleb128 0
 6495 072a 49       		.byte	0x49
 6496 072b 14       		.byte	0x14
 6497 072c 14       		.byte	0x14
 6498 072d 1F       		.byte	0x1f
 6499 072e 23       		.byte	0x23
 6500 072f 20       		.uleb128 0x20
 6501 0730 24       		.byte	0x24
 6502 0731 17       		.byte	0x17
 6503 0732 25       		.byte	0x25
 6504 0733 21       		.byte	0x21
 6505 0734 27       		.byte	0x27
 6506 0735 22       		.byte	0x22
 6507 0736 7A       		.byte	0x7a
 6508 0737 02       		.sleb128 2
 6509 0738 32       		.byte	0x32
 6510 0739 24       		.byte	0x24
 6511 073a 91       		.byte	0x91
 6512 073b 00       		.sleb128 0
 6513 073c 22       		.byte	0x22
 6514 073d 0A       		.byte	0xa
 6515 073e 2801     		.2byte	0x128
 6516 0740 1C       		.byte	0x1c
 6517 0741 06       		.byte	0x6
 6518 0742 22       		.byte	0x22
 6519 0743 91       		.byte	0x91
 6520 0744 CC7D     		.sleb128 -308
 6521 0746 06       		.byte	0x6
 6522 0747 22       		.byte	0x22
 6523 0748 7A       		.byte	0x7a
 6524 0749 02       		.sleb128 2
 6525 074a 32       		.byte	0x32
 6526 074b 24       		.byte	0x24
ARM GAS  C:\Users\Phuong\AppData\Local\Temp\ccuEFeTd.s 			page 126


 6527 074c 7C       		.byte	0x7c
 6528 074d 00       		.sleb128 0
 6529 074e 22       		.byte	0x22
 6530 074f 06       		.byte	0x6
 6531 0750 22       		.byte	0x22
 6532 0751 9F       		.byte	0x9f
 6533 0752 F8010000 		.4byte	.LVL56
 6534 0756 14020000 		.4byte	.LVL58
 6535 075a 5400     		.2byte	0x54
 6536 075c 91       		.byte	0x91
 6537 075d C87D     		.sleb128 -312
 6538 075f 06       		.byte	0x6
 6539 0760 91       		.byte	0x91
 6540 0761 8C7D     		.sleb128 -372
 6541 0763 06       		.byte	0x6
 6542 0764 27       		.byte	0x27
 6543 0765 77       		.byte	0x77
 6544 0766 00       		.sleb128 0
 6545 0767 1A       		.byte	0x1a
 6546 0768 91       		.byte	0x91
 6547 0769 C87D     		.sleb128 -312
 6548 076b 06       		.byte	0x6
 6549 076c 27       		.byte	0x27
 6550 076d 77       		.byte	0x77
 6551 076e 00       		.sleb128 0
 6552 076f 36       		.byte	0x36
 6553 0770 14       		.byte	0x14
 6554 0771 14       		.byte	0x14
 6555 0772 1F       		.byte	0x1f
 6556 0773 23       		.byte	0x23
 6557 0774 20       		.uleb128 0x20
 6558 0775 24       		.byte	0x24
 6559 0776 17       		.byte	0x17
 6560 0777 25       		.byte	0x25
 6561 0778 21       		.byte	0x21
 6562 0779 77       		.byte	0x77
 6563 077a 00       		.sleb128 0
 6564 077b 3B       		.byte	0x3b
 6565 077c 14       		.byte	0x14
 6566 077d 14       		.byte	0x14
 6567 077e 1F       		.byte	0x1f
 6568 077f 23       		.byte	0x23
 6569 0780 20       		.uleb128 0x20
 6570 0781 24       		.byte	0x24
 6571 0782 17       		.byte	0x17
 6572 0783 25       		.byte	0x25
 6573 0784 21       		.byte	0x21
 6574 0785 27       		.byte	0x27
 6575 0786 77       		.byte	0x77
 6576 0787 00       		.sleb128 0
 6577 0788 49       		.byte	0x49
 6578 0789 14       		.byte	0x14
 6579 078a 14       		.byte	0x14
 6580 078b 1F       		.byte	0x1f
 6581 078c 23       		.byte	0x23
 6582 078d 20       		.uleb128 0x20
 6583 078e 24       		.byte	0x24
ARM GAS  C:\Users\Phuong\AppData\Local\Temp\ccuEFeTd.s 			page 127


 6584 078f 17       		.byte	0x17
 6585 0790 25       		.byte	0x25
 6586 0791 21       		.byte	0x21
 6587 0792 27       		.byte	0x27
 6588 0793 22       		.byte	0x22
 6589 0794 7A       		.byte	0x7a
 6590 0795 02       		.sleb128 2
 6591 0796 32       		.byte	0x32
 6592 0797 24       		.byte	0x24
 6593 0798 91       		.byte	0x91
 6594 0799 00       		.sleb128 0
 6595 079a 22       		.byte	0x22
 6596 079b 0A       		.byte	0xa
 6597 079c 2801     		.2byte	0x128
 6598 079e 1C       		.byte	0x1c
 6599 079f 06       		.byte	0x6
 6600 07a0 22       		.byte	0x22
 6601 07a1 91       		.byte	0x91
 6602 07a2 CC7D     		.sleb128 -308
 6603 07a4 06       		.byte	0x6
 6604 07a5 22       		.byte	0x22
 6605 07a6 7A       		.byte	0x7a
 6606 07a7 02       		.sleb128 2
 6607 07a8 32       		.byte	0x32
 6608 07a9 24       		.byte	0x24
 6609 07aa 7C       		.byte	0x7c
 6610 07ab 00       		.sleb128 0
 6611 07ac 22       		.byte	0x22
 6612 07ad 06       		.byte	0x6
 6613 07ae 22       		.byte	0x22
 6614 07af 9F       		.byte	0x9f
 6615 07b0 14020000 		.4byte	.LVL58
 6616 07b4 16020000 		.4byte	.LVL59
 6617 07b8 5200     		.2byte	0x52
 6618 07ba 91       		.byte	0x91
 6619 07bb C87D     		.sleb128 -312
 6620 07bd 06       		.byte	0x6
 6621 07be 91       		.byte	0x91
 6622 07bf 8C7D     		.sleb128 -372
 6623 07c1 06       		.byte	0x6
 6624 07c2 27       		.byte	0x27
 6625 07c3 77       		.byte	0x77
 6626 07c4 00       		.sleb128 0
 6627 07c5 1A       		.byte	0x1a
 6628 07c6 91       		.byte	0x91
 6629 07c7 C87D     		.sleb128 -312
 6630 07c9 06       		.byte	0x6
 6631 07ca 27       		.byte	0x27
 6632 07cb 77       		.byte	0x77
 6633 07cc 00       		.sleb128 0
 6634 07cd 36       		.byte	0x36
 6635 07ce 14       		.byte	0x14
 6636 07cf 14       		.byte	0x14
 6637 07d0 1F       		.byte	0x1f
 6638 07d1 23       		.byte	0x23
 6639 07d2 20       		.uleb128 0x20
 6640 07d3 24       		.byte	0x24
ARM GAS  C:\Users\Phuong\AppData\Local\Temp\ccuEFeTd.s 			page 128


 6641 07d4 17       		.byte	0x17
 6642 07d5 25       		.byte	0x25
 6643 07d6 21       		.byte	0x21
 6644 07d7 77       		.byte	0x77
 6645 07d8 00       		.sleb128 0
 6646 07d9 3B       		.byte	0x3b
 6647 07da 14       		.byte	0x14
 6648 07db 14       		.byte	0x14
 6649 07dc 1F       		.byte	0x1f
 6650 07dd 23       		.byte	0x23
 6651 07de 20       		.uleb128 0x20
 6652 07df 24       		.byte	0x24
 6653 07e0 17       		.byte	0x17
 6654 07e1 25       		.byte	0x25
 6655 07e2 21       		.byte	0x21
 6656 07e3 27       		.byte	0x27
 6657 07e4 77       		.byte	0x77
 6658 07e5 00       		.sleb128 0
 6659 07e6 49       		.byte	0x49
 6660 07e7 14       		.byte	0x14
 6661 07e8 14       		.byte	0x14
 6662 07e9 1F       		.byte	0x1f
 6663 07ea 23       		.byte	0x23
 6664 07eb 20       		.uleb128 0x20
 6665 07ec 24       		.byte	0x24
 6666 07ed 17       		.byte	0x17
 6667 07ee 25       		.byte	0x25
 6668 07ef 21       		.byte	0x21
 6669 07f0 27       		.byte	0x27
 6670 07f1 22       		.byte	0x22
 6671 07f2 7A       		.byte	0x7a
 6672 07f3 02       		.sleb128 2
 6673 07f4 32       		.byte	0x32
 6674 07f5 24       		.byte	0x24
 6675 07f6 72       		.byte	0x72
 6676 07f7 00       		.sleb128 0
 6677 07f8 22       		.byte	0x22
 6678 07f9 23       		.byte	0x23
 6679 07fa 20       		.uleb128 0x20
 6680 07fb 06       		.byte	0x6
 6681 07fc 22       		.byte	0x22
 6682 07fd 91       		.byte	0x91
 6683 07fe CC7D     		.sleb128 -308
 6684 0800 06       		.byte	0x6
 6685 0801 22       		.byte	0x22
 6686 0802 7A       		.byte	0x7a
 6687 0803 02       		.sleb128 2
 6688 0804 32       		.byte	0x32
 6689 0805 24       		.byte	0x24
 6690 0806 7C       		.byte	0x7c
 6691 0807 00       		.sleb128 0
 6692 0808 22       		.byte	0x22
 6693 0809 06       		.byte	0x6
 6694 080a 22       		.byte	0x22
 6695 080b 9F       		.byte	0x9f
 6696 080c 16020000 		.4byte	.LVL59
 6697 0810 18020000 		.4byte	.LVL60
ARM GAS  C:\Users\Phuong\AppData\Local\Temp\ccuEFeTd.s 			page 129


 6698 0814 5300     		.2byte	0x53
 6699 0816 91       		.byte	0x91
 6700 0817 C87D     		.sleb128 -312
 6701 0819 06       		.byte	0x6
 6702 081a 91       		.byte	0x91
 6703 081b 8C7D     		.sleb128 -372
 6704 081d 06       		.byte	0x6
 6705 081e 27       		.byte	0x27
 6706 081f 77       		.byte	0x77
 6707 0820 00       		.sleb128 0
 6708 0821 1A       		.byte	0x1a
 6709 0822 91       		.byte	0x91
 6710 0823 C87D     		.sleb128 -312
 6711 0825 06       		.byte	0x6
 6712 0826 27       		.byte	0x27
 6713 0827 77       		.byte	0x77
 6714 0828 00       		.sleb128 0
 6715 0829 36       		.byte	0x36
 6716 082a 14       		.byte	0x14
 6717 082b 14       		.byte	0x14
 6718 082c 1F       		.byte	0x1f
 6719 082d 23       		.byte	0x23
 6720 082e 20       		.uleb128 0x20
 6721 082f 24       		.byte	0x24
 6722 0830 17       		.byte	0x17
 6723 0831 25       		.byte	0x25
 6724 0832 21       		.byte	0x21
 6725 0833 77       		.byte	0x77
 6726 0834 00       		.sleb128 0
 6727 0835 3B       		.byte	0x3b
 6728 0836 14       		.byte	0x14
 6729 0837 14       		.byte	0x14
 6730 0838 1F       		.byte	0x1f
 6731 0839 23       		.byte	0x23
 6732 083a 20       		.uleb128 0x20
 6733 083b 24       		.byte	0x24
 6734 083c 17       		.byte	0x17
 6735 083d 25       		.byte	0x25
 6736 083e 21       		.byte	0x21
 6737 083f 27       		.byte	0x27
 6738 0840 77       		.byte	0x77
 6739 0841 00       		.sleb128 0
 6740 0842 49       		.byte	0x49
 6741 0843 14       		.byte	0x14
 6742 0844 14       		.byte	0x14
 6743 0845 1F       		.byte	0x1f
 6744 0846 23       		.byte	0x23
 6745 0847 20       		.uleb128 0x20
 6746 0848 24       		.byte	0x24
 6747 0849 17       		.byte	0x17
 6748 084a 25       		.byte	0x25
 6749 084b 21       		.byte	0x21
 6750 084c 27       		.byte	0x27
 6751 084d 22       		.byte	0x22
 6752 084e 7A       		.byte	0x7a
 6753 084f 02       		.sleb128 2
 6754 0850 32       		.byte	0x32
ARM GAS  C:\Users\Phuong\AppData\Local\Temp\ccuEFeTd.s 			page 130


 6755 0851 24       		.byte	0x24
 6756 0852 72       		.byte	0x72
 6757 0853 00       		.sleb128 0
 6758 0854 22       		.byte	0x22
 6759 0855 73       		.byte	0x73
 6760 0856 00       		.sleb128 0
 6761 0857 22       		.byte	0x22
 6762 0858 06       		.byte	0x6
 6763 0859 22       		.byte	0x22
 6764 085a 91       		.byte	0x91
 6765 085b CC7D     		.sleb128 -308
 6766 085d 06       		.byte	0x6
 6767 085e 22       		.byte	0x22
 6768 085f 7A       		.byte	0x7a
 6769 0860 02       		.sleb128 2
 6770 0861 32       		.byte	0x32
 6771 0862 24       		.byte	0x24
 6772 0863 7C       		.byte	0x7c
 6773 0864 00       		.sleb128 0
 6774 0865 22       		.byte	0x22
 6775 0866 06       		.byte	0x6
 6776 0867 22       		.byte	0x22
 6777 0868 9F       		.byte	0x9f
 6778 0869 18020000 		.4byte	.LVL60
 6779 086d 1A020000 		.4byte	.LVL61
 6780 0871 5000     		.2byte	0x50
 6781 0873 91       		.byte	0x91
 6782 0874 C87D     		.sleb128 -312
 6783 0876 06       		.byte	0x6
 6784 0877 91       		.byte	0x91
 6785 0878 8C7D     		.sleb128 -372
 6786 087a 06       		.byte	0x6
 6787 087b 27       		.byte	0x27
 6788 087c 77       		.byte	0x77
 6789 087d 00       		.sleb128 0
 6790 087e 1A       		.byte	0x1a
 6791 087f 91       		.byte	0x91
 6792 0880 C87D     		.sleb128 -312
 6793 0882 06       		.byte	0x6
 6794 0883 27       		.byte	0x27
 6795 0884 77       		.byte	0x77
 6796 0885 00       		.sleb128 0
 6797 0886 36       		.byte	0x36
 6798 0887 14       		.byte	0x14
 6799 0888 14       		.byte	0x14
 6800 0889 1F       		.byte	0x1f
 6801 088a 23       		.byte	0x23
 6802 088b 20       		.uleb128 0x20
 6803 088c 24       		.byte	0x24
 6804 088d 17       		.byte	0x17
 6805 088e 25       		.byte	0x25
 6806 088f 21       		.byte	0x21
 6807 0890 77       		.byte	0x77
 6808 0891 00       		.sleb128 0
 6809 0892 3B       		.byte	0x3b
 6810 0893 14       		.byte	0x14
 6811 0894 14       		.byte	0x14
ARM GAS  C:\Users\Phuong\AppData\Local\Temp\ccuEFeTd.s 			page 131


 6812 0895 1F       		.byte	0x1f
 6813 0896 23       		.byte	0x23
 6814 0897 20       		.uleb128 0x20
 6815 0898 24       		.byte	0x24
 6816 0899 17       		.byte	0x17
 6817 089a 25       		.byte	0x25
 6818 089b 21       		.byte	0x21
 6819 089c 27       		.byte	0x27
 6820 089d 77       		.byte	0x77
 6821 089e 00       		.sleb128 0
 6822 089f 49       		.byte	0x49
 6823 08a0 14       		.byte	0x14
 6824 08a1 14       		.byte	0x14
 6825 08a2 1F       		.byte	0x1f
 6826 08a3 23       		.byte	0x23
 6827 08a4 20       		.uleb128 0x20
 6828 08a5 24       		.byte	0x24
 6829 08a6 17       		.byte	0x17
 6830 08a7 25       		.byte	0x25
 6831 08a8 21       		.byte	0x21
 6832 08a9 27       		.byte	0x27
 6833 08aa 22       		.byte	0x22
 6834 08ab 7A       		.byte	0x7a
 6835 08ac 02       		.sleb128 2
 6836 08ad 32       		.byte	0x32
 6837 08ae 24       		.byte	0x24
 6838 08af 72       		.byte	0x72
 6839 08b0 00       		.sleb128 0
 6840 08b1 22       		.byte	0x22
 6841 08b2 06       		.byte	0x6
 6842 08b3 22       		.byte	0x22
 6843 08b4 91       		.byte	0x91
 6844 08b5 CC7D     		.sleb128 -308
 6845 08b7 06       		.byte	0x6
 6846 08b8 22       		.byte	0x22
 6847 08b9 7A       		.byte	0x7a
 6848 08ba 02       		.sleb128 2
 6849 08bb 32       		.byte	0x32
 6850 08bc 24       		.byte	0x24
 6851 08bd 7C       		.byte	0x7c
 6852 08be 00       		.sleb128 0
 6853 08bf 22       		.byte	0x22
 6854 08c0 06       		.byte	0x6
 6855 08c1 22       		.byte	0x22
 6856 08c2 9F       		.byte	0x9f
 6857 08c3 1A020000 		.4byte	.LVL61
 6858 08c7 1E020000 		.4byte	.LVL62
 6859 08cb 5700     		.2byte	0x57
 6860 08cd 91       		.byte	0x91
 6861 08ce C87D     		.sleb128 -312
 6862 08d0 06       		.byte	0x6
 6863 08d1 91       		.byte	0x91
 6864 08d2 8C7D     		.sleb128 -372
 6865 08d4 06       		.byte	0x6
 6866 08d5 27       		.byte	0x27
 6867 08d6 77       		.byte	0x77
 6868 08d7 00       		.sleb128 0
ARM GAS  C:\Users\Phuong\AppData\Local\Temp\ccuEFeTd.s 			page 132


 6869 08d8 1A       		.byte	0x1a
 6870 08d9 91       		.byte	0x91
 6871 08da C87D     		.sleb128 -312
 6872 08dc 06       		.byte	0x6
 6873 08dd 27       		.byte	0x27
 6874 08de 77       		.byte	0x77
 6875 08df 00       		.sleb128 0
 6876 08e0 36       		.byte	0x36
 6877 08e1 14       		.byte	0x14
 6878 08e2 14       		.byte	0x14
 6879 08e3 1F       		.byte	0x1f
 6880 08e4 23       		.byte	0x23
 6881 08e5 20       		.uleb128 0x20
 6882 08e6 24       		.byte	0x24
 6883 08e7 17       		.byte	0x17
 6884 08e8 25       		.byte	0x25
 6885 08e9 21       		.byte	0x21
 6886 08ea 77       		.byte	0x77
 6887 08eb 00       		.sleb128 0
 6888 08ec 3B       		.byte	0x3b
 6889 08ed 14       		.byte	0x14
 6890 08ee 14       		.byte	0x14
 6891 08ef 1F       		.byte	0x1f
 6892 08f0 23       		.byte	0x23
 6893 08f1 20       		.uleb128 0x20
 6894 08f2 24       		.byte	0x24
 6895 08f3 17       		.byte	0x17
 6896 08f4 25       		.byte	0x25
 6897 08f5 21       		.byte	0x21
 6898 08f6 27       		.byte	0x27
 6899 08f7 77       		.byte	0x77
 6900 08f8 00       		.sleb128 0
 6901 08f9 49       		.byte	0x49
 6902 08fa 14       		.byte	0x14
 6903 08fb 14       		.byte	0x14
 6904 08fc 1F       		.byte	0x1f
 6905 08fd 23       		.byte	0x23
 6906 08fe 20       		.uleb128 0x20
 6907 08ff 24       		.byte	0x24
 6908 0900 17       		.byte	0x17
 6909 0901 25       		.byte	0x25
 6910 0902 21       		.byte	0x21
 6911 0903 27       		.byte	0x27
 6912 0904 22       		.byte	0x22
 6913 0905 7A       		.byte	0x7a
 6914 0906 02       		.sleb128 2
 6915 0907 32       		.byte	0x32
 6916 0908 24       		.byte	0x24
 6917 0909 91       		.byte	0x91
 6918 090a 00       		.sleb128 0
 6919 090b 22       		.byte	0x22
 6920 090c 73       		.byte	0x73
 6921 090d 00       		.sleb128 0
 6922 090e 22       		.byte	0x22
 6923 090f 0A       		.byte	0xa
 6924 0910 4801     		.2byte	0x148
 6925 0912 1C       		.byte	0x1c
ARM GAS  C:\Users\Phuong\AppData\Local\Temp\ccuEFeTd.s 			page 133


 6926 0913 06       		.byte	0x6
 6927 0914 22       		.byte	0x22
 6928 0915 91       		.byte	0x91
 6929 0916 CC7D     		.sleb128 -308
 6930 0918 06       		.byte	0x6
 6931 0919 22       		.byte	0x22
 6932 091a 7A       		.byte	0x7a
 6933 091b 02       		.sleb128 2
 6934 091c 32       		.byte	0x32
 6935 091d 24       		.byte	0x24
 6936 091e 7C       		.byte	0x7c
 6937 091f 00       		.sleb128 0
 6938 0920 22       		.byte	0x22
 6939 0921 06       		.byte	0x6
 6940 0922 22       		.byte	0x22
 6941 0923 9F       		.byte	0x9f
 6942 0924 1E020000 		.4byte	.LVL62
 6943 0928 5E020000 		.4byte	.LVL69
 6944 092c 0100     		.2byte	0x1
 6945 092e 58       		.byte	0x58
 6946 092f 5E020000 		.4byte	.LVL69
 6947 0933 62020000 		.4byte	.LVL70
 6948 0937 4F00     		.2byte	0x4f
 6949 0939 91       		.byte	0x91
 6950 093a 8C7D     		.sleb128 -372
 6951 093c 06       		.byte	0x6
 6952 093d 77       		.byte	0x77
 6953 093e 00       		.sleb128 0
 6954 093f 27       		.byte	0x27
 6955 0940 76       		.byte	0x76
 6956 0941 00       		.sleb128 0
 6957 0942 1A       		.byte	0x1a
 6958 0943 91       		.byte	0x91
 6959 0944 8C7D     		.sleb128 -372
 6960 0946 06       		.byte	0x6
 6961 0947 27       		.byte	0x27
 6962 0948 76       		.byte	0x76
 6963 0949 00       		.sleb128 0
 6964 094a 36       		.byte	0x36
 6965 094b 14       		.byte	0x14
 6966 094c 14       		.byte	0x14
 6967 094d 1F       		.byte	0x1f
 6968 094e 23       		.byte	0x23
 6969 094f 20       		.uleb128 0x20
 6970 0950 24       		.byte	0x24
 6971 0951 17       		.byte	0x17
 6972 0952 25       		.byte	0x25
 6973 0953 21       		.byte	0x21
 6974 0954 76       		.byte	0x76
 6975 0955 00       		.sleb128 0
 6976 0956 73       		.byte	0x73
 6977 0957 00       		.sleb128 0
 6978 0958 14       		.byte	0x14
 6979 0959 14       		.byte	0x14
 6980 095a 1F       		.byte	0x1f
 6981 095b 23       		.byte	0x23
 6982 095c 20       		.uleb128 0x20
ARM GAS  C:\Users\Phuong\AppData\Local\Temp\ccuEFeTd.s 			page 134


 6983 095d 24       		.byte	0x24
 6984 095e 17       		.byte	0x17
 6985 095f 25       		.byte	0x25
 6986 0960 21       		.byte	0x21
 6987 0961 27       		.byte	0x27
 6988 0962 76       		.byte	0x76
 6989 0963 00       		.sleb128 0
 6990 0964 49       		.byte	0x49
 6991 0965 14       		.byte	0x14
 6992 0966 14       		.byte	0x14
 6993 0967 1F       		.byte	0x1f
 6994 0968 23       		.byte	0x23
 6995 0969 20       		.uleb128 0x20
 6996 096a 24       		.byte	0x24
 6997 096b 17       		.byte	0x17
 6998 096c 25       		.byte	0x25
 6999 096d 21       		.byte	0x21
 7000 096e 27       		.byte	0x27
 7001 096f 22       		.byte	0x22
 7002 0970 91       		.byte	0x91
 7003 0971 00       		.sleb128 0
 7004 0972 7B       		.byte	0x7b
 7005 0973 00       		.sleb128 0
 7006 0974 22       		.byte	0x22
 7007 0975 0A       		.byte	0xa
 7008 0976 2801     		.2byte	0x128
 7009 0978 1C       		.byte	0x1c
 7010 0979 06       		.byte	0x6
 7011 097a 22       		.byte	0x22
 7012 097b 91       		.byte	0x91
 7013 097c C87D     		.sleb128 -312
 7014 097e 06       		.byte	0x6
 7015 097f 22       		.byte	0x22
 7016 0980 7C       		.byte	0x7c
 7017 0981 00       		.sleb128 0
 7018 0982 7B       		.byte	0x7b
 7019 0983 00       		.sleb128 0
 7020 0984 22       		.byte	0x22
 7021 0985 06       		.byte	0x6
 7022 0986 22       		.byte	0x22
 7023 0987 9F       		.byte	0x9f
 7024 0988 62020000 		.4byte	.LVL70
 7025 098c 6A020000 		.4byte	.LVL71
 7026 0990 4E00     		.2byte	0x4e
 7027 0992 91       		.byte	0x91
 7028 0993 8C7D     		.sleb128 -372
 7029 0995 06       		.byte	0x6
 7030 0996 77       		.byte	0x77
 7031 0997 00       		.sleb128 0
 7032 0998 27       		.byte	0x27
 7033 0999 76       		.byte	0x76
 7034 099a 00       		.sleb128 0
 7035 099b 1A       		.byte	0x1a
 7036 099c 91       		.byte	0x91
 7037 099d 8C7D     		.sleb128 -372
 7038 099f 06       		.byte	0x6
 7039 09a0 27       		.byte	0x27
ARM GAS  C:\Users\Phuong\AppData\Local\Temp\ccuEFeTd.s 			page 135


 7040 09a1 76       		.byte	0x76
 7041 09a2 00       		.sleb128 0
 7042 09a3 36       		.byte	0x36
 7043 09a4 14       		.byte	0x14
 7044 09a5 14       		.byte	0x14
 7045 09a6 1F       		.byte	0x1f
 7046 09a7 23       		.byte	0x23
 7047 09a8 20       		.uleb128 0x20
 7048 09a9 24       		.byte	0x24
 7049 09aa 17       		.byte	0x17
 7050 09ab 25       		.byte	0x25
 7051 09ac 21       		.byte	0x21
 7052 09ad 76       		.byte	0x76
 7053 09ae 00       		.sleb128 0
 7054 09af 3B       		.byte	0x3b
 7055 09b0 14       		.byte	0x14
 7056 09b1 14       		.byte	0x14
 7057 09b2 1F       		.byte	0x1f
 7058 09b3 23       		.byte	0x23
 7059 09b4 20       		.uleb128 0x20
 7060 09b5 24       		.byte	0x24
 7061 09b6 17       		.byte	0x17
 7062 09b7 25       		.byte	0x25
 7063 09b8 21       		.byte	0x21
 7064 09b9 27       		.byte	0x27
 7065 09ba 76       		.byte	0x76
 7066 09bb 00       		.sleb128 0
 7067 09bc 49       		.byte	0x49
 7068 09bd 14       		.byte	0x14
 7069 09be 14       		.byte	0x14
 7070 09bf 1F       		.byte	0x1f
 7071 09c0 23       		.byte	0x23
 7072 09c1 20       		.uleb128 0x20
 7073 09c2 24       		.byte	0x24
 7074 09c3 17       		.byte	0x17
 7075 09c4 25       		.byte	0x25
 7076 09c5 21       		.byte	0x21
 7077 09c6 27       		.byte	0x27
 7078 09c7 22       		.byte	0x22
 7079 09c8 91       		.byte	0x91
 7080 09c9 00       		.sleb128 0
 7081 09ca 7B       		.byte	0x7b
 7082 09cb 00       		.sleb128 0
 7083 09cc 22       		.byte	0x22
 7084 09cd 0A       		.byte	0xa
 7085 09ce 2801     		.2byte	0x128
 7086 09d0 1C       		.byte	0x1c
 7087 09d1 06       		.byte	0x6
 7088 09d2 22       		.byte	0x22
 7089 09d3 91       		.byte	0x91
 7090 09d4 C87D     		.sleb128 -312
 7091 09d6 06       		.byte	0x6
 7092 09d7 22       		.byte	0x22
 7093 09d8 7C       		.byte	0x7c
 7094 09d9 00       		.sleb128 0
 7095 09da 7B       		.byte	0x7b
 7096 09db 00       		.sleb128 0
ARM GAS  C:\Users\Phuong\AppData\Local\Temp\ccuEFeTd.s 			page 136


 7097 09dc 22       		.byte	0x22
 7098 09dd 06       		.byte	0x6
 7099 09de 22       		.byte	0x22
 7100 09df 9F       		.byte	0x9f
 7101 09e0 6A020000 		.4byte	.LVL71
 7102 09e4 72020000 		.4byte	.LVL72
 7103 09e8 4F00     		.2byte	0x4f
 7104 09ea 91       		.byte	0x91
 7105 09eb 8C7D     		.sleb128 -372
 7106 09ed 06       		.byte	0x6
 7107 09ee 77       		.byte	0x77
 7108 09ef 00       		.sleb128 0
 7109 09f0 27       		.byte	0x27
 7110 09f1 76       		.byte	0x76
 7111 09f2 00       		.sleb128 0
 7112 09f3 1A       		.byte	0x1a
 7113 09f4 91       		.byte	0x91
 7114 09f5 8C7D     		.sleb128 -372
 7115 09f7 06       		.byte	0x6
 7116 09f8 27       		.byte	0x27
 7117 09f9 76       		.byte	0x76
 7118 09fa 00       		.sleb128 0
 7119 09fb 36       		.byte	0x36
 7120 09fc 14       		.byte	0x14
 7121 09fd 14       		.byte	0x14
 7122 09fe 1F       		.byte	0x1f
 7123 09ff 23       		.byte	0x23
 7124 0a00 20       		.uleb128 0x20
 7125 0a01 24       		.byte	0x24
 7126 0a02 17       		.byte	0x17
 7127 0a03 25       		.byte	0x25
 7128 0a04 21       		.byte	0x21
 7129 0a05 76       		.byte	0x76
 7130 0a06 00       		.sleb128 0
 7131 0a07 3B       		.byte	0x3b
 7132 0a08 14       		.byte	0x14
 7133 0a09 14       		.byte	0x14
 7134 0a0a 1F       		.byte	0x1f
 7135 0a0b 23       		.byte	0x23
 7136 0a0c 20       		.uleb128 0x20
 7137 0a0d 24       		.byte	0x24
 7138 0a0e 17       		.byte	0x17
 7139 0a0f 25       		.byte	0x25
 7140 0a10 21       		.byte	0x21
 7141 0a11 27       		.byte	0x27
 7142 0a12 76       		.byte	0x76
 7143 0a13 00       		.sleb128 0
 7144 0a14 73       		.byte	0x73
 7145 0a15 00       		.sleb128 0
 7146 0a16 14       		.byte	0x14
 7147 0a17 14       		.byte	0x14
 7148 0a18 1F       		.byte	0x1f
 7149 0a19 23       		.byte	0x23
 7150 0a1a 20       		.uleb128 0x20
 7151 0a1b 24       		.byte	0x24
 7152 0a1c 17       		.byte	0x17
 7153 0a1d 25       		.byte	0x25
ARM GAS  C:\Users\Phuong\AppData\Local\Temp\ccuEFeTd.s 			page 137


 7154 0a1e 21       		.byte	0x21
 7155 0a1f 27       		.byte	0x27
 7156 0a20 22       		.byte	0x22
 7157 0a21 91       		.byte	0x91
 7158 0a22 00       		.sleb128 0
 7159 0a23 7B       		.byte	0x7b
 7160 0a24 00       		.sleb128 0
 7161 0a25 22       		.byte	0x22
 7162 0a26 0A       		.byte	0xa
 7163 0a27 2801     		.2byte	0x128
 7164 0a29 1C       		.byte	0x1c
 7165 0a2a 06       		.byte	0x6
 7166 0a2b 22       		.byte	0x22
 7167 0a2c 91       		.byte	0x91
 7168 0a2d C87D     		.sleb128 -312
 7169 0a2f 06       		.byte	0x6
 7170 0a30 22       		.byte	0x22
 7171 0a31 7C       		.byte	0x7c
 7172 0a32 00       		.sleb128 0
 7173 0a33 7B       		.byte	0x7b
 7174 0a34 00       		.sleb128 0
 7175 0a35 22       		.byte	0x22
 7176 0a36 06       		.byte	0x6
 7177 0a37 22       		.byte	0x22
 7178 0a38 9F       		.byte	0x9f
 7179 0a39 72020000 		.4byte	.LVL72
 7180 0a3d 82020000 		.4byte	.LVL74
 7181 0a41 4E00     		.2byte	0x4e
 7182 0a43 91       		.byte	0x91
 7183 0a44 8C7D     		.sleb128 -372
 7184 0a46 06       		.byte	0x6
 7185 0a47 77       		.byte	0x77
 7186 0a48 00       		.sleb128 0
 7187 0a49 27       		.byte	0x27
 7188 0a4a 76       		.byte	0x76
 7189 0a4b 00       		.sleb128 0
 7190 0a4c 1A       		.byte	0x1a
 7191 0a4d 91       		.byte	0x91
 7192 0a4e 8C7D     		.sleb128 -372
 7193 0a50 06       		.byte	0x6
 7194 0a51 27       		.byte	0x27
 7195 0a52 76       		.byte	0x76
 7196 0a53 00       		.sleb128 0
 7197 0a54 36       		.byte	0x36
 7198 0a55 14       		.byte	0x14
 7199 0a56 14       		.byte	0x14
 7200 0a57 1F       		.byte	0x1f
 7201 0a58 23       		.byte	0x23
 7202 0a59 20       		.uleb128 0x20
 7203 0a5a 24       		.byte	0x24
 7204 0a5b 17       		.byte	0x17
 7205 0a5c 25       		.byte	0x25
 7206 0a5d 21       		.byte	0x21
 7207 0a5e 76       		.byte	0x76
 7208 0a5f 00       		.sleb128 0
 7209 0a60 3B       		.byte	0x3b
 7210 0a61 14       		.byte	0x14
ARM GAS  C:\Users\Phuong\AppData\Local\Temp\ccuEFeTd.s 			page 138


 7211 0a62 14       		.byte	0x14
 7212 0a63 1F       		.byte	0x1f
 7213 0a64 23       		.byte	0x23
 7214 0a65 20       		.uleb128 0x20
 7215 0a66 24       		.byte	0x24
 7216 0a67 17       		.byte	0x17
 7217 0a68 25       		.byte	0x25
 7218 0a69 21       		.byte	0x21
 7219 0a6a 27       		.byte	0x27
 7220 0a6b 76       		.byte	0x76
 7221 0a6c 00       		.sleb128 0
 7222 0a6d 49       		.byte	0x49
 7223 0a6e 14       		.byte	0x14
 7224 0a6f 14       		.byte	0x14
 7225 0a70 1F       		.byte	0x1f
 7226 0a71 23       		.byte	0x23
 7227 0a72 20       		.uleb128 0x20
 7228 0a73 24       		.byte	0x24
 7229 0a74 17       		.byte	0x17
 7230 0a75 25       		.byte	0x25
 7231 0a76 21       		.byte	0x21
 7232 0a77 27       		.byte	0x27
 7233 0a78 22       		.byte	0x22
 7234 0a79 91       		.byte	0x91
 7235 0a7a 00       		.sleb128 0
 7236 0a7b 7B       		.byte	0x7b
 7237 0a7c 00       		.sleb128 0
 7238 0a7d 22       		.byte	0x22
 7239 0a7e 0A       		.byte	0xa
 7240 0a7f 2801     		.2byte	0x128
 7241 0a81 1C       		.byte	0x1c
 7242 0a82 06       		.byte	0x6
 7243 0a83 22       		.byte	0x22
 7244 0a84 91       		.byte	0x91
 7245 0a85 C87D     		.sleb128 -312
 7246 0a87 06       		.byte	0x6
 7247 0a88 22       		.byte	0x22
 7248 0a89 7C       		.byte	0x7c
 7249 0a8a 00       		.sleb128 0
 7250 0a8b 7B       		.byte	0x7b
 7251 0a8c 00       		.sleb128 0
 7252 0a8d 22       		.byte	0x22
 7253 0a8e 06       		.byte	0x6
 7254 0a8f 22       		.byte	0x22
 7255 0a90 9F       		.byte	0x9f
 7256 0a91 82020000 		.4byte	.LVL74
 7257 0a95 8A020000 		.4byte	.LVL75
 7258 0a99 4A00     		.2byte	0x4a
 7259 0a9b 72       		.byte	0x72
 7260 0a9c 00       		.sleb128 0
 7261 0a9d 77       		.byte	0x77
 7262 0a9e 00       		.sleb128 0
 7263 0a9f 27       		.byte	0x27
 7264 0aa0 76       		.byte	0x76
 7265 0aa1 00       		.sleb128 0
 7266 0aa2 1A       		.byte	0x1a
 7267 0aa3 72       		.byte	0x72
ARM GAS  C:\Users\Phuong\AppData\Local\Temp\ccuEFeTd.s 			page 139


 7268 0aa4 00       		.sleb128 0
 7269 0aa5 27       		.byte	0x27
 7270 0aa6 76       		.byte	0x76
 7271 0aa7 00       		.sleb128 0
 7272 0aa8 36       		.byte	0x36
 7273 0aa9 14       		.byte	0x14
 7274 0aaa 14       		.byte	0x14
 7275 0aab 1F       		.byte	0x1f
 7276 0aac 23       		.byte	0x23
 7277 0aad 20       		.uleb128 0x20
 7278 0aae 24       		.byte	0x24
 7279 0aaf 17       		.byte	0x17
 7280 0ab0 25       		.byte	0x25
 7281 0ab1 21       		.byte	0x21
 7282 0ab2 76       		.byte	0x76
 7283 0ab3 00       		.sleb128 0
 7284 0ab4 3B       		.byte	0x3b
 7285 0ab5 14       		.byte	0x14
 7286 0ab6 14       		.byte	0x14
 7287 0ab7 1F       		.byte	0x1f
 7288 0ab8 23       		.byte	0x23
 7289 0ab9 20       		.uleb128 0x20
 7290 0aba 24       		.byte	0x24
 7291 0abb 17       		.byte	0x17
 7292 0abc 25       		.byte	0x25
 7293 0abd 21       		.byte	0x21
 7294 0abe 27       		.byte	0x27
 7295 0abf 76       		.byte	0x76
 7296 0ac0 00       		.sleb128 0
 7297 0ac1 49       		.byte	0x49
 7298 0ac2 14       		.byte	0x14
 7299 0ac3 14       		.byte	0x14
 7300 0ac4 1F       		.byte	0x1f
 7301 0ac5 23       		.byte	0x23
 7302 0ac6 20       		.uleb128 0x20
 7303 0ac7 24       		.byte	0x24
 7304 0ac8 17       		.byte	0x17
 7305 0ac9 25       		.byte	0x25
 7306 0aca 21       		.byte	0x21
 7307 0acb 27       		.byte	0x27
 7308 0acc 22       		.byte	0x22
 7309 0acd 91       		.byte	0x91
 7310 0ace 00       		.sleb128 0
 7311 0acf 7B       		.byte	0x7b
 7312 0ad0 00       		.sleb128 0
 7313 0ad1 22       		.byte	0x22
 7314 0ad2 0A       		.byte	0xa
 7315 0ad3 2801     		.2byte	0x128
 7316 0ad5 1C       		.byte	0x1c
 7317 0ad6 06       		.byte	0x6
 7318 0ad7 22       		.byte	0x22
 7319 0ad8 91       		.byte	0x91
 7320 0ad9 C87D     		.sleb128 -312
 7321 0adb 06       		.byte	0x6
 7322 0adc 22       		.byte	0x22
 7323 0add 7C       		.byte	0x7c
 7324 0ade 00       		.sleb128 0
ARM GAS  C:\Users\Phuong\AppData\Local\Temp\ccuEFeTd.s 			page 140


 7325 0adf 7B       		.byte	0x7b
 7326 0ae0 00       		.sleb128 0
 7327 0ae1 22       		.byte	0x22
 7328 0ae2 06       		.byte	0x6
 7329 0ae3 22       		.byte	0x22
 7330 0ae4 9F       		.byte	0x9f
 7331 0ae5 8A020000 		.4byte	.LVL75
 7332 0ae9 90020000 		.4byte	.LVL76
 7333 0aed 4A00     		.2byte	0x4a
 7334 0aef 79       		.byte	0x79
 7335 0af0 00       		.sleb128 0
 7336 0af1 77       		.byte	0x77
 7337 0af2 00       		.sleb128 0
 7338 0af3 27       		.byte	0x27
 7339 0af4 76       		.byte	0x76
 7340 0af5 00       		.sleb128 0
 7341 0af6 1A       		.byte	0x1a
 7342 0af7 79       		.byte	0x79
 7343 0af8 00       		.sleb128 0
 7344 0af9 27       		.byte	0x27
 7345 0afa 76       		.byte	0x76
 7346 0afb 00       		.sleb128 0
 7347 0afc 36       		.byte	0x36
 7348 0afd 14       		.byte	0x14
 7349 0afe 14       		.byte	0x14
 7350 0aff 1F       		.byte	0x1f
 7351 0b00 23       		.byte	0x23
 7352 0b01 20       		.uleb128 0x20
 7353 0b02 24       		.byte	0x24
 7354 0b03 17       		.byte	0x17
 7355 0b04 25       		.byte	0x25
 7356 0b05 21       		.byte	0x21
 7357 0b06 76       		.byte	0x76
 7358 0b07 00       		.sleb128 0
 7359 0b08 3B       		.byte	0x3b
 7360 0b09 14       		.byte	0x14
 7361 0b0a 14       		.byte	0x14
 7362 0b0b 1F       		.byte	0x1f
 7363 0b0c 23       		.byte	0x23
 7364 0b0d 20       		.uleb128 0x20
 7365 0b0e 24       		.byte	0x24
 7366 0b0f 17       		.byte	0x17
 7367 0b10 25       		.byte	0x25
 7368 0b11 21       		.byte	0x21
 7369 0b12 27       		.byte	0x27
 7370 0b13 76       		.byte	0x76
 7371 0b14 00       		.sleb128 0
 7372 0b15 49       		.byte	0x49
 7373 0b16 14       		.byte	0x14
 7374 0b17 14       		.byte	0x14
 7375 0b18 1F       		.byte	0x1f
 7376 0b19 23       		.byte	0x23
 7377 0b1a 20       		.uleb128 0x20
 7378 0b1b 24       		.byte	0x24
 7379 0b1c 17       		.byte	0x17
 7380 0b1d 25       		.byte	0x25
 7381 0b1e 21       		.byte	0x21
ARM GAS  C:\Users\Phuong\AppData\Local\Temp\ccuEFeTd.s 			page 141


 7382 0b1f 27       		.byte	0x27
 7383 0b20 22       		.byte	0x22
 7384 0b21 91       		.byte	0x91
 7385 0b22 00       		.sleb128 0
 7386 0b23 7B       		.byte	0x7b
 7387 0b24 00       		.sleb128 0
 7388 0b25 22       		.byte	0x22
 7389 0b26 0A       		.byte	0xa
 7390 0b27 2801     		.2byte	0x128
 7391 0b29 1C       		.byte	0x1c
 7392 0b2a 06       		.byte	0x6
 7393 0b2b 22       		.byte	0x22
 7394 0b2c 91       		.byte	0x91
 7395 0b2d C87D     		.sleb128 -312
 7396 0b2f 06       		.byte	0x6
 7397 0b30 22       		.byte	0x22
 7398 0b31 7C       		.byte	0x7c
 7399 0b32 00       		.sleb128 0
 7400 0b33 7B       		.byte	0x7b
 7401 0b34 00       		.sleb128 0
 7402 0b35 22       		.byte	0x22
 7403 0b36 06       		.byte	0x6
 7404 0b37 22       		.byte	0x22
 7405 0b38 9F       		.byte	0x9f
 7406 0b39 90020000 		.4byte	.LVL76
 7407 0b3d 9C020000 		.4byte	.LVL77
 7408 0b41 4E00     		.2byte	0x4e
 7409 0b43 79       		.byte	0x79
 7410 0b44 00       		.sleb128 0
 7411 0b45 77       		.byte	0x77
 7412 0b46 00       		.sleb128 0
 7413 0b47 27       		.byte	0x27
 7414 0b48 76       		.byte	0x76
 7415 0b49 00       		.sleb128 0
 7416 0b4a 1A       		.byte	0x1a
 7417 0b4b 79       		.byte	0x79
 7418 0b4c 00       		.sleb128 0
 7419 0b4d 27       		.byte	0x27
 7420 0b4e 76       		.byte	0x76
 7421 0b4f 00       		.sleb128 0
 7422 0b50 36       		.byte	0x36
 7423 0b51 14       		.byte	0x14
 7424 0b52 14       		.byte	0x14
 7425 0b53 1F       		.byte	0x1f
 7426 0b54 23       		.byte	0x23
 7427 0b55 20       		.uleb128 0x20
 7428 0b56 24       		.byte	0x24
 7429 0b57 17       		.byte	0x17
 7430 0b58 25       		.byte	0x25
 7431 0b59 21       		.byte	0x21
 7432 0b5a 76       		.byte	0x76
 7433 0b5b 00       		.sleb128 0
 7434 0b5c 3B       		.byte	0x3b
 7435 0b5d 14       		.byte	0x14
 7436 0b5e 14       		.byte	0x14
 7437 0b5f 1F       		.byte	0x1f
 7438 0b60 23       		.byte	0x23
ARM GAS  C:\Users\Phuong\AppData\Local\Temp\ccuEFeTd.s 			page 142


 7439 0b61 20       		.uleb128 0x20
 7440 0b62 24       		.byte	0x24
 7441 0b63 17       		.byte	0x17
 7442 0b64 25       		.byte	0x25
 7443 0b65 21       		.byte	0x21
 7444 0b66 27       		.byte	0x27
 7445 0b67 76       		.byte	0x76
 7446 0b68 00       		.sleb128 0
 7447 0b69 49       		.byte	0x49
 7448 0b6a 14       		.byte	0x14
 7449 0b6b 14       		.byte	0x14
 7450 0b6c 1F       		.byte	0x1f
 7451 0b6d 23       		.byte	0x23
 7452 0b6e 20       		.uleb128 0x20
 7453 0b6f 24       		.byte	0x24
 7454 0b70 17       		.byte	0x17
 7455 0b71 25       		.byte	0x25
 7456 0b72 21       		.byte	0x21
 7457 0b73 27       		.byte	0x27
 7458 0b74 22       		.byte	0x22
 7459 0b75 7A       		.byte	0x7a
 7460 0b76 03       		.sleb128 3
 7461 0b77 32       		.byte	0x32
 7462 0b78 24       		.byte	0x24
 7463 0b79 91       		.byte	0x91
 7464 0b7a 00       		.sleb128 0
 7465 0b7b 22       		.byte	0x22
 7466 0b7c 0A       		.byte	0xa
 7467 0b7d 2801     		.2byte	0x128
 7468 0b7f 1C       		.byte	0x1c
 7469 0b80 06       		.byte	0x6
 7470 0b81 22       		.byte	0x22
 7471 0b82 91       		.byte	0x91
 7472 0b83 C87D     		.sleb128 -312
 7473 0b85 06       		.byte	0x6
 7474 0b86 22       		.byte	0x22
 7475 0b87 7A       		.byte	0x7a
 7476 0b88 03       		.sleb128 3
 7477 0b89 32       		.byte	0x32
 7478 0b8a 24       		.byte	0x24
 7479 0b8b 7C       		.byte	0x7c
 7480 0b8c 00       		.sleb128 0
 7481 0b8d 22       		.byte	0x22
 7482 0b8e 06       		.byte	0x6
 7483 0b8f 22       		.byte	0x22
 7484 0b90 9F       		.byte	0x9f
 7485 0b91 9C020000 		.4byte	.LVL77
 7486 0b95 9E020000 		.4byte	.LVL78
 7487 0b99 4C00     		.2byte	0x4c
 7488 0b9b 79       		.byte	0x79
 7489 0b9c 00       		.sleb128 0
 7490 0b9d 77       		.byte	0x77
 7491 0b9e 00       		.sleb128 0
 7492 0b9f 27       		.byte	0x27
 7493 0ba0 76       		.byte	0x76
 7494 0ba1 00       		.sleb128 0
 7495 0ba2 1A       		.byte	0x1a
ARM GAS  C:\Users\Phuong\AppData\Local\Temp\ccuEFeTd.s 			page 143


 7496 0ba3 79       		.byte	0x79
 7497 0ba4 00       		.sleb128 0
 7498 0ba5 27       		.byte	0x27
 7499 0ba6 76       		.byte	0x76
 7500 0ba7 00       		.sleb128 0
 7501 0ba8 36       		.byte	0x36
 7502 0ba9 14       		.byte	0x14
 7503 0baa 14       		.byte	0x14
 7504 0bab 1F       		.byte	0x1f
 7505 0bac 23       		.byte	0x23
 7506 0bad 20       		.uleb128 0x20
 7507 0bae 24       		.byte	0x24
 7508 0baf 17       		.byte	0x17
 7509 0bb0 25       		.byte	0x25
 7510 0bb1 21       		.byte	0x21
 7511 0bb2 76       		.byte	0x76
 7512 0bb3 00       		.sleb128 0
 7513 0bb4 3B       		.byte	0x3b
 7514 0bb5 14       		.byte	0x14
 7515 0bb6 14       		.byte	0x14
 7516 0bb7 1F       		.byte	0x1f
 7517 0bb8 23       		.byte	0x23
 7518 0bb9 20       		.uleb128 0x20
 7519 0bba 24       		.byte	0x24
 7520 0bbb 17       		.byte	0x17
 7521 0bbc 25       		.byte	0x25
 7522 0bbd 21       		.byte	0x21
 7523 0bbe 27       		.byte	0x27
 7524 0bbf 76       		.byte	0x76
 7525 0bc0 00       		.sleb128 0
 7526 0bc1 49       		.byte	0x49
 7527 0bc2 14       		.byte	0x14
 7528 0bc3 14       		.byte	0x14
 7529 0bc4 1F       		.byte	0x1f
 7530 0bc5 23       		.byte	0x23
 7531 0bc6 20       		.uleb128 0x20
 7532 0bc7 24       		.byte	0x24
 7533 0bc8 17       		.byte	0x17
 7534 0bc9 25       		.byte	0x25
 7535 0bca 21       		.byte	0x21
 7536 0bcb 27       		.byte	0x27
 7537 0bcc 22       		.byte	0x22
 7538 0bcd 7A       		.byte	0x7a
 7539 0bce 03       		.sleb128 3
 7540 0bcf 32       		.byte	0x32
 7541 0bd0 24       		.byte	0x24
 7542 0bd1 73       		.byte	0x73
 7543 0bd2 00       		.sleb128 0
 7544 0bd3 22       		.byte	0x22
 7545 0bd4 23       		.byte	0x23
 7546 0bd5 20       		.uleb128 0x20
 7547 0bd6 06       		.byte	0x6
 7548 0bd7 22       		.byte	0x22
 7549 0bd8 91       		.byte	0x91
 7550 0bd9 C87D     		.sleb128 -312
 7551 0bdb 06       		.byte	0x6
 7552 0bdc 22       		.byte	0x22
ARM GAS  C:\Users\Phuong\AppData\Local\Temp\ccuEFeTd.s 			page 144


 7553 0bdd 7A       		.byte	0x7a
 7554 0bde 03       		.sleb128 3
 7555 0bdf 32       		.byte	0x32
 7556 0be0 24       		.byte	0x24
 7557 0be1 7C       		.byte	0x7c
 7558 0be2 00       		.sleb128 0
 7559 0be3 22       		.byte	0x22
 7560 0be4 06       		.byte	0x6
 7561 0be5 22       		.byte	0x22
 7562 0be6 9F       		.byte	0x9f
 7563 0be7 9E020000 		.4byte	.LVL78
 7564 0beb A0020000 		.4byte	.LVL79
 7565 0bef 4D00     		.2byte	0x4d
 7566 0bf1 79       		.byte	0x79
 7567 0bf2 00       		.sleb128 0
 7568 0bf3 77       		.byte	0x77
 7569 0bf4 00       		.sleb128 0
 7570 0bf5 27       		.byte	0x27
 7571 0bf6 76       		.byte	0x76
 7572 0bf7 00       		.sleb128 0
 7573 0bf8 1A       		.byte	0x1a
 7574 0bf9 79       		.byte	0x79
 7575 0bfa 00       		.sleb128 0
 7576 0bfb 27       		.byte	0x27
 7577 0bfc 76       		.byte	0x76
 7578 0bfd 00       		.sleb128 0
 7579 0bfe 36       		.byte	0x36
 7580 0bff 14       		.byte	0x14
 7581 0c00 14       		.byte	0x14
 7582 0c01 1F       		.byte	0x1f
 7583 0c02 23       		.byte	0x23
 7584 0c03 20       		.uleb128 0x20
 7585 0c04 24       		.byte	0x24
 7586 0c05 17       		.byte	0x17
 7587 0c06 25       		.byte	0x25
 7588 0c07 21       		.byte	0x21
 7589 0c08 76       		.byte	0x76
 7590 0c09 00       		.sleb128 0
 7591 0c0a 3B       		.byte	0x3b
 7592 0c0b 14       		.byte	0x14
 7593 0c0c 14       		.byte	0x14
 7594 0c0d 1F       		.byte	0x1f
 7595 0c0e 23       		.byte	0x23
 7596 0c0f 20       		.uleb128 0x20
 7597 0c10 24       		.byte	0x24
 7598 0c11 17       		.byte	0x17
 7599 0c12 25       		.byte	0x25
 7600 0c13 21       		.byte	0x21
 7601 0c14 27       		.byte	0x27
 7602 0c15 76       		.byte	0x76
 7603 0c16 00       		.sleb128 0
 7604 0c17 49       		.byte	0x49
 7605 0c18 14       		.byte	0x14
 7606 0c19 14       		.byte	0x14
 7607 0c1a 1F       		.byte	0x1f
 7608 0c1b 23       		.byte	0x23
 7609 0c1c 20       		.uleb128 0x20
ARM GAS  C:\Users\Phuong\AppData\Local\Temp\ccuEFeTd.s 			page 145


 7610 0c1d 24       		.byte	0x24
 7611 0c1e 17       		.byte	0x17
 7612 0c1f 25       		.byte	0x25
 7613 0c20 21       		.byte	0x21
 7614 0c21 27       		.byte	0x27
 7615 0c22 22       		.byte	0x22
 7616 0c23 7A       		.byte	0x7a
 7617 0c24 03       		.sleb128 3
 7618 0c25 32       		.byte	0x32
 7619 0c26 24       		.byte	0x24
 7620 0c27 73       		.byte	0x73
 7621 0c28 00       		.sleb128 0
 7622 0c29 22       		.byte	0x22
 7623 0c2a 75       		.byte	0x75
 7624 0c2b 00       		.sleb128 0
 7625 0c2c 22       		.byte	0x22
 7626 0c2d 06       		.byte	0x6
 7627 0c2e 22       		.byte	0x22
 7628 0c2f 91       		.byte	0x91
 7629 0c30 C87D     		.sleb128 -312
 7630 0c32 06       		.byte	0x6
 7631 0c33 22       		.byte	0x22
 7632 0c34 7A       		.byte	0x7a
 7633 0c35 03       		.sleb128 3
 7634 0c36 32       		.byte	0x32
 7635 0c37 24       		.byte	0x24
 7636 0c38 7C       		.byte	0x7c
 7637 0c39 00       		.sleb128 0
 7638 0c3a 22       		.byte	0x22
 7639 0c3b 06       		.byte	0x6
 7640 0c3c 22       		.byte	0x22
 7641 0c3d 9F       		.byte	0x9f
 7642 0c3e A0020000 		.4byte	.LVL79
 7643 0c42 A2020000 		.4byte	.LVL80
 7644 0c46 4A00     		.2byte	0x4a
 7645 0c48 79       		.byte	0x79
 7646 0c49 00       		.sleb128 0
 7647 0c4a 77       		.byte	0x77
 7648 0c4b 00       		.sleb128 0
 7649 0c4c 27       		.byte	0x27
 7650 0c4d 76       		.byte	0x76
 7651 0c4e 00       		.sleb128 0
 7652 0c4f 1A       		.byte	0x1a
 7653 0c50 79       		.byte	0x79
 7654 0c51 00       		.sleb128 0
 7655 0c52 27       		.byte	0x27
 7656 0c53 76       		.byte	0x76
 7657 0c54 00       		.sleb128 0
 7658 0c55 36       		.byte	0x36
 7659 0c56 14       		.byte	0x14
 7660 0c57 14       		.byte	0x14
 7661 0c58 1F       		.byte	0x1f
 7662 0c59 23       		.byte	0x23
 7663 0c5a 20       		.uleb128 0x20
 7664 0c5b 24       		.byte	0x24
 7665 0c5c 17       		.byte	0x17
 7666 0c5d 25       		.byte	0x25
ARM GAS  C:\Users\Phuong\AppData\Local\Temp\ccuEFeTd.s 			page 146


 7667 0c5e 21       		.byte	0x21
 7668 0c5f 76       		.byte	0x76
 7669 0c60 00       		.sleb128 0
 7670 0c61 3B       		.byte	0x3b
 7671 0c62 14       		.byte	0x14
 7672 0c63 14       		.byte	0x14
 7673 0c64 1F       		.byte	0x1f
 7674 0c65 23       		.byte	0x23
 7675 0c66 20       		.uleb128 0x20
 7676 0c67 24       		.byte	0x24
 7677 0c68 17       		.byte	0x17
 7678 0c69 25       		.byte	0x25
 7679 0c6a 21       		.byte	0x21
 7680 0c6b 27       		.byte	0x27
 7681 0c6c 76       		.byte	0x76
 7682 0c6d 00       		.sleb128 0
 7683 0c6e 49       		.byte	0x49
 7684 0c6f 14       		.byte	0x14
 7685 0c70 14       		.byte	0x14
 7686 0c71 1F       		.byte	0x1f
 7687 0c72 23       		.byte	0x23
 7688 0c73 20       		.uleb128 0x20
 7689 0c74 24       		.byte	0x24
 7690 0c75 17       		.byte	0x17
 7691 0c76 25       		.byte	0x25
 7692 0c77 21       		.byte	0x21
 7693 0c78 27       		.byte	0x27
 7694 0c79 22       		.byte	0x22
 7695 0c7a 7A       		.byte	0x7a
 7696 0c7b 03       		.sleb128 3
 7697 0c7c 32       		.byte	0x32
 7698 0c7d 24       		.byte	0x24
 7699 0c7e 73       		.byte	0x73
 7700 0c7f 00       		.sleb128 0
 7701 0c80 22       		.byte	0x22
 7702 0c81 06       		.byte	0x6
 7703 0c82 22       		.byte	0x22
 7704 0c83 91       		.byte	0x91
 7705 0c84 C87D     		.sleb128 -312
 7706 0c86 06       		.byte	0x6
 7707 0c87 22       		.byte	0x22
 7708 0c88 7A       		.byte	0x7a
 7709 0c89 03       		.sleb128 3
 7710 0c8a 32       		.byte	0x32
 7711 0c8b 24       		.byte	0x24
 7712 0c8c 7C       		.byte	0x7c
 7713 0c8d 00       		.sleb128 0
 7714 0c8e 22       		.byte	0x22
 7715 0c8f 06       		.byte	0x6
 7716 0c90 22       		.byte	0x22
 7717 0c91 9F       		.byte	0x9f
 7718 0c92 A2020000 		.4byte	.LVL80
 7719 0c96 A6020000 		.4byte	.LVL81
 7720 0c9a 5100     		.2byte	0x51
 7721 0c9c 79       		.byte	0x79
 7722 0c9d 00       		.sleb128 0
 7723 0c9e 77       		.byte	0x77
ARM GAS  C:\Users\Phuong\AppData\Local\Temp\ccuEFeTd.s 			page 147


 7724 0c9f 00       		.sleb128 0
 7725 0ca0 27       		.byte	0x27
 7726 0ca1 76       		.byte	0x76
 7727 0ca2 00       		.sleb128 0
 7728 0ca3 1A       		.byte	0x1a
 7729 0ca4 79       		.byte	0x79
 7730 0ca5 00       		.sleb128 0
 7731 0ca6 27       		.byte	0x27
 7732 0ca7 76       		.byte	0x76
 7733 0ca8 00       		.sleb128 0
 7734 0ca9 36       		.byte	0x36
 7735 0caa 14       		.byte	0x14
 7736 0cab 14       		.byte	0x14
 7737 0cac 1F       		.byte	0x1f
 7738 0cad 23       		.byte	0x23
 7739 0cae 20       		.uleb128 0x20
 7740 0caf 24       		.byte	0x24
 7741 0cb0 17       		.byte	0x17
 7742 0cb1 25       		.byte	0x25
 7743 0cb2 21       		.byte	0x21
 7744 0cb3 76       		.byte	0x76
 7745 0cb4 00       		.sleb128 0
 7746 0cb5 3B       		.byte	0x3b
 7747 0cb6 14       		.byte	0x14
 7748 0cb7 14       		.byte	0x14
 7749 0cb8 1F       		.byte	0x1f
 7750 0cb9 23       		.byte	0x23
 7751 0cba 20       		.uleb128 0x20
 7752 0cbb 24       		.byte	0x24
 7753 0cbc 17       		.byte	0x17
 7754 0cbd 25       		.byte	0x25
 7755 0cbe 21       		.byte	0x21
 7756 0cbf 27       		.byte	0x27
 7757 0cc0 76       		.byte	0x76
 7758 0cc1 00       		.sleb128 0
 7759 0cc2 49       		.byte	0x49
 7760 0cc3 14       		.byte	0x14
 7761 0cc4 14       		.byte	0x14
 7762 0cc5 1F       		.byte	0x1f
 7763 0cc6 23       		.byte	0x23
 7764 0cc7 20       		.uleb128 0x20
 7765 0cc8 24       		.byte	0x24
 7766 0cc9 17       		.byte	0x17
 7767 0cca 25       		.byte	0x25
 7768 0ccb 21       		.byte	0x21
 7769 0ccc 27       		.byte	0x27
 7770 0ccd 22       		.byte	0x22
 7771 0cce 7A       		.byte	0x7a
 7772 0ccf 03       		.sleb128 3
 7773 0cd0 32       		.byte	0x32
 7774 0cd1 24       		.byte	0x24
 7775 0cd2 91       		.byte	0x91
 7776 0cd3 00       		.sleb128 0
 7777 0cd4 22       		.byte	0x22
 7778 0cd5 75       		.byte	0x75
 7779 0cd6 00       		.sleb128 0
 7780 0cd7 22       		.byte	0x22
ARM GAS  C:\Users\Phuong\AppData\Local\Temp\ccuEFeTd.s 			page 148


 7781 0cd8 0A       		.byte	0xa
 7782 0cd9 4801     		.2byte	0x148
 7783 0cdb 1C       		.byte	0x1c
 7784 0cdc 06       		.byte	0x6
 7785 0cdd 22       		.byte	0x22
 7786 0cde 91       		.byte	0x91
 7787 0cdf C87D     		.sleb128 -312
 7788 0ce1 06       		.byte	0x6
 7789 0ce2 22       		.byte	0x22
 7790 0ce3 7A       		.byte	0x7a
 7791 0ce4 03       		.sleb128 3
 7792 0ce5 32       		.byte	0x32
 7793 0ce6 24       		.byte	0x24
 7794 0ce7 7C       		.byte	0x7c
 7795 0ce8 00       		.sleb128 0
 7796 0ce9 22       		.byte	0x22
 7797 0cea 06       		.byte	0x6
 7798 0ceb 22       		.byte	0x22
 7799 0cec 9F       		.byte	0x9f
 7800 0ced A6020000 		.4byte	.LVL81
 7801 0cf1 EC020000 		.4byte	.LVL88
 7802 0cf5 0100     		.2byte	0x1
 7803 0cf7 58       		.byte	0x58
 7804 0cf8 30030000 		.4byte	.LVL90
 7805 0cfc 72030000 		.4byte	.LVL98
 7806 0d00 0100     		.2byte	0x1
 7807 0d02 58       		.byte	0x58
 7808 0d03 BA030000 		.4byte	.LVL99
 7809 0d07 F2030000 		.4byte	.LVL106
 7810 0d0b 0100     		.2byte	0x1
 7811 0d0d 58       		.byte	0x58
 7812 0d0e 38040000 		.4byte	.LVL108
 7813 0d12 68040000 		.4byte	.LVL112
 7814 0d16 0100     		.2byte	0x1
 7815 0d18 50       		.byte	0x50
 7816 0d19 14050000 		.4byte	.LVL116
 7817 0d1d 50050000 		.4byte	.LVL118
 7818 0d21 0100     		.2byte	0x1
 7819 0d23 54       		.byte	0x54
 7820 0d24 50050000 		.4byte	.LVL118
 7821 0d28 52050000 		.4byte	.LVL119
 7822 0d2c 5100     		.2byte	0x51
 7823 0d2e 72       		.byte	0x72
 7824 0d2f 00       		.sleb128 0
 7825 0d30 36       		.byte	0x36
 7826 0d31 14       		.byte	0x14
 7827 0d32 14       		.byte	0x14
 7828 0d33 1F       		.byte	0x1f
 7829 0d34 23       		.byte	0x23
 7830 0d35 20       		.uleb128 0x20
 7831 0d36 24       		.byte	0x24
 7832 0d37 17       		.byte	0x17
 7833 0d38 25       		.byte	0x25
 7834 0d39 21       		.byte	0x21
 7835 0d3a 72       		.byte	0x72
 7836 0d3b 00       		.sleb128 0
 7837 0d3c 3B       		.byte	0x3b
ARM GAS  C:\Users\Phuong\AppData\Local\Temp\ccuEFeTd.s 			page 149


 7838 0d3d 14       		.byte	0x14
 7839 0d3e 14       		.byte	0x14
 7840 0d3f 1F       		.byte	0x1f
 7841 0d40 23       		.byte	0x23
 7842 0d41 20       		.uleb128 0x20
 7843 0d42 24       		.byte	0x24
 7844 0d43 17       		.byte	0x17
 7845 0d44 25       		.byte	0x25
 7846 0d45 21       		.byte	0x21
 7847 0d46 27       		.byte	0x27
 7848 0d47 72       		.byte	0x72
 7849 0d48 00       		.sleb128 0
 7850 0d49 49       		.byte	0x49
 7851 0d4a 14       		.byte	0x14
 7852 0d4b 14       		.byte	0x14
 7853 0d4c 1F       		.byte	0x1f
 7854 0d4d 23       		.byte	0x23
 7855 0d4e 20       		.uleb128 0x20
 7856 0d4f 24       		.byte	0x24
 7857 0d50 17       		.byte	0x17
 7858 0d51 25       		.byte	0x25
 7859 0d52 21       		.byte	0x21
 7860 0d53 27       		.byte	0x27
 7861 0d54 91       		.byte	0x91
 7862 0d55 CC7D     		.sleb128 -308
 7863 0d57 06       		.byte	0x6
 7864 0d58 91       		.byte	0x91
 7865 0d59 D07D     		.sleb128 -304
 7866 0d5b 06       		.byte	0x6
 7867 0d5c 27       		.byte	0x27
 7868 0d5d 72       		.byte	0x72
 7869 0d5e 00       		.sleb128 0
 7870 0d5f 1A       		.byte	0x1a
 7871 0d60 91       		.byte	0x91
 7872 0d61 D07D     		.sleb128 -304
 7873 0d63 06       		.byte	0x6
 7874 0d64 27       		.byte	0x27
 7875 0d65 22       		.byte	0x22
 7876 0d66 73       		.byte	0x73
 7877 0d67 00       		.sleb128 0
 7878 0d68 91       		.byte	0x91
 7879 0d69 987D     		.sleb128 -360
 7880 0d6b 06       		.byte	0x6
 7881 0d6c 22       		.byte	0x22
 7882 0d6d 06       		.byte	0x6
 7883 0d6e 22       		.byte	0x22
 7884 0d6f 7C       		.byte	0x7c
 7885 0d70 00       		.sleb128 0
 7886 0d71 22       		.byte	0x22
 7887 0d72 91       		.byte	0x91
 7888 0d73 987D     		.sleb128 -360
 7889 0d75 06       		.byte	0x6
 7890 0d76 03       		.byte	0x3
 7891 0d77 00000000 		.4byte	.LANCHOR0
 7892 0d7b 22       		.byte	0x22
 7893 0d7c 06       		.byte	0x6
 7894 0d7d 22       		.byte	0x22
ARM GAS  C:\Users\Phuong\AppData\Local\Temp\ccuEFeTd.s 			page 150


 7895 0d7e 9F       		.byte	0x9f
 7896 0d7f 52050000 		.4byte	.LVL119
 7897 0d83 5A050000 		.4byte	.LVL122
 7898 0d87 5200     		.2byte	0x52
 7899 0d89 72       		.byte	0x72
 7900 0d8a 00       		.sleb128 0
 7901 0d8b 76       		.byte	0x76
 7902 0d8c 00       		.sleb128 0
 7903 0d8d 14       		.byte	0x14
 7904 0d8e 14       		.byte	0x14
 7905 0d8f 1F       		.byte	0x1f
 7906 0d90 23       		.byte	0x23
 7907 0d91 20       		.uleb128 0x20
 7908 0d92 24       		.byte	0x24
 7909 0d93 17       		.byte	0x17
 7910 0d94 25       		.byte	0x25
 7911 0d95 21       		.byte	0x21
 7912 0d96 72       		.byte	0x72
 7913 0d97 00       		.sleb128 0
 7914 0d98 3B       		.byte	0x3b
 7915 0d99 14       		.byte	0x14
 7916 0d9a 14       		.byte	0x14
 7917 0d9b 1F       		.byte	0x1f
 7918 0d9c 23       		.byte	0x23
 7919 0d9d 20       		.uleb128 0x20
 7920 0d9e 24       		.byte	0x24
 7921 0d9f 17       		.byte	0x17
 7922 0da0 25       		.byte	0x25
 7923 0da1 21       		.byte	0x21
 7924 0da2 27       		.byte	0x27
 7925 0da3 72       		.byte	0x72
 7926 0da4 00       		.sleb128 0
 7927 0da5 49       		.byte	0x49
 7928 0da6 14       		.byte	0x14
 7929 0da7 14       		.byte	0x14
 7930 0da8 1F       		.byte	0x1f
 7931 0da9 23       		.byte	0x23
 7932 0daa 20       		.uleb128 0x20
 7933 0dab 24       		.byte	0x24
 7934 0dac 17       		.byte	0x17
 7935 0dad 25       		.byte	0x25
 7936 0dae 21       		.byte	0x21
 7937 0daf 27       		.byte	0x27
 7938 0db0 91       		.byte	0x91
 7939 0db1 CC7D     		.sleb128 -308
 7940 0db3 06       		.byte	0x6
 7941 0db4 91       		.byte	0x91
 7942 0db5 D07D     		.sleb128 -304
 7943 0db7 06       		.byte	0x6
 7944 0db8 27       		.byte	0x27
 7945 0db9 72       		.byte	0x72
 7946 0dba 00       		.sleb128 0
 7947 0dbb 1A       		.byte	0x1a
 7948 0dbc 91       		.byte	0x91
 7949 0dbd D07D     		.sleb128 -304
 7950 0dbf 06       		.byte	0x6
 7951 0dc0 27       		.byte	0x27
ARM GAS  C:\Users\Phuong\AppData\Local\Temp\ccuEFeTd.s 			page 151


 7952 0dc1 22       		.byte	0x22
 7953 0dc2 73       		.byte	0x73
 7954 0dc3 00       		.sleb128 0
 7955 0dc4 91       		.byte	0x91
 7956 0dc5 987D     		.sleb128 -360
 7957 0dc7 06       		.byte	0x6
 7958 0dc8 22       		.byte	0x22
 7959 0dc9 06       		.byte	0x6
 7960 0dca 22       		.byte	0x22
 7961 0dcb 7C       		.byte	0x7c
 7962 0dcc 00       		.sleb128 0
 7963 0dcd 22       		.byte	0x22
 7964 0dce 91       		.byte	0x91
 7965 0dcf 987D     		.sleb128 -360
 7966 0dd1 06       		.byte	0x6
 7967 0dd2 03       		.byte	0x3
 7968 0dd3 00000000 		.4byte	.LANCHOR0
 7969 0dd7 22       		.byte	0x22
 7970 0dd8 06       		.byte	0x6
 7971 0dd9 22       		.byte	0x22
 7972 0dda 9F       		.byte	0x9f
 7973 0ddb 5A050000 		.4byte	.LVL122
 7974 0ddf 62050000 		.4byte	.LVL123
 7975 0de3 5400     		.2byte	0x54
 7976 0de5 72       		.byte	0x72
 7977 0de6 00       		.sleb128 0
 7978 0de7 76       		.byte	0x76
 7979 0de8 00       		.sleb128 0
 7980 0de9 14       		.byte	0x14
 7981 0dea 14       		.byte	0x14
 7982 0deb 1F       		.byte	0x1f
 7983 0dec 23       		.byte	0x23
 7984 0ded 20       		.uleb128 0x20
 7985 0dee 24       		.byte	0x24
 7986 0def 17       		.byte	0x17
 7987 0df0 25       		.byte	0x25
 7988 0df1 21       		.byte	0x21
 7989 0df2 72       		.byte	0x72
 7990 0df3 00       		.sleb128 0
 7991 0df4 74       		.byte	0x74
 7992 0df5 00       		.sleb128 0
 7993 0df6 14       		.byte	0x14
 7994 0df7 14       		.byte	0x14
 7995 0df8 1F       		.byte	0x1f
 7996 0df9 23       		.byte	0x23
 7997 0dfa 20       		.uleb128 0x20
 7998 0dfb 24       		.byte	0x24
 7999 0dfc 17       		.byte	0x17
 8000 0dfd 25       		.byte	0x25
 8001 0dfe 21       		.byte	0x21
 8002 0dff 27       		.byte	0x27
 8003 0e00 72       		.byte	0x72
 8004 0e01 00       		.sleb128 0
 8005 0e02 74       		.byte	0x74
 8006 0e03 0E       		.sleb128 14
 8007 0e04 14       		.byte	0x14
 8008 0e05 14       		.byte	0x14
ARM GAS  C:\Users\Phuong\AppData\Local\Temp\ccuEFeTd.s 			page 152


 8009 0e06 1F       		.byte	0x1f
 8010 0e07 23       		.byte	0x23
 8011 0e08 20       		.uleb128 0x20
 8012 0e09 24       		.byte	0x24
 8013 0e0a 17       		.byte	0x17
 8014 0e0b 25       		.byte	0x25
 8015 0e0c 21       		.byte	0x21
 8016 0e0d 27       		.byte	0x27
 8017 0e0e 91       		.byte	0x91
 8018 0e0f CC7D     		.sleb128 -308
 8019 0e11 06       		.byte	0x6
 8020 0e12 91       		.byte	0x91
 8021 0e13 D07D     		.sleb128 -304
 8022 0e15 06       		.byte	0x6
 8023 0e16 27       		.byte	0x27
 8024 0e17 72       		.byte	0x72
 8025 0e18 00       		.sleb128 0
 8026 0e19 1A       		.byte	0x1a
 8027 0e1a 91       		.byte	0x91
 8028 0e1b D07D     		.sleb128 -304
 8029 0e1d 06       		.byte	0x6
 8030 0e1e 27       		.byte	0x27
 8031 0e1f 22       		.byte	0x22
 8032 0e20 73       		.byte	0x73
 8033 0e21 00       		.sleb128 0
 8034 0e22 91       		.byte	0x91
 8035 0e23 987D     		.sleb128 -360
 8036 0e25 06       		.byte	0x6
 8037 0e26 22       		.byte	0x22
 8038 0e27 06       		.byte	0x6
 8039 0e28 22       		.byte	0x22
 8040 0e29 7C       		.byte	0x7c
 8041 0e2a 00       		.sleb128 0
 8042 0e2b 22       		.byte	0x22
 8043 0e2c 91       		.byte	0x91
 8044 0e2d 987D     		.sleb128 -360
 8045 0e2f 06       		.byte	0x6
 8046 0e30 03       		.byte	0x3
 8047 0e31 00000000 		.4byte	.LANCHOR0
 8048 0e35 22       		.byte	0x22
 8049 0e36 06       		.byte	0x6
 8050 0e37 22       		.byte	0x22
 8051 0e38 9F       		.byte	0x9f
 8052 0e39 62050000 		.4byte	.LVL123
 8053 0e3d 68050000 		.4byte	.LVL124
 8054 0e41 5300     		.2byte	0x53
 8055 0e43 72       		.byte	0x72
 8056 0e44 00       		.sleb128 0
 8057 0e45 76       		.byte	0x76
 8058 0e46 00       		.sleb128 0
 8059 0e47 14       		.byte	0x14
 8060 0e48 14       		.byte	0x14
 8061 0e49 1F       		.byte	0x1f
 8062 0e4a 23       		.byte	0x23
 8063 0e4b 20       		.uleb128 0x20
 8064 0e4c 24       		.byte	0x24
 8065 0e4d 17       		.byte	0x17
ARM GAS  C:\Users\Phuong\AppData\Local\Temp\ccuEFeTd.s 			page 153


 8066 0e4e 25       		.byte	0x25
 8067 0e4f 21       		.byte	0x21
 8068 0e50 72       		.byte	0x72
 8069 0e51 00       		.sleb128 0
 8070 0e52 3B       		.byte	0x3b
 8071 0e53 14       		.byte	0x14
 8072 0e54 14       		.byte	0x14
 8073 0e55 1F       		.byte	0x1f
 8074 0e56 23       		.byte	0x23
 8075 0e57 20       		.uleb128 0x20
 8076 0e58 24       		.byte	0x24
 8077 0e59 17       		.byte	0x17
 8078 0e5a 25       		.byte	0x25
 8079 0e5b 21       		.byte	0x21
 8080 0e5c 27       		.byte	0x27
 8081 0e5d 72       		.byte	0x72
 8082 0e5e 00       		.sleb128 0
 8083 0e5f 74       		.byte	0x74
 8084 0e60 00       		.sleb128 0
 8085 0e61 14       		.byte	0x14
 8086 0e62 14       		.byte	0x14
 8087 0e63 1F       		.byte	0x1f
 8088 0e64 23       		.byte	0x23
 8089 0e65 20       		.uleb128 0x20
 8090 0e66 24       		.byte	0x24
 8091 0e67 17       		.byte	0x17
 8092 0e68 25       		.byte	0x25
 8093 0e69 21       		.byte	0x21
 8094 0e6a 27       		.byte	0x27
 8095 0e6b 91       		.byte	0x91
 8096 0e6c CC7D     		.sleb128 -308
 8097 0e6e 06       		.byte	0x6
 8098 0e6f 91       		.byte	0x91
 8099 0e70 D07D     		.sleb128 -304
 8100 0e72 06       		.byte	0x6
 8101 0e73 27       		.byte	0x27
 8102 0e74 72       		.byte	0x72
 8103 0e75 00       		.sleb128 0
 8104 0e76 1A       		.byte	0x1a
 8105 0e77 91       		.byte	0x91
 8106 0e78 D07D     		.sleb128 -304
 8107 0e7a 06       		.byte	0x6
 8108 0e7b 27       		.byte	0x27
 8109 0e7c 22       		.byte	0x22
 8110 0e7d 73       		.byte	0x73
 8111 0e7e 00       		.sleb128 0
 8112 0e7f 91       		.byte	0x91
 8113 0e80 987D     		.sleb128 -360
 8114 0e82 06       		.byte	0x6
 8115 0e83 22       		.byte	0x22
 8116 0e84 06       		.byte	0x6
 8117 0e85 22       		.byte	0x22
 8118 0e86 7C       		.byte	0x7c
 8119 0e87 00       		.sleb128 0
 8120 0e88 22       		.byte	0x22
 8121 0e89 91       		.byte	0x91
 8122 0e8a 987D     		.sleb128 -360
ARM GAS  C:\Users\Phuong\AppData\Local\Temp\ccuEFeTd.s 			page 154


 8123 0e8c 06       		.byte	0x6
 8124 0e8d 03       		.byte	0x3
 8125 0e8e 00000000 		.4byte	.LANCHOR0
 8126 0e92 22       		.byte	0x22
 8127 0e93 06       		.byte	0x6
 8128 0e94 22       		.byte	0x22
 8129 0e95 9F       		.byte	0x9f
 8130 0e96 68050000 		.4byte	.LVL124
 8131 0e9a 82050000 		.4byte	.LVL126
 8132 0e9e 5200     		.2byte	0x52
 8133 0ea0 72       		.byte	0x72
 8134 0ea1 00       		.sleb128 0
 8135 0ea2 76       		.byte	0x76
 8136 0ea3 00       		.sleb128 0
 8137 0ea4 14       		.byte	0x14
 8138 0ea5 14       		.byte	0x14
 8139 0ea6 1F       		.byte	0x1f
 8140 0ea7 23       		.byte	0x23
 8141 0ea8 20       		.uleb128 0x20
 8142 0ea9 24       		.byte	0x24
 8143 0eaa 17       		.byte	0x17
 8144 0eab 25       		.byte	0x25
 8145 0eac 21       		.byte	0x21
 8146 0ead 72       		.byte	0x72
 8147 0eae 00       		.sleb128 0
 8148 0eaf 3B       		.byte	0x3b
 8149 0eb0 14       		.byte	0x14
 8150 0eb1 14       		.byte	0x14
 8151 0eb2 1F       		.byte	0x1f
 8152 0eb3 23       		.byte	0x23
 8153 0eb4 20       		.uleb128 0x20
 8154 0eb5 24       		.byte	0x24
 8155 0eb6 17       		.byte	0x17
 8156 0eb7 25       		.byte	0x25
 8157 0eb8 21       		.byte	0x21
 8158 0eb9 27       		.byte	0x27
 8159 0eba 72       		.byte	0x72
 8160 0ebb 00       		.sleb128 0
 8161 0ebc 49       		.byte	0x49
 8162 0ebd 14       		.byte	0x14
 8163 0ebe 14       		.byte	0x14
 8164 0ebf 1F       		.byte	0x1f
 8165 0ec0 23       		.byte	0x23
 8166 0ec1 20       		.uleb128 0x20
 8167 0ec2 24       		.byte	0x24
 8168 0ec3 17       		.byte	0x17
 8169 0ec4 25       		.byte	0x25
 8170 0ec5 21       		.byte	0x21
 8171 0ec6 27       		.byte	0x27
 8172 0ec7 91       		.byte	0x91
 8173 0ec8 CC7D     		.sleb128 -308
 8174 0eca 06       		.byte	0x6
 8175 0ecb 91       		.byte	0x91
 8176 0ecc D07D     		.sleb128 -304
 8177 0ece 06       		.byte	0x6
 8178 0ecf 27       		.byte	0x27
 8179 0ed0 72       		.byte	0x72
ARM GAS  C:\Users\Phuong\AppData\Local\Temp\ccuEFeTd.s 			page 155


 8180 0ed1 00       		.sleb128 0
 8181 0ed2 1A       		.byte	0x1a
 8182 0ed3 91       		.byte	0x91
 8183 0ed4 D07D     		.sleb128 -304
 8184 0ed6 06       		.byte	0x6
 8185 0ed7 27       		.byte	0x27
 8186 0ed8 22       		.byte	0x22
 8187 0ed9 73       		.byte	0x73
 8188 0eda 00       		.sleb128 0
 8189 0edb 91       		.byte	0x91
 8190 0edc 987D     		.sleb128 -360
 8191 0ede 06       		.byte	0x6
 8192 0edf 22       		.byte	0x22
 8193 0ee0 06       		.byte	0x6
 8194 0ee1 22       		.byte	0x22
 8195 0ee2 7C       		.byte	0x7c
 8196 0ee3 00       		.sleb128 0
 8197 0ee4 22       		.byte	0x22
 8198 0ee5 91       		.byte	0x91
 8199 0ee6 987D     		.sleb128 -360
 8200 0ee8 06       		.byte	0x6
 8201 0ee9 03       		.byte	0x3
 8202 0eea 00000000 		.4byte	.LANCHOR0
 8203 0eee 22       		.byte	0x22
 8204 0eef 06       		.byte	0x6
 8205 0ef0 22       		.byte	0x22
 8206 0ef1 9F       		.byte	0x9f
 8207 0ef2 82050000 		.4byte	.LVL126
 8208 0ef6 84050000 		.4byte	.LVL127
 8209 0efa 4F00     		.2byte	0x4f
 8210 0efc 72       		.byte	0x72
 8211 0efd 00       		.sleb128 0
 8212 0efe 76       		.byte	0x76
 8213 0eff 00       		.sleb128 0
 8214 0f00 14       		.byte	0x14
 8215 0f01 14       		.byte	0x14
 8216 0f02 1F       		.byte	0x1f
 8217 0f03 23       		.byte	0x23
 8218 0f04 20       		.uleb128 0x20
 8219 0f05 24       		.byte	0x24
 8220 0f06 17       		.byte	0x17
 8221 0f07 25       		.byte	0x25
 8222 0f08 21       		.byte	0x21
 8223 0f09 72       		.byte	0x72
 8224 0f0a 00       		.sleb128 0
 8225 0f0b 3B       		.byte	0x3b
 8226 0f0c 14       		.byte	0x14
 8227 0f0d 14       		.byte	0x14
 8228 0f0e 1F       		.byte	0x1f
 8229 0f0f 23       		.byte	0x23
 8230 0f10 20       		.uleb128 0x20
 8231 0f11 24       		.byte	0x24
 8232 0f12 17       		.byte	0x17
 8233 0f13 25       		.byte	0x25
 8234 0f14 21       		.byte	0x21
 8235 0f15 27       		.byte	0x27
 8236 0f16 72       		.byte	0x72
ARM GAS  C:\Users\Phuong\AppData\Local\Temp\ccuEFeTd.s 			page 156


 8237 0f17 00       		.sleb128 0
 8238 0f18 49       		.byte	0x49
 8239 0f19 14       		.byte	0x14
 8240 0f1a 14       		.byte	0x14
 8241 0f1b 1F       		.byte	0x1f
 8242 0f1c 23       		.byte	0x23
 8243 0f1d 20       		.uleb128 0x20
 8244 0f1e 24       		.byte	0x24
 8245 0f1f 17       		.byte	0x17
 8246 0f20 25       		.byte	0x25
 8247 0f21 21       		.byte	0x21
 8248 0f22 27       		.byte	0x27
 8249 0f23 91       		.byte	0x91
 8250 0f24 CC7D     		.sleb128 -308
 8251 0f26 06       		.byte	0x6
 8252 0f27 91       		.byte	0x91
 8253 0f28 D07D     		.sleb128 -304
 8254 0f2a 06       		.byte	0x6
 8255 0f2b 27       		.byte	0x27
 8256 0f2c 72       		.byte	0x72
 8257 0f2d 00       		.sleb128 0
 8258 0f2e 1A       		.byte	0x1a
 8259 0f2f 91       		.byte	0x91
 8260 0f30 D07D     		.sleb128 -304
 8261 0f32 06       		.byte	0x6
 8262 0f33 27       		.byte	0x27
 8263 0f34 22       		.byte	0x22
 8264 0f35 73       		.byte	0x73
 8265 0f36 00       		.sleb128 0
 8266 0f37 91       		.byte	0x91
 8267 0f38 987D     		.sleb128 -360
 8268 0f3a 06       		.byte	0x6
 8269 0f3b 22       		.byte	0x22
 8270 0f3c 06       		.byte	0x6
 8271 0f3d 22       		.byte	0x22
 8272 0f3e 7C       		.byte	0x7c
 8273 0f3f 00       		.sleb128 0
 8274 0f40 22       		.byte	0x22
 8275 0f41 91       		.byte	0x91
 8276 0f42 987D     		.sleb128 -360
 8277 0f44 06       		.byte	0x6
 8278 0f45 74       		.byte	0x74
 8279 0f46 00       		.sleb128 0
 8280 0f47 22       		.byte	0x22
 8281 0f48 06       		.byte	0x6
 8282 0f49 22       		.byte	0x22
 8283 0f4a 9F       		.byte	0x9f
 8284 0f4b 84050000 		.4byte	.LVL127
 8285 0f4f 86050000 		.4byte	.LVL128
 8286 0f53 4E00     		.2byte	0x4e
 8287 0f55 72       		.byte	0x72
 8288 0f56 00       		.sleb128 0
 8289 0f57 36       		.byte	0x36
 8290 0f58 14       		.byte	0x14
 8291 0f59 14       		.byte	0x14
 8292 0f5a 1F       		.byte	0x1f
 8293 0f5b 23       		.byte	0x23
ARM GAS  C:\Users\Phuong\AppData\Local\Temp\ccuEFeTd.s 			page 157


 8294 0f5c 20       		.uleb128 0x20
 8295 0f5d 24       		.byte	0x24
 8296 0f5e 17       		.byte	0x17
 8297 0f5f 25       		.byte	0x25
 8298 0f60 21       		.byte	0x21
 8299 0f61 72       		.byte	0x72
 8300 0f62 00       		.sleb128 0
 8301 0f63 3B       		.byte	0x3b
 8302 0f64 14       		.byte	0x14
 8303 0f65 14       		.byte	0x14
 8304 0f66 1F       		.byte	0x1f
 8305 0f67 23       		.byte	0x23
 8306 0f68 20       		.uleb128 0x20
 8307 0f69 24       		.byte	0x24
 8308 0f6a 17       		.byte	0x17
 8309 0f6b 25       		.byte	0x25
 8310 0f6c 21       		.byte	0x21
 8311 0f6d 27       		.byte	0x27
 8312 0f6e 72       		.byte	0x72
 8313 0f6f 00       		.sleb128 0
 8314 0f70 49       		.byte	0x49
 8315 0f71 14       		.byte	0x14
 8316 0f72 14       		.byte	0x14
 8317 0f73 1F       		.byte	0x1f
 8318 0f74 23       		.byte	0x23
 8319 0f75 20       		.uleb128 0x20
 8320 0f76 24       		.byte	0x24
 8321 0f77 17       		.byte	0x17
 8322 0f78 25       		.byte	0x25
 8323 0f79 21       		.byte	0x21
 8324 0f7a 27       		.byte	0x27
 8325 0f7b 91       		.byte	0x91
 8326 0f7c CC7D     		.sleb128 -308
 8327 0f7e 06       		.byte	0x6
 8328 0f7f 91       		.byte	0x91
 8329 0f80 D07D     		.sleb128 -304
 8330 0f82 06       		.byte	0x6
 8331 0f83 27       		.byte	0x27
 8332 0f84 72       		.byte	0x72
 8333 0f85 00       		.sleb128 0
 8334 0f86 1A       		.byte	0x1a
 8335 0f87 91       		.byte	0x91
 8336 0f88 D07D     		.sleb128 -304
 8337 0f8a 06       		.byte	0x6
 8338 0f8b 27       		.byte	0x27
 8339 0f8c 22       		.byte	0x22
 8340 0f8d 73       		.byte	0x73
 8341 0f8e 00       		.sleb128 0
 8342 0f8f 91       		.byte	0x91
 8343 0f90 987D     		.sleb128 -360
 8344 0f92 06       		.byte	0x6
 8345 0f93 22       		.byte	0x22
 8346 0f94 06       		.byte	0x6
 8347 0f95 22       		.byte	0x22
 8348 0f96 7C       		.byte	0x7c
 8349 0f97 00       		.sleb128 0
 8350 0f98 22       		.byte	0x22
ARM GAS  C:\Users\Phuong\AppData\Local\Temp\ccuEFeTd.s 			page 158


 8351 0f99 91       		.byte	0x91
 8352 0f9a 987D     		.sleb128 -360
 8353 0f9c 06       		.byte	0x6
 8354 0f9d 74       		.byte	0x74
 8355 0f9e 00       		.sleb128 0
 8356 0f9f 22       		.byte	0x22
 8357 0fa0 06       		.byte	0x6
 8358 0fa1 22       		.byte	0x22
 8359 0fa2 9F       		.byte	0x9f
 8360 0fa3 86050000 		.4byte	.LVL128
 8361 0fa7 88050000 		.4byte	.LVL129
 8362 0fab 5100     		.2byte	0x51
 8363 0fad 72       		.byte	0x72
 8364 0fae 00       		.sleb128 0
 8365 0faf 36       		.byte	0x36
 8366 0fb0 14       		.byte	0x14
 8367 0fb1 14       		.byte	0x14
 8368 0fb2 1F       		.byte	0x1f
 8369 0fb3 23       		.byte	0x23
 8370 0fb4 20       		.uleb128 0x20
 8371 0fb5 24       		.byte	0x24
 8372 0fb6 17       		.byte	0x17
 8373 0fb7 25       		.byte	0x25
 8374 0fb8 21       		.byte	0x21
 8375 0fb9 72       		.byte	0x72
 8376 0fba 00       		.sleb128 0
 8377 0fbb 3B       		.byte	0x3b
 8378 0fbc 14       		.byte	0x14
 8379 0fbd 14       		.byte	0x14
 8380 0fbe 1F       		.byte	0x1f
 8381 0fbf 23       		.byte	0x23
 8382 0fc0 20       		.uleb128 0x20
 8383 0fc1 24       		.byte	0x24
 8384 0fc2 17       		.byte	0x17
 8385 0fc3 25       		.byte	0x25
 8386 0fc4 21       		.byte	0x21
 8387 0fc5 27       		.byte	0x27
 8388 0fc6 72       		.byte	0x72
 8389 0fc7 00       		.sleb128 0
 8390 0fc8 49       		.byte	0x49
 8391 0fc9 14       		.byte	0x14
 8392 0fca 14       		.byte	0x14
 8393 0fcb 1F       		.byte	0x1f
 8394 0fcc 23       		.byte	0x23
 8395 0fcd 20       		.uleb128 0x20
 8396 0fce 24       		.byte	0x24
 8397 0fcf 17       		.byte	0x17
 8398 0fd0 25       		.byte	0x25
 8399 0fd1 21       		.byte	0x21
 8400 0fd2 27       		.byte	0x27
 8401 0fd3 91       		.byte	0x91
 8402 0fd4 CC7D     		.sleb128 -308
 8403 0fd6 06       		.byte	0x6
 8404 0fd7 91       		.byte	0x91
 8405 0fd8 D07D     		.sleb128 -304
 8406 0fda 06       		.byte	0x6
 8407 0fdb 27       		.byte	0x27
ARM GAS  C:\Users\Phuong\AppData\Local\Temp\ccuEFeTd.s 			page 159


 8408 0fdc 72       		.byte	0x72
 8409 0fdd 00       		.sleb128 0
 8410 0fde 1A       		.byte	0x1a
 8411 0fdf 91       		.byte	0x91
 8412 0fe0 D07D     		.sleb128 -304
 8413 0fe2 06       		.byte	0x6
 8414 0fe3 27       		.byte	0x27
 8415 0fe4 22       		.byte	0x22
 8416 0fe5 73       		.byte	0x73
 8417 0fe6 00       		.sleb128 0
 8418 0fe7 91       		.byte	0x91
 8419 0fe8 987D     		.sleb128 -360
 8420 0fea 06       		.byte	0x6
 8421 0feb 22       		.byte	0x22
 8422 0fec 06       		.byte	0x6
 8423 0fed 22       		.byte	0x22
 8424 0fee 7C       		.byte	0x7c
 8425 0fef 00       		.sleb128 0
 8426 0ff0 22       		.byte	0x22
 8427 0ff1 91       		.byte	0x91
 8428 0ff2 987D     		.sleb128 -360
 8429 0ff4 06       		.byte	0x6
 8430 0ff5 03       		.byte	0x3
 8431 0ff6 00000000 		.4byte	.LANCHOR0
 8432 0ffa 22       		.byte	0x22
 8433 0ffb 06       		.byte	0x6
 8434 0ffc 22       		.byte	0x22
 8435 0ffd 9F       		.byte	0x9f
 8436 0ffe 88050000 		.4byte	.LVL129
 8437 1002 DC050000 		.4byte	.LVL130
 8438 1006 5300     		.2byte	0x53
 8439 1008 72       		.byte	0x72
 8440 1009 00       		.sleb128 0
 8441 100a 36       		.byte	0x36
 8442 100b 14       		.byte	0x14
 8443 100c 14       		.byte	0x14
 8444 100d 1F       		.byte	0x1f
 8445 100e 23       		.byte	0x23
 8446 100f 20       		.uleb128 0x20
 8447 1010 24       		.byte	0x24
 8448 1011 17       		.byte	0x17
 8449 1012 25       		.byte	0x25
 8450 1013 21       		.byte	0x21
 8451 1014 72       		.byte	0x72
 8452 1015 00       		.sleb128 0
 8453 1016 3B       		.byte	0x3b
 8454 1017 14       		.byte	0x14
 8455 1018 14       		.byte	0x14
 8456 1019 1F       		.byte	0x1f
 8457 101a 23       		.byte	0x23
 8458 101b 20       		.uleb128 0x20
 8459 101c 24       		.byte	0x24
 8460 101d 17       		.byte	0x17
 8461 101e 25       		.byte	0x25
 8462 101f 21       		.byte	0x21
 8463 1020 27       		.byte	0x27
 8464 1021 72       		.byte	0x72
ARM GAS  C:\Users\Phuong\AppData\Local\Temp\ccuEFeTd.s 			page 160


 8465 1022 00       		.sleb128 0
 8466 1023 49       		.byte	0x49
 8467 1024 14       		.byte	0x14
 8468 1025 14       		.byte	0x14
 8469 1026 1F       		.byte	0x1f
 8470 1027 23       		.byte	0x23
 8471 1028 20       		.uleb128 0x20
 8472 1029 24       		.byte	0x24
 8473 102a 17       		.byte	0x17
 8474 102b 25       		.byte	0x25
 8475 102c 21       		.byte	0x21
 8476 102d 27       		.byte	0x27
 8477 102e 91       		.byte	0x91
 8478 102f CC7D     		.sleb128 -308
 8479 1031 06       		.byte	0x6
 8480 1032 91       		.byte	0x91
 8481 1033 D07D     		.sleb128 -304
 8482 1035 06       		.byte	0x6
 8483 1036 27       		.byte	0x27
 8484 1037 72       		.byte	0x72
 8485 1038 00       		.sleb128 0
 8486 1039 1A       		.byte	0x1a
 8487 103a 91       		.byte	0x91
 8488 103b D07D     		.sleb128 -304
 8489 103d 06       		.byte	0x6
 8490 103e 27       		.byte	0x27
 8491 103f 22       		.byte	0x22
 8492 1040 73       		.byte	0x73
 8493 1041 00       		.sleb128 0
 8494 1042 91       		.byte	0x91
 8495 1043 987D     		.sleb128 -360
 8496 1045 06       		.byte	0x6
 8497 1046 22       		.byte	0x22
 8498 1047 06       		.byte	0x6
 8499 1048 22       		.byte	0x22
 8500 1049 91       		.byte	0x91
 8501 104a D47D     		.sleb128 -300
 8502 104c 06       		.byte	0x6
 8503 104d 22       		.byte	0x22
 8504 104e 91       		.byte	0x91
 8505 104f 987D     		.sleb128 -360
 8506 1051 06       		.byte	0x6
 8507 1052 03       		.byte	0x3
 8508 1053 00000000 		.4byte	.LANCHOR0
 8509 1057 22       		.byte	0x22
 8510 1058 06       		.byte	0x6
 8511 1059 22       		.byte	0x22
 8512 105a 9F       		.byte	0x9f
 8513 105b DE050000 		.4byte	.LVL131
 8514 105f 20060000 		.4byte	.LVL134
 8515 1063 0100     		.2byte	0x1
 8516 1065 50       		.byte	0x50
 8517 1066 20060000 		.4byte	.LVL134
 8518 106a 24060000 		.4byte	.LVL135
 8519 106e 5600     		.2byte	0x56
 8520 1070 91       		.byte	0x91
 8521 1071 8C7D     		.sleb128 -372
ARM GAS  C:\Users\Phuong\AppData\Local\Temp\ccuEFeTd.s 			page 161


 8522 1073 06       		.byte	0x6
 8523 1074 77       		.byte	0x77
 8524 1075 00       		.sleb128 0
 8525 1076 14       		.byte	0x14
 8526 1077 14       		.byte	0x14
 8527 1078 1F       		.byte	0x1f
 8528 1079 23       		.byte	0x23
 8529 107a 20       		.uleb128 0x20
 8530 107b 24       		.byte	0x24
 8531 107c 17       		.byte	0x17
 8532 107d 25       		.byte	0x25
 8533 107e 21       		.byte	0x21
 8534 107f 91       		.byte	0x91
 8535 1080 8C7D     		.sleb128 -372
 8536 1082 06       		.byte	0x6
 8537 1083 3B       		.byte	0x3b
 8538 1084 14       		.byte	0x14
 8539 1085 14       		.byte	0x14
 8540 1086 1F       		.byte	0x1f
 8541 1087 23       		.byte	0x23
 8542 1088 20       		.uleb128 0x20
 8543 1089 24       		.byte	0x24
 8544 108a 17       		.byte	0x17
 8545 108b 25       		.byte	0x25
 8546 108c 21       		.byte	0x21
 8547 108d 27       		.byte	0x27
 8548 108e 91       		.byte	0x91
 8549 108f 8C7D     		.sleb128 -372
 8550 1091 06       		.byte	0x6
 8551 1092 49       		.byte	0x49
 8552 1093 14       		.byte	0x14
 8553 1094 14       		.byte	0x14
 8554 1095 1F       		.byte	0x1f
 8555 1096 23       		.byte	0x23
 8556 1097 20       		.uleb128 0x20
 8557 1098 24       		.byte	0x24
 8558 1099 17       		.byte	0x17
 8559 109a 25       		.byte	0x25
 8560 109b 21       		.byte	0x21
 8561 109c 27       		.byte	0x27
 8562 109d 91       		.byte	0x91
 8563 109e CC7D     		.sleb128 -308
 8564 10a0 06       		.byte	0x6
 8565 10a1 72       		.byte	0x72
 8566 10a2 00       		.sleb128 0
 8567 10a3 27       		.byte	0x27
 8568 10a4 91       		.byte	0x91
 8569 10a5 8C7D     		.sleb128 -372
 8570 10a7 06       		.byte	0x6
 8571 10a8 1A       		.byte	0x1a
 8572 10a9 91       		.byte	0x91
 8573 10aa CC7D     		.sleb128 -308
 8574 10ac 06       		.byte	0x6
 8575 10ad 27       		.byte	0x27
 8576 10ae 22       		.byte	0x22
 8577 10af 73       		.byte	0x73
 8578 10b0 00       		.sleb128 0
ARM GAS  C:\Users\Phuong\AppData\Local\Temp\ccuEFeTd.s 			page 162


 8579 10b1 7A       		.byte	0x7a
 8580 10b2 00       		.sleb128 0
 8581 10b3 22       		.byte	0x22
 8582 10b4 06       		.byte	0x6
 8583 10b5 22       		.byte	0x22
 8584 10b6 91       		.byte	0x91
 8585 10b7 D07D     		.sleb128 -304
 8586 10b9 06       		.byte	0x6
 8587 10ba 22       		.byte	0x22
 8588 10bb 7A       		.byte	0x7a
 8589 10bc 00       		.sleb128 0
 8590 10bd 03       		.byte	0x3
 8591 10be 00000000 		.4byte	.LANCHOR0
 8592 10c2 22       		.byte	0x22
 8593 10c3 06       		.byte	0x6
 8594 10c4 22       		.byte	0x22
 8595 10c5 9F       		.byte	0x9f
 8596 10c6 24060000 		.4byte	.LVL135
 8597 10ca 50060000 		.4byte	.LVL136
 8598 10ce 5500     		.2byte	0x55
 8599 10d0 91       		.byte	0x91
 8600 10d1 8C7D     		.sleb128 -372
 8601 10d3 06       		.byte	0x6
 8602 10d4 36       		.byte	0x36
 8603 10d5 14       		.byte	0x14
 8604 10d6 14       		.byte	0x14
 8605 10d7 1F       		.byte	0x1f
 8606 10d8 23       		.byte	0x23
 8607 10d9 20       		.uleb128 0x20
 8608 10da 24       		.byte	0x24
 8609 10db 17       		.byte	0x17
 8610 10dc 25       		.byte	0x25
 8611 10dd 21       		.byte	0x21
 8612 10de 91       		.byte	0x91
 8613 10df 8C7D     		.sleb128 -372
 8614 10e1 06       		.byte	0x6
 8615 10e2 3B       		.byte	0x3b
 8616 10e3 14       		.byte	0x14
 8617 10e4 14       		.byte	0x14
 8618 10e5 1F       		.byte	0x1f
 8619 10e6 23       		.byte	0x23
 8620 10e7 20       		.uleb128 0x20
 8621 10e8 24       		.byte	0x24
 8622 10e9 17       		.byte	0x17
 8623 10ea 25       		.byte	0x25
 8624 10eb 21       		.byte	0x21
 8625 10ec 27       		.byte	0x27
 8626 10ed 91       		.byte	0x91
 8627 10ee 8C7D     		.sleb128 -372
 8628 10f0 06       		.byte	0x6
 8629 10f1 49       		.byte	0x49
 8630 10f2 14       		.byte	0x14
 8631 10f3 14       		.byte	0x14
 8632 10f4 1F       		.byte	0x1f
 8633 10f5 23       		.byte	0x23
 8634 10f6 20       		.uleb128 0x20
 8635 10f7 24       		.byte	0x24
ARM GAS  C:\Users\Phuong\AppData\Local\Temp\ccuEFeTd.s 			page 163


 8636 10f8 17       		.byte	0x17
 8637 10f9 25       		.byte	0x25
 8638 10fa 21       		.byte	0x21
 8639 10fb 27       		.byte	0x27
 8640 10fc 91       		.byte	0x91
 8641 10fd CC7D     		.sleb128 -308
 8642 10ff 06       		.byte	0x6
 8643 1100 72       		.byte	0x72
 8644 1101 00       		.sleb128 0
 8645 1102 27       		.byte	0x27
 8646 1103 91       		.byte	0x91
 8647 1104 8C7D     		.sleb128 -372
 8648 1106 06       		.byte	0x6
 8649 1107 1A       		.byte	0x1a
 8650 1108 91       		.byte	0x91
 8651 1109 CC7D     		.sleb128 -308
 8652 110b 06       		.byte	0x6
 8653 110c 27       		.byte	0x27
 8654 110d 22       		.byte	0x22
 8655 110e 73       		.byte	0x73
 8656 110f 00       		.sleb128 0
 8657 1110 7A       		.byte	0x7a
 8658 1111 00       		.sleb128 0
 8659 1112 22       		.byte	0x22
 8660 1113 06       		.byte	0x6
 8661 1114 22       		.byte	0x22
 8662 1115 91       		.byte	0x91
 8663 1116 D07D     		.sleb128 -304
 8664 1118 06       		.byte	0x6
 8665 1119 22       		.byte	0x22
 8666 111a 7A       		.byte	0x7a
 8667 111b 00       		.sleb128 0
 8668 111c 03       		.byte	0x3
 8669 111d 00000000 		.4byte	.LANCHOR0
 8670 1121 22       		.byte	0x22
 8671 1122 06       		.byte	0x6
 8672 1123 22       		.byte	0x22
 8673 1124 9F       		.byte	0x9f
 8674 1125 50060000 		.4byte	.LVL136
 8675 1129 52060000 		.4byte	.LVL137
 8676 112d 5700     		.2byte	0x57
 8677 112f 91       		.byte	0x91
 8678 1130 8C7D     		.sleb128 -372
 8679 1132 06       		.byte	0x6
 8680 1133 36       		.byte	0x36
 8681 1134 14       		.byte	0x14
 8682 1135 14       		.byte	0x14
 8683 1136 1F       		.byte	0x1f
 8684 1137 23       		.byte	0x23
 8685 1138 20       		.uleb128 0x20
 8686 1139 24       		.byte	0x24
 8687 113a 17       		.byte	0x17
 8688 113b 25       		.byte	0x25
 8689 113c 21       		.byte	0x21
 8690 113d 91       		.byte	0x91
 8691 113e 8C7D     		.sleb128 -372
 8692 1140 06       		.byte	0x6
ARM GAS  C:\Users\Phuong\AppData\Local\Temp\ccuEFeTd.s 			page 164


 8693 1141 3B       		.byte	0x3b
 8694 1142 14       		.byte	0x14
 8695 1143 14       		.byte	0x14
 8696 1144 1F       		.byte	0x1f
 8697 1145 23       		.byte	0x23
 8698 1146 20       		.uleb128 0x20
 8699 1147 24       		.byte	0x24
 8700 1148 17       		.byte	0x17
 8701 1149 25       		.byte	0x25
 8702 114a 21       		.byte	0x21
 8703 114b 27       		.byte	0x27
 8704 114c 91       		.byte	0x91
 8705 114d 8C7D     		.sleb128 -372
 8706 114f 06       		.byte	0x6
 8707 1150 49       		.byte	0x49
 8708 1151 14       		.byte	0x14
 8709 1152 14       		.byte	0x14
 8710 1153 1F       		.byte	0x1f
 8711 1154 23       		.byte	0x23
 8712 1155 20       		.uleb128 0x20
 8713 1156 24       		.byte	0x24
 8714 1157 17       		.byte	0x17
 8715 1158 25       		.byte	0x25
 8716 1159 21       		.byte	0x21
 8717 115a 27       		.byte	0x27
 8718 115b 91       		.byte	0x91
 8719 115c CC7D     		.sleb128 -308
 8720 115e 06       		.byte	0x6
 8721 115f 91       		.byte	0x91
 8722 1160 C87D     		.sleb128 -312
 8723 1162 06       		.byte	0x6
 8724 1163 27       		.byte	0x27
 8725 1164 91       		.byte	0x91
 8726 1165 8C7D     		.sleb128 -372
 8727 1167 06       		.byte	0x6
 8728 1168 1A       		.byte	0x1a
 8729 1169 91       		.byte	0x91
 8730 116a CC7D     		.sleb128 -308
 8731 116c 06       		.byte	0x6
 8732 116d 27       		.byte	0x27
 8733 116e 22       		.byte	0x22
 8734 116f 73       		.byte	0x73
 8735 1170 00       		.sleb128 0
 8736 1171 7A       		.byte	0x7a
 8737 1172 00       		.sleb128 0
 8738 1173 22       		.byte	0x22
 8739 1174 06       		.byte	0x6
 8740 1175 22       		.byte	0x22
 8741 1176 91       		.byte	0x91
 8742 1177 D07D     		.sleb128 -304
 8743 1179 06       		.byte	0x6
 8744 117a 22       		.byte	0x22
 8745 117b 7A       		.byte	0x7a
 8746 117c 00       		.sleb128 0
 8747 117d 03       		.byte	0x3
 8748 117e 00000000 		.4byte	.LANCHOR0
 8749 1182 22       		.byte	0x22
ARM GAS  C:\Users\Phuong\AppData\Local\Temp\ccuEFeTd.s 			page 165


 8750 1183 06       		.byte	0x6
 8751 1184 22       		.byte	0x22
 8752 1185 9F       		.byte	0x9f
 8753 1186 52060000 		.4byte	.LVL137
 8754 118a 60060000 		.4byte	.LVL138
 8755 118e 5400     		.2byte	0x54
 8756 1190 91       		.byte	0x91
 8757 1191 8C7D     		.sleb128 -372
 8758 1193 06       		.byte	0x6
 8759 1194 36       		.byte	0x36
 8760 1195 14       		.byte	0x14
 8761 1196 14       		.byte	0x14
 8762 1197 1F       		.byte	0x1f
 8763 1198 23       		.byte	0x23
 8764 1199 20       		.uleb128 0x20
 8765 119a 24       		.byte	0x24
 8766 119b 17       		.byte	0x17
 8767 119c 25       		.byte	0x25
 8768 119d 21       		.byte	0x21
 8769 119e 91       		.byte	0x91
 8770 119f 8C7D     		.sleb128 -372
 8771 11a1 06       		.byte	0x6
 8772 11a2 3B       		.byte	0x3b
 8773 11a3 14       		.byte	0x14
 8774 11a4 14       		.byte	0x14
 8775 11a5 1F       		.byte	0x1f
 8776 11a6 23       		.byte	0x23
 8777 11a7 20       		.uleb128 0x20
 8778 11a8 24       		.byte	0x24
 8779 11a9 17       		.byte	0x17
 8780 11aa 25       		.byte	0x25
 8781 11ab 21       		.byte	0x21
 8782 11ac 27       		.byte	0x27
 8783 11ad 91       		.byte	0x91
 8784 11ae 8C7D     		.sleb128 -372
 8785 11b0 06       		.byte	0x6
 8786 11b1 49       		.byte	0x49
 8787 11b2 14       		.byte	0x14
 8788 11b3 14       		.byte	0x14
 8789 11b4 1F       		.byte	0x1f
 8790 11b5 23       		.byte	0x23
 8791 11b6 20       		.uleb128 0x20
 8792 11b7 24       		.byte	0x24
 8793 11b8 17       		.byte	0x17
 8794 11b9 25       		.byte	0x25
 8795 11ba 21       		.byte	0x21
 8796 11bb 27       		.byte	0x27
 8797 11bc 91       		.byte	0x91
 8798 11bd CC7D     		.sleb128 -308
 8799 11bf 06       		.byte	0x6
 8800 11c0 91       		.byte	0x91
 8801 11c1 C87D     		.sleb128 -312
 8802 11c3 06       		.byte	0x6
 8803 11c4 27       		.byte	0x27
 8804 11c5 91       		.byte	0x91
 8805 11c6 8C7D     		.sleb128 -372
 8806 11c8 06       		.byte	0x6
ARM GAS  C:\Users\Phuong\AppData\Local\Temp\ccuEFeTd.s 			page 166


 8807 11c9 1A       		.byte	0x1a
 8808 11ca 91       		.byte	0x91
 8809 11cb CC7D     		.sleb128 -308
 8810 11cd 06       		.byte	0x6
 8811 11ce 27       		.byte	0x27
 8812 11cf 22       		.byte	0x22
 8813 11d0 73       		.byte	0x73
 8814 11d1 00       		.sleb128 0
 8815 11d2 7A       		.byte	0x7a
 8816 11d3 00       		.sleb128 0
 8817 11d4 22       		.byte	0x22
 8818 11d5 06       		.byte	0x6
 8819 11d6 22       		.byte	0x22
 8820 11d7 91       		.byte	0x91
 8821 11d8 D07D     		.sleb128 -304
 8822 11da 06       		.byte	0x6
 8823 11db 22       		.byte	0x22
 8824 11dc 7A       		.byte	0x7a
 8825 11dd 00       		.sleb128 0
 8826 11de 77       		.byte	0x77
 8827 11df 00       		.sleb128 0
 8828 11e0 22       		.byte	0x22
 8829 11e1 06       		.byte	0x6
 8830 11e2 22       		.byte	0x22
 8831 11e3 9F       		.byte	0x9f
 8832 11e4 60060000 		.4byte	.LVL138
 8833 11e8 A6060000 		.4byte	.LVL139
 8834 11ec 5700     		.2byte	0x57
 8835 11ee 91       		.byte	0x91
 8836 11ef 8C7D     		.sleb128 -372
 8837 11f1 06       		.byte	0x6
 8838 11f2 36       		.byte	0x36
 8839 11f3 14       		.byte	0x14
 8840 11f4 14       		.byte	0x14
 8841 11f5 1F       		.byte	0x1f
 8842 11f6 23       		.byte	0x23
 8843 11f7 20       		.uleb128 0x20
 8844 11f8 24       		.byte	0x24
 8845 11f9 17       		.byte	0x17
 8846 11fa 25       		.byte	0x25
 8847 11fb 21       		.byte	0x21
 8848 11fc 91       		.byte	0x91
 8849 11fd 8C7D     		.sleb128 -372
 8850 11ff 06       		.byte	0x6
 8851 1200 3B       		.byte	0x3b
 8852 1201 14       		.byte	0x14
 8853 1202 14       		.byte	0x14
 8854 1203 1F       		.byte	0x1f
 8855 1204 23       		.byte	0x23
 8856 1205 20       		.uleb128 0x20
 8857 1206 24       		.byte	0x24
 8858 1207 17       		.byte	0x17
 8859 1208 25       		.byte	0x25
 8860 1209 21       		.byte	0x21
 8861 120a 27       		.byte	0x27
 8862 120b 91       		.byte	0x91
 8863 120c 8C7D     		.sleb128 -372
ARM GAS  C:\Users\Phuong\AppData\Local\Temp\ccuEFeTd.s 			page 167


 8864 120e 06       		.byte	0x6
 8865 120f 49       		.byte	0x49
 8866 1210 14       		.byte	0x14
 8867 1211 14       		.byte	0x14
 8868 1212 1F       		.byte	0x1f
 8869 1213 23       		.byte	0x23
 8870 1214 20       		.uleb128 0x20
 8871 1215 24       		.byte	0x24
 8872 1216 17       		.byte	0x17
 8873 1217 25       		.byte	0x25
 8874 1218 21       		.byte	0x21
 8875 1219 27       		.byte	0x27
 8876 121a 91       		.byte	0x91
 8877 121b CC7D     		.sleb128 -308
 8878 121d 06       		.byte	0x6
 8879 121e 91       		.byte	0x91
 8880 121f C87D     		.sleb128 -312
 8881 1221 06       		.byte	0x6
 8882 1222 27       		.byte	0x27
 8883 1223 91       		.byte	0x91
 8884 1224 8C7D     		.sleb128 -372
 8885 1226 06       		.byte	0x6
 8886 1227 1A       		.byte	0x1a
 8887 1228 91       		.byte	0x91
 8888 1229 CC7D     		.sleb128 -308
 8889 122b 06       		.byte	0x6
 8890 122c 27       		.byte	0x27
 8891 122d 22       		.byte	0x22
 8892 122e 73       		.byte	0x73
 8893 122f 00       		.sleb128 0
 8894 1230 7A       		.byte	0x7a
 8895 1231 00       		.sleb128 0
 8896 1232 22       		.byte	0x22
 8897 1233 06       		.byte	0x6
 8898 1234 22       		.byte	0x22
 8899 1235 91       		.byte	0x91
 8900 1236 D07D     		.sleb128 -304
 8901 1238 06       		.byte	0x6
 8902 1239 22       		.byte	0x22
 8903 123a 7A       		.byte	0x7a
 8904 123b 00       		.sleb128 0
 8905 123c 03       		.byte	0x3
 8906 123d 00000000 		.4byte	.LANCHOR0
 8907 1241 22       		.byte	0x22
 8908 1242 06       		.byte	0x6
 8909 1243 22       		.byte	0x22
 8910 1244 9F       		.byte	0x9f
 8911 1245 A8060000 		.4byte	.LVL140
 8912 1249 E4060000 		.4byte	.LVL150
 8913 124d 0100     		.2byte	0x1
 8914 124f 54       		.byte	0x54
 8915 1250 E4060000 		.4byte	.LVL150
 8916 1254 E8060000 		.4byte	.LVL151
 8917 1258 5E00     		.2byte	0x5e
 8918 125a 91       		.byte	0x91
 8919 125b 907D     		.sleb128 -368
 8920 125d 06       		.byte	0x6
ARM GAS  C:\Users\Phuong\AppData\Local\Temp\ccuEFeTd.s 			page 168


 8921 125e 76       		.byte	0x76
 8922 125f 00       		.sleb128 0
 8923 1260 14       		.byte	0x14
 8924 1261 14       		.byte	0x14
 8925 1262 1F       		.byte	0x1f
 8926 1263 23       		.byte	0x23
 8927 1264 20       		.uleb128 0x20
 8928 1265 24       		.byte	0x24
 8929 1266 17       		.byte	0x17
 8930 1267 25       		.byte	0x25
 8931 1268 21       		.byte	0x21
 8932 1269 91       		.byte	0x91
 8933 126a 907D     		.sleb128 -368
 8934 126c 06       		.byte	0x6
 8935 126d 76       		.byte	0x76
 8936 126e 05       		.sleb128 5
 8937 126f 14       		.byte	0x14
 8938 1270 14       		.byte	0x14
 8939 1271 1F       		.byte	0x1f
 8940 1272 23       		.byte	0x23
 8941 1273 20       		.uleb128 0x20
 8942 1274 24       		.byte	0x24
 8943 1275 17       		.byte	0x17
 8944 1276 25       		.byte	0x25
 8945 1277 21       		.byte	0x21
 8946 1278 27       		.byte	0x27
 8947 1279 91       		.byte	0x91
 8948 127a 907D     		.sleb128 -368
 8949 127c 06       		.byte	0x6
 8950 127d 76       		.byte	0x76
 8951 127e 13       		.sleb128 19
 8952 127f 14       		.byte	0x14
 8953 1280 14       		.byte	0x14
 8954 1281 1F       		.byte	0x1f
 8955 1282 23       		.byte	0x23
 8956 1283 20       		.uleb128 0x20
 8957 1284 24       		.byte	0x24
 8958 1285 17       		.byte	0x17
 8959 1286 25       		.byte	0x25
 8960 1287 21       		.byte	0x21
 8961 1288 27       		.byte	0x27
 8962 1289 91       		.byte	0x91
 8963 128a C87D     		.sleb128 -312
 8964 128c 06       		.byte	0x6
 8965 128d 91       		.byte	0x91
 8966 128e 8C7D     		.sleb128 -372
 8967 1290 06       		.byte	0x6
 8968 1291 27       		.byte	0x27
 8969 1292 91       		.byte	0x91
 8970 1293 907D     		.sleb128 -368
 8971 1295 06       		.byte	0x6
 8972 1296 1A       		.byte	0x1a
 8973 1297 91       		.byte	0x91
 8974 1298 C87D     		.sleb128 -312
 8975 129a 06       		.byte	0x6
 8976 129b 27       		.byte	0x27
 8977 129c 22       		.byte	0x22
ARM GAS  C:\Users\Phuong\AppData\Local\Temp\ccuEFeTd.s 			page 169


 8978 129d 73       		.byte	0x73
 8979 129e 00       		.sleb128 0
 8980 129f 91       		.byte	0x91
 8981 12a0 A07D     		.sleb128 -352
 8982 12a2 06       		.byte	0x6
 8983 12a3 22       		.byte	0x22
 8984 12a4 06       		.byte	0x6
 8985 12a5 22       		.byte	0x22
 8986 12a6 91       		.byte	0x91
 8987 12a7 CC7D     		.sleb128 -308
 8988 12a9 06       		.byte	0x6
 8989 12aa 22       		.byte	0x22
 8990 12ab 91       		.byte	0x91
 8991 12ac A07D     		.sleb128 -352
 8992 12ae 06       		.byte	0x6
 8993 12af 03       		.byte	0x3
 8994 12b0 00000000 		.4byte	.LANCHOR0
 8995 12b4 22       		.byte	0x22
 8996 12b5 06       		.byte	0x6
 8997 12b6 22       		.byte	0x22
 8998 12b7 9F       		.byte	0x9f
 8999 12b8 E8060000 		.4byte	.LVL151
 9000 12bc F2060000 		.4byte	.LVL152
 9001 12c0 5D00     		.2byte	0x5d
 9002 12c2 91       		.byte	0x91
 9003 12c3 907D     		.sleb128 -368
 9004 12c5 06       		.byte	0x6
 9005 12c6 36       		.byte	0x36
 9006 12c7 14       		.byte	0x14
 9007 12c8 14       		.byte	0x14
 9008 12c9 1F       		.byte	0x1f
 9009 12ca 23       		.byte	0x23
 9010 12cb 20       		.uleb128 0x20
 9011 12cc 24       		.byte	0x24
 9012 12cd 17       		.byte	0x17
 9013 12ce 25       		.byte	0x25
 9014 12cf 21       		.byte	0x21
 9015 12d0 91       		.byte	0x91
 9016 12d1 907D     		.sleb128 -368
 9017 12d3 06       		.byte	0x6
 9018 12d4 76       		.byte	0x76
 9019 12d5 00       		.sleb128 0
 9020 12d6 14       		.byte	0x14
 9021 12d7 14       		.byte	0x14
 9022 12d8 1F       		.byte	0x1f
 9023 12d9 23       		.byte	0x23
 9024 12da 20       		.uleb128 0x20
 9025 12db 24       		.byte	0x24
 9026 12dc 17       		.byte	0x17
 9027 12dd 25       		.byte	0x25
 9028 12de 21       		.byte	0x21
 9029 12df 27       		.byte	0x27
 9030 12e0 91       		.byte	0x91
 9031 12e1 907D     		.sleb128 -368
 9032 12e3 06       		.byte	0x6
 9033 12e4 76       		.byte	0x76
 9034 12e5 0E       		.sleb128 14
ARM GAS  C:\Users\Phuong\AppData\Local\Temp\ccuEFeTd.s 			page 170


 9035 12e6 14       		.byte	0x14
 9036 12e7 14       		.byte	0x14
 9037 12e8 1F       		.byte	0x1f
 9038 12e9 23       		.byte	0x23
 9039 12ea 20       		.uleb128 0x20
 9040 12eb 24       		.byte	0x24
 9041 12ec 17       		.byte	0x17
 9042 12ed 25       		.byte	0x25
 9043 12ee 21       		.byte	0x21
 9044 12ef 27       		.byte	0x27
 9045 12f0 91       		.byte	0x91
 9046 12f1 C87D     		.sleb128 -312
 9047 12f3 06       		.byte	0x6
 9048 12f4 91       		.byte	0x91
 9049 12f5 8C7D     		.sleb128 -372
 9050 12f7 06       		.byte	0x6
 9051 12f8 27       		.byte	0x27
 9052 12f9 91       		.byte	0x91
 9053 12fa 907D     		.sleb128 -368
 9054 12fc 06       		.byte	0x6
 9055 12fd 1A       		.byte	0x1a
 9056 12fe 91       		.byte	0x91
 9057 12ff C87D     		.sleb128 -312
 9058 1301 06       		.byte	0x6
 9059 1302 27       		.byte	0x27
 9060 1303 22       		.byte	0x22
 9061 1304 73       		.byte	0x73
 9062 1305 00       		.sleb128 0
 9063 1306 91       		.byte	0x91
 9064 1307 A07D     		.sleb128 -352
 9065 1309 06       		.byte	0x6
 9066 130a 22       		.byte	0x22
 9067 130b 06       		.byte	0x6
 9068 130c 22       		.byte	0x22
 9069 130d 91       		.byte	0x91
 9070 130e CC7D     		.sleb128 -308
 9071 1310 06       		.byte	0x6
 9072 1311 22       		.byte	0x22
 9073 1312 91       		.byte	0x91
 9074 1313 A07D     		.sleb128 -352
 9075 1315 06       		.byte	0x6
 9076 1316 03       		.byte	0x3
 9077 1317 00000000 		.4byte	.LANCHOR0
 9078 131b 22       		.byte	0x22
 9079 131c 06       		.byte	0x6
 9080 131d 22       		.byte	0x22
 9081 131e 9F       		.byte	0x9f
 9082 131f F2060000 		.4byte	.LVL152
 9083 1323 00070000 		.4byte	.LVL154
 9084 1327 5D00     		.2byte	0x5d
 9085 1329 91       		.byte	0x91
 9086 132a 907D     		.sleb128 -368
 9087 132c 06       		.byte	0x6
 9088 132d 36       		.byte	0x36
 9089 132e 14       		.byte	0x14
 9090 132f 14       		.byte	0x14
 9091 1330 1F       		.byte	0x1f
ARM GAS  C:\Users\Phuong\AppData\Local\Temp\ccuEFeTd.s 			page 171


 9092 1331 23       		.byte	0x23
 9093 1332 20       		.uleb128 0x20
 9094 1333 24       		.byte	0x24
 9095 1334 17       		.byte	0x17
 9096 1335 25       		.byte	0x25
 9097 1336 21       		.byte	0x21
 9098 1337 91       		.byte	0x91
 9099 1338 907D     		.sleb128 -368
 9100 133a 06       		.byte	0x6
 9101 133b 76       		.byte	0x76
 9102 133c 72       		.sleb128 -14
 9103 133d 14       		.byte	0x14
 9104 133e 14       		.byte	0x14
 9105 133f 1F       		.byte	0x1f
 9106 1340 23       		.byte	0x23
 9107 1341 20       		.uleb128 0x20
 9108 1342 24       		.byte	0x24
 9109 1343 17       		.byte	0x17
 9110 1344 25       		.byte	0x25
 9111 1345 21       		.byte	0x21
 9112 1346 27       		.byte	0x27
 9113 1347 91       		.byte	0x91
 9114 1348 907D     		.sleb128 -368
 9115 134a 06       		.byte	0x6
 9116 134b 76       		.byte	0x76
 9117 134c 00       		.sleb128 0
 9118 134d 14       		.byte	0x14
 9119 134e 14       		.byte	0x14
 9120 134f 1F       		.byte	0x1f
 9121 1350 23       		.byte	0x23
 9122 1351 20       		.uleb128 0x20
 9123 1352 24       		.byte	0x24
 9124 1353 17       		.byte	0x17
 9125 1354 25       		.byte	0x25
 9126 1355 21       		.byte	0x21
 9127 1356 27       		.byte	0x27
 9128 1357 91       		.byte	0x91
 9129 1358 C87D     		.sleb128 -312
 9130 135a 06       		.byte	0x6
 9131 135b 91       		.byte	0x91
 9132 135c 8C7D     		.sleb128 -372
 9133 135e 06       		.byte	0x6
 9134 135f 27       		.byte	0x27
 9135 1360 91       		.byte	0x91
 9136 1361 907D     		.sleb128 -368
 9137 1363 06       		.byte	0x6
 9138 1364 1A       		.byte	0x1a
 9139 1365 91       		.byte	0x91
 9140 1366 C87D     		.sleb128 -312
 9141 1368 06       		.byte	0x6
 9142 1369 27       		.byte	0x27
 9143 136a 22       		.byte	0x22
 9144 136b 73       		.byte	0x73
 9145 136c 00       		.sleb128 0
 9146 136d 91       		.byte	0x91
 9147 136e A07D     		.sleb128 -352
 9148 1370 06       		.byte	0x6
ARM GAS  C:\Users\Phuong\AppData\Local\Temp\ccuEFeTd.s 			page 172


 9149 1371 22       		.byte	0x22
 9150 1372 06       		.byte	0x6
 9151 1373 22       		.byte	0x22
 9152 1374 91       		.byte	0x91
 9153 1375 CC7D     		.sleb128 -308
 9154 1377 06       		.byte	0x6
 9155 1378 22       		.byte	0x22
 9156 1379 91       		.byte	0x91
 9157 137a A07D     		.sleb128 -352
 9158 137c 06       		.byte	0x6
 9159 137d 03       		.byte	0x3
 9160 137e 00000000 		.4byte	.LANCHOR0
 9161 1382 22       		.byte	0x22
 9162 1383 06       		.byte	0x6
 9163 1384 22       		.byte	0x22
 9164 1385 9F       		.byte	0x9f
 9165 1386 00070000 		.4byte	.LVL154
 9166 138a 18070000 		.4byte	.LVL155
 9167 138e 5B00     		.2byte	0x5b
 9168 1390 91       		.byte	0x91
 9169 1391 907D     		.sleb128 -368
 9170 1393 06       		.byte	0x6
 9171 1394 36       		.byte	0x36
 9172 1395 14       		.byte	0x14
 9173 1396 14       		.byte	0x14
 9174 1397 1F       		.byte	0x1f
 9175 1398 23       		.byte	0x23
 9176 1399 20       		.uleb128 0x20
 9177 139a 24       		.byte	0x24
 9178 139b 17       		.byte	0x17
 9179 139c 25       		.byte	0x25
 9180 139d 21       		.byte	0x21
 9181 139e 91       		.byte	0x91
 9182 139f 907D     		.sleb128 -368
 9183 13a1 06       		.byte	0x6
 9184 13a2 3B       		.byte	0x3b
 9185 13a3 14       		.byte	0x14
 9186 13a4 14       		.byte	0x14
 9187 13a5 1F       		.byte	0x1f
 9188 13a6 23       		.byte	0x23
 9189 13a7 20       		.uleb128 0x20
 9190 13a8 24       		.byte	0x24
 9191 13a9 17       		.byte	0x17
 9192 13aa 25       		.byte	0x25
 9193 13ab 21       		.byte	0x21
 9194 13ac 27       		.byte	0x27
 9195 13ad 91       		.byte	0x91
 9196 13ae 907D     		.sleb128 -368
 9197 13b0 06       		.byte	0x6
 9198 13b1 49       		.byte	0x49
 9199 13b2 14       		.byte	0x14
 9200 13b3 14       		.byte	0x14
 9201 13b4 1F       		.byte	0x1f
 9202 13b5 23       		.byte	0x23
 9203 13b6 20       		.uleb128 0x20
 9204 13b7 24       		.byte	0x24
 9205 13b8 17       		.byte	0x17
ARM GAS  C:\Users\Phuong\AppData\Local\Temp\ccuEFeTd.s 			page 173


 9206 13b9 25       		.byte	0x25
 9207 13ba 21       		.byte	0x21
 9208 13bb 27       		.byte	0x27
 9209 13bc 91       		.byte	0x91
 9210 13bd C87D     		.sleb128 -312
 9211 13bf 06       		.byte	0x6
 9212 13c0 91       		.byte	0x91
 9213 13c1 8C7D     		.sleb128 -372
 9214 13c3 06       		.byte	0x6
 9215 13c4 27       		.byte	0x27
 9216 13c5 91       		.byte	0x91
 9217 13c6 907D     		.sleb128 -368
 9218 13c8 06       		.byte	0x6
 9219 13c9 1A       		.byte	0x1a
 9220 13ca 91       		.byte	0x91
 9221 13cb C87D     		.sleb128 -312
 9222 13cd 06       		.byte	0x6
 9223 13ce 27       		.byte	0x27
 9224 13cf 22       		.byte	0x22
 9225 13d0 73       		.byte	0x73
 9226 13d1 00       		.sleb128 0
 9227 13d2 91       		.byte	0x91
 9228 13d3 A07D     		.sleb128 -352
 9229 13d5 06       		.byte	0x6
 9230 13d6 22       		.byte	0x22
 9231 13d7 06       		.byte	0x6
 9232 13d8 22       		.byte	0x22
 9233 13d9 91       		.byte	0x91
 9234 13da CC7D     		.sleb128 -308
 9235 13dc 06       		.byte	0x6
 9236 13dd 22       		.byte	0x22
 9237 13de 91       		.byte	0x91
 9238 13df A07D     		.sleb128 -352
 9239 13e1 06       		.byte	0x6
 9240 13e2 03       		.byte	0x3
 9241 13e3 00000000 		.4byte	.LANCHOR0
 9242 13e7 22       		.byte	0x22
 9243 13e8 06       		.byte	0x6
 9244 13e9 22       		.byte	0x22
 9245 13ea 9F       		.byte	0x9f
 9246 13eb 18070000 		.4byte	.LVL155
 9247 13ef 1A070000 		.4byte	.LVL156
 9248 13f3 5800     		.2byte	0x58
 9249 13f5 91       		.byte	0x91
 9250 13f6 907D     		.sleb128 -368
 9251 13f8 06       		.byte	0x6
 9252 13f9 36       		.byte	0x36
 9253 13fa 14       		.byte	0x14
 9254 13fb 14       		.byte	0x14
 9255 13fc 1F       		.byte	0x1f
 9256 13fd 23       		.byte	0x23
 9257 13fe 20       		.uleb128 0x20
 9258 13ff 24       		.byte	0x24
 9259 1400 17       		.byte	0x17
 9260 1401 25       		.byte	0x25
 9261 1402 21       		.byte	0x21
 9262 1403 91       		.byte	0x91
ARM GAS  C:\Users\Phuong\AppData\Local\Temp\ccuEFeTd.s 			page 174


 9263 1404 907D     		.sleb128 -368
 9264 1406 06       		.byte	0x6
 9265 1407 3B       		.byte	0x3b
 9266 1408 14       		.byte	0x14
 9267 1409 14       		.byte	0x14
 9268 140a 1F       		.byte	0x1f
 9269 140b 23       		.byte	0x23
 9270 140c 20       		.uleb128 0x20
 9271 140d 24       		.byte	0x24
 9272 140e 17       		.byte	0x17
 9273 140f 25       		.byte	0x25
 9274 1410 21       		.byte	0x21
 9275 1411 27       		.byte	0x27
 9276 1412 91       		.byte	0x91
 9277 1413 907D     		.sleb128 -368
 9278 1415 06       		.byte	0x6
 9279 1416 49       		.byte	0x49
 9280 1417 14       		.byte	0x14
 9281 1418 14       		.byte	0x14
 9282 1419 1F       		.byte	0x1f
 9283 141a 23       		.byte	0x23
 9284 141b 20       		.uleb128 0x20
 9285 141c 24       		.byte	0x24
 9286 141d 17       		.byte	0x17
 9287 141e 25       		.byte	0x25
 9288 141f 21       		.byte	0x21
 9289 1420 27       		.byte	0x27
 9290 1421 91       		.byte	0x91
 9291 1422 C87D     		.sleb128 -312
 9292 1424 06       		.byte	0x6
 9293 1425 91       		.byte	0x91
 9294 1426 8C7D     		.sleb128 -372
 9295 1428 06       		.byte	0x6
 9296 1429 27       		.byte	0x27
 9297 142a 91       		.byte	0x91
 9298 142b 907D     		.sleb128 -368
 9299 142d 06       		.byte	0x6
 9300 142e 1A       		.byte	0x1a
 9301 142f 91       		.byte	0x91
 9302 1430 C87D     		.sleb128 -312
 9303 1432 06       		.byte	0x6
 9304 1433 27       		.byte	0x27
 9305 1434 22       		.byte	0x22
 9306 1435 73       		.byte	0x73
 9307 1436 00       		.sleb128 0
 9308 1437 91       		.byte	0x91
 9309 1438 A07D     		.sleb128 -352
 9310 143a 06       		.byte	0x6
 9311 143b 22       		.byte	0x22
 9312 143c 06       		.byte	0x6
 9313 143d 22       		.byte	0x22
 9314 143e 91       		.byte	0x91
 9315 143f CC7D     		.sleb128 -308
 9316 1441 06       		.byte	0x6
 9317 1442 22       		.byte	0x22
 9318 1443 91       		.byte	0x91
 9319 1444 A07D     		.sleb128 -352
ARM GAS  C:\Users\Phuong\AppData\Local\Temp\ccuEFeTd.s 			page 175


 9320 1446 06       		.byte	0x6
 9321 1447 77       		.byte	0x77
 9322 1448 00       		.sleb128 0
 9323 1449 22       		.byte	0x22
 9324 144a 06       		.byte	0x6
 9325 144b 22       		.byte	0x22
 9326 144c 9F       		.byte	0x9f
 9327 144d 1A070000 		.4byte	.LVL156
 9328 1451 72070000 		.4byte	.LVL157
 9329 1455 5B00     		.2byte	0x5b
 9330 1457 91       		.byte	0x91
 9331 1458 907D     		.sleb128 -368
 9332 145a 06       		.byte	0x6
 9333 145b 36       		.byte	0x36
 9334 145c 14       		.byte	0x14
 9335 145d 14       		.byte	0x14
 9336 145e 1F       		.byte	0x1f
 9337 145f 23       		.byte	0x23
 9338 1460 20       		.uleb128 0x20
 9339 1461 24       		.byte	0x24
 9340 1462 17       		.byte	0x17
 9341 1463 25       		.byte	0x25
 9342 1464 21       		.byte	0x21
 9343 1465 91       		.byte	0x91
 9344 1466 907D     		.sleb128 -368
 9345 1468 06       		.byte	0x6
 9346 1469 3B       		.byte	0x3b
 9347 146a 14       		.byte	0x14
 9348 146b 14       		.byte	0x14
 9349 146c 1F       		.byte	0x1f
 9350 146d 23       		.byte	0x23
 9351 146e 20       		.uleb128 0x20
 9352 146f 24       		.byte	0x24
 9353 1470 17       		.byte	0x17
 9354 1471 25       		.byte	0x25
 9355 1472 21       		.byte	0x21
 9356 1473 27       		.byte	0x27
 9357 1474 91       		.byte	0x91
 9358 1475 907D     		.sleb128 -368
 9359 1477 06       		.byte	0x6
 9360 1478 49       		.byte	0x49
 9361 1479 14       		.byte	0x14
 9362 147a 14       		.byte	0x14
 9363 147b 1F       		.byte	0x1f
 9364 147c 23       		.byte	0x23
 9365 147d 20       		.uleb128 0x20
 9366 147e 24       		.byte	0x24
 9367 147f 17       		.byte	0x17
 9368 1480 25       		.byte	0x25
 9369 1481 21       		.byte	0x21
 9370 1482 27       		.byte	0x27
 9371 1483 91       		.byte	0x91
 9372 1484 C87D     		.sleb128 -312
 9373 1486 06       		.byte	0x6
 9374 1487 91       		.byte	0x91
 9375 1488 8C7D     		.sleb128 -372
 9376 148a 06       		.byte	0x6
ARM GAS  C:\Users\Phuong\AppData\Local\Temp\ccuEFeTd.s 			page 176


 9377 148b 27       		.byte	0x27
 9378 148c 91       		.byte	0x91
 9379 148d 907D     		.sleb128 -368
 9380 148f 06       		.byte	0x6
 9381 1490 1A       		.byte	0x1a
 9382 1491 91       		.byte	0x91
 9383 1492 C87D     		.sleb128 -312
 9384 1494 06       		.byte	0x6
 9385 1495 27       		.byte	0x27
 9386 1496 22       		.byte	0x22
 9387 1497 73       		.byte	0x73
 9388 1498 00       		.sleb128 0
 9389 1499 91       		.byte	0x91
 9390 149a A07D     		.sleb128 -352
 9391 149c 06       		.byte	0x6
 9392 149d 22       		.byte	0x22
 9393 149e 06       		.byte	0x6
 9394 149f 22       		.byte	0x22
 9395 14a0 91       		.byte	0x91
 9396 14a1 CC7D     		.sleb128 -308
 9397 14a3 06       		.byte	0x6
 9398 14a4 22       		.byte	0x22
 9399 14a5 91       		.byte	0x91
 9400 14a6 A07D     		.sleb128 -352
 9401 14a8 06       		.byte	0x6
 9402 14a9 03       		.byte	0x3
 9403 14aa 00000000 		.4byte	.LANCHOR0
 9404 14ae 22       		.byte	0x22
 9405 14af 06       		.byte	0x6
 9406 14b0 22       		.byte	0x22
 9407 14b1 9F       		.byte	0x9f
 9408 14b2 74070000 		.4byte	.LVL158
 9409 14b6 BE070000 		.4byte	.LVL163
 9410 14ba 0100     		.2byte	0x1
 9411 14bc 51       		.byte	0x51
 9412 14bd BE070000 		.4byte	.LVL163
 9413 14c1 C0070000 		.4byte	.LVL164
 9414 14c5 5E00     		.2byte	0x5e
 9415 14c7 91       		.byte	0x91
 9416 14c8 947D     		.sleb128 -364
 9417 14ca 06       		.byte	0x6
 9418 14cb 77       		.byte	0x77
 9419 14cc 05       		.sleb128 5
 9420 14cd 14       		.byte	0x14
 9421 14ce 14       		.byte	0x14
 9422 14cf 1F       		.byte	0x1f
 9423 14d0 23       		.byte	0x23
 9424 14d1 20       		.uleb128 0x20
 9425 14d2 24       		.byte	0x24
 9426 14d3 17       		.byte	0x17
 9427 14d4 25       		.byte	0x25
 9428 14d5 21       		.byte	0x21
 9429 14d6 91       		.byte	0x91
 9430 14d7 947D     		.sleb128 -364
 9431 14d9 06       		.byte	0x6
 9432 14da 77       		.byte	0x77
 9433 14db 00       		.sleb128 0
ARM GAS  C:\Users\Phuong\AppData\Local\Temp\ccuEFeTd.s 			page 177


 9434 14dc 14       		.byte	0x14
 9435 14dd 14       		.byte	0x14
 9436 14de 1F       		.byte	0x1f
 9437 14df 23       		.byte	0x23
 9438 14e0 20       		.uleb128 0x20
 9439 14e1 24       		.byte	0x24
 9440 14e2 17       		.byte	0x17
 9441 14e3 25       		.byte	0x25
 9442 14e4 21       		.byte	0x21
 9443 14e5 27       		.byte	0x27
 9444 14e6 91       		.byte	0x91
 9445 14e7 947D     		.sleb128 -364
 9446 14e9 06       		.byte	0x6
 9447 14ea 77       		.byte	0x77
 9448 14eb 13       		.sleb128 19
 9449 14ec 14       		.byte	0x14
 9450 14ed 14       		.byte	0x14
 9451 14ee 1F       		.byte	0x1f
 9452 14ef 23       		.byte	0x23
 9453 14f0 20       		.uleb128 0x20
 9454 14f1 24       		.byte	0x24
 9455 14f2 17       		.byte	0x17
 9456 14f3 25       		.byte	0x25
 9457 14f4 21       		.byte	0x21
 9458 14f5 27       		.byte	0x27
 9459 14f6 91       		.byte	0x91
 9460 14f7 8C7D     		.sleb128 -372
 9461 14f9 06       		.byte	0x6
 9462 14fa 91       		.byte	0x91
 9463 14fb 907D     		.sleb128 -368
 9464 14fd 06       		.byte	0x6
 9465 14fe 27       		.byte	0x27
 9466 14ff 91       		.byte	0x91
 9467 1500 947D     		.sleb128 -364
 9468 1502 06       		.byte	0x6
 9469 1503 1A       		.byte	0x1a
 9470 1504 91       		.byte	0x91
 9471 1505 8C7D     		.sleb128 -372
 9472 1507 06       		.byte	0x6
 9473 1508 27       		.byte	0x27
 9474 1509 22       		.byte	0x22
 9475 150a 73       		.byte	0x73
 9476 150b 00       		.sleb128 0
 9477 150c 91       		.byte	0x91
 9478 150d AC7D     		.sleb128 -340
 9479 150f 06       		.byte	0x6
 9480 1510 22       		.byte	0x22
 9481 1511 06       		.byte	0x6
 9482 1512 22       		.byte	0x22
 9483 1513 91       		.byte	0x91
 9484 1514 C87D     		.sleb128 -312
 9485 1516 06       		.byte	0x6
 9486 1517 22       		.byte	0x22
 9487 1518 91       		.byte	0x91
 9488 1519 AC7D     		.sleb128 -340
 9489 151b 06       		.byte	0x6
 9490 151c 03       		.byte	0x3
ARM GAS  C:\Users\Phuong\AppData\Local\Temp\ccuEFeTd.s 			page 178


 9491 151d 00000000 		.4byte	.LANCHOR0
 9492 1521 22       		.byte	0x22
 9493 1522 06       		.byte	0x6
 9494 1523 22       		.byte	0x22
 9495 1524 9F       		.byte	0x9f
 9496 1525 C0070000 		.4byte	.LVL164
 9497 1529 C8070000 		.4byte	.LVL165
 9498 152d 5D00     		.2byte	0x5d
 9499 152f 91       		.byte	0x91
 9500 1530 947D     		.sleb128 -364
 9501 1532 06       		.byte	0x6
 9502 1533 77       		.byte	0x77
 9503 1534 00       		.sleb128 0
 9504 1535 14       		.byte	0x14
 9505 1536 14       		.byte	0x14
 9506 1537 1F       		.byte	0x1f
 9507 1538 23       		.byte	0x23
 9508 1539 20       		.uleb128 0x20
 9509 153a 24       		.byte	0x24
 9510 153b 17       		.byte	0x17
 9511 153c 25       		.byte	0x25
 9512 153d 21       		.byte	0x21
 9513 153e 91       		.byte	0x91
 9514 153f 947D     		.sleb128 -364
 9515 1541 06       		.byte	0x6
 9516 1542 36       		.byte	0x36
 9517 1543 14       		.byte	0x14
 9518 1544 14       		.byte	0x14
 9519 1545 1F       		.byte	0x1f
 9520 1546 23       		.byte	0x23
 9521 1547 20       		.uleb128 0x20
 9522 1548 24       		.byte	0x24
 9523 1549 17       		.byte	0x17
 9524 154a 25       		.byte	0x25
 9525 154b 21       		.byte	0x21
 9526 154c 27       		.byte	0x27
 9527 154d 91       		.byte	0x91
 9528 154e 947D     		.sleb128 -364
 9529 1550 06       		.byte	0x6
 9530 1551 77       		.byte	0x77
 9531 1552 0E       		.sleb128 14
 9532 1553 14       		.byte	0x14
 9533 1554 14       		.byte	0x14
 9534 1555 1F       		.byte	0x1f
 9535 1556 23       		.byte	0x23
 9536 1557 20       		.uleb128 0x20
 9537 1558 24       		.byte	0x24
 9538 1559 17       		.byte	0x17
 9539 155a 25       		.byte	0x25
 9540 155b 21       		.byte	0x21
 9541 155c 27       		.byte	0x27
 9542 155d 91       		.byte	0x91
 9543 155e 8C7D     		.sleb128 -372
 9544 1560 06       		.byte	0x6
 9545 1561 91       		.byte	0x91
 9546 1562 907D     		.sleb128 -368
 9547 1564 06       		.byte	0x6
ARM GAS  C:\Users\Phuong\AppData\Local\Temp\ccuEFeTd.s 			page 179


 9548 1565 27       		.byte	0x27
 9549 1566 91       		.byte	0x91
 9550 1567 947D     		.sleb128 -364
 9551 1569 06       		.byte	0x6
 9552 156a 1A       		.byte	0x1a
 9553 156b 91       		.byte	0x91
 9554 156c 8C7D     		.sleb128 -372
 9555 156e 06       		.byte	0x6
 9556 156f 27       		.byte	0x27
 9557 1570 22       		.byte	0x22
 9558 1571 73       		.byte	0x73
 9559 1572 00       		.sleb128 0
 9560 1573 91       		.byte	0x91
 9561 1574 AC7D     		.sleb128 -340
 9562 1576 06       		.byte	0x6
 9563 1577 22       		.byte	0x22
 9564 1578 06       		.byte	0x6
 9565 1579 22       		.byte	0x22
 9566 157a 91       		.byte	0x91
 9567 157b C87D     		.sleb128 -312
 9568 157d 06       		.byte	0x6
 9569 157e 22       		.byte	0x22
 9570 157f 91       		.byte	0x91
 9571 1580 AC7D     		.sleb128 -340
 9572 1582 06       		.byte	0x6
 9573 1583 03       		.byte	0x3
 9574 1584 00000000 		.4byte	.LANCHOR0
 9575 1588 22       		.byte	0x22
 9576 1589 06       		.byte	0x6
 9577 158a 22       		.byte	0x22
 9578 158b 9F       		.byte	0x9f
 9579 158c C8070000 		.4byte	.LVL165
 9580 1590 CE070000 		.4byte	.LVL166
 9581 1594 5D00     		.2byte	0x5d
 9582 1596 91       		.byte	0x91
 9583 1597 947D     		.sleb128 -364
 9584 1599 06       		.byte	0x6
 9585 159a 77       		.byte	0x77
 9586 159b 72       		.sleb128 -14
 9587 159c 14       		.byte	0x14
 9588 159d 14       		.byte	0x14
 9589 159e 1F       		.byte	0x1f
 9590 159f 23       		.byte	0x23
 9591 15a0 20       		.uleb128 0x20
 9592 15a1 24       		.byte	0x24
 9593 15a2 17       		.byte	0x17
 9594 15a3 25       		.byte	0x25
 9595 15a4 21       		.byte	0x21
 9596 15a5 91       		.byte	0x91
 9597 15a6 947D     		.sleb128 -364
 9598 15a8 06       		.byte	0x6
 9599 15a9 36       		.byte	0x36
 9600 15aa 14       		.byte	0x14
 9601 15ab 14       		.byte	0x14
 9602 15ac 1F       		.byte	0x1f
 9603 15ad 23       		.byte	0x23
 9604 15ae 20       		.uleb128 0x20
ARM GAS  C:\Users\Phuong\AppData\Local\Temp\ccuEFeTd.s 			page 180


 9605 15af 24       		.byte	0x24
 9606 15b0 17       		.byte	0x17
 9607 15b1 25       		.byte	0x25
 9608 15b2 21       		.byte	0x21
 9609 15b3 27       		.byte	0x27
 9610 15b4 91       		.byte	0x91
 9611 15b5 947D     		.sleb128 -364
 9612 15b7 06       		.byte	0x6
 9613 15b8 77       		.byte	0x77
 9614 15b9 00       		.sleb128 0
 9615 15ba 14       		.byte	0x14
 9616 15bb 14       		.byte	0x14
 9617 15bc 1F       		.byte	0x1f
 9618 15bd 23       		.byte	0x23
 9619 15be 20       		.uleb128 0x20
 9620 15bf 24       		.byte	0x24
 9621 15c0 17       		.byte	0x17
 9622 15c1 25       		.byte	0x25
 9623 15c2 21       		.byte	0x21
 9624 15c3 27       		.byte	0x27
 9625 15c4 91       		.byte	0x91
 9626 15c5 8C7D     		.sleb128 -372
 9627 15c7 06       		.byte	0x6
 9628 15c8 91       		.byte	0x91
 9629 15c9 907D     		.sleb128 -368
 9630 15cb 06       		.byte	0x6
 9631 15cc 27       		.byte	0x27
 9632 15cd 91       		.byte	0x91
 9633 15ce 947D     		.sleb128 -364
 9634 15d0 06       		.byte	0x6
 9635 15d1 1A       		.byte	0x1a
 9636 15d2 91       		.byte	0x91
 9637 15d3 8C7D     		.sleb128 -372
 9638 15d5 06       		.byte	0x6
 9639 15d6 27       		.byte	0x27
 9640 15d7 22       		.byte	0x22
 9641 15d8 73       		.byte	0x73
 9642 15d9 00       		.sleb128 0
 9643 15da 91       		.byte	0x91
 9644 15db AC7D     		.sleb128 -340
 9645 15dd 06       		.byte	0x6
 9646 15de 22       		.byte	0x22
 9647 15df 06       		.byte	0x6
 9648 15e0 22       		.byte	0x22
 9649 15e1 91       		.byte	0x91
 9650 15e2 C87D     		.sleb128 -312
 9651 15e4 06       		.byte	0x6
 9652 15e5 22       		.byte	0x22
 9653 15e6 91       		.byte	0x91
 9654 15e7 AC7D     		.sleb128 -340
 9655 15e9 06       		.byte	0x6
 9656 15ea 03       		.byte	0x3
 9657 15eb 00000000 		.4byte	.LANCHOR0
 9658 15ef 22       		.byte	0x22
 9659 15f0 06       		.byte	0x6
 9660 15f1 22       		.byte	0x22
 9661 15f2 9F       		.byte	0x9f
ARM GAS  C:\Users\Phuong\AppData\Local\Temp\ccuEFeTd.s 			page 181


 9662 15f3 CE070000 		.4byte	.LVL166
 9663 15f7 EA070000 		.4byte	.LVL167
 9664 15fb 5B00     		.2byte	0x5b
 9665 15fd 91       		.byte	0x91
 9666 15fe 947D     		.sleb128 -364
 9667 1600 06       		.byte	0x6
 9668 1601 3B       		.byte	0x3b
 9669 1602 14       		.byte	0x14
 9670 1603 14       		.byte	0x14
 9671 1604 1F       		.byte	0x1f
 9672 1605 23       		.byte	0x23
 9673 1606 20       		.uleb128 0x20
 9674 1607 24       		.byte	0x24
 9675 1608 17       		.byte	0x17
 9676 1609 25       		.byte	0x25
 9677 160a 21       		.byte	0x21
 9678 160b 91       		.byte	0x91
 9679 160c 947D     		.sleb128 -364
 9680 160e 06       		.byte	0x6
 9681 160f 36       		.byte	0x36
 9682 1610 14       		.byte	0x14
 9683 1611 14       		.byte	0x14
 9684 1612 1F       		.byte	0x1f
 9685 1613 23       		.byte	0x23
 9686 1614 20       		.uleb128 0x20
 9687 1615 24       		.byte	0x24
 9688 1616 17       		.byte	0x17
 9689 1617 25       		.byte	0x25
 9690 1618 21       		.byte	0x21
 9691 1619 27       		.byte	0x27
 9692 161a 91       		.byte	0x91
 9693 161b 947D     		.sleb128 -364
 9694 161d 06       		.byte	0x6
 9695 161e 49       		.byte	0x49
 9696 161f 14       		.byte	0x14
 9697 1620 14       		.byte	0x14
 9698 1621 1F       		.byte	0x1f
 9699 1622 23       		.byte	0x23
 9700 1623 20       		.uleb128 0x20
 9701 1624 24       		.byte	0x24
 9702 1625 17       		.byte	0x17
 9703 1626 25       		.byte	0x25
 9704 1627 21       		.byte	0x21
 9705 1628 27       		.byte	0x27
 9706 1629 91       		.byte	0x91
 9707 162a 8C7D     		.sleb128 -372
 9708 162c 06       		.byte	0x6
 9709 162d 91       		.byte	0x91
 9710 162e 907D     		.sleb128 -368
 9711 1630 06       		.byte	0x6
 9712 1631 27       		.byte	0x27
 9713 1632 91       		.byte	0x91
 9714 1633 947D     		.sleb128 -364
 9715 1635 06       		.byte	0x6
 9716 1636 1A       		.byte	0x1a
 9717 1637 91       		.byte	0x91
 9718 1638 8C7D     		.sleb128 -372
ARM GAS  C:\Users\Phuong\AppData\Local\Temp\ccuEFeTd.s 			page 182


 9719 163a 06       		.byte	0x6
 9720 163b 27       		.byte	0x27
 9721 163c 22       		.byte	0x22
 9722 163d 73       		.byte	0x73
 9723 163e 00       		.sleb128 0
 9724 163f 91       		.byte	0x91
 9725 1640 AC7D     		.sleb128 -340
 9726 1642 06       		.byte	0x6
 9727 1643 22       		.byte	0x22
 9728 1644 06       		.byte	0x6
 9729 1645 22       		.byte	0x22
 9730 1646 91       		.byte	0x91
 9731 1647 C87D     		.sleb128 -312
 9732 1649 06       		.byte	0x6
 9733 164a 22       		.byte	0x22
 9734 164b 91       		.byte	0x91
 9735 164c AC7D     		.sleb128 -340
 9736 164e 06       		.byte	0x6
 9737 164f 03       		.byte	0x3
 9738 1650 00000000 		.4byte	.LANCHOR0
 9739 1654 22       		.byte	0x22
 9740 1655 06       		.byte	0x6
 9741 1656 22       		.byte	0x22
 9742 1657 9F       		.byte	0x9f
 9743 1658 EA070000 		.4byte	.LVL167
 9744 165c F4070000 		.4byte	.LVL168
 9745 1660 5800     		.2byte	0x58
 9746 1662 91       		.byte	0x91
 9747 1663 947D     		.sleb128 -364
 9748 1665 06       		.byte	0x6
 9749 1666 3B       		.byte	0x3b
 9750 1667 14       		.byte	0x14
 9751 1668 14       		.byte	0x14
 9752 1669 1F       		.byte	0x1f
 9753 166a 23       		.byte	0x23
 9754 166b 20       		.uleb128 0x20
 9755 166c 24       		.byte	0x24
 9756 166d 17       		.byte	0x17
 9757 166e 25       		.byte	0x25
 9758 166f 21       		.byte	0x21
 9759 1670 91       		.byte	0x91
 9760 1671 947D     		.sleb128 -364
 9761 1673 06       		.byte	0x6
 9762 1674 36       		.byte	0x36
 9763 1675 14       		.byte	0x14
 9764 1676 14       		.byte	0x14
 9765 1677 1F       		.byte	0x1f
 9766 1678 23       		.byte	0x23
 9767 1679 20       		.uleb128 0x20
 9768 167a 24       		.byte	0x24
 9769 167b 17       		.byte	0x17
 9770 167c 25       		.byte	0x25
 9771 167d 21       		.byte	0x21
 9772 167e 27       		.byte	0x27
 9773 167f 91       		.byte	0x91
 9774 1680 947D     		.sleb128 -364
 9775 1682 06       		.byte	0x6
ARM GAS  C:\Users\Phuong\AppData\Local\Temp\ccuEFeTd.s 			page 183


 9776 1683 49       		.byte	0x49
 9777 1684 14       		.byte	0x14
 9778 1685 14       		.byte	0x14
 9779 1686 1F       		.byte	0x1f
 9780 1687 23       		.byte	0x23
 9781 1688 20       		.uleb128 0x20
 9782 1689 24       		.byte	0x24
 9783 168a 17       		.byte	0x17
 9784 168b 25       		.byte	0x25
 9785 168c 21       		.byte	0x21
 9786 168d 27       		.byte	0x27
 9787 168e 91       		.byte	0x91
 9788 168f 8C7D     		.sleb128 -372
 9789 1691 06       		.byte	0x6
 9790 1692 91       		.byte	0x91
 9791 1693 907D     		.sleb128 -368
 9792 1695 06       		.byte	0x6
 9793 1696 27       		.byte	0x27
 9794 1697 91       		.byte	0x91
 9795 1698 947D     		.sleb128 -364
 9796 169a 06       		.byte	0x6
 9797 169b 1A       		.byte	0x1a
 9798 169c 91       		.byte	0x91
 9799 169d 8C7D     		.sleb128 -372
 9800 169f 06       		.byte	0x6
 9801 16a0 27       		.byte	0x27
 9802 16a1 22       		.byte	0x22
 9803 16a2 73       		.byte	0x73
 9804 16a3 00       		.sleb128 0
 9805 16a4 91       		.byte	0x91
 9806 16a5 AC7D     		.sleb128 -340
 9807 16a7 06       		.byte	0x6
 9808 16a8 22       		.byte	0x22
 9809 16a9 06       		.byte	0x6
 9810 16aa 22       		.byte	0x22
 9811 16ab 91       		.byte	0x91
 9812 16ac C87D     		.sleb128 -312
 9813 16ae 06       		.byte	0x6
 9814 16af 22       		.byte	0x22
 9815 16b0 91       		.byte	0x91
 9816 16b1 AC7D     		.sleb128 -340
 9817 16b3 06       		.byte	0x6
 9818 16b4 76       		.byte	0x76
 9819 16b5 00       		.sleb128 0
 9820 16b6 22       		.byte	0x22
 9821 16b7 06       		.byte	0x6
 9822 16b8 22       		.byte	0x22
 9823 16b9 9F       		.byte	0x9f
 9824 16ba 46080000 		.4byte	.LVL170
 9825 16be 86080000 		.4byte	.LVL177
 9826 16c2 0100     		.2byte	0x1
 9827 16c4 51       		.byte	0x51
 9828 16c5 22090000 		.4byte	.LVL179
 9829 16c9 54090000 		.4byte	.LVL185
 9830 16cd 0100     		.2byte	0x1
 9831 16cf 55       		.byte	0x55
 9832 16d0 54090000 		.4byte	.LVL185
ARM GAS  C:\Users\Phuong\AppData\Local\Temp\ccuEFeTd.s 			page 184


 9833 16d4 5A090000 		.4byte	.LVL186
 9834 16d8 5300     		.2byte	0x53
 9835 16da 70       		.byte	0x70
 9836 16db 00       		.sleb128 0
 9837 16dc 36       		.byte	0x36
 9838 16dd 14       		.byte	0x14
 9839 16de 14       		.byte	0x14
 9840 16df 1F       		.byte	0x1f
 9841 16e0 23       		.byte	0x23
 9842 16e1 20       		.uleb128 0x20
 9843 16e2 24       		.byte	0x24
 9844 16e3 17       		.byte	0x17
 9845 16e4 25       		.byte	0x25
 9846 16e5 21       		.byte	0x21
 9847 16e6 70       		.byte	0x70
 9848 16e7 00       		.sleb128 0
 9849 16e8 3B       		.byte	0x3b
 9850 16e9 14       		.byte	0x14
 9851 16ea 14       		.byte	0x14
 9852 16eb 1F       		.byte	0x1f
 9853 16ec 23       		.byte	0x23
 9854 16ed 20       		.uleb128 0x20
 9855 16ee 24       		.byte	0x24
 9856 16ef 17       		.byte	0x17
 9857 16f0 25       		.byte	0x25
 9858 16f1 21       		.byte	0x21
 9859 16f2 27       		.byte	0x27
 9860 16f3 70       		.byte	0x70
 9861 16f4 00       		.sleb128 0
 9862 16f5 49       		.byte	0x49
 9863 16f6 14       		.byte	0x14
 9864 16f7 14       		.byte	0x14
 9865 16f8 1F       		.byte	0x1f
 9866 16f9 23       		.byte	0x23
 9867 16fa 20       		.uleb128 0x20
 9868 16fb 24       		.byte	0x24
 9869 16fc 17       		.byte	0x17
 9870 16fd 25       		.byte	0x25
 9871 16fe 21       		.byte	0x21
 9872 16ff 27       		.byte	0x27
 9873 1700 91       		.byte	0x91
 9874 1701 9C7D     		.sleb128 -356
 9875 1703 06       		.byte	0x6
 9876 1704 91       		.byte	0x91
 9877 1705 947D     		.sleb128 -364
 9878 1707 06       		.byte	0x6
 9879 1708 27       		.byte	0x27
 9880 1709 70       		.byte	0x70
 9881 170a 00       		.sleb128 0
 9882 170b 1A       		.byte	0x1a
 9883 170c 91       		.byte	0x91
 9884 170d 947D     		.sleb128 -364
 9885 170f 06       		.byte	0x6
 9886 1710 27       		.byte	0x27
 9887 1711 22       		.byte	0x22
 9888 1712 73       		.byte	0x73
 9889 1713 00       		.sleb128 0
ARM GAS  C:\Users\Phuong\AppData\Local\Temp\ccuEFeTd.s 			page 185


 9890 1714 91       		.byte	0x91
 9891 1715 A07D     		.sleb128 -352
 9892 1717 06       		.byte	0x6
 9893 1718 22       		.byte	0x22
 9894 1719 06       		.byte	0x6
 9895 171a 22       		.byte	0x22
 9896 171b 91       		.byte	0x91
 9897 171c 907D     		.sleb128 -368
 9898 171e 06       		.byte	0x6
 9899 171f 22       		.byte	0x22
 9900 1720 91       		.byte	0x91
 9901 1721 A07D     		.sleb128 -352
 9902 1723 06       		.byte	0x6
 9903 1724 03       		.byte	0x3
 9904 1725 00000000 		.4byte	.LANCHOR0
 9905 1729 22       		.byte	0x22
 9906 172a 06       		.byte	0x6
 9907 172b 22       		.byte	0x22
 9908 172c 9F       		.byte	0x9f
 9909 172d 5A090000 		.4byte	.LVL186
 9910 1731 6C090000 		.4byte	.LVL188
 9911 1735 5600     		.2byte	0x56
 9912 1737 70       		.byte	0x70
 9913 1738 00       		.sleb128 0
 9914 1739 76       		.byte	0x76
 9915 173a 00       		.sleb128 0
 9916 173b 14       		.byte	0x14
 9917 173c 14       		.byte	0x14
 9918 173d 1F       		.byte	0x1f
 9919 173e 23       		.byte	0x23
 9920 173f 20       		.uleb128 0x20
 9921 1740 24       		.byte	0x24
 9922 1741 17       		.byte	0x17
 9923 1742 25       		.byte	0x25
 9924 1743 21       		.byte	0x21
 9925 1744 70       		.byte	0x70
 9926 1745 00       		.sleb128 0
 9927 1746 76       		.byte	0x76
 9928 1747 05       		.sleb128 5
 9929 1748 14       		.byte	0x14
 9930 1749 14       		.byte	0x14
 9931 174a 1F       		.byte	0x1f
 9932 174b 23       		.byte	0x23
 9933 174c 20       		.uleb128 0x20
 9934 174d 24       		.byte	0x24
 9935 174e 17       		.byte	0x17
 9936 174f 25       		.byte	0x25
 9937 1750 21       		.byte	0x21
 9938 1751 27       		.byte	0x27
 9939 1752 70       		.byte	0x70
 9940 1753 00       		.sleb128 0
 9941 1754 76       		.byte	0x76
 9942 1755 13       		.sleb128 19
 9943 1756 14       		.byte	0x14
 9944 1757 14       		.byte	0x14
 9945 1758 1F       		.byte	0x1f
 9946 1759 23       		.byte	0x23
ARM GAS  C:\Users\Phuong\AppData\Local\Temp\ccuEFeTd.s 			page 186


 9947 175a 20       		.uleb128 0x20
 9948 175b 24       		.byte	0x24
 9949 175c 17       		.byte	0x17
 9950 175d 25       		.byte	0x25
 9951 175e 21       		.byte	0x21
 9952 175f 27       		.byte	0x27
 9953 1760 91       		.byte	0x91
 9954 1761 9C7D     		.sleb128 -356
 9955 1763 06       		.byte	0x6
 9956 1764 91       		.byte	0x91
 9957 1765 947D     		.sleb128 -364
 9958 1767 06       		.byte	0x6
 9959 1768 27       		.byte	0x27
 9960 1769 70       		.byte	0x70
 9961 176a 00       		.sleb128 0
 9962 176b 1A       		.byte	0x1a
 9963 176c 91       		.byte	0x91
 9964 176d 947D     		.sleb128 -364
 9965 176f 06       		.byte	0x6
 9966 1770 27       		.byte	0x27
 9967 1771 22       		.byte	0x22
 9968 1772 73       		.byte	0x73
 9969 1773 00       		.sleb128 0
 9970 1774 91       		.byte	0x91
 9971 1775 A07D     		.sleb128 -352
 9972 1777 06       		.byte	0x6
 9973 1778 22       		.byte	0x22
 9974 1779 06       		.byte	0x6
 9975 177a 22       		.byte	0x22
 9976 177b 91       		.byte	0x91
 9977 177c 907D     		.sleb128 -368
 9978 177e 06       		.byte	0x6
 9979 177f 22       		.byte	0x22
 9980 1780 91       		.byte	0x91
 9981 1781 A07D     		.sleb128 -352
 9982 1783 06       		.byte	0x6
 9983 1784 03       		.byte	0x3
 9984 1785 00000000 		.4byte	.LANCHOR0
 9985 1789 22       		.byte	0x22
 9986 178a 06       		.byte	0x6
 9987 178b 22       		.byte	0x22
 9988 178c 9F       		.byte	0x9f
 9989 178d F6090000 		.4byte	.LVL189
 9990 1791 340A0000 		.4byte	.LVL195
 9991 1795 0100     		.2byte	0x1
 9992 1797 59       		.byte	0x59
 9993 1798 D00A0000 		.4byte	.LVL197
 9994 179c 060B0000 		.4byte	.LVL201
 9995 17a0 0100     		.2byte	0x1
 9996 17a2 54       		.byte	0x54
 9997 17a3 00000000 		.4byte	0
 9998 17a7 00000000 		.4byte	0
 9999              	.LLST10:
 10000 17ab CA000000 		.4byte	.LVL19
 10001 17af D0000000 		.4byte	.LVL20
 10002 17b3 0100     		.2byte	0x1
 10003 17b5 50       		.byte	0x50
ARM GAS  C:\Users\Phuong\AppData\Local\Temp\ccuEFeTd.s 			page 187


 10004 17b6 D0000000 		.4byte	.LVL20
 10005 17ba D8000000 		.4byte	.LVL22
 10006 17be 4000     		.2byte	0x40
 10007 17c0 91       		.byte	0x91
 10008 17c1 B87D     		.sleb128 -328
 10009 17c3 06       		.byte	0x6
 10010 17c4 3D       		.byte	0x3d
 10011 17c5 14       		.byte	0x14
 10012 17c6 14       		.byte	0x14
 10013 17c7 1F       		.byte	0x1f
 10014 17c8 23       		.byte	0x23
 10015 17c9 20       		.uleb128 0x20
 10016 17ca 24       		.byte	0x24
 10017 17cb 17       		.byte	0x17
 10018 17cc 25       		.byte	0x25
 10019 17cd 21       		.byte	0x21
 10020 17ce 91       		.byte	0x91
 10021 17cf B87D     		.sleb128 -328
 10022 17d1 06       		.byte	0x6
 10023 17d2 32       		.byte	0x32
 10024 17d3 14       		.byte	0x14
 10025 17d4 14       		.byte	0x14
 10026 17d5 1F       		.byte	0x1f
 10027 17d6 23       		.byte	0x23
 10028 17d7 20       		.uleb128 0x20
 10029 17d8 24       		.byte	0x24
 10030 17d9 17       		.byte	0x17
 10031 17da 25       		.byte	0x25
 10032 17db 21       		.byte	0x21
 10033 17dc 27       		.byte	0x27
 10034 17dd 91       		.byte	0x91
 10035 17de B87D     		.sleb128 -328
 10036 17e0 06       		.byte	0x6
 10037 17e1 46       		.byte	0x46
 10038 17e2 14       		.byte	0x14
 10039 17e3 14       		.byte	0x14
 10040 17e4 1F       		.byte	0x1f
 10041 17e5 23       		.byte	0x23
 10042 17e6 20       		.uleb128 0x20
 10043 17e7 24       		.byte	0x24
 10044 17e8 17       		.byte	0x17
 10045 17e9 25       		.byte	0x25
 10046 17ea 21       		.byte	0x21
 10047 17eb 27       		.byte	0x27
 10048 17ec 75       		.byte	0x75
 10049 17ed 00       		.sleb128 0
 10050 17ee 91       		.byte	0x91
 10051 17ef B87D     		.sleb128 -328
 10052 17f1 06       		.byte	0x6
 10053 17f2 1A       		.byte	0x1a
 10054 17f3 91       		.byte	0x91
 10055 17f4 B87D     		.sleb128 -328
 10056 17f6 06       		.byte	0x6
 10057 17f7 75       		.byte	0x75
 10058 17f8 00       		.sleb128 0
 10059 17f9 21       		.byte	0x21
 10060 17fa 76       		.byte	0x76
ARM GAS  C:\Users\Phuong\AppData\Local\Temp\ccuEFeTd.s 			page 188


 10061 17fb 00       		.sleb128 0
 10062 17fc 1A       		.byte	0x1a
 10063 17fd 21       		.byte	0x21
 10064 17fe 22       		.byte	0x22
 10065 17ff 9F       		.byte	0x9f
 10066 1800 D8000000 		.4byte	.LVL22
 10067 1804 0A010000 		.4byte	.LVL28
 10068 1808 4400     		.2byte	0x44
 10069 180a 91       		.byte	0x91
 10070 180b B87D     		.sleb128 -328
 10071 180d 06       		.byte	0x6
 10072 180e 3D       		.byte	0x3d
 10073 180f 14       		.byte	0x14
 10074 1810 14       		.byte	0x14
 10075 1811 1F       		.byte	0x1f
 10076 1812 23       		.byte	0x23
 10077 1813 20       		.uleb128 0x20
 10078 1814 24       		.byte	0x24
 10079 1815 17       		.byte	0x17
 10080 1816 25       		.byte	0x25
 10081 1817 21       		.byte	0x21
 10082 1818 91       		.byte	0x91
 10083 1819 B87D     		.sleb128 -328
 10084 181b 06       		.byte	0x6
 10085 181c 32       		.byte	0x32
 10086 181d 14       		.byte	0x14
 10087 181e 14       		.byte	0x14
 10088 181f 1F       		.byte	0x1f
 10089 1820 23       		.byte	0x23
 10090 1821 20       		.uleb128 0x20
 10091 1822 24       		.byte	0x24
 10092 1823 17       		.byte	0x17
 10093 1824 25       		.byte	0x25
 10094 1825 21       		.byte	0x21
 10095 1826 27       		.byte	0x27
 10096 1827 91       		.byte	0x91
 10097 1828 B87D     		.sleb128 -328
 10098 182a 06       		.byte	0x6
 10099 182b 46       		.byte	0x46
 10100 182c 14       		.byte	0x14
 10101 182d 14       		.byte	0x14
 10102 182e 1F       		.byte	0x1f
 10103 182f 23       		.byte	0x23
 10104 1830 20       		.uleb128 0x20
 10105 1831 24       		.byte	0x24
 10106 1832 17       		.byte	0x17
 10107 1833 25       		.byte	0x25
 10108 1834 21       		.byte	0x21
 10109 1835 27       		.byte	0x27
 10110 1836 91       		.byte	0x91
 10111 1837 BC7D     		.sleb128 -324
 10112 1839 06       		.byte	0x6
 10113 183a 91       		.byte	0x91
 10114 183b B87D     		.sleb128 -328
 10115 183d 06       		.byte	0x6
 10116 183e 1A       		.byte	0x1a
 10117 183f 91       		.byte	0x91
ARM GAS  C:\Users\Phuong\AppData\Local\Temp\ccuEFeTd.s 			page 189


 10118 1840 B87D     		.sleb128 -328
 10119 1842 06       		.byte	0x6
 10120 1843 91       		.byte	0x91
 10121 1844 BC7D     		.sleb128 -324
 10122 1846 06       		.byte	0x6
 10123 1847 21       		.byte	0x21
 10124 1848 76       		.byte	0x76
 10125 1849 00       		.sleb128 0
 10126 184a 1A       		.byte	0x1a
 10127 184b 21       		.byte	0x21
 10128 184c 22       		.byte	0x22
 10129 184d 9F       		.byte	0x9f
 10130 184e 0A010000 		.4byte	.LVL28
 10131 1852 0C010000 		.4byte	.LVL29
 10132 1856 3F00     		.2byte	0x3f
 10133 1858 71       		.byte	0x71
 10134 1859 00       		.sleb128 0
 10135 185a 06       		.byte	0x6
 10136 185b 3D       		.byte	0x3d
 10137 185c 14       		.byte	0x14
 10138 185d 14       		.byte	0x14
 10139 185e 1F       		.byte	0x1f
 10140 185f 23       		.byte	0x23
 10141 1860 20       		.uleb128 0x20
 10142 1861 24       		.byte	0x24
 10143 1862 17       		.byte	0x17
 10144 1863 25       		.byte	0x25
 10145 1864 21       		.byte	0x21
 10146 1865 71       		.byte	0x71
 10147 1866 00       		.sleb128 0
 10148 1867 06       		.byte	0x6
 10149 1868 32       		.byte	0x32
 10150 1869 14       		.byte	0x14
 10151 186a 14       		.byte	0x14
 10152 186b 1F       		.byte	0x1f
 10153 186c 23       		.byte	0x23
 10154 186d 20       		.uleb128 0x20
 10155 186e 24       		.byte	0x24
 10156 186f 17       		.byte	0x17
 10157 1870 25       		.byte	0x25
 10158 1871 21       		.byte	0x21
 10159 1872 27       		.byte	0x27
 10160 1873 71       		.byte	0x71
 10161 1874 00       		.sleb128 0
 10162 1875 06       		.byte	0x6
 10163 1876 46       		.byte	0x46
 10164 1877 14       		.byte	0x14
 10165 1878 14       		.byte	0x14
 10166 1879 1F       		.byte	0x1f
 10167 187a 23       		.byte	0x23
 10168 187b 20       		.uleb128 0x20
 10169 187c 24       		.byte	0x24
 10170 187d 17       		.byte	0x17
 10171 187e 25       		.byte	0x25
 10172 187f 21       		.byte	0x21
 10173 1880 27       		.byte	0x27
 10174 1881 91       		.byte	0x91
ARM GAS  C:\Users\Phuong\AppData\Local\Temp\ccuEFeTd.s 			page 190


 10175 1882 BC7D     		.sleb128 -324
 10176 1884 06       		.byte	0x6
 10177 1885 71       		.byte	0x71
 10178 1886 00       		.sleb128 0
 10179 1887 06       		.byte	0x6
 10180 1888 1A       		.byte	0x1a
 10181 1889 71       		.byte	0x71
 10182 188a 00       		.sleb128 0
 10183 188b 06       		.byte	0x6
 10184 188c 91       		.byte	0x91
 10185 188d BC7D     		.sleb128 -324
 10186 188f 06       		.byte	0x6
 10187 1890 21       		.byte	0x21
 10188 1891 76       		.byte	0x76
 10189 1892 00       		.sleb128 0
 10190 1893 1A       		.byte	0x1a
 10191 1894 21       		.byte	0x21
 10192 1895 22       		.byte	0x22
 10193 1896 9F       		.byte	0x9f
 10194 1897 0C010000 		.4byte	.LVL29
 10195 189b 0E010000 		.4byte	.LVL30
 10196 189f 4100     		.2byte	0x41
 10197 18a1 71       		.byte	0x71
 10198 18a2 00       		.sleb128 0
 10199 18a3 06       		.byte	0x6
 10200 18a4 77       		.byte	0x77
 10201 18a5 6D       		.sleb128 -19
 10202 18a6 14       		.byte	0x14
 10203 18a7 14       		.byte	0x14
 10204 18a8 1F       		.byte	0x1f
 10205 18a9 23       		.byte	0x23
 10206 18aa 20       		.uleb128 0x20
 10207 18ab 24       		.byte	0x24
 10208 18ac 17       		.byte	0x17
 10209 18ad 25       		.byte	0x25
 10210 18ae 21       		.byte	0x21
 10211 18af 71       		.byte	0x71
 10212 18b0 00       		.sleb128 0
 10213 18b1 06       		.byte	0x6
 10214 18b2 32       		.byte	0x32
 10215 18b3 14       		.byte	0x14
 10216 18b4 14       		.byte	0x14
 10217 18b5 1F       		.byte	0x1f
 10218 18b6 23       		.byte	0x23
 10219 18b7 20       		.uleb128 0x20
 10220 18b8 24       		.byte	0x24
 10221 18b9 17       		.byte	0x17
 10222 18ba 25       		.byte	0x25
 10223 18bb 21       		.byte	0x21
 10224 18bc 27       		.byte	0x27
 10225 18bd 71       		.byte	0x71
 10226 18be 00       		.sleb128 0
 10227 18bf 06       		.byte	0x6
 10228 18c0 77       		.byte	0x77
 10229 18c1 76       		.sleb128 -10
 10230 18c2 14       		.byte	0x14
 10231 18c3 14       		.byte	0x14
ARM GAS  C:\Users\Phuong\AppData\Local\Temp\ccuEFeTd.s 			page 191


 10232 18c4 1F       		.byte	0x1f
 10233 18c5 23       		.byte	0x23
 10234 18c6 20       		.uleb128 0x20
 10235 18c7 24       		.byte	0x24
 10236 18c8 17       		.byte	0x17
 10237 18c9 25       		.byte	0x25
 10238 18ca 21       		.byte	0x21
 10239 18cb 27       		.byte	0x27
 10240 18cc 91       		.byte	0x91
 10241 18cd BC7D     		.sleb128 -324
 10242 18cf 06       		.byte	0x6
 10243 18d0 71       		.byte	0x71
 10244 18d1 00       		.sleb128 0
 10245 18d2 06       		.byte	0x6
 10246 18d3 1A       		.byte	0x1a
 10247 18d4 71       		.byte	0x71
 10248 18d5 00       		.sleb128 0
 10249 18d6 06       		.byte	0x6
 10250 18d7 91       		.byte	0x91
 10251 18d8 BC7D     		.sleb128 -324
 10252 18da 06       		.byte	0x6
 10253 18db 21       		.byte	0x21
 10254 18dc 76       		.byte	0x76
 10255 18dd 00       		.sleb128 0
 10256 18de 1A       		.byte	0x1a
 10257 18df 21       		.byte	0x21
 10258 18e0 22       		.byte	0x22
 10259 18e1 9F       		.byte	0x9f
 10260 18e2 0E010000 		.4byte	.LVL30
 10261 18e6 16010000 		.4byte	.LVL32
 10262 18ea 4100     		.2byte	0x41
 10263 18ec 71       		.byte	0x71
 10264 18ed 60       		.sleb128 -32
 10265 18ee 06       		.byte	0x6
 10266 18ef 77       		.byte	0x77
 10267 18f0 6D       		.sleb128 -19
 10268 18f1 14       		.byte	0x14
 10269 18f2 14       		.byte	0x14
 10270 18f3 1F       		.byte	0x1f
 10271 18f4 23       		.byte	0x23
 10272 18f5 20       		.uleb128 0x20
 10273 18f6 24       		.byte	0x24
 10274 18f7 17       		.byte	0x17
 10275 18f8 25       		.byte	0x25
 10276 18f9 21       		.byte	0x21
 10277 18fa 71       		.byte	0x71
 10278 18fb 60       		.sleb128 -32
 10279 18fc 06       		.byte	0x6
 10280 18fd 32       		.byte	0x32
 10281 18fe 14       		.byte	0x14
 10282 18ff 14       		.byte	0x14
 10283 1900 1F       		.byte	0x1f
 10284 1901 23       		.byte	0x23
 10285 1902 20       		.uleb128 0x20
 10286 1903 24       		.byte	0x24
 10287 1904 17       		.byte	0x17
 10288 1905 25       		.byte	0x25
ARM GAS  C:\Users\Phuong\AppData\Local\Temp\ccuEFeTd.s 			page 192


 10289 1906 21       		.byte	0x21
 10290 1907 27       		.byte	0x27
 10291 1908 71       		.byte	0x71
 10292 1909 60       		.sleb128 -32
 10293 190a 06       		.byte	0x6
 10294 190b 77       		.byte	0x77
 10295 190c 76       		.sleb128 -10
 10296 190d 14       		.byte	0x14
 10297 190e 14       		.byte	0x14
 10298 190f 1F       		.byte	0x1f
 10299 1910 23       		.byte	0x23
 10300 1911 20       		.uleb128 0x20
 10301 1912 24       		.byte	0x24
 10302 1913 17       		.byte	0x17
 10303 1914 25       		.byte	0x25
 10304 1915 21       		.byte	0x21
 10305 1916 27       		.byte	0x27
 10306 1917 91       		.byte	0x91
 10307 1918 BC7D     		.sleb128 -324
 10308 191a 06       		.byte	0x6
 10309 191b 71       		.byte	0x71
 10310 191c 60       		.sleb128 -32
 10311 191d 06       		.byte	0x6
 10312 191e 1A       		.byte	0x1a
 10313 191f 71       		.byte	0x71
 10314 1920 60       		.sleb128 -32
 10315 1921 06       		.byte	0x6
 10316 1922 91       		.byte	0x91
 10317 1923 BC7D     		.sleb128 -324
 10318 1925 06       		.byte	0x6
 10319 1926 21       		.byte	0x21
 10320 1927 76       		.byte	0x76
 10321 1928 00       		.sleb128 0
 10322 1929 1A       		.byte	0x1a
 10323 192a 21       		.byte	0x21
 10324 192b 22       		.byte	0x22
 10325 192c 9F       		.byte	0x9f
 10326 192d 16010000 		.4byte	.LVL32
 10327 1931 1A010000 		.4byte	.LVL33
 10328 1935 4700     		.2byte	0x47
 10329 1937 91       		.byte	0x91
 10330 1938 B87D     		.sleb128 -328
 10331 193a 06       		.byte	0x6
 10332 193b 77       		.byte	0x77
 10333 193c 6D       		.sleb128 -19
 10334 193d 14       		.byte	0x14
 10335 193e 14       		.byte	0x14
 10336 193f 1F       		.byte	0x1f
 10337 1940 23       		.byte	0x23
 10338 1941 20       		.uleb128 0x20
 10339 1942 24       		.byte	0x24
 10340 1943 17       		.byte	0x17
 10341 1944 25       		.byte	0x25
 10342 1945 21       		.byte	0x21
 10343 1946 91       		.byte	0x91
 10344 1947 B87D     		.sleb128 -328
 10345 1949 06       		.byte	0x6
ARM GAS  C:\Users\Phuong\AppData\Local\Temp\ccuEFeTd.s 			page 193


 10346 194a 71       		.byte	0x71
 10347 194b 00       		.sleb128 0
 10348 194c 14       		.byte	0x14
 10349 194d 14       		.byte	0x14
 10350 194e 1F       		.byte	0x1f
 10351 194f 23       		.byte	0x23
 10352 1950 20       		.uleb128 0x20
 10353 1951 24       		.byte	0x24
 10354 1952 17       		.byte	0x17
 10355 1953 25       		.byte	0x25
 10356 1954 21       		.byte	0x21
 10357 1955 27       		.byte	0x27
 10358 1956 91       		.byte	0x91
 10359 1957 B87D     		.sleb128 -328
 10360 1959 06       		.byte	0x6
 10361 195a 77       		.byte	0x77
 10362 195b 76       		.sleb128 -10
 10363 195c 14       		.byte	0x14
 10364 195d 14       		.byte	0x14
 10365 195e 1F       		.byte	0x1f
 10366 195f 23       		.byte	0x23
 10367 1960 20       		.uleb128 0x20
 10368 1961 24       		.byte	0x24
 10369 1962 17       		.byte	0x17
 10370 1963 25       		.byte	0x25
 10371 1964 21       		.byte	0x21
 10372 1965 27       		.byte	0x27
 10373 1966 91       		.byte	0x91
 10374 1967 BC7D     		.sleb128 -324
 10375 1969 06       		.byte	0x6
 10376 196a 91       		.byte	0x91
 10377 196b B87D     		.sleb128 -328
 10378 196d 06       		.byte	0x6
 10379 196e 1A       		.byte	0x1a
 10380 196f 91       		.byte	0x91
 10381 1970 B87D     		.sleb128 -328
 10382 1972 06       		.byte	0x6
 10383 1973 91       		.byte	0x91
 10384 1974 BC7D     		.sleb128 -324
 10385 1976 06       		.byte	0x6
 10386 1977 21       		.byte	0x21
 10387 1978 76       		.byte	0x76
 10388 1979 00       		.sleb128 0
 10389 197a 1A       		.byte	0x1a
 10390 197b 21       		.byte	0x21
 10391 197c 22       		.byte	0x22
 10392 197d 9F       		.byte	0x9f
 10393 197e 1A010000 		.4byte	.LVL33
 10394 1982 1E010000 		.4byte	.LVL34
 10395 1986 4500     		.2byte	0x45
 10396 1988 91       		.byte	0x91
 10397 1989 B87D     		.sleb128 -328
 10398 198b 06       		.byte	0x6
 10399 198c 3D       		.byte	0x3d
 10400 198d 14       		.byte	0x14
 10401 198e 14       		.byte	0x14
 10402 198f 1F       		.byte	0x1f
ARM GAS  C:\Users\Phuong\AppData\Local\Temp\ccuEFeTd.s 			page 194


 10403 1990 23       		.byte	0x23
 10404 1991 20       		.uleb128 0x20
 10405 1992 24       		.byte	0x24
 10406 1993 17       		.byte	0x17
 10407 1994 25       		.byte	0x25
 10408 1995 21       		.byte	0x21
 10409 1996 91       		.byte	0x91
 10410 1997 B87D     		.sleb128 -328
 10411 1999 06       		.byte	0x6
 10412 199a 71       		.byte	0x71
 10413 199b 00       		.sleb128 0
 10414 199c 14       		.byte	0x14
 10415 199d 14       		.byte	0x14
 10416 199e 1F       		.byte	0x1f
 10417 199f 23       		.byte	0x23
 10418 19a0 20       		.uleb128 0x20
 10419 19a1 24       		.byte	0x24
 10420 19a2 17       		.byte	0x17
 10421 19a3 25       		.byte	0x25
 10422 19a4 21       		.byte	0x21
 10423 19a5 27       		.byte	0x27
 10424 19a6 91       		.byte	0x91
 10425 19a7 B87D     		.sleb128 -328
 10426 19a9 06       		.byte	0x6
 10427 19aa 46       		.byte	0x46
 10428 19ab 14       		.byte	0x14
 10429 19ac 14       		.byte	0x14
 10430 19ad 1F       		.byte	0x1f
 10431 19ae 23       		.byte	0x23
 10432 19af 20       		.uleb128 0x20
 10433 19b0 24       		.byte	0x24
 10434 19b1 17       		.byte	0x17
 10435 19b2 25       		.byte	0x25
 10436 19b3 21       		.byte	0x21
 10437 19b4 27       		.byte	0x27
 10438 19b5 91       		.byte	0x91
 10439 19b6 BC7D     		.sleb128 -324
 10440 19b8 06       		.byte	0x6
 10441 19b9 91       		.byte	0x91
 10442 19ba B87D     		.sleb128 -328
 10443 19bc 06       		.byte	0x6
 10444 19bd 1A       		.byte	0x1a
 10445 19be 91       		.byte	0x91
 10446 19bf B87D     		.sleb128 -328
 10447 19c1 06       		.byte	0x6
 10448 19c2 91       		.byte	0x91
 10449 19c3 BC7D     		.sleb128 -324
 10450 19c5 06       		.byte	0x6
 10451 19c6 21       		.byte	0x21
 10452 19c7 76       		.byte	0x76
 10453 19c8 00       		.sleb128 0
 10454 19c9 1A       		.byte	0x1a
 10455 19ca 21       		.byte	0x21
 10456 19cb 22       		.byte	0x22
 10457 19cc 9F       		.byte	0x9f
 10458 19cd 1E010000 		.4byte	.LVL34
 10459 19d1 40010000 		.4byte	.LVL35
ARM GAS  C:\Users\Phuong\AppData\Local\Temp\ccuEFeTd.s 			page 195


 10460 19d5 4400     		.2byte	0x44
 10461 19d7 91       		.byte	0x91
 10462 19d8 B87D     		.sleb128 -328
 10463 19da 06       		.byte	0x6
 10464 19db 3D       		.byte	0x3d
 10465 19dc 14       		.byte	0x14
 10466 19dd 14       		.byte	0x14
 10467 19de 1F       		.byte	0x1f
 10468 19df 23       		.byte	0x23
 10469 19e0 20       		.uleb128 0x20
 10470 19e1 24       		.byte	0x24
 10471 19e2 17       		.byte	0x17
 10472 19e3 25       		.byte	0x25
 10473 19e4 21       		.byte	0x21
 10474 19e5 91       		.byte	0x91
 10475 19e6 B87D     		.sleb128 -328
 10476 19e8 06       		.byte	0x6
 10477 19e9 32       		.byte	0x32
 10478 19ea 14       		.byte	0x14
 10479 19eb 14       		.byte	0x14
 10480 19ec 1F       		.byte	0x1f
 10481 19ed 23       		.byte	0x23
 10482 19ee 20       		.uleb128 0x20
 10483 19ef 24       		.byte	0x24
 10484 19f0 17       		.byte	0x17
 10485 19f1 25       		.byte	0x25
 10486 19f2 21       		.byte	0x21
 10487 19f3 27       		.byte	0x27
 10488 19f4 91       		.byte	0x91
 10489 19f5 B87D     		.sleb128 -328
 10490 19f7 06       		.byte	0x6
 10491 19f8 46       		.byte	0x46
 10492 19f9 14       		.byte	0x14
 10493 19fa 14       		.byte	0x14
 10494 19fb 1F       		.byte	0x1f
 10495 19fc 23       		.byte	0x23
 10496 19fd 20       		.uleb128 0x20
 10497 19fe 24       		.byte	0x24
 10498 19ff 17       		.byte	0x17
 10499 1a00 25       		.byte	0x25
 10500 1a01 21       		.byte	0x21
 10501 1a02 27       		.byte	0x27
 10502 1a03 91       		.byte	0x91
 10503 1a04 BC7D     		.sleb128 -324
 10504 1a06 06       		.byte	0x6
 10505 1a07 91       		.byte	0x91
 10506 1a08 B87D     		.sleb128 -328
 10507 1a0a 06       		.byte	0x6
 10508 1a0b 1A       		.byte	0x1a
 10509 1a0c 91       		.byte	0x91
 10510 1a0d B87D     		.sleb128 -328
 10511 1a0f 06       		.byte	0x6
 10512 1a10 91       		.byte	0x91
 10513 1a11 BC7D     		.sleb128 -324
 10514 1a13 06       		.byte	0x6
 10515 1a14 21       		.byte	0x21
 10516 1a15 76       		.byte	0x76
ARM GAS  C:\Users\Phuong\AppData\Local\Temp\ccuEFeTd.s 			page 196


 10517 1a16 00       		.sleb128 0
 10518 1a17 1A       		.byte	0x1a
 10519 1a18 21       		.byte	0x21
 10520 1a19 22       		.byte	0x22
 10521 1a1a 9F       		.byte	0x9f
 10522 1a1b 40010000 		.4byte	.LVL35
 10523 1a1f 44010000 		.4byte	.LVL36
 10524 1a23 0100     		.2byte	0x1
 10525 1a25 53       		.byte	0x53
 10526 1a26 44010000 		.4byte	.LVL36
 10527 1a2a 4A010000 		.4byte	.LVL37
 10528 1a2e 3700     		.2byte	0x37
 10529 1a30 70       		.byte	0x70
 10530 1a31 00       		.sleb128 0
 10531 1a32 3D       		.byte	0x3d
 10532 1a33 14       		.byte	0x14
 10533 1a34 14       		.byte	0x14
 10534 1a35 1F       		.byte	0x1f
 10535 1a36 23       		.byte	0x23
 10536 1a37 20       		.uleb128 0x20
 10537 1a38 24       		.byte	0x24
 10538 1a39 17       		.byte	0x17
 10539 1a3a 25       		.byte	0x25
 10540 1a3b 21       		.byte	0x21
 10541 1a3c 70       		.byte	0x70
 10542 1a3d 00       		.sleb128 0
 10543 1a3e 32       		.byte	0x32
 10544 1a3f 14       		.byte	0x14
 10545 1a40 14       		.byte	0x14
 10546 1a41 1F       		.byte	0x1f
 10547 1a42 23       		.byte	0x23
 10548 1a43 20       		.uleb128 0x20
 10549 1a44 24       		.byte	0x24
 10550 1a45 17       		.byte	0x17
 10551 1a46 25       		.byte	0x25
 10552 1a47 21       		.byte	0x21
 10553 1a48 27       		.byte	0x27
 10554 1a49 70       		.byte	0x70
 10555 1a4a 00       		.sleb128 0
 10556 1a4b 46       		.byte	0x46
 10557 1a4c 14       		.byte	0x14
 10558 1a4d 14       		.byte	0x14
 10559 1a4e 1F       		.byte	0x1f
 10560 1a4f 23       		.byte	0x23
 10561 1a50 20       		.uleb128 0x20
 10562 1a51 24       		.byte	0x24
 10563 1a52 17       		.byte	0x17
 10564 1a53 25       		.byte	0x25
 10565 1a54 21       		.byte	0x21
 10566 1a55 27       		.byte	0x27
 10567 1a56 91       		.byte	0x91
 10568 1a57 B87D     		.sleb128 -328
 10569 1a59 06       		.byte	0x6
 10570 1a5a 70       		.byte	0x70
 10571 1a5b 00       		.sleb128 0
 10572 1a5c 21       		.byte	0x21
 10573 1a5d 91       		.byte	0x91
ARM GAS  C:\Users\Phuong\AppData\Local\Temp\ccuEFeTd.s 			page 197


 10574 1a5e BC7D     		.sleb128 -324
 10575 1a60 06       		.byte	0x6
 10576 1a61 1A       		.byte	0x1a
 10577 1a62 71       		.byte	0x71
 10578 1a63 00       		.sleb128 0
 10579 1a64 21       		.byte	0x21
 10580 1a65 22       		.byte	0x22
 10581 1a66 9F       		.byte	0x9f
 10582 1a67 4A010000 		.4byte	.LVL37
 10583 1a6b 72010000 		.4byte	.LVL39
 10584 1a6f 3700     		.2byte	0x37
 10585 1a71 70       		.byte	0x70
 10586 1a72 00       		.sleb128 0
 10587 1a73 3D       		.byte	0x3d
 10588 1a74 14       		.byte	0x14
 10589 1a75 14       		.byte	0x14
 10590 1a76 1F       		.byte	0x1f
 10591 1a77 23       		.byte	0x23
 10592 1a78 20       		.uleb128 0x20
 10593 1a79 24       		.byte	0x24
 10594 1a7a 17       		.byte	0x17
 10595 1a7b 25       		.byte	0x25
 10596 1a7c 21       		.byte	0x21
 10597 1a7d 70       		.byte	0x70
 10598 1a7e 00       		.sleb128 0
 10599 1a7f 32       		.byte	0x32
 10600 1a80 14       		.byte	0x14
 10601 1a81 14       		.byte	0x14
 10602 1a82 1F       		.byte	0x1f
 10603 1a83 23       		.byte	0x23
 10604 1a84 20       		.uleb128 0x20
 10605 1a85 24       		.byte	0x24
 10606 1a86 17       		.byte	0x17
 10607 1a87 25       		.byte	0x25
 10608 1a88 21       		.byte	0x21
 10609 1a89 27       		.byte	0x27
 10610 1a8a 70       		.byte	0x70
 10611 1a8b 00       		.sleb128 0
 10612 1a8c 46       		.byte	0x46
 10613 1a8d 14       		.byte	0x14
 10614 1a8e 14       		.byte	0x14
 10615 1a8f 1F       		.byte	0x1f
 10616 1a90 23       		.byte	0x23
 10617 1a91 20       		.uleb128 0x20
 10618 1a92 24       		.byte	0x24
 10619 1a93 17       		.byte	0x17
 10620 1a94 25       		.byte	0x25
 10621 1a95 21       		.byte	0x21
 10622 1a96 27       		.byte	0x27
 10623 1a97 91       		.byte	0x91
 10624 1a98 B87D     		.sleb128 -328
 10625 1a9a 06       		.byte	0x6
 10626 1a9b 70       		.byte	0x70
 10627 1a9c 00       		.sleb128 0
 10628 1a9d 21       		.byte	0x21
 10629 1a9e 91       		.byte	0x91
 10630 1a9f BC7D     		.sleb128 -324
ARM GAS  C:\Users\Phuong\AppData\Local\Temp\ccuEFeTd.s 			page 198


 10631 1aa1 06       		.byte	0x6
 10632 1aa2 1A       		.byte	0x1a
 10633 1aa3 79       		.byte	0x79
 10634 1aa4 00       		.sleb128 0
 10635 1aa5 21       		.byte	0x21
 10636 1aa6 22       		.byte	0x22
 10637 1aa7 9F       		.byte	0x9f
 10638 1aa8 72010000 		.4byte	.LVL39
 10639 1aac 74010000 		.4byte	.LVL40
 10640 1ab0 3A00     		.2byte	0x3a
 10641 1ab2 70       		.byte	0x70
 10642 1ab3 00       		.sleb128 0
 10643 1ab4 72       		.byte	0x72
 10644 1ab5 0B       		.sleb128 11
 10645 1ab6 14       		.byte	0x14
 10646 1ab7 14       		.byte	0x14
 10647 1ab8 1F       		.byte	0x1f
 10648 1ab9 23       		.byte	0x23
 10649 1aba 20       		.uleb128 0x20
 10650 1abb 24       		.byte	0x24
 10651 1abc 17       		.byte	0x17
 10652 1abd 25       		.byte	0x25
 10653 1abe 21       		.byte	0x21
 10654 1abf 70       		.byte	0x70
 10655 1ac0 00       		.sleb128 0
 10656 1ac1 72       		.byte	0x72
 10657 1ac2 00       		.sleb128 0
 10658 1ac3 14       		.byte	0x14
 10659 1ac4 14       		.byte	0x14
 10660 1ac5 1F       		.byte	0x1f
 10661 1ac6 23       		.byte	0x23
 10662 1ac7 20       		.uleb128 0x20
 10663 1ac8 24       		.byte	0x24
 10664 1ac9 17       		.byte	0x17
 10665 1aca 25       		.byte	0x25
 10666 1acb 21       		.byte	0x21
 10667 1acc 27       		.byte	0x27
 10668 1acd 70       		.byte	0x70
 10669 1ace 00       		.sleb128 0
 10670 1acf 72       		.byte	0x72
 10671 1ad0 14       		.sleb128 20
 10672 1ad1 14       		.byte	0x14
 10673 1ad2 14       		.byte	0x14
 10674 1ad3 1F       		.byte	0x1f
 10675 1ad4 23       		.byte	0x23
 10676 1ad5 20       		.uleb128 0x20
 10677 1ad6 24       		.byte	0x24
 10678 1ad7 17       		.byte	0x17
 10679 1ad8 25       		.byte	0x25
 10680 1ad9 21       		.byte	0x21
 10681 1ada 27       		.byte	0x27
 10682 1adb 91       		.byte	0x91
 10683 1adc B87D     		.sleb128 -328
 10684 1ade 06       		.byte	0x6
 10685 1adf 70       		.byte	0x70
 10686 1ae0 00       		.sleb128 0
 10687 1ae1 21       		.byte	0x21
ARM GAS  C:\Users\Phuong\AppData\Local\Temp\ccuEFeTd.s 			page 199


 10688 1ae2 91       		.byte	0x91
 10689 1ae3 BC7D     		.sleb128 -324
 10690 1ae5 06       		.byte	0x6
 10691 1ae6 1A       		.byte	0x1a
 10692 1ae7 79       		.byte	0x79
 10693 1ae8 00       		.sleb128 0
 10694 1ae9 21       		.byte	0x21
 10695 1aea 22       		.byte	0x22
 10696 1aeb 9F       		.byte	0x9f
 10697 1aec 74010000 		.4byte	.LVL40
 10698 1af0 78010000 		.4byte	.LVL41
 10699 1af4 3700     		.2byte	0x37
 10700 1af6 70       		.byte	0x70
 10701 1af7 00       		.sleb128 0
 10702 1af8 3D       		.byte	0x3d
 10703 1af9 14       		.byte	0x14
 10704 1afa 14       		.byte	0x14
 10705 1afb 1F       		.byte	0x1f
 10706 1afc 23       		.byte	0x23
 10707 1afd 20       		.uleb128 0x20
 10708 1afe 24       		.byte	0x24
 10709 1aff 17       		.byte	0x17
 10710 1b00 25       		.byte	0x25
 10711 1b01 21       		.byte	0x21
 10712 1b02 70       		.byte	0x70
 10713 1b03 00       		.sleb128 0
 10714 1b04 32       		.byte	0x32
 10715 1b05 14       		.byte	0x14
 10716 1b06 14       		.byte	0x14
 10717 1b07 1F       		.byte	0x1f
 10718 1b08 23       		.byte	0x23
 10719 1b09 20       		.uleb128 0x20
 10720 1b0a 24       		.byte	0x24
 10721 1b0b 17       		.byte	0x17
 10722 1b0c 25       		.byte	0x25
 10723 1b0d 21       		.byte	0x21
 10724 1b0e 27       		.byte	0x27
 10725 1b0f 70       		.byte	0x70
 10726 1b10 00       		.sleb128 0
 10727 1b11 46       		.byte	0x46
 10728 1b12 14       		.byte	0x14
 10729 1b13 14       		.byte	0x14
 10730 1b14 1F       		.byte	0x1f
 10731 1b15 23       		.byte	0x23
 10732 1b16 20       		.uleb128 0x20
 10733 1b17 24       		.byte	0x24
 10734 1b18 17       		.byte	0x17
 10735 1b19 25       		.byte	0x25
 10736 1b1a 21       		.byte	0x21
 10737 1b1b 27       		.byte	0x27
 10738 1b1c 91       		.byte	0x91
 10739 1b1d B87D     		.sleb128 -328
 10740 1b1f 06       		.byte	0x6
 10741 1b20 70       		.byte	0x70
 10742 1b21 00       		.sleb128 0
 10743 1b22 21       		.byte	0x21
 10744 1b23 91       		.byte	0x91
ARM GAS  C:\Users\Phuong\AppData\Local\Temp\ccuEFeTd.s 			page 200


 10745 1b24 BC7D     		.sleb128 -324
 10746 1b26 06       		.byte	0x6
 10747 1b27 1A       		.byte	0x1a
 10748 1b28 79       		.byte	0x79
 10749 1b29 00       		.sleb128 0
 10750 1b2a 21       		.byte	0x21
 10751 1b2b 22       		.byte	0x22
 10752 1b2c 9F       		.byte	0x9f
 10753 1b2d 78010000 		.4byte	.LVL41
 10754 1b31 84010000 		.4byte	.LVL42
 10755 1b35 3C00     		.2byte	0x3c
 10756 1b37 70       		.byte	0x70
 10757 1b38 00       		.sleb128 0
 10758 1b39 3D       		.byte	0x3d
 10759 1b3a 14       		.byte	0x14
 10760 1b3b 14       		.byte	0x14
 10761 1b3c 1F       		.byte	0x1f
 10762 1b3d 23       		.byte	0x23
 10763 1b3e 20       		.uleb128 0x20
 10764 1b3f 24       		.byte	0x24
 10765 1b40 17       		.byte	0x17
 10766 1b41 25       		.byte	0x25
 10767 1b42 21       		.byte	0x21
 10768 1b43 70       		.byte	0x70
 10769 1b44 00       		.sleb128 0
 10770 1b45 32       		.byte	0x32
 10771 1b46 14       		.byte	0x14
 10772 1b47 14       		.byte	0x14
 10773 1b48 1F       		.byte	0x1f
 10774 1b49 23       		.byte	0x23
 10775 1b4a 20       		.uleb128 0x20
 10776 1b4b 24       		.byte	0x24
 10777 1b4c 17       		.byte	0x17
 10778 1b4d 25       		.byte	0x25
 10779 1b4e 21       		.byte	0x21
 10780 1b4f 27       		.byte	0x27
 10781 1b50 70       		.byte	0x70
 10782 1b51 00       		.sleb128 0
 10783 1b52 46       		.byte	0x46
 10784 1b53 14       		.byte	0x14
 10785 1b54 14       		.byte	0x14
 10786 1b55 1F       		.byte	0x1f
 10787 1b56 23       		.byte	0x23
 10788 1b57 20       		.uleb128 0x20
 10789 1b58 24       		.byte	0x24
 10790 1b59 17       		.byte	0x17
 10791 1b5a 25       		.byte	0x25
 10792 1b5b 21       		.byte	0x21
 10793 1b5c 27       		.byte	0x27
 10794 1b5d 91       		.byte	0x91
 10795 1b5e B87D     		.sleb128 -328
 10796 1b60 06       		.byte	0x6
 10797 1b61 70       		.byte	0x70
 10798 1b62 00       		.sleb128 0
 10799 1b63 21       		.byte	0x21
 10800 1b64 91       		.byte	0x91
 10801 1b65 BC7D     		.sleb128 -324
ARM GAS  C:\Users\Phuong\AppData\Local\Temp\ccuEFeTd.s 			page 201


 10802 1b67 06       		.byte	0x6
 10803 1b68 1A       		.byte	0x1a
 10804 1b69 70       		.byte	0x70
 10805 1b6a 00       		.sleb128 0
 10806 1b6b 91       		.byte	0x91
 10807 1b6c B87D     		.sleb128 -328
 10808 1b6e 06       		.byte	0x6
 10809 1b6f 1A       		.byte	0x1a
 10810 1b70 21       		.byte	0x21
 10811 1b71 22       		.byte	0x22
 10812 1b72 9F       		.byte	0x9f
 10813 1b73 84010000 		.4byte	.LVL42
 10814 1b77 88010000 		.4byte	.LVL44
 10815 1b7b 3A00     		.2byte	0x3a
 10816 1b7d 70       		.byte	0x70
 10817 1b7e 00       		.sleb128 0
 10818 1b7f 3D       		.byte	0x3d
 10819 1b80 14       		.byte	0x14
 10820 1b81 14       		.byte	0x14
 10821 1b82 1F       		.byte	0x1f
 10822 1b83 23       		.byte	0x23
 10823 1b84 20       		.uleb128 0x20
 10824 1b85 24       		.byte	0x24
 10825 1b86 17       		.byte	0x17
 10826 1b87 25       		.byte	0x25
 10827 1b88 21       		.byte	0x21
 10828 1b89 70       		.byte	0x70
 10829 1b8a 00       		.sleb128 0
 10830 1b8b 32       		.byte	0x32
 10831 1b8c 14       		.byte	0x14
 10832 1b8d 14       		.byte	0x14
 10833 1b8e 1F       		.byte	0x1f
 10834 1b8f 23       		.byte	0x23
 10835 1b90 20       		.uleb128 0x20
 10836 1b91 24       		.byte	0x24
 10837 1b92 17       		.byte	0x17
 10838 1b93 25       		.byte	0x25
 10839 1b94 21       		.byte	0x21
 10840 1b95 27       		.byte	0x27
 10841 1b96 70       		.byte	0x70
 10842 1b97 00       		.sleb128 0
 10843 1b98 46       		.byte	0x46
 10844 1b99 14       		.byte	0x14
 10845 1b9a 14       		.byte	0x14
 10846 1b9b 1F       		.byte	0x1f
 10847 1b9c 23       		.byte	0x23
 10848 1b9d 20       		.uleb128 0x20
 10849 1b9e 24       		.byte	0x24
 10850 1b9f 17       		.byte	0x17
 10851 1ba0 25       		.byte	0x25
 10852 1ba1 21       		.byte	0x21
 10853 1ba2 27       		.byte	0x27
 10854 1ba3 72       		.byte	0x72
 10855 1ba4 00       		.sleb128 0
 10856 1ba5 06       		.byte	0x6
 10857 1ba6 70       		.byte	0x70
 10858 1ba7 00       		.sleb128 0
ARM GAS  C:\Users\Phuong\AppData\Local\Temp\ccuEFeTd.s 			page 202


 10859 1ba8 21       		.byte	0x21
 10860 1ba9 91       		.byte	0x91
 10861 1baa BC7D     		.sleb128 -324
 10862 1bac 06       		.byte	0x6
 10863 1bad 1A       		.byte	0x1a
 10864 1bae 70       		.byte	0x70
 10865 1baf 00       		.sleb128 0
 10866 1bb0 72       		.byte	0x72
 10867 1bb1 00       		.sleb128 0
 10868 1bb2 06       		.byte	0x6
 10869 1bb3 1A       		.byte	0x1a
 10870 1bb4 21       		.byte	0x21
 10871 1bb5 22       		.byte	0x22
 10872 1bb6 9F       		.byte	0x9f
 10873 1bb7 88010000 		.4byte	.LVL44
 10874 1bbb 8A010000 		.4byte	.LVL45
 10875 1bbf 3A00     		.2byte	0x3a
 10876 1bc1 70       		.byte	0x70
 10877 1bc2 00       		.sleb128 0
 10878 1bc3 3D       		.byte	0x3d
 10879 1bc4 14       		.byte	0x14
 10880 1bc5 14       		.byte	0x14
 10881 1bc6 1F       		.byte	0x1f
 10882 1bc7 23       		.byte	0x23
 10883 1bc8 20       		.uleb128 0x20
 10884 1bc9 24       		.byte	0x24
 10885 1bca 17       		.byte	0x17
 10886 1bcb 25       		.byte	0x25
 10887 1bcc 21       		.byte	0x21
 10888 1bcd 70       		.byte	0x70
 10889 1bce 00       		.sleb128 0
 10890 1bcf 32       		.byte	0x32
 10891 1bd0 14       		.byte	0x14
 10892 1bd1 14       		.byte	0x14
 10893 1bd2 1F       		.byte	0x1f
 10894 1bd3 23       		.byte	0x23
 10895 1bd4 20       		.uleb128 0x20
 10896 1bd5 24       		.byte	0x24
 10897 1bd6 17       		.byte	0x17
 10898 1bd7 25       		.byte	0x25
 10899 1bd8 21       		.byte	0x21
 10900 1bd9 27       		.byte	0x27
 10901 1bda 70       		.byte	0x70
 10902 1bdb 00       		.sleb128 0
 10903 1bdc 46       		.byte	0x46
 10904 1bdd 14       		.byte	0x14
 10905 1bde 14       		.byte	0x14
 10906 1bdf 1F       		.byte	0x1f
 10907 1be0 23       		.byte	0x23
 10908 1be1 20       		.uleb128 0x20
 10909 1be2 24       		.byte	0x24
 10910 1be3 17       		.byte	0x17
 10911 1be4 25       		.byte	0x25
 10912 1be5 21       		.byte	0x21
 10913 1be6 27       		.byte	0x27
 10914 1be7 72       		.byte	0x72
 10915 1be8 60       		.sleb128 -32
ARM GAS  C:\Users\Phuong\AppData\Local\Temp\ccuEFeTd.s 			page 203


 10916 1be9 06       		.byte	0x6
 10917 1bea 70       		.byte	0x70
 10918 1beb 00       		.sleb128 0
 10919 1bec 21       		.byte	0x21
 10920 1bed 91       		.byte	0x91
 10921 1bee BC7D     		.sleb128 -324
 10922 1bf0 06       		.byte	0x6
 10923 1bf1 1A       		.byte	0x1a
 10924 1bf2 70       		.byte	0x70
 10925 1bf3 00       		.sleb128 0
 10926 1bf4 72       		.byte	0x72
 10927 1bf5 60       		.sleb128 -32
 10928 1bf6 06       		.byte	0x6
 10929 1bf7 1A       		.byte	0x1a
 10930 1bf8 21       		.byte	0x21
 10931 1bf9 22       		.byte	0x22
 10932 1bfa 9F       		.byte	0x9f
 10933 1bfb 8A010000 		.4byte	.LVL45
 10934 1bff 94010000 		.4byte	.LVL47
 10935 1c03 3C00     		.2byte	0x3c
 10936 1c05 70       		.byte	0x70
 10937 1c06 00       		.sleb128 0
 10938 1c07 3D       		.byte	0x3d
 10939 1c08 14       		.byte	0x14
 10940 1c09 14       		.byte	0x14
 10941 1c0a 1F       		.byte	0x1f
 10942 1c0b 23       		.byte	0x23
 10943 1c0c 20       		.uleb128 0x20
 10944 1c0d 24       		.byte	0x24
 10945 1c0e 17       		.byte	0x17
 10946 1c0f 25       		.byte	0x25
 10947 1c10 21       		.byte	0x21
 10948 1c11 70       		.byte	0x70
 10949 1c12 00       		.sleb128 0
 10950 1c13 32       		.byte	0x32
 10951 1c14 14       		.byte	0x14
 10952 1c15 14       		.byte	0x14
 10953 1c16 1F       		.byte	0x1f
 10954 1c17 23       		.byte	0x23
 10955 1c18 20       		.uleb128 0x20
 10956 1c19 24       		.byte	0x24
 10957 1c1a 17       		.byte	0x17
 10958 1c1b 25       		.byte	0x25
 10959 1c1c 21       		.byte	0x21
 10960 1c1d 27       		.byte	0x27
 10961 1c1e 70       		.byte	0x70
 10962 1c1f 00       		.sleb128 0
 10963 1c20 46       		.byte	0x46
 10964 1c21 14       		.byte	0x14
 10965 1c22 14       		.byte	0x14
 10966 1c23 1F       		.byte	0x1f
 10967 1c24 23       		.byte	0x23
 10968 1c25 20       		.uleb128 0x20
 10969 1c26 24       		.byte	0x24
 10970 1c27 17       		.byte	0x17
 10971 1c28 25       		.byte	0x25
 10972 1c29 21       		.byte	0x21
ARM GAS  C:\Users\Phuong\AppData\Local\Temp\ccuEFeTd.s 			page 204


 10973 1c2a 27       		.byte	0x27
 10974 1c2b 91       		.byte	0x91
 10975 1c2c B87D     		.sleb128 -328
 10976 1c2e 06       		.byte	0x6
 10977 1c2f 70       		.byte	0x70
 10978 1c30 00       		.sleb128 0
 10979 1c31 21       		.byte	0x21
 10980 1c32 91       		.byte	0x91
 10981 1c33 BC7D     		.sleb128 -324
 10982 1c35 06       		.byte	0x6
 10983 1c36 1A       		.byte	0x1a
 10984 1c37 70       		.byte	0x70
 10985 1c38 00       		.sleb128 0
 10986 1c39 91       		.byte	0x91
 10987 1c3a B87D     		.sleb128 -328
 10988 1c3c 06       		.byte	0x6
 10989 1c3d 1A       		.byte	0x1a
 10990 1c3e 21       		.byte	0x21
 10991 1c3f 22       		.byte	0x22
 10992 1c40 9F       		.byte	0x9f
 10993 1c41 94010000 		.4byte	.LVL47
 10994 1c45 9C010000 		.4byte	.LVL48
 10995 1c49 3F00     		.2byte	0x3f
 10996 1c4b 70       		.byte	0x70
 10997 1c4c 00       		.sleb128 0
 10998 1c4d 72       		.byte	0x72
 10999 1c4e 0B       		.sleb128 11
 11000 1c4f 14       		.byte	0x14
 11001 1c50 14       		.byte	0x14
 11002 1c51 1F       		.byte	0x1f
 11003 1c52 23       		.byte	0x23
 11004 1c53 20       		.uleb128 0x20
 11005 1c54 24       		.byte	0x24
 11006 1c55 17       		.byte	0x17
 11007 1c56 25       		.byte	0x25
 11008 1c57 21       		.byte	0x21
 11009 1c58 70       		.byte	0x70
 11010 1c59 00       		.sleb128 0
 11011 1c5a 72       		.byte	0x72
 11012 1c5b 00       		.sleb128 0
 11013 1c5c 14       		.byte	0x14
 11014 1c5d 14       		.byte	0x14
 11015 1c5e 1F       		.byte	0x1f
 11016 1c5f 23       		.byte	0x23
 11017 1c60 20       		.uleb128 0x20
 11018 1c61 24       		.byte	0x24
 11019 1c62 17       		.byte	0x17
 11020 1c63 25       		.byte	0x25
 11021 1c64 21       		.byte	0x21
 11022 1c65 27       		.byte	0x27
 11023 1c66 70       		.byte	0x70
 11024 1c67 00       		.sleb128 0
 11025 1c68 72       		.byte	0x72
 11026 1c69 14       		.sleb128 20
 11027 1c6a 14       		.byte	0x14
 11028 1c6b 14       		.byte	0x14
 11029 1c6c 1F       		.byte	0x1f
ARM GAS  C:\Users\Phuong\AppData\Local\Temp\ccuEFeTd.s 			page 205


 11030 1c6d 23       		.byte	0x23
 11031 1c6e 20       		.uleb128 0x20
 11032 1c6f 24       		.byte	0x24
 11033 1c70 17       		.byte	0x17
 11034 1c71 25       		.byte	0x25
 11035 1c72 21       		.byte	0x21
 11036 1c73 27       		.byte	0x27
 11037 1c74 91       		.byte	0x91
 11038 1c75 B87D     		.sleb128 -328
 11039 1c77 06       		.byte	0x6
 11040 1c78 70       		.byte	0x70
 11041 1c79 00       		.sleb128 0
 11042 1c7a 21       		.byte	0x21
 11043 1c7b 91       		.byte	0x91
 11044 1c7c BC7D     		.sleb128 -324
 11045 1c7e 06       		.byte	0x6
 11046 1c7f 1A       		.byte	0x1a
 11047 1c80 70       		.byte	0x70
 11048 1c81 00       		.sleb128 0
 11049 1c82 91       		.byte	0x91
 11050 1c83 B87D     		.sleb128 -328
 11051 1c85 06       		.byte	0x6
 11052 1c86 1A       		.byte	0x1a
 11053 1c87 21       		.byte	0x21
 11054 1c88 22       		.byte	0x22
 11055 1c89 9F       		.byte	0x9f
 11056 1c8a 9C010000 		.4byte	.LVL48
 11057 1c8e A0010000 		.4byte	.LVL49
 11058 1c92 3E00     		.2byte	0x3e
 11059 1c94 70       		.byte	0x70
 11060 1c95 00       		.sleb128 0
 11061 1c96 72       		.byte	0x72
 11062 1c97 00       		.sleb128 0
 11063 1c98 14       		.byte	0x14
 11064 1c99 14       		.byte	0x14
 11065 1c9a 1F       		.byte	0x1f
 11066 1c9b 23       		.byte	0x23
 11067 1c9c 20       		.uleb128 0x20
 11068 1c9d 24       		.byte	0x24
 11069 1c9e 17       		.byte	0x17
 11070 1c9f 25       		.byte	0x25
 11071 1ca0 21       		.byte	0x21
 11072 1ca1 70       		.byte	0x70
 11073 1ca2 00       		.sleb128 0
 11074 1ca3 32       		.byte	0x32
 11075 1ca4 14       		.byte	0x14
 11076 1ca5 14       		.byte	0x14
 11077 1ca6 1F       		.byte	0x1f
 11078 1ca7 23       		.byte	0x23
 11079 1ca8 20       		.uleb128 0x20
 11080 1ca9 24       		.byte	0x24
 11081 1caa 17       		.byte	0x17
 11082 1cab 25       		.byte	0x25
 11083 1cac 21       		.byte	0x21
 11084 1cad 27       		.byte	0x27
 11085 1cae 70       		.byte	0x70
 11086 1caf 00       		.sleb128 0
ARM GAS  C:\Users\Phuong\AppData\Local\Temp\ccuEFeTd.s 			page 206


 11087 1cb0 72       		.byte	0x72
 11088 1cb1 09       		.sleb128 9
 11089 1cb2 14       		.byte	0x14
 11090 1cb3 14       		.byte	0x14
 11091 1cb4 1F       		.byte	0x1f
 11092 1cb5 23       		.byte	0x23
 11093 1cb6 20       		.uleb128 0x20
 11094 1cb7 24       		.byte	0x24
 11095 1cb8 17       		.byte	0x17
 11096 1cb9 25       		.byte	0x25
 11097 1cba 21       		.byte	0x21
 11098 1cbb 27       		.byte	0x27
 11099 1cbc 91       		.byte	0x91
 11100 1cbd B87D     		.sleb128 -328
 11101 1cbf 06       		.byte	0x6
 11102 1cc0 70       		.byte	0x70
 11103 1cc1 00       		.sleb128 0
 11104 1cc2 21       		.byte	0x21
 11105 1cc3 91       		.byte	0x91
 11106 1cc4 BC7D     		.sleb128 -324
 11107 1cc6 06       		.byte	0x6
 11108 1cc7 1A       		.byte	0x1a
 11109 1cc8 70       		.byte	0x70
 11110 1cc9 00       		.sleb128 0
 11111 1cca 91       		.byte	0x91
 11112 1ccb B87D     		.sleb128 -328
 11113 1ccd 06       		.byte	0x6
 11114 1cce 1A       		.byte	0x1a
 11115 1ccf 21       		.byte	0x21
 11116 1cd0 22       		.byte	0x22
 11117 1cd1 9F       		.byte	0x9f
 11118 1cd2 A0010000 		.4byte	.LVL49
 11119 1cd6 C2010000 		.4byte	.LVL50
 11120 1cda 3C00     		.2byte	0x3c
 11121 1cdc 70       		.byte	0x70
 11122 1cdd 00       		.sleb128 0
 11123 1cde 3D       		.byte	0x3d
 11124 1cdf 14       		.byte	0x14
 11125 1ce0 14       		.byte	0x14
 11126 1ce1 1F       		.byte	0x1f
 11127 1ce2 23       		.byte	0x23
 11128 1ce3 20       		.uleb128 0x20
 11129 1ce4 24       		.byte	0x24
 11130 1ce5 17       		.byte	0x17
 11131 1ce6 25       		.byte	0x25
 11132 1ce7 21       		.byte	0x21
 11133 1ce8 70       		.byte	0x70
 11134 1ce9 00       		.sleb128 0
 11135 1cea 32       		.byte	0x32
 11136 1ceb 14       		.byte	0x14
 11137 1cec 14       		.byte	0x14
 11138 1ced 1F       		.byte	0x1f
 11139 1cee 23       		.byte	0x23
 11140 1cef 20       		.uleb128 0x20
 11141 1cf0 24       		.byte	0x24
 11142 1cf1 17       		.byte	0x17
 11143 1cf2 25       		.byte	0x25
ARM GAS  C:\Users\Phuong\AppData\Local\Temp\ccuEFeTd.s 			page 207


 11144 1cf3 21       		.byte	0x21
 11145 1cf4 27       		.byte	0x27
 11146 1cf5 70       		.byte	0x70
 11147 1cf6 00       		.sleb128 0
 11148 1cf7 46       		.byte	0x46
 11149 1cf8 14       		.byte	0x14
 11150 1cf9 14       		.byte	0x14
 11151 1cfa 1F       		.byte	0x1f
 11152 1cfb 23       		.byte	0x23
 11153 1cfc 20       		.uleb128 0x20
 11154 1cfd 24       		.byte	0x24
 11155 1cfe 17       		.byte	0x17
 11156 1cff 25       		.byte	0x25
 11157 1d00 21       		.byte	0x21
 11158 1d01 27       		.byte	0x27
 11159 1d02 91       		.byte	0x91
 11160 1d03 B87D     		.sleb128 -328
 11161 1d05 06       		.byte	0x6
 11162 1d06 70       		.byte	0x70
 11163 1d07 00       		.sleb128 0
 11164 1d08 21       		.byte	0x21
 11165 1d09 91       		.byte	0x91
 11166 1d0a BC7D     		.sleb128 -324
 11167 1d0c 06       		.byte	0x6
 11168 1d0d 1A       		.byte	0x1a
 11169 1d0e 70       		.byte	0x70
 11170 1d0f 00       		.sleb128 0
 11171 1d10 91       		.byte	0x91
 11172 1d11 B87D     		.sleb128 -328
 11173 1d13 06       		.byte	0x6
 11174 1d14 1A       		.byte	0x1a
 11175 1d15 21       		.byte	0x21
 11176 1d16 22       		.byte	0x22
 11177 1d17 9F       		.byte	0x9f
 11178 1d18 C2010000 		.4byte	.LVL50
 11179 1d1c C8010000 		.4byte	.LVL51
 11180 1d20 0100     		.2byte	0x1
 11181 1d22 53       		.byte	0x53
 11182 1d23 C8010000 		.4byte	.LVL51
 11183 1d27 CC010000 		.4byte	.LVL52
 11184 1d2b 1100     		.2byte	0x11
 11185 1d2d 70       		.byte	0x70
 11186 1d2e 00       		.sleb128 0
 11187 1d2f 75       		.byte	0x75
 11188 1d30 00       		.sleb128 0
 11189 1d31 21       		.byte	0x21
 11190 1d32 91       		.byte	0x91
 11191 1d33 B87D     		.sleb128 -328
 11192 1d35 06       		.byte	0x6
 11193 1d36 1A       		.byte	0x1a
 11194 1d37 72       		.byte	0x72
 11195 1d38 00       		.sleb128 0
 11196 1d39 21       		.byte	0x21
 11197 1d3a 79       		.byte	0x79
 11198 1d3b 00       		.sleb128 0
 11199 1d3c 22       		.byte	0x22
 11200 1d3d 9F       		.byte	0x9f
ARM GAS  C:\Users\Phuong\AppData\Local\Temp\ccuEFeTd.s 			page 208


 11201 1d3e CC010000 		.4byte	.LVL52
 11202 1d42 D2010000 		.4byte	.LVL53
 11203 1d46 1100     		.2byte	0x11
 11204 1d48 70       		.byte	0x70
 11205 1d49 00       		.sleb128 0
 11206 1d4a 75       		.byte	0x75
 11207 1d4b 00       		.sleb128 0
 11208 1d4c 21       		.byte	0x21
 11209 1d4d 91       		.byte	0x91
 11210 1d4e B87D     		.sleb128 -328
 11211 1d50 06       		.byte	0x6
 11212 1d51 1A       		.byte	0x1a
 11213 1d52 7B       		.byte	0x7b
 11214 1d53 00       		.sleb128 0
 11215 1d54 21       		.byte	0x21
 11216 1d55 79       		.byte	0x79
 11217 1d56 00       		.sleb128 0
 11218 1d57 22       		.byte	0x22
 11219 1d58 9F       		.byte	0x9f
 11220 1d59 D2010000 		.4byte	.LVL53
 11221 1d5d 08020000 		.4byte	.LVL57
 11222 1d61 3500     		.2byte	0x35
 11223 1d63 70       		.byte	0x70
 11224 1d64 00       		.sleb128 0
 11225 1d65 75       		.byte	0x75
 11226 1d66 00       		.sleb128 0
 11227 1d67 21       		.byte	0x21
 11228 1d68 91       		.byte	0x91
 11229 1d69 B87D     		.sleb128 -328
 11230 1d6b 06       		.byte	0x6
 11231 1d6c 1A       		.byte	0x1a
 11232 1d6d 7B       		.byte	0x7b
 11233 1d6e 00       		.sleb128 0
 11234 1d6f 21       		.byte	0x21
 11235 1d70 75       		.byte	0x75
 11236 1d71 00       		.sleb128 0
 11237 1d72 3D       		.byte	0x3d
 11238 1d73 14       		.byte	0x14
 11239 1d74 14       		.byte	0x14
 11240 1d75 1F       		.byte	0x1f
 11241 1d76 23       		.byte	0x23
 11242 1d77 20       		.uleb128 0x20
 11243 1d78 24       		.byte	0x24
 11244 1d79 17       		.byte	0x17
 11245 1d7a 25       		.byte	0x25
 11246 1d7b 21       		.byte	0x21
 11247 1d7c 75       		.byte	0x75
 11248 1d7d 00       		.sleb128 0
 11249 1d7e 32       		.byte	0x32
 11250 1d7f 14       		.byte	0x14
 11251 1d80 14       		.byte	0x14
 11252 1d81 1F       		.byte	0x1f
 11253 1d82 23       		.byte	0x23
 11254 1d83 20       		.uleb128 0x20
 11255 1d84 24       		.byte	0x24
 11256 1d85 17       		.byte	0x17
 11257 1d86 25       		.byte	0x25
ARM GAS  C:\Users\Phuong\AppData\Local\Temp\ccuEFeTd.s 			page 209


 11258 1d87 21       		.byte	0x21
 11259 1d88 27       		.byte	0x27
 11260 1d89 75       		.byte	0x75
 11261 1d8a 00       		.sleb128 0
 11262 1d8b 46       		.byte	0x46
 11263 1d8c 14       		.byte	0x14
 11264 1d8d 14       		.byte	0x14
 11265 1d8e 1F       		.byte	0x1f
 11266 1d8f 23       		.byte	0x23
 11267 1d90 20       		.uleb128 0x20
 11268 1d91 24       		.byte	0x24
 11269 1d92 17       		.byte	0x17
 11270 1d93 25       		.byte	0x25
 11271 1d94 21       		.byte	0x21
 11272 1d95 27       		.byte	0x27
 11273 1d96 22       		.byte	0x22
 11274 1d97 9F       		.byte	0x9f
 11275 1d98 08020000 		.4byte	.LVL57
 11276 1d9c 14020000 		.4byte	.LVL58
 11277 1da0 3800     		.2byte	0x38
 11278 1da2 70       		.byte	0x70
 11279 1da3 00       		.sleb128 0
 11280 1da4 75       		.byte	0x75
 11281 1da5 00       		.sleb128 0
 11282 1da6 21       		.byte	0x21
 11283 1da7 91       		.byte	0x91
 11284 1da8 B87D     		.sleb128 -328
 11285 1daa 06       		.byte	0x6
 11286 1dab 1A       		.byte	0x1a
 11287 1dac 75       		.byte	0x75
 11288 1dad 00       		.sleb128 0
 11289 1dae 70       		.byte	0x70
 11290 1daf 00       		.sleb128 0
 11291 1db0 1A       		.byte	0x1a
 11292 1db1 21       		.byte	0x21
 11293 1db2 75       		.byte	0x75
 11294 1db3 00       		.sleb128 0
 11295 1db4 3D       		.byte	0x3d
 11296 1db5 14       		.byte	0x14
 11297 1db6 14       		.byte	0x14
 11298 1db7 1F       		.byte	0x1f
 11299 1db8 23       		.byte	0x23
 11300 1db9 20       		.uleb128 0x20
 11301 1dba 24       		.byte	0x24
 11302 1dbb 17       		.byte	0x17
 11303 1dbc 25       		.byte	0x25
 11304 1dbd 21       		.byte	0x21
 11305 1dbe 75       		.byte	0x75
 11306 1dbf 00       		.sleb128 0
 11307 1dc0 32       		.byte	0x32
 11308 1dc1 14       		.byte	0x14
 11309 1dc2 14       		.byte	0x14
 11310 1dc3 1F       		.byte	0x1f
 11311 1dc4 23       		.byte	0x23
 11312 1dc5 20       		.uleb128 0x20
 11313 1dc6 24       		.byte	0x24
 11314 1dc7 17       		.byte	0x17
ARM GAS  C:\Users\Phuong\AppData\Local\Temp\ccuEFeTd.s 			page 210


 11315 1dc8 25       		.byte	0x25
 11316 1dc9 21       		.byte	0x21
 11317 1dca 27       		.byte	0x27
 11318 1dcb 75       		.byte	0x75
 11319 1dcc 00       		.sleb128 0
 11320 1dcd 46       		.byte	0x46
 11321 1dce 14       		.byte	0x14
 11322 1dcf 14       		.byte	0x14
 11323 1dd0 1F       		.byte	0x1f
 11324 1dd1 23       		.byte	0x23
 11325 1dd2 20       		.uleb128 0x20
 11326 1dd3 24       		.byte	0x24
 11327 1dd4 17       		.byte	0x17
 11328 1dd5 25       		.byte	0x25
 11329 1dd6 21       		.byte	0x21
 11330 1dd7 27       		.byte	0x27
 11331 1dd8 22       		.byte	0x22
 11332 1dd9 9F       		.byte	0x9f
 11333 1dda 14020000 		.4byte	.LVL58
 11334 1dde 18020000 		.4byte	.LVL60
 11335 1de2 3700     		.2byte	0x37
 11336 1de4 70       		.byte	0x70
 11337 1de5 00       		.sleb128 0
 11338 1de6 75       		.byte	0x75
 11339 1de7 00       		.sleb128 0
 11340 1de8 21       		.byte	0x21
 11341 1de9 72       		.byte	0x72
 11342 1dea 00       		.sleb128 0
 11343 1deb 06       		.byte	0x6
 11344 1dec 1A       		.byte	0x1a
 11345 1ded 75       		.byte	0x75
 11346 1dee 00       		.sleb128 0
 11347 1def 70       		.byte	0x70
 11348 1df0 00       		.sleb128 0
 11349 1df1 1A       		.byte	0x1a
 11350 1df2 21       		.byte	0x21
 11351 1df3 75       		.byte	0x75
 11352 1df4 00       		.sleb128 0
 11353 1df5 3D       		.byte	0x3d
 11354 1df6 14       		.byte	0x14
 11355 1df7 14       		.byte	0x14
 11356 1df8 1F       		.byte	0x1f
 11357 1df9 23       		.byte	0x23
 11358 1dfa 20       		.uleb128 0x20
 11359 1dfb 24       		.byte	0x24
 11360 1dfc 17       		.byte	0x17
 11361 1dfd 25       		.byte	0x25
 11362 1dfe 21       		.byte	0x21
 11363 1dff 75       		.byte	0x75
 11364 1e00 00       		.sleb128 0
 11365 1e01 32       		.byte	0x32
 11366 1e02 14       		.byte	0x14
 11367 1e03 14       		.byte	0x14
 11368 1e04 1F       		.byte	0x1f
 11369 1e05 23       		.byte	0x23
 11370 1e06 20       		.uleb128 0x20
 11371 1e07 24       		.byte	0x24
ARM GAS  C:\Users\Phuong\AppData\Local\Temp\ccuEFeTd.s 			page 211


 11372 1e08 17       		.byte	0x17
 11373 1e09 25       		.byte	0x25
 11374 1e0a 21       		.byte	0x21
 11375 1e0b 27       		.byte	0x27
 11376 1e0c 75       		.byte	0x75
 11377 1e0d 00       		.sleb128 0
 11378 1e0e 46       		.byte	0x46
 11379 1e0f 14       		.byte	0x14
 11380 1e10 14       		.byte	0x14
 11381 1e11 1F       		.byte	0x1f
 11382 1e12 23       		.byte	0x23
 11383 1e13 20       		.uleb128 0x20
 11384 1e14 24       		.byte	0x24
 11385 1e15 17       		.byte	0x17
 11386 1e16 25       		.byte	0x25
 11387 1e17 21       		.byte	0x21
 11388 1e18 27       		.byte	0x27
 11389 1e19 22       		.byte	0x22
 11390 1e1a 9F       		.byte	0x9f
 11391 1e1b 18020000 		.4byte	.LVL60
 11392 1e1f 1A020000 		.4byte	.LVL61
 11393 1e23 3700     		.2byte	0x37
 11394 1e25 70       		.byte	0x70
 11395 1e26 00       		.sleb128 0
 11396 1e27 75       		.byte	0x75
 11397 1e28 00       		.sleb128 0
 11398 1e29 21       		.byte	0x21
 11399 1e2a 72       		.byte	0x72
 11400 1e2b 60       		.sleb128 -32
 11401 1e2c 06       		.byte	0x6
 11402 1e2d 1A       		.byte	0x1a
 11403 1e2e 75       		.byte	0x75
 11404 1e2f 00       		.sleb128 0
 11405 1e30 70       		.byte	0x70
 11406 1e31 00       		.sleb128 0
 11407 1e32 1A       		.byte	0x1a
 11408 1e33 21       		.byte	0x21
 11409 1e34 75       		.byte	0x75
 11410 1e35 00       		.sleb128 0
 11411 1e36 3D       		.byte	0x3d
 11412 1e37 14       		.byte	0x14
 11413 1e38 14       		.byte	0x14
 11414 1e39 1F       		.byte	0x1f
 11415 1e3a 23       		.byte	0x23
 11416 1e3b 20       		.uleb128 0x20
 11417 1e3c 24       		.byte	0x24
 11418 1e3d 17       		.byte	0x17
 11419 1e3e 25       		.byte	0x25
 11420 1e3f 21       		.byte	0x21
 11421 1e40 75       		.byte	0x75
 11422 1e41 00       		.sleb128 0
 11423 1e42 32       		.byte	0x32
 11424 1e43 14       		.byte	0x14
 11425 1e44 14       		.byte	0x14
 11426 1e45 1F       		.byte	0x1f
 11427 1e46 23       		.byte	0x23
 11428 1e47 20       		.uleb128 0x20
ARM GAS  C:\Users\Phuong\AppData\Local\Temp\ccuEFeTd.s 			page 212


 11429 1e48 24       		.byte	0x24
 11430 1e49 17       		.byte	0x17
 11431 1e4a 25       		.byte	0x25
 11432 1e4b 21       		.byte	0x21
 11433 1e4c 27       		.byte	0x27
 11434 1e4d 75       		.byte	0x75
 11435 1e4e 00       		.sleb128 0
 11436 1e4f 46       		.byte	0x46
 11437 1e50 14       		.byte	0x14
 11438 1e51 14       		.byte	0x14
 11439 1e52 1F       		.byte	0x1f
 11440 1e53 23       		.byte	0x23
 11441 1e54 20       		.uleb128 0x20
 11442 1e55 24       		.byte	0x24
 11443 1e56 17       		.byte	0x17
 11444 1e57 25       		.byte	0x25
 11445 1e58 21       		.byte	0x21
 11446 1e59 27       		.byte	0x27
 11447 1e5a 22       		.byte	0x22
 11448 1e5b 9F       		.byte	0x9f
 11449 1e5c 1A020000 		.4byte	.LVL61
 11450 1e60 32020000 		.4byte	.LVL63
 11451 1e64 3800     		.2byte	0x38
 11452 1e66 70       		.byte	0x70
 11453 1e67 00       		.sleb128 0
 11454 1e68 75       		.byte	0x75
 11455 1e69 00       		.sleb128 0
 11456 1e6a 21       		.byte	0x21
 11457 1e6b 91       		.byte	0x91
 11458 1e6c B87D     		.sleb128 -328
 11459 1e6e 06       		.byte	0x6
 11460 1e6f 1A       		.byte	0x1a
 11461 1e70 75       		.byte	0x75
 11462 1e71 00       		.sleb128 0
 11463 1e72 70       		.byte	0x70
 11464 1e73 00       		.sleb128 0
 11465 1e74 1A       		.byte	0x1a
 11466 1e75 21       		.byte	0x21
 11467 1e76 75       		.byte	0x75
 11468 1e77 00       		.sleb128 0
 11469 1e78 3D       		.byte	0x3d
 11470 1e79 14       		.byte	0x14
 11471 1e7a 14       		.byte	0x14
 11472 1e7b 1F       		.byte	0x1f
 11473 1e7c 23       		.byte	0x23
 11474 1e7d 20       		.uleb128 0x20
 11475 1e7e 24       		.byte	0x24
 11476 1e7f 17       		.byte	0x17
 11477 1e80 25       		.byte	0x25
 11478 1e81 21       		.byte	0x21
 11479 1e82 75       		.byte	0x75
 11480 1e83 00       		.sleb128 0
 11481 1e84 32       		.byte	0x32
 11482 1e85 14       		.byte	0x14
 11483 1e86 14       		.byte	0x14
 11484 1e87 1F       		.byte	0x1f
 11485 1e88 23       		.byte	0x23
ARM GAS  C:\Users\Phuong\AppData\Local\Temp\ccuEFeTd.s 			page 213


 11486 1e89 20       		.uleb128 0x20
 11487 1e8a 24       		.byte	0x24
 11488 1e8b 17       		.byte	0x17
 11489 1e8c 25       		.byte	0x25
 11490 1e8d 21       		.byte	0x21
 11491 1e8e 27       		.byte	0x27
 11492 1e8f 75       		.byte	0x75
 11493 1e90 00       		.sleb128 0
 11494 1e91 46       		.byte	0x46
 11495 1e92 14       		.byte	0x14
 11496 1e93 14       		.byte	0x14
 11497 1e94 1F       		.byte	0x1f
 11498 1e95 23       		.byte	0x23
 11499 1e96 20       		.uleb128 0x20
 11500 1e97 24       		.byte	0x24
 11501 1e98 17       		.byte	0x17
 11502 1e99 25       		.byte	0x25
 11503 1e9a 21       		.byte	0x21
 11504 1e9b 27       		.byte	0x27
 11505 1e9c 22       		.byte	0x22
 11506 1e9d 9F       		.byte	0x9f
 11507 1e9e 32020000 		.4byte	.LVL63
 11508 1ea2 3A020000 		.4byte	.LVL64
 11509 1ea6 3900     		.2byte	0x39
 11510 1ea8 70       		.byte	0x70
 11511 1ea9 00       		.sleb128 0
 11512 1eaa 75       		.byte	0x75
 11513 1eab 00       		.sleb128 0
 11514 1eac 21       		.byte	0x21
 11515 1ead 91       		.byte	0x91
 11516 1eae B87D     		.sleb128 -328
 11517 1eb0 06       		.byte	0x6
 11518 1eb1 1A       		.byte	0x1a
 11519 1eb2 75       		.byte	0x75
 11520 1eb3 00       		.sleb128 0
 11521 1eb4 70       		.byte	0x70
 11522 1eb5 00       		.sleb128 0
 11523 1eb6 1A       		.byte	0x1a
 11524 1eb7 21       		.byte	0x21
 11525 1eb8 75       		.byte	0x75
 11526 1eb9 00       		.sleb128 0
 11527 1eba 3D       		.byte	0x3d
 11528 1ebb 14       		.byte	0x14
 11529 1ebc 14       		.byte	0x14
 11530 1ebd 1F       		.byte	0x1f
 11531 1ebe 23       		.byte	0x23
 11532 1ebf 20       		.uleb128 0x20
 11533 1ec0 24       		.byte	0x24
 11534 1ec1 17       		.byte	0x17
 11535 1ec2 25       		.byte	0x25
 11536 1ec3 21       		.byte	0x21
 11537 1ec4 75       		.byte	0x75
 11538 1ec5 00       		.sleb128 0
 11539 1ec6 32       		.byte	0x32
 11540 1ec7 14       		.byte	0x14
 11541 1ec8 14       		.byte	0x14
 11542 1ec9 1F       		.byte	0x1f
ARM GAS  C:\Users\Phuong\AppData\Local\Temp\ccuEFeTd.s 			page 214


 11543 1eca 23       		.byte	0x23
 11544 1ecb 20       		.uleb128 0x20
 11545 1ecc 24       		.byte	0x24
 11546 1ecd 17       		.byte	0x17
 11547 1ece 25       		.byte	0x25
 11548 1ecf 21       		.byte	0x21
 11549 1ed0 27       		.byte	0x27
 11550 1ed1 75       		.byte	0x75
 11551 1ed2 00       		.sleb128 0
 11552 1ed3 73       		.byte	0x73
 11553 1ed4 00       		.sleb128 0
 11554 1ed5 14       		.byte	0x14
 11555 1ed6 14       		.byte	0x14
 11556 1ed7 1F       		.byte	0x1f
 11557 1ed8 23       		.byte	0x23
 11558 1ed9 20       		.uleb128 0x20
 11559 1eda 24       		.byte	0x24
 11560 1edb 17       		.byte	0x17
 11561 1edc 25       		.byte	0x25
 11562 1edd 21       		.byte	0x21
 11563 1ede 27       		.byte	0x27
 11564 1edf 22       		.byte	0x22
 11565 1ee0 9F       		.byte	0x9f
 11566 1ee1 3A020000 		.4byte	.LVL64
 11567 1ee5 48020000 		.4byte	.LVL65
 11568 1ee9 3800     		.2byte	0x38
 11569 1eeb 70       		.byte	0x70
 11570 1eec 00       		.sleb128 0
 11571 1eed 75       		.byte	0x75
 11572 1eee 00       		.sleb128 0
 11573 1eef 21       		.byte	0x21
 11574 1ef0 91       		.byte	0x91
 11575 1ef1 B87D     		.sleb128 -328
 11576 1ef3 06       		.byte	0x6
 11577 1ef4 1A       		.byte	0x1a
 11578 1ef5 75       		.byte	0x75
 11579 1ef6 00       		.sleb128 0
 11580 1ef7 70       		.byte	0x70
 11581 1ef8 00       		.sleb128 0
 11582 1ef9 1A       		.byte	0x1a
 11583 1efa 21       		.byte	0x21
 11584 1efb 75       		.byte	0x75
 11585 1efc 00       		.sleb128 0
 11586 1efd 3D       		.byte	0x3d
 11587 1efe 14       		.byte	0x14
 11588 1eff 14       		.byte	0x14
 11589 1f00 1F       		.byte	0x1f
 11590 1f01 23       		.byte	0x23
 11591 1f02 20       		.uleb128 0x20
 11592 1f03 24       		.byte	0x24
 11593 1f04 17       		.byte	0x17
 11594 1f05 25       		.byte	0x25
 11595 1f06 21       		.byte	0x21
 11596 1f07 75       		.byte	0x75
 11597 1f08 00       		.sleb128 0
 11598 1f09 32       		.byte	0x32
 11599 1f0a 14       		.byte	0x14
ARM GAS  C:\Users\Phuong\AppData\Local\Temp\ccuEFeTd.s 			page 215


 11600 1f0b 14       		.byte	0x14
 11601 1f0c 1F       		.byte	0x1f
 11602 1f0d 23       		.byte	0x23
 11603 1f0e 20       		.uleb128 0x20
 11604 1f0f 24       		.byte	0x24
 11605 1f10 17       		.byte	0x17
 11606 1f11 25       		.byte	0x25
 11607 1f12 21       		.byte	0x21
 11608 1f13 27       		.byte	0x27
 11609 1f14 75       		.byte	0x75
 11610 1f15 00       		.sleb128 0
 11611 1f16 46       		.byte	0x46
 11612 1f17 14       		.byte	0x14
 11613 1f18 14       		.byte	0x14
 11614 1f19 1F       		.byte	0x1f
 11615 1f1a 23       		.byte	0x23
 11616 1f1b 20       		.uleb128 0x20
 11617 1f1c 24       		.byte	0x24
 11618 1f1d 17       		.byte	0x17
 11619 1f1e 25       		.byte	0x25
 11620 1f1f 21       		.byte	0x21
 11621 1f20 27       		.byte	0x27
 11622 1f21 22       		.byte	0x22
 11623 1f22 9F       		.byte	0x9f
 11624 1f23 48020000 		.4byte	.LVL65
 11625 1f27 4E020000 		.4byte	.LVL66
 11626 1f2b 0100     		.2byte	0x1
 11627 1f2d 54       		.byte	0x54
 11628 1f2e 4E020000 		.4byte	.LVL66
 11629 1f32 50020000 		.4byte	.LVL67
 11630 1f36 1100     		.2byte	0x11
 11631 1f38 91       		.byte	0x91
 11632 1f39 907D     		.sleb128 -368
 11633 1f3b 06       		.byte	0x6
 11634 1f3c 71       		.byte	0x71
 11635 1f3d 00       		.sleb128 0
 11636 1f3e 21       		.byte	0x21
 11637 1f3f 70       		.byte	0x70
 11638 1f40 00       		.sleb128 0
 11639 1f41 1A       		.byte	0x1a
 11640 1f42 72       		.byte	0x72
 11641 1f43 00       		.sleb128 0
 11642 1f44 21       		.byte	0x21
 11643 1f45 79       		.byte	0x79
 11644 1f46 00       		.sleb128 0
 11645 1f47 22       		.byte	0x22
 11646 1f48 9F       		.byte	0x9f
 11647 1f49 50020000 		.4byte	.LVL67
 11648 1f4d 56020000 		.4byte	.LVL68
 11649 1f51 1600     		.2byte	0x16
 11650 1f53 91       		.byte	0x91
 11651 1f54 907D     		.sleb128 -368
 11652 1f56 06       		.byte	0x6
 11653 1f57 71       		.byte	0x71
 11654 1f58 00       		.sleb128 0
 11655 1f59 21       		.byte	0x21
 11656 1f5a 70       		.byte	0x70
ARM GAS  C:\Users\Phuong\AppData\Local\Temp\ccuEFeTd.s 			page 216


 11657 1f5b 00       		.sleb128 0
 11658 1f5c 1A       		.byte	0x1a
 11659 1f5d 71       		.byte	0x71
 11660 1f5e 00       		.sleb128 0
 11661 1f5f 91       		.byte	0x91
 11662 1f60 907D     		.sleb128 -368
 11663 1f62 06       		.byte	0x6
 11664 1f63 1A       		.byte	0x1a
 11665 1f64 21       		.byte	0x21
 11666 1f65 79       		.byte	0x79
 11667 1f66 00       		.sleb128 0
 11668 1f67 22       		.byte	0x22
 11669 1f68 9F       		.byte	0x9f
 11670 1f69 56020000 		.4byte	.LVL68
 11671 1f6d 7E020000 		.4byte	.LVL73
 11672 1f71 3A00     		.2byte	0x3a
 11673 1f73 91       		.byte	0x91
 11674 1f74 907D     		.sleb128 -368
 11675 1f76 06       		.byte	0x6
 11676 1f77 71       		.byte	0x71
 11677 1f78 00       		.sleb128 0
 11678 1f79 21       		.byte	0x21
 11679 1f7a 70       		.byte	0x70
 11680 1f7b 00       		.sleb128 0
 11681 1f7c 1A       		.byte	0x1a
 11682 1f7d 71       		.byte	0x71
 11683 1f7e 00       		.sleb128 0
 11684 1f7f 91       		.byte	0x91
 11685 1f80 907D     		.sleb128 -368
 11686 1f82 06       		.byte	0x6
 11687 1f83 1A       		.byte	0x1a
 11688 1f84 21       		.byte	0x21
 11689 1f85 71       		.byte	0x71
 11690 1f86 00       		.sleb128 0
 11691 1f87 3D       		.byte	0x3d
 11692 1f88 14       		.byte	0x14
 11693 1f89 14       		.byte	0x14
 11694 1f8a 1F       		.byte	0x1f
 11695 1f8b 23       		.byte	0x23
 11696 1f8c 20       		.uleb128 0x20
 11697 1f8d 24       		.byte	0x24
 11698 1f8e 17       		.byte	0x17
 11699 1f8f 25       		.byte	0x25
 11700 1f90 21       		.byte	0x21
 11701 1f91 71       		.byte	0x71
 11702 1f92 00       		.sleb128 0
 11703 1f93 32       		.byte	0x32
 11704 1f94 14       		.byte	0x14
 11705 1f95 14       		.byte	0x14
 11706 1f96 1F       		.byte	0x1f
 11707 1f97 23       		.byte	0x23
 11708 1f98 20       		.uleb128 0x20
 11709 1f99 24       		.byte	0x24
 11710 1f9a 17       		.byte	0x17
 11711 1f9b 25       		.byte	0x25
 11712 1f9c 21       		.byte	0x21
 11713 1f9d 27       		.byte	0x27
ARM GAS  C:\Users\Phuong\AppData\Local\Temp\ccuEFeTd.s 			page 217


 11714 1f9e 71       		.byte	0x71
 11715 1f9f 00       		.sleb128 0
 11716 1fa0 46       		.byte	0x46
 11717 1fa1 14       		.byte	0x14
 11718 1fa2 14       		.byte	0x14
 11719 1fa3 1F       		.byte	0x1f
 11720 1fa4 23       		.byte	0x23
 11721 1fa5 20       		.uleb128 0x20
 11722 1fa6 24       		.byte	0x24
 11723 1fa7 17       		.byte	0x17
 11724 1fa8 25       		.byte	0x25
 11725 1fa9 21       		.byte	0x21
 11726 1faa 27       		.byte	0x27
 11727 1fab 22       		.byte	0x22
 11728 1fac 9F       		.byte	0x9f
 11729 1fad 7E020000 		.4byte	.LVL73
 11730 1fb1 9E020000 		.4byte	.LVL78
 11731 1fb5 3F00     		.2byte	0x3f
 11732 1fb7 91       		.byte	0x91
 11733 1fb8 907D     		.sleb128 -368
 11734 1fba 06       		.byte	0x6
 11735 1fbb 7D       		.byte	0x7d
 11736 1fbc 00       		.sleb128 0
 11737 1fbd 06       		.byte	0x6
 11738 1fbe 21       		.byte	0x21
 11739 1fbf 70       		.byte	0x70
 11740 1fc0 00       		.sleb128 0
 11741 1fc1 1A       		.byte	0x1a
 11742 1fc2 7D       		.byte	0x7d
 11743 1fc3 00       		.sleb128 0
 11744 1fc4 06       		.byte	0x6
 11745 1fc5 91       		.byte	0x91
 11746 1fc6 907D     		.sleb128 -368
 11747 1fc8 06       		.byte	0x6
 11748 1fc9 1A       		.byte	0x1a
 11749 1fca 21       		.byte	0x21
 11750 1fcb 7D       		.byte	0x7d
 11751 1fcc 00       		.sleb128 0
 11752 1fcd 06       		.byte	0x6
 11753 1fce 3D       		.byte	0x3d
 11754 1fcf 14       		.byte	0x14
 11755 1fd0 14       		.byte	0x14
 11756 1fd1 1F       		.byte	0x1f
 11757 1fd2 23       		.byte	0x23
 11758 1fd3 20       		.uleb128 0x20
 11759 1fd4 24       		.byte	0x24
 11760 1fd5 17       		.byte	0x17
 11761 1fd6 25       		.byte	0x25
 11762 1fd7 21       		.byte	0x21
 11763 1fd8 7D       		.byte	0x7d
 11764 1fd9 00       		.sleb128 0
 11765 1fda 06       		.byte	0x6
 11766 1fdb 32       		.byte	0x32
 11767 1fdc 14       		.byte	0x14
 11768 1fdd 14       		.byte	0x14
 11769 1fde 1F       		.byte	0x1f
 11770 1fdf 23       		.byte	0x23
ARM GAS  C:\Users\Phuong\AppData\Local\Temp\ccuEFeTd.s 			page 218


 11771 1fe0 20       		.uleb128 0x20
 11772 1fe1 24       		.byte	0x24
 11773 1fe2 17       		.byte	0x17
 11774 1fe3 25       		.byte	0x25
 11775 1fe4 21       		.byte	0x21
 11776 1fe5 27       		.byte	0x27
 11777 1fe6 7D       		.byte	0x7d
 11778 1fe7 00       		.sleb128 0
 11779 1fe8 06       		.byte	0x6
 11780 1fe9 46       		.byte	0x46
 11781 1fea 14       		.byte	0x14
 11782 1feb 14       		.byte	0x14
 11783 1fec 1F       		.byte	0x1f
 11784 1fed 23       		.byte	0x23
 11785 1fee 20       		.uleb128 0x20
 11786 1fef 24       		.byte	0x24
 11787 1ff0 17       		.byte	0x17
 11788 1ff1 25       		.byte	0x25
 11789 1ff2 21       		.byte	0x21
 11790 1ff3 27       		.byte	0x27
 11791 1ff4 22       		.byte	0x22
 11792 1ff5 9F       		.byte	0x9f
 11793 1ff6 9E020000 		.4byte	.LVL78
 11794 1ffa B8020000 		.4byte	.LVL82
 11795 1ffe 4100     		.2byte	0x41
 11796 2000 91       		.byte	0x91
 11797 2001 907D     		.sleb128 -368
 11798 2003 06       		.byte	0x6
 11799 2004 7D       		.byte	0x7d
 11800 2005 00       		.sleb128 0
 11801 2006 06       		.byte	0x6
 11802 2007 21       		.byte	0x21
 11803 2008 70       		.byte	0x70
 11804 2009 00       		.sleb128 0
 11805 200a 1A       		.byte	0x1a
 11806 200b 7D       		.byte	0x7d
 11807 200c 00       		.sleb128 0
 11808 200d 06       		.byte	0x6
 11809 200e 91       		.byte	0x91
 11810 200f 907D     		.sleb128 -368
 11811 2011 06       		.byte	0x6
 11812 2012 1A       		.byte	0x1a
 11813 2013 21       		.byte	0x21
 11814 2014 7D       		.byte	0x7d
 11815 2015 00       		.sleb128 0
 11816 2016 06       		.byte	0x6
 11817 2017 75       		.byte	0x75
 11818 2018 6D       		.sleb128 -19
 11819 2019 14       		.byte	0x14
 11820 201a 14       		.byte	0x14
 11821 201b 1F       		.byte	0x1f
 11822 201c 23       		.byte	0x23
 11823 201d 20       		.uleb128 0x20
 11824 201e 24       		.byte	0x24
 11825 201f 17       		.byte	0x17
 11826 2020 25       		.byte	0x25
 11827 2021 21       		.byte	0x21
ARM GAS  C:\Users\Phuong\AppData\Local\Temp\ccuEFeTd.s 			page 219


 11828 2022 7D       		.byte	0x7d
 11829 2023 00       		.sleb128 0
 11830 2024 06       		.byte	0x6
 11831 2025 75       		.byte	0x75
 11832 2026 62       		.sleb128 -30
 11833 2027 14       		.byte	0x14
 11834 2028 14       		.byte	0x14
 11835 2029 1F       		.byte	0x1f
 11836 202a 23       		.byte	0x23
 11837 202b 20       		.uleb128 0x20
 11838 202c 24       		.byte	0x24
 11839 202d 17       		.byte	0x17
 11840 202e 25       		.byte	0x25
 11841 202f 21       		.byte	0x21
 11842 2030 27       		.byte	0x27
 11843 2031 7D       		.byte	0x7d
 11844 2032 00       		.sleb128 0
 11845 2033 06       		.byte	0x6
 11846 2034 46       		.byte	0x46
 11847 2035 14       		.byte	0x14
 11848 2036 14       		.byte	0x14
 11849 2037 1F       		.byte	0x1f
 11850 2038 23       		.byte	0x23
 11851 2039 20       		.uleb128 0x20
 11852 203a 24       		.byte	0x24
 11853 203b 17       		.byte	0x17
 11854 203c 25       		.byte	0x25
 11855 203d 21       		.byte	0x21
 11856 203e 27       		.byte	0x27
 11857 203f 22       		.byte	0x22
 11858 2040 9F       		.byte	0x9f
 11859 2041 B8020000 		.4byte	.LVL82
 11860 2045 C2020000 		.4byte	.LVL83
 11861 2049 4200     		.2byte	0x42
 11862 204b 91       		.byte	0x91
 11863 204c 907D     		.sleb128 -368
 11864 204e 06       		.byte	0x6
 11865 204f 7D       		.byte	0x7d
 11866 2050 00       		.sleb128 0
 11867 2051 06       		.byte	0x6
 11868 2052 21       		.byte	0x21
 11869 2053 70       		.byte	0x70
 11870 2054 00       		.sleb128 0
 11871 2055 1A       		.byte	0x1a
 11872 2056 7D       		.byte	0x7d
 11873 2057 00       		.sleb128 0
 11874 2058 06       		.byte	0x6
 11875 2059 91       		.byte	0x91
 11876 205a 907D     		.sleb128 -368
 11877 205c 06       		.byte	0x6
 11878 205d 1A       		.byte	0x1a
 11879 205e 21       		.byte	0x21
 11880 205f 7D       		.byte	0x7d
 11881 2060 00       		.sleb128 0
 11882 2061 06       		.byte	0x6
 11883 2062 75       		.byte	0x75
 11884 2063 6D       		.sleb128 -19
ARM GAS  C:\Users\Phuong\AppData\Local\Temp\ccuEFeTd.s 			page 220


 11885 2064 14       		.byte	0x14
 11886 2065 14       		.byte	0x14
 11887 2066 1F       		.byte	0x1f
 11888 2067 23       		.byte	0x23
 11889 2068 20       		.uleb128 0x20
 11890 2069 24       		.byte	0x24
 11891 206a 17       		.byte	0x17
 11892 206b 25       		.byte	0x25
 11893 206c 21       		.byte	0x21
 11894 206d 7D       		.byte	0x7d
 11895 206e 00       		.sleb128 0
 11896 206f 06       		.byte	0x6
 11897 2070 75       		.byte	0x75
 11898 2071 62       		.sleb128 -30
 11899 2072 14       		.byte	0x14
 11900 2073 14       		.byte	0x14
 11901 2074 1F       		.byte	0x1f
 11902 2075 23       		.byte	0x23
 11903 2076 20       		.uleb128 0x20
 11904 2077 24       		.byte	0x24
 11905 2078 17       		.byte	0x17
 11906 2079 25       		.byte	0x25
 11907 207a 21       		.byte	0x21
 11908 207b 27       		.byte	0x27
 11909 207c 7D       		.byte	0x7d
 11910 207d 00       		.sleb128 0
 11911 207e 06       		.byte	0x6
 11912 207f 73       		.byte	0x73
 11913 2080 00       		.sleb128 0
 11914 2081 14       		.byte	0x14
 11915 2082 14       		.byte	0x14
 11916 2083 1F       		.byte	0x1f
 11917 2084 23       		.byte	0x23
 11918 2085 20       		.uleb128 0x20
 11919 2086 24       		.byte	0x24
 11920 2087 17       		.byte	0x17
 11921 2088 25       		.byte	0x25
 11922 2089 21       		.byte	0x21
 11923 208a 27       		.byte	0x27
 11924 208b 22       		.byte	0x22
 11925 208c 9F       		.byte	0x9f
 11926 208d C2020000 		.4byte	.LVL83
 11927 2091 D4020000 		.4byte	.LVL84
 11928 2095 4100     		.2byte	0x41
 11929 2097 91       		.byte	0x91
 11930 2098 907D     		.sleb128 -368
 11931 209a 06       		.byte	0x6
 11932 209b 7D       		.byte	0x7d
 11933 209c 00       		.sleb128 0
 11934 209d 06       		.byte	0x6
 11935 209e 21       		.byte	0x21
 11936 209f 70       		.byte	0x70
 11937 20a0 00       		.sleb128 0
 11938 20a1 1A       		.byte	0x1a
 11939 20a2 7D       		.byte	0x7d
 11940 20a3 00       		.sleb128 0
 11941 20a4 06       		.byte	0x6
ARM GAS  C:\Users\Phuong\AppData\Local\Temp\ccuEFeTd.s 			page 221


 11942 20a5 91       		.byte	0x91
 11943 20a6 907D     		.sleb128 -368
 11944 20a8 06       		.byte	0x6
 11945 20a9 1A       		.byte	0x1a
 11946 20aa 21       		.byte	0x21
 11947 20ab 7D       		.byte	0x7d
 11948 20ac 00       		.sleb128 0
 11949 20ad 06       		.byte	0x6
 11950 20ae 75       		.byte	0x75
 11951 20af 6D       		.sleb128 -19
 11952 20b0 14       		.byte	0x14
 11953 20b1 14       		.byte	0x14
 11954 20b2 1F       		.byte	0x1f
 11955 20b3 23       		.byte	0x23
 11956 20b4 20       		.uleb128 0x20
 11957 20b5 24       		.byte	0x24
 11958 20b6 17       		.byte	0x17
 11959 20b7 25       		.byte	0x25
 11960 20b8 21       		.byte	0x21
 11961 20b9 7D       		.byte	0x7d
 11962 20ba 00       		.sleb128 0
 11963 20bb 06       		.byte	0x6
 11964 20bc 75       		.byte	0x75
 11965 20bd 62       		.sleb128 -30
 11966 20be 14       		.byte	0x14
 11967 20bf 14       		.byte	0x14
 11968 20c0 1F       		.byte	0x1f
 11969 20c1 23       		.byte	0x23
 11970 20c2 20       		.uleb128 0x20
 11971 20c3 24       		.byte	0x24
 11972 20c4 17       		.byte	0x17
 11973 20c5 25       		.byte	0x25
 11974 20c6 21       		.byte	0x21
 11975 20c7 27       		.byte	0x27
 11976 20c8 7D       		.byte	0x7d
 11977 20c9 00       		.sleb128 0
 11978 20ca 06       		.byte	0x6
 11979 20cb 46       		.byte	0x46
 11980 20cc 14       		.byte	0x14
 11981 20cd 14       		.byte	0x14
 11982 20ce 1F       		.byte	0x1f
 11983 20cf 23       		.byte	0x23
 11984 20d0 20       		.uleb128 0x20
 11985 20d1 24       		.byte	0x24
 11986 20d2 17       		.byte	0x17
 11987 20d3 25       		.byte	0x25
 11988 20d4 21       		.byte	0x21
 11989 20d5 27       		.byte	0x27
 11990 20d6 22       		.byte	0x22
 11991 20d7 9F       		.byte	0x9f
 11992 20d8 D4020000 		.4byte	.LVL84
 11993 20dc DA020000 		.4byte	.LVL85
 11994 20e0 0100     		.2byte	0x1
 11995 20e2 51       		.byte	0x51
 11996 20e3 DA020000 		.4byte	.LVL85
 11997 20e7 E0020000 		.4byte	.LVL86
 11998 20eb 1200     		.2byte	0x12
ARM GAS  C:\Users\Phuong\AppData\Local\Temp\ccuEFeTd.s 			page 222


 11999 20ed 7D       		.byte	0x7d
 12000 20ee 00       		.sleb128 0
 12001 20ef 06       		.byte	0x6
 12002 20f0 74       		.byte	0x74
 12003 20f1 00       		.sleb128 0
 12004 20f2 21       		.byte	0x21
 12005 20f3 91       		.byte	0x91
 12006 20f4 907D     		.sleb128 -368
 12007 20f6 06       		.byte	0x6
 12008 20f7 1A       		.byte	0x1a
 12009 20f8 73       		.byte	0x73
 12010 20f9 00       		.sleb128 0
 12011 20fa 21       		.byte	0x21
 12012 20fb 79       		.byte	0x79
 12013 20fc 00       		.sleb128 0
 12014 20fd 22       		.byte	0x22
 12015 20fe 9F       		.byte	0x9f
 12016 20ff E0020000 		.4byte	.LVL86
 12017 2103 E4020000 		.4byte	.LVL87
 12018 2107 1200     		.2byte	0x12
 12019 2109 7D       		.byte	0x7d
 12020 210a 00       		.sleb128 0
 12021 210b 06       		.byte	0x6
 12022 210c 74       		.byte	0x74
 12023 210d 00       		.sleb128 0
 12024 210e 21       		.byte	0x21
 12025 210f 91       		.byte	0x91
 12026 2110 907D     		.sleb128 -368
 12027 2112 06       		.byte	0x6
 12028 2113 1A       		.byte	0x1a
 12029 2114 7B       		.byte	0x7b
 12030 2115 00       		.sleb128 0
 12031 2116 21       		.byte	0x21
 12032 2117 79       		.byte	0x79
 12033 2118 00       		.sleb128 0
 12034 2119 22       		.byte	0x22
 12035 211a 9F       		.byte	0x9f
 12036 211b E4020000 		.4byte	.LVL87
 12037 211f 1A030000 		.4byte	.LVL89
 12038 2123 3600     		.2byte	0x36
 12039 2125 7D       		.byte	0x7d
 12040 2126 00       		.sleb128 0
 12041 2127 06       		.byte	0x6
 12042 2128 74       		.byte	0x74
 12043 2129 00       		.sleb128 0
 12044 212a 21       		.byte	0x21
 12045 212b 91       		.byte	0x91
 12046 212c 907D     		.sleb128 -368
 12047 212e 06       		.byte	0x6
 12048 212f 1A       		.byte	0x1a
 12049 2130 7B       		.byte	0x7b
 12050 2131 00       		.sleb128 0
 12051 2132 21       		.byte	0x21
 12052 2133 74       		.byte	0x74
 12053 2134 00       		.sleb128 0
 12054 2135 3D       		.byte	0x3d
 12055 2136 14       		.byte	0x14
ARM GAS  C:\Users\Phuong\AppData\Local\Temp\ccuEFeTd.s 			page 223


 12056 2137 14       		.byte	0x14
 12057 2138 1F       		.byte	0x1f
 12058 2139 23       		.byte	0x23
 12059 213a 20       		.uleb128 0x20
 12060 213b 24       		.byte	0x24
 12061 213c 17       		.byte	0x17
 12062 213d 25       		.byte	0x25
 12063 213e 21       		.byte	0x21
 12064 213f 74       		.byte	0x74
 12065 2140 00       		.sleb128 0
 12066 2141 32       		.byte	0x32
 12067 2142 14       		.byte	0x14
 12068 2143 14       		.byte	0x14
 12069 2144 1F       		.byte	0x1f
 12070 2145 23       		.byte	0x23
 12071 2146 20       		.uleb128 0x20
 12072 2147 24       		.byte	0x24
 12073 2148 17       		.byte	0x17
 12074 2149 25       		.byte	0x25
 12075 214a 21       		.byte	0x21
 12076 214b 27       		.byte	0x27
 12077 214c 74       		.byte	0x74
 12078 214d 00       		.sleb128 0
 12079 214e 46       		.byte	0x46
 12080 214f 14       		.byte	0x14
 12081 2150 14       		.byte	0x14
 12082 2151 1F       		.byte	0x1f
 12083 2152 23       		.byte	0x23
 12084 2153 20       		.uleb128 0x20
 12085 2154 24       		.byte	0x24
 12086 2155 17       		.byte	0x17
 12087 2156 25       		.byte	0x25
 12088 2157 21       		.byte	0x21
 12089 2158 27       		.byte	0x27
 12090 2159 22       		.byte	0x22
 12091 215a 9F       		.byte	0x9f
 12092 215b 1A030000 		.4byte	.LVL89
 12093 215f 34030000 		.4byte	.LVL91
 12094 2163 3A00     		.2byte	0x3a
 12095 2165 7D       		.byte	0x7d
 12096 2166 00       		.sleb128 0
 12097 2167 06       		.byte	0x6
 12098 2168 74       		.byte	0x74
 12099 2169 00       		.sleb128 0
 12100 216a 21       		.byte	0x21
 12101 216b 91       		.byte	0x91
 12102 216c 907D     		.sleb128 -368
 12103 216e 06       		.byte	0x6
 12104 216f 1A       		.byte	0x1a
 12105 2170 74       		.byte	0x74
 12106 2171 00       		.sleb128 0
 12107 2172 7D       		.byte	0x7d
 12108 2173 00       		.sleb128 0
 12109 2174 06       		.byte	0x6
 12110 2175 1A       		.byte	0x1a
 12111 2176 21       		.byte	0x21
 12112 2177 74       		.byte	0x74
ARM GAS  C:\Users\Phuong\AppData\Local\Temp\ccuEFeTd.s 			page 224


 12113 2178 00       		.sleb128 0
 12114 2179 3D       		.byte	0x3d
 12115 217a 14       		.byte	0x14
 12116 217b 14       		.byte	0x14
 12117 217c 1F       		.byte	0x1f
 12118 217d 23       		.byte	0x23
 12119 217e 20       		.uleb128 0x20
 12120 217f 24       		.byte	0x24
 12121 2180 17       		.byte	0x17
 12122 2181 25       		.byte	0x25
 12123 2182 21       		.byte	0x21
 12124 2183 74       		.byte	0x74
 12125 2184 00       		.sleb128 0
 12126 2185 32       		.byte	0x32
 12127 2186 14       		.byte	0x14
 12128 2187 14       		.byte	0x14
 12129 2188 1F       		.byte	0x1f
 12130 2189 23       		.byte	0x23
 12131 218a 20       		.uleb128 0x20
 12132 218b 24       		.byte	0x24
 12133 218c 17       		.byte	0x17
 12134 218d 25       		.byte	0x25
 12135 218e 21       		.byte	0x21
 12136 218f 27       		.byte	0x27
 12137 2190 74       		.byte	0x74
 12138 2191 00       		.sleb128 0
 12139 2192 46       		.byte	0x46
 12140 2193 14       		.byte	0x14
 12141 2194 14       		.byte	0x14
 12142 2195 1F       		.byte	0x1f
 12143 2196 23       		.byte	0x23
 12144 2197 20       		.uleb128 0x20
 12145 2198 24       		.byte	0x24
 12146 2199 17       		.byte	0x17
 12147 219a 25       		.byte	0x25
 12148 219b 21       		.byte	0x21
 12149 219c 27       		.byte	0x27
 12150 219d 22       		.byte	0x22
 12151 219e 9F       		.byte	0x9f
 12152 219f 34030000 		.4byte	.LVL91
 12153 21a3 3A030000 		.4byte	.LVL92
 12154 21a7 3C00     		.2byte	0x3c
 12155 21a9 7D       		.byte	0x7d
 12156 21aa 00       		.sleb128 0
 12157 21ab 06       		.byte	0x6
 12158 21ac 74       		.byte	0x74
 12159 21ad 00       		.sleb128 0
 12160 21ae 21       		.byte	0x21
 12161 21af 91       		.byte	0x91
 12162 21b0 907D     		.sleb128 -368
 12163 21b2 06       		.byte	0x6
 12164 21b3 1A       		.byte	0x1a
 12165 21b4 74       		.byte	0x74
 12166 21b5 00       		.sleb128 0
 12167 21b6 7D       		.byte	0x7d
 12168 21b7 00       		.sleb128 0
 12169 21b8 06       		.byte	0x6
ARM GAS  C:\Users\Phuong\AppData\Local\Temp\ccuEFeTd.s 			page 225


 12170 21b9 1A       		.byte	0x1a
 12171 21ba 21       		.byte	0x21
 12172 21bb 74       		.byte	0x74
 12173 21bc 00       		.sleb128 0
 12174 21bd 73       		.byte	0x73
 12175 21be 0B       		.sleb128 11
 12176 21bf 14       		.byte	0x14
 12177 21c0 14       		.byte	0x14
 12178 21c1 1F       		.byte	0x1f
 12179 21c2 23       		.byte	0x23
 12180 21c3 20       		.uleb128 0x20
 12181 21c4 24       		.byte	0x24
 12182 21c5 17       		.byte	0x17
 12183 21c6 25       		.byte	0x25
 12184 21c7 21       		.byte	0x21
 12185 21c8 74       		.byte	0x74
 12186 21c9 00       		.sleb128 0
 12187 21ca 73       		.byte	0x73
 12188 21cb 00       		.sleb128 0
 12189 21cc 14       		.byte	0x14
 12190 21cd 14       		.byte	0x14
 12191 21ce 1F       		.byte	0x1f
 12192 21cf 23       		.byte	0x23
 12193 21d0 20       		.uleb128 0x20
 12194 21d1 24       		.byte	0x24
 12195 21d2 17       		.byte	0x17
 12196 21d3 25       		.byte	0x25
 12197 21d4 21       		.byte	0x21
 12198 21d5 27       		.byte	0x27
 12199 21d6 74       		.byte	0x74
 12200 21d7 00       		.sleb128 0
 12201 21d8 46       		.byte	0x46
 12202 21d9 14       		.byte	0x14
 12203 21da 14       		.byte	0x14
 12204 21db 1F       		.byte	0x1f
 12205 21dc 23       		.byte	0x23
 12206 21dd 20       		.uleb128 0x20
 12207 21de 24       		.byte	0x24
 12208 21df 17       		.byte	0x17
 12209 21e0 25       		.byte	0x25
 12210 21e1 21       		.byte	0x21
 12211 21e2 27       		.byte	0x27
 12212 21e3 22       		.byte	0x22
 12213 21e4 9F       		.byte	0x9f
 12214 21e5 3A030000 		.4byte	.LVL92
 12215 21e9 42030000 		.4byte	.LVL93
 12216 21ed 3B00     		.2byte	0x3b
 12217 21ef 7D       		.byte	0x7d
 12218 21f0 00       		.sleb128 0
 12219 21f1 06       		.byte	0x6
 12220 21f2 74       		.byte	0x74
 12221 21f3 00       		.sleb128 0
 12222 21f4 21       		.byte	0x21
 12223 21f5 91       		.byte	0x91
 12224 21f6 907D     		.sleb128 -368
 12225 21f8 06       		.byte	0x6
 12226 21f9 1A       		.byte	0x1a
ARM GAS  C:\Users\Phuong\AppData\Local\Temp\ccuEFeTd.s 			page 226


 12227 21fa 74       		.byte	0x74
 12228 21fb 00       		.sleb128 0
 12229 21fc 7D       		.byte	0x7d
 12230 21fd 00       		.sleb128 0
 12231 21fe 06       		.byte	0x6
 12232 21ff 1A       		.byte	0x1a
 12233 2200 21       		.byte	0x21
 12234 2201 74       		.byte	0x74
 12235 2202 00       		.sleb128 0
 12236 2203 73       		.byte	0x73
 12237 2204 00       		.sleb128 0
 12238 2205 14       		.byte	0x14
 12239 2206 14       		.byte	0x14
 12240 2207 1F       		.byte	0x1f
 12241 2208 23       		.byte	0x23
 12242 2209 20       		.uleb128 0x20
 12243 220a 24       		.byte	0x24
 12244 220b 17       		.byte	0x17
 12245 220c 25       		.byte	0x25
 12246 220d 21       		.byte	0x21
 12247 220e 74       		.byte	0x74
 12248 220f 00       		.sleb128 0
 12249 2210 32       		.byte	0x32
 12250 2211 14       		.byte	0x14
 12251 2212 14       		.byte	0x14
 12252 2213 1F       		.byte	0x1f
 12253 2214 23       		.byte	0x23
 12254 2215 20       		.uleb128 0x20
 12255 2216 24       		.byte	0x24
 12256 2217 17       		.byte	0x17
 12257 2218 25       		.byte	0x25
 12258 2219 21       		.byte	0x21
 12259 221a 27       		.byte	0x27
 12260 221b 74       		.byte	0x74
 12261 221c 00       		.sleb128 0
 12262 221d 46       		.byte	0x46
 12263 221e 14       		.byte	0x14
 12264 221f 14       		.byte	0x14
 12265 2220 1F       		.byte	0x1f
 12266 2221 23       		.byte	0x23
 12267 2222 20       		.uleb128 0x20
 12268 2223 24       		.byte	0x24
 12269 2224 17       		.byte	0x17
 12270 2225 25       		.byte	0x25
 12271 2226 21       		.byte	0x21
 12272 2227 27       		.byte	0x27
 12273 2228 22       		.byte	0x22
 12274 2229 9F       		.byte	0x9f
 12275 222a 42030000 		.4byte	.LVL93
 12276 222e 52030000 		.4byte	.LVL94
 12277 2232 3B00     		.2byte	0x3b
 12278 2234 7D       		.byte	0x7d
 12279 2235 00       		.sleb128 0
 12280 2236 06       		.byte	0x6
 12281 2237 74       		.byte	0x74
 12282 2238 00       		.sleb128 0
 12283 2239 21       		.byte	0x21
ARM GAS  C:\Users\Phuong\AppData\Local\Temp\ccuEFeTd.s 			page 227


 12284 223a 91       		.byte	0x91
 12285 223b 907D     		.sleb128 -368
 12286 223d 06       		.byte	0x6
 12287 223e 1A       		.byte	0x1a
 12288 223f 74       		.byte	0x74
 12289 2240 00       		.sleb128 0
 12290 2241 7D       		.byte	0x7d
 12291 2242 00       		.sleb128 0
 12292 2243 06       		.byte	0x6
 12293 2244 1A       		.byte	0x1a
 12294 2245 21       		.byte	0x21
 12295 2246 74       		.byte	0x74
 12296 2247 00       		.sleb128 0
 12297 2248 3D       		.byte	0x3d
 12298 2249 14       		.byte	0x14
 12299 224a 14       		.byte	0x14
 12300 224b 1F       		.byte	0x1f
 12301 224c 23       		.byte	0x23
 12302 224d 20       		.uleb128 0x20
 12303 224e 24       		.byte	0x24
 12304 224f 17       		.byte	0x17
 12305 2250 25       		.byte	0x25
 12306 2251 21       		.byte	0x21
 12307 2252 74       		.byte	0x74
 12308 2253 00       		.sleb128 0
 12309 2254 32       		.byte	0x32
 12310 2255 14       		.byte	0x14
 12311 2256 14       		.byte	0x14
 12312 2257 1F       		.byte	0x1f
 12313 2258 23       		.byte	0x23
 12314 2259 20       		.uleb128 0x20
 12315 225a 24       		.byte	0x24
 12316 225b 17       		.byte	0x17
 12317 225c 25       		.byte	0x25
 12318 225d 21       		.byte	0x21
 12319 225e 27       		.byte	0x27
 12320 225f 74       		.byte	0x74
 12321 2260 00       		.sleb128 0
 12322 2261 73       		.byte	0x73
 12323 2262 00       		.sleb128 0
 12324 2263 14       		.byte	0x14
 12325 2264 14       		.byte	0x14
 12326 2265 1F       		.byte	0x1f
 12327 2266 23       		.byte	0x23
 12328 2267 20       		.uleb128 0x20
 12329 2268 24       		.byte	0x24
 12330 2269 17       		.byte	0x17
 12331 226a 25       		.byte	0x25
 12332 226b 21       		.byte	0x21
 12333 226c 27       		.byte	0x27
 12334 226d 22       		.byte	0x22
 12335 226e 9F       		.byte	0x9f
 12336 226f 52030000 		.4byte	.LVL94
 12337 2273 58030000 		.4byte	.LVL95
 12338 2277 3A00     		.2byte	0x3a
 12339 2279 7D       		.byte	0x7d
 12340 227a 00       		.sleb128 0
ARM GAS  C:\Users\Phuong\AppData\Local\Temp\ccuEFeTd.s 			page 228


 12341 227b 06       		.byte	0x6
 12342 227c 74       		.byte	0x74
 12343 227d 00       		.sleb128 0
 12344 227e 21       		.byte	0x21
 12345 227f 91       		.byte	0x91
 12346 2280 907D     		.sleb128 -368
 12347 2282 06       		.byte	0x6
 12348 2283 1A       		.byte	0x1a
 12349 2284 74       		.byte	0x74
 12350 2285 00       		.sleb128 0
 12351 2286 7D       		.byte	0x7d
 12352 2287 00       		.sleb128 0
 12353 2288 06       		.byte	0x6
 12354 2289 1A       		.byte	0x1a
 12355 228a 21       		.byte	0x21
 12356 228b 74       		.byte	0x74
 12357 228c 00       		.sleb128 0
 12358 228d 3D       		.byte	0x3d
 12359 228e 14       		.byte	0x14
 12360 228f 14       		.byte	0x14
 12361 2290 1F       		.byte	0x1f
 12362 2291 23       		.byte	0x23
 12363 2292 20       		.uleb128 0x20
 12364 2293 24       		.byte	0x24
 12365 2294 17       		.byte	0x17
 12366 2295 25       		.byte	0x25
 12367 2296 21       		.byte	0x21
 12368 2297 74       		.byte	0x74
 12369 2298 00       		.sleb128 0
 12370 2299 32       		.byte	0x32
 12371 229a 14       		.byte	0x14
 12372 229b 14       		.byte	0x14
 12373 229c 1F       		.byte	0x1f
 12374 229d 23       		.byte	0x23
 12375 229e 20       		.uleb128 0x20
 12376 229f 24       		.byte	0x24
 12377 22a0 17       		.byte	0x17
 12378 22a1 25       		.byte	0x25
 12379 22a2 21       		.byte	0x21
 12380 22a3 27       		.byte	0x27
 12381 22a4 74       		.byte	0x74
 12382 22a5 00       		.sleb128 0
 12383 22a6 46       		.byte	0x46
 12384 22a7 14       		.byte	0x14
 12385 22a8 14       		.byte	0x14
 12386 22a9 1F       		.byte	0x1f
 12387 22aa 23       		.byte	0x23
 12388 22ab 20       		.uleb128 0x20
 12389 22ac 24       		.byte	0x24
 12390 22ad 17       		.byte	0x17
 12391 22ae 25       		.byte	0x25
 12392 22af 21       		.byte	0x21
 12393 22b0 27       		.byte	0x27
 12394 22b1 22       		.byte	0x22
 12395 22b2 9F       		.byte	0x9f
 12396 22b3 58030000 		.4byte	.LVL95
 12397 22b7 60030000 		.4byte	.LVL96
ARM GAS  C:\Users\Phuong\AppData\Local\Temp\ccuEFeTd.s 			page 229


 12398 22bb 0100     		.2byte	0x1
 12399 22bd 57       		.byte	0x57
 12400 22be 60030000 		.4byte	.LVL96
 12401 22c2 6A030000 		.4byte	.LVL97
 12402 22c6 1300     		.2byte	0x13
 12403 22c8 74       		.byte	0x74
 12404 22c9 00       		.sleb128 0
 12405 22ca 71       		.byte	0x71
 12406 22cb 00       		.sleb128 0
 12407 22cc 21       		.byte	0x21
 12408 22cd 7D       		.byte	0x7d
 12409 22ce 00       		.sleb128 0
 12410 22cf 06       		.byte	0x6
 12411 22d0 1A       		.byte	0x1a
 12412 22d1 71       		.byte	0x71
 12413 22d2 00       		.sleb128 0
 12414 22d3 74       		.byte	0x74
 12415 22d4 00       		.sleb128 0
 12416 22d5 1A       		.byte	0x1a
 12417 22d6 21       		.byte	0x21
 12418 22d7 79       		.byte	0x79
 12419 22d8 00       		.sleb128 0
 12420 22d9 22       		.byte	0x22
 12421 22da 9F       		.byte	0x9f
 12422 22db 6A030000 		.4byte	.LVL97
 12423 22df BE030000 		.4byte	.LVL100
 12424 22e3 3700     		.2byte	0x37
 12425 22e5 74       		.byte	0x74
 12426 22e6 00       		.sleb128 0
 12427 22e7 71       		.byte	0x71
 12428 22e8 00       		.sleb128 0
 12429 22e9 21       		.byte	0x21
 12430 22ea 7D       		.byte	0x7d
 12431 22eb 00       		.sleb128 0
 12432 22ec 06       		.byte	0x6
 12433 22ed 1A       		.byte	0x1a
 12434 22ee 71       		.byte	0x71
 12435 22ef 00       		.sleb128 0
 12436 22f0 74       		.byte	0x74
 12437 22f1 00       		.sleb128 0
 12438 22f2 1A       		.byte	0x1a
 12439 22f3 21       		.byte	0x21
 12440 22f4 71       		.byte	0x71
 12441 22f5 00       		.sleb128 0
 12442 22f6 3D       		.byte	0x3d
 12443 22f7 14       		.byte	0x14
 12444 22f8 14       		.byte	0x14
 12445 22f9 1F       		.byte	0x1f
 12446 22fa 23       		.byte	0x23
 12447 22fb 20       		.uleb128 0x20
 12448 22fc 24       		.byte	0x24
 12449 22fd 17       		.byte	0x17
 12450 22fe 25       		.byte	0x25
 12451 22ff 21       		.byte	0x21
 12452 2300 71       		.byte	0x71
 12453 2301 00       		.sleb128 0
 12454 2302 32       		.byte	0x32
ARM GAS  C:\Users\Phuong\AppData\Local\Temp\ccuEFeTd.s 			page 230


 12455 2303 14       		.byte	0x14
 12456 2304 14       		.byte	0x14
 12457 2305 1F       		.byte	0x1f
 12458 2306 23       		.byte	0x23
 12459 2307 20       		.uleb128 0x20
 12460 2308 24       		.byte	0x24
 12461 2309 17       		.byte	0x17
 12462 230a 25       		.byte	0x25
 12463 230b 21       		.byte	0x21
 12464 230c 27       		.byte	0x27
 12465 230d 71       		.byte	0x71
 12466 230e 00       		.sleb128 0
 12467 230f 46       		.byte	0x46
 12468 2310 14       		.byte	0x14
 12469 2311 14       		.byte	0x14
 12470 2312 1F       		.byte	0x1f
 12471 2313 23       		.byte	0x23
 12472 2314 20       		.uleb128 0x20
 12473 2315 24       		.byte	0x24
 12474 2316 17       		.byte	0x17
 12475 2317 25       		.byte	0x25
 12476 2318 21       		.byte	0x21
 12477 2319 27       		.byte	0x27
 12478 231a 22       		.byte	0x22
 12479 231b 9F       		.byte	0x9f
 12480 231c BE030000 		.4byte	.LVL100
 12481 2320 C4030000 		.4byte	.LVL101
 12482 2324 3900     		.2byte	0x39
 12483 2326 74       		.byte	0x74
 12484 2327 00       		.sleb128 0
 12485 2328 71       		.byte	0x71
 12486 2329 00       		.sleb128 0
 12487 232a 21       		.byte	0x21
 12488 232b 7D       		.byte	0x7d
 12489 232c 00       		.sleb128 0
 12490 232d 06       		.byte	0x6
 12491 232e 1A       		.byte	0x1a
 12492 232f 71       		.byte	0x71
 12493 2330 00       		.sleb128 0
 12494 2331 74       		.byte	0x74
 12495 2332 00       		.sleb128 0
 12496 2333 1A       		.byte	0x1a
 12497 2334 21       		.byte	0x21
 12498 2335 71       		.byte	0x71
 12499 2336 00       		.sleb128 0
 12500 2337 73       		.byte	0x73
 12501 2338 0B       		.sleb128 11
 12502 2339 14       		.byte	0x14
 12503 233a 14       		.byte	0x14
 12504 233b 1F       		.byte	0x1f
 12505 233c 23       		.byte	0x23
 12506 233d 20       		.uleb128 0x20
 12507 233e 24       		.byte	0x24
 12508 233f 17       		.byte	0x17
 12509 2340 25       		.byte	0x25
 12510 2341 21       		.byte	0x21
 12511 2342 71       		.byte	0x71
ARM GAS  C:\Users\Phuong\AppData\Local\Temp\ccuEFeTd.s 			page 231


 12512 2343 00       		.sleb128 0
 12513 2344 73       		.byte	0x73
 12514 2345 00       		.sleb128 0
 12515 2346 14       		.byte	0x14
 12516 2347 14       		.byte	0x14
 12517 2348 1F       		.byte	0x1f
 12518 2349 23       		.byte	0x23
 12519 234a 20       		.uleb128 0x20
 12520 234b 24       		.byte	0x24
 12521 234c 17       		.byte	0x17
 12522 234d 25       		.byte	0x25
 12523 234e 21       		.byte	0x21
 12524 234f 27       		.byte	0x27
 12525 2350 71       		.byte	0x71
 12526 2351 00       		.sleb128 0
 12527 2352 46       		.byte	0x46
 12528 2353 14       		.byte	0x14
 12529 2354 14       		.byte	0x14
 12530 2355 1F       		.byte	0x1f
 12531 2356 23       		.byte	0x23
 12532 2357 20       		.uleb128 0x20
 12533 2358 24       		.byte	0x24
 12534 2359 17       		.byte	0x17
 12535 235a 25       		.byte	0x25
 12536 235b 21       		.byte	0x21
 12537 235c 27       		.byte	0x27
 12538 235d 22       		.byte	0x22
 12539 235e 9F       		.byte	0x9f
 12540 235f C4030000 		.4byte	.LVL101
 12541 2363 CC030000 		.4byte	.LVL102
 12542 2367 3800     		.2byte	0x38
 12543 2369 74       		.byte	0x74
 12544 236a 00       		.sleb128 0
 12545 236b 71       		.byte	0x71
 12546 236c 00       		.sleb128 0
 12547 236d 21       		.byte	0x21
 12548 236e 7D       		.byte	0x7d
 12549 236f 00       		.sleb128 0
 12550 2370 06       		.byte	0x6
 12551 2371 1A       		.byte	0x1a
 12552 2372 71       		.byte	0x71
 12553 2373 00       		.sleb128 0
 12554 2374 74       		.byte	0x74
 12555 2375 00       		.sleb128 0
 12556 2376 1A       		.byte	0x1a
 12557 2377 21       		.byte	0x21
 12558 2378 71       		.byte	0x71
 12559 2379 00       		.sleb128 0
 12560 237a 73       		.byte	0x73
 12561 237b 00       		.sleb128 0
 12562 237c 14       		.byte	0x14
 12563 237d 14       		.byte	0x14
 12564 237e 1F       		.byte	0x1f
 12565 237f 23       		.byte	0x23
 12566 2380 20       		.uleb128 0x20
 12567 2381 24       		.byte	0x24
 12568 2382 17       		.byte	0x17
ARM GAS  C:\Users\Phuong\AppData\Local\Temp\ccuEFeTd.s 			page 232


 12569 2383 25       		.byte	0x25
 12570 2384 21       		.byte	0x21
 12571 2385 71       		.byte	0x71
 12572 2386 00       		.sleb128 0
 12573 2387 32       		.byte	0x32
 12574 2388 14       		.byte	0x14
 12575 2389 14       		.byte	0x14
 12576 238a 1F       		.byte	0x1f
 12577 238b 23       		.byte	0x23
 12578 238c 20       		.uleb128 0x20
 12579 238d 24       		.byte	0x24
 12580 238e 17       		.byte	0x17
 12581 238f 25       		.byte	0x25
 12582 2390 21       		.byte	0x21
 12583 2391 27       		.byte	0x27
 12584 2392 71       		.byte	0x71
 12585 2393 00       		.sleb128 0
 12586 2394 46       		.byte	0x46
 12587 2395 14       		.byte	0x14
 12588 2396 14       		.byte	0x14
 12589 2397 1F       		.byte	0x1f
 12590 2398 23       		.byte	0x23
 12591 2399 20       		.uleb128 0x20
 12592 239a 24       		.byte	0x24
 12593 239b 17       		.byte	0x17
 12594 239c 25       		.byte	0x25
 12595 239d 21       		.byte	0x21
 12596 239e 27       		.byte	0x27
 12597 239f 22       		.byte	0x22
 12598 23a0 9F       		.byte	0x9f
 12599 23a1 CC030000 		.4byte	.LVL102
 12600 23a5 E0030000 		.4byte	.LVL103
 12601 23a9 3800     		.2byte	0x38
 12602 23ab 74       		.byte	0x74
 12603 23ac 00       		.sleb128 0
 12604 23ad 71       		.byte	0x71
 12605 23ae 00       		.sleb128 0
 12606 23af 21       		.byte	0x21
 12607 23b0 7D       		.byte	0x7d
 12608 23b1 00       		.sleb128 0
 12609 23b2 06       		.byte	0x6
 12610 23b3 1A       		.byte	0x1a
 12611 23b4 71       		.byte	0x71
 12612 23b5 00       		.sleb128 0
 12613 23b6 74       		.byte	0x74
 12614 23b7 00       		.sleb128 0
 12615 23b8 1A       		.byte	0x1a
 12616 23b9 21       		.byte	0x21
 12617 23ba 71       		.byte	0x71
 12618 23bb 00       		.sleb128 0
 12619 23bc 3D       		.byte	0x3d
 12620 23bd 14       		.byte	0x14
 12621 23be 14       		.byte	0x14
 12622 23bf 1F       		.byte	0x1f
 12623 23c0 23       		.byte	0x23
 12624 23c1 20       		.uleb128 0x20
 12625 23c2 24       		.byte	0x24
ARM GAS  C:\Users\Phuong\AppData\Local\Temp\ccuEFeTd.s 			page 233


 12626 23c3 17       		.byte	0x17
 12627 23c4 25       		.byte	0x25
 12628 23c5 21       		.byte	0x21
 12629 23c6 71       		.byte	0x71
 12630 23c7 00       		.sleb128 0
 12631 23c8 32       		.byte	0x32
 12632 23c9 14       		.byte	0x14
 12633 23ca 14       		.byte	0x14
 12634 23cb 1F       		.byte	0x1f
 12635 23cc 23       		.byte	0x23
 12636 23cd 20       		.uleb128 0x20
 12637 23ce 24       		.byte	0x24
 12638 23cf 17       		.byte	0x17
 12639 23d0 25       		.byte	0x25
 12640 23d1 21       		.byte	0x21
 12641 23d2 27       		.byte	0x27
 12642 23d3 71       		.byte	0x71
 12643 23d4 00       		.sleb128 0
 12644 23d5 73       		.byte	0x73
 12645 23d6 00       		.sleb128 0
 12646 23d7 14       		.byte	0x14
 12647 23d8 14       		.byte	0x14
 12648 23d9 1F       		.byte	0x1f
 12649 23da 23       		.byte	0x23
 12650 23db 20       		.uleb128 0x20
 12651 23dc 24       		.byte	0x24
 12652 23dd 17       		.byte	0x17
 12653 23de 25       		.byte	0x25
 12654 23df 21       		.byte	0x21
 12655 23e0 27       		.byte	0x27
 12656 23e1 22       		.byte	0x22
 12657 23e2 9F       		.byte	0x9f
 12658 23e3 E0030000 		.4byte	.LVL103
 12659 23e7 E8030000 		.4byte	.LVL104
 12660 23eb 0100     		.2byte	0x1
 12661 23ed 56       		.byte	0x56
 12662 23ee E8030000 		.4byte	.LVL104
 12663 23f2 EC030000 		.4byte	.LVL105
 12664 23f6 0F00     		.2byte	0xf
 12665 23f8 71       		.byte	0x71
 12666 23f9 00       		.sleb128 0
 12667 23fa 77       		.byte	0x77
 12668 23fb 00       		.sleb128 0
 12669 23fc 21       		.byte	0x21
 12670 23fd 74       		.byte	0x74
 12671 23fe 00       		.sleb128 0
 12672 23ff 1A       		.byte	0x1a
 12673 2400 75       		.byte	0x75
 12674 2401 00       		.sleb128 0
 12675 2402 21       		.byte	0x21
 12676 2403 79       		.byte	0x79
 12677 2404 00       		.sleb128 0
 12678 2405 22       		.byte	0x22
 12679 2406 9F       		.byte	0x9f
 12680 2407 EC030000 		.4byte	.LVL105
 12681 240b FA030000 		.4byte	.LVL107
 12682 240f 1200     		.2byte	0x12
ARM GAS  C:\Users\Phuong\AppData\Local\Temp\ccuEFeTd.s 			page 234


 12683 2411 71       		.byte	0x71
 12684 2412 00       		.sleb128 0
 12685 2413 77       		.byte	0x77
 12686 2414 00       		.sleb128 0
 12687 2415 21       		.byte	0x21
 12688 2416 74       		.byte	0x74
 12689 2417 00       		.sleb128 0
 12690 2418 1A       		.byte	0x1a
 12691 2419 77       		.byte	0x77
 12692 241a 00       		.sleb128 0
 12693 241b 71       		.byte	0x71
 12694 241c 00       		.sleb128 0
 12695 241d 1A       		.byte	0x1a
 12696 241e 21       		.byte	0x21
 12697 241f 79       		.byte	0x79
 12698 2420 00       		.sleb128 0
 12699 2421 22       		.byte	0x22
 12700 2422 9F       		.byte	0x9f
 12701 2423 FA030000 		.4byte	.LVL107
 12702 2427 3C040000 		.4byte	.LVL109
 12703 242b 3600     		.2byte	0x36
 12704 242d 71       		.byte	0x71
 12705 242e 00       		.sleb128 0
 12706 242f 77       		.byte	0x77
 12707 2430 00       		.sleb128 0
 12708 2431 21       		.byte	0x21
 12709 2432 74       		.byte	0x74
 12710 2433 00       		.sleb128 0
 12711 2434 1A       		.byte	0x1a
 12712 2435 77       		.byte	0x77
 12713 2436 00       		.sleb128 0
 12714 2437 71       		.byte	0x71
 12715 2438 00       		.sleb128 0
 12716 2439 1A       		.byte	0x1a
 12717 243a 21       		.byte	0x21
 12718 243b 77       		.byte	0x77
 12719 243c 00       		.sleb128 0
 12720 243d 3D       		.byte	0x3d
 12721 243e 14       		.byte	0x14
 12722 243f 14       		.byte	0x14
 12723 2440 1F       		.byte	0x1f
 12724 2441 23       		.byte	0x23
 12725 2442 20       		.uleb128 0x20
 12726 2443 24       		.byte	0x24
 12727 2444 17       		.byte	0x17
 12728 2445 25       		.byte	0x25
 12729 2446 21       		.byte	0x21
 12730 2447 77       		.byte	0x77
 12731 2448 00       		.sleb128 0
 12732 2449 32       		.byte	0x32
 12733 244a 14       		.byte	0x14
 12734 244b 14       		.byte	0x14
 12735 244c 1F       		.byte	0x1f
 12736 244d 23       		.byte	0x23
 12737 244e 20       		.uleb128 0x20
 12738 244f 24       		.byte	0x24
 12739 2450 17       		.byte	0x17
ARM GAS  C:\Users\Phuong\AppData\Local\Temp\ccuEFeTd.s 			page 235


 12740 2451 25       		.byte	0x25
 12741 2452 21       		.byte	0x21
 12742 2453 27       		.byte	0x27
 12743 2454 77       		.byte	0x77
 12744 2455 00       		.sleb128 0
 12745 2456 46       		.byte	0x46
 12746 2457 14       		.byte	0x14
 12747 2458 14       		.byte	0x14
 12748 2459 1F       		.byte	0x1f
 12749 245a 23       		.byte	0x23
 12750 245b 20       		.uleb128 0x20
 12751 245c 24       		.byte	0x24
 12752 245d 17       		.byte	0x17
 12753 245e 25       		.byte	0x25
 12754 245f 21       		.byte	0x21
 12755 2460 27       		.byte	0x27
 12756 2461 22       		.byte	0x22
 12757 2462 9F       		.byte	0x9f
 12758 2463 3C040000 		.4byte	.LVL109
 12759 2467 40040000 		.4byte	.LVL110
 12760 246b 3800     		.2byte	0x38
 12761 246d 71       		.byte	0x71
 12762 246e 00       		.sleb128 0
 12763 246f 77       		.byte	0x77
 12764 2470 00       		.sleb128 0
 12765 2471 21       		.byte	0x21
 12766 2472 74       		.byte	0x74
 12767 2473 00       		.sleb128 0
 12768 2474 1A       		.byte	0x1a
 12769 2475 77       		.byte	0x77
 12770 2476 00       		.sleb128 0
 12771 2477 71       		.byte	0x71
 12772 2478 00       		.sleb128 0
 12773 2479 1A       		.byte	0x1a
 12774 247a 21       		.byte	0x21
 12775 247b 77       		.byte	0x77
 12776 247c 00       		.sleb128 0
 12777 247d 73       		.byte	0x73
 12778 247e 0B       		.sleb128 11
 12779 247f 14       		.byte	0x14
 12780 2480 14       		.byte	0x14
 12781 2481 1F       		.byte	0x1f
 12782 2482 23       		.byte	0x23
 12783 2483 20       		.uleb128 0x20
 12784 2484 24       		.byte	0x24
 12785 2485 17       		.byte	0x17
 12786 2486 25       		.byte	0x25
 12787 2487 21       		.byte	0x21
 12788 2488 77       		.byte	0x77
 12789 2489 00       		.sleb128 0
 12790 248a 73       		.byte	0x73
 12791 248b 00       		.sleb128 0
 12792 248c 14       		.byte	0x14
 12793 248d 14       		.byte	0x14
 12794 248e 1F       		.byte	0x1f
 12795 248f 23       		.byte	0x23
 12796 2490 20       		.uleb128 0x20
ARM GAS  C:\Users\Phuong\AppData\Local\Temp\ccuEFeTd.s 			page 236


 12797 2491 24       		.byte	0x24
 12798 2492 17       		.byte	0x17
 12799 2493 25       		.byte	0x25
 12800 2494 21       		.byte	0x21
 12801 2495 27       		.byte	0x27
 12802 2496 77       		.byte	0x77
 12803 2497 00       		.sleb128 0
 12804 2498 46       		.byte	0x46
 12805 2499 14       		.byte	0x14
 12806 249a 14       		.byte	0x14
 12807 249b 1F       		.byte	0x1f
 12808 249c 23       		.byte	0x23
 12809 249d 20       		.uleb128 0x20
 12810 249e 24       		.byte	0x24
 12811 249f 17       		.byte	0x17
 12812 24a0 25       		.byte	0x25
 12813 24a1 21       		.byte	0x21
 12814 24a2 27       		.byte	0x27
 12815 24a3 22       		.byte	0x22
 12816 24a4 9F       		.byte	0x9f
 12817 24a5 40040000 		.4byte	.LVL110
 12818 24a9 5A040000 		.4byte	.LVL111
 12819 24ad 3600     		.2byte	0x36
 12820 24af 71       		.byte	0x71
 12821 24b0 00       		.sleb128 0
 12822 24b1 77       		.byte	0x77
 12823 24b2 00       		.sleb128 0
 12824 24b3 21       		.byte	0x21
 12825 24b4 74       		.byte	0x74
 12826 24b5 00       		.sleb128 0
 12827 24b6 1A       		.byte	0x1a
 12828 24b7 77       		.byte	0x77
 12829 24b8 00       		.sleb128 0
 12830 24b9 71       		.byte	0x71
 12831 24ba 00       		.sleb128 0
 12832 24bb 1A       		.byte	0x1a
 12833 24bc 21       		.byte	0x21
 12834 24bd 77       		.byte	0x77
 12835 24be 00       		.sleb128 0
 12836 24bf 3D       		.byte	0x3d
 12837 24c0 14       		.byte	0x14
 12838 24c1 14       		.byte	0x14
 12839 24c2 1F       		.byte	0x1f
 12840 24c3 23       		.byte	0x23
 12841 24c4 20       		.uleb128 0x20
 12842 24c5 24       		.byte	0x24
 12843 24c6 17       		.byte	0x17
 12844 24c7 25       		.byte	0x25
 12845 24c8 21       		.byte	0x21
 12846 24c9 77       		.byte	0x77
 12847 24ca 00       		.sleb128 0
 12848 24cb 32       		.byte	0x32
 12849 24cc 14       		.byte	0x14
 12850 24cd 14       		.byte	0x14
 12851 24ce 1F       		.byte	0x1f
 12852 24cf 23       		.byte	0x23
 12853 24d0 20       		.uleb128 0x20
ARM GAS  C:\Users\Phuong\AppData\Local\Temp\ccuEFeTd.s 			page 237


 12854 24d1 24       		.byte	0x24
 12855 24d2 17       		.byte	0x17
 12856 24d3 25       		.byte	0x25
 12857 24d4 21       		.byte	0x21
 12858 24d5 27       		.byte	0x27
 12859 24d6 77       		.byte	0x77
 12860 24d7 00       		.sleb128 0
 12861 24d8 46       		.byte	0x46
 12862 24d9 14       		.byte	0x14
 12863 24da 14       		.byte	0x14
 12864 24db 1F       		.byte	0x1f
 12865 24dc 23       		.byte	0x23
 12866 24dd 20       		.uleb128 0x20
 12867 24de 24       		.byte	0x24
 12868 24df 17       		.byte	0x17
 12869 24e0 25       		.byte	0x25
 12870 24e1 21       		.byte	0x21
 12871 24e2 27       		.byte	0x27
 12872 24e3 22       		.byte	0x22
 12873 24e4 9F       		.byte	0x9f
 12874 24e5 5A040000 		.4byte	.LVL111
 12875 24e9 68040000 		.4byte	.LVL112
 12876 24ed 0100     		.2byte	0x1
 12877 24ef 51       		.byte	0x51
 12878 24f0 46050000 		.4byte	.LVL117
 12879 24f4 56050000 		.4byte	.LVL120
 12880 24f8 0100     		.2byte	0x1
 12881 24fa 50       		.byte	0x50
 12882 24fb 56050000 		.4byte	.LVL120
 12883 24ff 58050000 		.4byte	.LVL121
 12884 2503 3800     		.2byte	0x38
 12885 2505 91       		.byte	0x91
 12886 2506 B87D     		.sleb128 -328
 12887 2508 06       		.byte	0x6
 12888 2509 32       		.byte	0x32
 12889 250a 14       		.byte	0x14
 12890 250b 14       		.byte	0x14
 12891 250c 1F       		.byte	0x1f
 12892 250d 23       		.byte	0x23
 12893 250e 20       		.uleb128 0x20
 12894 250f 24       		.byte	0x24
 12895 2510 17       		.byte	0x17
 12896 2511 25       		.byte	0x25
 12897 2512 21       		.byte	0x21
 12898 2513 91       		.byte	0x91
 12899 2514 B87D     		.sleb128 -328
 12900 2516 06       		.byte	0x6
 12901 2517 3D       		.byte	0x3d
 12902 2518 14       		.byte	0x14
 12903 2519 14       		.byte	0x14
 12904 251a 1F       		.byte	0x1f
 12905 251b 23       		.byte	0x23
 12906 251c 20       		.uleb128 0x20
 12907 251d 24       		.byte	0x24
 12908 251e 17       		.byte	0x17
 12909 251f 25       		.byte	0x25
 12910 2520 21       		.byte	0x21
ARM GAS  C:\Users\Phuong\AppData\Local\Temp\ccuEFeTd.s 			page 238


 12911 2521 27       		.byte	0x27
 12912 2522 91       		.byte	0x91
 12913 2523 B87D     		.sleb128 -328
 12914 2525 06       		.byte	0x6
 12915 2526 46       		.byte	0x46
 12916 2527 14       		.byte	0x14
 12917 2528 14       		.byte	0x14
 12918 2529 1F       		.byte	0x1f
 12919 252a 23       		.byte	0x23
 12920 252b 20       		.uleb128 0x20
 12921 252c 24       		.byte	0x24
 12922 252d 17       		.byte	0x17
 12923 252e 25       		.byte	0x25
 12924 252f 21       		.byte	0x21
 12925 2530 27       		.byte	0x27
 12926 2531 91       		.byte	0x91
 12927 2532 B87D     		.sleb128 -328
 12928 2534 06       		.byte	0x6
 12929 2535 77       		.byte	0x77
 12930 2536 00       		.sleb128 0
 12931 2537 1A       		.byte	0x1a
 12932 2538 71       		.byte	0x71
 12933 2539 00       		.sleb128 0
 12934 253a 21       		.byte	0x21
 12935 253b 22       		.byte	0x22
 12936 253c 9F       		.byte	0x9f
 12937 253d 58050000 		.4byte	.LVL121
 12938 2541 7A050000 		.4byte	.LVL125
 12939 2545 4200     		.2byte	0x42
 12940 2547 91       		.byte	0x91
 12941 2548 B87D     		.sleb128 -328
 12942 254a 06       		.byte	0x6
 12943 254b 32       		.byte	0x32
 12944 254c 14       		.byte	0x14
 12945 254d 14       		.byte	0x14
 12946 254e 1F       		.byte	0x1f
 12947 254f 23       		.byte	0x23
 12948 2550 20       		.uleb128 0x20
 12949 2551 24       		.byte	0x24
 12950 2552 17       		.byte	0x17
 12951 2553 25       		.byte	0x25
 12952 2554 21       		.byte	0x21
 12953 2555 91       		.byte	0x91
 12954 2556 B87D     		.sleb128 -328
 12955 2558 06       		.byte	0x6
 12956 2559 3D       		.byte	0x3d
 12957 255a 14       		.byte	0x14
 12958 255b 14       		.byte	0x14
 12959 255c 1F       		.byte	0x1f
 12960 255d 23       		.byte	0x23
 12961 255e 20       		.uleb128 0x20
 12962 255f 24       		.byte	0x24
 12963 2560 17       		.byte	0x17
 12964 2561 25       		.byte	0x25
 12965 2562 21       		.byte	0x21
 12966 2563 27       		.byte	0x27
 12967 2564 91       		.byte	0x91
ARM GAS  C:\Users\Phuong\AppData\Local\Temp\ccuEFeTd.s 			page 239


 12968 2565 B87D     		.sleb128 -328
 12969 2567 06       		.byte	0x6
 12970 2568 46       		.byte	0x46
 12971 2569 14       		.byte	0x14
 12972 256a 14       		.byte	0x14
 12973 256b 1F       		.byte	0x1f
 12974 256c 23       		.byte	0x23
 12975 256d 20       		.uleb128 0x20
 12976 256e 24       		.byte	0x24
 12977 256f 17       		.byte	0x17
 12978 2570 25       		.byte	0x25
 12979 2571 21       		.byte	0x21
 12980 2572 27       		.byte	0x27
 12981 2573 91       		.byte	0x91
 12982 2574 B87D     		.sleb128 -328
 12983 2576 06       		.byte	0x6
 12984 2577 77       		.byte	0x77
 12985 2578 00       		.sleb128 0
 12986 2579 1A       		.byte	0x1a
 12987 257a 91       		.byte	0x91
 12988 257b B87D     		.sleb128 -328
 12989 257d 06       		.byte	0x6
 12990 257e 77       		.byte	0x77
 12991 257f 00       		.sleb128 0
 12992 2580 21       		.byte	0x21
 12993 2581 91       		.byte	0x91
 12994 2582 C07D     		.sleb128 -320
 12995 2584 06       		.byte	0x6
 12996 2585 1A       		.byte	0x1a
 12997 2586 21       		.byte	0x21
 12998 2587 22       		.byte	0x22
 12999 2588 9F       		.byte	0x9f
 13000 2589 7A050000 		.4byte	.LVL125
 13001 258d 0E060000 		.4byte	.LVL132
 13002 2591 4600     		.2byte	0x46
 13003 2593 91       		.byte	0x91
 13004 2594 B87D     		.sleb128 -328
 13005 2596 06       		.byte	0x6
 13006 2597 32       		.byte	0x32
 13007 2598 14       		.byte	0x14
 13008 2599 14       		.byte	0x14
 13009 259a 1F       		.byte	0x1f
 13010 259b 23       		.byte	0x23
 13011 259c 20       		.uleb128 0x20
 13012 259d 24       		.byte	0x24
 13013 259e 17       		.byte	0x17
 13014 259f 25       		.byte	0x25
 13015 25a0 21       		.byte	0x21
 13016 25a1 91       		.byte	0x91
 13017 25a2 B87D     		.sleb128 -328
 13018 25a4 06       		.byte	0x6
 13019 25a5 3D       		.byte	0x3d
 13020 25a6 14       		.byte	0x14
 13021 25a7 14       		.byte	0x14
 13022 25a8 1F       		.byte	0x1f
 13023 25a9 23       		.byte	0x23
 13024 25aa 20       		.uleb128 0x20
ARM GAS  C:\Users\Phuong\AppData\Local\Temp\ccuEFeTd.s 			page 240


 13025 25ab 24       		.byte	0x24
 13026 25ac 17       		.byte	0x17
 13027 25ad 25       		.byte	0x25
 13028 25ae 21       		.byte	0x21
 13029 25af 27       		.byte	0x27
 13030 25b0 91       		.byte	0x91
 13031 25b1 B87D     		.sleb128 -328
 13032 25b3 06       		.byte	0x6
 13033 25b4 46       		.byte	0x46
 13034 25b5 14       		.byte	0x14
 13035 25b6 14       		.byte	0x14
 13036 25b7 1F       		.byte	0x1f
 13037 25b8 23       		.byte	0x23
 13038 25b9 20       		.uleb128 0x20
 13039 25ba 24       		.byte	0x24
 13040 25bb 17       		.byte	0x17
 13041 25bc 25       		.byte	0x25
 13042 25bd 21       		.byte	0x21
 13043 25be 27       		.byte	0x27
 13044 25bf 91       		.byte	0x91
 13045 25c0 B87D     		.sleb128 -328
 13046 25c2 06       		.byte	0x6
 13047 25c3 91       		.byte	0x91
 13048 25c4 BC7D     		.sleb128 -324
 13049 25c6 06       		.byte	0x6
 13050 25c7 1A       		.byte	0x1a
 13051 25c8 91       		.byte	0x91
 13052 25c9 B87D     		.sleb128 -328
 13053 25cb 06       		.byte	0x6
 13054 25cc 91       		.byte	0x91
 13055 25cd BC7D     		.sleb128 -324
 13056 25cf 06       		.byte	0x6
 13057 25d0 21       		.byte	0x21
 13058 25d1 91       		.byte	0x91
 13059 25d2 C07D     		.sleb128 -320
 13060 25d4 06       		.byte	0x6
 13061 25d5 1A       		.byte	0x1a
 13062 25d6 21       		.byte	0x21
 13063 25d7 22       		.byte	0x22
 13064 25d8 9F       		.byte	0x9f
 13065 25d9 0E060000 		.4byte	.LVL132
 13066 25dd 1E060000 		.4byte	.LVL133
 13067 25e1 0100     		.2byte	0x1
 13068 25e3 54       		.byte	0x54
 13069 25e4 1E060000 		.4byte	.LVL133
 13070 25e8 AC060000 		.4byte	.LVL141
 13071 25ec 3C00     		.2byte	0x3c
 13072 25ee 79       		.byte	0x79
 13073 25ef 00       		.sleb128 0
 13074 25f0 3D       		.byte	0x3d
 13075 25f1 14       		.byte	0x14
 13076 25f2 14       		.byte	0x14
 13077 25f3 1F       		.byte	0x1f
 13078 25f4 23       		.byte	0x23
 13079 25f5 20       		.uleb128 0x20
 13080 25f6 24       		.byte	0x24
 13081 25f7 17       		.byte	0x17
ARM GAS  C:\Users\Phuong\AppData\Local\Temp\ccuEFeTd.s 			page 241


 13082 25f8 25       		.byte	0x25
 13083 25f9 21       		.byte	0x21
 13084 25fa 79       		.byte	0x79
 13085 25fb 00       		.sleb128 0
 13086 25fc 32       		.byte	0x32
 13087 25fd 14       		.byte	0x14
 13088 25fe 14       		.byte	0x14
 13089 25ff 1F       		.byte	0x1f
 13090 2600 23       		.byte	0x23
 13091 2601 20       		.uleb128 0x20
 13092 2602 24       		.byte	0x24
 13093 2603 17       		.byte	0x17
 13094 2604 25       		.byte	0x25
 13095 2605 21       		.byte	0x21
 13096 2606 27       		.byte	0x27
 13097 2607 79       		.byte	0x79
 13098 2608 00       		.sleb128 0
 13099 2609 46       		.byte	0x46
 13100 260a 14       		.byte	0x14
 13101 260b 14       		.byte	0x14
 13102 260c 1F       		.byte	0x1f
 13103 260d 23       		.byte	0x23
 13104 260e 20       		.uleb128 0x20
 13105 260f 24       		.byte	0x24
 13106 2610 17       		.byte	0x17
 13107 2611 25       		.byte	0x25
 13108 2612 21       		.byte	0x21
 13109 2613 27       		.byte	0x27
 13110 2614 91       		.byte	0x91
 13111 2615 B87D     		.sleb128 -328
 13112 2617 06       		.byte	0x6
 13113 2618 79       		.byte	0x79
 13114 2619 00       		.sleb128 0
 13115 261a 1A       		.byte	0x1a
 13116 261b 91       		.byte	0x91
 13117 261c B87D     		.sleb128 -328
 13118 261e 06       		.byte	0x6
 13119 261f 79       		.byte	0x79
 13120 2620 00       		.sleb128 0
 13121 2621 21       		.byte	0x21
 13122 2622 91       		.byte	0x91
 13123 2623 BC7D     		.sleb128 -324
 13124 2625 06       		.byte	0x6
 13125 2626 1A       		.byte	0x1a
 13126 2627 21       		.byte	0x21
 13127 2628 22       		.byte	0x22
 13128 2629 9F       		.byte	0x9f
 13129 262a AC060000 		.4byte	.LVL141
 13130 262e B0060000 		.4byte	.LVL142
 13131 2632 3D00     		.2byte	0x3d
 13132 2634 79       		.byte	0x79
 13133 2635 00       		.sleb128 0
 13134 2636 3D       		.byte	0x3d
 13135 2637 14       		.byte	0x14
 13136 2638 14       		.byte	0x14
 13137 2639 1F       		.byte	0x1f
 13138 263a 23       		.byte	0x23
ARM GAS  C:\Users\Phuong\AppData\Local\Temp\ccuEFeTd.s 			page 242


 13139 263b 20       		.uleb128 0x20
 13140 263c 24       		.byte	0x24
 13141 263d 17       		.byte	0x17
 13142 263e 25       		.byte	0x25
 13143 263f 21       		.byte	0x21
 13144 2640 79       		.byte	0x79
 13145 2641 00       		.sleb128 0
 13146 2642 72       		.byte	0x72
 13147 2643 00       		.sleb128 0
 13148 2644 14       		.byte	0x14
 13149 2645 14       		.byte	0x14
 13150 2646 1F       		.byte	0x1f
 13151 2647 23       		.byte	0x23
 13152 2648 20       		.uleb128 0x20
 13153 2649 24       		.byte	0x24
 13154 264a 17       		.byte	0x17
 13155 264b 25       		.byte	0x25
 13156 264c 21       		.byte	0x21
 13157 264d 27       		.byte	0x27
 13158 264e 79       		.byte	0x79
 13159 264f 00       		.sleb128 0
 13160 2650 46       		.byte	0x46
 13161 2651 14       		.byte	0x14
 13162 2652 14       		.byte	0x14
 13163 2653 1F       		.byte	0x1f
 13164 2654 23       		.byte	0x23
 13165 2655 20       		.uleb128 0x20
 13166 2656 24       		.byte	0x24
 13167 2657 17       		.byte	0x17
 13168 2658 25       		.byte	0x25
 13169 2659 21       		.byte	0x21
 13170 265a 27       		.byte	0x27
 13171 265b 91       		.byte	0x91
 13172 265c B87D     		.sleb128 -328
 13173 265e 06       		.byte	0x6
 13174 265f 79       		.byte	0x79
 13175 2660 00       		.sleb128 0
 13176 2661 1A       		.byte	0x1a
 13177 2662 91       		.byte	0x91
 13178 2663 B87D     		.sleb128 -328
 13179 2665 06       		.byte	0x6
 13180 2666 79       		.byte	0x79
 13181 2667 00       		.sleb128 0
 13182 2668 21       		.byte	0x21
 13183 2669 91       		.byte	0x91
 13184 266a BC7D     		.sleb128 -324
 13185 266c 06       		.byte	0x6
 13186 266d 1A       		.byte	0x1a
 13187 266e 21       		.byte	0x21
 13188 266f 22       		.byte	0x22
 13189 2670 9F       		.byte	0x9f
 13190 2671 B0060000 		.4byte	.LVL142
 13191 2675 B2060000 		.4byte	.LVL143
 13192 2679 3C00     		.2byte	0x3c
 13193 267b 79       		.byte	0x79
 13194 267c 00       		.sleb128 0
 13195 267d 3D       		.byte	0x3d
ARM GAS  C:\Users\Phuong\AppData\Local\Temp\ccuEFeTd.s 			page 243


 13196 267e 14       		.byte	0x14
 13197 267f 14       		.byte	0x14
 13198 2680 1F       		.byte	0x1f
 13199 2681 23       		.byte	0x23
 13200 2682 20       		.uleb128 0x20
 13201 2683 24       		.byte	0x24
 13202 2684 17       		.byte	0x17
 13203 2685 25       		.byte	0x25
 13204 2686 21       		.byte	0x21
 13205 2687 79       		.byte	0x79
 13206 2688 00       		.sleb128 0
 13207 2689 32       		.byte	0x32
 13208 268a 14       		.byte	0x14
 13209 268b 14       		.byte	0x14
 13210 268c 1F       		.byte	0x1f
 13211 268d 23       		.byte	0x23
 13212 268e 20       		.uleb128 0x20
 13213 268f 24       		.byte	0x24
 13214 2690 17       		.byte	0x17
 13215 2691 25       		.byte	0x25
 13216 2692 21       		.byte	0x21
 13217 2693 27       		.byte	0x27
 13218 2694 79       		.byte	0x79
 13219 2695 00       		.sleb128 0
 13220 2696 46       		.byte	0x46
 13221 2697 14       		.byte	0x14
 13222 2698 14       		.byte	0x14
 13223 2699 1F       		.byte	0x1f
 13224 269a 23       		.byte	0x23
 13225 269b 20       		.uleb128 0x20
 13226 269c 24       		.byte	0x24
 13227 269d 17       		.byte	0x17
 13228 269e 25       		.byte	0x25
 13229 269f 21       		.byte	0x21
 13230 26a0 27       		.byte	0x27
 13231 26a1 91       		.byte	0x91
 13232 26a2 B87D     		.sleb128 -328
 13233 26a4 06       		.byte	0x6
 13234 26a5 79       		.byte	0x79
 13235 26a6 00       		.sleb128 0
 13236 26a7 1A       		.byte	0x1a
 13237 26a8 91       		.byte	0x91
 13238 26a9 B87D     		.sleb128 -328
 13239 26ab 06       		.byte	0x6
 13240 26ac 79       		.byte	0x79
 13241 26ad 00       		.sleb128 0
 13242 26ae 21       		.byte	0x21
 13243 26af 91       		.byte	0x91
 13244 26b0 BC7D     		.sleb128 -324
 13245 26b2 06       		.byte	0x6
 13246 26b3 1A       		.byte	0x1a
 13247 26b4 21       		.byte	0x21
 13248 26b5 22       		.byte	0x22
 13249 26b6 9F       		.byte	0x9f
 13250 26b7 B2060000 		.4byte	.LVL143
 13251 26bb BA060000 		.4byte	.LVL144
 13252 26bf 3D00     		.2byte	0x3d
ARM GAS  C:\Users\Phuong\AppData\Local\Temp\ccuEFeTd.s 			page 244


 13253 26c1 79       		.byte	0x79
 13254 26c2 00       		.sleb128 0
 13255 26c3 77       		.byte	0x77
 13256 26c4 00       		.sleb128 0
 13257 26c5 14       		.byte	0x14
 13258 26c6 14       		.byte	0x14
 13259 26c7 1F       		.byte	0x1f
 13260 26c8 23       		.byte	0x23
 13261 26c9 20       		.uleb128 0x20
 13262 26ca 24       		.byte	0x24
 13263 26cb 17       		.byte	0x17
 13264 26cc 25       		.byte	0x25
 13265 26cd 21       		.byte	0x21
 13266 26ce 79       		.byte	0x79
 13267 26cf 00       		.sleb128 0
 13268 26d0 32       		.byte	0x32
 13269 26d1 14       		.byte	0x14
 13270 26d2 14       		.byte	0x14
 13271 26d3 1F       		.byte	0x1f
 13272 26d4 23       		.byte	0x23
 13273 26d5 20       		.uleb128 0x20
 13274 26d6 24       		.byte	0x24
 13275 26d7 17       		.byte	0x17
 13276 26d8 25       		.byte	0x25
 13277 26d9 21       		.byte	0x21
 13278 26da 27       		.byte	0x27
 13279 26db 79       		.byte	0x79
 13280 26dc 00       		.sleb128 0
 13281 26dd 46       		.byte	0x46
 13282 26de 14       		.byte	0x14
 13283 26df 14       		.byte	0x14
 13284 26e0 1F       		.byte	0x1f
 13285 26e1 23       		.byte	0x23
 13286 26e2 20       		.uleb128 0x20
 13287 26e3 24       		.byte	0x24
 13288 26e4 17       		.byte	0x17
 13289 26e5 25       		.byte	0x25
 13290 26e6 21       		.byte	0x21
 13291 26e7 27       		.byte	0x27
 13292 26e8 91       		.byte	0x91
 13293 26e9 B87D     		.sleb128 -328
 13294 26eb 06       		.byte	0x6
 13295 26ec 79       		.byte	0x79
 13296 26ed 00       		.sleb128 0
 13297 26ee 1A       		.byte	0x1a
 13298 26ef 91       		.byte	0x91
 13299 26f0 B87D     		.sleb128 -328
 13300 26f2 06       		.byte	0x6
 13301 26f3 79       		.byte	0x79
 13302 26f4 00       		.sleb128 0
 13303 26f5 21       		.byte	0x21
 13304 26f6 91       		.byte	0x91
 13305 26f7 BC7D     		.sleb128 -324
 13306 26f9 06       		.byte	0x6
 13307 26fa 1A       		.byte	0x1a
 13308 26fb 21       		.byte	0x21
 13309 26fc 22       		.byte	0x22
ARM GAS  C:\Users\Phuong\AppData\Local\Temp\ccuEFeTd.s 			page 245


 13310 26fd 9F       		.byte	0x9f
 13311 26fe BA060000 		.4byte	.LVL144
 13312 2702 D6060000 		.4byte	.LVL145
 13313 2706 3C00     		.2byte	0x3c
 13314 2708 79       		.byte	0x79
 13315 2709 00       		.sleb128 0
 13316 270a 3D       		.byte	0x3d
 13317 270b 14       		.byte	0x14
 13318 270c 14       		.byte	0x14
 13319 270d 1F       		.byte	0x1f
 13320 270e 23       		.byte	0x23
 13321 270f 20       		.uleb128 0x20
 13322 2710 24       		.byte	0x24
 13323 2711 17       		.byte	0x17
 13324 2712 25       		.byte	0x25
 13325 2713 21       		.byte	0x21
 13326 2714 79       		.byte	0x79
 13327 2715 00       		.sleb128 0
 13328 2716 32       		.byte	0x32
 13329 2717 14       		.byte	0x14
 13330 2718 14       		.byte	0x14
 13331 2719 1F       		.byte	0x1f
 13332 271a 23       		.byte	0x23
 13333 271b 20       		.uleb128 0x20
 13334 271c 24       		.byte	0x24
 13335 271d 17       		.byte	0x17
 13336 271e 25       		.byte	0x25
 13337 271f 21       		.byte	0x21
 13338 2720 27       		.byte	0x27
 13339 2721 79       		.byte	0x79
 13340 2722 00       		.sleb128 0
 13341 2723 46       		.byte	0x46
 13342 2724 14       		.byte	0x14
 13343 2725 14       		.byte	0x14
 13344 2726 1F       		.byte	0x1f
 13345 2727 23       		.byte	0x23
 13346 2728 20       		.uleb128 0x20
 13347 2729 24       		.byte	0x24
 13348 272a 17       		.byte	0x17
 13349 272b 25       		.byte	0x25
 13350 272c 21       		.byte	0x21
 13351 272d 27       		.byte	0x27
 13352 272e 91       		.byte	0x91
 13353 272f B87D     		.sleb128 -328
 13354 2731 06       		.byte	0x6
 13355 2732 79       		.byte	0x79
 13356 2733 00       		.sleb128 0
 13357 2734 1A       		.byte	0x1a
 13358 2735 91       		.byte	0x91
 13359 2736 B87D     		.sleb128 -328
 13360 2738 06       		.byte	0x6
 13361 2739 79       		.byte	0x79
 13362 273a 00       		.sleb128 0
 13363 273b 21       		.byte	0x21
 13364 273c 91       		.byte	0x91
 13365 273d BC7D     		.sleb128 -324
 13366 273f 06       		.byte	0x6
ARM GAS  C:\Users\Phuong\AppData\Local\Temp\ccuEFeTd.s 			page 246


 13367 2740 1A       		.byte	0x1a
 13368 2741 21       		.byte	0x21
 13369 2742 22       		.byte	0x22
 13370 2743 9F       		.byte	0x9f
 13371 2744 D6060000 		.4byte	.LVL145
 13372 2748 DA060000 		.4byte	.LVL146
 13373 274c 0100     		.2byte	0x1
 13374 274e 51       		.byte	0x51
 13375 274f DA060000 		.4byte	.LVL146
 13376 2753 DC060000 		.4byte	.LVL147
 13377 2757 1100     		.2byte	0x11
 13378 2759 79       		.byte	0x79
 13379 275a 00       		.sleb128 0
 13380 275b 77       		.byte	0x77
 13381 275c 00       		.sleb128 0
 13382 275d 21       		.byte	0x21
 13383 275e 91       		.byte	0x91
 13384 275f B87D     		.sleb128 -328
 13385 2761 06       		.byte	0x6
 13386 2762 1A       		.byte	0x1a
 13387 2763 72       		.byte	0x72
 13388 2764 00       		.sleb128 0
 13389 2765 21       		.byte	0x21
 13390 2766 76       		.byte	0x76
 13391 2767 00       		.sleb128 0
 13392 2768 22       		.byte	0x22
 13393 2769 9F       		.byte	0x9f
 13394 276a DC060000 		.4byte	.LVL147
 13395 276e DE060000 		.4byte	.LVL148
 13396 2772 1100     		.2byte	0x11
 13397 2774 79       		.byte	0x79
 13398 2775 00       		.sleb128 0
 13399 2776 77       		.byte	0x77
 13400 2777 00       		.sleb128 0
 13401 2778 21       		.byte	0x21
 13402 2779 91       		.byte	0x91
 13403 277a B87D     		.sleb128 -328
 13404 277c 06       		.byte	0x6
 13405 277d 1A       		.byte	0x1a
 13406 277e 7C       		.byte	0x7c
 13407 277f 00       		.sleb128 0
 13408 2780 21       		.byte	0x21
 13409 2781 76       		.byte	0x76
 13410 2782 00       		.sleb128 0
 13411 2783 22       		.byte	0x22
 13412 2784 9F       		.byte	0x9f
 13413 2785 DE060000 		.4byte	.LVL148
 13414 2789 E0060000 		.4byte	.LVL149
 13415 278d 1100     		.2byte	0x11
 13416 278f 79       		.byte	0x79
 13417 2790 00       		.sleb128 0
 13418 2791 7B       		.byte	0x7b
 13419 2792 00       		.sleb128 0
 13420 2793 21       		.byte	0x21
 13421 2794 91       		.byte	0x91
 13422 2795 B87D     		.sleb128 -328
 13423 2797 06       		.byte	0x6
ARM GAS  C:\Users\Phuong\AppData\Local\Temp\ccuEFeTd.s 			page 247


 13424 2798 1A       		.byte	0x1a
 13425 2799 7C       		.byte	0x7c
 13426 279a 00       		.sleb128 0
 13427 279b 21       		.byte	0x21
 13428 279c 76       		.byte	0x76
 13429 279d 00       		.sleb128 0
 13430 279e 22       		.byte	0x22
 13431 279f 9F       		.byte	0x9f
 13432 27a0 E0060000 		.4byte	.LVL149
 13433 27a4 FA060000 		.4byte	.LVL153
 13434 27a8 3500     		.2byte	0x35
 13435 27aa 7B       		.byte	0x7b
 13436 27ab 00       		.sleb128 0
 13437 27ac 32       		.byte	0x32
 13438 27ad 14       		.byte	0x14
 13439 27ae 14       		.byte	0x14
 13440 27af 1F       		.byte	0x1f
 13441 27b0 23       		.byte	0x23
 13442 27b1 20       		.uleb128 0x20
 13443 27b2 24       		.byte	0x24
 13444 27b3 17       		.byte	0x17
 13445 27b4 25       		.byte	0x25
 13446 27b5 21       		.byte	0x21
 13447 27b6 7B       		.byte	0x7b
 13448 27b7 00       		.sleb128 0
 13449 27b8 3D       		.byte	0x3d
 13450 27b9 14       		.byte	0x14
 13451 27ba 14       		.byte	0x14
 13452 27bb 1F       		.byte	0x1f
 13453 27bc 23       		.byte	0x23
 13454 27bd 20       		.uleb128 0x20
 13455 27be 24       		.byte	0x24
 13456 27bf 17       		.byte	0x17
 13457 27c0 25       		.byte	0x25
 13458 27c1 21       		.byte	0x21
 13459 27c2 27       		.byte	0x27
 13460 27c3 7B       		.byte	0x7b
 13461 27c4 00       		.sleb128 0
 13462 27c5 46       		.byte	0x46
 13463 27c6 14       		.byte	0x14
 13464 27c7 14       		.byte	0x14
 13465 27c8 1F       		.byte	0x1f
 13466 27c9 23       		.byte	0x23
 13467 27ca 20       		.uleb128 0x20
 13468 27cb 24       		.byte	0x24
 13469 27cc 17       		.byte	0x17
 13470 27cd 25       		.byte	0x25
 13471 27ce 21       		.byte	0x21
 13472 27cf 27       		.byte	0x27
 13473 27d0 79       		.byte	0x79
 13474 27d1 00       		.sleb128 0
 13475 27d2 7B       		.byte	0x7b
 13476 27d3 00       		.sleb128 0
 13477 27d4 21       		.byte	0x21
 13478 27d5 91       		.byte	0x91
 13479 27d6 B87D     		.sleb128 -328
 13480 27d8 06       		.byte	0x6
ARM GAS  C:\Users\Phuong\AppData\Local\Temp\ccuEFeTd.s 			page 248


 13481 27d9 1A       		.byte	0x1a
 13482 27da 7C       		.byte	0x7c
 13483 27db 00       		.sleb128 0
 13484 27dc 21       		.byte	0x21
 13485 27dd 22       		.byte	0x22
 13486 27de 9F       		.byte	0x9f
 13487 27df FA060000 		.4byte	.LVL153
 13488 27e3 78070000 		.4byte	.LVL159
 13489 27e7 3800     		.2byte	0x38
 13490 27e9 7B       		.byte	0x7b
 13491 27ea 00       		.sleb128 0
 13492 27eb 32       		.byte	0x32
 13493 27ec 14       		.byte	0x14
 13494 27ed 14       		.byte	0x14
 13495 27ee 1F       		.byte	0x1f
 13496 27ef 23       		.byte	0x23
 13497 27f0 20       		.uleb128 0x20
 13498 27f1 24       		.byte	0x24
 13499 27f2 17       		.byte	0x17
 13500 27f3 25       		.byte	0x25
 13501 27f4 21       		.byte	0x21
 13502 27f5 7B       		.byte	0x7b
 13503 27f6 00       		.sleb128 0
 13504 27f7 3D       		.byte	0x3d
 13505 27f8 14       		.byte	0x14
 13506 27f9 14       		.byte	0x14
 13507 27fa 1F       		.byte	0x1f
 13508 27fb 23       		.byte	0x23
 13509 27fc 20       		.uleb128 0x20
 13510 27fd 24       		.byte	0x24
 13511 27fe 17       		.byte	0x17
 13512 27ff 25       		.byte	0x25
 13513 2800 21       		.byte	0x21
 13514 2801 27       		.byte	0x27
 13515 2802 7B       		.byte	0x7b
 13516 2803 00       		.sleb128 0
 13517 2804 46       		.byte	0x46
 13518 2805 14       		.byte	0x14
 13519 2806 14       		.byte	0x14
 13520 2807 1F       		.byte	0x1f
 13521 2808 23       		.byte	0x23
 13522 2809 20       		.uleb128 0x20
 13523 280a 24       		.byte	0x24
 13524 280b 17       		.byte	0x17
 13525 280c 25       		.byte	0x25
 13526 280d 21       		.byte	0x21
 13527 280e 27       		.byte	0x27
 13528 280f 79       		.byte	0x79
 13529 2810 00       		.sleb128 0
 13530 2811 7B       		.byte	0x7b
 13531 2812 00       		.sleb128 0
 13532 2813 21       		.byte	0x21
 13533 2814 91       		.byte	0x91
 13534 2815 B87D     		.sleb128 -328
 13535 2817 06       		.byte	0x6
 13536 2818 1A       		.byte	0x1a
 13537 2819 79       		.byte	0x79
ARM GAS  C:\Users\Phuong\AppData\Local\Temp\ccuEFeTd.s 			page 249


 13538 281a 00       		.sleb128 0
 13539 281b 7B       		.byte	0x7b
 13540 281c 00       		.sleb128 0
 13541 281d 1A       		.byte	0x1a
 13542 281e 21       		.byte	0x21
 13543 281f 22       		.byte	0x22
 13544 2820 9F       		.byte	0x9f
 13545 2821 78070000 		.4byte	.LVL159
 13546 2825 82070000 		.4byte	.LVL160
 13547 2829 3900     		.2byte	0x39
 13548 282b 7B       		.byte	0x7b
 13549 282c 00       		.sleb128 0
 13550 282d 77       		.byte	0x77
 13551 282e 00       		.sleb128 0
 13552 282f 14       		.byte	0x14
 13553 2830 14       		.byte	0x14
 13554 2831 1F       		.byte	0x1f
 13555 2832 23       		.byte	0x23
 13556 2833 20       		.uleb128 0x20
 13557 2834 24       		.byte	0x24
 13558 2835 17       		.byte	0x17
 13559 2836 25       		.byte	0x25
 13560 2837 21       		.byte	0x21
 13561 2838 7B       		.byte	0x7b
 13562 2839 00       		.sleb128 0
 13563 283a 3D       		.byte	0x3d
 13564 283b 14       		.byte	0x14
 13565 283c 14       		.byte	0x14
 13566 283d 1F       		.byte	0x1f
 13567 283e 23       		.byte	0x23
 13568 283f 20       		.uleb128 0x20
 13569 2840 24       		.byte	0x24
 13570 2841 17       		.byte	0x17
 13571 2842 25       		.byte	0x25
 13572 2843 21       		.byte	0x21
 13573 2844 27       		.byte	0x27
 13574 2845 7B       		.byte	0x7b
 13575 2846 00       		.sleb128 0
 13576 2847 46       		.byte	0x46
 13577 2848 14       		.byte	0x14
 13578 2849 14       		.byte	0x14
 13579 284a 1F       		.byte	0x1f
 13580 284b 23       		.byte	0x23
 13581 284c 20       		.uleb128 0x20
 13582 284d 24       		.byte	0x24
 13583 284e 17       		.byte	0x17
 13584 284f 25       		.byte	0x25
 13585 2850 21       		.byte	0x21
 13586 2851 27       		.byte	0x27
 13587 2852 79       		.byte	0x79
 13588 2853 00       		.sleb128 0
 13589 2854 7B       		.byte	0x7b
 13590 2855 00       		.sleb128 0
 13591 2856 21       		.byte	0x21
 13592 2857 91       		.byte	0x91
 13593 2858 B87D     		.sleb128 -328
 13594 285a 06       		.byte	0x6
ARM GAS  C:\Users\Phuong\AppData\Local\Temp\ccuEFeTd.s 			page 250


 13595 285b 1A       		.byte	0x1a
 13596 285c 79       		.byte	0x79
 13597 285d 00       		.sleb128 0
 13598 285e 7B       		.byte	0x7b
 13599 285f 00       		.sleb128 0
 13600 2860 1A       		.byte	0x1a
 13601 2861 21       		.byte	0x21
 13602 2862 22       		.byte	0x22
 13603 2863 9F       		.byte	0x9f
 13604 2864 82070000 		.4byte	.LVL160
 13605 2868 AA070000 		.4byte	.LVL161
 13606 286c 3800     		.2byte	0x38
 13607 286e 7B       		.byte	0x7b
 13608 286f 00       		.sleb128 0
 13609 2870 32       		.byte	0x32
 13610 2871 14       		.byte	0x14
 13611 2872 14       		.byte	0x14
 13612 2873 1F       		.byte	0x1f
 13613 2874 23       		.byte	0x23
 13614 2875 20       		.uleb128 0x20
 13615 2876 24       		.byte	0x24
 13616 2877 17       		.byte	0x17
 13617 2878 25       		.byte	0x25
 13618 2879 21       		.byte	0x21
 13619 287a 7B       		.byte	0x7b
 13620 287b 00       		.sleb128 0
 13621 287c 3D       		.byte	0x3d
 13622 287d 14       		.byte	0x14
 13623 287e 14       		.byte	0x14
 13624 287f 1F       		.byte	0x1f
 13625 2880 23       		.byte	0x23
 13626 2881 20       		.uleb128 0x20
 13627 2882 24       		.byte	0x24
 13628 2883 17       		.byte	0x17
 13629 2884 25       		.byte	0x25
 13630 2885 21       		.byte	0x21
 13631 2886 27       		.byte	0x27
 13632 2887 7B       		.byte	0x7b
 13633 2888 00       		.sleb128 0
 13634 2889 46       		.byte	0x46
 13635 288a 14       		.byte	0x14
 13636 288b 14       		.byte	0x14
 13637 288c 1F       		.byte	0x1f
 13638 288d 23       		.byte	0x23
 13639 288e 20       		.uleb128 0x20
 13640 288f 24       		.byte	0x24
 13641 2890 17       		.byte	0x17
 13642 2891 25       		.byte	0x25
 13643 2892 21       		.byte	0x21
 13644 2893 27       		.byte	0x27
 13645 2894 79       		.byte	0x79
 13646 2895 00       		.sleb128 0
 13647 2896 7B       		.byte	0x7b
 13648 2897 00       		.sleb128 0
 13649 2898 21       		.byte	0x21
 13650 2899 91       		.byte	0x91
 13651 289a B87D     		.sleb128 -328
ARM GAS  C:\Users\Phuong\AppData\Local\Temp\ccuEFeTd.s 			page 251


 13652 289c 06       		.byte	0x6
 13653 289d 1A       		.byte	0x1a
 13654 289e 79       		.byte	0x79
 13655 289f 00       		.sleb128 0
 13656 28a0 7B       		.byte	0x7b
 13657 28a1 00       		.sleb128 0
 13658 28a2 1A       		.byte	0x1a
 13659 28a3 21       		.byte	0x21
 13660 28a4 22       		.byte	0x22
 13661 28a5 9F       		.byte	0x9f
 13662 28a6 AA070000 		.4byte	.LVL161
 13663 28aa B8070000 		.4byte	.LVL162
 13664 28ae 0100     		.2byte	0x1
 13665 28b0 50       		.byte	0x50
 13666 28b1 B8070000 		.4byte	.LVL162
 13667 28b5 30080000 		.4byte	.LVL169
 13668 28b9 3300     		.2byte	0x33
 13669 28bb 7B       		.byte	0x7b
 13670 28bc 00       		.sleb128 0
 13671 28bd 72       		.byte	0x72
 13672 28be 00       		.sleb128 0
 13673 28bf 21       		.byte	0x21
 13674 28c0 79       		.byte	0x79
 13675 28c1 00       		.sleb128 0
 13676 28c2 1A       		.byte	0x1a
 13677 28c3 78       		.byte	0x78
 13678 28c4 00       		.sleb128 0
 13679 28c5 21       		.byte	0x21
 13680 28c6 72       		.byte	0x72
 13681 28c7 00       		.sleb128 0
 13682 28c8 3D       		.byte	0x3d
 13683 28c9 14       		.byte	0x14
 13684 28ca 14       		.byte	0x14
 13685 28cb 1F       		.byte	0x1f
 13686 28cc 23       		.byte	0x23
 13687 28cd 20       		.uleb128 0x20
 13688 28ce 24       		.byte	0x24
 13689 28cf 17       		.byte	0x17
 13690 28d0 25       		.byte	0x25
 13691 28d1 21       		.byte	0x21
 13692 28d2 72       		.byte	0x72
 13693 28d3 00       		.sleb128 0
 13694 28d4 32       		.byte	0x32
 13695 28d5 14       		.byte	0x14
 13696 28d6 14       		.byte	0x14
 13697 28d7 1F       		.byte	0x1f
 13698 28d8 23       		.byte	0x23
 13699 28d9 20       		.uleb128 0x20
 13700 28da 24       		.byte	0x24
 13701 28db 17       		.byte	0x17
 13702 28dc 25       		.byte	0x25
 13703 28dd 21       		.byte	0x21
 13704 28de 27       		.byte	0x27
 13705 28df 72       		.byte	0x72
 13706 28e0 00       		.sleb128 0
 13707 28e1 46       		.byte	0x46
 13708 28e2 14       		.byte	0x14
ARM GAS  C:\Users\Phuong\AppData\Local\Temp\ccuEFeTd.s 			page 252


 13709 28e3 14       		.byte	0x14
 13710 28e4 1F       		.byte	0x1f
 13711 28e5 23       		.byte	0x23
 13712 28e6 20       		.uleb128 0x20
 13713 28e7 24       		.byte	0x24
 13714 28e8 17       		.byte	0x17
 13715 28e9 25       		.byte	0x25
 13716 28ea 21       		.byte	0x21
 13717 28eb 27       		.byte	0x27
 13718 28ec 22       		.byte	0x22
 13719 28ed 9F       		.byte	0x9f
 13720 28ee 30080000 		.4byte	.LVL169
 13721 28f2 4A080000 		.4byte	.LVL171
 13722 28f6 3600     		.2byte	0x36
 13723 28f8 7B       		.byte	0x7b
 13724 28f9 00       		.sleb128 0
 13725 28fa 72       		.byte	0x72
 13726 28fb 00       		.sleb128 0
 13727 28fc 21       		.byte	0x21
 13728 28fd 79       		.byte	0x79
 13729 28fe 00       		.sleb128 0
 13730 28ff 1A       		.byte	0x1a
 13731 2900 7B       		.byte	0x7b
 13732 2901 00       		.sleb128 0
 13733 2902 72       		.byte	0x72
 13734 2903 00       		.sleb128 0
 13735 2904 1A       		.byte	0x1a
 13736 2905 21       		.byte	0x21
 13737 2906 72       		.byte	0x72
 13738 2907 00       		.sleb128 0
 13739 2908 3D       		.byte	0x3d
 13740 2909 14       		.byte	0x14
 13741 290a 14       		.byte	0x14
 13742 290b 1F       		.byte	0x1f
 13743 290c 23       		.byte	0x23
 13744 290d 20       		.uleb128 0x20
 13745 290e 24       		.byte	0x24
 13746 290f 17       		.byte	0x17
 13747 2910 25       		.byte	0x25
 13748 2911 21       		.byte	0x21
 13749 2912 72       		.byte	0x72
 13750 2913 00       		.sleb128 0
 13751 2914 32       		.byte	0x32
 13752 2915 14       		.byte	0x14
 13753 2916 14       		.byte	0x14
 13754 2917 1F       		.byte	0x1f
 13755 2918 23       		.byte	0x23
 13756 2919 20       		.uleb128 0x20
 13757 291a 24       		.byte	0x24
 13758 291b 17       		.byte	0x17
 13759 291c 25       		.byte	0x25
 13760 291d 21       		.byte	0x21
 13761 291e 27       		.byte	0x27
 13762 291f 72       		.byte	0x72
 13763 2920 00       		.sleb128 0
 13764 2921 46       		.byte	0x46
 13765 2922 14       		.byte	0x14
ARM GAS  C:\Users\Phuong\AppData\Local\Temp\ccuEFeTd.s 			page 253


 13766 2923 14       		.byte	0x14
 13767 2924 1F       		.byte	0x1f
 13768 2925 23       		.byte	0x23
 13769 2926 20       		.uleb128 0x20
 13770 2927 24       		.byte	0x24
 13771 2928 17       		.byte	0x17
 13772 2929 25       		.byte	0x25
 13773 292a 21       		.byte	0x21
 13774 292b 27       		.byte	0x27
 13775 292c 22       		.byte	0x22
 13776 292d 9F       		.byte	0x9f
 13777 292e 4A080000 		.4byte	.LVL171
 13778 2932 52080000 		.4byte	.LVL172
 13779 2936 3800     		.2byte	0x38
 13780 2938 7B       		.byte	0x7b
 13781 2939 00       		.sleb128 0
 13782 293a 72       		.byte	0x72
 13783 293b 00       		.sleb128 0
 13784 293c 21       		.byte	0x21
 13785 293d 79       		.byte	0x79
 13786 293e 00       		.sleb128 0
 13787 293f 1A       		.byte	0x1a
 13788 2940 7B       		.byte	0x7b
 13789 2941 00       		.sleb128 0
 13790 2942 72       		.byte	0x72
 13791 2943 00       		.sleb128 0
 13792 2944 1A       		.byte	0x1a
 13793 2945 21       		.byte	0x21
 13794 2946 72       		.byte	0x72
 13795 2947 00       		.sleb128 0
 13796 2948 70       		.byte	0x70
 13797 2949 0B       		.sleb128 11
 13798 294a 14       		.byte	0x14
 13799 294b 14       		.byte	0x14
 13800 294c 1F       		.byte	0x1f
 13801 294d 23       		.byte	0x23
 13802 294e 20       		.uleb128 0x20
 13803 294f 24       		.byte	0x24
 13804 2950 17       		.byte	0x17
 13805 2951 25       		.byte	0x25
 13806 2952 21       		.byte	0x21
 13807 2953 72       		.byte	0x72
 13808 2954 00       		.sleb128 0
 13809 2955 70       		.byte	0x70
 13810 2956 00       		.sleb128 0
 13811 2957 14       		.byte	0x14
 13812 2958 14       		.byte	0x14
 13813 2959 1F       		.byte	0x1f
 13814 295a 23       		.byte	0x23
 13815 295b 20       		.uleb128 0x20
 13816 295c 24       		.byte	0x24
 13817 295d 17       		.byte	0x17
 13818 295e 25       		.byte	0x25
 13819 295f 21       		.byte	0x21
 13820 2960 27       		.byte	0x27
 13821 2961 72       		.byte	0x72
 13822 2962 00       		.sleb128 0
ARM GAS  C:\Users\Phuong\AppData\Local\Temp\ccuEFeTd.s 			page 254


 13823 2963 46       		.byte	0x46
 13824 2964 14       		.byte	0x14
 13825 2965 14       		.byte	0x14
 13826 2966 1F       		.byte	0x1f
 13827 2967 23       		.byte	0x23
 13828 2968 20       		.uleb128 0x20
 13829 2969 24       		.byte	0x24
 13830 296a 17       		.byte	0x17
 13831 296b 25       		.byte	0x25
 13832 296c 21       		.byte	0x21
 13833 296d 27       		.byte	0x27
 13834 296e 22       		.byte	0x22
 13835 296f 9F       		.byte	0x9f
 13836 2970 52080000 		.4byte	.LVL172
 13837 2974 56080000 		.4byte	.LVL173
 13838 2978 3700     		.2byte	0x37
 13839 297a 7B       		.byte	0x7b
 13840 297b 00       		.sleb128 0
 13841 297c 72       		.byte	0x72
 13842 297d 00       		.sleb128 0
 13843 297e 21       		.byte	0x21
 13844 297f 79       		.byte	0x79
 13845 2980 00       		.sleb128 0
 13846 2981 1A       		.byte	0x1a
 13847 2982 7B       		.byte	0x7b
 13848 2983 00       		.sleb128 0
 13849 2984 72       		.byte	0x72
 13850 2985 00       		.sleb128 0
 13851 2986 1A       		.byte	0x1a
 13852 2987 21       		.byte	0x21
 13853 2988 72       		.byte	0x72
 13854 2989 00       		.sleb128 0
 13855 298a 70       		.byte	0x70
 13856 298b 00       		.sleb128 0
 13857 298c 14       		.byte	0x14
 13858 298d 14       		.byte	0x14
 13859 298e 1F       		.byte	0x1f
 13860 298f 23       		.byte	0x23
 13861 2990 20       		.uleb128 0x20
 13862 2991 24       		.byte	0x24
 13863 2992 17       		.byte	0x17
 13864 2993 25       		.byte	0x25
 13865 2994 21       		.byte	0x21
 13866 2995 72       		.byte	0x72
 13867 2996 00       		.sleb128 0
 13868 2997 32       		.byte	0x32
 13869 2998 14       		.byte	0x14
 13870 2999 14       		.byte	0x14
 13871 299a 1F       		.byte	0x1f
 13872 299b 23       		.byte	0x23
 13873 299c 20       		.uleb128 0x20
 13874 299d 24       		.byte	0x24
 13875 299e 17       		.byte	0x17
 13876 299f 25       		.byte	0x25
 13877 29a0 21       		.byte	0x21
 13878 29a1 27       		.byte	0x27
 13879 29a2 72       		.byte	0x72
ARM GAS  C:\Users\Phuong\AppData\Local\Temp\ccuEFeTd.s 			page 255


 13880 29a3 00       		.sleb128 0
 13881 29a4 46       		.byte	0x46
 13882 29a5 14       		.byte	0x14
 13883 29a6 14       		.byte	0x14
 13884 29a7 1F       		.byte	0x1f
 13885 29a8 23       		.byte	0x23
 13886 29a9 20       		.uleb128 0x20
 13887 29aa 24       		.byte	0x24
 13888 29ab 17       		.byte	0x17
 13889 29ac 25       		.byte	0x25
 13890 29ad 21       		.byte	0x21
 13891 29ae 27       		.byte	0x27
 13892 29af 22       		.byte	0x22
 13893 29b0 9F       		.byte	0x9f
 13894 29b1 56080000 		.4byte	.LVL173
 13895 29b5 5C080000 		.4byte	.LVL174
 13896 29b9 3600     		.2byte	0x36
 13897 29bb 7B       		.byte	0x7b
 13898 29bc 00       		.sleb128 0
 13899 29bd 72       		.byte	0x72
 13900 29be 00       		.sleb128 0
 13901 29bf 21       		.byte	0x21
 13902 29c0 79       		.byte	0x79
 13903 29c1 00       		.sleb128 0
 13904 29c2 1A       		.byte	0x1a
 13905 29c3 7B       		.byte	0x7b
 13906 29c4 00       		.sleb128 0
 13907 29c5 72       		.byte	0x72
 13908 29c6 00       		.sleb128 0
 13909 29c7 1A       		.byte	0x1a
 13910 29c8 21       		.byte	0x21
 13911 29c9 72       		.byte	0x72
 13912 29ca 00       		.sleb128 0
 13913 29cb 3D       		.byte	0x3d
 13914 29cc 14       		.byte	0x14
 13915 29cd 14       		.byte	0x14
 13916 29ce 1F       		.byte	0x1f
 13917 29cf 23       		.byte	0x23
 13918 29d0 20       		.uleb128 0x20
 13919 29d1 24       		.byte	0x24
 13920 29d2 17       		.byte	0x17
 13921 29d3 25       		.byte	0x25
 13922 29d4 21       		.byte	0x21
 13923 29d5 72       		.byte	0x72
 13924 29d6 00       		.sleb128 0
 13925 29d7 32       		.byte	0x32
 13926 29d8 14       		.byte	0x14
 13927 29d9 14       		.byte	0x14
 13928 29da 1F       		.byte	0x1f
 13929 29db 23       		.byte	0x23
 13930 29dc 20       		.uleb128 0x20
 13931 29dd 24       		.byte	0x24
 13932 29de 17       		.byte	0x17
 13933 29df 25       		.byte	0x25
 13934 29e0 21       		.byte	0x21
 13935 29e1 27       		.byte	0x27
 13936 29e2 72       		.byte	0x72
ARM GAS  C:\Users\Phuong\AppData\Local\Temp\ccuEFeTd.s 			page 256


 13937 29e3 00       		.sleb128 0
 13938 29e4 46       		.byte	0x46
 13939 29e5 14       		.byte	0x14
 13940 29e6 14       		.byte	0x14
 13941 29e7 1F       		.byte	0x1f
 13942 29e8 23       		.byte	0x23
 13943 29e9 20       		.uleb128 0x20
 13944 29ea 24       		.byte	0x24
 13945 29eb 17       		.byte	0x17
 13946 29ec 25       		.byte	0x25
 13947 29ed 21       		.byte	0x21
 13948 29ee 27       		.byte	0x27
 13949 29ef 22       		.byte	0x22
 13950 29f0 9F       		.byte	0x9f
 13951 29f1 5C080000 		.4byte	.LVL174
 13952 29f5 62080000 		.4byte	.LVL175
 13953 29f9 3700     		.2byte	0x37
 13954 29fb 7B       		.byte	0x7b
 13955 29fc 00       		.sleb128 0
 13956 29fd 72       		.byte	0x72
 13957 29fe 00       		.sleb128 0
 13958 29ff 21       		.byte	0x21
 13959 2a00 79       		.byte	0x79
 13960 2a01 00       		.sleb128 0
 13961 2a02 1A       		.byte	0x1a
 13962 2a03 7B       		.byte	0x7b
 13963 2a04 00       		.sleb128 0
 13964 2a05 72       		.byte	0x72
 13965 2a06 00       		.sleb128 0
 13966 2a07 1A       		.byte	0x1a
 13967 2a08 21       		.byte	0x21
 13968 2a09 72       		.byte	0x72
 13969 2a0a 00       		.sleb128 0
 13970 2a0b 3D       		.byte	0x3d
 13971 2a0c 14       		.byte	0x14
 13972 2a0d 14       		.byte	0x14
 13973 2a0e 1F       		.byte	0x1f
 13974 2a0f 23       		.byte	0x23
 13975 2a10 20       		.uleb128 0x20
 13976 2a11 24       		.byte	0x24
 13977 2a12 17       		.byte	0x17
 13978 2a13 25       		.byte	0x25
 13979 2a14 21       		.byte	0x21
 13980 2a15 72       		.byte	0x72
 13981 2a16 00       		.sleb128 0
 13982 2a17 32       		.byte	0x32
 13983 2a18 14       		.byte	0x14
 13984 2a19 14       		.byte	0x14
 13985 2a1a 1F       		.byte	0x1f
 13986 2a1b 23       		.byte	0x23
 13987 2a1c 20       		.uleb128 0x20
 13988 2a1d 24       		.byte	0x24
 13989 2a1e 17       		.byte	0x17
 13990 2a1f 25       		.byte	0x25
 13991 2a20 21       		.byte	0x21
 13992 2a21 27       		.byte	0x27
 13993 2a22 72       		.byte	0x72
ARM GAS  C:\Users\Phuong\AppData\Local\Temp\ccuEFeTd.s 			page 257


 13994 2a23 00       		.sleb128 0
 13995 2a24 74       		.byte	0x74
 13996 2a25 00       		.sleb128 0
 13997 2a26 14       		.byte	0x14
 13998 2a27 14       		.byte	0x14
 13999 2a28 1F       		.byte	0x1f
 14000 2a29 23       		.byte	0x23
 14001 2a2a 20       		.uleb128 0x20
 14002 2a2b 24       		.byte	0x24
 14003 2a2c 17       		.byte	0x17
 14004 2a2d 25       		.byte	0x25
 14005 2a2e 21       		.byte	0x21
 14006 2a2f 27       		.byte	0x27
 14007 2a30 22       		.byte	0x22
 14008 2a31 9F       		.byte	0x9f
 14009 2a32 62080000 		.4byte	.LVL175
 14010 2a36 76080000 		.4byte	.LVL176
 14011 2a3a 3600     		.2byte	0x36
 14012 2a3c 7B       		.byte	0x7b
 14013 2a3d 00       		.sleb128 0
 14014 2a3e 72       		.byte	0x72
 14015 2a3f 00       		.sleb128 0
 14016 2a40 21       		.byte	0x21
 14017 2a41 79       		.byte	0x79
 14018 2a42 00       		.sleb128 0
 14019 2a43 1A       		.byte	0x1a
 14020 2a44 7B       		.byte	0x7b
 14021 2a45 00       		.sleb128 0
 14022 2a46 72       		.byte	0x72
 14023 2a47 00       		.sleb128 0
 14024 2a48 1A       		.byte	0x1a
 14025 2a49 21       		.byte	0x21
 14026 2a4a 72       		.byte	0x72
 14027 2a4b 00       		.sleb128 0
 14028 2a4c 3D       		.byte	0x3d
 14029 2a4d 14       		.byte	0x14
 14030 2a4e 14       		.byte	0x14
 14031 2a4f 1F       		.byte	0x1f
 14032 2a50 23       		.byte	0x23
 14033 2a51 20       		.uleb128 0x20
 14034 2a52 24       		.byte	0x24
 14035 2a53 17       		.byte	0x17
 14036 2a54 25       		.byte	0x25
 14037 2a55 21       		.byte	0x21
 14038 2a56 72       		.byte	0x72
 14039 2a57 00       		.sleb128 0
 14040 2a58 32       		.byte	0x32
 14041 2a59 14       		.byte	0x14
 14042 2a5a 14       		.byte	0x14
 14043 2a5b 1F       		.byte	0x1f
 14044 2a5c 23       		.byte	0x23
 14045 2a5d 20       		.uleb128 0x20
 14046 2a5e 24       		.byte	0x24
 14047 2a5f 17       		.byte	0x17
 14048 2a60 25       		.byte	0x25
 14049 2a61 21       		.byte	0x21
 14050 2a62 27       		.byte	0x27
ARM GAS  C:\Users\Phuong\AppData\Local\Temp\ccuEFeTd.s 			page 258


 14051 2a63 72       		.byte	0x72
 14052 2a64 00       		.sleb128 0
 14053 2a65 46       		.byte	0x46
 14054 2a66 14       		.byte	0x14
 14055 2a67 14       		.byte	0x14
 14056 2a68 1F       		.byte	0x1f
 14057 2a69 23       		.byte	0x23
 14058 2a6a 20       		.uleb128 0x20
 14059 2a6b 24       		.byte	0x24
 14060 2a6c 17       		.byte	0x17
 14061 2a6d 25       		.byte	0x25
 14062 2a6e 21       		.byte	0x21
 14063 2a6f 27       		.byte	0x27
 14064 2a70 22       		.byte	0x22
 14065 2a71 9F       		.byte	0x9f
 14066 2a72 76080000 		.4byte	.LVL176
 14067 2a76 92080000 		.4byte	.LVL178
 14068 2a7a 0100     		.2byte	0x1
 14069 2a7c 54       		.byte	0x54
 14070 2a7d 92080000 		.4byte	.LVL178
 14071 2a81 28090000 		.4byte	.LVL180
 14072 2a85 3600     		.2byte	0x36
 14073 2a87 7A       		.byte	0x7a
 14074 2a88 00       		.sleb128 0
 14075 2a89 3D       		.byte	0x3d
 14076 2a8a 14       		.byte	0x14
 14077 2a8b 14       		.byte	0x14
 14078 2a8c 1F       		.byte	0x1f
 14079 2a8d 23       		.byte	0x23
 14080 2a8e 20       		.uleb128 0x20
 14081 2a8f 24       		.byte	0x24
 14082 2a90 17       		.byte	0x17
 14083 2a91 25       		.byte	0x25
 14084 2a92 21       		.byte	0x21
 14085 2a93 7A       		.byte	0x7a
 14086 2a94 00       		.sleb128 0
 14087 2a95 32       		.byte	0x32
 14088 2a96 14       		.byte	0x14
 14089 2a97 14       		.byte	0x14
 14090 2a98 1F       		.byte	0x1f
 14091 2a99 23       		.byte	0x23
 14092 2a9a 20       		.uleb128 0x20
 14093 2a9b 24       		.byte	0x24
 14094 2a9c 17       		.byte	0x17
 14095 2a9d 25       		.byte	0x25
 14096 2a9e 21       		.byte	0x21
 14097 2a9f 27       		.byte	0x27
 14098 2aa0 7A       		.byte	0x7a
 14099 2aa1 00       		.sleb128 0
 14100 2aa2 46       		.byte	0x46
 14101 2aa3 14       		.byte	0x14
 14102 2aa4 14       		.byte	0x14
 14103 2aa5 1F       		.byte	0x1f
 14104 2aa6 23       		.byte	0x23
 14105 2aa7 20       		.uleb128 0x20
 14106 2aa8 24       		.byte	0x24
 14107 2aa9 17       		.byte	0x17
ARM GAS  C:\Users\Phuong\AppData\Local\Temp\ccuEFeTd.s 			page 259


 14108 2aaa 25       		.byte	0x25
 14109 2aab 21       		.byte	0x21
 14110 2aac 27       		.byte	0x27
 14111 2aad 72       		.byte	0x72
 14112 2aae 00       		.sleb128 0
 14113 2aaf 7A       		.byte	0x7a
 14114 2ab0 00       		.sleb128 0
 14115 2ab1 21       		.byte	0x21
 14116 2ab2 7B       		.byte	0x7b
 14117 2ab3 00       		.sleb128 0
 14118 2ab4 1A       		.byte	0x1a
 14119 2ab5 72       		.byte	0x72
 14120 2ab6 00       		.sleb128 0
 14121 2ab7 7A       		.byte	0x7a
 14122 2ab8 00       		.sleb128 0
 14123 2ab9 1A       		.byte	0x1a
 14124 2aba 21       		.byte	0x21
 14125 2abb 22       		.byte	0x22
 14126 2abc 9F       		.byte	0x9f
 14127 2abd 28090000 		.4byte	.LVL180
 14128 2ac1 2C090000 		.4byte	.LVL181
 14129 2ac5 3800     		.2byte	0x38
 14130 2ac7 7A       		.byte	0x7a
 14131 2ac8 00       		.sleb128 0
 14132 2ac9 71       		.byte	0x71
 14133 2aca 0B       		.sleb128 11
 14134 2acb 14       		.byte	0x14
 14135 2acc 14       		.byte	0x14
 14136 2acd 1F       		.byte	0x1f
 14137 2ace 23       		.byte	0x23
 14138 2acf 20       		.uleb128 0x20
 14139 2ad0 24       		.byte	0x24
 14140 2ad1 17       		.byte	0x17
 14141 2ad2 25       		.byte	0x25
 14142 2ad3 21       		.byte	0x21
 14143 2ad4 7A       		.byte	0x7a
 14144 2ad5 00       		.sleb128 0
 14145 2ad6 71       		.byte	0x71
 14146 2ad7 00       		.sleb128 0
 14147 2ad8 14       		.byte	0x14
 14148 2ad9 14       		.byte	0x14
 14149 2ada 1F       		.byte	0x1f
 14150 2adb 23       		.byte	0x23
 14151 2adc 20       		.uleb128 0x20
 14152 2add 24       		.byte	0x24
 14153 2ade 17       		.byte	0x17
 14154 2adf 25       		.byte	0x25
 14155 2ae0 21       		.byte	0x21
 14156 2ae1 27       		.byte	0x27
 14157 2ae2 7A       		.byte	0x7a
 14158 2ae3 00       		.sleb128 0
 14159 2ae4 46       		.byte	0x46
 14160 2ae5 14       		.byte	0x14
 14161 2ae6 14       		.byte	0x14
 14162 2ae7 1F       		.byte	0x1f
 14163 2ae8 23       		.byte	0x23
 14164 2ae9 20       		.uleb128 0x20
ARM GAS  C:\Users\Phuong\AppData\Local\Temp\ccuEFeTd.s 			page 260


 14165 2aea 24       		.byte	0x24
 14166 2aeb 17       		.byte	0x17
 14167 2aec 25       		.byte	0x25
 14168 2aed 21       		.byte	0x21
 14169 2aee 27       		.byte	0x27
 14170 2aef 72       		.byte	0x72
 14171 2af0 00       		.sleb128 0
 14172 2af1 7A       		.byte	0x7a
 14173 2af2 00       		.sleb128 0
 14174 2af3 21       		.byte	0x21
 14175 2af4 7B       		.byte	0x7b
 14176 2af5 00       		.sleb128 0
 14177 2af6 1A       		.byte	0x1a
 14178 2af7 72       		.byte	0x72
 14179 2af8 00       		.sleb128 0
 14180 2af9 7A       		.byte	0x7a
 14181 2afa 00       		.sleb128 0
 14182 2afb 1A       		.byte	0x1a
 14183 2afc 21       		.byte	0x21
 14184 2afd 22       		.byte	0x22
 14185 2afe 9F       		.byte	0x9f
 14186 2aff 2C090000 		.4byte	.LVL181
 14187 2b03 3A090000 		.4byte	.LVL182
 14188 2b07 3600     		.2byte	0x36
 14189 2b09 7A       		.byte	0x7a
 14190 2b0a 00       		.sleb128 0
 14191 2b0b 3D       		.byte	0x3d
 14192 2b0c 14       		.byte	0x14
 14193 2b0d 14       		.byte	0x14
 14194 2b0e 1F       		.byte	0x1f
 14195 2b0f 23       		.byte	0x23
 14196 2b10 20       		.uleb128 0x20
 14197 2b11 24       		.byte	0x24
 14198 2b12 17       		.byte	0x17
 14199 2b13 25       		.byte	0x25
 14200 2b14 21       		.byte	0x21
 14201 2b15 7A       		.byte	0x7a
 14202 2b16 00       		.sleb128 0
 14203 2b17 32       		.byte	0x32
 14204 2b18 14       		.byte	0x14
 14205 2b19 14       		.byte	0x14
 14206 2b1a 1F       		.byte	0x1f
 14207 2b1b 23       		.byte	0x23
 14208 2b1c 20       		.uleb128 0x20
 14209 2b1d 24       		.byte	0x24
 14210 2b1e 17       		.byte	0x17
 14211 2b1f 25       		.byte	0x25
 14212 2b20 21       		.byte	0x21
 14213 2b21 27       		.byte	0x27
 14214 2b22 7A       		.byte	0x7a
 14215 2b23 00       		.sleb128 0
 14216 2b24 46       		.byte	0x46
 14217 2b25 14       		.byte	0x14
 14218 2b26 14       		.byte	0x14
 14219 2b27 1F       		.byte	0x1f
 14220 2b28 23       		.byte	0x23
 14221 2b29 20       		.uleb128 0x20
ARM GAS  C:\Users\Phuong\AppData\Local\Temp\ccuEFeTd.s 			page 261


 14222 2b2a 24       		.byte	0x24
 14223 2b2b 17       		.byte	0x17
 14224 2b2c 25       		.byte	0x25
 14225 2b2d 21       		.byte	0x21
 14226 2b2e 27       		.byte	0x27
 14227 2b2f 72       		.byte	0x72
 14228 2b30 00       		.sleb128 0
 14229 2b31 7A       		.byte	0x7a
 14230 2b32 00       		.sleb128 0
 14231 2b33 21       		.byte	0x21
 14232 2b34 7B       		.byte	0x7b
 14233 2b35 00       		.sleb128 0
 14234 2b36 1A       		.byte	0x1a
 14235 2b37 72       		.byte	0x72
 14236 2b38 00       		.sleb128 0
 14237 2b39 7A       		.byte	0x7a
 14238 2b3a 00       		.sleb128 0
 14239 2b3b 1A       		.byte	0x1a
 14240 2b3c 21       		.byte	0x21
 14241 2b3d 22       		.byte	0x22
 14242 2b3e 9F       		.byte	0x9f
 14243 2b3f 3A090000 		.4byte	.LVL182
 14244 2b43 40090000 		.4byte	.LVL183
 14245 2b47 3700     		.2byte	0x37
 14246 2b49 7A       		.byte	0x7a
 14247 2b4a 00       		.sleb128 0
 14248 2b4b 3D       		.byte	0x3d
 14249 2b4c 14       		.byte	0x14
 14250 2b4d 14       		.byte	0x14
 14251 2b4e 1F       		.byte	0x1f
 14252 2b4f 23       		.byte	0x23
 14253 2b50 20       		.uleb128 0x20
 14254 2b51 24       		.byte	0x24
 14255 2b52 17       		.byte	0x17
 14256 2b53 25       		.byte	0x25
 14257 2b54 21       		.byte	0x21
 14258 2b55 7A       		.byte	0x7a
 14259 2b56 00       		.sleb128 0
 14260 2b57 32       		.byte	0x32
 14261 2b58 14       		.byte	0x14
 14262 2b59 14       		.byte	0x14
 14263 2b5a 1F       		.byte	0x1f
 14264 2b5b 23       		.byte	0x23
 14265 2b5c 20       		.uleb128 0x20
 14266 2b5d 24       		.byte	0x24
 14267 2b5e 17       		.byte	0x17
 14268 2b5f 25       		.byte	0x25
 14269 2b60 21       		.byte	0x21
 14270 2b61 27       		.byte	0x27
 14271 2b62 7A       		.byte	0x7a
 14272 2b63 00       		.sleb128 0
 14273 2b64 71       		.byte	0x71
 14274 2b65 00       		.sleb128 0
 14275 2b66 14       		.byte	0x14
 14276 2b67 14       		.byte	0x14
 14277 2b68 1F       		.byte	0x1f
 14278 2b69 23       		.byte	0x23
ARM GAS  C:\Users\Phuong\AppData\Local\Temp\ccuEFeTd.s 			page 262


 14279 2b6a 20       		.uleb128 0x20
 14280 2b6b 24       		.byte	0x24
 14281 2b6c 17       		.byte	0x17
 14282 2b6d 25       		.byte	0x25
 14283 2b6e 21       		.byte	0x21
 14284 2b6f 27       		.byte	0x27
 14285 2b70 72       		.byte	0x72
 14286 2b71 00       		.sleb128 0
 14287 2b72 7A       		.byte	0x7a
 14288 2b73 00       		.sleb128 0
 14289 2b74 21       		.byte	0x21
 14290 2b75 7B       		.byte	0x7b
 14291 2b76 00       		.sleb128 0
 14292 2b77 1A       		.byte	0x1a
 14293 2b78 72       		.byte	0x72
 14294 2b79 00       		.sleb128 0
 14295 2b7a 7A       		.byte	0x7a
 14296 2b7b 00       		.sleb128 0
 14297 2b7c 1A       		.byte	0x1a
 14298 2b7d 21       		.byte	0x21
 14299 2b7e 22       		.byte	0x22
 14300 2b7f 9F       		.byte	0x9f
 14301 2b80 40090000 		.4byte	.LVL183
 14302 2b84 4C090000 		.4byte	.LVL184
 14303 2b88 3600     		.2byte	0x36
 14304 2b8a 7A       		.byte	0x7a
 14305 2b8b 00       		.sleb128 0
 14306 2b8c 3D       		.byte	0x3d
 14307 2b8d 14       		.byte	0x14
 14308 2b8e 14       		.byte	0x14
 14309 2b8f 1F       		.byte	0x1f
 14310 2b90 23       		.byte	0x23
 14311 2b91 20       		.uleb128 0x20
 14312 2b92 24       		.byte	0x24
 14313 2b93 17       		.byte	0x17
 14314 2b94 25       		.byte	0x25
 14315 2b95 21       		.byte	0x21
 14316 2b96 7A       		.byte	0x7a
 14317 2b97 00       		.sleb128 0
 14318 2b98 32       		.byte	0x32
 14319 2b99 14       		.byte	0x14
 14320 2b9a 14       		.byte	0x14
 14321 2b9b 1F       		.byte	0x1f
 14322 2b9c 23       		.byte	0x23
 14323 2b9d 20       		.uleb128 0x20
 14324 2b9e 24       		.byte	0x24
 14325 2b9f 17       		.byte	0x17
 14326 2ba0 25       		.byte	0x25
 14327 2ba1 21       		.byte	0x21
 14328 2ba2 27       		.byte	0x27
 14329 2ba3 7A       		.byte	0x7a
 14330 2ba4 00       		.sleb128 0
 14331 2ba5 46       		.byte	0x46
 14332 2ba6 14       		.byte	0x14
 14333 2ba7 14       		.byte	0x14
 14334 2ba8 1F       		.byte	0x1f
 14335 2ba9 23       		.byte	0x23
ARM GAS  C:\Users\Phuong\AppData\Local\Temp\ccuEFeTd.s 			page 263


 14336 2baa 20       		.uleb128 0x20
 14337 2bab 24       		.byte	0x24
 14338 2bac 17       		.byte	0x17
 14339 2bad 25       		.byte	0x25
 14340 2bae 21       		.byte	0x21
 14341 2baf 27       		.byte	0x27
 14342 2bb0 72       		.byte	0x72
 14343 2bb1 00       		.sleb128 0
 14344 2bb2 7A       		.byte	0x7a
 14345 2bb3 00       		.sleb128 0
 14346 2bb4 21       		.byte	0x21
 14347 2bb5 7B       		.byte	0x7b
 14348 2bb6 00       		.sleb128 0
 14349 2bb7 1A       		.byte	0x1a
 14350 2bb8 72       		.byte	0x72
 14351 2bb9 00       		.sleb128 0
 14352 2bba 7A       		.byte	0x7a
 14353 2bbb 00       		.sleb128 0
 14354 2bbc 1A       		.byte	0x1a
 14355 2bbd 21       		.byte	0x21
 14356 2bbe 22       		.byte	0x22
 14357 2bbf 9F       		.byte	0x9f
 14358 2bc0 4C090000 		.4byte	.LVL184
 14359 2bc4 60090000 		.4byte	.LVL187
 14360 2bc8 0100     		.2byte	0x1
 14361 2bca 57       		.byte	0x57
 14362 2bcb 60090000 		.4byte	.LVL187
 14363 2bcf FA090000 		.4byte	.LVL190
 14364 2bd3 4000     		.2byte	0x40
 14365 2bd5 91       		.byte	0x91
 14366 2bd6 C47D     		.sleb128 -316
 14367 2bd8 06       		.byte	0x6
 14368 2bd9 3D       		.byte	0x3d
 14369 2bda 14       		.byte	0x14
 14370 2bdb 14       		.byte	0x14
 14371 2bdc 1F       		.byte	0x1f
 14372 2bdd 23       		.byte	0x23
 14373 2bde 20       		.uleb128 0x20
 14374 2bdf 24       		.byte	0x24
 14375 2be0 17       		.byte	0x17
 14376 2be1 25       		.byte	0x25
 14377 2be2 21       		.byte	0x21
 14378 2be3 91       		.byte	0x91
 14379 2be4 C47D     		.sleb128 -316
 14380 2be6 06       		.byte	0x6
 14381 2be7 32       		.byte	0x32
 14382 2be8 14       		.byte	0x14
 14383 2be9 14       		.byte	0x14
 14384 2bea 1F       		.byte	0x1f
 14385 2beb 23       		.byte	0x23
 14386 2bec 20       		.uleb128 0x20
 14387 2bed 24       		.byte	0x24
 14388 2bee 17       		.byte	0x17
 14389 2bef 25       		.byte	0x25
 14390 2bf0 21       		.byte	0x21
 14391 2bf1 27       		.byte	0x27
 14392 2bf2 91       		.byte	0x91
ARM GAS  C:\Users\Phuong\AppData\Local\Temp\ccuEFeTd.s 			page 264


 14393 2bf3 C47D     		.sleb128 -316
 14394 2bf5 06       		.byte	0x6
 14395 2bf6 46       		.byte	0x46
 14396 2bf7 14       		.byte	0x14
 14397 2bf8 14       		.byte	0x14
 14398 2bf9 1F       		.byte	0x1f
 14399 2bfa 23       		.byte	0x23
 14400 2bfb 20       		.uleb128 0x20
 14401 2bfc 24       		.byte	0x24
 14402 2bfd 17       		.byte	0x17
 14403 2bfe 25       		.byte	0x25
 14404 2bff 21       		.byte	0x21
 14405 2c00 27       		.byte	0x27
 14406 2c01 7A       		.byte	0x7a
 14407 2c02 00       		.sleb128 0
 14408 2c03 91       		.byte	0x91
 14409 2c04 C47D     		.sleb128 -316
 14410 2c06 06       		.byte	0x6
 14411 2c07 21       		.byte	0x21
 14412 2c08 72       		.byte	0x72
 14413 2c09 00       		.sleb128 0
 14414 2c0a 1A       		.byte	0x1a
 14415 2c0b 7A       		.byte	0x7a
 14416 2c0c 00       		.sleb128 0
 14417 2c0d 91       		.byte	0x91
 14418 2c0e C47D     		.sleb128 -316
 14419 2c10 06       		.byte	0x6
 14420 2c11 1A       		.byte	0x1a
 14421 2c12 21       		.byte	0x21
 14422 2c13 22       		.byte	0x22
 14423 2c14 9F       		.byte	0x9f
 14424 2c15 FA090000 		.4byte	.LVL190
 14425 2c19 020A0000 		.4byte	.LVL191
 14426 2c1d 4100     		.2byte	0x41
 14427 2c1f 91       		.byte	0x91
 14428 2c20 C47D     		.sleb128 -316
 14429 2c22 06       		.byte	0x6
 14430 2c23 3D       		.byte	0x3d
 14431 2c24 14       		.byte	0x14
 14432 2c25 14       		.byte	0x14
 14433 2c26 1F       		.byte	0x1f
 14434 2c27 23       		.byte	0x23
 14435 2c28 20       		.uleb128 0x20
 14436 2c29 24       		.byte	0x24
 14437 2c2a 17       		.byte	0x17
 14438 2c2b 25       		.byte	0x25
 14439 2c2c 21       		.byte	0x21
 14440 2c2d 91       		.byte	0x91
 14441 2c2e C47D     		.sleb128 -316
 14442 2c30 06       		.byte	0x6
 14443 2c31 77       		.byte	0x77
 14444 2c32 00       		.sleb128 0
 14445 2c33 14       		.byte	0x14
 14446 2c34 14       		.byte	0x14
 14447 2c35 1F       		.byte	0x1f
 14448 2c36 23       		.byte	0x23
 14449 2c37 20       		.uleb128 0x20
ARM GAS  C:\Users\Phuong\AppData\Local\Temp\ccuEFeTd.s 			page 265


 14450 2c38 24       		.byte	0x24
 14451 2c39 17       		.byte	0x17
 14452 2c3a 25       		.byte	0x25
 14453 2c3b 21       		.byte	0x21
 14454 2c3c 27       		.byte	0x27
 14455 2c3d 91       		.byte	0x91
 14456 2c3e C47D     		.sleb128 -316
 14457 2c40 06       		.byte	0x6
 14458 2c41 46       		.byte	0x46
 14459 2c42 14       		.byte	0x14
 14460 2c43 14       		.byte	0x14
 14461 2c44 1F       		.byte	0x1f
 14462 2c45 23       		.byte	0x23
 14463 2c46 20       		.uleb128 0x20
 14464 2c47 24       		.byte	0x24
 14465 2c48 17       		.byte	0x17
 14466 2c49 25       		.byte	0x25
 14467 2c4a 21       		.byte	0x21
 14468 2c4b 27       		.byte	0x27
 14469 2c4c 7A       		.byte	0x7a
 14470 2c4d 00       		.sleb128 0
 14471 2c4e 91       		.byte	0x91
 14472 2c4f C47D     		.sleb128 -316
 14473 2c51 06       		.byte	0x6
 14474 2c52 21       		.byte	0x21
 14475 2c53 72       		.byte	0x72
 14476 2c54 00       		.sleb128 0
 14477 2c55 1A       		.byte	0x1a
 14478 2c56 7A       		.byte	0x7a
 14479 2c57 00       		.sleb128 0
 14480 2c58 91       		.byte	0x91
 14481 2c59 C47D     		.sleb128 -316
 14482 2c5b 06       		.byte	0x6
 14483 2c5c 1A       		.byte	0x1a
 14484 2c5d 21       		.byte	0x21
 14485 2c5e 22       		.byte	0x22
 14486 2c5f 9F       		.byte	0x9f
 14487 2c60 020A0000 		.4byte	.LVL191
 14488 2c64 0E0A0000 		.4byte	.LVL192
 14489 2c68 4000     		.2byte	0x40
 14490 2c6a 91       		.byte	0x91
 14491 2c6b C47D     		.sleb128 -316
 14492 2c6d 06       		.byte	0x6
 14493 2c6e 3D       		.byte	0x3d
 14494 2c6f 14       		.byte	0x14
 14495 2c70 14       		.byte	0x14
 14496 2c71 1F       		.byte	0x1f
 14497 2c72 23       		.byte	0x23
 14498 2c73 20       		.uleb128 0x20
 14499 2c74 24       		.byte	0x24
 14500 2c75 17       		.byte	0x17
 14501 2c76 25       		.byte	0x25
 14502 2c77 21       		.byte	0x21
 14503 2c78 91       		.byte	0x91
 14504 2c79 C47D     		.sleb128 -316
 14505 2c7b 06       		.byte	0x6
 14506 2c7c 32       		.byte	0x32
ARM GAS  C:\Users\Phuong\AppData\Local\Temp\ccuEFeTd.s 			page 266


 14507 2c7d 14       		.byte	0x14
 14508 2c7e 14       		.byte	0x14
 14509 2c7f 1F       		.byte	0x1f
 14510 2c80 23       		.byte	0x23
 14511 2c81 20       		.uleb128 0x20
 14512 2c82 24       		.byte	0x24
 14513 2c83 17       		.byte	0x17
 14514 2c84 25       		.byte	0x25
 14515 2c85 21       		.byte	0x21
 14516 2c86 27       		.byte	0x27
 14517 2c87 91       		.byte	0x91
 14518 2c88 C47D     		.sleb128 -316
 14519 2c8a 06       		.byte	0x6
 14520 2c8b 46       		.byte	0x46
 14521 2c8c 14       		.byte	0x14
 14522 2c8d 14       		.byte	0x14
 14523 2c8e 1F       		.byte	0x1f
 14524 2c8f 23       		.byte	0x23
 14525 2c90 20       		.uleb128 0x20
 14526 2c91 24       		.byte	0x24
 14527 2c92 17       		.byte	0x17
 14528 2c93 25       		.byte	0x25
 14529 2c94 21       		.byte	0x21
 14530 2c95 27       		.byte	0x27
 14531 2c96 7A       		.byte	0x7a
 14532 2c97 00       		.sleb128 0
 14533 2c98 91       		.byte	0x91
 14534 2c99 C47D     		.sleb128 -316
 14535 2c9b 06       		.byte	0x6
 14536 2c9c 21       		.byte	0x21
 14537 2c9d 72       		.byte	0x72
 14538 2c9e 00       		.sleb128 0
 14539 2c9f 1A       		.byte	0x1a
 14540 2ca0 7A       		.byte	0x7a
 14541 2ca1 00       		.sleb128 0
 14542 2ca2 91       		.byte	0x91
 14543 2ca3 C47D     		.sleb128 -316
 14544 2ca5 06       		.byte	0x6
 14545 2ca6 1A       		.byte	0x1a
 14546 2ca7 21       		.byte	0x21
 14547 2ca8 22       		.byte	0x22
 14548 2ca9 9F       		.byte	0x9f
 14549 2caa 0E0A0000 		.4byte	.LVL192
 14550 2cae 180A0000 		.4byte	.LVL193
 14551 2cb2 4100     		.2byte	0x41
 14552 2cb4 91       		.byte	0x91
 14553 2cb5 C47D     		.sleb128 -316
 14554 2cb7 06       		.byte	0x6
 14555 2cb8 3D       		.byte	0x3d
 14556 2cb9 14       		.byte	0x14
 14557 2cba 14       		.byte	0x14
 14558 2cbb 1F       		.byte	0x1f
 14559 2cbc 23       		.byte	0x23
 14560 2cbd 20       		.uleb128 0x20
 14561 2cbe 24       		.byte	0x24
 14562 2cbf 17       		.byte	0x17
 14563 2cc0 25       		.byte	0x25
ARM GAS  C:\Users\Phuong\AppData\Local\Temp\ccuEFeTd.s 			page 267


 14564 2cc1 21       		.byte	0x21
 14565 2cc2 91       		.byte	0x91
 14566 2cc3 C47D     		.sleb128 -316
 14567 2cc5 06       		.byte	0x6
 14568 2cc6 32       		.byte	0x32
 14569 2cc7 14       		.byte	0x14
 14570 2cc8 14       		.byte	0x14
 14571 2cc9 1F       		.byte	0x1f
 14572 2cca 23       		.byte	0x23
 14573 2ccb 20       		.uleb128 0x20
 14574 2ccc 24       		.byte	0x24
 14575 2ccd 17       		.byte	0x17
 14576 2cce 25       		.byte	0x25
 14577 2ccf 21       		.byte	0x21
 14578 2cd0 27       		.byte	0x27
 14579 2cd1 91       		.byte	0x91
 14580 2cd2 C47D     		.sleb128 -316
 14581 2cd4 06       		.byte	0x6
 14582 2cd5 76       		.byte	0x76
 14583 2cd6 00       		.sleb128 0
 14584 2cd7 14       		.byte	0x14
 14585 2cd8 14       		.byte	0x14
 14586 2cd9 1F       		.byte	0x1f
 14587 2cda 23       		.byte	0x23
 14588 2cdb 20       		.uleb128 0x20
 14589 2cdc 24       		.byte	0x24
 14590 2cdd 17       		.byte	0x17
 14591 2cde 25       		.byte	0x25
 14592 2cdf 21       		.byte	0x21
 14593 2ce0 27       		.byte	0x27
 14594 2ce1 7A       		.byte	0x7a
 14595 2ce2 00       		.sleb128 0
 14596 2ce3 91       		.byte	0x91
 14597 2ce4 C47D     		.sleb128 -316
 14598 2ce6 06       		.byte	0x6
 14599 2ce7 21       		.byte	0x21
 14600 2ce8 72       		.byte	0x72
 14601 2ce9 00       		.sleb128 0
 14602 2cea 1A       		.byte	0x1a
 14603 2ceb 7A       		.byte	0x7a
 14604 2cec 00       		.sleb128 0
 14605 2ced 91       		.byte	0x91
 14606 2cee C47D     		.sleb128 -316
 14607 2cf0 06       		.byte	0x6
 14608 2cf1 1A       		.byte	0x1a
 14609 2cf2 21       		.byte	0x21
 14610 2cf3 22       		.byte	0x22
 14611 2cf4 9F       		.byte	0x9f
 14612 2cf5 180A0000 		.4byte	.LVL193
 14613 2cf9 2C0A0000 		.4byte	.LVL194
 14614 2cfd 4000     		.2byte	0x40
 14615 2cff 91       		.byte	0x91
 14616 2d00 C47D     		.sleb128 -316
 14617 2d02 06       		.byte	0x6
 14618 2d03 3D       		.byte	0x3d
 14619 2d04 14       		.byte	0x14
 14620 2d05 14       		.byte	0x14
ARM GAS  C:\Users\Phuong\AppData\Local\Temp\ccuEFeTd.s 			page 268


 14621 2d06 1F       		.byte	0x1f
 14622 2d07 23       		.byte	0x23
 14623 2d08 20       		.uleb128 0x20
 14624 2d09 24       		.byte	0x24
 14625 2d0a 17       		.byte	0x17
 14626 2d0b 25       		.byte	0x25
 14627 2d0c 21       		.byte	0x21
 14628 2d0d 91       		.byte	0x91
 14629 2d0e C47D     		.sleb128 -316
 14630 2d10 06       		.byte	0x6
 14631 2d11 32       		.byte	0x32
 14632 2d12 14       		.byte	0x14
 14633 2d13 14       		.byte	0x14
 14634 2d14 1F       		.byte	0x1f
 14635 2d15 23       		.byte	0x23
 14636 2d16 20       		.uleb128 0x20
 14637 2d17 24       		.byte	0x24
 14638 2d18 17       		.byte	0x17
 14639 2d19 25       		.byte	0x25
 14640 2d1a 21       		.byte	0x21
 14641 2d1b 27       		.byte	0x27
 14642 2d1c 91       		.byte	0x91
 14643 2d1d C47D     		.sleb128 -316
 14644 2d1f 06       		.byte	0x6
 14645 2d20 46       		.byte	0x46
 14646 2d21 14       		.byte	0x14
 14647 2d22 14       		.byte	0x14
 14648 2d23 1F       		.byte	0x1f
 14649 2d24 23       		.byte	0x23
 14650 2d25 20       		.uleb128 0x20
 14651 2d26 24       		.byte	0x24
 14652 2d27 17       		.byte	0x17
 14653 2d28 25       		.byte	0x25
 14654 2d29 21       		.byte	0x21
 14655 2d2a 27       		.byte	0x27
 14656 2d2b 7A       		.byte	0x7a
 14657 2d2c 00       		.sleb128 0
 14658 2d2d 91       		.byte	0x91
 14659 2d2e C47D     		.sleb128 -316
 14660 2d30 06       		.byte	0x6
 14661 2d31 21       		.byte	0x21
 14662 2d32 72       		.byte	0x72
 14663 2d33 00       		.sleb128 0
 14664 2d34 1A       		.byte	0x1a
 14665 2d35 7A       		.byte	0x7a
 14666 2d36 00       		.sleb128 0
 14667 2d37 91       		.byte	0x91
 14668 2d38 C47D     		.sleb128 -316
 14669 2d3a 06       		.byte	0x6
 14670 2d3b 1A       		.byte	0x1a
 14671 2d3c 21       		.byte	0x21
 14672 2d3d 22       		.byte	0x22
 14673 2d3e 9F       		.byte	0x9f
 14674 2d3f 2C0A0000 		.4byte	.LVL194
 14675 2d43 480A0000 		.4byte	.LVL196
 14676 2d47 0100     		.2byte	0x1
 14677 2d49 5C       		.byte	0x5c
ARM GAS  C:\Users\Phuong\AppData\Local\Temp\ccuEFeTd.s 			page 269


 14678 2d4a 480A0000 		.4byte	.LVL196
 14679 2d4e D40A0000 		.4byte	.LVL198
 14680 2d52 3A00     		.2byte	0x3a
 14681 2d54 75       		.byte	0x75
 14682 2d55 00       		.sleb128 0
 14683 2d56 3D       		.byte	0x3d
 14684 2d57 14       		.byte	0x14
 14685 2d58 14       		.byte	0x14
 14686 2d59 1F       		.byte	0x1f
 14687 2d5a 23       		.byte	0x23
 14688 2d5b 20       		.uleb128 0x20
 14689 2d5c 24       		.byte	0x24
 14690 2d5d 17       		.byte	0x17
 14691 2d5e 25       		.byte	0x25
 14692 2d5f 21       		.byte	0x21
 14693 2d60 75       		.byte	0x75
 14694 2d61 00       		.sleb128 0
 14695 2d62 32       		.byte	0x32
 14696 2d63 14       		.byte	0x14
 14697 2d64 14       		.byte	0x14
 14698 2d65 1F       		.byte	0x1f
 14699 2d66 23       		.byte	0x23
 14700 2d67 20       		.uleb128 0x20
 14701 2d68 24       		.byte	0x24
 14702 2d69 17       		.byte	0x17
 14703 2d6a 25       		.byte	0x25
 14704 2d6b 21       		.byte	0x21
 14705 2d6c 27       		.byte	0x27
 14706 2d6d 75       		.byte	0x75
 14707 2d6e 00       		.sleb128 0
 14708 2d6f 46       		.byte	0x46
 14709 2d70 14       		.byte	0x14
 14710 2d71 14       		.byte	0x14
 14711 2d72 1F       		.byte	0x1f
 14712 2d73 23       		.byte	0x23
 14713 2d74 20       		.uleb128 0x20
 14714 2d75 24       		.byte	0x24
 14715 2d76 17       		.byte	0x17
 14716 2d77 25       		.byte	0x25
 14717 2d78 21       		.byte	0x21
 14718 2d79 27       		.byte	0x27
 14719 2d7a 91       		.byte	0x91
 14720 2d7b C47D     		.sleb128 -316
 14721 2d7d 06       		.byte	0x6
 14722 2d7e 75       		.byte	0x75
 14723 2d7f 00       		.sleb128 0
 14724 2d80 21       		.byte	0x21
 14725 2d81 7A       		.byte	0x7a
 14726 2d82 00       		.sleb128 0
 14727 2d83 1A       		.byte	0x1a
 14728 2d84 75       		.byte	0x75
 14729 2d85 00       		.sleb128 0
 14730 2d86 91       		.byte	0x91
 14731 2d87 C47D     		.sleb128 -316
 14732 2d89 06       		.byte	0x6
 14733 2d8a 1A       		.byte	0x1a
 14734 2d8b 21       		.byte	0x21
ARM GAS  C:\Users\Phuong\AppData\Local\Temp\ccuEFeTd.s 			page 270


 14735 2d8c 22       		.byte	0x22
 14736 2d8d 9F       		.byte	0x9f
 14737 2d8e D40A0000 		.4byte	.LVL198
 14738 2d92 D80A0000 		.4byte	.LVL199
 14739 2d96 3C00     		.2byte	0x3c
 14740 2d98 75       		.byte	0x75
 14741 2d99 00       		.sleb128 0
 14742 2d9a 73       		.byte	0x73
 14743 2d9b 0B       		.sleb128 11
 14744 2d9c 14       		.byte	0x14
 14745 2d9d 14       		.byte	0x14
 14746 2d9e 1F       		.byte	0x1f
 14747 2d9f 23       		.byte	0x23
 14748 2da0 20       		.uleb128 0x20
 14749 2da1 24       		.byte	0x24
 14750 2da2 17       		.byte	0x17
 14751 2da3 25       		.byte	0x25
 14752 2da4 21       		.byte	0x21
 14753 2da5 75       		.byte	0x75
 14754 2da6 00       		.sleb128 0
 14755 2da7 73       		.byte	0x73
 14756 2da8 00       		.sleb128 0
 14757 2da9 14       		.byte	0x14
 14758 2daa 14       		.byte	0x14
 14759 2dab 1F       		.byte	0x1f
 14760 2dac 23       		.byte	0x23
 14761 2dad 20       		.uleb128 0x20
 14762 2dae 24       		.byte	0x24
 14763 2daf 17       		.byte	0x17
 14764 2db0 25       		.byte	0x25
 14765 2db1 21       		.byte	0x21
 14766 2db2 27       		.byte	0x27
 14767 2db3 75       		.byte	0x75
 14768 2db4 00       		.sleb128 0
 14769 2db5 46       		.byte	0x46
 14770 2db6 14       		.byte	0x14
 14771 2db7 14       		.byte	0x14
 14772 2db8 1F       		.byte	0x1f
 14773 2db9 23       		.byte	0x23
 14774 2dba 20       		.uleb128 0x20
 14775 2dbb 24       		.byte	0x24
 14776 2dbc 17       		.byte	0x17
 14777 2dbd 25       		.byte	0x25
 14778 2dbe 21       		.byte	0x21
 14779 2dbf 27       		.byte	0x27
 14780 2dc0 91       		.byte	0x91
 14781 2dc1 C47D     		.sleb128 -316
 14782 2dc3 06       		.byte	0x6
 14783 2dc4 75       		.byte	0x75
 14784 2dc5 00       		.sleb128 0
 14785 2dc6 21       		.byte	0x21
 14786 2dc7 7A       		.byte	0x7a
 14787 2dc8 00       		.sleb128 0
 14788 2dc9 1A       		.byte	0x1a
 14789 2dca 75       		.byte	0x75
 14790 2dcb 00       		.sleb128 0
 14791 2dcc 91       		.byte	0x91
ARM GAS  C:\Users\Phuong\AppData\Local\Temp\ccuEFeTd.s 			page 271


 14792 2dcd C47D     		.sleb128 -316
 14793 2dcf 06       		.byte	0x6
 14794 2dd0 1A       		.byte	0x1a
 14795 2dd1 21       		.byte	0x21
 14796 2dd2 22       		.byte	0x22
 14797 2dd3 9F       		.byte	0x9f
 14798 2dd4 D80A0000 		.4byte	.LVL199
 14799 2dd8 F60A0000 		.4byte	.LVL200
 14800 2ddc 3A00     		.2byte	0x3a
 14801 2dde 75       		.byte	0x75
 14802 2ddf 00       		.sleb128 0
 14803 2de0 3D       		.byte	0x3d
 14804 2de1 14       		.byte	0x14
 14805 2de2 14       		.byte	0x14
 14806 2de3 1F       		.byte	0x1f
 14807 2de4 23       		.byte	0x23
 14808 2de5 20       		.uleb128 0x20
 14809 2de6 24       		.byte	0x24
 14810 2de7 17       		.byte	0x17
 14811 2de8 25       		.byte	0x25
 14812 2de9 21       		.byte	0x21
 14813 2dea 75       		.byte	0x75
 14814 2deb 00       		.sleb128 0
 14815 2dec 32       		.byte	0x32
 14816 2ded 14       		.byte	0x14
 14817 2dee 14       		.byte	0x14
 14818 2def 1F       		.byte	0x1f
 14819 2df0 23       		.byte	0x23
 14820 2df1 20       		.uleb128 0x20
 14821 2df2 24       		.byte	0x24
 14822 2df3 17       		.byte	0x17
 14823 2df4 25       		.byte	0x25
 14824 2df5 21       		.byte	0x21
 14825 2df6 27       		.byte	0x27
 14826 2df7 75       		.byte	0x75
 14827 2df8 00       		.sleb128 0
 14828 2df9 46       		.byte	0x46
 14829 2dfa 14       		.byte	0x14
 14830 2dfb 14       		.byte	0x14
 14831 2dfc 1F       		.byte	0x1f
 14832 2dfd 23       		.byte	0x23
 14833 2dfe 20       		.uleb128 0x20
 14834 2dff 24       		.byte	0x24
 14835 2e00 17       		.byte	0x17
 14836 2e01 25       		.byte	0x25
 14837 2e02 21       		.byte	0x21
 14838 2e03 27       		.byte	0x27
 14839 2e04 91       		.byte	0x91
 14840 2e05 C47D     		.sleb128 -316
 14841 2e07 06       		.byte	0x6
 14842 2e08 75       		.byte	0x75
 14843 2e09 00       		.sleb128 0
 14844 2e0a 21       		.byte	0x21
 14845 2e0b 7A       		.byte	0x7a
 14846 2e0c 00       		.sleb128 0
 14847 2e0d 1A       		.byte	0x1a
 14848 2e0e 75       		.byte	0x75
ARM GAS  C:\Users\Phuong\AppData\Local\Temp\ccuEFeTd.s 			page 272


 14849 2e0f 00       		.sleb128 0
 14850 2e10 91       		.byte	0x91
 14851 2e11 C47D     		.sleb128 -316
 14852 2e13 06       		.byte	0x6
 14853 2e14 1A       		.byte	0x1a
 14854 2e15 21       		.byte	0x21
 14855 2e16 22       		.byte	0x22
 14856 2e17 9F       		.byte	0x9f
 14857 2e18 F60A0000 		.4byte	.LVL200
 14858 2e1c 060B0000 		.4byte	.LVL201
 14859 2e20 0100     		.2byte	0x1
 14860 2e22 51       		.byte	0x51
 14861 2e23 00000000 		.4byte	0
 14862 2e27 00000000 		.4byte	0
 14863              	.LLST11:
 14864 2e2b 10000000 		.4byte	.LVL11
 14865 2e2f 16000000 		.4byte	.LVL12
 14866 2e33 0200     		.2byte	0x2
 14867 2e35 30       		.byte	0x30
 14868 2e36 9F       		.byte	0x9f
 14869 2e37 16000000 		.4byte	.LVL12
 14870 2e3b 2C000000 		.4byte	.LVL14
 14871 2e3f 0100     		.2byte	0x1
 14872 2e41 53       		.byte	0x53
 14873 2e42 2C000000 		.4byte	.LVL14
 14874 2e46 54000000 		.4byte	.LVL16
 14875 2e4a 0100     		.2byte	0x1
 14876 2e4c 50       		.byte	0x50
 14877 2e4d 54000000 		.4byte	.LVL16
 14878 2e51 56000000 		.4byte	.LVL17
 14879 2e55 0100     		.2byte	0x1
 14880 2e57 53       		.byte	0x53
 14881 2e58 56000000 		.4byte	.LVL17
 14882 2e5c 7C040000 		.4byte	.LVL113
 14883 2e60 0100     		.2byte	0x1
 14884 2e62 5A       		.byte	0x5a
 14885 2e63 7C040000 		.4byte	.LVL113
 14886 2e67 7E040000 		.4byte	.LVL114
 14887 2e6b 0100     		.2byte	0x1
 14888 2e6d 53       		.byte	0x53
 14889 2e6e 7E040000 		.4byte	.LVL114
 14890 2e72 E6040000 		.4byte	.LVL115
 14891 2e76 0200     		.2byte	0x2
 14892 2e78 7D       		.byte	0x7d
 14893 2e79 00       		.sleb128 0
 14894 2e7a 060B0000 		.4byte	.LVL201
 14895 2e7e 140B0000 		.4byte	.LVL202
 14896 2e82 0200     		.2byte	0x2
 14897 2e84 7D       		.byte	0x7d
 14898 2e85 00       		.sleb128 0
 14899 2e86 140B0000 		.4byte	.LVL202
 14900 2e8a 400B0000 		.4byte	.LFE6
 14901 2e8e 0100     		.2byte	0x1
 14902 2e90 52       		.byte	0x52
 14903 2e91 00000000 		.4byte	0
 14904 2e95 00000000 		.4byte	0
 14905              	.LLST12:
ARM GAS  C:\Users\Phuong\AppData\Local\Temp\ccuEFeTd.s 			page 273


 14906 2e99 00000000 		.4byte	.LVL204
 14907 2e9d 05000000 		.4byte	.LVL205-1
 14908 2ea1 0100     		.2byte	0x1
 14909 2ea3 50       		.byte	0x50
 14910 2ea4 05000000 		.4byte	.LVL205-1
 14911 2ea8 08000000 		.4byte	.LFE7
 14912 2eac 0400     		.2byte	0x4
 14913 2eae F3       		.byte	0xf3
 14914 2eaf 01       		.uleb128 0x1
 14915 2eb0 50       		.byte	0x50
 14916 2eb1 9F       		.byte	0x9f
 14917 2eb2 00000000 		.4byte	0
 14918 2eb6 00000000 		.4byte	0
 14919              	.LLST13:
 14920 2eba 00000000 		.4byte	.LVL204
 14921 2ebe 05000000 		.4byte	.LVL205-1
 14922 2ec2 0100     		.2byte	0x1
 14923 2ec4 51       		.byte	0x51
 14924 2ec5 05000000 		.4byte	.LVL205-1
 14925 2ec9 08000000 		.4byte	.LFE7
 14926 2ecd 0400     		.2byte	0x4
 14927 2ecf F3       		.byte	0xf3
 14928 2ed0 01       		.uleb128 0x1
 14929 2ed1 51       		.byte	0x51
 14930 2ed2 9F       		.byte	0x9f
 14931 2ed3 00000000 		.4byte	0
 14932 2ed7 00000000 		.4byte	0
 14933              	.LLST14:
 14934 2edb 00000000 		.4byte	.LVL206
 14935 2edf 3A000000 		.4byte	.LVL210
 14936 2ee3 0100     		.2byte	0x1
 14937 2ee5 50       		.byte	0x50
 14938 2ee6 3A000000 		.4byte	.LVL210
 14939 2eea 74000000 		.4byte	.LVL221
 14940 2eee 0100     		.2byte	0x1
 14941 2ef0 56       		.byte	0x56
 14942 2ef1 74000000 		.4byte	.LVL221
 14943 2ef5 82000000 		.4byte	.LVL223
 14944 2ef9 0300     		.2byte	0x3
 14945 2efb 76       		.byte	0x76
 14946 2efc 58       		.sleb128 -40
 14947 2efd 9F       		.byte	0x9f
 14948 2efe 82000000 		.4byte	.LVL223
 14949 2f02 84000000 		.4byte	.LVL224
 14950 2f06 0100     		.2byte	0x1
 14951 2f08 50       		.byte	0x50
 14952 2f09 84000000 		.4byte	.LVL224
 14953 2f0d 88000000 		.4byte	.LVL226
 14954 2f11 0100     		.2byte	0x1
 14955 2f13 56       		.byte	0x56
 14956 2f14 88000000 		.4byte	.LVL226
 14957 2f18 90000000 		.4byte	.LFE8
 14958 2f1c 0400     		.2byte	0x4
 14959 2f1e F3       		.byte	0xf3
 14960 2f1f 01       		.uleb128 0x1
 14961 2f20 50       		.byte	0x50
 14962 2f21 9F       		.byte	0x9f
ARM GAS  C:\Users\Phuong\AppData\Local\Temp\ccuEFeTd.s 			page 274


 14963 2f22 00000000 		.4byte	0
 14964 2f26 00000000 		.4byte	0
 14965              	.LLST15:
 14966 2f2a 00000000 		.4byte	.LVL206
 14967 2f2e 40000000 		.4byte	.LVL212
 14968 2f32 0100     		.2byte	0x1
 14969 2f34 51       		.byte	0x51
 14970 2f35 40000000 		.4byte	.LVL212
 14971 2f39 82000000 		.4byte	.LVL223
 14972 2f3d 0100     		.2byte	0x1
 14973 2f3f 55       		.byte	0x55
 14974 2f40 82000000 		.4byte	.LVL223
 14975 2f44 86000000 		.4byte	.LVL225
 14976 2f48 0100     		.2byte	0x1
 14977 2f4a 51       		.byte	0x51
 14978 2f4b 86000000 		.4byte	.LVL225
 14979 2f4f 88000000 		.4byte	.LVL228
 14980 2f53 0100     		.2byte	0x1
 14981 2f55 55       		.byte	0x55
 14982 2f56 00000000 		.4byte	0
 14983 2f5a 00000000 		.4byte	0
 14984              	.LLST16:
 14985 2f5e 00000000 		.4byte	.LVL206
 14986 2f62 18000000 		.4byte	.LVL208
 14987 2f66 0100     		.2byte	0x1
 14988 2f68 52       		.byte	0x52
 14989 2f69 18000000 		.4byte	.LVL208
 14990 2f6d 82000000 		.4byte	.LVL223
 14991 2f71 0100     		.2byte	0x1
 14992 2f73 54       		.byte	0x54
 14993 2f74 82000000 		.4byte	.LVL223
 14994 2f78 86000000 		.4byte	.LVL225
 14995 2f7c 0100     		.2byte	0x1
 14996 2f7e 52       		.byte	0x52
 14997 2f7f 86000000 		.4byte	.LVL225
 14998 2f83 88000000 		.4byte	.LVL227
 14999 2f87 0100     		.2byte	0x1
 15000 2f89 54       		.byte	0x54
 15001 2f8a 00000000 		.4byte	0
 15002 2f8e 00000000 		.4byte	0
 15003              	.LLST17:
 15004 2f92 4C000000 		.4byte	.LVL214
 15005 2f96 5A000000 		.4byte	.LVL217
 15006 2f9a 0100     		.2byte	0x1
 15007 2f9c 50       		.byte	0x50
 15008 2f9d 62000000 		.4byte	.LVL218
 15009 2fa1 6A000000 		.4byte	.LVL220
 15010 2fa5 0100     		.2byte	0x1
 15011 2fa7 50       		.byte	0x50
 15012 2fa8 00000000 		.4byte	0
 15013 2fac 00000000 		.4byte	0
 15014              	.LLST18:
 15015 2fb0 1C000000 		.4byte	.LVL209
 15016 2fb4 3E000000 		.4byte	.LVL211
 15017 2fb8 0100     		.2byte	0x1
 15018 2fba 52       		.byte	0x52
 15019 2fbb 3E000000 		.4byte	.LVL211
ARM GAS  C:\Users\Phuong\AppData\Local\Temp\ccuEFeTd.s 			page 275


 15020 2fbf 82000000 		.4byte	.LVL223
 15021 2fc3 0100     		.2byte	0x1
 15022 2fc5 58       		.byte	0x58
 15023 2fc6 86000000 		.4byte	.LVL225
 15024 2fca 88000000 		.4byte	.LVL226
 15025 2fce 0100     		.2byte	0x1
 15026 2fd0 58       		.byte	0x58
 15027 2fd1 00000000 		.4byte	0
 15028 2fd5 00000000 		.4byte	0
 15029              	.LLST19:
 15030 2fd9 16000000 		.4byte	.LVL207
 15031 2fdd 56000000 		.4byte	.LVL216
 15032 2fe1 0100     		.2byte	0x1
 15033 2fe3 57       		.byte	0x57
 15034 2fe4 56000000 		.4byte	.LVL216
 15035 2fe8 5A000000 		.4byte	.LVL217
 15036 2fec 0200     		.2byte	0x2
 15037 2fee 30       		.byte	0x30
 15038 2fef 9F       		.byte	0x9f
 15039 2ff0 5A000000 		.4byte	.LVL217
 15040 2ff4 82000000 		.4byte	.LVL223
 15041 2ff8 0100     		.2byte	0x1
 15042 2ffa 57       		.byte	0x57
 15043 2ffb 86000000 		.4byte	.LVL225
 15044 2fff 88000000 		.4byte	.LVL226
 15045 3003 0100     		.2byte	0x1
 15046 3005 57       		.byte	0x57
 15047 3006 00000000 		.4byte	0
 15048 300a 00000000 		.4byte	0
 15049              	.LLST20:
 15050 300e 00000000 		.4byte	.LVL229
 15051 3012 05000000 		.4byte	.LVL230-1
 15052 3016 0100     		.2byte	0x1
 15053 3018 50       		.byte	0x50
 15054 3019 05000000 		.4byte	.LVL230-1
 15055 301d 08000000 		.4byte	.LFE9
 15056 3021 0400     		.2byte	0x4
 15057 3023 F3       		.byte	0xf3
 15058 3024 01       		.uleb128 0x1
 15059 3025 50       		.byte	0x50
 15060 3026 9F       		.byte	0x9f
 15061 3027 00000000 		.4byte	0
 15062 302b 00000000 		.4byte	0
 15063              	.LLST21:
 15064 302f 00000000 		.4byte	.LVL229
 15065 3033 05000000 		.4byte	.LVL230-1
 15066 3037 0100     		.2byte	0x1
 15067 3039 51       		.byte	0x51
 15068 303a 05000000 		.4byte	.LVL230-1
 15069 303e 08000000 		.4byte	.LFE9
 15070 3042 0400     		.2byte	0x4
 15071 3044 F3       		.byte	0xf3
 15072 3045 01       		.uleb128 0x1
 15073 3046 51       		.byte	0x51
 15074 3047 9F       		.byte	0x9f
 15075 3048 00000000 		.4byte	0
 15076 304c 00000000 		.4byte	0
ARM GAS  C:\Users\Phuong\AppData\Local\Temp\ccuEFeTd.s 			page 276


 15077              	.LLST22:
 15078 3050 00000000 		.4byte	.LVL229
 15079 3054 05000000 		.4byte	.LVL230-1
 15080 3058 0100     		.2byte	0x1
 15081 305a 52       		.byte	0x52
 15082 305b 05000000 		.4byte	.LVL230-1
 15083 305f 08000000 		.4byte	.LFE9
 15084 3063 0400     		.2byte	0x4
 15085 3065 F3       		.byte	0xf3
 15086 3066 01       		.uleb128 0x1
 15087 3067 52       		.byte	0x52
 15088 3068 9F       		.byte	0x9f
 15089 3069 00000000 		.4byte	0
 15090 306d 00000000 		.4byte	0
 15091              	.LLST23:
 15092 3071 00000000 		.4byte	.LVL231
 15093 3075 0E000000 		.4byte	.LVL233
 15094 3079 0100     		.2byte	0x1
 15095 307b 50       		.byte	0x50
 15096 307c 0E000000 		.4byte	.LVL233
 15097 3080 36010000 		.4byte	.LVL249
 15098 3084 0100     		.2byte	0x1
 15099 3086 54       		.byte	0x54
 15100 3087 36010000 		.4byte	.LVL249
 15101 308b 38010000 		.4byte	.LFE10
 15102 308f 0400     		.2byte	0x4
 15103 3091 F3       		.byte	0xf3
 15104 3092 01       		.uleb128 0x1
 15105 3093 50       		.byte	0x50
 15106 3094 9F       		.byte	0x9f
 15107 3095 00000000 		.4byte	0
 15108 3099 00000000 		.4byte	0
 15109              	.LLST24:
 15110 309d 00000000 		.4byte	.LVL231
 15111 30a1 26000000 		.4byte	.LVL235
 15112 30a5 0100     		.2byte	0x1
 15113 30a7 51       		.byte	0x51
 15114 30a8 26000000 		.4byte	.LVL235
 15115 30ac 2C000000 		.4byte	.LVL237
 15116 30b0 0100     		.2byte	0x1
 15117 30b2 55       		.byte	0x55
 15118 30b3 2C000000 		.4byte	.LVL237
 15119 30b7 38000000 		.4byte	.LVL239
 15120 30bb 0100     		.2byte	0x1
 15121 30bd 51       		.byte	0x51
 15122 30be 38000000 		.4byte	.LVL239
 15123 30c2 36010000 		.4byte	.LVL250
 15124 30c6 0100     		.2byte	0x1
 15125 30c8 55       		.byte	0x55
 15126 30c9 36010000 		.4byte	.LVL250
 15127 30cd 38010000 		.4byte	.LFE10
 15128 30d1 0400     		.2byte	0x4
 15129 30d3 F3       		.byte	0xf3
 15130 30d4 01       		.uleb128 0x1
 15131 30d5 51       		.byte	0x51
 15132 30d6 9F       		.byte	0x9f
 15133 30d7 00000000 		.4byte	0
ARM GAS  C:\Users\Phuong\AppData\Local\Temp\ccuEFeTd.s 			page 277


 15134 30db 00000000 		.4byte	0
 15135              	.LLST25:
 15136 30df 44000000 		.4byte	.LVL241
 15137 30e3 4E000000 		.4byte	.LVL242
 15138 30e7 0100     		.2byte	0x1
 15139 30e9 50       		.byte	0x50
 15140 30ea 94000000 		.4byte	.LVL247
 15141 30ee 1A010000 		.4byte	.LVL248
 15142 30f2 0100     		.2byte	0x1
 15143 30f4 50       		.byte	0x50
 15144 30f5 00000000 		.4byte	0
 15145 30f9 00000000 		.4byte	0
 15146              	.LLST26:
 15147 30fd 0C000000 		.4byte	.LVL232
 15148 3101 0E000000 		.4byte	.LVL233
 15149 3105 0100     		.2byte	0x1
 15150 3107 53       		.byte	0x53
 15151 3108 0E000000 		.4byte	.LVL233
 15152 310c 24000000 		.4byte	.LVL234
 15153 3110 0100     		.2byte	0x1
 15154 3112 50       		.byte	0x50
 15155 3113 2C000000 		.4byte	.LVL237
 15156 3117 36000000 		.4byte	.LVL238
 15157 311b 0100     		.2byte	0x1
 15158 311d 50       		.byte	0x50
 15159 311e 00000000 		.4byte	0
 15160 3122 00000000 		.4byte	0
 15161              	.LLST27:
 15162 3126 5C000000 		.4byte	.LVL244
 15163 312a 78000000 		.4byte	.LVL246
 15164 312e 0100     		.2byte	0x1
 15165 3130 53       		.byte	0x53
 15166 3131 00000000 		.4byte	0
 15167 3135 00000000 		.4byte	0
 15168              	.LLST28:
 15169 3139 5E000000 		.4byte	.LVL245
 15170 313d 93000000 		.4byte	.LVL247-1
 15171 3141 0100     		.2byte	0x1
 15172 3143 52       		.byte	0x52
 15173 3144 00000000 		.4byte	0
 15174 3148 00000000 		.4byte	0
 15175              	.LLST29:
 15176 314c 00000000 		.4byte	.LVL251
 15177 3150 05000000 		.4byte	.LVL252-1
 15178 3154 0100     		.2byte	0x1
 15179 3156 50       		.byte	0x50
 15180 3157 05000000 		.4byte	.LVL252-1
 15181 315b 08000000 		.4byte	.LFE11
 15182 315f 0400     		.2byte	0x4
 15183 3161 F3       		.byte	0xf3
 15184 3162 01       		.uleb128 0x1
 15185 3163 50       		.byte	0x50
 15186 3164 9F       		.byte	0x9f
 15187 3165 00000000 		.4byte	0
 15188 3169 00000000 		.4byte	0
 15189              	.LLST30:
 15190 316d 00000000 		.4byte	.LVL251
ARM GAS  C:\Users\Phuong\AppData\Local\Temp\ccuEFeTd.s 			page 278


 15191 3171 05000000 		.4byte	.LVL252-1
 15192 3175 0100     		.2byte	0x1
 15193 3177 51       		.byte	0x51
 15194 3178 05000000 		.4byte	.LVL252-1
 15195 317c 08000000 		.4byte	.LFE11
 15196 3180 0400     		.2byte	0x4
 15197 3182 F3       		.byte	0xf3
 15198 3183 01       		.uleb128 0x1
 15199 3184 51       		.byte	0x51
 15200 3185 9F       		.byte	0x9f
 15201 3186 00000000 		.4byte	0
 15202 318a 00000000 		.4byte	0
 15203              	.LLST31:
 15204 318e 00000000 		.4byte	.LVL253
 15205 3192 0E000000 		.4byte	.LVL254
 15206 3196 0100     		.2byte	0x1
 15207 3198 50       		.byte	0x50
 15208 3199 0E000000 		.4byte	.LVL254
 15209 319d 40000000 		.4byte	.LVL267
 15210 31a1 0100     		.2byte	0x1
 15211 31a3 55       		.byte	0x55
 15212 31a4 40000000 		.4byte	.LVL267
 15213 31a8 42000000 		.4byte	.LFE12
 15214 31ac 0400     		.2byte	0x4
 15215 31ae F3       		.byte	0xf3
 15216 31af 01       		.uleb128 0x1
 15217 31b0 50       		.byte	0x50
 15218 31b1 9F       		.byte	0x9f
 15219 31b2 00000000 		.4byte	0
 15220 31b6 00000000 		.4byte	0
 15221              	.LLST32:
 15222 31ba 00000000 		.4byte	.LVL253
 15223 31be 11000000 		.4byte	.LVL255-1
 15224 31c2 0100     		.2byte	0x1
 15225 31c4 51       		.byte	0x51
 15226 31c5 11000000 		.4byte	.LVL255-1
 15227 31c9 40000000 		.4byte	.LVL268
 15228 31cd 0100     		.2byte	0x1
 15229 31cf 56       		.byte	0x56
 15230 31d0 40000000 		.4byte	.LVL268
 15231 31d4 42000000 		.4byte	.LFE12
 15232 31d8 0400     		.2byte	0x4
 15233 31da F3       		.byte	0xf3
 15234 31db 01       		.uleb128 0x1
 15235 31dc 51       		.byte	0x51
 15236 31dd 9F       		.byte	0x9f
 15237 31de 00000000 		.4byte	0
 15238 31e2 00000000 		.4byte	0
 15239              	.LLST33:
 15240 31e6 00000000 		.4byte	.LVL253
 15241 31ea 11000000 		.4byte	.LVL255-1
 15242 31ee 0100     		.2byte	0x1
 15243 31f0 52       		.byte	0x52
 15244 31f1 11000000 		.4byte	.LVL255-1
 15245 31f5 40000000 		.4byte	.LVL269
 15246 31f9 0100     		.2byte	0x1
 15247 31fb 57       		.byte	0x57
ARM GAS  C:\Users\Phuong\AppData\Local\Temp\ccuEFeTd.s 			page 279


 15248 31fc 40000000 		.4byte	.LVL269
 15249 3200 42000000 		.4byte	.LFE12
 15250 3204 0400     		.2byte	0x4
 15251 3206 F3       		.byte	0xf3
 15252 3207 01       		.uleb128 0x1
 15253 3208 52       		.byte	0x52
 15254 3209 9F       		.byte	0x9f
 15255 320a 00000000 		.4byte	0
 15256 320e 00000000 		.4byte	0
 15257              	.LLST34:
 15258 3212 00000000 		.4byte	.LVL253
 15259 3216 11000000 		.4byte	.LVL255-1
 15260 321a 0100     		.2byte	0x1
 15261 321c 53       		.byte	0x53
 15262 321d 11000000 		.4byte	.LVL255-1
 15263 3221 1C000000 		.4byte	.LVL257
 15264 3225 0100     		.2byte	0x1
 15265 3227 54       		.byte	0x54
 15266 3228 1C000000 		.4byte	.LVL257
 15267 322c 42000000 		.4byte	.LFE12
 15268 3230 0400     		.2byte	0x4
 15269 3232 F3       		.byte	0xf3
 15270 3233 01       		.uleb128 0x1
 15271 3234 53       		.byte	0x53
 15272 3235 9F       		.byte	0x9f
 15273 3236 00000000 		.4byte	0
 15274 323a 00000000 		.4byte	0
 15275              	.LLST35:
 15276 323e 1C000000 		.4byte	.LVL257
 15277 3242 24000000 		.4byte	.LVL258
 15278 3246 0100     		.2byte	0x1
 15279 3248 50       		.byte	0x50
 15280 3249 24000000 		.4byte	.LVL258
 15281 324d 2A000000 		.4byte	.LVL260
 15282 3251 0100     		.2byte	0x1
 15283 3253 54       		.byte	0x54
 15284 3254 2A000000 		.4byte	.LVL260
 15285 3258 30000000 		.4byte	.LVL261
 15286 325c 0100     		.2byte	0x1
 15287 325e 50       		.byte	0x50
 15288 325f 30000000 		.4byte	.LVL261
 15289 3263 36000000 		.4byte	.LVL263
 15290 3267 0100     		.2byte	0x1
 15291 3269 54       		.byte	0x54
 15292 326a 36000000 		.4byte	.LVL263
 15293 326e 38000000 		.4byte	.LVL264
 15294 3272 0100     		.2byte	0x1
 15295 3274 50       		.byte	0x50
 15296 3275 38000000 		.4byte	.LVL264
 15297 3279 40000000 		.4byte	.LVL266
 15298 327d 0100     		.2byte	0x1
 15299 327f 54       		.byte	0x54
 15300 3280 40000000 		.4byte	.LVL266
 15301 3284 42000000 		.4byte	.LFE12
 15302 3288 0100     		.2byte	0x1
 15303 328a 50       		.byte	0x50
 15304 328b 00000000 		.4byte	0
ARM GAS  C:\Users\Phuong\AppData\Local\Temp\ccuEFeTd.s 			page 280


 15305 328f 00000000 		.4byte	0
 15306              	.LLST36:
 15307 3293 00000000 		.4byte	.LVL270
 15308 3297 05000000 		.4byte	.LVL271-1
 15309 329b 0100     		.2byte	0x1
 15310 329d 50       		.byte	0x50
 15311 329e 05000000 		.4byte	.LVL271-1
 15312 32a2 08000000 		.4byte	.LFE13
 15313 32a6 0400     		.2byte	0x4
 15314 32a8 F3       		.byte	0xf3
 15315 32a9 01       		.uleb128 0x1
 15316 32aa 50       		.byte	0x50
 15317 32ab 9F       		.byte	0x9f
 15318 32ac 00000000 		.4byte	0
 15319 32b0 00000000 		.4byte	0
 15320              	.LLST37:
 15321 32b4 00000000 		.4byte	.LVL270
 15322 32b8 05000000 		.4byte	.LVL271-1
 15323 32bc 0100     		.2byte	0x1
 15324 32be 51       		.byte	0x51
 15325 32bf 05000000 		.4byte	.LVL271-1
 15326 32c3 08000000 		.4byte	.LFE13
 15327 32c7 0400     		.2byte	0x4
 15328 32c9 F3       		.byte	0xf3
 15329 32ca 01       		.uleb128 0x1
 15330 32cb 51       		.byte	0x51
 15331 32cc 9F       		.byte	0x9f
 15332 32cd 00000000 		.4byte	0
 15333 32d1 00000000 		.4byte	0
 15334              	.LLST38:
 15335 32d5 00000000 		.4byte	.LVL270
 15336 32d9 05000000 		.4byte	.LVL271-1
 15337 32dd 0100     		.2byte	0x1
 15338 32df 52       		.byte	0x52
 15339 32e0 05000000 		.4byte	.LVL271-1
 15340 32e4 08000000 		.4byte	.LFE13
 15341 32e8 0400     		.2byte	0x4
 15342 32ea F3       		.byte	0xf3
 15343 32eb 01       		.uleb128 0x1
 15344 32ec 52       		.byte	0x52
 15345 32ed 9F       		.byte	0x9f
 15346 32ee 00000000 		.4byte	0
 15347 32f2 00000000 		.4byte	0
 15348              	.LLST39:
 15349 32f6 00000000 		.4byte	.LVL270
 15350 32fa 05000000 		.4byte	.LVL271-1
 15351 32fe 0100     		.2byte	0x1
 15352 3300 53       		.byte	0x53
 15353 3301 05000000 		.4byte	.LVL271-1
 15354 3305 08000000 		.4byte	.LFE13
 15355 3309 0400     		.2byte	0x4
 15356 330b F3       		.byte	0xf3
 15357 330c 01       		.uleb128 0x1
 15358 330d 53       		.byte	0x53
 15359 330e 9F       		.byte	0x9f
 15360 330f 00000000 		.4byte	0
 15361 3313 00000000 		.4byte	0
ARM GAS  C:\Users\Phuong\AppData\Local\Temp\ccuEFeTd.s 			page 281


 15362              	.LLST40:
 15363 3317 00000000 		.4byte	.LVL272
 15364 331b 0E000000 		.4byte	.LVL274
 15365 331f 0100     		.2byte	0x1
 15366 3321 50       		.byte	0x50
 15367 3322 0E000000 		.4byte	.LVL274
 15368 3326 54000000 		.4byte	.LVL287
 15369 332a 0100     		.2byte	0x1
 15370 332c 58       		.byte	0x58
 15371 332d 54000000 		.4byte	.LVL287
 15372 3331 61000000 		.4byte	.LVL288-1
 15373 3335 0100     		.2byte	0x1
 15374 3337 53       		.byte	0x53
 15375 3338 61000000 		.4byte	.LVL288-1
 15376 333c E4000000 		.4byte	.LVL308
 15377 3340 0100     		.2byte	0x1
 15378 3342 58       		.byte	0x58
 15379 3343 E4000000 		.4byte	.LVL308
 15380 3347 E9000000 		.4byte	.LVL309-1
 15381 334b 0100     		.2byte	0x1
 15382 334d 53       		.byte	0x53
 15383 334e E9000000 		.4byte	.LVL309-1
 15384 3352 F6000000 		.4byte	.LVL311
 15385 3356 0100     		.2byte	0x1
 15386 3358 58       		.byte	0x58
 15387 3359 F6000000 		.4byte	.LVL311
 15388 335d FB000000 		.4byte	.LVL312-1
 15389 3361 0100     		.2byte	0x1
 15390 3363 53       		.byte	0x53
 15391 3364 FB000000 		.4byte	.LVL312-1
 15392 3368 06010000 		.4byte	.LVL315
 15393 336c 0100     		.2byte	0x1
 15394 336e 58       		.byte	0x58
 15395 336f 06010000 		.4byte	.LVL315
 15396 3373 0B010000 		.4byte	.LVL316-1
 15397 3377 0100     		.2byte	0x1
 15398 3379 53       		.byte	0x53
 15399 337a 0B010000 		.4byte	.LVL316-1
 15400 337e 1C010000 		.4byte	.LVL319
 15401 3382 0100     		.2byte	0x1
 15402 3384 58       		.byte	0x58
 15403 3385 1C010000 		.4byte	.LVL319
 15404 3389 1E010000 		.4byte	.LVL320
 15405 338d 0100     		.2byte	0x1
 15406 338f 53       		.byte	0x53
 15407 3390 1E010000 		.4byte	.LVL320
 15408 3394 20010000 		.4byte	.LVL321
 15409 3398 0100     		.2byte	0x1
 15410 339a 58       		.byte	0x58
 15411 339b 20010000 		.4byte	.LVL321
 15412 339f 44010000 		.4byte	.LFE14
 15413 33a3 0400     		.2byte	0x4
 15414 33a5 F3       		.byte	0xf3
 15415 33a6 01       		.uleb128 0x1
 15416 33a7 50       		.byte	0x50
 15417 33a8 9F       		.byte	0x9f
 15418 33a9 00000000 		.4byte	0
ARM GAS  C:\Users\Phuong\AppData\Local\Temp\ccuEFeTd.s 			page 282


 15419 33ad 00000000 		.4byte	0
 15420              	.LLST41:
 15421 33b1 32000000 		.4byte	.LVL281
 15422 33b5 38000000 		.4byte	.LVL282
 15423 33b9 0200     		.2byte	0x2
 15424 33bb 30       		.byte	0x30
 15425 33bc 9F       		.byte	0x9f
 15426 33bd 38000000 		.4byte	.LVL282
 15427 33c1 1C010000 		.4byte	.LVL319
 15428 33c5 0100     		.2byte	0x1
 15429 33c7 56       		.byte	0x56
 15430 33c8 00000000 		.4byte	0
 15431 33cc 00000000 		.4byte	0
 15432              	.LLST42:
 15433 33d0 42000000 		.4byte	.LVL284
 15434 33d4 48000000 		.4byte	.LVL285
 15435 33d8 0100     		.2byte	0x1
 15436 33da 51       		.byte	0x51
 15437 33db 48000000 		.4byte	.LVL285
 15438 33df 7E000000 		.4byte	.LVL293
 15439 33e3 0100     		.2byte	0x1
 15440 33e5 55       		.byte	0x55
 15441 33e6 7E000000 		.4byte	.LVL293
 15442 33ea 82000000 		.4byte	.LVL294
 15443 33ee 0200     		.2byte	0x2
 15444 33f0 30       		.byte	0x30
 15445 33f1 9F       		.byte	0x9f
 15446 33f2 82000000 		.4byte	.LVL294
 15447 33f6 AA000000 		.4byte	.LVL299
 15448 33fa 0100     		.2byte	0x1
 15449 33fc 55       		.byte	0x55
 15450 33fd 00000000 		.4byte	0
 15451 3401 00000000 		.4byte	0
 15452              	.LLST43:
 15453 3405 4E000000 		.4byte	.LVL286
 15454 3409 EC000000 		.4byte	.LVL310
 15455 340d 0100     		.2byte	0x1
 15456 340f 57       		.byte	0x57
 15457 3410 FE000000 		.4byte	.LVL313
 15458 3414 0C010000 		.4byte	.LVL316
 15459 3418 0100     		.2byte	0x1
 15460 341a 57       		.byte	0x57
 15461 341b 00000000 		.4byte	0
 15462 341f 00000000 		.4byte	0
 15463              	.LLST44:
 15464 3423 72000000 		.4byte	.LVL291
 15465 3427 9C000000 		.4byte	.LVL298
 15466 342b 0400     		.2byte	0x4
 15467 342d 0A       		.byte	0xa
 15468 342e E803     		.2byte	0x3e8
 15469 3430 9F       		.byte	0x9f
 15470 3431 00000000 		.4byte	0
 15471 3435 00000000 		.4byte	0
 15472              	.LLST45:
 15473 3439 0A000000 		.4byte	.LVL273
 15474 343d 38000000 		.4byte	.LVL282
 15475 3441 0200     		.2byte	0x2
ARM GAS  C:\Users\Phuong\AppData\Local\Temp\ccuEFeTd.s 			page 283


 15476 3443 30       		.byte	0x30
 15477 3444 9F       		.byte	0x9f
 15478 3445 38000000 		.4byte	.LVL282
 15479 3449 6C000000 		.4byte	.LVL290
 15480 344d 0100     		.2byte	0x1
 15481 344f 54       		.byte	0x54
 15482 3450 6C000000 		.4byte	.LVL290
 15483 3454 7A000000 		.4byte	.LVL292
 15484 3458 0100     		.2byte	0x1
 15485 345a 50       		.byte	0x50
 15486 345b 7A000000 		.4byte	.LVL292
 15487 345f 90000000 		.4byte	.LVL296
 15488 3463 0100     		.2byte	0x1
 15489 3465 54       		.byte	0x54
 15490 3466 90000000 		.4byte	.LVL296
 15491 346a 94000000 		.4byte	.LVL297
 15492 346e 0100     		.2byte	0x1
 15493 3470 50       		.byte	0x50
 15494 3471 94000000 		.4byte	.LVL297
 15495 3475 9C000000 		.4byte	.LVL298
 15496 3479 0100     		.2byte	0x1
 15497 347b 54       		.byte	0x54
 15498 347c 9C000000 		.4byte	.LVL298
 15499 3480 B2000000 		.4byte	.LVL300
 15500 3484 0100     		.2byte	0x1
 15501 3486 50       		.byte	0x50
 15502 3487 B2000000 		.4byte	.LVL300
 15503 348b B8000000 		.4byte	.LVL302
 15504 348f 0100     		.2byte	0x1
 15505 3491 54       		.byte	0x54
 15506 3492 B8000000 		.4byte	.LVL302
 15507 3496 BA000000 		.4byte	.LVL303
 15508 349a 0100     		.2byte	0x1
 15509 349c 50       		.byte	0x50
 15510 349d BA000000 		.4byte	.LVL303
 15511 34a1 C4000000 		.4byte	.LVL305
 15512 34a5 0100     		.2byte	0x1
 15513 34a7 54       		.byte	0x54
 15514 34a8 C4000000 		.4byte	.LVL305
 15515 34ac D6000000 		.4byte	.LVL306
 15516 34b0 0100     		.2byte	0x1
 15517 34b2 50       		.byte	0x50
 15518 34b3 D6000000 		.4byte	.LVL306
 15519 34b7 1C010000 		.4byte	.LVL319
 15520 34bb 0100     		.2byte	0x1
 15521 34bd 54       		.byte	0x54
 15522 34be 1C010000 		.4byte	.LVL319
 15523 34c2 1E010000 		.4byte	.LVL320
 15524 34c6 0200     		.2byte	0x2
 15525 34c8 30       		.byte	0x30
 15526 34c9 9F       		.byte	0x9f
 15527 34ca 00000000 		.4byte	0
 15528 34ce 00000000 		.4byte	0
 15529              	.LLST46:
 15530 34d2 16000000 		.4byte	.LVL276
 15531 34d6 24000000 		.4byte	.LVL277
 15532 34da 0100     		.2byte	0x1
ARM GAS  C:\Users\Phuong\AppData\Local\Temp\ccuEFeTd.s 			page 284


 15533 34dc 50       		.byte	0x50
 15534 34dd 24000000 		.4byte	.LVL277
 15535 34e1 2C000000 		.4byte	.LVL279
 15536 34e5 0300     		.2byte	0x3
 15537 34e7 91       		.byte	0x91
 15538 34e8 D47E     		.sleb128 -172
 15539 34ea 2C000000 		.4byte	.LVL279
 15540 34ee 2E000000 		.4byte	.LVL280
 15541 34f2 0100     		.2byte	0x1
 15542 34f4 50       		.byte	0x50
 15543 34f5 2E000000 		.4byte	.LVL280
 15544 34f9 1C010000 		.4byte	.LVL319
 15545 34fd 0300     		.2byte	0x3
 15546 34ff 91       		.byte	0x91
 15547 3500 D47E     		.sleb128 -172
 15548 3502 1C010000 		.4byte	.LVL319
 15549 3506 1E010000 		.4byte	.LVL320
 15550 350a 0100     		.2byte	0x1
 15551 350c 50       		.byte	0x50
 15552 350d 1E010000 		.4byte	.LVL320
 15553 3511 44010000 		.4byte	.LFE14
 15554 3515 0300     		.2byte	0x3
 15555 3517 91       		.byte	0x91
 15556 3518 D47E     		.sleb128 -172
 15557 351a 00000000 		.4byte	0
 15558 351e 00000000 		.4byte	0
 15559              		.section	.debug_aranges,"",%progbits
 15560 0000 84000000 		.4byte	0x84
 15561 0004 0200     		.2byte	0x2
 15562 0006 00000000 		.4byte	.Ldebug_info0
 15563 000a 04       		.byte	0x4
 15564 000b 00       		.byte	0
 15565 000c 0000     		.2byte	0
 15566 000e 0000     		.2byte	0
 15567 0010 00000000 		.4byte	.LFB1
 15568 0014 0C000000 		.4byte	.LFE1-.LFB1
 15569 0018 00000000 		.4byte	.LFB2
 15570 001c 0E000000 		.4byte	.LFE2-.LFB2
 15571 0020 00000000 		.4byte	.LFB3
 15572 0024 0A000000 		.4byte	.LFE3-.LFB3
 15573 0028 00000000 		.4byte	.LFB4
 15574 002c 94000000 		.4byte	.LFE4-.LFB4
 15575 0030 00000000 		.4byte	.LFB5
 15576 0034 08000000 		.4byte	.LFE5-.LFB5
 15577 0038 00000000 		.4byte	.LFB6
 15578 003c 400B0000 		.4byte	.LFE6-.LFB6
 15579 0040 00000000 		.4byte	.LFB7
 15580 0044 08000000 		.4byte	.LFE7-.LFB7
 15581 0048 00000000 		.4byte	.LFB8
 15582 004c 90000000 		.4byte	.LFE8-.LFB8
 15583 0050 00000000 		.4byte	.LFB9
 15584 0054 08000000 		.4byte	.LFE9-.LFB9
 15585 0058 00000000 		.4byte	.LFB10
 15586 005c 38010000 		.4byte	.LFE10-.LFB10
 15587 0060 00000000 		.4byte	.LFB11
 15588 0064 08000000 		.4byte	.LFE11-.LFB11
 15589 0068 00000000 		.4byte	.LFB12
ARM GAS  C:\Users\Phuong\AppData\Local\Temp\ccuEFeTd.s 			page 285


 15590 006c 42000000 		.4byte	.LFE12-.LFB12
 15591 0070 00000000 		.4byte	.LFB13
 15592 0074 08000000 		.4byte	.LFE13-.LFB13
 15593 0078 00000000 		.4byte	.LFB14
 15594 007c 44010000 		.4byte	.LFE14-.LFB14
 15595 0080 00000000 		.4byte	0
 15596 0084 00000000 		.4byte	0
 15597              		.section	.debug_ranges,"",%progbits
 15598              	.Ldebug_ranges0:
 15599 0000 00000000 		.4byte	.LFB1
 15600 0004 0C000000 		.4byte	.LFE1
 15601 0008 00000000 		.4byte	.LFB2
 15602 000c 0E000000 		.4byte	.LFE2
 15603 0010 00000000 		.4byte	.LFB3
 15604 0014 0A000000 		.4byte	.LFE3
 15605 0018 00000000 		.4byte	.LFB4
 15606 001c 94000000 		.4byte	.LFE4
 15607 0020 00000000 		.4byte	.LFB5
 15608 0024 08000000 		.4byte	.LFE5
 15609 0028 00000000 		.4byte	.LFB6
 15610 002c 400B0000 		.4byte	.LFE6
 15611 0030 00000000 		.4byte	.LFB7
 15612 0034 08000000 		.4byte	.LFE7
 15613 0038 00000000 		.4byte	.LFB8
 15614 003c 90000000 		.4byte	.LFE8
 15615 0040 00000000 		.4byte	.LFB9
 15616 0044 08000000 		.4byte	.LFE9
 15617 0048 00000000 		.4byte	.LFB10
 15618 004c 38010000 		.4byte	.LFE10
 15619 0050 00000000 		.4byte	.LFB11
 15620 0054 08000000 		.4byte	.LFE11
 15621 0058 00000000 		.4byte	.LFB12
 15622 005c 42000000 		.4byte	.LFE12
 15623 0060 00000000 		.4byte	.LFB13
 15624 0064 08000000 		.4byte	.LFE13
 15625 0068 00000000 		.4byte	.LFB14
 15626 006c 44010000 		.4byte	.LFE14
 15627 0070 00000000 		.4byte	0
 15628 0074 00000000 		.4byte	0
 15629              		.section	.debug_line,"",%progbits
 15630              	.Ldebug_line0:
 15631 0000 FC040000 		.section	.debug_str,"MS",%progbits,1
 15631      02009802 
 15631      00000201 
 15631      FB0E0D00 
 15631      01010101 
 15632              	.LASF56:
 15633 0000 7072696E 		.ascii	"printf\000"
 15633      746600
 15634              	.LASF23:
 15635 0007 6D626564 		.ascii	"mbedtls_sha256_starts\000"
 15635      746C735F 
 15635      73686132 
 15635      35365F73 
 15635      74617274 
 15636              	.LASF36:
 15637 001d 6D626564 		.ascii	"mbedtls_sha256_finish_ret\000"
ARM GAS  C:\Users\Phuong\AppData\Local\Temp\ccuEFeTd.s 			page 286


 15637      746C735F 
 15637      73686132 
 15637      35365F66 
 15637      696E6973 
 15638              	.LASF10:
 15639 0037 73697A65 		.ascii	"size_t\000"
 15639      5F7400
 15640              	.LASF24:
 15641 003e 6D626564 		.ascii	"mbedtls_sha256_starts_ret\000"
 15641      746C735F 
 15641      73686132 
 15641      35365F73 
 15641      74617274 
 15642              	.LASF40:
 15643 0058 6D626564 		.ascii	"mbedtls_sha256_finish\000"
 15643      746C735F 
 15643      73686132 
 15643      35365F66 
 15643      696E6973 
 15644              	.LASF46:
 15645 006e 73686132 		.ascii	"sha256sum\000"
 15645      35367375 
 15645      6D00
 15646              	.LASF7:
 15647 0078 6C6F6E67 		.ascii	"long long unsigned int\000"
 15647      206C6F6E 
 15647      6720756E 
 15647      7369676E 
 15647      65642069 
 15648              	.LASF62:
 15649 008f 66726565 		.ascii	"free\000"
 15649      00
 15650              	.LASF6:
 15651 0094 6C6F6E67 		.ascii	"long long int\000"
 15651      206C6F6E 
 15651      6720696E 
 15651      7400
 15652              	.LASF0:
 15653 00a2 7369676E 		.ascii	"signed char\000"
 15653      65642063 
 15653      68617200 
 15654              	.LASF20:
 15655 00ae 6D626564 		.ascii	"mbedtls_sha256_init\000"
 15655      746C735F 
 15655      73686132 
 15655      35365F69 
 15655      6E697400 
 15656              	.LASF41:
 15657 00c2 6D626564 		.ascii	"mbedtls_sha256_ret\000"
 15657      746C735F 
 15657      73686132 
 15657      35365F72 
 15657      657400
 15658              	.LASF14:
 15659 00d5 73746174 		.ascii	"state\000"
 15659      6500
 15660              	.LASF4:
ARM GAS  C:\Users\Phuong\AppData\Local\Temp\ccuEFeTd.s 			page 287


 15661 00db 6C6F6E67 		.ascii	"long int\000"
 15661      20696E74 
 15661      00
 15662              	.LASF21:
 15663 00e4 6D626564 		.ascii	"mbedtls_sha256_free\000"
 15663      746C735F 
 15663      73686132 
 15663      35365F66 
 15663      72656500 
 15664              	.LASF65:
 15665 00f8 433A5C55 		.ascii	"C:\\Users\\Phuong\\Documents\\PSoC Creator\\Dec0820"
 15665      73657273 
 15665      5C506875 
 15665      6F6E675C 
 15665      446F6375 
 15666 0126 31385C69 		.ascii	"18\\iot-sdk-iot-dev\\PSOC6_FreeRTOS+LwIP+MbedTLS_Az"
 15666      6F742D73 
 15666      646B2D69 
 15666      6F742D64 
 15666      65765C50 
 15667 0157 7572652D 		.ascii	"ure-IOT-Hub-Demo\\PSOC6_FreeRTOS+LwIP+MbedTLS_Azure"
 15667      494F542D 
 15667      4875622D 
 15667      44656D6F 
 15667      5C50534F 
 15668 0189 2D494F54 		.ascii	"-IOT-Hub-Demo.cydsn\000"
 15668      2D487562 
 15668      2D44656D 
 15668      6F2E6379 
 15668      64736E00 
 15669              	.LASF60:
 15670 019d 5F5F6275 		.ascii	"__builtin_puts\000"
 15670      696C7469 
 15670      6E5F7075 
 15670      747300
 15671              	.LASF53:
 15672 01ac 6D656D63 		.ascii	"memcpy\000"
 15672      707900
 15673              	.LASF59:
 15674 01b3 70757463 		.ascii	"putchar\000"
 15674      68617200 
 15675              	.LASF9:
 15676 01bb 5F5F7569 		.ascii	"__uint32_t\000"
 15676      6E743332 
 15676      5F7400
 15677              	.LASF29:
 15678 01c6 6D626564 		.ascii	"mbedtls_sha256_process\000"
 15678      746C735F 
 15678      73686132 
 15678      35365F70 
 15678      726F6365 
 15679              	.LASF8:
 15680 01dd 756E7369 		.ascii	"unsigned int\000"
 15680      676E6564 
 15680      20696E74 
 15680      00
 15681              	.LASF5:
ARM GAS  C:\Users\Phuong\AppData\Local\Temp\ccuEFeTd.s 			page 288


 15682 01ea 6C6F6E67 		.ascii	"long unsigned int\000"
 15682      20756E73 
 15682      69676E65 
 15682      6420696E 
 15682      7400
 15683              	.LASF61:
 15684 01fc 5F5F6275 		.ascii	"__builtin_putchar\000"
 15684      696C7469 
 15684      6E5F7075 
 15684      74636861 
 15684      7200
 15685              	.LASF26:
 15686 020e 64617461 		.ascii	"data\000"
 15686      00
 15687              	.LASF3:
 15688 0213 73686F72 		.ascii	"short unsigned int\000"
 15688      7420756E 
 15688      7369676E 
 15688      65642069 
 15688      6E7400
 15689              	.LASF16:
 15690 0226 69733232 		.ascii	"is224\000"
 15690      3400
 15691              	.LASF13:
 15692 022c 746F7461 		.ascii	"total\000"
 15692      6C00
 15693              	.LASF37:
 15694 0232 6F757470 		.ascii	"output\000"
 15694      757400
 15695              	.LASF17:
 15696 0239 73697A65 		.ascii	"sizetype\000"
 15696      74797065 
 15696      00
 15697              	.LASF11:
 15698 0242 6C6F6E67 		.ascii	"long double\000"
 15698      20646F75 
 15698      626C6500 
 15699              	.LASF64:
 15700 024e 536F7572 		.ascii	"Source\\mbedtls_open\\library\\sha256.c\000"
 15700      63655C6D 
 15700      62656474 
 15700      6C735F6F 
 15700      70656E5C 
 15701              	.LASF51:
 15702 0273 73686132 		.ascii	"sha256_test_sum\000"
 15702      35365F74 
 15702      6573745F 
 15702      73756D00 
 15703              	.LASF38:
 15704 0283 75736564 		.ascii	"used\000"
 15704      00
 15705              	.LASF49:
 15706 0288 73686132 		.ascii	"sha256_test_buf\000"
 15706      35365F74 
 15706      6573745F 
 15706      62756600 
 15707              	.LASF1:
ARM GAS  C:\Users\Phuong\AppData\Local\Temp\ccuEFeTd.s 			page 289


 15708 0298 756E7369 		.ascii	"unsigned char\000"
 15708      676E6564 
 15708      20636861 
 15708      7200
 15709              	.LASF2:
 15710 02a6 73686F72 		.ascii	"short int\000"
 15710      7420696E 
 15710      7400
 15711              	.LASF52:
 15712 02b0 6D656D73 		.ascii	"memset\000"
 15712      657400
 15713              	.LASF27:
 15714 02b7 74656D70 		.ascii	"temp1\000"
 15714      3100
 15715              	.LASF28:
 15716 02bd 74656D70 		.ascii	"temp2\000"
 15716      3200
 15717              	.LASF33:
 15718 02c3 66696C6C 		.ascii	"fill\000"
 15718      00
 15719              	.LASF42:
 15720 02c8 6D626564 		.ascii	"mbedtls_sha256\000"
 15720      746C735F 
 15720      73686132 
 15720      353600
 15721              	.LASF30:
 15722 02d7 6D626564 		.ascii	"mbedtls_sha256_update_ret\000"
 15722      746C735F 
 15722      73686132 
 15722      35365F75 
 15722      70646174 
 15723              	.LASF45:
 15724 02f1 6275666C 		.ascii	"buflen\000"
 15724      656E00
 15725              	.LASF47:
 15726 02f8 65786974 		.ascii	"exit\000"
 15726      00
 15727              	.LASF31:
 15728 02fd 696E7075 		.ascii	"input\000"
 15728      7400
 15729              	.LASF12:
 15730 0303 75696E74 		.ascii	"uint32_t\000"
 15730      33325F74 
 15730      00
 15731              	.LASF48:
 15732 030c 6661696C 		.ascii	"fail\000"
 15732      00
 15733              	.LASF63:
 15734 0311 474E5520 		.ascii	"GNU C11 5.4.1 20160609 (release) [ARM/embedded-5-br"
 15734      43313120 
 15734      352E342E 
 15734      31203230 
 15734      31363036 
 15735 0344 616E6368 		.ascii	"anch revision 237715] -mcpu=cortex-m0plus -mthumb -"
 15735      20726576 
 15735      6973696F 
 15735      6E203233 
ARM GAS  C:\Users\Phuong\AppData\Local\Temp\ccuEFeTd.s 			page 290


 15735      37373135 
 15736 0377 67202D4F 		.ascii	"g -Og -ffunction-sections -ffat-lto-objects\000"
 15736      67202D66 
 15736      66756E63 
 15736      74696F6E 
 15736      2D736563 
 15737              	.LASF19:
 15738 03a3 63686172 		.ascii	"char\000"
 15738      00
 15739              	.LASF35:
 15740 03a8 6D626564 		.ascii	"mbedtls_sha256_update\000"
 15740      746C735F 
 15740      73686132 
 15740      35365F75 
 15740      70646174 
 15741              	.LASF54:
 15742 03be 6D626564 		.ascii	"mbedtls_platform_zeroize\000"
 15742      746C735F 
 15742      706C6174 
 15742      666F726D 
 15742      5F7A6572 
 15743              	.LASF44:
 15744 03d7 76657262 		.ascii	"verbose\000"
 15744      6F736500 
 15745              	.LASF15:
 15746 03df 62756666 		.ascii	"buffer\000"
 15746      657200
 15747              	.LASF39:
 15748 03e6 68696768 		.ascii	"high\000"
 15748      00
 15749              	.LASF57:
 15750 03eb 6D656D63 		.ascii	"memcmp\000"
 15750      6D7000
 15751              	.LASF18:
 15752 03f2 6D626564 		.ascii	"mbedtls_sha256_context\000"
 15752      746C735F 
 15752      73686132 
 15752      35365F63 
 15752      6F6E7465 
 15753              	.LASF25:
 15754 0409 6D626564 		.ascii	"mbedtls_internal_sha256_process\000"
 15754      746C735F 
 15754      696E7465 
 15754      726E616C 
 15754      5F736861 
 15755              	.LASF22:
 15756 0429 6D626564 		.ascii	"mbedtls_sha256_clone\000"
 15756      746C735F 
 15756      73686132 
 15756      35365F63 
 15756      6C6F6E65 
 15757              	.LASF50:
 15758 043e 73686132 		.ascii	"sha256_test_buflen\000"
 15758      35365F74 
 15758      6573745F 
 15758      6275666C 
 15758      656E00
ARM GAS  C:\Users\Phuong\AppData\Local\Temp\ccuEFeTd.s 			page 291


 15759              	.LASF55:
 15760 0451 63616C6C 		.ascii	"calloc\000"
 15760      6F6300
 15761              	.LASF32:
 15762 0458 696C656E 		.ascii	"ilen\000"
 15762      00
 15763              	.LASF43:
 15764 045d 6D626564 		.ascii	"mbedtls_sha256_self_test\000"
 15764      746C735F 
 15764      73686132 
 15764      35365F73 
 15764      656C665F 
 15765              	.LASF58:
 15766 0476 70757473 		.ascii	"puts\000"
 15766      00
 15767              	.LASF34:
 15768 047b 6C656674 		.ascii	"left\000"
 15768      00
 15769              		.ident	"GCC: (GNU Tools for ARM Embedded Processors) 5.4.1 20160609 (release) [ARM/embedded-5-bran
