ARM GAS  C:\Users\Phuong\AppData\Local\Temp\ccOJzSrt.s 			page 1


   1              		.syntax unified
   2              		.cpu cortex-m0plus
   3              		.fpu softvfp
   4              		.eabi_attribute 20, 1
   5              		.eabi_attribute 21, 1
   6              		.eabi_attribute 23, 3
   7              		.eabi_attribute 24, 1
   8              		.eabi_attribute 25, 1
   9              		.eabi_attribute 26, 1
  10              		.eabi_attribute 30, 1
  11              		.eabi_attribute 34, 0
  12              		.eabi_attribute 18, 4
  13              		.thumb
  14              		.syntax unified
  15              		.file	"sha384-512.c"
  16              		.text
  17              	.Ltext0:
  18              		.cfi_sections	.debug_frame
  19              		.section	.text.SHA384_512ProcessMessageBlock,"ax",%progbits
  20              		.align	2
  21              		.code	16
  22              		.thumb_func
  23              		.type	SHA384_512ProcessMessageBlock, %function
  24              	SHA384_512ProcessMessageBlock:
  25              	.LFB10:
  26              		.file 1 "Source\\azure_iot_sdk\\c-utility\\src\\sha384-512.c"
   1:Source\azure_iot_sdk\c-utility\src/sha384-512.c **** // Copyright (c) Microsoft. All rights reserved.
   2:Source\azure_iot_sdk\c-utility\src/sha384-512.c **** // Licensed under the MIT license. See LICENSE file in the project root for full license informatio
   3:Source\azure_iot_sdk\c-utility\src/sha384-512.c **** 
   4:Source\azure_iot_sdk\c-utility\src/sha384-512.c **** /*************************** sha384-512.c ***************************/
   5:Source\azure_iot_sdk\c-utility\src/sha384-512.c **** /********************* See RFC 4634 for details *********************/
   6:Source\azure_iot_sdk\c-utility\src/sha384-512.c **** /*
   7:Source\azure_iot_sdk\c-utility\src/sha384-512.c **** * Description:
   8:Source\azure_iot_sdk\c-utility\src/sha384-512.c **** *   This file implements the Secure Hash Signature Standard
   9:Source\azure_iot_sdk\c-utility\src/sha384-512.c **** *   algorithms as defined in the National Institute of Standards
  10:Source\azure_iot_sdk\c-utility\src/sha384-512.c **** *   and Technology Federal Information Processing Standards
  11:Source\azure_iot_sdk\c-utility\src/sha384-512.c **** *   Publication (FIPS PUB) 180-1 published on April 17, 1995, 180-2
  12:Source\azure_iot_sdk\c-utility\src/sha384-512.c **** *   published on August 1, 2002, and the FIPS PUB 180-2 Change
  13:Source\azure_iot_sdk\c-utility\src/sha384-512.c **** *   Notice published on February 28, 2004.
  14:Source\azure_iot_sdk\c-utility\src/sha384-512.c **** *
  15:Source\azure_iot_sdk\c-utility\src/sha384-512.c **** *   A combined document showing all algorithms is available at
  16:Source\azure_iot_sdk\c-utility\src/sha384-512.c **** *       http://csrc.nist.gov/publications/fips/
  17:Source\azure_iot_sdk\c-utility\src/sha384-512.c **** *       fips180-2/fips180-2withchangenotice.pdf
  18:Source\azure_iot_sdk\c-utility\src/sha384-512.c **** *
  19:Source\azure_iot_sdk\c-utility\src/sha384-512.c **** *   The SHA-384 and SHA-512 algorithms produce 384-bit and 512-bit
  20:Source\azure_iot_sdk\c-utility\src/sha384-512.c **** *   message digests for a given data stream. It should take about
  21:Source\azure_iot_sdk\c-utility\src/sha384-512.c **** *   2**n steps to find a message with the same digest as a given
  22:Source\azure_iot_sdk\c-utility\src/sha384-512.c **** *   message and 2**(n/2) to find any two messages with the same
  23:Source\azure_iot_sdk\c-utility\src/sha384-512.c **** *   digest, when n is the digest size in bits. Therefore, this
  24:Source\azure_iot_sdk\c-utility\src/sha384-512.c **** *   algorithm can serve as a means of providing a
  25:Source\azure_iot_sdk\c-utility\src/sha384-512.c **** *   "fingerprint" for a message.
  26:Source\azure_iot_sdk\c-utility\src/sha384-512.c **** *
  27:Source\azure_iot_sdk\c-utility\src/sha384-512.c **** * Portability Issues:
  28:Source\azure_iot_sdk\c-utility\src/sha384-512.c **** *   SHA-384 and SHA-512 are defined in terms of 64-bit "words",
  29:Source\azure_iot_sdk\c-utility\src/sha384-512.c **** *   but if USE_32BIT_ONLY is #defined, this code is implemented in
  30:Source\azure_iot_sdk\c-utility\src/sha384-512.c **** *   terms of 32-bit "words". This code uses <stdint.h> (included
  31:Source\azure_iot_sdk\c-utility\src/sha384-512.c **** *   via "sha.h") to define the 64, 32 and 8 bit unsigned integer
ARM GAS  C:\Users\Phuong\AppData\Local\Temp\ccOJzSrt.s 			page 2


  32:Source\azure_iot_sdk\c-utility\src/sha384-512.c **** *   types. If your C compiler does not support 64 bit unsigned
  33:Source\azure_iot_sdk\c-utility\src/sha384-512.c **** *   integers, and you do not #define USE_32BIT_ONLY, this code is
  34:Source\azure_iot_sdk\c-utility\src/sha384-512.c **** *   not appropriate.
  35:Source\azure_iot_sdk\c-utility\src/sha384-512.c **** *
  36:Source\azure_iot_sdk\c-utility\src/sha384-512.c **** * Caveats:
  37:Source\azure_iot_sdk\c-utility\src/sha384-512.c **** *   SHA-384 and SHA-512 are designed to work with messages less
  38:Source\azure_iot_sdk\c-utility\src/sha384-512.c **** *   than 2^128 bits long. This implementation uses
  39:Source\azure_iot_sdk\c-utility\src/sha384-512.c **** *   SHA384/512Input() to hash the bits that are a multiple of the
  40:Source\azure_iot_sdk\c-utility\src/sha384-512.c **** *   size of an 8-bit character, and then uses SHA384/256FinalBits()
  41:Source\azure_iot_sdk\c-utility\src/sha384-512.c **** *   to hash the final few bits of the input.
  42:Source\azure_iot_sdk\c-utility\src/sha384-512.c **** *
  43:Source\azure_iot_sdk\c-utility\src/sha384-512.c **** */
  44:Source\azure_iot_sdk\c-utility\src/sha384-512.c **** 
  45:Source\azure_iot_sdk\c-utility\src/sha384-512.c **** #include <stdlib.h>
  46:Source\azure_iot_sdk\c-utility\src/sha384-512.c **** #include "azure_c_shared_utility/gballoc.h"
  47:Source\azure_iot_sdk\c-utility\src/sha384-512.c **** 
  48:Source\azure_iot_sdk\c-utility\src/sha384-512.c **** #include "azure_c_shared_utility/sha.h"
  49:Source\azure_iot_sdk\c-utility\src/sha384-512.c **** #include "azure_c_shared_utility/sha-private.h"
  50:Source\azure_iot_sdk\c-utility\src/sha384-512.c **** 
  51:Source\azure_iot_sdk\c-utility\src/sha384-512.c **** #ifdef USE_32BIT_ONLY
  52:Source\azure_iot_sdk\c-utility\src/sha384-512.c **** #error IoTHubClient does not support USE_32BIT_ONLY flag
  53:Source\azure_iot_sdk\c-utility\src/sha384-512.c **** /*
  54:Source\azure_iot_sdk\c-utility\src/sha384-512.c **** * Define 64-bit arithmetic in terms of 32-bit arithmetic.
  55:Source\azure_iot_sdk\c-utility\src/sha384-512.c **** * Each 64-bit number is represented in a 2-word array.
  56:Source\azure_iot_sdk\c-utility\src/sha384-512.c **** * All macros are defined such that the result is the last parameter.
  57:Source\azure_iot_sdk\c-utility\src/sha384-512.c **** */
  58:Source\azure_iot_sdk\c-utility\src/sha384-512.c **** 
  59:Source\azure_iot_sdk\c-utility\src/sha384-512.c **** /*
  60:Source\azure_iot_sdk\c-utility\src/sha384-512.c **** * Define shift, rotate left and rotate right functions
  61:Source\azure_iot_sdk\c-utility\src/sha384-512.c **** */
  62:Source\azure_iot_sdk\c-utility\src/sha384-512.c **** #define SHA512_SHR(bits, word, ret) (                          \
  63:Source\azure_iot_sdk\c-utility\src/sha384-512.c ****     /* (((uint64_t)((word))) >> (bits)) */                     \
  64:Source\azure_iot_sdk\c-utility\src/sha384-512.c ****     (ret)[0] = (((bits) < 32) && ((bits) >= 0)) ?              \
  65:Source\azure_iot_sdk\c-utility\src/sha384-512.c ****       ((word)[0] >> (bits)) : 0,                               \
  66:Source\azure_iot_sdk\c-utility\src/sha384-512.c ****     (ret)[1] = ((bits) > 32) ? ((word)[0] >> ((bits) - 32)) :  \
  67:Source\azure_iot_sdk\c-utility\src/sha384-512.c ****       ((bits) == 32) ? (word)[0] :                             \
  68:Source\azure_iot_sdk\c-utility\src/sha384-512.c ****       ((bits) >= 0) ?                                          \
  69:Source\azure_iot_sdk\c-utility\src/sha384-512.c ****         (((word)[0] << (32 - (bits))) |                        \
  70:Source\azure_iot_sdk\c-utility\src/sha384-512.c ****         ((word)[1] >> (bits))) : 0 )
  71:Source\azure_iot_sdk\c-utility\src/sha384-512.c **** 
  72:Source\azure_iot_sdk\c-utility\src/sha384-512.c **** #define SHA512_SHL(bits, word, ret) (                          \
  73:Source\azure_iot_sdk\c-utility\src/sha384-512.c ****     /* (((uint64_t)(word)) << (bits)) */                       \
  74:Source\azure_iot_sdk\c-utility\src/sha384-512.c ****     (ret)[0] = ((bits) > 32) ? ((word)[1] << ((bits) - 32)) :  \
  75:Source\azure_iot_sdk\c-utility\src/sha384-512.c ****          ((bits) == 32) ? (word)[1] :                          \
  76:Source\azure_iot_sdk\c-utility\src/sha384-512.c ****          ((bits) >= 0) ?                                       \
  77:Source\azure_iot_sdk\c-utility\src/sha384-512.c ****            (((word)[0] << (bits)) |                            \
  78:Source\azure_iot_sdk\c-utility\src/sha384-512.c ****            ((word)[1] >> (32 - (bits)))) :                     \
  79:Source\azure_iot_sdk\c-utility\src/sha384-512.c **** 0, \
  80:Source\azure_iot_sdk\c-utility\src/sha384-512.c **** (ret)[1] = (((bits) < 32) && ((bits) >= 0)) ? \
  81:Source\azure_iot_sdk\c-utility\src/sha384-512.c **** ((word)[1] << (bits)) : 0)
  82:Source\azure_iot_sdk\c-utility\src/sha384-512.c **** 
  83:Source\azure_iot_sdk\c-utility\src/sha384-512.c **** /*
  84:Source\azure_iot_sdk\c-utility\src/sha384-512.c **** * Define 64-bit OR
  85:Source\azure_iot_sdk\c-utility\src/sha384-512.c **** */
  86:Source\azure_iot_sdk\c-utility\src/sha384-512.c **** #define SHA512_OR(word1, word2, ret) (                         \
  87:Source\azure_iot_sdk\c-utility\src/sha384-512.c ****     (ret)[0] = (word1)[0] | (word2)[0],                        \
  88:Source\azure_iot_sdk\c-utility\src/sha384-512.c ****     (ret)[1] = (word1)[1] | (word2)[1] )
ARM GAS  C:\Users\Phuong\AppData\Local\Temp\ccOJzSrt.s 			page 3


  89:Source\azure_iot_sdk\c-utility\src/sha384-512.c **** 
  90:Source\azure_iot_sdk\c-utility\src/sha384-512.c **** /*
  91:Source\azure_iot_sdk\c-utility\src/sha384-512.c **** * Define 64-bit XOR
  92:Source\azure_iot_sdk\c-utility\src/sha384-512.c **** */
  93:Source\azure_iot_sdk\c-utility\src/sha384-512.c **** #define SHA512_XOR(word1, word2, ret) (                        \
  94:Source\azure_iot_sdk\c-utility\src/sha384-512.c ****     (ret)[0] = (word1)[0] ^ (word2)[0],                        \
  95:Source\azure_iot_sdk\c-utility\src/sha384-512.c ****     (ret)[1] = (word1)[1] ^ (word2)[1] )
  96:Source\azure_iot_sdk\c-utility\src/sha384-512.c **** 
  97:Source\azure_iot_sdk\c-utility\src/sha384-512.c **** /*
  98:Source\azure_iot_sdk\c-utility\src/sha384-512.c **** * Define 64-bit AND
  99:Source\azure_iot_sdk\c-utility\src/sha384-512.c **** */
 100:Source\azure_iot_sdk\c-utility\src/sha384-512.c **** #define SHA512_AND(word1, word2, ret) (                        \
 101:Source\azure_iot_sdk\c-utility\src/sha384-512.c ****     (ret)[0] = (word1)[0] & (word2)[0],                        \
 102:Source\azure_iot_sdk\c-utility\src/sha384-512.c ****     (ret)[1] = (word1)[1] & (word2)[1] )
 103:Source\azure_iot_sdk\c-utility\src/sha384-512.c **** 
 104:Source\azure_iot_sdk\c-utility\src/sha384-512.c **** /*
 105:Source\azure_iot_sdk\c-utility\src/sha384-512.c **** * Define 64-bit TILDA
 106:Source\azure_iot_sdk\c-utility\src/sha384-512.c **** */
 107:Source\azure_iot_sdk\c-utility\src/sha384-512.c **** #define SHA512_TILDA(word, ret)                                \
 108:Source\azure_iot_sdk\c-utility\src/sha384-512.c ****   ( (ret)[0] = ~(word)[0], (ret)[1] = ~(word)[1] )
 109:Source\azure_iot_sdk\c-utility\src/sha384-512.c **** 
 110:Source\azure_iot_sdk\c-utility\src/sha384-512.c **** /*
 111:Source\azure_iot_sdk\c-utility\src/sha384-512.c **** * Define 64-bit ADD
 112:Source\azure_iot_sdk\c-utility\src/sha384-512.c **** */
 113:Source\azure_iot_sdk\c-utility\src/sha384-512.c **** #define SHA512_ADD(word1, word2, ret) (                        \
 114:Source\azure_iot_sdk\c-utility\src/sha384-512.c ****     (ret)[1] = (word1)[1], (ret)[1] += (word2)[1],             \
 115:Source\azure_iot_sdk\c-utility\src/sha384-512.c ****     (ret)[0] = (word1)[0] + (word2)[0] + ((ret)[1] < (word1)[1]) )
 116:Source\azure_iot_sdk\c-utility\src/sha384-512.c **** 
 117:Source\azure_iot_sdk\c-utility\src/sha384-512.c **** /*
 118:Source\azure_iot_sdk\c-utility\src/sha384-512.c **** * Add the 4word value in word2 to word1.
 119:Source\azure_iot_sdk\c-utility\src/sha384-512.c **** */
 120:Source\azure_iot_sdk\c-utility\src/sha384-512.c **** static uint32_t ADDTO4_temp, ADDTO4_temp2;
 121:Source\azure_iot_sdk\c-utility\src/sha384-512.c **** #define SHA512_ADDTO4(word1, word2) (                          \
 122:Source\azure_iot_sdk\c-utility\src/sha384-512.c ****     ADDTO4_temp = (word1)[3],                                  \
 123:Source\azure_iot_sdk\c-utility\src/sha384-512.c ****     (word1)[3] += (word2)[3],                                  \
 124:Source\azure_iot_sdk\c-utility\src/sha384-512.c ****     ADDTO4_temp2 = (word1)[2],                                 \
 125:Source\azure_iot_sdk\c-utility\src/sha384-512.c ****     (word1)[2] += (word2)[2] + ((word1)[3] < ADDTO4_temp),     \
 126:Source\azure_iot_sdk\c-utility\src/sha384-512.c ****     ADDTO4_temp = (word1)[1],                                  \
 127:Source\azure_iot_sdk\c-utility\src/sha384-512.c **** (word1)[1] += (word2)[1] + ((word1)[2] < ADDTO4_temp2), \
 128:Source\azure_iot_sdk\c-utility\src/sha384-512.c **** (word1)[0] += (word2)[0] + ((word1)[1] < ADDTO4_temp))
 129:Source\azure_iot_sdk\c-utility\src/sha384-512.c **** 
 130:Source\azure_iot_sdk\c-utility\src/sha384-512.c **** /*
 131:Source\azure_iot_sdk\c-utility\src/sha384-512.c **** * Add the 2word value in word2 to word1.
 132:Source\azure_iot_sdk\c-utility\src/sha384-512.c **** */
 133:Source\azure_iot_sdk\c-utility\src/sha384-512.c **** static uint32_t ADDTO2_temp;
 134:Source\azure_iot_sdk\c-utility\src/sha384-512.c **** #define SHA512_ADDTO2(word1, word2) (                          \
 135:Source\azure_iot_sdk\c-utility\src/sha384-512.c ****     ADDTO2_temp = (word1)[1],                                  \
 136:Source\azure_iot_sdk\c-utility\src/sha384-512.c ****     (word1)[1] += (word2)[1],                                  \
 137:Source\azure_iot_sdk\c-utility\src/sha384-512.c ****     (word1)[0] += (word2)[0] + ((word1)[1] < ADDTO2_temp) )
 138:Source\azure_iot_sdk\c-utility\src/sha384-512.c **** 
 139:Source\azure_iot_sdk\c-utility\src/sha384-512.c **** /*
 140:Source\azure_iot_sdk\c-utility\src/sha384-512.c **** * SHA rotate   ((word >> bits) | (word << (64-bits)))
 141:Source\azure_iot_sdk\c-utility\src/sha384-512.c **** */
 142:Source\azure_iot_sdk\c-utility\src/sha384-512.c **** static uint32_t ROTR_temp1[2], ROTR_temp2[2];
 143:Source\azure_iot_sdk\c-utility\src/sha384-512.c **** #define SHA512_ROTR(bits, word, ret) (                         \
 144:Source\azure_iot_sdk\c-utility\src/sha384-512.c ****     SHA512_SHR((bits), (word), ROTR_temp1),                    \
 145:Source\azure_iot_sdk\c-utility\src/sha384-512.c ****     SHA512_SHL(64-(bits), (word), ROTR_temp2),                 \
ARM GAS  C:\Users\Phuong\AppData\Local\Temp\ccOJzSrt.s 			page 4


 146:Source\azure_iot_sdk\c-utility\src/sha384-512.c ****     SHA512_OR(ROTR_temp1, ROTR_temp2, (ret)) )
 147:Source\azure_iot_sdk\c-utility\src/sha384-512.c **** 
 148:Source\azure_iot_sdk\c-utility\src/sha384-512.c **** /*
 149:Source\azure_iot_sdk\c-utility\src/sha384-512.c **** * Define the SHA SIGMA and sigma macros
 150:Source\azure_iot_sdk\c-utility\src/sha384-512.c **** *  SHA512_ROTR(28,word) ^ SHA512_ROTR(34,word) ^ SHA512_ROTR(39,word)
 151:Source\azure_iot_sdk\c-utility\src/sha384-512.c **** */
 152:Source\azure_iot_sdk\c-utility\src/sha384-512.c **** static uint32_t SIGMA0_temp1[2], SIGMA0_temp2[2],
 153:Source\azure_iot_sdk\c-utility\src/sha384-512.c **** SIGMA0_temp3[2], SIGMA0_temp4[2];
 154:Source\azure_iot_sdk\c-utility\src/sha384-512.c **** #define SHA512_SIGMA0(word, ret) (                             \
 155:Source\azure_iot_sdk\c-utility\src/sha384-512.c ****     SHA512_ROTR(28, (word), SIGMA0_temp1),                     \
 156:Source\azure_iot_sdk\c-utility\src/sha384-512.c ****     SHA512_ROTR(34, (word), SIGMA0_temp2),                     \
 157:Source\azure_iot_sdk\c-utility\src/sha384-512.c ****     SHA512_ROTR(39, (word), SIGMA0_temp3),                     \
 158:Source\azure_iot_sdk\c-utility\src/sha384-512.c ****     SHA512_XOR(SIGMA0_temp2, SIGMA0_temp3, SIGMA0_temp4),      \
 159:Source\azure_iot_sdk\c-utility\src/sha384-512.c ****     SHA512_XOR(SIGMA0_temp1, SIGMA0_temp4, (ret)) )
 160:Source\azure_iot_sdk\c-utility\src/sha384-512.c **** 
 161:Source\azure_iot_sdk\c-utility\src/sha384-512.c **** /*
 162:Source\azure_iot_sdk\c-utility\src/sha384-512.c **** * SHA512_ROTR(14,word) ^ SHA512_ROTR(18,word) ^ SHA512_ROTR(41,word)
 163:Source\azure_iot_sdk\c-utility\src/sha384-512.c **** */
 164:Source\azure_iot_sdk\c-utility\src/sha384-512.c **** static uint32_t SIGMA1_temp1[2], SIGMA1_temp2[2],
 165:Source\azure_iot_sdk\c-utility\src/sha384-512.c **** SIGMA1_temp3[2], SIGMA1_temp4[2];
 166:Source\azure_iot_sdk\c-utility\src/sha384-512.c **** #define SHA512_SIGMA1(word, ret) (                             \
 167:Source\azure_iot_sdk\c-utility\src/sha384-512.c ****     SHA512_ROTR(14, (word), SIGMA1_temp1),                     \
 168:Source\azure_iot_sdk\c-utility\src/sha384-512.c ****     SHA512_ROTR(18, (word), SIGMA1_temp2),                     \
 169:Source\azure_iot_sdk\c-utility\src/sha384-512.c ****     SHA512_ROTR(41, (word), SIGMA1_temp3),                     \
 170:Source\azure_iot_sdk\c-utility\src/sha384-512.c ****     SHA512_XOR(SIGMA1_temp2, SIGMA1_temp3, SIGMA1_temp4),      \
 171:Source\azure_iot_sdk\c-utility\src/sha384-512.c ****     SHA512_XOR(SIGMA1_temp1, SIGMA1_temp4, (ret)) )
 172:Source\azure_iot_sdk\c-utility\src/sha384-512.c **** 
 173:Source\azure_iot_sdk\c-utility\src/sha384-512.c **** /*
 174:Source\azure_iot_sdk\c-utility\src/sha384-512.c **** * (SHA512_ROTR( 1,word) ^ SHA512_ROTR( 8,word) ^ SHA512_SHR( 7,word))
 175:Source\azure_iot_sdk\c-utility\src/sha384-512.c **** */
 176:Source\azure_iot_sdk\c-utility\src/sha384-512.c **** static uint32_t sigma0_temp1[2], sigma0_temp2[2],
 177:Source\azure_iot_sdk\c-utility\src/sha384-512.c **** sigma0_temp3[2], sigma0_temp4[2];
 178:Source\azure_iot_sdk\c-utility\src/sha384-512.c **** #define SHA512_sigma0(word, ret) (                             \
 179:Source\azure_iot_sdk\c-utility\src/sha384-512.c ****     SHA512_ROTR( 1, (word), sigma0_temp1),                     \
 180:Source\azure_iot_sdk\c-utility\src/sha384-512.c ****     SHA512_ROTR( 8, (word), sigma0_temp2),                     \
 181:Source\azure_iot_sdk\c-utility\src/sha384-512.c ****     SHA512_SHR( 7, (word), sigma0_temp3),                      \
 182:Source\azure_iot_sdk\c-utility\src/sha384-512.c ****     SHA512_XOR(sigma0_temp2, sigma0_temp3, sigma0_temp4),      \
 183:Source\azure_iot_sdk\c-utility\src/sha384-512.c ****     SHA512_XOR(sigma0_temp1, sigma0_temp4, (ret)) )
 184:Source\azure_iot_sdk\c-utility\src/sha384-512.c **** 
 185:Source\azure_iot_sdk\c-utility\src/sha384-512.c **** /*
 186:Source\azure_iot_sdk\c-utility\src/sha384-512.c **** * (SHA512_ROTR(19,word) ^ SHA512_ROTR(61,word) ^ SHA512_SHR( 6,word))
 187:Source\azure_iot_sdk\c-utility\src/sha384-512.c **** */
 188:Source\azure_iot_sdk\c-utility\src/sha384-512.c **** static uint32_t sigma1_temp1[2], sigma1_temp2[2],
 189:Source\azure_iot_sdk\c-utility\src/sha384-512.c **** sigma1_temp3[2], sigma1_temp4[2];
 190:Source\azure_iot_sdk\c-utility\src/sha384-512.c **** #define SHA512_sigma1(word, ret) (                             \
 191:Source\azure_iot_sdk\c-utility\src/sha384-512.c ****     SHA512_ROTR(19, (word), sigma1_temp1),                     \
 192:Source\azure_iot_sdk\c-utility\src/sha384-512.c ****     SHA512_ROTR(61, (word), sigma1_temp2),                     \
 193:Source\azure_iot_sdk\c-utility\src/sha384-512.c ****     SHA512_SHR( 6, (word), sigma1_temp3),                      \
 194:Source\azure_iot_sdk\c-utility\src/sha384-512.c ****     SHA512_XOR(sigma1_temp2, sigma1_temp3, sigma1_temp4),      \
 195:Source\azure_iot_sdk\c-utility\src/sha384-512.c ****     SHA512_XOR(sigma1_temp1, sigma1_temp4, (ret)) )
 196:Source\azure_iot_sdk\c-utility\src/sha384-512.c **** 
 197:Source\azure_iot_sdk\c-utility\src/sha384-512.c **** #undef SHA_Ch
 198:Source\azure_iot_sdk\c-utility\src/sha384-512.c **** #undef SHA_Maj
 199:Source\azure_iot_sdk\c-utility\src/sha384-512.c **** 
 200:Source\azure_iot_sdk\c-utility\src/sha384-512.c **** #ifndef USE_MODIFIED_MACROS
 201:Source\azure_iot_sdk\c-utility\src/sha384-512.c **** /*
 202:Source\azure_iot_sdk\c-utility\src/sha384-512.c **** * These definitions are the ones used in FIPS-180-2, section 4.1.3
ARM GAS  C:\Users\Phuong\AppData\Local\Temp\ccOJzSrt.s 			page 5


 203:Source\azure_iot_sdk\c-utility\src/sha384-512.c **** *  Ch(x,y,z)   ((x & y) ^ (~x & z))
 204:Source\azure_iot_sdk\c-utility\src/sha384-512.c **** */
 205:Source\azure_iot_sdk\c-utility\src/sha384-512.c **** static uint32_t Ch_temp1[2], Ch_temp2[2], Ch_temp3[2];
 206:Source\azure_iot_sdk\c-utility\src/sha384-512.c **** #define SHA_Ch(x, y, z, ret) (                                 \
 207:Source\azure_iot_sdk\c-utility\src/sha384-512.c ****     SHA512_AND(x, y, Ch_temp1),                                \
 208:Source\azure_iot_sdk\c-utility\src/sha384-512.c ****     SHA512_TILDA(x, Ch_temp2),                                 \
 209:Source\azure_iot_sdk\c-utility\src/sha384-512.c ****     SHA512_AND(Ch_temp2, z, Ch_temp3),                         \
 210:Source\azure_iot_sdk\c-utility\src/sha384-512.c ****     SHA512_XOR(Ch_temp1, Ch_temp3, (ret)) )
 211:Source\azure_iot_sdk\c-utility\src/sha384-512.c **** /*
 212:Source\azure_iot_sdk\c-utility\src/sha384-512.c **** *  Maj(x,y,z)  (((x)&(y)) ^ ((x)&(z)) ^ ((y)&(z)))
 213:Source\azure_iot_sdk\c-utility\src/sha384-512.c **** */
 214:Source\azure_iot_sdk\c-utility\src/sha384-512.c **** static uint32_t Maj_temp1[2], Maj_temp2[2],
 215:Source\azure_iot_sdk\c-utility\src/sha384-512.c **** Maj_temp3[2], Maj_temp4[2];
 216:Source\azure_iot_sdk\c-utility\src/sha384-512.c **** #define SHA_Maj(x, y, z, ret) (                                \
 217:Source\azure_iot_sdk\c-utility\src/sha384-512.c ****     SHA512_AND(x, y, Maj_temp1),                               \
 218:Source\azure_iot_sdk\c-utility\src/sha384-512.c ****     SHA512_AND(x, z, Maj_temp2),                               \
 219:Source\azure_iot_sdk\c-utility\src/sha384-512.c ****     SHA512_AND(y, z, Maj_temp3),                               \
 220:Source\azure_iot_sdk\c-utility\src/sha384-512.c ****     SHA512_XOR(Maj_temp2, Maj_temp3, Maj_temp4),               \
 221:Source\azure_iot_sdk\c-utility\src/sha384-512.c ****     SHA512_XOR(Maj_temp1, Maj_temp4, (ret)) )
 222:Source\azure_iot_sdk\c-utility\src/sha384-512.c **** 
 223:Source\azure_iot_sdk\c-utility\src/sha384-512.c **** #else /* !USE_32BIT_ONLY */
 224:Source\azure_iot_sdk\c-utility\src/sha384-512.c **** /*
 225:Source\azure_iot_sdk\c-utility\src/sha384-512.c **** * These definitions are potentially faster equivalents for the ones
 226:Source\azure_iot_sdk\c-utility\src/sha384-512.c **** * used in FIPS-180-2, section 4.1.3.
 227:Source\azure_iot_sdk\c-utility\src/sha384-512.c **** *   ((x & y) ^ (~x & z)) becomes
 228:Source\azure_iot_sdk\c-utility\src/sha384-512.c **** *   ((x & (y ^ z)) ^ z)
 229:Source\azure_iot_sdk\c-utility\src/sha384-512.c **** */
 230:Source\azure_iot_sdk\c-utility\src/sha384-512.c **** #define SHA_Ch(x, y, z, ret) (                                 \
 231:Source\azure_iot_sdk\c-utility\src/sha384-512.c ****    (ret)[0] = (((x)[0] & ((y)[0] ^ (z)[0])) ^ (z)[0]),         \
 232:Source\azure_iot_sdk\c-utility\src/sha384-512.c ****    (ret)[1] = (((x)[1] & ((y)[1] ^ (z)[1])) ^ (z)[1]) )
 233:Source\azure_iot_sdk\c-utility\src/sha384-512.c **** 
 234:Source\azure_iot_sdk\c-utility\src/sha384-512.c **** /*
 235:Source\azure_iot_sdk\c-utility\src/sha384-512.c **** *   ((x & y) ^ (x & z) ^ (y & z)) becomes
 236:Source\azure_iot_sdk\c-utility\src/sha384-512.c **** *   ((x & (y | z)) | (y & z))
 237:Source\azure_iot_sdk\c-utility\src/sha384-512.c **** */
 238:Source\azure_iot_sdk\c-utility\src/sha384-512.c **** #define SHA_Maj(x, y, z, ret) (                                 \
 239:Source\azure_iot_sdk\c-utility\src/sha384-512.c ****    ret[0] = (((x)[0] & ((y)[0] | (z)[0])) | ((y)[0] & (z)[0])), \
 240:Source\azure_iot_sdk\c-utility\src/sha384-512.c ****    ret[1] = (((x)[1] & ((y)[1] | (z)[1])) | ((y)[1] & (z)[1])) )
 241:Source\azure_iot_sdk\c-utility\src/sha384-512.c **** #endif /* USE_MODIFIED_MACROS */
 242:Source\azure_iot_sdk\c-utility\src/sha384-512.c **** 
 243:Source\azure_iot_sdk\c-utility\src/sha384-512.c **** /*
 244:Source\azure_iot_sdk\c-utility\src/sha384-512.c **** * add "length" to the length
 245:Source\azure_iot_sdk\c-utility\src/sha384-512.c **** */
 246:Source\azure_iot_sdk\c-utility\src/sha384-512.c **** static uint32_t addTemp[4] = { 0, 0, 0, 0 };
 247:Source\azure_iot_sdk\c-utility\src/sha384-512.c **** #define SHA384_512AddLength(context, length) (                        \
 248:Source\azure_iot_sdk\c-utility\src/sha384-512.c ****     addTemp[3] = (length), SHA512_ADDTO4((context)->Length, addTemp), \
 249:Source\azure_iot_sdk\c-utility\src/sha384-512.c ****     (context)->Corrupted = (((context)->Length[3] == 0) &&            \
 250:Source\azure_iot_sdk\c-utility\src/sha384-512.c ****        ((context)->Length[2] == 0) && ((context)->Length[1] == 0) &&  \
 251:Source\azure_iot_sdk\c-utility\src/sha384-512.c ****        ((context)->Length[0] < 8)) ? 1 : 0 )
 252:Source\azure_iot_sdk\c-utility\src/sha384-512.c **** 
 253:Source\azure_iot_sdk\c-utility\src/sha384-512.c **** /* Local Function Prototypes */
 254:Source\azure_iot_sdk\c-utility\src/sha384-512.c **** static void SHA384_512Finalize(SHA512Context *context,
 255:Source\azure_iot_sdk\c-utility\src/sha384-512.c ****     uint8_t Pad_Byte);
 256:Source\azure_iot_sdk\c-utility\src/sha384-512.c **** static void SHA384_512PadMessage(SHA512Context *context,
 257:Source\azure_iot_sdk\c-utility\src/sha384-512.c ****     uint8_t Pad_Byte);
 258:Source\azure_iot_sdk\c-utility\src/sha384-512.c **** static void SHA384_512ProcessMessageBlock(SHA512Context *context);
 259:Source\azure_iot_sdk\c-utility\src/sha384-512.c **** static int SHA384_512Reset(SHA512Context *context, uint32_t H0[]);
ARM GAS  C:\Users\Phuong\AppData\Local\Temp\ccOJzSrt.s 			page 6


 260:Source\azure_iot_sdk\c-utility\src/sha384-512.c **** static int SHA384_512ResultN(SHA512Context *context,
 261:Source\azure_iot_sdk\c-utility\src/sha384-512.c ****     uint8_t Message_Digest[], int HashSize);
 262:Source\azure_iot_sdk\c-utility\src/sha384-512.c **** 
 263:Source\azure_iot_sdk\c-utility\src/sha384-512.c **** /* Initial Hash Values: FIPS-180-2 sections 5.3.3 and 5.3.4 */
 264:Source\azure_iot_sdk\c-utility\src/sha384-512.c **** static uint32_t SHA384_H0[SHA512HashSize / 4] = {
 265:Source\azure_iot_sdk\c-utility\src/sha384-512.c ****     0xCBBB9D5D, 0xC1059ED8, 0x629A292A, 0x367CD507, 0x9159015A,
 266:Source\azure_iot_sdk\c-utility\src/sha384-512.c ****     0x3070DD17, 0x152FECD8, 0xF70E5939, 0x67332667, 0xFFC00B31,
 267:Source\azure_iot_sdk\c-utility\src/sha384-512.c ****     0x8EB44A87, 0x68581511, 0xDB0C2E0D, 0x64F98FA7, 0x47B5481D,
 268:Source\azure_iot_sdk\c-utility\src/sha384-512.c ****     0xBEFA4FA4
 269:Source\azure_iot_sdk\c-utility\src/sha384-512.c **** };
 270:Source\azure_iot_sdk\c-utility\src/sha384-512.c **** 
 271:Source\azure_iot_sdk\c-utility\src/sha384-512.c **** static uint32_t SHA512_H0[SHA512HashSize / 4] = {
 272:Source\azure_iot_sdk\c-utility\src/sha384-512.c ****     0x6A09E667, 0xF3BCC908, 0xBB67AE85, 0x84CAA73B, 0x3C6EF372,
 273:Source\azure_iot_sdk\c-utility\src/sha384-512.c ****     0xFE94F82B, 0xA54FF53A, 0x5F1D36F1, 0x510E527F, 0xADE682D1,
 274:Source\azure_iot_sdk\c-utility\src/sha384-512.c ****     0x9B05688C, 0x2B3E6C1F, 0x1F83D9AB, 0xFB41BD6B, 0x5BE0CD19,
 275:Source\azure_iot_sdk\c-utility\src/sha384-512.c ****     0x137E2179
 276:Source\azure_iot_sdk\c-utility\src/sha384-512.c **** };
 277:Source\azure_iot_sdk\c-utility\src/sha384-512.c **** 
 278:Source\azure_iot_sdk\c-utility\src/sha384-512.c **** #else /* !USE_32BIT_ONLY */
 279:Source\azure_iot_sdk\c-utility\src/sha384-512.c **** 
 280:Source\azure_iot_sdk\c-utility\src/sha384-512.c **** /* Define the SHA shift, rotate left and rotate right macro */
 281:Source\azure_iot_sdk\c-utility\src/sha384-512.c **** #define SHA512_SHR(bits,word)  (((uint64_t)(word)) >> (bits))
 282:Source\azure_iot_sdk\c-utility\src/sha384-512.c **** #define SHA512_ROTR(bits,word) ((((uint64_t)(word)) >> (bits)) | \
 283:Source\azure_iot_sdk\c-utility\src/sha384-512.c ****                                 (((uint64_t)(word)) << (64-(bits))))
 284:Source\azure_iot_sdk\c-utility\src/sha384-512.c **** 
 285:Source\azure_iot_sdk\c-utility\src/sha384-512.c **** /* Define the SHA SIGMA and sigma macros */
 286:Source\azure_iot_sdk\c-utility\src/sha384-512.c **** #define SHA512_SIGMA0(word)   \
 287:Source\azure_iot_sdk\c-utility\src/sha384-512.c ****  (SHA512_ROTR(28,word) ^ SHA512_ROTR(34,word) ^ SHA512_ROTR(39,word))
 288:Source\azure_iot_sdk\c-utility\src/sha384-512.c **** #define SHA512_SIGMA1(word)   \
 289:Source\azure_iot_sdk\c-utility\src/sha384-512.c ****  (SHA512_ROTR(14,word) ^ SHA512_ROTR(18,word) ^ SHA512_ROTR(41,word))
 290:Source\azure_iot_sdk\c-utility\src/sha384-512.c **** #define SHA512_sigma0(word)   \
 291:Source\azure_iot_sdk\c-utility\src/sha384-512.c ****  (SHA512_ROTR( 1,word) ^ SHA512_ROTR( 8,word) ^ SHA512_SHR( 7,word))
 292:Source\azure_iot_sdk\c-utility\src/sha384-512.c **** #define SHA512_sigma1(word)   \
 293:Source\azure_iot_sdk\c-utility\src/sha384-512.c ****  (SHA512_ROTR(19,word) ^ SHA512_ROTR(61,word) ^ SHA512_SHR( 6,word))
 294:Source\azure_iot_sdk\c-utility\src/sha384-512.c **** 
 295:Source\azure_iot_sdk\c-utility\src/sha384-512.c **** /*
 296:Source\azure_iot_sdk\c-utility\src/sha384-512.c **** * add "length" to the length
 297:Source\azure_iot_sdk\c-utility\src/sha384-512.c **** */
 298:Source\azure_iot_sdk\c-utility\src/sha384-512.c **** #define SHA384_512AddLength(context, length)                   \
 299:Source\azure_iot_sdk\c-utility\src/sha384-512.c ****    (addTemp = context->Length_Low, context->Corrupted =        \
 300:Source\azure_iot_sdk\c-utility\src/sha384-512.c ****     ((context->Length_Low += length) < addTemp) &&             \
 301:Source\azure_iot_sdk\c-utility\src/sha384-512.c ****     (++context->Length_High == 0) ? 1 : 0)
 302:Source\azure_iot_sdk\c-utility\src/sha384-512.c **** 
 303:Source\azure_iot_sdk\c-utility\src/sha384-512.c **** /* Local Function Prototypes */
 304:Source\azure_iot_sdk\c-utility\src/sha384-512.c **** static void SHA384_512Finalize(SHA512Context *context,
 305:Source\azure_iot_sdk\c-utility\src/sha384-512.c ****     uint8_t Pad_Byte);
 306:Source\azure_iot_sdk\c-utility\src/sha384-512.c **** static void SHA384_512PadMessage(SHA512Context *context,
 307:Source\azure_iot_sdk\c-utility\src/sha384-512.c ****     uint8_t Pad_Byte);
 308:Source\azure_iot_sdk\c-utility\src/sha384-512.c **** static void SHA384_512ProcessMessageBlock(SHA512Context *context);
 309:Source\azure_iot_sdk\c-utility\src/sha384-512.c **** static int SHA384_512Reset(SHA512Context *context, uint64_t H0[]);
 310:Source\azure_iot_sdk\c-utility\src/sha384-512.c **** static int SHA384_512ResultN(SHA512Context *context,
 311:Source\azure_iot_sdk\c-utility\src/sha384-512.c ****     uint8_t Message_Digest[], int HashSize);
 312:Source\azure_iot_sdk\c-utility\src/sha384-512.c **** 
 313:Source\azure_iot_sdk\c-utility\src/sha384-512.c **** /* Initial Hash Values: FIPS-180-2 sections 5.3.3 and 5.3.4 */
 314:Source\azure_iot_sdk\c-utility\src/sha384-512.c **** static uint64_t SHA384_H0[] = {
 315:Source\azure_iot_sdk\c-utility\src/sha384-512.c ****     0xCBBB9D5DC1059ED8ull, 0x629A292A367CD507ull, 0x9159015A3070DD17ull,
 316:Source\azure_iot_sdk\c-utility\src/sha384-512.c ****     0x152FECD8F70E5939ull, 0x67332667FFC00B31ull, 0x8EB44A8768581511ull,
ARM GAS  C:\Users\Phuong\AppData\Local\Temp\ccOJzSrt.s 			page 7


 317:Source\azure_iot_sdk\c-utility\src/sha384-512.c ****     0xDB0C2E0D64F98FA7ull, 0x47B5481DBEFA4FA4ull
 318:Source\azure_iot_sdk\c-utility\src/sha384-512.c **** };
 319:Source\azure_iot_sdk\c-utility\src/sha384-512.c **** static uint64_t SHA512_H0[] = {
 320:Source\azure_iot_sdk\c-utility\src/sha384-512.c ****     0x6A09E667F3BCC908ull, 0xBB67AE8584CAA73Bull, 0x3C6EF372FE94F82Bull,
 321:Source\azure_iot_sdk\c-utility\src/sha384-512.c ****     0xA54FF53A5F1D36F1ull, 0x510E527FADE682D1ull, 0x9B05688C2B3E6C1Full,
 322:Source\azure_iot_sdk\c-utility\src/sha384-512.c ****     0x1F83D9ABFB41BD6Bull, 0x5BE0CD19137E2179ull
 323:Source\azure_iot_sdk\c-utility\src/sha384-512.c **** };
 324:Source\azure_iot_sdk\c-utility\src/sha384-512.c **** 
 325:Source\azure_iot_sdk\c-utility\src/sha384-512.c **** #endif /* USE_32BIT_ONLY */
 326:Source\azure_iot_sdk\c-utility\src/sha384-512.c **** 
 327:Source\azure_iot_sdk\c-utility\src/sha384-512.c **** /*
 328:Source\azure_iot_sdk\c-utility\src/sha384-512.c **** * SHA384Reset
 329:Source\azure_iot_sdk\c-utility\src/sha384-512.c **** *
 330:Source\azure_iot_sdk\c-utility\src/sha384-512.c **** * Description:
 331:Source\azure_iot_sdk\c-utility\src/sha384-512.c **** *   This function will initialize the SHA384Context in preparation
 332:Source\azure_iot_sdk\c-utility\src/sha384-512.c **** *   for computing a new SHA384 message digest.
 333:Source\azure_iot_sdk\c-utility\src/sha384-512.c **** *
 334:Source\azure_iot_sdk\c-utility\src/sha384-512.c **** * Parameters:
 335:Source\azure_iot_sdk\c-utility\src/sha384-512.c **** *   context: [in/out]
 336:Source\azure_iot_sdk\c-utility\src/sha384-512.c **** *     The context to reset.
 337:Source\azure_iot_sdk\c-utility\src/sha384-512.c **** *
 338:Source\azure_iot_sdk\c-utility\src/sha384-512.c **** * Returns:
 339:Source\azure_iot_sdk\c-utility\src/sha384-512.c **** *   sha Error Code.
 340:Source\azure_iot_sdk\c-utility\src/sha384-512.c **** *
 341:Source\azure_iot_sdk\c-utility\src/sha384-512.c **** */
 342:Source\azure_iot_sdk\c-utility\src/sha384-512.c **** int SHA384Reset(SHA384Context *context)
 343:Source\azure_iot_sdk\c-utility\src/sha384-512.c **** {
 344:Source\azure_iot_sdk\c-utility\src/sha384-512.c ****     return SHA384_512Reset(context, SHA384_H0);
 345:Source\azure_iot_sdk\c-utility\src/sha384-512.c **** }
 346:Source\azure_iot_sdk\c-utility\src/sha384-512.c **** 
 347:Source\azure_iot_sdk\c-utility\src/sha384-512.c **** /*
 348:Source\azure_iot_sdk\c-utility\src/sha384-512.c **** * SHA384Input
 349:Source\azure_iot_sdk\c-utility\src/sha384-512.c **** *
 350:Source\azure_iot_sdk\c-utility\src/sha384-512.c **** * Description:
 351:Source\azure_iot_sdk\c-utility\src/sha384-512.c **** *   This function accepts an array of octets as the next portion
 352:Source\azure_iot_sdk\c-utility\src/sha384-512.c **** *   of the message.
 353:Source\azure_iot_sdk\c-utility\src/sha384-512.c **** *
 354:Source\azure_iot_sdk\c-utility\src/sha384-512.c **** * Parameters:
 355:Source\azure_iot_sdk\c-utility\src/sha384-512.c **** *   context: [in/out]
 356:Source\azure_iot_sdk\c-utility\src/sha384-512.c **** *     The SHA context to update
 357:Source\azure_iot_sdk\c-utility\src/sha384-512.c **** *   message_array: [in]
 358:Source\azure_iot_sdk\c-utility\src/sha384-512.c **** *     An array of characters representing the next portion of
 359:Source\azure_iot_sdk\c-utility\src/sha384-512.c **** *     the message.
 360:Source\azure_iot_sdk\c-utility\src/sha384-512.c **** *   length: [in]
 361:Source\azure_iot_sdk\c-utility\src/sha384-512.c **** *     The length of the message in message_array
 362:Source\azure_iot_sdk\c-utility\src/sha384-512.c **** *
 363:Source\azure_iot_sdk\c-utility\src/sha384-512.c **** * Returns:
 364:Source\azure_iot_sdk\c-utility\src/sha384-512.c **** *   sha Error Code.
 365:Source\azure_iot_sdk\c-utility\src/sha384-512.c **** *
 366:Source\azure_iot_sdk\c-utility\src/sha384-512.c **** */
 367:Source\azure_iot_sdk\c-utility\src/sha384-512.c **** int SHA384Input(SHA384Context *context,
 368:Source\azure_iot_sdk\c-utility\src/sha384-512.c ****     const uint8_t *message_array, unsigned int length)
 369:Source\azure_iot_sdk\c-utility\src/sha384-512.c **** {
 370:Source\azure_iot_sdk\c-utility\src/sha384-512.c ****     return SHA512Input(context, message_array, length);
 371:Source\azure_iot_sdk\c-utility\src/sha384-512.c **** }
 372:Source\azure_iot_sdk\c-utility\src/sha384-512.c **** 
 373:Source\azure_iot_sdk\c-utility\src/sha384-512.c **** /*
ARM GAS  C:\Users\Phuong\AppData\Local\Temp\ccOJzSrt.s 			page 8


 374:Source\azure_iot_sdk\c-utility\src/sha384-512.c **** * SHA384FinalBits
 375:Source\azure_iot_sdk\c-utility\src/sha384-512.c **** *
 376:Source\azure_iot_sdk\c-utility\src/sha384-512.c **** * Description:
 377:Source\azure_iot_sdk\c-utility\src/sha384-512.c **** *   This function will add in any final bits of the message.
 378:Source\azure_iot_sdk\c-utility\src/sha384-512.c **** *
 379:Source\azure_iot_sdk\c-utility\src/sha384-512.c **** * Parameters:
 380:Source\azure_iot_sdk\c-utility\src/sha384-512.c **** *   context: [in/out]
 381:Source\azure_iot_sdk\c-utility\src/sha384-512.c **** *     The SHA context to update
 382:Source\azure_iot_sdk\c-utility\src/sha384-512.c **** *   message_bits: [in]
 383:Source\azure_iot_sdk\c-utility\src/sha384-512.c **** *     The final bits of the message, in the upper portion of the
 384:Source\azure_iot_sdk\c-utility\src/sha384-512.c **** *     byte. (Use 0b###00000 instead of 0b00000### to input the
 385:Source\azure_iot_sdk\c-utility\src/sha384-512.c **** *     three bits ###.)
 386:Source\azure_iot_sdk\c-utility\src/sha384-512.c **** *   length: [in]
 387:Source\azure_iot_sdk\c-utility\src/sha384-512.c **** *     The number of bits in message_bits, between 1 and 7.
 388:Source\azure_iot_sdk\c-utility\src/sha384-512.c **** *
 389:Source\azure_iot_sdk\c-utility\src/sha384-512.c **** * Returns:
 390:Source\azure_iot_sdk\c-utility\src/sha384-512.c **** *   sha Error Code.
 391:Source\azure_iot_sdk\c-utility\src/sha384-512.c **** *
 392:Source\azure_iot_sdk\c-utility\src/sha384-512.c **** */
 393:Source\azure_iot_sdk\c-utility\src/sha384-512.c **** int SHA384FinalBits(SHA384Context *context,
 394:Source\azure_iot_sdk\c-utility\src/sha384-512.c ****     const uint8_t message_bits, unsigned int length)
 395:Source\azure_iot_sdk\c-utility\src/sha384-512.c **** {
 396:Source\azure_iot_sdk\c-utility\src/sha384-512.c ****     return SHA512FinalBits(context, message_bits, length);
 397:Source\azure_iot_sdk\c-utility\src/sha384-512.c **** }
 398:Source\azure_iot_sdk\c-utility\src/sha384-512.c **** 
 399:Source\azure_iot_sdk\c-utility\src/sha384-512.c **** /*
 400:Source\azure_iot_sdk\c-utility\src/sha384-512.c **** * SHA384Result
 401:Source\azure_iot_sdk\c-utility\src/sha384-512.c **** *
 402:Source\azure_iot_sdk\c-utility\src/sha384-512.c **** * Description:
 403:Source\azure_iot_sdk\c-utility\src/sha384-512.c **** *   This function will return the 384-bit message
 404:Source\azure_iot_sdk\c-utility\src/sha384-512.c **** *   digest into the Message_Digest array provided by the caller.
 405:Source\azure_iot_sdk\c-utility\src/sha384-512.c **** *   NOTE: The first octet of hash is stored in the 0th element,
 406:Source\azure_iot_sdk\c-utility\src/sha384-512.c **** *      the last octet of hash in the 48th element.
 407:Source\azure_iot_sdk\c-utility\src/sha384-512.c **** *
 408:Source\azure_iot_sdk\c-utility\src/sha384-512.c **** * Parameters:
 409:Source\azure_iot_sdk\c-utility\src/sha384-512.c **** *   context: [in/out]
 410:Source\azure_iot_sdk\c-utility\src/sha384-512.c **** *     The context to use to calculate the SHA hash.
 411:Source\azure_iot_sdk\c-utility\src/sha384-512.c **** *   Message_Digest: [out]
 412:Source\azure_iot_sdk\c-utility\src/sha384-512.c **** *     Where the digest is returned.
 413:Source\azure_iot_sdk\c-utility\src/sha384-512.c **** *
 414:Source\azure_iot_sdk\c-utility\src/sha384-512.c **** * Returns:
 415:Source\azure_iot_sdk\c-utility\src/sha384-512.c **** *   sha Error Code.
 416:Source\azure_iot_sdk\c-utility\src/sha384-512.c **** *
 417:Source\azure_iot_sdk\c-utility\src/sha384-512.c **** */
 418:Source\azure_iot_sdk\c-utility\src/sha384-512.c **** int SHA384Result(SHA384Context *context,
 419:Source\azure_iot_sdk\c-utility\src/sha384-512.c ****     uint8_t Message_Digest[SHA384HashSize])
 420:Source\azure_iot_sdk\c-utility\src/sha384-512.c **** {
 421:Source\azure_iot_sdk\c-utility\src/sha384-512.c ****     return SHA384_512ResultN(context, Message_Digest, SHA384HashSize);
 422:Source\azure_iot_sdk\c-utility\src/sha384-512.c **** }
 423:Source\azure_iot_sdk\c-utility\src/sha384-512.c **** 
 424:Source\azure_iot_sdk\c-utility\src/sha384-512.c **** /*
 425:Source\azure_iot_sdk\c-utility\src/sha384-512.c **** * SHA512Reset
 426:Source\azure_iot_sdk\c-utility\src/sha384-512.c **** *
 427:Source\azure_iot_sdk\c-utility\src/sha384-512.c **** * Description:
 428:Source\azure_iot_sdk\c-utility\src/sha384-512.c **** *   This function will initialize the SHA512Context in preparation
 429:Source\azure_iot_sdk\c-utility\src/sha384-512.c **** *   for computing a new SHA512 message digest.
 430:Source\azure_iot_sdk\c-utility\src/sha384-512.c **** *
ARM GAS  C:\Users\Phuong\AppData\Local\Temp\ccOJzSrt.s 			page 9


 431:Source\azure_iot_sdk\c-utility\src/sha384-512.c **** * Parameters:
 432:Source\azure_iot_sdk\c-utility\src/sha384-512.c **** *   context: [in/out]
 433:Source\azure_iot_sdk\c-utility\src/sha384-512.c **** *     The context to reset.
 434:Source\azure_iot_sdk\c-utility\src/sha384-512.c **** *
 435:Source\azure_iot_sdk\c-utility\src/sha384-512.c **** * Returns:
 436:Source\azure_iot_sdk\c-utility\src/sha384-512.c **** *   sha Error Code.
 437:Source\azure_iot_sdk\c-utility\src/sha384-512.c **** *
 438:Source\azure_iot_sdk\c-utility\src/sha384-512.c **** */
 439:Source\azure_iot_sdk\c-utility\src/sha384-512.c **** int SHA512Reset(SHA512Context *context)
 440:Source\azure_iot_sdk\c-utility\src/sha384-512.c **** {
 441:Source\azure_iot_sdk\c-utility\src/sha384-512.c ****     return SHA384_512Reset(context, SHA512_H0);
 442:Source\azure_iot_sdk\c-utility\src/sha384-512.c **** }
 443:Source\azure_iot_sdk\c-utility\src/sha384-512.c **** 
 444:Source\azure_iot_sdk\c-utility\src/sha384-512.c **** /*
 445:Source\azure_iot_sdk\c-utility\src/sha384-512.c **** * SHA512Input
 446:Source\azure_iot_sdk\c-utility\src/sha384-512.c **** *
 447:Source\azure_iot_sdk\c-utility\src/sha384-512.c **** * Description:
 448:Source\azure_iot_sdk\c-utility\src/sha384-512.c **** *   This function accepts an array of octets as the next portion
 449:Source\azure_iot_sdk\c-utility\src/sha384-512.c **** *   of the message.
 450:Source\azure_iot_sdk\c-utility\src/sha384-512.c **** *
 451:Source\azure_iot_sdk\c-utility\src/sha384-512.c **** * Parameters:
 452:Source\azure_iot_sdk\c-utility\src/sha384-512.c **** *   context: [in/out]
 453:Source\azure_iot_sdk\c-utility\src/sha384-512.c **** *     The SHA context to update
 454:Source\azure_iot_sdk\c-utility\src/sha384-512.c **** *   message_array: [in]
 455:Source\azure_iot_sdk\c-utility\src/sha384-512.c **** *     An array of characters representing the next portion of
 456:Source\azure_iot_sdk\c-utility\src/sha384-512.c **** *     the message.
 457:Source\azure_iot_sdk\c-utility\src/sha384-512.c **** *   length: [in]
 458:Source\azure_iot_sdk\c-utility\src/sha384-512.c **** *     The length of the message in message_array
 459:Source\azure_iot_sdk\c-utility\src/sha384-512.c **** *
 460:Source\azure_iot_sdk\c-utility\src/sha384-512.c **** * Returns:
 461:Source\azure_iot_sdk\c-utility\src/sha384-512.c **** *   sha Error Code.
 462:Source\azure_iot_sdk\c-utility\src/sha384-512.c **** *
 463:Source\azure_iot_sdk\c-utility\src/sha384-512.c **** */
 464:Source\azure_iot_sdk\c-utility\src/sha384-512.c **** int SHA512Input(SHA512Context *context,
 465:Source\azure_iot_sdk\c-utility\src/sha384-512.c ****     const uint8_t *message_array,
 466:Source\azure_iot_sdk\c-utility\src/sha384-512.c ****     unsigned int length)
 467:Source\azure_iot_sdk\c-utility\src/sha384-512.c **** {
 468:Source\azure_iot_sdk\c-utility\src/sha384-512.c ****     uint64_t addTemp;
 469:Source\azure_iot_sdk\c-utility\src/sha384-512.c ****     if (!length)
 470:Source\azure_iot_sdk\c-utility\src/sha384-512.c ****         return shaSuccess;
 471:Source\azure_iot_sdk\c-utility\src/sha384-512.c **** 
 472:Source\azure_iot_sdk\c-utility\src/sha384-512.c ****     if (!context || !message_array)
 473:Source\azure_iot_sdk\c-utility\src/sha384-512.c ****         return shaNull;
 474:Source\azure_iot_sdk\c-utility\src/sha384-512.c **** 
 475:Source\azure_iot_sdk\c-utility\src/sha384-512.c ****     if (context->Computed) {
 476:Source\azure_iot_sdk\c-utility\src/sha384-512.c ****         context->Corrupted = shaStateError;
 477:Source\azure_iot_sdk\c-utility\src/sha384-512.c ****         return shaStateError;
 478:Source\azure_iot_sdk\c-utility\src/sha384-512.c ****     }
 479:Source\azure_iot_sdk\c-utility\src/sha384-512.c **** 
 480:Source\azure_iot_sdk\c-utility\src/sha384-512.c ****     if (context->Corrupted)
 481:Source\azure_iot_sdk\c-utility\src/sha384-512.c ****         return context->Corrupted;
 482:Source\azure_iot_sdk\c-utility\src/sha384-512.c **** 
 483:Source\azure_iot_sdk\c-utility\src/sha384-512.c ****     while (length-- && !context->Corrupted) {
 484:Source\azure_iot_sdk\c-utility\src/sha384-512.c ****         context->Message_Block[context->Message_Block_Index++] =
 485:Source\azure_iot_sdk\c-utility\src/sha384-512.c ****             (*message_array & 0xFF);
 486:Source\azure_iot_sdk\c-utility\src/sha384-512.c **** 
 487:Source\azure_iot_sdk\c-utility\src/sha384-512.c ****         if (!SHA384_512AddLength(context, 8) &&
ARM GAS  C:\Users\Phuong\AppData\Local\Temp\ccOJzSrt.s 			page 10


 488:Source\azure_iot_sdk\c-utility\src/sha384-512.c ****             (context->Message_Block_Index == SHA512_Message_Block_Size))
 489:Source\azure_iot_sdk\c-utility\src/sha384-512.c ****             SHA384_512ProcessMessageBlock(context);
 490:Source\azure_iot_sdk\c-utility\src/sha384-512.c **** 
 491:Source\azure_iot_sdk\c-utility\src/sha384-512.c ****         message_array++;
 492:Source\azure_iot_sdk\c-utility\src/sha384-512.c ****     }
 493:Source\azure_iot_sdk\c-utility\src/sha384-512.c **** 
 494:Source\azure_iot_sdk\c-utility\src/sha384-512.c ****     return shaSuccess;
 495:Source\azure_iot_sdk\c-utility\src/sha384-512.c **** }
 496:Source\azure_iot_sdk\c-utility\src/sha384-512.c **** 
 497:Source\azure_iot_sdk\c-utility\src/sha384-512.c **** /*
 498:Source\azure_iot_sdk\c-utility\src/sha384-512.c **** * SHA512FinalBits
 499:Source\azure_iot_sdk\c-utility\src/sha384-512.c **** *
 500:Source\azure_iot_sdk\c-utility\src/sha384-512.c **** * Description:
 501:Source\azure_iot_sdk\c-utility\src/sha384-512.c **** *   This function will add in any final bits of the message.
 502:Source\azure_iot_sdk\c-utility\src/sha384-512.c **** *
 503:Source\azure_iot_sdk\c-utility\src/sha384-512.c **** * Parameters:
 504:Source\azure_iot_sdk\c-utility\src/sha384-512.c **** *   context: [in/out]
 505:Source\azure_iot_sdk\c-utility\src/sha384-512.c **** *     The SHA context to update
 506:Source\azure_iot_sdk\c-utility\src/sha384-512.c **** *   message_bits: [in]
 507:Source\azure_iot_sdk\c-utility\src/sha384-512.c **** *     The final bits of the message, in the upper portion of the
 508:Source\azure_iot_sdk\c-utility\src/sha384-512.c **** *     byte. (Use 0b###00000 instead of 0b00000### to input the
 509:Source\azure_iot_sdk\c-utility\src/sha384-512.c **** *     three bits ###.)
 510:Source\azure_iot_sdk\c-utility\src/sha384-512.c **** *   length: [in]
 511:Source\azure_iot_sdk\c-utility\src/sha384-512.c **** *     The number of bits in message_bits, between 1 and 7.
 512:Source\azure_iot_sdk\c-utility\src/sha384-512.c **** *
 513:Source\azure_iot_sdk\c-utility\src/sha384-512.c **** * Returns:
 514:Source\azure_iot_sdk\c-utility\src/sha384-512.c **** *   sha Error Code.
 515:Source\azure_iot_sdk\c-utility\src/sha384-512.c **** *
 516:Source\azure_iot_sdk\c-utility\src/sha384-512.c **** */
 517:Source\azure_iot_sdk\c-utility\src/sha384-512.c **** int SHA512FinalBits(SHA512Context *context,
 518:Source\azure_iot_sdk\c-utility\src/sha384-512.c ****     const uint8_t message_bits, unsigned int length)
 519:Source\azure_iot_sdk\c-utility\src/sha384-512.c **** {
 520:Source\azure_iot_sdk\c-utility\src/sha384-512.c ****     uint64_t addTemp;
 521:Source\azure_iot_sdk\c-utility\src/sha384-512.c ****     uint8_t masks[8] = {
 522:Source\azure_iot_sdk\c-utility\src/sha384-512.c ****         /* 0 0b00000000 */ 0x00, /* 1 0b10000000 */ 0x80,
 523:Source\azure_iot_sdk\c-utility\src/sha384-512.c ****         /* 2 0b11000000 */ 0xC0, /* 3 0b11100000 */ 0xE0,
 524:Source\azure_iot_sdk\c-utility\src/sha384-512.c ****         /* 4 0b11110000 */ 0xF0, /* 5 0b11111000 */ 0xF8,
 525:Source\azure_iot_sdk\c-utility\src/sha384-512.c ****         /* 6 0b11111100 */ 0xFC, /* 7 0b11111110 */ 0xFE
 526:Source\azure_iot_sdk\c-utility\src/sha384-512.c ****     };
 527:Source\azure_iot_sdk\c-utility\src/sha384-512.c ****     uint8_t markbit[8] = {
 528:Source\azure_iot_sdk\c-utility\src/sha384-512.c ****         /* 0 0b10000000 */ 0x80, /* 1 0b01000000 */ 0x40,
 529:Source\azure_iot_sdk\c-utility\src/sha384-512.c ****         /* 2 0b00100000 */ 0x20, /* 3 0b00010000 */ 0x10,
 530:Source\azure_iot_sdk\c-utility\src/sha384-512.c ****         /* 4 0b00001000 */ 0x08, /* 5 0b00000100 */ 0x04,
 531:Source\azure_iot_sdk\c-utility\src/sha384-512.c ****         /* 6 0b00000010 */ 0x02, /* 7 0b00000001 */ 0x01
 532:Source\azure_iot_sdk\c-utility\src/sha384-512.c ****     };
 533:Source\azure_iot_sdk\c-utility\src/sha384-512.c **** 
 534:Source\azure_iot_sdk\c-utility\src/sha384-512.c ****     if (!length)
 535:Source\azure_iot_sdk\c-utility\src/sha384-512.c ****         return shaSuccess;
 536:Source\azure_iot_sdk\c-utility\src/sha384-512.c **** 
 537:Source\azure_iot_sdk\c-utility\src/sha384-512.c ****     if (!context)
 538:Source\azure_iot_sdk\c-utility\src/sha384-512.c ****         return shaNull;
 539:Source\azure_iot_sdk\c-utility\src/sha384-512.c **** 
 540:Source\azure_iot_sdk\c-utility\src/sha384-512.c ****     if ((context->Computed) || (length >= 8) || (length == 0)) {
 541:Source\azure_iot_sdk\c-utility\src/sha384-512.c ****         context->Corrupted = shaStateError;
 542:Source\azure_iot_sdk\c-utility\src/sha384-512.c ****         return shaStateError;
 543:Source\azure_iot_sdk\c-utility\src/sha384-512.c ****     }
 544:Source\azure_iot_sdk\c-utility\src/sha384-512.c **** 
ARM GAS  C:\Users\Phuong\AppData\Local\Temp\ccOJzSrt.s 			page 11


 545:Source\azure_iot_sdk\c-utility\src/sha384-512.c ****     if (context->Corrupted)
 546:Source\azure_iot_sdk\c-utility\src/sha384-512.c ****         return context->Corrupted;
 547:Source\azure_iot_sdk\c-utility\src/sha384-512.c **** 
 548:Source\azure_iot_sdk\c-utility\src/sha384-512.c ****     SHA384_512AddLength(context, length);
 549:Source\azure_iot_sdk\c-utility\src/sha384-512.c ****     SHA384_512Finalize(context, (uint8_t)
 550:Source\azure_iot_sdk\c-utility\src/sha384-512.c ****         ((message_bits & masks[length]) | markbit[length]));
 551:Source\azure_iot_sdk\c-utility\src/sha384-512.c **** 
 552:Source\azure_iot_sdk\c-utility\src/sha384-512.c ****     return shaSuccess;
 553:Source\azure_iot_sdk\c-utility\src/sha384-512.c **** }
 554:Source\azure_iot_sdk\c-utility\src/sha384-512.c **** 
 555:Source\azure_iot_sdk\c-utility\src/sha384-512.c **** /*
 556:Source\azure_iot_sdk\c-utility\src/sha384-512.c **** * SHA384_512Finalize
 557:Source\azure_iot_sdk\c-utility\src/sha384-512.c **** *
 558:Source\azure_iot_sdk\c-utility\src/sha384-512.c **** * Description:
 559:Source\azure_iot_sdk\c-utility\src/sha384-512.c **** *   This helper function finishes off the digest calculations.
 560:Source\azure_iot_sdk\c-utility\src/sha384-512.c **** *
 561:Source\azure_iot_sdk\c-utility\src/sha384-512.c **** * Parameters:
 562:Source\azure_iot_sdk\c-utility\src/sha384-512.c **** *   context: [in/out]
 563:Source\azure_iot_sdk\c-utility\src/sha384-512.c **** *     The SHA context to update
 564:Source\azure_iot_sdk\c-utility\src/sha384-512.c **** *   Pad_Byte: [in]
 565:Source\azure_iot_sdk\c-utility\src/sha384-512.c **** *     The last byte to add to the digest before the 0-padding
 566:Source\azure_iot_sdk\c-utility\src/sha384-512.c **** *     and length. This will contain the last bits of the message
 567:Source\azure_iot_sdk\c-utility\src/sha384-512.c **** *     followed by another single bit. If the message was an
 568:Source\azure_iot_sdk\c-utility\src/sha384-512.c **** *     exact multiple of 8-bits long, Pad_Byte will be 0x80.
 569:Source\azure_iot_sdk\c-utility\src/sha384-512.c **** *
 570:Source\azure_iot_sdk\c-utility\src/sha384-512.c **** * Returns:
 571:Source\azure_iot_sdk\c-utility\src/sha384-512.c **** *   sha Error Code.
 572:Source\azure_iot_sdk\c-utility\src/sha384-512.c **** *
 573:Source\azure_iot_sdk\c-utility\src/sha384-512.c **** */
 574:Source\azure_iot_sdk\c-utility\src/sha384-512.c **** static void SHA384_512Finalize(SHA512Context *context,
 575:Source\azure_iot_sdk\c-utility\src/sha384-512.c ****     uint8_t Pad_Byte)
 576:Source\azure_iot_sdk\c-utility\src/sha384-512.c **** {
 577:Source\azure_iot_sdk\c-utility\src/sha384-512.c ****     int_least16_t i;
 578:Source\azure_iot_sdk\c-utility\src/sha384-512.c ****     SHA384_512PadMessage(context, Pad_Byte);
 579:Source\azure_iot_sdk\c-utility\src/sha384-512.c ****     /* message may be sensitive, clear it out */
 580:Source\azure_iot_sdk\c-utility\src/sha384-512.c ****     for (i = 0; i < SHA512_Message_Block_Size; ++i)
 581:Source\azure_iot_sdk\c-utility\src/sha384-512.c ****         context->Message_Block[i] = 0;
 582:Source\azure_iot_sdk\c-utility\src/sha384-512.c **** #ifdef USE_32BIT_ONLY    /* and clear length */
 583:Source\azure_iot_sdk\c-utility\src/sha384-512.c ****     context->Length[0] = context->Length[1] = 0;
 584:Source\azure_iot_sdk\c-utility\src/sha384-512.c ****     context->Length[2] = context->Length[3] = 0;
 585:Source\azure_iot_sdk\c-utility\src/sha384-512.c **** #else /* !USE_32BIT_ONLY */
 586:Source\azure_iot_sdk\c-utility\src/sha384-512.c ****     context->Length_Low = 0;
 587:Source\azure_iot_sdk\c-utility\src/sha384-512.c ****     context->Length_High = 0;
 588:Source\azure_iot_sdk\c-utility\src/sha384-512.c **** #endif /* USE_32BIT_ONLY */
 589:Source\azure_iot_sdk\c-utility\src/sha384-512.c ****     context->Computed = 1;
 590:Source\azure_iot_sdk\c-utility\src/sha384-512.c **** }
 591:Source\azure_iot_sdk\c-utility\src/sha384-512.c **** 
 592:Source\azure_iot_sdk\c-utility\src/sha384-512.c **** /*
 593:Source\azure_iot_sdk\c-utility\src/sha384-512.c **** * SHA512Result
 594:Source\azure_iot_sdk\c-utility\src/sha384-512.c **** *
 595:Source\azure_iot_sdk\c-utility\src/sha384-512.c **** * Description:
 596:Source\azure_iot_sdk\c-utility\src/sha384-512.c **** *   This function will return the 512-bit message
 597:Source\azure_iot_sdk\c-utility\src/sha384-512.c **** *   digest into the Message_Digest array provided by the caller.
 598:Source\azure_iot_sdk\c-utility\src/sha384-512.c **** *   NOTE: The first octet of hash is stored in the 0th element,
 599:Source\azure_iot_sdk\c-utility\src/sha384-512.c **** *      the last octet of hash in the 64th element.
 600:Source\azure_iot_sdk\c-utility\src/sha384-512.c **** *
 601:Source\azure_iot_sdk\c-utility\src/sha384-512.c **** * Parameters:
ARM GAS  C:\Users\Phuong\AppData\Local\Temp\ccOJzSrt.s 			page 12


 602:Source\azure_iot_sdk\c-utility\src/sha384-512.c **** *   context: [in/out]
 603:Source\azure_iot_sdk\c-utility\src/sha384-512.c **** *     The context to use to calculate the SHA hash.
 604:Source\azure_iot_sdk\c-utility\src/sha384-512.c **** *   Message_Digest: [out]
 605:Source\azure_iot_sdk\c-utility\src/sha384-512.c **** *     Where the digest is returned.
 606:Source\azure_iot_sdk\c-utility\src/sha384-512.c **** *
 607:Source\azure_iot_sdk\c-utility\src/sha384-512.c **** * Returns:
 608:Source\azure_iot_sdk\c-utility\src/sha384-512.c **** *   sha Error Code.
 609:Source\azure_iot_sdk\c-utility\src/sha384-512.c **** *
 610:Source\azure_iot_sdk\c-utility\src/sha384-512.c **** */
 611:Source\azure_iot_sdk\c-utility\src/sha384-512.c **** int SHA512Result(SHA512Context *context,
 612:Source\azure_iot_sdk\c-utility\src/sha384-512.c ****     uint8_t Message_Digest[SHA512HashSize])
 613:Source\azure_iot_sdk\c-utility\src/sha384-512.c **** {
 614:Source\azure_iot_sdk\c-utility\src/sha384-512.c ****     return SHA384_512ResultN(context, Message_Digest, SHA512HashSize);
 615:Source\azure_iot_sdk\c-utility\src/sha384-512.c **** }
 616:Source\azure_iot_sdk\c-utility\src/sha384-512.c **** 
 617:Source\azure_iot_sdk\c-utility\src/sha384-512.c **** /*
 618:Source\azure_iot_sdk\c-utility\src/sha384-512.c **** * SHA384_512PadMessage
 619:Source\azure_iot_sdk\c-utility\src/sha384-512.c **** *
 620:Source\azure_iot_sdk\c-utility\src/sha384-512.c **** * Description:
 621:Source\azure_iot_sdk\c-utility\src/sha384-512.c **** *   According to the standard, the message must be padded to an
 622:Source\azure_iot_sdk\c-utility\src/sha384-512.c **** *   even 1024 bits. The first padding bit must be a '1'. The
 623:Source\azure_iot_sdk\c-utility\src/sha384-512.c **** *   last 128 bits represent the length of the original message.
 624:Source\azure_iot_sdk\c-utility\src/sha384-512.c **** *   All bits in between should be 0. This helper function will
 625:Source\azure_iot_sdk\c-utility\src/sha384-512.c **** *   pad the message according to those rules by filling the
 626:Source\azure_iot_sdk\c-utility\src/sha384-512.c **** *   Message_Block array accordingly. When it returns, it can be
 627:Source\azure_iot_sdk\c-utility\src/sha384-512.c **** *   assumed that the message digest has been computed.
 628:Source\azure_iot_sdk\c-utility\src/sha384-512.c **** *
 629:Source\azure_iot_sdk\c-utility\src/sha384-512.c **** * Parameters:
 630:Source\azure_iot_sdk\c-utility\src/sha384-512.c **** *   context: [in/out]
 631:Source\azure_iot_sdk\c-utility\src/sha384-512.c **** *     The context to pad
 632:Source\azure_iot_sdk\c-utility\src/sha384-512.c **** *   Pad_Byte: [in]
 633:Source\azure_iot_sdk\c-utility\src/sha384-512.c **** *     The last byte to add to the digest before the 0-padding
 634:Source\azure_iot_sdk\c-utility\src/sha384-512.c **** *     and length. This will contain the last bits of the message
 635:Source\azure_iot_sdk\c-utility\src/sha384-512.c **** *     followed by another single bit. If the message was an
 636:Source\azure_iot_sdk\c-utility\src/sha384-512.c **** *     exact multiple of 8-bits long, Pad_Byte will be 0x80.
 637:Source\azure_iot_sdk\c-utility\src/sha384-512.c **** *
 638:Source\azure_iot_sdk\c-utility\src/sha384-512.c **** * Returns:
 639:Source\azure_iot_sdk\c-utility\src/sha384-512.c **** *   Nothing.
 640:Source\azure_iot_sdk\c-utility\src/sha384-512.c **** *
 641:Source\azure_iot_sdk\c-utility\src/sha384-512.c **** */
 642:Source\azure_iot_sdk\c-utility\src/sha384-512.c **** static void SHA384_512PadMessage(SHA512Context *context,
 643:Source\azure_iot_sdk\c-utility\src/sha384-512.c ****     uint8_t Pad_Byte)
 644:Source\azure_iot_sdk\c-utility\src/sha384-512.c **** {
 645:Source\azure_iot_sdk\c-utility\src/sha384-512.c ****     /*
 646:Source\azure_iot_sdk\c-utility\src/sha384-512.c ****     * Check to see if the current message block is too small to hold
 647:Source\azure_iot_sdk\c-utility\src/sha384-512.c ****     * the initial padding bits and length. If so, we will pad the
 648:Source\azure_iot_sdk\c-utility\src/sha384-512.c ****     * block, process it, and then continue padding into a second
 649:Source\azure_iot_sdk\c-utility\src/sha384-512.c ****     * block.
 650:Source\azure_iot_sdk\c-utility\src/sha384-512.c ****     */
 651:Source\azure_iot_sdk\c-utility\src/sha384-512.c ****     if (context->Message_Block_Index >= (SHA512_Message_Block_Size - 16)) {
 652:Source\azure_iot_sdk\c-utility\src/sha384-512.c ****         context->Message_Block[context->Message_Block_Index++] = Pad_Byte;
 653:Source\azure_iot_sdk\c-utility\src/sha384-512.c ****         while (context->Message_Block_Index < SHA512_Message_Block_Size)
 654:Source\azure_iot_sdk\c-utility\src/sha384-512.c ****             context->Message_Block[context->Message_Block_Index++] = 0;
 655:Source\azure_iot_sdk\c-utility\src/sha384-512.c **** 
 656:Source\azure_iot_sdk\c-utility\src/sha384-512.c ****         SHA384_512ProcessMessageBlock(context);
 657:Source\azure_iot_sdk\c-utility\src/sha384-512.c ****     }
 658:Source\azure_iot_sdk\c-utility\src/sha384-512.c ****     else
ARM GAS  C:\Users\Phuong\AppData\Local\Temp\ccOJzSrt.s 			page 13


 659:Source\azure_iot_sdk\c-utility\src/sha384-512.c ****         context->Message_Block[context->Message_Block_Index++] = Pad_Byte;
 660:Source\azure_iot_sdk\c-utility\src/sha384-512.c **** 
 661:Source\azure_iot_sdk\c-utility\src/sha384-512.c ****     while (context->Message_Block_Index < (SHA512_Message_Block_Size - 16))
 662:Source\azure_iot_sdk\c-utility\src/sha384-512.c ****         context->Message_Block[context->Message_Block_Index++] = 0;
 663:Source\azure_iot_sdk\c-utility\src/sha384-512.c **** 
 664:Source\azure_iot_sdk\c-utility\src/sha384-512.c ****     /*
 665:Source\azure_iot_sdk\c-utility\src/sha384-512.c ****     * Store the message length as the last 16 octets
 666:Source\azure_iot_sdk\c-utility\src/sha384-512.c ****     */
 667:Source\azure_iot_sdk\c-utility\src/sha384-512.c **** #ifdef USE_32BIT_ONLY
 668:Source\azure_iot_sdk\c-utility\src/sha384-512.c ****     context->Message_Block[112] = (uint8_t)(context->Length[0] >> 24);
 669:Source\azure_iot_sdk\c-utility\src/sha384-512.c ****     context->Message_Block[113] = (uint8_t)(context->Length[0] >> 16);
 670:Source\azure_iot_sdk\c-utility\src/sha384-512.c ****     context->Message_Block[114] = (uint8_t)(context->Length[0] >> 8);
 671:Source\azure_iot_sdk\c-utility\src/sha384-512.c ****     context->Message_Block[115] = (uint8_t)(context->Length[0]);
 672:Source\azure_iot_sdk\c-utility\src/sha384-512.c ****     context->Message_Block[116] = (uint8_t)(context->Length[1] >> 24);
 673:Source\azure_iot_sdk\c-utility\src/sha384-512.c ****     context->Message_Block[117] = (uint8_t)(context->Length[1] >> 16);
 674:Source\azure_iot_sdk\c-utility\src/sha384-512.c ****     context->Message_Block[118] = (uint8_t)(context->Length[1] >> 8);
 675:Source\azure_iot_sdk\c-utility\src/sha384-512.c ****     context->Message_Block[119] = (uint8_t)(context->Length[1]);
 676:Source\azure_iot_sdk\c-utility\src/sha384-512.c **** 
 677:Source\azure_iot_sdk\c-utility\src/sha384-512.c ****     context->Message_Block[120] = (uint8_t)(context->Length[2] >> 24);
 678:Source\azure_iot_sdk\c-utility\src/sha384-512.c ****     context->Message_Block[121] = (uint8_t)(context->Length[2] >> 16);
 679:Source\azure_iot_sdk\c-utility\src/sha384-512.c ****     context->Message_Block[122] = (uint8_t)(context->Length[2] >> 8);
 680:Source\azure_iot_sdk\c-utility\src/sha384-512.c ****     context->Message_Block[123] = (uint8_t)(context->Length[2]);
 681:Source\azure_iot_sdk\c-utility\src/sha384-512.c ****     context->Message_Block[124] = (uint8_t)(context->Length[3] >> 24);
 682:Source\azure_iot_sdk\c-utility\src/sha384-512.c ****     context->Message_Block[125] = (uint8_t)(context->Length[3] >> 16);
 683:Source\azure_iot_sdk\c-utility\src/sha384-512.c ****     context->Message_Block[126] = (uint8_t)(context->Length[3] >> 8);
 684:Source\azure_iot_sdk\c-utility\src/sha384-512.c ****     context->Message_Block[127] = (uint8_t)(context->Length[3]);
 685:Source\azure_iot_sdk\c-utility\src/sha384-512.c **** #else /* !USE_32BIT_ONLY */
 686:Source\azure_iot_sdk\c-utility\src/sha384-512.c ****     context->Message_Block[112] = (uint8_t)(context->Length_High >> 56);
 687:Source\azure_iot_sdk\c-utility\src/sha384-512.c ****     context->Message_Block[113] = (uint8_t)(context->Length_High >> 48);
 688:Source\azure_iot_sdk\c-utility\src/sha384-512.c ****     context->Message_Block[114] = (uint8_t)(context->Length_High >> 40);
 689:Source\azure_iot_sdk\c-utility\src/sha384-512.c ****     context->Message_Block[115] = (uint8_t)(context->Length_High >> 32);
 690:Source\azure_iot_sdk\c-utility\src/sha384-512.c ****     context->Message_Block[116] = (uint8_t)(context->Length_High >> 24);
 691:Source\azure_iot_sdk\c-utility\src/sha384-512.c ****     context->Message_Block[117] = (uint8_t)(context->Length_High >> 16);
 692:Source\azure_iot_sdk\c-utility\src/sha384-512.c ****     context->Message_Block[118] = (uint8_t)(context->Length_High >> 8);
 693:Source\azure_iot_sdk\c-utility\src/sha384-512.c ****     context->Message_Block[119] = (uint8_t)(context->Length_High);
 694:Source\azure_iot_sdk\c-utility\src/sha384-512.c **** 
 695:Source\azure_iot_sdk\c-utility\src/sha384-512.c ****     context->Message_Block[120] = (uint8_t)(context->Length_Low >> 56);
 696:Source\azure_iot_sdk\c-utility\src/sha384-512.c ****     context->Message_Block[121] = (uint8_t)(context->Length_Low >> 48);
 697:Source\azure_iot_sdk\c-utility\src/sha384-512.c ****     context->Message_Block[122] = (uint8_t)(context->Length_Low >> 40);
 698:Source\azure_iot_sdk\c-utility\src/sha384-512.c ****     context->Message_Block[123] = (uint8_t)(context->Length_Low >> 32);
 699:Source\azure_iot_sdk\c-utility\src/sha384-512.c ****     context->Message_Block[124] = (uint8_t)(context->Length_Low >> 24);
 700:Source\azure_iot_sdk\c-utility\src/sha384-512.c ****     context->Message_Block[125] = (uint8_t)(context->Length_Low >> 16);
 701:Source\azure_iot_sdk\c-utility\src/sha384-512.c ****     context->Message_Block[126] = (uint8_t)(context->Length_Low >> 8);
 702:Source\azure_iot_sdk\c-utility\src/sha384-512.c ****     context->Message_Block[127] = (uint8_t)(context->Length_Low);
 703:Source\azure_iot_sdk\c-utility\src/sha384-512.c **** #endif /* USE_32BIT_ONLY */
 704:Source\azure_iot_sdk\c-utility\src/sha384-512.c **** 
 705:Source\azure_iot_sdk\c-utility\src/sha384-512.c ****     SHA384_512ProcessMessageBlock(context);
 706:Source\azure_iot_sdk\c-utility\src/sha384-512.c **** }
 707:Source\azure_iot_sdk\c-utility\src/sha384-512.c **** 
 708:Source\azure_iot_sdk\c-utility\src/sha384-512.c **** /*
 709:Source\azure_iot_sdk\c-utility\src/sha384-512.c **** * SHA384_512ProcessMessageBlock
 710:Source\azure_iot_sdk\c-utility\src/sha384-512.c **** *
 711:Source\azure_iot_sdk\c-utility\src/sha384-512.c **** * Description:
 712:Source\azure_iot_sdk\c-utility\src/sha384-512.c **** *   This helper function will process the next 1024 bits of the
 713:Source\azure_iot_sdk\c-utility\src/sha384-512.c **** *   message stored in the Message_Block array.
 714:Source\azure_iot_sdk\c-utility\src/sha384-512.c **** *
 715:Source\azure_iot_sdk\c-utility\src/sha384-512.c **** * Parameters:
ARM GAS  C:\Users\Phuong\AppData\Local\Temp\ccOJzSrt.s 			page 14


 716:Source\azure_iot_sdk\c-utility\src/sha384-512.c **** *   context: [in/out]
 717:Source\azure_iot_sdk\c-utility\src/sha384-512.c **** *     The SHA context to update
 718:Source\azure_iot_sdk\c-utility\src/sha384-512.c **** *
 719:Source\azure_iot_sdk\c-utility\src/sha384-512.c **** * Returns:
 720:Source\azure_iot_sdk\c-utility\src/sha384-512.c **** *   Nothing.
 721:Source\azure_iot_sdk\c-utility\src/sha384-512.c **** *
 722:Source\azure_iot_sdk\c-utility\src/sha384-512.c **** * Comments:
 723:Source\azure_iot_sdk\c-utility\src/sha384-512.c **** *   Many of the variable names in this code, especially the
 724:Source\azure_iot_sdk\c-utility\src/sha384-512.c **** *   single character names, were used because those were the
 725:Source\azure_iot_sdk\c-utility\src/sha384-512.c **** *   names used in the publication.
 726:Source\azure_iot_sdk\c-utility\src/sha384-512.c **** *
 727:Source\azure_iot_sdk\c-utility\src/sha384-512.c **** *
 728:Source\azure_iot_sdk\c-utility\src/sha384-512.c **** */
 729:Source\azure_iot_sdk\c-utility\src/sha384-512.c **** static void SHA384_512ProcessMessageBlock(SHA512Context *context)
 730:Source\azure_iot_sdk\c-utility\src/sha384-512.c **** {
  27              		.loc 1 730 0
  28              		.cfi_startproc
  29              		@ args = 0, pretend = 0, frame = 808
  30              		@ frame_needed = 0, uses_anonymous_args = 0
  31              	.LVL0:
  32 0000 F0B5     		push	{r4, r5, r6, r7, lr}
  33              		.cfi_def_cfa_offset 20
  34              		.cfi_offset 4, -20
  35              		.cfi_offset 5, -16
  36              		.cfi_offset 6, -12
  37              		.cfi_offset 7, -8
  38              		.cfi_offset 14, -4
  39 0002 5F46     		mov	r7, fp
  40 0004 5646     		mov	r6, r10
  41 0006 4D46     		mov	r5, r9
  42 0008 4446     		mov	r4, r8
  43 000a F0B4     		push	{r4, r5, r6, r7}
  44              		.cfi_def_cfa_offset 36
  45              		.cfi_offset 8, -36
  46              		.cfi_offset 9, -32
  47              		.cfi_offset 10, -28
  48              		.cfi_offset 11, -24
  49 000c 744C     		ldr	r4, .L8
  50 000e A544     		add	sp, sp, r4
  51              		.cfi_def_cfa_offset 848
  52              	.LVL1:
 731:Source\azure_iot_sdk\c-utility\src/sha384-512.c ****     /* Constants defined in FIPS-180-2, section 4.2.3 */
 732:Source\azure_iot_sdk\c-utility\src/sha384-512.c **** #ifdef USE_32BIT_ONLY
 733:Source\azure_iot_sdk\c-utility\src/sha384-512.c ****     static const uint32_t K[80 * 2] = {
 734:Source\azure_iot_sdk\c-utility\src/sha384-512.c ****         0x428A2F98, 0xD728AE22, 0x71374491, 0x23EF65CD, 0xB5C0FBCF,
 735:Source\azure_iot_sdk\c-utility\src/sha384-512.c ****         0xEC4D3B2F, 0xE9B5DBA5, 0x8189DBBC, 0x3956C25B, 0xF348B538,
 736:Source\azure_iot_sdk\c-utility\src/sha384-512.c ****         0x59F111F1, 0xB605D019, 0x923F82A4, 0xAF194F9B, 0xAB1C5ED5,
 737:Source\azure_iot_sdk\c-utility\src/sha384-512.c ****         0xDA6D8118, 0xD807AA98, 0xA3030242, 0x12835B01, 0x45706FBE,
 738:Source\azure_iot_sdk\c-utility\src/sha384-512.c ****         0x243185BE, 0x4EE4B28C, 0x550C7DC3, 0xD5FFB4E2, 0x72BE5D74,
 739:Source\azure_iot_sdk\c-utility\src/sha384-512.c ****         0xF27B896F, 0x80DEB1FE, 0x3B1696B1, 0x9BDC06A7, 0x25C71235,
 740:Source\azure_iot_sdk\c-utility\src/sha384-512.c ****         0xC19BF174, 0xCF692694, 0xE49B69C1, 0x9EF14AD2, 0xEFBE4786,
 741:Source\azure_iot_sdk\c-utility\src/sha384-512.c ****         0x384F25E3, 0x0FC19DC6, 0x8B8CD5B5, 0x240CA1CC, 0x77AC9C65,
 742:Source\azure_iot_sdk\c-utility\src/sha384-512.c ****         0x2DE92C6F, 0x592B0275, 0x4A7484AA, 0x6EA6E483, 0x5CB0A9DC,
 743:Source\azure_iot_sdk\c-utility\src/sha384-512.c ****         0xBD41FBD4, 0x76F988DA, 0x831153B5, 0x983E5152, 0xEE66DFAB,
 744:Source\azure_iot_sdk\c-utility\src/sha384-512.c ****         0xA831C66D, 0x2DB43210, 0xB00327C8, 0x98FB213F, 0xBF597FC7,
 745:Source\azure_iot_sdk\c-utility\src/sha384-512.c ****         0xBEEF0EE4, 0xC6E00BF3, 0x3DA88FC2, 0xD5A79147, 0x930AA725,
 746:Source\azure_iot_sdk\c-utility\src/sha384-512.c ****         0x06CA6351, 0xE003826F, 0x14292967, 0x0A0E6E70, 0x27B70A85,
ARM GAS  C:\Users\Phuong\AppData\Local\Temp\ccOJzSrt.s 			page 15


 747:Source\azure_iot_sdk\c-utility\src/sha384-512.c ****         0x46D22FFC, 0x2E1B2138, 0x5C26C926, 0x4D2C6DFC, 0x5AC42AED,
 748:Source\azure_iot_sdk\c-utility\src/sha384-512.c ****         0x53380D13, 0x9D95B3DF, 0x650A7354, 0x8BAF63DE, 0x766A0ABB,
 749:Source\azure_iot_sdk\c-utility\src/sha384-512.c ****         0x3C77B2A8, 0x81C2C92E, 0x47EDAEE6, 0x92722C85, 0x1482353B,
 750:Source\azure_iot_sdk\c-utility\src/sha384-512.c ****         0xA2BFE8A1, 0x4CF10364, 0xA81A664B, 0xBC423001, 0xC24B8B70,
 751:Source\azure_iot_sdk\c-utility\src/sha384-512.c ****         0xD0F89791, 0xC76C51A3, 0x0654BE30, 0xD192E819, 0xD6EF5218,
 752:Source\azure_iot_sdk\c-utility\src/sha384-512.c ****         0xD6990624, 0x5565A910, 0xF40E3585, 0x5771202A, 0x106AA070,
 753:Source\azure_iot_sdk\c-utility\src/sha384-512.c ****         0x32BBD1B8, 0x19A4C116, 0xB8D2D0C8, 0x1E376C08, 0x5141AB53,
 754:Source\azure_iot_sdk\c-utility\src/sha384-512.c ****         0x2748774C, 0xDF8EEB99, 0x34B0BCB5, 0xE19B48A8, 0x391C0CB3,
 755:Source\azure_iot_sdk\c-utility\src/sha384-512.c ****         0xC5C95A63, 0x4ED8AA4A, 0xE3418ACB, 0x5B9CCA4F, 0x7763E373,
 756:Source\azure_iot_sdk\c-utility\src/sha384-512.c ****         0x682E6FF3, 0xD6B2B8A3, 0x748F82EE, 0x5DEFB2FC, 0x78A5636F,
 757:Source\azure_iot_sdk\c-utility\src/sha384-512.c ****         0x43172F60, 0x84C87814, 0xA1F0AB72, 0x8CC70208, 0x1A6439EC,
 758:Source\azure_iot_sdk\c-utility\src/sha384-512.c ****         0x90BEFFFA, 0x23631E28, 0xA4506CEB, 0xDE82BDE9, 0xBEF9A3F7,
 759:Source\azure_iot_sdk\c-utility\src/sha384-512.c ****         0xB2C67915, 0xC67178F2, 0xE372532B, 0xCA273ECE, 0xEA26619C,
 760:Source\azure_iot_sdk\c-utility\src/sha384-512.c ****         0xD186B8C7, 0x21C0C207, 0xEADA7DD6, 0xCDE0EB1E, 0xF57D4F7F,
 761:Source\azure_iot_sdk\c-utility\src/sha384-512.c ****         0xEE6ED178, 0x06F067AA, 0x72176FBA, 0x0A637DC5, 0xA2C898A6,
 762:Source\azure_iot_sdk\c-utility\src/sha384-512.c ****         0x113F9804, 0xBEF90DAE, 0x1B710B35, 0x131C471B, 0x28DB77F5,
 763:Source\azure_iot_sdk\c-utility\src/sha384-512.c ****         0x23047D84, 0x32CAAB7B, 0x40C72493, 0x3C9EBE0A, 0x15C9BEBC,
 764:Source\azure_iot_sdk\c-utility\src/sha384-512.c ****         0x431D67C4, 0x9C100D4C, 0x4CC5D4BE, 0xCB3E42B6, 0x597F299C,
 765:Source\azure_iot_sdk\c-utility\src/sha384-512.c ****         0xFC657E2A, 0x5FCB6FAB, 0x3AD6FAEC, 0x6C44198C, 0x4A475817
 766:Source\azure_iot_sdk\c-utility\src/sha384-512.c ****     };
 767:Source\azure_iot_sdk\c-utility\src/sha384-512.c ****     int     t, t2, t8;                  /* Loop counter */
 768:Source\azure_iot_sdk\c-utility\src/sha384-512.c ****     uint32_t  temp1[2], temp2[2],       /* Temporary word values */
 769:Source\azure_iot_sdk\c-utility\src/sha384-512.c ****         temp3[2], temp4[2], temp5[2];
 770:Source\azure_iot_sdk\c-utility\src/sha384-512.c ****     uint32_t  W[2 * 80];                  /* Word sequence */
 771:Source\azure_iot_sdk\c-utility\src/sha384-512.c ****     uint32_t  A[2], B[2], C[2], D[2],   /* Word buffers */
 772:Source\azure_iot_sdk\c-utility\src/sha384-512.c ****         E[2], F[2], G[2], H[2];
 773:Source\azure_iot_sdk\c-utility\src/sha384-512.c **** 
 774:Source\azure_iot_sdk\c-utility\src/sha384-512.c ****     /* Initialize the first 16 words in the array W */
 775:Source\azure_iot_sdk\c-utility\src/sha384-512.c ****     for (t = t2 = t8 = 0; t < 16; t++, t8 += 8) {
 776:Source\azure_iot_sdk\c-utility\src/sha384-512.c ****         W[t2++] = ((((uint32_t)context->Message_Block[t8])) << 24) |
 777:Source\azure_iot_sdk\c-utility\src/sha384-512.c ****             ((((uint32_t)context->Message_Block[t8 + 1])) << 16) |
 778:Source\azure_iot_sdk\c-utility\src/sha384-512.c ****             ((((uint32_t)context->Message_Block[t8 + 2])) << 8) |
 779:Source\azure_iot_sdk\c-utility\src/sha384-512.c ****             ((((uint32_t)context->Message_Block[t8 + 3])));
 780:Source\azure_iot_sdk\c-utility\src/sha384-512.c ****         W[t2++] = ((((uint32_t)context->Message_Block[t8 + 4])) << 24) |
 781:Source\azure_iot_sdk\c-utility\src/sha384-512.c ****             ((((uint32_t)context->Message_Block[t8 + 5])) << 16) |
 782:Source\azure_iot_sdk\c-utility\src/sha384-512.c ****             ((((uint32_t)context->Message_Block[t8 + 6])) << 8) |
 783:Source\azure_iot_sdk\c-utility\src/sha384-512.c ****             ((((uint32_t)context->Message_Block[t8 + 7])));
 784:Source\azure_iot_sdk\c-utility\src/sha384-512.c ****     }
 785:Source\azure_iot_sdk\c-utility\src/sha384-512.c **** 
 786:Source\azure_iot_sdk\c-utility\src/sha384-512.c ****     for (t = 16; t < 80; t++, t2 += 2) {
 787:Source\azure_iot_sdk\c-utility\src/sha384-512.c ****         /* W[t] = SHA512_sigma1(W[t-2]) + W[t-7] +
 788:Source\azure_iot_sdk\c-utility\src/sha384-512.c ****         SHA512_sigma0(W[t-15]) + W[t-16]; */
 789:Source\azure_iot_sdk\c-utility\src/sha384-512.c ****         uint32_t *Wt2 = &W[t2 - 2 * 2];
 790:Source\azure_iot_sdk\c-utility\src/sha384-512.c ****         uint32_t *Wt7 = &W[t2 - 7 * 2];
 791:Source\azure_iot_sdk\c-utility\src/sha384-512.c ****         uint32_t *Wt15 = &W[t2 - 15 * 2];
 792:Source\azure_iot_sdk\c-utility\src/sha384-512.c ****         uint32_t *Wt16 = &W[t2 - 16 * 2];
 793:Source\azure_iot_sdk\c-utility\src/sha384-512.c ****         SHA512_sigma1(Wt2, temp1);
 794:Source\azure_iot_sdk\c-utility\src/sha384-512.c ****         SHA512_ADD(temp1, Wt7, temp2);
 795:Source\azure_iot_sdk\c-utility\src/sha384-512.c ****         SHA512_sigma0(Wt15, temp1);
 796:Source\azure_iot_sdk\c-utility\src/sha384-512.c ****         SHA512_ADD(temp1, Wt16, temp3);
 797:Source\azure_iot_sdk\c-utility\src/sha384-512.c ****         SHA512_ADD(temp2, temp3, &W[t2]);
 798:Source\azure_iot_sdk\c-utility\src/sha384-512.c ****     }
 799:Source\azure_iot_sdk\c-utility\src/sha384-512.c **** 
 800:Source\azure_iot_sdk\c-utility\src/sha384-512.c ****     A[0] = context->Intermediate_Hash[0];
 801:Source\azure_iot_sdk\c-utility\src/sha384-512.c ****     A[1] = context->Intermediate_Hash[1];
 802:Source\azure_iot_sdk\c-utility\src/sha384-512.c ****     B[0] = context->Intermediate_Hash[2];
 803:Source\azure_iot_sdk\c-utility\src/sha384-512.c ****     B[1] = context->Intermediate_Hash[3];
ARM GAS  C:\Users\Phuong\AppData\Local\Temp\ccOJzSrt.s 			page 16


 804:Source\azure_iot_sdk\c-utility\src/sha384-512.c ****     C[0] = context->Intermediate_Hash[4];
 805:Source\azure_iot_sdk\c-utility\src/sha384-512.c ****     C[1] = context->Intermediate_Hash[5];
 806:Source\azure_iot_sdk\c-utility\src/sha384-512.c ****     D[0] = context->Intermediate_Hash[6];
 807:Source\azure_iot_sdk\c-utility\src/sha384-512.c ****     D[1] = context->Intermediate_Hash[7];
 808:Source\azure_iot_sdk\c-utility\src/sha384-512.c ****     E[0] = context->Intermediate_Hash[8];
 809:Source\azure_iot_sdk\c-utility\src/sha384-512.c ****     E[1] = context->Intermediate_Hash[9];
 810:Source\azure_iot_sdk\c-utility\src/sha384-512.c ****     F[0] = context->Intermediate_Hash[10];
 811:Source\azure_iot_sdk\c-utility\src/sha384-512.c ****     F[1] = context->Intermediate_Hash[11];
 812:Source\azure_iot_sdk\c-utility\src/sha384-512.c ****     G[0] = context->Intermediate_Hash[12];
 813:Source\azure_iot_sdk\c-utility\src/sha384-512.c ****     G[1] = context->Intermediate_Hash[13];
 814:Source\azure_iot_sdk\c-utility\src/sha384-512.c ****     H[0] = context->Intermediate_Hash[14];
 815:Source\azure_iot_sdk\c-utility\src/sha384-512.c ****     H[1] = context->Intermediate_Hash[15];
 816:Source\azure_iot_sdk\c-utility\src/sha384-512.c **** 
 817:Source\azure_iot_sdk\c-utility\src/sha384-512.c ****     for (t = t2 = 0; t < 80; t++, t2 += 2) {
 818:Source\azure_iot_sdk\c-utility\src/sha384-512.c ****         /*
 819:Source\azure_iot_sdk\c-utility\src/sha384-512.c ****         * temp1 = H + SHA512_SIGMA1(E) + SHA_Ch(E,F,G) + K[t] + W[t];
 820:Source\azure_iot_sdk\c-utility\src/sha384-512.c ****         */
 821:Source\azure_iot_sdk\c-utility\src/sha384-512.c ****         SHA512_SIGMA1(E, temp1);
 822:Source\azure_iot_sdk\c-utility\src/sha384-512.c ****         SHA512_ADD(H, temp1, temp2);
 823:Source\azure_iot_sdk\c-utility\src/sha384-512.c ****         SHA_Ch(E, F, G, temp3);
 824:Source\azure_iot_sdk\c-utility\src/sha384-512.c ****         SHA512_ADD(temp2, temp3, temp4);
 825:Source\azure_iot_sdk\c-utility\src/sha384-512.c ****         SHA512_ADD(&K[t2], &W[t2], temp5);
 826:Source\azure_iot_sdk\c-utility\src/sha384-512.c ****         SHA512_ADD(temp4, temp5, temp1);
 827:Source\azure_iot_sdk\c-utility\src/sha384-512.c ****         /*
 828:Source\azure_iot_sdk\c-utility\src/sha384-512.c ****         * temp2 = SHA512_SIGMA0(A) + SHA_Maj(A,B,C);
 829:Source\azure_iot_sdk\c-utility\src/sha384-512.c ****         */
 830:Source\azure_iot_sdk\c-utility\src/sha384-512.c ****         SHA512_SIGMA0(A, temp3);
 831:Source\azure_iot_sdk\c-utility\src/sha384-512.c ****         SHA_Maj(A, B, C, temp4);
 832:Source\azure_iot_sdk\c-utility\src/sha384-512.c ****         SHA512_ADD(temp3, temp4, temp2);
 833:Source\azure_iot_sdk\c-utility\src/sha384-512.c ****         H[0] = G[0]; H[1] = G[1];
 834:Source\azure_iot_sdk\c-utility\src/sha384-512.c ****         G[0] = F[0]; G[1] = F[1];
 835:Source\azure_iot_sdk\c-utility\src/sha384-512.c ****         F[0] = E[0]; F[1] = E[1];
 836:Source\azure_iot_sdk\c-utility\src/sha384-512.c ****         SHA512_ADD(D, temp1, E);
 837:Source\azure_iot_sdk\c-utility\src/sha384-512.c ****         D[0] = C[0]; D[1] = C[1];
 838:Source\azure_iot_sdk\c-utility\src/sha384-512.c ****         C[0] = B[0]; C[1] = B[1];
 839:Source\azure_iot_sdk\c-utility\src/sha384-512.c ****         B[0] = A[0]; B[1] = A[1];
 840:Source\azure_iot_sdk\c-utility\src/sha384-512.c ****         SHA512_ADD(temp1, temp2, A);
 841:Source\azure_iot_sdk\c-utility\src/sha384-512.c ****     }
 842:Source\azure_iot_sdk\c-utility\src/sha384-512.c **** 
 843:Source\azure_iot_sdk\c-utility\src/sha384-512.c ****     SHA512_ADDTO2(&context->Intermediate_Hash[0], A);
 844:Source\azure_iot_sdk\c-utility\src/sha384-512.c ****     SHA512_ADDTO2(&context->Intermediate_Hash[2], B);
 845:Source\azure_iot_sdk\c-utility\src/sha384-512.c ****     SHA512_ADDTO2(&context->Intermediate_Hash[4], C);
 846:Source\azure_iot_sdk\c-utility\src/sha384-512.c ****     SHA512_ADDTO2(&context->Intermediate_Hash[6], D);
 847:Source\azure_iot_sdk\c-utility\src/sha384-512.c ****     SHA512_ADDTO2(&context->Intermediate_Hash[8], E);
 848:Source\azure_iot_sdk\c-utility\src/sha384-512.c ****     SHA512_ADDTO2(&context->Intermediate_Hash[10], F);
 849:Source\azure_iot_sdk\c-utility\src/sha384-512.c ****     SHA512_ADDTO2(&context->Intermediate_Hash[12], G);
 850:Source\azure_iot_sdk\c-utility\src/sha384-512.c ****     SHA512_ADDTO2(&context->Intermediate_Hash[14], H);
 851:Source\azure_iot_sdk\c-utility\src/sha384-512.c **** 
 852:Source\azure_iot_sdk\c-utility\src/sha384-512.c **** #else /* !USE_32BIT_ONLY */
 853:Source\azure_iot_sdk\c-utility\src/sha384-512.c ****     static const uint64_t K[80] = {
 854:Source\azure_iot_sdk\c-utility\src/sha384-512.c ****         0x428A2F98D728AE22ull, 0x7137449123EF65CDull, 0xB5C0FBCFEC4D3B2Full,
 855:Source\azure_iot_sdk\c-utility\src/sha384-512.c ****         0xE9B5DBA58189DBBCull, 0x3956C25BF348B538ull, 0x59F111F1B605D019ull,
 856:Source\azure_iot_sdk\c-utility\src/sha384-512.c ****         0x923F82A4AF194F9Bull, 0xAB1C5ED5DA6D8118ull, 0xD807AA98A3030242ull,
 857:Source\azure_iot_sdk\c-utility\src/sha384-512.c ****         0x12835B0145706FBEull, 0x243185BE4EE4B28Cull, 0x550C7DC3D5FFB4E2ull,
 858:Source\azure_iot_sdk\c-utility\src/sha384-512.c ****         0x72BE5D74F27B896Full, 0x80DEB1FE3B1696B1ull, 0x9BDC06A725C71235ull,
 859:Source\azure_iot_sdk\c-utility\src/sha384-512.c ****         0xC19BF174CF692694ull, 0xE49B69C19EF14AD2ull, 0xEFBE4786384F25E3ull,
 860:Source\azure_iot_sdk\c-utility\src/sha384-512.c ****         0x0FC19DC68B8CD5B5ull, 0x240CA1CC77AC9C65ull, 0x2DE92C6F592B0275ull,
ARM GAS  C:\Users\Phuong\AppData\Local\Temp\ccOJzSrt.s 			page 17


 861:Source\azure_iot_sdk\c-utility\src/sha384-512.c ****         0x4A7484AA6EA6E483ull, 0x5CB0A9DCBD41FBD4ull, 0x76F988DA831153B5ull,
 862:Source\azure_iot_sdk\c-utility\src/sha384-512.c ****         0x983E5152EE66DFABull, 0xA831C66D2DB43210ull, 0xB00327C898FB213Full,
 863:Source\azure_iot_sdk\c-utility\src/sha384-512.c ****         0xBF597FC7BEEF0EE4ull, 0xC6E00BF33DA88FC2ull, 0xD5A79147930AA725ull,
 864:Source\azure_iot_sdk\c-utility\src/sha384-512.c ****         0x06CA6351E003826Full, 0x142929670A0E6E70ull, 0x27B70A8546D22FFCull,
 865:Source\azure_iot_sdk\c-utility\src/sha384-512.c ****         0x2E1B21385C26C926ull, 0x4D2C6DFC5AC42AEDull, 0x53380D139D95B3DFull,
 866:Source\azure_iot_sdk\c-utility\src/sha384-512.c ****         0x650A73548BAF63DEull, 0x766A0ABB3C77B2A8ull, 0x81C2C92E47EDAEE6ull,
 867:Source\azure_iot_sdk\c-utility\src/sha384-512.c ****         0x92722C851482353Bull, 0xA2BFE8A14CF10364ull, 0xA81A664BBC423001ull,
 868:Source\azure_iot_sdk\c-utility\src/sha384-512.c ****         0xC24B8B70D0F89791ull, 0xC76C51A30654BE30ull, 0xD192E819D6EF5218ull,
 869:Source\azure_iot_sdk\c-utility\src/sha384-512.c ****         0xD69906245565A910ull, 0xF40E35855771202Aull, 0x106AA07032BBD1B8ull,
 870:Source\azure_iot_sdk\c-utility\src/sha384-512.c ****         0x19A4C116B8D2D0C8ull, 0x1E376C085141AB53ull, 0x2748774CDF8EEB99ull,
 871:Source\azure_iot_sdk\c-utility\src/sha384-512.c ****         0x34B0BCB5E19B48A8ull, 0x391C0CB3C5C95A63ull, 0x4ED8AA4AE3418ACBull,
 872:Source\azure_iot_sdk\c-utility\src/sha384-512.c ****         0x5B9CCA4F7763E373ull, 0x682E6FF3D6B2B8A3ull, 0x748F82EE5DEFB2FCull,
 873:Source\azure_iot_sdk\c-utility\src/sha384-512.c ****         0x78A5636F43172F60ull, 0x84C87814A1F0AB72ull, 0x8CC702081A6439ECull,
 874:Source\azure_iot_sdk\c-utility\src/sha384-512.c ****         0x90BEFFFA23631E28ull, 0xA4506CEBDE82BDE9ull, 0xBEF9A3F7B2C67915ull,
 875:Source\azure_iot_sdk\c-utility\src/sha384-512.c ****         0xC67178F2E372532Bull, 0xCA273ECEEA26619Cull, 0xD186B8C721C0C207ull,
 876:Source\azure_iot_sdk\c-utility\src/sha384-512.c ****         0xEADA7DD6CDE0EB1Eull, 0xF57D4F7FEE6ED178ull, 0x06F067AA72176FBAull,
 877:Source\azure_iot_sdk\c-utility\src/sha384-512.c ****         0x0A637DC5A2C898A6ull, 0x113F9804BEF90DAEull, 0x1B710B35131C471Bull,
 878:Source\azure_iot_sdk\c-utility\src/sha384-512.c ****         0x28DB77F523047D84ull, 0x32CAAB7B40C72493ull, 0x3C9EBE0A15C9BEBCull,
 879:Source\azure_iot_sdk\c-utility\src/sha384-512.c ****         0x431D67C49C100D4Cull, 0x4CC5D4BECB3E42B6ull, 0x597F299CFC657E2Aull,
 880:Source\azure_iot_sdk\c-utility\src/sha384-512.c ****         0x5FCB6FAB3AD6FAECull, 0x6C44198C4A475817ull
 881:Source\azure_iot_sdk\c-utility\src/sha384-512.c ****     };
 882:Source\azure_iot_sdk\c-utility\src/sha384-512.c ****     int        t, t8;                   /* Loop counter */
 883:Source\azure_iot_sdk\c-utility\src/sha384-512.c ****     uint64_t   temp1, temp2;            /* Temporary word value */
 884:Source\azure_iot_sdk\c-utility\src/sha384-512.c ****     uint64_t   W[80];                   /* Word sequence */
 885:Source\azure_iot_sdk\c-utility\src/sha384-512.c ****     uint64_t   A, B, C, D, E, F, G, H;  /* Word buffers */
 886:Source\azure_iot_sdk\c-utility\src/sha384-512.c **** 
 887:Source\azure_iot_sdk\c-utility\src/sha384-512.c ****     /*
 888:Source\azure_iot_sdk\c-utility\src/sha384-512.c ****     * Initialize the first 16 words in the array W
 889:Source\azure_iot_sdk\c-utility\src/sha384-512.c ****     */
 890:Source\azure_iot_sdk\c-utility\src/sha384-512.c ****     for (t = t8 = 0; t < 16; t++, t8 += 8)
  53              		.loc 1 890 0
  54 0010 0023     		movs	r3, #0
  55 0012 0021     		movs	r1, #0
  56 0014 0094     		str	r4, [sp]
  57 0016 0195     		str	r5, [sp, #4]
  58 0018 0200     		movs	r2, r0
  59 001a 34E0     		b	.L2
  60              	.LVL2:
  61              	.L3:
 891:Source\azure_iot_sdk\c-utility\src/sha384-512.c ****         W[t] = ((uint64_t)(context->Message_Block[t8]) << 56) |
  62              		.loc 1 891 0 discriminator 3
  63 001c D018     		adds	r0, r2, r3
  64 001e 5230     		adds	r0, r0, #82
  65 0020 0778     		ldrb	r7, [r0]
  66 0022 3F06     		lsls	r7, r7, #24
 892:Source\azure_iot_sdk\c-utility\src/sha384-512.c ****         ((uint64_t)(context->Message_Block[t8 + 1]) << 48) |
  67              		.loc 1 892 0 discriminator 3
  68 0024 5E1C     		adds	r6, r3, #1
  69 0026 9619     		adds	r6, r2, r6
  70 0028 5236     		adds	r6, r6, #82
  71 002a 3078     		ldrb	r0, [r6]
  72 002c 0004     		lsls	r0, r0, #16
 891:Source\azure_iot_sdk\c-utility\src/sha384-512.c ****         W[t] = ((uint64_t)(context->Message_Block[t8]) << 56) |
  73              		.loc 1 891 0 discriminator 3
  74 002e 3843     		orrs	r0, r7
 893:Source\azure_iot_sdk\c-utility\src/sha384-512.c ****         ((uint64_t)(context->Message_Block[t8 + 2]) << 40) |
  75              		.loc 1 893 0 discriminator 3
ARM GAS  C:\Users\Phuong\AppData\Local\Temp\ccOJzSrt.s 			page 18


  76 0030 9E1C     		adds	r6, r3, #2
  77 0032 9619     		adds	r6, r2, r6
  78 0034 5236     		adds	r6, r6, #82
  79 0036 3778     		ldrb	r7, [r6]
  80 0038 3F02     		lsls	r7, r7, #8
 892:Source\azure_iot_sdk\c-utility\src/sha384-512.c ****         ((uint64_t)(context->Message_Block[t8 + 1]) << 48) |
  81              		.loc 1 892 0 discriminator 3
  82 003a 0743     		orrs	r7, r0
 894:Source\azure_iot_sdk\c-utility\src/sha384-512.c ****         ((uint64_t)(context->Message_Block[t8 + 3]) << 32) |
  83              		.loc 1 894 0 discriminator 3
  84 003c D81C     		adds	r0, r3, #3
  85 003e 1018     		adds	r0, r2, r0
  86 0040 5230     		adds	r0, r0, #82
  87 0042 0578     		ldrb	r5, [r0]
 895:Source\azure_iot_sdk\c-utility\src/sha384-512.c ****         ((uint64_t)(context->Message_Block[t8 + 4]) << 24) |
  88              		.loc 1 895 0 discriminator 3
  89 0044 181D     		adds	r0, r3, #4
  90 0046 1018     		adds	r0, r2, r0
  91 0048 5230     		adds	r0, r0, #82
  92 004a 0078     		ldrb	r0, [r0]
  93 004c 0006     		lsls	r0, r0, #24
  94 004e 8046     		mov	r8, r0
 896:Source\azure_iot_sdk\c-utility\src/sha384-512.c ****         ((uint64_t)(context->Message_Block[t8 + 5]) << 16) |
  95              		.loc 1 896 0 discriminator 3
  96 0050 5E1D     		adds	r6, r3, #5
  97 0052 9619     		adds	r6, r2, r6
  98 0054 5236     		adds	r6, r6, #82
  99 0056 3078     		ldrb	r0, [r6]
 100 0058 0004     		lsls	r0, r0, #16
 895:Source\azure_iot_sdk\c-utility\src/sha384-512.c ****         ((uint64_t)(context->Message_Block[t8 + 4]) << 24) |
 101              		.loc 1 895 0 discriminator 3
 102 005a 4446     		mov	r4, r8
 103 005c 2043     		orrs	r0, r4
 897:Source\azure_iot_sdk\c-utility\src/sha384-512.c ****         ((uint64_t)(context->Message_Block[t8 + 6]) << 8) |
 104              		.loc 1 897 0 discriminator 3
 105 005e 9E1D     		adds	r6, r3, #6
 106 0060 9619     		adds	r6, r2, r6
 107 0062 5236     		adds	r6, r6, #82
 108 0064 3678     		ldrb	r6, [r6]
 109 0066 3602     		lsls	r6, r6, #8
 896:Source\azure_iot_sdk\c-utility\src/sha384-512.c ****         ((uint64_t)(context->Message_Block[t8 + 5]) << 16) |
 110              		.loc 1 896 0 discriminator 3
 111 0068 3043     		orrs	r0, r6
 112 006a 2F43     		orrs	r7, r5
 898:Source\azure_iot_sdk\c-utility\src/sha384-512.c ****         ((uint64_t)(context->Message_Block[t8 + 7]));
 113              		.loc 1 898 0 discriminator 3
 114 006c DE1D     		adds	r6, r3, #7
 115 006e 9619     		adds	r6, r2, r6
 116 0070 5236     		adds	r6, r6, #82
 117 0072 3678     		ldrb	r6, [r6]
 897:Source\azure_iot_sdk\c-utility\src/sha384-512.c ****         ((uint64_t)(context->Message_Block[t8 + 6]) << 8) |
 118              		.loc 1 897 0 discriminator 3
 119 0074 3043     		orrs	r0, r6
 891:Source\azure_iot_sdk\c-utility\src/sha384-512.c ****         ((uint64_t)(context->Message_Block[t8 + 1]) << 48) |
 120              		.loc 1 891 0 discriminator 3
 121 0076 CE00     		lsls	r6, r1, #3
 122 0078 2AAC     		add	r4, sp, #168
ARM GAS  C:\Users\Phuong\AppData\Local\Temp\ccOJzSrt.s 			page 19


 123 007a A446     		mov	ip, r4
 124 007c 6644     		add	r6, r6, ip
 125 007e 3060     		str	r0, [r6]
 126 0080 7760     		str	r7, [r6, #4]
 890:Source\azure_iot_sdk\c-utility\src/sha384-512.c ****         W[t] = ((uint64_t)(context->Message_Block[t8]) << 56) |
 127              		.loc 1 890 0 discriminator 3
 128 0082 0131     		adds	r1, r1, #1
 129              	.LVL3:
 130 0084 0833     		adds	r3, r3, #8
 131              	.LVL4:
 132              	.L2:
 890:Source\azure_iot_sdk\c-utility\src/sha384-512.c ****         W[t] = ((uint64_t)(context->Message_Block[t8]) << 56) |
 133              		.loc 1 890 0 is_stmt 0 discriminator 1
 134 0086 0F29     		cmp	r1, #15
 135 0088 C8DD     		ble	.L3
 136 008a 1027     		movs	r7, #16
 137 008c 3E00     		movs	r6, r7
 138 008e 9046     		mov	r8, r2
 139 0090 61E0     		b	.L4
 140              	.LVL5:
 141              	.L5:
 899:Source\azure_iot_sdk\c-utility\src/sha384-512.c **** 
 900:Source\azure_iot_sdk\c-utility\src/sha384-512.c ****     for (t = 16; t < 80; t++)
 901:Source\azure_iot_sdk\c-utility\src/sha384-512.c ****         W[t] = SHA512_sigma1(W[t - 2]) + W[t - 7] +
 142              		.loc 1 901 0 is_stmt 1 discriminator 3
 143 0092 B21E     		subs	r2, r6, #2
 144 0094 D200     		lsls	r2, r2, #3
 145 0096 2AAB     		add	r3, sp, #168
 146 0098 9C46     		mov	ip, r3
 147 009a 6244     		add	r2, r2, ip
 148 009c 1368     		ldr	r3, [r2]
 149 009e 5268     		ldr	r2, [r2, #4]
 150 00a0 5003     		lsls	r0, r2, #13
 151 00a2 D90C     		lsrs	r1, r3, #19
 152 00a4 0843     		orrs	r0, r1
 153 00a6 8146     		mov	r9, r0
 154 00a8 5803     		lsls	r0, r3, #13
 155 00aa D10C     		lsrs	r1, r2, #19
 156 00ac 0843     		orrs	r0, r1
 157 00ae 0700     		movs	r7, r0
 158 00b0 580F     		lsrs	r0, r3, #29
 159 00b2 D100     		lsls	r1, r2, #3
 160 00b4 0143     		orrs	r1, r0
 161 00b6 500F     		lsrs	r0, r2, #29
 162 00b8 8246     		mov	r10, r0
 163 00ba D800     		lsls	r0, r3, #3
 164 00bc 5446     		mov	r4, r10
 165 00be 2043     		orrs	r0, r4
 166 00c0 4C46     		mov	r4, r9
 167 00c2 6040     		eors	r0, r4
 168 00c4 7940     		eors	r1, r7
 169 00c6 9706     		lsls	r7, r2, #26
 170 00c8 9B09     		lsrs	r3, r3, #6
 171 00ca 3B43     		orrs	r3, r7
 172 00cc 9209     		lsrs	r2, r2, #6
 173 00ce 5840     		eors	r0, r3
 174 00d0 0090     		str	r0, [sp]
ARM GAS  C:\Users\Phuong\AppData\Local\Temp\ccOJzSrt.s 			page 20


 175 00d2 5140     		eors	r1, r2
 176 00d4 0191     		str	r1, [sp, #4]
 177 00d6 F31F     		subs	r3, r6, #7
 178 00d8 DB00     		lsls	r3, r3, #3
 179 00da 6344     		add	r3, r3, ip
 180 00dc 1A68     		ldr	r2, [r3]
 181 00de 5B68     		ldr	r3, [r3, #4]
 182 00e0 0098     		ldr	r0, [sp]
 183 00e2 0199     		ldr	r1, [sp, #4]
 184 00e4 1218     		adds	r2, r2, r0
 185 00e6 4B41     		adcs	r3, r3, r1
 902:Source\azure_iot_sdk\c-utility\src/sha384-512.c ****         SHA512_sigma0(W[t - 15]) + W[t - 16];
 186              		.loc 1 902 0 discriminator 3
 187 00e8 3000     		movs	r0, r6
 188 00ea 0F38     		subs	r0, r0, #15
 189 00ec C000     		lsls	r0, r0, #3
 190 00ee 6044     		add	r0, r0, ip
 191 00f0 0168     		ldr	r1, [r0]
 192 00f2 4068     		ldr	r0, [r0, #4]
 193 00f4 C407     		lsls	r4, r0, #31
 194 00f6 4F08     		lsrs	r7, r1, #1
 195 00f8 3C43     		orrs	r4, r7
 196 00fa A346     		mov	fp, r4
 197 00fc CC07     		lsls	r4, r1, #31
 198 00fe 4708     		lsrs	r7, r0, #1
 199 0100 3C43     		orrs	r4, r7
 200 0102 A246     		mov	r10, r4
 201 0104 0406     		lsls	r4, r0, #24
 202 0106 0F0A     		lsrs	r7, r1, #8
 203 0108 3C43     		orrs	r4, r7
 204 010a A146     		mov	r9, r4
 205 010c 0C06     		lsls	r4, r1, #24
 206 010e 070A     		lsrs	r7, r0, #8
 207 0110 2743     		orrs	r7, r4
 208 0112 5C46     		mov	r4, fp
 209 0114 4D46     		mov	r5, r9
 210 0116 6C40     		eors	r4, r5
 211 0118 A146     		mov	r9, r4
 212 011a 5446     		mov	r4, r10
 213 011c 6740     		eors	r7, r4
 214 011e 4406     		lsls	r4, r0, #25
 215 0120 C909     		lsrs	r1, r1, #7
 216 0122 2143     		orrs	r1, r4
 217 0124 C009     		lsrs	r0, r0, #7
 218 0126 4C46     		mov	r4, r9
 219 0128 4C40     		eors	r4, r1
 220 012a 0294     		str	r4, [sp, #8]
 221 012c 4740     		eors	r7, r0
 222 012e 0397     		str	r7, [sp, #12]
 901:Source\azure_iot_sdk\c-utility\src/sha384-512.c ****         SHA512_sigma0(W[t - 15]) + W[t - 16];
 223              		.loc 1 901 0 discriminator 3
 224 0130 0298     		ldr	r0, [sp, #8]
 225 0132 0399     		ldr	r1, [sp, #12]
 226 0134 1218     		adds	r2, r2, r0
 227 0136 4B41     		adcs	r3, r3, r1
 228              		.loc 1 902 0 discriminator 3
 229 0138 3100     		movs	r1, r6
ARM GAS  C:\Users\Phuong\AppData\Local\Temp\ccOJzSrt.s 			page 21


 230 013a 1039     		subs	r1, r1, #16
 231 013c C900     		lsls	r1, r1, #3
 232 013e 2AA8     		add	r0, sp, #168
 233 0140 8446     		mov	ip, r0
 234 0142 6144     		add	r1, r1, ip
 235 0144 0868     		ldr	r0, [r1]
 236 0146 4968     		ldr	r1, [r1, #4]
 237 0148 1218     		adds	r2, r2, r0
 238 014a 4B41     		adcs	r3, r3, r1
 901:Source\azure_iot_sdk\c-utility\src/sha384-512.c ****         SHA512_sigma0(W[t - 15]) + W[t - 16];
 239              		.loc 1 901 0 discriminator 3
 240 014c F100     		lsls	r1, r6, #3
 241 014e 6144     		add	r1, r1, ip
 242 0150 0A60     		str	r2, [r1]
 243 0152 4B60     		str	r3, [r1, #4]
 900:Source\azure_iot_sdk\c-utility\src/sha384-512.c ****         W[t] = SHA512_sigma1(W[t - 2]) + W[t - 7] +
 244              		.loc 1 900 0 discriminator 3
 245 0154 0136     		adds	r6, r6, #1
 246              	.LVL6:
 247              	.L4:
 900:Source\azure_iot_sdk\c-utility\src/sha384-512.c ****         W[t] = SHA512_sigma1(W[t - 2]) + W[t - 7] +
 248              		.loc 1 900 0 is_stmt 0 discriminator 1
 249 0156 4F2E     		cmp	r6, #79
 250 0158 9BDD     		ble	.L5
 251 015a C346     		mov	fp, r8
 903:Source\azure_iot_sdk\c-utility\src/sha384-512.c **** 
 904:Source\azure_iot_sdk\c-utility\src/sha384-512.c ****     A = context->Intermediate_Hash[0];
 252              		.loc 1 904 0 is_stmt 1
 253 015c 4346     		mov	r3, r8
 254 015e 5C68     		ldr	r4, [r3, #4]
 255 0160 1B68     		ldr	r3, [r3]
 256 0162 1A93     		str	r3, [sp, #104]
 257 0164 1B94     		str	r4, [sp, #108]
 258              	.LVL7:
 905:Source\azure_iot_sdk\c-utility\src/sha384-512.c ****     B = context->Intermediate_Hash[1];
 259              		.loc 1 905 0
 260 0166 4146     		mov	r1, r8
 261 0168 CA68     		ldr	r2, [r1, #12]
 262 016a 8968     		ldr	r1, [r1, #8]
 263 016c 1C91     		str	r1, [sp, #112]
 264 016e 1D92     		str	r2, [sp, #116]
 265              	.LVL8:
 906:Source\azure_iot_sdk\c-utility\src/sha384-512.c ****     C = context->Intermediate_Hash[2];
 266              		.loc 1 906 0
 267 0170 4046     		mov	r0, r8
 268 0172 4169     		ldr	r1, [r0, #20]
 269 0174 0069     		ldr	r0, [r0, #16]
 270 0176 2490     		str	r0, [sp, #144]
 271 0178 2591     		str	r1, [sp, #148]
 272              	.LVL9:
 907:Source\azure_iot_sdk\c-utility\src/sha384-512.c ****     D = context->Intermediate_Hash[3];
 273              		.loc 1 907 0
 274 017a 4446     		mov	r4, r8
 275 017c E569     		ldr	r5, [r4, #28]
 276 017e A469     		ldr	r4, [r4, #24]
 277 0180 1E94     		str	r4, [sp, #120]
 278 0182 1F95     		str	r5, [sp, #124]
ARM GAS  C:\Users\Phuong\AppData\Local\Temp\ccOJzSrt.s 			page 22


 279              	.LVL10:
 908:Source\azure_iot_sdk\c-utility\src/sha384-512.c ****     E = context->Intermediate_Hash[4];
 280              		.loc 1 908 0
 281 0184 4546     		mov	r5, r8
 282 0186 6E6A     		ldr	r6, [r5, #36]
 283 0188 2D6A     		ldr	r5, [r5, #32]
 284 018a 2095     		str	r5, [sp, #128]
 285 018c 2196     		str	r6, [sp, #132]
 286              	.LVL11:
 909:Source\azure_iot_sdk\c-utility\src/sha384-512.c ****     F = context->Intermediate_Hash[5];
 287              		.loc 1 909 0
 288 018e 4746     		mov	r7, r8
 289 0190 BB6A     		ldr	r3, [r7, #40]
 290 0192 FC6A     		ldr	r4, [r7, #44]
 291              	.LVL12:
 292 0194 2293     		str	r3, [sp, #136]
 293 0196 2394     		str	r4, [sp, #140]
 294              	.LVL13:
 910:Source\azure_iot_sdk\c-utility\src/sha384-512.c ****     G = context->Intermediate_Hash[6];
 295              		.loc 1 910 0
 296 0198 3A6B     		ldr	r2, [r7, #48]
 297 019a 7B6B     		ldr	r3, [r7, #52]
 298 019c 2692     		str	r2, [sp, #152]
 299 019e 2793     		str	r3, [sp, #156]
 300              	.LVL14:
 911:Source\azure_iot_sdk\c-utility\src/sha384-512.c ****     H = context->Intermediate_Hash[7];
 301              		.loc 1 911 0
 302 01a0 BD6B     		ldr	r5, [r7, #56]
 303 01a2 FE6B     		ldr	r6, [r7, #60]
 304              	.LVL15:
 305 01a4 2895     		str	r5, [sp, #160]
 306 01a6 2996     		str	r6, [sp, #164]
 307              	.LVL16:
 308 01a8 1495     		str	r5, [sp, #80]
 309 01aa 1596     		str	r6, [sp, #84]
 910:Source\azure_iot_sdk\c-utility\src/sha384-512.c ****     G = context->Intermediate_Hash[6];
 310              		.loc 1 910 0
 311 01ac 0892     		str	r2, [sp, #32]
 312 01ae 0993     		str	r3, [sp, #36]
 909:Source\azure_iot_sdk\c-utility\src/sha384-512.c ****     F = context->Intermediate_Hash[5];
 313              		.loc 1 909 0
 314 01b0 229B     		ldr	r3, [sp, #136]
 315 01b2 239C     		ldr	r4, [sp, #140]
 316 01b4 0693     		str	r3, [sp, #24]
 317 01b6 0794     		str	r4, [sp, #28]
 908:Source\azure_iot_sdk\c-utility\src/sha384-512.c ****     F = context->Intermediate_Hash[5];
 318              		.loc 1 908 0
 319 01b8 209E     		ldr	r6, [sp, #128]
 320 01ba 219F     		ldr	r7, [sp, #132]
 907:Source\azure_iot_sdk\c-utility\src/sha384-512.c ****     E = context->Intermediate_Hash[4];
 321              		.loc 1 907 0
 322 01bc 1E9C     		ldr	r4, [sp, #120]
 323 01be 1F9D     		ldr	r5, [sp, #124]
 324 01c0 1294     		str	r4, [sp, #72]
 325 01c2 1395     		str	r5, [sp, #76]
 906:Source\azure_iot_sdk\c-utility\src/sha384-512.c ****     D = context->Intermediate_Hash[3];
 326              		.loc 1 906 0
ARM GAS  C:\Users\Phuong\AppData\Local\Temp\ccOJzSrt.s 			page 23


 327 01c4 0490     		str	r0, [sp, #16]
 328 01c6 0591     		str	r1, [sp, #20]
 905:Source\azure_iot_sdk\c-utility\src/sha384-512.c ****     C = context->Intermediate_Hash[2];
 329              		.loc 1 905 0
 330 01c8 1C99     		ldr	r1, [sp, #112]
 331 01ca 1D9A     		ldr	r2, [sp, #116]
 332 01cc 0291     		str	r1, [sp, #8]
 333 01ce 0392     		str	r2, [sp, #12]
 904:Source\azure_iot_sdk\c-utility\src/sha384-512.c ****     B = context->Intermediate_Hash[1];
 334              		.loc 1 904 0
 335 01d0 1A9A     		ldr	r2, [sp, #104]
 336 01d2 1B9B     		ldr	r3, [sp, #108]
 337              	.LVL17:
 912:Source\azure_iot_sdk\c-utility\src/sha384-512.c **** 
 913:Source\azure_iot_sdk\c-utility\src/sha384-512.c ****     for (t = 0; t < 80; t++) {
 338              		.loc 1 913 0
 339 01d4 0021     		movs	r1, #0
 340              	.LVL18:
 341 01d6 8846     		mov	r8, r1
 342              	.LVL19:
 343 01d8 0092     		str	r2, [sp]
 344 01da 0193     		str	r3, [sp, #4]
 345 01dc CAE0     		b	.L6
 346              	.L9:
 347 01de C046     		.align	2
 348              	.L8:
 349 01e0 D4FCFFFF 		.word	-812
 350              	.LVL20:
 351              	.L7:
 914:Source\azure_iot_sdk\c-utility\src/sha384-512.c ****         temp1 = H + SHA512_SIGMA1(E) + SHA_Ch(E, F, G) + K[t] + W[t];
 352              		.loc 1 914 0 discriminator 3
 353 01e4 B804     		lsls	r0, r7, #18
 354 01e6 B10B     		lsrs	r1, r6, #14
 355 01e8 0843     		orrs	r0, r1
 356 01ea 8446     		mov	ip, r0
 357 01ec B504     		lsls	r5, r6, #18
 358 01ee B90B     		lsrs	r1, r7, #14
 359 01f0 0D43     		orrs	r5, r1
 360 01f2 B803     		lsls	r0, r7, #14
 361 01f4 B10C     		lsrs	r1, r6, #18
 362 01f6 0843     		orrs	r0, r1
 363 01f8 B103     		lsls	r1, r6, #14
 364 01fa BC0C     		lsrs	r4, r7, #18
 365 01fc 2143     		orrs	r1, r4
 366 01fe 6346     		mov	r3, ip
 367              	.LVL21:
 368 0200 5840     		eors	r0, r3
 369 0202 6940     		eors	r1, r5
 370 0204 750A     		lsrs	r5, r6, #9
 371 0206 FC05     		lsls	r4, r7, #23
 372 0208 2C43     		orrs	r4, r5
 373 020a 7B0A     		lsrs	r3, r7, #9
 374 020c F505     		lsls	r5, r6, #23
 375 020e 1D43     		orrs	r5, r3
 376 0210 6840     		eors	r0, r5
 377 0212 0A90     		str	r0, [sp, #40]
 378 0214 6140     		eors	r1, r4
ARM GAS  C:\Users\Phuong\AppData\Local\Temp\ccOJzSrt.s 			page 24


 379 0216 0B91     		str	r1, [sp, #44]
 380 0218 1498     		ldr	r0, [sp, #80]
 381 021a 1599     		ldr	r1, [sp, #84]
 382 021c 0A9B     		ldr	r3, [sp, #40]
 383 021e 0B9C     		ldr	r4, [sp, #44]
 384 0220 C018     		adds	r0, r0, r3
 385 0222 6141     		adcs	r1, r1, r4
 386 0224 069B     		ldr	r3, [sp, #24]
 387 0226 079C     		ldr	r4, [sp, #28]
 388 0228 1A00     		movs	r2, r3
 389 022a 3240     		ands	r2, r6
 390 022c 9146     		mov	r9, r2
 391 022e 2500     		movs	r5, r4
 392 0230 3D40     		ands	r5, r7
 393 0232 089B     		ldr	r3, [sp, #32]
 394 0234 099C     		ldr	r4, [sp, #36]
 395 0236 1A00     		movs	r2, r3
 396 0238 B243     		bics	r2, r6
 397 023a 9446     		mov	ip, r2
 398 023c BC43     		bics	r4, r7
 399 023e 4A46     		mov	r2, r9
 400 0240 6346     		mov	r3, ip
 401 0242 5A40     		eors	r2, r3
 402 0244 0C92     		str	r2, [sp, #48]
 403 0246 6540     		eors	r5, r4
 404 0248 0D95     		str	r5, [sp, #52]
 405 024a 0C9A     		ldr	r2, [sp, #48]
 406 024c 0D9B     		ldr	r3, [sp, #52]
 407 024e 8018     		adds	r0, r0, r2
 408 0250 5941     		adcs	r1, r1, r3
 409 0252 4246     		mov	r2, r8
 410 0254 D200     		lsls	r2, r2, #3
 411 0256 9446     		mov	ip, r2
 412 0258 714C     		ldr	r4, .L10
 413 025a 6444     		add	r4, r4, ip
 414 025c 6568     		ldr	r5, [r4, #4]
 415 025e 2468     		ldr	r4, [r4]
 416 0260 2418     		adds	r4, r4, r0
 417 0262 4D41     		adcs	r5, r5, r1
 418 0264 2AAB     		add	r3, sp, #168
 419 0266 9946     		mov	r9, r3
 420 0268 CC44     		add	ip, ip, r9
 421 026a 6146     		mov	r1, ip
 422 026c 0868     		ldr	r0, [r1]
 423 026e 4968     		ldr	r1, [r1, #4]
 424 0270 2418     		adds	r4, r4, r0
 425 0272 4D41     		adcs	r5, r5, r1
 426 0274 1694     		str	r4, [sp, #88]
 427 0276 1795     		str	r5, [sp, #92]
 428              	.LVL22:
 915:Source\azure_iot_sdk\c-utility\src/sha384-512.c ****         temp2 = SHA512_SIGMA0(A) + SHA_Maj(A, B, C);
 429              		.loc 1 915 0 discriminator 3
 430 0278 009B     		ldr	r3, [sp]
 431 027a 019C     		ldr	r4, [sp, #4]
 432 027c 2001     		lsls	r0, r4, #4
 433 027e 190F     		lsrs	r1, r3, #28
 434 0280 0843     		orrs	r0, r1
ARM GAS  C:\Users\Phuong\AppData\Local\Temp\ccOJzSrt.s 			page 25


 435 0282 8146     		mov	r9, r0
 436 0284 1801     		lsls	r0, r3, #4
 437 0286 210F     		lsrs	r1, r4, #28
 438 0288 0843     		orrs	r0, r1
 439 028a 8446     		mov	ip, r0
 440 028c 9808     		lsrs	r0, r3, #2
 441 028e A107     		lsls	r1, r4, #30
 442 0290 0143     		orrs	r1, r0
 443 0292 A208     		lsrs	r2, r4, #2
 444 0294 9246     		mov	r10, r2
 445 0296 9807     		lsls	r0, r3, #30
 446 0298 5246     		mov	r2, r10
 447 029a 1043     		orrs	r0, r2
 448 029c 4A46     		mov	r2, r9
 449 029e 5040     		eors	r0, r2
 450 02a0 6246     		mov	r2, ip
 451 02a2 4A40     		eors	r2, r1
 452 02a4 9146     		mov	r9, r2
 453 02a6 DA09     		lsrs	r2, r3, #7
 454 02a8 9446     		mov	ip, r2
 455 02aa 6106     		lsls	r1, r4, #25
 456 02ac 6246     		mov	r2, ip
 457 02ae 0A43     		orrs	r2, r1
 458 02b0 9446     		mov	ip, r2
 459 02b2 E209     		lsrs	r2, r4, #7
 460 02b4 9246     		mov	r10, r2
 461 02b6 5906     		lsls	r1, r3, #25
 462 02b8 5246     		mov	r2, r10
 463 02ba 1143     		orrs	r1, r2
 464 02bc 4840     		eors	r0, r1
 465 02be 0E90     		str	r0, [sp, #56]
 466 02c0 4A46     		mov	r2, r9
 467 02c2 6046     		mov	r0, ip
 468 02c4 4240     		eors	r2, r0
 469 02c6 0F92     		str	r2, [sp, #60]
 470 02c8 029B     		ldr	r3, [sp, #8]
 471 02ca 039C     		ldr	r4, [sp, #12]
 472 02cc 1A00     		movs	r2, r3
 473 02ce 0098     		ldr	r0, [sp]
 474 02d0 0199     		ldr	r1, [sp, #4]
 475 02d2 0240     		ands	r2, r0
 476 02d4 9146     		mov	r9, r2
 477 02d6 2200     		movs	r2, r4
 478 02d8 0A40     		ands	r2, r1
 479 02da 9446     		mov	ip, r2
 480 02dc 049B     		ldr	r3, [sp, #16]
 481 02de 059C     		ldr	r4, [sp, #20]
 482 02e0 1800     		movs	r0, r3
 483 02e2 009A     		ldr	r2, [sp]
 484 02e4 1040     		ands	r0, r2
 485 02e6 2200     		movs	r2, r4
 486 02e8 019D     		ldr	r5, [sp, #4]
 487 02ea 2A40     		ands	r2, r5
 488 02ec 1100     		movs	r1, r2
 489 02ee 4A46     		mov	r2, r9
 490 02f0 5040     		eors	r0, r2
 491 02f2 6246     		mov	r2, ip
ARM GAS  C:\Users\Phuong\AppData\Local\Temp\ccOJzSrt.s 			page 26


 492 02f4 5140     		eors	r1, r2
 493 02f6 1A00     		movs	r2, r3
 494 02f8 029D     		ldr	r5, [sp, #8]
 495 02fa 2A40     		ands	r2, r5
 496 02fc 9146     		mov	r9, r2
 497 02fe 2200     		movs	r2, r4
 498 0300 039C     		ldr	r4, [sp, #12]
 499              	.LVL23:
 500 0302 2240     		ands	r2, r4
 501 0304 9446     		mov	ip, r2
 502 0306 4A46     		mov	r2, r9
 503 0308 4240     		eors	r2, r0
 504 030a 1092     		str	r2, [sp, #64]
 505 030c 6246     		mov	r2, ip
 506 030e 4A40     		eors	r2, r1
 507 0310 1192     		str	r2, [sp, #68]
 508 0312 0E98     		ldr	r0, [sp, #56]
 509 0314 0F99     		ldr	r1, [sp, #60]
 510 0316 109A     		ldr	r2, [sp, #64]
 511 0318 119B     		ldr	r3, [sp, #68]
 512 031a 8018     		adds	r0, r0, r2
 513 031c 5941     		adcs	r1, r1, r3
 514 031e 1890     		str	r0, [sp, #96]
 515 0320 1991     		str	r1, [sp, #100]
 516              	.LVL24:
 913:Source\azure_iot_sdk\c-utility\src/sha384-512.c ****         temp1 = H + SHA512_SIGMA1(E) + SHA_Ch(E, F, G) + K[t] + W[t];
 517              		.loc 1 913 0 discriminator 3
 518 0322 0122     		movs	r2, #1
 519 0324 9446     		mov	ip, r2
 520 0326 E044     		add	r8, r8, ip
 521              	.LVL25:
 916:Source\azure_iot_sdk\c-utility\src/sha384-512.c ****         H = G;
 522              		.loc 1 916 0 discriminator 3
 523 0328 0899     		ldr	r1, [sp, #32]
 524 032a 099A     		ldr	r2, [sp, #36]
 525 032c 1491     		str	r1, [sp, #80]
 526 032e 1592     		str	r2, [sp, #84]
 917:Source\azure_iot_sdk\c-utility\src/sha384-512.c ****         G = F;
 527              		.loc 1 917 0 discriminator 3
 528 0330 0699     		ldr	r1, [sp, #24]
 529 0332 079A     		ldr	r2, [sp, #28]
 530 0334 0891     		str	r1, [sp, #32]
 531 0336 0992     		str	r2, [sp, #36]
 532              	.LVL26:
 918:Source\azure_iot_sdk\c-utility\src/sha384-512.c ****         F = E;
 533              		.loc 1 918 0 discriminator 3
 534 0338 0696     		str	r6, [sp, #24]
 535 033a 0797     		str	r7, [sp, #28]
 536              	.LVL27:
 919:Source\azure_iot_sdk\c-utility\src/sha384-512.c ****         E = D + temp1;
 537              		.loc 1 919 0 discriminator 3
 538 033c 129E     		ldr	r6, [sp, #72]
 539 033e 139F     		ldr	r7, [sp, #76]
 540              	.LVL28:
 541 0340 1699     		ldr	r1, [sp, #88]
 542 0342 179A     		ldr	r2, [sp, #92]
 543              	.LVL29:
ARM GAS  C:\Users\Phuong\AppData\Local\Temp\ccOJzSrt.s 			page 27


 544 0344 0C00     		movs	r4, r1
 545 0346 1500     		movs	r5, r2
 546 0348 3619     		adds	r6, r6, r4
 547 034a 6F41     		adcs	r7, r7, r5
 920:Source\azure_iot_sdk\c-utility\src/sha384-512.c ****         D = C;
 548              		.loc 1 920 0 discriminator 3
 549 034c 049B     		ldr	r3, [sp, #16]
 550 034e 059C     		ldr	r4, [sp, #20]
 551 0350 1293     		str	r3, [sp, #72]
 552 0352 1394     		str	r4, [sp, #76]
 553              	.LVL30:
 921:Source\azure_iot_sdk\c-utility\src/sha384-512.c ****         C = B;
 554              		.loc 1 921 0 discriminator 3
 555 0354 029B     		ldr	r3, [sp, #8]
 556 0356 039C     		ldr	r4, [sp, #12]
 557              	.LVL31:
 558 0358 0493     		str	r3, [sp, #16]
 559 035a 0594     		str	r4, [sp, #20]
 922:Source\azure_iot_sdk\c-utility\src/sha384-512.c ****         B = A;
 560              		.loc 1 922 0 discriminator 3
 561 035c 009B     		ldr	r3, [sp]
 562 035e 019C     		ldr	r4, [sp, #4]
 563 0360 0293     		str	r3, [sp, #8]
 564 0362 0394     		str	r4, [sp, #12]
 565              	.LVL32:
 923:Source\azure_iot_sdk\c-utility\src/sha384-512.c ****         A = temp1 + temp2;
 566              		.loc 1 923 0 discriminator 3
 567 0364 1300     		movs	r3, r2
 568 0366 0A00     		movs	r2, r1
 569 0368 1898     		ldr	r0, [sp, #96]
 570 036a 1999     		ldr	r1, [sp, #100]
 571 036c 1218     		adds	r2, r2, r0
 572 036e 4B41     		adcs	r3, r3, r1
 573 0370 0092     		str	r2, [sp]
 574 0372 0193     		str	r3, [sp, #4]
 575              	.LVL33:
 576              	.L6:
 913:Source\azure_iot_sdk\c-utility\src/sha384-512.c ****         temp1 = H + SHA512_SIGMA1(E) + SHA_Ch(E, F, G) + K[t] + W[t];
 577              		.loc 1 913 0 discriminator 1
 578 0374 4346     		mov	r3, r8
 579 0376 4F2B     		cmp	r3, #79
 580 0378 00DC     		bgt	.LCB534
 581 037a 33E7     		b	.L7	@long jump
 582              	.LCB534:
 583 037c 009A     		ldr	r2, [sp]
 584 037e 019B     		ldr	r3, [sp, #4]
 924:Source\azure_iot_sdk\c-utility\src/sha384-512.c ****     }
 925:Source\azure_iot_sdk\c-utility\src/sha384-512.c **** 
 926:Source\azure_iot_sdk\c-utility\src/sha384-512.c ****     context->Intermediate_Hash[0] += A;
 585              		.loc 1 926 0
 586 0380 1A98     		ldr	r0, [sp, #104]
 587 0382 1B99     		ldr	r1, [sp, #108]
 588 0384 1218     		adds	r2, r2, r0
 589 0386 4B41     		adcs	r3, r3, r1
 590 0388 5946     		mov	r1, fp
 591 038a 0A60     		str	r2, [r1]
 592 038c 4B60     		str	r3, [r1, #4]
ARM GAS  C:\Users\Phuong\AppData\Local\Temp\ccOJzSrt.s 			page 28


 927:Source\azure_iot_sdk\c-utility\src/sha384-512.c ****     context->Intermediate_Hash[1] += B;
 593              		.loc 1 927 0
 594 038e 029A     		ldr	r2, [sp, #8]
 595 0390 039B     		ldr	r3, [sp, #12]
 596 0392 1C98     		ldr	r0, [sp, #112]
 597 0394 1D99     		ldr	r1, [sp, #116]
 598 0396 1218     		adds	r2, r2, r0
 599 0398 4B41     		adcs	r3, r3, r1
 600 039a 5946     		mov	r1, fp
 601 039c 8A60     		str	r2, [r1, #8]
 602 039e CB60     		str	r3, [r1, #12]
 928:Source\azure_iot_sdk\c-utility\src/sha384-512.c ****     context->Intermediate_Hash[2] += C;
 603              		.loc 1 928 0
 604 03a0 049A     		ldr	r2, [sp, #16]
 605 03a2 059B     		ldr	r3, [sp, #20]
 606 03a4 2498     		ldr	r0, [sp, #144]
 607 03a6 2599     		ldr	r1, [sp, #148]
 608 03a8 1218     		adds	r2, r2, r0
 609 03aa 4B41     		adcs	r3, r3, r1
 610 03ac 5946     		mov	r1, fp
 611 03ae 0A61     		str	r2, [r1, #16]
 612 03b0 4B61     		str	r3, [r1, #20]
 929:Source\azure_iot_sdk\c-utility\src/sha384-512.c ****     context->Intermediate_Hash[3] += D;
 613              		.loc 1 929 0
 614 03b2 129A     		ldr	r2, [sp, #72]
 615 03b4 139B     		ldr	r3, [sp, #76]
 616 03b6 1E98     		ldr	r0, [sp, #120]
 617 03b8 1F99     		ldr	r1, [sp, #124]
 618 03ba 1218     		adds	r2, r2, r0
 619 03bc 4B41     		adcs	r3, r3, r1
 620 03be 5946     		mov	r1, fp
 621 03c0 8A61     		str	r2, [r1, #24]
 622 03c2 CB61     		str	r3, [r1, #28]
 930:Source\azure_iot_sdk\c-utility\src/sha384-512.c ****     context->Intermediate_Hash[4] += E;
 623              		.loc 1 930 0
 624 03c4 209B     		ldr	r3, [sp, #128]
 625 03c6 219C     		ldr	r4, [sp, #132]
 626 03c8 F618     		adds	r6, r6, r3
 627 03ca 6741     		adcs	r7, r7, r4
 628              	.LVL34:
 629 03cc 0E62     		str	r6, [r1, #32]
 630 03ce 4F62     		str	r7, [r1, #36]
 931:Source\azure_iot_sdk\c-utility\src/sha384-512.c ****     context->Intermediate_Hash[5] += F;
 631              		.loc 1 931 0
 632 03d0 069A     		ldr	r2, [sp, #24]
 633 03d2 079B     		ldr	r3, [sp, #28]
 634 03d4 2298     		ldr	r0, [sp, #136]
 635 03d6 2399     		ldr	r1, [sp, #140]
 636 03d8 1218     		adds	r2, r2, r0
 637 03da 4B41     		adcs	r3, r3, r1
 638 03dc 5946     		mov	r1, fp
 639 03de 8A62     		str	r2, [r1, #40]
 640 03e0 CB62     		str	r3, [r1, #44]
 932:Source\azure_iot_sdk\c-utility\src/sha384-512.c ****     context->Intermediate_Hash[6] += G;
 641              		.loc 1 932 0
 642 03e2 089A     		ldr	r2, [sp, #32]
 643 03e4 099B     		ldr	r3, [sp, #36]
ARM GAS  C:\Users\Phuong\AppData\Local\Temp\ccOJzSrt.s 			page 29


 644 03e6 2698     		ldr	r0, [sp, #152]
 645 03e8 2799     		ldr	r1, [sp, #156]
 646 03ea 1218     		adds	r2, r2, r0
 647 03ec 4B41     		adcs	r3, r3, r1
 648 03ee 5946     		mov	r1, fp
 649 03f0 0A63     		str	r2, [r1, #48]
 650 03f2 4B63     		str	r3, [r1, #52]
 933:Source\azure_iot_sdk\c-utility\src/sha384-512.c ****     context->Intermediate_Hash[7] += H;
 651              		.loc 1 933 0
 652 03f4 1498     		ldr	r0, [sp, #80]
 653 03f6 1599     		ldr	r1, [sp, #84]
 654 03f8 289B     		ldr	r3, [sp, #160]
 655 03fa 299C     		ldr	r4, [sp, #164]
 656 03fc C018     		adds	r0, r0, r3
 657 03fe 6141     		adcs	r1, r1, r4
 658 0400 5B46     		mov	r3, fp
 659 0402 9863     		str	r0, [r3, #56]
 660 0404 D963     		str	r1, [r3, #60]
 934:Source\azure_iot_sdk\c-utility\src/sha384-512.c **** #endif /* USE_32BIT_ONLY */
 935:Source\azure_iot_sdk\c-utility\src/sha384-512.c **** 
 936:Source\azure_iot_sdk\c-utility\src/sha384-512.c ****     context->Message_Block_Index = 0;
 661              		.loc 1 936 0
 662 0406 0022     		movs	r2, #0
 663 0408 5023     		movs	r3, #80
 664 040a 5946     		mov	r1, fp
 665 040c CA52     		strh	r2, [r1, r3]
 937:Source\azure_iot_sdk\c-utility\src/sha384-512.c **** }
 666              		.loc 1 937 0
 667 040e CB23     		movs	r3, #203
 668 0410 9B00     		lsls	r3, r3, #2
 669 0412 9D44     		add	sp, sp, r3
 670              		@ sp needed
 671              	.LVL35:
 672              	.LVL36:
 673              	.LVL37:
 674 0414 3CBC     		pop	{r2, r3, r4, r5}
 675 0416 9046     		mov	r8, r2
 676 0418 9946     		mov	r9, r3
 677 041a A246     		mov	r10, r4
 678 041c AB46     		mov	fp, r5
 679 041e F0BD     		pop	{r4, r5, r6, r7, pc}
 680              	.L11:
 681              		.align	2
 682              	.L10:
 683 0420 00000000 		.word	.LANCHOR0
 684              		.cfi_endproc
 685              	.LFE10:
 686              		.size	SHA384_512ProcessMessageBlock, .-SHA384_512ProcessMessageBlock
 687              		.section	.text.SHA384_512PadMessage,"ax",%progbits
 688              		.align	2
 689              		.code	16
 690              		.thumb_func
 691              		.type	SHA384_512PadMessage, %function
 692              	SHA384_512PadMessage:
 693              	.LFB9:
 644:Source\azure_iot_sdk\c-utility\src/sha384-512.c ****     /*
 694              		.loc 1 644 0
ARM GAS  C:\Users\Phuong\AppData\Local\Temp\ccOJzSrt.s 			page 30


 695              		.cfi_startproc
 696              		@ args = 0, pretend = 0, frame = 0
 697              		@ frame_needed = 0, uses_anonymous_args = 0
 698              	.LVL38:
 699 0000 10B5     		push	{r4, lr}
 700              		.cfi_def_cfa_offset 8
 701              		.cfi_offset 4, -8
 702              		.cfi_offset 14, -4
 703 0002 0400     		movs	r4, r0
 651:Source\azure_iot_sdk\c-utility\src/sha384-512.c ****         context->Message_Block[context->Message_Block_Index++] = Pad_Byte;
 704              		.loc 1 651 0
 705 0004 5023     		movs	r3, #80
 706 0006 C35E     		ldrsh	r3, [r0, r3]
 707 0008 6F2B     		cmp	r3, #111
 708 000a 15DD     		ble	.L13
 652:Source\azure_iot_sdk\c-utility\src/sha384-512.c ****         while (context->Message_Block_Index < SHA512_Message_Block_Size)
 709              		.loc 1 652 0
 710 000c 581C     		adds	r0, r3, #1
 711              	.LVL39:
 712 000e 5022     		movs	r2, #80
 713 0010 A052     		strh	r0, [r4, r2]
 714 0012 E318     		adds	r3, r4, r3
 715 0014 5233     		adds	r3, r3, #82
 716 0016 1970     		strb	r1, [r3]
 653:Source\azure_iot_sdk\c-utility\src/sha384-512.c ****             context->Message_Block[context->Message_Block_Index++] = 0;
 717              		.loc 1 653 0
 718 0018 06E0     		b	.L14
 719              	.LVL40:
 720              	.L15:
 654:Source\azure_iot_sdk\c-utility\src/sha384-512.c **** 
 721              		.loc 1 654 0
 722 001a 591C     		adds	r1, r3, #1
 723 001c 5022     		movs	r2, #80
 724 001e A152     		strh	r1, [r4, r2]
 725 0020 E318     		adds	r3, r4, r3
 726 0022 5233     		adds	r3, r3, #82
 727 0024 0022     		movs	r2, #0
 728 0026 1A70     		strb	r2, [r3]
 729              	.L14:
 653:Source\azure_iot_sdk\c-utility\src/sha384-512.c ****             context->Message_Block[context->Message_Block_Index++] = 0;
 730              		.loc 1 653 0
 731 0028 5023     		movs	r3, #80
 732 002a E35E     		ldrsh	r3, [r4, r3]
 733 002c 7F2B     		cmp	r3, #127
 734 002e F4DD     		ble	.L15
 656:Source\azure_iot_sdk\c-utility\src/sha384-512.c ****     }
 735              		.loc 1 656 0
 736 0030 2000     		movs	r0, r4
 737 0032 FFF7FEFF 		bl	SHA384_512ProcessMessageBlock
 738              	.LVL41:
 739 0036 0DE0     		b	.L16
 740              	.LVL42:
 741              	.L13:
 659:Source\azure_iot_sdk\c-utility\src/sha384-512.c **** 
 742              		.loc 1 659 0
 743 0038 581C     		adds	r0, r3, #1
 744              	.LVL43:
ARM GAS  C:\Users\Phuong\AppData\Local\Temp\ccOJzSrt.s 			page 31


 745 003a 5022     		movs	r2, #80
 746 003c A052     		strh	r0, [r4, r2]
 747 003e E318     		adds	r3, r4, r3
 748 0040 5233     		adds	r3, r3, #82
 749 0042 1970     		strb	r1, [r3]
 750 0044 06E0     		b	.L16
 751              	.LVL44:
 752              	.L18:
 662:Source\azure_iot_sdk\c-utility\src/sha384-512.c **** 
 753              		.loc 1 662 0
 754 0046 591C     		adds	r1, r3, #1
 755 0048 5022     		movs	r2, #80
 756 004a A152     		strh	r1, [r4, r2]
 757 004c E318     		adds	r3, r4, r3
 758 004e 5233     		adds	r3, r3, #82
 759 0050 0022     		movs	r2, #0
 760 0052 1A70     		strb	r2, [r3]
 761              	.L16:
 661:Source\azure_iot_sdk\c-utility\src/sha384-512.c ****         context->Message_Block[context->Message_Block_Index++] = 0;
 762              		.loc 1 661 0
 763 0054 5023     		movs	r3, #80
 764 0056 E35E     		ldrsh	r3, [r4, r3]
 765 0058 6F2B     		cmp	r3, #111
 766 005a F4DD     		ble	.L18
 686:Source\azure_iot_sdk\c-utility\src/sha384-512.c ****     context->Message_Block[113] = (uint8_t)(context->Length_High >> 48);
 767              		.loc 1 686 0
 768 005c A36C     		ldr	r3, [r4, #72]
 769 005e E26C     		ldr	r2, [r4, #76]
 770 0060 100E     		lsrs	r0, r2, #24
 771 0062 C221     		movs	r1, #194
 772 0064 6054     		strb	r0, [r4, r1]
 687:Source\azure_iot_sdk\c-utility\src/sha384-512.c ****     context->Message_Block[114] = (uint8_t)(context->Length_High >> 40);
 773              		.loc 1 687 0
 774 0066 100C     		lsrs	r0, r2, #16
 775 0068 0131     		adds	r1, r1, #1
 776 006a 6054     		strb	r0, [r4, r1]
 688:Source\azure_iot_sdk\c-utility\src/sha384-512.c ****     context->Message_Block[115] = (uint8_t)(context->Length_High >> 32);
 777              		.loc 1 688 0
 778 006c 100A     		lsrs	r0, r2, #8
 779 006e 0131     		adds	r1, r1, #1
 780 0070 6054     		strb	r0, [r4, r1]
 689:Source\azure_iot_sdk\c-utility\src/sha384-512.c ****     context->Message_Block[116] = (uint8_t)(context->Length_High >> 24);
 781              		.loc 1 689 0
 782 0072 0131     		adds	r1, r1, #1
 783 0074 6254     		strb	r2, [r4, r1]
 690:Source\azure_iot_sdk\c-utility\src/sha384-512.c ****     context->Message_Block[117] = (uint8_t)(context->Length_High >> 16);
 784              		.loc 1 690 0
 785 0076 190E     		lsrs	r1, r3, #24
 786 0078 C622     		movs	r2, #198
 787 007a A154     		strb	r1, [r4, r2]
 691:Source\azure_iot_sdk\c-utility\src/sha384-512.c ****     context->Message_Block[118] = (uint8_t)(context->Length_High >> 8);
 788              		.loc 1 691 0
 789 007c 190C     		lsrs	r1, r3, #16
 790 007e 0132     		adds	r2, r2, #1
 791 0080 A154     		strb	r1, [r4, r2]
 692:Source\azure_iot_sdk\c-utility\src/sha384-512.c ****     context->Message_Block[119] = (uint8_t)(context->Length_High);
 792              		.loc 1 692 0
ARM GAS  C:\Users\Phuong\AppData\Local\Temp\ccOJzSrt.s 			page 32


 793 0082 190A     		lsrs	r1, r3, #8
 794 0084 0132     		adds	r2, r2, #1
 795 0086 A154     		strb	r1, [r4, r2]
 693:Source\azure_iot_sdk\c-utility\src/sha384-512.c **** 
 796              		.loc 1 693 0
 797 0088 0132     		adds	r2, r2, #1
 798 008a A354     		strb	r3, [r4, r2]
 695:Source\azure_iot_sdk\c-utility\src/sha384-512.c ****     context->Message_Block[121] = (uint8_t)(context->Length_Low >> 48);
 799              		.loc 1 695 0
 800 008c 236C     		ldr	r3, [r4, #64]
 801 008e 626C     		ldr	r2, [r4, #68]
 802 0090 100E     		lsrs	r0, r2, #24
 803 0092 CA21     		movs	r1, #202
 804 0094 6054     		strb	r0, [r4, r1]
 696:Source\azure_iot_sdk\c-utility\src/sha384-512.c ****     context->Message_Block[122] = (uint8_t)(context->Length_Low >> 40);
 805              		.loc 1 696 0
 806 0096 100C     		lsrs	r0, r2, #16
 807 0098 0131     		adds	r1, r1, #1
 808 009a 6054     		strb	r0, [r4, r1]
 697:Source\azure_iot_sdk\c-utility\src/sha384-512.c ****     context->Message_Block[123] = (uint8_t)(context->Length_Low >> 32);
 809              		.loc 1 697 0
 810 009c 100A     		lsrs	r0, r2, #8
 811 009e 0131     		adds	r1, r1, #1
 812 00a0 6054     		strb	r0, [r4, r1]
 698:Source\azure_iot_sdk\c-utility\src/sha384-512.c ****     context->Message_Block[124] = (uint8_t)(context->Length_Low >> 24);
 813              		.loc 1 698 0
 814 00a2 0131     		adds	r1, r1, #1
 815 00a4 6254     		strb	r2, [r4, r1]
 699:Source\azure_iot_sdk\c-utility\src/sha384-512.c ****     context->Message_Block[125] = (uint8_t)(context->Length_Low >> 16);
 816              		.loc 1 699 0
 817 00a6 190E     		lsrs	r1, r3, #24
 818 00a8 CE22     		movs	r2, #206
 819 00aa A154     		strb	r1, [r4, r2]
 700:Source\azure_iot_sdk\c-utility\src/sha384-512.c ****     context->Message_Block[126] = (uint8_t)(context->Length_Low >> 8);
 820              		.loc 1 700 0
 821 00ac 190C     		lsrs	r1, r3, #16
 822 00ae 0132     		adds	r2, r2, #1
 823 00b0 A154     		strb	r1, [r4, r2]
 701:Source\azure_iot_sdk\c-utility\src/sha384-512.c ****     context->Message_Block[127] = (uint8_t)(context->Length_Low);
 824              		.loc 1 701 0
 825 00b2 190A     		lsrs	r1, r3, #8
 826 00b4 0132     		adds	r2, r2, #1
 827 00b6 A154     		strb	r1, [r4, r2]
 702:Source\azure_iot_sdk\c-utility\src/sha384-512.c **** #endif /* USE_32BIT_ONLY */
 828              		.loc 1 702 0
 829 00b8 0132     		adds	r2, r2, #1
 830 00ba A354     		strb	r3, [r4, r2]
 705:Source\azure_iot_sdk\c-utility\src/sha384-512.c **** }
 831              		.loc 1 705 0
 832 00bc 2000     		movs	r0, r4
 833 00be FFF7FEFF 		bl	SHA384_512ProcessMessageBlock
 834              	.LVL45:
 706:Source\azure_iot_sdk\c-utility\src/sha384-512.c **** 
 835              		.loc 1 706 0
 836              		@ sp needed
 837              	.LVL46:
 838 00c2 10BD     		pop	{r4, pc}
ARM GAS  C:\Users\Phuong\AppData\Local\Temp\ccOJzSrt.s 			page 33


 839              		.cfi_endproc
 840              	.LFE9:
 841              		.size	SHA384_512PadMessage, .-SHA384_512PadMessage
 842              		.section	.text.SHA384_512Finalize,"ax",%progbits
 843              		.align	2
 844              		.code	16
 845              		.thumb_func
 846              		.type	SHA384_512Finalize, %function
 847              	SHA384_512Finalize:
 848              	.LFB7:
 576:Source\azure_iot_sdk\c-utility\src/sha384-512.c ****     int_least16_t i;
 849              		.loc 1 576 0
 850              		.cfi_startproc
 851              		@ args = 0, pretend = 0, frame = 0
 852              		@ frame_needed = 0, uses_anonymous_args = 0
 853              	.LVL47:
 854 0000 10B5     		push	{r4, lr}
 855              		.cfi_def_cfa_offset 8
 856              		.cfi_offset 4, -8
 857              		.cfi_offset 14, -4
 858 0002 0400     		movs	r4, r0
 578:Source\azure_iot_sdk\c-utility\src/sha384-512.c ****     /* message may be sensitive, clear it out */
 859              		.loc 1 578 0
 860 0004 FFF7FEFF 		bl	SHA384_512PadMessage
 861              	.LVL48:
 580:Source\azure_iot_sdk\c-utility\src/sha384-512.c ****         context->Message_Block[i] = 0;
 862              		.loc 1 580 0
 863 0008 0023     		movs	r3, #0
 864 000a 05E0     		b	.L20
 865              	.LVL49:
 866              	.L21:
 581:Source\azure_iot_sdk\c-utility\src/sha384-512.c **** #ifdef USE_32BIT_ONLY    /* and clear length */
 867              		.loc 1 581 0 discriminator 3
 868 000c E218     		adds	r2, r4, r3
 869 000e 5232     		adds	r2, r2, #82
 870 0010 0021     		movs	r1, #0
 871 0012 1170     		strb	r1, [r2]
 580:Source\azure_iot_sdk\c-utility\src/sha384-512.c ****         context->Message_Block[i] = 0;
 872              		.loc 1 580 0 discriminator 3
 873 0014 0133     		adds	r3, r3, #1
 874              	.LVL50:
 875 0016 1BB2     		sxth	r3, r3
 876              	.LVL51:
 877              	.L20:
 580:Source\azure_iot_sdk\c-utility\src/sha384-512.c ****         context->Message_Block[i] = 0;
 878              		.loc 1 580 0 is_stmt 0 discriminator 1
 879 0018 7F2B     		cmp	r3, #127
 880 001a F7DD     		ble	.L21
 586:Source\azure_iot_sdk\c-utility\src/sha384-512.c ****     context->Length_High = 0;
 881              		.loc 1 586 0 is_stmt 1
 882 001c 0022     		movs	r2, #0
 883 001e 0023     		movs	r3, #0
 884              	.LVL52:
 885 0020 2264     		str	r2, [r4, #64]
 886 0022 6364     		str	r3, [r4, #68]
 587:Source\azure_iot_sdk\c-utility\src/sha384-512.c **** #endif /* USE_32BIT_ONLY */
 887              		.loc 1 587 0
ARM GAS  C:\Users\Phuong\AppData\Local\Temp\ccOJzSrt.s 			page 34


 888 0024 A264     		str	r2, [r4, #72]
 889 0026 E364     		str	r3, [r4, #76]
 589:Source\azure_iot_sdk\c-utility\src/sha384-512.c **** }
 890              		.loc 1 589 0
 891 0028 0132     		adds	r2, r2, #1
 892 002a D423     		movs	r3, #212
 893 002c E250     		str	r2, [r4, r3]
 590:Source\azure_iot_sdk\c-utility\src/sha384-512.c **** 
 894              		.loc 1 590 0
 895              		@ sp needed
 896              	.LVL53:
 897 002e 10BD     		pop	{r4, pc}
 898              		.cfi_endproc
 899              	.LFE7:
 900              		.size	SHA384_512Finalize, .-SHA384_512Finalize
 901              		.section	.text.SHA384_512Reset,"ax",%progbits
 902              		.align	2
 903              		.code	16
 904              		.thumb_func
 905              		.type	SHA384_512Reset, %function
 906              	SHA384_512Reset:
 907              	.LFB11:
 938:Source\azure_iot_sdk\c-utility\src/sha384-512.c **** 
 939:Source\azure_iot_sdk\c-utility\src/sha384-512.c **** /*
 940:Source\azure_iot_sdk\c-utility\src/sha384-512.c **** * SHA384_512Reset
 941:Source\azure_iot_sdk\c-utility\src/sha384-512.c **** *
 942:Source\azure_iot_sdk\c-utility\src/sha384-512.c **** * Description:
 943:Source\azure_iot_sdk\c-utility\src/sha384-512.c **** *   This helper function will initialize the SHA512Context in
 944:Source\azure_iot_sdk\c-utility\src/sha384-512.c **** *   preparation for computing a new SHA384 or SHA512 message
 945:Source\azure_iot_sdk\c-utility\src/sha384-512.c **** *   digest.
 946:Source\azure_iot_sdk\c-utility\src/sha384-512.c **** *
 947:Source\azure_iot_sdk\c-utility\src/sha384-512.c **** * Parameters:
 948:Source\azure_iot_sdk\c-utility\src/sha384-512.c **** *   context: [in/out]
 949:Source\azure_iot_sdk\c-utility\src/sha384-512.c **** *     The context to reset.
 950:Source\azure_iot_sdk\c-utility\src/sha384-512.c **** *   H0
 951:Source\azure_iot_sdk\c-utility\src/sha384-512.c **** *     The initial hash value to use.
 952:Source\azure_iot_sdk\c-utility\src/sha384-512.c **** *
 953:Source\azure_iot_sdk\c-utility\src/sha384-512.c **** * Returns:
 954:Source\azure_iot_sdk\c-utility\src/sha384-512.c **** *   sha Error Code.
 955:Source\azure_iot_sdk\c-utility\src/sha384-512.c **** *
 956:Source\azure_iot_sdk\c-utility\src/sha384-512.c **** */
 957:Source\azure_iot_sdk\c-utility\src/sha384-512.c **** #ifdef USE_32BIT_ONLY
 958:Source\azure_iot_sdk\c-utility\src/sha384-512.c **** static int SHA384_512Reset(SHA512Context *context, uint32_t H0[])
 959:Source\azure_iot_sdk\c-utility\src/sha384-512.c **** #else /* !USE_32BIT_ONLY */
 960:Source\azure_iot_sdk\c-utility\src/sha384-512.c **** static int SHA384_512Reset(SHA512Context *context, uint64_t H0[])
 961:Source\azure_iot_sdk\c-utility\src/sha384-512.c **** #endif /* USE_32BIT_ONLY */
 962:Source\azure_iot_sdk\c-utility\src/sha384-512.c **** {
 908              		.loc 1 962 0
 909              		.cfi_startproc
 910              		@ args = 0, pretend = 0, frame = 0
 911              		@ frame_needed = 0, uses_anonymous_args = 0
 912              	.LVL54:
 913 0000 30B5     		push	{r4, r5, lr}
 914              		.cfi_def_cfa_offset 12
 915              		.cfi_offset 4, -12
 916              		.cfi_offset 5, -8
 917              		.cfi_offset 14, -4
ARM GAS  C:\Users\Phuong\AppData\Local\Temp\ccOJzSrt.s 			page 35


 963:Source\azure_iot_sdk\c-utility\src/sha384-512.c ****     int i;
 964:Source\azure_iot_sdk\c-utility\src/sha384-512.c ****     if (!context)
 918              		.loc 1 964 0
 919 0002 0028     		cmp	r0, #0
 920 0004 1AD0     		beq	.L26
 965:Source\azure_iot_sdk\c-utility\src/sha384-512.c ****         return shaNull;
 966:Source\azure_iot_sdk\c-utility\src/sha384-512.c **** 
 967:Source\azure_iot_sdk\c-utility\src/sha384-512.c ****     context->Message_Block_Index = 0;
 921              		.loc 1 967 0
 922 0006 0022     		movs	r2, #0
 923 0008 5023     		movs	r3, #80
 924 000a C252     		strh	r2, [r0, r3]
 968:Source\azure_iot_sdk\c-utility\src/sha384-512.c **** 
 969:Source\azure_iot_sdk\c-utility\src/sha384-512.c **** #ifdef USE_32BIT_ONLY
 970:Source\azure_iot_sdk\c-utility\src/sha384-512.c ****     context->Length[0] = context->Length[1] = 0;
 971:Source\azure_iot_sdk\c-utility\src/sha384-512.c ****     context->Length[2] = context->Length[3] = 0;
 972:Source\azure_iot_sdk\c-utility\src/sha384-512.c **** 
 973:Source\azure_iot_sdk\c-utility\src/sha384-512.c ****     for (i = 0; i < SHA512HashSize / 4; i++)
 974:Source\azure_iot_sdk\c-utility\src/sha384-512.c ****         context->Intermediate_Hash[i] = H0[i];
 975:Source\azure_iot_sdk\c-utility\src/sha384-512.c **** #else /* !USE_32BIT_ONLY */
 976:Source\azure_iot_sdk\c-utility\src/sha384-512.c ****     context->Length_High = context->Length_Low = 0;
 925              		.loc 1 976 0
 926 000c 0022     		movs	r2, #0
 927 000e 0023     		movs	r3, #0
 928 0010 0264     		str	r2, [r0, #64]
 929 0012 4364     		str	r3, [r0, #68]
 930 0014 8264     		str	r2, [r0, #72]
 931 0016 C364     		str	r3, [r0, #76]
 932              	.LVL55:
 977:Source\azure_iot_sdk\c-utility\src/sha384-512.c **** 
 978:Source\azure_iot_sdk\c-utility\src/sha384-512.c ****     for (i = 0; i < SHA512HashSize / 8; i++)
 933              		.loc 1 978 0
 934 0018 07E0     		b	.L24
 935              	.LVL56:
 936              	.L25:
 979:Source\azure_iot_sdk\c-utility\src/sha384-512.c ****         context->Intermediate_Hash[i] = H0[i];
 937              		.loc 1 979 0 discriminator 3
 938 001a D300     		lsls	r3, r2, #3
 939 001c CC18     		adds	r4, r1, r3
 940 001e 6568     		ldr	r5, [r4, #4]
 941 0020 2468     		ldr	r4, [r4]
 942 0022 C318     		adds	r3, r0, r3
 943 0024 1C60     		str	r4, [r3]
 944 0026 5D60     		str	r5, [r3, #4]
 978:Source\azure_iot_sdk\c-utility\src/sha384-512.c ****         context->Intermediate_Hash[i] = H0[i];
 945              		.loc 1 978 0 discriminator 3
 946 0028 0132     		adds	r2, r2, #1
 947              	.LVL57:
 948              	.L24:
 978:Source\azure_iot_sdk\c-utility\src/sha384-512.c ****         context->Intermediate_Hash[i] = H0[i];
 949              		.loc 1 978 0 is_stmt 0 discriminator 1
 950 002a 072A     		cmp	r2, #7
 951 002c F5DD     		ble	.L25
 980:Source\azure_iot_sdk\c-utility\src/sha384-512.c **** #endif /* USE_32BIT_ONLY */
 981:Source\azure_iot_sdk\c-utility\src/sha384-512.c **** 
 982:Source\azure_iot_sdk\c-utility\src/sha384-512.c ****     context->Computed = 0;
 952              		.loc 1 982 0 is_stmt 1
ARM GAS  C:\Users\Phuong\AppData\Local\Temp\ccOJzSrt.s 			page 36


 953 002e 0023     		movs	r3, #0
 954 0030 D422     		movs	r2, #212
 955              	.LVL58:
 956 0032 8350     		str	r3, [r0, r2]
 983:Source\azure_iot_sdk\c-utility\src/sha384-512.c ****     context->Corrupted = 0;
 957              		.loc 1 983 0
 958 0034 0432     		adds	r2, r2, #4
 959 0036 8350     		str	r3, [r0, r2]
 984:Source\azure_iot_sdk\c-utility\src/sha384-512.c **** 
 985:Source\azure_iot_sdk\c-utility\src/sha384-512.c ****     return shaSuccess;
 960              		.loc 1 985 0
 961 0038 0020     		movs	r0, #0
 962              	.LVL59:
 963 003a 00E0     		b	.L23
 964              	.LVL60:
 965              	.L26:
 965:Source\azure_iot_sdk\c-utility\src/sha384-512.c **** 
 966              		.loc 1 965 0
 967 003c 0120     		movs	r0, #1
 968              	.LVL61:
 969              	.L23:
 986:Source\azure_iot_sdk\c-utility\src/sha384-512.c **** }
 970              		.loc 1 986 0
 971              		@ sp needed
 972 003e 30BD     		pop	{r4, r5, pc}
 973              		.cfi_endproc
 974              	.LFE11:
 975              		.size	SHA384_512Reset, .-SHA384_512Reset
 976              		.section	.text.SHA384_512ResultN,"ax",%progbits
 977              		.align	2
 978              		.code	16
 979              		.thumb_func
 980              		.type	SHA384_512ResultN, %function
 981              	SHA384_512ResultN:
 982              	.LFB12:
 987:Source\azure_iot_sdk\c-utility\src/sha384-512.c **** 
 988:Source\azure_iot_sdk\c-utility\src/sha384-512.c **** /*
 989:Source\azure_iot_sdk\c-utility\src/sha384-512.c **** * SHA384_512ResultN
 990:Source\azure_iot_sdk\c-utility\src/sha384-512.c **** *
 991:Source\azure_iot_sdk\c-utility\src/sha384-512.c **** * Description:
 992:Source\azure_iot_sdk\c-utility\src/sha384-512.c **** *   This helper function will return the 384-bit or 512-bit message
 993:Source\azure_iot_sdk\c-utility\src/sha384-512.c **** *   digest into the Message_Digest array provided by the caller.
 994:Source\azure_iot_sdk\c-utility\src/sha384-512.c **** *   NOTE: The first octet of hash is stored in the 0th element,
 995:Source\azure_iot_sdk\c-utility\src/sha384-512.c **** *      the last octet of hash in the 48th/64th element.
 996:Source\azure_iot_sdk\c-utility\src/sha384-512.c **** *
 997:Source\azure_iot_sdk\c-utility\src/sha384-512.c **** * Parameters:
 998:Source\azure_iot_sdk\c-utility\src/sha384-512.c **** *   context: [in/out]
 999:Source\azure_iot_sdk\c-utility\src/sha384-512.c **** *     The context to use to calculate the SHA hash.
1000:Source\azure_iot_sdk\c-utility\src/sha384-512.c **** *   Message_Digest: [out]
1001:Source\azure_iot_sdk\c-utility\src/sha384-512.c **** *     Where the digest is returned.
1002:Source\azure_iot_sdk\c-utility\src/sha384-512.c **** *   HashSize: [in]
1003:Source\azure_iot_sdk\c-utility\src/sha384-512.c **** *     The size of the hash, either 48 or 64.
1004:Source\azure_iot_sdk\c-utility\src/sha384-512.c **** *
1005:Source\azure_iot_sdk\c-utility\src/sha384-512.c **** * Returns:
1006:Source\azure_iot_sdk\c-utility\src/sha384-512.c **** *   sha Error Code.
1007:Source\azure_iot_sdk\c-utility\src/sha384-512.c **** *
1008:Source\azure_iot_sdk\c-utility\src/sha384-512.c **** */
ARM GAS  C:\Users\Phuong\AppData\Local\Temp\ccOJzSrt.s 			page 37


1009:Source\azure_iot_sdk\c-utility\src/sha384-512.c **** static int SHA384_512ResultN(SHA512Context *context,
1010:Source\azure_iot_sdk\c-utility\src/sha384-512.c ****     uint8_t Message_Digest[], int HashSize)
1011:Source\azure_iot_sdk\c-utility\src/sha384-512.c **** {
 983              		.loc 1 1011 0
 984              		.cfi_startproc
 985              		@ args = 0, pretend = 0, frame = 0
 986              		@ frame_needed = 0, uses_anonymous_args = 0
 987              	.LVL62:
 988 0000 F0B5     		push	{r4, r5, r6, r7, lr}
 989              		.cfi_def_cfa_offset 20
 990              		.cfi_offset 4, -20
 991              		.cfi_offset 5, -16
 992              		.cfi_offset 6, -12
 993              		.cfi_offset 7, -8
 994              		.cfi_offset 14, -4
 995 0002 5746     		mov	r7, r10
 996 0004 4E46     		mov	r6, r9
 997 0006 4546     		mov	r5, r8
 998 0008 E0B4     		push	{r5, r6, r7}
 999              		.cfi_def_cfa_offset 32
 1000              		.cfi_offset 8, -32
 1001              		.cfi_offset 9, -28
 1002              		.cfi_offset 10, -24
 1003 000a 0400     		movs	r4, r0
 1004 000c 0D00     		movs	r5, r1
 1005 000e 9246     		mov	r10, r2
1012:Source\azure_iot_sdk\c-utility\src/sha384-512.c ****     int i;
1013:Source\azure_iot_sdk\c-utility\src/sha384-512.c **** 
1014:Source\azure_iot_sdk\c-utility\src/sha384-512.c **** #ifdef USE_32BIT_ONLY
1015:Source\azure_iot_sdk\c-utility\src/sha384-512.c ****     int i2;
1016:Source\azure_iot_sdk\c-utility\src/sha384-512.c **** #endif /* USE_32BIT_ONLY */
1017:Source\azure_iot_sdk\c-utility\src/sha384-512.c **** 
1018:Source\azure_iot_sdk\c-utility\src/sha384-512.c ****     if (!context || !Message_Digest)
 1006              		.loc 1 1018 0
 1007 0010 0028     		cmp	r0, #0
 1008 0012 30D0     		beq	.L34
 1009              		.loc 1 1018 0 is_stmt 0 discriminator 1
 1010 0014 0029     		cmp	r1, #0
 1011 0016 31D0     		beq	.L35
1019:Source\azure_iot_sdk\c-utility\src/sha384-512.c ****         return shaNull;
1020:Source\azure_iot_sdk\c-utility\src/sha384-512.c **** 
1021:Source\azure_iot_sdk\c-utility\src/sha384-512.c ****     if (context->Corrupted)
 1012              		.loc 1 1021 0 is_stmt 1
 1013 0018 D823     		movs	r3, #216
 1014 001a C358     		ldr	r3, [r0, r3]
 1015 001c 9946     		mov	r9, r3
 1016 001e 002B     		cmp	r3, #0
 1017 0020 2ED1     		bne	.L28
1022:Source\azure_iot_sdk\c-utility\src/sha384-512.c ****         return context->Corrupted;
1023:Source\azure_iot_sdk\c-utility\src/sha384-512.c **** 
1024:Source\azure_iot_sdk\c-utility\src/sha384-512.c ****     if (!context->Computed)
 1018              		.loc 1 1024 0
 1019 0022 D433     		adds	r3, r3, #212
 1020 0024 C358     		ldr	r3, [r0, r3]
 1021 0026 002B     		cmp	r3, #0
 1022 0028 02D1     		bne	.L29
1025:Source\azure_iot_sdk\c-utility\src/sha384-512.c ****         SHA384_512Finalize(context, 0x80);
ARM GAS  C:\Users\Phuong\AppData\Local\Temp\ccOJzSrt.s 			page 38


 1023              		.loc 1 1025 0
 1024 002a 8021     		movs	r1, #128
 1025              	.LVL63:
 1026 002c FFF7FEFF 		bl	SHA384_512Finalize
 1027              	.LVL64:
 1028              	.L29:
1011:Source\azure_iot_sdk\c-utility\src/sha384-512.c ****     int i;
 1029              		.loc 1 1011 0 discriminator 1
 1030 0030 0021     		movs	r1, #0
 1031 0032 1DE0     		b	.L30
 1032              	.LVL65:
 1033              	.L33:
1026:Source\azure_iot_sdk\c-utility\src/sha384-512.c **** 
1027:Source\azure_iot_sdk\c-utility\src/sha384-512.c **** #ifdef USE_32BIT_ONLY
1028:Source\azure_iot_sdk\c-utility\src/sha384-512.c ****     for (i = i2 = 0; i < HashSize;) {
1029:Source\azure_iot_sdk\c-utility\src/sha384-512.c ****         Message_Digest[i++] = (uint8_t)(context->Intermediate_Hash[i2] >> 24);
1030:Source\azure_iot_sdk\c-utility\src/sha384-512.c ****         Message_Digest[i++] = (uint8_t)(context->Intermediate_Hash[i2] >> 16);
1031:Source\azure_iot_sdk\c-utility\src/sha384-512.c ****         Message_Digest[i++] = (uint8_t)(context->Intermediate_Hash[i2] >> 8);
1032:Source\azure_iot_sdk\c-utility\src/sha384-512.c ****         Message_Digest[i++] = (uint8_t)(context->Intermediate_Hash[i2++]);
1033:Source\azure_iot_sdk\c-utility\src/sha384-512.c ****         Message_Digest[i++] = (uint8_t)(context->Intermediate_Hash[i2] >> 24);
1034:Source\azure_iot_sdk\c-utility\src/sha384-512.c ****         Message_Digest[i++] = (uint8_t)(context->Intermediate_Hash[i2] >> 16);
1035:Source\azure_iot_sdk\c-utility\src/sha384-512.c ****         Message_Digest[i++] = (uint8_t)(context->Intermediate_Hash[i2] >> 8);
1036:Source\azure_iot_sdk\c-utility\src/sha384-512.c ****         Message_Digest[i++] = (uint8_t)(context->Intermediate_Hash[i2++]);
1037:Source\azure_iot_sdk\c-utility\src/sha384-512.c ****     }
1038:Source\azure_iot_sdk\c-utility\src/sha384-512.c **** #else /* !USE_32BIT_ONLY */
1039:Source\azure_iot_sdk\c-utility\src/sha384-512.c ****     for (i = 0; i < HashSize; ++i)
1040:Source\azure_iot_sdk\c-utility\src/sha384-512.c ****         Message_Digest[i] = (uint8_t)
 1034              		.loc 1 1040 0 discriminator 3
 1035 0034 6818     		adds	r0, r5, r1
1041:Source\azure_iot_sdk\c-utility\src/sha384-512.c ****         (context->Intermediate_Hash[i >> 3] >> 8 * (7 - (i % 8)));
 1036              		.loc 1 1041 0 discriminator 3
 1037 0036 CB10     		asrs	r3, r1, #3
 1038 0038 DB00     		lsls	r3, r3, #3
 1039 003a E318     		adds	r3, r4, r3
 1040 003c 1F68     		ldr	r7, [r3]
 1041 003e 5B68     		ldr	r3, [r3, #4]
 1042 0040 9846     		mov	r8, r3
 1043 0042 CB17     		asrs	r3, r1, #31
 1044 0044 5E0F     		lsrs	r6, r3, #29
 1045 0046 8B19     		adds	r3, r1, r6
 1046 0048 0722     		movs	r2, #7
 1047 004a 1340     		ands	r3, r2
 1048 004c 9B1B     		subs	r3, r3, r6
 1049 004e D31A     		subs	r3, r2, r3
 1050 0050 DB00     		lsls	r3, r3, #3
 1051 0052 273A     		subs	r2, r2, #39
 1052 0054 9A18     		adds	r2, r3, r2
 1053 0056 02D4     		bmi	.L31
 1054 0058 4346     		mov	r3, r8
 1055 005a D340     		lsrs	r3, r3, r2
 1056 005c 06E0     		b	.L32
 1057              	.L31:
 1058 005e 2022     		movs	r2, #32
 1059 0060 D21A     		subs	r2, r2, r3
 1060 0062 4646     		mov	r6, r8
 1061 0064 9640     		lsls	r6, r6, r2
 1062 0066 DF40     		lsrs	r7, r7, r3
ARM GAS  C:\Users\Phuong\AppData\Local\Temp\ccOJzSrt.s 			page 39


 1063 0068 3B00     		movs	r3, r7
 1064 006a 3343     		orrs	r3, r6
 1065              	.L32:
1040:Source\azure_iot_sdk\c-utility\src/sha384-512.c ****         (context->Intermediate_Hash[i >> 3] >> 8 * (7 - (i % 8)));
 1066              		.loc 1 1040 0 discriminator 3
 1067 006c 0370     		strb	r3, [r0]
1039:Source\azure_iot_sdk\c-utility\src/sha384-512.c ****         Message_Digest[i] = (uint8_t)
 1068              		.loc 1 1039 0 discriminator 3
 1069 006e 0131     		adds	r1, r1, #1
 1070              	.LVL66:
 1071              	.L30:
1039:Source\azure_iot_sdk\c-utility\src/sha384-512.c ****         Message_Digest[i] = (uint8_t)
 1072              		.loc 1 1039 0 is_stmt 0 discriminator 1
 1073 0070 5145     		cmp	r1, r10
 1074 0072 DFDB     		blt	.L33
 1075 0074 04E0     		b	.L28
 1076              	.LVL67:
 1077              	.L34:
1019:Source\azure_iot_sdk\c-utility\src/sha384-512.c **** 
 1078              		.loc 1 1019 0 is_stmt 1
 1079 0076 0123     		movs	r3, #1
 1080 0078 9946     		mov	r9, r3
 1081 007a 01E0     		b	.L28
 1082              	.L35:
 1083 007c 0123     		movs	r3, #1
 1084 007e 9946     		mov	r9, r3
 1085              	.LVL68:
 1086              	.L28:
1042:Source\azure_iot_sdk\c-utility\src/sha384-512.c **** #endif /* USE_32BIT_ONLY */
1043:Source\azure_iot_sdk\c-utility\src/sha384-512.c **** 
1044:Source\azure_iot_sdk\c-utility\src/sha384-512.c ****     return shaSuccess;
1045:Source\azure_iot_sdk\c-utility\src/sha384-512.c **** }
 1087              		.loc 1 1045 0
 1088 0080 4846     		mov	r0, r9
 1089              		@ sp needed
 1090              	.LVL69:
 1091              	.LVL70:
 1092              	.LVL71:
 1093 0082 1CBC     		pop	{r2, r3, r4}
 1094 0084 9046     		mov	r8, r2
 1095 0086 9946     		mov	r9, r3
 1096 0088 A246     		mov	r10, r4
 1097 008a F0BD     		pop	{r4, r5, r6, r7, pc}
 1098              		.cfi_endproc
 1099              	.LFE12:
 1100              		.size	SHA384_512ResultN, .-SHA384_512ResultN
 1101              		.section	.text.SHA384Reset,"ax",%progbits
 1102              		.align	2
 1103              		.global	SHA384Reset
 1104              		.code	16
 1105              		.thumb_func
 1106              		.type	SHA384Reset, %function
 1107              	SHA384Reset:
 1108              	.LFB0:
 343:Source\azure_iot_sdk\c-utility\src/sha384-512.c ****     return SHA384_512Reset(context, SHA384_H0);
 1109              		.loc 1 343 0
 1110              		.cfi_startproc
ARM GAS  C:\Users\Phuong\AppData\Local\Temp\ccOJzSrt.s 			page 40


 1111              		@ args = 0, pretend = 0, frame = 0
 1112              		@ frame_needed = 0, uses_anonymous_args = 0
 1113              	.LVL72:
 1114 0000 10B5     		push	{r4, lr}
 1115              		.cfi_def_cfa_offset 8
 1116              		.cfi_offset 4, -8
 1117              		.cfi_offset 14, -4
 344:Source\azure_iot_sdk\c-utility\src/sha384-512.c **** }
 1118              		.loc 1 344 0
 1119 0002 0249     		ldr	r1, .L37
 1120 0004 FFF7FEFF 		bl	SHA384_512Reset
 1121              	.LVL73:
 345:Source\azure_iot_sdk\c-utility\src/sha384-512.c **** 
 1122              		.loc 1 345 0
 1123              		@ sp needed
 1124 0008 10BD     		pop	{r4, pc}
 1125              	.L38:
 1126 000a C046     		.align	2
 1127              	.L37:
 1128 000c 00000000 		.word	.LANCHOR1
 1129              		.cfi_endproc
 1130              	.LFE0:
 1131              		.size	SHA384Reset, .-SHA384Reset
 1132              		.section	.text.SHA384Result,"ax",%progbits
 1133              		.align	2
 1134              		.global	SHA384Result
 1135              		.code	16
 1136              		.thumb_func
 1137              		.type	SHA384Result, %function
 1138              	SHA384Result:
 1139              	.LFB3:
 420:Source\azure_iot_sdk\c-utility\src/sha384-512.c ****     return SHA384_512ResultN(context, Message_Digest, SHA384HashSize);
 1140              		.loc 1 420 0
 1141              		.cfi_startproc
 1142              		@ args = 0, pretend = 0, frame = 0
 1143              		@ frame_needed = 0, uses_anonymous_args = 0
 1144              	.LVL74:
 1145 0000 10B5     		push	{r4, lr}
 1146              		.cfi_def_cfa_offset 8
 1147              		.cfi_offset 4, -8
 1148              		.cfi_offset 14, -4
 421:Source\azure_iot_sdk\c-utility\src/sha384-512.c **** }
 1149              		.loc 1 421 0
 1150 0002 3022     		movs	r2, #48
 1151 0004 FFF7FEFF 		bl	SHA384_512ResultN
 1152              	.LVL75:
 422:Source\azure_iot_sdk\c-utility\src/sha384-512.c **** 
 1153              		.loc 1 422 0
 1154              		@ sp needed
 1155 0008 10BD     		pop	{r4, pc}
 1156              		.cfi_endproc
 1157              	.LFE3:
 1158              		.size	SHA384Result, .-SHA384Result
 1159 000a C046     		.section	.text.SHA512Reset,"ax",%progbits
 1160              		.align	2
 1161              		.global	SHA512Reset
 1162              		.code	16
ARM GAS  C:\Users\Phuong\AppData\Local\Temp\ccOJzSrt.s 			page 41


 1163              		.thumb_func
 1164              		.type	SHA512Reset, %function
 1165              	SHA512Reset:
 1166              	.LFB4:
 440:Source\azure_iot_sdk\c-utility\src/sha384-512.c ****     return SHA384_512Reset(context, SHA512_H0);
 1167              		.loc 1 440 0
 1168              		.cfi_startproc
 1169              		@ args = 0, pretend = 0, frame = 0
 1170              		@ frame_needed = 0, uses_anonymous_args = 0
 1171              	.LVL76:
 1172 0000 10B5     		push	{r4, lr}
 1173              		.cfi_def_cfa_offset 8
 1174              		.cfi_offset 4, -8
 1175              		.cfi_offset 14, -4
 441:Source\azure_iot_sdk\c-utility\src/sha384-512.c **** }
 1176              		.loc 1 441 0
 1177 0002 0249     		ldr	r1, .L41
 1178 0004 4031     		adds	r1, r1, #64
 1179 0006 FFF7FEFF 		bl	SHA384_512Reset
 1180              	.LVL77:
 442:Source\azure_iot_sdk\c-utility\src/sha384-512.c **** 
 1181              		.loc 1 442 0
 1182              		@ sp needed
 1183 000a 10BD     		pop	{r4, pc}
 1184              	.L42:
 1185              		.align	2
 1186              	.L41:
 1187 000c 00000000 		.word	.LANCHOR1
 1188              		.cfi_endproc
 1189              	.LFE4:
 1190              		.size	SHA512Reset, .-SHA512Reset
 1191              		.section	.text.SHA512Input,"ax",%progbits
 1192              		.align	2
 1193              		.global	SHA512Input
 1194              		.code	16
 1195              		.thumb_func
 1196              		.type	SHA512Input, %function
 1197              	SHA512Input:
 1198              	.LFB5:
 467:Source\azure_iot_sdk\c-utility\src/sha384-512.c ****     uint64_t addTemp;
 1199              		.loc 1 467 0
 1200              		.cfi_startproc
 1201              		@ args = 0, pretend = 0, frame = 8
 1202              		@ frame_needed = 0, uses_anonymous_args = 0
 1203              	.LVL78:
 1204 0000 F0B5     		push	{r4, r5, r6, r7, lr}
 1205              		.cfi_def_cfa_offset 20
 1206              		.cfi_offset 4, -20
 1207              		.cfi_offset 5, -16
 1208              		.cfi_offset 6, -12
 1209              		.cfi_offset 7, -8
 1210              		.cfi_offset 14, -4
 1211 0002 83B0     		sub	sp, sp, #12
 1212              		.cfi_def_cfa_offset 32
 1213 0004 0400     		movs	r4, r0
 1214 0006 0D00     		movs	r5, r1
 469:Source\azure_iot_sdk\c-utility\src/sha384-512.c ****         return shaSuccess;
ARM GAS  C:\Users\Phuong\AppData\Local\Temp\ccOJzSrt.s 			page 42


 1215              		.loc 1 469 0
 1216 0008 002A     		cmp	r2, #0
 1217 000a 49D0     		beq	.L51
 472:Source\azure_iot_sdk\c-utility\src/sha384-512.c ****         return shaNull;
 1218              		.loc 1 472 0
 1219 000c 0028     		cmp	r0, #0
 1220 000e 4AD0     		beq	.L52
 472:Source\azure_iot_sdk\c-utility\src/sha384-512.c ****         return shaNull;
 1221              		.loc 1 472 0 is_stmt 0 discriminator 1
 1222 0010 0029     		cmp	r1, #0
 1223 0012 4BD0     		beq	.L53
 475:Source\azure_iot_sdk\c-utility\src/sha384-512.c ****         context->Corrupted = shaStateError;
 1224              		.loc 1 475 0 is_stmt 1
 1225 0014 D423     		movs	r3, #212
 1226 0016 C358     		ldr	r3, [r0, r3]
 1227 0018 002B     		cmp	r3, #0
 1228 001a 05D0     		beq	.L45
 476:Source\azure_iot_sdk\c-utility\src/sha384-512.c ****         return shaStateError;
 1229              		.loc 1 476 0
 1230 001c 0322     		movs	r2, #3
 1231              	.LVL79:
 1232 001e D823     		movs	r3, #216
 1233 0020 C250     		str	r2, [r0, r3]
 477:Source\azure_iot_sdk\c-utility\src/sha384-512.c ****     }
 1234              		.loc 1 477 0
 1235 0022 D53B     		subs	r3, r3, #213
 1236 0024 0193     		str	r3, [sp, #4]
 1237 0026 43E0     		b	.L44
 1238              	.LVL80:
 1239              	.L45:
 480:Source\azure_iot_sdk\c-utility\src/sha384-512.c ****         return context->Corrupted;
 1240              		.loc 1 480 0
 1241 0028 D823     		movs	r3, #216
 1242 002a C358     		ldr	r3, [r0, r3]
 1243 002c 0193     		str	r3, [sp, #4]
 1244 002e 002B     		cmp	r3, #0
 1245 0030 2ED0     		beq	.L46
 1246 0032 3DE0     		b	.L44
 1247              	.LVL81:
 1248              	.L50:
 484:Source\azure_iot_sdk\c-utility\src/sha384-512.c ****             (*message_array & 0xFF);
 1249              		.loc 1 484 0
 1250 0034 5022     		movs	r2, #80
 1251 0036 A35E     		ldrsh	r3, [r4, r2]
 1252 0038 591C     		adds	r1, r3, #1
 1253 003a A152     		strh	r1, [r4, r2]
 485:Source\azure_iot_sdk\c-utility\src/sha384-512.c **** 
 1254              		.loc 1 485 0
 1255 003c 2A78     		ldrb	r2, [r5]
 484:Source\azure_iot_sdk\c-utility\src/sha384-512.c ****             (*message_array & 0xFF);
 1256              		.loc 1 484 0
 1257 003e E318     		adds	r3, r4, r3
 1258 0040 5233     		adds	r3, r3, #82
 1259 0042 1A70     		strb	r2, [r3]
 487:Source\azure_iot_sdk\c-utility\src/sha384-512.c ****             (context->Message_Block_Index == SHA512_Message_Block_Size))
 1260              		.loc 1 487 0
 1261 0044 206C     		ldr	r0, [r4, #64]
ARM GAS  C:\Users\Phuong\AppData\Local\Temp\ccOJzSrt.s 			page 43


 1262 0046 616C     		ldr	r1, [r4, #68]
 1263              	.LVL82:
 1264 0048 0822     		movs	r2, #8
 1265 004a 0023     		movs	r3, #0
 1266 004c 1218     		adds	r2, r2, r0
 1267 004e 4B41     		adcs	r3, r3, r1
 1268 0050 2264     		str	r2, [r4, #64]
 1269 0052 6364     		str	r3, [r4, #68]
 1270 0054 9942     		cmp	r1, r3
 1271 0056 02D8     		bhi	.L54
 1272 0058 0DD1     		bne	.L47
 1273 005a 9042     		cmp	r0, r2
 1274 005c 0BD9     		bls	.L47
 1275              	.L54:
 487:Source\azure_iot_sdk\c-utility\src/sha384-512.c ****             (context->Message_Block_Index == SHA512_Message_Block_Size))
 1276              		.loc 1 487 0 is_stmt 0 discriminator 1
 1277 005e 0122     		movs	r2, #1
 1278 0060 0023     		movs	r3, #0
 1279 0062 A06C     		ldr	r0, [r4, #72]
 1280 0064 E16C     		ldr	r1, [r4, #76]
 1281              	.LVL83:
 1282 0066 1218     		adds	r2, r2, r0
 1283 0068 4B41     		adcs	r3, r3, r1
 1284 006a A264     		str	r2, [r4, #72]
 1285 006c E364     		str	r3, [r4, #76]
 1286 006e 1100     		movs	r1, r2
 1287 0070 1943     		orrs	r1, r3
 1288 0072 00D1     		bne	.L47
 487:Source\azure_iot_sdk\c-utility\src/sha384-512.c ****             (context->Message_Block_Index == SHA512_Message_Block_Size))
 1289              		.loc 1 487 0
 1290 0074 0126     		movs	r6, #1
 1291              	.L47:
 487:Source\azure_iot_sdk\c-utility\src/sha384-512.c ****             (context->Message_Block_Index == SHA512_Message_Block_Size))
 1292              		.loc 1 487 0 discriminator 6
 1293 0076 D823     		movs	r3, #216
 1294 0078 E650     		str	r6, [r4, r3]
 1295 007a 002E     		cmp	r6, #0
 1296 007c 06D1     		bne	.L49
 488:Source\azure_iot_sdk\c-utility\src/sha384-512.c ****             SHA384_512ProcessMessageBlock(context);
 1297              		.loc 1 488 0 is_stmt 1 discriminator 7
 1298 007e 883B     		subs	r3, r3, #136
 1299 0080 E35E     		ldrsh	r3, [r4, r3]
 487:Source\azure_iot_sdk\c-utility\src/sha384-512.c ****             (context->Message_Block_Index == SHA512_Message_Block_Size))
 1300              		.loc 1 487 0 discriminator 7
 1301 0082 802B     		cmp	r3, #128
 1302 0084 02D1     		bne	.L49
 489:Source\azure_iot_sdk\c-utility\src/sha384-512.c **** 
 1303              		.loc 1 489 0
 1304 0086 2000     		movs	r0, r4
 1305 0088 FFF7FEFF 		bl	SHA384_512ProcessMessageBlock
 1306              	.LVL84:
 1307              	.L49:
 491:Source\azure_iot_sdk\c-utility\src/sha384-512.c ****     }
 1308              		.loc 1 491 0
 1309 008c 0135     		adds	r5, r5, #1
 1310              	.LVL85:
 483:Source\azure_iot_sdk\c-utility\src/sha384-512.c ****         context->Message_Block[context->Message_Block_Index++] =
ARM GAS  C:\Users\Phuong\AppData\Local\Temp\ccOJzSrt.s 			page 44


 1311              		.loc 1 483 0
 1312 008e 3A00     		movs	r2, r7
 1313              	.LVL86:
 1314              	.L46:
 1315 0090 571E     		subs	r7, r2, #1
 1316              	.LVL87:
 1317 0092 002A     		cmp	r2, #0
 1318 0094 0CD0     		beq	.L44
 483:Source\azure_iot_sdk\c-utility\src/sha384-512.c ****         context->Message_Block[context->Message_Block_Index++] =
 1319              		.loc 1 483 0 is_stmt 0 discriminator 1
 1320 0096 D823     		movs	r3, #216
 1321 0098 E658     		ldr	r6, [r4, r3]
 1322 009a 002E     		cmp	r6, #0
 1323 009c CAD0     		beq	.L50
 1324 009e 07E0     		b	.L44
 1325              	.LVL88:
 1326              	.L51:
 470:Source\azure_iot_sdk\c-utility\src/sha384-512.c **** 
 1327              		.loc 1 470 0 is_stmt 1
 1328 00a0 0023     		movs	r3, #0
 1329 00a2 0193     		str	r3, [sp, #4]
 1330 00a4 04E0     		b	.L44
 1331              	.L52:
 473:Source\azure_iot_sdk\c-utility\src/sha384-512.c **** 
 1332              		.loc 1 473 0
 1333 00a6 0123     		movs	r3, #1
 1334 00a8 0193     		str	r3, [sp, #4]
 1335 00aa 01E0     		b	.L44
 1336              	.L53:
 1337 00ac 0123     		movs	r3, #1
 1338 00ae 0193     		str	r3, [sp, #4]
 1339              	.LVL89:
 1340              	.L44:
 495:Source\azure_iot_sdk\c-utility\src/sha384-512.c **** 
 1341              		.loc 1 495 0
 1342 00b0 0198     		ldr	r0, [sp, #4]
 1343 00b2 03B0     		add	sp, sp, #12
 1344              		@ sp needed
 1345              	.LVL90:
 1346              	.LVL91:
 1347 00b4 F0BD     		pop	{r4, r5, r6, r7, pc}
 1348              		.cfi_endproc
 1349              	.LFE5:
 1350              		.size	SHA512Input, .-SHA512Input
 1351 00b6 C046     		.section	.text.SHA384Input,"ax",%progbits
 1352              		.align	2
 1353              		.global	SHA384Input
 1354              		.code	16
 1355              		.thumb_func
 1356              		.type	SHA384Input, %function
 1357              	SHA384Input:
 1358              	.LFB1:
 369:Source\azure_iot_sdk\c-utility\src/sha384-512.c ****     return SHA512Input(context, message_array, length);
 1359              		.loc 1 369 0
 1360              		.cfi_startproc
 1361              		@ args = 0, pretend = 0, frame = 0
 1362              		@ frame_needed = 0, uses_anonymous_args = 0
ARM GAS  C:\Users\Phuong\AppData\Local\Temp\ccOJzSrt.s 			page 45


 1363              	.LVL92:
 1364 0000 10B5     		push	{r4, lr}
 1365              		.cfi_def_cfa_offset 8
 1366              		.cfi_offset 4, -8
 1367              		.cfi_offset 14, -4
 370:Source\azure_iot_sdk\c-utility\src/sha384-512.c **** }
 1368              		.loc 1 370 0
 1369 0002 FFF7FEFF 		bl	SHA512Input
 1370              	.LVL93:
 371:Source\azure_iot_sdk\c-utility\src/sha384-512.c **** 
 1371              		.loc 1 371 0
 1372              		@ sp needed
 1373 0006 10BD     		pop	{r4, pc}
 1374              		.cfi_endproc
 1375              	.LFE1:
 1376              		.size	SHA384Input, .-SHA384Input
 1377              		.section	.text.SHA512FinalBits,"ax",%progbits
 1378              		.align	2
 1379              		.global	SHA512FinalBits
 1380              		.code	16
 1381              		.thumb_func
 1382              		.type	SHA512FinalBits, %function
 1383              	SHA512FinalBits:
 1384              	.LFB6:
 519:Source\azure_iot_sdk\c-utility\src/sha384-512.c ****     uint64_t addTemp;
 1385              		.loc 1 519 0
 1386              		.cfi_startproc
 1387              		@ args = 0, pretend = 0, frame = 16
 1388              		@ frame_needed = 0, uses_anonymous_args = 0
 1389              	.LVL94:
 1390 0000 F0B5     		push	{r4, r5, r6, r7, lr}
 1391              		.cfi_def_cfa_offset 20
 1392              		.cfi_offset 4, -20
 1393              		.cfi_offset 5, -16
 1394              		.cfi_offset 6, -12
 1395              		.cfi_offset 7, -8
 1396              		.cfi_offset 14, -4
 1397 0002 85B0     		sub	sp, sp, #20
 1398              		.cfi_def_cfa_offset 40
 1399 0004 0400     		movs	r4, r0
 1400 0006 0F00     		movs	r7, r1
 1401 0008 1500     		movs	r5, r2
 521:Source\azure_iot_sdk\c-utility\src/sha384-512.c ****         /* 0 0b00000000 */ 0x00, /* 1 0b10000000 */ 0x80,
 1402              		.loc 1 521 0
 1403 000a 284E     		ldr	r6, .L67
 1404 000c 0822     		movs	r2, #8
 1405              	.LVL95:
 1406 000e 3100     		movs	r1, r6
 1407              	.LVL96:
 1408 0010 02A8     		add	r0, sp, #8
 1409              	.LVL97:
 1410 0012 FFF7FEFF 		bl	memcpy
 1411              	.LVL98:
 527:Source\azure_iot_sdk\c-utility\src/sha384-512.c ****         /* 0 0b10000000 */ 0x80, /* 1 0b01000000 */ 0x40,
 1412              		.loc 1 527 0
 1413 0016 3100     		movs	r1, r6
 1414 0018 0831     		adds	r1, r1, #8
ARM GAS  C:\Users\Phuong\AppData\Local\Temp\ccOJzSrt.s 			page 46


 1415 001a 0822     		movs	r2, #8
 1416 001c 6846     		mov	r0, sp
 1417 001e FFF7FEFF 		bl	memcpy
 1418              	.LVL99:
 534:Source\azure_iot_sdk\c-utility\src/sha384-512.c ****         return shaSuccess;
 1419              		.loc 1 534 0
 1420 0022 002D     		cmp	r5, #0
 1421 0024 3BD0     		beq	.L62
 537:Source\azure_iot_sdk\c-utility\src/sha384-512.c ****         return shaNull;
 1422              		.loc 1 537 0
 1423 0026 002C     		cmp	r4, #0
 1424 0028 3BD0     		beq	.L63
 540:Source\azure_iot_sdk\c-utility\src/sha384-512.c ****         context->Corrupted = shaStateError;
 1425              		.loc 1 540 0
 1426 002a D423     		movs	r3, #212
 1427 002c E358     		ldr	r3, [r4, r3]
 1428 002e 002B     		cmp	r3, #0
 1429 0030 03D1     		bne	.L58
 540:Source\azure_iot_sdk\c-utility\src/sha384-512.c ****         context->Corrupted = shaStateError;
 1430              		.loc 1 540 0 is_stmt 0 discriminator 1
 1431 0032 072D     		cmp	r5, #7
 1432 0034 01D8     		bhi	.L58
 540:Source\azure_iot_sdk\c-utility\src/sha384-512.c ****         context->Corrupted = shaStateError;
 1433              		.loc 1 540 0 discriminator 2
 1434 0036 002D     		cmp	r5, #0
 1435 0038 04D1     		bne	.L59
 1436              	.L58:
 541:Source\azure_iot_sdk\c-utility\src/sha384-512.c ****         return shaStateError;
 1437              		.loc 1 541 0 is_stmt 1
 1438 003a 0322     		movs	r2, #3
 1439 003c D823     		movs	r3, #216
 1440 003e E250     		str	r2, [r4, r3]
 542:Source\azure_iot_sdk\c-utility\src/sha384-512.c ****     }
 1441              		.loc 1 542 0
 1442 0040 0326     		movs	r6, #3
 1443 0042 2FE0     		b	.L57
 1444              	.L59:
 545:Source\azure_iot_sdk\c-utility\src/sha384-512.c ****         return context->Corrupted;
 1445              		.loc 1 545 0
 1446 0044 D823     		movs	r3, #216
 1447 0046 E658     		ldr	r6, [r4, r3]
 1448 0048 002E     		cmp	r6, #0
 1449 004a 2BD1     		bne	.L57
 548:Source\azure_iot_sdk\c-utility\src/sha384-512.c ****     SHA384_512Finalize(context, (uint8_t)
 1450              		.loc 1 548 0
 1451 004c 206C     		ldr	r0, [r4, #64]
 1452 004e 616C     		ldr	r1, [r4, #68]
 1453              	.LVL100:
 1454 0050 2A00     		movs	r2, r5
 1455 0052 0023     		movs	r3, #0
 1456 0054 1218     		adds	r2, r2, r0
 1457 0056 4B41     		adcs	r3, r3, r1
 1458 0058 2264     		str	r2, [r4, #64]
 1459 005a 6364     		str	r3, [r4, #68]
 1460 005c 9942     		cmp	r1, r3
 1461 005e 02D8     		bhi	.L66
 1462 0060 0DD1     		bne	.L64
ARM GAS  C:\Users\Phuong\AppData\Local\Temp\ccOJzSrt.s 			page 47


 1463 0062 9042     		cmp	r0, r2
 1464 0064 0BD9     		bls	.L64
 1465              	.L66:
 548:Source\azure_iot_sdk\c-utility\src/sha384-512.c ****     SHA384_512Finalize(context, (uint8_t)
 1466              		.loc 1 548 0 is_stmt 0 discriminator 1
 1467 0066 0122     		movs	r2, #1
 1468 0068 0023     		movs	r3, #0
 1469 006a A06C     		ldr	r0, [r4, #72]
 1470 006c E16C     		ldr	r1, [r4, #76]
 1471              	.LVL101:
 1472 006e 1218     		adds	r2, r2, r0
 1473 0070 4B41     		adcs	r3, r3, r1
 1474 0072 A264     		str	r2, [r4, #72]
 1475 0074 E364     		str	r3, [r4, #76]
 1476 0076 1A43     		orrs	r2, r3
 1477 0078 03D1     		bne	.L65
 548:Source\azure_iot_sdk\c-utility\src/sha384-512.c ****     SHA384_512Finalize(context, (uint8_t)
 1478              		.loc 1 548 0
 1479 007a 0132     		adds	r2, r2, #1
 1480 007c 02E0     		b	.L60
 1481              	.LVL102:
 1482              	.L64:
 1483 007e 3200     		movs	r2, r6
 1484 0080 00E0     		b	.L60
 1485              	.LVL103:
 1486              	.L65:
 1487 0082 3200     		movs	r2, r6
 1488              	.L60:
 548:Source\azure_iot_sdk\c-utility\src/sha384-512.c ****     SHA384_512Finalize(context, (uint8_t)
 1489              		.loc 1 548 0 discriminator 6
 1490 0084 D823     		movs	r3, #216
 1491 0086 E250     		str	r2, [r4, r3]
 550:Source\azure_iot_sdk\c-utility\src/sha384-512.c **** 
 1492              		.loc 1 550 0 is_stmt 1 discriminator 6
 1493 0088 02AB     		add	r3, sp, #8
 1494 008a 595D     		ldrb	r1, [r3, r5]
 1495 008c 6B46     		mov	r3, sp
 1496 008e 5B5D     		ldrb	r3, [r3, r5]
 549:Source\azure_iot_sdk\c-utility\src/sha384-512.c ****         ((message_bits & masks[length]) | markbit[length]));
 1497              		.loc 1 549 0 discriminator 6
 1498 0090 0F40     		ands	r7, r1
 1499 0092 3B43     		orrs	r3, r7
 1500 0094 1900     		movs	r1, r3
 1501 0096 2000     		movs	r0, r4
 1502 0098 FFF7FEFF 		bl	SHA384_512Finalize
 1503              	.LVL104:
 552:Source\azure_iot_sdk\c-utility\src/sha384-512.c **** }
 1504              		.loc 1 552 0 discriminator 6
 1505 009c 02E0     		b	.L57
 1506              	.L62:
 535:Source\azure_iot_sdk\c-utility\src/sha384-512.c **** 
 1507              		.loc 1 535 0
 1508 009e 0026     		movs	r6, #0
 1509 00a0 00E0     		b	.L57
 1510              	.L63:
 538:Source\azure_iot_sdk\c-utility\src/sha384-512.c **** 
 1511              		.loc 1 538 0
ARM GAS  C:\Users\Phuong\AppData\Local\Temp\ccOJzSrt.s 			page 48


 1512 00a2 0126     		movs	r6, #1
 1513              	.L57:
 553:Source\azure_iot_sdk\c-utility\src/sha384-512.c **** 
 1514              		.loc 1 553 0
 1515 00a4 3000     		movs	r0, r6
 1516 00a6 05B0     		add	sp, sp, #20
 1517              		@ sp needed
 1518              	.LVL105:
 1519              	.LVL106:
 1520 00a8 F0BD     		pop	{r4, r5, r6, r7, pc}
 1521              	.L68:
 1522 00aa C046     		.align	2
 1523              	.L67:
 1524 00ac 80020000 		.word	.LANCHOR2
 1525              		.cfi_endproc
 1526              	.LFE6:
 1527              		.size	SHA512FinalBits, .-SHA512FinalBits
 1528              		.section	.text.SHA384FinalBits,"ax",%progbits
 1529              		.align	2
 1530              		.global	SHA384FinalBits
 1531              		.code	16
 1532              		.thumb_func
 1533              		.type	SHA384FinalBits, %function
 1534              	SHA384FinalBits:
 1535              	.LFB2:
 395:Source\azure_iot_sdk\c-utility\src/sha384-512.c ****     return SHA512FinalBits(context, message_bits, length);
 1536              		.loc 1 395 0
 1537              		.cfi_startproc
 1538              		@ args = 0, pretend = 0, frame = 0
 1539              		@ frame_needed = 0, uses_anonymous_args = 0
 1540              	.LVL107:
 1541 0000 10B5     		push	{r4, lr}
 1542              		.cfi_def_cfa_offset 8
 1543              		.cfi_offset 4, -8
 1544              		.cfi_offset 14, -4
 396:Source\azure_iot_sdk\c-utility\src/sha384-512.c **** }
 1545              		.loc 1 396 0
 1546 0002 FFF7FEFF 		bl	SHA512FinalBits
 1547              	.LVL108:
 397:Source\azure_iot_sdk\c-utility\src/sha384-512.c **** 
 1548              		.loc 1 397 0
 1549              		@ sp needed
 1550 0006 10BD     		pop	{r4, pc}
 1551              		.cfi_endproc
 1552              	.LFE2:
 1553              		.size	SHA384FinalBits, .-SHA384FinalBits
 1554              		.section	.text.SHA512Result,"ax",%progbits
 1555              		.align	2
 1556              		.global	SHA512Result
 1557              		.code	16
 1558              		.thumb_func
 1559              		.type	SHA512Result, %function
 1560              	SHA512Result:
 1561              	.LFB8:
 613:Source\azure_iot_sdk\c-utility\src/sha384-512.c ****     return SHA384_512ResultN(context, Message_Digest, SHA512HashSize);
 1562              		.loc 1 613 0
 1563              		.cfi_startproc
ARM GAS  C:\Users\Phuong\AppData\Local\Temp\ccOJzSrt.s 			page 49


 1564              		@ args = 0, pretend = 0, frame = 0
 1565              		@ frame_needed = 0, uses_anonymous_args = 0
 1566              	.LVL109:
 1567 0000 10B5     		push	{r4, lr}
 1568              		.cfi_def_cfa_offset 8
 1569              		.cfi_offset 4, -8
 1570              		.cfi_offset 14, -4
 614:Source\azure_iot_sdk\c-utility\src/sha384-512.c **** }
 1571              		.loc 1 614 0
 1572 0002 4022     		movs	r2, #64
 1573 0004 FFF7FEFF 		bl	SHA384_512ResultN
 1574              	.LVL110:
 615:Source\azure_iot_sdk\c-utility\src/sha384-512.c **** 
 1575              		.loc 1 615 0
 1576              		@ sp needed
 1577 0008 10BD     		pop	{r4, pc}
 1578              		.cfi_endproc
 1579              	.LFE8:
 1580              		.size	SHA512Result, .-SHA512Result
 1581 000a C046     		.section	.rodata
 1582              		.align	3
 1583              		.set	.LANCHOR0,. + 0
 1584              		.set	.LANCHOR2,. + 640
 1585              		.type	K.5235, %object
 1586              		.size	K.5235, 640
 1587              	K.5235:
 1588 0000 22AE28D7 		.word	-685199838
 1589 0004 982F8A42 		.word	1116352408
 1590 0008 CD65EF23 		.word	602891725
 1591 000c 91443771 		.word	1899447441
 1592 0010 2F3B4DEC 		.word	-330482897
 1593 0014 CFFBC0B5 		.word	-1245643825
 1594 0018 BCDB8981 		.word	-2121671748
 1595 001c A5DBB5E9 		.word	-373957723
 1596 0020 38B548F3 		.word	-213338824
 1597 0024 5BC25639 		.word	961987163
 1598 0028 19D005B6 		.word	-1241133031
 1599 002c F111F159 		.word	1508970993
 1600 0030 9B4F19AF 		.word	-1357295717
 1601 0034 A4823F92 		.word	-1841331548
 1602 0038 18816DDA 		.word	-630357736
 1603 003c D55E1CAB 		.word	-1424204075
 1604 0040 420203A3 		.word	-1560083902
 1605 0044 98AA07D8 		.word	-670586216
 1606 0048 BE6F7045 		.word	1164996542
 1607 004c 015B8312 		.word	310598401
 1608 0050 8CB2E44E 		.word	1323610764
 1609 0054 BE853124 		.word	607225278
 1610 0058 E2B4FFD5 		.word	-704662302
 1611 005c C37D0C55 		.word	1426881987
 1612 0060 6F897BF2 		.word	-226784913
 1613 0064 745DBE72 		.word	1925078388
 1614 0068 B196163B 		.word	991336113
 1615 006c FEB1DE80 		.word	-2132889090
 1616 0070 3512C725 		.word	633803317
 1617 0074 A706DC9B 		.word	-1680079193
 1618 0078 942669CF 		.word	-815192428
ARM GAS  C:\Users\Phuong\AppData\Local\Temp\ccOJzSrt.s 			page 50


 1619 007c 74F19BC1 		.word	-1046744716
 1620 0080 D24AF19E 		.word	-1628353838
 1621 0084 C1699BE4 		.word	-459576895
 1622 0088 E3254F38 		.word	944711139
 1623 008c 8647BEEF 		.word	-272742522
 1624 0090 B5D58C8B 		.word	-1953704523
 1625 0094 C69DC10F 		.word	264347078
 1626 0098 659CAC77 		.word	2007800933
 1627 009c CCA10C24 		.word	604807628
 1628 00a0 75022B59 		.word	1495990901
 1629 00a4 6F2CE92D 		.word	770255983
 1630 00a8 83E4A66E 		.word	1856431235
 1631 00ac AA84744A 		.word	1249150122
 1632 00b0 D4FB41BD 		.word	-1119749164
 1633 00b4 DCA9B05C 		.word	1555081692
 1634 00b8 B5531183 		.word	-2096016459
 1635 00bc DA88F976 		.word	1996064986
 1636 00c0 ABDF66EE 		.word	-295247957
 1637 00c4 52513E98 		.word	-1740746414
 1638 00c8 1032B42D 		.word	766784016
 1639 00cc 6DC631A8 		.word	-1473132947
 1640 00d0 3F21FB98 		.word	-1728372417
 1641 00d4 C82703B0 		.word	-1341970488
 1642 00d8 E40EEFBE 		.word	-1091629340
 1643 00dc C77F59BF 		.word	-1084653625
 1644 00e0 C28FA83D 		.word	1034457026
 1645 00e4 F30BE0C6 		.word	-958395405
 1646 00e8 25A70A93 		.word	-1828018395
 1647 00ec 4791A7D5 		.word	-710438585
 1648 00f0 6F8203E0 		.word	-536640913
 1649 00f4 5163CA06 		.word	113926993
 1650 00f8 706E0E0A 		.word	168717936
 1651 00fc 67292914 		.word	338241895
 1652 0100 FC2FD246 		.word	1188179964
 1653 0104 850AB727 		.word	666307205
 1654 0108 26C9265C 		.word	1546045734
 1655 010c 38211B2E 		.word	773529912
 1656 0110 ED2AC45A 		.word	1522805485
 1657 0114 FC6D2C4D 		.word	1294757372
 1658 0118 DFB3959D 		.word	-1651133473
 1659 011c 130D3853 		.word	1396182291
 1660 0120 DE63AF8B 		.word	-1951439906
 1661 0124 54730A65 		.word	1695183700
 1662 0128 A8B2773C 		.word	1014477480
 1663 012c BB0A6A76 		.word	1986661051
 1664 0130 E6AEED47 		.word	1206759142
 1665 0134 2EC9C281 		.word	-2117940946
 1666 0138 3B358214 		.word	344077627
 1667 013c 852C7292 		.word	-1838011259
 1668 0140 6403F14C 		.word	1290863460
 1669 0144 A1E8BFA2 		.word	-1564481375
 1670 0148 013042BC 		.word	-1136513023
 1671 014c 4B661AA8 		.word	-1474664885
 1672 0150 9197F8D0 		.word	-789014639
 1673 0154 708B4BC2 		.word	-1035236496
 1674 0158 30BE5406 		.word	106217008
 1675 015c A3516CC7 		.word	-949202525
ARM GAS  C:\Users\Phuong\AppData\Local\Temp\ccOJzSrt.s 			page 51


 1676 0160 1852EFD6 		.word	-688958952
 1677 0164 19E892D1 		.word	-778901479
 1678 0168 10A96555 		.word	1432725776
 1679 016c 240699D6 		.word	-694614492
 1680 0170 2A207157 		.word	1467031594
 1681 0174 85350EF4 		.word	-200395387
 1682 0178 B8D1BB32 		.word	851169720
 1683 017c 70A06A10 		.word	275423344
 1684 0180 C8D0D2B8 		.word	-1194143544
 1685 0184 16C1A419 		.word	430227734
 1686 0188 53AB4151 		.word	1363258195
 1687 018c 086C371E 		.word	506948616
 1688 0190 99EB8EDF 		.word	-544281703
 1689 0194 4C774827 		.word	659060556
 1690 0198 A8489BE1 		.word	-509917016
 1691 019c B5BCB034 		.word	883997877
 1692 01a0 635AC9C5 		.word	-976659869
 1693 01a4 B30C1C39 		.word	958139571
 1694 01a8 CB8A41E3 		.word	-482243893
 1695 01ac 4AAAD84E 		.word	1322822218
 1696 01b0 73E36377 		.word	2003034995
 1697 01b4 4FCA9C5B 		.word	1537002063
 1698 01b8 A3B8B2D6 		.word	-692930397
 1699 01bc F36F2E68 		.word	1747873779
 1700 01c0 FCB2EF5D 		.word	1575990012
 1701 01c4 EE828F74 		.word	1955562222
 1702 01c8 602F1743 		.word	1125592928
 1703 01cc 6F63A578 		.word	2024104815
 1704 01d0 72ABF0A1 		.word	-1578062990
 1705 01d4 1478C884 		.word	-2067236844
 1706 01d8 EC39641A 		.word	442776044
 1707 01dc 0802C78C 		.word	-1933114872
 1708 01e0 281E6323 		.word	593698344
 1709 01e4 FAFFBE90 		.word	-1866530822
 1710 01e8 E9BD82DE 		.word	-561857047
 1711 01ec EB6C50A4 		.word	-1538233109
 1712 01f0 1579C6B2 		.word	-1295615723
 1713 01f4 F7A3F9BE 		.word	-1090935817
 1714 01f8 2B5372E3 		.word	-479046869
 1715 01fc F27871C6 		.word	-965641998
 1716 0200 9C6126EA 		.word	-366583396
 1717 0204 CE3E27CA 		.word	-903397682
 1718 0208 07C2C021 		.word	566280711
 1719 020c C7B886D1 		.word	-779700025
 1720 0210 1EEBE0CD 		.word	-840897762
 1721 0214 D67DDAEA 		.word	-354779690
 1722 0218 78D16EEE 		.word	-294727304
 1723 021c 7F4F7DF5 		.word	-176337025
 1724 0220 BA6F1772 		.word	1914138554
 1725 0224 AA67F006 		.word	116418474
 1726 0228 A698C8A2 		.word	-1563912026
 1727 022c C57D630A 		.word	174292421
 1728 0230 AE0DF9BE 		.word	-1090974290
 1729 0234 04983F11 		.word	289380356
 1730 0238 1B471C13 		.word	320620315
 1731 023c 350B711B 		.word	460393269
 1732 0240 847D0423 		.word	587496836
ARM GAS  C:\Users\Phuong\AppData\Local\Temp\ccOJzSrt.s 			page 52


 1733 0244 F577DB28 		.word	685471733
 1734 0248 9324C740 		.word	1086792851
 1735 024c 7BABCA32 		.word	852142971
 1736 0250 BCBEC915 		.word	365543100
 1737 0254 0ABE9E3C 		.word	1017036298
 1738 0258 4C0D109C 		.word	-1676669620
 1739 025c C4671D43 		.word	1126000580
 1740 0260 B6423ECB 		.word	-885112138
 1741 0264 BED4C54C 		.word	1288033470
 1742 0268 2A7E65FC 		.word	-60457430
 1743 026c 9C297F59 		.word	1501505948
 1744 0270 ECFAD63A 		.word	987167468
 1745 0274 AB6FCB5F 		.word	1607167915
 1746 0278 1758474A 		.word	1246189591
 1747 027c 8C19446C 		.word	1816402316
 1748              	.LC0:
 1749 0280 00       		.byte	0
 1750 0281 80       		.byte	-128
 1751 0282 C0       		.byte	-64
 1752 0283 E0       		.byte	-32
 1753 0284 F0       		.byte	-16
 1754 0285 F8       		.byte	-8
 1755 0286 FC       		.byte	-4
 1756 0287 FE       		.byte	-2
 1757              	.LC1:
 1758 0288 80       		.byte	-128
 1759 0289 40       		.byte	64
 1760 028a 20       		.byte	32
 1761 028b 10       		.byte	16
 1762 028c 08       		.byte	8
 1763 028d 04       		.byte	4
 1764 028e 02       		.byte	2
 1765 028f 01       		.byte	1
 1766              		.data
 1767              		.align	3
 1768              		.set	.LANCHOR1,. + 0
 1769              		.type	SHA384_H0, %object
 1770              		.size	SHA384_H0, 64
 1771              	SHA384_H0:
 1772 0000 D89E05C1 		.word	-1056596264
 1773 0004 5D9DBBCB 		.word	-876896931
 1774 0008 07D57C36 		.word	914150663
 1775 000c 2A299A62 		.word	1654270250
 1776 0010 17DD7030 		.word	812702999
 1777 0014 5A015991 		.word	-1856437926
 1778 0018 39590EF7 		.word	-150054599
 1779 001c D8EC2F15 		.word	355462360
 1780 0020 310BC0FF 		.word	-4191439
 1781 0024 67263367 		.word	1731405415
 1782 0028 11155868 		.word	1750603025
 1783 002c 874AB48E 		.word	-1900787065
 1784 0030 A78FF964 		.word	1694076839
 1785 0034 0D2E0CDB 		.word	-619958771
 1786 0038 A44FFABE 		.word	-1090891868
 1787 003c 1D48B547 		.word	1203062813
 1788              		.type	SHA512_H0, %object
 1789              		.size	SHA512_H0, 64
ARM GAS  C:\Users\Phuong\AppData\Local\Temp\ccOJzSrt.s 			page 53


 1790              	SHA512_H0:
 1791 0040 08C9BCF3 		.word	-205731576
 1792 0044 67E6096A 		.word	1779033703
 1793 0048 3BA7CA84 		.word	-2067093701
 1794 004c 85AE67BB 		.word	-1150833019
 1795 0050 2BF894FE 		.word	-23791573
 1796 0054 72F36E3C 		.word	1013904242
 1797 0058 F1361D5F 		.word	1595750129
 1798 005c 3AF54FA5 		.word	-1521486534
 1799 0060 D182E6AD 		.word	-1377402159
 1800 0064 7F520E51 		.word	1359893119
 1801 0068 1F6C3E2B 		.word	725511199
 1802 006c 8C68059B 		.word	-1694144372
 1803 0070 6BBD41FB 		.word	-79577749
 1804 0074 ABD9831F 		.word	528734635
 1805 0078 79217E13 		.word	327033209
 1806 007c 19CDE05B 		.word	1541459225
 1807              		.text
 1808              	.Letext0:
 1809              		.file 2 "c:\\program files (x86)\\cypress\\psoc creator\\4.2\\psoc creator\\import\\gnu\\arm\\5.4.
 1810              		.file 3 "c:\\program files (x86)\\cypress\\psoc creator\\4.2\\psoc creator\\import\\gnu\\arm\\5.4.
 1811              		.file 4 "c:\\program files (x86)\\cypress\\psoc creator\\4.2\\psoc creator\\import\\gnu\\arm\\5.4.
 1812              		.file 5 ".\\Source\\azure_iot_sdk\\c-utility\\inc/azure_c_shared_utility/sha.h"