ARM GAS  C:\Users\Phuong\AppData\Local\Temp\ccCGJz1B.s 			page 1


   1              		.syntax unified
   2              		.cpu cortex-m0plus
   3              		.fpu softvfp
   4              		.eabi_attribute 20, 1
   5              		.eabi_attribute 21, 1
   6              		.eabi_attribute 23, 3
   7              		.eabi_attribute 24, 1
   8              		.eabi_attribute 25, 1
   9              		.eabi_attribute 26, 1
  10              		.eabi_attribute 30, 1
  11              		.eabi_attribute 34, 0
  12              		.eabi_attribute 18, 4
  13              		.thumb
  14              		.syntax unified
  15              		.file	"sha512.c"
  16              		.text
  17              	.Ltext0:
  18              		.cfi_sections	.debug_frame
  19              		.section	.text.mbedtls_sha512_init,"ax",%progbits
  20              		.align	2
  21              		.global	mbedtls_sha512_init
  22              		.code	16
  23              		.thumb_func
  24              		.type	mbedtls_sha512_init, %function
  25              	mbedtls_sha512_init:
  26              	.LFB1:
  27              		.file 1 "Source\\mbedtls_open\\library\\sha512.c"
   1:Source\mbedtls_open\library/sha512.c **** /*
   2:Source\mbedtls_open\library/sha512.c ****  *  FIPS-180-2 compliant SHA-384/512 implementation
   3:Source\mbedtls_open\library/sha512.c ****  *
   4:Source\mbedtls_open\library/sha512.c ****  *  Copyright (C) 2006-2015, ARM Limited, All Rights Reserved
   5:Source\mbedtls_open\library/sha512.c ****  *  SPDX-License-Identifier: Apache-2.0
   6:Source\mbedtls_open\library/sha512.c ****  *
   7:Source\mbedtls_open\library/sha512.c ****  *  Licensed under the Apache License, Version 2.0 (the "License"); you may
   8:Source\mbedtls_open\library/sha512.c ****  *  not use this file except in compliance with the License.
   9:Source\mbedtls_open\library/sha512.c ****  *  You may obtain a copy of the License at
  10:Source\mbedtls_open\library/sha512.c ****  *
  11:Source\mbedtls_open\library/sha512.c ****  *  http://www.apache.org/licenses/LICENSE-2.0
  12:Source\mbedtls_open\library/sha512.c ****  *
  13:Source\mbedtls_open\library/sha512.c ****  *  Unless required by applicable law or agreed to in writing, software
  14:Source\mbedtls_open\library/sha512.c ****  *  distributed under the License is distributed on an "AS IS" BASIS, WITHOUT
  15:Source\mbedtls_open\library/sha512.c ****  *  WARRANTIES OR CONDITIONS OF ANY KIND, either express or implied.
  16:Source\mbedtls_open\library/sha512.c ****  *  See the License for the specific language governing permissions and
  17:Source\mbedtls_open\library/sha512.c ****  *  limitations under the License.
  18:Source\mbedtls_open\library/sha512.c ****  *
  19:Source\mbedtls_open\library/sha512.c ****  *  This file is part of mbed TLS (https://tls.mbed.org)
  20:Source\mbedtls_open\library/sha512.c ****  */
  21:Source\mbedtls_open\library/sha512.c **** /*
  22:Source\mbedtls_open\library/sha512.c ****  *  The SHA-512 Secure Hash Standard was published by NIST in 2002.
  23:Source\mbedtls_open\library/sha512.c ****  *
  24:Source\mbedtls_open\library/sha512.c ****  *  http://csrc.nist.gov/publications/fips/fips180-2/fips180-2.pdf
  25:Source\mbedtls_open\library/sha512.c ****  */
  26:Source\mbedtls_open\library/sha512.c **** 
  27:Source\mbedtls_open\library/sha512.c **** #if !defined(MBEDTLS_CONFIG_FILE)
  28:Source\mbedtls_open\library/sha512.c **** #include "mbedtls/config.h"
  29:Source\mbedtls_open\library/sha512.c **** #else
  30:Source\mbedtls_open\library/sha512.c **** #include MBEDTLS_CONFIG_FILE
ARM GAS  C:\Users\Phuong\AppData\Local\Temp\ccCGJz1B.s 			page 2


  31:Source\mbedtls_open\library/sha512.c **** #endif
  32:Source\mbedtls_open\library/sha512.c **** 
  33:Source\mbedtls_open\library/sha512.c **** #if defined(MBEDTLS_SHA512_C)
  34:Source\mbedtls_open\library/sha512.c **** 
  35:Source\mbedtls_open\library/sha512.c **** #include "mbedtls/sha512.h"
  36:Source\mbedtls_open\library/sha512.c **** #include "mbedtls/platform_util.h"
  37:Source\mbedtls_open\library/sha512.c **** 
  38:Source\mbedtls_open\library/sha512.c **** #if defined(_MSC_VER) || defined(__WATCOMC__)
  39:Source\mbedtls_open\library/sha512.c ****   #define UL64(x) x##ui64
  40:Source\mbedtls_open\library/sha512.c **** #else
  41:Source\mbedtls_open\library/sha512.c ****   #define UL64(x) x##ULL
  42:Source\mbedtls_open\library/sha512.c **** #endif
  43:Source\mbedtls_open\library/sha512.c **** 
  44:Source\mbedtls_open\library/sha512.c **** #include <string.h>
  45:Source\mbedtls_open\library/sha512.c **** 
  46:Source\mbedtls_open\library/sha512.c **** #if defined(MBEDTLS_SELF_TEST)
  47:Source\mbedtls_open\library/sha512.c **** #if defined(MBEDTLS_PLATFORM_C)
  48:Source\mbedtls_open\library/sha512.c **** #include "mbedtls/platform.h"
  49:Source\mbedtls_open\library/sha512.c **** #else
  50:Source\mbedtls_open\library/sha512.c **** #include <stdio.h>
  51:Source\mbedtls_open\library/sha512.c **** #include <stdlib.h>
  52:Source\mbedtls_open\library/sha512.c **** #define mbedtls_printf printf
  53:Source\mbedtls_open\library/sha512.c **** #define mbedtls_calloc    calloc
  54:Source\mbedtls_open\library/sha512.c **** #define mbedtls_free       free
  55:Source\mbedtls_open\library/sha512.c **** #endif /* MBEDTLS_PLATFORM_C */
  56:Source\mbedtls_open\library/sha512.c **** #endif /* MBEDTLS_SELF_TEST */
  57:Source\mbedtls_open\library/sha512.c **** 
  58:Source\mbedtls_open\library/sha512.c **** #if !defined(MBEDTLS_SHA512_ALT)
  59:Source\mbedtls_open\library/sha512.c **** 
  60:Source\mbedtls_open\library/sha512.c **** /*
  61:Source\mbedtls_open\library/sha512.c ****  * 64-bit integer manipulation macros (big endian)
  62:Source\mbedtls_open\library/sha512.c ****  */
  63:Source\mbedtls_open\library/sha512.c **** #ifndef GET_UINT64_BE
  64:Source\mbedtls_open\library/sha512.c **** #define GET_UINT64_BE(n,b,i)                            \
  65:Source\mbedtls_open\library/sha512.c **** {                                                       \
  66:Source\mbedtls_open\library/sha512.c ****     (n) = ( (uint64_t) (b)[(i)    ] << 56 )       \
  67:Source\mbedtls_open\library/sha512.c ****         | ( (uint64_t) (b)[(i) + 1] << 48 )       \
  68:Source\mbedtls_open\library/sha512.c ****         | ( (uint64_t) (b)[(i) + 2] << 40 )       \
  69:Source\mbedtls_open\library/sha512.c ****         | ( (uint64_t) (b)[(i) + 3] << 32 )       \
  70:Source\mbedtls_open\library/sha512.c ****         | ( (uint64_t) (b)[(i) + 4] << 24 )       \
  71:Source\mbedtls_open\library/sha512.c ****         | ( (uint64_t) (b)[(i) + 5] << 16 )       \
  72:Source\mbedtls_open\library/sha512.c ****         | ( (uint64_t) (b)[(i) + 6] <<  8 )       \
  73:Source\mbedtls_open\library/sha512.c ****         | ( (uint64_t) (b)[(i) + 7]       );      \
  74:Source\mbedtls_open\library/sha512.c **** }
  75:Source\mbedtls_open\library/sha512.c **** #endif /* GET_UINT64_BE */
  76:Source\mbedtls_open\library/sha512.c **** 
  77:Source\mbedtls_open\library/sha512.c **** #ifndef PUT_UINT64_BE
  78:Source\mbedtls_open\library/sha512.c **** #define PUT_UINT64_BE(n,b,i)                            \
  79:Source\mbedtls_open\library/sha512.c **** {                                                       \
  80:Source\mbedtls_open\library/sha512.c ****     (b)[(i)    ] = (unsigned char) ( (n) >> 56 );       \
  81:Source\mbedtls_open\library/sha512.c ****     (b)[(i) + 1] = (unsigned char) ( (n) >> 48 );       \
  82:Source\mbedtls_open\library/sha512.c ****     (b)[(i) + 2] = (unsigned char) ( (n) >> 40 );       \
  83:Source\mbedtls_open\library/sha512.c ****     (b)[(i) + 3] = (unsigned char) ( (n) >> 32 );       \
  84:Source\mbedtls_open\library/sha512.c ****     (b)[(i) + 4] = (unsigned char) ( (n) >> 24 );       \
  85:Source\mbedtls_open\library/sha512.c ****     (b)[(i) + 5] = (unsigned char) ( (n) >> 16 );       \
  86:Source\mbedtls_open\library/sha512.c ****     (b)[(i) + 6] = (unsigned char) ( (n) >>  8 );       \
  87:Source\mbedtls_open\library/sha512.c ****     (b)[(i) + 7] = (unsigned char) ( (n)       );       \
ARM GAS  C:\Users\Phuong\AppData\Local\Temp\ccCGJz1B.s 			page 3


  88:Source\mbedtls_open\library/sha512.c **** }
  89:Source\mbedtls_open\library/sha512.c **** #endif /* PUT_UINT64_BE */
  90:Source\mbedtls_open\library/sha512.c **** 
  91:Source\mbedtls_open\library/sha512.c **** void mbedtls_sha512_init( mbedtls_sha512_context *ctx )
  92:Source\mbedtls_open\library/sha512.c **** {
  28              		.loc 1 92 0
  29              		.cfi_startproc
  30              		@ args = 0, pretend = 0, frame = 0
  31              		@ frame_needed = 0, uses_anonymous_args = 0
  32              	.LVL0:
  33 0000 10B5     		push	{r4, lr}
  34              		.cfi_def_cfa_offset 8
  35              		.cfi_offset 4, -8
  36              		.cfi_offset 14, -4
  93:Source\mbedtls_open\library/sha512.c ****     memset( ctx, 0, sizeof( mbedtls_sha512_context ) );
  37              		.loc 1 93 0
  38 0002 D822     		movs	r2, #216
  39 0004 0021     		movs	r1, #0
  40 0006 FFF7FEFF 		bl	memset
  41              	.LVL1:
  94:Source\mbedtls_open\library/sha512.c **** }
  42              		.loc 1 94 0
  43              		@ sp needed
  44 000a 10BD     		pop	{r4, pc}
  45              		.cfi_endproc
  46              	.LFE1:
  47              		.size	mbedtls_sha512_init, .-mbedtls_sha512_init
  48              		.section	.text.mbedtls_sha512_free,"ax",%progbits
  49              		.align	2
  50              		.global	mbedtls_sha512_free
  51              		.code	16
  52              		.thumb_func
  53              		.type	mbedtls_sha512_free, %function
  54              	mbedtls_sha512_free:
  55              	.LFB2:
  95:Source\mbedtls_open\library/sha512.c **** 
  96:Source\mbedtls_open\library/sha512.c **** void mbedtls_sha512_free( mbedtls_sha512_context *ctx )
  97:Source\mbedtls_open\library/sha512.c **** {
  56              		.loc 1 97 0
  57              		.cfi_startproc
  58              		@ args = 0, pretend = 0, frame = 0
  59              		@ frame_needed = 0, uses_anonymous_args = 0
  60              	.LVL2:
  61 0000 10B5     		push	{r4, lr}
  62              		.cfi_def_cfa_offset 8
  63              		.cfi_offset 4, -8
  64              		.cfi_offset 14, -4
  98:Source\mbedtls_open\library/sha512.c ****     if( ctx == NULL )
  65              		.loc 1 98 0
  66 0002 0028     		cmp	r0, #0
  67 0004 02D0     		beq	.L2
  99:Source\mbedtls_open\library/sha512.c ****         return;
 100:Source\mbedtls_open\library/sha512.c **** 
 101:Source\mbedtls_open\library/sha512.c ****     mbedtls_platform_zeroize( ctx, sizeof( mbedtls_sha512_context ) );
  68              		.loc 1 101 0
  69 0006 D821     		movs	r1, #216
  70 0008 FFF7FEFF 		bl	mbedtls_platform_zeroize
ARM GAS  C:\Users\Phuong\AppData\Local\Temp\ccCGJz1B.s 			page 4


  71              	.LVL3:
  72              	.L2:
 102:Source\mbedtls_open\library/sha512.c **** }
  73              		.loc 1 102 0
  74              		@ sp needed
  75 000c 10BD     		pop	{r4, pc}
  76              		.cfi_endproc
  77              	.LFE2:
  78              		.size	mbedtls_sha512_free, .-mbedtls_sha512_free
  79 000e C046     		.section	.text.mbedtls_sha512_clone,"ax",%progbits
  80              		.align	2
  81              		.global	mbedtls_sha512_clone
  82              		.code	16
  83              		.thumb_func
  84              		.type	mbedtls_sha512_clone, %function
  85              	mbedtls_sha512_clone:
  86              	.LFB3:
 103:Source\mbedtls_open\library/sha512.c **** 
 104:Source\mbedtls_open\library/sha512.c **** void mbedtls_sha512_clone( mbedtls_sha512_context *dst,
 105:Source\mbedtls_open\library/sha512.c ****                            const mbedtls_sha512_context *src )
 106:Source\mbedtls_open\library/sha512.c **** {
  87              		.loc 1 106 0
  88              		.cfi_startproc
  89              		@ args = 0, pretend = 0, frame = 0
  90              		@ frame_needed = 0, uses_anonymous_args = 0
  91              	.LVL4:
  92 0000 10B5     		push	{r4, lr}
  93              		.cfi_def_cfa_offset 8
  94              		.cfi_offset 4, -8
  95              		.cfi_offset 14, -4
 107:Source\mbedtls_open\library/sha512.c ****     *dst = *src;
  96              		.loc 1 107 0
  97 0002 D822     		movs	r2, #216
  98 0004 FFF7FEFF 		bl	memcpy
  99              	.LVL5:
 108:Source\mbedtls_open\library/sha512.c **** }
 100              		.loc 1 108 0
 101              		@ sp needed
 102 0008 10BD     		pop	{r4, pc}
 103              		.cfi_endproc
 104              	.LFE3:
 105              		.size	mbedtls_sha512_clone, .-mbedtls_sha512_clone
 106 000a C046     		.section	.text.mbedtls_sha512_starts_ret,"ax",%progbits
 107              		.align	2
 108              		.global	mbedtls_sha512_starts_ret
 109              		.code	16
 110              		.thumb_func
 111              		.type	mbedtls_sha512_starts_ret, %function
 112              	mbedtls_sha512_starts_ret:
 113              	.LFB4:
 109:Source\mbedtls_open\library/sha512.c **** 
 110:Source\mbedtls_open\library/sha512.c **** /*
 111:Source\mbedtls_open\library/sha512.c ****  * SHA-512 context setup
 112:Source\mbedtls_open\library/sha512.c ****  */
 113:Source\mbedtls_open\library/sha512.c **** int mbedtls_sha512_starts_ret( mbedtls_sha512_context *ctx, int is384 )
 114:Source\mbedtls_open\library/sha512.c **** {
 114              		.loc 1 114 0
ARM GAS  C:\Users\Phuong\AppData\Local\Temp\ccCGJz1B.s 			page 5


 115              		.cfi_startproc
 116              		@ args = 0, pretend = 0, frame = 0
 117              		@ frame_needed = 0, uses_anonymous_args = 0
 118              		@ link register save eliminated.
 119              	.LVL6:
 115:Source\mbedtls_open\library/sha512.c ****     ctx->total[0] = 0;
 120              		.loc 1 115 0
 121 0000 0022     		movs	r2, #0
 122 0002 0023     		movs	r3, #0
 123 0004 0260     		str	r2, [r0]
 124 0006 4360     		str	r3, [r0, #4]
 116:Source\mbedtls_open\library/sha512.c ****     ctx->total[1] = 0;
 125              		.loc 1 116 0
 126 0008 8260     		str	r2, [r0, #8]
 127 000a C360     		str	r3, [r0, #12]
 117:Source\mbedtls_open\library/sha512.c **** 
 118:Source\mbedtls_open\library/sha512.c ****     if( is384 == 0 )
 128              		.loc 1 118 0
 129 000c 0029     		cmp	r1, #0
 130 000e 20D1     		bne	.L6
 119:Source\mbedtls_open\library/sha512.c ****     {
 120:Source\mbedtls_open\library/sha512.c ****         /* SHA-512 */
 121:Source\mbedtls_open\library/sha512.c ****         ctx->state[0] = UL64(0x6A09E667F3BCC908);
 131              		.loc 1 121 0
 132 0010 224A     		ldr	r2, .L8
 133 0012 234B     		ldr	r3, .L8+4
 134 0014 0261     		str	r2, [r0, #16]
 135 0016 4361     		str	r3, [r0, #20]
 122:Source\mbedtls_open\library/sha512.c ****         ctx->state[1] = UL64(0xBB67AE8584CAA73B);
 136              		.loc 1 122 0
 137 0018 224A     		ldr	r2, .L8+8
 138 001a 234B     		ldr	r3, .L8+12
 139 001c 8261     		str	r2, [r0, #24]
 140 001e C361     		str	r3, [r0, #28]
 123:Source\mbedtls_open\library/sha512.c ****         ctx->state[2] = UL64(0x3C6EF372FE94F82B);
 141              		.loc 1 123 0
 142 0020 224A     		ldr	r2, .L8+16
 143 0022 234B     		ldr	r3, .L8+20
 144 0024 0262     		str	r2, [r0, #32]
 145 0026 4362     		str	r3, [r0, #36]
 124:Source\mbedtls_open\library/sha512.c ****         ctx->state[3] = UL64(0xA54FF53A5F1D36F1);
 146              		.loc 1 124 0
 147 0028 224A     		ldr	r2, .L8+24
 148 002a 234B     		ldr	r3, .L8+28
 149 002c 8262     		str	r2, [r0, #40]
 150 002e C362     		str	r3, [r0, #44]
 125:Source\mbedtls_open\library/sha512.c ****         ctx->state[4] = UL64(0x510E527FADE682D1);
 151              		.loc 1 125 0
 152 0030 224A     		ldr	r2, .L8+32
 153 0032 234B     		ldr	r3, .L8+36
 154 0034 0263     		str	r2, [r0, #48]
 155 0036 4363     		str	r3, [r0, #52]
 126:Source\mbedtls_open\library/sha512.c ****         ctx->state[5] = UL64(0x9B05688C2B3E6C1F);
 156              		.loc 1 126 0
 157 0038 224A     		ldr	r2, .L8+40
 158 003a 234B     		ldr	r3, .L8+44
 159 003c 8263     		str	r2, [r0, #56]
ARM GAS  C:\Users\Phuong\AppData\Local\Temp\ccCGJz1B.s 			page 6


 160 003e C363     		str	r3, [r0, #60]
 127:Source\mbedtls_open\library/sha512.c ****         ctx->state[6] = UL64(0x1F83D9ABFB41BD6B);
 161              		.loc 1 127 0
 162 0040 224A     		ldr	r2, .L8+48
 163 0042 234B     		ldr	r3, .L8+52
 164 0044 0264     		str	r2, [r0, #64]
 165 0046 4364     		str	r3, [r0, #68]
 128:Source\mbedtls_open\library/sha512.c ****         ctx->state[7] = UL64(0x5BE0CD19137E2179);
 166              		.loc 1 128 0
 167 0048 224A     		ldr	r2, .L8+56
 168 004a 234B     		ldr	r3, .L8+60
 169 004c 8264     		str	r2, [r0, #72]
 170 004e C364     		str	r3, [r0, #76]
 171 0050 1FE0     		b	.L7
 172              	.L6:
 129:Source\mbedtls_open\library/sha512.c ****     }
 130:Source\mbedtls_open\library/sha512.c ****     else
 131:Source\mbedtls_open\library/sha512.c ****     {
 132:Source\mbedtls_open\library/sha512.c ****         /* SHA-384 */
 133:Source\mbedtls_open\library/sha512.c ****         ctx->state[0] = UL64(0xCBBB9D5DC1059ED8);
 173              		.loc 1 133 0
 174 0052 224A     		ldr	r2, .L8+64
 175 0054 224B     		ldr	r3, .L8+68
 176 0056 0261     		str	r2, [r0, #16]
 177 0058 4361     		str	r3, [r0, #20]
 134:Source\mbedtls_open\library/sha512.c ****         ctx->state[1] = UL64(0x629A292A367CD507);
 178              		.loc 1 134 0
 179 005a 224A     		ldr	r2, .L8+72
 180 005c 224B     		ldr	r3, .L8+76
 181 005e 8261     		str	r2, [r0, #24]
 182 0060 C361     		str	r3, [r0, #28]
 135:Source\mbedtls_open\library/sha512.c ****         ctx->state[2] = UL64(0x9159015A3070DD17);
 183              		.loc 1 135 0
 184 0062 224A     		ldr	r2, .L8+80
 185 0064 224B     		ldr	r3, .L8+84
 186 0066 0262     		str	r2, [r0, #32]
 187 0068 4362     		str	r3, [r0, #36]
 136:Source\mbedtls_open\library/sha512.c ****         ctx->state[3] = UL64(0x152FECD8F70E5939);
 188              		.loc 1 136 0
 189 006a 224A     		ldr	r2, .L8+88
 190 006c 224B     		ldr	r3, .L8+92
 191 006e 8262     		str	r2, [r0, #40]
 192 0070 C362     		str	r3, [r0, #44]
 137:Source\mbedtls_open\library/sha512.c ****         ctx->state[4] = UL64(0x67332667FFC00B31);
 193              		.loc 1 137 0
 194 0072 224A     		ldr	r2, .L8+96
 195 0074 224B     		ldr	r3, .L8+100
 196 0076 0263     		str	r2, [r0, #48]
 197 0078 4363     		str	r3, [r0, #52]
 138:Source\mbedtls_open\library/sha512.c ****         ctx->state[5] = UL64(0x8EB44A8768581511);
 198              		.loc 1 138 0
 199 007a 224A     		ldr	r2, .L8+104
 200 007c 224B     		ldr	r3, .L8+108
 201 007e 8263     		str	r2, [r0, #56]
 202 0080 C363     		str	r3, [r0, #60]
 139:Source\mbedtls_open\library/sha512.c ****         ctx->state[6] = UL64(0xDB0C2E0D64F98FA7);
 203              		.loc 1 139 0
ARM GAS  C:\Users\Phuong\AppData\Local\Temp\ccCGJz1B.s 			page 7


 204 0082 224A     		ldr	r2, .L8+112
 205 0084 224B     		ldr	r3, .L8+116
 206 0086 0264     		str	r2, [r0, #64]
 207 0088 4364     		str	r3, [r0, #68]
 140:Source\mbedtls_open\library/sha512.c ****         ctx->state[7] = UL64(0x47B5481DBEFA4FA4);
 208              		.loc 1 140 0
 209 008a 224A     		ldr	r2, .L8+120
 210 008c 224B     		ldr	r3, .L8+124
 211 008e 8264     		str	r2, [r0, #72]
 212 0090 C364     		str	r3, [r0, #76]
 213              	.L7:
 141:Source\mbedtls_open\library/sha512.c ****     }
 142:Source\mbedtls_open\library/sha512.c **** 
 143:Source\mbedtls_open\library/sha512.c ****     ctx->is384 = is384;
 214              		.loc 1 143 0
 215 0092 D023     		movs	r3, #208
 216 0094 C150     		str	r1, [r0, r3]
 144:Source\mbedtls_open\library/sha512.c **** 
 145:Source\mbedtls_open\library/sha512.c ****     return( 0 );
 146:Source\mbedtls_open\library/sha512.c **** }
 217              		.loc 1 146 0
 218 0096 0020     		movs	r0, #0
 219              	.LVL7:
 220              		@ sp needed
 221 0098 7047     		bx	lr
 222              	.L9:
 223 009a C046     		.align	2
 224              	.L8:
 225 009c 08C9BCF3 		.word	-205731576
 226 00a0 67E6096A 		.word	1779033703
 227 00a4 3BA7CA84 		.word	-2067093701
 228 00a8 85AE67BB 		.word	-1150833019
 229 00ac 2BF894FE 		.word	-23791573
 230 00b0 72F36E3C 		.word	1013904242
 231 00b4 F1361D5F 		.word	1595750129
 232 00b8 3AF54FA5 		.word	-1521486534
 233 00bc D182E6AD 		.word	-1377402159
 234 00c0 7F520E51 		.word	1359893119
 235 00c4 1F6C3E2B 		.word	725511199
 236 00c8 8C68059B 		.word	-1694144372
 237 00cc 6BBD41FB 		.word	-79577749
 238 00d0 ABD9831F 		.word	528734635
 239 00d4 79217E13 		.word	327033209
 240 00d8 19CDE05B 		.word	1541459225
 241 00dc D89E05C1 		.word	-1056596264
 242 00e0 5D9DBBCB 		.word	-876896931
 243 00e4 07D57C36 		.word	914150663
 244 00e8 2A299A62 		.word	1654270250
 245 00ec 17DD7030 		.word	812702999
 246 00f0 5A015991 		.word	-1856437926
 247 00f4 39590EF7 		.word	-150054599
 248 00f8 D8EC2F15 		.word	355462360
 249 00fc 310BC0FF 		.word	-4191439
 250 0100 67263367 		.word	1731405415
 251 0104 11155868 		.word	1750603025
 252 0108 874AB48E 		.word	-1900787065
 253 010c A78FF964 		.word	1694076839
ARM GAS  C:\Users\Phuong\AppData\Local\Temp\ccCGJz1B.s 			page 8


 254 0110 0D2E0CDB 		.word	-619958771
 255 0114 A44FFABE 		.word	-1090891868
 256 0118 1D48B547 		.word	1203062813
 257              		.cfi_endproc
 258              	.LFE4:
 259              		.size	mbedtls_sha512_starts_ret, .-mbedtls_sha512_starts_ret
 260              		.section	.text.mbedtls_sha512_starts,"ax",%progbits
 261              		.align	2
 262              		.global	mbedtls_sha512_starts
 263              		.code	16
 264              		.thumb_func
 265              		.type	mbedtls_sha512_starts, %function
 266              	mbedtls_sha512_starts:
 267              	.LFB5:
 147:Source\mbedtls_open\library/sha512.c **** 
 148:Source\mbedtls_open\library/sha512.c **** #if !defined(MBEDTLS_DEPRECATED_REMOVED)
 149:Source\mbedtls_open\library/sha512.c **** void mbedtls_sha512_starts( mbedtls_sha512_context *ctx,
 150:Source\mbedtls_open\library/sha512.c ****                             int is384 )
 151:Source\mbedtls_open\library/sha512.c **** {
 268              		.loc 1 151 0
 269              		.cfi_startproc
 270              		@ args = 0, pretend = 0, frame = 0
 271              		@ frame_needed = 0, uses_anonymous_args = 0
 272              	.LVL8:
 273 0000 10B5     		push	{r4, lr}
 274              		.cfi_def_cfa_offset 8
 275              		.cfi_offset 4, -8
 276              		.cfi_offset 14, -4
 152:Source\mbedtls_open\library/sha512.c ****     mbedtls_sha512_starts_ret( ctx, is384 );
 277              		.loc 1 152 0
 278 0002 FFF7FEFF 		bl	mbedtls_sha512_starts_ret
 279              	.LVL9:
 153:Source\mbedtls_open\library/sha512.c **** }
 280              		.loc 1 153 0
 281              		@ sp needed
 282 0006 10BD     		pop	{r4, pc}
 283              		.cfi_endproc
 284              	.LFE5:
 285              		.size	mbedtls_sha512_starts, .-mbedtls_sha512_starts
 286              		.section	.text.mbedtls_internal_sha512_process,"ax",%progbits
 287              		.align	2
 288              		.global	mbedtls_internal_sha512_process
 289              		.code	16
 290              		.thumb_func
 291              		.type	mbedtls_internal_sha512_process, %function
 292              	mbedtls_internal_sha512_process:
 293              	.LFB6:
 154:Source\mbedtls_open\library/sha512.c **** #endif
 155:Source\mbedtls_open\library/sha512.c **** 
 156:Source\mbedtls_open\library/sha512.c **** #if !defined(MBEDTLS_SHA512_PROCESS_ALT)
 157:Source\mbedtls_open\library/sha512.c **** 
 158:Source\mbedtls_open\library/sha512.c **** /*
 159:Source\mbedtls_open\library/sha512.c ****  * Round constants
 160:Source\mbedtls_open\library/sha512.c ****  */
 161:Source\mbedtls_open\library/sha512.c **** static const uint64_t K[80] =
 162:Source\mbedtls_open\library/sha512.c **** {
 163:Source\mbedtls_open\library/sha512.c ****     UL64(0x428A2F98D728AE22),  UL64(0x7137449123EF65CD),
ARM GAS  C:\Users\Phuong\AppData\Local\Temp\ccCGJz1B.s 			page 9


 164:Source\mbedtls_open\library/sha512.c ****     UL64(0xB5C0FBCFEC4D3B2F),  UL64(0xE9B5DBA58189DBBC),
 165:Source\mbedtls_open\library/sha512.c ****     UL64(0x3956C25BF348B538),  UL64(0x59F111F1B605D019),
 166:Source\mbedtls_open\library/sha512.c ****     UL64(0x923F82A4AF194F9B),  UL64(0xAB1C5ED5DA6D8118),
 167:Source\mbedtls_open\library/sha512.c ****     UL64(0xD807AA98A3030242),  UL64(0x12835B0145706FBE),
 168:Source\mbedtls_open\library/sha512.c ****     UL64(0x243185BE4EE4B28C),  UL64(0x550C7DC3D5FFB4E2),
 169:Source\mbedtls_open\library/sha512.c ****     UL64(0x72BE5D74F27B896F),  UL64(0x80DEB1FE3B1696B1),
 170:Source\mbedtls_open\library/sha512.c ****     UL64(0x9BDC06A725C71235),  UL64(0xC19BF174CF692694),
 171:Source\mbedtls_open\library/sha512.c ****     UL64(0xE49B69C19EF14AD2),  UL64(0xEFBE4786384F25E3),
 172:Source\mbedtls_open\library/sha512.c ****     UL64(0x0FC19DC68B8CD5B5),  UL64(0x240CA1CC77AC9C65),
 173:Source\mbedtls_open\library/sha512.c ****     UL64(0x2DE92C6F592B0275),  UL64(0x4A7484AA6EA6E483),
 174:Source\mbedtls_open\library/sha512.c ****     UL64(0x5CB0A9DCBD41FBD4),  UL64(0x76F988DA831153B5),
 175:Source\mbedtls_open\library/sha512.c ****     UL64(0x983E5152EE66DFAB),  UL64(0xA831C66D2DB43210),
 176:Source\mbedtls_open\library/sha512.c ****     UL64(0xB00327C898FB213F),  UL64(0xBF597FC7BEEF0EE4),
 177:Source\mbedtls_open\library/sha512.c ****     UL64(0xC6E00BF33DA88FC2),  UL64(0xD5A79147930AA725),
 178:Source\mbedtls_open\library/sha512.c ****     UL64(0x06CA6351E003826F),  UL64(0x142929670A0E6E70),
 179:Source\mbedtls_open\library/sha512.c ****     UL64(0x27B70A8546D22FFC),  UL64(0x2E1B21385C26C926),
 180:Source\mbedtls_open\library/sha512.c ****     UL64(0x4D2C6DFC5AC42AED),  UL64(0x53380D139D95B3DF),
 181:Source\mbedtls_open\library/sha512.c ****     UL64(0x650A73548BAF63DE),  UL64(0x766A0ABB3C77B2A8),
 182:Source\mbedtls_open\library/sha512.c ****     UL64(0x81C2C92E47EDAEE6),  UL64(0x92722C851482353B),
 183:Source\mbedtls_open\library/sha512.c ****     UL64(0xA2BFE8A14CF10364),  UL64(0xA81A664BBC423001),
 184:Source\mbedtls_open\library/sha512.c ****     UL64(0xC24B8B70D0F89791),  UL64(0xC76C51A30654BE30),
 185:Source\mbedtls_open\library/sha512.c ****     UL64(0xD192E819D6EF5218),  UL64(0xD69906245565A910),
 186:Source\mbedtls_open\library/sha512.c ****     UL64(0xF40E35855771202A),  UL64(0x106AA07032BBD1B8),
 187:Source\mbedtls_open\library/sha512.c ****     UL64(0x19A4C116B8D2D0C8),  UL64(0x1E376C085141AB53),
 188:Source\mbedtls_open\library/sha512.c ****     UL64(0x2748774CDF8EEB99),  UL64(0x34B0BCB5E19B48A8),
 189:Source\mbedtls_open\library/sha512.c ****     UL64(0x391C0CB3C5C95A63),  UL64(0x4ED8AA4AE3418ACB),
 190:Source\mbedtls_open\library/sha512.c ****     UL64(0x5B9CCA4F7763E373),  UL64(0x682E6FF3D6B2B8A3),
 191:Source\mbedtls_open\library/sha512.c ****     UL64(0x748F82EE5DEFB2FC),  UL64(0x78A5636F43172F60),
 192:Source\mbedtls_open\library/sha512.c ****     UL64(0x84C87814A1F0AB72),  UL64(0x8CC702081A6439EC),
 193:Source\mbedtls_open\library/sha512.c ****     UL64(0x90BEFFFA23631E28),  UL64(0xA4506CEBDE82BDE9),
 194:Source\mbedtls_open\library/sha512.c ****     UL64(0xBEF9A3F7B2C67915),  UL64(0xC67178F2E372532B),
 195:Source\mbedtls_open\library/sha512.c ****     UL64(0xCA273ECEEA26619C),  UL64(0xD186B8C721C0C207),
 196:Source\mbedtls_open\library/sha512.c ****     UL64(0xEADA7DD6CDE0EB1E),  UL64(0xF57D4F7FEE6ED178),
 197:Source\mbedtls_open\library/sha512.c ****     UL64(0x06F067AA72176FBA),  UL64(0x0A637DC5A2C898A6),
 198:Source\mbedtls_open\library/sha512.c ****     UL64(0x113F9804BEF90DAE),  UL64(0x1B710B35131C471B),
 199:Source\mbedtls_open\library/sha512.c ****     UL64(0x28DB77F523047D84),  UL64(0x32CAAB7B40C72493),
 200:Source\mbedtls_open\library/sha512.c ****     UL64(0x3C9EBE0A15C9BEBC),  UL64(0x431D67C49C100D4C),
 201:Source\mbedtls_open\library/sha512.c ****     UL64(0x4CC5D4BECB3E42B6),  UL64(0x597F299CFC657E2A),
 202:Source\mbedtls_open\library/sha512.c ****     UL64(0x5FCB6FAB3AD6FAEC),  UL64(0x6C44198C4A475817)
 203:Source\mbedtls_open\library/sha512.c **** };
 204:Source\mbedtls_open\library/sha512.c **** 
 205:Source\mbedtls_open\library/sha512.c **** int mbedtls_internal_sha512_process( mbedtls_sha512_context *ctx,
 206:Source\mbedtls_open\library/sha512.c ****                                      const unsigned char data[128] )
 207:Source\mbedtls_open\library/sha512.c **** {
 294              		.loc 1 207 0
 295              		.cfi_startproc
 296              		@ args = 0, pretend = 0, frame = 1040
 297              		@ frame_needed = 0, uses_anonymous_args = 0
 298              	.LVL10:
 299 0000 F0B5     		push	{r4, r5, r6, r7, lr}
 300              		.cfi_def_cfa_offset 20
 301              		.cfi_offset 4, -20
 302              		.cfi_offset 5, -16
 303              		.cfi_offset 6, -12
 304              		.cfi_offset 7, -8
 305              		.cfi_offset 14, -4
 306 0002 5F46     		mov	r7, fp
ARM GAS  C:\Users\Phuong\AppData\Local\Temp\ccCGJz1B.s 			page 10


 307 0004 5646     		mov	r6, r10
 308 0006 4D46     		mov	r5, r9
 309 0008 4446     		mov	r4, r8
 310 000a F0B4     		push	{r4, r5, r6, r7}
 311              		.cfi_def_cfa_offset 36
 312              		.cfi_offset 8, -36
 313              		.cfi_offset 9, -32
 314              		.cfi_offset 10, -28
 315              		.cfi_offset 11, -24
 316 000c 124C     		ldr	r4, .L17
 317 000e A544     		add	sp, sp, r4
 318              		.cfi_def_cfa_offset 1080
 319 0010 5D90     		str	r0, [sp, #372]
 320 0012 0D00     		movs	r5, r1
 321              	.LVL11:
 208:Source\mbedtls_open\library/sha512.c ****     int i;
 209:Source\mbedtls_open\library/sha512.c ****     uint64_t temp1, temp2, W[80];
 210:Source\mbedtls_open\library/sha512.c ****     uint64_t A, B, C, D, E, F, G, H;
 211:Source\mbedtls_open\library/sha512.c **** 
 212:Source\mbedtls_open\library/sha512.c **** #define  SHR(x,n) (x >> n)
 213:Source\mbedtls_open\library/sha512.c **** #define ROTR(x,n) (SHR(x,n) | (x << (64 - n)))
 214:Source\mbedtls_open\library/sha512.c **** 
 215:Source\mbedtls_open\library/sha512.c **** #define S0(x) (ROTR(x, 1) ^ ROTR(x, 8) ^  SHR(x, 7))
 216:Source\mbedtls_open\library/sha512.c **** #define S1(x) (ROTR(x,19) ^ ROTR(x,61) ^  SHR(x, 6))
 217:Source\mbedtls_open\library/sha512.c **** 
 218:Source\mbedtls_open\library/sha512.c **** #define S2(x) (ROTR(x,28) ^ ROTR(x,34) ^ ROTR(x,39))
 219:Source\mbedtls_open\library/sha512.c **** #define S3(x) (ROTR(x,14) ^ ROTR(x,18) ^ ROTR(x,41))
 220:Source\mbedtls_open\library/sha512.c **** 
 221:Source\mbedtls_open\library/sha512.c **** #define F0(x,y,z) ((x & y) | (z & (x | y)))
 222:Source\mbedtls_open\library/sha512.c **** #define F1(x,y,z) (z ^ (x & (y ^ z)))
 223:Source\mbedtls_open\library/sha512.c **** 
 224:Source\mbedtls_open\library/sha512.c **** #define P(a,b,c,d,e,f,g,h,x,K)                  \
 225:Source\mbedtls_open\library/sha512.c **** {                                               \
 226:Source\mbedtls_open\library/sha512.c ****     temp1 = h + S3(e) + F1(e,f,g) + K + x;      \
 227:Source\mbedtls_open\library/sha512.c ****     temp2 = S2(a) + F0(a,b,c);                  \
 228:Source\mbedtls_open\library/sha512.c ****     d += temp1; h = temp1 + temp2;              \
 229:Source\mbedtls_open\library/sha512.c **** }
 230:Source\mbedtls_open\library/sha512.c **** 
 231:Source\mbedtls_open\library/sha512.c ****     for( i = 0; i < 16; i++ )
 322              		.loc 1 231 0
 323 0014 0024     		movs	r4, #0
 324 0016 1BE0     		b	.L12
 325              	.LVL12:
 326              	.L13:
 232:Source\mbedtls_open\library/sha512.c ****     {
 233:Source\mbedtls_open\library/sha512.c ****         GET_UINT64_BE( W[i], data, i << 3 );
 327              		.loc 1 233 0 discriminator 3
 328 0018 E200     		lsls	r2, r4, #3
 329 001a AE5C     		ldrb	r6, [r5, r2]
 330 001c 3606     		lsls	r6, r6, #24
 331 001e AB18     		adds	r3, r5, r2
 332 0020 5978     		ldrb	r1, [r3, #1]
 333 0022 0904     		lsls	r1, r1, #16
 334 0024 3143     		orrs	r1, r6
 335 0026 9E78     		ldrb	r6, [r3, #2]
 336 0028 3602     		lsls	r6, r6, #8
 337 002a 0E43     		orrs	r6, r1
ARM GAS  C:\Users\Phuong\AppData\Local\Temp\ccCGJz1B.s 			page 11


 338 002c DF78     		ldrb	r7, [r3, #3]
 339 002e 1979     		ldrb	r1, [r3, #4]
 340 0030 0806     		lsls	r0, r1, #24
 341 0032 5979     		ldrb	r1, [r3, #5]
 342 0034 0904     		lsls	r1, r1, #16
 343 0036 0143     		orrs	r1, r0
 344 0038 9879     		ldrb	r0, [r3, #6]
 345 003a 0002     		lsls	r0, r0, #8
 346 003c 0143     		orrs	r1, r0
 347 003e 3E43     		orrs	r6, r7
 348 0040 DB79     		ldrb	r3, [r3, #7]
 349 0042 1943     		orrs	r1, r3
 350 0044 64AB     		add	r3, sp, #400
 351 0046 9C46     		mov	ip, r3
 352 0048 6244     		add	r2, r2, ip
 353 004a 1160     		str	r1, [r2]
 354 004c 5660     		str	r6, [r2, #4]
 231:Source\mbedtls_open\library/sha512.c ****     {
 355              		.loc 1 231 0 discriminator 3
 356 004e 0134     		adds	r4, r4, #1
 357              	.LVL13:
 358              	.L12:
 231:Source\mbedtls_open\library/sha512.c ****     {
 359              		.loc 1 231 0 is_stmt 0 discriminator 1
 360 0050 0F2C     		cmp	r4, #15
 361 0052 E1DD     		ble	.L13
 362 0054 6DE0     		b	.L14
 363              	.L18:
 364 0056 C046     		.align	2
 365              	.L17:
 366 0058 ECFBFFFF 		.word	-1044
 367              	.LVL14:
 368              	.L15:
 234:Source\mbedtls_open\library/sha512.c ****     }
 235:Source\mbedtls_open\library/sha512.c **** 
 236:Source\mbedtls_open\library/sha512.c ****     for( ; i < 80; i++ )
 237:Source\mbedtls_open\library/sha512.c ****     {
 238:Source\mbedtls_open\library/sha512.c ****         W[i] = S1(W[i -  2]) + W[i -  7] +
 369              		.loc 1 238 0 is_stmt 1 discriminator 2
 370 005c A21E     		subs	r2, r4, #2
 371 005e D200     		lsls	r2, r2, #3
 372 0060 64AB     		add	r3, sp, #400
 373 0062 9C46     		mov	ip, r3
 374 0064 6244     		add	r2, r2, ip
 375 0066 1368     		ldr	r3, [r2]
 376 0068 5268     		ldr	r2, [r2, #4]
 377 006a 5003     		lsls	r0, r2, #13
 378 006c D90C     		lsrs	r1, r3, #19
 379 006e 0843     		orrs	r0, r1
 380 0070 8446     		mov	ip, r0
 381 0072 5D03     		lsls	r5, r3, #13
 382 0074 D10C     		lsrs	r1, r2, #19
 383 0076 0D43     		orrs	r5, r1
 384 0078 580F     		lsrs	r0, r3, #29
 385 007a D100     		lsls	r1, r2, #3
 386 007c 0143     		orrs	r1, r0
 387 007e 500F     		lsrs	r0, r2, #29
ARM GAS  C:\Users\Phuong\AppData\Local\Temp\ccCGJz1B.s 			page 12


 388 0080 8046     		mov	r8, r0
 389 0082 D800     		lsls	r0, r3, #3
 390 0084 4646     		mov	r6, r8
 391 0086 3043     		orrs	r0, r6
 392 0088 6646     		mov	r6, ip
 393 008a 7040     		eors	r0, r6
 394 008c 6940     		eors	r1, r5
 395 008e 9506     		lsls	r5, r2, #26
 396 0090 9B09     		lsrs	r3, r3, #6
 397 0092 2B43     		orrs	r3, r5
 398 0094 9209     		lsrs	r2, r2, #6
 399 0096 5840     		eors	r0, r3
 400 0098 0090     		str	r0, [sp]
 401 009a 5140     		eors	r1, r2
 402 009c 0191     		str	r1, [sp, #4]
 403 009e E31F     		subs	r3, r4, #7
 404 00a0 DB00     		lsls	r3, r3, #3
 405 00a2 64AA     		add	r2, sp, #400
 406 00a4 9446     		mov	ip, r2
 407 00a6 6344     		add	r3, r3, ip
 408 00a8 1868     		ldr	r0, [r3]
 409 00aa 5968     		ldr	r1, [r3, #4]
 410 00ac 009A     		ldr	r2, [sp]
 411 00ae 019B     		ldr	r3, [sp, #4]
 412 00b0 8018     		adds	r0, r0, r2
 413 00b2 5941     		adcs	r1, r1, r3
 239:Source\mbedtls_open\library/sha512.c ****                S0(W[i - 15]) + W[i - 16];
 414              		.loc 1 239 0 discriminator 2
 415 00b4 2200     		movs	r2, r4
 416 00b6 0F3A     		subs	r2, r2, #15
 417 00b8 D200     		lsls	r2, r2, #3
 418 00ba 6244     		add	r2, r2, ip
 419 00bc 1368     		ldr	r3, [r2]
 420 00be 5268     		ldr	r2, [r2, #4]
 421 00c0 D507     		lsls	r5, r2, #31
 422 00c2 A946     		mov	r9, r5
 423 00c4 5D08     		lsrs	r5, r3, #1
 424 00c6 4E46     		mov	r6, r9
 425 00c8 2E43     		orrs	r6, r5
 426 00ca B146     		mov	r9, r6
 427 00cc DD07     		lsls	r5, r3, #31
 428 00ce A846     		mov	r8, r5
 429 00d0 5508     		lsrs	r5, r2, #1
 430 00d2 4646     		mov	r6, r8
 431 00d4 2E43     		orrs	r6, r5
 432 00d6 B046     		mov	r8, r6
 433 00d8 1506     		lsls	r5, r2, #24
 434 00da AC46     		mov	ip, r5
 435 00dc 1D0A     		lsrs	r5, r3, #8
 436 00de 6646     		mov	r6, ip
 437 00e0 2E43     		orrs	r6, r5
 438 00e2 B446     		mov	ip, r6
 439 00e4 1D06     		lsls	r5, r3, #24
 440 00e6 AA46     		mov	r10, r5
 441 00e8 150A     		lsrs	r5, r2, #8
 442 00ea 5646     		mov	r6, r10
 443 00ec 3543     		orrs	r5, r6
ARM GAS  C:\Users\Phuong\AppData\Local\Temp\ccCGJz1B.s 			page 13


 444 00ee 4E46     		mov	r6, r9
 445 00f0 6746     		mov	r7, ip
 446 00f2 7E40     		eors	r6, r7
 447 00f4 B446     		mov	ip, r6
 448 00f6 4646     		mov	r6, r8
 449 00f8 7540     		eors	r5, r6
 450 00fa 5606     		lsls	r6, r2, #25
 451 00fc DB09     		lsrs	r3, r3, #7
 452 00fe 3343     		orrs	r3, r6
 453 0100 D209     		lsrs	r2, r2, #7
 454 0102 6646     		mov	r6, ip
 455 0104 5E40     		eors	r6, r3
 456 0106 0296     		str	r6, [sp, #8]
 457 0108 5540     		eors	r5, r2
 458 010a 0395     		str	r5, [sp, #12]
 238:Source\mbedtls_open\library/sha512.c ****                S0(W[i - 15]) + W[i - 16];
 459              		.loc 1 238 0 discriminator 2
 460 010c 029A     		ldr	r2, [sp, #8]
 461 010e 039B     		ldr	r3, [sp, #12]
 462 0110 8018     		adds	r0, r0, r2
 463 0112 5941     		adcs	r1, r1, r3
 464              		.loc 1 239 0 discriminator 2
 465 0114 2300     		movs	r3, r4
 466 0116 103B     		subs	r3, r3, #16
 467 0118 DB00     		lsls	r3, r3, #3
 468 011a 64AA     		add	r2, sp, #400
 469 011c 9446     		mov	ip, r2
 470 011e 6344     		add	r3, r3, ip
 471 0120 1A68     		ldr	r2, [r3]
 472 0122 5B68     		ldr	r3, [r3, #4]
 473 0124 8018     		adds	r0, r0, r2
 474 0126 5941     		adcs	r1, r1, r3
 238:Source\mbedtls_open\library/sha512.c ****                S0(W[i - 15]) + W[i - 16];
 475              		.loc 1 238 0 discriminator 2
 476 0128 E300     		lsls	r3, r4, #3
 477 012a 6344     		add	r3, r3, ip
 478 012c 1860     		str	r0, [r3]
 479 012e 5960     		str	r1, [r3, #4]
 236:Source\mbedtls_open\library/sha512.c ****     {
 480              		.loc 1 236 0 discriminator 2
 481 0130 0134     		adds	r4, r4, #1
 482              	.LVL15:
 483              	.L14:
 236:Source\mbedtls_open\library/sha512.c ****     {
 484              		.loc 1 236 0 is_stmt 0 discriminator 1
 485 0132 4F2C     		cmp	r4, #79
 486 0134 92DD     		ble	.L15
 240:Source\mbedtls_open\library/sha512.c ****     }
 241:Source\mbedtls_open\library/sha512.c **** 
 242:Source\mbedtls_open\library/sha512.c ****     A = ctx->state[0];
 487              		.loc 1 242 0 is_stmt 1
 488 0136 5D9F     		ldr	r7, [sp, #372]
 489 0138 3B69     		ldr	r3, [r7, #16]
 490 013a 7C69     		ldr	r4, [r7, #20]
 491 013c 5293     		str	r3, [sp, #328]
 492 013e 5394     		str	r4, [sp, #332]
 493              	.LVL16:
ARM GAS  C:\Users\Phuong\AppData\Local\Temp\ccCGJz1B.s 			page 14


 243:Source\mbedtls_open\library/sha512.c ****     B = ctx->state[1];
 494              		.loc 1 243 0
 495 0140 BA69     		ldr	r2, [r7, #24]
 496 0142 FB69     		ldr	r3, [r7, #28]
 497 0144 5492     		str	r2, [sp, #336]
 498 0146 5593     		str	r3, [sp, #340]
 499              	.LVL17:
 244:Source\mbedtls_open\library/sha512.c ****     C = ctx->state[2];
 500              		.loc 1 244 0
 501 0148 396A     		ldr	r1, [r7, #32]
 502 014a 7A6A     		ldr	r2, [r7, #36]
 503 014c 5691     		str	r1, [sp, #344]
 504 014e 5792     		str	r2, [sp, #348]
 505              	.LVL18:
 245:Source\mbedtls_open\library/sha512.c ****     D = ctx->state[3];
 506              		.loc 1 245 0
 507 0150 3B00     		movs	r3, r7
 508              	.LVL19:
 509 0152 B86A     		ldr	r0, [r7, #40]
 510 0154 F96A     		ldr	r1, [r7, #44]
 511 0156 5E90     		str	r0, [sp, #376]
 512 0158 5F91     		str	r1, [sp, #380]
 513              	.LVL20:
 246:Source\mbedtls_open\library/sha512.c ****     E = ctx->state[4];
 514              		.loc 1 246 0
 515 015a 3C6B     		ldr	r4, [r7, #48]
 516 015c 7D6B     		ldr	r5, [r7, #52]
 517              	.LVL21:
 518 015e 5894     		str	r4, [sp, #352]
 519 0160 5995     		str	r5, [sp, #356]
 520              	.LVL22:
 247:Source\mbedtls_open\library/sha512.c ****     F = ctx->state[5];
 521              		.loc 1 247 0
 522 0162 BD6B     		ldr	r5, [r7, #56]
 523 0164 FE6B     		ldr	r6, [r7, #60]
 524 0166 5A95     		str	r5, [sp, #360]
 525 0168 5B96     		str	r6, [sp, #364]
 526              	.LVL23:
 248:Source\mbedtls_open\library/sha512.c ****     G = ctx->state[6];
 527              		.loc 1 248 0
 528 016a 3E6C     		ldr	r6, [r7, #64]
 529 016c 7F6C     		ldr	r7, [r7, #68]
 530 016e 3500     		movs	r5, r6
 531              	.LVL24:
 532 0170 3E00     		movs	r6, r7
 533 0172 6095     		str	r5, [sp, #384]
 534 0174 6196     		str	r6, [sp, #388]
 535              	.LVL25:
 249:Source\mbedtls_open\library/sha512.c ****     H = ctx->state[7];
 536              		.loc 1 249 0
 537 0176 DC6C     		ldr	r4, [r3, #76]
 538 0178 9B6C     		ldr	r3, [r3, #72]
 539              	.LVL26:
 540 017a 6293     		str	r3, [sp, #392]
 541 017c 6394     		str	r4, [sp, #396]
 542              	.LVL27:
 543 017e 0693     		str	r3, [sp, #24]
ARM GAS  C:\Users\Phuong\AppData\Local\Temp\ccCGJz1B.s 			page 15


 544 0180 0794     		str	r4, [sp, #28]
 248:Source\mbedtls_open\library/sha512.c ****     G = ctx->state[6];
 545              		.loc 1 248 0
 546 0182 3700     		movs	r7, r6
 547              	.LVL28:
 548 0184 2E00     		movs	r6, r5
 549 0186 0096     		str	r6, [sp]
 550 0188 0197     		str	r7, [sp, #4]
 247:Source\mbedtls_open\library/sha512.c ****     F = ctx->state[5];
 551              		.loc 1 247 0
 552 018a 5A9D     		ldr	r5, [sp, #360]
 553 018c 5B9E     		ldr	r6, [sp, #364]
 554              	.LVL29:
 555 018e 0495     		str	r5, [sp, #16]
 556 0190 0596     		str	r6, [sp, #20]
 246:Source\mbedtls_open\library/sha512.c ****     F = ctx->state[5];
 557              		.loc 1 246 0
 558 0192 589C     		ldr	r4, [sp, #352]
 559 0194 599D     		ldr	r5, [sp, #356]
 560 0196 0894     		str	r4, [sp, #32]
 561 0198 0995     		str	r5, [sp, #36]
 245:Source\mbedtls_open\library/sha512.c ****     E = ctx->state[4];
 562              		.loc 1 245 0
 563 019a 0A90     		str	r0, [sp, #40]
 564 019c 0B91     		str	r1, [sp, #44]
 244:Source\mbedtls_open\library/sha512.c ****     D = ctx->state[3];
 565              		.loc 1 244 0
 566 019e 5699     		ldr	r1, [sp, #344]
 567 01a0 579A     		ldr	r2, [sp, #348]
 568 01a2 1091     		str	r1, [sp, #64]
 569 01a4 1192     		str	r2, [sp, #68]
 243:Source\mbedtls_open\library/sha512.c ****     C = ctx->state[2];
 570              		.loc 1 243 0
 571 01a6 549A     		ldr	r2, [sp, #336]
 572 01a8 559B     		ldr	r3, [sp, #340]
 573 01aa 0C92     		str	r2, [sp, #48]
 574 01ac 0D93     		str	r3, [sp, #52]
 242:Source\mbedtls_open\library/sha512.c ****     B = ctx->state[1];
 575              		.loc 1 242 0
 576 01ae 529B     		ldr	r3, [sp, #328]
 577 01b0 539C     		ldr	r4, [sp, #332]
 578              	.LVL30:
 579 01b2 0293     		str	r3, [sp, #8]
 580 01b4 0394     		str	r4, [sp, #12]
 250:Source\mbedtls_open\library/sha512.c ****     i = 0;
 581              		.loc 1 250 0
 582 01b6 0023     		movs	r3, #0
 583 01b8 9A46     		mov	r10, r3
 584              	.LVL31:
 585              	.L16:
 251:Source\mbedtls_open\library/sha512.c **** 
 252:Source\mbedtls_open\library/sha512.c ****     do
 253:Source\mbedtls_open\library/sha512.c ****     {
 254:Source\mbedtls_open\library/sha512.c ****         P( A, B, C, D, E, F, G, H, W[i], K[i] ); i++;
 586              		.loc 1 254 0 discriminator 1
 587 01ba 089D     		ldr	r5, [sp, #32]
 588 01bc 099E     		ldr	r6, [sp, #36]
ARM GAS  C:\Users\Phuong\AppData\Local\Temp\ccCGJz1B.s 			page 16


 589 01be B204     		lsls	r2, r6, #18
 590 01c0 AB0B     		lsrs	r3, r5, #14
 591 01c2 1A43     		orrs	r2, r3
 592 01c4 1400     		movs	r4, r2
 593 01c6 A904     		lsls	r1, r5, #18
 594 01c8 B30B     		lsrs	r3, r6, #14
 595 01ca 1943     		orrs	r1, r3
 596 01cc B203     		lsls	r2, r6, #14
 597 01ce AB0C     		lsrs	r3, r5, #18
 598 01d0 1A43     		orrs	r2, r3
 599 01d2 1000     		movs	r0, r2
 600 01d4 AB03     		lsls	r3, r5, #14
 601 01d6 B20C     		lsrs	r2, r6, #18
 602 01d8 1343     		orrs	r3, r2
 603 01da 2200     		movs	r2, r4
 604 01dc 4240     		eors	r2, r0
 605 01de 4B40     		eors	r3, r1
 606 01e0 680A     		lsrs	r0, r5, #9
 607 01e2 F105     		lsls	r1, r6, #23
 608 01e4 0143     		orrs	r1, r0
 609 01e6 740A     		lsrs	r4, r6, #9
 610 01e8 E805     		lsls	r0, r5, #23
 611 01ea 2043     		orrs	r0, r4
 612 01ec 4240     		eors	r2, r0
 613 01ee 1292     		str	r2, [sp, #72]
 614 01f0 4B40     		eors	r3, r1
 615 01f2 1393     		str	r3, [sp, #76]
 616 01f4 0698     		ldr	r0, [sp, #24]
 617 01f6 0799     		ldr	r1, [sp, #28]
 618 01f8 129B     		ldr	r3, [sp, #72]
 619 01fa 139C     		ldr	r4, [sp, #76]
 620 01fc C018     		adds	r0, r0, r3
 621 01fe 6141     		adcs	r1, r1, r4
 622 0200 049B     		ldr	r3, [sp, #16]
 623 0202 059C     		ldr	r4, [sp, #20]
 624 0204 1A00     		movs	r2, r3
 625 0206 009F     		ldr	r7, [sp]
 626 0208 7A40     		eors	r2, r7
 627 020a 2300     		movs	r3, r4
 628 020c 019C     		ldr	r4, [sp, #4]
 629 020e 6340     		eors	r3, r4
 630 0210 2C00     		movs	r4, r5
 631 0212 3500     		movs	r5, r6
 632 0214 2240     		ands	r2, r4
 633 0216 2B40     		ands	r3, r5
 634 0218 009D     		ldr	r5, [sp]
 635 021a 019E     		ldr	r6, [sp, #4]
 636 021c 2F00     		movs	r7, r5
 637 021e 5740     		eors	r7, r2
 638 0220 1497     		str	r7, [sp, #80]
 639 0222 5E40     		eors	r6, r3
 640 0224 1596     		str	r6, [sp, #84]
 641 0226 149E     		ldr	r6, [sp, #80]
 642 0228 159F     		ldr	r7, [sp, #84]
 643 022a 8019     		adds	r0, r0, r6
 644 022c 7941     		adcs	r1, r1, r7
 645 022e E94E     		ldr	r6, .L19
ARM GAS  C:\Users\Phuong\AppData\Local\Temp\ccCGJz1B.s 			page 17


 646 0230 B346     		mov	fp, r6
 647 0232 5646     		mov	r6, r10
 648 0234 F400     		lsls	r4, r6, #3
 649 0236 5E46     		mov	r6, fp
 650 0238 3319     		adds	r3, r6, r4
 651 023a 1A68     		ldr	r2, [r3]
 652 023c 5B68     		ldr	r3, [r3, #4]
 653 023e 8018     		adds	r0, r0, r2
 654 0240 5941     		adcs	r1, r1, r3
 655 0242 64AB     		add	r3, sp, #400
 656 0244 9C46     		mov	ip, r3
 657 0246 6444     		add	r4, r4, ip
 658 0248 2268     		ldr	r2, [r4]
 659 024a 6368     		ldr	r3, [r4, #4]
 660 024c 8018     		adds	r0, r0, r2
 661 024e 5941     		adcs	r1, r1, r3
 662 0250 0690     		str	r0, [sp, #24]
 663 0252 0791     		str	r1, [sp, #28]
 664              	.LVL32:
 665 0254 0299     		ldr	r1, [sp, #8]
 666 0256 039A     		ldr	r2, [sp, #12]
 667 0258 1401     		lsls	r4, r2, #4
 668 025a 0B0F     		lsrs	r3, r1, #28
 669 025c 2600     		movs	r6, r4
 670 025e 1E43     		orrs	r6, r3
 671 0260 1400     		movs	r4, r2
 672 0262 0A01     		lsls	r2, r1, #4
 673 0264 230F     		lsrs	r3, r4, #28
 674 0266 1500     		movs	r5, r2
 675 0268 1D43     		orrs	r5, r3
 676 026a 029B     		ldr	r3, [sp, #8]
 677 026c 039C     		ldr	r4, [sp, #12]
 678 026e 9A08     		lsrs	r2, r3, #2
 679 0270 A307     		lsls	r3, r4, #30
 680 0272 1343     		orrs	r3, r2
 681 0274 0299     		ldr	r1, [sp, #8]
 682 0276 039A     		ldr	r2, [sp, #12]
 683 0278 9408     		lsrs	r4, r2, #2
 684 027a 8A07     		lsls	r2, r1, #30
 685 027c 1443     		orrs	r4, r2
 686 027e 7440     		eors	r4, r6
 687 0280 5D40     		eors	r5, r3
 688 0282 2A00     		movs	r2, r5
 689 0284 029E     		ldr	r6, [sp, #8]
 690 0286 039F     		ldr	r7, [sp, #12]
 691 0288 F509     		lsrs	r5, r6, #7
 692 028a 7B06     		lsls	r3, r7, #25
 693 028c 2B43     		orrs	r3, r5
 694 028e FE09     		lsrs	r6, r7, #7
 695 0290 0298     		ldr	r0, [sp, #8]
 696              	.LVL33:
 697 0292 4506     		lsls	r5, r0, #25
 698 0294 3543     		orrs	r5, r6
 699 0296 6C40     		eors	r4, r5
 700 0298 1694     		str	r4, [sp, #88]
 701 029a 1700     		movs	r7, r2
 702 029c 5F40     		eors	r7, r3
ARM GAS  C:\Users\Phuong\AppData\Local\Temp\ccCGJz1B.s 			page 18


 703 029e 1797     		str	r7, [sp, #92]
 704 02a0 0C9A     		ldr	r2, [sp, #48]
 705 02a2 0D9B     		ldr	r3, [sp, #52]
 706 02a4 1500     		movs	r5, r2
 707 02a6 029E     		ldr	r6, [sp, #8]
 708 02a8 039F     		ldr	r7, [sp, #12]
 709 02aa 3540     		ands	r5, r6
 710 02ac 1C00     		movs	r4, r3
 711 02ae 3C40     		ands	r4, r7
 712 02b0 3000     		movs	r0, r6
 713 02b2 1043     		orrs	r0, r2
 714 02b4 0200     		movs	r2, r0
 715 02b6 3B00     		movs	r3, r7
 716 02b8 0D98     		ldr	r0, [sp, #52]
 717 02ba 0343     		orrs	r3, r0
 718 02bc 109E     		ldr	r6, [sp, #64]
 719 02be 119F     		ldr	r7, [sp, #68]
 720 02c0 3240     		ands	r2, r6
 721 02c2 3B40     		ands	r3, r7
 722 02c4 2800     		movs	r0, r5
 723 02c6 1043     		orrs	r0, r2
 724 02c8 1890     		str	r0, [sp, #96]
 725 02ca 2000     		movs	r0, r4
 726 02cc 1843     		orrs	r0, r3
 727 02ce 1990     		str	r0, [sp, #100]
 728 02d0 169C     		ldr	r4, [sp, #88]
 729 02d2 179D     		ldr	r5, [sp, #92]
 730 02d4 189E     		ldr	r6, [sp, #96]
 731 02d6 199F     		ldr	r7, [sp, #100]
 732 02d8 A419     		adds	r4, r4, r6
 733 02da 7D41     		adcs	r5, r5, r7
 734              	.LVL34:
 735 02dc 0A9A     		ldr	r2, [sp, #40]
 736 02de 0B9B     		ldr	r3, [sp, #44]
 737 02e0 0698     		ldr	r0, [sp, #24]
 738 02e2 0799     		ldr	r1, [sp, #28]
 739 02e4 1218     		adds	r2, r2, r0
 740 02e6 4B41     		adcs	r3, r3, r1
 741              	.LVL35:
 742 02e8 0019     		adds	r0, r0, r4
 743 02ea 6941     		adcs	r1, r1, r5
 744 02ec 0690     		str	r0, [sp, #24]
 745 02ee 0791     		str	r1, [sp, #28]
 746              	.LVL36:
 747 02f0 5746     		mov	r7, r10
 748 02f2 7C1C     		adds	r4, r7, #1
 749              	.LVL37:
 255:Source\mbedtls_open\library/sha512.c ****         P( H, A, B, C, D, E, F, G, W[i], K[i] ); i++;
 750              		.loc 1 255 0 discriminator 1
 751 02f4 9804     		lsls	r0, r3, #18
 752              	.LVL38:
 753 02f6 910B     		lsrs	r1, r2, #14
 754 02f8 0700     		movs	r7, r0
 755 02fa 0F43     		orrs	r7, r1
 756 02fc 9504     		lsls	r5, r2, #18
 757 02fe 990B     		lsrs	r1, r3, #14
 758 0300 0D43     		orrs	r5, r1
ARM GAS  C:\Users\Phuong\AppData\Local\Temp\ccCGJz1B.s 			page 19


 759 0302 9803     		lsls	r0, r3, #14
 760 0304 910C     		lsrs	r1, r2, #18
 761 0306 0843     		orrs	r0, r1
 762 0308 0600     		movs	r6, r0
 763              	.LVL39:
 764 030a 9103     		lsls	r1, r2, #14
 765 030c 980C     		lsrs	r0, r3, #18
 766 030e 0143     		orrs	r1, r0
 767 0310 7740     		eors	r7, r6
 768 0312 3800     		movs	r0, r7
 769 0314 6940     		eors	r1, r5
 770 0316 560A     		lsrs	r6, r2, #9
 771 0318 DD05     		lsls	r5, r3, #23
 772 031a 3543     		orrs	r5, r6
 773 031c 5F0A     		lsrs	r7, r3, #9
 774 031e 0A92     		str	r2, [sp, #40]
 775 0320 0B93     		str	r3, [sp, #44]
 776 0322 D605     		lsls	r6, r2, #23
 777 0324 3E43     		orrs	r6, r7
 778 0326 7040     		eors	r0, r6
 779 0328 1A90     		str	r0, [sp, #104]
 780 032a 6940     		eors	r1, r5
 781 032c 1B91     		str	r1, [sp, #108]
 782 032e 0099     		ldr	r1, [sp]
 783 0330 019A     		ldr	r2, [sp, #4]
 784 0332 1A9D     		ldr	r5, [sp, #104]
 785 0334 1B9E     		ldr	r6, [sp, #108]
 786 0336 4919     		adds	r1, r1, r5
 787 0338 7241     		adcs	r2, r2, r6
 788 033a 0800     		movs	r0, r1
 789 033c 1100     		movs	r1, r2
 790 033e 089A     		ldr	r2, [sp, #32]
 791 0340 099B     		ldr	r3, [sp, #36]
 792              	.LVL40:
 793 0342 1500     		movs	r5, r2
 794 0344 049F     		ldr	r7, [sp, #16]
 795 0346 7D40     		eors	r5, r7
 796 0348 2E00     		movs	r6, r5
 797 034a 1D00     		movs	r5, r3
 798 034c 049A     		ldr	r2, [sp, #16]
 799 034e 059B     		ldr	r3, [sp, #20]
 800 0350 5D40     		eors	r5, r3
 801 0352 0A9F     		ldr	r7, [sp, #40]
 802 0354 3E40     		ands	r6, r7
 803 0356 0B9F     		ldr	r7, [sp, #44]
 804 0358 3D40     		ands	r5, r7
 805 035a 1700     		movs	r7, r2
 806 035c 7740     		eors	r7, r6
 807 035e 1C97     		str	r7, [sp, #112]
 808 0360 6B40     		eors	r3, r5
 809 0362 1D93     		str	r3, [sp, #116]
 810 0364 1C9D     		ldr	r5, [sp, #112]
 811 0366 1D9E     		ldr	r6, [sp, #116]
 812 0368 4019     		adds	r0, r0, r5
 813 036a 7141     		adcs	r1, r1, r6
 814 036c E400     		lsls	r4, r4, #3
 815              	.LVL41:
ARM GAS  C:\Users\Phuong\AppData\Local\Temp\ccCGJz1B.s 			page 20


 816 036e 5B46     		mov	r3, fp
 817 0370 1D19     		adds	r5, r3, r4
 818 0372 2E68     		ldr	r6, [r5]
 819 0374 6F68     		ldr	r7, [r5, #4]
 820 0376 8019     		adds	r0, r0, r6
 821 0378 7941     		adcs	r1, r1, r7
 822 037a 6444     		add	r4, r4, ip
 823 037c 6568     		ldr	r5, [r4, #4]
 824 037e 2468     		ldr	r4, [r4]
 825 0380 0019     		adds	r0, r0, r4
 826 0382 6941     		adcs	r1, r1, r5
 827 0384 0090     		str	r0, [sp]
 828 0386 0191     		str	r1, [sp, #4]
 829              	.LVL42:
 830 0388 0698     		ldr	r0, [sp, #24]
 831 038a 0799     		ldr	r1, [sp, #28]
 832              	.LVL43:
 833 038c 0E01     		lsls	r6, r1, #4
 834 038e 040F     		lsrs	r4, r0, #28
 835 0390 2643     		orrs	r6, r4
 836 0392 0501     		lsls	r5, r0, #4
 837 0394 0C0F     		lsrs	r4, r1, #28
 838 0396 2543     		orrs	r5, r4
 839 0398 8708     		lsrs	r7, r0, #2
 840 039a 8C07     		lsls	r4, r1, #30
 841 039c 3C43     		orrs	r4, r7
 842 039e 8B08     		lsrs	r3, r1, #2
 843 03a0 9C46     		mov	ip, r3
 844 03a2 8707     		lsls	r7, r0, #30
 845 03a4 6346     		mov	r3, ip
 846 03a6 1F43     		orrs	r7, r3
 847 03a8 7E40     		eors	r6, r7
 848 03aa 6540     		eors	r5, r4
 849 03ac C709     		lsrs	r7, r0, #7
 850 03ae 4C06     		lsls	r4, r1, #25
 851 03b0 3C43     		orrs	r4, r7
 852 03b2 CB09     		lsrs	r3, r1, #7
 853 03b4 9C46     		mov	ip, r3
 854 03b6 4706     		lsls	r7, r0, #25
 855 03b8 6346     		mov	r3, ip
 856 03ba 1F43     		orrs	r7, r3
 857 03bc 3300     		movs	r3, r6
 858 03be 7B40     		eors	r3, r7
 859 03c0 1E93     		str	r3, [sp, #120]
 860 03c2 6540     		eors	r5, r4
 861 03c4 1F95     		str	r5, [sp, #124]
 862 03c6 0299     		ldr	r1, [sp, #8]
 863 03c8 039A     		ldr	r2, [sp, #12]
 864 03ca 0F00     		movs	r7, r1
 865 03cc 069C     		ldr	r4, [sp, #24]
 866 03ce 079D     		ldr	r5, [sp, #28]
 867 03d0 2740     		ands	r7, r4
 868 03d2 1300     		movs	r3, r2
 869 03d4 2B40     		ands	r3, r5
 870 03d6 1E00     		movs	r6, r3
 871 03d8 0B00     		movs	r3, r1
 872 03da 2A00     		movs	r2, r5
ARM GAS  C:\Users\Phuong\AppData\Local\Temp\ccCGJz1B.s 			page 21


 873 03dc 2343     		orrs	r3, r4
 874 03de 1D00     		movs	r5, r3
 875 03e0 039B     		ldr	r3, [sp, #12]
 876 03e2 1343     		orrs	r3, r2
 877 03e4 1C00     		movs	r4, r3
 878 03e6 0C9A     		ldr	r2, [sp, #48]
 879 03e8 0D9B     		ldr	r3, [sp, #52]
 880 03ea 1540     		ands	r5, r2
 881 03ec 1C40     		ands	r4, r3
 882 03ee 2F43     		orrs	r7, r5
 883 03f0 2097     		str	r7, [sp, #128]
 884 03f2 3300     		movs	r3, r6
 885 03f4 2343     		orrs	r3, r4
 886 03f6 2193     		str	r3, [sp, #132]
 887 03f8 1E9D     		ldr	r5, [sp, #120]
 888 03fa 1F9E     		ldr	r6, [sp, #124]
 889 03fc 209B     		ldr	r3, [sp, #128]
 890 03fe 219C     		ldr	r4, [sp, #132]
 891 0400 ED18     		adds	r5, r5, r3
 892 0402 6641     		adcs	r6, r6, r4
 893 0404 2C00     		movs	r4, r5
 894 0406 3500     		movs	r5, r6
 895              	.LVL44:
 896 0408 109E     		ldr	r6, [sp, #64]
 897 040a 119F     		ldr	r7, [sp, #68]
 898 040c 0099     		ldr	r1, [sp]
 899 040e 019A     		ldr	r2, [sp, #4]
 900 0410 7618     		adds	r6, r6, r1
 901 0412 5741     		adcs	r7, r7, r2
 902 0414 0096     		str	r6, [sp]
 903 0416 0197     		str	r7, [sp, #4]
 904              	.LVL45:
 905 0418 0800     		movs	r0, r1
 906 041a 1100     		movs	r1, r2
 907              	.LVL46:
 908 041c 0019     		adds	r0, r0, r4
 909 041e 6941     		adcs	r1, r1, r5
 910 0420 0600     		movs	r6, r0
 911              	.LVL47:
 912 0422 0F00     		movs	r7, r1
 913              	.LVL48:
 914 0424 5346     		mov	r3, r10
 915 0426 9C1C     		adds	r4, r3, #2
 916              	.LVL49:
 256:Source\mbedtls_open\library/sha512.c ****         P( G, H, A, B, C, D, E, F, W[i], K[i] ); i++;
 917              		.loc 1 256 0 discriminator 1
 918 0428 009A     		ldr	r2, [sp]
 919 042a 019B     		ldr	r3, [sp, #4]
 920 042c 9804     		lsls	r0, r3, #18
 921 042e 910B     		lsrs	r1, r2, #14
 922 0430 0300     		movs	r3, r0
 923 0432 0B43     		orrs	r3, r1
 924 0434 9846     		mov	r8, r3
 925 0436 009A     		ldr	r2, [sp]
 926 0438 019B     		ldr	r3, [sp, #4]
 927 043a 9504     		lsls	r5, r2, #18
 928 043c 990B     		lsrs	r1, r3, #14
ARM GAS  C:\Users\Phuong\AppData\Local\Temp\ccCGJz1B.s 			page 22


 929 043e 0D43     		orrs	r5, r1
 930 0440 9803     		lsls	r0, r3, #14
 931 0442 910C     		lsrs	r1, r2, #18
 932 0444 0300     		movs	r3, r0
 933 0446 0B43     		orrs	r3, r1
 934 0448 9C46     		mov	ip, r3
 935 044a 009A     		ldr	r2, [sp]
 936 044c 019B     		ldr	r3, [sp, #4]
 937 044e 9103     		lsls	r1, r2, #14
 938 0450 980C     		lsrs	r0, r3, #18
 939 0452 0143     		orrs	r1, r0
 940 0454 4346     		mov	r3, r8
 941 0456 6046     		mov	r0, ip
 942 0458 4340     		eors	r3, r0
 943 045a 1800     		movs	r0, r3
 944 045c 6940     		eors	r1, r5
 945 045e 009B     		ldr	r3, [sp]
 946 0460 5B0A     		lsrs	r3, r3, #9
 947 0462 9C46     		mov	ip, r3
 948 0464 019B     		ldr	r3, [sp, #4]
 949 0466 DD05     		lsls	r5, r3, #23
 950 0468 6346     		mov	r3, ip
 951 046a 1D43     		orrs	r5, r3
 952 046c 019B     		ldr	r3, [sp, #4]
 953 046e 5B0A     		lsrs	r3, r3, #9
 954 0470 9846     		mov	r8, r3
 955 0472 009B     		ldr	r3, [sp]
 956 0474 DB05     		lsls	r3, r3, #23
 957 0476 9C46     		mov	ip, r3
 958 0478 4346     		mov	r3, r8
 959 047a 6246     		mov	r2, ip
 960 047c 1343     		orrs	r3, r2
 961 047e 4340     		eors	r3, r0
 962 0480 2293     		str	r3, [sp, #136]
 963 0482 6940     		eors	r1, r5
 964 0484 2391     		str	r1, [sp, #140]
 965 0486 0498     		ldr	r0, [sp, #16]
 966 0488 0599     		ldr	r1, [sp, #20]
 967 048a 229A     		ldr	r2, [sp, #136]
 968 048c 239B     		ldr	r3, [sp, #140]
 969 048e 8018     		adds	r0, r0, r2
 970 0490 5941     		adcs	r1, r1, r3
 971 0492 089B     		ldr	r3, [sp, #32]
 972 0494 0A9D     		ldr	r5, [sp, #40]
 973 0496 6B40     		eors	r3, r5
 974 0498 9C46     		mov	ip, r3
 975 049a 099D     		ldr	r5, [sp, #36]
 976 049c 0B9B     		ldr	r3, [sp, #44]
 977 049e 5D40     		eors	r5, r3
 978 04a0 6346     		mov	r3, ip
 979 04a2 009A     		ldr	r2, [sp]
 980 04a4 1340     		ands	r3, r2
 981 04a6 9C46     		mov	ip, r3
 982 04a8 019B     		ldr	r3, [sp, #4]
 983 04aa 1D40     		ands	r5, r3
 984 04ac 6346     		mov	r3, ip
 985 04ae 089A     		ldr	r2, [sp, #32]
ARM GAS  C:\Users\Phuong\AppData\Local\Temp\ccCGJz1B.s 			page 23


 986 04b0 5340     		eors	r3, r2
 987 04b2 2493     		str	r3, [sp, #144]
 988 04b4 099B     		ldr	r3, [sp, #36]
 989 04b6 6B40     		eors	r3, r5
 990 04b8 2593     		str	r3, [sp, #148]
 991 04ba 249A     		ldr	r2, [sp, #144]
 992 04bc 259B     		ldr	r3, [sp, #148]
 993 04be 8018     		adds	r0, r0, r2
 994 04c0 5941     		adcs	r1, r1, r3
 995 04c2 E300     		lsls	r3, r4, #3
 996 04c4 9C46     		mov	ip, r3
 997 04c6 5B46     		mov	r3, fp
 998 04c8 6344     		add	r3, r3, ip
 999 04ca 1C68     		ldr	r4, [r3]
 1000 04cc 5D68     		ldr	r5, [r3, #4]
 1001              	.LVL50:
 1002 04ce 0019     		adds	r0, r0, r4
 1003 04d0 6941     		adcs	r1, r1, r5
 1004 04d2 64AB     		add	r3, sp, #400
 1005 04d4 9846     		mov	r8, r3
 1006 04d6 C444     		add	ip, ip, r8
 1007 04d8 6446     		mov	r4, ip
 1008 04da 6568     		ldr	r5, [r4, #4]
 1009 04dc 2468     		ldr	r4, [r4]
 1010 04de 0019     		adds	r0, r0, r4
 1011 04e0 6941     		adcs	r1, r1, r5
 1012              	.LVL51:
 1013 04e2 3D01     		lsls	r5, r7, #4
 1014 04e4 340F     		lsrs	r4, r6, #28
 1015 04e6 2543     		orrs	r5, r4
 1016 04e8 A846     		mov	r8, r5
 1017 04ea 3501     		lsls	r5, r6, #4
 1018 04ec 3C0F     		lsrs	r4, r7, #28
 1019 04ee 2543     		orrs	r5, r4
 1020 04f0 A946     		mov	r9, r5
 1021 04f2 B508     		lsrs	r5, r6, #2
 1022 04f4 BC07     		lsls	r4, r7, #30
 1023 04f6 2C43     		orrs	r4, r5
 1024 04f8 BB08     		lsrs	r3, r7, #2
 1025 04fa 9C46     		mov	ip, r3
 1026 04fc B507     		lsls	r5, r6, #30
 1027 04fe 6346     		mov	r3, ip
 1028 0500 1D43     		orrs	r5, r3
 1029 0502 4346     		mov	r3, r8
 1030 0504 6B40     		eors	r3, r5
 1031 0506 9C46     		mov	ip, r3
 1032 0508 4D46     		mov	r5, r9
 1033 050a 6540     		eors	r5, r4
 1034 050c F309     		lsrs	r3, r6, #7
 1035 050e 9846     		mov	r8, r3
 1036 0510 7C06     		lsls	r4, r7, #25
 1037 0512 4346     		mov	r3, r8
 1038 0514 1C43     		orrs	r4, r3
 1039 0516 FB09     		lsrs	r3, r7, #7
 1040 0518 9946     		mov	r9, r3
 1041 051a 7306     		lsls	r3, r6, #25
 1042 051c 9846     		mov	r8, r3
ARM GAS  C:\Users\Phuong\AppData\Local\Temp\ccCGJz1B.s 			page 24


 1043 051e 4B46     		mov	r3, r9
 1044 0520 4246     		mov	r2, r8
 1045 0522 1343     		orrs	r3, r2
 1046 0524 9846     		mov	r8, r3
 1047 0526 6346     		mov	r3, ip
 1048 0528 4246     		mov	r2, r8
 1049 052a 5340     		eors	r3, r2
 1050 052c 2693     		str	r3, [sp, #152]
 1051 052e 6540     		eors	r5, r4
 1052 0530 2795     		str	r5, [sp, #156]
 1053 0532 069C     		ldr	r4, [sp, #24]
 1054 0534 079D     		ldr	r5, [sp, #28]
 1055 0536 2300     		movs	r3, r4
 1056 0538 3340     		ands	r3, r6
 1057 053a 9846     		mov	r8, r3
 1058 053c 2B00     		movs	r3, r5
 1059 053e 3B40     		ands	r3, r7
 1060 0540 9C46     		mov	ip, r3
 1061 0542 2500     		movs	r5, r4
 1062 0544 3543     		orrs	r5, r6
 1063 0546 079B     		ldr	r3, [sp, #28]
 1064 0548 1096     		str	r6, [sp, #64]
 1065 054a 1197     		str	r7, [sp, #68]
 1066 054c 3B43     		orrs	r3, r7
 1067 054e 1C00     		movs	r4, r3
 1068 0550 029E     		ldr	r6, [sp, #8]
 1069 0552 039F     		ldr	r7, [sp, #12]
 1070              	.LVL52:
 1071 0554 3540     		ands	r5, r6
 1072 0556 3C40     		ands	r4, r7
 1073 0558 4346     		mov	r3, r8
 1074 055a 2B43     		orrs	r3, r5
 1075 055c 2893     		str	r3, [sp, #160]
 1076 055e 6346     		mov	r3, ip
 1077 0560 2343     		orrs	r3, r4
 1078 0562 2993     		str	r3, [sp, #164]
 1079 0564 269C     		ldr	r4, [sp, #152]
 1080 0566 279D     		ldr	r5, [sp, #156]
 1081 0568 289A     		ldr	r2, [sp, #160]
 1082 056a 299B     		ldr	r3, [sp, #164]
 1083 056c A418     		adds	r4, r4, r2
 1084 056e 5D41     		adcs	r5, r5, r3
 1085              	.LVL53:
 1086 0570 0C9A     		ldr	r2, [sp, #48]
 1087 0572 0D9B     		ldr	r3, [sp, #52]
 1088 0574 1218     		adds	r2, r2, r0
 1089 0576 4B41     		adcs	r3, r3, r1
 1090              	.LVL54:
 1091 0578 0019     		adds	r0, r0, r4
 1092 057a 6941     		adcs	r1, r1, r5
 1093              	.LVL55:
 1094 057c 0490     		str	r0, [sp, #16]
 1095 057e 0591     		str	r1, [sp, #20]
 1096              	.LVL56:
 1097 0580 5146     		mov	r1, r10
 1098 0582 CC1C     		adds	r4, r1, #3
 1099              	.LVL57:
ARM GAS  C:\Users\Phuong\AppData\Local\Temp\ccCGJz1B.s 			page 25


 257:Source\mbedtls_open\library/sha512.c ****         P( F, G, H, A, B, C, D, E, W[i], K[i] ); i++;
 1100              		.loc 1 257 0 discriminator 1
 1101 0584 9804     		lsls	r0, r3, #18
 1102              	.LVL58:
 1103 0586 910B     		lsrs	r1, r2, #14
 1104 0588 0500     		movs	r5, r0
 1105 058a 0D43     		orrs	r5, r1
 1106 058c A846     		mov	r8, r5
 1107 058e 9504     		lsls	r5, r2, #18
 1108 0590 990B     		lsrs	r1, r3, #14
 1109 0592 0D43     		orrs	r5, r1
 1110 0594 9803     		lsls	r0, r3, #14
 1111 0596 910C     		lsrs	r1, r2, #18
 1112 0598 0700     		movs	r7, r0
 1113 059a 0F43     		orrs	r7, r1
 1114 059c BC46     		mov	ip, r7
 1115 059e 9103     		lsls	r1, r2, #14
 1116 05a0 980C     		lsrs	r0, r3, #18
 1117 05a2 0143     		orrs	r1, r0
 1118 05a4 4746     		mov	r7, r8
 1119 05a6 6046     		mov	r0, ip
 1120 05a8 4740     		eors	r7, r0
 1121 05aa 3800     		movs	r0, r7
 1122 05ac 6940     		eors	r1, r5
 1123 05ae 550A     		lsrs	r5, r2, #9
 1124 05b0 AC46     		mov	ip, r5
 1125 05b2 DD05     		lsls	r5, r3, #23
 1126 05b4 6746     		mov	r7, ip
 1127 05b6 3D43     		orrs	r5, r7
 1128 05b8 5F0A     		lsrs	r7, r3, #9
 1129 05ba B846     		mov	r8, r7
 1130 05bc D705     		lsls	r7, r2, #23
 1131 05be BC46     		mov	ip, r7
 1132 05c0 4746     		mov	r7, r8
 1133 05c2 6646     		mov	r6, ip
 1134 05c4 3743     		orrs	r7, r6
 1135 05c6 4740     		eors	r7, r0
 1136 05c8 2A97     		str	r7, [sp, #168]
 1137 05ca 6940     		eors	r1, r5
 1138 05cc 2B91     		str	r1, [sp, #172]
 1139 05ce 0898     		ldr	r0, [sp, #32]
 1140 05d0 0999     		ldr	r1, [sp, #36]
 1141 05d2 01E0     		b	.L20
 1142              	.L21:
 1143              		.align	2
 1144              	.L19:
 1145 05d4 00000000 		.word	.LANCHOR0
 1146              	.L20:
 1147 05d8 2A9D     		ldr	r5, [sp, #168]
 1148 05da 2B9E     		ldr	r6, [sp, #172]
 1149 05dc 4019     		adds	r0, r0, r5
 1150 05de 7141     		adcs	r1, r1, r6
 1151 05e0 0C90     		str	r0, [sp, #48]
 1152 05e2 0D91     		str	r1, [sp, #52]
 1153 05e4 0A9D     		ldr	r5, [sp, #40]
 1154 05e6 009E     		ldr	r6, [sp]
 1155 05e8 019F     		ldr	r7, [sp, #4]
ARM GAS  C:\Users\Phuong\AppData\Local\Temp\ccCGJz1B.s 			page 26


 1156 05ea 7540     		eors	r5, r6
 1157 05ec AC46     		mov	ip, r5
 1158 05ee 0A98     		ldr	r0, [sp, #40]
 1159 05f0 0B99     		ldr	r1, [sp, #44]
 1160 05f2 0D00     		movs	r5, r1
 1161 05f4 7D40     		eors	r5, r7
 1162 05f6 6746     		mov	r7, ip
 1163 05f8 1740     		ands	r7, r2
 1164 05fa 0892     		str	r2, [sp, #32]
 1165 05fc 0993     		str	r3, [sp, #36]
 1166              	.LVL59:
 1167 05fe 1D40     		ands	r5, r3
 1168 0600 3B00     		movs	r3, r7
 1169 0602 4340     		eors	r3, r0
 1170 0604 2C93     		str	r3, [sp, #176]
 1171 0606 4D40     		eors	r5, r1
 1172 0608 2D95     		str	r5, [sp, #180]
 1173 060a 2C9D     		ldr	r5, [sp, #176]
 1174 060c 2D9E     		ldr	r6, [sp, #180]
 1175 060e 0C98     		ldr	r0, [sp, #48]
 1176 0610 0D99     		ldr	r1, [sp, #52]
 1177 0612 4019     		adds	r0, r0, r5
 1178 0614 7141     		adcs	r1, r1, r6
 1179 0616 E300     		lsls	r3, r4, #3
 1180 0618 9C46     		mov	ip, r3
 1181 061a 5B46     		mov	r3, fp
 1182 061c 6344     		add	r3, r3, ip
 1183 061e 1C68     		ldr	r4, [r3]
 1184 0620 5D68     		ldr	r5, [r3, #4]
 1185              	.LVL60:
 1186 0622 0019     		adds	r0, r0, r4
 1187 0624 6941     		adcs	r1, r1, r5
 1188 0626 64AB     		add	r3, sp, #400
 1189 0628 9846     		mov	r8, r3
 1190 062a C444     		add	ip, ip, r8
 1191 062c 6446     		mov	r4, ip
 1192 062e 6568     		ldr	r5, [r4, #4]
 1193 0630 2468     		ldr	r4, [r4]
 1194 0632 0019     		adds	r0, r0, r4
 1195 0634 6941     		adcs	r1, r1, r5
 1196              	.LVL61:
 1197 0636 049E     		ldr	r6, [sp, #16]
 1198 0638 059F     		ldr	r7, [sp, #20]
 1199 063a 3D01     		lsls	r5, r7, #4
 1200 063c 340F     		lsrs	r4, r6, #28
 1201 063e 2543     		orrs	r5, r4
 1202 0640 A846     		mov	r8, r5
 1203 0642 3501     		lsls	r5, r6, #4
 1204 0644 3C0F     		lsrs	r4, r7, #28
 1205 0646 2543     		orrs	r5, r4
 1206 0648 A946     		mov	r9, r5
 1207 064a B508     		lsrs	r5, r6, #2
 1208 064c BC07     		lsls	r4, r7, #30
 1209 064e 2C43     		orrs	r4, r5
 1210 0650 BB08     		lsrs	r3, r7, #2
 1211 0652 9C46     		mov	ip, r3
 1212 0654 B507     		lsls	r5, r6, #30
ARM GAS  C:\Users\Phuong\AppData\Local\Temp\ccCGJz1B.s 			page 27


 1213 0656 6346     		mov	r3, ip
 1214 0658 1D43     		orrs	r5, r3
 1215 065a 4346     		mov	r3, r8
 1216 065c 6B40     		eors	r3, r5
 1217 065e 9C46     		mov	ip, r3
 1218 0660 4D46     		mov	r5, r9
 1219 0662 6540     		eors	r5, r4
 1220 0664 F309     		lsrs	r3, r6, #7
 1221 0666 9846     		mov	r8, r3
 1222 0668 7C06     		lsls	r4, r7, #25
 1223 066a 4346     		mov	r3, r8
 1224 066c 1C43     		orrs	r4, r3
 1225 066e FB09     		lsrs	r3, r7, #7
 1226 0670 9946     		mov	r9, r3
 1227 0672 7306     		lsls	r3, r6, #25
 1228 0674 9846     		mov	r8, r3
 1229 0676 4B46     		mov	r3, r9
 1230 0678 4746     		mov	r7, r8
 1231 067a 3B43     		orrs	r3, r7
 1232 067c 9846     		mov	r8, r3
 1233 067e 6346     		mov	r3, ip
 1234 0680 4746     		mov	r7, r8
 1235 0682 7B40     		eors	r3, r7
 1236 0684 2E93     		str	r3, [sp, #184]
 1237 0686 6540     		eors	r5, r4
 1238 0688 2F95     		str	r5, [sp, #188]
 1239 068a 109C     		ldr	r4, [sp, #64]
 1240 068c 119D     		ldr	r5, [sp, #68]
 1241 068e 2300     		movs	r3, r4
 1242 0690 049F     		ldr	r7, [sp, #16]
 1243 0692 3B40     		ands	r3, r7
 1244 0694 9846     		mov	r8, r3
 1245 0696 2B00     		movs	r3, r5
 1246 0698 059F     		ldr	r7, [sp, #20]
 1247 069a 3B40     		ands	r3, r7
 1248 069c 9C46     		mov	ip, r3
 1249 069e 2500     		movs	r5, r4
 1250 06a0 049E     		ldr	r6, [sp, #16]
 1251 06a2 059F     		ldr	r7, [sp, #20]
 1252 06a4 3543     		orrs	r5, r6
 1253 06a6 119B     		ldr	r3, [sp, #68]
 1254 06a8 3B43     		orrs	r3, r7
 1255 06aa 1C00     		movs	r4, r3
 1256 06ac 069E     		ldr	r6, [sp, #24]
 1257 06ae 079F     		ldr	r7, [sp, #28]
 1258 06b0 3540     		ands	r5, r6
 1259 06b2 3C40     		ands	r4, r7
 1260 06b4 4346     		mov	r3, r8
 1261 06b6 2B43     		orrs	r3, r5
 1262 06b8 3093     		str	r3, [sp, #192]
 1263 06ba 6346     		mov	r3, ip
 1264 06bc 2343     		orrs	r3, r4
 1265 06be 3193     		str	r3, [sp, #196]
 1266 06c0 2E9B     		ldr	r3, [sp, #184]
 1267 06c2 2F9C     		ldr	r4, [sp, #188]
 1268 06c4 309D     		ldr	r5, [sp, #192]
 1269 06c6 319E     		ldr	r6, [sp, #196]
ARM GAS  C:\Users\Phuong\AppData\Local\Temp\ccCGJz1B.s 			page 28


 1270 06c8 5B19     		adds	r3, r3, r5
 1271 06ca 7441     		adcs	r4, r4, r6
 1272 06cc 2500     		movs	r5, r4
 1273 06ce 1C00     		movs	r4, r3
 1274              	.LVL62:
 1275 06d0 029E     		ldr	r6, [sp, #8]
 1276 06d2 039F     		ldr	r7, [sp, #12]
 1277 06d4 3618     		adds	r6, r6, r0
 1278 06d6 4F41     		adcs	r7, r7, r1
 1279              	.LVL63:
 1280 06d8 0A00     		movs	r2, r1
 1281              	.LVL64:
 1282 06da 0100     		movs	r1, r0
 1283 06dc 0919     		adds	r1, r1, r4
 1284 06de 6A41     		adcs	r2, r2, r5
 1285 06e0 0E91     		str	r1, [sp, #56]
 1286 06e2 0F92     		str	r2, [sp, #60]
 1287              	.LVL65:
 1288 06e4 5346     		mov	r3, r10
 1289 06e6 0433     		adds	r3, r3, #4
 1290 06e8 9946     		mov	r9, r3
 1291              	.LVL66:
 258:Source\mbedtls_open\library/sha512.c ****         P( E, F, G, H, A, B, C, D, W[i], K[i] ); i++;
 1292              		.loc 1 258 0 discriminator 1
 1293 06ea BC04     		lsls	r4, r7, #18
 1294              	.LVL67:
 1295 06ec B00B     		lsrs	r0, r6, #14
 1296              	.LVL68:
 1297 06ee 2300     		movs	r3, r4
 1298              	.LVL69:
 1299 06f0 0343     		orrs	r3, r0
 1300 06f2 9846     		mov	r8, r3
 1301 06f4 B504     		lsls	r5, r6, #18
 1302 06f6 B80B     		lsrs	r0, r7, #14
 1303 06f8 0543     		orrs	r5, r0
 1304 06fa BC03     		lsls	r4, r7, #14
 1305 06fc B00C     		lsrs	r0, r6, #18
 1306 06fe 2300     		movs	r3, r4
 1307 0700 0343     		orrs	r3, r0
 1308 0702 9C46     		mov	ip, r3
 1309 0704 B003     		lsls	r0, r6, #14
 1310 0706 BC0C     		lsrs	r4, r7, #18
 1311 0708 2043     		orrs	r0, r4
 1312 070a 4346     		mov	r3, r8
 1313 070c 6246     		mov	r2, ip
 1314 070e 5340     		eors	r3, r2
 1315 0710 1C00     		movs	r4, r3
 1316 0712 6840     		eors	r0, r5
 1317 0714 730A     		lsrs	r3, r6, #9
 1318 0716 9C46     		mov	ip, r3
 1319 0718 FD05     		lsls	r5, r7, #23
 1320 071a 6346     		mov	r3, ip
 1321 071c 1D43     		orrs	r5, r3
 1322 071e 7B0A     		lsrs	r3, r7, #9
 1323 0720 9846     		mov	r8, r3
 1324 0722 F305     		lsls	r3, r6, #23
 1325 0724 9C46     		mov	ip, r3
ARM GAS  C:\Users\Phuong\AppData\Local\Temp\ccCGJz1B.s 			page 29


 1326 0726 4346     		mov	r3, r8
 1327 0728 6246     		mov	r2, ip
 1328 072a 1343     		orrs	r3, r2
 1329 072c 6340     		eors	r3, r4
 1330 072e 3293     		str	r3, [sp, #200]
 1331 0730 0300     		movs	r3, r0
 1332 0732 6B40     		eors	r3, r5
 1333 0734 3393     		str	r3, [sp, #204]
 1334 0736 329B     		ldr	r3, [sp, #200]
 1335 0738 339C     		ldr	r4, [sp, #204]
 1336 073a 0A99     		ldr	r1, [sp, #40]
 1337 073c 0B9A     		ldr	r2, [sp, #44]
 1338              	.LVL70:
 1339 073e C918     		adds	r1, r1, r3
 1340 0740 6241     		adcs	r2, r2, r4
 1341 0742 1300     		movs	r3, r2
 1342 0744 0A00     		movs	r2, r1
 1343 0746 0898     		ldr	r0, [sp, #32]
 1344 0748 0999     		ldr	r1, [sp, #36]
 1345 074a 0400     		movs	r4, r0
 1346 074c 009D     		ldr	r5, [sp]
 1347 074e 6C40     		eors	r4, r5
 1348 0750 0800     		movs	r0, r1
 1349 0752 0199     		ldr	r1, [sp, #4]
 1350 0754 4840     		eors	r0, r1
 1351 0756 3440     		ands	r4, r6
 1352 0758 0296     		str	r6, [sp, #8]
 1353 075a 0397     		str	r7, [sp, #12]
 1354 075c 3840     		ands	r0, r7
 1355 075e 2700     		movs	r7, r4
 1356 0760 009C     		ldr	r4, [sp]
 1357 0762 019D     		ldr	r5, [sp, #4]
 1358 0764 6740     		eors	r7, r4
 1359 0766 3497     		str	r7, [sp, #208]
 1360 0768 0700     		movs	r7, r0
 1361 076a 6F40     		eors	r7, r5
 1362 076c 3597     		str	r7, [sp, #212]
 1363 076e 349D     		ldr	r5, [sp, #208]
 1364 0770 359E     		ldr	r6, [sp, #212]
 1365 0772 5219     		adds	r2, r2, r5
 1366 0774 7341     		adcs	r3, r3, r6
 1367 0776 4946     		mov	r1, r9
 1368 0778 CC00     		lsls	r4, r1, #3
 1369 077a 5F46     		mov	r7, fp
 1370 077c 3919     		adds	r1, r7, r4
 1371 077e 0868     		ldr	r0, [r1]
 1372 0780 4968     		ldr	r1, [r1, #4]
 1373 0782 1218     		adds	r2, r2, r0
 1374 0784 4B41     		adcs	r3, r3, r1
 1375 0786 2100     		movs	r1, r4
 1376 0788 64A8     		add	r0, sp, #400
 1377              	.LVL71:
 1378 078a 8446     		mov	ip, r0
 1379 078c 6144     		add	r1, r1, ip
 1380 078e 0868     		ldr	r0, [r1]
 1381 0790 4968     		ldr	r1, [r1, #4]
 1382              	.LVL72:
ARM GAS  C:\Users\Phuong\AppData\Local\Temp\ccCGJz1B.s 			page 30


 1383 0792 1218     		adds	r2, r2, r0
 1384 0794 4B41     		adcs	r3, r3, r1
 1385 0796 0A92     		str	r2, [sp, #40]
 1386 0798 0B93     		str	r3, [sp, #44]
 1387              	.LVL73:
 1388 079a 0E9E     		ldr	r6, [sp, #56]
 1389 079c 0F9F     		ldr	r7, [sp, #60]
 1390              	.LVL74:
 1391 079e 3C01     		lsls	r4, r7, #4
 1392 07a0 310F     		lsrs	r1, r6, #28
 1393 07a2 0C43     		orrs	r4, r1
 1394 07a4 3001     		lsls	r0, r6, #4
 1395 07a6 390F     		lsrs	r1, r7, #28
 1396 07a8 0843     		orrs	r0, r1
 1397 07aa B508     		lsrs	r5, r6, #2
 1398 07ac B907     		lsls	r1, r7, #30
 1399 07ae 2943     		orrs	r1, r5
 1400 07b0 3500     		movs	r5, r6
 1401 07b2 3E00     		movs	r6, r7
 1402 07b4 BF08     		lsrs	r7, r7, #2
 1403 07b6 BC46     		mov	ip, r7
 1404 07b8 3700     		movs	r7, r6
 1405 07ba 2E00     		movs	r6, r5
 1406 07bc AD07     		lsls	r5, r5, #30
 1407 07be 6346     		mov	r3, ip
 1408 07c0 1D43     		orrs	r5, r3
 1409 07c2 6C40     		eors	r4, r5
 1410 07c4 4840     		eors	r0, r1
 1411 07c6 F509     		lsrs	r5, r6, #7
 1412 07c8 7906     		lsls	r1, r7, #25
 1413 07ca 2943     		orrs	r1, r5
 1414 07cc FB09     		lsrs	r3, r7, #7
 1415 07ce 9C46     		mov	ip, r3
 1416 07d0 7506     		lsls	r5, r6, #25
 1417 07d2 6346     		mov	r3, ip
 1418 07d4 1D43     		orrs	r5, r3
 1419 07d6 6C40     		eors	r4, r5
 1420 07d8 3694     		str	r4, [sp, #216]
 1421 07da 0500     		movs	r5, r0
 1422 07dc 4D40     		eors	r5, r1
 1423 07de 3795     		str	r5, [sp, #220]
 1424 07e0 0498     		ldr	r0, [sp, #16]
 1425 07e2 0599     		ldr	r1, [sp, #20]
 1426 07e4 0500     		movs	r5, r0
 1427 07e6 3540     		ands	r5, r6
 1428 07e8 0C00     		movs	r4, r1
 1429 07ea 3200     		movs	r2, r6
 1430              	.LVL75:
 1431 07ec 3B00     		movs	r3, r7
 1432 07ee 3C40     		ands	r4, r7
 1433 07f0 0F00     		movs	r7, r1
 1434 07f2 1043     		orrs	r0, r2
 1435 07f4 3900     		movs	r1, r7
 1436 07f6 1943     		orrs	r1, r3
 1437 07f8 109E     		ldr	r6, [sp, #64]
 1438 07fa 119F     		ldr	r7, [sp, #68]
 1439 07fc 3040     		ands	r0, r6
ARM GAS  C:\Users\Phuong\AppData\Local\Temp\ccCGJz1B.s 			page 31


 1440 07fe 3940     		ands	r1, r7
 1441 0800 0543     		orrs	r5, r0
 1442 0802 3895     		str	r5, [sp, #224]
 1443 0804 2500     		movs	r5, r4
 1444 0806 0D43     		orrs	r5, r1
 1445 0808 3995     		str	r5, [sp, #228]
 1446 080a 3698     		ldr	r0, [sp, #216]
 1447 080c 3799     		ldr	r1, [sp, #220]
 1448 080e 389D     		ldr	r5, [sp, #224]
 1449 0810 399E     		ldr	r6, [sp, #228]
 1450 0812 4019     		adds	r0, r0, r5
 1451 0814 7141     		adcs	r1, r1, r6
 1452              	.LVL76:
 1453 0816 069C     		ldr	r4, [sp, #24]
 1454 0818 079D     		ldr	r5, [sp, #28]
 1455 081a 0A9A     		ldr	r2, [sp, #40]
 1456 081c 0B9B     		ldr	r3, [sp, #44]
 1457 081e A418     		adds	r4, r4, r2
 1458 0820 5D41     		adcs	r5, r5, r3
 1459 0822 2600     		movs	r6, r4
 1460 0824 2F00     		movs	r7, r5
 1461              	.LVL77:
 1462 0826 1218     		adds	r2, r2, r0
 1463 0828 4B41     		adcs	r3, r3, r1
 1464 082a 0A92     		str	r2, [sp, #40]
 1465 082c 0B93     		str	r3, [sp, #44]
 1466              	.LVL78:
 1467 082e 5146     		mov	r1, r10
 1468 0830 4B1D     		adds	r3, r1, #5
 1469              	.LVL79:
 259:Source\mbedtls_open\library/sha512.c ****         P( D, E, F, G, H, A, B, C, W[i], K[i] ); i++;
 1470              		.loc 1 259 0 discriminator 1
 1471 0832 A904     		lsls	r1, r5, #18
 1472 0834 2500     		movs	r5, r4
 1473 0836 A20B     		lsrs	r2, r4, #14
 1474              	.LVL80:
 1475 0838 1143     		orrs	r1, r2
 1476 083a 0C00     		movs	r4, r1
 1477 083c AD04     		lsls	r5, r5, #18
 1478 083e BA0B     		lsrs	r2, r7, #14
 1479 0840 1543     		orrs	r5, r2
 1480 0842 B903     		lsls	r1, r7, #14
 1481 0844 0696     		str	r6, [sp, #24]
 1482 0846 0797     		str	r7, [sp, #28]
 1483 0848 B20C     		lsrs	r2, r6, #18
 1484 084a 1143     		orrs	r1, r2
 1485 084c 0800     		movs	r0, r1
 1486              	.LVL81:
 1487 084e 069E     		ldr	r6, [sp, #24]
 1488 0850 079F     		ldr	r7, [sp, #28]
 1489 0852 B203     		lsls	r2, r6, #14
 1490 0854 B90C     		lsrs	r1, r7, #18
 1491 0856 0A43     		orrs	r2, r1
 1492 0858 2100     		movs	r1, r4
 1493 085a 4140     		eors	r1, r0
 1494 085c 6A40     		eors	r2, r5
 1495 085e 740A     		lsrs	r4, r6, #9
ARM GAS  C:\Users\Phuong\AppData\Local\Temp\ccCGJz1B.s 			page 32


 1496 0860 F805     		lsls	r0, r7, #23
 1497 0862 2043     		orrs	r0, r4
 1498 0864 7D0A     		lsrs	r5, r7, #9
 1499 0866 069F     		ldr	r7, [sp, #24]
 1500 0868 FC05     		lsls	r4, r7, #23
 1501 086a 2C43     		orrs	r4, r5
 1502 086c 6140     		eors	r1, r4
 1503 086e 3A91     		str	r1, [sp, #232]
 1504 0870 1100     		movs	r1, r2
 1505 0872 4140     		eors	r1, r0
 1506 0874 3B91     		str	r1, [sp, #236]
 1507 0876 3A99     		ldr	r1, [sp, #232]
 1508 0878 3B9A     		ldr	r2, [sp, #236]
 1509 087a 009E     		ldr	r6, [sp]
 1510 087c 019F     		ldr	r7, [sp, #4]
 1511              	.LVL82:
 1512 087e 7618     		adds	r6, r6, r1
 1513 0880 5741     		adcs	r7, r7, r2
 1514 0882 0899     		ldr	r1, [sp, #32]
 1515 0884 029C     		ldr	r4, [sp, #8]
 1516 0886 039D     		ldr	r5, [sp, #12]
 1517 0888 6140     		eors	r1, r4
 1518 088a 099A     		ldr	r2, [sp, #36]
 1519 088c 6A40     		eors	r2, r5
 1520 088e 069C     		ldr	r4, [sp, #24]
 1521 0890 079D     		ldr	r5, [sp, #28]
 1522 0892 2140     		ands	r1, r4
 1523 0894 2A40     		ands	r2, r5
 1524 0896 089C     		ldr	r4, [sp, #32]
 1525 0898 099D     		ldr	r5, [sp, #36]
 1526 089a 2000     		movs	r0, r4
 1527 089c 4840     		eors	r0, r1
 1528 089e 3C90     		str	r0, [sp, #240]
 1529 08a0 2900     		movs	r1, r5
 1530 08a2 5140     		eors	r1, r2
 1531 08a4 3D91     		str	r1, [sp, #244]
 1532 08a6 3C99     		ldr	r1, [sp, #240]
 1533 08a8 3D9A     		ldr	r2, [sp, #244]
 1534 08aa 7618     		adds	r6, r6, r1
 1535 08ac 5741     		adcs	r7, r7, r2
 1536 08ae D900     		lsls	r1, r3, #3
 1537 08b0 5D46     		mov	r5, fp
 1538 08b2 6B18     		adds	r3, r5, r1
 1539              	.LVL83:
 1540 08b4 1A68     		ldr	r2, [r3]
 1541 08b6 5B68     		ldr	r3, [r3, #4]
 1542 08b8 B618     		adds	r6, r6, r2
 1543 08ba 5F41     		adcs	r7, r7, r3
 1544 08bc 64AB     		add	r3, sp, #400
 1545 08be 9C46     		mov	ip, r3
 1546 08c0 6144     		add	r1, r1, ip
 1547 08c2 0A68     		ldr	r2, [r1]
 1548 08c4 4B68     		ldr	r3, [r1, #4]
 1549 08c6 B618     		adds	r6, r6, r2
 1550 08c8 5F41     		adcs	r7, r7, r3
 1551 08ca 0096     		str	r6, [sp]
 1552 08cc 0197     		str	r7, [sp, #4]
ARM GAS  C:\Users\Phuong\AppData\Local\Temp\ccCGJz1B.s 			page 33


 1553              	.LVL84:
 1554 08ce 0A9E     		ldr	r6, [sp, #40]
 1555 08d0 0B9F     		ldr	r7, [sp, #44]
 1556              	.LVL85:
 1557 08d2 3901     		lsls	r1, r7, #4
 1558 08d4 330F     		lsrs	r3, r6, #28
 1559 08d6 1943     		orrs	r1, r3
 1560 08d8 0C00     		movs	r4, r1
 1561 08da 3201     		lsls	r2, r6, #4
 1562 08dc 3B0F     		lsrs	r3, r7, #28
 1563 08de 1A43     		orrs	r2, r3
 1564 08e0 1500     		movs	r5, r2
 1565 08e2 B208     		lsrs	r2, r6, #2
 1566 08e4 BB07     		lsls	r3, r7, #30
 1567 08e6 1343     		orrs	r3, r2
 1568 08e8 B908     		lsrs	r1, r7, #2
 1569 08ea B007     		lsls	r0, r6, #30
 1570 08ec 0143     		orrs	r1, r0
 1571 08ee 6140     		eors	r1, r4
 1572 08f0 2A00     		movs	r2, r5
 1573 08f2 5A40     		eors	r2, r3
 1574 08f4 F009     		lsrs	r0, r6, #7
 1575 08f6 7B06     		lsls	r3, r7, #25
 1576 08f8 0343     		orrs	r3, r0
 1577 08fa FC09     		lsrs	r4, r7, #7
 1578 08fc 7006     		lsls	r0, r6, #25
 1579 08fe 2043     		orrs	r0, r4
 1580 0900 4140     		eors	r1, r0
 1581 0902 3E91     		str	r1, [sp, #248]
 1582 0904 5A40     		eors	r2, r3
 1583 0906 3F92     		str	r2, [sp, #252]
 1584 0908 0E9B     		ldr	r3, [sp, #56]
 1585 090a 0F9C     		ldr	r4, [sp, #60]
 1586 090c 1800     		movs	r0, r3
 1587 090e 3040     		ands	r0, r6
 1588 0910 2500     		movs	r5, r4
 1589 0912 3D40     		ands	r5, r7
 1590 0914 2900     		movs	r1, r5
 1591 0916 1A00     		movs	r2, r3
 1592 0918 3243     		orrs	r2, r6
 1593 091a 2300     		movs	r3, r4
 1594 091c 3B43     		orrs	r3, r7
 1595 091e 049C     		ldr	r4, [sp, #16]
 1596 0920 059D     		ldr	r5, [sp, #20]
 1597 0922 2240     		ands	r2, r4
 1598 0924 2B40     		ands	r3, r5
 1599 0926 0500     		movs	r5, r0
 1600 0928 1543     		orrs	r5, r2
 1601 092a 4095     		str	r5, [sp, #256]
 1602 092c 1943     		orrs	r1, r3
 1603 092e 4191     		str	r1, [sp, #260]
 1604 0930 3E9A     		ldr	r2, [sp, #248]
 1605 0932 3F9B     		ldr	r3, [sp, #252]
 1606 0934 4098     		ldr	r0, [sp, #256]
 1607 0936 4199     		ldr	r1, [sp, #260]
 1608 0938 1218     		adds	r2, r2, r0
 1609 093a 4B41     		adcs	r3, r3, r1
ARM GAS  C:\Users\Phuong\AppData\Local\Temp\ccCGJz1B.s 			page 34


 1610              	.LVL86:
 1611 093c 1098     		ldr	r0, [sp, #64]
 1612 093e 1199     		ldr	r1, [sp, #68]
 1613 0940 009E     		ldr	r6, [sp]
 1614 0942 019F     		ldr	r7, [sp, #4]
 1615 0944 3400     		movs	r4, r6
 1616 0946 3D00     		movs	r5, r7
 1617 0948 0019     		adds	r0, r0, r4
 1618 094a 6941     		adcs	r1, r1, r5
 1619 094c 0400     		movs	r4, r0
 1620 094e 0D00     		movs	r5, r1
 1621              	.LVL87:
 1622 0950 B618     		adds	r6, r6, r2
 1623 0952 5F41     		adcs	r7, r7, r3
 1624 0954 1096     		str	r6, [sp, #64]
 1625 0956 1197     		str	r7, [sp, #68]
 1626              	.LVL88:
 1627 0958 5146     		mov	r1, r10
 1628 095a 0631     		adds	r1, r1, #6
 1629              	.LVL89:
 260:Source\mbedtls_open\library/sha512.c ****         P( C, D, E, F, G, H, A, B, W[i], K[i] ); i++;
 1630              		.loc 1 260 0 discriminator 1
 1631 095c AA04     		lsls	r2, r5, #18
 1632              	.LVL90:
 1633 095e 2600     		movs	r6, r4
 1634              	.LVL91:
 1635 0960 2F00     		movs	r7, r5
 1636 0962 A30B     		lsrs	r3, r4, #14
 1637 0964 1A43     		orrs	r2, r3
 1638 0966 1500     		movs	r5, r2
 1639 0968 A004     		lsls	r0, r4, #18
 1640 096a BB0B     		lsrs	r3, r7, #14
 1641 096c 1843     		orrs	r0, r3
 1642 096e BA03     		lsls	r2, r7, #14
 1643 0970 A30C     		lsrs	r3, r4, #18
 1644 0972 1A43     		orrs	r2, r3
 1645 0974 1400     		movs	r4, r2
 1646              	.LVL92:
 1647 0976 B303     		lsls	r3, r6, #14
 1648 0978 BA0C     		lsrs	r2, r7, #18
 1649 097a 1343     		orrs	r3, r2
 1650 097c 2A00     		movs	r2, r5
 1651 097e 6240     		eors	r2, r4
 1652 0980 4340     		eors	r3, r0
 1653 0982 740A     		lsrs	r4, r6, #9
 1654 0984 F805     		lsls	r0, r7, #23
 1655 0986 2043     		orrs	r0, r4
 1656 0988 7D0A     		lsrs	r5, r7, #9
 1657 098a 0096     		str	r6, [sp]
 1658 098c 0197     		str	r7, [sp, #4]
 1659              	.LVL93:
 1660 098e F405     		lsls	r4, r6, #23
 1661 0990 2C43     		orrs	r4, r5
 1662 0992 6240     		eors	r2, r4
 1663 0994 4292     		str	r2, [sp, #264]
 1664 0996 4340     		eors	r3, r0
 1665 0998 4393     		str	r3, [sp, #268]
ARM GAS  C:\Users\Phuong\AppData\Local\Temp\ccCGJz1B.s 			page 35


 1666 099a 089A     		ldr	r2, [sp, #32]
 1667 099c 099B     		ldr	r3, [sp, #36]
 1668 099e 429D     		ldr	r5, [sp, #264]
 1669 09a0 439E     		ldr	r6, [sp, #268]
 1670 09a2 5219     		adds	r2, r2, r5
 1671 09a4 7341     		adcs	r3, r3, r6
 1672 09a6 029F     		ldr	r7, [sp, #8]
 1673 09a8 069D     		ldr	r5, [sp, #24]
 1674 09aa 079E     		ldr	r6, [sp, #28]
 1675 09ac 6F40     		eors	r7, r5
 1676 09ae 3C00     		movs	r4, r7
 1677 09b0 039F     		ldr	r7, [sp, #12]
 1678 09b2 7740     		eors	r7, r6
 1679 09b4 3800     		movs	r0, r7
 1680 09b6 009E     		ldr	r6, [sp]
 1681 09b8 019F     		ldr	r7, [sp, #4]
 1682 09ba 3440     		ands	r4, r6
 1683 09bc 3840     		ands	r0, r7
 1684 09be 029E     		ldr	r6, [sp, #8]
 1685 09c0 039F     		ldr	r7, [sp, #12]
 1686 09c2 3500     		movs	r5, r6
 1687 09c4 6540     		eors	r5, r4
 1688 09c6 4495     		str	r5, [sp, #272]
 1689 09c8 4740     		eors	r7, r0
 1690 09ca 4597     		str	r7, [sp, #276]
 1691 09cc 449C     		ldr	r4, [sp, #272]
 1692 09ce 459D     		ldr	r5, [sp, #276]
 1693 09d0 1219     		adds	r2, r2, r4
 1694 09d2 6B41     		adcs	r3, r3, r5
 1695 09d4 CC00     		lsls	r4, r1, #3
 1696 09d6 5946     		mov	r1, fp
 1697              	.LVL94:
 1698 09d8 0919     		adds	r1, r1, r4
 1699 09da 0868     		ldr	r0, [r1]
 1700 09dc 4968     		ldr	r1, [r1, #4]
 1701 09de 1218     		adds	r2, r2, r0
 1702 09e0 4B41     		adcs	r3, r3, r1
 1703 09e2 2100     		movs	r1, r4
 1704 09e4 6144     		add	r1, r1, ip
 1705 09e6 0868     		ldr	r0, [r1]
 1706 09e8 4968     		ldr	r1, [r1, #4]
 1707 09ea 1218     		adds	r2, r2, r0
 1708 09ec 4B41     		adcs	r3, r3, r1
 1709 09ee 0892     		str	r2, [sp, #32]
 1710 09f0 0993     		str	r3, [sp, #36]
 1711              	.LVL95:
 1712 09f2 109A     		ldr	r2, [sp, #64]
 1713 09f4 119B     		ldr	r3, [sp, #68]
 1714              	.LVL96:
 1715 09f6 1C01     		lsls	r4, r3, #4
 1716 09f8 110F     		lsrs	r1, r2, #28
 1717 09fa 2700     		movs	r7, r4
 1718 09fc 0F43     		orrs	r7, r1
 1719 09fe 3E00     		movs	r6, r7
 1720 0a00 1001     		lsls	r0, r2, #4
 1721 0a02 190F     		lsrs	r1, r3, #28
 1722 0a04 0700     		movs	r7, r0
ARM GAS  C:\Users\Phuong\AppData\Local\Temp\ccCGJz1B.s 			page 36


 1723 0a06 0F43     		orrs	r7, r1
 1724 0a08 9008     		lsrs	r0, r2, #2
 1725 0a0a 9907     		lsls	r1, r3, #30
 1726 0a0c 0143     		orrs	r1, r0
 1727 0a0e 9C08     		lsrs	r4, r3, #2
 1728 0a10 9507     		lsls	r5, r2, #30
 1729 0a12 2C43     		orrs	r4, r5
 1730 0a14 7440     		eors	r4, r6
 1731 0a16 4F40     		eors	r7, r1
 1732 0a18 3800     		movs	r0, r7
 1733 0a1a D509     		lsrs	r5, r2, #7
 1734 0a1c 5906     		lsls	r1, r3, #25
 1735 0a1e 2943     		orrs	r1, r5
 1736 0a20 DE09     		lsrs	r6, r3, #7
 1737 0a22 5506     		lsls	r5, r2, #25
 1738 0a24 3543     		orrs	r5, r6
 1739 0a26 2700     		movs	r7, r4
 1740 0a28 6F40     		eors	r7, r5
 1741 0a2a 4697     		str	r7, [sp, #280]
 1742 0a2c 0700     		movs	r7, r0
 1743 0a2e 4F40     		eors	r7, r1
 1744 0a30 4797     		str	r7, [sp, #284]
 1745 0a32 0A98     		ldr	r0, [sp, #40]
 1746 0a34 0B99     		ldr	r1, [sp, #44]
 1747 0a36 0500     		movs	r5, r0
 1748 0a38 1540     		ands	r5, r2
 1749 0a3a 0C00     		movs	r4, r1
 1750 0a3c 1C40     		ands	r4, r3
 1751 0a3e 0F00     		movs	r7, r1
 1752 0a40 0100     		movs	r1, r0
 1753 0a42 1143     		orrs	r1, r2
 1754 0a44 0800     		movs	r0, r1
 1755 0a46 3900     		movs	r1, r7
 1756 0a48 1943     		orrs	r1, r3
 1757 0a4a 0E9E     		ldr	r6, [sp, #56]
 1758 0a4c 0F9F     		ldr	r7, [sp, #60]
 1759 0a4e 3040     		ands	r0, r6
 1760 0a50 3940     		ands	r1, r7
 1761 0a52 2F00     		movs	r7, r5
 1762 0a54 0743     		orrs	r7, r0
 1763 0a56 4897     		str	r7, [sp, #288]
 1764 0a58 2700     		movs	r7, r4
 1765 0a5a 0F43     		orrs	r7, r1
 1766 0a5c 4997     		str	r7, [sp, #292]
 1767 0a5e 4698     		ldr	r0, [sp, #280]
 1768 0a60 4799     		ldr	r1, [sp, #284]
 1769 0a62 489D     		ldr	r5, [sp, #288]
 1770 0a64 499E     		ldr	r6, [sp, #292]
 1771 0a66 4019     		adds	r0, r0, r5
 1772 0a68 7141     		adcs	r1, r1, r6
 1773              	.LVL97:
 1774 0a6a 049C     		ldr	r4, [sp, #16]
 1775 0a6c 059D     		ldr	r5, [sp, #20]
 1776 0a6e 089A     		ldr	r2, [sp, #32]
 1777 0a70 099B     		ldr	r3, [sp, #36]
 1778 0a72 A418     		adds	r4, r4, r2
 1779 0a74 5D41     		adcs	r5, r5, r3
ARM GAS  C:\Users\Phuong\AppData\Local\Temp\ccCGJz1B.s 			page 37


 1780 0a76 2600     		movs	r6, r4
 1781 0a78 2F00     		movs	r7, r5
 1782              	.LVL98:
 1783 0a7a 1218     		adds	r2, r2, r0
 1784 0a7c 4B41     		adcs	r3, r3, r1
 1785 0a7e 0C92     		str	r2, [sp, #48]
 1786 0a80 0D93     		str	r3, [sp, #52]
 1787              	.LVL99:
 1788 0a82 5346     		mov	r3, r10
 1789 0a84 D91D     		adds	r1, r3, #7
 1790              	.LVL100:
 261:Source\mbedtls_open\library/sha512.c ****         P( B, C, D, E, F, G, H, A, W[i], K[i] ); i++;
 1791              		.loc 1 261 0 discriminator 1
 1792 0a86 AA04     		lsls	r2, r5, #18
 1793              	.LVL101:
 1794 0a88 A30B     		lsrs	r3, r4, #14
 1795 0a8a 1A43     		orrs	r2, r3
 1796 0a8c 1500     		movs	r5, r2
 1797 0a8e 3C00     		movs	r4, r7
 1798 0a90 B004     		lsls	r0, r6, #18
 1799              	.LVL102:
 1800 0a92 A30B     		lsrs	r3, r4, #14
 1801 0a94 1843     		orrs	r0, r3
 1802 0a96 A203     		lsls	r2, r4, #14
 1803 0a98 2700     		movs	r7, r4
 1804 0a9a B30C     		lsrs	r3, r6, #18
 1805 0a9c 1400     		movs	r4, r2
 1806 0a9e 1C43     		orrs	r4, r3
 1807 0aa0 B303     		lsls	r3, r6, #14
 1808 0aa2 BA0C     		lsrs	r2, r7, #18
 1809 0aa4 1343     		orrs	r3, r2
 1810 0aa6 2A00     		movs	r2, r5
 1811 0aa8 6240     		eors	r2, r4
 1812 0aaa 4340     		eors	r3, r0
 1813 0aac 740A     		lsrs	r4, r6, #9
 1814 0aae F805     		lsls	r0, r7, #23
 1815 0ab0 2043     		orrs	r0, r4
 1816 0ab2 7D0A     		lsrs	r5, r7, #9
 1817 0ab4 0496     		str	r6, [sp, #16]
 1818 0ab6 0597     		str	r7, [sp, #20]
 1819 0ab8 F405     		lsls	r4, r6, #23
 1820 0aba 2C43     		orrs	r4, r5
 1821 0abc 1700     		movs	r7, r2
 1822 0abe 6740     		eors	r7, r4
 1823 0ac0 4A97     		str	r7, [sp, #296]
 1824 0ac2 4340     		eors	r3, r0
 1825 0ac4 4B93     		str	r3, [sp, #300]
 1826 0ac6 029A     		ldr	r2, [sp, #8]
 1827 0ac8 039B     		ldr	r3, [sp, #12]
 1828 0aca 4A9C     		ldr	r4, [sp, #296]
 1829 0acc 4B9D     		ldr	r5, [sp, #300]
 1830 0ace 1219     		adds	r2, r2, r4
 1831 0ad0 6B41     		adcs	r3, r3, r5
 1832 0ad2 069D     		ldr	r5, [sp, #24]
 1833 0ad4 079E     		ldr	r6, [sp, #28]
 1834 0ad6 2C00     		movs	r4, r5
 1835 0ad8 009F     		ldr	r7, [sp]
ARM GAS  C:\Users\Phuong\AppData\Local\Temp\ccCGJz1B.s 			page 38


 1836 0ada 7C40     		eors	r4, r7
 1837 0adc 3700     		movs	r7, r6
 1838 0ade 0198     		ldr	r0, [sp, #4]
 1839 0ae0 4740     		eors	r7, r0
 1840 0ae2 3800     		movs	r0, r7
 1841 0ae4 049F     		ldr	r7, [sp, #16]
 1842 0ae6 3C40     		ands	r4, r7
 1843 0ae8 059F     		ldr	r7, [sp, #20]
 1844 0aea 3840     		ands	r0, r7
 1845 0aec 2F00     		movs	r7, r5
 1846 0aee 6740     		eors	r7, r4
 1847 0af0 4C97     		str	r7, [sp, #304]
 1848 0af2 3700     		movs	r7, r6
 1849 0af4 4740     		eors	r7, r0
 1850 0af6 4D97     		str	r7, [sp, #308]
 1851 0af8 4C9C     		ldr	r4, [sp, #304]
 1852 0afa 4D9D     		ldr	r5, [sp, #308]
 1853 0afc 1219     		adds	r2, r2, r4
 1854 0afe 6B41     		adcs	r3, r3, r5
 1855 0b00 CC00     		lsls	r4, r1, #3
 1856 0b02 5946     		mov	r1, fp
 1857              	.LVL103:
 1858 0b04 0819     		adds	r0, r1, r4
 1859 0b06 4168     		ldr	r1, [r0, #4]
 1860 0b08 0068     		ldr	r0, [r0]
 1861 0b0a 1218     		adds	r2, r2, r0
 1862 0b0c 4B41     		adcs	r3, r3, r1
 1863 0b0e 2100     		movs	r1, r4
 1864 0b10 6144     		add	r1, r1, ip
 1865 0b12 0868     		ldr	r0, [r1]
 1866 0b14 4968     		ldr	r1, [r1, #4]
 1867 0b16 1218     		adds	r2, r2, r0
 1868 0b18 4B41     		adcs	r3, r3, r1
 1869 0b1a 0292     		str	r2, [sp, #8]
 1870 0b1c 0393     		str	r3, [sp, #12]
 1871              	.LVL104:
 1872 0b1e 0C9A     		ldr	r2, [sp, #48]
 1873 0b20 0D9B     		ldr	r3, [sp, #52]
 1874              	.LVL105:
 1875 0b22 1C01     		lsls	r4, r3, #4
 1876 0b24 110F     		lsrs	r1, r2, #28
 1877 0b26 2700     		movs	r7, r4
 1878 0b28 0F43     		orrs	r7, r1
 1879 0b2a 3E00     		movs	r6, r7
 1880              	.LVL106:
 1881 0b2c 1001     		lsls	r0, r2, #4
 1882 0b2e 190F     		lsrs	r1, r3, #28
 1883 0b30 0700     		movs	r7, r0
 1884 0b32 0F43     		orrs	r7, r1
 1885 0b34 9008     		lsrs	r0, r2, #2
 1886 0b36 9907     		lsls	r1, r3, #30
 1887 0b38 0143     		orrs	r1, r0
 1888 0b3a 9C08     		lsrs	r4, r3, #2
 1889 0b3c 9507     		lsls	r5, r2, #30
 1890 0b3e 2C43     		orrs	r4, r5
 1891 0b40 7440     		eors	r4, r6
 1892 0b42 4F40     		eors	r7, r1
ARM GAS  C:\Users\Phuong\AppData\Local\Temp\ccCGJz1B.s 			page 39


 1893 0b44 D509     		lsrs	r5, r2, #7
 1894 0b46 5906     		lsls	r1, r3, #25
 1895 0b48 2943     		orrs	r1, r5
 1896 0b4a DE09     		lsrs	r6, r3, #7
 1897 0b4c 5506     		lsls	r5, r2, #25
 1898 0b4e 3543     		orrs	r5, r6
 1899 0b50 6C40     		eors	r4, r5
 1900 0b52 4E94     		str	r4, [sp, #312]
 1901 0b54 3D00     		movs	r5, r7
 1902 0b56 4D40     		eors	r5, r1
 1903 0b58 4F95     		str	r5, [sp, #316]
 1904 0b5a 1098     		ldr	r0, [sp, #64]
 1905 0b5c 1199     		ldr	r1, [sp, #68]
 1906 0b5e 0500     		movs	r5, r0
 1907 0b60 1540     		ands	r5, r2
 1908 0b62 0C00     		movs	r4, r1
 1909 0b64 1C40     		ands	r4, r3
 1910 0b66 0F00     		movs	r7, r1
 1911 0b68 1043     		orrs	r0, r2
 1912 0b6a 3900     		movs	r1, r7
 1913 0b6c 1943     		orrs	r1, r3
 1914 0b6e 0A9E     		ldr	r6, [sp, #40]
 1915 0b70 0B9F     		ldr	r7, [sp, #44]
 1916 0b72 3040     		ands	r0, r6
 1917 0b74 3940     		ands	r1, r7
 1918 0b76 0543     		orrs	r5, r0
 1919 0b78 5095     		str	r5, [sp, #320]
 1920 0b7a 2000     		movs	r0, r4
 1921 0b7c 0843     		orrs	r0, r1
 1922 0b7e 5190     		str	r0, [sp, #324]
 1923 0b80 4E98     		ldr	r0, [sp, #312]
 1924 0b82 4F99     		ldr	r1, [sp, #316]
 1925 0b84 509D     		ldr	r5, [sp, #320]
 1926 0b86 519E     		ldr	r6, [sp, #324]
 1927 0b88 4019     		adds	r0, r0, r5
 1928 0b8a 7141     		adcs	r1, r1, r6
 1929              	.LVL107:
 1930 0b8c 0E9C     		ldr	r4, [sp, #56]
 1931 0b8e 0F9D     		ldr	r5, [sp, #60]
 1932 0b90 029A     		ldr	r2, [sp, #8]
 1933 0b92 039B     		ldr	r3, [sp, #12]
 1934 0b94 A418     		adds	r4, r4, r2
 1935 0b96 5D41     		adcs	r5, r5, r3
 1936 0b98 0894     		str	r4, [sp, #32]
 1937 0b9a 0995     		str	r5, [sp, #36]
 1938              	.LVL108:
 1939 0b9c 1218     		adds	r2, r2, r0
 1940 0b9e 4B41     		adcs	r3, r3, r1
 1941 0ba0 0292     		str	r2, [sp, #8]
 1942 0ba2 0393     		str	r3, [sp, #12]
 1943              	.LVL109:
 1944 0ba4 0823     		movs	r3, #8
 1945 0ba6 9C46     		mov	ip, r3
 1946 0ba8 E244     		add	r10, r10, ip
 1947              	.LVL110:
 262:Source\mbedtls_open\library/sha512.c ****     }
 263:Source\mbedtls_open\library/sha512.c ****     while( i < 80 );
ARM GAS  C:\Users\Phuong\AppData\Local\Temp\ccCGJz1B.s 			page 40


 1948              		.loc 1 263 0 discriminator 1
 1949 0baa 5346     		mov	r3, r10
 1950 0bac 4F2B     		cmp	r3, #79
 1951 0bae 01DC     		bgt	.LCB1791
 1952 0bb0 FFF703FB 		bl	.L16	@far jump
 1953              	.LCB1791:
 264:Source\mbedtls_open\library/sha512.c **** 
 265:Source\mbedtls_open\library/sha512.c ****     ctx->state[0] += A;
 1954              		.loc 1 265 0
 1955 0bb4 529A     		ldr	r2, [sp, #328]
 1956 0bb6 539B     		ldr	r3, [sp, #332]
 1957              	.LVL111:
 1958 0bb8 0298     		ldr	r0, [sp, #8]
 1959 0bba 0399     		ldr	r1, [sp, #12]
 1960              	.LVL112:
 1961 0bbc 1218     		adds	r2, r2, r0
 1962 0bbe 4B41     		adcs	r3, r3, r1
 1963 0bc0 5D9C     		ldr	r4, [sp, #372]
 1964              	.LVL113:
 1965 0bc2 2261     		str	r2, [r4, #16]
 1966 0bc4 6361     		str	r3, [r4, #20]
 266:Source\mbedtls_open\library/sha512.c ****     ctx->state[1] += B;
 1967              		.loc 1 266 0
 1968 0bc6 549A     		ldr	r2, [sp, #336]
 1969 0bc8 559B     		ldr	r3, [sp, #340]
 1970 0bca 0C98     		ldr	r0, [sp, #48]
 1971 0bcc 0D99     		ldr	r1, [sp, #52]
 1972 0bce 1218     		adds	r2, r2, r0
 1973 0bd0 4B41     		adcs	r3, r3, r1
 1974 0bd2 A261     		str	r2, [r4, #24]
 1975 0bd4 E361     		str	r3, [r4, #28]
 267:Source\mbedtls_open\library/sha512.c ****     ctx->state[2] += C;
 1976              		.loc 1 267 0
 1977 0bd6 569A     		ldr	r2, [sp, #344]
 1978 0bd8 579B     		ldr	r3, [sp, #348]
 1979 0bda 1098     		ldr	r0, [sp, #64]
 1980 0bdc 1199     		ldr	r1, [sp, #68]
 1981 0bde 1218     		adds	r2, r2, r0
 1982 0be0 4B41     		adcs	r3, r3, r1
 1983 0be2 2100     		movs	r1, r4
 1984 0be4 2262     		str	r2, [r4, #32]
 1985 0be6 6362     		str	r3, [r4, #36]
 268:Source\mbedtls_open\library/sha512.c ****     ctx->state[3] += D;
 1986              		.loc 1 268 0
 1987 0be8 5E9C     		ldr	r4, [sp, #376]
 1988 0bea 5F9D     		ldr	r5, [sp, #380]
 1989 0bec 0A9A     		ldr	r2, [sp, #40]
 1990 0bee 0B9B     		ldr	r3, [sp, #44]
 1991 0bf0 A418     		adds	r4, r4, r2
 1992 0bf2 5D41     		adcs	r5, r5, r3
 1993 0bf4 8C62     		str	r4, [r1, #40]
 1994 0bf6 CD62     		str	r5, [r1, #44]
 269:Source\mbedtls_open\library/sha512.c ****     ctx->state[4] += E;
 1995              		.loc 1 269 0
 1996 0bf8 589C     		ldr	r4, [sp, #352]
 1997 0bfa 599D     		ldr	r5, [sp, #356]
 1998 0bfc 089A     		ldr	r2, [sp, #32]
ARM GAS  C:\Users\Phuong\AppData\Local\Temp\ccCGJz1B.s 			page 41


 1999 0bfe 099B     		ldr	r3, [sp, #36]
 2000 0c00 A418     		adds	r4, r4, r2
 2001 0c02 5D41     		adcs	r5, r5, r3
 2002 0c04 0C63     		str	r4, [r1, #48]
 2003 0c06 4D63     		str	r5, [r1, #52]
 270:Source\mbedtls_open\library/sha512.c ****     ctx->state[5] += F;
 2004              		.loc 1 270 0
 2005 0c08 5A9E     		ldr	r6, [sp, #360]
 2006 0c0a 5B9F     		ldr	r7, [sp, #364]
 2007 0c0c 049B     		ldr	r3, [sp, #16]
 2008 0c0e 059C     		ldr	r4, [sp, #20]
 2009 0c10 F618     		adds	r6, r6, r3
 2010 0c12 6741     		adcs	r7, r7, r4
 2011 0c14 0A00     		movs	r2, r1
 2012 0c16 8E63     		str	r6, [r1, #56]
 2013 0c18 CF63     		str	r7, [r1, #60]
 271:Source\mbedtls_open\library/sha512.c ****     ctx->state[6] += G;
 2014              		.loc 1 271 0
 2015 0c1a 6098     		ldr	r0, [sp, #384]
 2016 0c1c 6199     		ldr	r1, [sp, #388]
 2017 0c1e 009B     		ldr	r3, [sp]
 2018 0c20 019C     		ldr	r4, [sp, #4]
 2019 0c22 C018     		adds	r0, r0, r3
 2020 0c24 6141     		adcs	r1, r1, r4
 2021 0c26 1400     		movs	r4, r2
 2022 0c28 1064     		str	r0, [r2, #64]
 2023 0c2a 5164     		str	r1, [r2, #68]
 272:Source\mbedtls_open\library/sha512.c ****     ctx->state[7] += H;
 2024              		.loc 1 272 0
 2025 0c2c 629A     		ldr	r2, [sp, #392]
 2026 0c2e 639B     		ldr	r3, [sp, #396]
 2027 0c30 0698     		ldr	r0, [sp, #24]
 2028 0c32 0799     		ldr	r1, [sp, #28]
 2029 0c34 1218     		adds	r2, r2, r0
 2030 0c36 4B41     		adcs	r3, r3, r1
 2031 0c38 A264     		str	r2, [r4, #72]
 2032 0c3a E364     		str	r3, [r4, #76]
 273:Source\mbedtls_open\library/sha512.c **** 
 274:Source\mbedtls_open\library/sha512.c ****     return( 0 );
 275:Source\mbedtls_open\library/sha512.c **** }
 2033              		.loc 1 275 0
 2034 0c3c 0020     		movs	r0, #0
 2035 0c3e 044B     		ldr	r3, .L22
 2036 0c40 9D44     		add	sp, sp, r3
 2037              		@ sp needed
 2038              	.LVL114:
 2039              	.LVL115:
 2040 0c42 3CBC     		pop	{r2, r3, r4, r5}
 2041 0c44 9046     		mov	r8, r2
 2042 0c46 9946     		mov	r9, r3
 2043 0c48 A246     		mov	r10, r4
 2044 0c4a AB46     		mov	fp, r5
 2045 0c4c F0BD     		pop	{r4, r5, r6, r7, pc}
 2046              	.L23:
 2047 0c4e C046     		.align	2
 2048              	.L22:
 2049 0c50 14040000 		.word	1044
ARM GAS  C:\Users\Phuong\AppData\Local\Temp\ccCGJz1B.s 			page 42


 2050              		.cfi_endproc
 2051              	.LFE6:
 2052              		.size	mbedtls_internal_sha512_process, .-mbedtls_internal_sha512_process
 2053              		.section	.text.mbedtls_sha512_process,"ax",%progbits
 2054              		.align	2
 2055              		.global	mbedtls_sha512_process
 2056              		.code	16
 2057              		.thumb_func
 2058              		.type	mbedtls_sha512_process, %function
 2059              	mbedtls_sha512_process:
 2060              	.LFB7:
 276:Source\mbedtls_open\library/sha512.c **** 
 277:Source\mbedtls_open\library/sha512.c **** #if !defined(MBEDTLS_DEPRECATED_REMOVED)
 278:Source\mbedtls_open\library/sha512.c **** void mbedtls_sha512_process( mbedtls_sha512_context *ctx,
 279:Source\mbedtls_open\library/sha512.c ****                              const unsigned char data[128] )
 280:Source\mbedtls_open\library/sha512.c **** {
 2061              		.loc 1 280 0
 2062              		.cfi_startproc
 2063              		@ args = 0, pretend = 0, frame = 0
 2064              		@ frame_needed = 0, uses_anonymous_args = 0
 2065              	.LVL116:
 2066 0000 10B5     		push	{r4, lr}
 2067              		.cfi_def_cfa_offset 8
 2068              		.cfi_offset 4, -8
 2069              		.cfi_offset 14, -4
 281:Source\mbedtls_open\library/sha512.c ****     mbedtls_internal_sha512_process( ctx, data );
 2070              		.loc 1 281 0
 2071 0002 FFF7FEFF 		bl	mbedtls_internal_sha512_process
 2072              	.LVL117:
 282:Source\mbedtls_open\library/sha512.c **** }
 2073              		.loc 1 282 0
 2074              		@ sp needed
 2075 0006 10BD     		pop	{r4, pc}
 2076              		.cfi_endproc
 2077              	.LFE7:
 2078              		.size	mbedtls_sha512_process, .-mbedtls_sha512_process
 2079              		.section	.text.mbedtls_sha512_update_ret,"ax",%progbits
 2080              		.align	2
 2081              		.global	mbedtls_sha512_update_ret
 2082              		.code	16
 2083              		.thumb_func
 2084              		.type	mbedtls_sha512_update_ret, %function
 2085              	mbedtls_sha512_update_ret:
 2086              	.LFB8:
 283:Source\mbedtls_open\library/sha512.c **** #endif
 284:Source\mbedtls_open\library/sha512.c **** #endif /* !MBEDTLS_SHA512_PROCESS_ALT */
 285:Source\mbedtls_open\library/sha512.c **** 
 286:Source\mbedtls_open\library/sha512.c **** /*
 287:Source\mbedtls_open\library/sha512.c ****  * SHA-512 process buffer
 288:Source\mbedtls_open\library/sha512.c ****  */
 289:Source\mbedtls_open\library/sha512.c **** int mbedtls_sha512_update_ret( mbedtls_sha512_context *ctx,
 290:Source\mbedtls_open\library/sha512.c ****                                const unsigned char *input,
 291:Source\mbedtls_open\library/sha512.c ****                                size_t ilen )
 292:Source\mbedtls_open\library/sha512.c **** {
 2087              		.loc 1 292 0
 2088              		.cfi_startproc
 2089              		@ args = 0, pretend = 0, frame = 0
ARM GAS  C:\Users\Phuong\AppData\Local\Temp\ccCGJz1B.s 			page 43


 2090              		@ frame_needed = 0, uses_anonymous_args = 0
 2091              	.LVL118:
 2092 0000 F8B5     		push	{r3, r4, r5, r6, r7, lr}
 2093              		.cfi_def_cfa_offset 24
 2094              		.cfi_offset 3, -24
 2095              		.cfi_offset 4, -20
 2096              		.cfi_offset 5, -16
 2097              		.cfi_offset 6, -12
 2098              		.cfi_offset 7, -8
 2099              		.cfi_offset 14, -4
 2100 0002 4F46     		mov	r7, r9
 2101 0004 4646     		mov	r6, r8
 2102 0006 C0B4     		push	{r6, r7}
 2103              		.cfi_def_cfa_offset 32
 2104              		.cfi_offset 8, -32
 2105              		.cfi_offset 9, -28
 2106 0008 0700     		movs	r7, r0
 2107 000a 0D00     		movs	r5, r1
 2108 000c 141E     		subs	r4, r2, #0
 293:Source\mbedtls_open\library/sha512.c ****     int ret;
 294:Source\mbedtls_open\library/sha512.c ****     size_t fill;
 295:Source\mbedtls_open\library/sha512.c ****     unsigned int left;
 296:Source\mbedtls_open\library/sha512.c **** 
 297:Source\mbedtls_open\library/sha512.c ****     if( ilen == 0 )
 2109              		.loc 1 297 0
 2110 000e 48D0     		beq	.L32
 298:Source\mbedtls_open\library/sha512.c ****         return( 0 );
 299:Source\mbedtls_open\library/sha512.c **** 
 300:Source\mbedtls_open\library/sha512.c ****     left = (unsigned int) (ctx->total[0] & 0x7F);
 2111              		.loc 1 300 0
 2112 0010 7F20     		movs	r0, #127
 2113              	.LVL119:
 2114 0012 3B68     		ldr	r3, [r7]
 2115 0014 0340     		ands	r3, r0
 2116 0016 9946     		mov	r9, r3
 2117              	.LVL120:
 301:Source\mbedtls_open\library/sha512.c ****     fill = 128 - left;
 2118              		.loc 1 301 0
 2119 0018 8023     		movs	r3, #128
 2120              	.LVL121:
 2121 001a 4A46     		mov	r2, r9
 2122              	.LVL122:
 2123 001c 9E1A     		subs	r6, r3, r2
 2124              	.LVL123:
 302:Source\mbedtls_open\library/sha512.c **** 
 303:Source\mbedtls_open\library/sha512.c ****     ctx->total[0] += (uint64_t) ilen;
 2125              		.loc 1 303 0
 2126 001e 2000     		movs	r0, r4
 2127 0020 0021     		movs	r1, #0
 2128              	.LVL124:
 2129 0022 3A68     		ldr	r2, [r7]
 2130 0024 7B68     		ldr	r3, [r7, #4]
 2131 0026 1218     		adds	r2, r2, r0
 2132 0028 4B41     		adcs	r3, r3, r1
 2133 002a 3A60     		str	r2, [r7]
 2134 002c 7B60     		str	r3, [r7, #4]
 304:Source\mbedtls_open\library/sha512.c **** 
ARM GAS  C:\Users\Phuong\AppData\Local\Temp\ccCGJz1B.s 			page 44


 305:Source\mbedtls_open\library/sha512.c ****     if( ctx->total[0] < (uint64_t) ilen )
 2135              		.loc 1 305 0
 2136 002e 9942     		cmp	r1, r3
 2137 0030 09D1     		bne	.L27
 2138 0032 9442     		cmp	r4, r2
 2139 0034 07D9     		bls	.L27
 306:Source\mbedtls_open\library/sha512.c ****         ctx->total[1]++;
 2140              		.loc 1 306 0
 2141 0036 0122     		movs	r2, #1
 2142 0038 0023     		movs	r3, #0
 2143 003a B868     		ldr	r0, [r7, #8]
 2144 003c F968     		ldr	r1, [r7, #12]
 2145 003e 1218     		adds	r2, r2, r0
 2146 0040 4B41     		adcs	r3, r3, r1
 2147 0042 BA60     		str	r2, [r7, #8]
 2148 0044 FB60     		str	r3, [r7, #12]
 2149              	.L27:
 307:Source\mbedtls_open\library/sha512.c **** 
 308:Source\mbedtls_open\library/sha512.c ****     if( left && ilen >= fill )
 2150              		.loc 1 308 0
 2151 0046 4B46     		mov	r3, r9
 2152 0048 002B     		cmp	r3, #0
 2153 004a 1DD0     		beq	.L30
 2154              	.LVL125:
 2155              		.loc 1 308 0 is_stmt 0 discriminator 1
 2156 004c B442     		cmp	r4, r6
 2157 004e 1BD3     		bcc	.L30
 309:Source\mbedtls_open\library/sha512.c ****     {
 310:Source\mbedtls_open\library/sha512.c ****         memcpy( (void *) (ctx->buffer + left), input, fill );
 2158              		.loc 1 310 0 is_stmt 1
 2159 0050 5023     		movs	r3, #80
 2160              	.LVL126:
 2161 0052 9846     		mov	r8, r3
 2162 0054 B844     		add	r8, r8, r7
 2163 0056 4846     		mov	r0, r9
 2164 0058 4044     		add	r0, r0, r8
 2165 005a 3200     		movs	r2, r6
 2166 005c 2900     		movs	r1, r5
 2167 005e FFF7FEFF 		bl	memcpy
 2168              	.LVL127:
 311:Source\mbedtls_open\library/sha512.c **** 
 312:Source\mbedtls_open\library/sha512.c ****         if( ( ret = mbedtls_internal_sha512_process( ctx, ctx->buffer ) ) != 0 )
 2169              		.loc 1 312 0
 2170 0062 4146     		mov	r1, r8
 2171 0064 3800     		movs	r0, r7
 2172 0066 FFF7FEFF 		bl	mbedtls_internal_sha512_process
 2173              	.LVL128:
 2174 006a 0028     		cmp	r0, #0
 2175 006c 1CD1     		bne	.L26
 313:Source\mbedtls_open\library/sha512.c ****             return( ret );
 314:Source\mbedtls_open\library/sha512.c **** 
 315:Source\mbedtls_open\library/sha512.c ****         input += fill;
 2176              		.loc 1 315 0
 2177 006e AD19     		adds	r5, r5, r6
 2178              	.LVL129:
 316:Source\mbedtls_open\library/sha512.c ****         ilen  -= fill;
 2179              		.loc 1 316 0
ARM GAS  C:\Users\Phuong\AppData\Local\Temp\ccCGJz1B.s 			page 45


 2180 0070 A41B     		subs	r4, r4, r6
 2181              	.LVL130:
 317:Source\mbedtls_open\library/sha512.c ****         left = 0;
 2182              		.loc 1 317 0
 2183 0072 0023     		movs	r3, #0
 2184 0074 9946     		mov	r9, r3
 2185 0076 07E0     		b	.L30
 2186              	.LVL131:
 2187              	.L31:
 318:Source\mbedtls_open\library/sha512.c ****     }
 319:Source\mbedtls_open\library/sha512.c **** 
 320:Source\mbedtls_open\library/sha512.c ****     while( ilen >= 128 )
 321:Source\mbedtls_open\library/sha512.c ****     {
 322:Source\mbedtls_open\library/sha512.c ****         if( ( ret = mbedtls_internal_sha512_process( ctx, input ) ) != 0 )
 2188              		.loc 1 322 0
 2189 0078 2900     		movs	r1, r5
 2190 007a 3800     		movs	r0, r7
 2191 007c FFF7FEFF 		bl	mbedtls_internal_sha512_process
 2192              	.LVL132:
 2193 0080 0028     		cmp	r0, #0
 2194 0082 11D1     		bne	.L26
 323:Source\mbedtls_open\library/sha512.c ****             return( ret );
 324:Source\mbedtls_open\library/sha512.c **** 
 325:Source\mbedtls_open\library/sha512.c ****         input += 128;
 2195              		.loc 1 325 0
 2196 0084 8035     		adds	r5, r5, #128
 2197              	.LVL133:
 326:Source\mbedtls_open\library/sha512.c ****         ilen  -= 128;
 2198              		.loc 1 326 0
 2199 0086 803C     		subs	r4, r4, #128
 2200              	.LVL134:
 2201              	.L30:
 320:Source\mbedtls_open\library/sha512.c ****     {
 2202              		.loc 1 320 0
 2203 0088 7F2C     		cmp	r4, #127
 2204 008a F5D8     		bhi	.L31
 327:Source\mbedtls_open\library/sha512.c ****     }
 328:Source\mbedtls_open\library/sha512.c **** 
 329:Source\mbedtls_open\library/sha512.c ****     if( ilen > 0 )
 2205              		.loc 1 329 0
 2206 008c 002C     		cmp	r4, #0
 2207 008e 0AD0     		beq	.L35
 330:Source\mbedtls_open\library/sha512.c ****         memcpy( (void *) (ctx->buffer + left), input, ilen );
 2208              		.loc 1 330 0
 2209 0090 3800     		movs	r0, r7
 2210 0092 5030     		adds	r0, r0, #80
 2211 0094 4844     		add	r0, r0, r9
 2212 0096 2200     		movs	r2, r4
 2213 0098 2900     		movs	r1, r5
 2214 009a FFF7FEFF 		bl	memcpy
 2215              	.LVL135:
 331:Source\mbedtls_open\library/sha512.c **** 
 332:Source\mbedtls_open\library/sha512.c ****     return( 0 );
 2216              		.loc 1 332 0
 2217 009e 0020     		movs	r0, #0
 2218 00a0 02E0     		b	.L26
 2219              	.LVL136:
ARM GAS  C:\Users\Phuong\AppData\Local\Temp\ccCGJz1B.s 			page 46


 2220              	.L32:
 298:Source\mbedtls_open\library/sha512.c **** 
 2221              		.loc 1 298 0
 2222 00a2 0020     		movs	r0, #0
 2223              	.LVL137:
 2224 00a4 00E0     		b	.L26
 2225              	.LVL138:
 2226              	.L35:
 2227              		.loc 1 332 0
 2228 00a6 0020     		movs	r0, #0
 2229              	.LVL139:
 2230              	.L26:
 333:Source\mbedtls_open\library/sha512.c **** }
 2231              		.loc 1 333 0
 2232              		@ sp needed
 2233              	.LVL140:
 2234              	.LVL141:
 2235              	.LVL142:
 2236 00a8 0CBC     		pop	{r2, r3}
 2237 00aa 9046     		mov	r8, r2
 2238 00ac 9946     		mov	r9, r3
 2239 00ae F8BD     		pop	{r3, r4, r5, r6, r7, pc}
 2240              		.cfi_endproc
 2241              	.LFE8:
 2242              		.size	mbedtls_sha512_update_ret, .-mbedtls_sha512_update_ret
 2243              		.section	.text.mbedtls_sha512_update,"ax",%progbits
 2244              		.align	2
 2245              		.global	mbedtls_sha512_update
 2246              		.code	16
 2247              		.thumb_func
 2248              		.type	mbedtls_sha512_update, %function
 2249              	mbedtls_sha512_update:
 2250              	.LFB9:
 334:Source\mbedtls_open\library/sha512.c **** 
 335:Source\mbedtls_open\library/sha512.c **** #if !defined(MBEDTLS_DEPRECATED_REMOVED)
 336:Source\mbedtls_open\library/sha512.c **** void mbedtls_sha512_update( mbedtls_sha512_context *ctx,
 337:Source\mbedtls_open\library/sha512.c ****                             const unsigned char *input,
 338:Source\mbedtls_open\library/sha512.c ****                             size_t ilen )
 339:Source\mbedtls_open\library/sha512.c **** {
 2251              		.loc 1 339 0
 2252              		.cfi_startproc
 2253              		@ args = 0, pretend = 0, frame = 0
 2254              		@ frame_needed = 0, uses_anonymous_args = 0
 2255              	.LVL143:
 2256 0000 10B5     		push	{r4, lr}
 2257              		.cfi_def_cfa_offset 8
 2258              		.cfi_offset 4, -8
 2259              		.cfi_offset 14, -4
 340:Source\mbedtls_open\library/sha512.c ****     mbedtls_sha512_update_ret( ctx, input, ilen );
 2260              		.loc 1 340 0
 2261 0002 FFF7FEFF 		bl	mbedtls_sha512_update_ret
 2262              	.LVL144:
 341:Source\mbedtls_open\library/sha512.c **** }
 2263              		.loc 1 341 0
 2264              		@ sp needed
 2265 0006 10BD     		pop	{r4, pc}
 2266              		.cfi_endproc
ARM GAS  C:\Users\Phuong\AppData\Local\Temp\ccCGJz1B.s 			page 47


 2267              	.LFE9:
 2268              		.size	mbedtls_sha512_update, .-mbedtls_sha512_update
 2269              		.section	.text.mbedtls_sha512_finish_ret,"ax",%progbits
 2270              		.align	2
 2271              		.global	mbedtls_sha512_finish_ret
 2272              		.code	16
 2273              		.thumb_func
 2274              		.type	mbedtls_sha512_finish_ret, %function
 2275              	mbedtls_sha512_finish_ret:
 2276              	.LFB10:
 342:Source\mbedtls_open\library/sha512.c **** #endif
 343:Source\mbedtls_open\library/sha512.c **** 
 344:Source\mbedtls_open\library/sha512.c **** /*
 345:Source\mbedtls_open\library/sha512.c ****  * SHA-512 final digest
 346:Source\mbedtls_open\library/sha512.c ****  */
 347:Source\mbedtls_open\library/sha512.c **** int mbedtls_sha512_finish_ret( mbedtls_sha512_context *ctx,
 348:Source\mbedtls_open\library/sha512.c ****                                unsigned char output[64] )
 349:Source\mbedtls_open\library/sha512.c **** {
 2277              		.loc 1 349 0
 2278              		.cfi_startproc
 2279              		@ args = 0, pretend = 0, frame = 0
 2280              		@ frame_needed = 0, uses_anonymous_args = 0
 2281              	.LVL145:
 2282 0000 F8B5     		push	{r3, r4, r5, r6, r7, lr}
 2283              		.cfi_def_cfa_offset 24
 2284              		.cfi_offset 3, -24
 2285              		.cfi_offset 4, -20
 2286              		.cfi_offset 5, -16
 2287              		.cfi_offset 6, -12
 2288              		.cfi_offset 7, -8
 2289              		.cfi_offset 14, -4
 2290 0002 0400     		movs	r4, r0
 2291 0004 0D00     		movs	r5, r1
 350:Source\mbedtls_open\library/sha512.c ****     int ret;
 351:Source\mbedtls_open\library/sha512.c ****     unsigned used;
 352:Source\mbedtls_open\library/sha512.c ****     uint64_t high, low;
 353:Source\mbedtls_open\library/sha512.c **** 
 354:Source\mbedtls_open\library/sha512.c ****     /*
 355:Source\mbedtls_open\library/sha512.c ****      * Add padding: 0x80 then 0x00 until 16 bytes remain for the length
 356:Source\mbedtls_open\library/sha512.c ****      */
 357:Source\mbedtls_open\library/sha512.c ****     used = ctx->total[0] & 0x7F;
 2292              		.loc 1 357 0
 2293 0006 7F23     		movs	r3, #127
 2294 0008 0268     		ldr	r2, [r0]
 2295 000a 1340     		ands	r3, r2
 2296              	.LVL146:
 358:Source\mbedtls_open\library/sha512.c **** 
 359:Source\mbedtls_open\library/sha512.c ****     ctx->buffer[used++] = 0x80;
 2297              		.loc 1 359 0
 2298 000c 581C     		adds	r0, r3, #1
 2299              	.LVL147:
 2300 000e E318     		adds	r3, r4, r3
 2301 0010 5033     		adds	r3, r3, #80
 2302 0012 8022     		movs	r2, #128
 2303 0014 1A70     		strb	r2, [r3]
 360:Source\mbedtls_open\library/sha512.c **** 
 361:Source\mbedtls_open\library/sha512.c ****     if( used <= 112 )
ARM GAS  C:\Users\Phuong\AppData\Local\Temp\ccCGJz1B.s 			page 48


 2304              		.loc 1 361 0
 2305 0016 7028     		cmp	r0, #112
 2306 0018 08D8     		bhi	.L39
 362:Source\mbedtls_open\library/sha512.c ****     {
 363:Source\mbedtls_open\library/sha512.c ****         /* Enough room for padding + length in current block */
 364:Source\mbedtls_open\library/sha512.c ****         memset( ctx->buffer + used, 0, 112 - used );
 2307              		.loc 1 364 0
 2308 001a 2300     		movs	r3, r4
 2309 001c 5033     		adds	r3, r3, #80
 2310 001e 103A     		subs	r2, r2, #16
 2311 0020 121A     		subs	r2, r2, r0
 2312 0022 1818     		adds	r0, r3, r0
 2313              	.LVL148:
 2314 0024 0021     		movs	r1, #0
 2315              	.LVL149:
 2316 0026 FFF7FEFF 		bl	memset
 2317              	.LVL150:
 2318 002a 13E0     		b	.L40
 2319              	.LVL151:
 2320              	.L39:
 365:Source\mbedtls_open\library/sha512.c ****     }
 366:Source\mbedtls_open\library/sha512.c ****     else
 367:Source\mbedtls_open\library/sha512.c ****     {
 368:Source\mbedtls_open\library/sha512.c ****         /* We'll need an extra block */
 369:Source\mbedtls_open\library/sha512.c ****         memset( ctx->buffer + used, 0, 128 - used );
 2321              		.loc 1 369 0
 2322 002c 2600     		movs	r6, r4
 2323 002e 5036     		adds	r6, r6, #80
 2324 0030 8022     		movs	r2, #128
 2325 0032 121A     		subs	r2, r2, r0
 2326 0034 3018     		adds	r0, r6, r0
 2327              	.LVL152:
 2328 0036 0021     		movs	r1, #0
 2329              	.LVL153:
 2330 0038 FFF7FEFF 		bl	memset
 2331              	.LVL154:
 370:Source\mbedtls_open\library/sha512.c **** 
 371:Source\mbedtls_open\library/sha512.c ****         if( ( ret = mbedtls_internal_sha512_process( ctx, ctx->buffer ) ) != 0 )
 2332              		.loc 1 371 0
 2333 003c 3100     		movs	r1, r6
 2334 003e 2000     		movs	r0, r4
 2335 0040 FFF7FEFF 		bl	mbedtls_internal_sha512_process
 2336              	.LVL155:
 2337 0044 0028     		cmp	r0, #0
 2338 0046 00D0     		beq	.LCB2139
 2339 0048 0CE1     		b	.L41	@long jump
 2340              	.LCB2139:
 372:Source\mbedtls_open\library/sha512.c ****             return( ret );
 373:Source\mbedtls_open\library/sha512.c **** 
 374:Source\mbedtls_open\library/sha512.c ****         memset( ctx->buffer, 0, 112 );
 2341              		.loc 1 374 0
 2342 004a 7022     		movs	r2, #112
 2343 004c 0021     		movs	r1, #0
 2344 004e 3000     		movs	r0, r6
 2345              	.LVL156:
 2346 0050 FFF7FEFF 		bl	memset
 2347              	.LVL157:
ARM GAS  C:\Users\Phuong\AppData\Local\Temp\ccCGJz1B.s 			page 49


 2348              	.L40:
 375:Source\mbedtls_open\library/sha512.c ****     }
 376:Source\mbedtls_open\library/sha512.c **** 
 377:Source\mbedtls_open\library/sha512.c ****     /*
 378:Source\mbedtls_open\library/sha512.c ****      * Add message length
 379:Source\mbedtls_open\library/sha512.c ****      */
 380:Source\mbedtls_open\library/sha512.c ****     high = ( ctx->total[0] >> 61 )
 2349              		.loc 1 380 0
 2350 0054 2668     		ldr	r6, [r4]
 2351 0056 6368     		ldr	r3, [r4, #4]
 2352 0058 5A0F     		lsrs	r2, r3, #29
 381:Source\mbedtls_open\library/sha512.c ****          | ( ctx->total[1] <<  3 );
 2353              		.loc 1 381 0
 2354 005a A068     		ldr	r0, [r4, #8]
 2355 005c 470F     		lsrs	r7, r0, #29
 2356 005e E168     		ldr	r1, [r4, #12]
 2357 0060 C900     		lsls	r1, r1, #3
 2358 0062 3943     		orrs	r1, r7
 2359 0064 C000     		lsls	r0, r0, #3
 380:Source\mbedtls_open\library/sha512.c ****          | ( ctx->total[1] <<  3 );
 2360              		.loc 1 380 0
 2361 0066 0243     		orrs	r2, r0
 2362              	.LVL158:
 382:Source\mbedtls_open\library/sha512.c ****     low  = ( ctx->total[0] <<  3 );
 2363              		.loc 1 382 0
 2364 0068 700F     		lsrs	r0, r6, #29
 2365 006a DB00     		lsls	r3, r3, #3
 2366 006c 0343     		orrs	r3, r0
 2367 006e F600     		lsls	r6, r6, #3
 2368              	.LVL159:
 383:Source\mbedtls_open\library/sha512.c **** 
 384:Source\mbedtls_open\library/sha512.c ****     PUT_UINT64_BE( high, ctx->buffer, 112 );
 2369              		.loc 1 384 0
 2370 0070 0F0E     		lsrs	r7, r1, #24
 2371 0072 C020     		movs	r0, #192
 2372 0074 2754     		strb	r7, [r4, r0]
 2373 0076 0F0C     		lsrs	r7, r1, #16
 2374 0078 0130     		adds	r0, r0, #1
 2375 007a 2754     		strb	r7, [r4, r0]
 2376 007c 0F0A     		lsrs	r7, r1, #8
 2377 007e 0130     		adds	r0, r0, #1
 2378 0080 2754     		strb	r7, [r4, r0]
 2379 0082 0130     		adds	r0, r0, #1
 2380 0084 2154     		strb	r1, [r4, r0]
 2381 0086 100E     		lsrs	r0, r2, #24
 2382 0088 C421     		movs	r1, #196
 2383              	.LVL160:
 2384 008a 6054     		strb	r0, [r4, r1]
 2385 008c 100C     		lsrs	r0, r2, #16
 2386 008e 0131     		adds	r1, r1, #1
 2387 0090 6054     		strb	r0, [r4, r1]
 2388 0092 100A     		lsrs	r0, r2, #8
 2389 0094 0131     		adds	r1, r1, #1
 2390 0096 6054     		strb	r0, [r4, r1]
 2391 0098 0131     		adds	r1, r1, #1
 2392 009a 6254     		strb	r2, [r4, r1]
 385:Source\mbedtls_open\library/sha512.c ****     PUT_UINT64_BE( low,  ctx->buffer, 120 );
ARM GAS  C:\Users\Phuong\AppData\Local\Temp\ccCGJz1B.s 			page 50


 2393              		.loc 1 385 0
 2394 009c 190E     		lsrs	r1, r3, #24
 2395 009e C822     		movs	r2, #200
 2396 00a0 A154     		strb	r1, [r4, r2]
 2397 00a2 190C     		lsrs	r1, r3, #16
 2398 00a4 0132     		adds	r2, r2, #1
 2399 00a6 A154     		strb	r1, [r4, r2]
 2400 00a8 190A     		lsrs	r1, r3, #8
 2401 00aa 0132     		adds	r2, r2, #1
 2402 00ac A154     		strb	r1, [r4, r2]
 2403 00ae 0132     		adds	r2, r2, #1
 2404 00b0 A354     		strb	r3, [r4, r2]
 2405 00b2 320E     		lsrs	r2, r6, #24
 2406 00b4 CC23     		movs	r3, #204
 2407              	.LVL161:
 2408 00b6 E254     		strb	r2, [r4, r3]
 2409 00b8 320C     		lsrs	r2, r6, #16
 2410 00ba 0133     		adds	r3, r3, #1
 2411 00bc E254     		strb	r2, [r4, r3]
 2412 00be 320A     		lsrs	r2, r6, #8
 2413 00c0 0133     		adds	r3, r3, #1
 2414 00c2 E254     		strb	r2, [r4, r3]
 2415 00c4 0133     		adds	r3, r3, #1
 2416 00c6 E654     		strb	r6, [r4, r3]
 386:Source\mbedtls_open\library/sha512.c **** 
 387:Source\mbedtls_open\library/sha512.c ****     if( ( ret = mbedtls_internal_sha512_process( ctx, ctx->buffer ) ) != 0 )
 2417              		.loc 1 387 0
 2418 00c8 2100     		movs	r1, r4
 2419 00ca 5031     		adds	r1, r1, #80
 2420 00cc 2000     		movs	r0, r4
 2421 00ce FFF7FEFF 		bl	mbedtls_internal_sha512_process
 2422              	.LVL162:
 2423 00d2 0028     		cmp	r0, #0
 2424 00d4 00D0     		beq	.LCB2250
 2425 00d6 C5E0     		b	.L41	@long jump
 2426              	.LCB2250:
 388:Source\mbedtls_open\library/sha512.c ****         return( ret );
 389:Source\mbedtls_open\library/sha512.c **** 
 390:Source\mbedtls_open\library/sha512.c ****     /*
 391:Source\mbedtls_open\library/sha512.c ****      * Output final state
 392:Source\mbedtls_open\library/sha512.c ****      */
 393:Source\mbedtls_open\library/sha512.c ****     PUT_UINT64_BE( ctx->state[0], output,  0 );
 2427              		.loc 1 393 0
 2428 00d8 E37D     		ldrb	r3, [r4, #23]
 2429 00da 2B70     		strb	r3, [r5]
 2430 00dc A37D     		ldrb	r3, [r4, #22]
 2431 00de 6B70     		strb	r3, [r5, #1]
 2432 00e0 6369     		ldr	r3, [r4, #20]
 2433 00e2 1B0A     		lsrs	r3, r3, #8
 2434 00e4 AB70     		strb	r3, [r5, #2]
 2435 00e6 237D     		ldrb	r3, [r4, #20]
 2436 00e8 EB70     		strb	r3, [r5, #3]
 2437 00ea E37C     		ldrb	r3, [r4, #19]
 2438 00ec 2B71     		strb	r3, [r5, #4]
 2439 00ee A37C     		ldrb	r3, [r4, #18]
 2440 00f0 6B71     		strb	r3, [r5, #5]
 2441 00f2 2369     		ldr	r3, [r4, #16]
ARM GAS  C:\Users\Phuong\AppData\Local\Temp\ccCGJz1B.s 			page 51


 2442 00f4 1B0A     		lsrs	r3, r3, #8
 2443 00f6 AB71     		strb	r3, [r5, #6]
 2444 00f8 237C     		ldrb	r3, [r4, #16]
 2445 00fa EB71     		strb	r3, [r5, #7]
 394:Source\mbedtls_open\library/sha512.c ****     PUT_UINT64_BE( ctx->state[1], output,  8 );
 2446              		.loc 1 394 0
 2447 00fc E37F     		ldrb	r3, [r4, #31]
 2448 00fe 2B72     		strb	r3, [r5, #8]
 2449 0100 A37F     		ldrb	r3, [r4, #30]
 2450 0102 6B72     		strb	r3, [r5, #9]
 2451 0104 E369     		ldr	r3, [r4, #28]
 2452 0106 1B0A     		lsrs	r3, r3, #8
 2453 0108 AB72     		strb	r3, [r5, #10]
 2454 010a 237F     		ldrb	r3, [r4, #28]
 2455 010c EB72     		strb	r3, [r5, #11]
 2456 010e E37E     		ldrb	r3, [r4, #27]
 2457 0110 2B73     		strb	r3, [r5, #12]
 2458 0112 A37E     		ldrb	r3, [r4, #26]
 2459 0114 6B73     		strb	r3, [r5, #13]
 2460 0116 A369     		ldr	r3, [r4, #24]
 2461 0118 1B0A     		lsrs	r3, r3, #8
 2462 011a AB73     		strb	r3, [r5, #14]
 2463 011c 237E     		ldrb	r3, [r4, #24]
 2464 011e EB73     		strb	r3, [r5, #15]
 395:Source\mbedtls_open\library/sha512.c ****     PUT_UINT64_BE( ctx->state[2], output, 16 );
 2465              		.loc 1 395 0
 2466 0120 636A     		ldr	r3, [r4, #36]
 2467 0122 1B0E     		lsrs	r3, r3, #24
 2468 0124 2B74     		strb	r3, [r5, #16]
 2469 0126 E38C     		ldrh	r3, [r4, #38]
 2470 0128 6B74     		strb	r3, [r5, #17]
 2471 012a 636A     		ldr	r3, [r4, #36]
 2472 012c 1B0A     		lsrs	r3, r3, #8
 2473 012e AB74     		strb	r3, [r5, #18]
 2474 0130 636A     		ldr	r3, [r4, #36]
 2475 0132 EB74     		strb	r3, [r5, #19]
 2476 0134 236A     		ldr	r3, [r4, #32]
 2477 0136 1B0E     		lsrs	r3, r3, #24
 2478 0138 2B75     		strb	r3, [r5, #20]
 2479 013a 638C     		ldrh	r3, [r4, #34]
 2480 013c 6B75     		strb	r3, [r5, #21]
 2481 013e 236A     		ldr	r3, [r4, #32]
 2482 0140 1B0A     		lsrs	r3, r3, #8
 2483 0142 AB75     		strb	r3, [r5, #22]
 2484 0144 236A     		ldr	r3, [r4, #32]
 2485 0146 EB75     		strb	r3, [r5, #23]
 396:Source\mbedtls_open\library/sha512.c ****     PUT_UINT64_BE( ctx->state[3], output, 24 );
 2486              		.loc 1 396 0
 2487 0148 E36A     		ldr	r3, [r4, #44]
 2488 014a 1B0E     		lsrs	r3, r3, #24
 2489 014c 2B76     		strb	r3, [r5, #24]
 2490 014e E38D     		ldrh	r3, [r4, #46]
 2491 0150 6B76     		strb	r3, [r5, #25]
 2492 0152 E36A     		ldr	r3, [r4, #44]
 2493 0154 1B0A     		lsrs	r3, r3, #8
 2494 0156 AB76     		strb	r3, [r5, #26]
 2495 0158 E36A     		ldr	r3, [r4, #44]
ARM GAS  C:\Users\Phuong\AppData\Local\Temp\ccCGJz1B.s 			page 52


 2496 015a EB76     		strb	r3, [r5, #27]
 2497 015c A36A     		ldr	r3, [r4, #40]
 2498 015e 1B0E     		lsrs	r3, r3, #24
 2499 0160 2B77     		strb	r3, [r5, #28]
 2500 0162 638D     		ldrh	r3, [r4, #42]
 2501 0164 6B77     		strb	r3, [r5, #29]
 2502 0166 A36A     		ldr	r3, [r4, #40]
 2503 0168 1B0A     		lsrs	r3, r3, #8
 2504 016a AB77     		strb	r3, [r5, #30]
 2505 016c A36A     		ldr	r3, [r4, #40]
 2506 016e EB77     		strb	r3, [r5, #31]
 397:Source\mbedtls_open\library/sha512.c ****     PUT_UINT64_BE( ctx->state[4], output, 32 );
 2507              		.loc 1 397 0
 2508 0170 636B     		ldr	r3, [r4, #52]
 2509 0172 1B0E     		lsrs	r3, r3, #24
 2510 0174 2022     		movs	r2, #32
 2511 0176 AB54     		strb	r3, [r5, r2]
 2512 0178 E28E     		ldrh	r2, [r4, #54]
 2513 017a 2123     		movs	r3, #33
 2514 017c EA54     		strb	r2, [r5, r3]
 2515 017e 636B     		ldr	r3, [r4, #52]
 2516 0180 1B0A     		lsrs	r3, r3, #8
 2517 0182 2222     		movs	r2, #34
 2518 0184 AB54     		strb	r3, [r5, r2]
 2519 0186 2323     		movs	r3, #35
 2520 0188 626B     		ldr	r2, [r4, #52]
 2521 018a EA54     		strb	r2, [r5, r3]
 2522 018c 236B     		ldr	r3, [r4, #48]
 2523 018e 1B0E     		lsrs	r3, r3, #24
 2524 0190 2422     		movs	r2, #36
 2525 0192 AB54     		strb	r3, [r5, r2]
 2526 0194 628E     		ldrh	r2, [r4, #50]
 2527 0196 2523     		movs	r3, #37
 2528 0198 EA54     		strb	r2, [r5, r3]
 2529 019a 236B     		ldr	r3, [r4, #48]
 2530 019c 1B0A     		lsrs	r3, r3, #8
 2531 019e 2622     		movs	r2, #38
 2532 01a0 AB54     		strb	r3, [r5, r2]
 2533 01a2 2723     		movs	r3, #39
 2534 01a4 226B     		ldr	r2, [r4, #48]
 2535 01a6 EA54     		strb	r2, [r5, r3]
 398:Source\mbedtls_open\library/sha512.c ****     PUT_UINT64_BE( ctx->state[5], output, 40 );
 2536              		.loc 1 398 0
 2537 01a8 E36B     		ldr	r3, [r4, #60]
 2538 01aa 1B0E     		lsrs	r3, r3, #24
 2539 01ac 2822     		movs	r2, #40
 2540 01ae AB54     		strb	r3, [r5, r2]
 2541 01b0 E28F     		ldrh	r2, [r4, #62]
 2542 01b2 2923     		movs	r3, #41
 2543 01b4 EA54     		strb	r2, [r5, r3]
 2544 01b6 E36B     		ldr	r3, [r4, #60]
 2545 01b8 1B0A     		lsrs	r3, r3, #8
 2546 01ba 2A22     		movs	r2, #42
 2547 01bc AB54     		strb	r3, [r5, r2]
 2548 01be 2B23     		movs	r3, #43
 2549 01c0 E26B     		ldr	r2, [r4, #60]
 2550 01c2 EA54     		strb	r2, [r5, r3]
ARM GAS  C:\Users\Phuong\AppData\Local\Temp\ccCGJz1B.s 			page 53


 2551 01c4 A36B     		ldr	r3, [r4, #56]
 2552 01c6 1B0E     		lsrs	r3, r3, #24
 2553 01c8 2C22     		movs	r2, #44
 2554 01ca AB54     		strb	r3, [r5, r2]
 2555 01cc 628F     		ldrh	r2, [r4, #58]
 2556 01ce 2D23     		movs	r3, #45
 2557 01d0 EA54     		strb	r2, [r5, r3]
 2558 01d2 A36B     		ldr	r3, [r4, #56]
 2559 01d4 1B0A     		lsrs	r3, r3, #8
 2560 01d6 2E22     		movs	r2, #46
 2561 01d8 AB54     		strb	r3, [r5, r2]
 2562 01da 2F23     		movs	r3, #47
 2563 01dc A26B     		ldr	r2, [r4, #56]
 2564 01de EA54     		strb	r2, [r5, r3]
 399:Source\mbedtls_open\library/sha512.c **** 
 400:Source\mbedtls_open\library/sha512.c ****     if( ctx->is384 == 0 )
 2565              		.loc 1 400 0
 2566 01e0 A133     		adds	r3, r3, #161
 2567 01e2 E058     		ldr	r0, [r4, r3]
 2568              	.LVL163:
 2569 01e4 0028     		cmp	r0, #0
 2570 01e6 3CD1     		bne	.L44
 401:Source\mbedtls_open\library/sha512.c ****     {
 402:Source\mbedtls_open\library/sha512.c ****         PUT_UINT64_BE( ctx->state[6], output, 48 );
 2571              		.loc 1 402 0
 2572 01e8 636C     		ldr	r3, [r4, #68]
 2573 01ea 1B0E     		lsrs	r3, r3, #24
 2574 01ec 3022     		movs	r2, #48
 2575 01ee AB54     		strb	r3, [r5, r2]
 2576 01f0 636C     		ldr	r3, [r4, #68]
 2577 01f2 1B0C     		lsrs	r3, r3, #16
 2578 01f4 0132     		adds	r2, r2, #1
 2579 01f6 AB54     		strb	r3, [r5, r2]
 2580 01f8 636C     		ldr	r3, [r4, #68]
 2581 01fa 1B0A     		lsrs	r3, r3, #8
 2582 01fc 0132     		adds	r2, r2, #1
 2583 01fe AB54     		strb	r3, [r5, r2]
 2584 0200 3323     		movs	r3, #51
 2585 0202 626C     		ldr	r2, [r4, #68]
 2586 0204 EA54     		strb	r2, [r5, r3]
 2587 0206 236C     		ldr	r3, [r4, #64]
 2588 0208 1B0E     		lsrs	r3, r3, #24
 2589 020a 3422     		movs	r2, #52
 2590 020c AB54     		strb	r3, [r5, r2]
 2591 020e 236C     		ldr	r3, [r4, #64]
 2592 0210 1B0C     		lsrs	r3, r3, #16
 2593 0212 0132     		adds	r2, r2, #1
 2594 0214 AB54     		strb	r3, [r5, r2]
 2595 0216 236C     		ldr	r3, [r4, #64]
 2596 0218 1B0A     		lsrs	r3, r3, #8
 2597 021a 0132     		adds	r2, r2, #1
 2598 021c AB54     		strb	r3, [r5, r2]
 2599 021e 3723     		movs	r3, #55
 2600 0220 226C     		ldr	r2, [r4, #64]
 2601 0222 EA54     		strb	r2, [r5, r3]
 403:Source\mbedtls_open\library/sha512.c ****         PUT_UINT64_BE( ctx->state[7], output, 56 );
 2602              		.loc 1 403 0
ARM GAS  C:\Users\Phuong\AppData\Local\Temp\ccCGJz1B.s 			page 54


 2603 0224 E36C     		ldr	r3, [r4, #76]
 2604 0226 1B0E     		lsrs	r3, r3, #24
 2605 0228 3822     		movs	r2, #56
 2606 022a AB54     		strb	r3, [r5, r2]
 2607 022c E36C     		ldr	r3, [r4, #76]
 2608 022e 1B0C     		lsrs	r3, r3, #16
 2609 0230 0132     		adds	r2, r2, #1
 2610 0232 AB54     		strb	r3, [r5, r2]
 2611 0234 E36C     		ldr	r3, [r4, #76]
 2612 0236 1B0A     		lsrs	r3, r3, #8
 2613 0238 0132     		adds	r2, r2, #1
 2614 023a AB54     		strb	r3, [r5, r2]
 2615 023c 3B23     		movs	r3, #59
 2616 023e E26C     		ldr	r2, [r4, #76]
 2617 0240 EA54     		strb	r2, [r5, r3]
 2618 0242 A36C     		ldr	r3, [r4, #72]
 2619 0244 1B0E     		lsrs	r3, r3, #24
 2620 0246 3C22     		movs	r2, #60
 2621 0248 AB54     		strb	r3, [r5, r2]
 2622 024a A36C     		ldr	r3, [r4, #72]
 2623 024c 1B0C     		lsrs	r3, r3, #16
 2624 024e 0132     		adds	r2, r2, #1
 2625 0250 AB54     		strb	r3, [r5, r2]
 2626 0252 A36C     		ldr	r3, [r4, #72]
 2627 0254 1B0A     		lsrs	r3, r3, #8
 2628 0256 0132     		adds	r2, r2, #1
 2629 0258 AB54     		strb	r3, [r5, r2]
 2630 025a A26C     		ldr	r2, [r4, #72]
 2631 025c 3F23     		movs	r3, #63
 2632 025e EA54     		strb	r2, [r5, r3]
 2633 0260 00E0     		b	.L41
 2634              	.L44:
 404:Source\mbedtls_open\library/sha512.c ****     }
 405:Source\mbedtls_open\library/sha512.c **** 
 406:Source\mbedtls_open\library/sha512.c ****     return( 0 );
 2635              		.loc 1 406 0
 2636 0262 0020     		movs	r0, #0
 2637              	.L41:
 407:Source\mbedtls_open\library/sha512.c **** }
 2638              		.loc 1 407 0
 2639              		@ sp needed
 2640              	.LVL164:
 2641              	.LVL165:
 2642 0264 F8BD     		pop	{r3, r4, r5, r6, r7, pc}
 2643              		.cfi_endproc
 2644              	.LFE10:
 2645              		.size	mbedtls_sha512_finish_ret, .-mbedtls_sha512_finish_ret
 2646 0266 C046     		.section	.text.mbedtls_sha512_finish,"ax",%progbits
 2647              		.align	2
 2648              		.global	mbedtls_sha512_finish
 2649              		.code	16
 2650              		.thumb_func
 2651              		.type	mbedtls_sha512_finish, %function
 2652              	mbedtls_sha512_finish:
 2653              	.LFB11:
 408:Source\mbedtls_open\library/sha512.c **** 
 409:Source\mbedtls_open\library/sha512.c **** #if !defined(MBEDTLS_DEPRECATED_REMOVED)
ARM GAS  C:\Users\Phuong\AppData\Local\Temp\ccCGJz1B.s 			page 55


 410:Source\mbedtls_open\library/sha512.c **** void mbedtls_sha512_finish( mbedtls_sha512_context *ctx,
 411:Source\mbedtls_open\library/sha512.c ****                             unsigned char output[64] )
 412:Source\mbedtls_open\library/sha512.c **** {
 2654              		.loc 1 412 0
 2655              		.cfi_startproc
 2656              		@ args = 0, pretend = 0, frame = 0
 2657              		@ frame_needed = 0, uses_anonymous_args = 0
 2658              	.LVL166:
 2659 0000 10B5     		push	{r4, lr}
 2660              		.cfi_def_cfa_offset 8
 2661              		.cfi_offset 4, -8
 2662              		.cfi_offset 14, -4
 413:Source\mbedtls_open\library/sha512.c ****     mbedtls_sha512_finish_ret( ctx, output );
 2663              		.loc 1 413 0
 2664 0002 FFF7FEFF 		bl	mbedtls_sha512_finish_ret
 2665              	.LVL167:
 414:Source\mbedtls_open\library/sha512.c **** }
 2666              		.loc 1 414 0
 2667              		@ sp needed
 2668 0006 10BD     		pop	{r4, pc}
 2669              		.cfi_endproc
 2670              	.LFE11:
 2671              		.size	mbedtls_sha512_finish, .-mbedtls_sha512_finish
 2672              		.section	.text.mbedtls_sha512_ret,"ax",%progbits
 2673              		.align	2
 2674              		.global	mbedtls_sha512_ret
 2675              		.code	16
 2676              		.thumb_func
 2677              		.type	mbedtls_sha512_ret, %function
 2678              	mbedtls_sha512_ret:
 2679              	.LFB12:
 415:Source\mbedtls_open\library/sha512.c **** #endif
 416:Source\mbedtls_open\library/sha512.c **** 
 417:Source\mbedtls_open\library/sha512.c **** #endif /* !MBEDTLS_SHA512_ALT */
 418:Source\mbedtls_open\library/sha512.c **** 
 419:Source\mbedtls_open\library/sha512.c **** /*
 420:Source\mbedtls_open\library/sha512.c ****  * output = SHA-512( input buffer )
 421:Source\mbedtls_open\library/sha512.c ****  */
 422:Source\mbedtls_open\library/sha512.c **** int mbedtls_sha512_ret( const unsigned char *input,
 423:Source\mbedtls_open\library/sha512.c ****                     size_t ilen,
 424:Source\mbedtls_open\library/sha512.c ****                     unsigned char output[64],
 425:Source\mbedtls_open\library/sha512.c ****                     int is384 )
 426:Source\mbedtls_open\library/sha512.c **** {
 2680              		.loc 1 426 0
 2681              		.cfi_startproc
 2682              		@ args = 0, pretend = 0, frame = 216
 2683              		@ frame_needed = 0, uses_anonymous_args = 0
 2684              	.LVL168:
 2685 0000 F0B5     		push	{r4, r5, r6, r7, lr}
 2686              		.cfi_def_cfa_offset 20
 2687              		.cfi_offset 4, -20
 2688              		.cfi_offset 5, -16
 2689              		.cfi_offset 6, -12
 2690              		.cfi_offset 7, -8
 2691              		.cfi_offset 14, -4
 2692 0002 B7B0     		sub	sp, sp, #220
 2693              		.cfi_def_cfa_offset 240
ARM GAS  C:\Users\Phuong\AppData\Local\Temp\ccCGJz1B.s 			page 56


 2694 0004 0500     		movs	r5, r0
 2695 0006 0E00     		movs	r6, r1
 2696 0008 1700     		movs	r7, r2
 2697 000a 1C00     		movs	r4, r3
 427:Source\mbedtls_open\library/sha512.c ****     int ret;
 428:Source\mbedtls_open\library/sha512.c ****     mbedtls_sha512_context ctx;
 429:Source\mbedtls_open\library/sha512.c **** 
 430:Source\mbedtls_open\library/sha512.c ****     mbedtls_sha512_init( &ctx );
 2698              		.loc 1 430 0
 2699 000c 6846     		mov	r0, sp
 2700              	.LVL169:
 2701 000e FFF7FEFF 		bl	mbedtls_sha512_init
 2702              	.LVL170:
 431:Source\mbedtls_open\library/sha512.c **** 
 432:Source\mbedtls_open\library/sha512.c ****     if( ( ret = mbedtls_sha512_starts_ret( &ctx, is384 ) ) != 0 )
 2703              		.loc 1 432 0
 2704 0012 2100     		movs	r1, r4
 2705 0014 6846     		mov	r0, sp
 2706 0016 FFF7FEFF 		bl	mbedtls_sha512_starts_ret
 2707              	.LVL171:
 2708 001a 041E     		subs	r4, r0, #0
 2709              	.LVL172:
 2710 001c 0BD1     		bne	.L47
 433:Source\mbedtls_open\library/sha512.c ****         goto exit;
 434:Source\mbedtls_open\library/sha512.c **** 
 435:Source\mbedtls_open\library/sha512.c ****     if( ( ret = mbedtls_sha512_update_ret( &ctx, input, ilen ) ) != 0 )
 2711              		.loc 1 435 0
 2712 001e 3200     		movs	r2, r6
 2713 0020 2900     		movs	r1, r5
 2714 0022 6846     		mov	r0, sp
 2715              	.LVL173:
 2716 0024 FFF7FEFF 		bl	mbedtls_sha512_update_ret
 2717              	.LVL174:
 2718 0028 041E     		subs	r4, r0, #0
 2719              	.LVL175:
 2720 002a 04D1     		bne	.L47
 436:Source\mbedtls_open\library/sha512.c ****         goto exit;
 437:Source\mbedtls_open\library/sha512.c **** 
 438:Source\mbedtls_open\library/sha512.c ****     if( ( ret = mbedtls_sha512_finish_ret( &ctx, output ) ) != 0 )
 2721              		.loc 1 438 0
 2722 002c 3900     		movs	r1, r7
 2723 002e 6846     		mov	r0, sp
 2724              	.LVL176:
 2725 0030 FFF7FEFF 		bl	mbedtls_sha512_finish_ret
 2726              	.LVL177:
 2727 0034 0400     		movs	r4, r0
 2728              	.LVL178:
 2729              	.L47:
 439:Source\mbedtls_open\library/sha512.c ****         goto exit;
 440:Source\mbedtls_open\library/sha512.c **** 
 441:Source\mbedtls_open\library/sha512.c **** exit:
 442:Source\mbedtls_open\library/sha512.c ****     mbedtls_sha512_free( &ctx );
 2730              		.loc 1 442 0
 2731 0036 6846     		mov	r0, sp
 2732              	.LVL179:
 2733 0038 FFF7FEFF 		bl	mbedtls_sha512_free
 2734              	.LVL180:
ARM GAS  C:\Users\Phuong\AppData\Local\Temp\ccCGJz1B.s 			page 57


 443:Source\mbedtls_open\library/sha512.c **** 
 444:Source\mbedtls_open\library/sha512.c ****     return( ret );
 445:Source\mbedtls_open\library/sha512.c **** }
 2735              		.loc 1 445 0
 2736 003c 2000     		movs	r0, r4
 2737 003e 37B0     		add	sp, sp, #220
 2738              		@ sp needed
 2739              	.LVL181:
 2740              	.LVL182:
 2741              	.LVL183:
 2742              	.LVL184:
 2743 0040 F0BD     		pop	{r4, r5, r6, r7, pc}
 2744              		.cfi_endproc
 2745              	.LFE12:
 2746              		.size	mbedtls_sha512_ret, .-mbedtls_sha512_ret
 2747 0042 C046     		.section	.text.mbedtls_sha512,"ax",%progbits
 2748              		.align	2
 2749              		.global	mbedtls_sha512
 2750              		.code	16
 2751              		.thumb_func
 2752              		.type	mbedtls_sha512, %function
 2753              	mbedtls_sha512:
 2754              	.LFB13:
 446:Source\mbedtls_open\library/sha512.c **** 
 447:Source\mbedtls_open\library/sha512.c **** #if !defined(MBEDTLS_DEPRECATED_REMOVED)
 448:Source\mbedtls_open\library/sha512.c **** void mbedtls_sha512( const unsigned char *input,
 449:Source\mbedtls_open\library/sha512.c ****                      size_t ilen,
 450:Source\mbedtls_open\library/sha512.c ****                      unsigned char output[64],
 451:Source\mbedtls_open\library/sha512.c ****                      int is384 )
 452:Source\mbedtls_open\library/sha512.c **** {
 2755              		.loc 1 452 0
 2756              		.cfi_startproc
 2757              		@ args = 0, pretend = 0, frame = 0
 2758              		@ frame_needed = 0, uses_anonymous_args = 0
 2759              	.LVL185:
 2760 0000 10B5     		push	{r4, lr}
 2761              		.cfi_def_cfa_offset 8
 2762              		.cfi_offset 4, -8
 2763              		.cfi_offset 14, -4
 453:Source\mbedtls_open\library/sha512.c ****     mbedtls_sha512_ret( input, ilen, output, is384 );
 2764              		.loc 1 453 0
 2765 0002 FFF7FEFF 		bl	mbedtls_sha512_ret
 2766              	.LVL186:
 454:Source\mbedtls_open\library/sha512.c **** }
 2767              		.loc 1 454 0
 2768              		@ sp needed
 2769 0006 10BD     		pop	{r4, pc}
 2770              		.cfi_endproc
 2771              	.LFE13:
 2772              		.size	mbedtls_sha512, .-mbedtls_sha512
 2773              		.global	__aeabi_idivmod
 2774              		.section	.text.mbedtls_sha512_self_test,"ax",%progbits
 2775              		.align	2
 2776              		.global	mbedtls_sha512_self_test
 2777              		.code	16
 2778              		.thumb_func
 2779              		.type	mbedtls_sha512_self_test, %function
ARM GAS  C:\Users\Phuong\AppData\Local\Temp\ccCGJz1B.s 			page 58


 2780              	mbedtls_sha512_self_test:
 2781              	.LFB14:
 455:Source\mbedtls_open\library/sha512.c **** #endif
 456:Source\mbedtls_open\library/sha512.c **** 
 457:Source\mbedtls_open\library/sha512.c **** #if defined(MBEDTLS_SELF_TEST)
 458:Source\mbedtls_open\library/sha512.c **** 
 459:Source\mbedtls_open\library/sha512.c **** /*
 460:Source\mbedtls_open\library/sha512.c ****  * FIPS-180-2 test vectors
 461:Source\mbedtls_open\library/sha512.c ****  */
 462:Source\mbedtls_open\library/sha512.c **** static const unsigned char sha512_test_buf[3][113] =
 463:Source\mbedtls_open\library/sha512.c **** {
 464:Source\mbedtls_open\library/sha512.c ****     { "abc" },
 465:Source\mbedtls_open\library/sha512.c ****     { "abcdefghbcdefghicdefghijdefghijkefghijklfghijklmghijklmn"
 466:Source\mbedtls_open\library/sha512.c ****       "hijklmnoijklmnopjklmnopqklmnopqrlmnopqrsmnopqrstnopqrstu" },
 467:Source\mbedtls_open\library/sha512.c ****     { "" }
 468:Source\mbedtls_open\library/sha512.c **** };
 469:Source\mbedtls_open\library/sha512.c **** 
 470:Source\mbedtls_open\library/sha512.c **** static const size_t sha512_test_buflen[3] =
 471:Source\mbedtls_open\library/sha512.c **** {
 472:Source\mbedtls_open\library/sha512.c ****     3, 112, 1000
 473:Source\mbedtls_open\library/sha512.c **** };
 474:Source\mbedtls_open\library/sha512.c **** 
 475:Source\mbedtls_open\library/sha512.c **** static const unsigned char sha512_test_sum[6][64] =
 476:Source\mbedtls_open\library/sha512.c **** {
 477:Source\mbedtls_open\library/sha512.c ****     /*
 478:Source\mbedtls_open\library/sha512.c ****      * SHA-384 test vectors
 479:Source\mbedtls_open\library/sha512.c ****      */
 480:Source\mbedtls_open\library/sha512.c ****     { 0xCB, 0x00, 0x75, 0x3F, 0x45, 0xA3, 0x5E, 0x8B,
 481:Source\mbedtls_open\library/sha512.c ****       0xB5, 0xA0, 0x3D, 0x69, 0x9A, 0xC6, 0x50, 0x07,
 482:Source\mbedtls_open\library/sha512.c ****       0x27, 0x2C, 0x32, 0xAB, 0x0E, 0xDE, 0xD1, 0x63,
 483:Source\mbedtls_open\library/sha512.c ****       0x1A, 0x8B, 0x60, 0x5A, 0x43, 0xFF, 0x5B, 0xED,
 484:Source\mbedtls_open\library/sha512.c ****       0x80, 0x86, 0x07, 0x2B, 0xA1, 0xE7, 0xCC, 0x23,
 485:Source\mbedtls_open\library/sha512.c ****       0x58, 0xBA, 0xEC, 0xA1, 0x34, 0xC8, 0x25, 0xA7 },
 486:Source\mbedtls_open\library/sha512.c ****     { 0x09, 0x33, 0x0C, 0x33, 0xF7, 0x11, 0x47, 0xE8,
 487:Source\mbedtls_open\library/sha512.c ****       0x3D, 0x19, 0x2F, 0xC7, 0x82, 0xCD, 0x1B, 0x47,
 488:Source\mbedtls_open\library/sha512.c ****       0x53, 0x11, 0x1B, 0x17, 0x3B, 0x3B, 0x05, 0xD2,
 489:Source\mbedtls_open\library/sha512.c ****       0x2F, 0xA0, 0x80, 0x86, 0xE3, 0xB0, 0xF7, 0x12,
 490:Source\mbedtls_open\library/sha512.c ****       0xFC, 0xC7, 0xC7, 0x1A, 0x55, 0x7E, 0x2D, 0xB9,
 491:Source\mbedtls_open\library/sha512.c ****       0x66, 0xC3, 0xE9, 0xFA, 0x91, 0x74, 0x60, 0x39 },
 492:Source\mbedtls_open\library/sha512.c ****     { 0x9D, 0x0E, 0x18, 0x09, 0x71, 0x64, 0x74, 0xCB,
 493:Source\mbedtls_open\library/sha512.c ****       0x08, 0x6E, 0x83, 0x4E, 0x31, 0x0A, 0x4A, 0x1C,
 494:Source\mbedtls_open\library/sha512.c ****       0xED, 0x14, 0x9E, 0x9C, 0x00, 0xF2, 0x48, 0x52,
 495:Source\mbedtls_open\library/sha512.c ****       0x79, 0x72, 0xCE, 0xC5, 0x70, 0x4C, 0x2A, 0x5B,
 496:Source\mbedtls_open\library/sha512.c ****       0x07, 0xB8, 0xB3, 0xDC, 0x38, 0xEC, 0xC4, 0xEB,
 497:Source\mbedtls_open\library/sha512.c ****       0xAE, 0x97, 0xDD, 0xD8, 0x7F, 0x3D, 0x89, 0x85 },
 498:Source\mbedtls_open\library/sha512.c **** 
 499:Source\mbedtls_open\library/sha512.c ****     /*
 500:Source\mbedtls_open\library/sha512.c ****      * SHA-512 test vectors
 501:Source\mbedtls_open\library/sha512.c ****      */
 502:Source\mbedtls_open\library/sha512.c ****     { 0xDD, 0xAF, 0x35, 0xA1, 0x93, 0x61, 0x7A, 0xBA,
 503:Source\mbedtls_open\library/sha512.c ****       0xCC, 0x41, 0x73, 0x49, 0xAE, 0x20, 0x41, 0x31,
 504:Source\mbedtls_open\library/sha512.c ****       0x12, 0xE6, 0xFA, 0x4E, 0x89, 0xA9, 0x7E, 0xA2,
 505:Source\mbedtls_open\library/sha512.c ****       0x0A, 0x9E, 0xEE, 0xE6, 0x4B, 0x55, 0xD3, 0x9A,
 506:Source\mbedtls_open\library/sha512.c ****       0x21, 0x92, 0x99, 0x2A, 0x27, 0x4F, 0xC1, 0xA8,
 507:Source\mbedtls_open\library/sha512.c ****       0x36, 0xBA, 0x3C, 0x23, 0xA3, 0xFE, 0xEB, 0xBD,
 508:Source\mbedtls_open\library/sha512.c ****       0x45, 0x4D, 0x44, 0x23, 0x64, 0x3C, 0xE8, 0x0E,
 509:Source\mbedtls_open\library/sha512.c ****       0x2A, 0x9A, 0xC9, 0x4F, 0xA5, 0x4C, 0xA4, 0x9F },
ARM GAS  C:\Users\Phuong\AppData\Local\Temp\ccCGJz1B.s 			page 59


 510:Source\mbedtls_open\library/sha512.c ****     { 0x8E, 0x95, 0x9B, 0x75, 0xDA, 0xE3, 0x13, 0xDA,
 511:Source\mbedtls_open\library/sha512.c ****       0x8C, 0xF4, 0xF7, 0x28, 0x14, 0xFC, 0x14, 0x3F,
 512:Source\mbedtls_open\library/sha512.c ****       0x8F, 0x77, 0x79, 0xC6, 0xEB, 0x9F, 0x7F, 0xA1,
 513:Source\mbedtls_open\library/sha512.c ****       0x72, 0x99, 0xAE, 0xAD, 0xB6, 0x88, 0x90, 0x18,
 514:Source\mbedtls_open\library/sha512.c ****       0x50, 0x1D, 0x28, 0x9E, 0x49, 0x00, 0xF7, 0xE4,
 515:Source\mbedtls_open\library/sha512.c ****       0x33, 0x1B, 0x99, 0xDE, 0xC4, 0xB5, 0x43, 0x3A,
 516:Source\mbedtls_open\library/sha512.c ****       0xC7, 0xD3, 0x29, 0xEE, 0xB6, 0xDD, 0x26, 0x54,
 517:Source\mbedtls_open\library/sha512.c ****       0x5E, 0x96, 0xE5, 0x5B, 0x87, 0x4B, 0xE9, 0x09 },
 518:Source\mbedtls_open\library/sha512.c ****     { 0xE7, 0x18, 0x48, 0x3D, 0x0C, 0xE7, 0x69, 0x64,
 519:Source\mbedtls_open\library/sha512.c ****       0x4E, 0x2E, 0x42, 0xC7, 0xBC, 0x15, 0xB4, 0x63,
 520:Source\mbedtls_open\library/sha512.c ****       0x8E, 0x1F, 0x98, 0xB1, 0x3B, 0x20, 0x44, 0x28,
 521:Source\mbedtls_open\library/sha512.c ****       0x56, 0x32, 0xA8, 0x03, 0xAF, 0xA9, 0x73, 0xEB,
 522:Source\mbedtls_open\library/sha512.c ****       0xDE, 0x0F, 0xF2, 0x44, 0x87, 0x7E, 0xA6, 0x0A,
 523:Source\mbedtls_open\library/sha512.c ****       0x4C, 0xB0, 0x43, 0x2C, 0xE5, 0x77, 0xC3, 0x1B,
 524:Source\mbedtls_open\library/sha512.c ****       0xEB, 0x00, 0x9C, 0x5C, 0x2C, 0x49, 0xAA, 0x2E,
 525:Source\mbedtls_open\library/sha512.c ****       0x4E, 0xAD, 0xB2, 0x17, 0xAD, 0x8C, 0xC0, 0x9B }
 526:Source\mbedtls_open\library/sha512.c **** };
 527:Source\mbedtls_open\library/sha512.c **** 
 528:Source\mbedtls_open\library/sha512.c **** /*
 529:Source\mbedtls_open\library/sha512.c ****  * Checkup routine
 530:Source\mbedtls_open\library/sha512.c ****  */
 531:Source\mbedtls_open\library/sha512.c **** int mbedtls_sha512_self_test( int verbose )
 532:Source\mbedtls_open\library/sha512.c **** {
 2782              		.loc 1 532 0
 2783              		.cfi_startproc
 2784              		@ args = 0, pretend = 0, frame = 288
 2785              		@ frame_needed = 0, uses_anonymous_args = 0
 2786              	.LVL187:
 2787 0000 F0B5     		push	{r4, r5, r6, r7, lr}
 2788              		.cfi_def_cfa_offset 20
 2789              		.cfi_offset 4, -20
 2790              		.cfi_offset 5, -16
 2791              		.cfi_offset 6, -12
 2792              		.cfi_offset 7, -8
 2793              		.cfi_offset 14, -4
 2794 0002 4746     		mov	r7, r8
 2795 0004 80B4     		push	{r7}
 2796              		.cfi_def_cfa_offset 24
 2797              		.cfi_offset 8, -24
 2798 0006 C8B0     		sub	sp, sp, #288
 2799              		.cfi_def_cfa_offset 312
 2800 0008 8046     		mov	r8, r0
 2801              	.LVL188:
 533:Source\mbedtls_open\library/sha512.c ****     int i, j, k, buflen, ret = 0;
 534:Source\mbedtls_open\library/sha512.c ****     unsigned char *buf;
 535:Source\mbedtls_open\library/sha512.c ****     unsigned char sha512sum[64];
 536:Source\mbedtls_open\library/sha512.c ****     mbedtls_sha512_context ctx;
 537:Source\mbedtls_open\library/sha512.c **** 
 538:Source\mbedtls_open\library/sha512.c ****     buf = mbedtls_calloc( 1024, sizeof(unsigned char) );
 2802              		.loc 1 538 0
 2803 000a 0121     		movs	r1, #1
 2804 000c 8020     		movs	r0, #128
 2805              	.LVL189:
 2806 000e C000     		lsls	r0, r0, #3
 2807 0010 FFF7FEFF 		bl	calloc
 2808              	.LVL190:
 2809 0014 0190     		str	r0, [sp, #4]
ARM GAS  C:\Users\Phuong\AppData\Local\Temp\ccCGJz1B.s 			page 60


 2810              	.LVL191:
 539:Source\mbedtls_open\library/sha512.c ****     if( NULL == buf )
 2811              		.loc 1 539 0
 2812 0016 0028     		cmp	r0, #0
 2813 0018 08D1     		bne	.L50
 540:Source\mbedtls_open\library/sha512.c ****     {
 541:Source\mbedtls_open\library/sha512.c ****         if( verbose != 0 )
 2814              		.loc 1 541 0
 2815 001a 4346     		mov	r3, r8
 2816 001c 002B     		cmp	r3, #0
 2817 001e 00D1     		bne	.LCB2823
 2818 0020 7CE0     		b	.L62	@long jump
 2819              	.LCB2823:
 542:Source\mbedtls_open\library/sha512.c ****             mbedtls_printf( "Buffer allocation failed\n" );
 2820              		.loc 1 542 0
 2821 0022 4148     		ldr	r0, .L64
 2822              	.LVL192:
 2823 0024 FFF7FEFF 		bl	puts
 2824              	.LVL193:
 543:Source\mbedtls_open\library/sha512.c **** 
 544:Source\mbedtls_open\library/sha512.c ****         return( 1 );
 2825              		.loc 1 544 0
 2826 0028 0120     		movs	r0, #1
 2827 002a 78E0     		b	.L51
 2828              	.LVL194:
 2829              	.L50:
 545:Source\mbedtls_open\library/sha512.c ****     }
 546:Source\mbedtls_open\library/sha512.c **** 
 547:Source\mbedtls_open\library/sha512.c ****     mbedtls_sha512_init( &ctx );
 2830              		.loc 1 547 0
 2831 002c 02A8     		add	r0, sp, #8
 2832              	.LVL195:
 2833 002e FFF7FEFF 		bl	mbedtls_sha512_init
 2834              	.LVL196:
 533:Source\mbedtls_open\library/sha512.c ****     unsigned char *buf;
 2835              		.loc 1 533 0
 2836 0032 0024     		movs	r4, #0
 548:Source\mbedtls_open\library/sha512.c **** 
 549:Source\mbedtls_open\library/sha512.c ****     for( i = 0; i < 6; i++ )
 2837              		.loc 1 549 0
 2838 0034 0026     		movs	r6, #0
 2839 0036 59E0     		b	.L52
 2840              	.LVL197:
 2841              	.L60:
 550:Source\mbedtls_open\library/sha512.c ****     {
 551:Source\mbedtls_open\library/sha512.c ****         j = i % 3;
 2842              		.loc 1 551 0
 2843 0038 0321     		movs	r1, #3
 2844 003a 3000     		movs	r0, r6
 2845 003c FFF7FEFF 		bl	__aeabi_idivmod
 2846              	.LVL198:
 2847 0040 0D00     		movs	r5, r1
 2848              	.LVL199:
 552:Source\mbedtls_open\library/sha512.c ****         k = i < 3;
 2849              		.loc 1 552 0
 2850 0042 F70F     		lsrs	r7, r6, #31
 2851 0044 0023     		movs	r3, #0
ARM GAS  C:\Users\Phuong\AppData\Local\Temp\ccCGJz1B.s 			page 61


 2852 0046 0221     		movs	r1, #2
 2853              	.LVL200:
 2854 0048 B142     		cmp	r1, r6
 2855 004a 5F41     		adcs	r7, r7, r3
 2856 004c FFB2     		uxtb	r7, r7
 2857              	.LVL201:
 553:Source\mbedtls_open\library/sha512.c **** 
 554:Source\mbedtls_open\library/sha512.c ****         if( verbose != 0 )
 2858              		.loc 1 554 0
 2859 004e 4346     		mov	r3, r8
 2860 0050 002B     		cmp	r3, #0
 2861 0052 06D0     		beq	.L53
 2862              	.LVL202:
 555:Source\mbedtls_open\library/sha512.c ****             mbedtls_printf( "  SHA-%d test #%d: ", 512 - k * 128, j + 1 );
 2863              		.loc 1 555 0
 2864 0054 0231     		adds	r1, r1, #2
 2865 0056 C91B     		subs	r1, r1, r7
 2866 0058 6A1C     		adds	r2, r5, #1
 2867 005a C901     		lsls	r1, r1, #7
 2868 005c 3348     		ldr	r0, .L64+4
 2869 005e FFF7FEFF 		bl	printf
 2870              	.LVL203:
 2871              	.L53:
 556:Source\mbedtls_open\library/sha512.c **** 
 557:Source\mbedtls_open\library/sha512.c ****         if( ( ret = mbedtls_sha512_starts_ret( &ctx, k ) ) != 0 )
 2872              		.loc 1 557 0
 2873 0062 3900     		movs	r1, r7
 2874 0064 02A8     		add	r0, sp, #8
 2875 0066 FFF7FEFF 		bl	mbedtls_sha512_starts_ret
 2876              	.LVL204:
 2877 006a 041E     		subs	r4, r0, #0
 2878              	.LVL205:
 2879 006c 48D1     		bne	.L54
 558:Source\mbedtls_open\library/sha512.c ****             goto fail;
 559:Source\mbedtls_open\library/sha512.c **** 
 560:Source\mbedtls_open\library/sha512.c ****         if( j == 2 )
 2880              		.loc 1 560 0
 2881 006e 022D     		cmp	r5, #2
 2882 0070 14D1     		bne	.L55
 2883              	.LVL206:
 561:Source\mbedtls_open\library/sha512.c ****         {
 562:Source\mbedtls_open\library/sha512.c ****             memset( buf, 'a', buflen = 1000 );
 2884              		.loc 1 562 0
 2885 0072 FA22     		movs	r2, #250
 2886 0074 9200     		lsls	r2, r2, #2
 2887 0076 6121     		movs	r1, #97
 2888 0078 0198     		ldr	r0, [sp, #4]
 2889              	.LVL207:
 2890 007a FFF7FEFF 		bl	memset
 2891              	.LVL208:
 563:Source\mbedtls_open\library/sha512.c **** 
 564:Source\mbedtls_open\library/sha512.c ****             for( j = 0; j < 1000; j++ )
 2892              		.loc 1 564 0
 2893 007e 0025     		movs	r5, #0
 2894 0080 08E0     		b	.L56
 2895              	.LVL209:
 2896              	.L57:
ARM GAS  C:\Users\Phuong\AppData\Local\Temp\ccCGJz1B.s 			page 62


 565:Source\mbedtls_open\library/sha512.c ****             {
 566:Source\mbedtls_open\library/sha512.c ****                 ret = mbedtls_sha512_update_ret( &ctx, buf, buflen );
 2897              		.loc 1 566 0
 2898 0082 FA22     		movs	r2, #250
 2899 0084 9200     		lsls	r2, r2, #2
 2900 0086 0199     		ldr	r1, [sp, #4]
 2901 0088 02A8     		add	r0, sp, #8
 2902 008a FFF7FEFF 		bl	mbedtls_sha512_update_ret
 2903              	.LVL210:
 2904 008e 041E     		subs	r4, r0, #0
 2905              	.LVL211:
 567:Source\mbedtls_open\library/sha512.c ****                 if( ret != 0 )
 2906              		.loc 1 567 0
 2907 0090 36D1     		bne	.L54
 564:Source\mbedtls_open\library/sha512.c ****             {
 2908              		.loc 1 564 0 discriminator 2
 2909 0092 0135     		adds	r5, r5, #1
 2910              	.LVL212:
 2911              	.L56:
 564:Source\mbedtls_open\library/sha512.c ****             {
 2912              		.loc 1 564 0 is_stmt 0 discriminator 1
 2913 0094 264B     		ldr	r3, .L64+8
 2914 0096 9D42     		cmp	r5, r3
 2915 0098 F3DD     		ble	.L57
 2916 009a 0EE0     		b	.L58
 2917              	.LVL213:
 2918              	.L55:
 568:Source\mbedtls_open\library/sha512.c ****                     goto fail;
 569:Source\mbedtls_open\library/sha512.c ****             }
 570:Source\mbedtls_open\library/sha512.c ****         }
 571:Source\mbedtls_open\library/sha512.c ****         else
 572:Source\mbedtls_open\library/sha512.c ****         {
 573:Source\mbedtls_open\library/sha512.c ****             ret = mbedtls_sha512_update_ret( &ctx, sha512_test_buf[j],
 2919              		.loc 1 573 0 is_stmt 1
 2920 009c E900     		lsls	r1, r5, #3
 2921 009e 491B     		subs	r1, r1, r5
 2922 00a0 0901     		lsls	r1, r1, #4
 2923 00a2 4919     		adds	r1, r1, r5
 2924 00a4 234B     		ldr	r3, .L64+12
 2925 00a6 5918     		adds	r1, r3, r1
 2926 00a8 AD00     		lsls	r5, r5, #2
 2927              	.LVL214:
 2928 00aa 234B     		ldr	r3, .L64+16
 2929 00ac 5D19     		adds	r5, r3, r5
 2930 00ae 6A6D     		ldr	r2, [r5, #84]
 2931 00b0 02A8     		add	r0, sp, #8
 2932              	.LVL215:
 2933 00b2 FFF7FEFF 		bl	mbedtls_sha512_update_ret
 2934              	.LVL216:
 2935 00b6 041E     		subs	r4, r0, #0
 2936              	.LVL217:
 574:Source\mbedtls_open\library/sha512.c ****                                              sha512_test_buflen[j] );
 575:Source\mbedtls_open\library/sha512.c ****             if( ret != 0 )
 2937              		.loc 1 575 0
 2938 00b8 22D1     		bne	.L54
 2939              	.LVL218:
 2940              	.L58:
ARM GAS  C:\Users\Phuong\AppData\Local\Temp\ccCGJz1B.s 			page 63


 576:Source\mbedtls_open\library/sha512.c ****                 goto fail;
 577:Source\mbedtls_open\library/sha512.c ****         }
 578:Source\mbedtls_open\library/sha512.c **** 
 579:Source\mbedtls_open\library/sha512.c ****         if( ( ret = mbedtls_sha512_finish_ret( &ctx, sha512sum ) ) != 0 )
 2941              		.loc 1 579 0
 2942 00ba 38A9     		add	r1, sp, #224
 2943 00bc 02A8     		add	r0, sp, #8
 2944 00be FFF7FEFF 		bl	mbedtls_sha512_finish_ret
 2945              	.LVL219:
 2946 00c2 041E     		subs	r4, r0, #0
 2947              	.LVL220:
 2948 00c4 1CD1     		bne	.L54
 580:Source\mbedtls_open\library/sha512.c ****             goto fail;
 581:Source\mbedtls_open\library/sha512.c **** 
 582:Source\mbedtls_open\library/sha512.c ****         if( memcmp( sha512sum, sha512_test_sum[i], 64 - k * 16 ) != 0 )
 2949              		.loc 1 582 0
 2950 00c6 B301     		lsls	r3, r6, #6
 2951 00c8 1B49     		ldr	r1, .L64+16
 2952 00ca 6031     		adds	r1, r1, #96
 2953 00cc C918     		adds	r1, r1, r3
 2954 00ce 0422     		movs	r2, #4
 2955 00d0 D21B     		subs	r2, r2, r7
 2956 00d2 1201     		lsls	r2, r2, #4
 2957 00d4 38A8     		add	r0, sp, #224
 2958              	.LVL221:
 2959 00d6 FFF7FEFF 		bl	memcmp
 2960              	.LVL222:
 2961 00da 0028     		cmp	r0, #0
 2962 00dc 0FD1     		bne	.L63
 583:Source\mbedtls_open\library/sha512.c ****         {
 584:Source\mbedtls_open\library/sha512.c ****             ret = 1;
 585:Source\mbedtls_open\library/sha512.c ****             goto fail;
 586:Source\mbedtls_open\library/sha512.c ****         }
 587:Source\mbedtls_open\library/sha512.c **** 
 588:Source\mbedtls_open\library/sha512.c ****         if( verbose != 0 )
 2963              		.loc 1 588 0
 2964 00de 4346     		mov	r3, r8
 2965 00e0 002B     		cmp	r3, #0
 2966 00e2 02D0     		beq	.L59
 2967              	.LVL223:
 589:Source\mbedtls_open\library/sha512.c ****             mbedtls_printf( "passed\n" );
 2968              		.loc 1 589 0
 2969 00e4 1548     		ldr	r0, .L64+20
 2970 00e6 FFF7FEFF 		bl	puts
 2971              	.LVL224:
 2972              	.L59:
 549:Source\mbedtls_open\library/sha512.c ****     {
 2973              		.loc 1 549 0 discriminator 2
 2974 00ea 0136     		adds	r6, r6, #1
 2975              	.LVL225:
 2976              	.L52:
 549:Source\mbedtls_open\library/sha512.c ****     {
 2977              		.loc 1 549 0 is_stmt 0 discriminator 1
 2978 00ec 052E     		cmp	r6, #5
 2979 00ee A3DD     		ble	.L60
 590:Source\mbedtls_open\library/sha512.c ****     }
 591:Source\mbedtls_open\library/sha512.c **** 
ARM GAS  C:\Users\Phuong\AppData\Local\Temp\ccCGJz1B.s 			page 64


 592:Source\mbedtls_open\library/sha512.c ****     if( verbose != 0 )
 2980              		.loc 1 592 0 is_stmt 1
 2981 00f0 4346     		mov	r3, r8
 2982 00f2 002B     		cmp	r3, #0
 2983 00f4 0AD0     		beq	.L61
 2984              	.LVL226:
 593:Source\mbedtls_open\library/sha512.c ****         mbedtls_printf( "\n" );
 2985              		.loc 1 593 0
 2986 00f6 0A20     		movs	r0, #10
 2987 00f8 FFF7FEFF 		bl	putchar
 2988              	.LVL227:
 2989 00fc 06E0     		b	.L61
 2990              	.LVL228:
 2991              	.L63:
 584:Source\mbedtls_open\library/sha512.c ****             goto fail;
 2992              		.loc 1 584 0
 2993 00fe 0124     		movs	r4, #1
 2994              	.LVL229:
 2995              	.L54:
 594:Source\mbedtls_open\library/sha512.c **** 
 595:Source\mbedtls_open\library/sha512.c ****     goto exit;
 596:Source\mbedtls_open\library/sha512.c **** 
 597:Source\mbedtls_open\library/sha512.c **** fail:
 598:Source\mbedtls_open\library/sha512.c ****     if( verbose != 0 )
 2996              		.loc 1 598 0
 2997 0100 4346     		mov	r3, r8
 2998 0102 002B     		cmp	r3, #0
 2999 0104 02D0     		beq	.L61
 3000              	.LVL230:
 599:Source\mbedtls_open\library/sha512.c ****         mbedtls_printf( "failed\n" );
 3001              		.loc 1 599 0
 3002 0106 0E48     		ldr	r0, .L64+24
 3003 0108 FFF7FEFF 		bl	puts
 3004              	.LVL231:
 3005              	.L61:
 600:Source\mbedtls_open\library/sha512.c **** 
 601:Source\mbedtls_open\library/sha512.c **** exit:
 602:Source\mbedtls_open\library/sha512.c ****     mbedtls_sha512_free( &ctx );
 3006              		.loc 1 602 0
 3007 010c 02A8     		add	r0, sp, #8
 3008 010e FFF7FEFF 		bl	mbedtls_sha512_free
 3009              	.LVL232:
 603:Source\mbedtls_open\library/sha512.c ****     mbedtls_free( buf );
 3010              		.loc 1 603 0
 3011 0112 0198     		ldr	r0, [sp, #4]
 3012 0114 FFF7FEFF 		bl	free
 3013              	.LVL233:
 604:Source\mbedtls_open\library/sha512.c **** 
 605:Source\mbedtls_open\library/sha512.c ****     return( ret );
 3014              		.loc 1 605 0
 3015 0118 2000     		movs	r0, r4
 3016 011a 00E0     		b	.L51
 3017              	.LVL234:
 3018              	.L62:
 544:Source\mbedtls_open\library/sha512.c ****     }
 3019              		.loc 1 544 0
 3020 011c 0120     		movs	r0, #1
ARM GAS  C:\Users\Phuong\AppData\Local\Temp\ccCGJz1B.s 			page 65


 3021              	.LVL235:
 3022              	.L51:
 606:Source\mbedtls_open\library/sha512.c **** }
 3023              		.loc 1 606 0
 3024 011e 48B0     		add	sp, sp, #288
 3025              		@ sp needed
 3026              	.LVL236:
 3027 0120 04BC     		pop	{r2}
 3028 0122 9046     		mov	r8, r2
 3029 0124 F0BD     		pop	{r4, r5, r6, r7, pc}
 3030              	.L65:
 3031 0126 C046     		.align	2
 3032              	.L64:
 3033 0128 00000000 		.word	.LC1
 3034 012c 1C000000 		.word	.LC3
 3035 0130 E7030000 		.word	999
 3036 0134 80020000 		.word	.LANCHOR1
 3037 0138 80030000 		.word	.LANCHOR2
 3038 013c 30000000 		.word	.LC7
 3039 0140 38000000 		.word	.LC9
 3040              		.cfi_endproc
 3041              	.LFE14:
 3042              		.size	mbedtls_sha512_self_test, .-mbedtls_sha512_self_test
 3043              		.section	.rodata
 3044              		.align	3
 3045              		.set	.LANCHOR0,. + 0
 3046              		.set	.LANCHOR1,. + 640
 3047              		.set	.LANCHOR2,. + 896
 3048              		.type	K, %object
 3049              		.size	K, 640
 3050              	K:
 3051 0000 22AE28D7 		.word	-685199838
 3052 0004 982F8A42 		.word	1116352408
 3053 0008 CD65EF23 		.word	602891725
 3054 000c 91443771 		.word	1899447441
 3055 0010 2F3B4DEC 		.word	-330482897
 3056 0014 CFFBC0B5 		.word	-1245643825
 3057 0018 BCDB8981 		.word	-2121671748
 3058 001c A5DBB5E9 		.word	-373957723
 3059 0020 38B548F3 		.word	-213338824
 3060 0024 5BC25639 		.word	961987163
 3061 0028 19D005B6 		.word	-1241133031
 3062 002c F111F159 		.word	1508970993
 3063 0030 9B4F19AF 		.word	-1357295717
 3064 0034 A4823F92 		.word	-1841331548
 3065 0038 18816DDA 		.word	-630357736
 3066 003c D55E1CAB 		.word	-1424204075
 3067 0040 420203A3 		.word	-1560083902
 3068 0044 98AA07D8 		.word	-670586216
 3069 0048 BE6F7045 		.word	1164996542
 3070 004c 015B8312 		.word	310598401
 3071 0050 8CB2E44E 		.word	1323610764
 3072 0054 BE853124 		.word	607225278
 3073 0058 E2B4FFD5 		.word	-704662302
 3074 005c C37D0C55 		.word	1426881987
 3075 0060 6F897BF2 		.word	-226784913
 3076 0064 745DBE72 		.word	1925078388
ARM GAS  C:\Users\Phuong\AppData\Local\Temp\ccCGJz1B.s 			page 66


 3077 0068 B196163B 		.word	991336113
 3078 006c FEB1DE80 		.word	-2132889090
 3079 0070 3512C725 		.word	633803317
 3080 0074 A706DC9B 		.word	-1680079193
 3081 0078 942669CF 		.word	-815192428
 3082 007c 74F19BC1 		.word	-1046744716
 3083 0080 D24AF19E 		.word	-1628353838
 3084 0084 C1699BE4 		.word	-459576895
 3085 0088 E3254F38 		.word	944711139
 3086 008c 8647BEEF 		.word	-272742522
 3087 0090 B5D58C8B 		.word	-1953704523
 3088 0094 C69DC10F 		.word	264347078
 3089 0098 659CAC77 		.word	2007800933
 3090 009c CCA10C24 		.word	604807628
 3091 00a0 75022B59 		.word	1495990901
 3092 00a4 6F2CE92D 		.word	770255983
 3093 00a8 83E4A66E 		.word	1856431235
 3094 00ac AA84744A 		.word	1249150122
 3095 00b0 D4FB41BD 		.word	-1119749164
 3096 00b4 DCA9B05C 		.word	1555081692
 3097 00b8 B5531183 		.word	-2096016459
 3098 00bc DA88F976 		.word	1996064986
 3099 00c0 ABDF66EE 		.word	-295247957
 3100 00c4 52513E98 		.word	-1740746414
 3101 00c8 1032B42D 		.word	766784016
 3102 00cc 6DC631A8 		.word	-1473132947
 3103 00d0 3F21FB98 		.word	-1728372417
 3104 00d4 C82703B0 		.word	-1341970488
 3105 00d8 E40EEFBE 		.word	-1091629340
 3106 00dc C77F59BF 		.word	-1084653625
 3107 00e0 C28FA83D 		.word	1034457026
 3108 00e4 F30BE0C6 		.word	-958395405
 3109 00e8 25A70A93 		.word	-1828018395
 3110 00ec 4791A7D5 		.word	-710438585
 3111 00f0 6F8203E0 		.word	-536640913
 3112 00f4 5163CA06 		.word	113926993
 3113 00f8 706E0E0A 		.word	168717936
 3114 00fc 67292914 		.word	338241895
 3115 0100 FC2FD246 		.word	1188179964
 3116 0104 850AB727 		.word	666307205
 3117 0108 26C9265C 		.word	1546045734
 3118 010c 38211B2E 		.word	773529912
 3119 0110 ED2AC45A 		.word	1522805485
 3120 0114 FC6D2C4D 		.word	1294757372
 3121 0118 DFB3959D 		.word	-1651133473
 3122 011c 130D3853 		.word	1396182291
 3123 0120 DE63AF8B 		.word	-1951439906
 3124 0124 54730A65 		.word	1695183700
 3125 0128 A8B2773C 		.word	1014477480
 3126 012c BB0A6A76 		.word	1986661051
 3127 0130 E6AEED47 		.word	1206759142
 3128 0134 2EC9C281 		.word	-2117940946
 3129 0138 3B358214 		.word	344077627
 3130 013c 852C7292 		.word	-1838011259
 3131 0140 6403F14C 		.word	1290863460
 3132 0144 A1E8BFA2 		.word	-1564481375
 3133 0148 013042BC 		.word	-1136513023
ARM GAS  C:\Users\Phuong\AppData\Local\Temp\ccCGJz1B.s 			page 67


 3134 014c 4B661AA8 		.word	-1474664885
 3135 0150 9197F8D0 		.word	-789014639
 3136 0154 708B4BC2 		.word	-1035236496
 3137 0158 30BE5406 		.word	106217008
 3138 015c A3516CC7 		.word	-949202525
 3139 0160 1852EFD6 		.word	-688958952
 3140 0164 19E892D1 		.word	-778901479
 3141 0168 10A96555 		.word	1432725776
 3142 016c 240699D6 		.word	-694614492
 3143 0170 2A207157 		.word	1467031594
 3144 0174 85350EF4 		.word	-200395387
 3145 0178 B8D1BB32 		.word	851169720
 3146 017c 70A06A10 		.word	275423344
 3147 0180 C8D0D2B8 		.word	-1194143544
 3148 0184 16C1A419 		.word	430227734
 3149 0188 53AB4151 		.word	1363258195
 3150 018c 086C371E 		.word	506948616
 3151 0190 99EB8EDF 		.word	-544281703
 3152 0194 4C774827 		.word	659060556
 3153 0198 A8489BE1 		.word	-509917016
 3154 019c B5BCB034 		.word	883997877
 3155 01a0 635AC9C5 		.word	-976659869
 3156 01a4 B30C1C39 		.word	958139571
 3157 01a8 CB8A41E3 		.word	-482243893
 3158 01ac 4AAAD84E 		.word	1322822218
 3159 01b0 73E36377 		.word	2003034995
 3160 01b4 4FCA9C5B 		.word	1537002063
 3161 01b8 A3B8B2D6 		.word	-692930397
 3162 01bc F36F2E68 		.word	1747873779
 3163 01c0 FCB2EF5D 		.word	1575990012
 3164 01c4 EE828F74 		.word	1955562222
 3165 01c8 602F1743 		.word	1125592928
 3166 01cc 6F63A578 		.word	2024104815
 3167 01d0 72ABF0A1 		.word	-1578062990
 3168 01d4 1478C884 		.word	-2067236844
 3169 01d8 EC39641A 		.word	442776044
 3170 01dc 0802C78C 		.word	-1933114872
 3171 01e0 281E6323 		.word	593698344
 3172 01e4 FAFFBE90 		.word	-1866530822
 3173 01e8 E9BD82DE 		.word	-561857047
 3174 01ec EB6C50A4 		.word	-1538233109
 3175 01f0 1579C6B2 		.word	-1295615723
 3176 01f4 F7A3F9BE 		.word	-1090935817
 3177 01f8 2B5372E3 		.word	-479046869
 3178 01fc F27871C6 		.word	-965641998
 3179 0200 9C6126EA 		.word	-366583396
 3180 0204 CE3E27CA 		.word	-903397682
 3181 0208 07C2C021 		.word	566280711
 3182 020c C7B886D1 		.word	-779700025
 3183 0210 1EEBE0CD 		.word	-840897762
 3184 0214 D67DDAEA 		.word	-354779690
 3185 0218 78D16EEE 		.word	-294727304
 3186 021c 7F4F7DF5 		.word	-176337025
 3187 0220 BA6F1772 		.word	1914138554
 3188 0224 AA67F006 		.word	116418474
 3189 0228 A698C8A2 		.word	-1563912026
 3190 022c C57D630A 		.word	174292421
ARM GAS  C:\Users\Phuong\AppData\Local\Temp\ccCGJz1B.s 			page 68


 3191 0230 AE0DF9BE 		.word	-1090974290
 3192 0234 04983F11 		.word	289380356
 3193 0238 1B471C13 		.word	320620315
 3194 023c 350B711B 		.word	460393269
 3195 0240 847D0423 		.word	587496836
 3196 0244 F577DB28 		.word	685471733
 3197 0248 9324C740 		.word	1086792851
 3198 024c 7BABCA32 		.word	852142971
 3199 0250 BCBEC915 		.word	365543100
 3200 0254 0ABE9E3C 		.word	1017036298
 3201 0258 4C0D109C 		.word	-1676669620
 3202 025c C4671D43 		.word	1126000580
 3203 0260 B6423ECB 		.word	-885112138
 3204 0264 BED4C54C 		.word	1288033470
 3205 0268 2A7E65FC 		.word	-60457430
 3206 026c 9C297F59 		.word	1501505948
 3207 0270 ECFAD63A 		.word	987167468
 3208 0274 AB6FCB5F 		.word	1607167915
 3209 0278 1758474A 		.word	1246189591
 3210 027c 8C19446C 		.word	1816402316
 3211              		.type	sha512_test_buf, %object
 3212              		.size	sha512_test_buf, 339
 3213              	sha512_test_buf:
 3214 0280 61626300 		.ascii	"abc\000"
 3215 0284 00000000 		.space	109
 3215      00000000 
 3215      00000000 
 3215      00000000 
 3215      00000000 
 3216 02f1 61626364 		.ascii	"abcdefghbcdefghicdefghijdefghijkefghijklfghijklmghi"
 3216      65666768 
 3216      62636465 
 3216      66676869 
 3216      63646566 
 3217 0324 6A6B6C6D 		.ascii	"jklmnhijklmnoijklmnopjklmnopqklmnopqrlmnopqrsmnopqr"
 3217      6E68696A 
 3217      6B6C6D6E 
 3217      6F696A6B 
 3217      6C6D6E6F 
 3218 0357 73746E6F 		.ascii	"stnopqrstu\000"
 3218      70717273 
 3218      747500
 3219 0362 00       		.ascii	"\000"
 3220 0363 00000000 		.space	112
 3220      00000000 
 3220      00000000 
 3220      00000000 
 3220      00000000 
 3221 03d3 00       		.space	1
 3222              		.type	sha512_test_buflen, %object
 3223              		.size	sha512_test_buflen, 12
 3224              	sha512_test_buflen:
 3225 03d4 03000000 		.word	3
 3226 03d8 70000000 		.word	112
 3227 03dc E8030000 		.word	1000
 3228              		.type	sha512_test_sum, %object
 3229              		.size	sha512_test_sum, 384
ARM GAS  C:\Users\Phuong\AppData\Local\Temp\ccCGJz1B.s 			page 69


 3230              	sha512_test_sum:
 3231 03e0 CB       		.byte	-53
 3232 03e1 00       		.byte	0
 3233 03e2 75       		.byte	117
 3234 03e3 3F       		.byte	63
 3235 03e4 45       		.byte	69
 3236 03e5 A3       		.byte	-93
 3237 03e6 5E       		.byte	94
 3238 03e7 8B       		.byte	-117
 3239 03e8 B5       		.byte	-75
 3240 03e9 A0       		.byte	-96
 3241 03ea 3D       		.byte	61
 3242 03eb 69       		.byte	105
 3243 03ec 9A       		.byte	-102
 3244 03ed C6       		.byte	-58
 3245 03ee 50       		.byte	80
 3246 03ef 07       		.byte	7
 3247 03f0 27       		.byte	39
 3248 03f1 2C       		.byte	44
 3249 03f2 32       		.byte	50
 3250 03f3 AB       		.byte	-85
 3251 03f4 0E       		.byte	14
 3252 03f5 DE       		.byte	-34
 3253 03f6 D1       		.byte	-47
 3254 03f7 63       		.byte	99
 3255 03f8 1A       		.byte	26
 3256 03f9 8B       		.byte	-117
 3257 03fa 60       		.byte	96
 3258 03fb 5A       		.byte	90
 3259 03fc 43       		.byte	67
 3260 03fd FF       		.byte	-1
 3261 03fe 5B       		.byte	91
 3262 03ff ED       		.byte	-19
 3263 0400 80       		.byte	-128
 3264 0401 86       		.byte	-122
 3265 0402 07       		.byte	7
 3266 0403 2B       		.byte	43
 3267 0404 A1       		.byte	-95
 3268 0405 E7       		.byte	-25
 3269 0406 CC       		.byte	-52
 3270 0407 23       		.byte	35
 3271 0408 58       		.byte	88
 3272 0409 BA       		.byte	-70
 3273 040a EC       		.byte	-20
 3274 040b A1       		.byte	-95
 3275 040c 34       		.byte	52
 3276 040d C8       		.byte	-56
 3277 040e 25       		.byte	37
 3278 040f A7       		.byte	-89
 3279 0410 00000000 		.space	16
 3279      00000000 
 3279      00000000 
 3279      00000000 
 3280 0420 09       		.byte	9
 3281 0421 33       		.byte	51
 3282 0422 0C       		.byte	12
 3283 0423 33       		.byte	51
ARM GAS  C:\Users\Phuong\AppData\Local\Temp\ccCGJz1B.s 			page 70


 3284 0424 F7       		.byte	-9
 3285 0425 11       		.byte	17
 3286 0426 47       		.byte	71
 3287 0427 E8       		.byte	-24
 3288 0428 3D       		.byte	61
 3289 0429 19       		.byte	25
 3290 042a 2F       		.byte	47
 3291 042b C7       		.byte	-57
 3292 042c 82       		.byte	-126
 3293 042d CD       		.byte	-51
 3294 042e 1B       		.byte	27
 3295 042f 47       		.byte	71
 3296 0430 53       		.byte	83
 3297 0431 11       		.byte	17
 3298 0432 1B       		.byte	27
 3299 0433 17       		.byte	23
 3300 0434 3B       		.byte	59
 3301 0435 3B       		.byte	59
 3302 0436 05       		.byte	5
 3303 0437 D2       		.byte	-46
 3304 0438 2F       		.byte	47
 3305 0439 A0       		.byte	-96
 3306 043a 80       		.byte	-128
 3307 043b 86       		.byte	-122
 3308 043c E3       		.byte	-29
 3309 043d B0       		.byte	-80
 3310 043e F7       		.byte	-9
 3311 043f 12       		.byte	18
 3312 0440 FC       		.byte	-4
 3313 0441 C7       		.byte	-57
 3314 0442 C7       		.byte	-57
 3315 0443 1A       		.byte	26
 3316 0444 55       		.byte	85
 3317 0445 7E       		.byte	126
 3318 0446 2D       		.byte	45
 3319 0447 B9       		.byte	-71
 3320 0448 66       		.byte	102
 3321 0449 C3       		.byte	-61
 3322 044a E9       		.byte	-23
 3323 044b FA       		.byte	-6
 3324 044c 91       		.byte	-111
 3325 044d 74       		.byte	116
 3326 044e 60       		.byte	96
 3327 044f 39       		.byte	57
 3328 0450 00000000 		.space	16
 3328      00000000 
 3328      00000000 
 3328      00000000 
 3329 0460 9D       		.byte	-99
 3330 0461 0E       		.byte	14
 3331 0462 18       		.byte	24
 3332 0463 09       		.byte	9
 3333 0464 71       		.byte	113
 3334 0465 64       		.byte	100
 3335 0466 74       		.byte	116
 3336 0467 CB       		.byte	-53
 3337 0468 08       		.byte	8
ARM GAS  C:\Users\Phuong\AppData\Local\Temp\ccCGJz1B.s 			page 71


 3338 0469 6E       		.byte	110
 3339 046a 83       		.byte	-125
 3340 046b 4E       		.byte	78
 3341 046c 31       		.byte	49
 3342 046d 0A       		.byte	10
 3343 046e 4A       		.byte	74
 3344 046f 1C       		.byte	28
 3345 0470 ED       		.byte	-19
 3346 0471 14       		.byte	20
 3347 0472 9E       		.byte	-98
 3348 0473 9C       		.byte	-100
 3349 0474 00       		.byte	0
 3350 0475 F2       		.byte	-14
 3351 0476 48       		.byte	72
 3352 0477 52       		.byte	82
 3353 0478 79       		.byte	121
 3354 0479 72       		.byte	114
 3355 047a CE       		.byte	-50
 3356 047b C5       		.byte	-59
 3357 047c 70       		.byte	112
 3358 047d 4C       		.byte	76
 3359 047e 2A       		.byte	42
 3360 047f 5B       		.byte	91
 3361 0480 07       		.byte	7
 3362 0481 B8       		.byte	-72
 3363 0482 B3       		.byte	-77
 3364 0483 DC       		.byte	-36
 3365 0484 38       		.byte	56
 3366 0485 EC       		.byte	-20
 3367 0486 C4       		.byte	-60
 3368 0487 EB       		.byte	-21
 3369 0488 AE       		.byte	-82
 3370 0489 97       		.byte	-105
 3371 048a DD       		.byte	-35
 3372 048b D8       		.byte	-40
 3373 048c 7F       		.byte	127
 3374 048d 3D       		.byte	61
 3375 048e 89       		.byte	-119
 3376 048f 85       		.byte	-123
 3377 0490 00000000 		.space	16
 3377      00000000 
 3377      00000000 
 3377      00000000 
 3378 04a0 DD       		.byte	-35
 3379 04a1 AF       		.byte	-81
 3380 04a2 35       		.byte	53
 3381 04a3 A1       		.byte	-95
 3382 04a4 93       		.byte	-109
 3383 04a5 61       		.byte	97
 3384 04a6 7A       		.byte	122
 3385 04a7 BA       		.byte	-70
 3386 04a8 CC       		.byte	-52
 3387 04a9 41       		.byte	65
 3388 04aa 73       		.byte	115
 3389 04ab 49       		.byte	73
 3390 04ac AE       		.byte	-82
 3391 04ad 20       		.byte	32
ARM GAS  C:\Users\Phuong\AppData\Local\Temp\ccCGJz1B.s 			page 72


 3392 04ae 41       		.byte	65
 3393 04af 31       		.byte	49
 3394 04b0 12       		.byte	18
 3395 04b1 E6       		.byte	-26
 3396 04b2 FA       		.byte	-6
 3397 04b3 4E       		.byte	78
 3398 04b4 89       		.byte	-119
 3399 04b5 A9       		.byte	-87
 3400 04b6 7E       		.byte	126
 3401 04b7 A2       		.byte	-94
 3402 04b8 0A       		.byte	10
 3403 04b9 9E       		.byte	-98
 3404 04ba EE       		.byte	-18
 3405 04bb E6       		.byte	-26
 3406 04bc 4B       		.byte	75
 3407 04bd 55       		.byte	85
 3408 04be D3       		.byte	-45
 3409 04bf 9A       		.byte	-102
 3410 04c0 21       		.byte	33
 3411 04c1 92       		.byte	-110
 3412 04c2 99       		.byte	-103
 3413 04c3 2A       		.byte	42
 3414 04c4 27       		.byte	39
 3415 04c5 4F       		.byte	79
 3416 04c6 C1       		.byte	-63
 3417 04c7 A8       		.byte	-88
 3418 04c8 36       		.byte	54
 3419 04c9 BA       		.byte	-70
 3420 04ca 3C       		.byte	60
 3421 04cb 23       		.byte	35
 3422 04cc A3       		.byte	-93
 3423 04cd FE       		.byte	-2
 3424 04ce EB       		.byte	-21
 3425 04cf BD       		.byte	-67
 3426 04d0 45       		.byte	69
 3427 04d1 4D       		.byte	77
 3428 04d2 44       		.byte	68
 3429 04d3 23       		.byte	35
 3430 04d4 64       		.byte	100
 3431 04d5 3C       		.byte	60
 3432 04d6 E8       		.byte	-24
 3433 04d7 0E       		.byte	14
 3434 04d8 2A       		.byte	42
 3435 04d9 9A       		.byte	-102
 3436 04da C9       		.byte	-55
 3437 04db 4F       		.byte	79
 3438 04dc A5       		.byte	-91
 3439 04dd 4C       		.byte	76
 3440 04de A4       		.byte	-92
 3441 04df 9F       		.byte	-97
 3442 04e0 8E       		.byte	-114
 3443 04e1 95       		.byte	-107
 3444 04e2 9B       		.byte	-101
 3445 04e3 75       		.byte	117
 3446 04e4 DA       		.byte	-38
 3447 04e5 E3       		.byte	-29
 3448 04e6 13       		.byte	19
ARM GAS  C:\Users\Phuong\AppData\Local\Temp\ccCGJz1B.s 			page 73


 3449 04e7 DA       		.byte	-38
 3450 04e8 8C       		.byte	-116
 3451 04e9 F4       		.byte	-12
 3452 04ea F7       		.byte	-9
 3453 04eb 28       		.byte	40
 3454 04ec 14       		.byte	20
 3455 04ed FC       		.byte	-4
 3456 04ee 14       		.byte	20
 3457 04ef 3F       		.byte	63
 3458 04f0 8F       		.byte	-113
 3459 04f1 77       		.byte	119
 3460 04f2 79       		.byte	121
 3461 04f3 C6       		.byte	-58
 3462 04f4 EB       		.byte	-21
 3463 04f5 9F       		.byte	-97
 3464 04f6 7F       		.byte	127
 3465 04f7 A1       		.byte	-95
 3466 04f8 72       		.byte	114
 3467 04f9 99       		.byte	-103
 3468 04fa AE       		.byte	-82
 3469 04fb AD       		.byte	-83
 3470 04fc B6       		.byte	-74
 3471 04fd 88       		.byte	-120
 3472 04fe 90       		.byte	-112
 3473 04ff 18       		.byte	24
 3474 0500 50       		.byte	80
 3475 0501 1D       		.byte	29
 3476 0502 28       		.byte	40
 3477 0503 9E       		.byte	-98
 3478 0504 49       		.byte	73
 3479 0505 00       		.byte	0
 3480 0506 F7       		.byte	-9
 3481 0507 E4       		.byte	-28
 3482 0508 33       		.byte	51
 3483 0509 1B       		.byte	27
 3484 050a 99       		.byte	-103
 3485 050b DE       		.byte	-34
 3486 050c C4       		.byte	-60
 3487 050d B5       		.byte	-75
 3488 050e 43       		.byte	67
 3489 050f 3A       		.byte	58
 3490 0510 C7       		.byte	-57
 3491 0511 D3       		.byte	-45
 3492 0512 29       		.byte	41
 3493 0513 EE       		.byte	-18
 3494 0514 B6       		.byte	-74
 3495 0515 DD       		.byte	-35
 3496 0516 26       		.byte	38
 3497 0517 54       		.byte	84
 3498 0518 5E       		.byte	94
 3499 0519 96       		.byte	-106
 3500 051a E5       		.byte	-27
 3501 051b 5B       		.byte	91
 3502 051c 87       		.byte	-121
 3503 051d 4B       		.byte	75
 3504 051e E9       		.byte	-23
 3505 051f 09       		.byte	9
ARM GAS  C:\Users\Phuong\AppData\Local\Temp\ccCGJz1B.s 			page 74


 3506 0520 E7       		.byte	-25
 3507 0521 18       		.byte	24
 3508 0522 48       		.byte	72
 3509 0523 3D       		.byte	61
 3510 0524 0C       		.byte	12
 3511 0525 E7       		.byte	-25
 3512 0526 69       		.byte	105
 3513 0527 64       		.byte	100
 3514 0528 4E       		.byte	78
 3515 0529 2E       		.byte	46
 3516 052a 42       		.byte	66
 3517 052b C7       		.byte	-57
 3518 052c BC       		.byte	-68
 3519 052d 15       		.byte	21
 3520 052e B4       		.byte	-76
 3521 052f 63       		.byte	99
 3522 0530 8E       		.byte	-114
 3523 0531 1F       		.byte	31
 3524 0532 98       		.byte	-104
 3525 0533 B1       		.byte	-79
 3526 0534 3B       		.byte	59
 3527 0535 20       		.byte	32
 3528 0536 44       		.byte	68
 3529 0537 28       		.byte	40
 3530 0538 56       		.byte	86
 3531 0539 32       		.byte	50
 3532 053a A8       		.byte	-88
 3533 053b 03       		.byte	3
 3534 053c AF       		.byte	-81
 3535 053d A9       		.byte	-87
 3536 053e 73       		.byte	115
 3537 053f EB       		.byte	-21
 3538 0540 DE       		.byte	-34
 3539 0541 0F       		.byte	15
 3540 0542 F2       		.byte	-14
 3541 0543 44       		.byte	68
 3542 0544 87       		.byte	-121
 3543 0545 7E       		.byte	126
 3544 0546 A6       		.byte	-90
 3545 0547 0A       		.byte	10
 3546 0548 4C       		.byte	76
 3547 0549 B0       		.byte	-80
 3548 054a 43       		.byte	67
 3549 054b 2C       		.byte	44
 3550 054c E5       		.byte	-27
 3551 054d 77       		.byte	119
 3552 054e C3       		.byte	-61
 3553 054f 1B       		.byte	27
 3554 0550 EB       		.byte	-21
 3555 0551 00       		.byte	0
 3556 0552 9C       		.byte	-100
 3557 0553 5C       		.byte	92
 3558 0554 2C       		.byte	44
 3559 0555 49       		.byte	73
 3560 0556 AA       		.byte	-86
 3561 0557 2E       		.byte	46
 3562 0558 4E       		.byte	78
ARM GAS  C:\Users\Phuong\AppData\Local\Temp\ccCGJz1B.s 			page 75


 3563 0559 AD       		.byte	-83
 3564 055a B2       		.byte	-78
 3565 055b 17       		.byte	23
 3566 055c AD       		.byte	-83
 3567 055d 8C       		.byte	-116
 3568 055e C0       		.byte	-64
 3569 055f 9B       		.byte	-101
 3570              		.section	.rodata.str1.4,"aMS",%progbits,1
 3571              		.align	2
 3572              	.LC1:
 3573 0000 42756666 		.ascii	"Buffer allocation failed\000"
 3573      65722061 
 3573      6C6C6F63 
 3573      6174696F 
 3573      6E206661 
 3574 0019 000000   		.space	3
 3575              	.LC3:
 3576 001c 20205348 		.ascii	"  SHA-%d test #%d: \000"
 3576      412D2564 
 3576      20746573 
 3576      74202325 
 3576      643A2000 
 3577              	.LC7:
 3578 0030 70617373 		.ascii	"passed\000"
 3578      656400
 3579 0037 00       		.space	1
 3580              	.LC9:
 3581 0038 6661696C 		.ascii	"failed\000"
 3581      656400
 3582              		.text
 3583              	.Letext0:
 3584              		.file 2 "c:\\program files (x86)\\cypress\\psoc creator\\4.2\\psoc creator\\import\\gnu\\arm\\5.4.
 3585              		.file 3 "c:\\program files (x86)\\cypress\\psoc creator\\4.2\\psoc creator\\import\\gnu\\arm\\5.4.
 3586              		.file 4 "c:\\program files (x86)\\cypress\\psoc creator\\4.2\\psoc creator\\import\\gnu\\arm\\5.4.
 3587              		.file 5 ".\\Source\\mbedtls_open\\include/mbedtls/sha512.h"
 3588              		.file 6 ".\\Source\\mbedtls_open\\include/mbedtls/platform_util.h"
 3589              		.file 7 "c:\\program files (x86)\\cypress\\psoc creator\\4.2\\psoc creator\\import\\gnu\\arm\\5.4.
 3590              		.file 8 "c:\\program files (x86)\\cypress\\psoc creator\\4.2\\psoc creator\\import\\gnu\\arm\\5.4.
 3591              		.file 9 "c:\\program files (x86)\\cypress\\psoc creator\\4.2\\psoc creator\\import\\gnu\\arm\\5.4.
 3592              		.file 10 "<built-in>"