ARM GAS  C:\Users\Phuong\AppData\Local\Temp\ccCGJz1B.s 			page 1


   1              		.syntax unified
   2              		.cpu cortex-m0plus
   3              		.fpu softvfp
   4              		.eabi_attribute 20, 1
   5              		.eabi_attribute 21, 1
   6              		.eabi_attribute 23, 3
   7              		.eabi_attribute 24, 1
   8              		.eabi_attribute 25, 1
   9              		.eabi_attribute 26, 1
  10              		.eabi_attribute 30, 1
  11              		.eabi_attribute 34, 0
  12              		.eabi_attribute 18, 4
  13              		.thumb
  14              		.syntax unified
  15              		.file	"sha512.c"
  16              		.text
  17              	.Ltext0:
  18              		.cfi_sections	.debug_frame
  19              		.section	.text.mbedtls_sha512_init,"ax",%progbits
  20              		.align	2
  21              		.global	mbedtls_sha512_init
  22              		.code	16
  23              		.thumb_func
  24              		.type	mbedtls_sha512_init, %function
  25              	mbedtls_sha512_init:
  26              	.LFB1:
  27              		.file 1 "Source\\mbedtls_open\\library\\sha512.c"
   1:Source\mbedtls_open\library/sha512.c **** /*
   2:Source\mbedtls_open\library/sha512.c ****  *  FIPS-180-2 compliant SHA-384/512 implementation
   3:Source\mbedtls_open\library/sha512.c ****  *
   4:Source\mbedtls_open\library/sha512.c ****  *  Copyright (C) 2006-2015, ARM Limited, All Rights Reserved
   5:Source\mbedtls_open\library/sha512.c ****  *  SPDX-License-Identifier: Apache-2.0
   6:Source\mbedtls_open\library/sha512.c ****  *
   7:Source\mbedtls_open\library/sha512.c ****  *  Licensed under the Apache License, Version 2.0 (the "License"); you may
   8:Source\mbedtls_open\library/sha512.c ****  *  not use this file except in compliance with the License.
   9:Source\mbedtls_open\library/sha512.c ****  *  You may obtain a copy of the License at
  10:Source\mbedtls_open\library/sha512.c ****  *
  11:Source\mbedtls_open\library/sha512.c ****  *  http://www.apache.org/licenses/LICENSE-2.0
  12:Source\mbedtls_open\library/sha512.c ****  *
  13:Source\mbedtls_open\library/sha512.c ****  *  Unless required by applicable law or agreed to in writing, software
  14:Source\mbedtls_open\library/sha512.c ****  *  distributed under the License is distributed on an "AS IS" BASIS, WITHOUT
  15:Source\mbedtls_open\library/sha512.c ****  *  WARRANTIES OR CONDITIONS OF ANY KIND, either express or implied.
  16:Source\mbedtls_open\library/sha512.c ****  *  See the License for the specific language governing permissions and
  17:Source\mbedtls_open\library/sha512.c ****  *  limitations under the License.
  18:Source\mbedtls_open\library/sha512.c ****  *
  19:Source\mbedtls_open\library/sha512.c ****  *  This file is part of mbed TLS (https://tls.mbed.org)
  20:Source\mbedtls_open\library/sha512.c ****  */
  21:Source\mbedtls_open\library/sha512.c **** /*
  22:Source\mbedtls_open\library/sha512.c ****  *  The SHA-512 Secure Hash Standard was published by NIST in 2002.
  23:Source\mbedtls_open\library/sha512.c ****  *
  24:Source\mbedtls_open\library/sha512.c ****  *  http://csrc.nist.gov/publications/fips/fips180-2/fips180-2.pdf
  25:Source\mbedtls_open\library/sha512.c ****  */
  26:Source\mbedtls_open\library/sha512.c **** 
  27:Source\mbedtls_open\library/sha512.c **** #if !defined(MBEDTLS_CONFIG_FILE)
  28:Source\mbedtls_open\library/sha512.c **** #include "mbedtls/config.h"
  29:Source\mbedtls_open\library/sha512.c **** #else
  30:Source\mbedtls_open\library/sha512.c **** #include MBEDTLS_CONFIG_FILE
ARM GAS  C:\Users\Phuong\AppData\Local\Temp\ccCGJz1B.s 			page 2


  31:Source\mbedtls_open\library/sha512.c **** #endif
  32:Source\mbedtls_open\library/sha512.c **** 
  33:Source\mbedtls_open\library/sha512.c **** #if defined(MBEDTLS_SHA512_C)
  34:Source\mbedtls_open\library/sha512.c **** 
  35:Source\mbedtls_open\library/sha512.c **** #include "mbedtls/sha512.h"
  36:Source\mbedtls_open\library/sha512.c **** #include "mbedtls/platform_util.h"
  37:Source\mbedtls_open\library/sha512.c **** 
  38:Source\mbedtls_open\library/sha512.c **** #if defined(_MSC_VER) || defined(__WATCOMC__)
  39:Source\mbedtls_open\library/sha512.c ****   #define UL64(x) x##ui64
  40:Source\mbedtls_open\library/sha512.c **** #else
  41:Source\mbedtls_open\library/sha512.c ****   #define UL64(x) x##ULL
  42:Source\mbedtls_open\library/sha512.c **** #endif
  43:Source\mbedtls_open\library/sha512.c **** 
  44:Source\mbedtls_open\library/sha512.c **** #include <string.h>
  45:Source\mbedtls_open\library/sha512.c **** 
  46:Source\mbedtls_open\library/sha512.c **** #if defined(MBEDTLS_SELF_TEST)
  47:Source\mbedtls_open\library/sha512.c **** #if defined(MBEDTLS_PLATFORM_C)
  48:Source\mbedtls_open\library/sha512.c **** #include "mbedtls/platform.h"
  49:Source\mbedtls_open\library/sha512.c **** #else
  50:Source\mbedtls_open\library/sha512.c **** #include <stdio.h>
  51:Source\mbedtls_open\library/sha512.c **** #include <stdlib.h>
  52:Source\mbedtls_open\library/sha512.c **** #define mbedtls_printf printf
  53:Source\mbedtls_open\library/sha512.c **** #define mbedtls_calloc    calloc
  54:Source\mbedtls_open\library/sha512.c **** #define mbedtls_free       free
  55:Source\mbedtls_open\library/sha512.c **** #endif /* MBEDTLS_PLATFORM_C */
  56:Source\mbedtls_open\library/sha512.c **** #endif /* MBEDTLS_SELF_TEST */
  57:Source\mbedtls_open\library/sha512.c **** 
  58:Source\mbedtls_open\library/sha512.c **** #if !defined(MBEDTLS_SHA512_ALT)
  59:Source\mbedtls_open\library/sha512.c **** 
  60:Source\mbedtls_open\library/sha512.c **** /*
  61:Source\mbedtls_open\library/sha512.c ****  * 64-bit integer manipulation macros (big endian)
  62:Source\mbedtls_open\library/sha512.c ****  */
  63:Source\mbedtls_open\library/sha512.c **** #ifndef GET_UINT64_BE
  64:Source\mbedtls_open\library/sha512.c **** #define GET_UINT64_BE(n,b,i)                            \
  65:Source\mbedtls_open\library/sha512.c **** {                                                       \
  66:Source\mbedtls_open\library/sha512.c ****     (n) = ( (uint64_t) (b)[(i)    ] << 56 )       \
  67:Source\mbedtls_open\library/sha512.c ****         | ( (uint64_t) (b)[(i) + 1] << 48 )       \
  68:Source\mbedtls_open\library/sha512.c ****         | ( (uint64_t) (b)[(i) + 2] << 40 )       \
  69:Source\mbedtls_open\library/sha512.c ****         | ( (uint64_t) (b)[(i) + 3] << 32 )       \
  70:Source\mbedtls_open\library/sha512.c ****         | ( (uint64_t) (b)[(i) + 4] << 24 )       \
  71:Source\mbedtls_open\library/sha512.c ****         | ( (uint64_t) (b)[(i) + 5] << 16 )       \
  72:Source\mbedtls_open\library/sha512.c ****         | ( (uint64_t) (b)[(i) + 6] <<  8 )       \
  73:Source\mbedtls_open\library/sha512.c ****         | ( (uint64_t) (b)[(i) + 7]       );      \
  74:Source\mbedtls_open\library/sha512.c **** }
  75:Source\mbedtls_open\library/sha512.c **** #endif /* GET_UINT64_BE */
  76:Source\mbedtls_open\library/sha512.c **** 
  77:Source\mbedtls_open\library/sha512.c **** #ifndef PUT_UINT64_BE
  78:Source\mbedtls_open\library/sha512.c **** #define PUT_UINT64_BE(n,b,i)                            \
  79:Source\mbedtls_open\library/sha512.c **** {                                                       \
  80:Source\mbedtls_open\library/sha512.c ****     (b)[(i)    ] = (unsigned char) ( (n) >> 56 );       \
  81:Source\mbedtls_open\library/sha512.c ****     (b)[(i) + 1] = (unsigned char) ( (n) >> 48 );       \
  82:Source\mbedtls_open\library/sha512.c ****     (b)[(i) + 2] = (unsigned char) ( (n) >> 40 );       \
  83:Source\mbedtls_open\library/sha512.c ****     (b)[(i) + 3] = (unsigned char) ( (n) >> 32 );       \
  84:Source\mbedtls_open\library/sha512.c ****     (b)[(i) + 4] = (unsigned char) ( (n) >> 24 );       \
  85:Source\mbedtls_open\library/sha512.c ****     (b)[(i) + 5] = (unsigned char) ( (n) >> 16 );       \
  86:Source\mbedtls_open\library/sha512.c ****     (b)[(i) + 6] = (unsigned char) ( (n) >>  8 );       \
  87:Source\mbedtls_open\library/sha512.c ****     (b)[(i) + 7] = (unsigned char) ( (n)       );       \
ARM GAS  C:\Users\Phuong\AppData\Local\Temp\ccCGJz1B.s 			page 3


  88:Source\mbedtls_open\library/sha512.c **** }
  89:Source\mbedtls_open\library/sha512.c **** #endif /* PUT_UINT64_BE */
  90:Source\mbedtls_open\library/sha512.c **** 
  91:Source\mbedtls_open\library/sha512.c **** void mbedtls_sha512_init( mbedtls_sha512_context *ctx )
  92:Source\mbedtls_open\library/sha512.c **** {
  28              		.loc 1 92 0
  29              		.cfi_startproc
  30              		@ args = 0, pretend = 0, frame = 0
  31              		@ frame_needed = 0, uses_anonymous_args = 0
  32              	.LVL0:
  33 0000 10B5     		push	{r4, lr}
  34              		.cfi_def_cfa_offset 8
  35              		.cfi_offset 4, -8
  36              		.cfi_offset 14, -4
  93:Source\mbedtls_open\library/sha512.c ****     memset( ctx, 0, sizeof( mbedtls_sha512_context ) );
  37              		.loc 1 93 0
  38 0002 D822     		movs	r2, #216
  39 0004 0021     		movs	r1, #0
  40 0006 FFF7FEFF 		bl	memset
  41              	.LVL1:
  94:Source\mbedtls_open\library/sha512.c **** }
  42              		.loc 1 94 0
  43              		@ sp needed
  44 000a 10BD     		pop	{r4, pc}
  45              		.cfi_endproc
  46              	.LFE1:
  47              		.size	mbedtls_sha512_init, .-mbedtls_sha512_init
  48              		.section	.text.mbedtls_sha512_free,"ax",%progbits
  49              		.align	2
  50              		.global	mbedtls_sha512_free
  51              		.code	16
  52              		.thumb_func
  53              		.type	mbedtls_sha512_free, %function
  54              	mbedtls_sha512_free:
  55              	.LFB2:
  95:Source\mbedtls_open\library/sha512.c **** 
  96:Source\mbedtls_open\library/sha512.c **** void mbedtls_sha512_free( mbedtls_sha512_context *ctx )
  97:Source\mbedtls_open\library/sha512.c **** {
  56              		.loc 1 97 0
  57              		.cfi_startproc
  58              		@ args = 0, pretend = 0, frame = 0
  59              		@ frame_needed = 0, uses_anonymous_args = 0
  60              	.LVL2:
  61 0000 10B5     		push	{r4, lr}
  62              		.cfi_def_cfa_offset 8
  63              		.cfi_offset 4, -8
  64              		.cfi_offset 14, -4
  98:Source\mbedtls_open\library/sha512.c ****     if( ctx == NULL )
  65              		.loc 1 98 0
  66 0002 0028     		cmp	r0, #0
  67 0004 02D0     		beq	.L2
  99:Source\mbedtls_open\library/sha512.c ****         return;
 100:Source\mbedtls_open\library/sha512.c **** 
 101:Source\mbedtls_open\library/sha512.c ****     mbedtls_platform_zeroize( ctx, sizeof( mbedtls_sha512_context ) );
  68              		.loc 1 101 0
  69 0006 D821     		movs	r1, #216
  70 0008 FFF7FEFF 		bl	mbedtls_platform_zeroize
ARM GAS  C:\Users\Phuong\AppData\Local\Temp\ccCGJz1B.s 			page 4


  71              	.LVL3:
  72              	.L2:
 102:Source\mbedtls_open\library/sha512.c **** }
  73              		.loc 1 102 0
  74              		@ sp needed
  75 000c 10BD     		pop	{r4, pc}
  76              		.cfi_endproc
  77              	.LFE2:
  78              		.size	mbedtls_sha512_free, .-mbedtls_sha512_free
  79 000e C046     		.section	.text.mbedtls_sha512_clone,"ax",%progbits
  80              		.align	2
  81              		.global	mbedtls_sha512_clone
  82              		.code	16
  83              		.thumb_func
  84              		.type	mbedtls_sha512_clone, %function
  85              	mbedtls_sha512_clone:
  86              	.LFB3:
 103:Source\mbedtls_open\library/sha512.c **** 
 104:Source\mbedtls_open\library/sha512.c **** void mbedtls_sha512_clone( mbedtls_sha512_context *dst,
 105:Source\mbedtls_open\library/sha512.c ****                            const mbedtls_sha512_context *src )
 106:Source\mbedtls_open\library/sha512.c **** {
  87              		.loc 1 106 0
  88              		.cfi_startproc
  89              		@ args = 0, pretend = 0, frame = 0
  90              		@ frame_needed = 0, uses_anonymous_args = 0
  91              	.LVL4:
  92 0000 10B5     		push	{r4, lr}
  93              		.cfi_def_cfa_offset 8
  94              		.cfi_offset 4, -8
  95              		.cfi_offset 14, -4
 107:Source\mbedtls_open\library/sha512.c ****     *dst = *src;
  96              		.loc 1 107 0
  97 0002 D822     		movs	r2, #216
  98 0004 FFF7FEFF 		bl	memcpy
  99              	.LVL5:
 108:Source\mbedtls_open\library/sha512.c **** }
 100              		.loc 1 108 0
 101              		@ sp needed
 102 0008 10BD     		pop	{r4, pc}
 103              		.cfi_endproc
 104              	.LFE3:
 105              		.size	mbedtls_sha512_clone, .-mbedtls_sha512_clone
 106 000a C046     		.section	.text.mbedtls_sha512_starts_ret,"ax",%progbits
 107              		.align	2
 108              		.global	mbedtls_sha512_starts_ret
 109              		.code	16
 110              		.thumb_func
 111              		.type	mbedtls_sha512_starts_ret, %function
 112              	mbedtls_sha512_starts_ret:
 113              	.LFB4:
 109:Source\mbedtls_open\library/sha512.c **** 
 110:Source\mbedtls_open\library/sha512.c **** /*
 111:Source\mbedtls_open\library/sha512.c ****  * SHA-512 context setup
 112:Source\mbedtls_open\library/sha512.c ****  */
 113:Source\mbedtls_open\library/sha512.c **** int mbedtls_sha512_starts_ret( mbedtls_sha512_context *ctx, int is384 )
 114:Source\mbedtls_open\library/sha512.c **** {
 114              		.loc 1 114 0
ARM GAS  C:\Users\Phuong\AppData\Local\Temp\ccCGJz1B.s 			page 5


 115              		.cfi_startproc
 116              		@ args = 0, pretend = 0, frame = 0
 117              		@ frame_needed = 0, uses_anonymous_args = 0
 118              		@ link register save eliminated.
 119              	.LVL6:
 115:Source\mbedtls_open\library/sha512.c ****     ctx->total[0] = 0;
 120              		.loc 1 115 0
 121 0000 0022     		movs	r2, #0
 122 0002 0023     		movs	r3, #0
 123 0004 0260     		str	r2, [r0]
 124 0006 4360     		str	r3, [r0, #4]
 116:Source\mbedtls_open\library/sha512.c ****     ctx->total[1] = 0;
 125              		.loc 1 116 0
 126 0008 8260     		str	r2, [r0, #8]
 127 000a C360     		str	r3, [r0, #12]
 117:Source\mbedtls_open\library/sha512.c **** 
 118:Source\mbedtls_open\library/sha512.c ****     if( is384 == 0 )
 128              		.loc 1 118 0
 129 000c 0029     		cmp	r1, #0
 130 000e 20D1     		bne	.L6
 119:Source\mbedtls_open\library/sha512.c ****     {
 120:Source\mbedtls_open\library/sha512.c ****         /* SHA-512 */
 121:Source\mbedtls_open\library/sha512.c ****         ctx->state[0] = UL64(0x6A09E667F3BCC908);
 131              		.loc 1 121 0
 132 0010 224A     		ldr	r2, .L8
 133 0012 234B     		ldr	r3, .L8+4
 134 0014 0261     		str	r2, [r0, #16]
 135 0016 4361     		str	r3, [r0, #20]
 122:Source\mbedtls_open\library/sha512.c ****         ctx->state[1] = UL64(0xBB67AE8584CAA73B);
 136              		.loc 1 122 0
 137 0018 224A     		ldr	r2, .L8+8
 138 001a 234B     		ldr	r3, .L8+12
 139 001c 8261     		str	r2, [r0, #24]
 140 001e C361     		str	r3, [r0, #28]
 123:Source\mbedtls_open\library/sha512.c ****         ctx->state[2] = UL64(0x3C6EF372FE94F82B);
 141              		.loc 1 123 0
 142 0020 224A     		ldr	r2, .L8+16
 143 0022 234B     		ldr	r3, .L8+20
 144 0024 0262     		str	r2, [r0, #32]
 145 0026 4362     		str	r3, [r0, #36]
 124:Source\mbedtls_open\library/sha512.c ****         ctx->state[3] = UL64(0xA54FF53A5F1D36F1);
 146              		.loc 1 124 0
 147 0028 224A     		ldr	r2, .L8+24
 148 002a 234B     		ldr	r3, .L8+28
 149 002c 8262     		str	r2, [r0, #40]
 150 002e C362     		str	r3, [r0, #44]
 125:Source\mbedtls_open\library/sha512.c ****         ctx->state[4] = UL64(0x510E527FADE682D1);
 151              		.loc 1 125 0
 152 0030 224A     		ldr	r2, .L8+32
 153 0032 234B     		ldr	r3, .L8+36
 154 0034 0263     		str	r2, [r0, #48]
 155 0036 4363     		str	r3, [r0, #52]
 126:Source\mbedtls_open\library/sha512.c ****         ctx->state[5] = UL64(0x9B05688C2B3E6C1F);
 156              		.loc 1 126 0
 157 0038 224A     		ldr	r2, .L8+40
 158 003a 234B     		ldr	r3, .L8+44
 159 003c 8263     		str	r2, [r0, #56]
ARM GAS  C:\Users\Phuong\AppData\Local\Temp\ccCGJz1B.s 			page 6


 160 003e C363     		str	r3, [r0, #60]
 127:Source\mbedtls_open\library/sha512.c ****         ctx->state[6] = UL64(0x1F83D9ABFB41BD6B);
 161              		.loc 1 127 0
 162 0040 224A     		ldr	r2, .L8+48
 163 0042 234B     		ldr	r3, .L8+52
 164 0044 0264     		str	r2, [r0, #64]
 165 0046 4364     		str	r3, [r0, #68]
 128:Source\mbedtls_open\library/sha512.c ****         ctx->state[7] = UL64(0x5BE0CD19137E2179);
 166              		.loc 1 128 0
 167 0048 224A     		ldr	r2, .L8+56
 168 004a 234B     		ldr	r3, .L8+60
 169 004c 8264     		str	r2, [r0, #72]
 170 004e C364     		str	r3, [r0, #76]
 171 0050 1FE0     		b	.L7
 172              	.L6:
 129:Source\mbedtls_open\library/sha512.c ****     }
 130:Source\mbedtls_open\library/sha512.c ****     else
 131:Source\mbedtls_open\library/sha512.c ****     {
 132:Source\mbedtls_open\library/sha512.c ****         /* SHA-384 */
 133:Source\mbedtls_open\library/sha512.c ****         ctx->state[0] = UL64(0xCBBB9D5DC1059ED8);
 173              		.loc 1 133 0
 174 0052 224A     		ldr	r2, .L8+64
 175 0054 224B     		ldr	r3, .L8+68
 176 0056 0261     		str	r2, [r0, #16]
 177 0058 4361     		str	r3, [r0, #20]
 134:Source\mbedtls_open\library/sha512.c ****         ctx->state[1] = UL64(0x629A292A367CD507);
 178              		.loc 1 134 0
 179 005a 224A     		ldr	r2, .L8+72
 180 005c 224B     		ldr	r3, .L8+76
 181 005e 8261     		str	r2, [r0, #24]
 182 0060 C361     		str	r3, [r0, #28]
 135:Source\mbedtls_open\library/sha512.c ****         ctx->state[2] = UL64(0x9159015A3070DD17);
 183              		.loc 1 135 0
 184 0062 224A     		ldr	r2, .L8+80
 185 0064 224B     		ldr	r3, .L8+84
 186 0066 0262     		str	r2, [r0, #32]
 187 0068 4362     		str	r3, [r0, #36]
 136:Source\mbedtls_open\library/sha512.c ****         ctx->state[3] = UL64(0x152FECD8F70E5939);
 188              		.loc 1 136 0
 189 006a 224A     		ldr	r2, .L8+88
 190 006c 224B     		ldr	r3, .L8+92
 191 006e 8262     		str	r2, [r0, #40]
 192 0070 C362     		str	r3, [r0, #44]
 137:Source\mbedtls_open\library/sha512.c ****         ctx->state[4] = UL64(0x67332667FFC00B31);
 193              		.loc 1 137 0
 194 0072 224A     		ldr	r2, .L8+96
 195 0074 224B     		ldr	r3, .L8+100
 196 0076 0263     		str	r2, [r0, #48]
 197 0078 4363     		str	r3, [r0, #52]
 138:Source\mbedtls_open\library/sha512.c ****         ctx->state[5] = UL64(0x8EB44A8768581511);
 198              		.loc 1 138 0
 199 007a 224A     		ldr	r2, .L8+104
 200 007c 224B     		ldr	r3, .L8+108
 201 007e 8263     		str	r2, [r0, #56]
 202 0080 C363     		str	r3, [r0, #60]
 139:Source\mbedtls_open\library/sha512.c ****         ctx->state[6] = UL64(0xDB0C2E0D64F98FA7);
 203              		.loc 1 139 0
ARM GAS  C:\Users\Phuong\AppData\Local\Temp\ccCGJz1B.s 			page 7


 204 0082 224A     		ldr	r2, .L8+112
 205 0084 224B     		ldr	r3, .L8+116
 206 0086 0264     		str	r2, [r0, #64]
 207 0088 4364     		str	r3, [r0, #68]
 140:Source\mbedtls_open\library/sha512.c ****         ctx->state[7] = UL64(0x47B5481DBEFA4FA4);
 208              		.loc 1 140 0
 209 008a 224A     		ldr	r2, .L8+120
 210 008c 224B     		ldr	r3, .L8+124
 211 008e 8264     		str	r2, [r0, #72]
 212 0090 C364     		str	r3, [r0, #76]
 213              	.L7:
 141:Source\mbedtls_open\library/sha512.c ****     }
 142:Source\mbedtls_open\library/sha512.c **** 
 143:Source\mbedtls_open\library/sha512.c ****     ctx->is384 = is384;
 214              		.loc 1 143 0
 215 0092 D023     		movs	r3, #208
 216 0094 C150     		str	r1, [r0, r3]
 144:Source\mbedtls_open\library/sha512.c **** 
 145:Source\mbedtls_open\library/sha512.c ****     return( 0 );
 146:Source\mbedtls_open\library/sha512.c **** }
 217              		.loc 1 146 0
 218 0096 0020     		movs	r0, #0
 219              	.LVL7:
 220              		@ sp needed
 221 0098 7047     		bx	lr
 222              	.L9:
 223 009a C046     		.align	2
 224              	.L8:
 225 009c 08C9BCF3 		.word	-205731576
 226 00a0 67E6096A 		.word	1779033703
 227 00a4 3BA7CA84 		.word	-2067093701
 228 00a8 85AE67BB 		.word	-1150833019
 229 00ac 2BF894FE 		.word	-23791573
 230 00b0 72F36E3C 		.word	1013904242
 231 00b4 F1361D5F 		.word	1595750129
 232 00b8 3AF54FA5 		.word	-1521486534
 233 00bc D182E6AD 		.word	-1377402159
 234 00c0 7F520E51 		.word	1359893119
 235 00c4 1F6C3E2B 		.word	725511199
 236 00c8 8C68059B 		.word	-1694144372
 237 00cc 6BBD41FB 		.word	-79577749
 238 00d0 ABD9831F 		.word	528734635
 239 00d4 79217E13 		.word	327033209
 240 00d8 19CDE05B 		.word	1541459225
 241 00dc D89E05C1 		.word	-1056596264
 242 00e0 5D9DBBCB 		.word	-876896931
 243 00e4 07D57C36 		.word	914150663
 244 00e8 2A299A62 		.word	1654270250
 245 00ec 17DD7030 		.word	812702999
 246 00f0 5A015991 		.word	-1856437926
 247 00f4 39590EF7 		.word	-150054599
 248 00f8 D8EC2F15 		.word	355462360
 249 00fc 310BC0FF 		.word	-4191439
 250 0100 67263367 		.word	1731405415
 251 0104 11155868 		.word	1750603025
 252 0108 874AB48E 		.word	-1900787065
 253 010c A78FF964 		.word	1694076839
ARM GAS  C:\Users\Phuong\AppData\Local\Temp\ccCGJz1B.s 			page 8


 254 0110 0D2E0CDB 		.word	-619958771
 255 0114 A44FFABE 		.word	-1090891868
 256 0118 1D48B547 		.word	1203062813
 257              		.cfi_endproc
 258              	.LFE4:
 259              		.size	mbedtls_sha512_starts_ret, .-mbedtls_sha512_starts_ret
 260              		.section	.text.mbedtls_sha512_starts,"ax",%progbits
 261              		.align	2
 262              		.global	mbedtls_sha512_starts
 263              		.code	16
 264              		.thumb_func
 265              		.type	mbedtls_sha512_starts, %function
 266              	mbedtls_sha512_starts:
 267              	.LFB5:
 147:Source\mbedtls_open\library/sha512.c **** 
 148:Source\mbedtls_open\library/sha512.c **** #if !defined(MBEDTLS_DEPRECATED_REMOVED)
 149:Source\mbedtls_open\library/sha512.c **** void mbedtls_sha512_starts( mbedtls_sha512_context *ctx,
 150:Source\mbedtls_open\library/sha512.c ****                             int is384 )
 151:Source\mbedtls_open\library/sha512.c **** {
 268              		.loc 1 151 0
 269              		.cfi_startproc
 270              		@ args = 0, pretend = 0, frame = 0
 271              		@ frame_needed = 0, uses_anonymous_args = 0
 272              	.LVL8:
 273 0000 10B5     		push	{r4, lr}
 274              		.cfi_def_cfa_offset 8
 275              		.cfi_offset 4, -8
 276              		.cfi_offset 14, -4
 152:Source\mbedtls_open\library/sha512.c ****     mbedtls_sha512_starts_ret( ctx, is384 );
 277              		.loc 1 152 0
 278 0002 FFF7FEFF 		bl	mbedtls_sha512_starts_ret
 279              	.LVL9:
 153:Source\mbedtls_open\library/sha512.c **** }
 280              		.loc 1 153 0
 281              		@ sp needed
 282 0006 10BD     		pop	{r4, pc}
 283              		.cfi_endproc
 284              	.LFE5:
 285              		.size	mbedtls_sha512_starts, .-mbedtls_sha512_starts
 286              		.section	.text.mbedtls_internal_sha512_process,"ax",%progbits
 287              		.align	2
 288              		.global	mbedtls_internal_sha512_process
 289              		.code	16
 290              		.thumb_func
 291              		.type	mbedtls_internal_sha512_process, %function
 292              	mbedtls_internal_sha512_process:
 293              	.LFB6:
 154:Source\mbedtls_open\library/sha512.c **** #endif
 155:Source\mbedtls_open\library/sha512.c **** 
 156:Source\mbedtls_open\library/sha512.c **** #if !defined(MBEDTLS_SHA512_PROCESS_ALT)
 157:Source\mbedtls_open\library/sha512.c **** 
 158:Source\mbedtls_open\library/sha512.c **** /*
 159:Source\mbedtls_open\library/sha512.c ****  * Round constants
 160:Source\mbedtls_open\library/sha512.c ****  */
 161:Source\mbedtls_open\library/sha512.c **** static const uint64_t K[80] =
 162:Source\mbedtls_open\library/sha512.c **** {
 163:Source\mbedtls_open\library/sha512.c ****     UL64(0x428A2F98D728AE22),  UL64(0x7137449123EF65CD),
ARM GAS  C:\Users\Phuong\AppData\Local\Temp\ccCGJz1B.s 			page 9


 164:Source\mbedtls_open\library/sha512.c ****     UL64(0xB5C0FBCFEC4D3B2F),  UL64(0xE9B5DBA58189DBBC),
 165:Source\mbedtls_open\library/sha512.c ****     UL64(0x3956C25BF348B538),  UL64(0x59F111F1B605D019),
 166:Source\mbedtls_open\library/sha512.c ****     UL64(0x923F82A4AF194F9B),  UL64(0xAB1C5ED5DA6D8118),
 167:Source\mbedtls_open\library/sha512.c ****     UL64(0xD807AA98A3030242),  UL64(0x12835B0145706FBE),
 168:Source\mbedtls_open\library/sha512.c ****     UL64(0x243185BE4EE4B28C),  UL64(0x550C7DC3D5FFB4E2),
 169:Source\mbedtls_open\library/sha512.c ****     UL64(0x72BE5D74F27B896F),  UL64(0x80DEB1FE3B1696B1),
 170:Source\mbedtls_open\library/sha512.c ****     UL64(0x9BDC06A725C71235),  UL64(0xC19BF174CF692694),
 171:Source\mbedtls_open\library/sha512.c ****     UL64(0xE49B69C19EF14AD2),  UL64(0xEFBE4786384F25E3),
 172:Source\mbedtls_open\library/sha512.c ****     UL64(0x0FC19DC68B8CD5B5),  UL64(0x240CA1CC77AC9C65),
 173:Source\mbedtls_open\library/sha512.c ****     UL64(0x2DE92C6F592B0275),  UL64(0x4A7484AA6EA6E483),
 174:Source\mbedtls_open\library/sha512.c ****     UL64(0x5CB0A9DCBD41FBD4),  UL64(0x76F988DA831153B5),
 175:Source\mbedtls_open\library/sha512.c ****     UL64(0x983E5152EE66DFAB),  UL64(0xA831C66D2DB43210),
 176:Source\mbedtls_open\library/sha512.c ****     UL64(0xB00327C898FB213F),  UL64(0xBF597FC7BEEF0EE4),
 177:Source\mbedtls_open\library/sha512.c ****     UL64(0xC6E00BF33DA88FC2),  UL64(0xD5A79147930AA725),
 178:Source\mbedtls_open\library/sha512.c ****     UL64(0x06CA6351E003826F),  UL64(0x142929670A0E6E70),
 179:Source\mbedtls_open\library/sha512.c ****     UL64(0x27B70A8546D22FFC),  UL64(0x2E1B21385C26C926),
 180:Source\mbedtls_open\library/sha512.c ****     UL64(0x4D2C6DFC5AC42AED),  UL64(0x53380D139D95B3DF),
 181:Source\mbedtls_open\library/sha512.c ****     UL64(0x650A73548BAF63DE),  UL64(0x766A0ABB3C77B2A8),
 182:Source\mbedtls_open\library/sha512.c ****     UL64(0x81C2C92E47EDAEE6),  UL64(0x92722C851482353B),
 183:Source\mbedtls_open\library/sha512.c ****     UL64(0xA2BFE8A14CF10364),  UL64(0xA81A664BBC423001),
 184:Source\mbedtls_open\library/sha512.c ****     UL64(0xC24B8B70D0F89791),  UL64(0xC76C51A30654BE30),
 185:Source\mbedtls_open\library/sha512.c ****     UL64(0xD192E819D6EF5218),  UL64(0xD69906245565A910),
 186:Source\mbedtls_open\library/sha512.c ****     UL64(0xF40E35855771202A),  UL64(0x106AA07032BBD1B8),
 187:Source\mbedtls_open\library/sha512.c ****     UL64(0x19A4C116B8D2D0C8),  UL64(0x1E376C085141AB53),
 188:Source\mbedtls_open\library/sha512.c ****     UL64(0x2748774CDF8EEB99),  UL64(0x34B0BCB5E19B48A8),
 189:Source\mbedtls_open\library/sha512.c ****     UL64(0x391C0CB3C5C95A63),  UL64(0x4ED8AA4AE3418ACB),
 190:Source\mbedtls_open\library/sha512.c ****     UL64(0x5B9CCA4F7763E373),  UL64(0x682E6FF3D6B2B8A3),
 191:Source\mbedtls_open\library/sha512.c ****     UL64(0x748F82EE5DEFB2FC),  UL64(0x78A5636F43172F60),
 192:Source\mbedtls_open\library/sha512.c ****     UL64(0x84C87814A1F0AB72),  UL64(0x8CC702081A6439EC),
 193:Source\mbedtls_open\library/sha512.c ****     UL64(0x90BEFFFA23631E28),  UL64(0xA4506CEBDE82BDE9),
 194:Source\mbedtls_open\library/sha512.c ****     UL64(0xBEF9A3F7B2C67915),  UL64(0xC67178F2E372532B),
 195:Source\mbedtls_open\library/sha512.c ****     UL64(0xCA273ECEEA26619C),  UL64(0xD186B8C721C0C207),
 196:Source\mbedtls_open\library/sha512.c ****     UL64(0xEADA7DD6CDE0EB1E),  UL64(0xF57D4F7FEE6ED178),
 197:Source\mbedtls_open\library/sha512.c ****     UL64(0x06F067AA72176FBA),  UL64(0x0A637DC5A2C898A6),
 198:Source\mbedtls_open\library/sha512.c ****     UL64(0x113F9804BEF90DAE),  UL64(0x1B710B35131C471B),
 199:Source\mbedtls_open\library/sha512.c ****     UL64(0x28DB77F523047D84),  UL64(0x32CAAB7B40C72493),
 200:Source\mbedtls_open\library/sha512.c ****     UL64(0x3C9EBE0A15C9BEBC),  UL64(0x431D67C49C100D4C),
 201:Source\mbedtls_open\library/sha512.c ****     UL64(0x4CC5D4BECB3E42B6),  UL64(0x597F299CFC657E2A),
 202:Source\mbedtls_open\library/sha512.c ****     UL64(0x5FCB6FAB3AD6FAEC),  UL64(0x6C44198C4A475817)
 203:Source\mbedtls_open\library/sha512.c **** };
 204:Source\mbedtls_open\library/sha512.c **** 
 205:Source\mbedtls_open\library/sha512.c **** int mbedtls_internal_sha512_process( mbedtls_sha512_context *ctx,
 206:Source\mbedtls_open\library/sha512.c ****                                      const unsigned char data[128] )
 207:Source\mbedtls_open\library/sha512.c **** {
 294              		.loc 1 207 0
 295              		.cfi_startproc
 296              		@ args = 0, pretend = 0, frame = 1040
 297              		@ frame_needed = 0, uses_anonymous_args = 0
 298              	.LVL10:
 299 0000 F0B5     		push	{r4, r5, r6, r7, lr}
 300              		.cfi_def_cfa_offset 20
 301              		.cfi_offset 4, -20
 302              		.cfi_offset 5, -16
 303              		.cfi_offset 6, -12
 304              		.cfi_offset 7, -8
 305              		.cfi_offset 14, -4
 306 0002 5F46     		mov	r7, fp
ARM GAS  C:\Users\Phuong\AppData\Local\Temp\ccCGJz1B.s 			page 10


 307 0004 5646     		mov	r6, r10
 308 0006 4D46     		mov	r5, r9
 309 0008 4446     		mov	r4, r8
 310 000a F0B4     		push	{r4, r5, r6, r7}
 311              		.cfi_def_cfa_offset 36
 312              		.cfi_offset 8, -36
 313              		.cfi_offset 9, -32
 314              		.cfi_offset 10, -28
 315              		.cfi_offset 11, -24
 316 000c 124C     		ldr	r4, .L17
 317 000e A544     		add	sp, sp, r4
 318              		.cfi_def_cfa_offset 1080
 319 0010 5D90     		str	r0, [sp, #372]
 320 0012 0D00     		movs	r5, r1
 321              	.LVL11:
 208:Source\mbedtls_open\library/sha512.c ****     int i;
 209:Source\mbedtls_open\library/sha512.c ****     uint64_t temp1, temp2, W[80];
 210:Source\mbedtls_open\library/sha512.c ****     uint64_t A, B, C, D, E, F, G, H;
 211:Source\mbedtls_open\library/sha512.c **** 
 212:Source\mbedtls_open\library/sha512.c **** #define  SHR(x,n) (x >> n)
 213:Source\mbedtls_open\library/sha512.c **** #define ROTR(x,n) (SHR(x,n) | (x << (64 - n)))
 214:Source\mbedtls_open\library/sha512.c **** 
 215:Source\mbedtls_open\library/sha512.c **** #define S0(x) (ROTR(x, 1) ^ ROTR(x, 8) ^  SHR(x, 7))
 216:Source\mbedtls_open\library/sha512.c **** #define S1(x) (ROTR(x,19) ^ ROTR(x,61) ^  SHR(x, 6))
 217:Source\mbedtls_open\library/sha512.c **** 
 218:Source\mbedtls_open\library/sha512.c **** #define S2(x) (ROTR(x,28) ^ ROTR(x,34) ^ ROTR(x,39))
 219:Source\mbedtls_open\library/sha512.c **** #define S3(x) (ROTR(x,14) ^ ROTR(x,18) ^ ROTR(x,41))
 220:Source\mbedtls_open\library/sha512.c **** 
 221:Source\mbedtls_open\library/sha512.c **** #define F0(x,y,z) ((x & y) | (z & (x | y)))
 222:Source\mbedtls_open\library/sha512.c **** #define F1(x,y,z) (z ^ (x & (y ^ z)))
 223:Source\mbedtls_open\library/sha512.c **** 
 224:Source\mbedtls_open\library/sha512.c **** #define P(a,b,c,d,e,f,g,h,x,K)                  \
 225:Source\mbedtls_open\library/sha512.c **** {                                               \
 226:Source\mbedtls_open\library/sha512.c ****     temp1 = h + S3(e) + F1(e,f,g) + K + x;      \
 227:Source\mbedtls_open\library/sha512.c ****     temp2 = S2(a) + F0(a,b,c);                  \
 228:Source\mbedtls_open\library/sha512.c ****     d += temp1; h = temp1 + temp2;              \
 229:Source\mbedtls_open\library/sha512.c **** }
 230:Source\mbedtls_open\library/sha512.c **** 
 231:Source\mbedtls_open\library/sha512.c ****     for( i = 0; i < 16; i++ )
 322              		.loc 1 231 0
 323 0014 0024     		movs	r4, #0
 324 0016 1BE0     		b	.L12
 325              	.LVL12:
 326              	.L13:
 232:Source\mbedtls_open\library/sha512.c ****     {
 233:Source\mbedtls_open\library/sha512.c ****         GET_UINT64_BE( W[i], data, i << 3 );
 327              		.loc 1 233 0 discriminator 3
 328 0018 E200     		lsls	r2, r4, #3
 329 001a AE5C     		ldrb	r6, [r5, r2]
 330 001c 3606     		lsls	r6, r6, #24
 331 001e AB18     		adds	r3, r5, r2
 332 0020 5978     		ldrb	r1, [r3, #1]
 333 0022 0904     		lsls	r1, r1, #16
 334 0024 3143     		orrs	r1, r6
 335 0026 9E78     		ldrb	r6, [r3, #2]
 336 0028 3602     		lsls	r6, r6, #8
 337 002a 0E43     		orrs	r6, r1
ARM GAS  C:\Users\Phuong\AppData\Local\Temp\ccCGJz1B.s 			page 11


 338 002c DF78     		ldrb	r7, [r3, #3]
 339 002e 1979     		ldrb	r1, [r3, #4]
 340 0030 0806     		lsls	r0, r1, #24
 341 0032 5979     		ldrb	r1, [r3, #5]
 342 0034 0904     		lsls	r1, r1, #16
 343 0036 0143     		orrs	r1, r0
 344 0038 9879     		ldrb	r0, [r3, #6]
 345 003a 0002     		lsls	r0, r0, #8
 346 003c 0143     		orrs	r1, r0
 347 003e 3E43     		orrs	r6, r7
 348 0040 DB79     		ldrb	r3, [r3, #7]
 349 0042 1943     		orrs	r1, r3
 350 0044 64AB     		add	r3, sp, #400
 351 0046 9C46     		mov	ip, r3
 352 0048 6244     		add	r2, r2, ip
 353 004a 1160     		str	r1, [r2]
 354 004c 5660     		str	r6, [r2, #4]
 231:Source\mbedtls_open\library/sha512.c ****     {
 355              		.loc 1 231 0 discriminator 3
 356 004e 0134     		adds	r4, r4, #1
 357              	.LVL13:
 358              	.L12:
 231:Source\mbedtls_open\library/sha512.c ****     {
 359              		.loc 1 231 0 is_stmt 0 discriminator 1
 360 0050 0F2C     		cmp	r4, #15
 361 0052 E1DD     		ble	.L13
 362 0054 6DE0     		b	.L14
 363              	.L18:
 364 0056 C046     		.align	2
 365              	.L17:
 366 0058 ECFBFFFF 		.word	-1044
 367              	.LVL14:
 368              	.L15:
 234:Source\mbedtls_open\library/sha512.c ****     }
 235:Source\mbedtls_open\library/sha512.c **** 
 236:Source\mbedtls_open\library/sha512.c ****     for( ; i < 80; i++ )
 237:Source\mbedtls_open\library/sha512.c ****     {
 238:Source\mbedtls_open\library/sha512.c ****         W[i] = S1(W[i -  2]) + W[i -  7] +
 369              		.loc 1 238 0 is_stmt 1 discriminator 2
 370 005c A21E     		subs	r2, r4, #2
 371 005e D200     		lsls	r2, r2, #3
 372 0060 64AB     		add	r3, sp, #400
 373 0062 9C46     		mov	ip, r3
 374 0064 6244     		add	r2, r2, ip
 375 0066 1368     		ldr	r3, [r2]
 376 0068 5268     		ldr	r2, [r2, #4]
 377 006a 5003     		lsls	r0, r2, #13
 378 006c D90C     		lsrs	r1, r3, #19
 379 006e 0843     		orrs	r0, r1
 380 0070 8446     		mov	ip, r0
 381 0072 5D03     		lsls	r5, r3, #13
 382 0074 D10C     		lsrs	r1, r2, #19
 383 0076 0D43     		orrs	r5, r1
 384 0078 580F     		lsrs	r0, r3, #29
 385 007a D100     		lsls	r1, r2, #3
 386 007c 0143     		orrs	r1, r0
 387 007e 500F     		lsrs	r0, r2, #29
ARM GAS  C:\Users\Phuong\AppData\Local\Temp\ccCGJz1B.s 			page 12


 388 0080 8046     		mov	r8, r0
 389 0082 D800     		lsls	r0, r3, #3
 390 0084 4646     		mov	r6, r8
 391 0086 3043     		orrs	r0, r6
 392 0088 6646     		mov	r6, ip
 393 008a 7040     		eors	r0, r6
 394 008c 6940     		eors	r1, r5
 395 008e 9506     		lsls	r5, r2, #26
 396 0090 9B09     		lsrs	r3, r3, #6
 397 0092 2B43     		orrs	r3, r5
 398 0094 9209     		lsrs	r2, r2, #6
 399 0096 5840     		eors	r0, r3
 400 0098 0090     		str	r0, [sp]
 401 009a 5140     		eors	r1, r2
 402 009c 0191     		str	r1, [sp, #4]
 403 009e E31F     		subs	r3, r4, #7
 404 00a0 DB00     		lsls	r3, r3, #3
 405 00a2 64AA     		add	r2, sp, #400
 406 00a4 9446     		mov	ip, r2
 407 00a6 6344     		add	r3, r3, ip
 408 00a8 1868     		ldr	r0, [r3]
 409 00aa 5968     		ldr	r1, [r3, #4]
 410 00ac 009A     		ldr	r2, [sp]
 411 00ae 019B     		ldr	r3, [sp, #4]
 412 00b0 8018     		adds	r0, r0, r2
 413 00b2 5941     		adcs	r1, r1, r3
 239:Source\mbedtls_open\library/sha512.c ****                S0(W[i - 15]) + W[i - 16];
 414              		.loc 1 239 0 discriminator 2
 415 00b4 2200     		movs	r2, r4
 416 00b6 0F3A     		subs	r2, r2, #15
 417 00b8 D200     		lsls	r2, r2, #3
 418 00ba 6244     		add	r2, r2, ip
 419 00bc 1368     		ldr	r3, [r2]
 420 00be 5268     		ldr	r2, [r2, #4]
 421 00c0 D507     		lsls	r5, r2, #31
 422 00c2 A946     		mov	r9, r5
 423 00c4 5D08     		lsrs	r5, r3, #1
 424 00c6 4E46     		mov	r6, r9
 425 00c8 2E43     		orrs	r6, r5
 426 00ca B146     		mov	r9, r6
 427 00cc DD07     		lsls	r5, r3, #31
 428 00ce A846     		mov	r8, r5
 429 00d0 5508     		lsrs	r5, r2, #1
 430 00d2 4646     		mov	r6, r8
 431 00d4 2E43     		orrs	r6, r5
 432 00d6 B046     		mov	r8, r6
 433 00d8 1506     		lsls	r5, r2, #24
 434 00da AC46     		mov	ip, r5
 435 00dc 1D0A     		lsrs	r5, r3, #8
 436 00de 6646     		mov	r6, ip
 437 00e0 2E43     		orrs	r6, r5
 438 00e2 B446     		mov	ip, r6
 439 00e4 1D06     		lsls	r5, r3, #24
 440 00e6 AA46     		mov	r10, r5
 441 00e8 150A     		lsrs	r5, r2, #8
 442 00ea 5646     		mov	r6, r10
 443 00ec 3543     		orrs	r5, r6
ARM GAS  C:\Users\Phuong\AppData\Local\Temp\ccCGJz1B.s 			page 13


 444 00ee 4E46     		mov	r6, r9
 445 00f0 6746     		mov	r7, ip
 446 00f2 7E40     		eors	r6, r7
 447 00f4 B446     		mov	ip, r6
 448 00f6 4646     		mov	r6, r8
 449 00f8 7540     		eors	r5, r6
 450 00fa 5606     		lsls	r6, r2, #25
 451 00fc DB09     		lsrs	r3, r3, #7
 452 00fe 3343     		orrs	r3, r6
 453 0100 D209     		lsrs	r2, r2, #7
 454 0102 6646     		mov	r6, ip
 455 0104 5E40     		eors	r6, r3
 456 0106 0296     		str	r6, [sp, #8]
 457 0108 5540     		eors	r5, r2
 458 010a 0395     		str	r5, [sp, #12]
 238:Source\mbedtls_open\library/sha512.c ****                S0(W[i - 15]) + W[i - 16];
 459              		.loc 1 238 0 discriminator 2
 460 010c 029A     		ldr	r2, [sp, #8]
 461 010e 039B     		ldr	r3, [sp, #12]
 462 0110 8018     		adds	r0, r0, r2
 463 0112 5941     		adcs	r1, r1, r3
 464              		.loc 1 239 0 discriminator 2
 465 0114 2300     		movs	r3, r4
 466 0116 103B     		subs	r3, r3, #16
 467 0118 DB00     		lsls	r3, r3, #3
 468 011a 64AA     		add	r2, sp, #400
 469 011c 9446     		mov	ip, r2
 470 011e 6344     		add	r3, r3, ip
 471 0120 1A68     		ldr	r2, [r3]
 472 0122 5B68     		ldr	r3, [r3, #4]
 473 0124 8018     		adds	r0, r0, r2
 474 0126 5941     		adcs	r1, r1, r3
 238:Source\mbedtls_open\library/sha512.c ****                S0(W[i - 15]) + W[i - 16];
 475              		.loc 1 238 0 discriminator 2
 476 0128 E300     		lsls	r3, r4, #3
 477 012a 6344     		add	r3, r3, ip
 478 012c 1860     		str	r0, [r3]
 479 012e 5960     		str	r1, [r3, #4]
 236:Source\mbedtls_open\library/sha512.c ****     {
 480              		.loc 1 236 0 discriminator 2
 481 0130 0134     		adds	r4, r4, #1
 482              	.LVL15:
 483              	.L14:
 236:Source\mbedtls_open\library/sha512.c ****     {
 484              		.loc 1 236 0 is_stmt 0 discriminator 1
 485 0132 4F2C     		cmp	r4, #79
 486 0134 92DD     		ble	.L15
 240:Source\mbedtls_open\library/sha512.c ****     }
 241:Source\mbedtls_open\library/sha512.c **** 
 242:Source\mbedtls_open\library/sha512.c ****     A = ctx->state[0];
 487              		.loc 1 242 0 is_stmt 1
 488 0136 5D9F     		ldr	r7, [sp, #372]
 489 0138 3B69     		ldr	r3, [r7, #16]
 490 013a 7C69     		ldr	r4, [r7, #20]
 491 013c 5293     		str	r3, [sp, #328]
 492 013e 5394     		str	r4, [sp, #332]
 493              	.LVL16:
ARM GAS  C:\Users\Phuong\AppData\Local\Temp\ccCGJz1B.s 			page 14


 243:Source\mbedtls_open\library/sha512.c ****     B = ctx->state[1];
 494              		.loc 1 243 0
 495 0140 BA69     		ldr	r2, [r7, #24]
 496 0142 FB69     		ldr	r3, [r7, #28]
 497 0144 5492     		str	r2, [sp, #336]
 498 0146 5593     		str	r3, [sp, #340]
 499              	.LVL17:
 244:Source\mbedtls_open\library/sha512.c ****     C = ctx->state[2];
 500              		.loc 1 244 0
 501 0148 396A     		ldr	r1, [r7, #32]
 502 014a 7A6A     		ldr	r2, [r7, #36]
 503 014c 5691     		str	r1, [sp, #344]
 504 014e 5792     		str	r2, [sp, #348]
 505              	.LVL18:
 245:Source\mbedtls_open\library/sha512.c ****     D = ctx->state[3];
 506              		.loc 1 245 0
 507 0150 3B00     		movs	r3, r7
 508              	.LVL19:
 509 0152 B86A     		ldr	r0, [r7, #40]
 510 0154 F96A     		ldr	r1, [r7, #44]
 511 0156 5E90     		str	r0, [sp, #376]
 512 0158 5F91     		str	r1, [sp, #380]
 513              	.LVL20:
 246:Source\mbedtls_open\library/sha512.c ****     E = ctx->state[4];
 514              		.loc 1 246 0
 515 015a 3C6B     		ldr	r4, [r7, #48]
 516 015c 7D6B     		ldr	r5, [r7, #52]
 517              	.LVL21:
 518 015e 5894     		str	r4, [sp, #352]
 519 0160 5995     		str	r5, [sp, #356]
 520              	.LVL22:
 247:Source\mbedtls_open\library/sha512.c ****     F = ctx->state[5];
 521              		.loc 1 247 0
 522 0162 BD6B     		ldr	r5, [r7, #56]
 523 0164 FE6B     		ldr	r6, [r7, #60]
 524 0166 5A95     		str	r5, [sp, #360]
 525 0168 5B96     		str	r6, [sp, #364]
 526              	.LVL23:
 248:Source\mbedtls_open\library/sha512.c ****     G = ctx->state[6];
 527              		.loc 1 248 0
 528 016a 3E6C     		ldr	r6, [r7, #64]
 529 016c 7F6C     		ldr	r7, [r7, #68]
 530 016e 3500     		movs	r5, r6
 531              	.LVL24:
 532 0170 3E00     		movs	r6, r7
 533 0172 6095     		str	r5, [sp, #384]
 534 0174 6196     		str	r6, [sp, #388]
 535              	.LVL25:
 249:Source\mbedtls_open\library/sha512.c ****     H = ctx->state[7];
 536              		.loc 1 249 0
 537 0176 DC6C     		ldr	r4, [r3, #76]
 538 0178 9B6C     		ldr	r3, [r3, #72]
 539              	.LVL26:
 540 017a 6293     		str	r3, [sp, #392]
 541 017c 6394     		str	r4, [sp, #396]
 542              	.LVL27:
 543 017e 0693     		str	r3, [sp, #24]
ARM GAS  C:\Users\Phuong\AppData\Local\Temp\ccCGJz1B.s 			page 15


 544 0180 0794     		str	r4, [sp, #28]
 248:Source\mbedtls_open\library/sha512.c ****     G = ctx->state[6];
 545              		.loc 1 248 0
 546 0182 3700     		movs	r7, r6
 547              	.LVL28:
 548 0184 2E00     		movs	r6, r5
 549 0186 0096     		str	r6, [sp]
 550 0188 0197     		str	r7, [sp, #4]
 247:Source\mbedtls_open\library/sha512.c ****     F = ctx->state[5];
 551              		.loc 1 247 0
 552 018a 5A9D     		ldr	r5, [sp, #360]
 553 018c 5B9E     		ldr	r6, [sp, #364]
 554              	.LVL29:
 555 018e 0495     		str	r5, [sp, #16]
 556 0190 0596     		str	r6, [sp, #20]
 246:Source\mbedtls_open\library/sha512.c ****     F = ctx->state[5];
 557              		.loc 1 246 0
 558 0192 589C     		ldr	r4, [sp, #352]
 559 0194 599D     		ldr	r5, [sp, #356]
 560 0196 0894     		str	r4, [sp, #32]
 561 0198 0995     		str	r5, [sp, #36]
 245:Source\mbedtls_open\library/sha512.c ****     E = ctx->state[4];
 562              		.loc 1 245 0
 563 019a 0A90     		str	r0, [sp, #40]
 564 019c 0B91     		str	r1, [sp, #44]
 244:Source\mbedtls_open\library/sha512.c ****     D = ctx->state[3];
 565              		.loc 1 244 0
 566 019e 5699     		ldr	r1, [sp, #344]
 567 01a0 579A     		ldr	r2, [sp, #348]
 568 01a2 1091     		str	r1, [sp, #64]
 569 01a4 1192     		str	r2, [sp, #68]
 243:Source\mbedtls_open\library/sha512.c ****     C = ctx->state[2];
 570              		.loc 1 243 0
 571 01a6 549A     		ldr	r2, [sp, #336]
 572 01a8 559B     		ldr	r3, [sp, #340]
 573 01aa 0C92     		str	r2, [sp, #48]
 574 01ac 0D93     		str	r3, [sp, #52]
 242:Source\mbedtls_open\library/sha512.c ****     B = ctx->state[1];
 575              		.loc 1 242 0
 576 01ae 529B     		ldr	r3, [sp, #328]
 577 01b0 539C     		ldr	r4, [sp, #332]
 578              	.LVL30:
 579 01b2 0293     		str	r3, [sp, #8]
 580 01b4 0394     		str	r4, [sp, #12]
 250:Source\mbedtls_open\library/sha512.c ****     i = 0;
 581              		.loc 1 250 0
 582 01b6 0023     		movs	r3, #0
 583 01b8 9A46     		mov	r10, r3
 584              	.LVL31:
 585              	.L16:
 251:Source\mbedtls_open\library/sha512.c **** 
 252:Source\mbedtls_open\library/sha512.c ****     do
 253:Source\mbedtls_open\library/sha512.c ****     {
 254:Source\mbedtls_open\library/sha512.c ****         P( A, B, C, D, E, F, G, H, W[i], K[i] ); i++;
 586              		.loc 1 254 0 discriminator 1
 587 01ba 089D     		ldr	r5, [sp, #32]
 588 01bc 099E     		ldr	r6, [sp, #36]
ARM GAS  C:\Users\Phuong\AppData\Local\Temp\ccCGJz1B.s 			page 16


 589 01be B204     		lsls	r2, r6, #18
 590 01c0 AB0B     		lsrs	r3, r5, #14
 591 01c2 1A43     		orrs	r2, r3
 592 01c4 1400     		movs	r4, r2
 593 01c6 A904     		lsls	r1, r5, #18
 594 01c8 B30B     		lsrs	r3, r6, #14
 595 01ca 1943     		orrs	r1, r3
 596 01cc B203     		lsls	r2, r6, #14
 597 01ce AB0C     		lsrs	r3, r5, #18
 598 01d0 1A43     		orrs	r2, r3
 599 01d2 1000     		movs	r0, r2
 600 01d4 AB03     		lsls	r3, r5, #14
 601 01d6 B20C     		lsrs	r2, r6, #18
 602 01d8 1343     		orrs	r3, r2
 603 01da 2200     		movs	r2, r4
 604 01dc 4240     		eors	r2, r0
 605 01de 4B40     		eors	r3, r1
 606 01e0 680A     		lsrs	r0, r5, #9
 607 01e2 F105     		lsls	r1, r6, #23
 608 01e4 0143     		orrs	r1, r0
 609 01e6 740A     		lsrs	r4, r6, #9
 610 01e8 E805     		lsls	r0, r5, #23
 611 01ea 2043     		orrs	r0, r4
 612 01ec 4240     		eors	r2, r0
 613 01ee 1292     		str	r2, [sp, #72]
 614 01f0 4B40     		eors	r3, r1
 615 01f2 1393     		str	r3, [sp, #76]
 616 01f4 0698     		ldr	r0, [sp, #24]
 617 01f6 0799     		ldr	r1, [sp, #28]
 618 01f8 129B     		ldr	r3, [sp, #72]
 619 01fa 139C     		ldr	r4, [sp, #76]
 620 01fc C018     		adds	r0, r0, r3
 621 01fe 6141     		adcs	r1, r1, r4
 622 0200 049B     		ldr	r3, [sp, #16]
 623 0202 059C     		ldr	r4, [sp, #20]
 624 0204 1A00     		movs	r2, r3
 625 0206 009F     		ldr	r7, [sp]
 626 0208 7A40     		eors	r2, r7
 627 020a 2300     		movs	r3, r4
 628 020c 019C     		ldr	r4, [sp, #4]
 629 020e 6340     		eors	r3, r4
 630 0210 2C00     		movs	r4, r5
 631 0212 3500     		movs	r5, r6
 632 0214 2240     		ands	r2, r4
 633 0216 2B40     		ands	r3, r5
 634 0218 009D     		ldr	r5, [sp]
 635 021a 019E     		ldr	r6, [sp, #4]
 636 021c 2F00     		movs	r7, r5
 637 021e 5740     		eors	r7, r2
 638 0220 1497     		str	r7, [sp, #80]
 639 0222 5E40     		eors	r6, r3
 640 0224 1596     		str	r6, [sp, #84]
 641 0226 149E     		ldr	r6, [sp, #80]
 642 0228 159F     		ldr	r7, [sp, #84]
 643 022a 8019     		adds	r0, r0, r6
 644 022c 7941     		adcs	r1, r1, r7
 645 022e E94E     		ldr	r6, .L19
ARM GAS  C:\Users\Phuong\AppData\Local\Temp\ccCGJz1B.s 			page 17


 646 0230 B346     		mov	fp, r6
 647 0232 5646     		mov	r6, r10
 648 0234 F400     		lsls	r4, r6, #3
 649 0236 5E46     		mov	r6, fp
 650 0238 3319     		adds	r3, r6, r4
 651 023a 1A68     		ldr	r2, [r3]
 652 023c 5B68     		ldr	r3, [r3, #4]
 653 023e 8018     		adds	r0, r0, r2
 654 0240 5941     		adcs	r1, r1, r3
 655 0242 64AB     		add	r3, sp, #400
 656 0244 9C46     		mov	ip, r3
 657 0246 6444     		add	r4, r4, ip
 658 0248 2268     		ldr	r2, [r4]
 659 024a 6368     		ldr	r3, [r4, #4]
 660 024c 8018     		adds	r0, r0, r2
 661 024e 5941     		adcs	r1, r1, r3
 662 0250 0690     		str	r0, [sp, #24]
 663 0252 0791     		str	r1, [sp, #28]
 664              	.LVL32:
 665 0254 0299     		ldr	r1, [sp, #8]
 666 0256 039A     		ldr	r2, [sp, #12]
 667 0258 1401     		lsls	r4, r2, #4
 668 025a 0B0F     		lsrs	r3, r1, #28
 669 025c 2600     		movs	r6, r4
 670 025e 1E43     		orrs	r6, r3
 671 0260 1400     		movs	r4, r2
 672 0262 0A01     		lsls	r2, r1, #4
 673 0264 230F     		lsrs	r3, r4, #28
 674 0266 1500     		movs	r5, r2
 675 0268 1D43     		orrs	r5, r3
 676 026a 029B     		ldr	r3, [sp, #8]
 677 026c 039C     		ldr	r4, [sp, #12]
 678 026e 9A08     		lsrs	r2, r3, #2
 679 0270 A307     		lsls	r3, r4, #30
 680 0272 1343     		orrs	r3, r2
 681 0274 0299     		ldr	r1, [sp, #8]
 682 0276 039A     		ldr	r2, [sp, #12]
 683 0278 9408     		lsrs	r4, r2, #2
 684 027a 8A07     		lsls	r2, r1, #30
 685 027c 1443     		orrs	r4, r2
 686 027e 7440     		eors	r4, r6
 687 0280 5D40     		eors	r5, r3
 688 0282 2A00     		movs	r2, r5
 689 0284 029E     		ldr	r6, [sp, #8]
 690 0286 039F     		ldr	r7, [sp, #12]
 691 0288 F509     		lsrs	r5, r6, #7
 692 028a 7B06     		lsls	r3, r7, #25
 693 028c 2B43     		orrs	r3, r5
 694 028e FE09     		lsrs	r6, r7, #7
 695 0290 0298     		ldr	r0, [sp, #8]
 696              	.LVL33:
 697 0292 4506     		lsls	r5, r0, #25
 698 0294 3543     		orrs	r5, r6
 699 0296 6C40     		eors	r4, r5
 700 0298 1694     		str	r4, [sp, #88]
 701 029a 1700     		movs	r7, r2
 702 029c 5F40     		eors	r7, r3
ARM GAS  C:\Users\Phuong\AppData\Local\Temp\ccCGJz1B.s 			page 18


 703 029e 1797     		str	r7, [sp, #92]
 704 02a0 0C9A     		ldr	r2, [sp, #48]
 705 02a2 0D9B     		ldr	r3, [sp, #52]
 706 02a4 1500     		movs	r5, r2
 707 02a6 029E     		ldr	r6, [sp, #8]
 708 02a8 039F     		ldr	r7, [sp, #12]
 709 02aa 3540     		ands	r5, r6
 710 02ac 1C00     		movs	r4, r3
 711 02ae 3C40     		ands	r4, r7
 712 02b0 3000     		movs	r0, r6
 713 02b2 1043     		orrs	r0, r2
 714 02b4 0200     		movs	r2, r0
 715 02b6 3B00     		movs	r3, r7
 716 02b8 0D98     		ldr	r0, [sp, #52]
 717 02ba 0343     		orrs	r3, r0
 718 02bc 109E     		ldr	r6, [sp, #64]
 719 02be 119F     		ldr	r7, [sp, #68]
 720 02c0 3240     		ands	r2, r6
 721 02c2 3B40     		ands	r3, r7
 722 02c4 2800     		movs	r0, r5
 723 02c6 1043     		orrs	r0, r2
 724 02c8 1890     		str	r0, [sp, #96]
 725 02ca 2000     		movs	r0, r4
 726 02cc 1843     		orrs	r0, r3
 727 02ce 1990     		str	r0, [sp, #100]
 728 02d0 169C     		ldr	r4, [sp, #88]
 729 02d2 179D     		ldr	r5, [sp, #92]
 730 02d4 189E     		ldr	r6, [sp, #96]
 731 02d6 199F     		ldr	r7, [sp, #100]
 732 02d8 A419     		adds	r4, r4, r6
 733 02da 7D41     		adcs	r5, r5, r7
 734              	.LVL34:
 735 02dc 0A9A     		ldr	r2, [sp, #40]
 736 02de 0B9B     		ldr	r3, [sp, #44]
 737 02e0 0698     		ldr	r0, [sp, #24]
 738 02e2 0799     		ldr	r1, [sp, #28]
 739 02e4 1218     		adds	r2, r2, r0
 740 02e6 4B41     		adcs	r3, r3, r1
 741              	.LVL35:
 742 02e8 0019     		adds	r0, r0, r4
 743 02ea 6941     		adcs	r1, r1, r5
 744 02ec 0690     		str	r0, [sp, #24]
 745 02ee 0791     		str	r1, [sp, #28]
 746              	.LVL36:
 747 02f0 5746     		mov	r7, r10
 748 02f2 7C1C     		adds	r4, r7, #1
 749              	.LVL37:
 255:Source\mbedtls_open\library/sha512.c ****         P( H, A, B, C, D, E, F, G, W[i], K[i] ); i++;
 750              		.loc 1 255 0 discriminator 1
 751 02f4 9804     		lsls	r0, r3, #18
 752              	.LVL38:
 753 02f6 910B     		lsrs	r1, r2, #14
 754 02f8 0700     		movs	r7, r0
 755 02fa 0F43     		orrs	r7, r1
 756 02fc 9504     		lsls	r5, r2, #18
 757 02fe 990B     		lsrs	r1, r3, #14
 758 0300 0D43     		orrs	r5, r1
ARM GAS  C:\Users\Phuong\AppData\Local\Temp\ccCGJz1B.s 			page 19


 759 0302 9803     		lsls	r0, r3, #14
 760 0304 910C     		lsrs	r1, r2, #18
 761 0306 0843     		orrs	r0, r1
 762 0308 0600     		movs	r6, r0
 763              	.LVL39:
 764 030a 9103     		lsls	r1, r2, #14
 765 030c 980C     		lsrs	r0, r3, #18
 766 030e 0143     		orrs	r1, r0
 767 0310 7740     		eors	r7, r6
 768 0312 3800     		movs	r0, r7
 769 0314 6940     		eors	r1, r5
 770 0316 560A     		lsrs	r6, r2, #9
 771 0318 DD05     		lsls	r5, r3, #23
 772 031a 3543     		orrs	r5, r6
 773 031c 5F0A     		lsrs	r7, r3, #9
 774 031e 0A92     		str	r2, [sp, #40]
 775 0320 0B93     		str	r3, [sp, #44]
 776 0322 D605     		lsls	r6, r2, #23
 777 0324 3E43     		orrs	r6, r7
 778 0326 7040     		eors	r0, r6
 779 0328 1A90     		str	r0, [sp, #104]
 780 032a 6940     		eors	r1, r5
 781 032c 1B91     		str	r1, [sp, #108]
 782 032e 0099     		ldr	r1, [sp]
 783 0330 019A     		ldr	r2, [sp, #4]
 784 0332 1A9D     		ldr	r5, [sp, #104]
 785 0334 1B9E     		ldr	r6, [sp, #108]
 786 0336 4919     		adds	r1, r1, r5
 787 0338 7241     		adcs	r2, r2, r6
 788 033a 0800     		movs	r0, r1
 789 033c 1100     		movs	r1, r2
 790 033e 089A     		ldr	r2, [sp, #32]
 791 0340 099B     		ldr	r3, [sp, #36]
 792              	.LVL40:
 793 0342 1500     		movs	r5, r2
 794 0344 049F     		ldr	r7, [sp, #16]
 795 0346 7D40     		eors	r5, r7
 796 0348 2E00     		movs	r6, r5
 797 034a 1D00     		movs	r5, r3
 798 034c 049A     		ldr	r2, [sp, #16]
 799 034e 059B     		ldr	r3, [sp, #20]
 800 0350 5D40     		eors	r5, r3
 801 0352 0A9F     		ldr	r7, [sp, #40]
 802 0354 3E40     		ands	r6, r7
 803 0356 0B9F     		ldr	r7, [sp, #44]
 804 0358 3D40     		ands	r5, r7
 805 035a 1700     		movs	r7, r2
 806 035c 7740     		eors	r7, r6
 807 035e 1C97     		str	r7, [sp, #112]
 808 0360 6B40     		eors	r3, r5
 809 0362 1D93     		str	r3, [sp, #116]
 810 0364 1C9D     		ldr	r5, [sp, #112]
 811 0366 1D9E     		ldr	r6, [sp, #116]
 812 0368 4019     		adds	r0, r0, r5
 813 036a 7141     		adcs	r1, r1, r6
 814 036c E400     		lsls	r4, r4, #3
 815              	.LVL41:
ARM GAS  C:\Users\Phuong\AppData\Local\Temp\ccCGJz1B.s 			page 20


 816 036e 5B46     		mov	r3, fp
 817 0370 1D19     		adds	r5, r3, r4
 818 0372 2E68     		ldr	r6, [r5]
 819 0374 6F68     		ldr	r7, [r5, #4]
 820 0376 8019     		adds	r0, r0, r6
 821 0378 7941     		adcs	r1, r1, r7
 822 037a 6444     		add	r4, r4, ip
 823 037c 6568     		ldr	r5, [r4, #4]
 824 037e 2468     		ldr	r4, [r4]
 825 0380 0019     		adds	r0, r0, r4
 826 0382 6941     		adcs	r1, r1, r5
 827 0384 0090     		str	r0, [sp]
 828 0386 0191     		str	r1, [sp, #4]
 829              	.LVL42:
 830 0388 0698     		ldr	r0, [sp, #24]
 831 038a 0799     		ldr	r1, [sp, #28]
 832              	.LVL43:
 833 038c 0E01     		lsls	r6, r1, #4
 834 038e 040F     		lsrs	r4, r0, #28
 835 0390 2643     		orrs	r6, r4
 836 0392 0501     		lsls	r5, r0, #4
 837 0394 0C0F     		lsrs	r4, r1, #28
 838 0396 2543     		orrs	r5, r4
 839 0398 8708     		lsrs	r7, r0, #2
 840 039a 8C07     		lsls	r4, r1, #30
 841 039c 3C43     		orrs	r4, r7
 842 039e 8B08     		lsrs	r3, r1, #2
 843 03a0 9C46     		mov	ip, r3
 844 03a2 8707     		lsls	r7, r0, #30
 845 03a4 6346     		mov	r3, ip
 846 03a6 1F43     		orrs	r7, r3
 847 03a8 7E40     		eors	r6, r7
 848 03aa 6540     		eors	r5, r4
 849 03ac C709     		lsrs	r7, r0, #7
 850 03ae 4C06     		lsls	r4, r1, #25
 851 03b0 3C43     		orrs	r4, r7
 852 03b2 CB09     		lsrs	r3, r1, #7
 853 03b4 9C46     		mov	ip, r3
 854 03b6 4706     		lsls	r7, r0, #25
 855 03b8 6346     		mov	r3, ip
 856 03ba 1F43     		orrs	r7, r3
 857 03bc 3300     		movs	r3, r6
 858 03be 7B40     		eors	r3, r7
 859 03c0 1E93     		str	r3, [sp, #120]
 860 03c2 6540     		eors	r5, r4
 861 03c4 1F95     		str	r5, [sp, #124]
 862 03c6 0299     		ldr	r1, [sp, #8]
 863 03c8 039A     		ldr	r2, [sp, #12]
 864 03ca 0F00     		movs	r7, r1
 865 03cc 069C     		ldr	r4, [sp, #24]
 866 03ce 079D     		ldr	r5, [sp, #28]
 867 03d0 2740     		ands	r7, r4
 868 03d2 1300     		movs	r3, r2
 869 03d4 2B40     		ands	r3, r5
 870 03d6 1E00     		movs	r6, r3
 871 03d8 0B00     		movs	r3, r1
 872 03da 2A00     		movs	r2, r5
ARM GAS  C:\Users\Phuong\AppData\Local\Temp\ccCGJz1B.s 			page 21


 873 03dc 2343     		orrs	r3, r4
 874 03de 1D00     		movs	r5, r3
 875 03e0 039B     		ldr	r3, [sp, #12]
 876 03e2 1343     		orrs	r3, r2
 877 03e4 1C00     		movs	r4, r3
 878 03e6 0C9A     		ldr	r2, [sp, #48]
 879 03e8 0D9B     		ldr	r3, [sp, #52]
 880 03ea 1540     		ands	r5, r2
 881 03ec 1C40     		ands	r4, r3
 882 03ee 2F43     		orrs	r7, r5
 883 03f0 2097     		str	r7, [sp, #128]
 884 03f2 3300     		movs	r3, r6
 885 03f4 2343     		orrs	r3, r4
 886 03f6 2193     		str	r3, [sp, #132]
 887 03f8 1E9D     		ldr	r5, [sp, #120]
 888 03fa 1F9E     		ldr	r6, [sp, #124]
 889 03fc 209B     		ldr	r3, [sp, #128]
 890 03fe 219C     		ldr	r4, [sp, #132]
 891 0400 ED18     		adds	r5, r5, r3
 892 0402 6641     		adcs	r6, r6, r4
 893 0404 2C00     		movs	r4, r5
 894 0406 3500     		movs	r5, r6
 895              	.LVL44:
 896 0408 109E     		ldr	r6, [sp, #64]
 897 040a 119F     		ldr	r7, [sp, #68]
 898 040c 0099     		ldr	r1, [sp]
 899 040e 019A     		ldr	r2, [sp, #4]
 900 0410 7618     		adds	r6, r6, r1
 901 0412 5741     		adcs	r7, r7, r2
 902 0414 0096     		str	r6, [sp]
 903 0416 0197     		str	r7, [sp, #4]
 904              	.LVL45:
 905 0418 0800     		movs	r0, r1
 906 041a 1100     		movs	r1, r2
 907              	.LVL46:
 908 041c 0019     		adds	r0, r0, r4
 909 041e 6941     		adcs	r1, r1, r5
 910 0420 0600     		movs	r6, r0
 911              	.LVL47:
 912 0422 0F00     		movs	r7, r1
 913              	.LVL48:
 914 0424 5346     		mov	r3, r10
 915 0426 9C1C     		adds	r4, r3, #2
 916              	.LVL49:
 256:Source\mbedtls_open\library/sha512.c ****         P( G, H, A, B, C, D, E, F, W[i], K[i] ); i++;
 917              		.loc 1 256 0 discriminator 1
 918 0428 009A     		ldr	r2, [sp]
 919 042a 019B     		ldr	r3, [sp, #4]
 920 042c 9804     		lsls	r0, r3, #18
 921 042e 910B     		lsrs	r1, r2, #14
 922 0430 0300     		movs	r3, r0
 923 0432 0B43     		orrs	r3, r1
 924 0434 9846     		mov	r8, r3
 925 0436 009A     		ldr	r2, [sp]
 926 0438 019B     		ldr	r3, [sp, #4]
 927 043a 9504     		lsls	r5, r2, #18
 928 043c 990B     		lsrs	r1, r3, #14
ARM GAS  C:\Users\Phuong\AppData\Local\Temp\ccCGJz1B.s 			page 22


 929 043e 0D43     		orrs	r5, r1
 930 0440 9803     		lsls	r0, r3, #14
 931 0442 910C     		lsrs	r1, r2, #18
 932 0444 0300     		movs	r3, r0
 933 0446 0B43     		orrs	r3, r1
 934 0448 9C46     		mov	ip, r3
 935 044a 009A     		ldr	r2, [sp]
 936 044c 019B     		ldr	r3, [sp, #4]
 937 044e 9103     		lsls	r1, r2, #14
 938 0450 980C     		lsrs	r0, r3, #18
 939 0452 0143     		orrs	r1, r0
 940 0454 4346     		mov	r3, r8
 941 0456 6046     		mov	r0, ip
 942 0458 4340     		eors	r3, r0
 943 045a 1800     		movs	r0, r3
 944 045c 6940     		eors	r1, r5
 945 045e 009B     		ldr	r3, [sp]
 946 0460 5B0A     		lsrs	r3, r3, #9
 947 0462 9C46     		mov	ip, r3
 948 0464 019B     		ldr	r3, [sp, #4]
 949 0466 DD05     		lsls	r5, r3, #23
 950 0468 6346     		mov	r3, ip
 951 046a 1D43     		orrs	r5, r3
 952 046c 019B     		ldr	r3, [sp, #4]
 953 046e 5B0A     		lsrs	r3, r3, #9
 954 0470 9846     		mov	r8, r3
 955 0472 009B     		ldr	r3, [sp]
 956 0474 DB05     		lsls	r3, r3, #23
 957 0476 9C46     		mov	ip, r3
 958 0478 4346     		mov	r3, r8
 959 047a 6246     		mov	r2, ip
 960 047c 1343     		orrs	r3, r2
 961 047e 4340     		eors	r3, r0
 962 0480 2293     		str	r3, [sp, #136]
 963 0482 6940     		eors	r1, r5
 964 0484 2391     		str	r1, [sp, #140]
 965 0486 0498     		ldr	r0, [sp, #16]
 966 0488 0599     		ldr	r1, [sp, #20]
 967 048a 229A     		ldr	r2, [sp, #136]
 968 048c 239B     		ldr	r3, [sp, #140]
 969 048e 8018     		adds	r0, r0, r2
 970 0490 5941     		adcs	r1, r1, r3
 971 0492 089B     		ldr	r3, [sp, #32]
 972 0494 0A9D     		ldr	r5, [sp, #40]
 973 0496 6B40     		eors	r3, r5
 974 0498 9C46     		mov	ip, r3
 975 049a 099D     		ldr	r5, [sp, #36]
 976 049c 0B9B     		ldr	r3, [sp, #44]
 977 049e 5D40     		eors	r5, r3
 978 04a0 6346     		mov	r3, ip
 979 04a2 009A     		ldr	r2, [sp]
 980 04a4 1340     		ands	r3, r2
 981 04a6 9C46     		mov	ip, r3
 982 04a8 019B     		ldr	r3, [sp, #4]
 983 04aa 1D40     		ands	r5, r3
 984 04ac 6346     		mov	r3, ip
 985 04ae 089A     		ldr	r2, [sp, #32]
ARM GAS  C:\Users\Phuong\AppData\Local\Temp\ccCGJz1B.s 			page 23


 986 04b0 5340     		eors	r3, r2
 987 04b2 2493     		str	r3, [sp, #144]
 988 04b4 099B     		ldr	r3, [sp, #36]
 989 04b6 6B40     		eors	r3, r5
 990 04b8 2593     		str	r3, [sp, #148]
 991 04ba 249A     		ldr	r2, [sp, #144]
 992 04bc 259B     		ldr	r3, [sp, #148]
 993 04be 8018     		adds	r0, r0, r2
 994 04c0 5941     		adcs	r1, r1, r3
 995 04c2 E300     		lsls	r3, r4, #3
 996 04c4 9C46     		mov	ip, r3
 997 04c6 5B46     		mov	r3, fp
 998 04c8 6344     		add	r3, r3, ip
 999 04ca 1C68     		ldr	r4, [r3]
 1000 04cc 5D68     		ldr	r5, [r3, #4]
 1001              	.LVL50:
 1002 04ce 0019     		adds	r0, r0, r4
 1003 04d0 6941     		adcs	r1, r1, r5
 1004 04d2 64AB     		add	r3, sp, #400
 1005 04d4 9846     		mov	r8, r3
 1006 04d6 C444     		add	ip, ip, r8
 1007 04d8 6446     		mov	r4, ip
 1008 04da 6568     		ldr	r5, [r4, #4]
 1009 04dc 2468     		ldr	r4, [r4]
 1010 04de 0019     		adds	r0, r0, r4
 1011 04e0 6941     		adcs	r1, r1, r5
 1012              	.LVL51:
 1013 04e2 3D01     		lsls	r5, r7, #4
 1014 04e4 340F     		lsrs	r4, r6, #28
 1015 04e6 2543     		orrs	r5, r4
 1016 04e8 A846     		mov	r8, r5
 1017 04ea 3501     		lsls	r5, r6, #4
 1018 04ec 3C0F     		lsrs	r4, r7, #28
 1019 04ee 2543     		orrs	r5, r4
 1020 04f0 A946     		mov	r9, r5
 1021 04f2 B508     		lsrs	r5, r6, #2
 1022 04f4 BC07     		lsls	r4, r7, #30
 1023 04f6 2C43     		orrs	r4, r5
 1024 04f8 BB08     		lsrs	r3, r7, #2
 1025 04fa 9C46     		mov	ip, r3
 1026 04fc B507     		lsls	r5, r6, #30
 1027 04fe 6346     		mov	r3, ip
 1028 0500 1D43     		orrs	r5, r3
 1029 0502 4346     		mov	r3, r8
 1030 0504 6B40     		eors	r3, r5
 1031 0506 9C46     		mov	ip, r3
 1032 0508 4D46     		mov	r5, r9
 1033 050a 6540     		eors	r5, r4
 1034 050c F309     		lsrs	r3, r6, #7
 1035 050e 9846     		mov	r8, r3
 1036 0510 7C06     		lsls	r4, r7, #25
 1037 0512 4346     		mov	r3, r8
 1038 0514 1C43     		orrs	r4, r3
 1039 0516 FB09     		lsrs	r3, r7, #7
 1040 0518 9946     		mov	r9, r3
 1041 051a 7306     		lsls	r3, r6, #25
 1042 051c 9846     		mov	r8, r3
ARM GAS  C:\Users\Phuong\AppData\Local\Temp\ccCGJz1B.s 			page 24


 1043 051e 4B46     		mov	r3, r9
 1044 0520 4246     		mov	r2, r8
 1045 0522 1343     		orrs	r3, r2
 1046 0524 9846     		mov	r8, r3
 1047 0526 6346     		mov	r3, ip
 1048 0528 4246     		mov	r2, r8
 1049 052a 5340     		eors	r3, r2
 1050 052c 2693     		str	r3, [sp, #152]
 1051 052e 6540     		eors	r5, r4
 1052 0530 2795     		str	r5, [sp, #156]
 1053 0532 069C     		ldr	r4, [sp, #24]
 1054 0534 079D     		ldr	r5, [sp, #28]
 1055 0536 2300     		movs	r3, r4
 1056 0538 3340     		ands	r3, r6
 1057 053a 9846     		mov	r8, r3
 1058 053c 2B00     		movs	r3, r5
 1059 053e 3B40     		ands	r3, r7
 1060 0540 9C46     		mov	ip, r3
 1061 0542 2500     		movs	r5, r4
 1062 0544 3543     		orrs	r5, r6
 1063 0546 079B     		ldr	r3, [sp, #28]
 1064 0548 1096     		str	r6, [sp, #64]
 1065 054a 1197     		str	r7, [sp, #68]
 1066 054c 3B43     		orrs	r3, r7
 1067 054e 1C00     		movs	r4, r3
 1068 0550 029E     		ldr	r6, [sp, #8]
 1069 0552 039F     		ldr	r7, [sp, #12]
 1070              	.LVL52:
 1071 0554 3540     		ands	r5, r6
 1072 0556 3C40     		ands	r4, r7
 1073 0558 4346     		mov	r3, r8
 1074 055a 2B43     		orrs	r3, r5
 1075 055c 2893     		str	r3, [sp, #160]
 1076 055e 6346     		mov	r3, ip
 1077 0560 2343     		orrs	r3, r4
 1078 0562 2993     		str	r3, [sp, #164]
 1079 0564 269C     		ldr	r4, [sp, #152]
 1080 0566 279D     		ldr	r5, [sp, #156]
 1081 0568 289A     		ldr	r2, [sp, #160]
 1082 056a 299B     		ldr	r3, [sp, #164]
 1083 056c A418     		adds	r4, r4, r2
 1084 056e 5D41     		adcs	r5, r5, r3
 1085              	.LVL53:
 1086 0570 0C9A     		ldr	r2, [sp, #48]
 1087 0572 0D9B     		ldr	r3, [sp, #52]
 1088 0574 1218     		adds	r2, r2, r0
 1089 0576 4B41     		adcs	r3, r3, r1
 1090              	.LVL54:
 1091 0578 0019     		adds	r0, r0, r4
 1092 057a 6941     		adcs	r1, r1, r5
 1093              	.LVL55:
 1094 057c 0490     		str	r0, [sp, #16]
 1095 057e 0591     		str	r1, [sp, #20]
 1096              	.LVL56:
 1097 0580 5146     		mov	r1, r10
 1098 0582 CC1C     		adds	r4, r1, #3
 1099              	.LVL57:
ARM GAS  C:\Users\Phuong\AppData\Local\Temp\ccCGJz1B.s 			page 25


 257:Source\mbedtls_open\library/sha512.c ****         P( F, G, H, A, B, C, D, E, W[i], K[i] ); i++;
 1100              		.loc 1 257 0 discriminator 1
 1101 0584 9804     		lsls	r0, r3, #18
 1102              	.LVL58:
 1103 0586 910B     		lsrs	r1, r2, #14
 1104 0588 0500     		movs	r5, r0
 1105 058a 0D43     		orrs	r5, r1
 1106 058c A846     		mov	r8, r5
 1107 058e 9504     		lsls	r5, r2, #18
 1108 0590 990B     		lsrs	r1, r3, #14
 1109 0592 0D43     		orrs	r5, r1
 1110 0594 9803     		lsls	r0, r3, #14
 1111 0596 910C     		lsrs	r1, r2, #18
 1112 0598 0700     		movs	r7, r0
 1113 059a 0F43     		orrs	r7, r1
 1114 059c BC46     		mov	ip, r7
 1115 059e 9103     		lsls	r1, r2, #14
 1116 05a0 980C     		lsrs	r0, r3, #18
 1117 05a2 0143     		orrs	r1, r0
 1118 05a4 4746     		mov	r7, r8
 1119 05a6 6046     		mov	r0, ip
 1120 05a8 4740     		eors	r7, r0
 1121 05aa 3800     		movs	r0, r7
 1122 05ac 6940     		eors	r1, r5
 1123 05ae 550A     		lsrs	r5, r2, #9
 1124 05b0 AC46     		mov	ip, r5
 1125 05b2 DD05     		lsls	r5, r3, #23
 1126 05b4 6746     		mov	r7, ip
 1127 05b6 3D43     		orrs	r5, r7
 1128 05b8 5F0A     		lsrs	r7, r3, #9
 1129 05ba B846     		mov	r8, r7
 1130 05bc D705     		lsls	r7, r2, #23
 1131 05be BC46     		mov	ip, r7
 1132 05c0 4746     		mov	r7, r8
 1133 05c2 6646     		mov	r6, ip
 1134 05c4 3743     		orrs	r7, r6
 1135 05c6 4740     		eors	r7, r0
 1136 05c8 2A97     		str	r7, [sp, #168]
 1137 05ca 6940     		eors	r1, r5
 1138 05cc 2B91     		str	r1, [sp, #172]
 1139 05ce 0898     		ldr	r0, [sp, #32]
 1140 05d0 0999     		ldr	r1, [sp, #36]
 1141 05d2 01E0     		b	.L20
 1142              	.L21:
 1143              		.align	2
 1144              	.L19:
 1145 05d4 00000000 		.word	.LANCHOR0
 1146              	.L20:
 1147 05d8 2A9D     		ldr	r5, [sp, #168]
 1148 05da 2B9E     		ldr	r6, [sp, #172]
 1149 05dc 4019     		adds	r0, r0, r5
 1150 05de 7141     		adcs	r1, r1, r6
 1151 05e0 0C90     		str	r0, [sp, #48]
 1152 05e2 0D91     		str	r1, [sp, #52]
 1153 05e4 0A9D     		ldr	r5, [sp, #40]
 1154 05e6 009E     		ldr	r6, [sp]
 1155 05e8 019F     		ldr	r7, [sp, #4]
ARM GAS  C:\Users\Phuong\AppData\Local\Temp\ccCGJz1B.s 			page 26


 1156 05ea 7540     		eors	r5, r6
 1157 05ec AC46     		mov	ip, r5
 1158 05ee 0A98     		ldr	r0, [sp, #40]
 1159 05f0 0B99     		ldr	r1, [sp, #44]
 1160 05f2 0D00     		movs	r5, r1
 1161 05f4 7D40     		eors	r5, r7
 1162 05f6 6746     		mov	r7, ip
 1163 05f8 1740     		ands	r7, r2
 1164 05fa 0892     		str	r2, [sp, #32]
 1165 05fc 0993     		str	r3, [sp, #36]
 1166              	.LVL59:
 1167 05fe 1D40     		ands	r5, r3
 1168 0600 3B00     		movs	r3, r7
 1169 0602 4340     		eors	r3, r0
 1170 0604 2C93     		str	r3, [sp, #176]
 1171 0606 4D40     		eors	r5, r1
 1172 0608 2D95     		str	r5, [sp, #180]
 1173 060a 2C9D     		ldr	r5, [sp, #176]
 1174 060c 2D9E     		ldr	r6, [sp, #180]
 1175 060e 0C98     		ldr	r0, [sp, #48]
 1176 0610 0D99     		ldr	r1, [sp, #52]
 1177 0612 4019     		adds	r0, r0, r5
 1178 0614 7141     		adcs	r1, r1, r6
 1179 0616 E300     		lsls	r3, r4, #3
 1180 0618 9C46     		mov	ip, r3
 1181 061a 5B46     		mov	r3, fp
 1182 061c 6344     		add	r3, r3, ip
 1183 061e 1C68     		ldr	r4, [r3]
 1184 0620 5D68     		ldr	r5, [r3, #4]
 1185              	.LVL60:
 1186 0622 0019     		adds	r0, r0, r4
 1187 0624 6941     		adcs	r1, r1, r5
 1188 0626 64AB     		add	r3, sp, #400
 1189 0628 9846     		mov	r8, r3
 1190 062a C444     		add	ip, ip, r8
 1191 062c 6446     		mov	r4, ip
 1192 062e 6568     		ldr	r5, [r4, #4]
 1193 0630 2468     		ldr	r4, [r4]
 1194 0632 0019     		adds	r0, r0, r4
 1195 0634 6941     		adcs	r1, r1, r5
 1196              	.LVL61:
 1197 0636 049E     		ldr	r6, [sp, #16]
 1198 0638 059F     		ldr	r7, [sp, #20]
 1199 063a 3D01     		lsls	r5, r7, #4
 1200 063c 340F     		lsrs	r4, r6, #28
 1201 063e 2543     		orrs	r5, r4
 1202 0640 A846     		mov	r8, r5
 1203 0642 3501     		lsls	r5, r6, #4
 1204 0644 3C0F     		lsrs	r4, r7, #28
 1205 0646 2543     		orrs	r5, r4
 1206 0648 A946     		mov	r9, r5
 1207 064a B508     		lsrs	r5, r6, #2
 1208 064c BC07     		lsls	r4, r7, #30
 1209 064e 2C43     		orrs	r4, r5
 1210 0650 BB08     		lsrs	r3, r7, #2
 1211 0652 9C46     		mov	ip, r3
 1212 0654 B507     		lsls	r5, r6, #30
ARM GAS  C:\Users\Phuong\AppData\Local\Temp\ccCGJz1B.s 			page 27


 1213 0656 6346     		mov	r3, ip
 1214 0658 1D43     		orrs	r5, r3
 1215 065a 4346     		mov	r3, r8
 1216 065c 6B40     		eors	r3, r5
 1217 065e 9C46     		mov	ip, r3
 1218 0660 4D46     		mov	r5, r9
 1219 0662 6540     		eors	r5, r4
 1220 0664 F309     		lsrs	r3, r6, #7
 1221 0666 9846     		mov	r8, r3
 1222 0668 7C06     		lsls	r4, r7, #25
 1223 066a 4346     		mov	r3, r8
 1224 066c 1C43     		orrs	r4, r3
 1225 066e FB09     		lsrs	r3, r7, #7
 1226 0670 9946     		mov	r9, r3
 1227 0672 7306     		lsls	r3, r6, #25
 1228 0674 9846     		mov	r8, r3
 1229 0676 4B46     		mov	r3, r9
 1230 0678 4746     		mov	r7, r8
 1231 067a 3B43     		orrs	r3, r7
 1232 067c 9846     		mov	r8, r3
 1233 067e 6346     		mov	r3, ip
 1234 0680 4746     		mov	r7, r8
 1235 0682 7B40     		eors	r3, r7
 1236 0684 2E93     		str	r3, [sp, #184]
 1237 0686 6540     		eors	r5, r4
 1238 0688 2F95     		str	r5, [sp, #188]
 1239 068a 109C     		ldr	r4, [sp, #64]
 1240 068c 119D     		ldr	r5, [sp, #68]
 1241 068e 2300     		movs	r3, r4
 1242 0690 049F     		ldr	r7, [sp, #16]
 1243 0692 3B40     		ands	r3, r7
 1244 0694 9846     		mov	r8, r3
 1245 0696 2B00     		movs	r3, r5
 1246 0698 059F     		ldr	r7, [sp, #20]
 1247 069a 3B40     		ands	r3, r7
 1248 069c 9C46     		mov	ip, r3
 1249 069e 2500     		movs	r5, r4
 1250 06a0 049E     		ldr	r6, [sp, #16]
 1251 06a2 059F     		ldr	r7, [sp, #20]
 1252 06a4 3543     		orrs	r5, r6
 1253 06a6 119B     		ldr	r3, [sp, #68]
 1254 06a8 3B43     		orrs	r3, r7
 1255 06aa 1C00     		movs	r4, r3
 1256 06ac 069E     		ldr	r6, [sp, #24]
 1257 06ae 079F     		ldr	r7, [sp, #28]
 1258 06b0 3540     		ands	r5, r6
 1259 06b2 3C40     		ands	r4, r7
 1260 06b4 4346     		mov	r3, r8
 1261 06b6 2B43     		orrs	r3, r5
 1262 06b8 3093     		str	r3, [sp, #192]
 1263 06ba 6346     		mov	r3, ip
 1264 06bc 2343     		orrs	r3, r4
 1265 06be 3193     		str	r3, [sp, #196]
 1266 06c0 2E9B     		ldr	r3, [sp, #184]
 1267 06c2 2F9C     		ldr	r4, [sp, #188]
 1268 06c4 309D     		ldr	r5, [sp, #192]
 1269 06c6 319E     		ldr	r6, [sp, #196]
ARM GAS  C:\Users\Phuong\AppData\Local\Temp\ccCGJz1B.s 			page 28


 1270 06c8 5B19     		adds	r3, r3, r5
 1271 06ca 7441     		adcs	r4, r4, r6
 1272 06cc 2500     		movs	r5, r4
 1273 06ce 1C00     		movs	r4, r3
 1274              	.LVL62:
 1275 06d0 029E     		ldr	r6, [sp, #8]
 1276 06d2 039F     		ldr	r7, [sp, #12]
 1277 06d4 3618     		adds	r6, r6, r0
 1278 06d6 4F41     		adcs	r7, r7, r1
 1279              	.LVL63:
 1280 06d8 0A00     		movs	r2, r1
 1281              	.LVL64:
 1282 06da 0100     		movs	r1, r0
 1283 06dc 0919     		adds	r1, r1, r4
 1284 06de 6A41     		adcs	r2, r2, r5
 1285 06e0 0E91     		str	r1, [sp, #56]
 1286 06e2 0F92     		str	r2, [sp, #60]
 1287              	.LVL65:
 1288 06e4 5346     		mov	r3, r10
 1289 06e6 0433     		adds	r3, r3, #4
 1290 06e8 9946     		mov	r9, r3
 1291              	.LVL66:
 258:Source\mbedtls_open\library/sha512.c ****         P( E, F, G, H, A, B, C, D, W[i], K[i] ); i++;
 1292              		.loc 1 258 0 discriminator 1
 1293 06ea BC04     		lsls	r4, r7, #18
 1294              	.LVL67:
 1295 06ec B00B     		lsrs	r0, r6, #14
 1296              	.LVL68:
 1297 06ee 2300     		movs	r3, r4
 1298              	.LVL69:
 1299 06f0 0343     		orrs	r3, r0
 1300 06f2 9846     		mov	r8, r3
 1301 06f4 B504     		lsls	r5, r6, #18
 1302 06f6 B80B     		lsrs	r0, r7, #14
 1303 06f8 0543     		orrs	r5, r0
 1304 06fa BC03     		lsls	r4, r7, #14
 1305 06fc B00C     		lsrs	r0, r6, #18
 1306 06fe 2300     		movs	r3, r4
 1307 0700 0343     		orrs	r3, r0
 1308 0702 9C46     		mov	ip, r3
 1309 0704 B003     		lsls	r0, r6, #14
 1310 0706 BC0C     		lsrs	r4, r7, #18
 1311 0708 2043     		orrs	r0, r4
 1312 070a 4346     		mov	r3, r8
 1313 070c 6246     		mov	r2, ip
 1314 070e 5340     		eors	r3, r2
 1315 0710 1C00     		movs	r4, r3
 1316 0712 6840     		eors	r0, r5
 1317 0714 730A     		lsrs	r3, r6, #9
 1318 0716 9C46     		mov	ip, r3
 1319 0718 FD05     		lsls	r5, r7, #23
 1320 071a 6346     		mov	r3, ip
 1321 071c 1D43     		orrs	r5, r3
 1322 071e 7B0A     		lsrs	r3, r7, #9
 1323 0720 9846     		mov	r8, r3
 1324 0722 F305     		lsls	r3, r6, #23
 1325 0724 9C46     		mov	ip, r3
ARM GAS  C:\Users\Phuong\AppData\Local\Temp\ccCGJz1B.s 			page 29


 1326 0726 4346     		mov	r3, r8
 1327 0728 6246     		mov	r2, ip
 1328 072a 1343     		orrs	r3, r2
 1329 072c 6340     		eors	r3, r4
 1330 072e 3293     		str	r3, [sp, #200]
 1331 0730 0300     		movs	r3, r0
 1332 0732 6B40     		eors	r3, r5
 1333 0734 3393     		str	r3, [sp, #204]
 1334 0736 329B     		ldr	r3, [sp, #200]
 1335 0738 339C     		ldr	r4, [sp, #204]
 1336 073a 0A99     		ldr	r1, [sp, #40]
 1337 073c 0B9A     		ldr	r2, [sp, #44]
 1338              	.LVL70:
 1339 073e C918     		adds	r1, r1, r3
 1340 0740 6241     		adcs	r2, r2, r4
 1341 0742 1300     		movs	r3, r2
 1342 0744 0A00     		movs	r2, r1
 1343 0746 0898     		ldr	r0, [sp, #32]
 1344 0748 0999     		ldr	r1, [sp, #36]
 1345 074a 0400     		movs	r4, r0
 1346 074c 009D     		ldr	r5, [sp]
 1347 074e 6C40     		eors	r4, r5
 1348 0750 0800     		movs	r0, r1
 1349 0752 0199     		ldr	r1, [sp, #4]
 1350 0754 4840     		eors	r0, r1
 1351 0756 3440     		ands	r4, r6
 1352 0758 0296     		str	r6, [sp, #8]
 1353 075a 0397     		str	r7, [sp, #12]
 1354 075c 3840     		ands	r0, r7
 1355 075e 2700     		movs	r7, r4
 1356 0760 009C     		ldr	r4, [sp]
 1357 0762 019D     		ldr	r5, [sp, #4]
 1358 0764 6740     		eors	r7, r4
 1359 0766 3497     		str	r7, [sp, #208]
 1360 0768 0700     		movs	r7, r0
 1361 076a 6F40     		eors	r7, r5
 1362 076c 3597     		str	r7, [sp, #212]
 1363 076e 349D     		ldr	r5, [sp, #208]
 1364 0770 359E     		ldr	r6, [sp, #212]
 1365 0772 5219     		adds	r2, r2, r5
 1366 0774 7341     		adcs	r3, r3, r6
 1367 0776 4946     		mov	r1, r9
 1368 0778 CC00     		lsls	r4, r1, #3
 1369 077a 5F46     		mov	r7, fp
 1370 077c 3919     		adds	r1, r7, r4
 1371 077e 0868     		ldr	r0, [r1]
 1372 0780 4968     		ldr	r1, [r1, #4]
 1373 0782 1218     		adds	r2, r2, r0
 1374 0784 4B41     		adcs	r3, r3, r1
 1375 0786 2100     		movs	r1, r4
 1376 0788 64A8     		add	r0, sp, #400
 1377              	.LVL71:
 1378 078a 8446     		mov	ip, r0
 1379 078c 6144     		add	r1, r1, ip
 1380 078e 0868     		ldr	r0, [r1]
 1381 0790 4968     		ldr	r1, [r1, #4]
 1382              	.LVL72:
ARM GAS  C:\Users\Phuong\AppData\Local\Temp\ccCGJz1B.s 			page 30


 1383 0792 1218     		adds	r2, r2, r0
 1384 0794 4B41     		adcs	r3, r3, r1
 1385 0796 0A92     		str	r2, [sp, #40]
 1386 0798 0B93     		str	r3, [sp, #44]
 1387              	.LVL73:
 1388 079a 0E9E     		ldr	r6, [sp, #56]
 1389 079c 0F9F     		ldr	r7, [sp, #60]
 1390              	.LVL74:
 1391 079e 3C01     		lsls	r4, r7, #4
 1392 07a0 310F     		lsrs	r1, r6, #28
 1393 07a2 0C43     		orrs	r4, r1
 1394 07a4 3001     		lsls	r0, r6, #4
 1395 07a6 390F     		lsrs	r1, r7, #28
 1396 07a8 0843     		orrs	r0, r1
 1397 07aa B508     		lsrs	r5, r6, #2
 1398 07ac B907     		lsls	r1, r7, #30
 1399 07ae 2943     		orrs	r1, r5
 1400 07b0 3500     		movs	r5, r6
 1401 07b2 3E00     		movs	r6, r7
 1402 07b4 BF08     		lsrs	r7, r7, #2
 1403 07b6 BC46     		mov	ip, r7
 1404 07b8 3700     		movs	r7, r6
 1405 07ba 2E00     		movs	r6, r5
 1406 07bc AD07     		lsls	r5, r5, #30
 1407 07be 6346     		mov	r3, ip
 1408 07c0 1D43     		orrs	r5, r3
 1409 07c2 6C40     		eors	r4, r5
 1410 07c4 4840     		eors	r0, r1
 1411 07c6 F509     		lsrs	r5, r6, #7
 1412 07c8 7906     		lsls	r1, r7, #25
 1413 07ca 2943     		orrs	r1, r5
 1414 07cc FB09     		lsrs	r3, r7, #7
 1415 07ce 9C46     		mov	ip, r3
 1416 07d0 7506     		lsls	r5, r6, #25
 1417 07d2 6346     		mov	r3, ip
 1418 07d4 1D43     		orrs	r5, r3
 1419 07d6 6C40     		eors	r4, r5
 1420 07d8 3694     		str	r4, [sp, #216]
 1421 07da 0500     		movs	r5, r0
 1422 07dc 4D40     		eors	r5, r1
 1423 07de 3795     		str	r5, [sp, #220]
 1424 07e0 0498     		ldr	r0, [sp, #16]
 1425 07e2 0599     		ldr	r1, [sp, #20]
 1426 07e4 0500     		movs	r5, r0
 1427 07e6 3540     		ands	r5, r6
 1428 07e8 0C00     		movs	r4, r1
 1429 07ea 3200     		movs	r2, r6
 1430              	.LVL75:
 1431 07ec 3B00     		movs	r3, r7
 1432 07ee 3C40     		ands	r4, r7
 1433 07f0 0F00     		movs	r7, r1
 1434 07f2 1043     		orrs	r0, r2
 1435 07f4 3900     		movs	r1, r7
 1436 07f6 1943     		orrs	r1, r3
 1437 07f8 109E     		ldr	r6, [sp, #64]
 1438 07fa 119F     		ldr	r7, [sp, #68]
 1439 07fc 3040     		ands	r0, r6
ARM GAS  C:\Users\Phuong\AppData\Local\Temp\ccCGJz1B.s 			page 31


 1440 07fe 3940     		ands	r1, r7
 1441 0800 0543     		orrs	r5, r0
 1442 0802 3895     		str	r5, [sp, #224]
 1443 0804 2500     		movs	r5, r4
 1444 0806 0D43     		orrs	r5, r1
 1445 0808 3995     		str	r5, [sp, #228]
 1446 080a 3698     		ldr	r0, [sp, #216]
 1447 080c 3799     		ldr	r1, [sp, #220]
 1448 080e 389D     		ldr	r5, [sp, #224]
 1449 0810 399E     		ldr	r6, [sp, #228]
 1450 0812 4019     		adds	r0, r0, r5
 1451 0814 7141     		adcs	r1, r1, r6
 1452              	.LVL76:
 1453 0816 069C     		ldr	r4, [sp, #24]
 1454 0818 079D     		ldr	r5, [sp, #28]
 1455 081a 0A9A     		ldr	r2, [sp, #40]
 1456 081c 0B9B     		ldr	r3, [sp, #44]
 1457 081e A418     		adds	r4, r4, r2
 1458 0820 5D41     		adcs	r5, r5, r3
 1459 0822 2600     		movs	r6, r4
 1460 0824 2F00     		movs	r7, r5
 1461              	.LVL77:
 1462 0826 1218     		adds	r2, r2, r0
 1463 0828 4B41     		adcs	r3, r3, r1
 1464 082a 0A92     		str	r2, [sp, #40]
 1465 082c 0B93     		str	r3, [sp, #44]
 1466              	.LVL78:
 1467 082e 5146     		mov	r1, r10
 1468 0830 4B1D     		adds	r3, r1, #5
 1469              	.LVL79:
 259:Source\mbedtls_open\library/sha512.c ****         P( D, E, F, G, H, A, B, C, W[i], K[i] ); i++;
 1470              		.loc 1 259 0 discriminator 1
 1471 0832 A904     		lsls	r1, r5, #18
 1472 0834 2500     		movs	r5, r4
 1473 0836 A20B     		lsrs	r2, r4, #14
 1474              	.LVL80:
 1475 0838 1143     		orrs	r1, r2
 1476 083a 0C00     		movs	r4, r1
 1477 083c AD04     		lsls	r5, r5, #18
 1478 083e BA0B     		lsrs	r2, r7, #14
 1479 0840 1543     		orrs	r5, r2
 1480 0842 B903     		lsls	r1, r7, #14
 1481 0844 0696     		str	r6, [sp, #24]
 1482 0846 0797     		str	r7, [sp, #28]
 1483 0848 B20C     		lsrs	r2, r6, #18
 1484 084a 1143     		orrs	r1, r2
 1485 084c 0800     		movs	r0, r1
 1486              	.LVL81:
 1487 084e 069E     		ldr	r6, [sp, #24]
 1488 0850 079F     		ldr	r7, [sp, #28]
 1489 0852 B203     		lsls	r2, r6, #14
 1490 0854 B90C     		lsrs	r1, r7, #18
 1491 0856 0A43     		orrs	r2, r1
 1492 0858 2100     		movs	r1, r4
 1493 085a 4140     		eors	r1, r0
 1494 085c 6A40     		eors	r2, r5
 1495 085e 740A     		lsrs	r4, r6, #9
ARM GAS  C:\Users\Phuong\AppData\Local\Temp\ccCGJz1B.s 			page 32


 1496 0860 F805     		lsls	r0, r7, #23
 1497 0862 2043     		orrs	r0, r4
 1498 0864 7D0A     		lsrs	r5, r7, #9
 1499 0866 069F     		ldr	r7, [sp, #24]
 1500 0868 FC05     		lsls	r4, r7, #23
 1501 086a 2C43     		orrs	r4, r5
 1502 086c 6140     		eors	r1, r4
 1503 086e 3A91     		str	r1, [sp, #232]
 1504 0870 1100     		movs	r1, r2
 1505 0872 4140     		eors	r1, r0
 1506 0874 3B91     		str	r1, [sp, #236]
 1507 0876 3A99     		ldr	r1, [sp, #232]
 1508 0878 3B9A     		ldr	r2, [sp, #236]
 1509 087a 009E     		ldr	r6, [sp]
 1510 087c 019F     		ldr	r7, [sp, #4]
 1511              	.LVL82:
 1512 087e 7618     		adds	r6, r6, r1
 1513 0880 5741     		adcs	r7, r7, r2
 1514 0882 0899     		ldr	r1, [sp, #32]
 1515 0884 029C     		ldr	r4, [sp, #8]
 1516 0886 039D     		ldr	r5, [sp, #12]
 1517 0888 6140     		eors	r1, r4
 1518 088a 099A     		ldr	r2, [sp, #36]
 1519 088c 6A40     		eors	r2, r5
 1520 088e 069C     		ldr	r4, [sp, #24]
 1521 0890 079D     		ldr	r5, [sp, #28]
 1522 0892 2140     		ands	r1, r4
 1523 0894 2A40     		ands	r2, r5
 1524 0896 089C     		ldr	r4, [sp, #32]
 1525 0898 099D     		ldr	r5, [sp, #36]
 1526 089a 2000     		movs	r0, r4
 1527 089c 4840     		eors	r0, r1
 1528 089e 3C90     		str	r0, [sp, #240]
 1529 08a0 2900     		movs	r1, r5
 1530 08a2 5140     		eors	r1, r2
 1531 08a4 3D91     		str	r1, [sp, #244]
 1532 08a6 3C99     		ldr	r1, [sp, #240]
 1533 08a8 3D9A     		ldr	r2, [sp, #244]
 1534 08aa 7618     		adds	r6, r6, r1
 1535 08ac 5741     		adcs	r7, r7, r2
 1536 08ae D900     		lsls	r1, r3, #3
 1537 08b0 5D46     		mov	r5, fp
 1538 08b2 6B18     		adds	r3, r5, r1
 1539              	.LVL83:
 1540 08b4 1A68     		ldr	r2, [r3]
 1541 08b6 5B68     		ldr	r3, [r3, #4]
 1542 08b8 B618     		adds	r6, r6, r2
 1543 08ba 5F41     		adcs	r7, r7, r3
 1544 08bc 64AB     		add	r3, sp, #400
 1545 08be 9C46     		mov	ip, r3
 1546 08c0 6144     		add	r1, r1, ip
 1547 08c2 0A68     		ldr	r2, [r1]
 1548 08c4 4B68     		ldr	r3, [r1, #4]
 1549 08c6 B618     		adds	r6, r6, r2
 1550 08c8 5F41     		adcs	r7, r7, r3
 1551 08ca 0096     		str	r6, [sp]
 1552 08cc 0197     		str	r7, [sp, #4]
ARM GAS  C:\Users\Phuong\AppData\Local\Temp\ccCGJz1B.s 			page 33


 1553              	.LVL84:
 1554 08ce 0A9E     		ldr	r6, [sp, #40]
 1555 08d0 0B9F     		ldr	r7, [sp, #44]
 1556              	.LVL85:
 1557 08d2 3901     		lsls	r1, r7, #4
 1558 08d4 330F     		lsrs	r3, r6, #28
 1559 08d6 1943     		orrs	r1, r3
 1560 08d8 0C00     		movs	r4, r1
 1561 08da 3201     		lsls	r2, r6, #4
 1562 08dc 3B0F     		lsrs	r3, r7, #28
 1563 08de 1A43     		orrs	r2, r3
 1564 08e0 1500     		movs	r5, r2
 1565 08e2 B208     		lsrs	r2, r6, #2
 1566 08e4 BB07     		lsls	r3, r7, #30
 1567 08e6 1343     		orrs	r3, r2
 1568 08e8 B908     		lsrs	r1, r7, #2
 1569 08ea B007     		lsls	r0, r6, #30
 1570 08ec 0143     		orrs	r1, r0
 1571 08ee 6140     		eors	r1, r4
 1572 08f0 2A00     		movs	r2, r5
 1573 08f2 5A40     		eors	r2, r3
 1574 08f4 F009     		lsrs	r0, r6, #7
 1575 08f6 7B06     		lsls	r3, r7, #25
 1576 08f8 0343     		orrs	r3, r0
 1577 08fa FC09     		lsrs	r4, r7, #7
 1578 08fc 7006     		lsls	r0, r6, #25
 1579 08fe 2043     		orrs	r0, r4
 1580 0900 4140     		eors	r1, r0
 1581 0902 3E91     		str	r1, [sp, #248]
 1582 0904 5A40     		eors	r2, r3
 1583 0906 3F92     		str	r2, [sp, #252]
 1584 0908 0E9B     		ldr	r3, [sp, #56]
 1585 090a 0F9C     		ldr	r4, [sp, #60]
 1586 090c 1800     		movs	r0, r3
 1587 090e 3040     		ands	r0, r6
 1588 0910 2500     		movs	r5, r4
 1589 0912 3D40     		ands	r5, r7
 1590 0914 2900     		movs	r1, r5
 1591 0916 1A00     		movs	r2, r3
 1592 0918 3243     		orrs	r2, r6
 1593 091a 2300     		movs	r3, r4
 1594 091c 3B43     		orrs	r3, r7
 1595 091e 049C     		ldr	r4, [sp, #16]
 1596 0920 059D     		ldr	r5, [sp, #20]
 1597 0922 2240     		ands	r2, r4
 1598 0924 2B40     		ands	r3, r5
 1599 0926 0500     		movs	r5, r0
 1600 0928 1543     		orrs	r5, r2
 1601 092a 4095     		str	r5, [sp, #256]
 1602 092c 1943     		orrs	r1, r3
 1603 092e 4191     		str	r1, [sp, #260]
 1604 0930 3E9A     		ldr	r2, [sp, #248]
 1605 0932 3F9B     		ldr	r3, [sp, #252]
 1606 0934 4098     		ldr	r0, [sp, #256]
 1607 0936 4199     		ldr	r1, [sp, #260]
 1608 0938 1218     		adds	r2, r2, r0
 1609 093a 4B41     		adcs	r3, r3, r1
ARM GAS  C:\Users\Phuong\AppData\Local\Temp\ccCGJz1B.s 			page 34


 1610              	.LVL86:
 1611 093c 1098     		ldr	r0, [sp, #64]
 1612 093e 1199     		ldr	r1, [sp, #68]
 1613 0940 009E     		ldr	r6, [sp]
 1614 0942 019F     		ldr	r7, [sp, #4]
 1615 0944 3400     		movs	r4, r6
 1616 0946 3D00     		movs	r5, r7
 1617 0948 0019     		adds	r0, r0, r4
 1618 094a 6941     		adcs	r1, r1, r5
 1619 094c 0400     		movs	r4, r0
 1620 094e 0D00     		movs	r5, r1
 1621              	.LVL87:
 1622 0950 B618     		adds	r6, r6, r2
 1623 0952 5F41     		adcs	r7, r7, r3
 1624 0954 1096     		str	r6, [sp, #64]
 1625 0956 1197     		str	r7, [sp, #68]
 1626              	.LVL88:
 1627 0958 5146     		mov	r1, r10
 1628 095a 0631     		adds	r1, r1, #6
 1629              	.LVL89:
 260:Source\mbedtls_open\library/sha512.c ****         P( C, D, E, F, G, H, A, B, W[i], K[i] ); i++;
 1630              		.loc 1 260 0 discriminator 1
 1631 095c AA04     		lsls	r2, r5, #18
 1632              	.LVL90:
 1633 095e 2600     		movs	r6, r4
 1634              	.LVL91:
 1635 0960 2F00     		movs	r7, r5
 1636 0962 A30B     		lsrs	r3, r4, #14
 1637 0964 1A43     		orrs	r2, r3
 1638 0966 1500     		movs	r5, r2
 1639 0968 A004     		lsls	r0, r4, #18
 1640 096a BB0B     		lsrs	r3, r7, #14
 1641 096c 1843     		orrs	r0, r3
 1642 096e BA03     		lsls	r2, r7, #14
 1643 0970 A30C     		lsrs	r3, r4, #18
 1644 0972 1A43     		orrs	r2, r3
 1645 0974 1400     		movs	r4, r2
 1646              	.LVL92:
 1647 0976 B303     		lsls	r3, r6, #14
 1648 0978 BA0C     		lsrs	r2, r7, #18
 1649 097a 1343     		orrs	r3, r2
 1650 097c 2A00     		movs	r2, r5
 1651 097e 6240     		eors	r2, r4
 1652 0980 4340     		eors	r3, r0
 1653 0982 740A     		lsrs	r4, r6, #9
 1654 0984 F805     		lsls	r0, r7, #23
 1655 0986 2043     		orrs	r0, r4
 1656 0988 7D0A     		lsrs	r5, r7, #9
 1657 098a 0096     		str	r6, [sp]
 1658 098c 0197     		str	r7, [sp, #4]
 1659              	.LVL93:
 1660 098e F405     		lsls	r4, r6, #23
 1661 0990 2C43     		orrs	r4, r5
 1662 0992 6240     		eors	r2, r4
 1663 0994 4292     		str	r2, [sp, #264]
 1664 0996 4340     		eors	r3, r0
 1665 0998 4393     		str	r3, [sp, #268]
ARM GAS  C:\Users\Phuong\AppData\Local\Temp\ccCGJz1B.s 			page 35


 1666 099a 089A     		ldr	r2, [sp, #32]
 1667 099c 099B     		ldr	r3, [sp, #36]
 1668 099e 429D     		ldr	r5, [sp, #264]
 1669 09a0 439E     		ldr	r6, [sp, #268]
 1670 09a2 5219     		adds	r2, r2, r5
 1671 09a4 7341     		adcs	r3, r3, r6
 1672 09a6 029F     		ldr	r7, [sp, #8]
 1673 09a8 069D     		ldr	r5, [sp, #24]
 1674 09aa 079E     		ldr	r6, [sp, #28]
 1675 09ac 6F40     		eors	r7, r5
 1676 09ae 3C00     		movs	r4, r7
 1677 09b0 039F     		ldr	r7, [sp, #12]
 1678 09b2 7740     		eors	r7, r6
 1679 09b4 3800     		movs	r0, r7
 1680 09b6 009E     		ldr	r6, [sp]
 1681 09b8 019F     		ldr	r7, [sp, #4]
 1682 09ba 3440     		ands	r4, r6
 1683 09bc 3840     		ands	r0, r7
 1684 09be 029E     		ldr	r6, [sp, #8]
 1685 09c0 039F     		ldr	r7, [sp, #12]
 1686 09c2 3500     		movs	r5, r6
 1687 09c4 6540     		eors	r5, r4
 1688 09c6 4495     		str	r5, [sp, #272]
 1689 09c8 4740     		eors	r7, r0
 1690 09ca 4597     		str	r7, [sp, #276]
 1691 09cc 449C     		ldr	r4, [sp, #272]
 1692 09ce 459D     		ldr	r5, [sp, #276]
 1693 09d0 1219     		adds	r2, r2, r4
 1694 09d2 6B41     		adcs	r3, r3, r5
 1695 09d4 CC00     		lsls	r4, r1, #3
 1696 09d6 5946     		mov	r1, fp
 1697              	.LVL94:
 1698 09d8 0919     		adds	r1, r1, r4
 1699 09da 0868     		ldr	r0, [r1]
 1700 09dc 4968     		ldr	r1, [r1, #4]
 1701 09de 1218     		adds	r2, r2, r0
 1702 09e0 4B41     		adcs	r3, r3, r1
 1703 09e2 2100     		movs	r1, r4
 1704 09e4 6144     		add	r1, r1, ip
 1705 09e6 0868     		ldr	r0, [r1]
 1706 09e8 4968     		ldr	r1, [r1, #4]
 1707 09ea 1218     		adds	r2, r2, r0
 1708 09ec 4B41     		adcs	r3, r3, r1
 1709 09ee 0892     		str	r2, [sp, #32]
 1710 09f0 0993     		str	r3, [sp, #36]
 1711              	.LVL95:
 1712 09f2 109A     		ldr	r2, [sp, #64]
 1713 09f4 119B     		ldr	r3, [sp, #68]
 1714              	.LVL96:
 1715 09f6 1C01     		lsls	r4, r3, #4
 1716 09f8 110F     		lsrs	r1, r2, #28
 1717 09fa 2700     		movs	r7, r4
 1718 09fc 0F43     		orrs	r7, r1
 1719 09fe 3E00     		movs	r6, r7
 1720 0a00 1001     		lsls	r0, r2, #4
 1721 0a02 190F     		lsrs	r1, r3, #28
 1722 0a04 0700     		movs	r7, r0
ARM GAS  C:\Users\Phuong\AppData\Local\Temp\ccCGJz1B.s 			page 36


 1723 0a06 0F43     		orrs	r7, r1
 1724 0a08 9008     		lsrs	r0, r2, #2
 1725 0a0a 9907     		lsls	r1, r3, #30
 1726 0a0c 0143     		orrs	r1, r0
 1727 0a0e 9C08     		lsrs	r4, r3, #2
 1728 0a10 9507     		lsls	r5, r2, #30
 1729 0a12 2C43     		orrs	r4, r5
 1730 0a14 7440     		eors	r4, r6
 1731 0a16 4F40     		eors	r7, r1
 1732 0a18 3800     		movs	r0, r7
 1733 0a1a D509     		lsrs	r5, r2, #7
 1734 0a1c 5906     		lsls	r1, r3, #25
 1735 0a1e 2943     		orrs	r1, r5
 1736 0a20 DE09     		lsrs	r6, r3, #7
 1737 0a22 5506     		lsls	r5, r2, #25
 1738 0a24 3543     		orrs	r5, r6
 1739 0a26 2700     		movs	r7, r4
 1740 0a28 6F40     		eors	r7, r5
 1741 0a2a 4697     		str	r7, [sp, #280]
 1742 0a2c 0700     		movs	r7, r0
 1743 0a2e 4F40     		eors	r7, r1
 1744 0a30 4797     		str	r7, [sp, #284]
 1745 0a32 0A98     		ldr	r0, [sp, #40]
 1746 0a34 0B99     		ldr	r1, [sp, #44]
 1747 0a36 0500     		movs	r5, r0
 1748 0a38 1540     		ands	r5, r2
 1749 0a3a 0C00     		movs	r4, r1
 1750 0a3c 1C40     		ands	r4, r3
 1751 0a3e 0F00     		movs	r7, r1
 1752 0a40 0100     		movs	r1, r0
 1753 0a42 1143     		orrs	r1, r2
 1754 0a44 0800     		movs	r0, r1
 1755 0a46 3900     		movs	r1, r7
 1756 0a48 1943     		orrs	r1, r3
 1757 0a4a 0E9E     		ldr	r6, [sp, #56]
 1758 0a4c 0F9F     		ldr	r7, [sp, #60]
 1759 0a4e 3040     		ands	r0, r6
 1760 0a50 3940     		ands	r1, r7
 1761 0a52 2F00     		movs	r7, r5
 1762 0a54 0743     		orrs	r7, r0
 1763 0a56 4897     		str	r7, [sp, #288]
 1764 0a58 2700     		movs	r7, r4
 1765 0a5a 0F43     		orrs	r7, r1
 1766 0a5c 4997     		str	r7, [sp, #292]
 1767 0a5e 4698     		ldr	r0, [sp, #280]
 1768 0a60 4799     		ldr	r1, [sp, #284]
 1769 0a62 489D     		ldr	r5, [sp, #288]
 1770 0a64 499E     		ldr	r6, [sp, #292]
 1771 0a66 4019     		adds	r0, r0, r5
 1772 0a68 7141     		adcs	r1, r1, r6
 1773              	.LVL97:
 1774 0a6a 049C     		ldr	r4, [sp, #16]
 1775 0a6c 059D     		ldr	r5, [sp, #20]
 1776 0a6e 089A     		ldr	r2, [sp, #32]
 1777 0a70 099B     		ldr	r3, [sp, #36]
 1778 0a72 A418     		adds	r4, r4, r2
 1779 0a74 5D41     		adcs	r5, r5, r3
ARM GAS  C:\Users\Phuong\AppData\Local\Temp\ccCGJz1B.s 			page 37


 1780 0a76 2600     		movs	r6, r4
 1781 0a78 2F00     		movs	r7, r5
 1782              	.LVL98:
 1783 0a7a 1218     		adds	r2, r2, r0
 1784 0a7c 4B41     		adcs	r3, r3, r1
 1785 0a7e 0C92     		str	r2, [sp, #48]
 1786 0a80 0D93     		str	r3, [sp, #52]
 1787              	.LVL99:
 1788 0a82 5346     		mov	r3, r10
 1789 0a84 D91D     		adds	r1, r3, #7
 1790              	.LVL100:
 261:Source\mbedtls_open\library/sha512.c ****         P( B, C, D, E, F, G, H, A, W[i], K[i] ); i++;
 1791              		.loc 1 261 0 discriminator 1
 1792 0a86 AA04     		lsls	r2, r5, #18
 1793              	.LVL101:
 1794 0a88 A30B     		lsrs	r3, r4, #14
 1795 0a8a 1A43     		orrs	r2, r3
 1796 0a8c 1500     		movs	r5, r2
 1797 0a8e 3C00     		movs	r4, r7
 1798 0a90 B004     		lsls	r0, r6, #18
 1799              	.LVL102:
 1800 0a92 A30B     		lsrs	r3, r4, #14
 1801 0a94 1843     		orrs	r0, r3
 1802 0a96 A203     		lsls	r2, r4, #14
 1803 0a98 2700     		movs	r7, r4
 1804 0a9a B30C     		lsrs	r3, r6, #18
 1805 0a9c 1400     		movs	r4, r2
 1806 0a9e 1C43     		orrs	r4, r3
 1807 0aa0 B303     		lsls	r3, r6, #14
 1808 0aa2 BA0C     		lsrs	r2, r7, #18
 1809 0aa4 1343     		orrs	r3, r2
 1810 0aa6 2A00     		movs	r2, r5
 1811 0aa8 6240     		eors	r2, r4
 1812 0aaa 4340     		eors	r3, r0
 1813 0aac 740A     		lsrs	r4, r6, #9
 1814 0aae F805     		lsls	r0, r7, #23
 1815 0ab0 2043     		orrs	r0, r4
 1816 0ab2 7D0A     		lsrs	r5, r7, #9
 1817 0ab4 0496     		str	r6, [sp, #16]
 1818 0ab6 0597     		str	r7, [sp, #20]
 1819 0ab8 F405     		lsls	r4, r6, #23
 1820 0aba 2C43     		orrs	r4, r5
 1821 0abc 1700     		movs	r7, r2
 1822 0abe 6740     		eors	r7, r4
 1823 0ac0 4A97     		str	r7, [sp, #296]
 1824 0ac2 4340     		eors	r3, r0
 1825 0ac4 4B93     		str	r3, [sp, #300]
 1826 0ac6 029A     		ldr	r2, [sp, #8]
 1827 0ac8 039B     		ldr	r3, [sp, #12]
 1828 0aca 4A9C     		ldr	r4, [sp, #296]
 1829 0acc 4B9D     		ldr	r5, [sp, #300]
 1830 0ace 1219     		adds	r2, r2, r4
 1831 0ad0 6B41     		adcs	r3, r3, r5
 1832 0ad2 069D     		ldr	r5, [sp, #24]
 1833 0ad4 079E     		ldr	r6, [sp, #28]
 1834 0ad6 2C00     		movs	r4, r5
 1835 0ad8 009F     		ldr	r7, [sp]
ARM GAS  C:\Users\Phuong\AppData\Local\Temp\ccCGJz1B.s 			page 38


 1836 0ada 7C40     		eors	r4, r7
 1837 0adc 3700     		movs	r7, r6
 1838 0ade 0198     		ldr	r0, [sp, #4]
 1839 0ae0 4740     		eors	r7, r0
 1840 0ae2 3800     		movs	r0, r7
 1841 0ae4 049F     		ldr	r7, [sp, #16]
 1842 0ae6 3C40     		ands	r4, r7
 1843 0ae8 059F     		ldr	r7, [sp, #20]
 1844 0aea 3840     		ands	r0, r7
 1845 0aec 2F00     		movs	r7, r5
 1846 0aee 6740     		eors	r7, r4
 1847 0af0 4C97     		str	r7, [sp, #304]
 1848 0af2 3700     		movs	r7, r6
 1849 0af4 4740     		eors	r7, r0
 1850 0af6 4D97     		str	r7, [sp, #308]
 1851 0af8 4C9C     		ldr	r4, [sp, #304]
 1852 0afa 4D9D     		ldr	r5, [sp, #308]
 1853 0afc 1219     		adds	r2, r2, r4
 1854 0afe 6B41     		adcs	r3, r3, r5
 1855 0b00 CC00     		lsls	r4, r1, #3
 1856 0b02 5946     		mov	r1, fp
 1857              	.LVL103:
 1858 0b04 0819     		adds	r0, r1, r4
 1859 0b06 4168     		ldr	r1, [r0, #4]
 1860 0b08 0068     		ldr	r0, [r0]
 1861 0b0a 1218     		adds	r2, r2, r0
 1862 0b0c 4B41     		adcs	r3, r3, r1
 1863 0b0e 2100     		movs	r1, r4
 1864 0b10 6144     		add	r1, r1, ip
 1865 0b12 0868     		ldr	r0, [r1]
 1866 0b14 4968     		ldr	r1, [r1, #4]
 1867 0b16 1218     		adds	r2, r2, r0
 1868 0b18 4B41     		adcs	r3, r3, r1
 1869 0b1a 0292     		str	r2, [sp, #8]
 1870 0b1c 0393     		str	r3, [sp, #12]
 1871              	.LVL104:
 1872 0b1e 0C9A     		ldr	r2, [sp, #48]
 1873 0b20 0D9B     		ldr	r3, [sp, #52]
 1874              	.LVL105:
 1875 0b22 1C01     		lsls	r4, r3, #4
 1876 0b24 110F     		lsrs	r1, r2, #28
 1877 0b26 2700     		movs	r7, r4
 1878 0b28 0F43     		orrs	r7, r1
 1879 0b2a 3E00     		movs	r6, r7
 1880              	.LVL106:
 1881 0b2c 1001     		lsls	r0, r2, #4
 1882 0b2e 190F     		lsrs	r1, r3, #28
 1883 0b30 0700     		movs	r7, r0
 1884 0b32 0F43     		orrs	r7, r1
 1885 0b34 9008     		lsrs	r0, r2, #2
 1886 0b36 9907     		lsls	r1, r3, #30
 1887 0b38 0143     		orrs	r1, r0
 1888 0b3a 9C08     		lsrs	r4, r3, #2
 1889 0b3c 9507     		lsls	r5, r2, #30
 1890 0b3e 2C43     		orrs	r4, r5
 1891 0b40 7440     		eors	r4, r6
 1892 0b42 4F40     		eors	r7, r1
ARM GAS  C:\Users\Phuong\AppData\Local\Temp\ccCGJz1B.s 			page 39


 1893 0b44 D509     		lsrs	r5, r2, #7
 1894 0b46 5906     		lsls	r1, r3, #25
 1895 0b48 2943     		orrs	r1, r5
 1896 0b4a DE09     		lsrs	r6, r3, #7
 1897 0b4c 5506     		lsls	r5, r2, #25
 1898 0b4e 3543     		orrs	r5, r6
 1899 0b50 6C40     		eors	r4, r5
 1900 0b52 4E94     		str	r4, [sp, #312]
 1901 0b54 3D00     		movs	r5, r7
 1902 0b56 4D40     		eors	r5, r1
 1903 0b58 4F95     		str	r5, [sp, #316]
 1904 0b5a 1098     		ldr	r0, [sp, #64]
 1905 0b5c 1199     		ldr	r1, [sp, #68]
 1906 0b5e 0500     		movs	r5, r0
 1907 0b60 1540     		ands	r5, r2
 1908 0b62 0C00     		movs	r4, r1
 1909 0b64 1C40     		ands	r4, r3
 1910 0b66 0F00     		movs	r7, r1
 1911 0b68 1043     		orrs	r0, r2
 1912 0b6a 3900     		movs	r1, r7
 1913 0b6c 1943     		orrs	r1, r3
 1914 0b6e 0A9E     		ldr	r6, [sp, #40]
 1915 0b70 0B9F     		ldr	r7, [sp, #44]
 1916 0b72 3040     		ands	r0, r6
 1917 0b74 3940     		ands	r1, r7
 1918 0b76 0543     		orrs	r5, r0
 1919 0b78 5095     		str	r5, [sp, #320]
 1920 0b7a 2000     		movs	r0, r4
 1921 0b7c 0843     		orrs	r0, r1
 1922 0b7e 5190     		str	r0, [sp, #324]
 1923 0b80 4E98     		ldr	r0, [sp, #312]
 1924 0b82 4F99     		ldr	r1, [sp, #316]
 1925 0b84 509D     		ldr	r5, [sp, #320]
 1926 0b86 519E     		ldr	r6, [sp, #324]
 1927 0b88 4019     		adds	r0, r0, r5
 1928 0b8a 7141     		adcs	r1, r1, r6
 1929              	.LVL107:
 1930 0b8c 0E9C     		ldr	r4, [sp, #56]
 1931 0b8e 0F9D     		ldr	r5, [sp, #60]
 1932 0b90 029A     		ldr	r2, [sp, #8]
 1933 0b92 039B     		ldr	r3, [sp, #12]
 1934 0b94 A418     		adds	r4, r4, r2
 1935 0b96 5D41     		adcs	r5, r5, r3
 1936 0b98 0894     		str	r4, [sp, #32]
 1937 0b9a 0995     		str	r5, [sp, #36]
 1938              	.LVL108:
 1939 0b9c 1218     		adds	r2, r2, r0
 1940 0b9e 4B41     		adcs	r3, r3, r1
 1941 0ba0 0292     		str	r2, [sp, #8]
 1942 0ba2 0393     		str	r3, [sp, #12]
 1943              	.LVL109:
 1944 0ba4 0823     		movs	r3, #8
 1945 0ba6 9C46     		mov	ip, r3
 1946 0ba8 E244     		add	r10, r10, ip
 1947              	.LVL110:
 262:Source\mbedtls_open\library/sha512.c ****     }
 263:Source\mbedtls_open\library/sha512.c ****     while( i < 80 );
ARM GAS  C:\Users\Phuong\AppData\Local\Temp\ccCGJz1B.s 			page 40


 1948              		.loc 1 263 0 discriminator 1
 1949 0baa 5346     		mov	r3, r10
 1950 0bac 4F2B     		cmp	r3, #79
 1951 0bae 01DC     		bgt	.LCB1791
 1952 0bb0 FFF703FB 		bl	.L16	@far jump
 1953              	.LCB1791:
 264:Source\mbedtls_open\library/sha512.c **** 
 265:Source\mbedtls_open\library/sha512.c ****     ctx->state[0] += A;
 1954              		.loc 1 265 0
 1955 0bb4 529A     		ldr	r2, [sp, #328]
 1956 0bb6 539B     		ldr	r3, [sp, #332]
 1957              	.LVL111:
 1958 0bb8 0298     		ldr	r0, [sp, #8]
 1959 0bba 0399     		ldr	r1, [sp, #12]
 1960              	.LVL112:
 1961 0bbc 1218     		adds	r2, r2, r0
 1962 0bbe 4B41     		adcs	r3, r3, r1
 1963 0bc0 5D9C     		ldr	r4, [sp, #372]
 1964              	.LVL113:
 1965 0bc2 2261     		str	r2, [r4, #16]
 1966 0bc4 6361     		str	r3, [r4, #20]
 266:Source\mbedtls_open\library/sha512.c ****     ctx->state[1] += B;
 1967              		.loc 1 266 0
 1968 0bc6 549A     		ldr	r2, [sp, #336]
 1969 0bc8 559B     		ldr	r3, [sp, #340]
 1970 0bca 0C98     		ldr	r0, [sp, #48]
 1971 0bcc 0D99     		ldr	r1, [sp, #52]
 1972 0bce 1218     		adds	r2, r2, r0
 1973 0bd0 4B41     		adcs	r3, r3, r1
 1974 0bd2 A261     		str	r2, [r4, #24]
 1975 0bd4 E361     		str	r3, [r4, #28]
 267:Source\mbedtls_open\library/sha512.c ****     ctx->state[2] += C;
 1976              		.loc 1 267 0
 1977 0bd6 569A     		ldr	r2, [sp, #344]
 1978 0bd8 579B     		ldr	r3, [sp, #348]
 1979 0bda 1098     		ldr	r0, [sp, #64]
 1980 0bdc 1199     		ldr	r1, [sp, #68]
 1981 0bde 1218     		adds	r2, r2, r0
 1982 0be0 4B41     		adcs	r3, r3, r1
 1983 0be2 2100     		movs	r1, r4
 1984 0be4 2262     		str	r2, [r4, #32]
 1985 0be6 6362     		str	r3, [r4, #36]
 268:Source\mbedtls_open\library/sha512.c ****     ctx->state[3] += D;
 1986              		.loc 1 268 0
 1987 0be8 5E9C     		ldr	r4, [sp, #376]
 1988 0bea 5F9D     		ldr	r5, [sp, #380]
 1989 0bec 0A9A     		ldr	r2, [sp, #40]
 1990 0bee 0B9B     		ldr	r3, [sp, #44]
 1991 0bf0 A418     		adds	r4, r4, r2
 1992 0bf2 5D41     		adcs	r5, r5, r3
 1993 0bf4 8C62     		str	r4, [r1, #40]
 1994 0bf6 CD62     		str	r5, [r1, #44]
 269:Source\mbedtls_open\library/sha512.c ****     ctx->state[4] += E;
 1995              		.loc 1 269 0
 1996 0bf8 589C     		ldr	r4, [sp, #352]
 1997 0bfa 599D     		ldr	r5, [sp, #356]
 1998 0bfc 089A     		ldr	r2, [sp, #32]
ARM GAS  C:\Users\Phuong\AppData\Local\Temp\ccCGJz1B.s 			page 41


 1999 0bfe 099B     		ldr	r3, [sp, #36]
 2000 0c00 A418     		adds	r4, r4, r2
 2001 0c02 5D41     		adcs	r5, r5, r3
 2002 0c04 0C63     		str	r4, [r1, #48]
 2003 0c06 4D63     		str	r5, [r1, #52]
 270:Source\mbedtls_open\library/sha512.c ****     ctx->state[5] += F;
 2004              		.loc 1 270 0
 2005 0c08 5A9E     		ldr	r6, [sp, #360]
 2006 0c0a 5B9F     		ldr	r7, [sp, #364]
 2007 0c0c 049B     		ldr	r3, [sp, #16]
 2008 0c0e 059C     		ldr	r4, [sp, #20]
 2009 0c10 F618     		adds	r6, r6, r3
 2010 0c12 6741     		adcs	r7, r7, r4
 2011 0c14 0A00     		movs	r2, r1
 2012 0c16 8E63     		str	r6, [r1, #56]
 2013 0c18 CF63     		str	r7, [r1, #60]
 271:Source\mbedtls_open\library/sha512.c ****     ctx->state[6] += G;
 2014              		.loc 1 271 0
 2015 0c1a 6098     		ldr	r0, [sp, #384]
 2016 0c1c 6199     		ldr	r1, [sp, #388]
 2017 0c1e 009B     		ldr	r3, [sp]
 2018 0c20 019C     		ldr	r4, [sp, #4]
 2019 0c22 C018     		adds	r0, r0, r3
 2020 0c24 6141     		adcs	r1, r1, r4
 2021 0c26 1400     		movs	r4, r2
 2022 0c28 1064     		str	r0, [r2, #64]
 2023 0c2a 5164     		str	r1, [r2, #68]
 272:Source\mbedtls_open\library/sha512.c ****     ctx->state[7] += H;
 2024              		.loc 1 272 0
 2025 0c2c 629A     		ldr	r2, [sp, #392]
 2026 0c2e 639B     		ldr	r3, [sp, #396]
 2027 0c30 0698     		ldr	r0, [sp, #24]
 2028 0c32 0799     		ldr	r1, [sp, #28]
 2029 0c34 1218     		adds	r2, r2, r0
 2030 0c36 4B41     		adcs	r3, r3, r1
 2031 0c38 A264     		str	r2, [r4, #72]
 2032 0c3a E364     		str	r3, [r4, #76]
 273:Source\mbedtls_open\library/sha512.c **** 
 274:Source\mbedtls_open\library/sha512.c ****     return( 0 );
 275:Source\mbedtls_open\library/sha512.c **** }
 2033              		.loc 1 275 0
 2034 0c3c 0020     		movs	r0, #0
 2035 0c3e 044B     		ldr	r3, .L22
 2036 0c40 9D44     		add	sp, sp, r3
 2037              		@ sp needed
 2038              	.LVL114:
 2039              	.LVL115:
 2040 0c42 3CBC     		pop	{r2, r3, r4, r5}
 2041 0c44 9046     		mov	r8, r2
 2042 0c46 9946     		mov	r9, r3
 2043 0c48 A246     		mov	r10, r4
 2044 0c4a AB46     		mov	fp, r5
 2045 0c4c F0BD     		pop	{r4, r5, r6, r7, pc}
 2046              	.L23:
 2047 0c4e C046     		.align	2
 2048              	.L22:
 2049 0c50 14040000 		.word	1044
ARM GAS  C:\Users\Phuong\AppData\Local\Temp\ccCGJz1B.s 			page 42


 2050              		.cfi_endproc
 2051              	.LFE6:
 2052              		.size	mbedtls_internal_sha512_process, .-mbedtls_internal_sha512_process
 2053              		.section	.text.mbedtls_sha512_process,"ax",%progbits
 2054              		.align	2
 2055              		.global	mbedtls_sha512_process
 2056              		.code	16
 2057              		.thumb_func
 2058              		.type	mbedtls_sha512_process, %function
 2059              	mbedtls_sha512_process:
 2060              	.LFB7:
 276:Source\mbedtls_open\library/sha512.c **** 
 277:Source\mbedtls_open\library/sha512.c **** #if !defined(MBEDTLS_DEPRECATED_REMOVED)
 278:Source\mbedtls_open\library/sha512.c **** void mbedtls_sha512_process( mbedtls_sha512_context *ctx,
 279:Source\mbedtls_open\library/sha512.c ****                              const unsigned char data[128] )
 280:Source\mbedtls_open\library/sha512.c **** {
 2061              		.loc 1 280 0
 2062              		.cfi_startproc
 2063              		@ args = 0, pretend = 0, frame = 0
 2064              		@ frame_needed = 0, uses_anonymous_args = 0
 2065              	.LVL116:
 2066 0000 10B5     		push	{r4, lr}
 2067              		.cfi_def_cfa_offset 8
 2068              		.cfi_offset 4, -8
 2069              		.cfi_offset 14, -4
 281:Source\mbedtls_open\library/sha512.c ****     mbedtls_internal_sha512_process( ctx, data );
 2070              		.loc 1 281 0
 2071 0002 FFF7FEFF 		bl	mbedtls_internal_sha512_process
 2072              	.LVL117:
 282:Source\mbedtls_open\library/sha512.c **** }
 2073              		.loc 1 282 0
 2074              		@ sp needed
 2075 0006 10BD     		pop	{r4, pc}
 2076              		.cfi_endproc
 2077              	.LFE7:
 2078              		.size	mbedtls_sha512_process, .-mbedtls_sha512_process
 2079              		.section	.text.mbedtls_sha512_update_ret,"ax",%progbits
 2080              		.align	2
 2081              		.global	mbedtls_sha512_update_ret
 2082              		.code	16
 2083              		.thumb_func
 2084              		.type	mbedtls_sha512_update_ret, %function
 2085              	mbedtls_sha512_update_ret:
 2086              	.LFB8:
 283:Source\mbedtls_open\library/sha512.c **** #endif
 284:Source\mbedtls_open\library/sha512.c **** #endif /* !MBEDTLS_SHA512_PROCESS_ALT */
 285:Source\mbedtls_open\library/sha512.c **** 
 286:Source\mbedtls_open\library/sha512.c **** /*
 287:Source\mbedtls_open\library/sha512.c ****  * SHA-512 process buffer
 288:Source\mbedtls_open\library/sha512.c ****  */
 289:Source\mbedtls_open\library/sha512.c **** int mbedtls_sha512_update_ret( mbedtls_sha512_context *ctx,
 290:Source\mbedtls_open\library/sha512.c ****                                const unsigned char *input,
 291:Source\mbedtls_open\library/sha512.c ****                                size_t ilen )
 292:Source\mbedtls_open\library/sha512.c **** {
 2087              		.loc 1 292 0
 2088              		.cfi_startproc
 2089              		@ args = 0, pretend = 0, frame = 0
ARM GAS  C:\Users\Phuong\AppData\Local\Temp\ccCGJz1B.s 			page 43


 2090              		@ frame_needed = 0, uses_anonymous_args = 0
 2091              	.LVL118:
 2092 0000 F8B5     		push	{r3, r4, r5, r6, r7, lr}
 2093              		.cfi_def_cfa_offset 24
 2094              		.cfi_offset 3, -24
 2095              		.cfi_offset 4, -20
 2096              		.cfi_offset 5, -16
 2097              		.cfi_offset 6, -12
 2098              		.cfi_offset 7, -8
 2099              		.cfi_offset 14, -4
 2100 0002 4F46     		mov	r7, r9
 2101 0004 4646     		mov	r6, r8
 2102 0006 C0B4     		push	{r6, r7}
 2103              		.cfi_def_cfa_offset 32
 2104              		.cfi_offset 8, -32
 2105              		.cfi_offset 9, -28
 2106 0008 0700     		movs	r7, r0
 2107 000a 0D00     		movs	r5, r1
 2108 000c 141E     		subs	r4, r2, #0
 293:Source\mbedtls_open\library/sha512.c ****     int ret;
 294:Source\mbedtls_open\library/sha512.c ****     size_t fill;
 295:Source\mbedtls_open\library/sha512.c ****     unsigned int left;
 296:Source\mbedtls_open\library/sha512.c **** 
 297:Source\mbedtls_open\library/sha512.c ****     if( ilen == 0 )
 2109              		.loc 1 297 0
 2110 000e 48D0     		beq	.L32
 298:Source\mbedtls_open\library/sha512.c ****         return( 0 );
 299:Source\mbedtls_open\library/sha512.c **** 
 300:Source\mbedtls_open\library/sha512.c ****     left = (unsigned int) (ctx->total[0] & 0x7F);
 2111              		.loc 1 300 0
 2112 0010 7F20     		movs	r0, #127
 2113              	.LVL119:
 2114 0012 3B68     		ldr	r3, [r7]
 2115 0014 0340     		ands	r3, r0
 2116 0016 9946     		mov	r9, r3
 2117              	.LVL120:
 301:Source\mbedtls_open\library/sha512.c ****     fill = 128 - left;
 2118              		.loc 1 301 0
 2119 0018 8023     		movs	r3, #128
 2120              	.LVL121:
 2121 001a 4A46     		mov	r2, r9
 2122              	.LVL122:
 2123 001c 9E1A     		subs	r6, r3, r2
 2124              	.LVL123:
 302:Source\mbedtls_open\library/sha512.c **** 
 303:Source\mbedtls_open\library/sha512.c ****     ctx->total[0] += (uint64_t) ilen;
 2125              		.loc 1 303 0
 2126 001e 2000     		movs	r0, r4
 2127 0020 0021     		movs	r1, #0
 2128              	.LVL124:
 2129 0022 3A68     		ldr	r2, [r7]
 2130 0024 7B68     		ldr	r3, [r7, #4]
 2131 0026 1218     		adds	r2, r2, r0
 2132 0028 4B41     		adcs	r3, r3, r1
 2133 002a 3A60     		str	r2, [r7]
 2134 002c 7B60     		str	r3, [r7, #4]
 304:Source\mbedtls_open\library/sha512.c **** 
ARM GAS  C:\Users\Phuong\AppData\Local\Temp\ccCGJz1B.s 			page 44


 305:Source\mbedtls_open\library/sha512.c ****     if( ctx->total[0] < (uint64_t) ilen )
 2135              		.loc 1 305 0
 2136 002e 9942     		cmp	r1, r3
 2137 0030 09D1     		bne	.L27
 2138 0032 9442     		cmp	r4, r2
 2139 0034 07D9     		bls	.L27
 306:Source\mbedtls_open\library/sha512.c ****         ctx->total[1]++;
 2140              		.loc 1 306 0
 2141 0036 0122     		movs	r2, #1
 2142 0038 0023     		movs	r3, #0
 2143 003a B868     		ldr	r0, [r7, #8]
 2144 003c F968     		ldr	r1, [r7, #12]
 2145 003e 1218     		adds	r2, r2, r0
 2146 0040 4B41     		adcs	r3, r3, r1
 2147 0042 BA60     		str	r2, [r7, #8]
 2148 0044 FB60     		str	r3, [r7, #12]
 2149              	.L27:
 307:Source\mbedtls_open\library/sha512.c **** 
 308:Source\mbedtls_open\library/sha512.c ****     if( left && ilen >= fill )
 2150              		.loc 1 308 0
 2151 0046 4B46     		mov	r3, r9
 2152 0048 002B     		cmp	r3, #0
 2153 004a 1DD0     		beq	.L30
 2154              	.LVL125:
 2155              		.loc 1 308 0 is_stmt 0 discriminator 1
 2156 004c B442     		cmp	r4, r6
 2157 004e 1BD3     		bcc	.L30
 309:Source\mbedtls_open\library/sha512.c ****     {
 310:Source\mbedtls_open\library/sha512.c ****         memcpy( (void *) (ctx->buffer + left), input, fill );
 2158              		.loc 1 310 0 is_stmt 1
 2159 0050 5023     		movs	r3, #80
 2160              	.LVL126:
 2161 0052 9846     		mov	r8, r3
 2162 0054 B844     		add	r8, r8, r7
 2163 0056 4846     		mov	r0, r9
 2164 0058 4044     		add	r0, r0, r8
 2165 005a 3200     		movs	r2, r6
 2166 005c 2900     		movs	r1, r5
 2167 005e FFF7FEFF 		bl	memcpy
 2168              	.LVL127:
 311:Source\mbedtls_open\library/sha512.c **** 
 312:Source\mbedtls_open\library/sha512.c ****         if( ( ret = mbedtls_internal_sha512_process( ctx, ctx->buffer ) ) != 0 )
 2169              		.loc 1 312 0
 2170 0062 4146     		mov	r1, r8
 2171 0064 3800     		movs	r0, r7
 2172 0066 FFF7FEFF 		bl	mbedtls_internal_sha512_process
 2173              	.LVL128:
 2174 006a 0028     		cmp	r0, #0
 2175 006c 1CD1     		bne	.L26
 313:Source\mbedtls_open\library/sha512.c ****             return( ret );
 314:Source\mbedtls_open\library/sha512.c **** 
 315:Source\mbedtls_open\library/sha512.c ****         input += fill;
 2176              		.loc 1 315 0
 2177 006e AD19     		adds	r5, r5, r6
 2178              	.LVL129:
 316:Source\mbedtls_open\library/sha512.c ****         ilen  -= fill;
 2179              		.loc 1 316 0
ARM GAS  C:\Users\Phuong\AppData\Local\Temp\ccCGJz1B.s 			page 45


 2180 0070 A41B     		subs	r4, r4, r6
 2181              	.LVL130:
 317:Source\mbedtls_open\library/sha512.c ****         left = 0;
 2182              		.loc 1 317 0
 2183 0072 0023     		movs	r3, #0
 2184 0074 9946     		mov	r9, r3
 2185 0076 07E0     		b	.L30
 2186              	.LVL131:
 2187              	.L31:
 318:Source\mbedtls_open\library/sha512.c ****     }
 319:Source\mbedtls_open\library/sha512.c **** 
 320:Source\mbedtls_open\library/sha512.c ****     while( ilen >= 128 )
 321:Source\mbedtls_open\library/sha512.c ****     {
 322:Source\mbedtls_open\library/sha512.c ****         if( ( ret = mbedtls_internal_sha512_process( ctx, input ) ) != 0 )
 2188              		.loc 1 322 0
 2189 0078 2900     		movs	r1, r5
 2190 007a 3800     		movs	r0, r7
 2191 007c FFF7FEFF 		bl	mbedtls_internal_sha512_process
 2192              	.LVL132:
 2193 0080 0028     		cmp	r0, #0
 2194 0082 11D1     		bne	.L26
 323:Source\mbedtls_open\library/sha512.c ****             return( ret );
 324:Source\mbedtls_open\library/sha512.c **** 
 325:Source\mbedtls_open\library/sha512.c ****         input += 128;
 2195              		.loc 1 325 0
 2196 0084 8035     		adds	r5, r5, #128
 2197              	.LVL133:
 326:Source\mbedtls_open\library/sha512.c ****         ilen  -= 128;
 2198              		.loc 1 326 0
 2199 0086 803C     		subs	r4, r4, #128
 2200              	.LVL134:
 2201              	.L30:
 320:Source\mbedtls_open\library/sha512.c ****     {
 2202              		.loc 1 320 0
 2203 0088 7F2C     		cmp	r4, #127
 2204 008a F5D8     		bhi	.L31
 327:Source\mbedtls_open\library/sha512.c ****     }
 328:Source\mbedtls_open\library/sha512.c **** 
 329:Source\mbedtls_open\library/sha512.c ****     if( ilen > 0 )
 2205              		.loc 1 329 0
 2206 008c 002C     		cmp	r4, #0
 2207 008e 0AD0     		beq	.L35
 330:Source\mbedtls_open\library/sha512.c ****         memcpy( (void *) (ctx->buffer + left), input, ilen );
 2208              		.loc 1 330 0
 2209 0090 3800     		movs	r0, r7
 2210 0092 5030     		adds	r0, r0, #80
 2211 0094 4844     		add	r0, r0, r9
 2212 0096 2200     		movs	r2, r4
 2213 0098 2900     		movs	r1, r5
 2214 009a FFF7FEFF 		bl	memcpy
 2215              	.LVL135:
 331:Source\mbedtls_open\library/sha512.c **** 
 332:Source\mbedtls_open\library/sha512.c ****     return( 0 );
 2216              		.loc 1 332 0
 2217 009e 0020     		movs	r0, #0
 2218 00a0 02E0     		b	.L26
 2219              	.LVL136:
ARM GAS  C:\Users\Phuong\AppData\Local\Temp\ccCGJz1B.s 			page 46


 2220              	.L32:
 298:Source\mbedtls_open\library/sha512.c **** 
 2221              		.loc 1 298 0
 2222 00a2 0020     		movs	r0, #0
 2223              	.LVL137:
 2224 00a4 00E0     		b	.L26
 2225              	.LVL138:
 2226              	.L35:
 2227              		.loc 1 332 0
 2228 00a6 0020     		movs	r0, #0
 2229              	.LVL139:
 2230              	.L26:
 333:Source\mbedtls_open\library/sha512.c **** }
 2231              		.loc 1 333 0
 2232              		@ sp needed
 2233              	.LVL140:
 2234              	.LVL141:
 2235              	.LVL142:
 2236 00a8 0CBC     		pop	{r2, r3}
 2237 00aa 9046     		mov	r8, r2
 2238 00ac 9946     		mov	r9, r3
 2239 00ae F8BD     		pop	{r3, r4, r5, r6, r7, pc}
 2240              		.cfi_endproc
 2241              	.LFE8:
 2242              		.size	mbedtls_sha512_update_ret, .-mbedtls_sha512_update_ret
 2243              		.section	.text.mbedtls_sha512_update,"ax",%progbits
 2244              		.align	2
 2245              		.global	mbedtls_sha512_update
 2246              		.code	16
 2247              		.thumb_func
 2248              		.type	mbedtls_sha512_update, %function
 2249              	mbedtls_sha512_update:
 2250              	.LFB9:
 334:Source\mbedtls_open\library/sha512.c **** 
 335:Source\mbedtls_open\library/sha512.c **** #if !defined(MBEDTLS_DEPRECATED_REMOVED)
 336:Source\mbedtls_open\library/sha512.c **** void mbedtls_sha512_update( mbedtls_sha512_context *ctx,
 337:Source\mbedtls_open\library/sha512.c ****                             const unsigned char *input,
 338:Source\mbedtls_open\library/sha512.c ****                             size_t ilen )
 339:Source\mbedtls_open\library/sha512.c **** {
 2251              		.loc 1 339 0
 2252              		.cfi_startproc
 2253              		@ args = 0, pretend = 0, frame = 0
 2254              		@ frame_needed = 0, uses_anonymous_args = 0
 2255              	.LVL143:
 2256 0000 10B5     		push	{r4, lr}
 2257              		.cfi_def_cfa_offset 8
 2258              		.cfi_offset 4, -8
 2259              		.cfi_offset 14, -4
 340:Source\mbedtls_open\library/sha512.c ****     mbedtls_sha512_update_ret( ctx, input, ilen );
 2260              		.loc 1 340 0
 2261 0002 FFF7FEFF 		bl	mbedtls_sha512_update_ret
 2262              	.LVL144:
 341:Source\mbedtls_open\library/sha512.c **** }
 2263              		.loc 1 341 0
 2264              		@ sp needed
 2265 0006 10BD     		pop	{r4, pc}
 2266              		.cfi_endproc
ARM GAS  C:\Users\Phuong\AppData\Local\Temp\ccCGJz1B.s 			page 47


 2267              	.LFE9:
 2268              		.size	mbedtls_sha512_update, .-mbedtls_sha512_update
 2269              		.section	.text.mbedtls_sha512_finish_ret,"ax",%progbits
 2270              		.align	2
 2271              		.global	mbedtls_sha512_finish_ret
 2272              		.code	16
 2273              		.thumb_func
 2274              		.type	mbedtls_sha512_finish_ret, %function
 2275              	mbedtls_sha512_finish_ret:
 2276              	.LFB10:
 342:Source\mbedtls_open\library/sha512.c **** #endif
 343:Source\mbedtls_open\library/sha512.c **** 
 344:Source\mbedtls_open\library/sha512.c **** /*
 345:Source\mbedtls_open\library/sha512.c ****  * SHA-512 final digest
 346:Source\mbedtls_open\library/sha512.c ****  */
 347:Source\mbedtls_open\library/sha512.c **** int mbedtls_sha512_finish_ret( mbedtls_sha512_context *ctx,
 348:Source\mbedtls_open\library/sha512.c ****                                unsigned char output[64] )
 349:Source\mbedtls_open\library/sha512.c **** {
 2277              		.loc 1 349 0
 2278              		.cfi_startproc
 2279              		@ args = 0, pretend = 0, frame = 0
 2280              		@ frame_needed = 0, uses_anonymous_args = 0
 2281              	.LVL145:
 2282 0000 F8B5     		push	{r3, r4, r5, r6, r7, lr}
 2283              		.cfi_def_cfa_offset 24
 2284              		.cfi_offset 3, -24
 2285              		.cfi_offset 4, -20
 2286              		.cfi_offset 5, -16
 2287              		.cfi_offset 6, -12
 2288              		.cfi_offset 7, -8
 2289              		.cfi_offset 14, -4
 2290 0002 0400     		movs	r4, r0
 2291 0004 0D00     		movs	r5, r1
 350:Source\mbedtls_open\library/sha512.c ****     int ret;
 351:Source\mbedtls_open\library/sha512.c ****     unsigned used;
 352:Source\mbedtls_open\library/sha512.c ****     uint64_t high, low;
 353:Source\mbedtls_open\library/sha512.c **** 
 354:Source\mbedtls_open\library/sha512.c ****     /*
 355:Source\mbedtls_open\library/sha512.c ****      * Add padding: 0x80 then 0x00 until 16 bytes remain for the length
 356:Source\mbedtls_open\library/sha512.c ****      */
 357:Source\mbedtls_open\library/sha512.c ****     used = ctx->total[0] & 0x7F;
 2292              		.loc 1 357 0
 2293 0006 7F23     		movs	r3, #127
 2294 0008 0268     		ldr	r2, [r0]
 2295 000a 1340     		ands	r3, r2
 2296              	.LVL146:
 358:Source\mbedtls_open\library/sha512.c **** 
 359:Source\mbedtls_open\library/sha512.c ****     ctx->buffer[used++] = 0x80;
 2297              		.loc 1 359 0
 2298 000c 581C     		adds	r0, r3, #1
 2299              	.LVL147:
 2300 000e E318     		adds	r3, r4, r3
 2301 0010 5033     		adds	r3, r3, #80
 2302 0012 8022     		movs	r2, #128
 2303 0014 1A70     		strb	r2, [r3]
 360:Source\mbedtls_open\library/sha512.c **** 
 361:Source\mbedtls_open\library/sha512.c ****     if( used <= 112 )
ARM GAS  C:\Users\Phuong\AppData\Local\Temp\ccCGJz1B.s 			page 48


 2304              		.loc 1 361 0
 2305 0016 7028     		cmp	r0, #112
 2306 0018 08D8     		bhi	.L39
 362:Source\mbedtls_open\library/sha512.c ****     {
 363:Source\mbedtls_open\library/sha512.c ****         /* Enough room for padding + length in current block */
 364:Source\mbedtls_open\library/sha512.c ****         memset( ctx->buffer + used, 0, 112 - used );
 2307              		.loc 1 364 0
 2308 001a 2300     		movs	r3, r4
 2309 001c 5033     		adds	r3, r3, #80
 2310 001e 103A     		subs	r2, r2, #16
 2311 0020 121A     		subs	r2, r2, r0
 2312 0022 1818     		adds	r0, r3, r0
 2313              	.LVL148:
 2314 0024 0021     		movs	r1, #0
 2315              	.LVL149:
 2316 0026 FFF7FEFF 		bl	memset
 2317              	.LVL150:
 2318 002a 13E0     		b	.L40
 2319              	.LVL151:
 2320              	.L39:
 365:Source\mbedtls_open\library/sha512.c ****     }
 366:Source\mbedtls_open\library/sha512.c ****     else
 367:Source\mbedtls_open\library/sha512.c ****     {
 368:Source\mbedtls_open\library/sha512.c ****         /* We'll need an extra block */
 369:Source\mbedtls_open\library/sha512.c ****         memset( ctx->buffer + used, 0, 128 - used );
 2321              		.loc 1 369 0
 2322 002c 2600     		movs	r6, r4
 2323 002e 5036     		adds	r6, r6, #80
 2324 0030 8022     		movs	r2, #128
 2325 0032 121A     		subs	r2, r2, r0
 2326 0034 3018     		adds	r0, r6, r0
 2327              	.LVL152:
 2328 0036 0021     		movs	r1, #0
 2329              	.LVL153:
 2330 0038 FFF7FEFF 		bl	memset
 2331              	.LVL154:
 370:Source\mbedtls_open\library/sha512.c **** 
 371:Source\mbedtls_open\library/sha512.c ****         if( ( ret = mbedtls_internal_sha512_process( ctx, ctx->buffer ) ) != 0 )
 2332              		.loc 1 371 0
 2333 003c 3100     		movs	r1, r6
 2334 003e 2000     		movs	r0, r4
 2335 0040 FFF7FEFF 		bl	mbedtls_internal_sha512_process
 2336              	.LVL155:
 2337 0044 0028     		cmp	r0, #0
 2338 0046 00D0     		beq	.LCB2139
 2339 0048 0CE1     		b	.L41	@long jump
 2340              	.LCB2139:
 372:Source\mbedtls_open\library/sha512.c ****             return( ret );
 373:Source\mbedtls_open\library/sha512.c **** 
 374:Source\mbedtls_open\library/sha512.c ****         memset( ctx->buffer, 0, 112 );
 2341              		.loc 1 374 0
 2342 004a 7022     		movs	r2, #112
 2343 004c 0021     		movs	r1, #0
 2344 004e 3000     		movs	r0, r6
 2345              	.LVL156:
 2346 0050 FFF7FEFF 		bl	memset
 2347              	.LVL157:
ARM GAS  C:\Users\Phuong\AppData\Local\Temp\ccCGJz1B.s 			page 49


 2348              	.L40:
 375:Source\mbedtls_open\library/sha512.c ****     }
 376:Source\mbedtls_open\library/sha512.c **** 
 377:Source\mbedtls_open\library/sha512.c ****     /*
 378:Source\mbedtls_open\library/sha512.c ****      * Add message length
 379:Source\mbedtls_open\library/sha512.c ****      */
 380:Source\mbedtls_open\library/sha512.c ****     high = ( ctx->total[0] >> 61 )
 2349              		.loc 1 380 0
 2350 0054 2668     		ldr	r6, [r4]
 2351 0056 6368     		ldr	r3, [r4, #4]
 2352 0058 5A0F     		lsrs	r2, r3, #29
 381:Source\mbedtls_open\library/sha512.c ****          | ( ctx->total[1] <<  3 );
 2353              		.loc 1 381 0
 2354 005a A068     		ldr	r0, [r4, #8]
 2355 005c 470F     		lsrs	r7, r0, #29
 2356 005e E168     		ldr	r1, [r4, #12]
 2357 0060 C900     		lsls	r1, r1, #3
 2358 0062 3943     		orrs	r1, r7
 2359 0064 C000     		lsls	r0, r0, #3
 380:Source\mbedtls_open\library/sha512.c ****          | ( ctx->total[1] <<  3 );
 2360              		.loc 1 380 0
 2361 0066 0243     		orrs	r2, r0
 2362              	.LVL158:
 382:Source\mbedtls_open\library/sha512.c ****     low  = ( ctx->total[0] <<  3 );
 2363              		.loc 1 382 0
 2364 0068 700F     		lsrs	r0, r6, #29
 2365 006a DB00     		lsls	r3, r3, #3
 2366 006c 0343     		orrs	r3, r0
 2367 006e F600     		lsls	r6, r6, #3
 2368              	.LVL159:
 383:Source\mbedtls_open\library/sha512.c **** 
 384:Source\mbedtls_open\library/sha512.c ****     PUT_UINT64_BE( high, ctx->buffer, 112 );
 2369              		.loc 1 384 0
 2370 0070 0F0E     		lsrs	r7, r1, #24
 2371 0072 C020     		movs	r0, #192
 2372 0074 2754     		strb	r7, [r4, r0]
 2373 0076 0F0C     		lsrs	r7, r1, #16
 2374 0078 0130     		adds	r0, r0, #1
 2375 007a 2754     		strb	r7, [r4, r0]
 2376 007c 0F0A     		lsrs	r7, r1, #8
 2377 007e 0130     		adds	r0, r0, #1
 2378 0080 2754     		strb	r7, [r4, r0]
 2379 0082 0130     		adds	r0, r0, #1
 2380 0084 2154     		strb	r1, [r4, r0]
 2381 0086 100E     		lsrs	r0, r2, #24
 2382 0088 C421     		movs	r1, #196
 2383              	.LVL160:
 2384 008a 6054     		strb	r0, [r4, r1]
 2385 008c 100C     		lsrs	r0, r2, #16
 2386 008e 0131     		adds	r1, r1, #1
 2387 0090 6054     		strb	r0, [r4, r1]
 2388 0092 100A     		lsrs	r0, r2, #8
 2389 0094 0131     		adds	r1, r1, #1
 2390 0096 6054     		strb	r0, [r4, r1]
 2391 0098 0131     		adds	r1, r1, #1
 2392 009a 6254     		strb	r2, [r4, r1]
 385:Source\mbedtls_open\library/sha512.c ****     PUT_UINT64_BE( low,  ctx->buffer, 120 );
ARM GAS  C:\Users\Phuong\AppData\Local\Temp\ccCGJz1B.s 			page 50


 2393              		.loc 1 385 0
 2394 009c 190E     		lsrs	r1, r3, #24
 2395 009e C822     		movs	r2, #200
 2396 00a0 A154     		strb	r1, [r4, r2]
 2397 00a2 190C     		lsrs	r1, r3, #16
 2398 00a4 0132     		adds	r2, r2, #1
 2399 00a6 A154     		strb	r1, [r4, r2]
 2400 00a8 190A     		lsrs	r1, r3, #8
 2401 00aa 0132     		adds	r2, r2, #1
 2402 00ac A154     		strb	r1, [r4, r2]
 2403 00ae 0132     		adds	r2, r2, #1
 2404 00b0 A354     		strb	r3, [r4, r2]
 2405 00b2 320E     		lsrs	r2, r6, #24
 2406 00b4 CC23     		movs	r3, #204
 2407              	.LVL161:
 2408 00b6 E254     		strb	r2, [r4, r3]
 2409 00b8 320C     		lsrs	r2, r6, #16
 2410 00ba 0133     		adds	r3, r3, #1
 2411 00bc E254     		strb	r2, [r4, r3]
 2412 00be 320A     		lsrs	r2, r6, #8
 2413 00c0 0133     		adds	r3, r3, #1
 2414 00c2 E254     		strb	r2, [r4, r3]
 2415 00c4 0133     		adds	r3, r3, #1
 2416 00c6 E654     		strb	r6, [r4, r3]
 386:Source\mbedtls_open\library/sha512.c **** 
 387:Source\mbedtls_open\library/sha512.c ****     if( ( ret = mbedtls_internal_sha512_process( ctx, ctx->buffer ) ) != 0 )
 2417              		.loc 1 387 0
 2418 00c8 2100     		movs	r1, r4
 2419 00ca 5031     		adds	r1, r1, #80
 2420 00cc 2000     		movs	r0, r4
 2421 00ce FFF7FEFF 		bl	mbedtls_internal_sha512_process
 2422              	.LVL162:
 2423 00d2 0028     		cmp	r0, #0
 2424 00d4 00D0     		beq	.LCB2250
 2425 00d6 C5E0     		b	.L41	@long jump
 2426              	.LCB2250:
 388:Source\mbedtls_open\library/sha512.c ****         return( ret );
 389:Source\mbedtls_open\library/sha512.c **** 
 390:Source\mbedtls_open\library/sha512.c ****     /*
 391:Source\mbedtls_open\library/sha512.c ****      * Output final state
 392:Source\mbedtls_open\library/sha512.c ****      */
 393:Source\mbedtls_open\library/sha512.c ****     PUT_UINT64_BE( ctx->state[0], output,  0 );
 2427              		.loc 1 393 0
 2428 00d8 E37D     		ldrb	r3, [r4, #23]
 2429 00da 2B70     		strb	r3, [r5]
 2430 00dc A37D     		ldrb	r3, [r4, #22]
 2431 00de 6B70     		strb	r3, [r5, #1]
 2432 00e0 6369     		ldr	r3, [r4, #20]
 2433 00e2 1B0A     		lsrs	r3, r3, #8
 2434 00e4 AB70     		strb	r3, [r5, #2]
 2435 00e6 237D     		ldrb	r3, [r4, #20]
 2436 00e8 EB70     		strb	r3, [r5, #3]
 2437 00ea E37C     		ldrb	r3, [r4, #19]
 2438 00ec 2B71     		strb	r3, [r5, #4]
 2439 00ee A37C     		ldrb	r3, [r4, #18]
 2440 00f0 6B71     		strb	r3, [r5, #5]
 2441 00f2 2369     		ldr	r3, [r4, #16]
ARM GAS  C:\Users\Phuong\AppData\Local\Temp\ccCGJz1B.s 			page 51


 2442 00f4 1B0A     		lsrs	r3, r3, #8
 2443 00f6 AB71     		strb	r3, [r5, #6]
 2444 00f8 237C     		ldrb	r3, [r4, #16]
 2445 00fa EB71     		strb	r3, [r5, #7]
 394:Source\mbedtls_open\library/sha512.c ****     PUT_UINT64_BE( ctx->state[1], output,  8 );
 2446              		.loc 1 394 0
 2447 00fc E37F     		ldrb	r3, [r4, #31]
 2448 00fe 2B72     		strb	r3, [r5, #8]
 2449 0100 A37F     		ldrb	r3, [r4, #30]
 2450 0102 6B72     		strb	r3, [r5, #9]
 2451 0104 E369     		ldr	r3, [r4, #28]
 2452 0106 1B0A     		lsrs	r3, r3, #8
 2453 0108 AB72     		strb	r3, [r5, #10]
 2454 010a 237F     		ldrb	r3, [r4, #28]
 2455 010c EB72     		strb	r3, [r5, #11]
 2456 010e E37E     		ldrb	r3, [r4, #27]
 2457 0110 2B73     		strb	r3, [r5, #12]
 2458 0112 A37E     		ldrb	r3, [r4, #26]
 2459 0114 6B73     		strb	r3, [r5, #13]
 2460 0116 A369     		ldr	r3, [r4, #24]
 2461 0118 1B0A     		lsrs	r3, r3, #8
 2462 011a AB73     		strb	r3, [r5, #14]
 2463 011c 237E     		ldrb	r3, [r4, #24]
 2464 011e EB73     		strb	r3, [r5, #15]
 395:Source\mbedtls_open\library/sha512.c ****     PUT_UINT64_BE( ctx->state[2], output, 16 );
 2465              		.loc 1 395 0
 2466 0120 636A     		ldr	r3, [r4, #36]
 2467 0122 1B0E     		lsrs	r3, r3, #24
 2468 0124 2B74     		strb	r3, [r5, #16]
 2469 0126 E38C     		ldrh	r3, [r4, #38]
 2470 0128 6B74     		strb	r3, [r5, #17]
 2471 012a 636A     		ldr	r3, [r4, #36]
 2472 012c 1B0A     		lsrs	r3, r3, #8
 2473 012e AB74     		strb	r3, [r5, #18]
 2474 0130 636A     		ldr	r3, [r4, #36]
 2475 0132 EB74     		strb	r3, [r5, #19]
 2476 0134 236A     		ldr	r3, [r4, #32]
 2477 0136 1B0E     		lsrs	r3, r3, #24
 2478 0138 2B75     		strb	r3, [r5, #20]
 2479 013a 638C     		ldrh	r3, [r4, #34]
 2480 013c 6B75     		strb	r3, [r5, #21]
 2481 013e 236A     		ldr	r3, [r4, #32]
 2482 0140 1B0A     		lsrs	r3, r3, #8
 2483 0142 AB75     		strb	r3, [r5, #22]
 2484 0144 236A     		ldr	r3, [r4, #32]
 2485 0146 EB75     		strb	r3, [r5, #23]
 396:Source\mbedtls_open\library/sha512.c ****     PUT_UINT64_BE( ctx->state[3], output, 24 );
 2486              		.loc 1 396 0
 2487 0148 E36A     		ldr	r3, [r4, #44]
 2488 014a 1B0E     		lsrs	r3, r3, #24
 2489 014c 2B76     		strb	r3, [r5, #24]
 2490 014e E38D     		ldrh	r3, [r4, #46]
 2491 0150 6B76     		strb	r3, [r5, #25]
 2492 0152 E36A     		ldr	r3, [r4, #44]
 2493 0154 1B0A     		lsrs	r3, r3, #8
 2494 0156 AB76     		strb	r3, [r5, #26]
 2495 0158 E36A     		ldr	r3, [r4, #44]
ARM GAS  C:\Users\Phuong\AppData\Local\Temp\ccCGJz1B.s 			page 52


 2496 015a EB76     		strb	r3, [r5, #27]
 2497 015c A36A     		ldr	r3, [r4, #40]
 2498 015e 1B0E     		lsrs	r3, r3, #24
 2499 0160 2B77     		strb	r3, [r5, #28]
 2500 0162 638D     		ldrh	r3, [r4, #42]
 2501 0164 6B77     		strb	r3, [r5, #29]
 2502 0166 A36A     		ldr	r3, [r4, #40]
 2503 0168 1B0A     		lsrs	r3, r3, #8
 2504 016a AB77     		strb	r3, [r5, #30]
 2505 016c A36A     		ldr	r3, [r4, #40]
 2506 016e EB77     		strb	r3, [r5, #31]
 397:Source\mbedtls_open\library/sha512.c ****     PUT_UINT64_BE( ctx->state[4], output, 32 );
 2507              		.loc 1 397 0
 2508 0170 636B     		ldr	r3, [r4, #52]
 2509 0172 1B0E     		lsrs	r3, r3, #24
 2510 0174 2022     		movs	r2, #32
 2511 0176 AB54     		strb	r3, [r5, r2]
 2512 0178 E28E     		ldrh	r2, [r4, #54]
 2513 017a 2123     		movs	r3, #33
 2514 017c EA54     		strb	r2, [r5, r3]
 2515 017e 636B     		ldr	r3, [r4, #52]
 2516 0180 1B0A     		lsrs	r3, r3, #8
 2517 0182 2222     		movs	r2, #34
 2518 0184 AB54     		strb	r3, [r5, r2]
 2519 0186 2323     		movs	r3, #35
 2520 0188 626B     		ldr	r2, [r4, #52]
 2521 018a EA54     		strb	r2, [r5, r3]
 2522 018c 236B     		ldr	r3, [r4, #48]
 2523 018e 1B0E     		lsrs	r3, r3, #24
 2524 0190 2422     		movs	r2, #36
 2525 0192 AB54     		strb	r3, [r5, r2]
 2526 0194 628E     		ldrh	r2, [r4, #50]
 2527 0196 2523     		movs	r3, #37
 2528 0198 EA54     		strb	r2, [r5, r3]
 2529 019a 236B     		ldr	r3, [r4, #48]
 2530 019c 1B0A     		lsrs	r3, r3, #8
 2531 019e 2622     		movs	r2, #38
 2532 01a0 AB54     		strb	r3, [r5, r2]
 2533 01a2 2723     		movs	r3, #39
 2534 01a4 226B     		ldr	r2, [r4, #48]
 2535 01a6 EA54     		strb	r2, [r5, r3]
 398:Source\mbedtls_open\library/sha512.c ****     PUT_UINT64_BE( ctx->state[5], output, 40 );
 2536              		.loc 1 398 0
 2537 01a8 E36B     		ldr	r3, [r4, #60]
 2538 01aa 1B0E     		lsrs	r3, r3, #24
 2539 01ac 2822     		movs	r2, #40
 2540 01ae AB54     		strb	r3, [r5, r2]
 2541 01b0 E28F     		ldrh	r2, [r4, #62]
 2542 01b2 2923     		movs	r3, #41
 2543 01b4 EA54     		strb	r2, [r5, r3]
 2544 01b6 E36B     		ldr	r3, [r4, #60]
 2545 01b8 1B0A     		lsrs	r3, r3, #8
 2546 01ba 2A22     		movs	r2, #42
 2547 01bc AB54     		strb	r3, [r5, r2]
 2548 01be 2B23     		movs	r3, #43
 2549 01c0 E26B     		ldr	r2, [r4, #60]
 2550 01c2 EA54     		strb	r2, [r5, r3]
ARM GAS  C:\Users\Phuong\AppData\Local\Temp\ccCGJz1B.s 			page 53


 2551 01c4 A36B     		ldr	r3, [r4, #56]
 2552 01c6 1B0E     		lsrs	r3, r3, #24
 2553 01c8 2C22     		movs	r2, #44
 2554 01ca AB54     		strb	r3, [r5, r2]
 2555 01cc 628F     		ldrh	r2, [r4, #58]
 2556 01ce 2D23     		movs	r3, #45
 2557 01d0 EA54     		strb	r2, [r5, r3]
 2558 01d2 A36B     		ldr	r3, [r4, #56]
 2559 01d4 1B0A     		lsrs	r3, r3, #8
 2560 01d6 2E22     		movs	r2, #46
 2561 01d8 AB54     		strb	r3, [r5, r2]
 2562 01da 2F23     		movs	r3, #47
 2563 01dc A26B     		ldr	r2, [r4, #56]
 2564 01de EA54     		strb	r2, [r5, r3]
 399:Source\mbedtls_open\library/sha512.c **** 
 400:Source\mbedtls_open\library/sha512.c ****     if( ctx->is384 == 0 )
 2565              		.loc 1 400 0
 2566 01e0 A133     		adds	r3, r3, #161
 2567 01e2 E058     		ldr	r0, [r4, r3]
 2568              	.LVL163:
 2569 01e4 0028     		cmp	r0, #0
 2570 01e6 3CD1     		bne	.L44
 401:Source\mbedtls_open\library/sha512.c ****     {
 402:Source\mbedtls_open\library/sha512.c ****         PUT_UINT64_BE( ctx->state[6], output, 48 );
 2571              		.loc 1 402 0
 2572 01e8 636C     		ldr	r3, [r4, #68]
 2573 01ea 1B0E     		lsrs	r3, r3, #24
 2574 01ec 3022     		movs	r2, #48
 2575 01ee AB54     		strb	r3, [r5, r2]
 2576 01f0 636C     		ldr	r3, [r4, #68]
 2577 01f2 1B0C     		lsrs	r3, r3, #16
 2578 01f4 0132     		adds	r2, r2, #1
 2579 01f6 AB54     		strb	r3, [r5, r2]
 2580 01f8 636C     		ldr	r3, [r4, #68]
 2581 01fa 1B0A     		lsrs	r3, r3, #8
 2582 01fc 0132     		adds	r2, r2, #1
 2583 01fe AB54     		strb	r3, [r5, r2]
 2584 0200 3323     		movs	r3, #51
 2585 0202 626C     		ldr	r2, [r4, #68]
 2586 0204 EA54     		strb	r2, [r5, r3]
 2587 0206 236C     		ldr	r3, [r4, #64]
 2588 0208 1B0E     		lsrs	r3, r3, #24
 2589 020a 3422     		movs	r2, #52
 2590 020c AB54     		strb	r3, [r5, r2]
 2591 020e 236C     		ldr	r3, [r4, #64]
 2592 0210 1B0C     		lsrs	r3, r3, #16
 2593 0212 0132     		adds	r2, r2, #1
 2594 0214 AB54     		strb	r3, [r5, r2]
 2595 0216 236C     		ldr	r3, [r4, #64]
 2596 0218 1B0A     		lsrs	r3, r3, #8
 2597 021a 0132     		adds	r2, r2, #1
 2598 021c AB54     		strb	r3, [r5, r2]
 2599 021e 3723     		movs	r3, #55
 2600 0220 226C     		ldr	r2, [r4, #64]
 2601 0222 EA54     		strb	r2, [r5, r3]
 403:Source\mbedtls_open\library/sha512.c ****         PUT_UINT64_BE( ctx->state[7], output, 56 );
 2602              		.loc 1 403 0
ARM GAS  C:\Users\Phuong\AppData\Local\Temp\ccCGJz1B.s 			page 54


 2603 0224 E36C     		ldr	r3, [r4, #76]
 2604 0226 1B0E     		lsrs	r3, r3, #24
 2605 0228 3822     		movs	r2, #56
 2606 022a AB54     		strb	r3, [r5, r2]
 2607 022c E36C     		ldr	r3, [r4, #76]
 2608 022e 1B0C     		lsrs	r3, r3, #16
 2609 0230 0132     		adds	r2, r2, #1
 2610 0232 AB54     		strb	r3, [r5, r2]
 2611 0234 E36C     		ldr	r3, [r4, #76]
 2612 0236 1B0A     		lsrs	r3, r3, #8
 2613 0238 0132     		adds	r2, r2, #1
 2614 023a AB54     		strb	r3, [r5, r2]
 2615 023c 3B23     		movs	r3, #59
 2616 023e E26C     		ldr	r2, [r4, #76]
 2617 0240 EA54     		strb	r2, [r5, r3]
 2618 0242 A36C     		ldr	r3, [r4, #72]
 2619 0244 1B0E     		lsrs	r3, r3, #24
 2620 0246 3C22     		movs	r2, #60
 2621 0248 AB54     		strb	r3, [r5, r2]
 2622 024a A36C     		ldr	r3, [r4, #72]
 2623 024c 1B0C     		lsrs	r3, r3, #16
 2624 024e 0132     		adds	r2, r2, #1
 2625 0250 AB54     		strb	r3, [r5, r2]
 2626 0252 A36C     		ldr	r3, [r4, #72]
 2627 0254 1B0A     		lsrs	r3, r3, #8
 2628 0256 0132     		adds	r2, r2, #1
 2629 0258 AB54     		strb	r3, [r5, r2]
 2630 025a A26C     		ldr	r2, [r4, #72]
 2631 025c 3F23     		movs	r3, #63
 2632 025e EA54     		strb	r2, [r5, r3]
 2633 0260 00E0     		b	.L41
 2634              	.L44:
 404:Source\mbedtls_open\library/sha512.c ****     }
 405:Source\mbedtls_open\library/sha512.c **** 
 406:Source\mbedtls_open\library/sha512.c ****     return( 0 );
 2635              		.loc 1 406 0
 2636 0262 0020     		movs	r0, #0
 2637              	.L41:
 407:Source\mbedtls_open\library/sha512.c **** }
 2638              		.loc 1 407 0
 2639              		@ sp needed
 2640              	.LVL164:
 2641              	.LVL165:
 2642 0264 F8BD     		pop	{r3, r4, r5, r6, r7, pc}
 2643              		.cfi_endproc
 2644              	.LFE10:
 2645              		.size	mbedtls_sha512_finish_ret, .-mbedtls_sha512_finish_ret
 2646 0266 C046     		.section	.text.mbedtls_sha512_finish,"ax",%progbits
 2647              		.align	2
 2648              		.global	mbedtls_sha512_finish
 2649              		.code	16
 2650              		.thumb_func
 2651              		.type	mbedtls_sha512_finish, %function
 2652              	mbedtls_sha512_finish:
 2653              	.LFB11:
 408:Source\mbedtls_open\library/sha512.c **** 
 409:Source\mbedtls_open\library/sha512.c **** #if !defined(MBEDTLS_DEPRECATED_REMOVED)
ARM GAS  C:\Users\Phuong\AppData\Local\Temp\ccCGJz1B.s 			page 55


 410:Source\mbedtls_open\library/sha512.c **** void mbedtls_sha512_finish( mbedtls_sha512_context *ctx,
 411:Source\mbedtls_open\library/sha512.c ****                             unsigned char output[64] )
 412:Source\mbedtls_open\library/sha512.c **** {
 2654              		.loc 1 412 0
 2655              		.cfi_startproc
 2656              		@ args = 0, pretend = 0, frame = 0
 2657              		@ frame_needed = 0, uses_anonymous_args = 0
 2658              	.LVL166:
 2659 0000 10B5     		push	{r4, lr}
 2660              		.cfi_def_cfa_offset 8
 2661              		.cfi_offset 4, -8
 2662              		.cfi_offset 14, -4
 413:Source\mbedtls_open\library/sha512.c ****     mbedtls_sha512_finish_ret( ctx, output );
 2663              		.loc 1 413 0
 2664 0002 FFF7FEFF 		bl	mbedtls_sha512_finish_ret
 2665              	.LVL167:
 414:Source\mbedtls_open\library/sha512.c **** }
 2666              		.loc 1 414 0
 2667              		@ sp needed
 2668 0006 10BD     		pop	{r4, pc}
 2669              		.cfi_endproc
 2670              	.LFE11:
 2671              		.size	mbedtls_sha512_finish, .-mbedtls_sha512_finish
 2672              		.section	.text.mbedtls_sha512_ret,"ax",%progbits
 2673              		.align	2
 2674              		.global	mbedtls_sha512_ret
 2675              		.code	16
 2676              		.thumb_func
 2677              		.type	mbedtls_sha512_ret, %function
 2678              	mbedtls_sha512_ret:
 2679              	.LFB12:
 415:Source\mbedtls_open\library/sha512.c **** #endif
 416:Source\mbedtls_open\library/sha512.c **** 
 417:Source\mbedtls_open\library/sha512.c **** #endif /* !MBEDTLS_SHA512_ALT */
 418:Source\mbedtls_open\library/sha512.c **** 
 419:Source\mbedtls_open\library/sha512.c **** /*
 420:Source\mbedtls_open\library/sha512.c ****  * output = SHA-512( input buffer )
 421:Source\mbedtls_open\library/sha512.c ****  */
 422:Source\mbedtls_open\library/sha512.c **** int mbedtls_sha512_ret( const unsigned char *input,
 423:Source\mbedtls_open\library/sha512.c ****                     size_t ilen,
 424:Source\mbedtls_open\library/sha512.c ****                     unsigned char output[64],
 425:Source\mbedtls_open\library/sha512.c ****                     int is384 )
 426:Source\mbedtls_open\library/sha512.c **** {
 2680              		.loc 1 426 0
 2681              		.cfi_startproc
 2682              		@ args = 0, pretend = 0, frame = 216
 2683              		@ frame_needed = 0, uses_anonymous_args = 0
 2684              	.LVL168:
 2685 0000 F0B5     		push	{r4, r5, r6, r7, lr}
 2686              		.cfi_def_cfa_offset 20
 2687              		.cfi_offset 4, -20
 2688              		.cfi_offset 5, -16
 2689              		.cfi_offset 6, -12
 2690              		.cfi_offset 7, -8
 2691              		.cfi_offset 14, -4
 2692 0002 B7B0     		sub	sp, sp, #220
 2693              		.cfi_def_cfa_offset 240
ARM GAS  C:\Users\Phuong\AppData\Local\Temp\ccCGJz1B.s 			page 56


 2694 0004 0500     		movs	r5, r0
 2695 0006 0E00     		movs	r6, r1
 2696 0008 1700     		movs	r7, r2
 2697 000a 1C00     		movs	r4, r3
 427:Source\mbedtls_open\library/sha512.c ****     int ret;
 428:Source\mbedtls_open\library/sha512.c ****     mbedtls_sha512_context ctx;
 429:Source\mbedtls_open\library/sha512.c **** 
 430:Source\mbedtls_open\library/sha512.c ****     mbedtls_sha512_init( &ctx );
 2698              		.loc 1 430 0
 2699 000c 6846     		mov	r0, sp
 2700              	.LVL169:
 2701 000e FFF7FEFF 		bl	mbedtls_sha512_init
 2702              	.LVL170:
 431:Source\mbedtls_open\library/sha512.c **** 
 432:Source\mbedtls_open\library/sha512.c ****     if( ( ret = mbedtls_sha512_starts_ret( &ctx, is384 ) ) != 0 )
 2703              		.loc 1 432 0
 2704 0012 2100     		movs	r1, r4
 2705 0014 6846     		mov	r0, sp
 2706 0016 FFF7FEFF 		bl	mbedtls_sha512_starts_ret
 2707              	.LVL171:
 2708 001a 041E     		subs	r4, r0, #0
 2709              	.LVL172:
 2710 001c 0BD1     		bne	.L47
 433:Source\mbedtls_open\library/sha512.c ****         goto exit;
 434:Source\mbedtls_open\library/sha512.c **** 
 435:Source\mbedtls_open\library/sha512.c ****     if( ( ret = mbedtls_sha512_update_ret( &ctx, input, ilen ) ) != 0 )
 2711              		.loc 1 435 0
 2712 001e 3200     		movs	r2, r6
 2713 0020 2900     		movs	r1, r5
 2714 0022 6846     		mov	r0, sp
 2715              	.LVL173:
 2716 0024 FFF7FEFF 		bl	mbedtls_sha512_update_ret
 2717              	.LVL174:
 2718 0028 041E     		subs	r4, r0, #0
 2719              	.LVL175:
 2720 002a 04D1     		bne	.L47
 436:Source\mbedtls_open\library/sha512.c ****         goto exit;
 437:Source\mbedtls_open\library/sha512.c **** 
 438:Source\mbedtls_open\library/sha512.c ****     if( ( ret = mbedtls_sha512_finish_ret( &ctx, output ) ) != 0 )
 2721              		.loc 1 438 0
 2722 002c 3900     		movs	r1, r7
 2723 002e 6846     		mov	r0, sp
 2724              	.LVL176:
 2725 0030 FFF7FEFF 		bl	mbedtls_sha512_finish_ret
 2726              	.LVL177:
 2727 0034 0400     		movs	r4, r0
 2728              	.LVL178:
 2729              	.L47:
 439:Source\mbedtls_open\library/sha512.c ****         goto exit;
 440:Source\mbedtls_open\library/sha512.c **** 
 441:Source\mbedtls_open\library/sha512.c **** exit:
 442:Source\mbedtls_open\library/sha512.c ****     mbedtls_sha512_free( &ctx );
 2730              		.loc 1 442 0
 2731 0036 6846     		mov	r0, sp
 2732              	.LVL179:
 2733 0038 FFF7FEFF 		bl	mbedtls_sha512_free
 2734              	.LVL180:
ARM GAS  C:\Users\Phuong\AppData\Local\Temp\ccCGJz1B.s 			page 57


 443:Source\mbedtls_open\library/sha512.c **** 
 444:Source\mbedtls_open\library/sha512.c ****     return( ret );
 445:Source\mbedtls_open\library/sha512.c **** }
 2735              		.loc 1 445 0
 2736 003c 2000     		movs	r0, r4
 2737 003e 37B0     		add	sp, sp, #220
 2738              		@ sp needed
 2739              	.LVL181:
 2740              	.LVL182:
 2741              	.LVL183:
 2742              	.LVL184:
 2743 0040 F0BD     		pop	{r4, r5, r6, r7, pc}
 2744              		.cfi_endproc
 2745              	.LFE12:
 2746              		.size	mbedtls_sha512_ret, .-mbedtls_sha512_ret
 2747 0042 C046     		.section	.text.mbedtls_sha512,"ax",%progbits
 2748              		.align	2
 2749              		.global	mbedtls_sha512
 2750              		.code	16
 2751              		.thumb_func
 2752              		.type	mbedtls_sha512, %function
 2753              	mbedtls_sha512:
 2754              	.LFB13:
 446:Source\mbedtls_open\library/sha512.c **** 
 447:Source\mbedtls_open\library/sha512.c **** #if !defined(MBEDTLS_DEPRECATED_REMOVED)
 448:Source\mbedtls_open\library/sha512.c **** void mbedtls_sha512( const unsigned char *input,
 449:Source\mbedtls_open\library/sha512.c ****                      size_t ilen,
 450:Source\mbedtls_open\library/sha512.c ****                      unsigned char output[64],
 451:Source\mbedtls_open\library/sha512.c ****                      int is384 )
 452:Source\mbedtls_open\library/sha512.c **** {
 2755              		.loc 1 452 0
 2756              		.cfi_startproc
 2757              		@ args = 0, pretend = 0, frame = 0
 2758              		@ frame_needed = 0, uses_anonymous_args = 0
 2759              	.LVL185:
 2760 0000 10B5     		push	{r4, lr}
 2761              		.cfi_def_cfa_offset 8
 2762              		.cfi_offset 4, -8
 2763              		.cfi_offset 14, -4
 453:Source\mbedtls_open\library/sha512.c ****     mbedtls_sha512_ret( input, ilen, output, is384 );
 2764              		.loc 1 453 0
 2765 0002 FFF7FEFF 		bl	mbedtls_sha512_ret
 2766              	.LVL186:
 454:Source\mbedtls_open\library/sha512.c **** }
 2767              		.loc 1 454 0
 2768              		@ sp needed
 2769 0006 10BD     		pop	{r4, pc}
 2770              		.cfi_endproc
 2771              	.LFE13:
 2772              		.size	mbedtls_sha512, .-mbedtls_sha512
 2773              		.global	__aeabi_idivmod
 2774              		.section	.text.mbedtls_sha512_self_test,"ax",%progbits
 2775              		.align	2
 2776              		.global	mbedtls_sha512_self_test
 2777              		.code	16
 2778              		.thumb_func
 2779              		.type	mbedtls_sha512_self_test, %function
ARM GAS  C:\Users\Phuong\AppData\Local\Temp\ccCGJz1B.s 			page 58


 2780              	mbedtls_sha512_self_test:
 2781              	.LFB14:
 455:Source\mbedtls_open\library/sha512.c **** #endif
 456:Source\mbedtls_open\library/sha512.c **** 
 457:Source\mbedtls_open\library/sha512.c **** #if defined(MBEDTLS_SELF_TEST)
 458:Source\mbedtls_open\library/sha512.c **** 
 459:Source\mbedtls_open\library/sha512.c **** /*
 460:Source\mbedtls_open\library/sha512.c ****  * FIPS-180-2 test vectors
 461:Source\mbedtls_open\library/sha512.c ****  */
 462:Source\mbedtls_open\library/sha512.c **** static const unsigned char sha512_test_buf[3][113] =
 463:Source\mbedtls_open\library/sha512.c **** {
 464:Source\mbedtls_open\library/sha512.c ****     { "abc" },
 465:Source\mbedtls_open\library/sha512.c ****     { "abcdefghbcdefghicdefghijdefghijkefghijklfghijklmghijklmn"
 466:Source\mbedtls_open\library/sha512.c ****       "hijklmnoijklmnopjklmnopqklmnopqrlmnopqrsmnopqrstnopqrstu" },
 467:Source\mbedtls_open\library/sha512.c ****     { "" }
 468:Source\mbedtls_open\library/sha512.c **** };
 469:Source\mbedtls_open\library/sha512.c **** 
 470:Source\mbedtls_open\library/sha512.c **** static const size_t sha512_test_buflen[3] =
 471:Source\mbedtls_open\library/sha512.c **** {
 472:Source\mbedtls_open\library/sha512.c ****     3, 112, 1000
 473:Source\mbedtls_open\library/sha512.c **** };
 474:Source\mbedtls_open\library/sha512.c **** 
 475:Source\mbedtls_open\library/sha512.c **** static const unsigned char sha512_test_sum[6][64] =
 476:Source\mbedtls_open\library/sha512.c **** {
 477:Source\mbedtls_open\library/sha512.c ****     /*
 478:Source\mbedtls_open\library/sha512.c ****      * SHA-384 test vectors
 479:Source\mbedtls_open\library/sha512.c ****      */
 480:Source\mbedtls_open\library/sha512.c ****     { 0xCB, 0x00, 0x75, 0x3F, 0x45, 0xA3, 0x5E, 0x8B,
 481:Source\mbedtls_open\library/sha512.c ****       0xB5, 0xA0, 0x3D, 0x69, 0x9A, 0xC6, 0x50, 0x07,
 482:Source\mbedtls_open\library/sha512.c ****       0x27, 0x2C, 0x32, 0xAB, 0x0E, 0xDE, 0xD1, 0x63,
 483:Source\mbedtls_open\library/sha512.c ****       0x1A, 0x8B, 0x60, 0x5A, 0x43, 0xFF, 0x5B, 0xED,
 484:Source\mbedtls_open\library/sha512.c ****       0x80, 0x86, 0x07, 0x2B, 0xA1, 0xE7, 0xCC, 0x23,
 485:Source\mbedtls_open\library/sha512.c ****       0x58, 0xBA, 0xEC, 0xA1, 0x34, 0xC8, 0x25, 0xA7 },
 486:Source\mbedtls_open\library/sha512.c ****     { 0x09, 0x33, 0x0C, 0x33, 0xF7, 0x11, 0x47, 0xE8,
 487:Source\mbedtls_open\library/sha512.c ****       0x3D, 0x19, 0x2F, 0xC7, 0x82, 0xCD, 0x1B, 0x47,
 488:Source\mbedtls_open\library/sha512.c ****       0x53, 0x11, 0x1B, 0x17, 0x3B, 0x3B, 0x05, 0xD2,
 489:Source\mbedtls_open\library/sha512.c ****       0x2F, 0xA0, 0x80, 0x86, 0xE3, 0xB0, 0xF7, 0x12,
 490:Source\mbedtls_open\library/sha512.c ****       0xFC, 0xC7, 0xC7, 0x1A, 0x55, 0x7E, 0x2D, 0xB9,
 491:Source\mbedtls_open\library/sha512.c ****       0x66, 0xC3, 0xE9, 0xFA, 0x91, 0x74, 0x60, 0x39 },
 492:Source\mbedtls_open\library/sha512.c ****     { 0x9D, 0x0E, 0x18, 0x09, 0x71, 0x64, 0x74, 0xCB,
 493:Source\mbedtls_open\library/sha512.c ****       0x08, 0x6E, 0x83, 0x4E, 0x31, 0x0A, 0x4A, 0x1C,
 494:Source\mbedtls_open\library/sha512.c ****       0xED, 0x14, 0x9E, 0x9C, 0x00, 0xF2, 0x48, 0x52,
 495:Source\mbedtls_open\library/sha512.c ****       0x79, 0x72, 0xCE, 0xC5, 0x70, 0x4C, 0x2A, 0x5B,
 496:Source\mbedtls_open\library/sha512.c ****       0x07, 0xB8, 0xB3, 0xDC, 0x38, 0xEC, 0xC4, 0xEB,
 497:Source\mbedtls_open\library/sha512.c ****       0xAE, 0x97, 0xDD, 0xD8, 0x7F, 0x3D, 0x89, 0x85 },
 498:Source\mbedtls_open\library/sha512.c **** 
 499:Source\mbedtls_open\library/sha512.c ****     /*
 500:Source\mbedtls_open\library/sha512.c ****      * SHA-512 test vectors
 501:Source\mbedtls_open\library/sha512.c ****      */
 502:Source\mbedtls_open\library/sha512.c ****     { 0xDD, 0xAF, 0x35, 0xA1, 0x93, 0x61, 0x7A, 0xBA,
 503:Source\mbedtls_open\library/sha512.c ****       0xCC, 0x41, 0x73, 0x49, 0xAE, 0x20, 0x41, 0x31,
 504:Source\mbedtls_open\library/sha512.c ****       0x12, 0xE6, 0xFA, 0x4E, 0x89, 0xA9, 0x7E, 0xA2,
 505:Source\mbedtls_open\library/sha512.c ****       0x0A, 0x9E, 0xEE, 0xE6, 0x4B, 0x55, 0xD3, 0x9A,
 506:Source\mbedtls_open\library/sha512.c ****       0x21, 0x92, 0x99, 0x2A, 0x27, 0x4F, 0xC1, 0xA8,
 507:Source\mbedtls_open\library/sha512.c ****       0x36, 0xBA, 0x3C, 0x23, 0xA3, 0xFE, 0xEB, 0xBD,
 508:Source\mbedtls_open\library/sha512.c ****       0x45, 0x4D, 0x44, 0x23, 0x64, 0x3C, 0xE8, 0x0E,
 509:Source\mbedtls_open\library/sha512.c ****       0x2A, 0x9A, 0xC9, 0x4F, 0xA5, 0x4C, 0xA4, 0x9F },
ARM GAS  C:\Users\Phuong\AppData\Local\Temp\ccCGJz1B.s 			page 59


 510:Source\mbedtls_open\library/sha512.c ****     { 0x8E, 0x95, 0x9B, 0x75, 0xDA, 0xE3, 0x13, 0xDA,
 511:Source\mbedtls_open\library/sha512.c ****       0x8C, 0xF4, 0xF7, 0x28, 0x14, 0xFC, 0x14, 0x3F,
 512:Source\mbedtls_open\library/sha512.c ****       0x8F, 0x77, 0x79, 0xC6, 0xEB, 0x9F, 0x7F, 0xA1,
 513:Source\mbedtls_open\library/sha512.c ****       0x72, 0x99, 0xAE, 0xAD, 0xB6, 0x88, 0x90, 0x18,
 514:Source\mbedtls_open\library/sha512.c ****       0x50, 0x1D, 0x28, 0x9E, 0x49, 0x00, 0xF7, 0xE4,
 515:Source\mbedtls_open\library/sha512.c ****       0x33, 0x1B, 0x99, 0xDE, 0xC4, 0xB5, 0x43, 0x3A,
 516:Source\mbedtls_open\library/sha512.c ****       0xC7, 0xD3, 0x29, 0xEE, 0xB6, 0xDD, 0x26, 0x54,
 517:Source\mbedtls_open\library/sha512.c ****       0x5E, 0x96, 0xE5, 0x5B, 0x87, 0x4B, 0xE9, 0x09 },
 518:Source\mbedtls_open\library/sha512.c ****     { 0xE7, 0x18, 0x48, 0x3D, 0x0C, 0xE7, 0x69, 0x64,
 519:Source\mbedtls_open\library/sha512.c ****       0x4E, 0x2E, 0x42, 0xC7, 0xBC, 0x15, 0xB4, 0x63,
 520:Source\mbedtls_open\library/sha512.c ****       0x8E, 0x1F, 0x98, 0xB1, 0x3B, 0x20, 0x44, 0x28,
 521:Source\mbedtls_open\library/sha512.c ****       0x56, 0x32, 0xA8, 0x03, 0xAF, 0xA9, 0x73, 0xEB,
 522:Source\mbedtls_open\library/sha512.c ****       0xDE, 0x0F, 0xF2, 0x44, 0x87, 0x7E, 0xA6, 0x0A,
 523:Source\mbedtls_open\library/sha512.c ****       0x4C, 0xB0, 0x43, 0x2C, 0xE5, 0x77, 0xC3, 0x1B,
 524:Source\mbedtls_open\library/sha512.c ****       0xEB, 0x00, 0x9C, 0x5C, 0x2C, 0x49, 0xAA, 0x2E,
 525:Source\mbedtls_open\library/sha512.c ****       0x4E, 0xAD, 0xB2, 0x17, 0xAD, 0x8C, 0xC0, 0x9B }
 526:Source\mbedtls_open\library/sha512.c **** };
 527:Source\mbedtls_open\library/sha512.c **** 
 528:Source\mbedtls_open\library/sha512.c **** /*
 529:Source\mbedtls_open\library/sha512.c ****  * Checkup routine
 530:Source\mbedtls_open\library/sha512.c ****  */
 531:Source\mbedtls_open\library/sha512.c **** int mbedtls_sha512_self_test( int verbose )
 532:Source\mbedtls_open\library/sha512.c **** {
 2782              		.loc 1 532 0
 2783              		.cfi_startproc
 2784              		@ args = 0, pretend = 0, frame = 288
 2785              		@ frame_needed = 0, uses_anonymous_args = 0
 2786              	.LVL187:
 2787 0000 F0B5     		push	{r4, r5, r6, r7, lr}
 2788              		.cfi_def_cfa_offset 20
 2789              		.cfi_offset 4, -20
 2790              		.cfi_offset 5, -16
 2791              		.cfi_offset 6, -12
 2792              		.cfi_offset 7, -8
 2793              		.cfi_offset 14, -4
 2794 0002 4746     		mov	r7, r8
 2795 0004 80B4     		push	{r7}
 2796              		.cfi_def_cfa_offset 24
 2797              		.cfi_offset 8, -24
 2798 0006 C8B0     		sub	sp, sp, #288
 2799              		.cfi_def_cfa_offset 312
 2800 0008 8046     		mov	r8, r0
 2801              	.LVL188:
 533:Source\mbedtls_open\library/sha512.c ****     int i, j, k, buflen, ret = 0;
 534:Source\mbedtls_open\library/sha512.c ****     unsigned char *buf;
 535:Source\mbedtls_open\library/sha512.c ****     unsigned char sha512sum[64];
 536:Source\mbedtls_open\library/sha512.c ****     mbedtls_sha512_context ctx;
 537:Source\mbedtls_open\library/sha512.c **** 
 538:Source\mbedtls_open\library/sha512.c ****     buf = mbedtls_calloc( 1024, sizeof(unsigned char) );
 2802              		.loc 1 538 0
 2803 000a 0121     		movs	r1, #1
 2804 000c 8020     		movs	r0, #128
 2805              	.LVL189:
 2806 000e C000     		lsls	r0, r0, #3
 2807 0010 FFF7FEFF 		bl	calloc
 2808              	.LVL190:
 2809 0014 0190     		str	r0, [sp, #4]
ARM GAS  C:\Users\Phuong\AppData\Local\Temp\ccCGJz1B.s 			page 60


 2810              	.LVL191:
 539:Source\mbedtls_open\library/sha512.c ****     if( NULL == buf )
 2811              		.loc 1 539 0
 2812 0016 0028     		cmp	r0, #0
 2813 0018 08D1     		bne	.L50
 540:Source\mbedtls_open\library/sha512.c ****     {
 541:Source\mbedtls_open\library/sha512.c ****         if( verbose != 0 )
 2814              		.loc 1 541 0
 2815 001a 4346     		mov	r3, r8
 2816 001c 002B     		cmp	r3, #0
 2817 001e 00D1     		bne	.LCB2823
 2818 0020 7CE0     		b	.L62	@long jump
 2819              	.LCB2823:
 542:Source\mbedtls_open\library/sha512.c ****             mbedtls_printf( "Buffer allocation failed\n" );
 2820              		.loc 1 542 0
 2821 0022 4148     		ldr	r0, .L64
 2822              	.LVL192:
 2823 0024 FFF7FEFF 		bl	puts
 2824              	.LVL193:
 543:Source\mbedtls_open\library/sha512.c **** 
 544:Source\mbedtls_open\library/sha512.c ****         return( 1 );
 2825              		.loc 1 544 0
 2826 0028 0120     		movs	r0, #1
 2827 002a 78E0     		b	.L51
 2828              	.LVL194:
 2829              	.L50:
 545:Source\mbedtls_open\library/sha512.c ****     }
 546:Source\mbedtls_open\library/sha512.c **** 
 547:Source\mbedtls_open\library/sha512.c ****     mbedtls_sha512_init( &ctx );
 2830              		.loc 1 547 0
 2831 002c 02A8     		add	r0, sp, #8
 2832              	.LVL195:
 2833 002e FFF7FEFF 		bl	mbedtls_sha512_init
 2834              	.LVL196:
 533:Source\mbedtls_open\library/sha512.c ****     unsigned char *buf;
 2835              		.loc 1 533 0
 2836 0032 0024     		movs	r4, #0
 548:Source\mbedtls_open\library/sha512.c **** 
 549:Source\mbedtls_open\library/sha512.c ****     for( i = 0; i < 6; i++ )
 2837              		.loc 1 549 0
 2838 0034 0026     		movs	r6, #0
 2839 0036 59E0     		b	.L52
 2840              	.LVL197:
 2841              	.L60:
 550:Source\mbedtls_open\library/sha512.c ****     {
 551:Source\mbedtls_open\library/sha512.c ****         j = i % 3;
 2842              		.loc 1 551 0
 2843 0038 0321     		movs	r1, #3
 2844 003a 3000     		movs	r0, r6
 2845 003c FFF7FEFF 		bl	__aeabi_idivmod
 2846              	.LVL198:
 2847 0040 0D00     		movs	r5, r1
 2848              	.LVL199:
 552:Source\mbedtls_open\library/sha512.c ****         k = i < 3;
 2849              		.loc 1 552 0
 2850 0042 F70F     		lsrs	r7, r6, #31
 2851 0044 0023     		movs	r3, #0
ARM GAS  C:\Users\Phuong\AppData\Local\Temp\ccCGJz1B.s 			page 61


 2852 0046 0221     		movs	r1, #2
 2853              	.LVL200:
 2854 0048 B142     		cmp	r1, r6
 2855 004a 5F41     		adcs	r7, r7, r3
 2856 004c FFB2     		uxtb	r7, r7
 2857              	.LVL201:
 553:Source\mbedtls_open\library/sha512.c **** 
 554:Source\mbedtls_open\library/sha512.c ****         if( verbose != 0 )
 2858              		.loc 1 554 0
 2859 004e 4346     		mov	r3, r8
 2860 0050 002B     		cmp	r3, #0
 2861 0052 06D0     		beq	.L53
 2862              	.LVL202:
 555:Source\mbedtls_open\library/sha512.c ****             mbedtls_printf( "  SHA-%d test #%d: ", 512 - k * 128, j + 1 );
 2863              		.loc 1 555 0
 2864 0054 0231     		adds	r1, r1, #2
 2865 0056 C91B     		subs	r1, r1, r7
 2866 0058 6A1C     		adds	r2, r5, #1
 2867 005a C901     		lsls	r1, r1, #7
 2868 005c 3348     		ldr	r0, .L64+4
 2869 005e FFF7FEFF 		bl	printf
 2870              	.LVL203:
 2871              	.L53:
 556:Source\mbedtls_open\library/sha512.c **** 
 557:Source\mbedtls_open\library/sha512.c ****         if( ( ret = mbedtls_sha512_starts_ret( &ctx, k ) ) != 0 )
 2872              		.loc 1 557 0
 2873 0062 3900     		movs	r1, r7
 2874 0064 02A8     		add	r0, sp, #8
 2875 0066 FFF7FEFF 		bl	mbedtls_sha512_starts_ret
 2876              	.LVL204:
 2877 006a 041E     		subs	r4, r0, #0
 2878              	.LVL205:
 2879 006c 48D1     		bne	.L54
 558:Source\mbedtls_open\library/sha512.c ****             goto fail;
 559:Source\mbedtls_open\library/sha512.c **** 
 560:Source\mbedtls_open\library/sha512.c ****         if( j == 2 )
 2880              		.loc 1 560 0
 2881 006e 022D     		cmp	r5, #2
 2882 0070 14D1     		bne	.L55
 2883              	.LVL206:
 561:Source\mbedtls_open\library/sha512.c ****         {
 562:Source\mbedtls_open\library/sha512.c ****             memset( buf, 'a', buflen = 1000 );
 2884              		.loc 1 562 0
 2885 0072 FA22     		movs	r2, #250
 2886 0074 9200     		lsls	r2, r2, #2
 2887 0076 6121     		movs	r1, #97
 2888 0078 0198     		ldr	r0, [sp, #4]
 2889              	.LVL207:
 2890 007a FFF7FEFF 		bl	memset
 2891              	.LVL208:
 563:Source\mbedtls_open\library/sha512.c **** 
 564:Source\mbedtls_open\library/sha512.c ****             for( j = 0; j < 1000; j++ )
 2892              		.loc 1 564 0
 2893 007e 0025     		movs	r5, #0
 2894 0080 08E0     		b	.L56
 2895              	.LVL209:
 2896              	.L57:
ARM GAS  C:\Users\Phuong\AppData\Local\Temp\ccCGJz1B.s 			page 62


 565:Source\mbedtls_open\library/sha512.c ****             {
 566:Source\mbedtls_open\library/sha512.c ****                 ret = mbedtls_sha512_update_ret( &ctx, buf, buflen );
 2897              		.loc 1 566 0
 2898 0082 FA22     		movs	r2, #250
 2899 0084 9200     		lsls	r2, r2, #2
 2900 0086 0199     		ldr	r1, [sp, #4]
 2901 0088 02A8     		add	r0, sp, #8
 2902 008a FFF7FEFF 		bl	mbedtls_sha512_update_ret
 2903              	.LVL210:
 2904 008e 041E     		subs	r4, r0, #0
 2905              	.LVL211:
 567:Source\mbedtls_open\library/sha512.c ****                 if( ret != 0 )
 2906              		.loc 1 567 0
 2907 0090 36D1     		bne	.L54
 564:Source\mbedtls_open\library/sha512.c ****             {
 2908              		.loc 1 564 0 discriminator 2
 2909 0092 0135     		adds	r5, r5, #1
 2910              	.LVL212:
 2911              	.L56:
 564:Source\mbedtls_open\library/sha512.c ****             {
 2912              		.loc 1 564 0 is_stmt 0 discriminator 1
 2913 0094 264B     		ldr	r3, .L64+8
 2914 0096 9D42     		cmp	r5, r3
 2915 0098 F3DD     		ble	.L57
 2916 009a 0EE0     		b	.L58
 2917              	.LVL213:
 2918              	.L55:
 568:Source\mbedtls_open\library/sha512.c ****                     goto fail;
 569:Source\mbedtls_open\library/sha512.c ****             }
 570:Source\mbedtls_open\library/sha512.c ****         }
 571:Source\mbedtls_open\library/sha512.c ****         else
 572:Source\mbedtls_open\library/sha512.c ****         {
 573:Source\mbedtls_open\library/sha512.c ****             ret = mbedtls_sha512_update_ret( &ctx, sha512_test_buf[j],
 2919              		.loc 1 573 0 is_stmt 1
 2920 009c E900     		lsls	r1, r5, #3
 2921 009e 491B     		subs	r1, r1, r5
 2922 00a0 0901     		lsls	r1, r1, #4
 2923 00a2 4919     		adds	r1, r1, r5
 2924 00a4 234B     		ldr	r3, .L64+12
 2925 00a6 5918     		adds	r1, r3, r1
 2926 00a8 AD00     		lsls	r5, r5, #2
 2927              	.LVL214:
 2928 00aa 234B     		ldr	r3, .L64+16
 2929 00ac 5D19     		adds	r5, r3, r5
 2930 00ae 6A6D     		ldr	r2, [r5, #84]
 2931 00b0 02A8     		add	r0, sp, #8
 2932              	.LVL215:
 2933 00b2 FFF7FEFF 		bl	mbedtls_sha512_update_ret
 2934              	.LVL216:
 2935 00b6 041E     		subs	r4, r0, #0
 2936              	.LVL217:
 574:Source\mbedtls_open\library/sha512.c ****                                              sha512_test_buflen[j] );
 575:Source\mbedtls_open\library/sha512.c ****             if( ret != 0 )
 2937              		.loc 1 575 0
 2938 00b8 22D1     		bne	.L54
 2939              	.LVL218:
 2940              	.L58:
ARM GAS  C:\Users\Phuong\AppData\Local\Temp\ccCGJz1B.s 			page 63


 576:Source\mbedtls_open\library/sha512.c ****                 goto fail;
 577:Source\mbedtls_open\library/sha512.c ****         }
 578:Source\mbedtls_open\library/sha512.c **** 
 579:Source\mbedtls_open\library/sha512.c ****         if( ( ret = mbedtls_sha512_finish_ret( &ctx, sha512sum ) ) != 0 )
 2941              		.loc 1 579 0
 2942 00ba 38A9     		add	r1, sp, #224
 2943 00bc 02A8     		add	r0, sp, #8
 2944 00be FFF7FEFF 		bl	mbedtls_sha512_finish_ret
 2945              	.LVL219:
 2946 00c2 041E     		subs	r4, r0, #0
 2947              	.LVL220:
 2948 00c4 1CD1     		bne	.L54
 580:Source\mbedtls_open\library/sha512.c ****             goto fail;
 581:Source\mbedtls_open\library/sha512.c **** 
 582:Source\mbedtls_open\library/sha512.c ****         if( memcmp( sha512sum, sha512_test_sum[i], 64 - k * 16 ) != 0 )
 2949              		.loc 1 582 0
 2950 00c6 B301     		lsls	r3, r6, #6
 2951 00c8 1B49     		ldr	r1, .L64+16
 2952 00ca 6031     		adds	r1, r1, #96
 2953 00cc C918     		adds	r1, r1, r3
 2954 00ce 0422     		movs	r2, #4
 2955 00d0 D21B     		subs	r2, r2, r7
 2956 00d2 1201     		lsls	r2, r2, #4
 2957 00d4 38A8     		add	r0, sp, #224
 2958              	.LVL221:
 2959 00d6 FFF7FEFF 		bl	memcmp
 2960              	.LVL222:
 2961 00da 0028     		cmp	r0, #0
 2962 00dc 0FD1     		bne	.L63
 583:Source\mbedtls_open\library/sha512.c ****         {
 584:Source\mbedtls_open\library/sha512.c ****             ret = 1;
 585:Source\mbedtls_open\library/sha512.c ****             goto fail;
 586:Source\mbedtls_open\library/sha512.c ****         }
 587:Source\mbedtls_open\library/sha512.c **** 
 588:Source\mbedtls_open\library/sha512.c ****         if( verbose != 0 )
 2963              		.loc 1 588 0
 2964 00de 4346     		mov	r3, r8
 2965 00e0 002B     		cmp	r3, #0
 2966 00e2 02D0     		beq	.L59
 2967              	.LVL223:
 589:Source\mbedtls_open\library/sha512.c ****             mbedtls_printf( "passed\n" );
 2968              		.loc 1 589 0
 2969 00e4 1548     		ldr	r0, .L64+20
 2970 00e6 FFF7FEFF 		bl	puts
 2971              	.LVL224:
 2972              	.L59:
 549:Source\mbedtls_open\library/sha512.c ****     {
 2973              		.loc 1 549 0 discriminator 2
 2974 00ea 0136     		adds	r6, r6, #1
 2975              	.LVL225:
 2976              	.L52:
 549:Source\mbedtls_open\library/sha512.c ****     {
 2977              		.loc 1 549 0 is_stmt 0 discriminator 1
 2978 00ec 052E     		cmp	r6, #5
 2979 00ee A3DD     		ble	.L60
 590:Source\mbedtls_open\library/sha512.c ****     }
 591:Source\mbedtls_open\library/sha512.c **** 
ARM GAS  C:\Users\Phuong\AppData\Local\Temp\ccCGJz1B.s 			page 64


 592:Source\mbedtls_open\library/sha512.c ****     if( verbose != 0 )
 2980              		.loc 1 592 0 is_stmt 1
 2981 00f0 4346     		mov	r3, r8
 2982 00f2 002B     		cmp	r3, #0
 2983 00f4 0AD0     		beq	.L61
 2984              	.LVL226:
 593:Source\mbedtls_open\library/sha512.c ****         mbedtls_printf( "\n" );
 2985              		.loc 1 593 0
 2986 00f6 0A20     		movs	r0, #10
 2987 00f8 FFF7FEFF 		bl	putchar
 2988              	.LVL227:
 2989 00fc 06E0     		b	.L61
 2990              	.LVL228:
 2991              	.L63:
 584:Source\mbedtls_open\library/sha512.c ****             goto fail;
 2992              		.loc 1 584 0
 2993 00fe 0124     		movs	r4, #1
 2994              	.LVL229:
 2995              	.L54:
 594:Source\mbedtls_open\library/sha512.c **** 
 595:Source\mbedtls_open\library/sha512.c ****     goto exit;
 596:Source\mbedtls_open\library/sha512.c **** 
 597:Source\mbedtls_open\library/sha512.c **** fail:
 598:Source\mbedtls_open\library/sha512.c ****     if( verbose != 0 )
 2996              		.loc 1 598 0
 2997 0100 4346     		mov	r3, r8
 2998 0102 002B     		cmp	r3, #0
 2999 0104 02D0     		beq	.L61
 3000              	.LVL230:
 599:Source\mbedtls_open\library/sha512.c ****         mbedtls_printf( "failed\n" );
 3001              		.loc 1 599 0
 3002 0106 0E48     		ldr	r0, .L64+24
 3003 0108 FFF7FEFF 		bl	puts
 3004              	.LVL231:
 3005              	.L61:
 600:Source\mbedtls_open\library/sha512.c **** 
 601:Source\mbedtls_open\library/sha512.c **** exit:
 602:Source\mbedtls_open\library/sha512.c ****     mbedtls_sha512_free( &ctx );
 3006              		.loc 1 602 0
 3007 010c 02A8     		add	r0, sp, #8
 3008 010e FFF7FEFF 		bl	mbedtls_sha512_free
 3009              	.LVL232:
 603:Source\mbedtls_open\library/sha512.c ****     mbedtls_free( buf );
 3010              		.loc 1 603 0
 3011 0112 0198     		ldr	r0, [sp, #4]
 3012 0114 FFF7FEFF 		bl	free
 3013              	.LVL233:
 604:Source\mbedtls_open\library/sha512.c **** 
 605:Source\mbedtls_open\library/sha512.c ****     return( ret );
 3014              		.loc 1 605 0
 3015 0118 2000     		movs	r0, r4
 3016 011a 00E0     		b	.L51
 3017              	.LVL234:
 3018              	.L62:
 544:Source\mbedtls_open\library/sha512.c ****     }
 3019              		.loc 1 544 0
 3020 011c 0120     		movs	r0, #1
ARM GAS  C:\Users\Phuong\AppData\Local\Temp\ccCGJz1B.s 			page 65


 3021              	.LVL235:
 3022              	.L51:
 606:Source\mbedtls_open\library/sha512.c **** }
 3023              		.loc 1 606 0
 3024 011e 48B0     		add	sp, sp, #288
 3025              		@ sp needed
 3026              	.LVL236:
 3027 0120 04BC     		pop	{r2}
 3028 0122 9046     		mov	r8, r2
 3029 0124 F0BD     		pop	{r4, r5, r6, r7, pc}
 3030              	.L65:
 3031 0126 C046     		.align	2
 3032              	.L64:
 3033 0128 00000000 		.word	.LC1
 3034 012c 1C000000 		.word	.LC3
 3035 0130 E7030000 		.word	999
 3036 0134 80020000 		.word	.LANCHOR1
 3037 0138 80030000 		.word	.LANCHOR2
 3038 013c 30000000 		.word	.LC7
 3039 0140 38000000 		.word	.LC9
 3040              		.cfi_endproc
 3041              	.LFE14:
 3042              		.size	mbedtls_sha512_self_test, .-mbedtls_sha512_self_test
 3043              		.section	.rodata
 3044              		.align	3
 3045              		.set	.LANCHOR0,. + 0
 3046              		.set	.LANCHOR1,. + 640
 3047              		.set	.LANCHOR2,. + 896
 3048              		.type	K, %object
 3049              		.size	K, 640
 3050              	K:
 3051 0000 22AE28D7 		.word	-685199838
 3052 0004 982F8A42 		.word	1116352408
 3053 0008 CD65EF23 		.word	602891725
 3054 000c 91443771 		.word	1899447441
 3055 0010 2F3B4DEC 		.word	-330482897
 3056 0014 CFFBC0B5 		.word	-1245643825
 3057 0018 BCDB8981 		.word	-2121671748
 3058 001c A5DBB5E9 		.word	-373957723
 3059 0020 38B548F3 		.word	-213338824
 3060 0024 5BC25639 		.word	961987163
 3061 0028 19D005B6 		.word	-1241133031
 3062 002c F111F159 		.word	1508970993
 3063 0030 9B4F19AF 		.word	-1357295717
 3064 0034 A4823F92 		.word	-1841331548
 3065 0038 18816DDA 		.word	-630357736
 3066 003c D55E1CAB 		.word	-1424204075
 3067 0040 420203A3 		.word	-1560083902
 3068 0044 98AA07D8 		.word	-670586216
 3069 0048 BE6F7045 		.word	1164996542
 3070 004c 015B8312 		.word	310598401
 3071 0050 8CB2E44E 		.word	1323610764
 3072 0054 BE853124 		.word	607225278
 3073 0058 E2B4FFD5 		.word	-704662302
 3074 005c C37D0C55 		.word	1426881987
 3075 0060 6F897BF2 		.word	-226784913
 3076 0064 745DBE72 		.word	1925078388
ARM GAS  C:\Users\Phuong\AppData\Local\Temp\ccCGJz1B.s 			page 66


 3077 0068 B196163B 		.word	991336113
 3078 006c FEB1DE80 		.word	-2132889090
 3079 0070 3512C725 		.word	633803317
 3080 0074 A706DC9B 		.word	-1680079193
 3081 0078 942669CF 		.word	-815192428
 3082 007c 74F19BC1 		.word	-1046744716
 3083 0080 D24AF19E 		.word	-1628353838
 3084 0084 C1699BE4 		.word	-459576895
 3085 0088 E3254F38 		.word	944711139
 3086 008c 8647BEEF 		.word	-272742522
 3087 0090 B5D58C8B 		.word	-1953704523
 3088 0094 C69DC10F 		.word	264347078
 3089 0098 659CAC77 		.word	2007800933
 3090 009c CCA10C24 		.word	604807628
 3091 00a0 75022B59 		.word	1495990901
 3092 00a4 6F2CE92D 		.word	770255983
 3093 00a8 83E4A66E 		.word	1856431235
 3094 00ac AA84744A 		.word	1249150122
 3095 00b0 D4FB41BD 		.word	-1119749164
 3096 00b4 DCA9B05C 		.word	1555081692
 3097 00b8 B5531183 		.word	-2096016459
 3098 00bc DA88F976 		.word	1996064986
 3099 00c0 ABDF66EE 		.word	-295247957
 3100 00c4 52513E98 		.word	-1740746414
 3101 00c8 1032B42D 		.word	766784016
 3102 00cc 6DC631A8 		.word	-1473132947
 3103 00d0 3F21FB98 		.word	-1728372417
 3104 00d4 C82703B0 		.word	-1341970488
 3105 00d8 E40EEFBE 		.word	-1091629340
 3106 00dc C77F59BF 		.word	-1084653625
 3107 00e0 C28FA83D 		.word	1034457026
 3108 00e4 F30BE0C6 		.word	-958395405
 3109 00e8 25A70A93 		.word	-1828018395
 3110 00ec 4791A7D5 		.word	-710438585
 3111 00f0 6F8203E0 		.word	-536640913
 3112 00f4 5163CA06 		.word	113926993
 3113 00f8 706E0E0A 		.word	168717936
 3114 00fc 67292914 		.word	338241895
 3115 0100 FC2FD246 		.word	1188179964
 3116 0104 850AB727 		.word	666307205
 3117 0108 26C9265C 		.word	1546045734
 3118 010c 38211B2E 		.word	773529912
 3119 0110 ED2AC45A 		.word	1522805485
 3120 0114 FC6D2C4D 		.word	1294757372
 3121 0118 DFB3959D 		.word	-1651133473
 3122 011c 130D3853 		.word	1396182291
 3123 0120 DE63AF8B 		.word	-1951439906
 3124 0124 54730A65 		.word	1695183700
 3125 0128 A8B2773C 		.word	1014477480
 3126 012c BB0A6A76 		.word	1986661051
 3127 0130 E6AEED47 		.word	1206759142
 3128 0134 2EC9C281 		.word	-2117940946
 3129 0138 3B358214 		.word	344077627
 3130 013c 852C7292 		.word	-1838011259
 3131 0140 6403F14C 		.word	1290863460
 3132 0144 A1E8BFA2 		.word	-1564481375
 3133 0148 013042BC 		.word	-1136513023
ARM GAS  C:\Users\Phuong\AppData\Local\Temp\ccCGJz1B.s 			page 67


 3134 014c 4B661AA8 		.word	-1474664885
 3135 0150 9197F8D0 		.word	-789014639
 3136 0154 708B4BC2 		.word	-1035236496
 3137 0158 30BE5406 		.word	106217008
 3138 015c A3516CC7 		.word	-949202525
 3139 0160 1852EFD6 		.word	-688958952
 3140 0164 19E892D1 		.word	-778901479
 3141 0168 10A96555 		.word	1432725776
 3142 016c 240699D6 		.word	-694614492
 3143 0170 2A207157 		.word	1467031594
 3144 0174 85350EF4 		.word	-200395387
 3145 0178 B8D1BB32 		.word	851169720
 3146 017c 70A06A10 		.word	275423344
 3147 0180 C8D0D2B8 		.word	-1194143544
 3148 0184 16C1A419 		.word	430227734
 3149 0188 53AB4151 		.word	1363258195
 3150 018c 086C371E 		.word	506948616
 3151 0190 99EB8EDF 		.word	-544281703
 3152 0194 4C774827 		.word	659060556
 3153 0198 A8489BE1 		.word	-509917016
 3154 019c B5BCB034 		.word	883997877
 3155 01a0 635AC9C5 		.word	-976659869
 3156 01a4 B30C1C39 		.word	958139571
 3157 01a8 CB8A41E3 		.word	-482243893
 3158 01ac 4AAAD84E 		.word	1322822218
 3159 01b0 73E36377 		.word	2003034995
 3160 01b4 4FCA9C5B 		.word	1537002063
 3161 01b8 A3B8B2D6 		.word	-692930397
 3162 01bc F36F2E68 		.word	1747873779
 3163 01c0 FCB2EF5D 		.word	1575990012
 3164 01c4 EE828F74 		.word	1955562222
 3165 01c8 602F1743 		.word	1125592928
 3166 01cc 6F63A578 		.word	2024104815
 3167 01d0 72ABF0A1 		.word	-1578062990
 3168 01d4 1478C884 		.word	-2067236844
 3169 01d8 EC39641A 		.word	442776044
 3170 01dc 0802C78C 		.word	-1933114872
 3171 01e0 281E6323 		.word	593698344
 3172 01e4 FAFFBE90 		.word	-1866530822
 3173 01e8 E9BD82DE 		.word	-561857047
 3174 01ec EB6C50A4 		.word	-1538233109
 3175 01f0 1579C6B2 		.word	-1295615723
 3176 01f4 F7A3F9BE 		.word	-1090935817
 3177 01f8 2B5372E3 		.word	-479046869
 3178 01fc F27871C6 		.word	-965641998
 3179 0200 9C6126EA 		.word	-366583396
 3180 0204 CE3E27CA 		.word	-903397682
 3181 0208 07C2C021 		.word	566280711
 3182 020c C7B886D1 		.word	-779700025
 3183 0210 1EEBE0CD 		.word	-840897762
 3184 0214 D67DDAEA 		.word	-354779690
 3185 0218 78D16EEE 		.word	-294727304
 3186 021c 7F4F7DF5 		.word	-176337025
 3187 0220 BA6F1772 		.word	1914138554
 3188 0224 AA67F006 		.word	116418474
 3189 0228 A698C8A2 		.word	-1563912026
 3190 022c C57D630A 		.word	174292421
ARM GAS  C:\Users\Phuong\AppData\Local\Temp\ccCGJz1B.s 			page 68


 3191 0230 AE0DF9BE 		.word	-1090974290
 3192 0234 04983F11 		.word	289380356
 3193 0238 1B471C13 		.word	320620315
 3194 023c 350B711B 		.word	460393269
 3195 0240 847D0423 		.word	587496836
 3196 0244 F577DB28 		.word	685471733
 3197 0248 9324C740 		.word	1086792851
 3198 024c 7BABCA32 		.word	852142971
 3199 0250 BCBEC915 		.word	365543100
 3200 0254 0ABE9E3C 		.word	1017036298
 3201 0258 4C0D109C 		.word	-1676669620
 3202 025c C4671D43 		.word	1126000580
 3203 0260 B6423ECB 		.word	-885112138
 3204 0264 BED4C54C 		.word	1288033470
 3205 0268 2A7E65FC 		.word	-60457430
 3206 026c 9C297F59 		.word	1501505948
 3207 0270 ECFAD63A 		.word	987167468
 3208 0274 AB6FCB5F 		.word	1607167915
 3209 0278 1758474A 		.word	1246189591
 3210 027c 8C19446C 		.word	1816402316
 3211              		.type	sha512_test_buf, %object
 3212              		.size	sha512_test_buf, 339
 3213              	sha512_test_buf:
 3214 0280 61626300 		.ascii	"abc\000"
 3215 0284 00000000 		.space	109
 3215      00000000 
 3215      00000000 
 3215      00000000 
 3215      00000000 
 3216 02f1 61626364 		.ascii	"abcdefghbcdefghicdefghijdefghijkefghijklfghijklmghi"
 3216      65666768 
 3216      62636465 
 3216      66676869 
 3216      63646566 
 3217 0324 6A6B6C6D 		.ascii	"jklmnhijklmnoijklmnopjklmnopqklmnopqrlmnopqrsmnopqr"
 3217      6E68696A 
 3217      6B6C6D6E 
 3217      6F696A6B 
 3217      6C6D6E6F 
 3218 0357 73746E6F 		.ascii	"stnopqrstu\000"
 3218      70717273 
 3218      747500
 3219 0362 00       		.ascii	"\000"
 3220 0363 00000000 		.space	112
 3220      00000000 
 3220      00000000 
 3220      00000000 
 3220      00000000 
 3221 03d3 00       		.space	1
 3222              		.type	sha512_test_buflen, %object
 3223              		.size	sha512_test_buflen, 12
 3224              	sha512_test_buflen:
 3225 03d4 03000000 		.word	3
 3226 03d8 70000000 		.word	112
 3227 03dc E8030000 		.word	1000
 3228              		.type	sha512_test_sum, %object
 3229              		.size	sha512_test_sum, 384
ARM GAS  C:\Users\Phuong\AppData\Local\Temp\ccCGJz1B.s 			page 69


 3230              	sha512_test_sum:
 3231 03e0 CB       		.byte	-53
 3232 03e1 00       		.byte	0
 3233 03e2 75       		.byte	117
 3234 03e3 3F       		.byte	63
 3235 03e4 45       		.byte	69
 3236 03e5 A3       		.byte	-93
 3237 03e6 5E       		.byte	94
 3238 03e7 8B       		.byte	-117
 3239 03e8 B5       		.byte	-75
 3240 03e9 A0       		.byte	-96
 3241 03ea 3D       		.byte	61
 3242 03eb 69       		.byte	105
 3243 03ec 9A       		.byte	-102
 3244 03ed C6       		.byte	-58
 3245 03ee 50       		.byte	80
 3246 03ef 07       		.byte	7
 3247 03f0 27       		.byte	39
 3248 03f1 2C       		.byte	44
 3249 03f2 32       		.byte	50
 3250 03f3 AB       		.byte	-85
 3251 03f4 0E       		.byte	14
 3252 03f5 DE       		.byte	-34
 3253 03f6 D1       		.byte	-47
 3254 03f7 63       		.byte	99
 3255 03f8 1A       		.byte	26
 3256 03f9 8B       		.byte	-117
 3257 03fa 60       		.byte	96
 3258 03fb 5A       		.byte	90
 3259 03fc 43       		.byte	67
 3260 03fd FF       		.byte	-1
 3261 03fe 5B       		.byte	91
 3262 03ff ED       		.byte	-19
 3263 0400 80       		.byte	-128
 3264 0401 86       		.byte	-122
 3265 0402 07       		.byte	7
 3266 0403 2B       		.byte	43
 3267 0404 A1       		.byte	-95
 3268 0405 E7       		.byte	-25
 3269 0406 CC       		.byte	-52
 3270 0407 23       		.byte	35
 3271 0408 58       		.byte	88
 3272 0409 BA       		.byte	-70
 3273 040a EC       		.byte	-20
 3274 040b A1       		.byte	-95
 3275 040c 34       		.byte	52
 3276 040d C8       		.byte	-56
 3277 040e 25       		.byte	37
 3278 040f A7       		.byte	-89
 3279 0410 00000000 		.space	16
 3279      00000000 
 3279      00000000 
 3279      00000000 
 3280 0420 09       		.byte	9
 3281 0421 33       		.byte	51
 3282 0422 0C       		.byte	12
 3283 0423 33       		.byte	51
ARM GAS  C:\Users\Phuong\AppData\Local\Temp\ccCGJz1B.s 			page 70


 3284 0424 F7       		.byte	-9
 3285 0425 11       		.byte	17
 3286 0426 47       		.byte	71
 3287 0427 E8       		.byte	-24
 3288 0428 3D       		.byte	61
 3289 0429 19       		.byte	25
 3290 042a 2F       		.byte	47
 3291 042b C7       		.byte	-57
 3292 042c 82       		.byte	-126
 3293 042d CD       		.byte	-51
 3294 042e 1B       		.byte	27
 3295 042f 47       		.byte	71
 3296 0430 53       		.byte	83
 3297 0431 11       		.byte	17
 3298 0432 1B       		.byte	27
 3299 0433 17       		.byte	23
 3300 0434 3B       		.byte	59
 3301 0435 3B       		.byte	59
 3302 0436 05       		.byte	5
 3303 0437 D2       		.byte	-46
 3304 0438 2F       		.byte	47
 3305 0439 A0       		.byte	-96
 3306 043a 80       		.byte	-128
 3307 043b 86       		.byte	-122
 3308 043c E3       		.byte	-29
 3309 043d B0       		.byte	-80
 3310 043e F7       		.byte	-9
 3311 043f 12       		.byte	18
 3312 0440 FC       		.byte	-4
 3313 0441 C7       		.byte	-57
 3314 0442 C7       		.byte	-57
 3315 0443 1A       		.byte	26
 3316 0444 55       		.byte	85
 3317 0445 7E       		.byte	126
 3318 0446 2D       		.byte	45
 3319 0447 B9       		.byte	-71
 3320 0448 66       		.byte	102
 3321 0449 C3       		.byte	-61
 3322 044a E9       		.byte	-23
 3323 044b FA       		.byte	-6
 3324 044c 91       		.byte	-111
 3325 044d 74       		.byte	116
 3326 044e 60       		.byte	96
 3327 044f 39       		.byte	57
 3328 0450 00000000 		.space	16
 3328      00000000 
 3328      00000000 
 3328      00000000 
 3329 0460 9D       		.byte	-99
 3330 0461 0E       		.byte	14
 3331 0462 18       		.byte	24
 3332 0463 09       		.byte	9
 3333 0464 71       		.byte	113
 3334 0465 64       		.byte	100
 3335 0466 74       		.byte	116
 3336 0467 CB       		.byte	-53
 3337 0468 08       		.byte	8
ARM GAS  C:\Users\Phuong\AppData\Local\Temp\ccCGJz1B.s 			page 71


 3338 0469 6E       		.byte	110
 3339 046a 83       		.byte	-125
 3340 046b 4E       		.byte	78
 3341 046c 31       		.byte	49
 3342 046d 0A       		.byte	10
 3343 046e 4A       		.byte	74
 3344 046f 1C       		.byte	28
 3345 0470 ED       		.byte	-19
 3346 0471 14       		.byte	20
 3347 0472 9E       		.byte	-98
 3348 0473 9C       		.byte	-100
 3349 0474 00       		.byte	0
 3350 0475 F2       		.byte	-14
 3351 0476 48       		.byte	72
 3352 0477 52       		.byte	82
 3353 0478 79       		.byte	121
 3354 0479 72       		.byte	114
 3355 047a CE       		.byte	-50
 3356 047b C5       		.byte	-59
 3357 047c 70       		.byte	112
 3358 047d 4C       		.byte	76
 3359 047e 2A       		.byte	42
 3360 047f 5B       		.byte	91
 3361 0480 07       		.byte	7
 3362 0481 B8       		.byte	-72
 3363 0482 B3       		.byte	-77
 3364 0483 DC       		.byte	-36
 3365 0484 38       		.byte	56
 3366 0485 EC       		.byte	-20
 3367 0486 C4       		.byte	-60
 3368 0487 EB       		.byte	-21
 3369 0488 AE       		.byte	-82
 3370 0489 97       		.byte	-105
 3371 048a DD       		.byte	-35
 3372 048b D8       		.byte	-40
 3373 048c 7F       		.byte	127
 3374 048d 3D       		.byte	61
 3375 048e 89       		.byte	-119
 3376 048f 85       		.byte	-123
 3377 0490 00000000 		.space	16
 3377      00000000 
 3377      00000000 
 3377      00000000 
 3378 04a0 DD       		.byte	-35
 3379 04a1 AF       		.byte	-81
 3380 04a2 35       		.byte	53
 3381 04a3 A1       		.byte	-95
 3382 04a4 93       		.byte	-109
 3383 04a5 61       		.byte	97
 3384 04a6 7A       		.byte	122
 3385 04a7 BA       		.byte	-70
 3386 04a8 CC       		.byte	-52
 3387 04a9 41       		.byte	65
 3388 04aa 73       		.byte	115
 3389 04ab 49       		.byte	73
 3390 04ac AE       		.byte	-82
 3391 04ad 20       		.byte	32
ARM GAS  C:\Users\Phuong\AppData\Local\Temp\ccCGJz1B.s 			page 72


 3392 04ae 41       		.byte	65
 3393 04af 31       		.byte	49
 3394 04b0 12       		.byte	18
 3395 04b1 E6       		.byte	-26
 3396 04b2 FA       		.byte	-6
 3397 04b3 4E       		.byte	78
 3398 04b4 89       		.byte	-119
 3399 04b5 A9       		.byte	-87
 3400 04b6 7E       		.byte	126
 3401 04b7 A2       		.byte	-94
 3402 04b8 0A       		.byte	10
 3403 04b9 9E       		.byte	-98
 3404 04ba EE       		.byte	-18
 3405 04bb E6       		.byte	-26
 3406 04bc 4B       		.byte	75
 3407 04bd 55       		.byte	85
 3408 04be D3       		.byte	-45
 3409 04bf 9A       		.byte	-102
 3410 04c0 21       		.byte	33
 3411 04c1 92       		.byte	-110
 3412 04c2 99       		.byte	-103
 3413 04c3 2A       		.byte	42
 3414 04c4 27       		.byte	39
 3415 04c5 4F       		.byte	79
 3416 04c6 C1       		.byte	-63
 3417 04c7 A8       		.byte	-88
 3418 04c8 36       		.byte	54
 3419 04c9 BA       		.byte	-70
 3420 04ca 3C       		.byte	60
 3421 04cb 23       		.byte	35
 3422 04cc A3       		.byte	-93
 3423 04cd FE       		.byte	-2
 3424 04ce EB       		.byte	-21
 3425 04cf BD       		.byte	-67
 3426 04d0 45       		.byte	69
 3427 04d1 4D       		.byte	77
 3428 04d2 44       		.byte	68
 3429 04d3 23       		.byte	35
 3430 04d4 64       		.byte	100
 3431 04d5 3C       		.byte	60
 3432 04d6 E8       		.byte	-24
 3433 04d7 0E       		.byte	14
 3434 04d8 2A       		.byte	42
 3435 04d9 9A       		.byte	-102
 3436 04da C9       		.byte	-55
 3437 04db 4F       		.byte	79
 3438 04dc A5       		.byte	-91
 3439 04dd 4C       		.byte	76
 3440 04de A4       		.byte	-92
 3441 04df 9F       		.byte	-97
 3442 04e0 8E       		.byte	-114
 3443 04e1 95       		.byte	-107
 3444 04e2 9B       		.byte	-101
 3445 04e3 75       		.byte	117
 3446 04e4 DA       		.byte	-38
 3447 04e5 E3       		.byte	-29
 3448 04e6 13       		.byte	19
ARM GAS  C:\Users\Phuong\AppData\Local\Temp\ccCGJz1B.s 			page 73


 3449 04e7 DA       		.byte	-38
 3450 04e8 8C       		.byte	-116
 3451 04e9 F4       		.byte	-12
 3452 04ea F7       		.byte	-9
 3453 04eb 28       		.byte	40
 3454 04ec 14       		.byte	20
 3455 04ed FC       		.byte	-4
 3456 04ee 14       		.byte	20
 3457 04ef 3F       		.byte	63
 3458 04f0 8F       		.byte	-113
 3459 04f1 77       		.byte	119
 3460 04f2 79       		.byte	121
 3461 04f3 C6       		.byte	-58
 3462 04f4 EB       		.byte	-21
 3463 04f5 9F       		.byte	-97
 3464 04f6 7F       		.byte	127
 3465 04f7 A1       		.byte	-95
 3466 04f8 72       		.byte	114
 3467 04f9 99       		.byte	-103
 3468 04fa AE       		.byte	-82
 3469 04fb AD       		.byte	-83
 3470 04fc B6       		.byte	-74
 3471 04fd 88       		.byte	-120
 3472 04fe 90       		.byte	-112
 3473 04ff 18       		.byte	24
 3474 0500 50       		.byte	80
 3475 0501 1D       		.byte	29
 3476 0502 28       		.byte	40
 3477 0503 9E       		.byte	-98
 3478 0504 49       		.byte	73
 3479 0505 00       		.byte	0
 3480 0506 F7       		.byte	-9
 3481 0507 E4       		.byte	-28
 3482 0508 33       		.byte	51
 3483 0509 1B       		.byte	27
 3484 050a 99       		.byte	-103
 3485 050b DE       		.byte	-34
 3486 050c C4       		.byte	-60
 3487 050d B5       		.byte	-75
 3488 050e 43       		.byte	67
 3489 050f 3A       		.byte	58
 3490 0510 C7       		.byte	-57
 3491 0511 D3       		.byte	-45
 3492 0512 29       		.byte	41
 3493 0513 EE       		.byte	-18
 3494 0514 B6       		.byte	-74
 3495 0515 DD       		.byte	-35
 3496 0516 26       		.byte	38
 3497 0517 54       		.byte	84
 3498 0518 5E       		.byte	94
 3499 0519 96       		.byte	-106
 3500 051a E5       		.byte	-27
 3501 051b 5B       		.byte	91
 3502 051c 87       		.byte	-121
 3503 051d 4B       		.byte	75
 3504 051e E9       		.byte	-23
 3505 051f 09       		.byte	9
ARM GAS  C:\Users\Phuong\AppData\Local\Temp\ccCGJz1B.s 			page 74


 3506 0520 E7       		.byte	-25
 3507 0521 18       		.byte	24
 3508 0522 48       		.byte	72
 3509 0523 3D       		.byte	61
 3510 0524 0C       		.byte	12
 3511 0525 E7       		.byte	-25
 3512 0526 69       		.byte	105
 3513 0527 64       		.byte	100
 3514 0528 4E       		.byte	78
 3515 0529 2E       		.byte	46
 3516 052a 42       		.byte	66
 3517 052b C7       		.byte	-57
 3518 052c BC       		.byte	-68
 3519 052d 15       		.byte	21
 3520 052e B4       		.byte	-76
 3521 052f 63       		.byte	99
 3522 0530 8E       		.byte	-114
 3523 0531 1F       		.byte	31
 3524 0532 98       		.byte	-104
 3525 0533 B1       		.byte	-79
 3526 0534 3B       		.byte	59
 3527 0535 20       		.byte	32
 3528 0536 44       		.byte	68
 3529 0537 28       		.byte	40
 3530 0538 56       		.byte	86
 3531 0539 32       		.byte	50
 3532 053a A8       		.byte	-88
 3533 053b 03       		.byte	3
 3534 053c AF       		.byte	-81
 3535 053d A9       		.byte	-87
 3536 053e 73       		.byte	115
 3537 053f EB       		.byte	-21
 3538 0540 DE       		.byte	-34
 3539 0541 0F       		.byte	15
 3540 0542 F2       		.byte	-14
 3541 0543 44       		.byte	68
 3542 0544 87       		.byte	-121
 3543 0545 7E       		.byte	126
 3544 0546 A6       		.byte	-90
 3545 0547 0A       		.byte	10
 3546 0548 4C       		.byte	76
 3547 0549 B0       		.byte	-80
 3548 054a 43       		.byte	67
 3549 054b 2C       		.byte	44
 3550 054c E5       		.byte	-27
 3551 054d 77       		.byte	119
 3552 054e C3       		.byte	-61
 3553 054f 1B       		.byte	27
 3554 0550 EB       		.byte	-21
 3555 0551 00       		.byte	0
 3556 0552 9C       		.byte	-100
 3557 0553 5C       		.byte	92
 3558 0554 2C       		.byte	44
 3559 0555 49       		.byte	73
 3560 0556 AA       		.byte	-86
 3561 0557 2E       		.byte	46
 3562 0558 4E       		.byte	78
ARM GAS  C:\Users\Phuong\AppData\Local\Temp\ccCGJz1B.s 			page 75


 3563 0559 AD       		.byte	-83
 3564 055a B2       		.byte	-78
 3565 055b 17       		.byte	23
 3566 055c AD       		.byte	-83
 3567 055d 8C       		.byte	-116
 3568 055e C0       		.byte	-64
 3569 055f 9B       		.byte	-101
 3570              		.section	.rodata.str1.4,"aMS",%progbits,1
 3571              		.align	2
 3572              	.LC1:
 3573 0000 42756666 		.ascii	"Buffer allocation failed\000"
 3573      65722061 
 3573      6C6C6F63 
 3573      6174696F 
 3573      6E206661 
 3574 0019 000000   		.space	3
 3575              	.LC3:
 3576 001c 20205348 		.ascii	"  SHA-%d test #%d: \000"
 3576      412D2564 
 3576      20746573 
 3576      74202325 
 3576      643A2000 
 3577              	.LC7:
 3578 0030 70617373 		.ascii	"passed\000"
 3578      656400
 3579 0037 00       		.space	1
 3580              	.LC9:
 3581 0038 6661696C 		.ascii	"failed\000"
 3581      656400
 3582              		.text
 3583              	.Letext0:
 3584              		.file 2 "c:\\program files (x86)\\cypress\\psoc creator\\4.2\\psoc creator\\import\\gnu\\arm\\5.4.
 3585              		.file 3 "c:\\program files (x86)\\cypress\\psoc creator\\4.2\\psoc creator\\import\\gnu\\arm\\5.4.
 3586              		.file 4 "c:\\program files (x86)\\cypress\\psoc creator\\4.2\\psoc creator\\import\\gnu\\arm\\5.4.
 3587              		.file 5 ".\\Source\\mbedtls_open\\include/mbedtls/sha512.h"
 3588              		.file 6 ".\\Source\\mbedtls_open\\include/mbedtls/platform_util.h"
 3589              		.file 7 "c:\\program files (x86)\\cypress\\psoc creator\\4.2\\psoc creator\\import\\gnu\\arm\\5.4.
 3590              		.file 8 "c:\\program files (x86)\\cypress\\psoc creator\\4.2\\psoc creator\\import\\gnu\\arm\\5.4.
 3591              		.file 9 "c:\\program files (x86)\\cypress\\psoc creator\\4.2\\psoc creator\\import\\gnu\\arm\\5.4.
 3592              		.file 10 "<built-in>"
 3593              		.section	.debug_info,"",%progbits
 3594              	.Ldebug_info0:
 3595 0000 600B0000 		.4byte	0xb60
 3596 0004 0400     		.2byte	0x4
 3597 0006 00000000 		.4byte	.Ldebug_abbrev0
 3598 000a 04       		.byte	0x4
 3599 000b 01       		.uleb128 0x1
 3600 000c 67030000 		.4byte	.LASF63
 3601 0010 0C       		.byte	0xc
 3602 0011 E3020000 		.4byte	.LASF64
 3603 0015 3E020000 		.4byte	.LASF65
 3604 0019 00000000 		.4byte	.Ldebug_ranges0+0
 3605 001d 00000000 		.4byte	0
 3606 0021 00000000 		.4byte	.Ldebug_line0
 3607 0025 02       		.uleb128 0x2
 3608 0026 08       		.byte	0x8
 3609 0027 07       		.byte	0x7
ARM GAS  C:\Users\Phuong\AppData\Local\Temp\ccCGJz1B.s 			page 76


 3610 0028 33000000 		.4byte	.LASF0
 3611 002c 02       		.uleb128 0x2
 3612 002d 01       		.byte	0x1
 3613 002e 06       		.byte	0x6
 3614 002f 77000000 		.4byte	.LASF1
 3615 0033 02       		.uleb128 0x2
 3616 0034 01       		.byte	0x1
 3617 0035 08       		.byte	0x8
 3618 0036 18030000 		.4byte	.LASF2
 3619 003a 02       		.uleb128 0x2
 3620 003b 02       		.byte	0x2
 3621 003c 05       		.byte	0x5
 3622 003d 26030000 		.4byte	.LASF3
 3623 0041 02       		.uleb128 0x2
 3624 0042 02       		.byte	0x2
 3625 0043 07       		.byte	0x7
 3626 0044 86010000 		.4byte	.LASF4
 3627 0048 02       		.uleb128 0x2
 3628 0049 04       		.byte	0x4
 3629 004a 05       		.byte	0x5
 3630 004b A9000000 		.4byte	.LASF5
 3631 004f 02       		.uleb128 0x2
 3632 0050 04       		.byte	0x4
 3633 0051 07       		.byte	0x7
 3634 0052 46010000 		.4byte	.LASF6
 3635 0056 02       		.uleb128 0x2
 3636 0057 08       		.byte	0x8
 3637 0058 05       		.byte	0x5
 3638 0059 69000000 		.4byte	.LASF7
 3639 005d 03       		.uleb128 0x3
 3640 005e 08030000 		.4byte	.LASF9
 3641 0062 02       		.byte	0x2
 3642 0063 5B       		.byte	0x5b
 3643 0064 25000000 		.4byte	0x25
 3644 0068 04       		.uleb128 0x4
 3645 0069 04       		.byte	0x4
 3646 006a 05       		.byte	0x5
 3647 006b 696E7400 		.ascii	"int\000"
 3648 006f 02       		.uleb128 0x2
 3649 0070 04       		.byte	0x4
 3650 0071 07       		.byte	0x7
 3651 0072 0D010000 		.4byte	.LASF8
 3652 0076 03       		.uleb128 0x3
 3653 0077 07000000 		.4byte	.LASF10
 3654 007b 03       		.byte	0x3
 3655 007c D8       		.byte	0xd8
 3656 007d 6F000000 		.4byte	0x6f
 3657 0081 02       		.uleb128 0x2
 3658 0082 08       		.byte	0x8
 3659 0083 04       		.byte	0x4
 3660 0084 32020000 		.4byte	.LASF11
 3661 0088 03       		.uleb128 0x3
 3662 0089 14000000 		.4byte	.LASF12
 3663 008d 04       		.byte	0x4
 3664 008e 3C       		.byte	0x3c
 3665 008f 5D000000 		.4byte	0x5d
 3666 0093 05       		.uleb128 0x5
ARM GAS  C:\Users\Phuong\AppData\Local\Temp\ccCGJz1B.s 			page 77


 3667 0094 4C040000 		.4byte	.LASF18
 3668 0098 D8       		.byte	0xd8
 3669 0099 05       		.byte	0x5
 3670 009a 37       		.byte	0x37
 3671 009b D0000000 		.4byte	0xd0
 3672 009f 06       		.uleb128 0x6
 3673 00a0 ED010000 		.4byte	.LASF13
 3674 00a4 05       		.byte	0x5
 3675 00a5 39       		.byte	0x39
 3676 00a6 D0000000 		.4byte	0xd0
 3677 00aa 00       		.byte	0
 3678 00ab 06       		.uleb128 0x6
 3679 00ac A3000000 		.4byte	.LASF14
 3680 00b0 05       		.byte	0x5
 3681 00b1 3A       		.byte	0x3a
 3682 00b2 E7000000 		.4byte	0xe7
 3683 00b6 10       		.byte	0x10
 3684 00b7 06       		.uleb128 0x6
 3685 00b8 1F040000 		.4byte	.LASF15
 3686 00bc 05       		.byte	0x5
 3687 00bd 3B       		.byte	0x3b
 3688 00be F7000000 		.4byte	0xf7
 3689 00c2 50       		.byte	0x50
 3690 00c3 06       		.uleb128 0x6
 3691 00c4 0E000000 		.4byte	.LASF16
 3692 00c8 05       		.byte	0x5
 3693 00c9 3C       		.byte	0x3c
 3694 00ca 68000000 		.4byte	0x68
 3695 00ce D0       		.byte	0xd0
 3696 00cf 00       		.byte	0
 3697 00d0 07       		.uleb128 0x7
 3698 00d1 88000000 		.4byte	0x88
 3699 00d5 E0000000 		.4byte	0xe0
 3700 00d9 08       		.uleb128 0x8
 3701 00da E0000000 		.4byte	0xe0
 3702 00de 01       		.byte	0x1
 3703 00df 00       		.byte	0
 3704 00e0 02       		.uleb128 0x2
 3705 00e1 04       		.byte	0x4
 3706 00e2 07       		.byte	0x7
 3707 00e3 29020000 		.4byte	.LASF17
 3708 00e7 07       		.uleb128 0x7
 3709 00e8 88000000 		.4byte	0x88
 3710 00ec F7000000 		.4byte	0xf7
 3711 00f0 08       		.uleb128 0x8
 3712 00f1 E0000000 		.4byte	0xe0
 3713 00f5 07       		.byte	0x7
 3714 00f6 00       		.byte	0
 3715 00f7 07       		.uleb128 0x7
 3716 00f8 33000000 		.4byte	0x33
 3717 00fc 07010000 		.4byte	0x107
 3718 0100 08       		.uleb128 0x8
 3719 0101 E0000000 		.4byte	0xe0
 3720 0105 7F       		.byte	0x7f
 3721 0106 00       		.byte	0
 3722 0107 03       		.uleb128 0x3
 3723 0108 4C040000 		.4byte	.LASF18
ARM GAS  C:\Users\Phuong\AppData\Local\Temp\ccCGJz1B.s 			page 78


 3724 010c 05       		.byte	0x5
 3725 010d 3F       		.byte	0x3f
 3726 010e 93000000 		.4byte	0x93
 3727 0112 09       		.uleb128 0x9
 3728 0113 04       		.byte	0x4
 3729 0114 33000000 		.4byte	0x33
 3730 0118 02       		.uleb128 0x2
 3731 0119 01       		.byte	0x1
 3732 011a 08       		.byte	0x8
 3733 011b F9030000 		.4byte	.LASF19
 3734 011f 0A       		.uleb128 0xa
 3735 0120 99010000 		.4byte	.LASF20
 3736 0124 01       		.byte	0x1
 3737 0125 5B       		.byte	0x5b
 3738 0126 00000000 		.4byte	.LFB1
 3739 012a 0C000000 		.4byte	.LFE1-.LFB1
 3740 012e 01       		.uleb128 0x1
 3741 012f 9C       		.byte	0x9c
 3742 0130 60010000 		.4byte	0x160
 3743 0134 0B       		.uleb128 0xb
 3744 0135 63747800 		.ascii	"ctx\000"
 3745 0139 01       		.byte	0x1
 3746 013a 5B       		.byte	0x5b
 3747 013b 60010000 		.4byte	0x160
 3748 013f 00000000 		.4byte	.LLST0
 3749 0143 0C       		.uleb128 0xc
 3750 0144 0A000000 		.4byte	.LVL1
 3751 0148 F10A0000 		.4byte	0xaf1
 3752 014c 0D       		.uleb128 0xd
 3753 014d 01       		.uleb128 0x1
 3754 014e 50       		.byte	0x50
 3755 014f 03       		.uleb128 0x3
 3756 0150 F3       		.byte	0xf3
 3757 0151 01       		.uleb128 0x1
 3758 0152 50       		.byte	0x50
 3759 0153 0D       		.uleb128 0xd
 3760 0154 01       		.uleb128 0x1
 3761 0155 51       		.byte	0x51
 3762 0156 01       		.uleb128 0x1
 3763 0157 30       		.byte	0x30
 3764 0158 0D       		.uleb128 0xd
 3765 0159 01       		.uleb128 0x1
 3766 015a 52       		.byte	0x52
 3767 015b 02       		.uleb128 0x2
 3768 015c 08       		.byte	0x8
 3769 015d D8       		.byte	0xd8
 3770 015e 00       		.byte	0
 3771 015f 00       		.byte	0
 3772 0160 09       		.uleb128 0x9
 3773 0161 04       		.byte	0x4
 3774 0162 07010000 		.4byte	0x107
 3775 0166 0A       		.uleb128 0xa
 3776 0167 D9010000 		.4byte	.LASF21
 3777 016b 01       		.byte	0x1
 3778 016c 60       		.byte	0x60
 3779 016d 00000000 		.4byte	.LFB2
 3780 0171 0E000000 		.4byte	.LFE2-.LFB2
ARM GAS  C:\Users\Phuong\AppData\Local\Temp\ccCGJz1B.s 			page 79


 3781 0175 01       		.uleb128 0x1
 3782 0176 9C       		.byte	0x9c
 3783 0177 A2010000 		.4byte	0x1a2
 3784 017b 0B       		.uleb128 0xb
 3785 017c 63747800 		.ascii	"ctx\000"
 3786 0180 01       		.byte	0x1
 3787 0181 60       		.byte	0x60
 3788 0182 60010000 		.4byte	0x160
 3789 0186 21000000 		.4byte	.LLST1
 3790 018a 0C       		.uleb128 0xc
 3791 018b 0C000000 		.4byte	.LVL3
 3792 018f FA0A0000 		.4byte	0xafa
 3793 0193 0D       		.uleb128 0xd
 3794 0194 01       		.uleb128 0x1
 3795 0195 50       		.byte	0x50
 3796 0196 03       		.uleb128 0x3
 3797 0197 F3       		.byte	0xf3
 3798 0198 01       		.uleb128 0x1
 3799 0199 50       		.byte	0x50
 3800 019a 0D       		.uleb128 0xd
 3801 019b 01       		.uleb128 0x1
 3802 019c 51       		.byte	0x51
 3803 019d 02       		.uleb128 0x2
 3804 019e 08       		.byte	0x8
 3805 019f D8       		.byte	0xd8
 3806 01a0 00       		.byte	0
 3807 01a1 00       		.byte	0
 3808 01a2 0A       		.uleb128 0xa
 3809 01a3 F3010000 		.4byte	.LASF22
 3810 01a7 01       		.byte	0x1
 3811 01a8 68       		.byte	0x68
 3812 01a9 00000000 		.4byte	.LFB3
 3813 01ad 0A000000 		.4byte	.LFE3-.LFB3
 3814 01b1 01       		.uleb128 0x1
 3815 01b2 9C       		.byte	0x9c
 3816 01b3 F4010000 		.4byte	0x1f4
 3817 01b7 0B       		.uleb128 0xb
 3818 01b8 64737400 		.ascii	"dst\000"
 3819 01bc 01       		.byte	0x1
 3820 01bd 68       		.byte	0x68
 3821 01be 60010000 		.4byte	0x160
 3822 01c2 42000000 		.4byte	.LLST2
 3823 01c6 0B       		.uleb128 0xb
 3824 01c7 73726300 		.ascii	"src\000"
 3825 01cb 01       		.byte	0x1
 3826 01cc 69       		.byte	0x69
 3827 01cd F4010000 		.4byte	0x1f4
 3828 01d1 63000000 		.4byte	.LLST3
 3829 01d5 0C       		.uleb128 0xc
 3830 01d6 08000000 		.4byte	.LVL5
 3831 01da 050B0000 		.4byte	0xb05
 3832 01de 0D       		.uleb128 0xd
 3833 01df 01       		.uleb128 0x1
 3834 01e0 50       		.byte	0x50
 3835 01e1 03       		.uleb128 0x3
 3836 01e2 F3       		.byte	0xf3
 3837 01e3 01       		.uleb128 0x1
ARM GAS  C:\Users\Phuong\AppData\Local\Temp\ccCGJz1B.s 			page 80


 3838 01e4 50       		.byte	0x50
 3839 01e5 0D       		.uleb128 0xd
 3840 01e6 01       		.uleb128 0x1
 3841 01e7 51       		.byte	0x51
 3842 01e8 03       		.uleb128 0x3
 3843 01e9 F3       		.byte	0xf3
 3844 01ea 01       		.uleb128 0x1
 3845 01eb 51       		.byte	0x51
 3846 01ec 0D       		.uleb128 0xd
 3847 01ed 01       		.uleb128 0x1
 3848 01ee 52       		.byte	0x52
 3849 01ef 02       		.uleb128 0x2
 3850 01f0 08       		.byte	0x8
 3851 01f1 D8       		.byte	0xd8
 3852 01f2 00       		.byte	0
 3853 01f3 00       		.byte	0
 3854 01f4 09       		.uleb128 0x9
 3855 01f5 04       		.byte	0x4
 3856 01f6 FA010000 		.4byte	0x1fa
 3857 01fa 0E       		.uleb128 0xe
 3858 01fb 07010000 		.4byte	0x107
 3859 01ff 0F       		.uleb128 0xf
 3860 0200 32040000 		.4byte	.LASF24
 3861 0204 01       		.byte	0x1
 3862 0205 71       		.byte	0x71
 3863 0206 68000000 		.4byte	0x68
 3864 020a 00000000 		.4byte	.LFB4
 3865 020e 1C010000 		.4byte	.LFE4-.LFB4
 3866 0212 01       		.uleb128 0x1
 3867 0213 9C       		.byte	0x9c
 3868 0214 35020000 		.4byte	0x235
 3869 0218 0B       		.uleb128 0xb
 3870 0219 63747800 		.ascii	"ctx\000"
 3871 021d 01       		.byte	0x1
 3872 021e 71       		.byte	0x71
 3873 021f 60010000 		.4byte	0x160
 3874 0223 84000000 		.4byte	.LLST4
 3875 0227 10       		.uleb128 0x10
 3876 0228 0E000000 		.4byte	.LASF16
 3877 022c 01       		.byte	0x1
 3878 022d 71       		.byte	0x71
 3879 022e 68000000 		.4byte	0x68
 3880 0232 01       		.uleb128 0x1
 3881 0233 51       		.byte	0x51
 3882 0234 00       		.byte	0
 3883 0235 0A       		.uleb128 0xa
 3884 0236 1A010000 		.4byte	.LASF23
 3885 023a 01       		.byte	0x1
 3886 023b 95       		.byte	0x95
 3887 023c 00000000 		.4byte	.LFB5
 3888 0240 08000000 		.4byte	.LFE5-.LFB5
 3889 0244 01       		.uleb128 0x1
 3890 0245 9C       		.byte	0x9c
 3891 0246 81020000 		.4byte	0x281
 3892 024a 0B       		.uleb128 0xb
 3893 024b 63747800 		.ascii	"ctx\000"
 3894 024f 01       		.byte	0x1
ARM GAS  C:\Users\Phuong\AppData\Local\Temp\ccCGJz1B.s 			page 81


 3895 0250 95       		.byte	0x95
 3896 0251 60010000 		.4byte	0x160
 3897 0255 A5000000 		.4byte	.LLST5
 3898 0259 11       		.uleb128 0x11
 3899 025a 0E000000 		.4byte	.LASF16
 3900 025e 01       		.byte	0x1
 3901 025f 96       		.byte	0x96
 3902 0260 68000000 		.4byte	0x68
 3903 0264 C6000000 		.4byte	.LLST6
 3904 0268 0C       		.uleb128 0xc
 3905 0269 06000000 		.4byte	.LVL9
 3906 026d FF010000 		.4byte	0x1ff
 3907 0271 0D       		.uleb128 0xd
 3908 0272 01       		.uleb128 0x1
 3909 0273 50       		.byte	0x50
 3910 0274 03       		.uleb128 0x3
 3911 0275 F3       		.byte	0xf3
 3912 0276 01       		.uleb128 0x1
 3913 0277 50       		.byte	0x50
 3914 0278 0D       		.uleb128 0xd
 3915 0279 01       		.uleb128 0x1
 3916 027a 51       		.byte	0x51
 3917 027b 03       		.uleb128 0x3
 3918 027c F3       		.byte	0xf3
 3919 027d 01       		.uleb128 0x1
 3920 027e 51       		.byte	0x51
 3921 027f 00       		.byte	0
 3922 0280 00       		.byte	0
 3923 0281 0F       		.uleb128 0xf
 3924 0282 83000000 		.4byte	.LASF25
 3925 0286 01       		.byte	0x1
 3926 0287 CD       		.byte	0xcd
 3927 0288 68000000 		.4byte	0x68
 3928 028c 00000000 		.4byte	.LFB6
 3929 0290 540C0000 		.4byte	.LFE6-.LFB6
 3930 0294 01       		.uleb128 0x1
 3931 0295 9C       		.byte	0x9c
 3932 0296 59030000 		.4byte	0x359
 3933 029a 0B       		.uleb128 0xb
 3934 029b 63747800 		.ascii	"ctx\000"
 3935 029f 01       		.byte	0x1
 3936 02a0 CD       		.byte	0xcd
 3937 02a1 60010000 		.4byte	0x160
 3938 02a5 E7000000 		.4byte	.LLST7
 3939 02a9 11       		.uleb128 0x11
 3940 02aa 81010000 		.4byte	.LASF26
 3941 02ae 01       		.byte	0x1
 3942 02af CE       		.byte	0xce
 3943 02b0 59030000 		.4byte	0x359
 3944 02b4 07010000 		.4byte	.LLST8
 3945 02b8 12       		.uleb128 0x12
 3946 02b9 6900     		.ascii	"i\000"
 3947 02bb 01       		.byte	0x1
 3948 02bc D0       		.byte	0xd0
 3949 02bd 68000000 		.4byte	0x68
 3950 02c1 33010000 		.4byte	.LLST9
 3951 02c5 13       		.uleb128 0x13
ARM GAS  C:\Users\Phuong\AppData\Local\Temp\ccCGJz1B.s 			page 82


 3952 02c6 30030000 		.4byte	.LASF27
 3953 02ca 01       		.byte	0x1
 3954 02cb D1       		.byte	0xd1
 3955 02cc 88000000 		.4byte	0x88
 3956 02d0 1A020000 		.4byte	.LLST10
 3957 02d4 13       		.uleb128 0x13
 3958 02d5 36030000 		.4byte	.LASF28
 3959 02d9 01       		.byte	0x1
 3960 02da D1       		.byte	0xd1
 3961 02db 88000000 		.4byte	0x88
 3962 02df C7030000 		.4byte	.LLST11
 3963 02e3 14       		.uleb128 0x14
 3964 02e4 5700     		.ascii	"W\000"
 3965 02e6 01       		.byte	0x1
 3966 02e7 D1       		.byte	0xd1
 3967 02e8 64030000 		.4byte	0x364
 3968 02ec 03       		.uleb128 0x3
 3969 02ed 91       		.byte	0x91
 3970 02ee D87A     		.sleb128 -680
 3971 02f0 12       		.uleb128 0x12
 3972 02f1 4100     		.ascii	"A\000"
 3973 02f3 01       		.byte	0x1
 3974 02f4 D2       		.byte	0xd2
 3975 02f5 88000000 		.4byte	0x88
 3976 02f9 09050000 		.4byte	.LLST12
 3977 02fd 12       		.uleb128 0x12
 3978 02fe 4200     		.ascii	"B\000"
 3979 0300 01       		.byte	0x1
 3980 0301 D2       		.byte	0xd2
 3981 0302 88000000 		.4byte	0x88
 3982 0306 90050000 		.4byte	.LLST13
 3983 030a 12       		.uleb128 0x12
 3984 030b 4300     		.ascii	"C\000"
 3985 030d 01       		.byte	0x1
 3986 030e D2       		.byte	0xd2
 3987 030f 88000000 		.4byte	0x88
 3988 0313 EF050000 		.4byte	.LLST14
 3989 0317 12       		.uleb128 0x12
 3990 0318 4400     		.ascii	"D\000"
 3991 031a 01       		.byte	0x1
 3992 031b D2       		.byte	0xd2
 3993 031c 88000000 		.4byte	0x88
 3994 0320 4E060000 		.4byte	.LLST15
 3995 0324 12       		.uleb128 0x12
 3996 0325 4500     		.ascii	"E\000"
 3997 0327 01       		.byte	0x1
 3998 0328 D2       		.byte	0xd2
 3999 0329 88000000 		.4byte	0x88
 4000 032d AD060000 		.4byte	.LLST16
 4001 0331 12       		.uleb128 0x12
 4002 0332 4600     		.ascii	"F\000"
 4003 0334 01       		.byte	0x1
 4004 0335 D2       		.byte	0xd2
 4005 0336 88000000 		.4byte	0x88
 4006 033a 0C070000 		.4byte	.LLST17
 4007 033e 12       		.uleb128 0x12
 4008 033f 4700     		.ascii	"G\000"
ARM GAS  C:\Users\Phuong\AppData\Local\Temp\ccCGJz1B.s 			page 83


 4009 0341 01       		.byte	0x1
 4010 0342 D2       		.byte	0xd2
 4011 0343 88000000 		.4byte	0x88
 4012 0347 93070000 		.4byte	.LLST18
 4013 034b 12       		.uleb128 0x12
 4014 034c 4800     		.ascii	"H\000"
 4015 034e 01       		.byte	0x1
 4016 034f D2       		.byte	0xd2
 4017 0350 88000000 		.4byte	0x88
 4018 0354 F2070000 		.4byte	.LLST19
 4019 0358 00       		.byte	0
 4020 0359 09       		.uleb128 0x9
 4021 035a 04       		.byte	0x4
 4022 035b 5F030000 		.4byte	0x35f
 4023 035f 0E       		.uleb128 0xe
 4024 0360 33000000 		.4byte	0x33
 4025 0364 07       		.uleb128 0x7
 4026 0365 88000000 		.4byte	0x88
 4027 0369 74030000 		.4byte	0x374
 4028 036d 08       		.uleb128 0x8
 4029 036e E0000000 		.4byte	0xe0
 4030 0372 4F       		.byte	0x4f
 4031 0373 00       		.byte	0
 4032 0374 15       		.uleb128 0x15
 4033 0375 58010000 		.4byte	.LASF29
 4034 0379 01       		.byte	0x1
 4035 037a 1601     		.2byte	0x116
 4036 037c 00000000 		.4byte	.LFB7
 4037 0380 08000000 		.4byte	.LFE7-.LFB7
 4038 0384 01       		.uleb128 0x1
 4039 0385 9C       		.byte	0x9c
 4040 0386 C3030000 		.4byte	0x3c3
 4041 038a 16       		.uleb128 0x16
 4042 038b 63747800 		.ascii	"ctx\000"
 4043 038f 01       		.byte	0x1
 4044 0390 1601     		.2byte	0x116
 4045 0392 60010000 		.4byte	0x160
 4046 0396 61080000 		.4byte	.LLST20
 4047 039a 17       		.uleb128 0x17
 4048 039b 81010000 		.4byte	.LASF26
 4049 039f 01       		.byte	0x1
 4050 03a0 1701     		.2byte	0x117
 4051 03a2 59030000 		.4byte	0x359
 4052 03a6 82080000 		.4byte	.LLST21
 4053 03aa 0C       		.uleb128 0xc
 4054 03ab 06000000 		.4byte	.LVL117
 4055 03af 81020000 		.4byte	0x281
 4056 03b3 0D       		.uleb128 0xd
 4057 03b4 01       		.uleb128 0x1
 4058 03b5 50       		.byte	0x50
 4059 03b6 03       		.uleb128 0x3
 4060 03b7 F3       		.byte	0xf3
 4061 03b8 01       		.uleb128 0x1
 4062 03b9 50       		.byte	0x50
 4063 03ba 0D       		.uleb128 0xd
 4064 03bb 01       		.uleb128 0x1
 4065 03bc 51       		.byte	0x51
ARM GAS  C:\Users\Phuong\AppData\Local\Temp\ccCGJz1B.s 			page 84


 4066 03bd 03       		.uleb128 0x3
 4067 03be F3       		.byte	0xf3
 4068 03bf 01       		.uleb128 0x1
 4069 03c0 51       		.byte	0x51
 4070 03c1 00       		.byte	0
 4071 03c2 00       		.byte	0
 4072 03c3 18       		.uleb128 0x18
 4073 03c4 08020000 		.4byte	.LASF30
 4074 03c8 01       		.byte	0x1
 4075 03c9 2101     		.2byte	0x121
 4076 03cb 68000000 		.4byte	0x68
 4077 03cf 00000000 		.4byte	.LFB8
 4078 03d3 B0000000 		.4byte	.LFE8-.LFB8
 4079 03d7 01       		.uleb128 0x1
 4080 03d8 9C       		.byte	0x9c
 4081 03d9 B6040000 		.4byte	0x4b6
 4082 03dd 16       		.uleb128 0x16
 4083 03de 63747800 		.ascii	"ctx\000"
 4084 03e2 01       		.byte	0x1
 4085 03e3 2101     		.2byte	0x121
 4086 03e5 60010000 		.4byte	0x160
 4087 03e9 A3080000 		.4byte	.LLST22
 4088 03ed 17       		.uleb128 0x17
 4089 03ee 4D030000 		.4byte	.LASF31
 4090 03f2 01       		.byte	0x1
 4091 03f3 2201     		.2byte	0x122
 4092 03f5 59030000 		.4byte	0x359
 4093 03f9 E5080000 		.4byte	.LLST23
 4094 03fd 17       		.uleb128 0x17
 4095 03fe 71040000 		.4byte	.LASF32
 4096 0402 01       		.byte	0x1
 4097 0403 2301     		.2byte	0x123
 4098 0405 76000000 		.4byte	0x76
 4099 0409 19090000 		.4byte	.LLST24
 4100 040d 19       		.uleb128 0x19
 4101 040e 72657400 		.ascii	"ret\000"
 4102 0412 01       		.byte	0x1
 4103 0413 2501     		.2byte	0x125
 4104 0415 68000000 		.4byte	0x68
 4105 0419 4D090000 		.4byte	.LLST25
 4106 041d 1A       		.uleb128 0x1a
 4107 041e 3C030000 		.4byte	.LASF33
 4108 0422 01       		.byte	0x1
 4109 0423 2601     		.2byte	0x126
 4110 0425 76000000 		.4byte	0x76
 4111 0429 6B090000 		.4byte	.LLST26
 4112 042d 1A       		.uleb128 0x1a
 4113 042e 7B040000 		.4byte	.LASF34
 4114 0432 01       		.byte	0x1
 4115 0433 2701     		.2byte	0x127
 4116 0435 6F000000 		.4byte	0x6f
 4117 0439 89090000 		.4byte	.LLST27
 4118 043d 1B       		.uleb128 0x1b
 4119 043e 62000000 		.4byte	.LVL127
 4120 0442 050B0000 		.4byte	0xb05
 4121 0446 60040000 		.4byte	0x460
 4122 044a 0D       		.uleb128 0xd
ARM GAS  C:\Users\Phuong\AppData\Local\Temp\ccCGJz1B.s 			page 85


 4123 044b 01       		.uleb128 0x1
 4124 044c 50       		.byte	0x50
 4125 044d 05       		.uleb128 0x5
 4126 044e 78       		.byte	0x78
 4127 044f 00       		.sleb128 0
 4128 0450 79       		.byte	0x79
 4129 0451 00       		.sleb128 0
 4130 0452 22       		.byte	0x22
 4131 0453 0D       		.uleb128 0xd
 4132 0454 01       		.uleb128 0x1
 4133 0455 51       		.byte	0x51
 4134 0456 02       		.uleb128 0x2
 4135 0457 75       		.byte	0x75
 4136 0458 00       		.sleb128 0
 4137 0459 0D       		.uleb128 0xd
 4138 045a 01       		.uleb128 0x1
 4139 045b 52       		.byte	0x52
 4140 045c 02       		.uleb128 0x2
 4141 045d 76       		.byte	0x76
 4142 045e 00       		.sleb128 0
 4143 045f 00       		.byte	0
 4144 0460 1B       		.uleb128 0x1b
 4145 0461 6A000000 		.4byte	.LVL128
 4146 0465 81020000 		.4byte	0x281
 4147 0469 7A040000 		.4byte	0x47a
 4148 046d 0D       		.uleb128 0xd
 4149 046e 01       		.uleb128 0x1
 4150 046f 50       		.byte	0x50
 4151 0470 02       		.uleb128 0x2
 4152 0471 77       		.byte	0x77
 4153 0472 00       		.sleb128 0
 4154 0473 0D       		.uleb128 0xd
 4155 0474 01       		.uleb128 0x1
 4156 0475 51       		.byte	0x51
 4157 0476 02       		.uleb128 0x2
 4158 0477 78       		.byte	0x78
 4159 0478 00       		.sleb128 0
 4160 0479 00       		.byte	0
 4161 047a 1B       		.uleb128 0x1b
 4162 047b 80000000 		.4byte	.LVL132
 4163 047f 81020000 		.4byte	0x281
 4164 0483 94040000 		.4byte	0x494
 4165 0487 0D       		.uleb128 0xd
 4166 0488 01       		.uleb128 0x1
 4167 0489 50       		.byte	0x50
 4168 048a 02       		.uleb128 0x2
 4169 048b 77       		.byte	0x77
 4170 048c 00       		.sleb128 0
 4171 048d 0D       		.uleb128 0xd
 4172 048e 01       		.uleb128 0x1
 4173 048f 51       		.byte	0x51
 4174 0490 02       		.uleb128 0x2
 4175 0491 75       		.byte	0x75
 4176 0492 00       		.sleb128 0
 4177 0493 00       		.byte	0
 4178 0494 0C       		.uleb128 0xc
 4179 0495 9E000000 		.4byte	.LVL135
ARM GAS  C:\Users\Phuong\AppData\Local\Temp\ccCGJz1B.s 			page 86


 4180 0499 050B0000 		.4byte	0xb05
 4181 049d 0D       		.uleb128 0xd
 4182 049e 01       		.uleb128 0x1
 4183 049f 50       		.byte	0x50
 4184 04a0 07       		.uleb128 0x7
 4185 04a1 77       		.byte	0x77
 4186 04a2 00       		.sleb128 0
 4187 04a3 79       		.byte	0x79
 4188 04a4 00       		.sleb128 0
 4189 04a5 22       		.byte	0x22
 4190 04a6 23       		.byte	0x23
 4191 04a7 50       		.uleb128 0x50
 4192 04a8 0D       		.uleb128 0xd
 4193 04a9 01       		.uleb128 0x1
 4194 04aa 51       		.byte	0x51
 4195 04ab 02       		.uleb128 0x2
 4196 04ac 75       		.byte	0x75
 4197 04ad 00       		.sleb128 0
 4198 04ae 0D       		.uleb128 0xd
 4199 04af 01       		.uleb128 0x1
 4200 04b0 52       		.byte	0x52
 4201 04b1 02       		.uleb128 0x2
 4202 04b2 74       		.byte	0x74
 4203 04b3 00       		.sleb128 0
 4204 04b4 00       		.byte	0
 4205 04b5 00       		.byte	0
 4206 04b6 15       		.uleb128 0x15
 4207 04b7 1D000000 		.4byte	.LASF35
 4208 04bb 01       		.byte	0x1
 4209 04bc 5001     		.2byte	0x150
 4210 04be 00000000 		.4byte	.LFB9
 4211 04c2 08000000 		.4byte	.LFE9-.LFB9
 4212 04c6 01       		.uleb128 0x1
 4213 04c7 9C       		.byte	0x9c
 4214 04c8 1C050000 		.4byte	0x51c
 4215 04cc 16       		.uleb128 0x16
 4216 04cd 63747800 		.ascii	"ctx\000"
 4217 04d1 01       		.byte	0x1
 4218 04d2 5001     		.2byte	0x150
 4219 04d4 60010000 		.4byte	0x160
 4220 04d8 DF090000 		.4byte	.LLST28
 4221 04dc 17       		.uleb128 0x17
 4222 04dd 4D030000 		.4byte	.LASF31
 4223 04e1 01       		.byte	0x1
 4224 04e2 5101     		.2byte	0x151
 4225 04e4 59030000 		.4byte	0x359
 4226 04e8 000A0000 		.4byte	.LLST29
 4227 04ec 17       		.uleb128 0x17
 4228 04ed 71040000 		.4byte	.LASF32
 4229 04f1 01       		.byte	0x1
 4230 04f2 5201     		.2byte	0x152
 4231 04f4 76000000 		.4byte	0x76
 4232 04f8 210A0000 		.4byte	.LLST30
 4233 04fc 0C       		.uleb128 0xc
 4234 04fd 06000000 		.4byte	.LVL144
 4235 0501 C3030000 		.4byte	0x3c3
 4236 0505 0D       		.uleb128 0xd
ARM GAS  C:\Users\Phuong\AppData\Local\Temp\ccCGJz1B.s 			page 87


 4237 0506 01       		.uleb128 0x1
 4238 0507 50       		.byte	0x50
 4239 0508 03       		.uleb128 0x3
 4240 0509 F3       		.byte	0xf3
 4241 050a 01       		.uleb128 0x1
 4242 050b 50       		.byte	0x50
 4243 050c 0D       		.uleb128 0xd
 4244 050d 01       		.uleb128 0x1
 4245 050e 51       		.byte	0x51
 4246 050f 03       		.uleb128 0x3
 4247 0510 F3       		.byte	0xf3
 4248 0511 01       		.uleb128 0x1
 4249 0512 51       		.byte	0x51
 4250 0513 0D       		.uleb128 0xd
 4251 0514 01       		.uleb128 0x1
 4252 0515 52       		.byte	0x52
 4253 0516 03       		.uleb128 0x3
 4254 0517 F3       		.byte	0xf3
 4255 0518 01       		.uleb128 0x1
 4256 0519 52       		.byte	0x52
 4257 051a 00       		.byte	0
 4258 051b 00       		.byte	0
 4259 051c 18       		.uleb128 0x18
 4260 051d 4F000000 		.4byte	.LASF36
 4261 0521 01       		.byte	0x1
 4262 0522 5B01     		.2byte	0x15b
 4263 0524 68000000 		.4byte	0x68
 4264 0528 00000000 		.4byte	.LFB10
 4265 052c 66020000 		.4byte	.LFE10-.LFB10
 4266 0530 01       		.uleb128 0x1
 4267 0531 9C       		.byte	0x9c
 4268 0532 0D060000 		.4byte	0x60d
 4269 0536 16       		.uleb128 0x16
 4270 0537 63747800 		.ascii	"ctx\000"
 4271 053b 01       		.byte	0x1
 4272 053c 5B01     		.2byte	0x15b
 4273 053e 60010000 		.4byte	0x160
 4274 0542 420A0000 		.4byte	.LLST31
 4275 0546 17       		.uleb128 0x17
 4276 0547 22020000 		.4byte	.LASF37
 4277 054b 01       		.byte	0x1
 4278 054c 5C01     		.2byte	0x15c
 4279 054e 12010000 		.4byte	0x112
 4280 0552 6E0A0000 		.4byte	.LLST32
 4281 0556 19       		.uleb128 0x19
 4282 0557 72657400 		.ascii	"ret\000"
 4283 055b 01       		.byte	0x1
 4284 055c 5E01     		.2byte	0x15e
 4285 055e 68000000 		.4byte	0x68
 4286 0562 B00A0000 		.4byte	.LLST33
 4287 0566 1A       		.uleb128 0x1a
 4288 0567 13030000 		.4byte	.LASF38
 4289 056b 01       		.byte	0x1
 4290 056c 5F01     		.2byte	0x15f
 4291 056e 6F000000 		.4byte	0x6f
 4292 0572 CE0A0000 		.4byte	.LLST34
 4293 0576 1A       		.uleb128 0x1a
ARM GAS  C:\Users\Phuong\AppData\Local\Temp\ccCGJz1B.s 			page 88


 4294 0577 26040000 		.4byte	.LASF39
 4295 057b 01       		.byte	0x1
 4296 057c 6001     		.2byte	0x160
 4297 057e 88000000 		.4byte	0x88
 4298 0582 F70A0000 		.4byte	.LLST35
 4299 0586 19       		.uleb128 0x19
 4300 0587 6C6F7700 		.ascii	"low\000"
 4301 058b 01       		.byte	0x1
 4302 058c 6001     		.2byte	0x160
 4303 058e 88000000 		.4byte	0x88
 4304 0592 0F0B0000 		.4byte	.LLST36
 4305 0596 1B       		.uleb128 0x1b
 4306 0597 2A000000 		.4byte	.LVL150
 4307 059b F10A0000 		.4byte	0xaf1
 4308 059f A9050000 		.4byte	0x5a9
 4309 05a3 0D       		.uleb128 0xd
 4310 05a4 01       		.uleb128 0x1
 4311 05a5 51       		.byte	0x51
 4312 05a6 01       		.uleb128 0x1
 4313 05a7 30       		.byte	0x30
 4314 05a8 00       		.byte	0
 4315 05a9 1B       		.uleb128 0x1b
 4316 05aa 3C000000 		.4byte	.LVL154
 4317 05ae F10A0000 		.4byte	0xaf1
 4318 05b2 BC050000 		.4byte	0x5bc
 4319 05b6 0D       		.uleb128 0xd
 4320 05b7 01       		.uleb128 0x1
 4321 05b8 51       		.byte	0x51
 4322 05b9 01       		.uleb128 0x1
 4323 05ba 30       		.byte	0x30
 4324 05bb 00       		.byte	0
 4325 05bc 1B       		.uleb128 0x1b
 4326 05bd 44000000 		.4byte	.LVL155
 4327 05c1 81020000 		.4byte	0x281
 4328 05c5 D6050000 		.4byte	0x5d6
 4329 05c9 0D       		.uleb128 0xd
 4330 05ca 01       		.uleb128 0x1
 4331 05cb 50       		.byte	0x50
 4332 05cc 02       		.uleb128 0x2
 4333 05cd 74       		.byte	0x74
 4334 05ce 00       		.sleb128 0
 4335 05cf 0D       		.uleb128 0xd
 4336 05d0 01       		.uleb128 0x1
 4337 05d1 51       		.byte	0x51
 4338 05d2 02       		.uleb128 0x2
 4339 05d3 76       		.byte	0x76
 4340 05d4 00       		.sleb128 0
 4341 05d5 00       		.byte	0
 4342 05d6 1B       		.uleb128 0x1b
 4343 05d7 54000000 		.4byte	.LVL157
 4344 05db F10A0000 		.4byte	0xaf1
 4345 05df F5050000 		.4byte	0x5f5
 4346 05e3 0D       		.uleb128 0xd
 4347 05e4 01       		.uleb128 0x1
 4348 05e5 50       		.byte	0x50
 4349 05e6 02       		.uleb128 0x2
 4350 05e7 76       		.byte	0x76
ARM GAS  C:\Users\Phuong\AppData\Local\Temp\ccCGJz1B.s 			page 89


 4351 05e8 00       		.sleb128 0
 4352 05e9 0D       		.uleb128 0xd
 4353 05ea 01       		.uleb128 0x1
 4354 05eb 51       		.byte	0x51
 4355 05ec 01       		.uleb128 0x1
 4356 05ed 30       		.byte	0x30
 4357 05ee 0D       		.uleb128 0xd
 4358 05ef 01       		.uleb128 0x1
 4359 05f0 52       		.byte	0x52
 4360 05f1 02       		.uleb128 0x2
 4361 05f2 08       		.byte	0x8
 4362 05f3 70       		.byte	0x70
 4363 05f4 00       		.byte	0
 4364 05f5 0C       		.uleb128 0xc
 4365 05f6 D2000000 		.4byte	.LVL162
 4366 05fa 81020000 		.4byte	0x281
 4367 05fe 0D       		.uleb128 0xd
 4368 05ff 01       		.uleb128 0x1
 4369 0600 50       		.byte	0x50
 4370 0601 02       		.uleb128 0x2
 4371 0602 74       		.byte	0x74
 4372 0603 00       		.sleb128 0
 4373 0604 0D       		.uleb128 0xd
 4374 0605 01       		.uleb128 0x1
 4375 0606 51       		.byte	0x51
 4376 0607 03       		.uleb128 0x3
 4377 0608 74       		.byte	0x74
 4378 0609 D000     		.sleb128 80
 4379 060b 00       		.byte	0
 4380 060c 00       		.byte	0
 4381 060d 15       		.uleb128 0x15
 4382 060e 30010000 		.4byte	.LASF40
 4383 0612 01       		.byte	0x1
 4384 0613 9A01     		.2byte	0x19a
 4385 0615 00000000 		.4byte	.LFB11
 4386 0619 08000000 		.4byte	.LFE11-.LFB11
 4387 061d 01       		.uleb128 0x1
 4388 061e 9C       		.byte	0x9c
 4389 061f 5C060000 		.4byte	0x65c
 4390 0623 16       		.uleb128 0x16
 4391 0624 63747800 		.ascii	"ctx\000"
 4392 0628 01       		.byte	0x1
 4393 0629 9A01     		.2byte	0x19a
 4394 062b 60010000 		.4byte	0x160
 4395 062f 270B0000 		.4byte	.LLST37
 4396 0633 17       		.uleb128 0x17
 4397 0634 22020000 		.4byte	.LASF37
 4398 0638 01       		.byte	0x1
 4399 0639 9B01     		.2byte	0x19b
 4400 063b 12010000 		.4byte	0x112
 4401 063f 480B0000 		.4byte	.LLST38
 4402 0643 0C       		.uleb128 0xc
 4403 0644 06000000 		.4byte	.LVL167
 4404 0648 1C050000 		.4byte	0x51c
 4405 064c 0D       		.uleb128 0xd
 4406 064d 01       		.uleb128 0x1
 4407 064e 50       		.byte	0x50
ARM GAS  C:\Users\Phuong\AppData\Local\Temp\ccCGJz1B.s 			page 90


 4408 064f 03       		.uleb128 0x3
 4409 0650 F3       		.byte	0xf3
 4410 0651 01       		.uleb128 0x1
 4411 0652 50       		.byte	0x50
 4412 0653 0D       		.uleb128 0xd
 4413 0654 01       		.uleb128 0x1
 4414 0655 51       		.byte	0x51
 4415 0656 03       		.uleb128 0x3
 4416 0657 F3       		.byte	0xf3
 4417 0658 01       		.uleb128 0x1
 4418 0659 51       		.byte	0x51
 4419 065a 00       		.byte	0
 4420 065b 00       		.byte	0
 4421 065c 18       		.uleb128 0x18
 4422 065d AD010000 		.4byte	.LASF41
 4423 0661 01       		.byte	0x1
 4424 0662 A601     		.2byte	0x1a6
 4425 0664 68000000 		.4byte	0x68
 4426 0668 00000000 		.4byte	.LFB12
 4427 066c 42000000 		.4byte	.LFE12-.LFB12
 4428 0670 01       		.uleb128 0x1
 4429 0671 9C       		.byte	0x9c
 4430 0672 5B070000 		.4byte	0x75b
 4431 0676 17       		.uleb128 0x17
 4432 0677 4D030000 		.4byte	.LASF31
 4433 067b 01       		.byte	0x1
 4434 067c A601     		.2byte	0x1a6
 4435 067e 59030000 		.4byte	0x359
 4436 0682 690B0000 		.4byte	.LLST39
 4437 0686 17       		.uleb128 0x17
 4438 0687 71040000 		.4byte	.LASF32
 4439 068b 01       		.byte	0x1
 4440 068c A701     		.2byte	0x1a7
 4441 068e 76000000 		.4byte	0x76
 4442 0692 950B0000 		.4byte	.LLST40
 4443 0696 17       		.uleb128 0x17
 4444 0697 22020000 		.4byte	.LASF37
 4445 069b 01       		.byte	0x1
 4446 069c A801     		.2byte	0x1a8
 4447 069e 12010000 		.4byte	0x112
 4448 06a2 C10B0000 		.4byte	.LLST41
 4449 06a6 17       		.uleb128 0x17
 4450 06a7 0E000000 		.4byte	.LASF16
 4451 06ab 01       		.byte	0x1
 4452 06ac A901     		.2byte	0x1a9
 4453 06ae 68000000 		.4byte	0x68
 4454 06b2 ED0B0000 		.4byte	.LLST42
 4455 06b6 19       		.uleb128 0x19
 4456 06b7 72657400 		.ascii	"ret\000"
 4457 06bb 01       		.byte	0x1
 4458 06bc AB01     		.2byte	0x1ab
 4459 06be 68000000 		.4byte	0x68
 4460 06c2 190C0000 		.4byte	.LLST43
 4461 06c6 1C       		.uleb128 0x1c
 4462 06c7 63747800 		.ascii	"ctx\000"
 4463 06cb 01       		.byte	0x1
 4464 06cc AC01     		.2byte	0x1ac
ARM GAS  C:\Users\Phuong\AppData\Local\Temp\ccCGJz1B.s 			page 91


 4465 06ce 07010000 		.4byte	0x107
 4466 06d2 03       		.uleb128 0x3
 4467 06d3 91       		.byte	0x91
 4468 06d4 907E     		.sleb128 -240
 4469 06d6 1D       		.uleb128 0x1d
 4470 06d7 48030000 		.4byte	.LASF47
 4471 06db 01       		.byte	0x1
 4472 06dc B901     		.2byte	0x1b9
 4473 06de 36000000 		.4byte	.L47
 4474 06e2 1B       		.uleb128 0x1b
 4475 06e3 12000000 		.4byte	.LVL170
 4476 06e7 1F010000 		.4byte	0x11f
 4477 06eb F6060000 		.4byte	0x6f6
 4478 06ef 0D       		.uleb128 0xd
 4479 06f0 01       		.uleb128 0x1
 4480 06f1 50       		.byte	0x50
 4481 06f2 02       		.uleb128 0x2
 4482 06f3 7D       		.byte	0x7d
 4483 06f4 00       		.sleb128 0
 4484 06f5 00       		.byte	0
 4485 06f6 1B       		.uleb128 0x1b
 4486 06f7 1A000000 		.4byte	.LVL171
 4487 06fb FF010000 		.4byte	0x1ff
 4488 06ff 10070000 		.4byte	0x710
 4489 0703 0D       		.uleb128 0xd
 4490 0704 01       		.uleb128 0x1
 4491 0705 50       		.byte	0x50
 4492 0706 02       		.uleb128 0x2
 4493 0707 7D       		.byte	0x7d
 4494 0708 00       		.sleb128 0
 4495 0709 0D       		.uleb128 0xd
 4496 070a 01       		.uleb128 0x1
 4497 070b 51       		.byte	0x51
 4498 070c 02       		.uleb128 0x2
 4499 070d 74       		.byte	0x74
 4500 070e 00       		.sleb128 0
 4501 070f 00       		.byte	0
 4502 0710 1B       		.uleb128 0x1b
 4503 0711 28000000 		.4byte	.LVL174
 4504 0715 C3030000 		.4byte	0x3c3
 4505 0719 30070000 		.4byte	0x730
 4506 071d 0D       		.uleb128 0xd
 4507 071e 01       		.uleb128 0x1
 4508 071f 50       		.byte	0x50
 4509 0720 02       		.uleb128 0x2
 4510 0721 7D       		.byte	0x7d
 4511 0722 00       		.sleb128 0
 4512 0723 0D       		.uleb128 0xd
 4513 0724 01       		.uleb128 0x1
 4514 0725 51       		.byte	0x51
 4515 0726 02       		.uleb128 0x2
 4516 0727 75       		.byte	0x75
 4517 0728 00       		.sleb128 0
 4518 0729 0D       		.uleb128 0xd
 4519 072a 01       		.uleb128 0x1
 4520 072b 52       		.byte	0x52
 4521 072c 02       		.uleb128 0x2
ARM GAS  C:\Users\Phuong\AppData\Local\Temp\ccCGJz1B.s 			page 92


 4522 072d 76       		.byte	0x76
 4523 072e 00       		.sleb128 0
 4524 072f 00       		.byte	0
 4525 0730 1B       		.uleb128 0x1b
 4526 0731 34000000 		.4byte	.LVL177
 4527 0735 1C050000 		.4byte	0x51c
 4528 0739 4A070000 		.4byte	0x74a
 4529 073d 0D       		.uleb128 0xd
 4530 073e 01       		.uleb128 0x1
 4531 073f 50       		.byte	0x50
 4532 0740 02       		.uleb128 0x2
 4533 0741 7D       		.byte	0x7d
 4534 0742 00       		.sleb128 0
 4535 0743 0D       		.uleb128 0xd
 4536 0744 01       		.uleb128 0x1
 4537 0745 51       		.byte	0x51
 4538 0746 02       		.uleb128 0x2
 4539 0747 77       		.byte	0x77
 4540 0748 00       		.sleb128 0
 4541 0749 00       		.byte	0
 4542 074a 0C       		.uleb128 0xc
 4543 074b 3C000000 		.4byte	.LVL180
 4544 074f 66010000 		.4byte	0x166
 4545 0753 0D       		.uleb128 0xd
 4546 0754 01       		.uleb128 0x1
 4547 0755 50       		.byte	0x50
 4548 0756 02       		.uleb128 0x2
 4549 0757 7D       		.byte	0x7d
 4550 0758 00       		.sleb128 0
 4551 0759 00       		.byte	0
 4552 075a 00       		.byte	0
 4553 075b 15       		.uleb128 0x15
 4554 075c 53030000 		.4byte	.LASF42
 4555 0760 01       		.byte	0x1
 4556 0761 C001     		.2byte	0x1c0
 4557 0763 00000000 		.4byte	.LFB13
 4558 0767 08000000 		.4byte	.LFE13-.LFB13
 4559 076b 01       		.uleb128 0x1
 4560 076c 9C       		.byte	0x9c
 4561 076d D8070000 		.4byte	0x7d8
 4562 0771 17       		.uleb128 0x17
 4563 0772 4D030000 		.4byte	.LASF31
 4564 0776 01       		.byte	0x1
 4565 0777 C001     		.2byte	0x1c0
 4566 0779 59030000 		.4byte	0x359
 4567 077d 6E0C0000 		.4byte	.LLST44
 4568 0781 17       		.uleb128 0x17
 4569 0782 71040000 		.4byte	.LASF32
 4570 0786 01       		.byte	0x1
 4571 0787 C101     		.2byte	0x1c1
 4572 0789 76000000 		.4byte	0x76
 4573 078d 8F0C0000 		.4byte	.LLST45
 4574 0791 17       		.uleb128 0x17
 4575 0792 22020000 		.4byte	.LASF37
 4576 0796 01       		.byte	0x1
 4577 0797 C201     		.2byte	0x1c2
 4578 0799 12010000 		.4byte	0x112
ARM GAS  C:\Users\Phuong\AppData\Local\Temp\ccCGJz1B.s 			page 93


 4579 079d B00C0000 		.4byte	.LLST46
 4580 07a1 17       		.uleb128 0x17
 4581 07a2 0E000000 		.4byte	.LASF16
 4582 07a6 01       		.byte	0x1
 4583 07a7 C301     		.2byte	0x1c3
 4584 07a9 68000000 		.4byte	0x68
 4585 07ad D10C0000 		.4byte	.LLST47
 4586 07b1 0C       		.uleb128 0xc
 4587 07b2 06000000 		.4byte	.LVL186
 4588 07b6 5C060000 		.4byte	0x65c
 4589 07ba 0D       		.uleb128 0xd
 4590 07bb 01       		.uleb128 0x1
 4591 07bc 50       		.byte	0x50
 4592 07bd 03       		.uleb128 0x3
 4593 07be F3       		.byte	0xf3
 4594 07bf 01       		.uleb128 0x1
 4595 07c0 50       		.byte	0x50
 4596 07c1 0D       		.uleb128 0xd
 4597 07c2 01       		.uleb128 0x1
 4598 07c3 51       		.byte	0x51
 4599 07c4 03       		.uleb128 0x3
 4600 07c5 F3       		.byte	0xf3
 4601 07c6 01       		.uleb128 0x1
 4602 07c7 51       		.byte	0x51
 4603 07c8 0D       		.uleb128 0xd
 4604 07c9 01       		.uleb128 0x1
 4605 07ca 52       		.byte	0x52
 4606 07cb 03       		.uleb128 0x3
 4607 07cc F3       		.byte	0xf3
 4608 07cd 01       		.uleb128 0x1
 4609 07ce 52       		.byte	0x52
 4610 07cf 0D       		.uleb128 0xd
 4611 07d0 01       		.uleb128 0x1
 4612 07d1 53       		.byte	0x53
 4613 07d2 03       		.uleb128 0x3
 4614 07d3 F3       		.byte	0xf3
 4615 07d4 01       		.uleb128 0x1
 4616 07d5 53       		.byte	0x53
 4617 07d6 00       		.byte	0
 4618 07d7 00       		.byte	0
 4619 07d8 1E       		.uleb128 0x1e
 4620 07d9 C0010000 		.4byte	.LASF43
 4621 07dd 01       		.byte	0x1
 4622 07de 1302     		.2byte	0x213
 4623 07e0 68000000 		.4byte	0x68
 4624 07e4 00000000 		.4byte	.LFB14
 4625 07e8 44010000 		.4byte	.LFE14-.LFB14
 4626 07ec 01       		.uleb128 0x1
 4627 07ed 9C       		.byte	0x9c
 4628 07ee 320A0000 		.4byte	0xa32
 4629 07f2 17       		.uleb128 0x17
 4630 07f3 17040000 		.4byte	.LASF44
 4631 07f7 01       		.byte	0x1
 4632 07f8 1302     		.2byte	0x213
 4633 07fa 68000000 		.4byte	0x68
 4634 07fe F20C0000 		.4byte	.LLST48
 4635 0802 19       		.uleb128 0x19
ARM GAS  C:\Users\Phuong\AppData\Local\Temp\ccCGJz1B.s 			page 94


 4636 0803 6900     		.ascii	"i\000"
 4637 0805 01       		.byte	0x1
 4638 0806 1502     		.2byte	0x215
 4639 0808 68000000 		.4byte	0x68
 4640 080c 8C0D0000 		.4byte	.LLST49
 4641 0810 19       		.uleb128 0x19
 4642 0811 6A00     		.ascii	"j\000"
 4643 0813 01       		.byte	0x1
 4644 0814 1502     		.2byte	0x215
 4645 0816 68000000 		.4byte	0x68
 4646 081a AB0D0000 		.4byte	.LLST50
 4647 081e 19       		.uleb128 0x19
 4648 081f 6B00     		.ascii	"k\000"
 4649 0821 01       		.byte	0x1
 4650 0822 1502     		.2byte	0x215
 4651 0824 68000000 		.4byte	0x68
 4652 0828 E00D0000 		.4byte	.LLST51
 4653 082c 1A       		.uleb128 0x1a
 4654 082d 41030000 		.4byte	.LASF45
 4655 0831 01       		.byte	0x1
 4656 0832 1502     		.2byte	0x215
 4657 0834 68000000 		.4byte	0x68
 4658 0838 FE0D0000 		.4byte	.LLST52
 4659 083c 19       		.uleb128 0x19
 4660 083d 72657400 		.ascii	"ret\000"
 4661 0841 01       		.byte	0x1
 4662 0842 1502     		.2byte	0x215
 4663 0844 68000000 		.4byte	0x68
 4664 0848 140E0000 		.4byte	.LLST53
 4665 084c 19       		.uleb128 0x19
 4666 084d 62756600 		.ascii	"buf\000"
 4667 0851 01       		.byte	0x1
 4668 0852 1602     		.2byte	0x216
 4669 0854 12010000 		.4byte	0x112
 4670 0858 AD0E0000 		.4byte	.LLST54
 4671 085c 1F       		.uleb128 0x1f
 4672 085d D0000000 		.4byte	.LASF46
 4673 0861 01       		.byte	0x1
 4674 0862 1702     		.2byte	0x217
 4675 0864 320A0000 		.4byte	0xa32
 4676 0868 03       		.uleb128 0x3
 4677 0869 91       		.byte	0x91
 4678 086a A87F     		.sleb128 -88
 4679 086c 1C       		.uleb128 0x1c
 4680 086d 63747800 		.ascii	"ctx\000"
 4681 0871 01       		.byte	0x1
 4682 0872 1802     		.2byte	0x218
 4683 0874 07010000 		.4byte	0x107
 4684 0878 03       		.uleb128 0x3
 4685 0879 91       		.byte	0x91
 4686 087a D07D     		.sleb128 -304
 4687 087c 1D       		.uleb128 0x1d
 4688 087d 62030000 		.4byte	.LASF48
 4689 0881 01       		.byte	0x1
 4690 0882 5502     		.2byte	0x255
 4691 0884 00010000 		.4byte	.L54
 4692 0888 1D       		.uleb128 0x1d
ARM GAS  C:\Users\Phuong\AppData\Local\Temp\ccCGJz1B.s 			page 95


 4693 0889 48030000 		.4byte	.LASF47
 4694 088d 01       		.byte	0x1
 4695 088e 5902     		.2byte	0x259
 4696 0890 0C010000 		.4byte	.L61
 4697 0894 1B       		.uleb128 0x1b
 4698 0895 14000000 		.4byte	.LVL190
 4699 0899 0E0B0000 		.4byte	0xb0e
 4700 089d AE080000 		.4byte	0x8ae
 4701 08a1 0D       		.uleb128 0xd
 4702 08a2 01       		.uleb128 0x1
 4703 08a3 50       		.byte	0x50
 4704 08a4 03       		.uleb128 0x3
 4705 08a5 0A       		.byte	0xa
 4706 08a6 0004     		.2byte	0x400
 4707 08a8 0D       		.uleb128 0xd
 4708 08a9 01       		.uleb128 0x1
 4709 08aa 51       		.byte	0x51
 4710 08ab 01       		.uleb128 0x1
 4711 08ac 31       		.byte	0x31
 4712 08ad 00       		.byte	0
 4713 08ae 1B       		.uleb128 0x1b
 4714 08af 28000000 		.4byte	.LVL193
 4715 08b3 190B0000 		.4byte	0xb19
 4716 08b7 C5080000 		.4byte	0x8c5
 4717 08bb 0D       		.uleb128 0xd
 4718 08bc 01       		.uleb128 0x1
 4719 08bd 50       		.byte	0x50
 4720 08be 05       		.uleb128 0x5
 4721 08bf 03       		.byte	0x3
 4722 08c0 00000000 		.4byte	.LC1
 4723 08c4 00       		.byte	0
 4724 08c5 1B       		.uleb128 0x1b
 4725 08c6 32000000 		.4byte	.LVL196
 4726 08ca 1F010000 		.4byte	0x11f
 4727 08ce DA080000 		.4byte	0x8da
 4728 08d2 0D       		.uleb128 0xd
 4729 08d3 01       		.uleb128 0x1
 4730 08d4 50       		.byte	0x50
 4731 08d5 03       		.uleb128 0x3
 4732 08d6 91       		.byte	0x91
 4733 08d7 D07D     		.sleb128 -304
 4734 08d9 00       		.byte	0
 4735 08da 1B       		.uleb128 0x1b
 4736 08db 62000000 		.4byte	.LVL203
 4737 08df 280B0000 		.4byte	0xb28
 4738 08e3 01090000 		.4byte	0x901
 4739 08e7 0D       		.uleb128 0xd
 4740 08e8 01       		.uleb128 0x1
 4741 08e9 50       		.byte	0x50
 4742 08ea 05       		.uleb128 0x5
 4743 08eb 03       		.byte	0x3
 4744 08ec 1C000000 		.4byte	.LC3
 4745 08f0 0D       		.uleb128 0xd
 4746 08f1 01       		.uleb128 0x1
 4747 08f2 51       		.byte	0x51
 4748 08f3 06       		.uleb128 0x6
 4749 08f4 34       		.byte	0x34
ARM GAS  C:\Users\Phuong\AppData\Local\Temp\ccCGJz1B.s 			page 96


 4750 08f5 77       		.byte	0x77
 4751 08f6 00       		.sleb128 0
 4752 08f7 1C       		.byte	0x1c
 4753 08f8 37       		.byte	0x37
 4754 08f9 24       		.byte	0x24
 4755 08fa 0D       		.uleb128 0xd
 4756 08fb 01       		.uleb128 0x1
 4757 08fc 52       		.byte	0x52
 4758 08fd 02       		.uleb128 0x2
 4759 08fe 75       		.byte	0x75
 4760 08ff 01       		.sleb128 1
 4761 0900 00       		.byte	0
 4762 0901 1B       		.uleb128 0x1b
 4763 0902 6A000000 		.4byte	.LVL204
 4764 0906 FF010000 		.4byte	0x1ff
 4765 090a 1C090000 		.4byte	0x91c
 4766 090e 0D       		.uleb128 0xd
 4767 090f 01       		.uleb128 0x1
 4768 0910 50       		.byte	0x50
 4769 0911 03       		.uleb128 0x3
 4770 0912 91       		.byte	0x91
 4771 0913 D07D     		.sleb128 -304
 4772 0915 0D       		.uleb128 0xd
 4773 0916 01       		.uleb128 0x1
 4774 0917 51       		.byte	0x51
 4775 0918 02       		.uleb128 0x2
 4776 0919 77       		.byte	0x77
 4777 091a 00       		.sleb128 0
 4778 091b 00       		.byte	0
 4779 091c 1B       		.uleb128 0x1b
 4780 091d 7E000000 		.4byte	.LVL208
 4781 0921 330B0000 		.4byte	0xb33
 4782 0925 3F090000 		.4byte	0x93f
 4783 0929 0D       		.uleb128 0xd
 4784 092a 01       		.uleb128 0x1
 4785 092b 50       		.byte	0x50
 4786 092c 04       		.uleb128 0x4
 4787 092d 91       		.byte	0x91
 4788 092e CC7D     		.sleb128 -308
 4789 0930 06       		.byte	0x6
 4790 0931 0D       		.uleb128 0xd
 4791 0932 01       		.uleb128 0x1
 4792 0933 51       		.byte	0x51
 4793 0934 02       		.uleb128 0x2
 4794 0935 08       		.byte	0x8
 4795 0936 61       		.byte	0x61
 4796 0937 0D       		.uleb128 0xd
 4797 0938 01       		.uleb128 0x1
 4798 0939 52       		.byte	0x52
 4799 093a 03       		.uleb128 0x3
 4800 093b 0A       		.byte	0xa
 4801 093c E803     		.2byte	0x3e8
 4802 093e 00       		.byte	0
 4803 093f 1B       		.uleb128 0x1b
 4804 0940 8E000000 		.4byte	.LVL210
 4805 0944 C3030000 		.4byte	0x3c3
 4806 0948 63090000 		.4byte	0x963
ARM GAS  C:\Users\Phuong\AppData\Local\Temp\ccCGJz1B.s 			page 97


 4807 094c 0D       		.uleb128 0xd
 4808 094d 01       		.uleb128 0x1
 4809 094e 50       		.byte	0x50
 4810 094f 03       		.uleb128 0x3
 4811 0950 91       		.byte	0x91
 4812 0951 D07D     		.sleb128 -304
 4813 0953 0D       		.uleb128 0xd
 4814 0954 01       		.uleb128 0x1
 4815 0955 51       		.byte	0x51
 4816 0956 04       		.uleb128 0x4
 4817 0957 91       		.byte	0x91
 4818 0958 CC7D     		.sleb128 -308
 4819 095a 06       		.byte	0x6
 4820 095b 0D       		.uleb128 0xd
 4821 095c 01       		.uleb128 0x1
 4822 095d 52       		.byte	0x52
 4823 095e 03       		.uleb128 0x3
 4824 095f 0A       		.byte	0xa
 4825 0960 E803     		.2byte	0x3e8
 4826 0962 00       		.byte	0
 4827 0963 1B       		.uleb128 0x1b
 4828 0964 B6000000 		.4byte	.LVL216
 4829 0968 C3030000 		.4byte	0x3c3
 4830 096c 80090000 		.4byte	0x980
 4831 0970 0D       		.uleb128 0xd
 4832 0971 01       		.uleb128 0x1
 4833 0972 50       		.byte	0x50
 4834 0973 03       		.uleb128 0x3
 4835 0974 91       		.byte	0x91
 4836 0975 D07D     		.sleb128 -304
 4837 0977 0D       		.uleb128 0xd
 4838 0978 01       		.uleb128 0x1
 4839 0979 52       		.byte	0x52
 4840 097a 04       		.uleb128 0x4
 4841 097b 75       		.byte	0x75
 4842 097c D400     		.sleb128 84
 4843 097e 06       		.byte	0x6
 4844 097f 00       		.byte	0
 4845 0980 1B       		.uleb128 0x1b
 4846 0981 C2000000 		.4byte	.LVL219
 4847 0985 1C050000 		.4byte	0x51c
 4848 0989 9C090000 		.4byte	0x99c
 4849 098d 0D       		.uleb128 0xd
 4850 098e 01       		.uleb128 0x1
 4851 098f 50       		.byte	0x50
 4852 0990 03       		.uleb128 0x3
 4853 0991 91       		.byte	0x91
 4854 0992 D07D     		.sleb128 -304
 4855 0994 0D       		.uleb128 0xd
 4856 0995 01       		.uleb128 0x1
 4857 0996 51       		.byte	0x51
 4858 0997 03       		.uleb128 0x3
 4859 0998 91       		.byte	0x91
 4860 0999 A87F     		.sleb128 -88
 4861 099b 00       		.byte	0
 4862 099c 1B       		.uleb128 0x1b
 4863 099d DA000000 		.4byte	.LVL222
ARM GAS  C:\Users\Phuong\AppData\Local\Temp\ccCGJz1B.s 			page 98


 4864 09a1 3E0B0000 		.4byte	0xb3e
 4865 09a5 C9090000 		.4byte	0x9c9
 4866 09a9 0D       		.uleb128 0xd
 4867 09aa 01       		.uleb128 0x1
 4868 09ab 50       		.byte	0x50
 4869 09ac 03       		.uleb128 0x3
 4870 09ad 91       		.byte	0x91
 4871 09ae A87F     		.sleb128 -88
 4872 09b0 0D       		.uleb128 0xd
 4873 09b1 01       		.uleb128 0x1
 4874 09b2 51       		.byte	0x51
 4875 09b3 0A       		.uleb128 0xa
 4876 09b4 76       		.byte	0x76
 4877 09b5 00       		.sleb128 0
 4878 09b6 36       		.byte	0x36
 4879 09b7 24       		.byte	0x24
 4880 09b8 03       		.byte	0x3
 4881 09b9 E0030000 		.4byte	.LANCHOR2+96
 4882 09bd 22       		.byte	0x22
 4883 09be 0D       		.uleb128 0xd
 4884 09bf 01       		.uleb128 0x1
 4885 09c0 52       		.byte	0x52
 4886 09c1 06       		.uleb128 0x6
 4887 09c2 34       		.byte	0x34
 4888 09c3 77       		.byte	0x77
 4889 09c4 00       		.sleb128 0
 4890 09c5 1C       		.byte	0x1c
 4891 09c6 34       		.byte	0x34
 4892 09c7 24       		.byte	0x24
 4893 09c8 00       		.byte	0
 4894 09c9 1B       		.uleb128 0x1b
 4895 09ca EA000000 		.4byte	.LVL224
 4896 09ce 190B0000 		.4byte	0xb19
 4897 09d2 E0090000 		.4byte	0x9e0
 4898 09d6 0D       		.uleb128 0xd
 4899 09d7 01       		.uleb128 0x1
 4900 09d8 50       		.byte	0x50
 4901 09d9 05       		.uleb128 0x5
 4902 09da 03       		.byte	0x3
 4903 09db 30000000 		.4byte	.LC7
 4904 09df 00       		.byte	0
 4905 09e0 1B       		.uleb128 0x1b
 4906 09e1 FC000000 		.4byte	.LVL227
 4907 09e5 490B0000 		.4byte	0xb49
 4908 09e9 F3090000 		.4byte	0x9f3
 4909 09ed 0D       		.uleb128 0xd
 4910 09ee 01       		.uleb128 0x1
 4911 09ef 50       		.byte	0x50
 4912 09f0 01       		.uleb128 0x1
 4913 09f1 3A       		.byte	0x3a
 4914 09f2 00       		.byte	0
 4915 09f3 1B       		.uleb128 0x1b
 4916 09f4 0C010000 		.4byte	.LVL231
 4917 09f8 190B0000 		.4byte	0xb19
 4918 09fc 0A0A0000 		.4byte	0xa0a
 4919 0a00 0D       		.uleb128 0xd
 4920 0a01 01       		.uleb128 0x1
ARM GAS  C:\Users\Phuong\AppData\Local\Temp\ccCGJz1B.s 			page 99


 4921 0a02 50       		.byte	0x50
 4922 0a03 05       		.uleb128 0x5
 4923 0a04 03       		.byte	0x3
 4924 0a05 38000000 		.4byte	.LC9
 4925 0a09 00       		.byte	0
 4926 0a0a 1B       		.uleb128 0x1b
 4927 0a0b 12010000 		.4byte	.LVL232
 4928 0a0f 66010000 		.4byte	0x166
 4929 0a13 1F0A0000 		.4byte	0xa1f
 4930 0a17 0D       		.uleb128 0xd
 4931 0a18 01       		.uleb128 0x1
 4932 0a19 50       		.byte	0x50
 4933 0a1a 03       		.uleb128 0x3
 4934 0a1b 91       		.byte	0x91
 4935 0a1c D07D     		.sleb128 -304
 4936 0a1e 00       		.byte	0
 4937 0a1f 0C       		.uleb128 0xc
 4938 0a20 18010000 		.4byte	.LVL233
 4939 0a24 580B0000 		.4byte	0xb58
 4940 0a28 0D       		.uleb128 0xd
 4941 0a29 01       		.uleb128 0x1
 4942 0a2a 50       		.byte	0x50
 4943 0a2b 04       		.uleb128 0x4
 4944 0a2c 91       		.byte	0x91
 4945 0a2d CC7D     		.sleb128 -308
 4946 0a2f 06       		.byte	0x6
 4947 0a30 00       		.byte	0
 4948 0a31 00       		.byte	0
 4949 0a32 07       		.uleb128 0x7
 4950 0a33 33000000 		.4byte	0x33
 4951 0a37 420A0000 		.4byte	0xa42
 4952 0a3b 08       		.uleb128 0x8
 4953 0a3c E0000000 		.4byte	0xe0
 4954 0a40 3F       		.byte	0x3f
 4955 0a41 00       		.byte	0
 4956 0a42 07       		.uleb128 0x7
 4957 0a43 520A0000 		.4byte	0xa52
 4958 0a47 520A0000 		.4byte	0xa52
 4959 0a4b 08       		.uleb128 0x8
 4960 0a4c E0000000 		.4byte	0xe0
 4961 0a50 4F       		.byte	0x4f
 4962 0a51 00       		.byte	0
 4963 0a52 0E       		.uleb128 0xe
 4964 0a53 88000000 		.4byte	0x88
 4965 0a57 14       		.uleb128 0x14
 4966 0a58 4B00     		.ascii	"K\000"
 4967 0a5a 01       		.byte	0x1
 4968 0a5b A1       		.byte	0xa1
 4969 0a5c 660A0000 		.4byte	0xa66
 4970 0a60 05       		.uleb128 0x5
 4971 0a61 03       		.byte	0x3
 4972 0a62 00000000 		.4byte	K
 4973 0a66 0E       		.uleb128 0xe
 4974 0a67 420A0000 		.4byte	0xa42
 4975 0a6b 07       		.uleb128 0x7
 4976 0a6c 5F030000 		.4byte	0x35f
 4977 0a70 810A0000 		.4byte	0xa81
ARM GAS  C:\Users\Phuong\AppData\Local\Temp\ccCGJz1B.s 			page 100


 4978 0a74 08       		.uleb128 0x8
 4979 0a75 E0000000 		.4byte	0xe0
 4980 0a79 02       		.byte	0x2
 4981 0a7a 08       		.uleb128 0x8
 4982 0a7b E0000000 		.4byte	0xe0
 4983 0a7f 70       		.byte	0x70
 4984 0a80 00       		.byte	0
 4985 0a81 1F       		.uleb128 0x1f
 4986 0a82 FD000000 		.4byte	.LASF49
 4987 0a86 01       		.byte	0x1
 4988 0a87 CE01     		.2byte	0x1ce
 4989 0a89 930A0000 		.4byte	0xa93
 4990 0a8d 05       		.uleb128 0x5
 4991 0a8e 03       		.byte	0x3
 4992 0a8f 80020000 		.4byte	sha512_test_buf
 4993 0a93 0E       		.uleb128 0xe
 4994 0a94 6B0A0000 		.4byte	0xa6b
 4995 0a98 07       		.uleb128 0x7
 4996 0a99 A80A0000 		.4byte	0xaa8
 4997 0a9d A80A0000 		.4byte	0xaa8
 4998 0aa1 08       		.uleb128 0x8
 4999 0aa2 E0000000 		.4byte	0xe0
 5000 0aa6 02       		.byte	0x2
 5001 0aa7 00       		.byte	0
 5002 0aa8 0E       		.uleb128 0xe
 5003 0aa9 76000000 		.4byte	0x76
 5004 0aad 1F       		.uleb128 0x1f
 5005 0aae EA000000 		.4byte	.LASF50
 5006 0ab2 01       		.byte	0x1
 5007 0ab3 D601     		.2byte	0x1d6
 5008 0ab5 BF0A0000 		.4byte	0xabf
 5009 0ab9 05       		.uleb128 0x5
 5010 0aba 03       		.byte	0x3
 5011 0abb D4030000 		.4byte	sha512_test_buflen
 5012 0abf 0E       		.uleb128 0xe
 5013 0ac0 980A0000 		.4byte	0xa98
 5014 0ac4 07       		.uleb128 0x7
 5015 0ac5 5F030000 		.4byte	0x35f
 5016 0ac9 DA0A0000 		.4byte	0xada
 5017 0acd 08       		.uleb128 0x8
 5018 0ace E0000000 		.4byte	0xe0
 5019 0ad2 05       		.byte	0x5
 5020 0ad3 08       		.uleb128 0x8
 5021 0ad4 E0000000 		.4byte	0xe0
 5022 0ad8 3F       		.byte	0x3f
 5023 0ad9 00       		.byte	0
 5024 0ada 1F       		.uleb128 0x1f
 5025 0adb DA000000 		.4byte	.LASF51
 5026 0adf 01       		.byte	0x1
 5027 0ae0 DB01     		.2byte	0x1db
 5028 0ae2 EC0A0000 		.4byte	0xaec
 5029 0ae6 05       		.uleb128 0x5
 5030 0ae7 03       		.byte	0x3
 5031 0ae8 E0030000 		.4byte	sha512_test_sum
 5032 0aec 0E       		.uleb128 0xe
 5033 0aed C40A0000 		.4byte	0xac4
 5034 0af1 20       		.uleb128 0x20
ARM GAS  C:\Users\Phuong\AppData\Local\Temp\ccCGJz1B.s 			page 101


 5035 0af2 63040000 		.4byte	.LASF52
 5036 0af6 63040000 		.4byte	.LASF52
 5037 0afa 21       		.uleb128 0x21
 5038 0afb FE030000 		.4byte	.LASF54
 5039 0aff FE030000 		.4byte	.LASF54
 5040 0b03 06       		.byte	0x6
 5041 0b04 42       		.byte	0x42
 5042 0b05 20       		.uleb128 0x20
 5043 0b06 C1000000 		.4byte	.LASF53
 5044 0b0a C1000000 		.4byte	.LASF53
 5045 0b0e 21       		.uleb128 0x21
 5046 0b0f 6A040000 		.4byte	.LASF55
 5047 0b13 6A040000 		.4byte	.LASF55
 5048 0b17 07       		.byte	0x7
 5049 0b18 56       		.byte	0x56
 5050 0b19 22       		.uleb128 0x22
 5051 0b1a 76040000 		.4byte	.LASF58
 5052 0b1e B2000000 		.4byte	.LASF60
 5053 0b22 0A       		.byte	0xa
 5054 0b23 00       		.byte	0
 5055 0b24 76040000 		.4byte	.LASF58
 5056 0b28 21       		.uleb128 0x21
 5057 0b29 00000000 		.4byte	.LASF56
 5058 0b2d 00000000 		.4byte	.LASF56
 5059 0b31 08       		.byte	0x8
 5060 0b32 BB       		.byte	0xbb
 5061 0b33 21       		.uleb128 0x21
 5062 0b34 63040000 		.4byte	.LASF52
 5063 0b38 63040000 		.4byte	.LASF52
 5064 0b3c 09       		.byte	0x9
 5065 0b3d 19       		.byte	0x19
 5066 0b3e 21       		.uleb128 0x21
 5067 0b3f 2B040000 		.4byte	.LASF57
 5068 0b43 2B040000 		.4byte	.LASF57
 5069 0b47 09       		.byte	0x9
 5070 0b48 16       		.byte	0x16
 5071 0b49 22       		.uleb128 0x22
 5072 0b4a C8000000 		.4byte	.LASF59
 5073 0b4e 6F010000 		.4byte	.LASF61
 5074 0b52 0A       		.byte	0xa
 5075 0b53 00       		.byte	0
 5076 0b54 C8000000 		.4byte	.LASF59
 5077 0b58 21       		.uleb128 0x21
 5078 0b59 4A000000 		.4byte	.LASF62
 5079 0b5d 4A000000 		.4byte	.LASF62
 5080 0b61 07       		.byte	0x7
 5081 0b62 59       		.byte	0x59
 5082 0b63 00       		.byte	0
 5083              		.section	.debug_abbrev,"",%progbits
 5084              	.Ldebug_abbrev0:
 5085 0000 01       		.uleb128 0x1
 5086 0001 11       		.uleb128 0x11
 5087 0002 01       		.byte	0x1
 5088 0003 25       		.uleb128 0x25
 5089 0004 0E       		.uleb128 0xe
 5090 0005 13       		.uleb128 0x13
 5091 0006 0B       		.uleb128 0xb
ARM GAS  C:\Users\Phuong\AppData\Local\Temp\ccCGJz1B.s 			page 102


 5092 0007 03       		.uleb128 0x3
 5093 0008 0E       		.uleb128 0xe
 5094 0009 1B       		.uleb128 0x1b
 5095 000a 0E       		.uleb128 0xe
 5096 000b 55       		.uleb128 0x55
 5097 000c 17       		.uleb128 0x17
 5098 000d 11       		.uleb128 0x11
 5099 000e 01       		.uleb128 0x1
 5100 000f 10       		.uleb128 0x10
 5101 0010 17       		.uleb128 0x17
 5102 0011 00       		.byte	0
 5103 0012 00       		.byte	0
 5104 0013 02       		.uleb128 0x2
 5105 0014 24       		.uleb128 0x24
 5106 0015 00       		.byte	0
 5107 0016 0B       		.uleb128 0xb
 5108 0017 0B       		.uleb128 0xb
 5109 0018 3E       		.uleb128 0x3e
 5110 0019 0B       		.uleb128 0xb
 5111 001a 03       		.uleb128 0x3
 5112 001b 0E       		.uleb128 0xe
 5113 001c 00       		.byte	0
 5114 001d 00       		.byte	0
 5115 001e 03       		.uleb128 0x3
 5116 001f 16       		.uleb128 0x16
 5117 0020 00       		.byte	0
 5118 0021 03       		.uleb128 0x3
 5119 0022 0E       		.uleb128 0xe
 5120 0023 3A       		.uleb128 0x3a
 5121 0024 0B       		.uleb128 0xb
 5122 0025 3B       		.uleb128 0x3b
 5123 0026 0B       		.uleb128 0xb
 5124 0027 49       		.uleb128 0x49
 5125 0028 13       		.uleb128 0x13
 5126 0029 00       		.byte	0
 5127 002a 00       		.byte	0
 5128 002b 04       		.uleb128 0x4
 5129 002c 24       		.uleb128 0x24
 5130 002d 00       		.byte	0
 5131 002e 0B       		.uleb128 0xb
 5132 002f 0B       		.uleb128 0xb
 5133 0030 3E       		.uleb128 0x3e
 5134 0031 0B       		.uleb128 0xb
 5135 0032 03       		.uleb128 0x3
 5136 0033 08       		.uleb128 0x8
 5137 0034 00       		.byte	0
 5138 0035 00       		.byte	0
 5139 0036 05       		.uleb128 0x5
 5140 0037 13       		.uleb128 0x13
 5141 0038 01       		.byte	0x1
 5142 0039 03       		.uleb128 0x3
 5143 003a 0E       		.uleb128 0xe
 5144 003b 0B       		.uleb128 0xb
 5145 003c 0B       		.uleb128 0xb
 5146 003d 3A       		.uleb128 0x3a
 5147 003e 0B       		.uleb128 0xb
 5148 003f 3B       		.uleb128 0x3b
ARM GAS  C:\Users\Phuong\AppData\Local\Temp\ccCGJz1B.s 			page 103


 5149 0040 0B       		.uleb128 0xb
 5150 0041 01       		.uleb128 0x1
 5151 0042 13       		.uleb128 0x13
 5152 0043 00       		.byte	0
 5153 0044 00       		.byte	0
 5154 0045 06       		.uleb128 0x6
 5155 0046 0D       		.uleb128 0xd
 5156 0047 00       		.byte	0
 5157 0048 03       		.uleb128 0x3
 5158 0049 0E       		.uleb128 0xe
 5159 004a 3A       		.uleb128 0x3a
 5160 004b 0B       		.uleb128 0xb
 5161 004c 3B       		.uleb128 0x3b
 5162 004d 0B       		.uleb128 0xb
 5163 004e 49       		.uleb128 0x49
 5164 004f 13       		.uleb128 0x13
 5165 0050 38       		.uleb128 0x38
 5166 0051 0B       		.uleb128 0xb
 5167 0052 00       		.byte	0
 5168 0053 00       		.byte	0
 5169 0054 07       		.uleb128 0x7
 5170 0055 01       		.uleb128 0x1
 5171 0056 01       		.byte	0x1
 5172 0057 49       		.uleb128 0x49
 5173 0058 13       		.uleb128 0x13
 5174 0059 01       		.uleb128 0x1
 5175 005a 13       		.uleb128 0x13
 5176 005b 00       		.byte	0
 5177 005c 00       		.byte	0
 5178 005d 08       		.uleb128 0x8
 5179 005e 21       		.uleb128 0x21
 5180 005f 00       		.byte	0
 5181 0060 49       		.uleb128 0x49
 5182 0061 13       		.uleb128 0x13
 5183 0062 2F       		.uleb128 0x2f
 5184 0063 0B       		.uleb128 0xb
 5185 0064 00       		.byte	0
 5186 0065 00       		.byte	0
 5187 0066 09       		.uleb128 0x9
 5188 0067 0F       		.uleb128 0xf
 5189 0068 00       		.byte	0
 5190 0069 0B       		.uleb128 0xb
 5191 006a 0B       		.uleb128 0xb
 5192 006b 49       		.uleb128 0x49
 5193 006c 13       		.uleb128 0x13
 5194 006d 00       		.byte	0
 5195 006e 00       		.byte	0
 5196 006f 0A       		.uleb128 0xa
 5197 0070 2E       		.uleb128 0x2e
 5198 0071 01       		.byte	0x1
 5199 0072 3F       		.uleb128 0x3f
 5200 0073 19       		.uleb128 0x19
 5201 0074 03       		.uleb128 0x3
 5202 0075 0E       		.uleb128 0xe
 5203 0076 3A       		.uleb128 0x3a
 5204 0077 0B       		.uleb128 0xb
 5205 0078 3B       		.uleb128 0x3b
ARM GAS  C:\Users\Phuong\AppData\Local\Temp\ccCGJz1B.s 			page 104


 5206 0079 0B       		.uleb128 0xb
 5207 007a 27       		.uleb128 0x27
 5208 007b 19       		.uleb128 0x19
 5209 007c 11       		.uleb128 0x11
 5210 007d 01       		.uleb128 0x1
 5211 007e 12       		.uleb128 0x12
 5212 007f 06       		.uleb128 0x6
 5213 0080 40       		.uleb128 0x40
 5214 0081 18       		.uleb128 0x18
 5215 0082 9742     		.uleb128 0x2117
 5216 0084 19       		.uleb128 0x19
 5217 0085 01       		.uleb128 0x1
 5218 0086 13       		.uleb128 0x13
 5219 0087 00       		.byte	0
 5220 0088 00       		.byte	0
 5221 0089 0B       		.uleb128 0xb
 5222 008a 05       		.uleb128 0x5
 5223 008b 00       		.byte	0
 5224 008c 03       		.uleb128 0x3
 5225 008d 08       		.uleb128 0x8
 5226 008e 3A       		.uleb128 0x3a
 5227 008f 0B       		.uleb128 0xb
 5228 0090 3B       		.uleb128 0x3b
 5229 0091 0B       		.uleb128 0xb
 5230 0092 49       		.uleb128 0x49
 5231 0093 13       		.uleb128 0x13
 5232 0094 02       		.uleb128 0x2
 5233 0095 17       		.uleb128 0x17
 5234 0096 00       		.byte	0
 5235 0097 00       		.byte	0
 5236 0098 0C       		.uleb128 0xc
 5237 0099 898201   		.uleb128 0x4109
 5238 009c 01       		.byte	0x1
 5239 009d 11       		.uleb128 0x11
 5240 009e 01       		.uleb128 0x1
 5241 009f 31       		.uleb128 0x31
 5242 00a0 13       		.uleb128 0x13
 5243 00a1 00       		.byte	0
 5244 00a2 00       		.byte	0
 5245 00a3 0D       		.uleb128 0xd
 5246 00a4 8A8201   		.uleb128 0x410a
 5247 00a7 00       		.byte	0
 5248 00a8 02       		.uleb128 0x2
 5249 00a9 18       		.uleb128 0x18
 5250 00aa 9142     		.uleb128 0x2111
 5251 00ac 18       		.uleb128 0x18
 5252 00ad 00       		.byte	0
 5253 00ae 00       		.byte	0
 5254 00af 0E       		.uleb128 0xe
 5255 00b0 26       		.uleb128 0x26
 5256 00b1 00       		.byte	0
 5257 00b2 49       		.uleb128 0x49
 5258 00b3 13       		.uleb128 0x13
 5259 00b4 00       		.byte	0
 5260 00b5 00       		.byte	0
 5261 00b6 0F       		.uleb128 0xf
 5262 00b7 2E       		.uleb128 0x2e
ARM GAS  C:\Users\Phuong\AppData\Local\Temp\ccCGJz1B.s 			page 105


 5263 00b8 01       		.byte	0x1
 5264 00b9 3F       		.uleb128 0x3f
 5265 00ba 19       		.uleb128 0x19
 5266 00bb 03       		.uleb128 0x3
 5267 00bc 0E       		.uleb128 0xe
 5268 00bd 3A       		.uleb128 0x3a
 5269 00be 0B       		.uleb128 0xb
 5270 00bf 3B       		.uleb128 0x3b
 5271 00c0 0B       		.uleb128 0xb
 5272 00c1 27       		.uleb128 0x27
 5273 00c2 19       		.uleb128 0x19
 5274 00c3 49       		.uleb128 0x49
 5275 00c4 13       		.uleb128 0x13
 5276 00c5 11       		.uleb128 0x11
 5277 00c6 01       		.uleb128 0x1
 5278 00c7 12       		.uleb128 0x12
 5279 00c8 06       		.uleb128 0x6
 5280 00c9 40       		.uleb128 0x40
 5281 00ca 18       		.uleb128 0x18
 5282 00cb 9742     		.uleb128 0x2117
 5283 00cd 19       		.uleb128 0x19
 5284 00ce 01       		.uleb128 0x1
 5285 00cf 13       		.uleb128 0x13
 5286 00d0 00       		.byte	0
 5287 00d1 00       		.byte	0
 5288 00d2 10       		.uleb128 0x10
 5289 00d3 05       		.uleb128 0x5
 5290 00d4 00       		.byte	0
 5291 00d5 03       		.uleb128 0x3
 5292 00d6 0E       		.uleb128 0xe
 5293 00d7 3A       		.uleb128 0x3a
 5294 00d8 0B       		.uleb128 0xb
 5295 00d9 3B       		.uleb128 0x3b
 5296 00da 0B       		.uleb128 0xb
 5297 00db 49       		.uleb128 0x49
 5298 00dc 13       		.uleb128 0x13
 5299 00dd 02       		.uleb128 0x2
 5300 00de 18       		.uleb128 0x18
 5301 00df 00       		.byte	0
 5302 00e0 00       		.byte	0
 5303 00e1 11       		.uleb128 0x11
 5304 00e2 05       		.uleb128 0x5
 5305 00e3 00       		.byte	0
 5306 00e4 03       		.uleb128 0x3
 5307 00e5 0E       		.uleb128 0xe
 5308 00e6 3A       		.uleb128 0x3a
 5309 00e7 0B       		.uleb128 0xb
 5310 00e8 3B       		.uleb128 0x3b
 5311 00e9 0B       		.uleb128 0xb
 5312 00ea 49       		.uleb128 0x49
 5313 00eb 13       		.uleb128 0x13
 5314 00ec 02       		.uleb128 0x2
 5315 00ed 17       		.uleb128 0x17
 5316 00ee 00       		.byte	0
 5317 00ef 00       		.byte	0
 5318 00f0 12       		.uleb128 0x12
 5319 00f1 34       		.uleb128 0x34
ARM GAS  C:\Users\Phuong\AppData\Local\Temp\ccCGJz1B.s 			page 106


 5320 00f2 00       		.byte	0
 5321 00f3 03       		.uleb128 0x3
 5322 00f4 08       		.uleb128 0x8
 5323 00f5 3A       		.uleb128 0x3a
 5324 00f6 0B       		.uleb128 0xb
 5325 00f7 3B       		.uleb128 0x3b
 5326 00f8 0B       		.uleb128 0xb
 5327 00f9 49       		.uleb128 0x49
 5328 00fa 13       		.uleb128 0x13
 5329 00fb 02       		.uleb128 0x2
 5330 00fc 17       		.uleb128 0x17
 5331 00fd 00       		.byte	0
 5332 00fe 00       		.byte	0
 5333 00ff 13       		.uleb128 0x13
 5334 0100 34       		.uleb128 0x34
 5335 0101 00       		.byte	0
 5336 0102 03       		.uleb128 0x3
 5337 0103 0E       		.uleb128 0xe
 5338 0104 3A       		.uleb128 0x3a
 5339 0105 0B       		.uleb128 0xb
 5340 0106 3B       		.uleb128 0x3b
 5341 0107 0B       		.uleb128 0xb
 5342 0108 49       		.uleb128 0x49
 5343 0109 13       		.uleb128 0x13
 5344 010a 02       		.uleb128 0x2
 5345 010b 17       		.uleb128 0x17
 5346 010c 00       		.byte	0
 5347 010d 00       		.byte	0
 5348 010e 14       		.uleb128 0x14
 5349 010f 34       		.uleb128 0x34
 5350 0110 00       		.byte	0
 5351 0111 03       		.uleb128 0x3
 5352 0112 08       		.uleb128 0x8
 5353 0113 3A       		.uleb128 0x3a
 5354 0114 0B       		.uleb128 0xb
 5355 0115 3B       		.uleb128 0x3b
 5356 0116 0B       		.uleb128 0xb
 5357 0117 49       		.uleb128 0x49
 5358 0118 13       		.uleb128 0x13
 5359 0119 02       		.uleb128 0x2
 5360 011a 18       		.uleb128 0x18
 5361 011b 00       		.byte	0
 5362 011c 00       		.byte	0
 5363 011d 15       		.uleb128 0x15
 5364 011e 2E       		.uleb128 0x2e
 5365 011f 01       		.byte	0x1
 5366 0120 3F       		.uleb128 0x3f
 5367 0121 19       		.uleb128 0x19
 5368 0122 03       		.uleb128 0x3
 5369 0123 0E       		.uleb128 0xe
 5370 0124 3A       		.uleb128 0x3a
 5371 0125 0B       		.uleb128 0xb
 5372 0126 3B       		.uleb128 0x3b
 5373 0127 05       		.uleb128 0x5
 5374 0128 27       		.uleb128 0x27
 5375 0129 19       		.uleb128 0x19
 5376 012a 11       		.uleb128 0x11
ARM GAS  C:\Users\Phuong\AppData\Local\Temp\ccCGJz1B.s 			page 107


 5377 012b 01       		.uleb128 0x1
 5378 012c 12       		.uleb128 0x12
 5379 012d 06       		.uleb128 0x6
 5380 012e 40       		.uleb128 0x40
 5381 012f 18       		.uleb128 0x18
 5382 0130 9742     		.uleb128 0x2117
 5383 0132 19       		.uleb128 0x19
 5384 0133 01       		.uleb128 0x1
 5385 0134 13       		.uleb128 0x13
 5386 0135 00       		.byte	0
 5387 0136 00       		.byte	0
 5388 0137 16       		.uleb128 0x16
 5389 0138 05       		.uleb128 0x5
 5390 0139 00       		.byte	0
 5391 013a 03       		.uleb128 0x3
 5392 013b 08       		.uleb128 0x8
 5393 013c 3A       		.uleb128 0x3a
 5394 013d 0B       		.uleb128 0xb
 5395 013e 3B       		.uleb128 0x3b
 5396 013f 05       		.uleb128 0x5
 5397 0140 49       		.uleb128 0x49
 5398 0141 13       		.uleb128 0x13
 5399 0142 02       		.uleb128 0x2
 5400 0143 17       		.uleb128 0x17
 5401 0144 00       		.byte	0
 5402 0145 00       		.byte	0
 5403 0146 17       		.uleb128 0x17
 5404 0147 05       		.uleb128 0x5
 5405 0148 00       		.byte	0
 5406 0149 03       		.uleb128 0x3
 5407 014a 0E       		.uleb128 0xe
 5408 014b 3A       		.uleb128 0x3a
 5409 014c 0B       		.uleb128 0xb
 5410 014d 3B       		.uleb128 0x3b
 5411 014e 05       		.uleb128 0x5
 5412 014f 49       		.uleb128 0x49
 5413 0150 13       		.uleb128 0x13
 5414 0151 02       		.uleb128 0x2
 5415 0152 17       		.uleb128 0x17
 5416 0153 00       		.byte	0
 5417 0154 00       		.byte	0
 5418 0155 18       		.uleb128 0x18
 5419 0156 2E       		.uleb128 0x2e
 5420 0157 01       		.byte	0x1
 5421 0158 3F       		.uleb128 0x3f
 5422 0159 19       		.uleb128 0x19
 5423 015a 03       		.uleb128 0x3
 5424 015b 0E       		.uleb128 0xe
 5425 015c 3A       		.uleb128 0x3a
 5426 015d 0B       		.uleb128 0xb
 5427 015e 3B       		.uleb128 0x3b
 5428 015f 05       		.uleb128 0x5
 5429 0160 27       		.uleb128 0x27
 5430 0161 19       		.uleb128 0x19
 5431 0162 49       		.uleb128 0x49
 5432 0163 13       		.uleb128 0x13
 5433 0164 11       		.uleb128 0x11
ARM GAS  C:\Users\Phuong\AppData\Local\Temp\ccCGJz1B.s 			page 108


 5434 0165 01       		.uleb128 0x1
 5435 0166 12       		.uleb128 0x12
 5436 0167 06       		.uleb128 0x6
 5437 0168 40       		.uleb128 0x40
 5438 0169 18       		.uleb128 0x18
 5439 016a 9742     		.uleb128 0x2117
 5440 016c 19       		.uleb128 0x19
 5441 016d 01       		.uleb128 0x1
 5442 016e 13       		.uleb128 0x13
 5443 016f 00       		.byte	0
 5444 0170 00       		.byte	0
 5445 0171 19       		.uleb128 0x19
 5446 0172 34       		.uleb128 0x34
 5447 0173 00       		.byte	0
 5448 0174 03       		.uleb128 0x3
 5449 0175 08       		.uleb128 0x8
 5450 0176 3A       		.uleb128 0x3a
 5451 0177 0B       		.uleb128 0xb
 5452 0178 3B       		.uleb128 0x3b
 5453 0179 05       		.uleb128 0x5
 5454 017a 49       		.uleb128 0x49
 5455 017b 13       		.uleb128 0x13
 5456 017c 02       		.uleb128 0x2
 5457 017d 17       		.uleb128 0x17
 5458 017e 00       		.byte	0
 5459 017f 00       		.byte	0
 5460 0180 1A       		.uleb128 0x1a
 5461 0181 34       		.uleb128 0x34
 5462 0182 00       		.byte	0
 5463 0183 03       		.uleb128 0x3
 5464 0184 0E       		.uleb128 0xe
 5465 0185 3A       		.uleb128 0x3a
 5466 0186 0B       		.uleb128 0xb
 5467 0187 3B       		.uleb128 0x3b
 5468 0188 05       		.uleb128 0x5
 5469 0189 49       		.uleb128 0x49
 5470 018a 13       		.uleb128 0x13
 5471 018b 02       		.uleb128 0x2
 5472 018c 17       		.uleb128 0x17
 5473 018d 00       		.byte	0
 5474 018e 00       		.byte	0
 5475 018f 1B       		.uleb128 0x1b
 5476 0190 898201   		.uleb128 0x4109
 5477 0193 01       		.byte	0x1
 5478 0194 11       		.uleb128 0x11
 5479 0195 01       		.uleb128 0x1
 5480 0196 31       		.uleb128 0x31
 5481 0197 13       		.uleb128 0x13
 5482 0198 01       		.uleb128 0x1
 5483 0199 13       		.uleb128 0x13
 5484 019a 00       		.byte	0
 5485 019b 00       		.byte	0
 5486 019c 1C       		.uleb128 0x1c
 5487 019d 34       		.uleb128 0x34
 5488 019e 00       		.byte	0
 5489 019f 03       		.uleb128 0x3
 5490 01a0 08       		.uleb128 0x8
ARM GAS  C:\Users\Phuong\AppData\Local\Temp\ccCGJz1B.s 			page 109


 5491 01a1 3A       		.uleb128 0x3a
 5492 01a2 0B       		.uleb128 0xb
 5493 01a3 3B       		.uleb128 0x3b
 5494 01a4 05       		.uleb128 0x5
 5495 01a5 49       		.uleb128 0x49
 5496 01a6 13       		.uleb128 0x13
 5497 01a7 02       		.uleb128 0x2
 5498 01a8 18       		.uleb128 0x18
 5499 01a9 00       		.byte	0
 5500 01aa 00       		.byte	0
 5501 01ab 1D       		.uleb128 0x1d
 5502 01ac 0A       		.uleb128 0xa
 5503 01ad 00       		.byte	0
 5504 01ae 03       		.uleb128 0x3
 5505 01af 0E       		.uleb128 0xe
 5506 01b0 3A       		.uleb128 0x3a
 5507 01b1 0B       		.uleb128 0xb
 5508 01b2 3B       		.uleb128 0x3b
 5509 01b3 05       		.uleb128 0x5
 5510 01b4 11       		.uleb128 0x11
 5511 01b5 01       		.uleb128 0x1
 5512 01b6 00       		.byte	0
 5513 01b7 00       		.byte	0
 5514 01b8 1E       		.uleb128 0x1e
 5515 01b9 2E       		.uleb128 0x2e
 5516 01ba 01       		.byte	0x1
 5517 01bb 3F       		.uleb128 0x3f
 5518 01bc 19       		.uleb128 0x19
 5519 01bd 03       		.uleb128 0x3
 5520 01be 0E       		.uleb128 0xe
 5521 01bf 3A       		.uleb128 0x3a
 5522 01c0 0B       		.uleb128 0xb
 5523 01c1 3B       		.uleb128 0x3b
 5524 01c2 05       		.uleb128 0x5
 5525 01c3 27       		.uleb128 0x27
 5526 01c4 19       		.uleb128 0x19
 5527 01c5 49       		.uleb128 0x49
 5528 01c6 13       		.uleb128 0x13
 5529 01c7 11       		.uleb128 0x11
 5530 01c8 01       		.uleb128 0x1
 5531 01c9 12       		.uleb128 0x12
 5532 01ca 06       		.uleb128 0x6
 5533 01cb 40       		.uleb128 0x40
 5534 01cc 18       		.uleb128 0x18
 5535 01cd 9642     		.uleb128 0x2116
 5536 01cf 19       		.uleb128 0x19
 5537 01d0 01       		.uleb128 0x1
 5538 01d1 13       		.uleb128 0x13
 5539 01d2 00       		.byte	0
 5540 01d3 00       		.byte	0
 5541 01d4 1F       		.uleb128 0x1f
 5542 01d5 34       		.uleb128 0x34
 5543 01d6 00       		.byte	0
 5544 01d7 03       		.uleb128 0x3
 5545 01d8 0E       		.uleb128 0xe
 5546 01d9 3A       		.uleb128 0x3a
 5547 01da 0B       		.uleb128 0xb
ARM GAS  C:\Users\Phuong\AppData\Local\Temp\ccCGJz1B.s 			page 110


 5548 01db 3B       		.uleb128 0x3b
 5549 01dc 05       		.uleb128 0x5
 5550 01dd 49       		.uleb128 0x49
 5551 01de 13       		.uleb128 0x13
 5552 01df 02       		.uleb128 0x2
 5553 01e0 18       		.uleb128 0x18
 5554 01e1 00       		.byte	0
 5555 01e2 00       		.byte	0
 5556 01e3 20       		.uleb128 0x20
 5557 01e4 2E       		.uleb128 0x2e
 5558 01e5 00       		.byte	0
 5559 01e6 3F       		.uleb128 0x3f
 5560 01e7 19       		.uleb128 0x19
 5561 01e8 3C       		.uleb128 0x3c
 5562 01e9 19       		.uleb128 0x19
 5563 01ea 6E       		.uleb128 0x6e
 5564 01eb 0E       		.uleb128 0xe
 5565 01ec 03       		.uleb128 0x3
 5566 01ed 0E       		.uleb128 0xe
 5567 01ee 00       		.byte	0
 5568 01ef 00       		.byte	0
 5569 01f0 21       		.uleb128 0x21
 5570 01f1 2E       		.uleb128 0x2e
 5571 01f2 00       		.byte	0
 5572 01f3 3F       		.uleb128 0x3f
 5573 01f4 19       		.uleb128 0x19
 5574 01f5 3C       		.uleb128 0x3c
 5575 01f6 19       		.uleb128 0x19
 5576 01f7 6E       		.uleb128 0x6e
 5577 01f8 0E       		.uleb128 0xe
 5578 01f9 03       		.uleb128 0x3
 5579 01fa 0E       		.uleb128 0xe
 5580 01fb 3A       		.uleb128 0x3a
 5581 01fc 0B       		.uleb128 0xb
 5582 01fd 3B       		.uleb128 0x3b
 5583 01fe 0B       		.uleb128 0xb
 5584 01ff 00       		.byte	0
 5585 0200 00       		.byte	0
 5586 0201 22       		.uleb128 0x22
 5587 0202 2E       		.uleb128 0x2e
 5588 0203 00       		.byte	0
 5589 0204 3F       		.uleb128 0x3f
 5590 0205 19       		.uleb128 0x19
 5591 0206 3C       		.uleb128 0x3c
 5592 0207 19       		.uleb128 0x19
 5593 0208 6E       		.uleb128 0x6e
 5594 0209 0E       		.uleb128 0xe
 5595 020a 03       		.uleb128 0x3
 5596 020b 0E       		.uleb128 0xe
 5597 020c 3A       		.uleb128 0x3a
 5598 020d 0B       		.uleb128 0xb
 5599 020e 3B       		.uleb128 0x3b
 5600 020f 0B       		.uleb128 0xb
 5601 0210 6E       		.uleb128 0x6e
 5602 0211 0E       		.uleb128 0xe
 5603 0212 00       		.byte	0
 5604 0213 00       		.byte	0
ARM GAS  C:\Users\Phuong\AppData\Local\Temp\ccCGJz1B.s 			page 111


 5605 0214 00       		.byte	0
 5606              		.section	.debug_loc,"",%progbits
 5607              	.Ldebug_loc0:
 5608              	.LLST0:
 5609 0000 00000000 		.4byte	.LVL0
 5610 0004 09000000 		.4byte	.LVL1-1
 5611 0008 0100     		.2byte	0x1
 5612 000a 50       		.byte	0x50
 5613 000b 09000000 		.4byte	.LVL1-1
 5614 000f 0C000000 		.4byte	.LFE1
 5615 0013 0400     		.2byte	0x4
 5616 0015 F3       		.byte	0xf3
 5617 0016 01       		.uleb128 0x1
 5618 0017 50       		.byte	0x50
 5619 0018 9F       		.byte	0x9f
 5620 0019 00000000 		.4byte	0
 5621 001d 00000000 		.4byte	0
 5622              	.LLST1:
 5623 0021 00000000 		.4byte	.LVL2
 5624 0025 0B000000 		.4byte	.LVL3-1
 5625 0029 0100     		.2byte	0x1
 5626 002b 50       		.byte	0x50
 5627 002c 0B000000 		.4byte	.LVL3-1
 5628 0030 0E000000 		.4byte	.LFE2
 5629 0034 0400     		.2byte	0x4
 5630 0036 F3       		.byte	0xf3
 5631 0037 01       		.uleb128 0x1
 5632 0038 50       		.byte	0x50
 5633 0039 9F       		.byte	0x9f
 5634 003a 00000000 		.4byte	0
 5635 003e 00000000 		.4byte	0
 5636              	.LLST2:
 5637 0042 00000000 		.4byte	.LVL4
 5638 0046 07000000 		.4byte	.LVL5-1
 5639 004a 0100     		.2byte	0x1
 5640 004c 50       		.byte	0x50
 5641 004d 07000000 		.4byte	.LVL5-1
 5642 0051 0A000000 		.4byte	.LFE3
 5643 0055 0400     		.2byte	0x4
 5644 0057 F3       		.byte	0xf3
 5645 0058 01       		.uleb128 0x1
 5646 0059 50       		.byte	0x50
 5647 005a 9F       		.byte	0x9f
 5648 005b 00000000 		.4byte	0
 5649 005f 00000000 		.4byte	0
 5650              	.LLST3:
 5651 0063 00000000 		.4byte	.LVL4
 5652 0067 07000000 		.4byte	.LVL5-1
 5653 006b 0100     		.2byte	0x1
 5654 006d 51       		.byte	0x51
 5655 006e 07000000 		.4byte	.LVL5-1
 5656 0072 0A000000 		.4byte	.LFE3
 5657 0076 0400     		.2byte	0x4
 5658 0078 F3       		.byte	0xf3
 5659 0079 01       		.uleb128 0x1
 5660 007a 51       		.byte	0x51
 5661 007b 9F       		.byte	0x9f
ARM GAS  C:\Users\Phuong\AppData\Local\Temp\ccCGJz1B.s 			page 112


 5662 007c 00000000 		.4byte	0
 5663 0080 00000000 		.4byte	0
 5664              	.LLST4:
 5665 0084 00000000 		.4byte	.LVL6
 5666 0088 98000000 		.4byte	.LVL7
 5667 008c 0100     		.2byte	0x1
 5668 008e 50       		.byte	0x50
 5669 008f 98000000 		.4byte	.LVL7
 5670 0093 1C010000 		.4byte	.LFE4
 5671 0097 0400     		.2byte	0x4
 5672 0099 F3       		.byte	0xf3
 5673 009a 01       		.uleb128 0x1
 5674 009b 50       		.byte	0x50
 5675 009c 9F       		.byte	0x9f
 5676 009d 00000000 		.4byte	0
 5677 00a1 00000000 		.4byte	0
 5678              	.LLST5:
 5679 00a5 00000000 		.4byte	.LVL8
 5680 00a9 05000000 		.4byte	.LVL9-1
 5681 00ad 0100     		.2byte	0x1
 5682 00af 50       		.byte	0x50
 5683 00b0 05000000 		.4byte	.LVL9-1
 5684 00b4 08000000 		.4byte	.LFE5
 5685 00b8 0400     		.2byte	0x4
 5686 00ba F3       		.byte	0xf3
 5687 00bb 01       		.uleb128 0x1
 5688 00bc 50       		.byte	0x50
 5689 00bd 9F       		.byte	0x9f
 5690 00be 00000000 		.4byte	0
 5691 00c2 00000000 		.4byte	0
 5692              	.LLST6:
 5693 00c6 00000000 		.4byte	.LVL8
 5694 00ca 05000000 		.4byte	.LVL9-1
 5695 00ce 0100     		.2byte	0x1
 5696 00d0 51       		.byte	0x51
 5697 00d1 05000000 		.4byte	.LVL9-1
 5698 00d5 08000000 		.4byte	.LFE5
 5699 00d9 0400     		.2byte	0x4
 5700 00db F3       		.byte	0xf3
 5701 00dc 01       		.uleb128 0x1
 5702 00dd 51       		.byte	0x51
 5703 00de 9F       		.byte	0x9f
 5704 00df 00000000 		.4byte	0
 5705 00e3 00000000 		.4byte	0
 5706              	.LLST7:
 5707 00e7 00000000 		.4byte	.LVL10
 5708 00eb 18000000 		.4byte	.LVL12
 5709 00ef 0100     		.2byte	0x1
 5710 00f1 50       		.byte	0x50
 5711 00f2 18000000 		.4byte	.LVL12
 5712 00f6 540C0000 		.4byte	.LFE6
 5713 00fa 0300     		.2byte	0x3
 5714 00fc 91       		.byte	0x91
 5715 00fd BC7A     		.sleb128 -708
 5716 00ff 00000000 		.4byte	0
 5717 0103 00000000 		.4byte	0
 5718              	.LLST8:
ARM GAS  C:\Users\Phuong\AppData\Local\Temp\ccCGJz1B.s 			page 113


 5719 0107 00000000 		.4byte	.LVL10
 5720 010b 18000000 		.4byte	.LVL12
 5721 010f 0100     		.2byte	0x1
 5722 0111 51       		.byte	0x51
 5723 0112 18000000 		.4byte	.LVL12
 5724 0116 5C000000 		.4byte	.LVL14
 5725 011a 0100     		.2byte	0x1
 5726 011c 55       		.byte	0x55
 5727 011d 5C000000 		.4byte	.LVL14
 5728 0121 540C0000 		.4byte	.LFE6
 5729 0125 0400     		.2byte	0x4
 5730 0127 F3       		.byte	0xf3
 5731 0128 01       		.uleb128 0x1
 5732 0129 51       		.byte	0x51
 5733 012a 9F       		.byte	0x9f
 5734 012b 00000000 		.4byte	0
 5735 012f 00000000 		.4byte	0
 5736              	.LLST9:
 5737 0133 14000000 		.4byte	.LVL11
 5738 0137 18000000 		.4byte	.LVL12
 5739 013b 0200     		.2byte	0x2
 5740 013d 30       		.byte	0x30
 5741 013e 9F       		.byte	0x9f
 5742 013f 18000000 		.4byte	.LVL12
 5743 0143 5E010000 		.4byte	.LVL21
 5744 0147 0100     		.2byte	0x1
 5745 0149 54       		.byte	0x54
 5746 014a 7E010000 		.4byte	.LVL27
 5747 014e BA010000 		.4byte	.LVL31
 5748 0152 0200     		.2byte	0x2
 5749 0154 30       		.byte	0x30
 5750 0155 9F       		.byte	0x9f
 5751 0156 BA010000 		.4byte	.LVL31
 5752 015a F4020000 		.4byte	.LVL37
 5753 015e 0100     		.2byte	0x1
 5754 0160 5A       		.byte	0x5a
 5755 0161 F4020000 		.4byte	.LVL37
 5756 0165 6E030000 		.4byte	.LVL41
 5757 0169 0100     		.2byte	0x1
 5758 016b 54       		.byte	0x54
 5759 016c 6E030000 		.4byte	.LVL41
 5760 0170 28040000 		.4byte	.LVL49
 5761 0174 0300     		.2byte	0x3
 5762 0176 7A       		.byte	0x7a
 5763 0177 01       		.sleb128 1
 5764 0178 9F       		.byte	0x9f
 5765 0179 28040000 		.4byte	.LVL49
 5766 017d CE040000 		.4byte	.LVL50
 5767 0181 0100     		.2byte	0x1
 5768 0183 54       		.byte	0x54
 5769 0184 CE040000 		.4byte	.LVL50
 5770 0188 84050000 		.4byte	.LVL57
 5771 018c 0300     		.2byte	0x3
 5772 018e 7A       		.byte	0x7a
 5773 018f 02       		.sleb128 2
 5774 0190 9F       		.byte	0x9f
 5775 0191 84050000 		.4byte	.LVL57
ARM GAS  C:\Users\Phuong\AppData\Local\Temp\ccCGJz1B.s 			page 114


 5776 0195 22060000 		.4byte	.LVL60
 5777 0199 0100     		.2byte	0x1
 5778 019b 54       		.byte	0x54
 5779 019c 22060000 		.4byte	.LVL60
 5780 01a0 EA060000 		.4byte	.LVL66
 5781 01a4 0300     		.2byte	0x3
 5782 01a6 7A       		.byte	0x7a
 5783 01a7 03       		.sleb128 3
 5784 01a8 9F       		.byte	0x9f
 5785 01a9 EA060000 		.4byte	.LVL66
 5786 01ad F0060000 		.4byte	.LVL69
 5787 01b1 0100     		.2byte	0x1
 5788 01b3 53       		.byte	0x53
 5789 01b4 F0060000 		.4byte	.LVL69
 5790 01b8 32080000 		.4byte	.LVL79
 5791 01bc 0100     		.2byte	0x1
 5792 01be 59       		.byte	0x59
 5793 01bf 32080000 		.4byte	.LVL79
 5794 01c3 B4080000 		.4byte	.LVL83
 5795 01c7 0100     		.2byte	0x1
 5796 01c9 53       		.byte	0x53
 5797 01ca B4080000 		.4byte	.LVL83
 5798 01ce 5C090000 		.4byte	.LVL89
 5799 01d2 0300     		.2byte	0x3
 5800 01d4 7A       		.byte	0x7a
 5801 01d5 05       		.sleb128 5
 5802 01d6 9F       		.byte	0x9f
 5803 01d7 5C090000 		.4byte	.LVL89
 5804 01db D8090000 		.4byte	.LVL94
 5805 01df 0100     		.2byte	0x1
 5806 01e1 51       		.byte	0x51
 5807 01e2 D8090000 		.4byte	.LVL94
 5808 01e6 860A0000 		.4byte	.LVL100
 5809 01ea 0300     		.2byte	0x3
 5810 01ec 7A       		.byte	0x7a
 5811 01ed 06       		.sleb128 6
 5812 01ee 9F       		.byte	0x9f
 5813 01ef 860A0000 		.4byte	.LVL100
 5814 01f3 040B0000 		.4byte	.LVL103
 5815 01f7 0100     		.2byte	0x1
 5816 01f9 51       		.byte	0x51
 5817 01fa 040B0000 		.4byte	.LVL103
 5818 01fe AA0B0000 		.4byte	.LVL110
 5819 0202 0300     		.2byte	0x3
 5820 0204 7A       		.byte	0x7a
 5821 0205 07       		.sleb128 7
 5822 0206 9F       		.byte	0x9f
 5823 0207 AA0B0000 		.4byte	.LVL110
 5824 020b 420C0000 		.4byte	.LVL115
 5825 020f 0100     		.2byte	0x1
 5826 0211 5A       		.byte	0x5a
 5827 0212 00000000 		.4byte	0
 5828 0216 00000000 		.4byte	0
 5829              	.LLST10:
 5830 021a 54020000 		.4byte	.LVL32
 5831 021e 92020000 		.4byte	.LVL33
 5832 0222 0600     		.2byte	0x6
ARM GAS  C:\Users\Phuong\AppData\Local\Temp\ccCGJz1B.s 			page 115


 5833 0224 50       		.byte	0x50
 5834 0225 93       		.byte	0x93
 5835 0226 04       		.uleb128 0x4
 5836 0227 51       		.byte	0x51
 5837 0228 93       		.byte	0x93
 5838 0229 04       		.uleb128 0x4
 5839 022a 92020000 		.4byte	.LVL33
 5840 022e F0020000 		.4byte	.LVL36
 5841 0232 0300     		.2byte	0x3
 5842 0234 91       		.byte	0x91
 5843 0235 E077     		.sleb128 -1056
 5844 0237 88030000 		.4byte	.LVL42
 5845 023b 8C030000 		.4byte	.LVL43
 5846 023f 0600     		.2byte	0x6
 5847 0241 50       		.byte	0x50
 5848 0242 93       		.byte	0x93
 5849 0243 04       		.uleb128 0x4
 5850 0244 51       		.byte	0x51
 5851 0245 93       		.byte	0x93
 5852 0246 04       		.uleb128 0x4
 5853 0247 8C030000 		.4byte	.LVL43
 5854 024b 18040000 		.4byte	.LVL45
 5855 024f 0300     		.2byte	0x3
 5856 0251 91       		.byte	0x91
 5857 0252 C877     		.sleb128 -1080
 5858 0254 18040000 		.4byte	.LVL45
 5859 0258 1C040000 		.4byte	.LVL46
 5860 025c 0600     		.2byte	0x6
 5861 025e 51       		.byte	0x51
 5862 025f 93       		.byte	0x93
 5863 0260 04       		.uleb128 0x4
 5864 0261 52       		.byte	0x52
 5865 0262 93       		.byte	0x93
 5866 0263 04       		.uleb128 0x4
 5867 0264 E2040000 		.4byte	.LVL51
 5868 0268 7C050000 		.4byte	.LVL55
 5869 026c 0600     		.2byte	0x6
 5870 026e 50       		.byte	0x50
 5871 026f 93       		.byte	0x93
 5872 0270 04       		.uleb128 0x4
 5873 0271 51       		.byte	0x51
 5874 0272 93       		.byte	0x93
 5875 0273 04       		.uleb128 0x4
 5876 0274 7C050000 		.4byte	.LVL55
 5877 0278 80050000 		.4byte	.LVL56
 5878 027c 2F00     		.2byte	0x2f
 5879 027e 91       		.byte	0x91
 5880 027f D877     		.sleb128 -1064
 5881 0281 F6       		.byte	0xf6
 5882 0282 08       		.byte	0x8
 5883 0283 25       		.uleb128 0x25
 5884 0284 7A       		.byte	0x7a
 5885 0285 02       		.sleb128 2
 5886 0286 33       		.byte	0x33
 5887 0287 24       		.byte	0x24
 5888 0288 91       		.byte	0x91
 5889 0289 00       		.sleb128 0
ARM GAS  C:\Users\Phuong\AppData\Local\Temp\ccCGJz1B.s 			page 116


 5890 028a 22       		.byte	0x22
 5891 028b 0A       		.byte	0xa
 5892 028c A802     		.2byte	0x2a8
 5893 028e 1C       		.byte	0x1c
 5894 028f F6       		.byte	0xf6
 5895 0290 08       		.byte	0x8
 5896 0291 25       		.uleb128 0x25
 5897 0292 22       		.byte	0x22
 5898 0293 91       		.byte	0x91
 5899 0294 D878     		.sleb128 -936
 5900 0296 F6       		.byte	0xf6
 5901 0297 08       		.byte	0x8
 5902 0298 25       		.uleb128 0x25
 5903 0299 22       		.byte	0x22
 5904 029a 91       		.byte	0x91
 5905 029b D078     		.sleb128 -944
 5906 029d F6       		.byte	0xf6
 5907 029e 08       		.byte	0x8
 5908 029f 25       		.uleb128 0x25
 5909 02a0 22       		.byte	0x22
 5910 02a1 7A       		.byte	0x7a
 5911 02a2 02       		.sleb128 2
 5912 02a3 33       		.byte	0x33
 5913 02a4 24       		.byte	0x24
 5914 02a5 7B       		.byte	0x7b
 5915 02a6 00       		.sleb128 0
 5916 02a7 22       		.byte	0x22
 5917 02a8 F6       		.byte	0xf6
 5918 02a9 08       		.byte	0x8
 5919 02aa 25       		.uleb128 0x25
 5920 02ab 22       		.byte	0x22
 5921 02ac 9F       		.byte	0x9f
 5922 02ad 36060000 		.4byte	.LVL61
 5923 02b1 EE060000 		.4byte	.LVL68
 5924 02b5 0600     		.2byte	0x6
 5925 02b7 50       		.byte	0x50
 5926 02b8 93       		.byte	0x93
 5927 02b9 04       		.uleb128 0x4
 5928 02ba 51       		.byte	0x51
 5929 02bb 93       		.byte	0x93
 5930 02bc 04       		.uleb128 0x4
 5931 02bd EE060000 		.4byte	.LVL68
 5932 02c1 8A070000 		.4byte	.LVL71
 5933 02c5 2800     		.2byte	0x28
 5934 02c7 91       		.byte	0x91
 5935 02c8 F877     		.sleb128 -1032
 5936 02ca F6       		.byte	0xf6
 5937 02cb 08       		.byte	0x8
 5938 02cc 25       		.uleb128 0x25
 5939 02cd 7A       		.byte	0x7a
 5940 02ce 03       		.sleb128 3
 5941 02cf 33       		.byte	0x33
 5942 02d0 24       		.byte	0x24
 5943 02d1 91       		.byte	0x91
 5944 02d2 00       		.sleb128 0
 5945 02d3 22       		.byte	0x22
 5946 02d4 0A       		.byte	0xa
ARM GAS  C:\Users\Phuong\AppData\Local\Temp\ccCGJz1B.s 			page 117


 5947 02d5 A802     		.2byte	0x2a8
 5948 02d7 1C       		.byte	0x1c
 5949 02d8 F6       		.byte	0xf6
 5950 02d9 08       		.byte	0x8
 5951 02da 25       		.uleb128 0x25
 5952 02db 22       		.byte	0x22
 5953 02dc 91       		.byte	0x91
 5954 02dd F878     		.sleb128 -904
 5955 02df F6       		.byte	0xf6
 5956 02e0 08       		.byte	0x8
 5957 02e1 25       		.uleb128 0x25
 5958 02e2 22       		.byte	0x22
 5959 02e3 7A       		.byte	0x7a
 5960 02e4 03       		.sleb128 3
 5961 02e5 33       		.byte	0x33
 5962 02e6 24       		.byte	0x24
 5963 02e7 7B       		.byte	0x7b
 5964 02e8 00       		.sleb128 0
 5965 02e9 22       		.byte	0x22
 5966 02ea F6       		.byte	0xf6
 5967 02eb 08       		.byte	0x8
 5968 02ec 25       		.uleb128 0x25
 5969 02ed 22       		.byte	0x22
 5970 02ee 9F       		.byte	0x9f
 5971 02ef 8A070000 		.4byte	.LVL71
 5972 02f3 92070000 		.4byte	.LVL72
 5973 02f7 2400     		.2byte	0x24
 5974 02f9 91       		.byte	0x91
 5975 02fa F877     		.sleb128 -1032
 5976 02fc F6       		.byte	0xf6
 5977 02fd 08       		.byte	0x8
 5978 02fe 25       		.uleb128 0x25
 5979 02ff 7A       		.byte	0x7a
 5980 0300 03       		.sleb128 3
 5981 0301 33       		.byte	0x33
 5982 0302 24       		.byte	0x24
 5983 0303 70       		.byte	0x70
 5984 0304 00       		.sleb128 0
 5985 0305 22       		.byte	0x22
 5986 0306 F6       		.byte	0xf6
 5987 0307 08       		.byte	0x8
 5988 0308 25       		.uleb128 0x25
 5989 0309 22       		.byte	0x22
 5990 030a 91       		.byte	0x91
 5991 030b F878     		.sleb128 -904
 5992 030d F6       		.byte	0xf6
 5993 030e 08       		.byte	0x8
 5994 030f 25       		.uleb128 0x25
 5995 0310 22       		.byte	0x22
 5996 0311 7A       		.byte	0x7a
 5997 0312 03       		.sleb128 3
 5998 0313 33       		.byte	0x33
 5999 0314 24       		.byte	0x24
 6000 0315 7B       		.byte	0x7b
 6001 0316 00       		.sleb128 0
 6002 0317 22       		.byte	0x22
 6003 0318 F6       		.byte	0xf6
ARM GAS  C:\Users\Phuong\AppData\Local\Temp\ccCGJz1B.s 			page 118


 6004 0319 08       		.byte	0x8
 6005 031a 25       		.uleb128 0x25
 6006 031b 22       		.byte	0x22
 6007 031c 9F       		.byte	0x9f
 6008 031d 92070000 		.4byte	.LVL72
 6009 0321 9A070000 		.4byte	.LVL73
 6010 0325 2400     		.2byte	0x24
 6011 0327 91       		.byte	0x91
 6012 0328 F877     		.sleb128 -1032
 6013 032a F6       		.byte	0xf6
 6014 032b 08       		.byte	0x8
 6015 032c 25       		.uleb128 0x25
 6016 032d 7A       		.byte	0x7a
 6017 032e 03       		.sleb128 3
 6018 032f 33       		.byte	0x33
 6019 0330 24       		.byte	0x24
 6020 0331 7C       		.byte	0x7c
 6021 0332 00       		.sleb128 0
 6022 0333 22       		.byte	0x22
 6023 0334 F6       		.byte	0xf6
 6024 0335 08       		.byte	0x8
 6025 0336 25       		.uleb128 0x25
 6026 0337 22       		.byte	0x22
 6027 0338 91       		.byte	0x91
 6028 0339 F878     		.sleb128 -904
 6029 033b F6       		.byte	0xf6
 6030 033c 08       		.byte	0x8
 6031 033d 25       		.uleb128 0x25
 6032 033e 22       		.byte	0x22
 6033 033f 7A       		.byte	0x7a
 6034 0340 03       		.sleb128 3
 6035 0341 33       		.byte	0x33
 6036 0342 24       		.byte	0x24
 6037 0343 7B       		.byte	0x7b
 6038 0344 00       		.sleb128 0
 6039 0345 22       		.byte	0x22
 6040 0346 F6       		.byte	0xf6
 6041 0347 08       		.byte	0x8
 6042 0348 25       		.uleb128 0x25
 6043 0349 22       		.byte	0x22
 6044 034a 9F       		.byte	0x9f
 6045 034b 9A070000 		.4byte	.LVL73
 6046 034f EC070000 		.4byte	.LVL75
 6047 0353 0600     		.2byte	0x6
 6048 0355 52       		.byte	0x52
 6049 0356 93       		.byte	0x93
 6050 0357 04       		.uleb128 0x4
 6051 0358 53       		.byte	0x53
 6052 0359 93       		.byte	0x93
 6053 035a 04       		.uleb128 0x4
 6054 035b EC070000 		.4byte	.LVL75
 6055 035f 2E080000 		.4byte	.LVL78
 6056 0363 0300     		.2byte	0x3
 6057 0365 91       		.byte	0x91
 6058 0366 F077     		.sleb128 -1040
 6059 0368 CE080000 		.4byte	.LVL84
 6060 036c D2080000 		.4byte	.LVL85
ARM GAS  C:\Users\Phuong\AppData\Local\Temp\ccCGJz1B.s 			page 119


 6061 0370 0600     		.2byte	0x6
 6062 0372 56       		.byte	0x56
 6063 0373 93       		.byte	0x93
 6064 0374 04       		.uleb128 0x4
 6065 0375 57       		.byte	0x57
 6066 0376 93       		.byte	0x93
 6067 0377 04       		.uleb128 0x4
 6068 0378 D2080000 		.4byte	.LVL85
 6069 037c 8E090000 		.4byte	.LVL93
 6070 0380 0300     		.2byte	0x3
 6071 0382 91       		.byte	0x91
 6072 0383 C877     		.sleb128 -1080
 6073 0385 F2090000 		.4byte	.LVL95
 6074 0389 F6090000 		.4byte	.LVL96
 6075 038d 0600     		.2byte	0x6
 6076 038f 52       		.byte	0x52
 6077 0390 93       		.byte	0x93
 6078 0391 04       		.uleb128 0x4
 6079 0392 53       		.byte	0x53
 6080 0393 93       		.byte	0x93
 6081 0394 04       		.uleb128 0x4
 6082 0395 F6090000 		.4byte	.LVL96
 6083 0399 1E0B0000 		.4byte	.LVL104
 6084 039d 0300     		.2byte	0x3
 6085 039f 91       		.byte	0x91
 6086 03a0 E877     		.sleb128 -1048
 6087 03a2 1E0B0000 		.4byte	.LVL104
 6088 03a6 220B0000 		.4byte	.LVL105
 6089 03aa 0600     		.2byte	0x6
 6090 03ac 52       		.byte	0x52
 6091 03ad 93       		.byte	0x93
 6092 03ae 04       		.uleb128 0x4
 6093 03af 53       		.byte	0x53
 6094 03b0 93       		.byte	0x93
 6095 03b1 04       		.uleb128 0x4
 6096 03b2 220B0000 		.4byte	.LVL105
 6097 03b6 A40B0000 		.4byte	.LVL109
 6098 03ba 0300     		.2byte	0x3
 6099 03bc 91       		.byte	0x91
 6100 03bd D077     		.sleb128 -1072
 6101 03bf 00000000 		.4byte	0
 6102 03c3 00000000 		.4byte	0
 6103              	.LLST11:
 6104 03c7 DC020000 		.4byte	.LVL34
 6105 03cb F4020000 		.4byte	.LVL37
 6106 03cf 0600     		.2byte	0x6
 6107 03d1 54       		.byte	0x54
 6108 03d2 93       		.byte	0x93
 6109 03d3 04       		.uleb128 0x4
 6110 03d4 55       		.byte	0x55
 6111 03d5 93       		.byte	0x93
 6112 03d6 04       		.uleb128 0x4
 6113 03d7 F4020000 		.4byte	.LVL37
 6114 03db 0A030000 		.4byte	.LVL39
 6115 03df 0B00     		.2byte	0xb
 6116 03e1 91       		.byte	0x91
 6117 03e2 A078     		.sleb128 -992
ARM GAS  C:\Users\Phuong\AppData\Local\Temp\ccCGJz1B.s 			page 120


 6118 03e4 F6       		.byte	0xf6
 6119 03e5 08       		.byte	0x8
 6120 03e6 25       		.uleb128 0x25
 6121 03e7 F5       		.byte	0xf5
 6122 03e8 06       		.uleb128 0x6
 6123 03e9 25       		.uleb128 0x25
 6124 03ea 22       		.byte	0x22
 6125 03eb 9F       		.byte	0x9f
 6126 03ec 0A030000 		.4byte	.LVL39
 6127 03f0 08040000 		.4byte	.LVL44
 6128 03f4 0E00     		.2byte	0xe
 6129 03f6 91       		.byte	0x91
 6130 03f7 A078     		.sleb128 -992
 6131 03f9 F6       		.byte	0xf6
 6132 03fa 08       		.byte	0x8
 6133 03fb 25       		.uleb128 0x25
 6134 03fc 91       		.byte	0x91
 6135 03fd A878     		.sleb128 -984
 6136 03ff F6       		.byte	0xf6
 6137 0400 08       		.byte	0x8
 6138 0401 25       		.uleb128 0x25
 6139 0402 22       		.byte	0x22
 6140 0403 9F       		.byte	0x9f
 6141 0404 08040000 		.4byte	.LVL44
 6142 0408 28040000 		.4byte	.LVL49
 6143 040c 0600     		.2byte	0x6
 6144 040e 54       		.byte	0x54
 6145 040f 93       		.byte	0x93
 6146 0410 04       		.uleb128 0x4
 6147 0411 55       		.byte	0x55
 6148 0412 93       		.byte	0x93
 6149 0413 04       		.uleb128 0x4
 6150 0414 70050000 		.4byte	.LVL53
 6151 0418 84050000 		.4byte	.LVL57
 6152 041c 0600     		.2byte	0x6
 6153 041e 54       		.byte	0x54
 6154 041f 93       		.byte	0x93
 6155 0420 04       		.uleb128 0x4
 6156 0421 55       		.byte	0x55
 6157 0422 93       		.byte	0x93
 6158 0423 04       		.uleb128 0x4
 6159 0424 84050000 		.4byte	.LVL57
 6160 0428 D0060000 		.4byte	.LVL62
 6161 042c 0E00     		.2byte	0xe
 6162 042e 91       		.byte	0x91
 6163 042f E078     		.sleb128 -928
 6164 0431 F6       		.byte	0xf6
 6165 0432 08       		.byte	0x8
 6166 0433 25       		.uleb128 0x25
 6167 0434 91       		.byte	0x91
 6168 0435 E878     		.sleb128 -920
 6169 0437 F6       		.byte	0xf6
 6170 0438 08       		.byte	0x8
 6171 0439 25       		.uleb128 0x25
 6172 043a 22       		.byte	0x22
 6173 043b 9F       		.byte	0x9f
 6174 043c D0060000 		.4byte	.LVL62
ARM GAS  C:\Users\Phuong\AppData\Local\Temp\ccCGJz1B.s 			page 121


 6175 0440 EC060000 		.4byte	.LVL67
 6176 0444 0600     		.2byte	0x6
 6177 0446 54       		.byte	0x54
 6178 0447 93       		.byte	0x93
 6179 0448 04       		.uleb128 0x4
 6180 0449 55       		.byte	0x55
 6181 044a 93       		.byte	0x93
 6182 044b 04       		.uleb128 0x4
 6183 044c 16080000 		.4byte	.LVL76
 6184 0450 4E080000 		.4byte	.LVL81
 6185 0454 0600     		.2byte	0x6
 6186 0456 50       		.byte	0x50
 6187 0457 93       		.byte	0x93
 6188 0458 04       		.uleb128 0x4
 6189 0459 51       		.byte	0x51
 6190 045a 93       		.byte	0x93
 6191 045b 04       		.uleb128 0x4
 6192 045c 4E080000 		.4byte	.LVL81
 6193 0460 3C090000 		.4byte	.LVL86
 6194 0464 0E00     		.2byte	0xe
 6195 0466 91       		.byte	0x91
 6196 0467 A079     		.sleb128 -864
 6197 0469 F6       		.byte	0xf6
 6198 046a 08       		.byte	0x8
 6199 046b 25       		.uleb128 0x25
 6200 046c 91       		.byte	0x91
 6201 046d A879     		.sleb128 -856
 6202 046f F6       		.byte	0xf6
 6203 0470 08       		.byte	0x8
 6204 0471 25       		.uleb128 0x25
 6205 0472 22       		.byte	0x22
 6206 0473 9F       		.byte	0x9f
 6207 0474 3C090000 		.4byte	.LVL86
 6208 0478 5E090000 		.4byte	.LVL90
 6209 047c 0600     		.2byte	0x6
 6210 047e 52       		.byte	0x52
 6211 047f 93       		.byte	0x93
 6212 0480 04       		.uleb128 0x4
 6213 0481 53       		.byte	0x53
 6214 0482 93       		.byte	0x93
 6215 0483 04       		.uleb128 0x4
 6216 0484 5E090000 		.4byte	.LVL90
 6217 0488 6A0A0000 		.4byte	.LVL97
 6218 048c 0E00     		.2byte	0xe
 6219 048e 91       		.byte	0x91
 6220 048f C079     		.sleb128 -832
 6221 0491 F6       		.byte	0xf6
 6222 0492 08       		.byte	0x8
 6223 0493 25       		.uleb128 0x25
 6224 0494 91       		.byte	0x91
 6225 0495 C879     		.sleb128 -824
 6226 0497 F6       		.byte	0xf6
 6227 0498 08       		.byte	0x8
 6228 0499 25       		.uleb128 0x25
 6229 049a 22       		.byte	0x22
 6230 049b 9F       		.byte	0x9f
 6231 049c 6A0A0000 		.4byte	.LVL97
ARM GAS  C:\Users\Phuong\AppData\Local\Temp\ccCGJz1B.s 			page 122


 6232 04a0 920A0000 		.4byte	.LVL102
 6233 04a4 0600     		.2byte	0x6
 6234 04a6 50       		.byte	0x50
 6235 04a7 93       		.byte	0x93
 6236 04a8 04       		.uleb128 0x4
 6237 04a9 51       		.byte	0x51
 6238 04aa 93       		.byte	0x93
 6239 04ab 04       		.uleb128 0x4
 6240 04ac 920A0000 		.4byte	.LVL102
 6241 04b0 8C0B0000 		.4byte	.LVL107
 6242 04b4 0E00     		.2byte	0xe
 6243 04b6 91       		.byte	0x91
 6244 04b7 E079     		.sleb128 -800
 6245 04b9 F6       		.byte	0xf6
 6246 04ba 08       		.byte	0x8
 6247 04bb 25       		.uleb128 0x25
 6248 04bc 91       		.byte	0x91
 6249 04bd E879     		.sleb128 -792
 6250 04bf F6       		.byte	0xf6
 6251 04c0 08       		.byte	0x8
 6252 04c1 25       		.uleb128 0x25
 6253 04c2 22       		.byte	0x22
 6254 04c3 9F       		.byte	0x9f
 6255 04c4 8C0B0000 		.4byte	.LVL107
 6256 04c8 BC0B0000 		.4byte	.LVL112
 6257 04cc 0600     		.2byte	0x6
 6258 04ce 50       		.byte	0x50
 6259 04cf 93       		.byte	0x93
 6260 04d0 04       		.uleb128 0x4
 6261 04d1 51       		.byte	0x51
 6262 04d2 93       		.byte	0x93
 6263 04d3 04       		.uleb128 0x4
 6264 04d4 BC0B0000 		.4byte	.LVL112
 6265 04d8 420C0000 		.4byte	.LVL114
 6266 04dc 0B00     		.2byte	0xb
 6267 04de 91       		.byte	0x91
 6268 04df 807A     		.sleb128 -768
 6269 04e1 F6       		.byte	0xf6
 6270 04e2 08       		.byte	0x8
 6271 04e3 25       		.uleb128 0x25
 6272 04e4 F5       		.byte	0xf5
 6273 04e5 05       		.uleb128 0x5
 6274 04e6 25       		.uleb128 0x25
 6275 04e7 22       		.byte	0x22
 6276 04e8 9F       		.byte	0x9f
 6277 04e9 420C0000 		.4byte	.LVL114
 6278 04ed 540C0000 		.4byte	.LFE6
 6279 04f1 0E00     		.2byte	0xe
 6280 04f3 91       		.byte	0x91
 6281 04f4 807A     		.sleb128 -768
 6282 04f6 F6       		.byte	0xf6
 6283 04f7 08       		.byte	0x8
 6284 04f8 25       		.uleb128 0x25
 6285 04f9 91       		.byte	0x91
 6286 04fa 887A     		.sleb128 -760
 6287 04fc F6       		.byte	0xf6
 6288 04fd 08       		.byte	0x8
ARM GAS  C:\Users\Phuong\AppData\Local\Temp\ccCGJz1B.s 			page 123


 6289 04fe 25       		.uleb128 0x25
 6290 04ff 22       		.byte	0x22
 6291 0500 9F       		.byte	0x9f
 6292 0501 00000000 		.4byte	0
 6293 0505 00000000 		.4byte	0
 6294              	.LLST12:
 6295 0509 40010000 		.4byte	.LVL16
 6296 050d 52010000 		.4byte	.LVL19
 6297 0511 0600     		.2byte	0x6
 6298 0513 53       		.byte	0x53
 6299 0514 93       		.byte	0x93
 6300 0515 04       		.uleb128 0x4
 6301 0516 54       		.byte	0x54
 6302 0517 93       		.byte	0x93
 6303 0518 04       		.uleb128 0x4
 6304 0519 52010000 		.4byte	.LVL19
 6305 051d 7A010000 		.4byte	.LVL26
 6306 0521 0200     		.2byte	0x2
 6307 0523 73       		.byte	0x73
 6308 0524 10       		.sleb128 16
 6309 0525 7A010000 		.4byte	.LVL26
 6310 0529 84010000 		.4byte	.LVL28
 6311 052d 0200     		.2byte	0x2
 6312 052f 77       		.byte	0x77
 6313 0530 10       		.sleb128 16
 6314 0531 84010000 		.4byte	.LVL28
 6315 0535 BA010000 		.4byte	.LVL31
 6316 0539 0600     		.2byte	0x6
 6317 053b 91       		.byte	0x91
 6318 053c BC7A     		.sleb128 -708
 6319 053e 06       		.byte	0x6
 6320 053f 23       		.byte	0x23
 6321 0540 10       		.uleb128 0x10
 6322 0541 BA010000 		.4byte	.LVL31
 6323 0545 D8060000 		.4byte	.LVL63
 6324 0549 0300     		.2byte	0x3
 6325 054b 91       		.byte	0x91
 6326 054c D077     		.sleb128 -1072
 6327 054e D8060000 		.4byte	.LVL63
 6328 0552 9E070000 		.4byte	.LVL74
 6329 0556 0600     		.2byte	0x6
 6330 0558 56       		.byte	0x56
 6331 0559 93       		.byte	0x93
 6332 055a 04       		.uleb128 0x4
 6333 055b 57       		.byte	0x57
 6334 055c 93       		.byte	0x93
 6335 055d 04       		.uleb128 0x4
 6336 055e 9E070000 		.4byte	.LVL74
 6337 0562 1E0B0000 		.4byte	.LVL104
 6338 0566 0300     		.2byte	0x3
 6339 0568 91       		.byte	0x91
 6340 0569 D077     		.sleb128 -1072
 6341 056b A40B0000 		.4byte	.LVL109
 6342 056f B80B0000 		.4byte	.LVL111
 6343 0573 0600     		.2byte	0x6
 6344 0575 52       		.byte	0x52
 6345 0576 93       		.byte	0x93
ARM GAS  C:\Users\Phuong\AppData\Local\Temp\ccCGJz1B.s 			page 124


 6346 0577 04       		.uleb128 0x4
 6347 0578 53       		.byte	0x53
 6348 0579 93       		.byte	0x93
 6349 057a 04       		.uleb128 0x4
 6350 057b B80B0000 		.4byte	.LVL111
 6351 057f 540C0000 		.4byte	.LFE6
 6352 0583 0300     		.2byte	0x3
 6353 0585 91       		.byte	0x91
 6354 0586 D077     		.sleb128 -1072
 6355 0588 00000000 		.4byte	0
 6356 058c 00000000 		.4byte	0
 6357              	.LLST13:
 6358 0590 48010000 		.4byte	.LVL17
 6359 0594 BA010000 		.4byte	.LVL31
 6360 0598 0600     		.2byte	0x6
 6361 059a 52       		.byte	0x52
 6362 059b 93       		.byte	0x93
 6363 059c 04       		.uleb128 0x4
 6364 059d 53       		.byte	0x53
 6365 059e 93       		.byte	0x93
 6366 059f 04       		.uleb128 0x4
 6367 05a0 BA010000 		.4byte	.LVL31
 6368 05a4 78050000 		.4byte	.LVL54
 6369 05a8 0300     		.2byte	0x3
 6370 05aa 91       		.byte	0x91
 6371 05ab F877     		.sleb128 -1032
 6372 05ad 78050000 		.4byte	.LVL54
 6373 05b1 DA060000 		.4byte	.LVL64
 6374 05b5 0600     		.2byte	0x6
 6375 05b7 52       		.byte	0x52
 6376 05b8 93       		.byte	0x93
 6377 05b9 04       		.uleb128 0x4
 6378 05ba 53       		.byte	0x53
 6379 05bb 93       		.byte	0x93
 6380 05bc 04       		.uleb128 0x4
 6381 05bd DA060000 		.4byte	.LVL64
 6382 05c1 F2090000 		.4byte	.LVL95
 6383 05c5 0300     		.2byte	0x3
 6384 05c7 91       		.byte	0x91
 6385 05c8 E877     		.sleb128 -1048
 6386 05ca 820A0000 		.4byte	.LVL99
 6387 05ce 880A0000 		.4byte	.LVL101
 6388 05d2 0600     		.2byte	0x6
 6389 05d4 52       		.byte	0x52
 6390 05d5 93       		.byte	0x93
 6391 05d6 04       		.uleb128 0x4
 6392 05d7 53       		.byte	0x53
 6393 05d8 93       		.byte	0x93
 6394 05d9 04       		.uleb128 0x4
 6395 05da 880A0000 		.4byte	.LVL101
 6396 05de 540C0000 		.4byte	.LFE6
 6397 05e2 0300     		.2byte	0x3
 6398 05e4 91       		.byte	0x91
 6399 05e5 F877     		.sleb128 -1032
 6400 05e7 00000000 		.4byte	0
 6401 05eb 00000000 		.4byte	0
 6402              	.LLST14:
ARM GAS  C:\Users\Phuong\AppData\Local\Temp\ccCGJz1B.s 			page 125


 6403 05ef 50010000 		.4byte	.LVL18
 6404 05f3 BA010000 		.4byte	.LVL31
 6405 05f7 0600     		.2byte	0x6
 6406 05f9 51       		.byte	0x51
 6407 05fa 93       		.byte	0x93
 6408 05fb 04       		.uleb128 0x4
 6409 05fc 52       		.byte	0x52
 6410 05fd 93       		.byte	0x93
 6411 05fe 04       		.uleb128 0x4
 6412 05ff BA010000 		.4byte	.LVL31
 6413 0603 18040000 		.4byte	.LVL45
 6414 0607 0300     		.2byte	0x3
 6415 0609 91       		.byte	0x91
 6416 060a 8878     		.sleb128 -1016
 6417 060c 18040000 		.4byte	.LVL45
 6418 0610 22040000 		.4byte	.LVL47
 6419 0614 0600     		.2byte	0x6
 6420 0616 56       		.byte	0x56
 6421 0617 93       		.byte	0x93
 6422 0618 04       		.uleb128 0x4
 6423 0619 57       		.byte	0x57
 6424 061a 93       		.byte	0x93
 6425 061b 04       		.uleb128 0x4
 6426 061c 22040000 		.4byte	.LVL47
 6427 0620 CE080000 		.4byte	.LVL84
 6428 0624 0300     		.2byte	0x3
 6429 0626 91       		.byte	0x91
 6430 0627 C877     		.sleb128 -1080
 6431 0629 58090000 		.4byte	.LVL88
 6432 062d 60090000 		.4byte	.LVL91
 6433 0631 0600     		.2byte	0x6
 6434 0633 56       		.byte	0x56
 6435 0634 93       		.byte	0x93
 6436 0635 04       		.uleb128 0x4
 6437 0636 57       		.byte	0x57
 6438 0637 93       		.byte	0x93
 6439 0638 04       		.uleb128 0x4
 6440 0639 60090000 		.4byte	.LVL91
 6441 063d 540C0000 		.4byte	.LFE6
 6442 0641 0300     		.2byte	0x3
 6443 0643 91       		.byte	0x91
 6444 0644 8878     		.sleb128 -1016
 6445 0646 00000000 		.4byte	0
 6446 064a 00000000 		.4byte	0
 6447              	.LLST15:
 6448 064e 5A010000 		.4byte	.LVL20
 6449 0652 BA010000 		.4byte	.LVL31
 6450 0656 0600     		.2byte	0x6
 6451 0658 50       		.byte	0x50
 6452 0659 93       		.byte	0x93
 6453 065a 04       		.uleb128 0x4
 6454 065b 51       		.byte	0x51
 6455 065c 93       		.byte	0x93
 6456 065d 04       		.uleb128 0x4
 6457 065e BA010000 		.4byte	.LVL31
 6458 0662 E8020000 		.4byte	.LVL35
 6459 0666 0300     		.2byte	0x3
ARM GAS  C:\Users\Phuong\AppData\Local\Temp\ccCGJz1B.s 			page 126


 6460 0668 91       		.byte	0x91
 6461 0669 F077     		.sleb128 -1040
 6462 066b E8020000 		.4byte	.LVL35
 6463 066f 42030000 		.4byte	.LVL40
 6464 0673 0600     		.2byte	0x6
 6465 0675 52       		.byte	0x52
 6466 0676 93       		.byte	0x93
 6467 0677 04       		.uleb128 0x4
 6468 0678 53       		.byte	0x53
 6469 0679 93       		.byte	0x93
 6470 067a 04       		.uleb128 0x4
 6471 067b 42030000 		.4byte	.LVL40
 6472 067f 9A070000 		.4byte	.LVL73
 6473 0683 0300     		.2byte	0x3
 6474 0685 91       		.byte	0x91
 6475 0686 F077     		.sleb128 -1040
 6476 0688 2E080000 		.4byte	.LVL78
 6477 068c 38080000 		.4byte	.LVL80
 6478 0690 0600     		.2byte	0x6
 6479 0692 52       		.byte	0x52
 6480 0693 93       		.byte	0x93
 6481 0694 04       		.uleb128 0x4
 6482 0695 53       		.byte	0x53
 6483 0696 93       		.byte	0x93
 6484 0697 04       		.uleb128 0x4
 6485 0698 38080000 		.4byte	.LVL80
 6486 069c 540C0000 		.4byte	.LFE6
 6487 06a0 0300     		.2byte	0x3
 6488 06a2 91       		.byte	0x91
 6489 06a3 F077     		.sleb128 -1040
 6490 06a5 00000000 		.4byte	0
 6491 06a9 00000000 		.4byte	0
 6492              	.LLST16:
 6493 06ad 62010000 		.4byte	.LVL22
 6494 06b1 BA010000 		.4byte	.LVL31
 6495 06b5 0600     		.2byte	0x6
 6496 06b7 54       		.byte	0x54
 6497 06b8 93       		.byte	0x93
 6498 06b9 04       		.uleb128 0x4
 6499 06ba 55       		.byte	0x55
 6500 06bb 93       		.byte	0x93
 6501 06bc 04       		.uleb128 0x4
 6502 06bd BA010000 		.4byte	.LVL31
 6503 06c1 FE050000 		.4byte	.LVL59
 6504 06c5 0300     		.2byte	0x3
 6505 06c7 91       		.byte	0x91
 6506 06c8 E877     		.sleb128 -1048
 6507 06ca E4060000 		.4byte	.LVL65
 6508 06ce 3E070000 		.4byte	.LVL70
 6509 06d2 0600     		.2byte	0x6
 6510 06d4 51       		.byte	0x51
 6511 06d5 93       		.byte	0x93
 6512 06d6 04       		.uleb128 0x4
 6513 06d7 52       		.byte	0x52
 6514 06d8 93       		.byte	0x93
 6515 06d9 04       		.uleb128 0x4
 6516 06da 3E070000 		.4byte	.LVL70
ARM GAS  C:\Users\Phuong\AppData\Local\Temp\ccCGJz1B.s 			page 127


 6517 06de 9C0B0000 		.4byte	.LVL108
 6518 06e2 0300     		.2byte	0x3
 6519 06e4 91       		.byte	0x91
 6520 06e5 8078     		.sleb128 -1024
 6521 06e7 9C0B0000 		.4byte	.LVL108
 6522 06eb C20B0000 		.4byte	.LVL113
 6523 06ef 0600     		.2byte	0x6
 6524 06f1 54       		.byte	0x54
 6525 06f2 93       		.byte	0x93
 6526 06f3 04       		.uleb128 0x4
 6527 06f4 55       		.byte	0x55
 6528 06f5 93       		.byte	0x93
 6529 06f6 04       		.uleb128 0x4
 6530 06f7 C20B0000 		.4byte	.LVL113
 6531 06fb 540C0000 		.4byte	.LFE6
 6532 06ff 0300     		.2byte	0x3
 6533 0701 91       		.byte	0x91
 6534 0702 E877     		.sleb128 -1048
 6535 0704 00000000 		.4byte	0
 6536 0708 00000000 		.4byte	0
 6537              	.LLST17:
 6538 070c 6A010000 		.4byte	.LVL23
 6539 0710 70010000 		.4byte	.LVL24
 6540 0714 0600     		.2byte	0x6
 6541 0716 55       		.byte	0x55
 6542 0717 93       		.byte	0x93
 6543 0718 04       		.uleb128 0x4
 6544 0719 56       		.byte	0x56
 6545 071a 93       		.byte	0x93
 6546 071b 04       		.uleb128 0x4
 6547 071c 70010000 		.4byte	.LVL24
 6548 0720 7A010000 		.4byte	.LVL26
 6549 0724 0200     		.2byte	0x2
 6550 0726 73       		.byte	0x73
 6551 0727 38       		.sleb128 56
 6552 0728 7A010000 		.4byte	.LVL26
 6553 072c 84010000 		.4byte	.LVL28
 6554 0730 0200     		.2byte	0x2
 6555 0732 77       		.byte	0x77
 6556 0733 38       		.sleb128 56
 6557 0734 84010000 		.4byte	.LVL28
 6558 0738 BA010000 		.4byte	.LVL31
 6559 073c 0600     		.2byte	0x6
 6560 073e 91       		.byte	0x91
 6561 073f BC7A     		.sleb128 -708
 6562 0741 06       		.byte	0x6
 6563 0742 23       		.byte	0x23
 6564 0743 38       		.uleb128 0x38
 6565 0744 BA010000 		.4byte	.LVL31
 6566 0748 80050000 		.4byte	.LVL56
 6567 074c 0300     		.2byte	0x3
 6568 074e 91       		.byte	0x91
 6569 074f D877     		.sleb128 -1064
 6570 0751 80050000 		.4byte	.LVL56
 6571 0755 86050000 		.4byte	.LVL58
 6572 0759 0600     		.2byte	0x6
 6573 075b 50       		.byte	0x50
ARM GAS  C:\Users\Phuong\AppData\Local\Temp\ccCGJz1B.s 			page 128


 6574 075c 93       		.byte	0x93
 6575 075d 04       		.uleb128 0x4
 6576 075e 51       		.byte	0x51
 6577 075f 93       		.byte	0x93
 6578 0760 04       		.uleb128 0x4
 6579 0761 86050000 		.4byte	.LVL58
 6580 0765 7A0A0000 		.4byte	.LVL98
 6581 0769 0300     		.2byte	0x3
 6582 076b 91       		.byte	0x91
 6583 076c D877     		.sleb128 -1064
 6584 076e 7A0A0000 		.4byte	.LVL98
 6585 0772 2C0B0000 		.4byte	.LVL106
 6586 0776 0600     		.2byte	0x6
 6587 0778 56       		.byte	0x56
 6588 0779 93       		.byte	0x93
 6589 077a 04       		.uleb128 0x4
 6590 077b 57       		.byte	0x57
 6591 077c 93       		.byte	0x93
 6592 077d 04       		.uleb128 0x4
 6593 077e 2C0B0000 		.4byte	.LVL106
 6594 0782 540C0000 		.4byte	.LFE6
 6595 0786 0300     		.2byte	0x3
 6596 0788 91       		.byte	0x91
 6597 0789 D877     		.sleb128 -1064
 6598 078b 00000000 		.4byte	0
 6599 078f 00000000 		.4byte	0
 6600              	.LLST18:
 6601 0793 76010000 		.4byte	.LVL25
 6602 0797 8E010000 		.4byte	.LVL29
 6603 079b 0600     		.2byte	0x6
 6604 079d 55       		.byte	0x55
 6605 079e 93       		.byte	0x93
 6606 079f 04       		.uleb128 0x4
 6607 07a0 56       		.byte	0x56
 6608 07a1 93       		.byte	0x93
 6609 07a2 04       		.uleb128 0x4
 6610 07a3 8E010000 		.4byte	.LVL29
 6611 07a7 BA010000 		.4byte	.LVL31
 6612 07ab 0300     		.2byte	0x3
 6613 07ad 91       		.byte	0x91
 6614 07ae C87A     		.sleb128 -696
 6615 07b0 BA010000 		.4byte	.LVL31
 6616 07b4 88030000 		.4byte	.LVL42
 6617 07b8 0300     		.2byte	0x3
 6618 07ba 91       		.byte	0x91
 6619 07bb C877     		.sleb128 -1080
 6620 07bd 24040000 		.4byte	.LVL48
 6621 07c1 54050000 		.4byte	.LVL52
 6622 07c5 0600     		.2byte	0x6
 6623 07c7 56       		.byte	0x56
 6624 07c8 93       		.byte	0x93
 6625 07c9 04       		.uleb128 0x4
 6626 07ca 57       		.byte	0x57
 6627 07cb 93       		.byte	0x93
 6628 07cc 04       		.uleb128 0x4
 6629 07cd 54050000 		.4byte	.LVL52
 6630 07d1 50090000 		.4byte	.LVL87
ARM GAS  C:\Users\Phuong\AppData\Local\Temp\ccCGJz1B.s 			page 129


 6631 07d5 0300     		.2byte	0x3
 6632 07d7 91       		.byte	0x91
 6633 07d8 8878     		.sleb128 -1016
 6634 07da 50090000 		.4byte	.LVL87
 6635 07de 76090000 		.4byte	.LVL92
 6636 07e2 0600     		.2byte	0x6
 6637 07e4 54       		.byte	0x54
 6638 07e5 93       		.byte	0x93
 6639 07e6 04       		.uleb128 0x4
 6640 07e7 55       		.byte	0x55
 6641 07e8 93       		.byte	0x93
 6642 07e9 04       		.uleb128 0x4
 6643 07ea 00000000 		.4byte	0
 6644 07ee 00000000 		.4byte	0
 6645              	.LLST19:
 6646 07f2 7E010000 		.4byte	.LVL27
 6647 07f6 B2010000 		.4byte	.LVL30
 6648 07fa 0600     		.2byte	0x6
 6649 07fc 53       		.byte	0x53
 6650 07fd 93       		.byte	0x93
 6651 07fe 04       		.uleb128 0x4
 6652 07ff 54       		.byte	0x54
 6653 0800 93       		.byte	0x93
 6654 0801 04       		.uleb128 0x4
 6655 0802 B2010000 		.4byte	.LVL30
 6656 0806 BA010000 		.4byte	.LVL31
 6657 080a 0600     		.2byte	0x6
 6658 080c 91       		.byte	0x91
 6659 080d BC7A     		.sleb128 -708
 6660 080f 06       		.byte	0x6
 6661 0810 23       		.byte	0x23
 6662 0811 48       		.uleb128 0x48
 6663 0812 BA010000 		.4byte	.LVL31
 6664 0816 54020000 		.4byte	.LVL32
 6665 081a 0300     		.2byte	0x3
 6666 081c 91       		.byte	0x91
 6667 081d E077     		.sleb128 -1056
 6668 081f F0020000 		.4byte	.LVL36
 6669 0823 F6020000 		.4byte	.LVL38
 6670 0827 0600     		.2byte	0x6
 6671 0829 50       		.byte	0x50
 6672 082a 93       		.byte	0x93
 6673 082b 04       		.uleb128 0x4
 6674 082c 51       		.byte	0x51
 6675 082d 93       		.byte	0x93
 6676 082e 04       		.uleb128 0x4
 6677 082f F6020000 		.4byte	.LVL38
 6678 0833 26080000 		.4byte	.LVL77
 6679 0837 0300     		.2byte	0x3
 6680 0839 91       		.byte	0x91
 6681 083a E077     		.sleb128 -1056
 6682 083c 26080000 		.4byte	.LVL77
 6683 0840 7E080000 		.4byte	.LVL82
 6684 0844 0600     		.2byte	0x6
 6685 0846 56       		.byte	0x56
 6686 0847 93       		.byte	0x93
 6687 0848 04       		.uleb128 0x4
ARM GAS  C:\Users\Phuong\AppData\Local\Temp\ccCGJz1B.s 			page 130


 6688 0849 57       		.byte	0x57
 6689 084a 93       		.byte	0x93
 6690 084b 04       		.uleb128 0x4
 6691 084c 7E080000 		.4byte	.LVL82
 6692 0850 540C0000 		.4byte	.LFE6
 6693 0854 0300     		.2byte	0x3
 6694 0856 91       		.byte	0x91
 6695 0857 E077     		.sleb128 -1056
 6696 0859 00000000 		.4byte	0
 6697 085d 00000000 		.4byte	0
 6698              	.LLST20:
 6699 0861 00000000 		.4byte	.LVL116
 6700 0865 05000000 		.4byte	.LVL117-1
 6701 0869 0100     		.2byte	0x1
 6702 086b 50       		.byte	0x50
 6703 086c 05000000 		.4byte	.LVL117-1
 6704 0870 08000000 		.4byte	.LFE7
 6705 0874 0400     		.2byte	0x4
 6706 0876 F3       		.byte	0xf3
 6707 0877 01       		.uleb128 0x1
 6708 0878 50       		.byte	0x50
 6709 0879 9F       		.byte	0x9f
 6710 087a 00000000 		.4byte	0
 6711 087e 00000000 		.4byte	0
 6712              	.LLST21:
 6713 0882 00000000 		.4byte	.LVL116
 6714 0886 05000000 		.4byte	.LVL117-1
 6715 088a 0100     		.2byte	0x1
 6716 088c 51       		.byte	0x51
 6717 088d 05000000 		.4byte	.LVL117-1
 6718 0891 08000000 		.4byte	.LFE7
 6719 0895 0400     		.2byte	0x4
 6720 0897 F3       		.byte	0xf3
 6721 0898 01       		.uleb128 0x1
 6722 0899 51       		.byte	0x51
 6723 089a 9F       		.byte	0x9f
 6724 089b 00000000 		.4byte	0
 6725 089f 00000000 		.4byte	0
 6726              	.LLST22:
 6727 08a3 00000000 		.4byte	.LVL118
 6728 08a7 12000000 		.4byte	.LVL119
 6729 08ab 0100     		.2byte	0x1
 6730 08ad 50       		.byte	0x50
 6731 08ae 12000000 		.4byte	.LVL119
 6732 08b2 A2000000 		.4byte	.LVL136
 6733 08b6 0100     		.2byte	0x1
 6734 08b8 57       		.byte	0x57
 6735 08b9 A2000000 		.4byte	.LVL136
 6736 08bd A4000000 		.4byte	.LVL137
 6737 08c1 0100     		.2byte	0x1
 6738 08c3 50       		.byte	0x50
 6739 08c4 A4000000 		.4byte	.LVL137
 6740 08c8 A8000000 		.4byte	.LVL142
 6741 08cc 0100     		.2byte	0x1
 6742 08ce 57       		.byte	0x57
 6743 08cf A8000000 		.4byte	.LVL142
 6744 08d3 B0000000 		.4byte	.LFE8
ARM GAS  C:\Users\Phuong\AppData\Local\Temp\ccCGJz1B.s 			page 131


 6745 08d7 0400     		.2byte	0x4
 6746 08d9 F3       		.byte	0xf3
 6747 08da 01       		.uleb128 0x1
 6748 08db 50       		.byte	0x50
 6749 08dc 9F       		.byte	0x9f
 6750 08dd 00000000 		.4byte	0
 6751 08e1 00000000 		.4byte	0
 6752              	.LLST23:
 6753 08e5 00000000 		.4byte	.LVL118
 6754 08e9 22000000 		.4byte	.LVL124
 6755 08ed 0100     		.2byte	0x1
 6756 08ef 51       		.byte	0x51
 6757 08f0 22000000 		.4byte	.LVL124
 6758 08f4 A2000000 		.4byte	.LVL136
 6759 08f8 0100     		.2byte	0x1
 6760 08fa 55       		.byte	0x55
 6761 08fb A2000000 		.4byte	.LVL136
 6762 08ff A6000000 		.4byte	.LVL138
 6763 0903 0100     		.2byte	0x1
 6764 0905 51       		.byte	0x51
 6765 0906 A6000000 		.4byte	.LVL138
 6766 090a A8000000 		.4byte	.LVL141
 6767 090e 0100     		.2byte	0x1
 6768 0910 55       		.byte	0x55
 6769 0911 00000000 		.4byte	0
 6770 0915 00000000 		.4byte	0
 6771              	.LLST24:
 6772 0919 00000000 		.4byte	.LVL118
 6773 091d 1C000000 		.4byte	.LVL122
 6774 0921 0100     		.2byte	0x1
 6775 0923 52       		.byte	0x52
 6776 0924 1C000000 		.4byte	.LVL122
 6777 0928 A2000000 		.4byte	.LVL136
 6778 092c 0100     		.2byte	0x1
 6779 092e 54       		.byte	0x54
 6780 092f A2000000 		.4byte	.LVL136
 6781 0933 A6000000 		.4byte	.LVL138
 6782 0937 0100     		.2byte	0x1
 6783 0939 52       		.byte	0x52
 6784 093a A6000000 		.4byte	.LVL138
 6785 093e A8000000 		.4byte	.LVL140
 6786 0942 0100     		.2byte	0x1
 6787 0944 54       		.byte	0x54
 6788 0945 00000000 		.4byte	0
 6789 0949 00000000 		.4byte	0
 6790              	.LLST25:
 6791 094d 6A000000 		.4byte	.LVL128
 6792 0951 78000000 		.4byte	.LVL131
 6793 0955 0100     		.2byte	0x1
 6794 0957 50       		.byte	0x50
 6795 0958 80000000 		.4byte	.LVL132
 6796 095c 88000000 		.4byte	.LVL134
 6797 0960 0100     		.2byte	0x1
 6798 0962 50       		.byte	0x50
 6799 0963 00000000 		.4byte	0
 6800 0967 00000000 		.4byte	0
 6801              	.LLST26:
ARM GAS  C:\Users\Phuong\AppData\Local\Temp\ccCGJz1B.s 			page 132


 6802 096b 1E000000 		.4byte	.LVL123
 6803 096f A2000000 		.4byte	.LVL136
 6804 0973 0100     		.2byte	0x1
 6805 0975 56       		.byte	0x56
 6806 0976 A6000000 		.4byte	.LVL138
 6807 097a A8000000 		.4byte	.LVL139
 6808 097e 0100     		.2byte	0x1
 6809 0980 56       		.byte	0x56
 6810 0981 00000000 		.4byte	0
 6811 0985 00000000 		.4byte	0
 6812              	.LLST27:
 6813 0989 18000000 		.4byte	.LVL120
 6814 098d 1A000000 		.4byte	.LVL121
 6815 0991 0100     		.2byte	0x1
 6816 0993 53       		.byte	0x53
 6817 0994 1A000000 		.4byte	.LVL121
 6818 0998 4C000000 		.4byte	.LVL125
 6819 099c 0100     		.2byte	0x1
 6820 099e 59       		.byte	0x59
 6821 099f 4C000000 		.4byte	.LVL125
 6822 09a3 52000000 		.4byte	.LVL126
 6823 09a7 0100     		.2byte	0x1
 6824 09a9 53       		.byte	0x53
 6825 09aa 52000000 		.4byte	.LVL126
 6826 09ae 72000000 		.4byte	.LVL130
 6827 09b2 0100     		.2byte	0x1
 6828 09b4 59       		.byte	0x59
 6829 09b5 72000000 		.4byte	.LVL130
 6830 09b9 78000000 		.4byte	.LVL131
 6831 09bd 0200     		.2byte	0x2
 6832 09bf 30       		.byte	0x30
 6833 09c0 9F       		.byte	0x9f
 6834 09c1 78000000 		.4byte	.LVL131
 6835 09c5 A2000000 		.4byte	.LVL136
 6836 09c9 0100     		.2byte	0x1
 6837 09cb 59       		.byte	0x59
 6838 09cc A6000000 		.4byte	.LVL138
 6839 09d0 A8000000 		.4byte	.LVL139
 6840 09d4 0100     		.2byte	0x1
 6841 09d6 59       		.byte	0x59
 6842 09d7 00000000 		.4byte	0
 6843 09db 00000000 		.4byte	0
 6844              	.LLST28:
 6845 09df 00000000 		.4byte	.LVL143
 6846 09e3 05000000 		.4byte	.LVL144-1
 6847 09e7 0100     		.2byte	0x1
 6848 09e9 50       		.byte	0x50
 6849 09ea 05000000 		.4byte	.LVL144-1
 6850 09ee 08000000 		.4byte	.LFE9
 6851 09f2 0400     		.2byte	0x4
 6852 09f4 F3       		.byte	0xf3
 6853 09f5 01       		.uleb128 0x1
 6854 09f6 50       		.byte	0x50
 6855 09f7 9F       		.byte	0x9f
 6856 09f8 00000000 		.4byte	0
 6857 09fc 00000000 		.4byte	0
 6858              	.LLST29:
ARM GAS  C:\Users\Phuong\AppData\Local\Temp\ccCGJz1B.s 			page 133


 6859 0a00 00000000 		.4byte	.LVL143
 6860 0a04 05000000 		.4byte	.LVL144-1
 6861 0a08 0100     		.2byte	0x1
 6862 0a0a 51       		.byte	0x51
 6863 0a0b 05000000 		.4byte	.LVL144-1
 6864 0a0f 08000000 		.4byte	.LFE9
 6865 0a13 0400     		.2byte	0x4
 6866 0a15 F3       		.byte	0xf3
 6867 0a16 01       		.uleb128 0x1
 6868 0a17 51       		.byte	0x51
 6869 0a18 9F       		.byte	0x9f
 6870 0a19 00000000 		.4byte	0
 6871 0a1d 00000000 		.4byte	0
 6872              	.LLST30:
 6873 0a21 00000000 		.4byte	.LVL143
 6874 0a25 05000000 		.4byte	.LVL144-1
 6875 0a29 0100     		.2byte	0x1
 6876 0a2b 52       		.byte	0x52
 6877 0a2c 05000000 		.4byte	.LVL144-1
 6878 0a30 08000000 		.4byte	.LFE9
 6879 0a34 0400     		.2byte	0x4
 6880 0a36 F3       		.byte	0xf3
 6881 0a37 01       		.uleb128 0x1
 6882 0a38 52       		.byte	0x52
 6883 0a39 9F       		.byte	0x9f
 6884 0a3a 00000000 		.4byte	0
 6885 0a3e 00000000 		.4byte	0
 6886              	.LLST31:
 6887 0a42 00000000 		.4byte	.LVL145
 6888 0a46 0E000000 		.4byte	.LVL147
 6889 0a4a 0100     		.2byte	0x1
 6890 0a4c 50       		.byte	0x50
 6891 0a4d 0E000000 		.4byte	.LVL147
 6892 0a51 64020000 		.4byte	.LVL164
 6893 0a55 0100     		.2byte	0x1
 6894 0a57 54       		.byte	0x54
 6895 0a58 64020000 		.4byte	.LVL164
 6896 0a5c 66020000 		.4byte	.LFE10
 6897 0a60 0400     		.2byte	0x4
 6898 0a62 F3       		.byte	0xf3
 6899 0a63 01       		.uleb128 0x1
 6900 0a64 50       		.byte	0x50
 6901 0a65 9F       		.byte	0x9f
 6902 0a66 00000000 		.4byte	0
 6903 0a6a 00000000 		.4byte	0
 6904              	.LLST32:
 6905 0a6e 00000000 		.4byte	.LVL145
 6906 0a72 26000000 		.4byte	.LVL149
 6907 0a76 0100     		.2byte	0x1
 6908 0a78 51       		.byte	0x51
 6909 0a79 26000000 		.4byte	.LVL149
 6910 0a7d 2C000000 		.4byte	.LVL151
 6911 0a81 0100     		.2byte	0x1
 6912 0a83 55       		.byte	0x55
 6913 0a84 2C000000 		.4byte	.LVL151
 6914 0a88 38000000 		.4byte	.LVL153
 6915 0a8c 0100     		.2byte	0x1
ARM GAS  C:\Users\Phuong\AppData\Local\Temp\ccCGJz1B.s 			page 134


 6916 0a8e 51       		.byte	0x51
 6917 0a8f 38000000 		.4byte	.LVL153
 6918 0a93 64020000 		.4byte	.LVL165
 6919 0a97 0100     		.2byte	0x1
 6920 0a99 55       		.byte	0x55
 6921 0a9a 64020000 		.4byte	.LVL165
 6922 0a9e 66020000 		.4byte	.LFE10
 6923 0aa2 0400     		.2byte	0x4
 6924 0aa4 F3       		.byte	0xf3
 6925 0aa5 01       		.uleb128 0x1
 6926 0aa6 51       		.byte	0x51
 6927 0aa7 9F       		.byte	0x9f
 6928 0aa8 00000000 		.4byte	0
 6929 0aac 00000000 		.4byte	0
 6930              	.LLST33:
 6931 0ab0 44000000 		.4byte	.LVL155
 6932 0ab4 50000000 		.4byte	.LVL156
 6933 0ab8 0100     		.2byte	0x1
 6934 0aba 50       		.byte	0x50
 6935 0abb D2000000 		.4byte	.LVL162
 6936 0abf E4010000 		.4byte	.LVL163
 6937 0ac3 0100     		.2byte	0x1
 6938 0ac5 50       		.byte	0x50
 6939 0ac6 00000000 		.4byte	0
 6940 0aca 00000000 		.4byte	0
 6941              	.LLST34:
 6942 0ace 0C000000 		.4byte	.LVL146
 6943 0ad2 0E000000 		.4byte	.LVL147
 6944 0ad6 0100     		.2byte	0x1
 6945 0ad8 53       		.byte	0x53
 6946 0ad9 0E000000 		.4byte	.LVL147
 6947 0add 24000000 		.4byte	.LVL148
 6948 0ae1 0100     		.2byte	0x1
 6949 0ae3 50       		.byte	0x50
 6950 0ae4 2C000000 		.4byte	.LVL151
 6951 0ae8 36000000 		.4byte	.LVL152
 6952 0aec 0100     		.2byte	0x1
 6953 0aee 50       		.byte	0x50
 6954 0aef 00000000 		.4byte	0
 6955 0af3 00000000 		.4byte	0
 6956              	.LLST35:
 6957 0af7 68000000 		.4byte	.LVL158
 6958 0afb 8A000000 		.4byte	.LVL160
 6959 0aff 0600     		.2byte	0x6
 6960 0b01 52       		.byte	0x52
 6961 0b02 93       		.byte	0x93
 6962 0b03 04       		.uleb128 0x4
 6963 0b04 51       		.byte	0x51
 6964 0b05 93       		.byte	0x93
 6965 0b06 04       		.uleb128 0x4
 6966 0b07 00000000 		.4byte	0
 6967 0b0b 00000000 		.4byte	0
 6968              	.LLST36:
 6969 0b0f 70000000 		.4byte	.LVL159
 6970 0b13 B6000000 		.4byte	.LVL161
 6971 0b17 0600     		.2byte	0x6
 6972 0b19 56       		.byte	0x56
ARM GAS  C:\Users\Phuong\AppData\Local\Temp\ccCGJz1B.s 			page 135


 6973 0b1a 93       		.byte	0x93
 6974 0b1b 04       		.uleb128 0x4
 6975 0b1c 53       		.byte	0x53
 6976 0b1d 93       		.byte	0x93
 6977 0b1e 04       		.uleb128 0x4
 6978 0b1f 00000000 		.4byte	0
 6979 0b23 00000000 		.4byte	0
 6980              	.LLST37:
 6981 0b27 00000000 		.4byte	.LVL166
 6982 0b2b 05000000 		.4byte	.LVL167-1
 6983 0b2f 0100     		.2byte	0x1
 6984 0b31 50       		.byte	0x50
 6985 0b32 05000000 		.4byte	.LVL167-1
 6986 0b36 08000000 		.4byte	.LFE11
 6987 0b3a 0400     		.2byte	0x4
 6988 0b3c F3       		.byte	0xf3
 6989 0b3d 01       		.uleb128 0x1
 6990 0b3e 50       		.byte	0x50
 6991 0b3f 9F       		.byte	0x9f
 6992 0b40 00000000 		.4byte	0
 6993 0b44 00000000 		.4byte	0
 6994              	.LLST38:
 6995 0b48 00000000 		.4byte	.LVL166
 6996 0b4c 05000000 		.4byte	.LVL167-1
 6997 0b50 0100     		.2byte	0x1
 6998 0b52 51       		.byte	0x51
 6999 0b53 05000000 		.4byte	.LVL167-1
 7000 0b57 08000000 		.4byte	.LFE11
 7001 0b5b 0400     		.2byte	0x4
 7002 0b5d F3       		.byte	0xf3
 7003 0b5e 01       		.uleb128 0x1
 7004 0b5f 51       		.byte	0x51
 7005 0b60 9F       		.byte	0x9f
 7006 0b61 00000000 		.4byte	0
 7007 0b65 00000000 		.4byte	0
 7008              	.LLST39:
 7009 0b69 00000000 		.4byte	.LVL168
 7010 0b6d 0E000000 		.4byte	.LVL169
 7011 0b71 0100     		.2byte	0x1
 7012 0b73 50       		.byte	0x50
 7013 0b74 0E000000 		.4byte	.LVL169
 7014 0b78 40000000 		.4byte	.LVL182
 7015 0b7c 0100     		.2byte	0x1
 7016 0b7e 55       		.byte	0x55
 7017 0b7f 40000000 		.4byte	.LVL182
 7018 0b83 42000000 		.4byte	.LFE12
 7019 0b87 0400     		.2byte	0x4
 7020 0b89 F3       		.byte	0xf3
 7021 0b8a 01       		.uleb128 0x1
 7022 0b8b 50       		.byte	0x50
 7023 0b8c 9F       		.byte	0x9f
 7024 0b8d 00000000 		.4byte	0
 7025 0b91 00000000 		.4byte	0
 7026              	.LLST40:
 7027 0b95 00000000 		.4byte	.LVL168
 7028 0b99 11000000 		.4byte	.LVL170-1
 7029 0b9d 0100     		.2byte	0x1
ARM GAS  C:\Users\Phuong\AppData\Local\Temp\ccCGJz1B.s 			page 136


 7030 0b9f 51       		.byte	0x51
 7031 0ba0 11000000 		.4byte	.LVL170-1
 7032 0ba4 40000000 		.4byte	.LVL183
 7033 0ba8 0100     		.2byte	0x1
 7034 0baa 56       		.byte	0x56
 7035 0bab 40000000 		.4byte	.LVL183
 7036 0baf 42000000 		.4byte	.LFE12
 7037 0bb3 0400     		.2byte	0x4
 7038 0bb5 F3       		.byte	0xf3
 7039 0bb6 01       		.uleb128 0x1
 7040 0bb7 51       		.byte	0x51
 7041 0bb8 9F       		.byte	0x9f
 7042 0bb9 00000000 		.4byte	0
 7043 0bbd 00000000 		.4byte	0
 7044              	.LLST41:
 7045 0bc1 00000000 		.4byte	.LVL168
 7046 0bc5 11000000 		.4byte	.LVL170-1
 7047 0bc9 0100     		.2byte	0x1
 7048 0bcb 52       		.byte	0x52
 7049 0bcc 11000000 		.4byte	.LVL170-1
 7050 0bd0 40000000 		.4byte	.LVL184
 7051 0bd4 0100     		.2byte	0x1
 7052 0bd6 57       		.byte	0x57
 7053 0bd7 40000000 		.4byte	.LVL184
 7054 0bdb 42000000 		.4byte	.LFE12
 7055 0bdf 0400     		.2byte	0x4
 7056 0be1 F3       		.byte	0xf3
 7057 0be2 01       		.uleb128 0x1
 7058 0be3 52       		.byte	0x52
 7059 0be4 9F       		.byte	0x9f
 7060 0be5 00000000 		.4byte	0
 7061 0be9 00000000 		.4byte	0
 7062              	.LLST42:
 7063 0bed 00000000 		.4byte	.LVL168
 7064 0bf1 11000000 		.4byte	.LVL170-1
 7065 0bf5 0100     		.2byte	0x1
 7066 0bf7 53       		.byte	0x53
 7067 0bf8 11000000 		.4byte	.LVL170-1
 7068 0bfc 1C000000 		.4byte	.LVL172
 7069 0c00 0100     		.2byte	0x1
 7070 0c02 54       		.byte	0x54
 7071 0c03 1C000000 		.4byte	.LVL172
 7072 0c07 42000000 		.4byte	.LFE12
 7073 0c0b 0400     		.2byte	0x4
 7074 0c0d F3       		.byte	0xf3
 7075 0c0e 01       		.uleb128 0x1
 7076 0c0f 53       		.byte	0x53
 7077 0c10 9F       		.byte	0x9f
 7078 0c11 00000000 		.4byte	0
 7079 0c15 00000000 		.4byte	0
 7080              	.LLST43:
 7081 0c19 1C000000 		.4byte	.LVL172
 7082 0c1d 24000000 		.4byte	.LVL173
 7083 0c21 0100     		.2byte	0x1
 7084 0c23 50       		.byte	0x50
 7085 0c24 24000000 		.4byte	.LVL173
 7086 0c28 2A000000 		.4byte	.LVL175
ARM GAS  C:\Users\Phuong\AppData\Local\Temp\ccCGJz1B.s 			page 137


 7087 0c2c 0100     		.2byte	0x1
 7088 0c2e 54       		.byte	0x54
 7089 0c2f 2A000000 		.4byte	.LVL175
 7090 0c33 30000000 		.4byte	.LVL176
 7091 0c37 0100     		.2byte	0x1
 7092 0c39 50       		.byte	0x50
 7093 0c3a 30000000 		.4byte	.LVL176
 7094 0c3e 36000000 		.4byte	.LVL178
 7095 0c42 0100     		.2byte	0x1
 7096 0c44 54       		.byte	0x54
 7097 0c45 36000000 		.4byte	.LVL178
 7098 0c49 38000000 		.4byte	.LVL179
 7099 0c4d 0100     		.2byte	0x1
 7100 0c4f 50       		.byte	0x50
 7101 0c50 38000000 		.4byte	.LVL179
 7102 0c54 40000000 		.4byte	.LVL181
 7103 0c58 0100     		.2byte	0x1
 7104 0c5a 54       		.byte	0x54
 7105 0c5b 40000000 		.4byte	.LVL181
 7106 0c5f 42000000 		.4byte	.LFE12
 7107 0c63 0100     		.2byte	0x1
 7108 0c65 50       		.byte	0x50
 7109 0c66 00000000 		.4byte	0
 7110 0c6a 00000000 		.4byte	0
 7111              	.LLST44:
 7112 0c6e 00000000 		.4byte	.LVL185
 7113 0c72 05000000 		.4byte	.LVL186-1
 7114 0c76 0100     		.2byte	0x1
 7115 0c78 50       		.byte	0x50
 7116 0c79 05000000 		.4byte	.LVL186-1
 7117 0c7d 08000000 		.4byte	.LFE13
 7118 0c81 0400     		.2byte	0x4
 7119 0c83 F3       		.byte	0xf3
 7120 0c84 01       		.uleb128 0x1
 7121 0c85 50       		.byte	0x50
 7122 0c86 9F       		.byte	0x9f
 7123 0c87 00000000 		.4byte	0
 7124 0c8b 00000000 		.4byte	0
 7125              	.LLST45:
 7126 0c8f 00000000 		.4byte	.LVL185
 7127 0c93 05000000 		.4byte	.LVL186-1
 7128 0c97 0100     		.2byte	0x1
 7129 0c99 51       		.byte	0x51
 7130 0c9a 05000000 		.4byte	.LVL186-1
 7131 0c9e 08000000 		.4byte	.LFE13
 7132 0ca2 0400     		.2byte	0x4
 7133 0ca4 F3       		.byte	0xf3
 7134 0ca5 01       		.uleb128 0x1
 7135 0ca6 51       		.byte	0x51
 7136 0ca7 9F       		.byte	0x9f
 7137 0ca8 00000000 		.4byte	0
 7138 0cac 00000000 		.4byte	0
 7139              	.LLST46:
 7140 0cb0 00000000 		.4byte	.LVL185
 7141 0cb4 05000000 		.4byte	.LVL186-1
 7142 0cb8 0100     		.2byte	0x1
 7143 0cba 52       		.byte	0x52
ARM GAS  C:\Users\Phuong\AppData\Local\Temp\ccCGJz1B.s 			page 138


 7144 0cbb 05000000 		.4byte	.LVL186-1
 7145 0cbf 08000000 		.4byte	.LFE13
 7146 0cc3 0400     		.2byte	0x4
 7147 0cc5 F3       		.byte	0xf3
 7148 0cc6 01       		.uleb128 0x1
 7149 0cc7 52       		.byte	0x52
 7150 0cc8 9F       		.byte	0x9f
 7151 0cc9 00000000 		.4byte	0
 7152 0ccd 00000000 		.4byte	0
 7153              	.LLST47:
 7154 0cd1 00000000 		.4byte	.LVL185
 7155 0cd5 05000000 		.4byte	.LVL186-1
 7156 0cd9 0100     		.2byte	0x1
 7157 0cdb 53       		.byte	0x53
 7158 0cdc 05000000 		.4byte	.LVL186-1
 7159 0ce0 08000000 		.4byte	.LFE13
 7160 0ce4 0400     		.2byte	0x4
 7161 0ce6 F3       		.byte	0xf3
 7162 0ce7 01       		.uleb128 0x1
 7163 0ce8 53       		.byte	0x53
 7164 0ce9 9F       		.byte	0x9f
 7165 0cea 00000000 		.4byte	0
 7166 0cee 00000000 		.4byte	0
 7167              	.LLST48:
 7168 0cf2 00000000 		.4byte	.LVL187
 7169 0cf6 0E000000 		.4byte	.LVL189
 7170 0cfa 0100     		.2byte	0x1
 7171 0cfc 50       		.byte	0x50
 7172 0cfd 0E000000 		.4byte	.LVL189
 7173 0d01 54000000 		.4byte	.LVL202
 7174 0d05 0100     		.2byte	0x1
 7175 0d07 58       		.byte	0x58
 7176 0d08 54000000 		.4byte	.LVL202
 7177 0d0c 61000000 		.4byte	.LVL203-1
 7178 0d10 0100     		.2byte	0x1
 7179 0d12 53       		.byte	0x53
 7180 0d13 61000000 		.4byte	.LVL203-1
 7181 0d17 E4000000 		.4byte	.LVL223
 7182 0d1b 0100     		.2byte	0x1
 7183 0d1d 58       		.byte	0x58
 7184 0d1e E4000000 		.4byte	.LVL223
 7185 0d22 E9000000 		.4byte	.LVL224-1
 7186 0d26 0100     		.2byte	0x1
 7187 0d28 53       		.byte	0x53
 7188 0d29 E9000000 		.4byte	.LVL224-1
 7189 0d2d F6000000 		.4byte	.LVL226
 7190 0d31 0100     		.2byte	0x1
 7191 0d33 58       		.byte	0x58
 7192 0d34 F6000000 		.4byte	.LVL226
 7193 0d38 FB000000 		.4byte	.LVL227-1
 7194 0d3c 0100     		.2byte	0x1
 7195 0d3e 53       		.byte	0x53
 7196 0d3f FB000000 		.4byte	.LVL227-1
 7197 0d43 06010000 		.4byte	.LVL230
 7198 0d47 0100     		.2byte	0x1
 7199 0d49 58       		.byte	0x58
 7200 0d4a 06010000 		.4byte	.LVL230
ARM GAS  C:\Users\Phuong\AppData\Local\Temp\ccCGJz1B.s 			page 139


 7201 0d4e 0B010000 		.4byte	.LVL231-1
 7202 0d52 0100     		.2byte	0x1
 7203 0d54 53       		.byte	0x53
 7204 0d55 0B010000 		.4byte	.LVL231-1
 7205 0d59 1C010000 		.4byte	.LVL234
 7206 0d5d 0100     		.2byte	0x1
 7207 0d5f 58       		.byte	0x58
 7208 0d60 1C010000 		.4byte	.LVL234
 7209 0d64 1E010000 		.4byte	.LVL235
 7210 0d68 0100     		.2byte	0x1
 7211 0d6a 53       		.byte	0x53
 7212 0d6b 1E010000 		.4byte	.LVL235
 7213 0d6f 20010000 		.4byte	.LVL236
 7214 0d73 0100     		.2byte	0x1
 7215 0d75 58       		.byte	0x58
 7216 0d76 20010000 		.4byte	.LVL236
 7217 0d7a 44010000 		.4byte	.LFE14
 7218 0d7e 0400     		.2byte	0x4
 7219 0d80 F3       		.byte	0xf3
 7220 0d81 01       		.uleb128 0x1
 7221 0d82 50       		.byte	0x50
 7222 0d83 9F       		.byte	0x9f
 7223 0d84 00000000 		.4byte	0
 7224 0d88 00000000 		.4byte	0
 7225              	.LLST49:
 7226 0d8c 32000000 		.4byte	.LVL196
 7227 0d90 38000000 		.4byte	.LVL197
 7228 0d94 0200     		.2byte	0x2
 7229 0d96 30       		.byte	0x30
 7230 0d97 9F       		.byte	0x9f
 7231 0d98 38000000 		.4byte	.LVL197
 7232 0d9c 1C010000 		.4byte	.LVL234
 7233 0da0 0100     		.2byte	0x1
 7234 0da2 56       		.byte	0x56
 7235 0da3 00000000 		.4byte	0
 7236 0da7 00000000 		.4byte	0
 7237              	.LLST50:
 7238 0dab 42000000 		.4byte	.LVL199
 7239 0daf 48000000 		.4byte	.LVL200
 7240 0db3 0100     		.2byte	0x1
 7241 0db5 51       		.byte	0x51
 7242 0db6 48000000 		.4byte	.LVL200
 7243 0dba 7E000000 		.4byte	.LVL208
 7244 0dbe 0100     		.2byte	0x1
 7245 0dc0 55       		.byte	0x55
 7246 0dc1 7E000000 		.4byte	.LVL208
 7247 0dc5 82000000 		.4byte	.LVL209
 7248 0dc9 0200     		.2byte	0x2
 7249 0dcb 30       		.byte	0x30
 7250 0dcc 9F       		.byte	0x9f
 7251 0dcd 82000000 		.4byte	.LVL209
 7252 0dd1 AA000000 		.4byte	.LVL214
 7253 0dd5 0100     		.2byte	0x1
 7254 0dd7 55       		.byte	0x55
 7255 0dd8 00000000 		.4byte	0
 7256 0ddc 00000000 		.4byte	0
 7257              	.LLST51:
ARM GAS  C:\Users\Phuong\AppData\Local\Temp\ccCGJz1B.s 			page 140


 7258 0de0 4E000000 		.4byte	.LVL201
 7259 0de4 EC000000 		.4byte	.LVL225
 7260 0de8 0100     		.2byte	0x1
 7261 0dea 57       		.byte	0x57
 7262 0deb FE000000 		.4byte	.LVL228
 7263 0def 0C010000 		.4byte	.LVL231
 7264 0df3 0100     		.2byte	0x1
 7265 0df5 57       		.byte	0x57
 7266 0df6 00000000 		.4byte	0
 7267 0dfa 00000000 		.4byte	0
 7268              	.LLST52:
 7269 0dfe 72000000 		.4byte	.LVL206
 7270 0e02 9C000000 		.4byte	.LVL213
 7271 0e06 0400     		.2byte	0x4
 7272 0e08 0A       		.byte	0xa
 7273 0e09 E803     		.2byte	0x3e8
 7274 0e0b 9F       		.byte	0x9f
 7275 0e0c 00000000 		.4byte	0
 7276 0e10 00000000 		.4byte	0
 7277              	.LLST53:
 7278 0e14 0A000000 		.4byte	.LVL188
 7279 0e18 38000000 		.4byte	.LVL197
 7280 0e1c 0200     		.2byte	0x2
 7281 0e1e 30       		.byte	0x30
 7282 0e1f 9F       		.byte	0x9f
 7283 0e20 38000000 		.4byte	.LVL197
 7284 0e24 6C000000 		.4byte	.LVL205
 7285 0e28 0100     		.2byte	0x1
 7286 0e2a 54       		.byte	0x54
 7287 0e2b 6C000000 		.4byte	.LVL205
 7288 0e2f 7A000000 		.4byte	.LVL207
 7289 0e33 0100     		.2byte	0x1
 7290 0e35 50       		.byte	0x50
 7291 0e36 7A000000 		.4byte	.LVL207
 7292 0e3a 90000000 		.4byte	.LVL211
 7293 0e3e 0100     		.2byte	0x1
 7294 0e40 54       		.byte	0x54
 7295 0e41 90000000 		.4byte	.LVL211
 7296 0e45 94000000 		.4byte	.LVL212
 7297 0e49 0100     		.2byte	0x1
 7298 0e4b 50       		.byte	0x50
 7299 0e4c 94000000 		.4byte	.LVL212
 7300 0e50 9C000000 		.4byte	.LVL213
 7301 0e54 0100     		.2byte	0x1
 7302 0e56 54       		.byte	0x54
 7303 0e57 9C000000 		.4byte	.LVL213
 7304 0e5b B2000000 		.4byte	.LVL215
 7305 0e5f 0100     		.2byte	0x1
 7306 0e61 50       		.byte	0x50
 7307 0e62 B2000000 		.4byte	.LVL215
 7308 0e66 B8000000 		.4byte	.LVL217
 7309 0e6a 0100     		.2byte	0x1
 7310 0e6c 54       		.byte	0x54
 7311 0e6d B8000000 		.4byte	.LVL217
 7312 0e71 BA000000 		.4byte	.LVL218
 7313 0e75 0100     		.2byte	0x1
 7314 0e77 50       		.byte	0x50
ARM GAS  C:\Users\Phuong\AppData\Local\Temp\ccCGJz1B.s 			page 141


 7315 0e78 BA000000 		.4byte	.LVL218
 7316 0e7c C4000000 		.4byte	.LVL220
 7317 0e80 0100     		.2byte	0x1
 7318 0e82 54       		.byte	0x54
 7319 0e83 C4000000 		.4byte	.LVL220
 7320 0e87 D6000000 		.4byte	.LVL221
 7321 0e8b 0100     		.2byte	0x1
 7322 0e8d 50       		.byte	0x50
 7323 0e8e D6000000 		.4byte	.LVL221
 7324 0e92 1C010000 		.4byte	.LVL234
 7325 0e96 0100     		.2byte	0x1
 7326 0e98 54       		.byte	0x54
 7327 0e99 1C010000 		.4byte	.LVL234
 7328 0e9d 1E010000 		.4byte	.LVL235
 7329 0ea1 0200     		.2byte	0x2
 7330 0ea3 30       		.byte	0x30
 7331 0ea4 9F       		.byte	0x9f
 7332 0ea5 00000000 		.4byte	0
 7333 0ea9 00000000 		.4byte	0
 7334              	.LLST54:
 7335 0ead 16000000 		.4byte	.LVL191
 7336 0eb1 24000000 		.4byte	.LVL192
 7337 0eb5 0100     		.2byte	0x1
 7338 0eb7 50       		.byte	0x50
 7339 0eb8 24000000 		.4byte	.LVL192
 7340 0ebc 2C000000 		.4byte	.LVL194
 7341 0ec0 0300     		.2byte	0x3
 7342 0ec2 91       		.byte	0x91
 7343 0ec3 CC7D     		.sleb128 -308
 7344 0ec5 2C000000 		.4byte	.LVL194
 7345 0ec9 2E000000 		.4byte	.LVL195
 7346 0ecd 0100     		.2byte	0x1
 7347 0ecf 50       		.byte	0x50
 7348 0ed0 2E000000 		.4byte	.LVL195
 7349 0ed4 1C010000 		.4byte	.LVL234
 7350 0ed8 0300     		.2byte	0x3
 7351 0eda 91       		.byte	0x91
 7352 0edb CC7D     		.sleb128 -308
 7353 0edd 1C010000 		.4byte	.LVL234
 7354 0ee1 1E010000 		.4byte	.LVL235
 7355 0ee5 0100     		.2byte	0x1
 7356 0ee7 50       		.byte	0x50
 7357 0ee8 1E010000 		.4byte	.LVL235
 7358 0eec 44010000 		.4byte	.LFE14
 7359 0ef0 0300     		.2byte	0x3
 7360 0ef2 91       		.byte	0x91
 7361 0ef3 CC7D     		.sleb128 -308
 7362 0ef5 00000000 		.4byte	0
 7363 0ef9 00000000 		.4byte	0
 7364              		.section	.debug_aranges,"",%progbits
 7365 0000 84000000 		.4byte	0x84
 7366 0004 0200     		.2byte	0x2
 7367 0006 00000000 		.4byte	.Ldebug_info0
 7368 000a 04       		.byte	0x4
 7369 000b 00       		.byte	0
 7370 000c 0000     		.2byte	0
 7371 000e 0000     		.2byte	0
ARM GAS  C:\Users\Phuong\AppData\Local\Temp\ccCGJz1B.s 			page 142


 7372 0010 00000000 		.4byte	.LFB1
 7373 0014 0C000000 		.4byte	.LFE1-.LFB1
 7374 0018 00000000 		.4byte	.LFB2
 7375 001c 0E000000 		.4byte	.LFE2-.LFB2
 7376 0020 00000000 		.4byte	.LFB3
 7377 0024 0A000000 		.4byte	.LFE3-.LFB3
 7378 0028 00000000 		.4byte	.LFB4
 7379 002c 1C010000 		.4byte	.LFE4-.LFB4
 7380 0030 00000000 		.4byte	.LFB5
 7381 0034 08000000 		.4byte	.LFE5-.LFB5
 7382 0038 00000000 		.4byte	.LFB6
 7383 003c 540C0000 		.4byte	.LFE6-.LFB6
 7384 0040 00000000 		.4byte	.LFB7
 7385 0044 08000000 		.4byte	.LFE7-.LFB7
 7386 0048 00000000 		.4byte	.LFB8
 7387 004c B0000000 		.4byte	.LFE8-.LFB8
 7388 0050 00000000 		.4byte	.LFB9
 7389 0054 08000000 		.4byte	.LFE9-.LFB9
 7390 0058 00000000 		.4byte	.LFB10
 7391 005c 66020000 		.4byte	.LFE10-.LFB10
 7392 0060 00000000 		.4byte	.LFB11
 7393 0064 08000000 		.4byte	.LFE11-.LFB11
 7394 0068 00000000 		.4byte	.LFB12
 7395 006c 42000000 		.4byte	.LFE12-.LFB12
 7396 0070 00000000 		.4byte	.LFB13
 7397 0074 08000000 		.4byte	.LFE13-.LFB13
 7398 0078 00000000 		.4byte	.LFB14
 7399 007c 44010000 		.4byte	.LFE14-.LFB14
 7400 0080 00000000 		.4byte	0
 7401 0084 00000000 		.4byte	0
 7402              		.section	.debug_ranges,"",%progbits
 7403              	.Ldebug_ranges0:
 7404 0000 00000000 		.4byte	.LFB1
 7405 0004 0C000000 		.4byte	.LFE1
 7406 0008 00000000 		.4byte	.LFB2
 7407 000c 0E000000 		.4byte	.LFE2
 7408 0010 00000000 		.4byte	.LFB3
 7409 0014 0A000000 		.4byte	.LFE3
 7410 0018 00000000 		.4byte	.LFB4
 7411 001c 1C010000 		.4byte	.LFE4
 7412 0020 00000000 		.4byte	.LFB5
 7413 0024 08000000 		.4byte	.LFE5
 7414 0028 00000000 		.4byte	.LFB6
 7415 002c 540C0000 		.4byte	.LFE6
 7416 0030 00000000 		.4byte	.LFB7
 7417 0034 08000000 		.4byte	.LFE7
 7418 0038 00000000 		.4byte	.LFB8
 7419 003c B0000000 		.4byte	.LFE8
 7420 0040 00000000 		.4byte	.LFB9
 7421 0044 08000000 		.4byte	.LFE9
 7422 0048 00000000 		.4byte	.LFB10
 7423 004c 66020000 		.4byte	.LFE10
 7424 0050 00000000 		.4byte	.LFB11
 7425 0054 08000000 		.4byte	.LFE11
 7426 0058 00000000 		.4byte	.LFB12
 7427 005c 42000000 		.4byte	.LFE12
 7428 0060 00000000 		.4byte	.LFB13
ARM GAS  C:\Users\Phuong\AppData\Local\Temp\ccCGJz1B.s 			page 143


 7429 0064 08000000 		.4byte	.LFE13
 7430 0068 00000000 		.4byte	.LFB14
 7431 006c 44010000 		.4byte	.LFE14
 7432 0070 00000000 		.4byte	0
 7433 0074 00000000 		.4byte	0
 7434              		.section	.debug_line,"",%progbits
 7435              	.Ldebug_line0:
 7436 0000 DA040000 		.section	.debug_str,"MS",%progbits,1
 7436      02009802 
 7436      00000201 
 7436      FB0E0D00 
 7436      01010101 
 7437              	.LASF56:
 7438 0000 7072696E 		.ascii	"printf\000"
 7438      746600
 7439              	.LASF10:
 7440 0007 73697A65 		.ascii	"size_t\000"
 7440      5F7400
 7441              	.LASF16:
 7442 000e 69733338 		.ascii	"is384\000"
 7442      3400
 7443              	.LASF12:
 7444 0014 75696E74 		.ascii	"uint64_t\000"
 7444      36345F74 
 7444      00
 7445              	.LASF35:
 7446 001d 6D626564 		.ascii	"mbedtls_sha512_update\000"
 7446      746C735F 
 7446      73686135 
 7446      31325F75 
 7446      70646174 
 7447              	.LASF0:
 7448 0033 6C6F6E67 		.ascii	"long long unsigned int\000"
 7448      206C6F6E 
 7448      6720756E 
 7448      7369676E 
 7448      65642069 
 7449              	.LASF62:
 7450 004a 66726565 		.ascii	"free\000"
 7450      00
 7451              	.LASF36:
 7452 004f 6D626564 		.ascii	"mbedtls_sha512_finish_ret\000"
 7452      746C735F 
 7452      73686135 
 7452      31325F66 
 7452      696E6973 
 7453              	.LASF7:
 7454 0069 6C6F6E67 		.ascii	"long long int\000"
 7454      206C6F6E 
 7454      6720696E 
 7454      7400
 7455              	.LASF1:
 7456 0077 7369676E 		.ascii	"signed char\000"
 7456      65642063 
 7456      68617200 
 7457              	.LASF25:
 7458 0083 6D626564 		.ascii	"mbedtls_internal_sha512_process\000"
ARM GAS  C:\Users\Phuong\AppData\Local\Temp\ccCGJz1B.s 			page 144


 7458      746C735F 
 7458      696E7465 
 7458      726E616C 
 7458      5F736861 
 7459              	.LASF14:
 7460 00a3 73746174 		.ascii	"state\000"
 7460      6500
 7461              	.LASF5:
 7462 00a9 6C6F6E67 		.ascii	"long int\000"
 7462      20696E74 
 7462      00
 7463              	.LASF60:
 7464 00b2 5F5F6275 		.ascii	"__builtin_puts\000"
 7464      696C7469 
 7464      6E5F7075 
 7464      747300
 7465              	.LASF53:
 7466 00c1 6D656D63 		.ascii	"memcpy\000"
 7466      707900
 7467              	.LASF59:
 7468 00c8 70757463 		.ascii	"putchar\000"
 7468      68617200 
 7469              	.LASF46:
 7470 00d0 73686135 		.ascii	"sha512sum\000"
 7470      31327375 
 7470      6D00
 7471              	.LASF51:
 7472 00da 73686135 		.ascii	"sha512_test_sum\000"
 7472      31325F74 
 7472      6573745F 
 7472      73756D00 
 7473              	.LASF50:
 7474 00ea 73686135 		.ascii	"sha512_test_buflen\000"
 7474      31325F74 
 7474      6573745F 
 7474      6275666C 
 7474      656E00
 7475              	.LASF49:
 7476 00fd 73686135 		.ascii	"sha512_test_buf\000"
 7476      31325F74 
 7476      6573745F 
 7476      62756600 
 7477              	.LASF8:
 7478 010d 756E7369 		.ascii	"unsigned int\000"
 7478      676E6564 
 7478      20696E74 
 7478      00
 7479              	.LASF23:
 7480 011a 6D626564 		.ascii	"mbedtls_sha512_starts\000"
 7480      746C735F 
 7480      73686135 
 7480      31325F73 
 7480      74617274 
 7481              	.LASF40:
 7482 0130 6D626564 		.ascii	"mbedtls_sha512_finish\000"
 7482      746C735F 
 7482      73686135 
ARM GAS  C:\Users\Phuong\AppData\Local\Temp\ccCGJz1B.s 			page 145


 7482      31325F66 
 7482      696E6973 
 7483              	.LASF6:
 7484 0146 6C6F6E67 		.ascii	"long unsigned int\000"
 7484      20756E73 
 7484      69676E65 
 7484      6420696E 
 7484      7400
 7485              	.LASF29:
 7486 0158 6D626564 		.ascii	"mbedtls_sha512_process\000"
 7486      746C735F 
 7486      73686135 
 7486      31325F70 
 7486      726F6365 
 7487              	.LASF61:
 7488 016f 5F5F6275 		.ascii	"__builtin_putchar\000"
 7488      696C7469 
 7488      6E5F7075 
 7488      74636861 
 7488      7200
 7489              	.LASF26:
 7490 0181 64617461 		.ascii	"data\000"
 7490      00
 7491              	.LASF4:
 7492 0186 73686F72 		.ascii	"short unsigned int\000"
 7492      7420756E 
 7492      7369676E 
 7492      65642069 
 7492      6E7400
 7493              	.LASF20:
 7494 0199 6D626564 		.ascii	"mbedtls_sha512_init\000"
 7494      746C735F 
 7494      73686135 
 7494      31325F69 
 7494      6E697400 
 7495              	.LASF41:
 7496 01ad 6D626564 		.ascii	"mbedtls_sha512_ret\000"
 7496      746C735F 
 7496      73686135 
 7496      31325F72 
 7496      657400
 7497              	.LASF43:
 7498 01c0 6D626564 		.ascii	"mbedtls_sha512_self_test\000"
 7498      746C735F 
 7498      73686135 
 7498      31325F73 
 7498      656C665F 
 7499              	.LASF21:
 7500 01d9 6D626564 		.ascii	"mbedtls_sha512_free\000"
 7500      746C735F 
 7500      73686135 
 7500      31325F66 
 7500      72656500 
 7501              	.LASF13:
 7502 01ed 746F7461 		.ascii	"total\000"
 7502      6C00
 7503              	.LASF22:
ARM GAS  C:\Users\Phuong\AppData\Local\Temp\ccCGJz1B.s 			page 146


 7504 01f3 6D626564 		.ascii	"mbedtls_sha512_clone\000"
 7504      746C735F 
 7504      73686135 
 7504      31325F63 
 7504      6C6F6E65 
 7505              	.LASF30:
 7506 0208 6D626564 		.ascii	"mbedtls_sha512_update_ret\000"
 7506      746C735F 
 7506      73686135 
 7506      31325F75 
 7506      70646174 
 7507              	.LASF37:
 7508 0222 6F757470 		.ascii	"output\000"
 7508      757400
 7509              	.LASF17:
 7510 0229 73697A65 		.ascii	"sizetype\000"
 7510      74797065 
 7510      00
 7511              	.LASF11:
 7512 0232 6C6F6E67 		.ascii	"long double\000"
 7512      20646F75 
 7512      626C6500 
 7513              	.LASF65:
 7514 023e 433A5C55 		.ascii	"C:\\Users\\Phuong\\Documents\\PSoC Creator\\Dec0820"
 7514      73657273 
 7514      5C506875 
 7514      6F6E675C 
 7514      446F6375 
 7515 026c 31385C69 		.ascii	"18\\iot-sdk-iot-dev\\PSOC6_FreeRTOS+LwIP+MbedTLS_Az"
 7515      6F742D73 
 7515      646B2D69 
 7515      6F742D64 
 7515      65765C50 
 7516 029d 7572652D 		.ascii	"ure-IOT-Hub-Demo\\PSOC6_FreeRTOS+LwIP+MbedTLS_Azure"
 7516      494F542D 
 7516      4875622D 
 7516      44656D6F 
 7516      5C50534F 
 7517 02cf 2D494F54 		.ascii	"-IOT-Hub-Demo.cydsn\000"
 7517      2D487562 
 7517      2D44656D 
 7517      6F2E6379 
 7517      64736E00 
 7518              	.LASF64:
 7519 02e3 536F7572 		.ascii	"Source\\mbedtls_open\\library\\sha512.c\000"
 7519      63655C6D 
 7519      62656474 
 7519      6C735F6F 
 7519      70656E5C 
 7520              	.LASF9:
 7521 0308 5F5F7569 		.ascii	"__uint64_t\000"
 7521      6E743634 
 7521      5F7400
 7522              	.LASF38:
 7523 0313 75736564 		.ascii	"used\000"
 7523      00
 7524              	.LASF2:
ARM GAS  C:\Users\Phuong\AppData\Local\Temp\ccCGJz1B.s 			page 147


 7525 0318 756E7369 		.ascii	"unsigned char\000"
 7525      676E6564 
 7525      20636861 
 7525      7200
 7526              	.LASF3:
 7527 0326 73686F72 		.ascii	"short int\000"
 7527      7420696E 
 7527      7400
 7528              	.LASF27:
 7529 0330 74656D70 		.ascii	"temp1\000"
 7529      3100
 7530              	.LASF28:
 7531 0336 74656D70 		.ascii	"temp2\000"
 7531      3200
 7532              	.LASF33:
 7533 033c 66696C6C 		.ascii	"fill\000"
 7533      00
 7534              	.LASF45:
 7535 0341 6275666C 		.ascii	"buflen\000"
 7535      656E00
 7536              	.LASF47:
 7537 0348 65786974 		.ascii	"exit\000"
 7537      00
 7538              	.LASF31:
 7539 034d 696E7075 		.ascii	"input\000"
 7539      7400
 7540              	.LASF42:
 7541 0353 6D626564 		.ascii	"mbedtls_sha512\000"
 7541      746C735F 
 7541      73686135 
 7541      313200
 7542              	.LASF48:
 7543 0362 6661696C 		.ascii	"fail\000"
 7543      00
 7544              	.LASF63:
 7545 0367 474E5520 		.ascii	"GNU C11 5.4.1 20160609 (release) [ARM/embedded-5-br"
 7545      43313120 
 7545      352E342E 
 7545      31203230 
 7545      31363036 
 7546 039a 616E6368 		.ascii	"anch revision 237715] -mcpu=cortex-m0plus -mthumb -"
 7546      20726576 
 7546      6973696F 
 7546      6E203233 
 7546      37373135 
 7547 03cd 67202D4F 		.ascii	"g -Og -ffunction-sections -ffat-lto-objects\000"
 7547      67202D66 
 7547      66756E63 
 7547      74696F6E 
 7547      2D736563 
 7548              	.LASF19:
 7549 03f9 63686172 		.ascii	"char\000"
 7549      00
 7550              	.LASF54:
 7551 03fe 6D626564 		.ascii	"mbedtls_platform_zeroize\000"
 7551      746C735F 
 7551      706C6174 
ARM GAS  C:\Users\Phuong\AppData\Local\Temp\ccCGJz1B.s 			page 148


 7551      666F726D 
 7551      5F7A6572 
 7552              	.LASF44:
 7553 0417 76657262 		.ascii	"verbose\000"
 7553      6F736500 
 7554              	.LASF15:
 7555 041f 62756666 		.ascii	"buffer\000"
 7555      657200
 7556              	.LASF39:
 7557 0426 68696768 		.ascii	"high\000"
 7557      00
 7558              	.LASF57:
 7559 042b 6D656D63 		.ascii	"memcmp\000"
 7559      6D7000
 7560              	.LASF24:
 7561 0432 6D626564 		.ascii	"mbedtls_sha512_starts_ret\000"
 7561      746C735F 
 7561      73686135 
 7561      31325F73 
 7561      74617274 
 7562              	.LASF18:
 7563 044c 6D626564 		.ascii	"mbedtls_sha512_context\000"
 7563      746C735F 
 7563      73686135 
 7563      31325F63 
 7563      6F6E7465 
 7564              	.LASF52:
 7565 0463 6D656D73 		.ascii	"memset\000"
 7565      657400
 7566              	.LASF55:
 7567 046a 63616C6C 		.ascii	"calloc\000"
 7567      6F6300
 7568              	.LASF32:
 7569 0471 696C656E 		.ascii	"ilen\000"
 7569      00
 7570              	.LASF58:
 7571 0476 70757473 		.ascii	"puts\000"
 7571      00
 7572              	.LASF34:
 7573 047b 6C656674 		.ascii	"left\000"
 7573      00
 7574              		.ident	"GCC: (GNU Tools for ARM Embedded Processors) 5.4.1 20160609 (release) [ARM/embedded-5-bran
