ARM GAS  C:\Users\Phuong\AppData\Local\Temp\ccqdt0Pq.s 			page 1


   1              		.syntax unified
   2              		.cpu cortex-m0plus
   3              		.fpu softvfp
   4              		.eabi_attribute 20, 1
   5              		.eabi_attribute 21, 1
   6              		.eabi_attribute 23, 3
   7              		.eabi_attribute 24, 1
   8              		.eabi_attribute 25, 1
   9              		.eabi_attribute 26, 1
  10              		.eabi_attribute 30, 1
  11              		.eabi_attribute 34, 0
  12              		.eabi_attribute 18, 4
  13              		.thumb
  14              		.syntax unified
  15              		.file	"singlylinkedlist.c"
  16              		.text
  17              	.Ltext0:
  18              		.cfi_sections	.debug_frame
  19              		.section	.text.singlylinkedlist_create,"ax",%progbits
  20              		.align	2
  21              		.global	singlylinkedlist_create
  22              		.code	16
  23              		.thumb_func
  24              		.type	singlylinkedlist_create, %function
  25              	singlylinkedlist_create:
  26              	.LFB1:
  27              		.file 1 "Source\\azure_iot_sdk\\c-utility\\src\\singlylinkedlist.c"
   1:Source\azure_iot_sdk\c-utility\src/singlylinkedlist.c **** // Copyright (c) Microsoft. All rights reserved.
   2:Source\azure_iot_sdk\c-utility\src/singlylinkedlist.c **** // Licensed under the MIT license. See LICENSE file in the project root for full license informatio
   3:Source\azure_iot_sdk\c-utility\src/singlylinkedlist.c **** 
   4:Source\azure_iot_sdk\c-utility\src/singlylinkedlist.c **** #include <stdlib.h>
   5:Source\azure_iot_sdk\c-utility\src/singlylinkedlist.c **** #include "azure_c_shared_utility/gballoc.h"
   6:Source\azure_iot_sdk\c-utility\src/singlylinkedlist.c **** #include "azure_c_shared_utility/singlylinkedlist.h"
   7:Source\azure_iot_sdk\c-utility\src/singlylinkedlist.c **** #include "azure_c_shared_utility/optimize_size.h"
   8:Source\azure_iot_sdk\c-utility\src/singlylinkedlist.c **** #include "azure_c_shared_utility/xlogging.h"
   9:Source\azure_iot_sdk\c-utility\src/singlylinkedlist.c **** 
  10:Source\azure_iot_sdk\c-utility\src/singlylinkedlist.c **** typedef struct LIST_ITEM_INSTANCE_TAG
  11:Source\azure_iot_sdk\c-utility\src/singlylinkedlist.c **** {
  12:Source\azure_iot_sdk\c-utility\src/singlylinkedlist.c ****     const void* item;
  13:Source\azure_iot_sdk\c-utility\src/singlylinkedlist.c ****     void* next;
  14:Source\azure_iot_sdk\c-utility\src/singlylinkedlist.c **** } LIST_ITEM_INSTANCE;
  15:Source\azure_iot_sdk\c-utility\src/singlylinkedlist.c **** 
  16:Source\azure_iot_sdk\c-utility\src/singlylinkedlist.c **** typedef struct SINGLYLINKEDLIST_INSTANCE_TAG
  17:Source\azure_iot_sdk\c-utility\src/singlylinkedlist.c **** {
  18:Source\azure_iot_sdk\c-utility\src/singlylinkedlist.c ****     LIST_ITEM_INSTANCE* head;
  19:Source\azure_iot_sdk\c-utility\src/singlylinkedlist.c ****     LIST_ITEM_INSTANCE* tail;
  20:Source\azure_iot_sdk\c-utility\src/singlylinkedlist.c **** } LIST_INSTANCE;
  21:Source\azure_iot_sdk\c-utility\src/singlylinkedlist.c **** 
  22:Source\azure_iot_sdk\c-utility\src/singlylinkedlist.c **** SINGLYLINKEDLIST_HANDLE singlylinkedlist_create(void)
  23:Source\azure_iot_sdk\c-utility\src/singlylinkedlist.c **** {
  28              		.loc 1 23 0
  29              		.cfi_startproc
  30              		@ args = 0, pretend = 0, frame = 0
  31              		@ frame_needed = 0, uses_anonymous_args = 0
  32 0000 10B5     		push	{r4, lr}
  33              		.cfi_def_cfa_offset 8
  34              		.cfi_offset 4, -8
ARM GAS  C:\Users\Phuong\AppData\Local\Temp\ccqdt0Pq.s 			page 2


  35              		.cfi_offset 14, -4
  24:Source\azure_iot_sdk\c-utility\src/singlylinkedlist.c ****     LIST_INSTANCE* result;
  25:Source\azure_iot_sdk\c-utility\src/singlylinkedlist.c **** 
  26:Source\azure_iot_sdk\c-utility\src/singlylinkedlist.c ****     /* Codes_SRS_LIST_01_001: [singlylinkedlist_create shall create a new list and return a non-NUL
  27:Source\azure_iot_sdk\c-utility\src/singlylinkedlist.c ****     result = (LIST_INSTANCE*)malloc(sizeof(LIST_INSTANCE));
  36              		.loc 1 27 0
  37 0002 0820     		movs	r0, #8
  38 0004 FFF7FEFF 		bl	malloc
  39              	.LVL0:
  28:Source\azure_iot_sdk\c-utility\src/singlylinkedlist.c ****     if (result != NULL)
  40              		.loc 1 28 0
  41 0008 0028     		cmp	r0, #0
  42 000a 02D0     		beq	.L2
  29:Source\azure_iot_sdk\c-utility\src/singlylinkedlist.c ****     {
  30:Source\azure_iot_sdk\c-utility\src/singlylinkedlist.c ****         /* Codes_SRS_LIST_01_002: [If any error occurs during the list creation, singlylinkedlist_c
  31:Source\azure_iot_sdk\c-utility\src/singlylinkedlist.c ****         result->head = NULL;
  43              		.loc 1 31 0
  44 000c 0023     		movs	r3, #0
  45 000e 0360     		str	r3, [r0]
  32:Source\azure_iot_sdk\c-utility\src/singlylinkedlist.c ****         result->tail = NULL;
  46              		.loc 1 32 0
  47 0010 4360     		str	r3, [r0, #4]
  48              	.L2:
  33:Source\azure_iot_sdk\c-utility\src/singlylinkedlist.c ****     }
  34:Source\azure_iot_sdk\c-utility\src/singlylinkedlist.c **** 
  35:Source\azure_iot_sdk\c-utility\src/singlylinkedlist.c ****     return result;
  36:Source\azure_iot_sdk\c-utility\src/singlylinkedlist.c **** }
  49              		.loc 1 36 0
  50              		@ sp needed
  51 0012 10BD     		pop	{r4, pc}
  52              		.cfi_endproc
  53              	.LFE1:
  54              		.size	singlylinkedlist_create, .-singlylinkedlist_create
  55              		.section	.text.singlylinkedlist_destroy,"ax",%progbits
  56              		.align	2
  57              		.global	singlylinkedlist_destroy
  58              		.code	16
  59              		.thumb_func
  60              		.type	singlylinkedlist_destroy, %function
  61              	singlylinkedlist_destroy:
  62              	.LFB2:
  37:Source\azure_iot_sdk\c-utility\src/singlylinkedlist.c **** 
  38:Source\azure_iot_sdk\c-utility\src/singlylinkedlist.c **** void singlylinkedlist_destroy(SINGLYLINKEDLIST_HANDLE list)
  39:Source\azure_iot_sdk\c-utility\src/singlylinkedlist.c **** {
  63              		.loc 1 39 0
  64              		.cfi_startproc
  65              		@ args = 0, pretend = 0, frame = 0
  66              		@ frame_needed = 0, uses_anonymous_args = 0
  67              	.LVL1:
  68 0000 10B5     		push	{r4, lr}
  69              		.cfi_def_cfa_offset 8
  70              		.cfi_offset 4, -8
  71              		.cfi_offset 14, -4
  72 0002 041E     		subs	r4, r0, #0
  40:Source\azure_iot_sdk\c-utility\src/singlylinkedlist.c ****     /* Codes_SRS_LIST_01_004: [If the list argument is NULL, no freeing of resources shall occur.] 
  41:Source\azure_iot_sdk\c-utility\src/singlylinkedlist.c ****     if (list != NULL)
  73              		.loc 1 41 0
ARM GAS  C:\Users\Phuong\AppData\Local\Temp\ccqdt0Pq.s 			page 3


  74 0004 04D1     		bne	.L4
  75 0006 09E0     		b	.L3
  76              	.LVL2:
  77              	.L6:
  78              	.LBB2:
  79              	.LBB3:
  42:Source\azure_iot_sdk\c-utility\src/singlylinkedlist.c ****     {
  43:Source\azure_iot_sdk\c-utility\src/singlylinkedlist.c ****         LIST_INSTANCE* list_instance = (LIST_INSTANCE*)list;
  44:Source\azure_iot_sdk\c-utility\src/singlylinkedlist.c **** 
  45:Source\azure_iot_sdk\c-utility\src/singlylinkedlist.c ****         while (list_instance->head != NULL)
  46:Source\azure_iot_sdk\c-utility\src/singlylinkedlist.c ****         {
  47:Source\azure_iot_sdk\c-utility\src/singlylinkedlist.c ****             LIST_ITEM_INSTANCE* current_item = list_instance->head;
  48:Source\azure_iot_sdk\c-utility\src/singlylinkedlist.c ****             list_instance->head = (LIST_ITEM_INSTANCE*)current_item->next;
  80              		.loc 1 48 0
  81 0008 4368     		ldr	r3, [r0, #4]
  82 000a 2360     		str	r3, [r4]
  49:Source\azure_iot_sdk\c-utility\src/singlylinkedlist.c ****             free(current_item);
  83              		.loc 1 49 0
  84 000c FFF7FEFF 		bl	free
  85              	.LVL3:
  86              	.L4:
  87              	.LBE3:
  45:Source\azure_iot_sdk\c-utility\src/singlylinkedlist.c ****         {
  88              		.loc 1 45 0
  89 0010 2068     		ldr	r0, [r4]
  90 0012 0028     		cmp	r0, #0
  91 0014 F8D1     		bne	.L6
  50:Source\azure_iot_sdk\c-utility\src/singlylinkedlist.c ****         }
  51:Source\azure_iot_sdk\c-utility\src/singlylinkedlist.c **** 
  52:Source\azure_iot_sdk\c-utility\src/singlylinkedlist.c ****         /* Codes_SRS_LIST_01_003: [singlylinkedlist_destroy shall free all resources associated wit
  53:Source\azure_iot_sdk\c-utility\src/singlylinkedlist.c ****         free(list_instance);
  92              		.loc 1 53 0
  93 0016 2000     		movs	r0, r4
  94 0018 FFF7FEFF 		bl	free
  95              	.LVL4:
  96              	.L3:
  97              	.LBE2:
  54:Source\azure_iot_sdk\c-utility\src/singlylinkedlist.c ****     }
  55:Source\azure_iot_sdk\c-utility\src/singlylinkedlist.c **** }
  98              		.loc 1 55 0
  99              		@ sp needed
 100              	.LVL5:
 101 001c 10BD     		pop	{r4, pc}
 102              		.cfi_endproc
 103              	.LFE2:
 104              		.size	singlylinkedlist_destroy, .-singlylinkedlist_destroy
 105 001e C046     		.section	.text.singlylinkedlist_add,"ax",%progbits
 106              		.align	2
 107              		.global	singlylinkedlist_add
 108              		.code	16
 109              		.thumb_func
 110              		.type	singlylinkedlist_add, %function
 111              	singlylinkedlist_add:
 112              	.LFB3:
  56:Source\azure_iot_sdk\c-utility\src/singlylinkedlist.c **** 
  57:Source\azure_iot_sdk\c-utility\src/singlylinkedlist.c **** LIST_ITEM_HANDLE singlylinkedlist_add(SINGLYLINKEDLIST_HANDLE list, const void* item)
  58:Source\azure_iot_sdk\c-utility\src/singlylinkedlist.c **** {
ARM GAS  C:\Users\Phuong\AppData\Local\Temp\ccqdt0Pq.s 			page 4


 113              		.loc 1 58 0
 114              		.cfi_startproc
 115              		@ args = 0, pretend = 0, frame = 0
 116              		@ frame_needed = 0, uses_anonymous_args = 0
 117              	.LVL6:
 118 0000 70B5     		push	{r4, r5, r6, lr}
 119              		.cfi_def_cfa_offset 16
 120              		.cfi_offset 4, -16
 121              		.cfi_offset 5, -12
 122              		.cfi_offset 6, -8
 123              		.cfi_offset 14, -4
 124 0002 84B0     		sub	sp, sp, #16
 125              		.cfi_def_cfa_offset 32
 126 0004 0400     		movs	r4, r0
 127 0006 0D00     		movs	r5, r1
  59:Source\azure_iot_sdk\c-utility\src/singlylinkedlist.c ****     LIST_ITEM_INSTANCE* result;
  60:Source\azure_iot_sdk\c-utility\src/singlylinkedlist.c **** 
  61:Source\azure_iot_sdk\c-utility\src/singlylinkedlist.c ****     /* Codes_SRS_LIST_01_006: [If any of the arguments is NULL, singlylinkedlist_add shall not add 
  62:Source\azure_iot_sdk\c-utility\src/singlylinkedlist.c ****     if ((list == NULL) ||
 128              		.loc 1 62 0
 129 0008 0028     		cmp	r0, #0
 130 000a 01D0     		beq	.L8
 131              		.loc 1 62 0 is_stmt 0 discriminator 1
 132 000c 0029     		cmp	r1, #0
 133 000e 10D1     		bne	.L9
 134              	.L8:
 135              	.LBB4:
  63:Source\azure_iot_sdk\c-utility\src/singlylinkedlist.c ****         (item == NULL))
  64:Source\azure_iot_sdk\c-utility\src/singlylinkedlist.c ****     {
  65:Source\azure_iot_sdk\c-utility\src/singlylinkedlist.c ****         LogError("Invalid argument (list=%p, item=%p)", list, item);
 136              		.loc 1 65 0 is_stmt 1 discriminator 3
 137 0010 FFF7FEFF 		bl	xlogging_get_log_function
 138              	.LVL7:
 139 0014 061E     		subs	r6, r0, #0
 140              	.LVL8:
 141 0016 1ED0     		beq	.L12
 142              		.loc 1 65 0 is_stmt 0 discriminator 4
 143 0018 0395     		str	r5, [sp, #12]
 144 001a 0294     		str	r4, [sp, #8]
 145 001c 0F4B     		ldr	r3, .L13
 146 001e 0193     		str	r3, [sp, #4]
 147 0020 0123     		movs	r3, #1
 148 0022 0093     		str	r3, [sp]
 149 0024 4033     		adds	r3, r3, #64
 150 0026 0E4A     		ldr	r2, .L13+4
 151 0028 0E49     		ldr	r1, .L13+8
 152 002a 0020     		movs	r0, #0
 153              	.LVL9:
 154 002c B047     		blx	r6
 155              	.LVL10:
 156              	.LBE4:
  66:Source\azure_iot_sdk\c-utility\src/singlylinkedlist.c ****         result = NULL;
 157              		.loc 1 66 0 is_stmt 1 discriminator 4
 158 002e 0020     		movs	r0, #0
 159 0030 12E0     		b	.L10
 160              	.LVL11:
 161              	.L9:
ARM GAS  C:\Users\Phuong\AppData\Local\Temp\ccqdt0Pq.s 			page 5


 162              	.LBB5:
  67:Source\azure_iot_sdk\c-utility\src/singlylinkedlist.c ****     }
  68:Source\azure_iot_sdk\c-utility\src/singlylinkedlist.c ****     else
  69:Source\azure_iot_sdk\c-utility\src/singlylinkedlist.c ****     {
  70:Source\azure_iot_sdk\c-utility\src/singlylinkedlist.c ****         LIST_INSTANCE* list_instance = (LIST_INSTANCE*)list;
  71:Source\azure_iot_sdk\c-utility\src/singlylinkedlist.c ****         result = (LIST_ITEM_INSTANCE*)malloc(sizeof(LIST_ITEM_INSTANCE));
 163              		.loc 1 71 0
 164 0032 0820     		movs	r0, #8
 165              	.LVL12:
 166 0034 FFF7FEFF 		bl	malloc
 167              	.LVL13:
  72:Source\azure_iot_sdk\c-utility\src/singlylinkedlist.c **** 
  73:Source\azure_iot_sdk\c-utility\src/singlylinkedlist.c ****         if (result == NULL)
 168              		.loc 1 73 0
 169 0038 0028     		cmp	r0, #0
 170 003a 0DD0     		beq	.L10
  74:Source\azure_iot_sdk\c-utility\src/singlylinkedlist.c ****         {
  75:Source\azure_iot_sdk\c-utility\src/singlylinkedlist.c ****             /* Codes_SRS_LIST_01_007: [If allocating the new list node fails, singlylinkedlist_add 
  76:Source\azure_iot_sdk\c-utility\src/singlylinkedlist.c ****             /*return as is*/
  77:Source\azure_iot_sdk\c-utility\src/singlylinkedlist.c ****         }
  78:Source\azure_iot_sdk\c-utility\src/singlylinkedlist.c ****         else
  79:Source\azure_iot_sdk\c-utility\src/singlylinkedlist.c ****         {
  80:Source\azure_iot_sdk\c-utility\src/singlylinkedlist.c ****             /* Codes_SRS_LIST_01_005: [singlylinkedlist_add shall add one item to the tail of the l
  81:Source\azure_iot_sdk\c-utility\src/singlylinkedlist.c ****             result->next = NULL;
 171              		.loc 1 81 0
 172 003c 0023     		movs	r3, #0
 173 003e 4360     		str	r3, [r0, #4]
  82:Source\azure_iot_sdk\c-utility\src/singlylinkedlist.c ****             result->item = item;
 174              		.loc 1 82 0
 175 0040 0560     		str	r5, [r0]
  83:Source\azure_iot_sdk\c-utility\src/singlylinkedlist.c **** 
  84:Source\azure_iot_sdk\c-utility\src/singlylinkedlist.c ****             if (list_instance->head == NULL)
 176              		.loc 1 84 0
 177 0042 2368     		ldr	r3, [r4]
 178 0044 002B     		cmp	r3, #0
 179 0046 02D1     		bne	.L11
  85:Source\azure_iot_sdk\c-utility\src/singlylinkedlist.c ****             {
  86:Source\azure_iot_sdk\c-utility\src/singlylinkedlist.c ****                 list_instance->head = result;
 180              		.loc 1 86 0
 181 0048 2060     		str	r0, [r4]
  87:Source\azure_iot_sdk\c-utility\src/singlylinkedlist.c ****                 list_instance->tail = result;
 182              		.loc 1 87 0
 183 004a 6060     		str	r0, [r4, #4]
 184 004c 04E0     		b	.L10
 185              	.L11:
  88:Source\azure_iot_sdk\c-utility\src/singlylinkedlist.c ****             }
  89:Source\azure_iot_sdk\c-utility\src/singlylinkedlist.c ****             else
  90:Source\azure_iot_sdk\c-utility\src/singlylinkedlist.c ****             {
  91:Source\azure_iot_sdk\c-utility\src/singlylinkedlist.c ****                 list_instance->tail->next = result;
 186              		.loc 1 91 0
 187 004e 6368     		ldr	r3, [r4, #4]
 188 0050 5860     		str	r0, [r3, #4]
  92:Source\azure_iot_sdk\c-utility\src/singlylinkedlist.c ****                 list_instance->tail = result;
 189              		.loc 1 92 0
 190 0052 6060     		str	r0, [r4, #4]
 191 0054 00E0     		b	.L10
 192              	.LVL14:
ARM GAS  C:\Users\Phuong\AppData\Local\Temp\ccqdt0Pq.s 			page 6


 193              	.L12:
 194              	.LBE5:
  66:Source\azure_iot_sdk\c-utility\src/singlylinkedlist.c ****     }
 195              		.loc 1 66 0
 196 0056 0020     		movs	r0, #0
 197              	.LVL15:
 198              	.L10:
  93:Source\azure_iot_sdk\c-utility\src/singlylinkedlist.c ****             }
  94:Source\azure_iot_sdk\c-utility\src/singlylinkedlist.c ****         }
  95:Source\azure_iot_sdk\c-utility\src/singlylinkedlist.c ****     }
  96:Source\azure_iot_sdk\c-utility\src/singlylinkedlist.c **** 
  97:Source\azure_iot_sdk\c-utility\src/singlylinkedlist.c ****     return result;
  98:Source\azure_iot_sdk\c-utility\src/singlylinkedlist.c **** }
 199              		.loc 1 98 0
 200 0058 04B0     		add	sp, sp, #16
 201              		@ sp needed
 202              	.LVL16:
 203              	.LVL17:
 204 005a 70BD     		pop	{r4, r5, r6, pc}
 205              	.L14:
 206              		.align	2
 207              	.L13:
 208 005c 38000000 		.word	.LC3
 209 0060 00000000 		.word	.LANCHOR0
 210 0064 00000000 		.word	.LC1
 211              		.cfi_endproc
 212              	.LFE3:
 213              		.size	singlylinkedlist_add, .-singlylinkedlist_add
 214              		.section	.text.singlylinkedlist_remove,"ax",%progbits
 215              		.align	2
 216              		.global	singlylinkedlist_remove
 217              		.code	16
 218              		.thumb_func
 219              		.type	singlylinkedlist_remove, %function
 220              	singlylinkedlist_remove:
 221              	.LFB4:
  99:Source\azure_iot_sdk\c-utility\src/singlylinkedlist.c **** 
 100:Source\azure_iot_sdk\c-utility\src/singlylinkedlist.c **** int singlylinkedlist_remove(SINGLYLINKEDLIST_HANDLE list, LIST_ITEM_HANDLE item)
 101:Source\azure_iot_sdk\c-utility\src/singlylinkedlist.c **** {
 222              		.loc 1 101 0
 223              		.cfi_startproc
 224              		@ args = 0, pretend = 0, frame = 0
 225              		@ frame_needed = 0, uses_anonymous_args = 0
 226              	.LVL18:
 227 0000 70B5     		push	{r4, r5, r6, lr}
 228              		.cfi_def_cfa_offset 16
 229              		.cfi_offset 4, -16
 230              		.cfi_offset 5, -12
 231              		.cfi_offset 6, -8
 232              		.cfi_offset 14, -4
 233 0002 84B0     		sub	sp, sp, #16
 234              		.cfi_def_cfa_offset 32
 235 0004 0600     		movs	r6, r0
 236 0006 0D00     		movs	r5, r1
 102:Source\azure_iot_sdk\c-utility\src/singlylinkedlist.c ****     int result;
 103:Source\azure_iot_sdk\c-utility\src/singlylinkedlist.c **** 
 104:Source\azure_iot_sdk\c-utility\src/singlylinkedlist.c ****     /* Codes_SRS_LIST_01_024: [If any of the arguments list or item_handle is NULL, singlylinkedlis
ARM GAS  C:\Users\Phuong\AppData\Local\Temp\ccqdt0Pq.s 			page 7


 105:Source\azure_iot_sdk\c-utility\src/singlylinkedlist.c ****     if ((list == NULL) ||
 237              		.loc 1 105 0
 238 0008 0028     		cmp	r0, #0
 239 000a 01D0     		beq	.L16
 240              		.loc 1 105 0 is_stmt 0 discriminator 1
 241 000c 0029     		cmp	r1, #0
 242 000e 11D1     		bne	.L17
 243              	.L16:
 244              	.LBB6:
 106:Source\azure_iot_sdk\c-utility\src/singlylinkedlist.c ****         (item == NULL))
 107:Source\azure_iot_sdk\c-utility\src/singlylinkedlist.c ****     {
 108:Source\azure_iot_sdk\c-utility\src/singlylinkedlist.c ****         LogError("Invalid argument (list=%p, item=%p)", list, item);
 245              		.loc 1 108 0 is_stmt 1 discriminator 3
 246 0010 FFF7FEFF 		bl	xlogging_get_log_function
 247              	.LVL19:
 248 0014 041E     		subs	r4, r0, #0
 249              	.LVL20:
 250 0016 29D0     		beq	.L26
 251              		.loc 1 108 0 is_stmt 0 discriminator 4
 252 0018 0395     		str	r5, [sp, #12]
 253 001a 0296     		str	r6, [sp, #8]
 254 001c 164B     		ldr	r3, .L28
 255 001e 0193     		str	r3, [sp, #4]
 256 0020 0123     		movs	r3, #1
 257 0022 0093     		str	r3, [sp]
 258 0024 6B33     		adds	r3, r3, #107
 259 0026 154A     		ldr	r2, .L28+4
 260 0028 1832     		adds	r2, r2, #24
 261 002a 1549     		ldr	r1, .L28+8
 262 002c 0020     		movs	r0, #0
 263              	.LVL21:
 264 002e A047     		blx	r4
 265              	.LVL22:
 266              	.LBE6:
 109:Source\azure_iot_sdk\c-utility\src/singlylinkedlist.c ****         result = __FAILURE__;
 267              		.loc 1 109 0 is_stmt 1 discriminator 4
 268 0030 6D20     		movs	r0, #109
 269 0032 1EE0     		b	.L18
 270              	.LVL23:
 271              	.L17:
 272              	.LBB7:
 110:Source\azure_iot_sdk\c-utility\src/singlylinkedlist.c ****     }
 111:Source\azure_iot_sdk\c-utility\src/singlylinkedlist.c ****     else
 112:Source\azure_iot_sdk\c-utility\src/singlylinkedlist.c ****     {
 113:Source\azure_iot_sdk\c-utility\src/singlylinkedlist.c ****         LIST_INSTANCE* list_instance = (LIST_INSTANCE*)list;
 114:Source\azure_iot_sdk\c-utility\src/singlylinkedlist.c ****         LIST_ITEM_INSTANCE* current_item = list_instance->head;
 273              		.loc 1 114 0
 274 0034 0468     		ldr	r4, [r0]
 275              	.LVL24:
 115:Source\azure_iot_sdk\c-utility\src/singlylinkedlist.c ****         LIST_ITEM_INSTANCE* previous_item = NULL;
 276              		.loc 1 115 0
 277 0036 0023     		movs	r3, #0
 116:Source\azure_iot_sdk\c-utility\src/singlylinkedlist.c **** 
 117:Source\azure_iot_sdk\c-utility\src/singlylinkedlist.c ****         while (current_item != NULL)
 278              		.loc 1 117 0
 279 0038 12E0     		b	.L19
 280              	.LVL25:
ARM GAS  C:\Users\Phuong\AppData\Local\Temp\ccqdt0Pq.s 			page 8


 281              	.L25:
 118:Source\azure_iot_sdk\c-utility\src/singlylinkedlist.c ****         {
 119:Source\azure_iot_sdk\c-utility\src/singlylinkedlist.c ****             if (current_item == item)
 282              		.loc 1 119 0
 283 003a AC42     		cmp	r4, r5
 284 003c 0ED1     		bne	.L20
 120:Source\azure_iot_sdk\c-utility\src/singlylinkedlist.c ****             {
 121:Source\azure_iot_sdk\c-utility\src/singlylinkedlist.c ****                 if (previous_item != NULL)
 285              		.loc 1 121 0
 286 003e 002B     		cmp	r3, #0
 287 0040 02D0     		beq	.L21
 122:Source\azure_iot_sdk\c-utility\src/singlylinkedlist.c ****                 {
 123:Source\azure_iot_sdk\c-utility\src/singlylinkedlist.c ****                     previous_item->next = current_item->next;
 288              		.loc 1 123 0
 289 0042 6268     		ldr	r2, [r4, #4]
 290 0044 5A60     		str	r2, [r3, #4]
 291 0046 01E0     		b	.L22
 292              	.L21:
 124:Source\azure_iot_sdk\c-utility\src/singlylinkedlist.c ****                 }
 125:Source\azure_iot_sdk\c-utility\src/singlylinkedlist.c ****                 else
 126:Source\azure_iot_sdk\c-utility\src/singlylinkedlist.c ****                 {
 127:Source\azure_iot_sdk\c-utility\src/singlylinkedlist.c ****                     list_instance->head = (LIST_ITEM_INSTANCE*)current_item->next;
 293              		.loc 1 127 0
 294 0048 6268     		ldr	r2, [r4, #4]
 295 004a 3260     		str	r2, [r6]
 296              	.L22:
 128:Source\azure_iot_sdk\c-utility\src/singlylinkedlist.c ****                 }
 129:Source\azure_iot_sdk\c-utility\src/singlylinkedlist.c **** 
 130:Source\azure_iot_sdk\c-utility\src/singlylinkedlist.c ****                 if (current_item == list_instance->tail)
 297              		.loc 1 130 0
 298 004c 7268     		ldr	r2, [r6, #4]
 299 004e 9442     		cmp	r4, r2
 300 0050 00D1     		bne	.L23
 131:Source\azure_iot_sdk\c-utility\src/singlylinkedlist.c ****                 {
 132:Source\azure_iot_sdk\c-utility\src/singlylinkedlist.c ****                     list_instance->tail = previous_item;
 301              		.loc 1 132 0
 302 0052 7360     		str	r3, [r6, #4]
 303              	.L23:
 133:Source\azure_iot_sdk\c-utility\src/singlylinkedlist.c ****                 }
 134:Source\azure_iot_sdk\c-utility\src/singlylinkedlist.c **** 
 135:Source\azure_iot_sdk\c-utility\src/singlylinkedlist.c ****                 free(current_item);
 304              		.loc 1 135 0
 305 0054 2000     		movs	r0, r4
 306              	.LVL26:
 307 0056 FFF7FEFF 		bl	free
 308              	.LVL27:
 136:Source\azure_iot_sdk\c-utility\src/singlylinkedlist.c **** 
 137:Source\azure_iot_sdk\c-utility\src/singlylinkedlist.c ****                 break;
 309              		.loc 1 137 0
 310 005a 03E0     		b	.L24
 311              	.LVL28:
 312              	.L20:
 138:Source\azure_iot_sdk\c-utility\src/singlylinkedlist.c ****             }
 139:Source\azure_iot_sdk\c-utility\src/singlylinkedlist.c **** 
 140:Source\azure_iot_sdk\c-utility\src/singlylinkedlist.c ****             previous_item = current_item;
 313              		.loc 1 140 0
 314 005c 2300     		movs	r3, r4
ARM GAS  C:\Users\Phuong\AppData\Local\Temp\ccqdt0Pq.s 			page 9


 141:Source\azure_iot_sdk\c-utility\src/singlylinkedlist.c ****             current_item = (LIST_ITEM_INSTANCE*)current_item->next;
 315              		.loc 1 141 0
 316 005e 6468     		ldr	r4, [r4, #4]
 317              	.LVL29:
 318              	.L19:
 117:Source\azure_iot_sdk\c-utility\src/singlylinkedlist.c ****         {
 319              		.loc 1 117 0
 320 0060 002C     		cmp	r4, #0
 321 0062 EAD1     		bne	.L25
 322              	.LVL30:
 323              	.L24:
 142:Source\azure_iot_sdk\c-utility\src/singlylinkedlist.c ****         }
 143:Source\azure_iot_sdk\c-utility\src/singlylinkedlist.c **** 
 144:Source\azure_iot_sdk\c-utility\src/singlylinkedlist.c ****         if (current_item == NULL)
 324              		.loc 1 144 0
 325 0064 002C     		cmp	r4, #0
 326 0066 03D1     		bne	.L27
 145:Source\azure_iot_sdk\c-utility\src/singlylinkedlist.c ****         {
 146:Source\azure_iot_sdk\c-utility\src/singlylinkedlist.c ****             /* Codes_SRS_LIST_01_025: [If the item item_handle is not found in the list, then singl
 147:Source\azure_iot_sdk\c-utility\src/singlylinkedlist.c ****             result = __FAILURE__;
 327              		.loc 1 147 0
 328 0068 9320     		movs	r0, #147
 329 006a 02E0     		b	.L18
 330              	.LVL31:
 331              	.L26:
 332              	.LBE7:
 109:Source\azure_iot_sdk\c-utility\src/singlylinkedlist.c ****     }
 333              		.loc 1 109 0
 334 006c 6D20     		movs	r0, #109
 335              	.LVL32:
 336 006e 00E0     		b	.L18
 337              	.LVL33:
 338              	.L27:
 339              	.LBB8:
 148:Source\azure_iot_sdk\c-utility\src/singlylinkedlist.c ****         }
 149:Source\azure_iot_sdk\c-utility\src/singlylinkedlist.c ****         else
 150:Source\azure_iot_sdk\c-utility\src/singlylinkedlist.c ****         {
 151:Source\azure_iot_sdk\c-utility\src/singlylinkedlist.c ****             /* Codes_SRS_LIST_01_023: [singlylinkedlist_remove shall remove a list item from the li
 152:Source\azure_iot_sdk\c-utility\src/singlylinkedlist.c ****             result = 0;
 340              		.loc 1 152 0
 341 0070 0020     		movs	r0, #0
 342              	.LVL34:
 343              	.L18:
 344              	.LBE8:
 153:Source\azure_iot_sdk\c-utility\src/singlylinkedlist.c ****         }
 154:Source\azure_iot_sdk\c-utility\src/singlylinkedlist.c ****     }
 155:Source\azure_iot_sdk\c-utility\src/singlylinkedlist.c **** 
 156:Source\azure_iot_sdk\c-utility\src/singlylinkedlist.c ****     return result;
 157:Source\azure_iot_sdk\c-utility\src/singlylinkedlist.c **** }
 345              		.loc 1 157 0
 346 0072 04B0     		add	sp, sp, #16
 347              		@ sp needed
 348              	.LVL35:
 349              	.LVL36:
 350 0074 70BD     		pop	{r4, r5, r6, pc}
 351              	.L29:
 352 0076 C046     		.align	2
ARM GAS  C:\Users\Phuong\AppData\Local\Temp\ccqdt0Pq.s 			page 10


 353              	.L28:
 354 0078 38000000 		.word	.LC3
 355 007c 00000000 		.word	.LANCHOR0
 356 0080 00000000 		.word	.LC1
 357              		.cfi_endproc
 358              	.LFE4:
 359              		.size	singlylinkedlist_remove, .-singlylinkedlist_remove
 360              		.section	.text.singlylinkedlist_get_head_item,"ax",%progbits
 361              		.align	2
 362              		.global	singlylinkedlist_get_head_item
 363              		.code	16
 364              		.thumb_func
 365              		.type	singlylinkedlist_get_head_item, %function
 366              	singlylinkedlist_get_head_item:
 367              	.LFB5:
 158:Source\azure_iot_sdk\c-utility\src/singlylinkedlist.c **** 
 159:Source\azure_iot_sdk\c-utility\src/singlylinkedlist.c **** LIST_ITEM_HANDLE singlylinkedlist_get_head_item(SINGLYLINKEDLIST_HANDLE list)
 160:Source\azure_iot_sdk\c-utility\src/singlylinkedlist.c **** {
 368              		.loc 1 160 0
 369              		.cfi_startproc
 370              		@ args = 0, pretend = 0, frame = 0
 371              		@ frame_needed = 0, uses_anonymous_args = 0
 372              	.LVL37:
 373 0000 10B5     		push	{r4, lr}
 374              		.cfi_def_cfa_offset 8
 375              		.cfi_offset 4, -8
 376              		.cfi_offset 14, -4
 377 0002 82B0     		sub	sp, sp, #8
 378              		.cfi_def_cfa_offset 16
 161:Source\azure_iot_sdk\c-utility\src/singlylinkedlist.c ****     LIST_ITEM_HANDLE result;
 162:Source\azure_iot_sdk\c-utility\src/singlylinkedlist.c **** 
 163:Source\azure_iot_sdk\c-utility\src/singlylinkedlist.c ****     if (list == NULL)
 379              		.loc 1 163 0
 380 0004 0028     		cmp	r0, #0
 381 0006 0FD1     		bne	.L31
 382              	.LBB9:
 164:Source\azure_iot_sdk\c-utility\src/singlylinkedlist.c ****     {
 165:Source\azure_iot_sdk\c-utility\src/singlylinkedlist.c ****         /* Codes_SRS_LIST_01_009: [If the list argument is NULL, singlylinkedlist_get_head_item sha
 166:Source\azure_iot_sdk\c-utility\src/singlylinkedlist.c ****         LogError("Invalid argument (list=NULL)");
 383              		.loc 1 166 0 discriminator 3
 384 0008 FFF7FEFF 		bl	xlogging_get_log_function
 385              	.LVL38:
 386 000c 041E     		subs	r4, r0, #0
 387              	.LVL39:
 388 000e 0DD0     		beq	.L33
 389              		.loc 1 166 0 is_stmt 0 discriminator 4
 390 0010 084B     		ldr	r3, .L34
 391 0012 0193     		str	r3, [sp, #4]
 392 0014 0123     		movs	r3, #1
 393 0016 0093     		str	r3, [sp]
 394 0018 A533     		adds	r3, r3, #165
 395 001a 074A     		ldr	r2, .L34+4
 396 001c 3032     		adds	r2, r2, #48
 397 001e 0749     		ldr	r1, .L34+8
 398 0020 0020     		movs	r0, #0
 399              	.LVL40:
 400 0022 A047     		blx	r4
ARM GAS  C:\Users\Phuong\AppData\Local\Temp\ccqdt0Pq.s 			page 11


 401              	.LVL41:
 402              	.LBE9:
 167:Source\azure_iot_sdk\c-utility\src/singlylinkedlist.c ****         result = NULL;
 403              		.loc 1 167 0 is_stmt 1 discriminator 4
 404 0024 0020     		movs	r0, #0
 405 0026 02E0     		b	.L32
 406              	.LVL42:
 407              	.L31:
 408              	.LBB10:
 168:Source\azure_iot_sdk\c-utility\src/singlylinkedlist.c ****     }
 169:Source\azure_iot_sdk\c-utility\src/singlylinkedlist.c ****     else
 170:Source\azure_iot_sdk\c-utility\src/singlylinkedlist.c ****     {
 171:Source\azure_iot_sdk\c-utility\src/singlylinkedlist.c ****         LIST_INSTANCE* list_instance = (LIST_INSTANCE*)list;
 172:Source\azure_iot_sdk\c-utility\src/singlylinkedlist.c **** 
 173:Source\azure_iot_sdk\c-utility\src/singlylinkedlist.c ****         /* Codes_SRS_LIST_01_008: [singlylinkedlist_get_head_item shall return the head of the list
 174:Source\azure_iot_sdk\c-utility\src/singlylinkedlist.c ****         /* Codes_SRS_LIST_01_010: [If the list is empty, singlylinkedlist_get_head_item_shall_retur
 175:Source\azure_iot_sdk\c-utility\src/singlylinkedlist.c ****         result = list_instance->head;
 409              		.loc 1 175 0
 410 0028 0068     		ldr	r0, [r0]
 411              	.LVL43:
 412 002a 00E0     		b	.L32
 413              	.LVL44:
 414              	.L33:
 415              	.LBE10:
 167:Source\azure_iot_sdk\c-utility\src/singlylinkedlist.c ****         result = NULL;
 416              		.loc 1 167 0
 417 002c 0020     		movs	r0, #0
 418              	.LVL45:
 419              	.L32:
 176:Source\azure_iot_sdk\c-utility\src/singlylinkedlist.c ****     }
 177:Source\azure_iot_sdk\c-utility\src/singlylinkedlist.c **** 
 178:Source\azure_iot_sdk\c-utility\src/singlylinkedlist.c ****     return result;
 179:Source\azure_iot_sdk\c-utility\src/singlylinkedlist.c **** }
 420              		.loc 1 179 0
 421 002e 02B0     		add	sp, sp, #8
 422              		@ sp needed
 423 0030 10BD     		pop	{r4, pc}
 424              	.L35:
 425 0032 C046     		.align	2
 426              	.L34:
 427 0034 5C000000 		.word	.LC10
 428 0038 00000000 		.word	.LANCHOR0
 429 003c 00000000 		.word	.LC1
 430              		.cfi_endproc
 431              	.LFE5:
 432              		.size	singlylinkedlist_get_head_item, .-singlylinkedlist_get_head_item
 433              		.section	.text.singlylinkedlist_get_next_item,"ax",%progbits
 434              		.align	2
 435              		.global	singlylinkedlist_get_next_item
 436              		.code	16
 437              		.thumb_func
 438              		.type	singlylinkedlist_get_next_item, %function
 439              	singlylinkedlist_get_next_item:
 440              	.LFB6:
 180:Source\azure_iot_sdk\c-utility\src/singlylinkedlist.c **** 
 181:Source\azure_iot_sdk\c-utility\src/singlylinkedlist.c **** LIST_ITEM_HANDLE singlylinkedlist_get_next_item(LIST_ITEM_HANDLE item_handle)
 182:Source\azure_iot_sdk\c-utility\src/singlylinkedlist.c **** {
ARM GAS  C:\Users\Phuong\AppData\Local\Temp\ccqdt0Pq.s 			page 12


 441              		.loc 1 182 0
 442              		.cfi_startproc
 443              		@ args = 0, pretend = 0, frame = 0
 444              		@ frame_needed = 0, uses_anonymous_args = 0
 445              	.LVL46:
 446 0000 10B5     		push	{r4, lr}
 447              		.cfi_def_cfa_offset 8
 448              		.cfi_offset 4, -8
 449              		.cfi_offset 14, -4
 450 0002 82B0     		sub	sp, sp, #8
 451              		.cfi_def_cfa_offset 16
 183:Source\azure_iot_sdk\c-utility\src/singlylinkedlist.c ****     LIST_ITEM_HANDLE result;
 184:Source\azure_iot_sdk\c-utility\src/singlylinkedlist.c **** 
 185:Source\azure_iot_sdk\c-utility\src/singlylinkedlist.c ****     if (item_handle == NULL)
 452              		.loc 1 185 0
 453 0004 0028     		cmp	r0, #0
 454 0006 0FD1     		bne	.L37
 455              	.LBB11:
 186:Source\azure_iot_sdk\c-utility\src/singlylinkedlist.c ****     {
 187:Source\azure_iot_sdk\c-utility\src/singlylinkedlist.c ****         LogError("Invalid argument (list is NULL)");
 456              		.loc 1 187 0 discriminator 3
 457 0008 FFF7FEFF 		bl	xlogging_get_log_function
 458              	.LVL47:
 459 000c 041E     		subs	r4, r0, #0
 460              	.LVL48:
 461 000e 0DD0     		beq	.L39
 462              		.loc 1 187 0 is_stmt 0 discriminator 4
 463 0010 084B     		ldr	r3, .L40
 464 0012 0193     		str	r3, [sp, #4]
 465 0014 0123     		movs	r3, #1
 466 0016 0093     		str	r3, [sp]
 467 0018 BA33     		adds	r3, r3, #186
 468 001a 074A     		ldr	r2, .L40+4
 469 001c 5032     		adds	r2, r2, #80
 470 001e 0749     		ldr	r1, .L40+8
 471 0020 0020     		movs	r0, #0
 472              	.LVL49:
 473 0022 A047     		blx	r4
 474              	.LVL50:
 475              	.LBE11:
 188:Source\azure_iot_sdk\c-utility\src/singlylinkedlist.c ****         /* Codes_SRS_LIST_01_019: [If item_handle is NULL then singlylinkedlist_get_next_item shall
 189:Source\azure_iot_sdk\c-utility\src/singlylinkedlist.c ****         result = NULL;
 476              		.loc 1 189 0 is_stmt 1 discriminator 4
 477 0024 0020     		movs	r0, #0
 478 0026 02E0     		b	.L38
 479              	.LVL51:
 480              	.L37:
 190:Source\azure_iot_sdk\c-utility\src/singlylinkedlist.c ****     }
 191:Source\azure_iot_sdk\c-utility\src/singlylinkedlist.c ****     else
 192:Source\azure_iot_sdk\c-utility\src/singlylinkedlist.c ****     {
 193:Source\azure_iot_sdk\c-utility\src/singlylinkedlist.c ****         /* Codes_SRS_LIST_01_018: [singlylinkedlist_get_next_item shall return the next item in the
 194:Source\azure_iot_sdk\c-utility\src/singlylinkedlist.c ****         result = (LIST_ITEM_HANDLE)((LIST_ITEM_INSTANCE*)item_handle)->next;
 481              		.loc 1 194 0
 482 0028 4068     		ldr	r0, [r0, #4]
 483              	.LVL52:
 484 002a 00E0     		b	.L38
 485              	.LVL53:
ARM GAS  C:\Users\Phuong\AppData\Local\Temp\ccqdt0Pq.s 			page 13


 486              	.L39:
 189:Source\azure_iot_sdk\c-utility\src/singlylinkedlist.c ****     }
 487              		.loc 1 189 0
 488 002c 0020     		movs	r0, #0
 489              	.LVL54:
 490              	.L38:
 195:Source\azure_iot_sdk\c-utility\src/singlylinkedlist.c ****     }
 196:Source\azure_iot_sdk\c-utility\src/singlylinkedlist.c **** 
 197:Source\azure_iot_sdk\c-utility\src/singlylinkedlist.c ****     return result;
 198:Source\azure_iot_sdk\c-utility\src/singlylinkedlist.c **** }
 491              		.loc 1 198 0
 492 002e 02B0     		add	sp, sp, #8
 493              		@ sp needed
 494 0030 10BD     		pop	{r4, pc}
 495              	.L41:
 496 0032 C046     		.align	2
 497              	.L40:
 498 0034 7C000000 		.word	.LC14
 499 0038 00000000 		.word	.LANCHOR0
 500 003c 00000000 		.word	.LC1
 501              		.cfi_endproc
 502              	.LFE6:
 503              		.size	singlylinkedlist_get_next_item, .-singlylinkedlist_get_next_item
 504              		.section	.text.singlylinkedlist_item_get_value,"ax",%progbits
 505              		.align	2
 506              		.global	singlylinkedlist_item_get_value
 507              		.code	16
 508              		.thumb_func
 509              		.type	singlylinkedlist_item_get_value, %function
 510              	singlylinkedlist_item_get_value:
 511              	.LFB7:
 199:Source\azure_iot_sdk\c-utility\src/singlylinkedlist.c **** 
 200:Source\azure_iot_sdk\c-utility\src/singlylinkedlist.c **** const void* singlylinkedlist_item_get_value(LIST_ITEM_HANDLE item_handle)
 201:Source\azure_iot_sdk\c-utility\src/singlylinkedlist.c **** {
 512              		.loc 1 201 0
 513              		.cfi_startproc
 514              		@ args = 0, pretend = 0, frame = 0
 515              		@ frame_needed = 0, uses_anonymous_args = 0
 516              	.LVL55:
 517 0000 10B5     		push	{r4, lr}
 518              		.cfi_def_cfa_offset 8
 519              		.cfi_offset 4, -8
 520              		.cfi_offset 14, -4
 521 0002 82B0     		sub	sp, sp, #8
 522              		.cfi_def_cfa_offset 16
 202:Source\azure_iot_sdk\c-utility\src/singlylinkedlist.c ****     const void* result;
 203:Source\azure_iot_sdk\c-utility\src/singlylinkedlist.c **** 
 204:Source\azure_iot_sdk\c-utility\src/singlylinkedlist.c ****     if (item_handle == NULL)
 523              		.loc 1 204 0
 524 0004 0028     		cmp	r0, #0
 525 0006 0FD1     		bne	.L43
 526              	.LBB12:
 205:Source\azure_iot_sdk\c-utility\src/singlylinkedlist.c ****     {
 206:Source\azure_iot_sdk\c-utility\src/singlylinkedlist.c ****         LogError("Invalid argument (item_handle is NULL)");
 527              		.loc 1 206 0 discriminator 3
 528 0008 FFF7FEFF 		bl	xlogging_get_log_function
 529              	.LVL56:
ARM GAS  C:\Users\Phuong\AppData\Local\Temp\ccqdt0Pq.s 			page 14


 530 000c 041E     		subs	r4, r0, #0
 531              	.LVL57:
 532 000e 0DD0     		beq	.L45
 533              		.loc 1 206 0 is_stmt 0 discriminator 4
 534 0010 084B     		ldr	r3, .L46
 535 0012 0193     		str	r3, [sp, #4]
 536 0014 0123     		movs	r3, #1
 537 0016 0093     		str	r3, [sp]
 538 0018 CD33     		adds	r3, r3, #205
 539 001a 074A     		ldr	r2, .L46+4
 540 001c 7032     		adds	r2, r2, #112
 541 001e 0749     		ldr	r1, .L46+8
 542 0020 0020     		movs	r0, #0
 543              	.LVL58:
 544 0022 A047     		blx	r4
 545              	.LVL59:
 546              	.LBE12:
 207:Source\azure_iot_sdk\c-utility\src/singlylinkedlist.c ****         /* Codes_SRS_LIST_01_021: [If item_handle is NULL, singlylinkedlist_item_get_value shall re
 208:Source\azure_iot_sdk\c-utility\src/singlylinkedlist.c ****         result = NULL;
 547              		.loc 1 208 0 is_stmt 1 discriminator 4
 548 0024 0020     		movs	r0, #0
 549 0026 02E0     		b	.L44
 550              	.LVL60:
 551              	.L43:
 209:Source\azure_iot_sdk\c-utility\src/singlylinkedlist.c ****     }
 210:Source\azure_iot_sdk\c-utility\src/singlylinkedlist.c ****     else
 211:Source\azure_iot_sdk\c-utility\src/singlylinkedlist.c ****     {
 212:Source\azure_iot_sdk\c-utility\src/singlylinkedlist.c ****         /* Codes_SRS_LIST_01_020: [singlylinkedlist_item_get_value shall return the value associate
 213:Source\azure_iot_sdk\c-utility\src/singlylinkedlist.c ****         result = ((LIST_ITEM_INSTANCE*)item_handle)->item;
 552              		.loc 1 213 0
 553 0028 0068     		ldr	r0, [r0]
 554              	.LVL61:
 555 002a 00E0     		b	.L44
 556              	.LVL62:
 557              	.L45:
 208:Source\azure_iot_sdk\c-utility\src/singlylinkedlist.c ****     }
 558              		.loc 1 208 0
 559 002c 0020     		movs	r0, #0
 560              	.LVL63:
 561              	.L44:
 214:Source\azure_iot_sdk\c-utility\src/singlylinkedlist.c ****     }
 215:Source\azure_iot_sdk\c-utility\src/singlylinkedlist.c **** 
 216:Source\azure_iot_sdk\c-utility\src/singlylinkedlist.c ****     return result;
 217:Source\azure_iot_sdk\c-utility\src/singlylinkedlist.c **** }
 562              		.loc 1 217 0
 563 002e 02B0     		add	sp, sp, #8
 564              		@ sp needed
 565 0030 10BD     		pop	{r4, pc}
 566              	.L47:
 567 0032 C046     		.align	2
 568              	.L46:
 569 0034 9C000000 		.word	.LC18
 570 0038 00000000 		.word	.LANCHOR0
 571 003c 00000000 		.word	.LC1
 572              		.cfi_endproc
 573              	.LFE7:
 574              		.size	singlylinkedlist_item_get_value, .-singlylinkedlist_item_get_value
ARM GAS  C:\Users\Phuong\AppData\Local\Temp\ccqdt0Pq.s 			page 15


 575              		.section	.text.singlylinkedlist_find,"ax",%progbits
 576              		.align	2
 577              		.global	singlylinkedlist_find
 578              		.code	16
 579              		.thumb_func
 580              		.type	singlylinkedlist_find, %function
 581              	singlylinkedlist_find:
 582              	.LFB8:
 218:Source\azure_iot_sdk\c-utility\src/singlylinkedlist.c **** 
 219:Source\azure_iot_sdk\c-utility\src/singlylinkedlist.c **** LIST_ITEM_HANDLE singlylinkedlist_find(SINGLYLINKEDLIST_HANDLE list, LIST_MATCH_FUNCTION match_func
 220:Source\azure_iot_sdk\c-utility\src/singlylinkedlist.c **** {
 583              		.loc 1 220 0
 584              		.cfi_startproc
 585              		@ args = 0, pretend = 0, frame = 0
 586              		@ frame_needed = 0, uses_anonymous_args = 0
 587              	.LVL64:
 588 0000 70B5     		push	{r4, r5, r6, lr}
 589              		.cfi_def_cfa_offset 16
 590              		.cfi_offset 4, -16
 591              		.cfi_offset 5, -12
 592              		.cfi_offset 6, -8
 593              		.cfi_offset 14, -4
 594 0002 84B0     		sub	sp, sp, #16
 595              		.cfi_def_cfa_offset 32
 596 0004 0400     		movs	r4, r0
 597 0006 0D00     		movs	r5, r1
 598 0008 1600     		movs	r6, r2
 221:Source\azure_iot_sdk\c-utility\src/singlylinkedlist.c ****     LIST_ITEM_HANDLE result;
 222:Source\azure_iot_sdk\c-utility\src/singlylinkedlist.c **** 
 223:Source\azure_iot_sdk\c-utility\src/singlylinkedlist.c ****     if ((list == NULL) ||
 599              		.loc 1 223 0
 600 000a 0028     		cmp	r0, #0
 601 000c 01D0     		beq	.L49
 602              		.loc 1 223 0 is_stmt 0 discriminator 1
 603 000e 0029     		cmp	r1, #0
 604 0010 11D1     		bne	.L50
 605              	.L49:
 606              	.LBB13:
 224:Source\azure_iot_sdk\c-utility\src/singlylinkedlist.c ****         (match_function == NULL))
 225:Source\azure_iot_sdk\c-utility\src/singlylinkedlist.c ****     {
 226:Source\azure_iot_sdk\c-utility\src/singlylinkedlist.c ****         LogError("Invalid argument (list=%p, match_function=%p)", list, match_function);
 607              		.loc 1 226 0 is_stmt 1 discriminator 3
 608 0012 FFF7FEFF 		bl	xlogging_get_log_function
 609              	.LVL65:
 610 0016 061E     		subs	r6, r0, #0
 611              	.LVL66:
 612 0018 18D0     		beq	.L55
 613              		.loc 1 226 0 is_stmt 0 discriminator 4
 614 001a 0395     		str	r5, [sp, #12]
 615 001c 0294     		str	r4, [sp, #8]
 616 001e 0D4B     		ldr	r3, .L56
 617 0020 0193     		str	r3, [sp, #4]
 618 0022 0123     		movs	r3, #1
 619 0024 0093     		str	r3, [sp]
 620 0026 E133     		adds	r3, r3, #225
 621 0028 0B4A     		ldr	r2, .L56+4
 622 002a 1032     		adds	r2, r2, #16
ARM GAS  C:\Users\Phuong\AppData\Local\Temp\ccqdt0Pq.s 			page 16


 623 002c 0B49     		ldr	r1, .L56+8
 624 002e 0020     		movs	r0, #0
 625              	.LVL67:
 626 0030 B047     		blx	r6
 627              	.LVL68:
 628              	.LBE13:
 227:Source\azure_iot_sdk\c-utility\src/singlylinkedlist.c ****         /* Codes_SRS_LIST_01_012: [If the list or the match_function argument is NULL, singlylinked
 228:Source\azure_iot_sdk\c-utility\src/singlylinkedlist.c ****         result = NULL;
 629              		.loc 1 228 0 is_stmt 1 discriminator 4
 630 0032 0024     		movs	r4, #0
 631              	.LVL69:
 632 0034 0BE0     		b	.L51
 633              	.LVL70:
 634              	.L50:
 635              	.LBB14:
 229:Source\azure_iot_sdk\c-utility\src/singlylinkedlist.c ****     }
 230:Source\azure_iot_sdk\c-utility\src/singlylinkedlist.c ****     else
 231:Source\azure_iot_sdk\c-utility\src/singlylinkedlist.c ****     {
 232:Source\azure_iot_sdk\c-utility\src/singlylinkedlist.c ****         LIST_INSTANCE* list_instance = (LIST_INSTANCE*)list;
 233:Source\azure_iot_sdk\c-utility\src/singlylinkedlist.c ****         LIST_ITEM_INSTANCE* current = list_instance->head;
 636              		.loc 1 233 0
 637 0036 0468     		ldr	r4, [r0]
 638              	.LVL71:
 234:Source\azure_iot_sdk\c-utility\src/singlylinkedlist.c **** 
 235:Source\azure_iot_sdk\c-utility\src/singlylinkedlist.c ****         /* Codes_SRS_LIST_01_011: [singlylinkedlist_find shall iterate through all items in a list 
 236:Source\azure_iot_sdk\c-utility\src/singlylinkedlist.c ****         while (current != NULL)
 639              		.loc 1 236 0
 640 0038 05E0     		b	.L52
 641              	.LVL72:
 642              	.L54:
 237:Source\azure_iot_sdk\c-utility\src/singlylinkedlist.c ****         {
 238:Source\azure_iot_sdk\c-utility\src/singlylinkedlist.c ****             /* Codes_SRS_LIST_01_014: [list find shall determine whether an item satisfies the matc
 239:Source\azure_iot_sdk\c-utility\src/singlylinkedlist.c ****             /* Codes_SRS_LIST_01_013: [The match_function shall get as arguments the list item bein
 240:Source\azure_iot_sdk\c-utility\src/singlylinkedlist.c ****             if (match_function((LIST_ITEM_HANDLE)current, match_context) == true)
 643              		.loc 1 240 0
 644 003a 3100     		movs	r1, r6
 645 003c 2000     		movs	r0, r4
 646 003e A847     		blx	r5
 647              	.LVL73:
 648 0040 0028     		cmp	r0, #0
 649 0042 04D1     		bne	.L51
 241:Source\azure_iot_sdk\c-utility\src/singlylinkedlist.c ****             {
 242:Source\azure_iot_sdk\c-utility\src/singlylinkedlist.c ****                 /* Codes_SRS_LIST_01_017: [If the match function returns true, singlylinkedlist_fin
 243:Source\azure_iot_sdk\c-utility\src/singlylinkedlist.c ****                 break;
 244:Source\azure_iot_sdk\c-utility\src/singlylinkedlist.c ****             }
 245:Source\azure_iot_sdk\c-utility\src/singlylinkedlist.c **** 
 246:Source\azure_iot_sdk\c-utility\src/singlylinkedlist.c ****             /* Codes_SRS_LIST_01_016: [If the match function returns false, singlylinkedlist_find s
 247:Source\azure_iot_sdk\c-utility\src/singlylinkedlist.c ****             current = (LIST_ITEM_INSTANCE*)current->next;
 650              		.loc 1 247 0
 651 0044 6468     		ldr	r4, [r4, #4]
 652              	.LVL74:
 653              	.L52:
 236:Source\azure_iot_sdk\c-utility\src/singlylinkedlist.c ****         {
 654              		.loc 1 236 0
 655 0046 002C     		cmp	r4, #0
 656 0048 F7D1     		bne	.L54
 657 004a 00E0     		b	.L51
ARM GAS  C:\Users\Phuong\AppData\Local\Temp\ccqdt0Pq.s 			page 17


 658              	.LVL75:
 659              	.L55:
 660              	.LBE14:
 228:Source\azure_iot_sdk\c-utility\src/singlylinkedlist.c ****     }
 661              		.loc 1 228 0
 662 004c 0024     		movs	r4, #0
 663              	.LVL76:
 664              	.L51:
 248:Source\azure_iot_sdk\c-utility\src/singlylinkedlist.c ****         }
 249:Source\azure_iot_sdk\c-utility\src/singlylinkedlist.c **** 
 250:Source\azure_iot_sdk\c-utility\src/singlylinkedlist.c ****         if (current == NULL)
 251:Source\azure_iot_sdk\c-utility\src/singlylinkedlist.c ****         {
 252:Source\azure_iot_sdk\c-utility\src/singlylinkedlist.c ****             /* Codes_SRS_LIST_01_015: [If the list is empty, singlylinkedlist_find shall return NUL
 253:Source\azure_iot_sdk\c-utility\src/singlylinkedlist.c ****             result = NULL;
 254:Source\azure_iot_sdk\c-utility\src/singlylinkedlist.c ****         }
 255:Source\azure_iot_sdk\c-utility\src/singlylinkedlist.c ****         else
 256:Source\azure_iot_sdk\c-utility\src/singlylinkedlist.c ****         {
 257:Source\azure_iot_sdk\c-utility\src/singlylinkedlist.c ****             result = current;
 258:Source\azure_iot_sdk\c-utility\src/singlylinkedlist.c ****         }
 259:Source\azure_iot_sdk\c-utility\src/singlylinkedlist.c ****     }
 260:Source\azure_iot_sdk\c-utility\src/singlylinkedlist.c **** 
 261:Source\azure_iot_sdk\c-utility\src/singlylinkedlist.c ****     return result;
 262:Source\azure_iot_sdk\c-utility\src/singlylinkedlist.c **** }
 665              		.loc 1 262 0
 666 004e 2000     		movs	r0, r4
 667 0050 04B0     		add	sp, sp, #16
 668              		@ sp needed
 669              	.LVL77:
 670              	.LVL78:
 671 0052 70BD     		pop	{r4, r5, r6, pc}
 672              	.L57:
 673              		.align	2
 674              	.L56:
 675 0054 C4000000 		.word	.LC22
 676 0058 80000000 		.word	.LANCHOR1
 677 005c 00000000 		.word	.LC1
 678              		.cfi_endproc
 679              	.LFE8:
 680              		.size	singlylinkedlist_find, .-singlylinkedlist_find
 681              		.section	.text.singlylinkedlist_remove_if,"ax",%progbits
 682              		.align	2
 683              		.global	singlylinkedlist_remove_if
 684              		.code	16
 685              		.thumb_func
 686              		.type	singlylinkedlist_remove_if, %function
 687              	singlylinkedlist_remove_if:
 688              	.LFB9:
 263:Source\azure_iot_sdk\c-utility\src/singlylinkedlist.c **** 
 264:Source\azure_iot_sdk\c-utility\src/singlylinkedlist.c **** int singlylinkedlist_remove_if(SINGLYLINKEDLIST_HANDLE list, LIST_CONDITION_FUNCTION condition_func
 265:Source\azure_iot_sdk\c-utility\src/singlylinkedlist.c **** {
 689              		.loc 1 265 0
 690              		.cfi_startproc
 691              		@ args = 0, pretend = 0, frame = 16
 692              		@ frame_needed = 0, uses_anonymous_args = 0
 693              	.LVL79:
 694 0000 F0B5     		push	{r4, r5, r6, r7, lr}
 695              		.cfi_def_cfa_offset 20
ARM GAS  C:\Users\Phuong\AppData\Local\Temp\ccqdt0Pq.s 			page 18


 696              		.cfi_offset 4, -20
 697              		.cfi_offset 5, -16
 698              		.cfi_offset 6, -12
 699              		.cfi_offset 7, -8
 700              		.cfi_offset 14, -4
 701 0002 4746     		mov	r7, r8
 702 0004 80B4     		push	{r7}
 703              		.cfi_def_cfa_offset 24
 704              		.cfi_offset 8, -24
 705 0006 88B0     		sub	sp, sp, #32
 706              		.cfi_def_cfa_offset 56
 707 0008 061E     		subs	r6, r0, #0
 708 000a 8846     		mov	r8, r1
 709 000c 0592     		str	r2, [sp, #20]
 266:Source\azure_iot_sdk\c-utility\src/singlylinkedlist.c ****     int result;
 267:Source\azure_iot_sdk\c-utility\src/singlylinkedlist.c ****     /* Codes_SRS_LIST_09_001: [ If the list or the condition_function argument is NULL, singlylinke
 268:Source\azure_iot_sdk\c-utility\src/singlylinkedlist.c ****     if ((list == NULL) ||
 710              		.loc 1 268 0
 711 000e 01D0     		beq	.L59
 712              		.loc 1 268 0 is_stmt 0 discriminator 1
 713 0010 0029     		cmp	r1, #0
 714 0012 14D1     		bne	.L60
 715              	.L59:
 716              	.LBB15:
 269:Source\azure_iot_sdk\c-utility\src/singlylinkedlist.c ****         (condition_function == NULL))
 270:Source\azure_iot_sdk\c-utility\src/singlylinkedlist.c ****     {
 271:Source\azure_iot_sdk\c-utility\src/singlylinkedlist.c ****         LogError("Invalid argument (list=%p, condition_function=%p)", list, condition_function);
 717              		.loc 1 271 0 is_stmt 1 discriminator 3
 718 0014 FFF7FEFF 		bl	xlogging_get_log_function
 719              	.LVL80:
 720 0018 041E     		subs	r4, r0, #0
 721              	.LVL81:
 722 001a 3CD0     		beq	.L69
 723              		.loc 1 271 0 is_stmt 0 discriminator 4
 724 001c 4346     		mov	r3, r8
 725 001e 0393     		str	r3, [sp, #12]
 726 0020 0296     		str	r6, [sp, #8]
 727 0022 204B     		ldr	r3, .L71
 728 0024 0193     		str	r3, [sp, #4]
 729 0026 0123     		movs	r3, #1
 730 0028 0093     		str	r3, [sp]
 731 002a 1023     		movs	r3, #16
 732 002c FF33     		adds	r3, r3, #255
 733 002e 1E4A     		ldr	r2, .L71+4
 734 0030 2832     		adds	r2, r2, #40
 735 0032 1E49     		ldr	r1, .L71+8
 736 0034 0020     		movs	r0, #0
 737              	.LVL82:
 738 0036 A047     		blx	r4
 739              	.LVL83:
 740              	.LBE15:
 272:Source\azure_iot_sdk\c-utility\src/singlylinkedlist.c ****         result = __FAILURE__;
 741              		.loc 1 272 0 is_stmt 1 discriminator 4
 742 0038 8820     		movs	r0, #136
 743 003a 4000     		lsls	r0, r0, #1
 744 003c 2DE0     		b	.L61
 745              	.LVL84:
ARM GAS  C:\Users\Phuong\AppData\Local\Temp\ccqdt0Pq.s 			page 19


 746              	.L60:
 747              	.LBB16:
 273:Source\azure_iot_sdk\c-utility\src/singlylinkedlist.c ****     }
 274:Source\azure_iot_sdk\c-utility\src/singlylinkedlist.c ****     else
 275:Source\azure_iot_sdk\c-utility\src/singlylinkedlist.c ****     {
 276:Source\azure_iot_sdk\c-utility\src/singlylinkedlist.c ****         LIST_INSTANCE* list_instance = (LIST_INSTANCE*)list;
 277:Source\azure_iot_sdk\c-utility\src/singlylinkedlist.c ****         LIST_ITEM_INSTANCE* current_item = list_instance->head;
 748              		.loc 1 277 0
 749 003e 0468     		ldr	r4, [r0]
 750              	.LVL85:
 278:Source\azure_iot_sdk\c-utility\src/singlylinkedlist.c ****         LIST_ITEM_INSTANCE* next_item = NULL;
 279:Source\azure_iot_sdk\c-utility\src/singlylinkedlist.c ****         LIST_ITEM_INSTANCE* previous_item = NULL;
 751              		.loc 1 279 0
 752 0040 0027     		movs	r7, #0
 280:Source\azure_iot_sdk\c-utility\src/singlylinkedlist.c **** 
 281:Source\azure_iot_sdk\c-utility\src/singlylinkedlist.c ****         /* Codes_SRS_LIST_09_002: [ singlylinkedlist_remove_if shall iterate through all items in a
 282:Source\azure_iot_sdk\c-utility\src/singlylinkedlist.c ****         while (current_item != NULL)
 753              		.loc 1 282 0
 754 0042 24E0     		b	.L62
 755              	.LVL86:
 756              	.L68:
 757              	.LBB17:
 283:Source\azure_iot_sdk\c-utility\src/singlylinkedlist.c ****         {
 284:Source\azure_iot_sdk\c-utility\src/singlylinkedlist.c ****             bool continue_processing = false;
 758              		.loc 1 284 0
 759 0044 1722     		movs	r2, #23
 760 0046 02AB     		add	r3, sp, #8
 761 0048 9C46     		mov	ip, r3
 762 004a 6244     		add	r2, r2, ip
 763 004c 0023     		movs	r3, #0
 764 004e 1370     		strb	r3, [r2]
 285:Source\azure_iot_sdk\c-utility\src/singlylinkedlist.c **** 
 286:Source\azure_iot_sdk\c-utility\src/singlylinkedlist.c ****             next_item = (LIST_ITEM_INSTANCE*)current_item->next;
 765              		.loc 1 286 0
 766 0050 6568     		ldr	r5, [r4, #4]
 767              	.LVL87:
 287:Source\azure_iot_sdk\c-utility\src/singlylinkedlist.c **** 
 288:Source\azure_iot_sdk\c-utility\src/singlylinkedlist.c ****             /* Codes_SRS_LIST_09_003: [ singlylinkedlist_remove_if shall determine whether an item 
 289:Source\azure_iot_sdk\c-utility\src/singlylinkedlist.c ****             /* Codes_SRS_LIST_09_004: [ If the condition function returns true, singlylinkedlist_fi
 290:Source\azure_iot_sdk\c-utility\src/singlylinkedlist.c ****             if (condition_function(current_item->item, match_context, &continue_processing) == true
 768              		.loc 1 290 0
 769 0052 0599     		ldr	r1, [sp, #20]
 770 0054 2068     		ldr	r0, [r4]
 771 0056 C047     		blx	r8
 772              	.LVL88:
 773 0058 0028     		cmp	r0, #0
 774 005a 0CD0     		beq	.L70
 291:Source\azure_iot_sdk\c-utility\src/singlylinkedlist.c ****             {
 292:Source\azure_iot_sdk\c-utility\src/singlylinkedlist.c ****                 if (previous_item != NULL)
 775              		.loc 1 292 0
 776 005c 002F     		cmp	r7, #0
 777 005e 01D0     		beq	.L64
 293:Source\azure_iot_sdk\c-utility\src/singlylinkedlist.c ****                 {
 294:Source\azure_iot_sdk\c-utility\src/singlylinkedlist.c ****                     previous_item->next = next_item;
 778              		.loc 1 294 0
 779 0060 7D60     		str	r5, [r7, #4]
 780 0062 00E0     		b	.L65
ARM GAS  C:\Users\Phuong\AppData\Local\Temp\ccqdt0Pq.s 			page 20


 781              	.L64:
 295:Source\azure_iot_sdk\c-utility\src/singlylinkedlist.c ****                 }
 296:Source\azure_iot_sdk\c-utility\src/singlylinkedlist.c ****                 else
 297:Source\azure_iot_sdk\c-utility\src/singlylinkedlist.c ****                 {
 298:Source\azure_iot_sdk\c-utility\src/singlylinkedlist.c ****                     list_instance->head = next_item;
 782              		.loc 1 298 0
 783 0064 3560     		str	r5, [r6]
 784              	.L65:
 299:Source\azure_iot_sdk\c-utility\src/singlylinkedlist.c ****                 }
 300:Source\azure_iot_sdk\c-utility\src/singlylinkedlist.c **** 
 301:Source\azure_iot_sdk\c-utility\src/singlylinkedlist.c ****                 if (current_item == list_instance->tail)
 785              		.loc 1 301 0
 786 0066 7368     		ldr	r3, [r6, #4]
 787 0068 9C42     		cmp	r4, r3
 788 006a 00D1     		bne	.L66
 302:Source\azure_iot_sdk\c-utility\src/singlylinkedlist.c ****                 {
 303:Source\azure_iot_sdk\c-utility\src/singlylinkedlist.c ****                     list_instance->tail = previous_item;
 789              		.loc 1 303 0
 790 006c 7760     		str	r7, [r6, #4]
 791              	.L66:
 304:Source\azure_iot_sdk\c-utility\src/singlylinkedlist.c ****                 }
 305:Source\azure_iot_sdk\c-utility\src/singlylinkedlist.c **** 
 306:Source\azure_iot_sdk\c-utility\src/singlylinkedlist.c ****                 free(current_item);
 792              		.loc 1 306 0
 793 006e 2000     		movs	r0, r4
 794 0070 FFF7FEFF 		bl	free
 795              	.LVL89:
 796 0074 00E0     		b	.L63
 797              	.L70:
 307:Source\azure_iot_sdk\c-utility\src/singlylinkedlist.c ****             }
 308:Source\azure_iot_sdk\c-utility\src/singlylinkedlist.c ****             /* Codes_SRS_LIST_09_005: [ If the condition function returns false, singlylinkedlist_f
 309:Source\azure_iot_sdk\c-utility\src/singlylinkedlist.c ****             else
 310:Source\azure_iot_sdk\c-utility\src/singlylinkedlist.c ****             {
 311:Source\azure_iot_sdk\c-utility\src/singlylinkedlist.c ****                 previous_item = current_item;
 798              		.loc 1 311 0
 799 0076 2700     		movs	r7, r4
 800              	.LVL90:
 801              	.L63:
 312:Source\azure_iot_sdk\c-utility\src/singlylinkedlist.c ****             }
 313:Source\azure_iot_sdk\c-utility\src/singlylinkedlist.c **** 
 314:Source\azure_iot_sdk\c-utility\src/singlylinkedlist.c ****             /* Codes_SRS_LIST_09_006: [ If the condition function returns continue_processing as fa
 315:Source\azure_iot_sdk\c-utility\src/singlylinkedlist.c ****             if (continue_processing == false)
 802              		.loc 1 315 0
 803 0078 1723     		movs	r3, #23
 804 007a 02AA     		add	r2, sp, #8
 805 007c 9446     		mov	ip, r2
 806 007e 6344     		add	r3, r3, ip
 807 0080 1B78     		ldrb	r3, [r3]
 808 0082 002B     		cmp	r3, #0
 809 0084 01D0     		beq	.L67
 810              	.LVL91:
 316:Source\azure_iot_sdk\c-utility\src/singlylinkedlist.c ****             {
 317:Source\azure_iot_sdk\c-utility\src/singlylinkedlist.c ****                 break;
 318:Source\azure_iot_sdk\c-utility\src/singlylinkedlist.c ****             }
 319:Source\azure_iot_sdk\c-utility\src/singlylinkedlist.c **** 
 320:Source\azure_iot_sdk\c-utility\src/singlylinkedlist.c ****             current_item = next_item;
 811              		.loc 1 320 0
ARM GAS  C:\Users\Phuong\AppData\Local\Temp\ccqdt0Pq.s 			page 21


 812 0086 2C00     		movs	r4, r5
 813 0088 01E0     		b	.L62
 814              	.LVL92:
 815              	.L67:
 816              	.LBE17:
 321:Source\azure_iot_sdk\c-utility\src/singlylinkedlist.c ****         }
 322:Source\azure_iot_sdk\c-utility\src/singlylinkedlist.c **** 
 323:Source\azure_iot_sdk\c-utility\src/singlylinkedlist.c ****         /* Codes_SRS_LIST_09_007: [ If no errors occur, singlylinkedlist_remove_if shall return zer
 324:Source\azure_iot_sdk\c-utility\src/singlylinkedlist.c ****         result = 0;
 817              		.loc 1 324 0
 818 008a 0020     		movs	r0, #0
 819 008c 05E0     		b	.L61
 820              	.LVL93:
 821              	.L62:
 282:Source\azure_iot_sdk\c-utility\src/singlylinkedlist.c ****         {
 822              		.loc 1 282 0
 823 008e 002C     		cmp	r4, #0
 824 0090 D8D1     		bne	.L68
 825              		.loc 1 324 0
 826 0092 0020     		movs	r0, #0
 827 0094 01E0     		b	.L61
 828              	.LVL94:
 829              	.L69:
 830              	.LBE16:
 272:Source\azure_iot_sdk\c-utility\src/singlylinkedlist.c ****     }
 831              		.loc 1 272 0
 832 0096 8820     		movs	r0, #136
 833              	.LVL95:
 834 0098 4000     		lsls	r0, r0, #1
 835              	.LVL96:
 836              	.L61:
 325:Source\azure_iot_sdk\c-utility\src/singlylinkedlist.c ****     }
 326:Source\azure_iot_sdk\c-utility\src/singlylinkedlist.c **** 
 327:Source\azure_iot_sdk\c-utility\src/singlylinkedlist.c ****     return result;
 328:Source\azure_iot_sdk\c-utility\src/singlylinkedlist.c **** }
 837              		.loc 1 328 0
 838 009a 08B0     		add	sp, sp, #32
 839              		@ sp needed
 840              	.LVL97:
 841              	.LVL98:
 842 009c 04BC     		pop	{r2}
 843 009e 9046     		mov	r8, r2
 844 00a0 F0BD     		pop	{r4, r5, r6, r7, pc}
 845              	.L72:
 846 00a2 C046     		.align	2
 847              	.L71:
 848 00a4 F4000000 		.word	.LC26
 849 00a8 80000000 		.word	.LANCHOR1
 850 00ac 00000000 		.word	.LC1
 851              		.cfi_endproc
 852              	.LFE9:
 853              		.size	singlylinkedlist_remove_if, .-singlylinkedlist_remove_if
 854              		.section	.text.singlylinkedlist_foreach,"ax",%progbits
 855              		.align	2
 856              		.global	singlylinkedlist_foreach
 857              		.code	16
 858              		.thumb_func
ARM GAS  C:\Users\Phuong\AppData\Local\Temp\ccqdt0Pq.s 			page 22


 859              		.type	singlylinkedlist_foreach, %function
 860              	singlylinkedlist_foreach:
 861              	.LFB10:
 329:Source\azure_iot_sdk\c-utility\src/singlylinkedlist.c **** 
 330:Source\azure_iot_sdk\c-utility\src/singlylinkedlist.c **** int singlylinkedlist_foreach(SINGLYLINKEDLIST_HANDLE list, LIST_ACTION_FUNCTION action_function, co
 331:Source\azure_iot_sdk\c-utility\src/singlylinkedlist.c **** {
 862              		.loc 1 331 0
 863              		.cfi_startproc
 864              		@ args = 0, pretend = 0, frame = 8
 865              		@ frame_needed = 0, uses_anonymous_args = 0
 866              	.LVL99:
 867 0000 F0B5     		push	{r4, r5, r6, r7, lr}
 868              		.cfi_def_cfa_offset 20
 869              		.cfi_offset 4, -20
 870              		.cfi_offset 5, -16
 871              		.cfi_offset 6, -12
 872              		.cfi_offset 7, -8
 873              		.cfi_offset 14, -4
 874 0002 87B0     		sub	sp, sp, #28
 875              		.cfi_def_cfa_offset 48
 876 0004 0400     		movs	r4, r0
 877 0006 0F00     		movs	r7, r1
 878 0008 1600     		movs	r6, r2
 332:Source\azure_iot_sdk\c-utility\src/singlylinkedlist.c ****     int result;
 333:Source\azure_iot_sdk\c-utility\src/singlylinkedlist.c **** 
 334:Source\azure_iot_sdk\c-utility\src/singlylinkedlist.c ****     /* Codes_SRS_LIST_09_008: [ If the list or the action_function argument is NULL, singlylinkedli
 335:Source\azure_iot_sdk\c-utility\src/singlylinkedlist.c ****     if ((list == NULL) ||
 879              		.loc 1 335 0
 880 000a 0028     		cmp	r0, #0
 881 000c 01D0     		beq	.L74
 882              		.loc 1 335 0 is_stmt 0 discriminator 1
 883 000e 0029     		cmp	r1, #0
 884 0010 13D1     		bne	.L75
 885              	.L74:
 886              	.LBB18:
 336:Source\azure_iot_sdk\c-utility\src/singlylinkedlist.c ****         (action_function == NULL))
 337:Source\azure_iot_sdk\c-utility\src/singlylinkedlist.c ****     {
 338:Source\azure_iot_sdk\c-utility\src/singlylinkedlist.c ****         LogError("Invalid argument (list=%p, action_function=%p)", list, action_function);
 887              		.loc 1 338 0 is_stmt 1 discriminator 3
 888 0012 FFF7FEFF 		bl	xlogging_get_log_function
 889              	.LVL100:
 890 0016 051E     		subs	r5, r0, #0
 891              	.LVL101:
 892 0018 24D0     		beq	.L80
 893              		.loc 1 338 0 is_stmt 0 discriminator 4
 894 001a 0397     		str	r7, [sp, #12]
 895 001c 0294     		str	r4, [sp, #8]
 896 001e 134B     		ldr	r3, .L81
 897 0020 0193     		str	r3, [sp, #4]
 898 0022 0123     		movs	r3, #1
 899 0024 0093     		str	r3, [sp]
 900 0026 5233     		adds	r3, r3, #82
 901 0028 FF33     		adds	r3, r3, #255
 902 002a 114A     		ldr	r2, .L81+4
 903 002c 4432     		adds	r2, r2, #68
 904 002e 1149     		ldr	r1, .L81+8
 905 0030 0020     		movs	r0, #0
ARM GAS  C:\Users\Phuong\AppData\Local\Temp\ccqdt0Pq.s 			page 23


 906              	.LVL102:
 907 0032 A847     		blx	r5
 908              	.LVL103:
 909              	.LBE18:
 339:Source\azure_iot_sdk\c-utility\src/singlylinkedlist.c ****         result = __FAILURE__;
 910              		.loc 1 339 0 is_stmt 1 discriminator 4
 911 0034 5420     		movs	r0, #84
 912 0036 FF30     		adds	r0, r0, #255
 913 0038 16E0     		b	.L76
 914              	.LVL104:
 915              	.L75:
 916              	.LBB19:
 340:Source\azure_iot_sdk\c-utility\src/singlylinkedlist.c ****     }
 341:Source\azure_iot_sdk\c-utility\src/singlylinkedlist.c ****     else
 342:Source\azure_iot_sdk\c-utility\src/singlylinkedlist.c ****     {
 343:Source\azure_iot_sdk\c-utility\src/singlylinkedlist.c ****         LIST_INSTANCE* list_instance = (LIST_INSTANCE*)list;
 344:Source\azure_iot_sdk\c-utility\src/singlylinkedlist.c ****         LIST_ITEM_INSTANCE* list_item = list_instance->head;
 917              		.loc 1 344 0
 918 003a 0468     		ldr	r4, [r0]
 919              	.LVL105:
 345:Source\azure_iot_sdk\c-utility\src/singlylinkedlist.c **** 
 346:Source\azure_iot_sdk\c-utility\src/singlylinkedlist.c ****         while (list_item != NULL)
 920              		.loc 1 346 0
 921 003c 0EE0     		b	.L77
 922              	.LVL106:
 923              	.L79:
 924              	.LBB20:
 347:Source\azure_iot_sdk\c-utility\src/singlylinkedlist.c ****         {
 348:Source\azure_iot_sdk\c-utility\src/singlylinkedlist.c ****             bool continue_processing = false;
 925              		.loc 1 348 0
 926 003e 1725     		movs	r5, #23
 927 0040 6D44     		add	r5, r5, sp
 928 0042 0023     		movs	r3, #0
 929 0044 2B70     		strb	r3, [r5]
 349:Source\azure_iot_sdk\c-utility\src/singlylinkedlist.c **** 
 350:Source\azure_iot_sdk\c-utility\src/singlylinkedlist.c ****             /* Codes_SRS_LIST_09_009: [ singlylinkedlist_foreach shall iterate through all items in
 351:Source\azure_iot_sdk\c-utility\src/singlylinkedlist.c ****             action_function(list_item->item, action_context, &continue_processing);
 930              		.loc 1 351 0
 931 0046 2A00     		movs	r2, r5
 932 0048 3100     		movs	r1, r6
 933 004a 2068     		ldr	r0, [r4]
 934 004c B847     		blx	r7
 935              	.LVL107:
 352:Source\azure_iot_sdk\c-utility\src/singlylinkedlist.c **** 
 353:Source\azure_iot_sdk\c-utility\src/singlylinkedlist.c ****             /* Codes_SRS_LIST_09_010: [ If the condition function returns continue_processing as fa
 354:Source\azure_iot_sdk\c-utility\src/singlylinkedlist.c ****             if (continue_processing == false)
 936              		.loc 1 354 0
 937 004e 2B78     		ldrb	r3, [r5]
 938 0050 002B     		cmp	r3, #0
 939 0052 01D0     		beq	.L78
 355:Source\azure_iot_sdk\c-utility\src/singlylinkedlist.c ****             {
 356:Source\azure_iot_sdk\c-utility\src/singlylinkedlist.c ****                 break;
 357:Source\azure_iot_sdk\c-utility\src/singlylinkedlist.c ****             }
 358:Source\azure_iot_sdk\c-utility\src/singlylinkedlist.c **** 
 359:Source\azure_iot_sdk\c-utility\src/singlylinkedlist.c ****             list_item = (LIST_ITEM_INSTANCE*)list_item->next;
 940              		.loc 1 359 0
 941 0054 6468     		ldr	r4, [r4, #4]
ARM GAS  C:\Users\Phuong\AppData\Local\Temp\ccqdt0Pq.s 			page 24


 942              	.LVL108:
 943 0056 01E0     		b	.L77
 944              	.L78:
 945              	.LBE20:
 360:Source\azure_iot_sdk\c-utility\src/singlylinkedlist.c ****         }
 361:Source\azure_iot_sdk\c-utility\src/singlylinkedlist.c **** 
 362:Source\azure_iot_sdk\c-utility\src/singlylinkedlist.c ****         /* Codes_SRS_LIST_09_011: [ If no errors occur, singlylinkedlist_foreach shall return zero.
 363:Source\azure_iot_sdk\c-utility\src/singlylinkedlist.c ****         result = 0;
 946              		.loc 1 363 0
 947 0058 0020     		movs	r0, #0
 948 005a 05E0     		b	.L76
 949              	.L77:
 346:Source\azure_iot_sdk\c-utility\src/singlylinkedlist.c ****         {
 950              		.loc 1 346 0
 951 005c 002C     		cmp	r4, #0
 952 005e EED1     		bne	.L79
 953              		.loc 1 363 0
 954 0060 0020     		movs	r0, #0
 955 0062 01E0     		b	.L76
 956              	.LVL109:
 957              	.L80:
 958              	.LBE19:
 339:Source\azure_iot_sdk\c-utility\src/singlylinkedlist.c ****     }
 959              		.loc 1 339 0
 960 0064 5420     		movs	r0, #84
 961              	.LVL110:
 962 0066 FF30     		adds	r0, r0, #255
 963              	.LVL111:
 964              	.L76:
 364:Source\azure_iot_sdk\c-utility\src/singlylinkedlist.c ****     }
 365:Source\azure_iot_sdk\c-utility\src/singlylinkedlist.c **** 
 366:Source\azure_iot_sdk\c-utility\src/singlylinkedlist.c ****     return result;
 367:Source\azure_iot_sdk\c-utility\src/singlylinkedlist.c **** }
 965              		.loc 1 367 0
 966 0068 07B0     		add	sp, sp, #28
 967              		@ sp needed
 968              	.LVL112:
 969              	.LVL113:
 970 006a F0BD     		pop	{r4, r5, r6, r7, pc}
 971              	.L82:
 972              		.align	2
 973              	.L81:
 974 006c 28010000 		.word	.LC30
 975 0070 80000000 		.word	.LANCHOR1
 976 0074 00000000 		.word	.LC1
 977              		.cfi_endproc
 978              	.LFE10:
 979              		.size	singlylinkedlist_foreach, .-singlylinkedlist_foreach
 980              		.section	.text.singlylinkedlist_add_head,"ax",%progbits
 981              		.align	2
 982              		.global	singlylinkedlist_add_head
 983              		.code	16
 984              		.thumb_func
 985              		.type	singlylinkedlist_add_head, %function
 986              	singlylinkedlist_add_head:
 987              	.LFB11:
 368:Source\azure_iot_sdk\c-utility\src/singlylinkedlist.c **** 
ARM GAS  C:\Users\Phuong\AppData\Local\Temp\ccqdt0Pq.s 			page 25


 369:Source\azure_iot_sdk\c-utility\src/singlylinkedlist.c **** LIST_ITEM_HANDLE singlylinkedlist_add_head(SINGLYLINKEDLIST_HANDLE list, const void* item)
 370:Source\azure_iot_sdk\c-utility\src/singlylinkedlist.c **** {
 988              		.loc 1 370 0
 989              		.cfi_startproc
 990              		@ args = 0, pretend = 0, frame = 0
 991              		@ frame_needed = 0, uses_anonymous_args = 0
 992              	.LVL114:
 993 0000 70B5     		push	{r4, r5, r6, lr}
 994              		.cfi_def_cfa_offset 16
 995              		.cfi_offset 4, -16
 996              		.cfi_offset 5, -12
 997              		.cfi_offset 6, -8
 998              		.cfi_offset 14, -4
 999 0002 84B0     		sub	sp, sp, #16
 1000              		.cfi_def_cfa_offset 32
 1001 0004 0500     		movs	r5, r0
 1002 0006 0E00     		movs	r6, r1
 371:Source\azure_iot_sdk\c-utility\src/singlylinkedlist.c ****     LIST_ITEM_HANDLE result;
 372:Source\azure_iot_sdk\c-utility\src/singlylinkedlist.c **** 
 373:Source\azure_iot_sdk\c-utility\src/singlylinkedlist.c ****     /* Codes_SRS_LIST_02_001: [ If list is NULL then singlylinkedlist_add_head shall fail and retur
 374:Source\azure_iot_sdk\c-utility\src/singlylinkedlist.c ****     if (list == NULL)
 1003              		.loc 1 374 0
 1004 0008 0028     		cmp	r0, #0
 1005 000a 11D1     		bne	.L84
 1006              	.LBB21:
 375:Source\azure_iot_sdk\c-utility\src/singlylinkedlist.c ****     {
 376:Source\azure_iot_sdk\c-utility\src/singlylinkedlist.c ****         LogError("Invalid argument SINGLYLINKEDLIST_HANDLE list=%p", list);
 1007              		.loc 1 376 0 discriminator 3
 1008 000c FFF7FEFF 		bl	xlogging_get_log_function
 1009              	.LVL115:
 1010 0010 041E     		subs	r4, r0, #0
 1011              	.LVL116:
 1012 0012 2DD0     		beq	.L88
 1013              		.loc 1 376 0 is_stmt 0 discriminator 4
 1014 0014 0295     		str	r5, [sp, #8]
 1015 0016 184B     		ldr	r3, .L89
 1016 0018 0193     		str	r3, [sp, #4]
 1017 001a 0123     		movs	r3, #1
 1018 001c 0093     		str	r3, [sp]
 1019 001e 7833     		adds	r3, r3, #120
 1020 0020 FF33     		adds	r3, r3, #255
 1021 0022 164A     		ldr	r2, .L89+4
 1022 0024 6032     		adds	r2, r2, #96
 1023 0026 1649     		ldr	r1, .L89+8
 1024 0028 0020     		movs	r0, #0
 1025              	.LVL117:
 1026 002a A047     		blx	r4
 1027              	.LVL118:
 1028              	.LBE21:
 377:Source\azure_iot_sdk\c-utility\src/singlylinkedlist.c ****         result = NULL;
 1029              		.loc 1 377 0 is_stmt 1 discriminator 4
 1030 002c 0024     		movs	r4, #0
 1031              	.LVL119:
 1032 002e 20E0     		b	.L85
 1033              	.LVL120:
 1034              	.L84:
 378:Source\azure_iot_sdk\c-utility\src/singlylinkedlist.c ****     }
ARM GAS  C:\Users\Phuong\AppData\Local\Temp\ccqdt0Pq.s 			page 26


 379:Source\azure_iot_sdk\c-utility\src/singlylinkedlist.c ****     else
 380:Source\azure_iot_sdk\c-utility\src/singlylinkedlist.c ****     {
 381:Source\azure_iot_sdk\c-utility\src/singlylinkedlist.c ****         result = malloc(sizeof(LIST_ITEM_INSTANCE));
 1035              		.loc 1 381 0
 1036 0030 0820     		movs	r0, #8
 1037              	.LVL121:
 1038 0032 FFF7FEFF 		bl	malloc
 1039              	.LVL122:
 1040 0036 041E     		subs	r4, r0, #0
 1041              	.LVL123:
 382:Source\azure_iot_sdk\c-utility\src/singlylinkedlist.c **** 
 383:Source\azure_iot_sdk\c-utility\src/singlylinkedlist.c ****         if (result == NULL)
 1042              		.loc 1 383 0
 1043 0038 0FD1     		bne	.L86
 1044              	.LBB22:
 384:Source\azure_iot_sdk\c-utility\src/singlylinkedlist.c ****         {
 385:Source\azure_iot_sdk\c-utility\src/singlylinkedlist.c ****             /*Codes_SRS_LIST_02_003: [ If there are any failures then singlylinkedlist_add_head sha
 386:Source\azure_iot_sdk\c-utility\src/singlylinkedlist.c ****             LogError("failure in malloc");
 1045              		.loc 1 386 0 discriminator 3
 1046 003a FFF7FEFF 		bl	xlogging_get_log_function
 1047              	.LVL124:
 1048 003e 051E     		subs	r5, r0, #0
 1049              	.LVL125:
 1050 0040 17D0     		beq	.L85
 1051              		.loc 1 386 0 is_stmt 0 discriminator 4
 1052 0042 104B     		ldr	r3, .L89+12
 1053 0044 0193     		str	r3, [sp, #4]
 1054 0046 0123     		movs	r3, #1
 1055 0048 0093     		str	r3, [sp]
 1056 004a 8233     		adds	r3, r3, #130
 1057 004c FF33     		adds	r3, r3, #255
 1058 004e 0B4A     		ldr	r2, .L89+4
 1059 0050 6032     		adds	r2, r2, #96
 1060 0052 0B49     		ldr	r1, .L89+8
 1061 0054 0020     		movs	r0, #0
 1062              	.LVL126:
 1063 0056 A847     		blx	r5
 1064              	.LVL127:
 1065 0058 0BE0     		b	.L85
 1066              	.LVL128:
 1067              	.L86:
 1068              	.LBE22:
 387:Source\azure_iot_sdk\c-utility\src/singlylinkedlist.c ****             /*return as is*/
 388:Source\azure_iot_sdk\c-utility\src/singlylinkedlist.c ****         }
 389:Source\azure_iot_sdk\c-utility\src/singlylinkedlist.c ****         else
 390:Source\azure_iot_sdk\c-utility\src/singlylinkedlist.c ****         {
 391:Source\azure_iot_sdk\c-utility\src/singlylinkedlist.c ****             /*Codes_SRS_LIST_02_002: [ singlylinkedlist_add_head shall insert item at head, succeed
 392:Source\azure_iot_sdk\c-utility\src/singlylinkedlist.c ****             result->item = item;
 1069              		.loc 1 392 0 is_stmt 1
 1070 005a 0660     		str	r6, [r0]
 393:Source\azure_iot_sdk\c-utility\src/singlylinkedlist.c ****             if (list->head == NULL)
 1071              		.loc 1 393 0
 1072 005c 2B68     		ldr	r3, [r5]
 1073 005e 002B     		cmp	r3, #0
 1074 0060 03D1     		bne	.L87
 394:Source\azure_iot_sdk\c-utility\src/singlylinkedlist.c ****             {
 395:Source\azure_iot_sdk\c-utility\src/singlylinkedlist.c ****                 result->next = NULL;
ARM GAS  C:\Users\Phuong\AppData\Local\Temp\ccqdt0Pq.s 			page 27


 1075              		.loc 1 395 0
 1076 0062 4360     		str	r3, [r0, #4]
 396:Source\azure_iot_sdk\c-utility\src/singlylinkedlist.c ****                 list->head = result;
 1077              		.loc 1 396 0
 1078 0064 2860     		str	r0, [r5]
 397:Source\azure_iot_sdk\c-utility\src/singlylinkedlist.c ****                 list->tail = result;
 1079              		.loc 1 397 0
 1080 0066 6860     		str	r0, [r5, #4]
 1081 0068 03E0     		b	.L85
 1082              	.L87:
 398:Source\azure_iot_sdk\c-utility\src/singlylinkedlist.c ****                 
 399:Source\azure_iot_sdk\c-utility\src/singlylinkedlist.c ****             }
 400:Source\azure_iot_sdk\c-utility\src/singlylinkedlist.c ****             else
 401:Source\azure_iot_sdk\c-utility\src/singlylinkedlist.c ****             {
 402:Source\azure_iot_sdk\c-utility\src/singlylinkedlist.c ****                 result->next = list->head;
 1083              		.loc 1 402 0
 1084 006a 4360     		str	r3, [r0, #4]
 403:Source\azure_iot_sdk\c-utility\src/singlylinkedlist.c ****                 list->head = result;
 1085              		.loc 1 403 0
 1086 006c 2860     		str	r0, [r5]
 1087 006e 00E0     		b	.L85
 1088              	.LVL129:
 1089              	.L88:
 377:Source\azure_iot_sdk\c-utility\src/singlylinkedlist.c ****     }
 1090              		.loc 1 377 0
 1091 0070 0024     		movs	r4, #0
 1092              	.LVL130:
 1093              	.L85:
 404:Source\azure_iot_sdk\c-utility\src/singlylinkedlist.c ****             }
 405:Source\azure_iot_sdk\c-utility\src/singlylinkedlist.c ****         }
 406:Source\azure_iot_sdk\c-utility\src/singlylinkedlist.c ****     }
 407:Source\azure_iot_sdk\c-utility\src/singlylinkedlist.c **** 
 408:Source\azure_iot_sdk\c-utility\src/singlylinkedlist.c ****     return result;
 409:Source\azure_iot_sdk\c-utility\src/singlylinkedlist.c **** }
 1094              		.loc 1 409 0
 1095 0072 2000     		movs	r0, r4
 1096 0074 04B0     		add	sp, sp, #16
 1097              		@ sp needed
 1098              	.LVL131:
 1099              	.LVL132:
 1100 0076 70BD     		pop	{r4, r5, r6, pc}
 1101              	.L90:
 1102              		.align	2
 1103              	.L89:
 1104 0078 58010000 		.word	.LC34
 1105 007c 80000000 		.word	.LANCHOR1
 1106 0080 00000000 		.word	.LC1
 1107 0084 8C010000 		.word	.LC36
 1108              		.cfi_endproc
 1109              	.LFE11:
 1110              		.size	singlylinkedlist_add_head, .-singlylinkedlist_add_head
 1111              		.section	.rodata
 1112              		.align	2
 1113              		.set	.LANCHOR0,. + 0
 1114              		.set	.LANCHOR1,. + 128
 1115              		.type	__func__.5904, %object
 1116              		.size	__func__.5904, 21
ARM GAS  C:\Users\Phuong\AppData\Local\Temp\ccqdt0Pq.s 			page 28


 1117              	__func__.5904:
 1118 0000 73696E67 		.ascii	"singlylinkedlist_add\000"
 1118      6C796C69 
 1118      6E6B6564 
 1118      6C697374 
 1118      5F616464 
 1119 0015 000000   		.space	3
 1120              		.type	__func__.5914, %object
 1121              		.size	__func__.5914, 24
 1122              	__func__.5914:
 1123 0018 73696E67 		.ascii	"singlylinkedlist_remove\000"
 1123      6C796C69 
 1123      6E6B6564 
 1123      6C697374 
 1123      5F72656D 
 1124              		.type	__func__.5928, %object
 1125              		.size	__func__.5928, 31
 1126              	__func__.5928:
 1127 0030 73696E67 		.ascii	"singlylinkedlist_get_head_item\000"
 1127      6C796C69 
 1127      6E6B6564 
 1127      6C697374 
 1127      5F676574 
 1128 004f 00       		.space	1
 1129              		.type	__func__.5937, %object
 1130              		.size	__func__.5937, 31
 1131              	__func__.5937:
 1132 0050 73696E67 		.ascii	"singlylinkedlist_get_next_item\000"
 1132      6C796C69 
 1132      6E6B6564 
 1132      6C697374 
 1132      5F676574 
 1133 006f 00       		.space	1
 1134              		.type	__func__.5945, %object
 1135              		.size	__func__.5945, 32
 1136              	__func__.5945:
 1137 0070 73696E67 		.ascii	"singlylinkedlist_item_get_value\000"
 1137      6C796C69 
 1137      6E6B6564 
 1137      6C697374 
 1137      5F697465 
 1138              		.type	__func__.5955, %object
 1139              		.size	__func__.5955, 22
 1140              	__func__.5955:
 1141 0090 73696E67 		.ascii	"singlylinkedlist_find\000"
 1141      6C796C69 
 1141      6E6B6564 
 1141      6C697374 
 1141      5F66696E 
 1142 00a6 0000     		.space	2
 1143              		.type	__func__.5970, %object
 1144              		.size	__func__.5970, 27
 1145              	__func__.5970:
 1146 00a8 73696E67 		.ascii	"singlylinkedlist_remove_if\000"
 1146      6C796C69 
 1146      6E6B6564 
 1146      6C697374 
ARM GAS  C:\Users\Phuong\AppData\Local\Temp\ccqdt0Pq.s 			page 29


 1146      5F72656D 
 1147 00c3 00       		.space	1
 1148              		.type	__func__.5988, %object
 1149              		.size	__func__.5988, 25
 1150              	__func__.5988:
 1151 00c4 73696E67 		.ascii	"singlylinkedlist_foreach\000"
 1151      6C796C69 
 1151      6E6B6564 
 1151      6C697374 
 1151      5F666F72 
 1152 00dd 000000   		.space	3
 1153              		.type	__func__.6003, %object
 1154              		.size	__func__.6003, 26
 1155              	__func__.6003:
 1156 00e0 73696E67 		.ascii	"singlylinkedlist_add_head\000"
 1156      6C796C69 
 1156      6E6B6564 
 1156      6C697374 
 1156      5F616464 
 1157              		.section	.rodata.str1.4,"aMS",%progbits,1
 1158              		.align	2
 1159              	.LC1:
 1160 0000 536F7572 		.ascii	"Source\\azure_iot_sdk\\c-utility\\src\\singlylinked"
 1160      63655C61 
 1160      7A757265 
 1160      5F696F74 
 1160      5F73646B 
 1161 002f 6C697374 		.ascii	"list.c\000"
 1161      2E6300
 1162 0036 0000     		.space	2
 1163              	.LC3:
 1164 0038 496E7661 		.ascii	"Invalid argument (list=%p, item=%p)\000"
 1164      6C696420 
 1164      61726775 
 1164      6D656E74 
 1164      20286C69 
 1165              	.LC10:
 1166 005c 496E7661 		.ascii	"Invalid argument (list=NULL)\000"
 1166      6C696420 
 1166      61726775 
 1166      6D656E74 
 1166      20286C69 
 1167 0079 000000   		.space	3
 1168              	.LC14:
 1169 007c 496E7661 		.ascii	"Invalid argument (list is NULL)\000"
 1169      6C696420 
 1169      61726775 
 1169      6D656E74 
 1169      20286C69 
 1170              	.LC18:
 1171 009c 496E7661 		.ascii	"Invalid argument (item_handle is NULL)\000"
 1171      6C696420 
 1171      61726775 
 1171      6D656E74 
 1171      20286974 
 1172 00c3 00       		.space	1
 1173              	.LC22:
ARM GAS  C:\Users\Phuong\AppData\Local\Temp\ccqdt0Pq.s 			page 30


 1174 00c4 496E7661 		.ascii	"Invalid argument (list=%p, match_function=%p)\000"
 1174      6C696420 
 1174      61726775 
 1174      6D656E74 
 1174      20286C69 
 1175 00f2 0000     		.space	2
 1176              	.LC26:
 1177 00f4 496E7661 		.ascii	"Invalid argument (list=%p, condition_function=%p)\000"
 1177      6C696420 
 1177      61726775 
 1177      6D656E74 
 1177      20286C69 
 1178 0126 0000     		.space	2
 1179              	.LC30:
 1180 0128 496E7661 		.ascii	"Invalid argument (list=%p, action_function=%p)\000"
 1180      6C696420 
 1180      61726775 
 1180      6D656E74 
 1180      20286C69 
 1181 0157 00       		.space	1
 1182              	.LC34:
 1183 0158 496E7661 		.ascii	"Invalid argument SINGLYLINKEDLIST_HANDLE list=%p\000"
 1183      6C696420 
 1183      61726775 
 1183      6D656E74 
 1183      2053494E 
 1184 0189 000000   		.space	3
 1185              	.LC36:
 1186 018c 6661696C 		.ascii	"failure in malloc\000"
 1186      75726520 
 1186      696E206D 
 1186      616C6C6F 
 1186      6300
 1187              		.text
 1188              	.Letext0:
 1189              		.file 2 ".\\Source\\azure_iot_sdk\\c-utility\\inc/azure_c_shared_utility/singlylinkedlist.h"
 1190              		.file 3 ".\\Source\\azure_iot_sdk\\c-utility\\inc/azure_c_shared_utility/xlogging.h"
 1191              		.file 4 "c:\\program files (x86)\\cypress\\psoc creator\\4.2\\psoc creator\\import\\gnu\\arm\\5.4.