ARM GAS  C:\Users\Phuong\AppData\Local\Temp\ccOnRzaD.s 			page 1


   1              		.syntax unified
   2              		.cpu cortex-m0plus
   3              		.fpu softvfp
   4              		.eabi_attribute 20, 1
   5              		.eabi_attribute 21, 1
   6              		.eabi_attribute 23, 3
   7              		.eabi_attribute 24, 1
   8              		.eabi_attribute 25, 1
   9              		.eabi_attribute 26, 1
  10              		.eabi_attribute 30, 1
  11              		.eabi_attribute 34, 0
  12              		.eabi_attribute 18, 4
  13              		.thumb
  14              		.syntax unified
  15              		.file	"slipif.c"
  16              		.text
  17              	.Ltext0:
  18              		.cfi_sections	.debug_frame
  19              		.section	.text.slipif_rxbyte,"ax",%progbits
  20              		.align	2
  21              		.code	16
  22              		.thumb_func
  23              		.type	slipif_rxbyte, %function
  24              	slipif_rxbyte:
  25              	.LFB93:
  26              		.file 1 "Source\\LwIP\\src\\netif\\slipif.c"
   1:Source\LwIP\src\netif/slipif.c **** /**
   2:Source\LwIP\src\netif/slipif.c ****  * @file
   3:Source\LwIP\src\netif/slipif.c ****  * SLIP Interface
   4:Source\LwIP\src\netif/slipif.c ****  *
   5:Source\LwIP\src\netif/slipif.c ****  */
   6:Source\LwIP\src\netif/slipif.c **** 
   7:Source\LwIP\src\netif/slipif.c **** /*
   8:Source\LwIP\src\netif/slipif.c ****  * Copyright (c) 2001-2004 Swedish Institute of Computer Science.
   9:Source\LwIP\src\netif/slipif.c ****  * All rights reserved.
  10:Source\LwIP\src\netif/slipif.c ****  *
  11:Source\LwIP\src\netif/slipif.c ****  * Redistribution and use in source and binary forms, with or without
  12:Source\LwIP\src\netif/slipif.c ****  * modification, are permitted provided that the following conditions
  13:Source\LwIP\src\netif/slipif.c ****  * are met:
  14:Source\LwIP\src\netif/slipif.c ****  * 1. Redistributions of source code must retain the above copyright
  15:Source\LwIP\src\netif/slipif.c ****  *    notice, this list of conditions and the following disclaimer.
  16:Source\LwIP\src\netif/slipif.c ****  * 2. Redistributions in binary form must reproduce the above copyright
  17:Source\LwIP\src\netif/slipif.c ****  *    notice, this list of conditions and the following disclaimer in the
  18:Source\LwIP\src\netif/slipif.c ****  *    documentation and/or other materials provided with the distribution.
  19:Source\LwIP\src\netif/slipif.c ****  * 3. Neither the name of the Institute nor the names of its contributors
  20:Source\LwIP\src\netif/slipif.c ****  *    may be used to endorse or promote products derived from this software
  21:Source\LwIP\src\netif/slipif.c ****  *    without specific prior written permission.
  22:Source\LwIP\src\netif/slipif.c ****  *
  23:Source\LwIP\src\netif/slipif.c ****  * THIS SOFTWARE IS PROVIDED BY THE INSTITUTE AND CONTRIBUTORS ``AS IS'' AND
  24:Source\LwIP\src\netif/slipif.c ****  * ANY EXPRESS OR IMPLIED WARRANTIES, INCLUDING, BUT NOT LIMITED TO, THE
  25:Source\LwIP\src\netif/slipif.c ****  * IMPLIED WARRANTIES OF MERCHANTABILITY AND FITNESS FOR A PARTICULAR PURPOSE
  26:Source\LwIP\src\netif/slipif.c ****  * ARE DISCLAIMED.  IN NO EVENT SHALL THE INSTITUTE OR CONTRIBUTORS BE LIABLE
  27:Source\LwIP\src\netif/slipif.c ****  * FOR ANY DIRECT, INDIRECT, INCIDENTAL, SPECIAL, EXEMPLARY, OR CONSEQUENTIAL
  28:Source\LwIP\src\netif/slipif.c ****  * DAMAGES (INCLUDING, BUT NOT LIMITED TO, PROCUREMENT OF SUBSTITUTE GOODS
  29:Source\LwIP\src\netif/slipif.c ****  * OR SERVICES; LOSS OF USE, DATA, OR PROFITS; OR BUSINESS INTERRUPTION)
  30:Source\LwIP\src\netif/slipif.c ****  * HOWEVER CAUSED AND ON ANY THEORY OF LIABILITY, WHETHER IN CONTRACT, STRICT
  31:Source\LwIP\src\netif/slipif.c ****  * LIABILITY, OR TORT (INCLUDING NEGLIGENCE OR OTHERWISE) ARISING IN ANY WAY
ARM GAS  C:\Users\Phuong\AppData\Local\Temp\ccOnRzaD.s 			page 2


  32:Source\LwIP\src\netif/slipif.c ****  * OUT OF THE USE OF THIS SOFTWARE, EVEN IF ADVISED OF THE POSSIBILITY OF
  33:Source\LwIP\src\netif/slipif.c ****  * SUCH DAMAGE.
  34:Source\LwIP\src\netif/slipif.c ****  *
  35:Source\LwIP\src\netif/slipif.c ****  * This file is built upon the file: src/arch/rtxc/netif/sioslip.c
  36:Source\LwIP\src\netif/slipif.c ****  *
  37:Source\LwIP\src\netif/slipif.c ****  * Author: Magnus Ivarsson <magnus.ivarsson(at)volvo.com>
  38:Source\LwIP\src\netif/slipif.c ****  *         Simon Goldschmidt
  39:Source\LwIP\src\netif/slipif.c ****  */
  40:Source\LwIP\src\netif/slipif.c **** 
  41:Source\LwIP\src\netif/slipif.c **** 
  42:Source\LwIP\src\netif/slipif.c **** /**
  43:Source\LwIP\src\netif/slipif.c ****  * @defgroup slipif SLIP netif
  44:Source\LwIP\src\netif/slipif.c ****  * @ingroup addons
  45:Source\LwIP\src\netif/slipif.c ****  *
  46:Source\LwIP\src\netif/slipif.c ****  * This is an arch independent SLIP netif. The specific serial hooks must be
  47:Source\LwIP\src\netif/slipif.c ****  * provided by another file. They are sio_open, sio_read/sio_tryread and sio_send
  48:Source\LwIP\src\netif/slipif.c ****  *
  49:Source\LwIP\src\netif/slipif.c ****  * Usage: This netif can be used in three ways:\n
  50:Source\LwIP\src\netif/slipif.c ****  *        1) For NO_SYS==0, an RX thread can be used which blocks on sio_read()
  51:Source\LwIP\src\netif/slipif.c ****  *           until data is received.\n
  52:Source\LwIP\src\netif/slipif.c ****  *        2) In your main loop, call slipif_poll() to check for new RX bytes,
  53:Source\LwIP\src\netif/slipif.c ****  *           completed packets are fed into netif->input().\n
  54:Source\LwIP\src\netif/slipif.c ****  *        3) Call slipif_received_byte[s]() from your serial RX ISR and
  55:Source\LwIP\src\netif/slipif.c ****  *           slipif_process_rxqueue() from your main loop. ISR level decodes
  56:Source\LwIP\src\netif/slipif.c ****  *           packets and puts completed packets on a queue which is fed into
  57:Source\LwIP\src\netif/slipif.c ****  *           the stack from the main loop (needs SYS_LIGHTWEIGHT_PROT for
  58:Source\LwIP\src\netif/slipif.c ****  *           pbuf_alloc to work on ISR level!).
  59:Source\LwIP\src\netif/slipif.c ****  *
  60:Source\LwIP\src\netif/slipif.c ****  */
  61:Source\LwIP\src\netif/slipif.c **** 
  62:Source\LwIP\src\netif/slipif.c **** #include "netif/slipif.h"
  63:Source\LwIP\src\netif/slipif.c **** #include "lwip/opt.h"
  64:Source\LwIP\src\netif/slipif.c **** 
  65:Source\LwIP\src\netif/slipif.c **** #include "lwip/def.h"
  66:Source\LwIP\src\netif/slipif.c **** #include "lwip/pbuf.h"
  67:Source\LwIP\src\netif/slipif.c **** #include "lwip/stats.h"
  68:Source\LwIP\src\netif/slipif.c **** #include "lwip/snmp.h"
  69:Source\LwIP\src\netif/slipif.c **** #include "lwip/sys.h"
  70:Source\LwIP\src\netif/slipif.c **** #include "lwip/sio.h"
  71:Source\LwIP\src\netif/slipif.c **** #include "gpio/cy_gpio.h"
  72:Source\LwIP\src\netif/slipif.c **** 
  73:Source\LwIP\src\netif/slipif.c **** #define SLIP_END     0xC0 /* 0300: start and end of every packet */
  74:Source\LwIP\src\netif/slipif.c **** #define SLIP_ESC     0xDB /* 0333: escape start (one byte escaped data follows) */
  75:Source\LwIP\src\netif/slipif.c **** #define SLIP_ESC_END 0xDC /* 0334: following escape: original byte is 0xC0 (END) */
  76:Source\LwIP\src\netif/slipif.c **** #define SLIP_ESC_ESC 0xDD /* 0335: following escape: original byte is 0xDB (ESC) */
  77:Source\LwIP\src\netif/slipif.c **** 
  78:Source\LwIP\src\netif/slipif.c **** /** Maximum packet size that is received by this netif */
  79:Source\LwIP\src\netif/slipif.c **** #ifndef SLIP_MAX_SIZE
  80:Source\LwIP\src\netif/slipif.c **** #define SLIP_MAX_SIZE 1500
  81:Source\LwIP\src\netif/slipif.c **** #endif
  82:Source\LwIP\src\netif/slipif.c **** 
  83:Source\LwIP\src\netif/slipif.c **** /** Define this to the interface speed for SNMP
  84:Source\LwIP\src\netif/slipif.c ****  * (sio_fd is the sio_fd_t returned by sio_open).
  85:Source\LwIP\src\netif/slipif.c ****  * The default value of zero means 'unknown'.
  86:Source\LwIP\src\netif/slipif.c ****  */
  87:Source\LwIP\src\netif/slipif.c **** #ifndef SLIP_SIO_SPEED
  88:Source\LwIP\src\netif/slipif.c **** #define SLIP_SIO_SPEED(sio_fd) 0
ARM GAS  C:\Users\Phuong\AppData\Local\Temp\ccOnRzaD.s 			page 3


  89:Source\LwIP\src\netif/slipif.c **** #endif
  90:Source\LwIP\src\netif/slipif.c **** 
  91:Source\LwIP\src\netif/slipif.c **** enum slipif_recv_state {
  92:Source\LwIP\src\netif/slipif.c ****     SLIP_RECV_NORMAL,
  93:Source\LwIP\src\netif/slipif.c ****     SLIP_RECV_ESCAPE
  94:Source\LwIP\src\netif/slipif.c **** };
  95:Source\LwIP\src\netif/slipif.c **** 
  96:Source\LwIP\src\netif/slipif.c **** struct slipif_priv {
  97:Source\LwIP\src\netif/slipif.c ****   sio_fd_t sd;
  98:Source\LwIP\src\netif/slipif.c ****   /* q is the whole pbuf chain for a packet, p is the current pbuf in the chain */
  99:Source\LwIP\src\netif/slipif.c ****   struct pbuf *p, *q;
 100:Source\LwIP\src\netif/slipif.c ****   u8_t state;
 101:Source\LwIP\src\netif/slipif.c ****   u16_t i, recved;
 102:Source\LwIP\src\netif/slipif.c **** #if SLIP_RX_FROM_ISR
 103:Source\LwIP\src\netif/slipif.c ****   struct pbuf *rxpackets;
 104:Source\LwIP\src\netif/slipif.c **** #endif
 105:Source\LwIP\src\netif/slipif.c **** };
 106:Source\LwIP\src\netif/slipif.c **** 
 107:Source\LwIP\src\netif/slipif.c **** /**
 108:Source\LwIP\src\netif/slipif.c ****  * Send a pbuf doing the necessary SLIP encapsulation
 109:Source\LwIP\src\netif/slipif.c ****  *
 110:Source\LwIP\src\netif/slipif.c ****  * Uses the serial layer's sio_send()
 111:Source\LwIP\src\netif/slipif.c ****  *
 112:Source\LwIP\src\netif/slipif.c ****  * @param netif the lwip network interface structure for this slipif
 113:Source\LwIP\src\netif/slipif.c ****  * @param p the pbuf chain packet to send
 114:Source\LwIP\src\netif/slipif.c ****  * @return always returns ERR_OK since the serial layer does not provide return values
 115:Source\LwIP\src\netif/slipif.c ****  */
 116:Source\LwIP\src\netif/slipif.c **** static err_t
 117:Source\LwIP\src\netif/slipif.c **** slipif_output(struct netif *netif, struct pbuf *p)
 118:Source\LwIP\src\netif/slipif.c **** {
 119:Source\LwIP\src\netif/slipif.c ****   struct slipif_priv *priv;
 120:Source\LwIP\src\netif/slipif.c ****   struct pbuf *q;
 121:Source\LwIP\src\netif/slipif.c ****   u16_t i;
 122:Source\LwIP\src\netif/slipif.c ****   u8_t c;
 123:Source\LwIP\src\netif/slipif.c **** 
 124:Source\LwIP\src\netif/slipif.c ****   LWIP_ASSERT("netif != NULL", (netif != NULL));
 125:Source\LwIP\src\netif/slipif.c ****   LWIP_ASSERT("netif->state != NULL", (netif->state != NULL));
 126:Source\LwIP\src\netif/slipif.c ****   LWIP_ASSERT("p != NULL", (p != NULL));
 127:Source\LwIP\src\netif/slipif.c **** 
 128:Source\LwIP\src\netif/slipif.c ****   LWIP_DEBUGF(SLIP_DEBUG, ("slipif_output(%"U16_F"): sending %"U16_F" bytes\n", (u16_t)netif->num, 
 129:Source\LwIP\src\netif/slipif.c ****   priv = (struct slipif_priv *)netif->state;
 130:Source\LwIP\src\netif/slipif.c **** 
 131:Source\LwIP\src\netif/slipif.c ****   Cy_GPIO_Write(Pin_1_0_PORT, Pin_1_0_NUM, 1);
 132:Source\LwIP\src\netif/slipif.c **** 
 133:Source\LwIP\src\netif/slipif.c ****   /* Send pbuf out on the serial I/O device. */
 134:Source\LwIP\src\netif/slipif.c ****   /* Start with packet delimiter. */
 135:Source\LwIP\src\netif/slipif.c ****   sio_send(SLIP_END, priv->sd);
 136:Source\LwIP\src\netif/slipif.c **** 
 137:Source\LwIP\src\netif/slipif.c ****   for (q = p; q != NULL; q = q->next) {
 138:Source\LwIP\src\netif/slipif.c ****     for (i = 0; i < q->len; i++) {
 139:Source\LwIP\src\netif/slipif.c ****       c = ((u8_t *)q->payload)[i];
 140:Source\LwIP\src\netif/slipif.c ****       switch (c) {
 141:Source\LwIP\src\netif/slipif.c ****       case SLIP_END:
 142:Source\LwIP\src\netif/slipif.c ****         /* need to escape this byte (0xC0 -> 0xDB, 0xDC) */
 143:Source\LwIP\src\netif/slipif.c ****         sio_send(SLIP_ESC, priv->sd);
 144:Source\LwIP\src\netif/slipif.c ****         sio_send(SLIP_ESC_END, priv->sd);
 145:Source\LwIP\src\netif/slipif.c ****         break;
ARM GAS  C:\Users\Phuong\AppData\Local\Temp\ccOnRzaD.s 			page 4


 146:Source\LwIP\src\netif/slipif.c ****       case SLIP_ESC:
 147:Source\LwIP\src\netif/slipif.c ****         /* need to escape this byte (0xDB -> 0xDB, 0xDD) */
 148:Source\LwIP\src\netif/slipif.c ****         sio_send(SLIP_ESC, priv->sd);
 149:Source\LwIP\src\netif/slipif.c ****         sio_send(SLIP_ESC_ESC, priv->sd);
 150:Source\LwIP\src\netif/slipif.c ****         break;
 151:Source\LwIP\src\netif/slipif.c ****       default:
 152:Source\LwIP\src\netif/slipif.c ****         /* normal byte - no need for escaping */
 153:Source\LwIP\src\netif/slipif.c ****         sio_send(c, priv->sd);
 154:Source\LwIP\src\netif/slipif.c ****         break;
 155:Source\LwIP\src\netif/slipif.c ****       }
 156:Source\LwIP\src\netif/slipif.c ****     }
 157:Source\LwIP\src\netif/slipif.c ****   }
 158:Source\LwIP\src\netif/slipif.c **** #if 0
 159:Source\LwIP\src\netif/slipif.c ****   for (q = p; q != NULL; q = q->next) {
 160:Source\LwIP\src\netif/slipif.c ****         sio_write(priv->sd, (u8_t *)q->payload, q->len);
 161:Source\LwIP\src\netif/slipif.c ****     }
 162:Source\LwIP\src\netif/slipif.c **** #endif
 163:Source\LwIP\src\netif/slipif.c **** 
 164:Source\LwIP\src\netif/slipif.c ****   Cy_SysLib_DelayUs(80);
 165:Source\LwIP\src\netif/slipif.c **** 
 166:Source\LwIP\src\netif/slipif.c ****   /* End with packet delimiter. */
 167:Source\LwIP\src\netif/slipif.c ****   sio_send(SLIP_END, priv->sd);
 168:Source\LwIP\src\netif/slipif.c **** 
 169:Source\LwIP\src\netif/slipif.c ****   Cy_GPIO_Write(Pin_1_0_PORT, Pin_1_0_NUM, 0);
 170:Source\LwIP\src\netif/slipif.c ****   
 171:Source\LwIP\src\netif/slipif.c ****   return ERR_OK;
 172:Source\LwIP\src\netif/slipif.c **** }
 173:Source\LwIP\src\netif/slipif.c **** 
 174:Source\LwIP\src\netif/slipif.c **** #if LWIP_IPV4
 175:Source\LwIP\src\netif/slipif.c **** /**
 176:Source\LwIP\src\netif/slipif.c ****  * Send a pbuf doing the necessary SLIP encapsulation
 177:Source\LwIP\src\netif/slipif.c ****  *
 178:Source\LwIP\src\netif/slipif.c ****  * Uses the serial layer's sio_send()
 179:Source\LwIP\src\netif/slipif.c ****  *
 180:Source\LwIP\src\netif/slipif.c ****  * @param netif the lwip network interface structure for this slipif
 181:Source\LwIP\src\netif/slipif.c ****  * @param p the pbuf chain packet to send
 182:Source\LwIP\src\netif/slipif.c ****  * @param ipaddr the ip address to send the packet to (not used for slipif)
 183:Source\LwIP\src\netif/slipif.c ****  * @return always returns ERR_OK since the serial layer does not provide return values
 184:Source\LwIP\src\netif/slipif.c ****  */
 185:Source\LwIP\src\netif/slipif.c **** static err_t
 186:Source\LwIP\src\netif/slipif.c **** slipif_output_v4(struct netif *netif, struct pbuf *p, const ip4_addr_t *ipaddr)
 187:Source\LwIP\src\netif/slipif.c **** {
 188:Source\LwIP\src\netif/slipif.c ****   LWIP_UNUSED_ARG(ipaddr);
 189:Source\LwIP\src\netif/slipif.c ****   return slipif_output(netif, p);
 190:Source\LwIP\src\netif/slipif.c **** }
 191:Source\LwIP\src\netif/slipif.c **** #endif /* LWIP_IPV4 */
 192:Source\LwIP\src\netif/slipif.c **** 
 193:Source\LwIP\src\netif/slipif.c **** #if LWIP_IPV6
 194:Source\LwIP\src\netif/slipif.c **** /**
 195:Source\LwIP\src\netif/slipif.c ****  * Send a pbuf doing the necessary SLIP encapsulation
 196:Source\LwIP\src\netif/slipif.c ****  *
 197:Source\LwIP\src\netif/slipif.c ****  * Uses the serial layer's sio_send()
 198:Source\LwIP\src\netif/slipif.c ****  *
 199:Source\LwIP\src\netif/slipif.c ****  * @param netif the lwip network interface structure for this slipif
 200:Source\LwIP\src\netif/slipif.c ****  * @param p the pbuf chain packet to send
 201:Source\LwIP\src\netif/slipif.c ****  * @param ipaddr the ip address to send the packet to (not used for slipif)
 202:Source\LwIP\src\netif/slipif.c ****  * @return always returns ERR_OK since the serial layer does not provide return values
ARM GAS  C:\Users\Phuong\AppData\Local\Temp\ccOnRzaD.s 			page 5


 203:Source\LwIP\src\netif/slipif.c ****  */
 204:Source\LwIP\src\netif/slipif.c **** static err_t
 205:Source\LwIP\src\netif/slipif.c **** slipif_output_v6(struct netif *netif, struct pbuf *p, const ip6_addr_t *ipaddr)
 206:Source\LwIP\src\netif/slipif.c **** {
 207:Source\LwIP\src\netif/slipif.c ****   LWIP_UNUSED_ARG(ipaddr);
 208:Source\LwIP\src\netif/slipif.c ****   return slipif_output(netif, p);
 209:Source\LwIP\src\netif/slipif.c **** }
 210:Source\LwIP\src\netif/slipif.c **** #endif /* LWIP_IPV6 */
 211:Source\LwIP\src\netif/slipif.c **** 
 212:Source\LwIP\src\netif/slipif.c **** /**
 213:Source\LwIP\src\netif/slipif.c ****  * Handle the incoming SLIP stream character by character
 214:Source\LwIP\src\netif/slipif.c ****  *
 215:Source\LwIP\src\netif/slipif.c ****  * @param netif the lwip network interface structure for this slipif
 216:Source\LwIP\src\netif/slipif.c ****  * @param c received character (multiple calls to this function will
 217:Source\LwIP\src\netif/slipif.c ****  *        return a complete packet, NULL is returned before - used for polling)
 218:Source\LwIP\src\netif/slipif.c ****  * @return The IP packet when SLIP_END is received
 219:Source\LwIP\src\netif/slipif.c ****  */
 220:Source\LwIP\src\netif/slipif.c **** static struct pbuf*
 221:Source\LwIP\src\netif/slipif.c **** slipif_rxbyte(struct netif *netif, u8_t c)
 222:Source\LwIP\src\netif/slipif.c **** {
  27              		.loc 1 222 0
  28              		.cfi_startproc
  29              		@ args = 0, pretend = 0, frame = 0
  30              		@ frame_needed = 0, uses_anonymous_args = 0
  31              	.LVL0:
  32 0000 70B5     		push	{r4, r5, r6, lr}
  33              		.cfi_def_cfa_offset 16
  34              		.cfi_offset 4, -16
  35              		.cfi_offset 5, -12
  36              		.cfi_offset 6, -8
  37              		.cfi_offset 14, -4
  38 0002 0D00     		movs	r5, r1
 223:Source\LwIP\src\netif/slipif.c ****   struct slipif_priv *priv;
 224:Source\LwIP\src\netif/slipif.c ****   struct pbuf *t;
 225:Source\LwIP\src\netif/slipif.c **** 
 226:Source\LwIP\src\netif/slipif.c ****   LWIP_ASSERT("netif != NULL", (netif != NULL));
 227:Source\LwIP\src\netif/slipif.c ****   LWIP_ASSERT("netif->state != NULL", (netif->state != NULL));
 228:Source\LwIP\src\netif/slipif.c **** 
 229:Source\LwIP\src\netif/slipif.c ****   priv = (struct slipif_priv *)netif->state;
  39              		.loc 1 229 0
  40 0004 046A     		ldr	r4, [r0, #32]
  41              	.LVL1:
 230:Source\LwIP\src\netif/slipif.c **** 
 231:Source\LwIP\src\netif/slipif.c ****   switch (priv->state) {
  42              		.loc 1 231 0
  43 0006 237B     		ldrb	r3, [r4, #12]
  44 0008 002B     		cmp	r3, #0
  45 000a 02D0     		beq	.L3
  46 000c 012B     		cmp	r3, #1
  47 000e 1AD0     		beq	.L4
  48 0010 22E0     		b	.L2
  49              	.L3:
 232:Source\LwIP\src\netif/slipif.c ****   case SLIP_RECV_NORMAL:
 233:Source\LwIP\src\netif/slipif.c ****     switch (c) {
  50              		.loc 1 233 0
  51 0012 C029     		cmp	r1, #192
  52 0014 02D0     		beq	.L5
ARM GAS  C:\Users\Phuong\AppData\Local\Temp\ccOnRzaD.s 			page 6


  53 0016 DB29     		cmp	r1, #219
  54 0018 11D0     		beq	.L6
  55 001a 1DE0     		b	.L2
  56              	.L5:
 234:Source\LwIP\src\netif/slipif.c ****     case SLIP_END:
 235:Source\LwIP\src\netif/slipif.c ****       if (priv->recved > 0) {
  57              		.loc 1 235 0
  58 001c 218A     		ldrh	r1, [r4, #16]
  59              	.LVL2:
  60 001e 0029     		cmp	r1, #0
  61 0020 57D0     		beq	.L15
 236:Source\LwIP\src\netif/slipif.c ****         /* Received whole packet. */
 237:Source\LwIP\src\netif/slipif.c ****         /* Trim the pbuf to the size of the received packet. */
 238:Source\LwIP\src\netif/slipif.c ****         pbuf_realloc(priv->q, priv->recved);
  62              		.loc 1 238 0
  63 0022 A068     		ldr	r0, [r4, #8]
  64              	.LVL3:
  65 0024 FFF7FEFF 		bl	pbuf_realloc
  66              	.LVL4:
 239:Source\LwIP\src\netif/slipif.c **** 
 240:Source\LwIP\src\netif/slipif.c ****         LINK_STATS_INC(link.recv);
  67              		.loc 1 240 0
  68 0028 2D4A     		ldr	r2, .L19
  69 002a 5388     		ldrh	r3, [r2, #2]
  70 002c 0133     		adds	r3, r3, #1
  71 002e 5380     		strh	r3, [r2, #2]
 241:Source\LwIP\src\netif/slipif.c **** 
 242:Source\LwIP\src\netif/slipif.c ****         LWIP_DEBUGF(SLIP_DEBUG, ("slipif: Got packet (%"U16_F" bytes)\n", priv->recved));
 243:Source\LwIP\src\netif/slipif.c ****         t = priv->q;
  72              		.loc 1 243 0
  73 0030 A068     		ldr	r0, [r4, #8]
  74              	.LVL5:
 244:Source\LwIP\src\netif/slipif.c ****         priv->p = priv->q = NULL;
  75              		.loc 1 244 0
  76 0032 0023     		movs	r3, #0
  77 0034 A360     		str	r3, [r4, #8]
  78 0036 6360     		str	r3, [r4, #4]
 245:Source\LwIP\src\netif/slipif.c ****         priv->i = priv->recved = 0;
  79              		.loc 1 245 0
  80 0038 2382     		strh	r3, [r4, #16]
  81 003a E381     		strh	r3, [r4, #14]
 246:Source\LwIP\src\netif/slipif.c ****         return t;
  82              		.loc 1 246 0
  83 003c 4EE0     		b	.L7
  84              	.LVL6:
  85              	.L6:
 247:Source\LwIP\src\netif/slipif.c ****       }
 248:Source\LwIP\src\netif/slipif.c ****       return NULL;
 249:Source\LwIP\src\netif/slipif.c ****     case SLIP_ESC:
 250:Source\LwIP\src\netif/slipif.c ****       priv->state = SLIP_RECV_ESCAPE;
  86              		.loc 1 250 0
  87 003e 0123     		movs	r3, #1
  88 0040 2373     		strb	r3, [r4, #12]
 251:Source\LwIP\src\netif/slipif.c ****       return NULL;
  89              		.loc 1 251 0
  90 0042 0020     		movs	r0, #0
  91              	.LVL7:
ARM GAS  C:\Users\Phuong\AppData\Local\Temp\ccOnRzaD.s 			page 7


  92 0044 4AE0     		b	.L7
  93              	.LVL8:
  94              	.L4:
 252:Source\LwIP\src\netif/slipif.c ****     default:
 253:Source\LwIP\src\netif/slipif.c ****       break;
 254:Source\LwIP\src\netif/slipif.c ****     } /* end switch (c) */
 255:Source\LwIP\src\netif/slipif.c ****     break;
 256:Source\LwIP\src\netif/slipif.c ****   case SLIP_RECV_ESCAPE:
 257:Source\LwIP\src\netif/slipif.c ****     /* un-escape END or ESC bytes, leave other bytes
 258:Source\LwIP\src\netif/slipif.c ****        (although that would be a protocol error) */
 259:Source\LwIP\src\netif/slipif.c ****     switch (c) {
  95              		.loc 1 259 0
  96 0046 DC29     		cmp	r1, #220
  97 0048 03D0     		beq	.L16
  98 004a DD29     		cmp	r1, #221
  99 004c 02D1     		bne	.L9
 100              	.LVL9:
 260:Source\LwIP\src\netif/slipif.c ****     case SLIP_ESC_END:
 261:Source\LwIP\src\netif/slipif.c ****       c = SLIP_END;
 262:Source\LwIP\src\netif/slipif.c ****       break;
 263:Source\LwIP\src\netif/slipif.c ****     case SLIP_ESC_ESC:
 264:Source\LwIP\src\netif/slipif.c ****       c = SLIP_ESC;
 101              		.loc 1 264 0
 102 004e 023D     		subs	r5, r5, #2
 265:Source\LwIP\src\netif/slipif.c ****       break;
 103              		.loc 1 265 0
 104 0050 00E0     		b	.L9
 105              	.LVL10:
 106              	.L16:
 261:Source\LwIP\src\netif/slipif.c ****       break;
 107              		.loc 1 261 0
 108 0052 C025     		movs	r5, #192
 109              	.LVL11:
 110              	.L9:
 266:Source\LwIP\src\netif/slipif.c ****     default:
 267:Source\LwIP\src\netif/slipif.c ****       break;
 268:Source\LwIP\src\netif/slipif.c ****     }
 269:Source\LwIP\src\netif/slipif.c ****     priv->state = SLIP_RECV_NORMAL;
 111              		.loc 1 269 0
 112 0054 0023     		movs	r3, #0
 113 0056 2373     		strb	r3, [r4, #12]
 114              	.LVL12:
 115              	.L2:
 270:Source\LwIP\src\netif/slipif.c ****     break;
 271:Source\LwIP\src\netif/slipif.c ****   default:
 272:Source\LwIP\src\netif/slipif.c ****     break;
 273:Source\LwIP\src\netif/slipif.c ****   } /* end switch (priv->state) */
 274:Source\LwIP\src\netif/slipif.c **** 
 275:Source\LwIP\src\netif/slipif.c ****   /* byte received, packet not yet completely received */
 276:Source\LwIP\src\netif/slipif.c ****   if (priv->p == NULL) {
 116              		.loc 1 276 0
 117 0058 6368     		ldr	r3, [r4, #4]
 118 005a 002B     		cmp	r3, #0
 119 005c 15D1     		bne	.L11
 277:Source\LwIP\src\netif/slipif.c ****     /* allocate a new pbuf */
 278:Source\LwIP\src\netif/slipif.c ****     LWIP_DEBUGF(SLIP_DEBUG, ("slipif_input: alloc\n"));
 279:Source\LwIP\src\netif/slipif.c ****     priv->p = pbuf_alloc(PBUF_LINK, (PBUF_POOL_BUFSIZE - PBUF_LINK_HLEN - PBUF_LINK_ENCAPSULATION_H
ARM GAS  C:\Users\Phuong\AppData\Local\Temp\ccOnRzaD.s 			page 8


 120              		.loc 1 279 0
 121 005e 0322     		movs	r2, #3
 122 0060 2049     		ldr	r1, .L19+4
 123 0062 0220     		movs	r0, #2
 124              	.LVL13:
 125 0064 FFF7FEFF 		bl	pbuf_alloc
 126              	.LVL14:
 127 0068 6060     		str	r0, [r4, #4]
 280:Source\LwIP\src\netif/slipif.c **** 
 281:Source\LwIP\src\netif/slipif.c ****     if (priv->p == NULL) {
 128              		.loc 1 281 0
 129 006a 0028     		cmp	r0, #0
 130 006c 04D1     		bne	.L12
 282:Source\LwIP\src\netif/slipif.c ****       LINK_STATS_INC(link.drop);
 131              		.loc 1 282 0
 132 006e 1C4A     		ldr	r2, .L19
 133 0070 D388     		ldrh	r3, [r2, #6]
 134 0072 0133     		adds	r3, r3, #1
 135 0074 D380     		strh	r3, [r2, #6]
 283:Source\LwIP\src\netif/slipif.c ****       LWIP_DEBUGF(SLIP_DEBUG, ("slipif_input: no new pbuf! (DROP)\n"));
 284:Source\LwIP\src\netif/slipif.c ****       /* don't process any further since we got no pbuf to receive to */
 285:Source\LwIP\src\netif/slipif.c ****       return NULL;
 136              		.loc 1 285 0
 137 0076 31E0     		b	.L7
 138              	.L12:
 286:Source\LwIP\src\netif/slipif.c ****     }
 287:Source\LwIP\src\netif/slipif.c **** 
 288:Source\LwIP\src\netif/slipif.c ****     if (priv->q != NULL) {
 139              		.loc 1 288 0
 140 0078 A368     		ldr	r3, [r4, #8]
 141 007a 002B     		cmp	r3, #0
 142 007c 04D0     		beq	.L13
 289:Source\LwIP\src\netif/slipif.c ****       /* 'chain' the pbuf to the existing chain */
 290:Source\LwIP\src\netif/slipif.c ****       pbuf_cat(priv->q, priv->p);
 143              		.loc 1 290 0
 144 007e 0100     		movs	r1, r0
 145 0080 1800     		movs	r0, r3
 146 0082 FFF7FEFF 		bl	pbuf_cat
 147              	.LVL15:
 148 0086 00E0     		b	.L11
 149              	.L13:
 291:Source\LwIP\src\netif/slipif.c ****     } else {
 292:Source\LwIP\src\netif/slipif.c ****       /* p is the first pbuf in the chain */
 293:Source\LwIP\src\netif/slipif.c ****       priv->q = priv->p;
 150              		.loc 1 293 0
 151 0088 A060     		str	r0, [r4, #8]
 152              	.L11:
 294:Source\LwIP\src\netif/slipif.c ****     }
 295:Source\LwIP\src\netif/slipif.c ****   }
 296:Source\LwIP\src\netif/slipif.c **** 
 297:Source\LwIP\src\netif/slipif.c ****   /* this automatically drops bytes if > SLIP_MAX_SIZE */
 298:Source\LwIP\src\netif/slipif.c ****   if ((priv->p != NULL) && (priv->recved <= SLIP_MAX_SIZE)) {
 153              		.loc 1 298 0
 154 008a 6068     		ldr	r0, [r4, #4]
 155 008c 0028     		cmp	r0, #0
 156 008e 25D0     		beq	.L7
 157              		.loc 1 298 0 is_stmt 0 discriminator 1
ARM GAS  C:\Users\Phuong\AppData\Local\Temp\ccOnRzaD.s 			page 9


 158 0090 228A     		ldrh	r2, [r4, #16]
 159 0092 154B     		ldr	r3, .L19+8
 160 0094 9A42     		cmp	r2, r3
 161 0096 1ED8     		bhi	.L17
 299:Source\LwIP\src\netif/slipif.c ****     ((u8_t *)priv->p->payload)[priv->i] = c;
 162              		.loc 1 299 0 is_stmt 1
 163 0098 4268     		ldr	r2, [r0, #4]
 164 009a E389     		ldrh	r3, [r4, #14]
 165 009c D554     		strb	r5, [r2, r3]
 300:Source\LwIP\src\netif/slipif.c ****     priv->recved++;
 166              		.loc 1 300 0
 167 009e 238A     		ldrh	r3, [r4, #16]
 168 00a0 0133     		adds	r3, r3, #1
 169 00a2 2382     		strh	r3, [r4, #16]
 301:Source\LwIP\src\netif/slipif.c ****     priv->i++;
 170              		.loc 1 301 0
 171 00a4 E389     		ldrh	r3, [r4, #14]
 172 00a6 0133     		adds	r3, r3, #1
 173 00a8 9BB2     		uxth	r3, r3
 174 00aa E381     		strh	r3, [r4, #14]
 302:Source\LwIP\src\netif/slipif.c ****     if (priv->i >= priv->p->len) {
 175              		.loc 1 302 0
 176 00ac 6268     		ldr	r2, [r4, #4]
 177 00ae 5189     		ldrh	r1, [r2, #10]
 178 00b0 8B42     		cmp	r3, r1
 179 00b2 12D3     		bcc	.L18
 303:Source\LwIP\src\netif/slipif.c ****       /* on to the next pbuf */
 304:Source\LwIP\src\netif/slipif.c ****       priv->i = 0;
 180              		.loc 1 304 0
 181 00b4 0023     		movs	r3, #0
 182 00b6 E381     		strh	r3, [r4, #14]
 305:Source\LwIP\src\netif/slipif.c ****       if (priv->p->next != NULL && priv->p->next->len > 0) {
 183              		.loc 1 305 0
 184 00b8 1368     		ldr	r3, [r2]
 185 00ba 002B     		cmp	r3, #0
 186 00bc 05D0     		beq	.L14
 187              		.loc 1 305 0 is_stmt 0 discriminator 1
 188 00be 5A89     		ldrh	r2, [r3, #10]
 189 00c0 002A     		cmp	r2, #0
 190 00c2 02D0     		beq	.L14
 306:Source\LwIP\src\netif/slipif.c ****         /* p is a chain, on to the next in the chain */
 307:Source\LwIP\src\netif/slipif.c ****           priv->p = priv->p->next;
 191              		.loc 1 307 0 is_stmt 1
 192 00c4 6360     		str	r3, [r4, #4]
 308:Source\LwIP\src\netif/slipif.c ****       } else {
 309:Source\LwIP\src\netif/slipif.c ****         /* p is a single pbuf, set it to NULL so next time a new
 310:Source\LwIP\src\netif/slipif.c ****          * pbuf is allocated */
 311:Source\LwIP\src\netif/slipif.c ****           priv->p = NULL;
 312:Source\LwIP\src\netif/slipif.c ****       }
 313:Source\LwIP\src\netif/slipif.c ****     }
 314:Source\LwIP\src\netif/slipif.c ****   }
 315:Source\LwIP\src\netif/slipif.c ****   return NULL;
 193              		.loc 1 315 0
 194 00c6 0020     		movs	r0, #0
 307:Source\LwIP\src\netif/slipif.c ****       } else {
 195              		.loc 1 307 0
 196 00c8 08E0     		b	.L7
ARM GAS  C:\Users\Phuong\AppData\Local\Temp\ccOnRzaD.s 			page 10


 197              	.L14:
 311:Source\LwIP\src\netif/slipif.c ****       }
 198              		.loc 1 311 0
 199 00ca 0023     		movs	r3, #0
 200 00cc 6360     		str	r3, [r4, #4]
 201              		.loc 1 315 0
 202 00ce 0020     		movs	r0, #0
 203 00d0 04E0     		b	.L7
 204              	.LVL16:
 205              	.L15:
 248:Source\LwIP\src\netif/slipif.c ****     case SLIP_ESC:
 206              		.loc 1 248 0
 207 00d2 0020     		movs	r0, #0
 208              	.LVL17:
 209 00d4 02E0     		b	.L7
 210              	.LVL18:
 211              	.L17:
 212              		.loc 1 315 0
 213 00d6 0020     		movs	r0, #0
 214 00d8 00E0     		b	.L7
 215              	.L18:
 216 00da 0020     		movs	r0, #0
 217              	.LVL19:
 218              	.L7:
 316:Source\LwIP\src\netif/slipif.c **** }
 219              		.loc 1 316 0
 220              		@ sp needed
 221              	.LVL20:
 222 00dc 70BD     		pop	{r4, r5, r6, pc}
 223              	.L20:
 224 00de C046     		.align	2
 225              	.L19:
 226 00e0 00000000 		.word	lwip_stats
 227 00e4 ED050000 		.word	1517
 228 00e8 DC050000 		.word	1500
 229              		.cfi_endproc
 230              	.LFE93:
 231              		.size	slipif_rxbyte, .-slipif_rxbyte
 232              		.section	.text.slipif_rxbyte_input,"ax",%progbits
 233              		.align	2
 234              		.code	16
 235              		.thumb_func
 236              		.type	slipif_rxbyte_input, %function
 237              	slipif_rxbyte_input:
 238              	.LFB94:
 317:Source\LwIP\src\netif/slipif.c **** 
 318:Source\LwIP\src\netif/slipif.c **** /** Like slipif_rxbyte, but passes completed packets to netif->input
 319:Source\LwIP\src\netif/slipif.c ****  *
 320:Source\LwIP\src\netif/slipif.c ****  * @param netif The lwip network interface structure for this slipif
 321:Source\LwIP\src\netif/slipif.c ****  * @param c received character
 322:Source\LwIP\src\netif/slipif.c ****  */
 323:Source\LwIP\src\netif/slipif.c **** static void
 324:Source\LwIP\src\netif/slipif.c **** slipif_rxbyte_input(struct netif *netif, u8_t c)
 325:Source\LwIP\src\netif/slipif.c **** {
 239              		.loc 1 325 0
 240              		.cfi_startproc
 241              		@ args = 0, pretend = 0, frame = 0
ARM GAS  C:\Users\Phuong\AppData\Local\Temp\ccOnRzaD.s 			page 11


 242              		@ frame_needed = 0, uses_anonymous_args = 0
 243              	.LVL21:
 244 0000 70B5     		push	{r4, r5, r6, lr}
 245              		.cfi_def_cfa_offset 16
 246              		.cfi_offset 4, -16
 247              		.cfi_offset 5, -12
 248              		.cfi_offset 6, -8
 249              		.cfi_offset 14, -4
 250 0002 0400     		movs	r4, r0
 326:Source\LwIP\src\netif/slipif.c ****   struct pbuf *p;
 327:Source\LwIP\src\netif/slipif.c ****   p = slipif_rxbyte(netif, c);
 251              		.loc 1 327 0
 252 0004 FFF7FEFF 		bl	slipif_rxbyte
 253              	.LVL22:
 254 0008 051E     		subs	r5, r0, #0
 255              	.LVL23:
 328:Source\LwIP\src\netif/slipif.c ****   if (p != NULL) {
 256              		.loc 1 328 0
 257 000a 07D0     		beq	.L21
 329:Source\LwIP\src\netif/slipif.c ****     if (netif->input(p, netif) != ERR_OK) {
 258              		.loc 1 329 0
 259 000c 2369     		ldr	r3, [r4, #16]
 260 000e 2100     		movs	r1, r4
 261 0010 9847     		blx	r3
 262              	.LVL24:
 263 0012 0028     		cmp	r0, #0
 264 0014 02D0     		beq	.L21
 330:Source\LwIP\src\netif/slipif.c ****       pbuf_free(p);
 265              		.loc 1 330 0
 266 0016 2800     		movs	r0, r5
 267 0018 FFF7FEFF 		bl	pbuf_free
 268              	.LVL25:
 269              	.L21:
 331:Source\LwIP\src\netif/slipif.c ****     }
 332:Source\LwIP\src\netif/slipif.c ****   }
 333:Source\LwIP\src\netif/slipif.c **** }
 270              		.loc 1 333 0
 271              		@ sp needed
 272              	.LVL26:
 273              	.LVL27:
 274 001c 70BD     		pop	{r4, r5, r6, pc}
 275              		.cfi_endproc
 276              	.LFE94:
 277              		.size	slipif_rxbyte_input, .-slipif_rxbyte_input
 278 001e C046     		.section	.text.slipif_loop_thread,"ax",%progbits
 279              		.align	2
 280              		.code	16
 281              		.thumb_func
 282              		.type	slipif_loop_thread, %function
 283              	slipif_loop_thread:
 284              	.LFB95:
 334:Source\LwIP\src\netif/slipif.c **** 
 335:Source\LwIP\src\netif/slipif.c **** #if SLIP_USE_RX_THREAD
 336:Source\LwIP\src\netif/slipif.c **** /**
 337:Source\LwIP\src\netif/slipif.c ****  * The SLIP input thread.
 338:Source\LwIP\src\netif/slipif.c ****  *
 339:Source\LwIP\src\netif/slipif.c ****  * Feed the IP layer with incoming packets
ARM GAS  C:\Users\Phuong\AppData\Local\Temp\ccOnRzaD.s 			page 12


 340:Source\LwIP\src\netif/slipif.c ****  *
 341:Source\LwIP\src\netif/slipif.c ****  * @param nf the lwip network interface structure for this slipif
 342:Source\LwIP\src\netif/slipif.c ****  */
 343:Source\LwIP\src\netif/slipif.c **** static void
 344:Source\LwIP\src\netif/slipif.c **** slipif_loop_thread(void *nf)
 345:Source\LwIP\src\netif/slipif.c **** {
 285              		.loc 1 345 0
 286              		.cfi_startproc
 287              		@ args = 0, pretend = 0, frame = 8
 288              		@ frame_needed = 0, uses_anonymous_args = 0
 289              	.LVL28:
 290 0000 30B5     		push	{r4, r5, lr}
 291              		.cfi_def_cfa_offset 12
 292              		.cfi_offset 4, -12
 293              		.cfi_offset 5, -8
 294              		.cfi_offset 14, -4
 295 0002 83B0     		sub	sp, sp, #12
 296              		.cfi_def_cfa_offset 24
 297 0004 0500     		movs	r5, r0
 298              	.LVL29:
 346:Source\LwIP\src\netif/slipif.c ****   u8_t c;
 347:Source\LwIP\src\netif/slipif.c ****   struct netif *netif = (struct netif *)nf;
 348:Source\LwIP\src\netif/slipif.c ****   struct slipif_priv *priv = (struct slipif_priv *)netif->state;
 299              		.loc 1 348 0
 300 0006 046A     		ldr	r4, [r0, #32]
 301              	.LVL30:
 302              	.L24:
 349:Source\LwIP\src\netif/slipif.c **** 
 350:Source\LwIP\src\netif/slipif.c ****   while (1) {
 351:Source\LwIP\src\netif/slipif.c ****     if (sio_read(priv->sd, &c, 1) > 0) {
 303              		.loc 1 351 0
 304 0008 0122     		movs	r2, #1
 305 000a 6B46     		mov	r3, sp
 306 000c D91D     		adds	r1, r3, #7
 307 000e 2068     		ldr	r0, [r4]
 308 0010 FFF7FEFF 		bl	sio_read
 309              	.LVL31:
 310 0014 0028     		cmp	r0, #0
 311 0016 F7D0     		beq	.L24
 352:Source\LwIP\src\netif/slipif.c ****       slipif_rxbyte_input(netif, c);
 312              		.loc 1 352 0
 313 0018 6B46     		mov	r3, sp
 314 001a D979     		ldrb	r1, [r3, #7]
 315 001c 2800     		movs	r0, r5
 316 001e FFF7FEFF 		bl	slipif_rxbyte_input
 317              	.LVL32:
 318 0022 F1E7     		b	.L24
 319              		.cfi_endproc
 320              	.LFE95:
 321              		.size	slipif_loop_thread, .-slipif_loop_thread
 322              		.section	.text.slipif_output,"ax",%progbits
 323              		.align	2
 324              		.code	16
 325              		.thumb_func
 326              		.type	slipif_output, %function
 327              	slipif_output:
 328              	.LFB91:
ARM GAS  C:\Users\Phuong\AppData\Local\Temp\ccOnRzaD.s 			page 13


 118:Source\LwIP\src\netif/slipif.c ****   struct slipif_priv *priv;
 329              		.loc 1 118 0
 330              		.cfi_startproc
 331              		@ args = 0, pretend = 0, frame = 0
 332              		@ frame_needed = 0, uses_anonymous_args = 0
 333              	.LVL33:
 334 0000 70B5     		push	{r4, r5, r6, lr}
 335              		.cfi_def_cfa_offset 16
 336              		.cfi_offset 4, -16
 337              		.cfi_offset 5, -12
 338              		.cfi_offset 6, -8
 339              		.cfi_offset 14, -4
 340 0002 0D00     		movs	r5, r1
 129:Source\LwIP\src\netif/slipif.c **** 
 341              		.loc 1 129 0
 342 0004 066A     		ldr	r6, [r0, #32]
 343              	.LVL34:
 344              	.LBB6:
 345              	.LBB7:
 346              		.file 2 "Generated_Source\\PSoC6\\pdl\\drivers/peripheral/gpio/cy_gpio.h"
   1:Generated_Source\PSoC6\pdl\drivers/peripheral/gpio/cy_gpio.h **** /***************************************************************************//**
   2:Generated_Source\PSoC6\pdl\drivers/peripheral/gpio/cy_gpio.h **** * \file cy_gpio.h
   3:Generated_Source\PSoC6\pdl\drivers/peripheral/gpio/cy_gpio.h **** * \version 1.10.1
   4:Generated_Source\PSoC6\pdl\drivers/peripheral/gpio/cy_gpio.h **** *
   5:Generated_Source\PSoC6\pdl\drivers/peripheral/gpio/cy_gpio.h **** * \brief
   6:Generated_Source\PSoC6\pdl\drivers/peripheral/gpio/cy_gpio.h **** * Provides an API declaration of the GPIO driver
   7:Generated_Source\PSoC6\pdl\drivers/peripheral/gpio/cy_gpio.h **** *
   8:Generated_Source\PSoC6\pdl\drivers/peripheral/gpio/cy_gpio.h **** ********************************************************************************
   9:Generated_Source\PSoC6\pdl\drivers/peripheral/gpio/cy_gpio.h **** * \copyright
  10:Generated_Source\PSoC6\pdl\drivers/peripheral/gpio/cy_gpio.h **** * Copyright 2016-2018, Cypress Semiconductor Corporation. All rights reserved.
  11:Generated_Source\PSoC6\pdl\drivers/peripheral/gpio/cy_gpio.h **** * You may use this file only in accordance with the license, terms, conditions,
  12:Generated_Source\PSoC6\pdl\drivers/peripheral/gpio/cy_gpio.h **** * disclaimers, and limitations in the end user license agreement accompanying
  13:Generated_Source\PSoC6\pdl\drivers/peripheral/gpio/cy_gpio.h **** * the software package with which this file was provided.
  14:Generated_Source\PSoC6\pdl\drivers/peripheral/gpio/cy_gpio.h **** *******************************************************************************/
  15:Generated_Source\PSoC6\pdl\drivers/peripheral/gpio/cy_gpio.h **** 
  16:Generated_Source\PSoC6\pdl\drivers/peripheral/gpio/cy_gpio.h **** /**
  17:Generated_Source\PSoC6\pdl\drivers/peripheral/gpio/cy_gpio.h **** * \defgroup group_gpio General Purpose Input Output (GPIO)
  18:Generated_Source\PSoC6\pdl\drivers/peripheral/gpio/cy_gpio.h **** * \{
  19:Generated_Source\PSoC6\pdl\drivers/peripheral/gpio/cy_gpio.h **** * The GPIO driver provides an API to configure and access device Input/Output pins.
  20:Generated_Source\PSoC6\pdl\drivers/peripheral/gpio/cy_gpio.h **** * IO pins include all general purpose types such as GPIO, SIO, HSIO, AUXIO, and
  21:Generated_Source\PSoC6\pdl\drivers/peripheral/gpio/cy_gpio.h **** * their variants.
  22:Generated_Source\PSoC6\pdl\drivers/peripheral/gpio/cy_gpio.h **** *
  23:Generated_Source\PSoC6\pdl\drivers/peripheral/gpio/cy_gpio.h **** * Initialization can be performed either at the port level or by configuring the
  24:Generated_Source\PSoC6\pdl\drivers/peripheral/gpio/cy_gpio.h **** * individual pins. For efficient use of code space, port
  25:Generated_Source\PSoC6\pdl\drivers/peripheral/gpio/cy_gpio.h **** * configuration should be used in the field. Refer to the product device header files 
  26:Generated_Source\PSoC6\pdl\drivers/peripheral/gpio/cy_gpio.h **** * for the list of supported ports and pins.
  27:Generated_Source\PSoC6\pdl\drivers/peripheral/gpio/cy_gpio.h **** * 
  28:Generated_Source\PSoC6\pdl\drivers/peripheral/gpio/cy_gpio.h **** * - Single pin configuration is performed by using \ref Cy_GPIO_Pin_FastInit 
  29:Generated_Source\PSoC6\pdl\drivers/peripheral/gpio/cy_gpio.h **** *   (provide specific values) or \ref Cy_GPIO_Pin_Init (provide a filled
  30:Generated_Source\PSoC6\pdl\drivers/peripheral/gpio/cy_gpio.h **** *   cy_stc_gpio_pin_config_t structure).
  31:Generated_Source\PSoC6\pdl\drivers/peripheral/gpio/cy_gpio.h **** * - An entire port can be configured using \ref Cy_GPIO_Port_Init. Provide a filled 
  32:Generated_Source\PSoC6\pdl\drivers/peripheral/gpio/cy_gpio.h **** *   cy_stc_gpio_prt_config_t structure. The values in the structure are 
  33:Generated_Source\PSoC6\pdl\drivers/peripheral/gpio/cy_gpio.h **** *   bitfields representing the desired value for each pin in the port.
  34:Generated_Source\PSoC6\pdl\drivers/peripheral/gpio/cy_gpio.h **** * - Pin configuration and management is based on the port address and pin number.
  35:Generated_Source\PSoC6\pdl\drivers/peripheral/gpio/cy_gpio.h **** *   \ref Cy_GPIO_PortToAddr function can optionally be used to calculate the port
  36:Generated_Source\PSoC6\pdl\drivers/peripheral/gpio/cy_gpio.h **** *   address from the port number at run-time.
  37:Generated_Source\PSoC6\pdl\drivers/peripheral/gpio/cy_gpio.h **** *
ARM GAS  C:\Users\Phuong\AppData\Local\Temp\ccOnRzaD.s 			page 14


  38:Generated_Source\PSoC6\pdl\drivers/peripheral/gpio/cy_gpio.h **** * Once the pin/port initialization is complete, each pin can be accessed by 
  39:Generated_Source\PSoC6\pdl\drivers/peripheral/gpio/cy_gpio.h **** * specifying the port (GPIO_PRT_Type) and the pin (0-7) in the provided API 
  40:Generated_Source\PSoC6\pdl\drivers/peripheral/gpio/cy_gpio.h **** * functions.
  41:Generated_Source\PSoC6\pdl\drivers/peripheral/gpio/cy_gpio.h **** *
  42:Generated_Source\PSoC6\pdl\drivers/peripheral/gpio/cy_gpio.h **** * \section group_gpio_configuration Configuration Considerations
  43:Generated_Source\PSoC6\pdl\drivers/peripheral/gpio/cy_gpio.h **** *
  44:Generated_Source\PSoC6\pdl\drivers/peripheral/gpio/cy_gpio.h **** * 1. Pin multiplexing is controlled through the High-Speed IO Matrix (HSIOM) selection.
  45:Generated_Source\PSoC6\pdl\drivers/peripheral/gpio/cy_gpio.h **** *    This allows the pin to connect to signal sources/sinks throughout the device,
  46:Generated_Source\PSoC6\pdl\drivers/peripheral/gpio/cy_gpio.h **** *    as defined by the pin HSIOM selection options (en_hsiom_sel_t).
  47:Generated_Source\PSoC6\pdl\drivers/peripheral/gpio/cy_gpio.h **** * 2. All pins are initialized to High-Z drive mode with HSIOM connected to CPU (SW
  48:Generated_Source\PSoC6\pdl\drivers/peripheral/gpio/cy_gpio.h **** *    control digital pin only) at Power-On-Reset(POR).
  49:Generated_Source\PSoC6\pdl\drivers/peripheral/gpio/cy_gpio.h **** * 3. Some API functions perform read-modify-write operations on shared port
  50:Generated_Source\PSoC6\pdl\drivers/peripheral/gpio/cy_gpio.h **** *    registers. These functions are not thread safe and care must be taken when
  51:Generated_Source\PSoC6\pdl\drivers/peripheral/gpio/cy_gpio.h **** *    called by the application.
  52:Generated_Source\PSoC6\pdl\drivers/peripheral/gpio/cy_gpio.h **** *
  53:Generated_Source\PSoC6\pdl\drivers/peripheral/gpio/cy_gpio.h **** * Multiple pins on a port can be updated using direct port register writes with an
  54:Generated_Source\PSoC6\pdl\drivers/peripheral/gpio/cy_gpio.h **** * appropriate port mask. An example is shown below, highlighting the different ways of 
  55:Generated_Source\PSoC6\pdl\drivers/peripheral/gpio/cy_gpio.h **** * configuring Port 1 pins using,
  56:Generated_Source\PSoC6\pdl\drivers/peripheral/gpio/cy_gpio.h **** * 
  57:Generated_Source\PSoC6\pdl\drivers/peripheral/gpio/cy_gpio.h **** * - Port output data register
  58:Generated_Source\PSoC6\pdl\drivers/peripheral/gpio/cy_gpio.h **** * - Port output data set register
  59:Generated_Source\PSoC6\pdl\drivers/peripheral/gpio/cy_gpio.h **** * - Port output data clear register
  60:Generated_Source\PSoC6\pdl\drivers/peripheral/gpio/cy_gpio.h **** *
  61:Generated_Source\PSoC6\pdl\drivers/peripheral/gpio/cy_gpio.h **** * \snippet gpio/gpio_v1_10_sut_01.cydsn/main_cm4.c Cy_GPIO_Snippet
  62:Generated_Source\PSoC6\pdl\drivers/peripheral/gpio/cy_gpio.h **** *
  63:Generated_Source\PSoC6\pdl\drivers/peripheral/gpio/cy_gpio.h **** * \section group_gpio_more_information More Information
  64:Generated_Source\PSoC6\pdl\drivers/peripheral/gpio/cy_gpio.h **** *
  65:Generated_Source\PSoC6\pdl\drivers/peripheral/gpio/cy_gpio.h **** * Refer to the technical reference manual (TRM) and the device datasheet.
  66:Generated_Source\PSoC6\pdl\drivers/peripheral/gpio/cy_gpio.h **** *
  67:Generated_Source\PSoC6\pdl\drivers/peripheral/gpio/cy_gpio.h **** * \section group_gpio_MISRA MISRA-C Compliance]
  68:Generated_Source\PSoC6\pdl\drivers/peripheral/gpio/cy_gpio.h **** * <table class="doxtable">
  69:Generated_Source\PSoC6\pdl\drivers/peripheral/gpio/cy_gpio.h **** *   <tr>
  70:Generated_Source\PSoC6\pdl\drivers/peripheral/gpio/cy_gpio.h **** *     <th>MISRA Rule</th>
  71:Generated_Source\PSoC6\pdl\drivers/peripheral/gpio/cy_gpio.h **** *     <th>Rule Class (Required/Advisory)</th>
  72:Generated_Source\PSoC6\pdl\drivers/peripheral/gpio/cy_gpio.h **** *     <th>Rule Description</th>
  73:Generated_Source\PSoC6\pdl\drivers/peripheral/gpio/cy_gpio.h **** *     <th>Description of Deviation(s)</th>
  74:Generated_Source\PSoC6\pdl\drivers/peripheral/gpio/cy_gpio.h **** *   </tr>
  75:Generated_Source\PSoC6\pdl\drivers/peripheral/gpio/cy_gpio.h **** *   <tr>
  76:Generated_Source\PSoC6\pdl\drivers/peripheral/gpio/cy_gpio.h **** *     <td>16.7</td>
  77:Generated_Source\PSoC6\pdl\drivers/peripheral/gpio/cy_gpio.h **** *     <td>A</td>
  78:Generated_Source\PSoC6\pdl\drivers/peripheral/gpio/cy_gpio.h **** *     <td>A pointer parameter in a function prototype should be declared as pointer 
  79:Generated_Source\PSoC6\pdl\drivers/peripheral/gpio/cy_gpio.h **** *         to const if the pointer is not used to modify the addressed object.</td>
  80:Generated_Source\PSoC6\pdl\drivers/peripheral/gpio/cy_gpio.h **** *     <td>The objects pointed to by the base addresses of the GPIO port are not always modified.
  81:Generated_Source\PSoC6\pdl\drivers/peripheral/gpio/cy_gpio.h **** *         While a const qualifier can be used in select scenarios, it brings little benefit
  82:Generated_Source\PSoC6\pdl\drivers/peripheral/gpio/cy_gpio.h **** *         in adding this to the affected functions. </td>
  83:Generated_Source\PSoC6\pdl\drivers/peripheral/gpio/cy_gpio.h **** *   </tr>
  84:Generated_Source\PSoC6\pdl\drivers/peripheral/gpio/cy_gpio.h **** * </table>
  85:Generated_Source\PSoC6\pdl\drivers/peripheral/gpio/cy_gpio.h **** *
  86:Generated_Source\PSoC6\pdl\drivers/peripheral/gpio/cy_gpio.h **** * \section group_gpio_changelog Changelog
  87:Generated_Source\PSoC6\pdl\drivers/peripheral/gpio/cy_gpio.h **** * <table class="doxtable">
  88:Generated_Source\PSoC6\pdl\drivers/peripheral/gpio/cy_gpio.h **** *   <tr><th>Version</th><th>Changes</th><th>Reason for Change</th></tr>
  89:Generated_Source\PSoC6\pdl\drivers/peripheral/gpio/cy_gpio.h **** *   <tr>
  90:Generated_Source\PSoC6\pdl\drivers/peripheral/gpio/cy_gpio.h **** *     <td>1.10.1</td>
  91:Generated_Source\PSoC6\pdl\drivers/peripheral/gpio/cy_gpio.h **** *     <td>Updated description for the functions: \ref Cy_GPIO_GetInterruptStatus, 
  92:Generated_Source\PSoC6\pdl\drivers/peripheral/gpio/cy_gpio.h **** *         \ref Cy_GPIO_GetInterruptMask, \ref Cy_GPIO_GetInterruptStatusMasked.
  93:Generated_Source\PSoC6\pdl\drivers/peripheral/gpio/cy_gpio.h **** *         Minor documentation edits.
  94:Generated_Source\PSoC6\pdl\drivers/peripheral/gpio/cy_gpio.h **** *     </td>
ARM GAS  C:\Users\Phuong\AppData\Local\Temp\ccOnRzaD.s 			page 15


  95:Generated_Source\PSoC6\pdl\drivers/peripheral/gpio/cy_gpio.h **** *     <td>Documentation update and clarification</td>
  96:Generated_Source\PSoC6\pdl\drivers/peripheral/gpio/cy_gpio.h **** *   </tr>
  97:Generated_Source\PSoC6\pdl\drivers/peripheral/gpio/cy_gpio.h **** *   <tr>
  98:Generated_Source\PSoC6\pdl\drivers/peripheral/gpio/cy_gpio.h **** *     <td>1.10</td>
  99:Generated_Source\PSoC6\pdl\drivers/peripheral/gpio/cy_gpio.h **** *     <td>Added input parameter validation to the API functions</td>
 100:Generated_Source\PSoC6\pdl\drivers/peripheral/gpio/cy_gpio.h **** *     <td></td>
 101:Generated_Source\PSoC6\pdl\drivers/peripheral/gpio/cy_gpio.h **** *   </tr>
 102:Generated_Source\PSoC6\pdl\drivers/peripheral/gpio/cy_gpio.h **** *   <tr>
 103:Generated_Source\PSoC6\pdl\drivers/peripheral/gpio/cy_gpio.h **** *     <td>1.0</td>
 104:Generated_Source\PSoC6\pdl\drivers/peripheral/gpio/cy_gpio.h **** *     <td>Initial version</td>
 105:Generated_Source\PSoC6\pdl\drivers/peripheral/gpio/cy_gpio.h **** *     <td></td>
 106:Generated_Source\PSoC6\pdl\drivers/peripheral/gpio/cy_gpio.h **** *   </tr>
 107:Generated_Source\PSoC6\pdl\drivers/peripheral/gpio/cy_gpio.h **** * </table>
 108:Generated_Source\PSoC6\pdl\drivers/peripheral/gpio/cy_gpio.h **** *
 109:Generated_Source\PSoC6\pdl\drivers/peripheral/gpio/cy_gpio.h **** * \defgroup group_gpio_macros Macros
 110:Generated_Source\PSoC6\pdl\drivers/peripheral/gpio/cy_gpio.h **** * \defgroup group_gpio_functions Functions
 111:Generated_Source\PSoC6\pdl\drivers/peripheral/gpio/cy_gpio.h **** * \{
 112:Generated_Source\PSoC6\pdl\drivers/peripheral/gpio/cy_gpio.h **** *   \defgroup group_gpio_functions_init       Initialization Functions
 113:Generated_Source\PSoC6\pdl\drivers/peripheral/gpio/cy_gpio.h **** *   \defgroup group_gpio_functions_gpio       GPIO Functions
 114:Generated_Source\PSoC6\pdl\drivers/peripheral/gpio/cy_gpio.h **** *   \defgroup group_gpio_functions_sio        SIO Functions
 115:Generated_Source\PSoC6\pdl\drivers/peripheral/gpio/cy_gpio.h **** *   \defgroup group_gpio_functions_interrupt  Port Interrupt Functions
 116:Generated_Source\PSoC6\pdl\drivers/peripheral/gpio/cy_gpio.h **** * \}
 117:Generated_Source\PSoC6\pdl\drivers/peripheral/gpio/cy_gpio.h **** * \defgroup group_gpio_data_structures Data Structures
 118:Generated_Source\PSoC6\pdl\drivers/peripheral/gpio/cy_gpio.h **** * \defgroup group_gpio_enums Enumerated Types
 119:Generated_Source\PSoC6\pdl\drivers/peripheral/gpio/cy_gpio.h **** */
 120:Generated_Source\PSoC6\pdl\drivers/peripheral/gpio/cy_gpio.h **** 
 121:Generated_Source\PSoC6\pdl\drivers/peripheral/gpio/cy_gpio.h **** #if !defined(CY_GPIO_H)
 122:Generated_Source\PSoC6\pdl\drivers/peripheral/gpio/cy_gpio.h **** #define CY_GPIO_H
 123:Generated_Source\PSoC6\pdl\drivers/peripheral/gpio/cy_gpio.h **** 
 124:Generated_Source\PSoC6\pdl\drivers/peripheral/gpio/cy_gpio.h **** #include <stddef.h>
 125:Generated_Source\PSoC6\pdl\drivers/peripheral/gpio/cy_gpio.h **** #include "syslib/cy_syslib.h"
 126:Generated_Source\PSoC6\pdl\drivers/peripheral/gpio/cy_gpio.h **** #include "cy_device_headers.h"
 127:Generated_Source\PSoC6\pdl\drivers/peripheral/gpio/cy_gpio.h **** 
 128:Generated_Source\PSoC6\pdl\drivers/peripheral/gpio/cy_gpio.h **** #if defined(__cplusplus)
 129:Generated_Source\PSoC6\pdl\drivers/peripheral/gpio/cy_gpio.h **** extern "C" {
 130:Generated_Source\PSoC6\pdl\drivers/peripheral/gpio/cy_gpio.h **** #endif
 131:Generated_Source\PSoC6\pdl\drivers/peripheral/gpio/cy_gpio.h **** 
 132:Generated_Source\PSoC6\pdl\drivers/peripheral/gpio/cy_gpio.h **** /** \addtogroup group_gpio_macros
 133:Generated_Source\PSoC6\pdl\drivers/peripheral/gpio/cy_gpio.h **** * \{
 134:Generated_Source\PSoC6\pdl\drivers/peripheral/gpio/cy_gpio.h **** */
 135:Generated_Source\PSoC6\pdl\drivers/peripheral/gpio/cy_gpio.h **** 
 136:Generated_Source\PSoC6\pdl\drivers/peripheral/gpio/cy_gpio.h **** /** Driver major version */
 137:Generated_Source\PSoC6\pdl\drivers/peripheral/gpio/cy_gpio.h **** #define CY_GPIO_DRV_VERSION_MAJOR       1
 138:Generated_Source\PSoC6\pdl\drivers/peripheral/gpio/cy_gpio.h **** 
 139:Generated_Source\PSoC6\pdl\drivers/peripheral/gpio/cy_gpio.h **** /** Driver minor version */
 140:Generated_Source\PSoC6\pdl\drivers/peripheral/gpio/cy_gpio.h **** #define CY_GPIO_DRV_VERSION_MINOR       10
 141:Generated_Source\PSoC6\pdl\drivers/peripheral/gpio/cy_gpio.h **** 
 142:Generated_Source\PSoC6\pdl\drivers/peripheral/gpio/cy_gpio.h **** /** GPIO driver ID */
 143:Generated_Source\PSoC6\pdl\drivers/peripheral/gpio/cy_gpio.h **** #define CY_GPIO_ID CY_PDL_DRV_ID(0x16u)
 144:Generated_Source\PSoC6\pdl\drivers/peripheral/gpio/cy_gpio.h **** 
 145:Generated_Source\PSoC6\pdl\drivers/peripheral/gpio/cy_gpio.h **** /** \} group_gpio_macros */
 146:Generated_Source\PSoC6\pdl\drivers/peripheral/gpio/cy_gpio.h **** 
 147:Generated_Source\PSoC6\pdl\drivers/peripheral/gpio/cy_gpio.h **** 
 148:Generated_Source\PSoC6\pdl\drivers/peripheral/gpio/cy_gpio.h **** /***************************************
 149:Generated_Source\PSoC6\pdl\drivers/peripheral/gpio/cy_gpio.h **** *       Enumerations
 150:Generated_Source\PSoC6\pdl\drivers/peripheral/gpio/cy_gpio.h **** ***************************************/
 151:Generated_Source\PSoC6\pdl\drivers/peripheral/gpio/cy_gpio.h **** /**
ARM GAS  C:\Users\Phuong\AppData\Local\Temp\ccOnRzaD.s 			page 16


 152:Generated_Source\PSoC6\pdl\drivers/peripheral/gpio/cy_gpio.h **** * \addtogroup group_gpio_enums
 153:Generated_Source\PSoC6\pdl\drivers/peripheral/gpio/cy_gpio.h **** * \{
 154:Generated_Source\PSoC6\pdl\drivers/peripheral/gpio/cy_gpio.h **** */
 155:Generated_Source\PSoC6\pdl\drivers/peripheral/gpio/cy_gpio.h **** 
 156:Generated_Source\PSoC6\pdl\drivers/peripheral/gpio/cy_gpio.h **** /**
 157:Generated_Source\PSoC6\pdl\drivers/peripheral/gpio/cy_gpio.h **** * GPIO Driver error codes
 158:Generated_Source\PSoC6\pdl\drivers/peripheral/gpio/cy_gpio.h **** */
 159:Generated_Source\PSoC6\pdl\drivers/peripheral/gpio/cy_gpio.h **** typedef enum 
 160:Generated_Source\PSoC6\pdl\drivers/peripheral/gpio/cy_gpio.h **** {
 161:Generated_Source\PSoC6\pdl\drivers/peripheral/gpio/cy_gpio.h ****     CY_GPIO_SUCCESS   = 0x00u,                                    /**< Returned successful */
 162:Generated_Source\PSoC6\pdl\drivers/peripheral/gpio/cy_gpio.h ****     CY_GPIO_BAD_PARAM = CY_GPIO_ID | CY_PDL_STATUS_ERROR | 0x01u, /**< Bad parameter was passed */
 163:Generated_Source\PSoC6\pdl\drivers/peripheral/gpio/cy_gpio.h **** } cy_en_gpio_status_t;
 164:Generated_Source\PSoC6\pdl\drivers/peripheral/gpio/cy_gpio.h **** 
 165:Generated_Source\PSoC6\pdl\drivers/peripheral/gpio/cy_gpio.h **** /** \} group_gpio_enums */
 166:Generated_Source\PSoC6\pdl\drivers/peripheral/gpio/cy_gpio.h **** 
 167:Generated_Source\PSoC6\pdl\drivers/peripheral/gpio/cy_gpio.h **** 
 168:Generated_Source\PSoC6\pdl\drivers/peripheral/gpio/cy_gpio.h **** /***************************************
 169:Generated_Source\PSoC6\pdl\drivers/peripheral/gpio/cy_gpio.h **** *       Configuration Structures
 170:Generated_Source\PSoC6\pdl\drivers/peripheral/gpio/cy_gpio.h **** ***************************************/
 171:Generated_Source\PSoC6\pdl\drivers/peripheral/gpio/cy_gpio.h **** 
 172:Generated_Source\PSoC6\pdl\drivers/peripheral/gpio/cy_gpio.h **** /**
 173:Generated_Source\PSoC6\pdl\drivers/peripheral/gpio/cy_gpio.h **** * \addtogroup group_gpio_data_structures
 174:Generated_Source\PSoC6\pdl\drivers/peripheral/gpio/cy_gpio.h **** * \{
 175:Generated_Source\PSoC6\pdl\drivers/peripheral/gpio/cy_gpio.h **** */
 176:Generated_Source\PSoC6\pdl\drivers/peripheral/gpio/cy_gpio.h **** 
 177:Generated_Source\PSoC6\pdl\drivers/peripheral/gpio/cy_gpio.h **** /** This structure is used to initialize a port of GPIO pins */
 178:Generated_Source\PSoC6\pdl\drivers/peripheral/gpio/cy_gpio.h **** typedef struct {
 179:Generated_Source\PSoC6\pdl\drivers/peripheral/gpio/cy_gpio.h ****     uint32_t out;           /**< Initial output data for the IO pins in the port */
 180:Generated_Source\PSoC6\pdl\drivers/peripheral/gpio/cy_gpio.h ****     uint32_t intrMask;      /**< Interrupt enable mask for the port interrupt */
 181:Generated_Source\PSoC6\pdl\drivers/peripheral/gpio/cy_gpio.h ****     uint32_t intrCfg;       /**< Port pin interrupt edge detection configuration */
 182:Generated_Source\PSoC6\pdl\drivers/peripheral/gpio/cy_gpio.h ****     uint32_t cfg;           /**< Port pin drive modes and input buffer enable configuration */
 183:Generated_Source\PSoC6\pdl\drivers/peripheral/gpio/cy_gpio.h ****     uint32_t cfgIn;         /**< Port pin input buffer configuration */
 184:Generated_Source\PSoC6\pdl\drivers/peripheral/gpio/cy_gpio.h ****     uint32_t cfgOut;        /**< Port pin output buffer configuration */
 185:Generated_Source\PSoC6\pdl\drivers/peripheral/gpio/cy_gpio.h ****     uint32_t cfgSIO;        /**< Port SIO pins configuration */
 186:Generated_Source\PSoC6\pdl\drivers/peripheral/gpio/cy_gpio.h ****     uint32_t sel0Active;    /**< HSIOM selection for port pins 0,1,2,3 */
 187:Generated_Source\PSoC6\pdl\drivers/peripheral/gpio/cy_gpio.h ****     uint32_t sel1Active;    /**< HSIOM selection for port pins 4,5,6,7 */
 188:Generated_Source\PSoC6\pdl\drivers/peripheral/gpio/cy_gpio.h **** } cy_stc_gpio_prt_config_t;
 189:Generated_Source\PSoC6\pdl\drivers/peripheral/gpio/cy_gpio.h **** 
 190:Generated_Source\PSoC6\pdl\drivers/peripheral/gpio/cy_gpio.h **** /** This structure is used to initialize a single GPIO pin */
 191:Generated_Source\PSoC6\pdl\drivers/peripheral/gpio/cy_gpio.h **** typedef struct {
 192:Generated_Source\PSoC6\pdl\drivers/peripheral/gpio/cy_gpio.h ****     uint32_t outVal;         /**< Pin output state */
 193:Generated_Source\PSoC6\pdl\drivers/peripheral/gpio/cy_gpio.h ****     uint32_t driveMode;      /**< Drive mode */
 194:Generated_Source\PSoC6\pdl\drivers/peripheral/gpio/cy_gpio.h ****     en_hsiom_sel_t hsiom;   /**< HSIOM selection */
 195:Generated_Source\PSoC6\pdl\drivers/peripheral/gpio/cy_gpio.h ****     uint32_t intEdge;        /**< Interrupt Edge type */
 196:Generated_Source\PSoC6\pdl\drivers/peripheral/gpio/cy_gpio.h ****     uint32_t intMask;        /**< Interrupt enable mask */
 197:Generated_Source\PSoC6\pdl\drivers/peripheral/gpio/cy_gpio.h ****     uint32_t vtrip;          /**< Input buffer voltage trip type */
 198:Generated_Source\PSoC6\pdl\drivers/peripheral/gpio/cy_gpio.h ****     uint32_t slewRate;       /**< Output buffer slew rate */
 199:Generated_Source\PSoC6\pdl\drivers/peripheral/gpio/cy_gpio.h ****     uint32_t driveSel;       /**< Drive strength */
 200:Generated_Source\PSoC6\pdl\drivers/peripheral/gpio/cy_gpio.h ****     uint32_t vregEn;         /**< SIO pair output buffer mode */
 201:Generated_Source\PSoC6\pdl\drivers/peripheral/gpio/cy_gpio.h ****     uint32_t ibufMode;       /**< SIO pair input buffer mode */
 202:Generated_Source\PSoC6\pdl\drivers/peripheral/gpio/cy_gpio.h ****     uint32_t vtripSel;       /**< SIO pair input buffer trip point */
 203:Generated_Source\PSoC6\pdl\drivers/peripheral/gpio/cy_gpio.h ****     uint32_t vrefSel;        /**< SIO pair reference voltage for input buffer trip point */
 204:Generated_Source\PSoC6\pdl\drivers/peripheral/gpio/cy_gpio.h ****     uint32_t vohSel;         /**< SIO pair regulated voltage output level */
 205:Generated_Source\PSoC6\pdl\drivers/peripheral/gpio/cy_gpio.h **** } cy_stc_gpio_pin_config_t;
 206:Generated_Source\PSoC6\pdl\drivers/peripheral/gpio/cy_gpio.h **** 
 207:Generated_Source\PSoC6\pdl\drivers/peripheral/gpio/cy_gpio.h **** /** \} group_gpio_data_structures */
 208:Generated_Source\PSoC6\pdl\drivers/peripheral/gpio/cy_gpio.h **** 
ARM GAS  C:\Users\Phuong\AppData\Local\Temp\ccOnRzaD.s 			page 17


 209:Generated_Source\PSoC6\pdl\drivers/peripheral/gpio/cy_gpio.h **** /***************************************
 210:Generated_Source\PSoC6\pdl\drivers/peripheral/gpio/cy_gpio.h **** *        Constants
 211:Generated_Source\PSoC6\pdl\drivers/peripheral/gpio/cy_gpio.h **** ***************************************/
 212:Generated_Source\PSoC6\pdl\drivers/peripheral/gpio/cy_gpio.h **** 
 213:Generated_Source\PSoC6\pdl\drivers/peripheral/gpio/cy_gpio.h **** /** \cond INTERNAL */
 214:Generated_Source\PSoC6\pdl\drivers/peripheral/gpio/cy_gpio.h **** 
 215:Generated_Source\PSoC6\pdl\drivers/peripheral/gpio/cy_gpio.h **** /* General Constants */
 216:Generated_Source\PSoC6\pdl\drivers/peripheral/gpio/cy_gpio.h **** #define CY_GPIO_PRT_HALF                       (4UL)      /**< Half-way point of a GPIO port */
 217:Generated_Source\PSoC6\pdl\drivers/peripheral/gpio/cy_gpio.h **** #define CY_GPIO_PRT_DEINIT                     (0UL)      /**< De-init value for port registers */
 218:Generated_Source\PSoC6\pdl\drivers/peripheral/gpio/cy_gpio.h **** 
 219:Generated_Source\PSoC6\pdl\drivers/peripheral/gpio/cy_gpio.h **** /* GPIO Masks */
 220:Generated_Source\PSoC6\pdl\drivers/peripheral/gpio/cy_gpio.h **** #define CY_GPIO_HSIOM_MASK                     (0x1FUL)   /**< HSIOM selection mask */
 221:Generated_Source\PSoC6\pdl\drivers/peripheral/gpio/cy_gpio.h **** #define CY_GPIO_OUT_MASK                       (0x01UL)   /**< Single pin mask for OUT register */
 222:Generated_Source\PSoC6\pdl\drivers/peripheral/gpio/cy_gpio.h **** #define CY_GPIO_IN_MASK                        (0x01UL)   /**< Single pin mask for IN register */
 223:Generated_Source\PSoC6\pdl\drivers/peripheral/gpio/cy_gpio.h **** #define CY_GPIO_CFG_DM_MASK                    (0x0FUL)   /**< Single pin mask for drive mode in CF
 224:Generated_Source\PSoC6\pdl\drivers/peripheral/gpio/cy_gpio.h **** #define CY_GPIO_CFG_IN_VTRIP_SEL_MASK          (0x01UL)   /**< Single pin mask for VTRIP selection 
 225:Generated_Source\PSoC6\pdl\drivers/peripheral/gpio/cy_gpio.h **** #define CY_GPIO_CFG_OUT_SLOW_MASK              (0x01UL)   /**< Single pin mask for slew rate in CFG
 226:Generated_Source\PSoC6\pdl\drivers/peripheral/gpio/cy_gpio.h **** #define CY_GPIO_CFG_OUT_DRIVE_SEL_MASK         (0x03UL)   /**< Single pin mask for drive strength i
 227:Generated_Source\PSoC6\pdl\drivers/peripheral/gpio/cy_gpio.h **** #define CY_GPIO_INTR_STATUS_MASK               (0x01UL)   /**< Single pin mask for interrupt status
 228:Generated_Source\PSoC6\pdl\drivers/peripheral/gpio/cy_gpio.h **** #define CY_GPIO_INTR_EN_MASK                   (0x01UL)   /**< Single pin mask for interrupt status
 229:Generated_Source\PSoC6\pdl\drivers/peripheral/gpio/cy_gpio.h **** #define CY_GPIO_INTR_MASKED_MASK               (0x01UL)   /**< Single pin mask for masked interrupt
 230:Generated_Source\PSoC6\pdl\drivers/peripheral/gpio/cy_gpio.h **** #define CY_GPIO_INTR_SET_MASK                  (0x01UL)   /**< Single pin mask for setting the inte
 231:Generated_Source\PSoC6\pdl\drivers/peripheral/gpio/cy_gpio.h **** #define CY_GPIO_INTR_EDGE_MASK                 (0x03UL)   /**< Single pin mask for interrupt edge t
 232:Generated_Source\PSoC6\pdl\drivers/peripheral/gpio/cy_gpio.h **** #define CY_GPIO_INTR_FLT_EDGE_MASK             (0x07UL)   /**< Single pin mask for setting filtered
 233:Generated_Source\PSoC6\pdl\drivers/peripheral/gpio/cy_gpio.h **** 
 234:Generated_Source\PSoC6\pdl\drivers/peripheral/gpio/cy_gpio.h **** /* SIO Masks */
 235:Generated_Source\PSoC6\pdl\drivers/peripheral/gpio/cy_gpio.h **** #define CY_GPIO_VREG_EN_MASK                   (0x01UL)   /**< Single SIO pin mask for voltage regu
 236:Generated_Source\PSoC6\pdl\drivers/peripheral/gpio/cy_gpio.h **** #define CY_GPIO_IBUF_MASK                      (0x01UL)   /**< Single SIO pin mask for input buffer
 237:Generated_Source\PSoC6\pdl\drivers/peripheral/gpio/cy_gpio.h **** #define CY_GPIO_IBUF_SHIFT                     (0x01UL)   /**< Single SIO pin shift for input buffe
 238:Generated_Source\PSoC6\pdl\drivers/peripheral/gpio/cy_gpio.h **** #define CY_GPIO_VTRIP_SEL_MASK                 (0x01UL)   /**< Single SIO pin mask for the input bu
 239:Generated_Source\PSoC6\pdl\drivers/peripheral/gpio/cy_gpio.h **** #define CY_GPIO_VTRIP_SEL_SHIFT                (0x02UL)   /**< Single SIO pin shift for the input b
 240:Generated_Source\PSoC6\pdl\drivers/peripheral/gpio/cy_gpio.h **** #define CY_GPIO_VREF_SEL_MASK                  (0x03UL)   /**< Single SIO pin mask for voltage refe
 241:Generated_Source\PSoC6\pdl\drivers/peripheral/gpio/cy_gpio.h **** #define CY_GPIO_VREF_SEL_SHIFT                 (0x03UL)   /**< Single SIO pin shift for voltage ref
 242:Generated_Source\PSoC6\pdl\drivers/peripheral/gpio/cy_gpio.h **** #define CY_GPIO_VOH_SEL_MASK                   (0x07UL)   /**< Single SIO pin mask for VOH */
 243:Generated_Source\PSoC6\pdl\drivers/peripheral/gpio/cy_gpio.h **** #define CY_GPIO_VOH_SEL_SHIFT                  (0x05UL)   /**< Single SIO pin shift for VOH */
 244:Generated_Source\PSoC6\pdl\drivers/peripheral/gpio/cy_gpio.h **** 
 245:Generated_Source\PSoC6\pdl\drivers/peripheral/gpio/cy_gpio.h **** /* Special mask for SIO pin pair setting */
 246:Generated_Source\PSoC6\pdl\drivers/peripheral/gpio/cy_gpio.h **** #define CY_GPIO_SIO_ODD_PIN_MASK               (0x00FEUL) /**< SIO pin pair selection mask */
 247:Generated_Source\PSoC6\pdl\drivers/peripheral/gpio/cy_gpio.h **** #define CY_GPIO_SIO_PIN_MASK                   (0x00FFUL) /**< SIO pin pair mask */
 248:Generated_Source\PSoC6\pdl\drivers/peripheral/gpio/cy_gpio.h **** 
 249:Generated_Source\PSoC6\pdl\drivers/peripheral/gpio/cy_gpio.h **** /* Offsets */
 250:Generated_Source\PSoC6\pdl\drivers/peripheral/gpio/cy_gpio.h **** #define CY_GPIO_HSIOM_OFFSET                   (3UL)      /**< Offset for HSIOM */
 251:Generated_Source\PSoC6\pdl\drivers/peripheral/gpio/cy_gpio.h **** #define CY_GPIO_DRIVE_MODE_OFFSET              (2UL)      /**< Offset for Drive mode */
 252:Generated_Source\PSoC6\pdl\drivers/peripheral/gpio/cy_gpio.h **** #define CY_GPIO_INBUF_OFFSET                   (3UL)      /**< Offset for input buffer */
 253:Generated_Source\PSoC6\pdl\drivers/peripheral/gpio/cy_gpio.h **** #define CY_GPIO_CFG_OUT_DRIVE_OFFSET           (16UL)     /**< Offset for drive strength */
 254:Generated_Source\PSoC6\pdl\drivers/peripheral/gpio/cy_gpio.h **** #define CY_GPIO_INTR_CFG_OFFSET                (1UL)      /**< Offset for interrupt config */
 255:Generated_Source\PSoC6\pdl\drivers/peripheral/gpio/cy_gpio.h **** #define CY_GPIO_INTR_FILT_OFFSET               (18UL)     /**< Offset for filtered interrupt config
 256:Generated_Source\PSoC6\pdl\drivers/peripheral/gpio/cy_gpio.h **** #define CY_GPIO_CFG_SIO_OFFSET                 (2UL)      /**< Offset for SIO config */
 257:Generated_Source\PSoC6\pdl\drivers/peripheral/gpio/cy_gpio.h **** 
 258:Generated_Source\PSoC6\pdl\drivers/peripheral/gpio/cy_gpio.h **** /* Parameter validation constants */
 259:Generated_Source\PSoC6\pdl\drivers/peripheral/gpio/cy_gpio.h **** #define CY_GPIO_PINS_MAX                       (8UL)      /**< Number of pins in the port */
 260:Generated_Source\PSoC6\pdl\drivers/peripheral/gpio/cy_gpio.h **** #define CY_GPIO_PRT_PINS_MASK                  (0x0000000FFUL)
 261:Generated_Source\PSoC6\pdl\drivers/peripheral/gpio/cy_gpio.h **** #define CY_GPIO_PRT_INTR_CFG_EDGE_SEL_MASK     (GPIO_PRT_INTR_CFG_EDGE0_SEL_Msk | \
 262:Generated_Source\PSoC6\pdl\drivers/peripheral/gpio/cy_gpio.h ****                                                 GPIO_PRT_INTR_CFG_EDGE1_SEL_Msk | \
 263:Generated_Source\PSoC6\pdl\drivers/peripheral/gpio/cy_gpio.h ****                                                 GPIO_PRT_INTR_CFG_EDGE2_SEL_Msk | \
 264:Generated_Source\PSoC6\pdl\drivers/peripheral/gpio/cy_gpio.h ****                                                 GPIO_PRT_INTR_CFG_EDGE3_SEL_Msk | \
 265:Generated_Source\PSoC6\pdl\drivers/peripheral/gpio/cy_gpio.h ****                                                 GPIO_PRT_INTR_CFG_EDGE4_SEL_Msk | \
ARM GAS  C:\Users\Phuong\AppData\Local\Temp\ccOnRzaD.s 			page 18


 266:Generated_Source\PSoC6\pdl\drivers/peripheral/gpio/cy_gpio.h ****                                                 GPIO_PRT_INTR_CFG_EDGE5_SEL_Msk | \
 267:Generated_Source\PSoC6\pdl\drivers/peripheral/gpio/cy_gpio.h ****                                                 GPIO_PRT_INTR_CFG_EDGE6_SEL_Msk | \
 268:Generated_Source\PSoC6\pdl\drivers/peripheral/gpio/cy_gpio.h ****                                                 GPIO_PRT_INTR_CFG_EDGE7_SEL_Msk)            
 269:Generated_Source\PSoC6\pdl\drivers/peripheral/gpio/cy_gpio.h **** #define CY_GPIO_PRT_INTR_CFG_RANGE_MASK        (CY_GPIO_PRT_INTR_CFG_EDGE_SEL_MASK | \
 270:Generated_Source\PSoC6\pdl\drivers/peripheral/gpio/cy_gpio.h ****                                                 GPIO_PRT_INTR_CFG_FLT_EDGE_SEL_Msk | \
 271:Generated_Source\PSoC6\pdl\drivers/peripheral/gpio/cy_gpio.h ****                                                 GPIO_PRT_INTR_CFG_FLT_SEL_Msk)
 272:Generated_Source\PSoC6\pdl\drivers/peripheral/gpio/cy_gpio.h **** #define CY_GPIO_PRT_INT_MASK_MASK              (0x0000001FFUL)
 273:Generated_Source\PSoC6\pdl\drivers/peripheral/gpio/cy_gpio.h **** #define CY_GPIO_PRT_SEL_ACTIVE_MASK            (0x1FFFFFFFUL)
 274:Generated_Source\PSoC6\pdl\drivers/peripheral/gpio/cy_gpio.h **** 
 275:Generated_Source\PSoC6\pdl\drivers/peripheral/gpio/cy_gpio.h **** /* Parameter validation macros */
 276:Generated_Source\PSoC6\pdl\drivers/peripheral/gpio/cy_gpio.h **** #define CY_GPIO_IS_PIN_VALID(pinNum)           (CY_GPIO_PINS_MAX > (pinNum))
 277:Generated_Source\PSoC6\pdl\drivers/peripheral/gpio/cy_gpio.h **** #define CY_GPIO_IS_FILTER_PIN_VALID(pinNum)    (CY_GPIO_PINS_MAX >= (pinNum))
 278:Generated_Source\PSoC6\pdl\drivers/peripheral/gpio/cy_gpio.h **** #define CY_GPIO_IS_VALUE_VALID(outVal)         (1UL >= (outVal))
 279:Generated_Source\PSoC6\pdl\drivers/peripheral/gpio/cy_gpio.h **** #define CY_GPIO_IS_DM_VALID(driveMode)         (0U == ((driveMode) & (uint32_t)~CY_GPIO_CFG_DM_MASK
 280:Generated_Source\PSoC6\pdl\drivers/peripheral/gpio/cy_gpio.h **** 
 281:Generated_Source\PSoC6\pdl\drivers/peripheral/gpio/cy_gpio.h **** #define CY_GPIO_IS_HSIOM_VALID(hsiom)          (0U == ((hsiom) & (uint32_t)~CY_GPIO_HSIOM_MASK))
 282:Generated_Source\PSoC6\pdl\drivers/peripheral/gpio/cy_gpio.h **** 
 283:Generated_Source\PSoC6\pdl\drivers/peripheral/gpio/cy_gpio.h **** #define CY_GPIO_IS_INT_EDGE_VALID(intEdge)     ((CY_GPIO_INTR_DISABLE  == (intEdge)) || \
 284:Generated_Source\PSoC6\pdl\drivers/peripheral/gpio/cy_gpio.h ****                                                 (CY_GPIO_INTR_RISING   == (intEdge)) || \
 285:Generated_Source\PSoC6\pdl\drivers/peripheral/gpio/cy_gpio.h ****                                                 (CY_GPIO_INTR_FALLING  == (intEdge)) || \
 286:Generated_Source\PSoC6\pdl\drivers/peripheral/gpio/cy_gpio.h ****                                                 (CY_GPIO_INTR_BOTH     == (intEdge)))
 287:Generated_Source\PSoC6\pdl\drivers/peripheral/gpio/cy_gpio.h **** 
 288:Generated_Source\PSoC6\pdl\drivers/peripheral/gpio/cy_gpio.h **** #define CY_GPIO_IS_DRIVE_SEL_VALID(driveSel)   ((CY_GPIO_DRIVE_FULL    == (driveSel)) || \
 289:Generated_Source\PSoC6\pdl\drivers/peripheral/gpio/cy_gpio.h ****                                                 (CY_GPIO_DRIVE_1_2     == (driveSel)) || \
 290:Generated_Source\PSoC6\pdl\drivers/peripheral/gpio/cy_gpio.h ****                                                 (CY_GPIO_DRIVE_1_4     == (driveSel)) || \
 291:Generated_Source\PSoC6\pdl\drivers/peripheral/gpio/cy_gpio.h ****                                                 (CY_GPIO_DRIVE_1_8     == (driveSel)))
 292:Generated_Source\PSoC6\pdl\drivers/peripheral/gpio/cy_gpio.h **** 
 293:Generated_Source\PSoC6\pdl\drivers/peripheral/gpio/cy_gpio.h **** #define CY_GPIO_IS_VREF_SEL_VALID(vrefSel)     ((CY_SIO_VREF_PINREF    == (vrefSel)) || \
 294:Generated_Source\PSoC6\pdl\drivers/peripheral/gpio/cy_gpio.h ****                                                 (CY_SIO_VREF_1_2V      == (vrefSel)) || \
 295:Generated_Source\PSoC6\pdl\drivers/peripheral/gpio/cy_gpio.h ****                                                 (CY_SIO_VREF_AMUX_A    == (vrefSel)) || \
 296:Generated_Source\PSoC6\pdl\drivers/peripheral/gpio/cy_gpio.h ****                                                 (CY_SIO_VREF_AMUX_B    == (vrefSel)))
 297:Generated_Source\PSoC6\pdl\drivers/peripheral/gpio/cy_gpio.h **** 
 298:Generated_Source\PSoC6\pdl\drivers/peripheral/gpio/cy_gpio.h **** #define CY_GPIO_IS_VOH_SEL_VALID(vrefSel)      ((CY_SIO_VOH_1_00       == (vrefSel)) || \
 299:Generated_Source\PSoC6\pdl\drivers/peripheral/gpio/cy_gpio.h ****                                                 (CY_SIO_VOH_1_25       == (vrefSel)) || \
 300:Generated_Source\PSoC6\pdl\drivers/peripheral/gpio/cy_gpio.h ****                                                 (CY_SIO_VOH_1_49       == (vrefSel)) || \
 301:Generated_Source\PSoC6\pdl\drivers/peripheral/gpio/cy_gpio.h ****                                                 (CY_SIO_VOH_1_67       == (vrefSel)) || \
 302:Generated_Source\PSoC6\pdl\drivers/peripheral/gpio/cy_gpio.h ****                                                 (CY_SIO_VOH_2_08       == (vrefSel)) || \
 303:Generated_Source\PSoC6\pdl\drivers/peripheral/gpio/cy_gpio.h ****                                                 (CY_SIO_VOH_2_50       == (vrefSel)) || \
 304:Generated_Source\PSoC6\pdl\drivers/peripheral/gpio/cy_gpio.h ****                                                 (CY_SIO_VOH_2_78       == (vrefSel)) || \
 305:Generated_Source\PSoC6\pdl\drivers/peripheral/gpio/cy_gpio.h ****                                                 (CY_SIO_VOH_4_16       == (vrefSel)))
 306:Generated_Source\PSoC6\pdl\drivers/peripheral/gpio/cy_gpio.h ****                    
 307:Generated_Source\PSoC6\pdl\drivers/peripheral/gpio/cy_gpio.h **** #define CY_GPIO_IS_PIN_BIT_VALID(pinBit)       (0U == ((pinBit) & (uint32_t)~CY_GPIO_PRT_PINS_MASK)
 308:Generated_Source\PSoC6\pdl\drivers/peripheral/gpio/cy_gpio.h **** #define CY_GPIO_IS_INTR_CFG_VALID(intrCfg)     (0U == ((intrCfg) & (uint32_t)~CY_GPIO_PRT_INTR_CFG_
 309:Generated_Source\PSoC6\pdl\drivers/peripheral/gpio/cy_gpio.h **** #define CY_GPIO_IS_INTR_MASK_VALID(intrMask)   (0U == ((intrMask) & (uint32_t)~CY_GPIO_PRT_INT_MASK
 310:Generated_Source\PSoC6\pdl\drivers/peripheral/gpio/cy_gpio.h **** #define CY_GPIO_IS_SEL_ACT_VALID(selActive)    (0U == ((selActive) & (uint32_t)~CY_GPIO_PRT_SEL_ACT
 311:Generated_Source\PSoC6\pdl\drivers/peripheral/gpio/cy_gpio.h **** 
 312:Generated_Source\PSoC6\pdl\drivers/peripheral/gpio/cy_gpio.h **** /** \endcond */
 313:Generated_Source\PSoC6\pdl\drivers/peripheral/gpio/cy_gpio.h **** 
 314:Generated_Source\PSoC6\pdl\drivers/peripheral/gpio/cy_gpio.h **** 
 315:Generated_Source\PSoC6\pdl\drivers/peripheral/gpio/cy_gpio.h **** /***************************************
 316:Generated_Source\PSoC6\pdl\drivers/peripheral/gpio/cy_gpio.h **** *        Function Constants
 317:Generated_Source\PSoC6\pdl\drivers/peripheral/gpio/cy_gpio.h **** ***************************************/
 318:Generated_Source\PSoC6\pdl\drivers/peripheral/gpio/cy_gpio.h **** 
 319:Generated_Source\PSoC6\pdl\drivers/peripheral/gpio/cy_gpio.h **** /**
 320:Generated_Source\PSoC6\pdl\drivers/peripheral/gpio/cy_gpio.h **** * \addtogroup group_gpio_macros
 321:Generated_Source\PSoC6\pdl\drivers/peripheral/gpio/cy_gpio.h **** * \{
 322:Generated_Source\PSoC6\pdl\drivers/peripheral/gpio/cy_gpio.h **** */
ARM GAS  C:\Users\Phuong\AppData\Local\Temp\ccOnRzaD.s 			page 19


 323:Generated_Source\PSoC6\pdl\drivers/peripheral/gpio/cy_gpio.h **** 
 324:Generated_Source\PSoC6\pdl\drivers/peripheral/gpio/cy_gpio.h **** /**
 325:Generated_Source\PSoC6\pdl\drivers/peripheral/gpio/cy_gpio.h **** * \defgroup group_gpio_driveModes Pin drive mode
 326:Generated_Source\PSoC6\pdl\drivers/peripheral/gpio/cy_gpio.h **** * \{
 327:Generated_Source\PSoC6\pdl\drivers/peripheral/gpio/cy_gpio.h **** * Constants to be used for setting the drive mode of the pin.
 328:Generated_Source\PSoC6\pdl\drivers/peripheral/gpio/cy_gpio.h **** */
 329:Generated_Source\PSoC6\pdl\drivers/peripheral/gpio/cy_gpio.h **** #define CY_GPIO_DM_ANALOG                      (0x00UL) /**< \brief Analog High-Z. Input buffer off
 330:Generated_Source\PSoC6\pdl\drivers/peripheral/gpio/cy_gpio.h **** #define CY_GPIO_DM_PULLUP_IN_OFF               (0x02UL) /**< \brief Resistive Pull-Up. Input buffer
 331:Generated_Source\PSoC6\pdl\drivers/peripheral/gpio/cy_gpio.h **** #define CY_GPIO_DM_PULLDOWN_IN_OFF             (0x03UL) /**< \brief Resistive Pull-Down. Input buff
 332:Generated_Source\PSoC6\pdl\drivers/peripheral/gpio/cy_gpio.h **** #define CY_GPIO_DM_OD_DRIVESLOW_IN_OFF         (0x04UL) /**< \brief Open Drain, Drives Low. Input b
 333:Generated_Source\PSoC6\pdl\drivers/peripheral/gpio/cy_gpio.h **** #define CY_GPIO_DM_OD_DRIVESHIGH_IN_OFF        (0x05UL) /**< \brief Open Drain, Drives High. Input 
 334:Generated_Source\PSoC6\pdl\drivers/peripheral/gpio/cy_gpio.h **** #define CY_GPIO_DM_STRONG_IN_OFF               (0x06UL) /**< \brief Strong Drive. Input buffer off 
 335:Generated_Source\PSoC6\pdl\drivers/peripheral/gpio/cy_gpio.h **** #define CY_GPIO_DM_PULLUP_DOWN_IN_OFF          (0x07UL) /**< \brief Resistive Pull-Up/Down. Input b
 336:Generated_Source\PSoC6\pdl\drivers/peripheral/gpio/cy_gpio.h **** #define CY_GPIO_DM_HIGHZ                       (0x08UL) /**< \brief Digital High-Z. Input buffer on
 337:Generated_Source\PSoC6\pdl\drivers/peripheral/gpio/cy_gpio.h **** #define CY_GPIO_DM_PULLUP                      (0x0AUL) /**< \brief Resistive Pull-Up. Input buffer
 338:Generated_Source\PSoC6\pdl\drivers/peripheral/gpio/cy_gpio.h **** #define CY_GPIO_DM_PULLDOWN                    (0x0BUL) /**< \brief Resistive Pull-Down. Input buff
 339:Generated_Source\PSoC6\pdl\drivers/peripheral/gpio/cy_gpio.h **** #define CY_GPIO_DM_OD_DRIVESLOW                (0x0CUL) /**< \brief Open Drain, Drives Low. Input b
 340:Generated_Source\PSoC6\pdl\drivers/peripheral/gpio/cy_gpio.h **** #define CY_GPIO_DM_OD_DRIVESHIGH               (0x0DUL) /**< \brief Open Drain, Drives High. Input 
 341:Generated_Source\PSoC6\pdl\drivers/peripheral/gpio/cy_gpio.h **** #define CY_GPIO_DM_STRONG                      (0x0EUL) /**< \brief Strong Drive. Input buffer on *
 342:Generated_Source\PSoC6\pdl\drivers/peripheral/gpio/cy_gpio.h **** #define CY_GPIO_DM_PULLUP_DOWN                 (0x0FUL) /**< \brief Resistive Pull-Up/Down. Input b
 343:Generated_Source\PSoC6\pdl\drivers/peripheral/gpio/cy_gpio.h **** /** \} */
 344:Generated_Source\PSoC6\pdl\drivers/peripheral/gpio/cy_gpio.h **** 
 345:Generated_Source\PSoC6\pdl\drivers/peripheral/gpio/cy_gpio.h **** /**
 346:Generated_Source\PSoC6\pdl\drivers/peripheral/gpio/cy_gpio.h **** * \defgroup group_gpio_vtrip Voltage trip mode
 347:Generated_Source\PSoC6\pdl\drivers/peripheral/gpio/cy_gpio.h **** * \{
 348:Generated_Source\PSoC6\pdl\drivers/peripheral/gpio/cy_gpio.h **** * Constants to be used for setting the voltage trip type on the pin.
 349:Generated_Source\PSoC6\pdl\drivers/peripheral/gpio/cy_gpio.h **** */
 350:Generated_Source\PSoC6\pdl\drivers/peripheral/gpio/cy_gpio.h **** #define CY_GPIO_VTRIP_CMOS                     (0x00UL) /**< \brief Input buffer compatible with CM
 351:Generated_Source\PSoC6\pdl\drivers/peripheral/gpio/cy_gpio.h **** #define CY_GPIO_VTRIP_TTL                      (0x01UL) /**< \brief Input buffer compatible with TT
 352:Generated_Source\PSoC6\pdl\drivers/peripheral/gpio/cy_gpio.h **** /** \} */
 353:Generated_Source\PSoC6\pdl\drivers/peripheral/gpio/cy_gpio.h **** 
 354:Generated_Source\PSoC6\pdl\drivers/peripheral/gpio/cy_gpio.h **** /**
 355:Generated_Source\PSoC6\pdl\drivers/peripheral/gpio/cy_gpio.h **** * \defgroup group_gpio_slewRate Slew Rate Mode
 356:Generated_Source\PSoC6\pdl\drivers/peripheral/gpio/cy_gpio.h **** * \{
 357:Generated_Source\PSoC6\pdl\drivers/peripheral/gpio/cy_gpio.h **** * Constants to be used for setting the slew rate of the pin.
 358:Generated_Source\PSoC6\pdl\drivers/peripheral/gpio/cy_gpio.h **** */
 359:Generated_Source\PSoC6\pdl\drivers/peripheral/gpio/cy_gpio.h **** #define CY_GPIO_SLEW_FAST                      (0x00UL) /**< \brief Fast slew rate */
 360:Generated_Source\PSoC6\pdl\drivers/peripheral/gpio/cy_gpio.h **** #define CY_GPIO_SLEW_SLOW                      (0x01UL) /**< \brief Slow slew rate */
 361:Generated_Source\PSoC6\pdl\drivers/peripheral/gpio/cy_gpio.h **** /** \} */
 362:Generated_Source\PSoC6\pdl\drivers/peripheral/gpio/cy_gpio.h **** 
 363:Generated_Source\PSoC6\pdl\drivers/peripheral/gpio/cy_gpio.h **** /**
 364:Generated_Source\PSoC6\pdl\drivers/peripheral/gpio/cy_gpio.h **** * \defgroup group_gpio_driveStrength Pin drive strength
 365:Generated_Source\PSoC6\pdl\drivers/peripheral/gpio/cy_gpio.h **** * \{
 366:Generated_Source\PSoC6\pdl\drivers/peripheral/gpio/cy_gpio.h **** * Constants to be used for setting the drive strength of the pin.
 367:Generated_Source\PSoC6\pdl\drivers/peripheral/gpio/cy_gpio.h **** */
 368:Generated_Source\PSoC6\pdl\drivers/peripheral/gpio/cy_gpio.h **** #define CY_GPIO_DRIVE_FULL                     (0x00UL) /**< \brief Full drive strength: Max drive 
 369:Generated_Source\PSoC6\pdl\drivers/peripheral/gpio/cy_gpio.h **** #define CY_GPIO_DRIVE_1_2                      (0x01UL) /**< \brief 1/2 drive strength: 1/2 drive c
 370:Generated_Source\PSoC6\pdl\drivers/peripheral/gpio/cy_gpio.h **** #define CY_GPIO_DRIVE_1_4                      (0x02UL) /**< \brief 1/4 drive strength: 1/4 drive c
 371:Generated_Source\PSoC6\pdl\drivers/peripheral/gpio/cy_gpio.h **** #define CY_GPIO_DRIVE_1_8                      (0x03UL) /**< \brief 1/8 drive strength: 1/8 drive c
 372:Generated_Source\PSoC6\pdl\drivers/peripheral/gpio/cy_gpio.h **** /** \} */
 373:Generated_Source\PSoC6\pdl\drivers/peripheral/gpio/cy_gpio.h **** 
 374:Generated_Source\PSoC6\pdl\drivers/peripheral/gpio/cy_gpio.h **** /**
 375:Generated_Source\PSoC6\pdl\drivers/peripheral/gpio/cy_gpio.h **** * \defgroup group_gpio_interruptTrigger Interrupt trigger type
 376:Generated_Source\PSoC6\pdl\drivers/peripheral/gpio/cy_gpio.h **** * \{
 377:Generated_Source\PSoC6\pdl\drivers/peripheral/gpio/cy_gpio.h **** * Constants to be used for setting the interrupt trigger type on the pin.
 378:Generated_Source\PSoC6\pdl\drivers/peripheral/gpio/cy_gpio.h **** */
 379:Generated_Source\PSoC6\pdl\drivers/peripheral/gpio/cy_gpio.h **** #define CY_GPIO_INTR_DISABLE                   (0x00UL) /**< \brief Disable the pin interrupt gener
ARM GAS  C:\Users\Phuong\AppData\Local\Temp\ccOnRzaD.s 			page 20


 380:Generated_Source\PSoC6\pdl\drivers/peripheral/gpio/cy_gpio.h **** #define CY_GPIO_INTR_RISING                    (0x01UL) /**< \brief Rising-Edge interrupt */
 381:Generated_Source\PSoC6\pdl\drivers/peripheral/gpio/cy_gpio.h **** #define CY_GPIO_INTR_FALLING                   (0x02UL) /**< \brief Falling-Edge interrupt */
 382:Generated_Source\PSoC6\pdl\drivers/peripheral/gpio/cy_gpio.h **** #define CY_GPIO_INTR_BOTH                      (0x03UL) /**< \brief Both-Edge interrupt */
 383:Generated_Source\PSoC6\pdl\drivers/peripheral/gpio/cy_gpio.h **** /** \} */
 384:Generated_Source\PSoC6\pdl\drivers/peripheral/gpio/cy_gpio.h **** 
 385:Generated_Source\PSoC6\pdl\drivers/peripheral/gpio/cy_gpio.h **** /**
 386:Generated_Source\PSoC6\pdl\drivers/peripheral/gpio/cy_gpio.h **** * \defgroup group_gpio_sioVreg SIO output buffer mode
 387:Generated_Source\PSoC6\pdl\drivers/peripheral/gpio/cy_gpio.h **** * \{
 388:Generated_Source\PSoC6\pdl\drivers/peripheral/gpio/cy_gpio.h **** * Constants to be used for setting the SIO output buffer mode on the pin.
 389:Generated_Source\PSoC6\pdl\drivers/peripheral/gpio/cy_gpio.h **** */
 390:Generated_Source\PSoC6\pdl\drivers/peripheral/gpio/cy_gpio.h **** #define CY_SIO_VREG_UNREGULATED                (0x00UL) /**< \brief Unregulated output buffer */
 391:Generated_Source\PSoC6\pdl\drivers/peripheral/gpio/cy_gpio.h **** #define CY_SIO_VREG_REGULATED                  (0x01UL) /**< \brief Regulated output buffer */
 392:Generated_Source\PSoC6\pdl\drivers/peripheral/gpio/cy_gpio.h **** /** \} */
 393:Generated_Source\PSoC6\pdl\drivers/peripheral/gpio/cy_gpio.h **** 
 394:Generated_Source\PSoC6\pdl\drivers/peripheral/gpio/cy_gpio.h **** /**
 395:Generated_Source\PSoC6\pdl\drivers/peripheral/gpio/cy_gpio.h **** * \defgroup group_gpio_sioIbuf SIO input buffer mode
 396:Generated_Source\PSoC6\pdl\drivers/peripheral/gpio/cy_gpio.h **** * \{
 397:Generated_Source\PSoC6\pdl\drivers/peripheral/gpio/cy_gpio.h **** * Constants to be used for setting the SIO input buffer mode on the pin.
 398:Generated_Source\PSoC6\pdl\drivers/peripheral/gpio/cy_gpio.h **** */
 399:Generated_Source\PSoC6\pdl\drivers/peripheral/gpio/cy_gpio.h **** #define CY_SIO_IBUF_SINGLEENDED                (0x00UL) /**< \brief Single ended input buffer */
 400:Generated_Source\PSoC6\pdl\drivers/peripheral/gpio/cy_gpio.h **** #define CY_SIO_IBUF_DIFFERENTIAL               (0x01UL) /**< \brief Differential input buffer */
 401:Generated_Source\PSoC6\pdl\drivers/peripheral/gpio/cy_gpio.h **** /** \} */
 402:Generated_Source\PSoC6\pdl\drivers/peripheral/gpio/cy_gpio.h **** 
 403:Generated_Source\PSoC6\pdl\drivers/peripheral/gpio/cy_gpio.h **** /**
 404:Generated_Source\PSoC6\pdl\drivers/peripheral/gpio/cy_gpio.h **** * \defgroup group_gpio_sioVtrip SIO input buffer trip-point
 405:Generated_Source\PSoC6\pdl\drivers/peripheral/gpio/cy_gpio.h **** * \{
 406:Generated_Source\PSoC6\pdl\drivers/peripheral/gpio/cy_gpio.h **** * Constants to be used for setting the SIO input buffer trip-point of the pin.
 407:Generated_Source\PSoC6\pdl\drivers/peripheral/gpio/cy_gpio.h **** */
 408:Generated_Source\PSoC6\pdl\drivers/peripheral/gpio/cy_gpio.h **** #define CY_SIO_VTRIP_CMOS                      (0x00UL) /**< \brief CMOS input buffer (single-ended
 409:Generated_Source\PSoC6\pdl\drivers/peripheral/gpio/cy_gpio.h **** #define CY_SIO_VTRIP_TTL                       (0x01UL) /**< \brief TTL input buffer (single-ended)
 410:Generated_Source\PSoC6\pdl\drivers/peripheral/gpio/cy_gpio.h **** #define CY_SIO_VTRIP_0_5VDDIO_0_5VOH           (0x00UL) /**< \brief 0.5xVddio or 0.5xVoh (different
 411:Generated_Source\PSoC6\pdl\drivers/peripheral/gpio/cy_gpio.h **** #define CY_SIO_VTRIP_0_4VDDIO_1_0VREF          (0x01UL) /**< \brief 0.4xVddio or 0.4xVoh (different
 412:Generated_Source\PSoC6\pdl\drivers/peripheral/gpio/cy_gpio.h **** /** \} */
 413:Generated_Source\PSoC6\pdl\drivers/peripheral/gpio/cy_gpio.h **** 
 414:Generated_Source\PSoC6\pdl\drivers/peripheral/gpio/cy_gpio.h **** /**
 415:Generated_Source\PSoC6\pdl\drivers/peripheral/gpio/cy_gpio.h **** * \defgroup group_gpio_sioVref SIO reference voltage for input buffer trip-point
 416:Generated_Source\PSoC6\pdl\drivers/peripheral/gpio/cy_gpio.h **** * \{
 417:Generated_Source\PSoC6\pdl\drivers/peripheral/gpio/cy_gpio.h **** * Constants to be used for setting the reference voltage of SIO input buffer trip-point.
 418:Generated_Source\PSoC6\pdl\drivers/peripheral/gpio/cy_gpio.h **** */
 419:Generated_Source\PSoC6\pdl\drivers/peripheral/gpio/cy_gpio.h **** #define CY_SIO_VREF_PINREF                     (0x00UL) /**< \brief Vref from analog pin */
 420:Generated_Source\PSoC6\pdl\drivers/peripheral/gpio/cy_gpio.h **** #define CY_SIO_VREF_1_2V                       (0x01UL) /**< \brief Vref from internal 1.2V referen
 421:Generated_Source\PSoC6\pdl\drivers/peripheral/gpio/cy_gpio.h **** #define CY_SIO_VREF_AMUX_A                     (0x02UL) /**< \brief Vref from AMUXBUS_A */
 422:Generated_Source\PSoC6\pdl\drivers/peripheral/gpio/cy_gpio.h **** #define CY_SIO_VREF_AMUX_B                     (0x03UL) /**< \brief Vref from AMUXBUS_B */
 423:Generated_Source\PSoC6\pdl\drivers/peripheral/gpio/cy_gpio.h **** /** \} */
 424:Generated_Source\PSoC6\pdl\drivers/peripheral/gpio/cy_gpio.h **** 
 425:Generated_Source\PSoC6\pdl\drivers/peripheral/gpio/cy_gpio.h **** /**
 426:Generated_Source\PSoC6\pdl\drivers/peripheral/gpio/cy_gpio.h **** * \defgroup group_gpio_sioVoh Regulated output voltage level (Voh) and input buffer trip-point of a
 427:Generated_Source\PSoC6\pdl\drivers/peripheral/gpio/cy_gpio.h **** * \{
 428:Generated_Source\PSoC6\pdl\drivers/peripheral/gpio/cy_gpio.h **** * Constants to be used for setting the Voh and input buffer trip-point of an SIO pair
 429:Generated_Source\PSoC6\pdl\drivers/peripheral/gpio/cy_gpio.h **** */
 430:Generated_Source\PSoC6\pdl\drivers/peripheral/gpio/cy_gpio.h **** #define CY_SIO_VOH_1_00                        (0x00UL) /**< \brief Voh = 1 x Reference */
 431:Generated_Source\PSoC6\pdl\drivers/peripheral/gpio/cy_gpio.h **** #define CY_SIO_VOH_1_25                        (0x01UL) /**< \brief Voh = 1.25 x Reference */
 432:Generated_Source\PSoC6\pdl\drivers/peripheral/gpio/cy_gpio.h **** #define CY_SIO_VOH_1_49                        (0x02UL) /**< \brief Voh = 1.49 x Reference */
 433:Generated_Source\PSoC6\pdl\drivers/peripheral/gpio/cy_gpio.h **** #define CY_SIO_VOH_1_67                        (0x03UL) /**< \brief Voh = 1.67 x Reference */
 434:Generated_Source\PSoC6\pdl\drivers/peripheral/gpio/cy_gpio.h **** #define CY_SIO_VOH_2_08                        (0x04UL) /**< \brief Voh = 2.08 x Reference */
 435:Generated_Source\PSoC6\pdl\drivers/peripheral/gpio/cy_gpio.h **** #define CY_SIO_VOH_2_50                        (0x05UL) /**< \brief Voh = 2.50 x Reference */
 436:Generated_Source\PSoC6\pdl\drivers/peripheral/gpio/cy_gpio.h **** #define CY_SIO_VOH_2_78                        (0x06UL) /**< \brief Voh = 2.78 x Reference */
ARM GAS  C:\Users\Phuong\AppData\Local\Temp\ccOnRzaD.s 			page 21


 437:Generated_Source\PSoC6\pdl\drivers/peripheral/gpio/cy_gpio.h **** #define CY_SIO_VOH_4_16                        (0x07UL) /**< \brief Voh = 4.16 x Reference */
 438:Generated_Source\PSoC6\pdl\drivers/peripheral/gpio/cy_gpio.h **** /** \} */
 439:Generated_Source\PSoC6\pdl\drivers/peripheral/gpio/cy_gpio.h **** 
 440:Generated_Source\PSoC6\pdl\drivers/peripheral/gpio/cy_gpio.h **** /** \} group_gpio_macros */
 441:Generated_Source\PSoC6\pdl\drivers/peripheral/gpio/cy_gpio.h **** 
 442:Generated_Source\PSoC6\pdl\drivers/peripheral/gpio/cy_gpio.h **** /***************************************
 443:Generated_Source\PSoC6\pdl\drivers/peripheral/gpio/cy_gpio.h **** *        Function Prototypes
 444:Generated_Source\PSoC6\pdl\drivers/peripheral/gpio/cy_gpio.h **** ***************************************/
 445:Generated_Source\PSoC6\pdl\drivers/peripheral/gpio/cy_gpio.h **** 
 446:Generated_Source\PSoC6\pdl\drivers/peripheral/gpio/cy_gpio.h **** /**
 447:Generated_Source\PSoC6\pdl\drivers/peripheral/gpio/cy_gpio.h **** * \addtogroup group_gpio_functions
 448:Generated_Source\PSoC6\pdl\drivers/peripheral/gpio/cy_gpio.h **** * \{
 449:Generated_Source\PSoC6\pdl\drivers/peripheral/gpio/cy_gpio.h **** */
 450:Generated_Source\PSoC6\pdl\drivers/peripheral/gpio/cy_gpio.h **** 
 451:Generated_Source\PSoC6\pdl\drivers/peripheral/gpio/cy_gpio.h **** /**
 452:Generated_Source\PSoC6\pdl\drivers/peripheral/gpio/cy_gpio.h **** * \addtogroup group_gpio_functions_init
 453:Generated_Source\PSoC6\pdl\drivers/peripheral/gpio/cy_gpio.h **** * \{
 454:Generated_Source\PSoC6\pdl\drivers/peripheral/gpio/cy_gpio.h **** */
 455:Generated_Source\PSoC6\pdl\drivers/peripheral/gpio/cy_gpio.h **** 
 456:Generated_Source\PSoC6\pdl\drivers/peripheral/gpio/cy_gpio.h **** cy_en_gpio_status_t Cy_GPIO_Pin_Init(GPIO_PRT_Type* base, uint32_t pinNum, const cy_stc_gpio_pin_co
 457:Generated_Source\PSoC6\pdl\drivers/peripheral/gpio/cy_gpio.h **** cy_en_gpio_status_t Cy_GPIO_Port_Init(GPIO_PRT_Type* base, const cy_stc_gpio_prt_config_t *config);
 458:Generated_Source\PSoC6\pdl\drivers/peripheral/gpio/cy_gpio.h **** void Cy_GPIO_Pin_FastInit(GPIO_PRT_Type* base, uint32_t pinNum, uint32_t driveMode, uint32_t outVal
 459:Generated_Source\PSoC6\pdl\drivers/peripheral/gpio/cy_gpio.h **** void Cy_GPIO_Port_Deinit(GPIO_PRT_Type* base);
 460:Generated_Source\PSoC6\pdl\drivers/peripheral/gpio/cy_gpio.h **** __STATIC_INLINE void Cy_GPIO_SetHSIOM(GPIO_PRT_Type* base, uint32_t pinNum, en_hsiom_sel_t value);
 461:Generated_Source\PSoC6\pdl\drivers/peripheral/gpio/cy_gpio.h **** __STATIC_INLINE en_hsiom_sel_t Cy_GPIO_GetHSIOM(GPIO_PRT_Type* base, uint32_t pinNum);
 462:Generated_Source\PSoC6\pdl\drivers/peripheral/gpio/cy_gpio.h **** __STATIC_INLINE GPIO_PRT_Type* Cy_GPIO_PortToAddr(uint32_t portNum);
 463:Generated_Source\PSoC6\pdl\drivers/peripheral/gpio/cy_gpio.h **** 
 464:Generated_Source\PSoC6\pdl\drivers/peripheral/gpio/cy_gpio.h **** /** \} group_gpio_functions_init */
 465:Generated_Source\PSoC6\pdl\drivers/peripheral/gpio/cy_gpio.h **** 
 466:Generated_Source\PSoC6\pdl\drivers/peripheral/gpio/cy_gpio.h **** /**
 467:Generated_Source\PSoC6\pdl\drivers/peripheral/gpio/cy_gpio.h **** * \addtogroup group_gpio_functions_gpio
 468:Generated_Source\PSoC6\pdl\drivers/peripheral/gpio/cy_gpio.h **** * \{
 469:Generated_Source\PSoC6\pdl\drivers/peripheral/gpio/cy_gpio.h **** */
 470:Generated_Source\PSoC6\pdl\drivers/peripheral/gpio/cy_gpio.h **** 
 471:Generated_Source\PSoC6\pdl\drivers/peripheral/gpio/cy_gpio.h **** __STATIC_INLINE uint32_t Cy_GPIO_Read(GPIO_PRT_Type* base, uint32_t pinNum);
 472:Generated_Source\PSoC6\pdl\drivers/peripheral/gpio/cy_gpio.h **** __STATIC_INLINE void Cy_GPIO_Write(GPIO_PRT_Type* base, uint32_t pinNum, uint32_t value);
 473:Generated_Source\PSoC6\pdl\drivers/peripheral/gpio/cy_gpio.h **** __STATIC_INLINE uint32_t Cy_GPIO_ReadOut(GPIO_PRT_Type* base, uint32_t pinNum);
 474:Generated_Source\PSoC6\pdl\drivers/peripheral/gpio/cy_gpio.h **** __STATIC_INLINE void Cy_GPIO_Set(GPIO_PRT_Type* base, uint32_t pinNum);
 475:Generated_Source\PSoC6\pdl\drivers/peripheral/gpio/cy_gpio.h **** __STATIC_INLINE void Cy_GPIO_Clr(GPIO_PRT_Type* base, uint32_t pinNum);
 476:Generated_Source\PSoC6\pdl\drivers/peripheral/gpio/cy_gpio.h **** __STATIC_INLINE void Cy_GPIO_Inv(GPIO_PRT_Type* base, uint32_t pinNum);
 477:Generated_Source\PSoC6\pdl\drivers/peripheral/gpio/cy_gpio.h **** __STATIC_INLINE void Cy_GPIO_SetDrivemode(GPIO_PRT_Type* base, uint32_t pinNum, uint32_t value);
 478:Generated_Source\PSoC6\pdl\drivers/peripheral/gpio/cy_gpio.h **** __STATIC_INLINE uint32_t Cy_GPIO_GetDrivemode(GPIO_PRT_Type* base, uint32_t pinNum);
 479:Generated_Source\PSoC6\pdl\drivers/peripheral/gpio/cy_gpio.h **** __STATIC_INLINE void Cy_GPIO_SetVtrip(GPIO_PRT_Type* base, uint32_t pinNum, uint32_t value);
 480:Generated_Source\PSoC6\pdl\drivers/peripheral/gpio/cy_gpio.h **** __STATIC_INLINE uint32_t Cy_GPIO_GetVtrip(GPIO_PRT_Type* base, uint32_t pinNum);
 481:Generated_Source\PSoC6\pdl\drivers/peripheral/gpio/cy_gpio.h **** __STATIC_INLINE void Cy_GPIO_SetSlewRate(GPIO_PRT_Type* base, uint32_t pinNum, uint32_t value);
 482:Generated_Source\PSoC6\pdl\drivers/peripheral/gpio/cy_gpio.h **** __STATIC_INLINE uint32_t Cy_GPIO_GetSlewRate(GPIO_PRT_Type* base, uint32_t pinNum);
 483:Generated_Source\PSoC6\pdl\drivers/peripheral/gpio/cy_gpio.h **** __STATIC_INLINE void Cy_GPIO_SetDriveSel(GPIO_PRT_Type* base, uint32_t pinNum, uint32_t value);
 484:Generated_Source\PSoC6\pdl\drivers/peripheral/gpio/cy_gpio.h **** __STATIC_INLINE uint32_t Cy_GPIO_GetDriveSel(GPIO_PRT_Type* base, uint32_t pinNum);
 485:Generated_Source\PSoC6\pdl\drivers/peripheral/gpio/cy_gpio.h **** 
 486:Generated_Source\PSoC6\pdl\drivers/peripheral/gpio/cy_gpio.h **** /** \} group_gpio_functions_gpio */
 487:Generated_Source\PSoC6\pdl\drivers/peripheral/gpio/cy_gpio.h **** 
 488:Generated_Source\PSoC6\pdl\drivers/peripheral/gpio/cy_gpio.h **** /**
 489:Generated_Source\PSoC6\pdl\drivers/peripheral/gpio/cy_gpio.h **** * \addtogroup group_gpio_functions_sio
 490:Generated_Source\PSoC6\pdl\drivers/peripheral/gpio/cy_gpio.h **** * \{
 491:Generated_Source\PSoC6\pdl\drivers/peripheral/gpio/cy_gpio.h **** */
 492:Generated_Source\PSoC6\pdl\drivers/peripheral/gpio/cy_gpio.h **** 
 493:Generated_Source\PSoC6\pdl\drivers/peripheral/gpio/cy_gpio.h **** __STATIC_INLINE void Cy_GPIO_SetVregEn(GPIO_PRT_Type* base, uint32_t pinNum, uint32_t value);
ARM GAS  C:\Users\Phuong\AppData\Local\Temp\ccOnRzaD.s 			page 22


 494:Generated_Source\PSoC6\pdl\drivers/peripheral/gpio/cy_gpio.h **** __STATIC_INLINE uint32_t Cy_GPIO_GetVregEn(GPIO_PRT_Type* base, uint32_t pinNum);
 495:Generated_Source\PSoC6\pdl\drivers/peripheral/gpio/cy_gpio.h **** __STATIC_INLINE void Cy_GPIO_SetIbufMode(GPIO_PRT_Type* base, uint32_t pinNum, uint32_t value);
 496:Generated_Source\PSoC6\pdl\drivers/peripheral/gpio/cy_gpio.h **** __STATIC_INLINE uint32_t Cy_GPIO_GetIbufMode(GPIO_PRT_Type* base, uint32_t pinNum);
 497:Generated_Source\PSoC6\pdl\drivers/peripheral/gpio/cy_gpio.h **** __STATIC_INLINE void Cy_GPIO_SetVtripSel(GPIO_PRT_Type* base, uint32_t pinNum, uint32_t value);
 498:Generated_Source\PSoC6\pdl\drivers/peripheral/gpio/cy_gpio.h **** __STATIC_INLINE uint32_t Cy_GPIO_GetVtripSel(GPIO_PRT_Type* base, uint32_t pinNum);
 499:Generated_Source\PSoC6\pdl\drivers/peripheral/gpio/cy_gpio.h **** __STATIC_INLINE void Cy_GPIO_SetVrefSel(GPIO_PRT_Type* base, uint32_t pinNum, uint32_t value);
 500:Generated_Source\PSoC6\pdl\drivers/peripheral/gpio/cy_gpio.h **** __STATIC_INLINE uint32_t Cy_GPIO_GetVrefSel(GPIO_PRT_Type* base, uint32_t pinNum);
 501:Generated_Source\PSoC6\pdl\drivers/peripheral/gpio/cy_gpio.h **** __STATIC_INLINE void Cy_GPIO_SetVohSel(GPIO_PRT_Type* base, uint32_t pinNum, uint32_t value);
 502:Generated_Source\PSoC6\pdl\drivers/peripheral/gpio/cy_gpio.h **** __STATIC_INLINE uint32_t Cy_GPIO_GetVohSel(GPIO_PRT_Type* base, uint32_t pinNum);
 503:Generated_Source\PSoC6\pdl\drivers/peripheral/gpio/cy_gpio.h **** 
 504:Generated_Source\PSoC6\pdl\drivers/peripheral/gpio/cy_gpio.h **** /** \} group_gpio_functions_sio */
 505:Generated_Source\PSoC6\pdl\drivers/peripheral/gpio/cy_gpio.h **** 
 506:Generated_Source\PSoC6\pdl\drivers/peripheral/gpio/cy_gpio.h **** /**
 507:Generated_Source\PSoC6\pdl\drivers/peripheral/gpio/cy_gpio.h **** * \addtogroup group_gpio_functions_interrupt
 508:Generated_Source\PSoC6\pdl\drivers/peripheral/gpio/cy_gpio.h **** * \{
 509:Generated_Source\PSoC6\pdl\drivers/peripheral/gpio/cy_gpio.h **** */
 510:Generated_Source\PSoC6\pdl\drivers/peripheral/gpio/cy_gpio.h **** 
 511:Generated_Source\PSoC6\pdl\drivers/peripheral/gpio/cy_gpio.h **** __STATIC_INLINE uint32_t Cy_GPIO_GetInterruptStatus(GPIO_PRT_Type* base, uint32_t pinNum);
 512:Generated_Source\PSoC6\pdl\drivers/peripheral/gpio/cy_gpio.h **** __STATIC_INLINE void Cy_GPIO_ClearInterrupt(GPIO_PRT_Type* base, uint32_t pinNum);
 513:Generated_Source\PSoC6\pdl\drivers/peripheral/gpio/cy_gpio.h **** __STATIC_INLINE void Cy_GPIO_SetInterruptMask(GPIO_PRT_Type* base, uint32_t pinNum, uint32_t value)
 514:Generated_Source\PSoC6\pdl\drivers/peripheral/gpio/cy_gpio.h **** __STATIC_INLINE uint32_t Cy_GPIO_GetInterruptMask(GPIO_PRT_Type* base, uint32_t pinNum);
 515:Generated_Source\PSoC6\pdl\drivers/peripheral/gpio/cy_gpio.h **** __STATIC_INLINE uint32_t Cy_GPIO_GetInterruptStatusMasked(GPIO_PRT_Type* base, uint32_t pinNum);
 516:Generated_Source\PSoC6\pdl\drivers/peripheral/gpio/cy_gpio.h **** __STATIC_INLINE void Cy_GPIO_SetSwInterrupt(GPIO_PRT_Type* base, uint32_t pinNum);
 517:Generated_Source\PSoC6\pdl\drivers/peripheral/gpio/cy_gpio.h **** __STATIC_INLINE void Cy_GPIO_SetInterruptEdge(GPIO_PRT_Type* base, uint32_t pinNum, uint32_t value)
 518:Generated_Source\PSoC6\pdl\drivers/peripheral/gpio/cy_gpio.h **** __STATIC_INLINE uint32_t Cy_GPIO_GetInterruptEdge(GPIO_PRT_Type* base, uint32_t pinNum);
 519:Generated_Source\PSoC6\pdl\drivers/peripheral/gpio/cy_gpio.h **** __STATIC_INLINE void Cy_GPIO_SetFilter(GPIO_PRT_Type* base, uint32_t value);
 520:Generated_Source\PSoC6\pdl\drivers/peripheral/gpio/cy_gpio.h **** __STATIC_INLINE uint32_t Cy_GPIO_GetFilter(GPIO_PRT_Type* base);
 521:Generated_Source\PSoC6\pdl\drivers/peripheral/gpio/cy_gpio.h **** 
 522:Generated_Source\PSoC6\pdl\drivers/peripheral/gpio/cy_gpio.h **** #if (IOSS_GPIO_GPIO_PORT_NR_0_31 != 0) || defined (CY_DOXYGEN)
 523:Generated_Source\PSoC6\pdl\drivers/peripheral/gpio/cy_gpio.h **** __STATIC_INLINE uint32_t Cy_GPIO_GetInterruptCause0(void);
 524:Generated_Source\PSoC6\pdl\drivers/peripheral/gpio/cy_gpio.h **** #endif /* (IOSS_GPIO_GPIO_PORT_NR_0_31 != 0) */
 525:Generated_Source\PSoC6\pdl\drivers/peripheral/gpio/cy_gpio.h **** 
 526:Generated_Source\PSoC6\pdl\drivers/peripheral/gpio/cy_gpio.h **** #if (IOSS_GPIO_GPIO_PORT_NR_32_63 != 0) || defined (CY_DOXYGEN)
 527:Generated_Source\PSoC6\pdl\drivers/peripheral/gpio/cy_gpio.h **** __STATIC_INLINE uint32_t Cy_GPIO_GetInterruptCause1(void);
 528:Generated_Source\PSoC6\pdl\drivers/peripheral/gpio/cy_gpio.h **** #endif /* (IOSS_GPIO_GPIO_PORT_NR_32_63 != 0) */
 529:Generated_Source\PSoC6\pdl\drivers/peripheral/gpio/cy_gpio.h **** 
 530:Generated_Source\PSoC6\pdl\drivers/peripheral/gpio/cy_gpio.h **** #if (IOSS_GPIO_GPIO_PORT_NR_64_95 != 0) || defined (CY_DOXYGEN)
 531:Generated_Source\PSoC6\pdl\drivers/peripheral/gpio/cy_gpio.h **** __STATIC_INLINE uint32_t Cy_GPIO_GetInterruptCause2(void);
 532:Generated_Source\PSoC6\pdl\drivers/peripheral/gpio/cy_gpio.h **** #endif /* (IOSS_GPIO_GPIO_PORT_NR_64_95 != 0) */
 533:Generated_Source\PSoC6\pdl\drivers/peripheral/gpio/cy_gpio.h **** 
 534:Generated_Source\PSoC6\pdl\drivers/peripheral/gpio/cy_gpio.h **** #if (IOSS_GPIO_GPIO_PORT_NR_96_127 != 0) || defined (CY_DOXYGEN)
 535:Generated_Source\PSoC6\pdl\drivers/peripheral/gpio/cy_gpio.h **** __STATIC_INLINE uint32_t Cy_GPIO_GetInterruptCause3(void);
 536:Generated_Source\PSoC6\pdl\drivers/peripheral/gpio/cy_gpio.h **** #endif /* (IOSS_GPIO_GPIO_PORT_NR_96_127 != 0) */
 537:Generated_Source\PSoC6\pdl\drivers/peripheral/gpio/cy_gpio.h **** 
 538:Generated_Source\PSoC6\pdl\drivers/peripheral/gpio/cy_gpio.h **** /** \} group_gpio_functions_interrupt */
 539:Generated_Source\PSoC6\pdl\drivers/peripheral/gpio/cy_gpio.h **** 
 540:Generated_Source\PSoC6\pdl\drivers/peripheral/gpio/cy_gpio.h **** 
 541:Generated_Source\PSoC6\pdl\drivers/peripheral/gpio/cy_gpio.h **** /**
 542:Generated_Source\PSoC6\pdl\drivers/peripheral/gpio/cy_gpio.h **** * \addtogroup group_gpio_functions_init
 543:Generated_Source\PSoC6\pdl\drivers/peripheral/gpio/cy_gpio.h **** * \{
 544:Generated_Source\PSoC6\pdl\drivers/peripheral/gpio/cy_gpio.h **** */
 545:Generated_Source\PSoC6\pdl\drivers/peripheral/gpio/cy_gpio.h **** 
 546:Generated_Source\PSoC6\pdl\drivers/peripheral/gpio/cy_gpio.h **** /*******************************************************************************
 547:Generated_Source\PSoC6\pdl\drivers/peripheral/gpio/cy_gpio.h **** * Function Name: Cy_GPIO_SetHSIOM
 548:Generated_Source\PSoC6\pdl\drivers/peripheral/gpio/cy_gpio.h **** ****************************************************************************//**
 549:Generated_Source\PSoC6\pdl\drivers/peripheral/gpio/cy_gpio.h **** *
 550:Generated_Source\PSoC6\pdl\drivers/peripheral/gpio/cy_gpio.h **** * \brief Configures the HSIOM connection to the pin.
ARM GAS  C:\Users\Phuong\AppData\Local\Temp\ccOnRzaD.s 			page 23


 551:Generated_Source\PSoC6\pdl\drivers/peripheral/gpio/cy_gpio.h **** *
 552:Generated_Source\PSoC6\pdl\drivers/peripheral/gpio/cy_gpio.h **** * Connects the specified High-Speed Input Output Multiplexer (HSIOM) selection
 553:Generated_Source\PSoC6\pdl\drivers/peripheral/gpio/cy_gpio.h **** * to the pin.
 554:Generated_Source\PSoC6\pdl\drivers/peripheral/gpio/cy_gpio.h **** *
 555:Generated_Source\PSoC6\pdl\drivers/peripheral/gpio/cy_gpio.h **** * \param base
 556:Generated_Source\PSoC6\pdl\drivers/peripheral/gpio/cy_gpio.h **** * Pointer to the pin's port register base address
 557:Generated_Source\PSoC6\pdl\drivers/peripheral/gpio/cy_gpio.h **** *
 558:Generated_Source\PSoC6\pdl\drivers/peripheral/gpio/cy_gpio.h **** * \param pinNum
 559:Generated_Source\PSoC6\pdl\drivers/peripheral/gpio/cy_gpio.h **** * Position of the pin bit-field within the port register
 560:Generated_Source\PSoC6\pdl\drivers/peripheral/gpio/cy_gpio.h **** *
 561:Generated_Source\PSoC6\pdl\drivers/peripheral/gpio/cy_gpio.h **** * \param value
 562:Generated_Source\PSoC6\pdl\drivers/peripheral/gpio/cy_gpio.h **** * HSIOM input selection
 563:Generated_Source\PSoC6\pdl\drivers/peripheral/gpio/cy_gpio.h **** *
 564:Generated_Source\PSoC6\pdl\drivers/peripheral/gpio/cy_gpio.h **** * \return
 565:Generated_Source\PSoC6\pdl\drivers/peripheral/gpio/cy_gpio.h **** * void
 566:Generated_Source\PSoC6\pdl\drivers/peripheral/gpio/cy_gpio.h **** *
 567:Generated_Source\PSoC6\pdl\drivers/peripheral/gpio/cy_gpio.h **** * \note 
 568:Generated_Source\PSoC6\pdl\drivers/peripheral/gpio/cy_gpio.h **** * This function modifies a port register in a read-modify-write operation. It is
 569:Generated_Source\PSoC6\pdl\drivers/peripheral/gpio/cy_gpio.h **** * not thread safe as the resource is shared among multiple pins on a port.
 570:Generated_Source\PSoC6\pdl\drivers/peripheral/gpio/cy_gpio.h **** *
 571:Generated_Source\PSoC6\pdl\drivers/peripheral/gpio/cy_gpio.h **** * \funcusage
 572:Generated_Source\PSoC6\pdl\drivers/peripheral/gpio/cy_gpio.h **** * \snippet gpio/gpio_v1_10_sut_01.cydsn/main_cm4.c snippet_Cy_GPIO_SetHSIOM
 573:Generated_Source\PSoC6\pdl\drivers/peripheral/gpio/cy_gpio.h **** *
 574:Generated_Source\PSoC6\pdl\drivers/peripheral/gpio/cy_gpio.h **** *******************************************************************************/
 575:Generated_Source\PSoC6\pdl\drivers/peripheral/gpio/cy_gpio.h **** __STATIC_INLINE void Cy_GPIO_SetHSIOM(GPIO_PRT_Type* base, uint32_t pinNum, en_hsiom_sel_t value)
 576:Generated_Source\PSoC6\pdl\drivers/peripheral/gpio/cy_gpio.h **** {
 577:Generated_Source\PSoC6\pdl\drivers/peripheral/gpio/cy_gpio.h ****     uint32_t portNum;
 578:Generated_Source\PSoC6\pdl\drivers/peripheral/gpio/cy_gpio.h ****     uint32_t tempReg;
 579:Generated_Source\PSoC6\pdl\drivers/peripheral/gpio/cy_gpio.h ****     HSIOM_PRT_Type* portAddrHSIOM;
 580:Generated_Source\PSoC6\pdl\drivers/peripheral/gpio/cy_gpio.h **** 
 581:Generated_Source\PSoC6\pdl\drivers/peripheral/gpio/cy_gpio.h ****     CY_ASSERT_L2(CY_GPIO_IS_PIN_VALID(pinNum));
 582:Generated_Source\PSoC6\pdl\drivers/peripheral/gpio/cy_gpio.h ****     CY_ASSERT_L2(CY_GPIO_IS_HSIOM_VALID(value));
 583:Generated_Source\PSoC6\pdl\drivers/peripheral/gpio/cy_gpio.h **** 
 584:Generated_Source\PSoC6\pdl\drivers/peripheral/gpio/cy_gpio.h ****     portNum = ((uint32_t)(base) - GPIO_BASE) / GPIO_PRT_SECTION_SIZE;
 585:Generated_Source\PSoC6\pdl\drivers/peripheral/gpio/cy_gpio.h ****     portAddrHSIOM = (HSIOM_PRT_Type*)(HSIOM_BASE + (HSIOM_PRT_SECTION_SIZE * portNum));
 586:Generated_Source\PSoC6\pdl\drivers/peripheral/gpio/cy_gpio.h **** 
 587:Generated_Source\PSoC6\pdl\drivers/peripheral/gpio/cy_gpio.h ****     if(pinNum < CY_GPIO_PRT_HALF)
 588:Generated_Source\PSoC6\pdl\drivers/peripheral/gpio/cy_gpio.h ****     {
 589:Generated_Source\PSoC6\pdl\drivers/peripheral/gpio/cy_gpio.h ****         tempReg = portAddrHSIOM->PORT_SEL0 & ~(CY_GPIO_HSIOM_MASK << (pinNum << CY_GPIO_HSIOM_OFFSE
 590:Generated_Source\PSoC6\pdl\drivers/peripheral/gpio/cy_gpio.h ****         portAddrHSIOM->PORT_SEL0 = tempReg | ((value & CY_GPIO_HSIOM_MASK) << (pinNum << CY_GPIO_HS
 591:Generated_Source\PSoC6\pdl\drivers/peripheral/gpio/cy_gpio.h ****     }
 592:Generated_Source\PSoC6\pdl\drivers/peripheral/gpio/cy_gpio.h ****     else
 593:Generated_Source\PSoC6\pdl\drivers/peripheral/gpio/cy_gpio.h ****     {
 594:Generated_Source\PSoC6\pdl\drivers/peripheral/gpio/cy_gpio.h ****         pinNum -= CY_GPIO_PRT_HALF;
 595:Generated_Source\PSoC6\pdl\drivers/peripheral/gpio/cy_gpio.h ****         tempReg = portAddrHSIOM->PORT_SEL1 & ~(CY_GPIO_HSIOM_MASK << (pinNum << CY_GPIO_HSIOM_OFFSE
 596:Generated_Source\PSoC6\pdl\drivers/peripheral/gpio/cy_gpio.h ****         portAddrHSIOM->PORT_SEL1 = tempReg | ((value & CY_GPIO_HSIOM_MASK) << (pinNum << CY_GPIO_HS
 597:Generated_Source\PSoC6\pdl\drivers/peripheral/gpio/cy_gpio.h ****     }
 598:Generated_Source\PSoC6\pdl\drivers/peripheral/gpio/cy_gpio.h **** }
 599:Generated_Source\PSoC6\pdl\drivers/peripheral/gpio/cy_gpio.h **** 
 600:Generated_Source\PSoC6\pdl\drivers/peripheral/gpio/cy_gpio.h **** 
 601:Generated_Source\PSoC6\pdl\drivers/peripheral/gpio/cy_gpio.h **** /*******************************************************************************
 602:Generated_Source\PSoC6\pdl\drivers/peripheral/gpio/cy_gpio.h **** * Function Name: Cy_GPIO_GetHSIOM
 603:Generated_Source\PSoC6\pdl\drivers/peripheral/gpio/cy_gpio.h **** ****************************************************************************//**
 604:Generated_Source\PSoC6\pdl\drivers/peripheral/gpio/cy_gpio.h **** *
 605:Generated_Source\PSoC6\pdl\drivers/peripheral/gpio/cy_gpio.h **** * \brief Returns the current HSIOM multiplexer connection to the pin.
 606:Generated_Source\PSoC6\pdl\drivers/peripheral/gpio/cy_gpio.h **** *
 607:Generated_Source\PSoC6\pdl\drivers/peripheral/gpio/cy_gpio.h **** * \param base
ARM GAS  C:\Users\Phuong\AppData\Local\Temp\ccOnRzaD.s 			page 24


 608:Generated_Source\PSoC6\pdl\drivers/peripheral/gpio/cy_gpio.h **** * Pointer to the pin's port register base address
 609:Generated_Source\PSoC6\pdl\drivers/peripheral/gpio/cy_gpio.h **** *
 610:Generated_Source\PSoC6\pdl\drivers/peripheral/gpio/cy_gpio.h **** * \param pinNum
 611:Generated_Source\PSoC6\pdl\drivers/peripheral/gpio/cy_gpio.h **** * Position of the pin bit-field within the port register
 612:Generated_Source\PSoC6\pdl\drivers/peripheral/gpio/cy_gpio.h **** *
 613:Generated_Source\PSoC6\pdl\drivers/peripheral/gpio/cy_gpio.h **** * \return
 614:Generated_Source\PSoC6\pdl\drivers/peripheral/gpio/cy_gpio.h **** * HSIOM input selection
 615:Generated_Source\PSoC6\pdl\drivers/peripheral/gpio/cy_gpio.h **** *
 616:Generated_Source\PSoC6\pdl\drivers/peripheral/gpio/cy_gpio.h **** * \funcusage
 617:Generated_Source\PSoC6\pdl\drivers/peripheral/gpio/cy_gpio.h **** * \snippet gpio/gpio_v1_10_sut_01.cydsn/main_cm4.c snippet_Cy_GPIO_SetHSIOM
 618:Generated_Source\PSoC6\pdl\drivers/peripheral/gpio/cy_gpio.h **** *
 619:Generated_Source\PSoC6\pdl\drivers/peripheral/gpio/cy_gpio.h **** *******************************************************************************/
 620:Generated_Source\PSoC6\pdl\drivers/peripheral/gpio/cy_gpio.h **** __STATIC_INLINE en_hsiom_sel_t Cy_GPIO_GetHSIOM(GPIO_PRT_Type* base, uint32_t pinNum)
 621:Generated_Source\PSoC6\pdl\drivers/peripheral/gpio/cy_gpio.h **** {
 622:Generated_Source\PSoC6\pdl\drivers/peripheral/gpio/cy_gpio.h ****     uint32_t returnValue;
 623:Generated_Source\PSoC6\pdl\drivers/peripheral/gpio/cy_gpio.h ****     uint32_t portNum;
 624:Generated_Source\PSoC6\pdl\drivers/peripheral/gpio/cy_gpio.h ****     HSIOM_PRT_Type* portAddrHSIOM;
 625:Generated_Source\PSoC6\pdl\drivers/peripheral/gpio/cy_gpio.h ****     
 626:Generated_Source\PSoC6\pdl\drivers/peripheral/gpio/cy_gpio.h ****     CY_ASSERT_L2(CY_GPIO_IS_PIN_VALID(pinNum));
 627:Generated_Source\PSoC6\pdl\drivers/peripheral/gpio/cy_gpio.h **** 
 628:Generated_Source\PSoC6\pdl\drivers/peripheral/gpio/cy_gpio.h ****     portNum = ((uint32_t)(base) - GPIO_BASE) / GPIO_PRT_SECTION_SIZE;
 629:Generated_Source\PSoC6\pdl\drivers/peripheral/gpio/cy_gpio.h ****     portAddrHSIOM = (HSIOM_PRT_Type*)(HSIOM_BASE + (HSIOM_PRT_SECTION_SIZE * portNum));
 630:Generated_Source\PSoC6\pdl\drivers/peripheral/gpio/cy_gpio.h **** 
 631:Generated_Source\PSoC6\pdl\drivers/peripheral/gpio/cy_gpio.h ****     if(pinNum < CY_GPIO_PRT_HALF)
 632:Generated_Source\PSoC6\pdl\drivers/peripheral/gpio/cy_gpio.h ****     {
 633:Generated_Source\PSoC6\pdl\drivers/peripheral/gpio/cy_gpio.h ****         returnValue = (portAddrHSIOM->PORT_SEL0 >> (pinNum << CY_GPIO_HSIOM_OFFSET)) & CY_GPIO_HSIO
 634:Generated_Source\PSoC6\pdl\drivers/peripheral/gpio/cy_gpio.h ****     }
 635:Generated_Source\PSoC6\pdl\drivers/peripheral/gpio/cy_gpio.h ****     else
 636:Generated_Source\PSoC6\pdl\drivers/peripheral/gpio/cy_gpio.h ****     {
 637:Generated_Source\PSoC6\pdl\drivers/peripheral/gpio/cy_gpio.h ****         pinNum -= CY_GPIO_PRT_HALF;
 638:Generated_Source\PSoC6\pdl\drivers/peripheral/gpio/cy_gpio.h ****         returnValue = (portAddrHSIOM->PORT_SEL1 >> (pinNum << CY_GPIO_HSIOM_OFFSET)) & CY_GPIO_HSIO
 639:Generated_Source\PSoC6\pdl\drivers/peripheral/gpio/cy_gpio.h ****     }
 640:Generated_Source\PSoC6\pdl\drivers/peripheral/gpio/cy_gpio.h **** 
 641:Generated_Source\PSoC6\pdl\drivers/peripheral/gpio/cy_gpio.h ****     return (en_hsiom_sel_t)returnValue;
 642:Generated_Source\PSoC6\pdl\drivers/peripheral/gpio/cy_gpio.h **** }
 643:Generated_Source\PSoC6\pdl\drivers/peripheral/gpio/cy_gpio.h **** 
 644:Generated_Source\PSoC6\pdl\drivers/peripheral/gpio/cy_gpio.h **** 
 645:Generated_Source\PSoC6\pdl\drivers/peripheral/gpio/cy_gpio.h **** /*******************************************************************************
 646:Generated_Source\PSoC6\pdl\drivers/peripheral/gpio/cy_gpio.h **** * Function Name: Cy_GPIO_PortToAddr
 647:Generated_Source\PSoC6\pdl\drivers/peripheral/gpio/cy_gpio.h **** ****************************************************************************//**
 648:Generated_Source\PSoC6\pdl\drivers/peripheral/gpio/cy_gpio.h **** *
 649:Generated_Source\PSoC6\pdl\drivers/peripheral/gpio/cy_gpio.h **** * \brief Retrieves the port address based on the given port number.
 650:Generated_Source\PSoC6\pdl\drivers/peripheral/gpio/cy_gpio.h **** *
 651:Generated_Source\PSoC6\pdl\drivers/peripheral/gpio/cy_gpio.h **** * This is a helper function to calculate the port base address when given a port
 652:Generated_Source\PSoC6\pdl\drivers/peripheral/gpio/cy_gpio.h **** * number. It is to be used when pin access needs to be calculated at runtime.
 653:Generated_Source\PSoC6\pdl\drivers/peripheral/gpio/cy_gpio.h **** *
 654:Generated_Source\PSoC6\pdl\drivers/peripheral/gpio/cy_gpio.h **** * \param portNum
 655:Generated_Source\PSoC6\pdl\drivers/peripheral/gpio/cy_gpio.h **** * Port number
 656:Generated_Source\PSoC6\pdl\drivers/peripheral/gpio/cy_gpio.h **** *
 657:Generated_Source\PSoC6\pdl\drivers/peripheral/gpio/cy_gpio.h **** * \return
 658:Generated_Source\PSoC6\pdl\drivers/peripheral/gpio/cy_gpio.h **** * Base address of the port register structure
 659:Generated_Source\PSoC6\pdl\drivers/peripheral/gpio/cy_gpio.h **** *
 660:Generated_Source\PSoC6\pdl\drivers/peripheral/gpio/cy_gpio.h **** * \funcusage
 661:Generated_Source\PSoC6\pdl\drivers/peripheral/gpio/cy_gpio.h **** * \snippet gpio/gpio_v1_10_sut_01.cydsn/main_cm4.c snippet_Cy_GPIO_PortToAddr
 662:Generated_Source\PSoC6\pdl\drivers/peripheral/gpio/cy_gpio.h **** *
 663:Generated_Source\PSoC6\pdl\drivers/peripheral/gpio/cy_gpio.h **** *******************************************************************************/
 664:Generated_Source\PSoC6\pdl\drivers/peripheral/gpio/cy_gpio.h **** __STATIC_INLINE GPIO_PRT_Type* Cy_GPIO_PortToAddr(uint32_t portNum)
ARM GAS  C:\Users\Phuong\AppData\Local\Temp\ccOnRzaD.s 			page 25


 665:Generated_Source\PSoC6\pdl\drivers/peripheral/gpio/cy_gpio.h **** {
 666:Generated_Source\PSoC6\pdl\drivers/peripheral/gpio/cy_gpio.h ****     GPIO_PRT_Type* base;
 667:Generated_Source\PSoC6\pdl\drivers/peripheral/gpio/cy_gpio.h ****     
 668:Generated_Source\PSoC6\pdl\drivers/peripheral/gpio/cy_gpio.h ****     if(portNum < (uint32_t)IOSS_GPIO_GPIO_PORT_NR)
 669:Generated_Source\PSoC6\pdl\drivers/peripheral/gpio/cy_gpio.h ****     {
 670:Generated_Source\PSoC6\pdl\drivers/peripheral/gpio/cy_gpio.h ****          base = (GPIO_PRT_Type *)(GPIO_BASE + (GPIO_PRT_SECTION_SIZE * portNum));
 671:Generated_Source\PSoC6\pdl\drivers/peripheral/gpio/cy_gpio.h ****     }
 672:Generated_Source\PSoC6\pdl\drivers/peripheral/gpio/cy_gpio.h ****     else
 673:Generated_Source\PSoC6\pdl\drivers/peripheral/gpio/cy_gpio.h ****     {
 674:Generated_Source\PSoC6\pdl\drivers/peripheral/gpio/cy_gpio.h ****         /* Error: Return default base address */
 675:Generated_Source\PSoC6\pdl\drivers/peripheral/gpio/cy_gpio.h ****         base = (GPIO_PRT_Type *)(GPIO_BASE);
 676:Generated_Source\PSoC6\pdl\drivers/peripheral/gpio/cy_gpio.h ****     }
 677:Generated_Source\PSoC6\pdl\drivers/peripheral/gpio/cy_gpio.h **** 
 678:Generated_Source\PSoC6\pdl\drivers/peripheral/gpio/cy_gpio.h ****     return (base);
 679:Generated_Source\PSoC6\pdl\drivers/peripheral/gpio/cy_gpio.h **** }
 680:Generated_Source\PSoC6\pdl\drivers/peripheral/gpio/cy_gpio.h **** 
 681:Generated_Source\PSoC6\pdl\drivers/peripheral/gpio/cy_gpio.h **** /** \} group_gpio_functions_init */
 682:Generated_Source\PSoC6\pdl\drivers/peripheral/gpio/cy_gpio.h **** 
 683:Generated_Source\PSoC6\pdl\drivers/peripheral/gpio/cy_gpio.h **** /**
 684:Generated_Source\PSoC6\pdl\drivers/peripheral/gpio/cy_gpio.h **** * \addtogroup group_gpio_functions_gpio
 685:Generated_Source\PSoC6\pdl\drivers/peripheral/gpio/cy_gpio.h **** * \{
 686:Generated_Source\PSoC6\pdl\drivers/peripheral/gpio/cy_gpio.h **** */
 687:Generated_Source\PSoC6\pdl\drivers/peripheral/gpio/cy_gpio.h **** 
 688:Generated_Source\PSoC6\pdl\drivers/peripheral/gpio/cy_gpio.h **** /*******************************************************************************
 689:Generated_Source\PSoC6\pdl\drivers/peripheral/gpio/cy_gpio.h **** * Function Name: Cy_GPIO_Read
 690:Generated_Source\PSoC6\pdl\drivers/peripheral/gpio/cy_gpio.h **** ****************************************************************************//**
 691:Generated_Source\PSoC6\pdl\drivers/peripheral/gpio/cy_gpio.h **** *
 692:Generated_Source\PSoC6\pdl\drivers/peripheral/gpio/cy_gpio.h **** * \brief Reads the current logic level on the input buffer of the pin.
 693:Generated_Source\PSoC6\pdl\drivers/peripheral/gpio/cy_gpio.h **** *
 694:Generated_Source\PSoC6\pdl\drivers/peripheral/gpio/cy_gpio.h **** * \param base
 695:Generated_Source\PSoC6\pdl\drivers/peripheral/gpio/cy_gpio.h **** * Pointer to the pin's port register base address
 696:Generated_Source\PSoC6\pdl\drivers/peripheral/gpio/cy_gpio.h **** *
 697:Generated_Source\PSoC6\pdl\drivers/peripheral/gpio/cy_gpio.h **** * \param pinNum
 698:Generated_Source\PSoC6\pdl\drivers/peripheral/gpio/cy_gpio.h **** * Position of the pin bit-field within the port register.
 699:Generated_Source\PSoC6\pdl\drivers/peripheral/gpio/cy_gpio.h **** * Bit position 8 is the routed pin through the port glitch filter.
 700:Generated_Source\PSoC6\pdl\drivers/peripheral/gpio/cy_gpio.h **** *
 701:Generated_Source\PSoC6\pdl\drivers/peripheral/gpio/cy_gpio.h **** * \return
 702:Generated_Source\PSoC6\pdl\drivers/peripheral/gpio/cy_gpio.h **** * Logic level present on the pin
 703:Generated_Source\PSoC6\pdl\drivers/peripheral/gpio/cy_gpio.h **** *
 704:Generated_Source\PSoC6\pdl\drivers/peripheral/gpio/cy_gpio.h **** * \funcusage
 705:Generated_Source\PSoC6\pdl\drivers/peripheral/gpio/cy_gpio.h **** * \snippet gpio/gpio_v1_10_sut_01.cydsn/main_cm4.c snippet_Cy_GPIO_Read
 706:Generated_Source\PSoC6\pdl\drivers/peripheral/gpio/cy_gpio.h **** *
 707:Generated_Source\PSoC6\pdl\drivers/peripheral/gpio/cy_gpio.h **** *******************************************************************************/
 708:Generated_Source\PSoC6\pdl\drivers/peripheral/gpio/cy_gpio.h **** __STATIC_INLINE uint32_t Cy_GPIO_Read(GPIO_PRT_Type* base, uint32_t pinNum)
 709:Generated_Source\PSoC6\pdl\drivers/peripheral/gpio/cy_gpio.h **** {
 710:Generated_Source\PSoC6\pdl\drivers/peripheral/gpio/cy_gpio.h ****     CY_ASSERT_L2(CY_GPIO_IS_FILTER_PIN_VALID(pinNum));
 711:Generated_Source\PSoC6\pdl\drivers/peripheral/gpio/cy_gpio.h ****     
 712:Generated_Source\PSoC6\pdl\drivers/peripheral/gpio/cy_gpio.h ****     return (base->IN >> (pinNum)) & CY_GPIO_IN_MASK;
 713:Generated_Source\PSoC6\pdl\drivers/peripheral/gpio/cy_gpio.h **** }
 714:Generated_Source\PSoC6\pdl\drivers/peripheral/gpio/cy_gpio.h **** 
 715:Generated_Source\PSoC6\pdl\drivers/peripheral/gpio/cy_gpio.h **** 
 716:Generated_Source\PSoC6\pdl\drivers/peripheral/gpio/cy_gpio.h **** /*******************************************************************************
 717:Generated_Source\PSoC6\pdl\drivers/peripheral/gpio/cy_gpio.h **** * Function Name: Cy_GPIO_Write
 718:Generated_Source\PSoC6\pdl\drivers/peripheral/gpio/cy_gpio.h **** ****************************************************************************//**
 719:Generated_Source\PSoC6\pdl\drivers/peripheral/gpio/cy_gpio.h **** *
 720:Generated_Source\PSoC6\pdl\drivers/peripheral/gpio/cy_gpio.h **** * \brief Write a logic 0 or logic 1 state to the output driver.
 721:Generated_Source\PSoC6\pdl\drivers/peripheral/gpio/cy_gpio.h **** *
ARM GAS  C:\Users\Phuong\AppData\Local\Temp\ccOnRzaD.s 			page 26


 722:Generated_Source\PSoC6\pdl\drivers/peripheral/gpio/cy_gpio.h **** * This function should be used only for software driven pins. It does not have
 723:Generated_Source\PSoC6\pdl\drivers/peripheral/gpio/cy_gpio.h **** * any effect on peripheral driven pins.
 724:Generated_Source\PSoC6\pdl\drivers/peripheral/gpio/cy_gpio.h **** *
 725:Generated_Source\PSoC6\pdl\drivers/peripheral/gpio/cy_gpio.h **** * \param base
 726:Generated_Source\PSoC6\pdl\drivers/peripheral/gpio/cy_gpio.h **** * Pointer to the pin's port register base address
 727:Generated_Source\PSoC6\pdl\drivers/peripheral/gpio/cy_gpio.h **** *
 728:Generated_Source\PSoC6\pdl\drivers/peripheral/gpio/cy_gpio.h **** * \param pinNum
 729:Generated_Source\PSoC6\pdl\drivers/peripheral/gpio/cy_gpio.h **** * Position of the pin bit-field within the port register
 730:Generated_Source\PSoC6\pdl\drivers/peripheral/gpio/cy_gpio.h **** *
 731:Generated_Source\PSoC6\pdl\drivers/peripheral/gpio/cy_gpio.h **** * \param value
 732:Generated_Source\PSoC6\pdl\drivers/peripheral/gpio/cy_gpio.h **** * Logic level to drive out on the pin
 733:Generated_Source\PSoC6\pdl\drivers/peripheral/gpio/cy_gpio.h **** *
 734:Generated_Source\PSoC6\pdl\drivers/peripheral/gpio/cy_gpio.h **** * \return
 735:Generated_Source\PSoC6\pdl\drivers/peripheral/gpio/cy_gpio.h **** * void
 736:Generated_Source\PSoC6\pdl\drivers/peripheral/gpio/cy_gpio.h **** *
 737:Generated_Source\PSoC6\pdl\drivers/peripheral/gpio/cy_gpio.h **** * \funcusage
 738:Generated_Source\PSoC6\pdl\drivers/peripheral/gpio/cy_gpio.h **** * \snippet gpio/gpio_v1_10_sut_01.cydsn/main_cm4.c snippet_Cy_GPIO_Write
 739:Generated_Source\PSoC6\pdl\drivers/peripheral/gpio/cy_gpio.h **** *
 740:Generated_Source\PSoC6\pdl\drivers/peripheral/gpio/cy_gpio.h **** *******************************************************************************/
 741:Generated_Source\PSoC6\pdl\drivers/peripheral/gpio/cy_gpio.h **** __STATIC_INLINE void Cy_GPIO_Write(GPIO_PRT_Type* base, uint32_t pinNum, uint32_t value)
 742:Generated_Source\PSoC6\pdl\drivers/peripheral/gpio/cy_gpio.h **** {
 743:Generated_Source\PSoC6\pdl\drivers/peripheral/gpio/cy_gpio.h ****     CY_ASSERT_L2(CY_GPIO_IS_PIN_VALID(pinNum));
 744:Generated_Source\PSoC6\pdl\drivers/peripheral/gpio/cy_gpio.h ****     CY_ASSERT_L2(CY_GPIO_IS_VALUE_VALID(value));
 745:Generated_Source\PSoC6\pdl\drivers/peripheral/gpio/cy_gpio.h **** 
 746:Generated_Source\PSoC6\pdl\drivers/peripheral/gpio/cy_gpio.h ****     /* Thread-safe: Directly access the pin registers instead of base->OUT */
 747:Generated_Source\PSoC6\pdl\drivers/peripheral/gpio/cy_gpio.h ****     if(0UL == value)
 748:Generated_Source\PSoC6\pdl\drivers/peripheral/gpio/cy_gpio.h ****     {
 749:Generated_Source\PSoC6\pdl\drivers/peripheral/gpio/cy_gpio.h ****         base->OUT_CLR = CY_GPIO_OUT_MASK << pinNum;
 750:Generated_Source\PSoC6\pdl\drivers/peripheral/gpio/cy_gpio.h ****     }
 751:Generated_Source\PSoC6\pdl\drivers/peripheral/gpio/cy_gpio.h ****     else
 752:Generated_Source\PSoC6\pdl\drivers/peripheral/gpio/cy_gpio.h ****     {
 753:Generated_Source\PSoC6\pdl\drivers/peripheral/gpio/cy_gpio.h ****         base->OUT_SET = CY_GPIO_OUT_MASK << pinNum;
 347              		.loc 2 753 0
 348 0006 0122     		movs	r2, #1
 349 0008 1C4B     		ldr	r3, .L36
 350 000a 9A60     		str	r2, [r3, #8]
 351              	.LVL35:
 352              	.LBE7:
 353              	.LBE6:
 135:Source\LwIP\src\netif/slipif.c **** 
 354              		.loc 1 135 0
 355 000c 3168     		ldr	r1, [r6]
 356              	.LVL36:
 357 000e C020     		movs	r0, #192
 358              	.LVL37:
 359 0010 FFF7FEFF 		bl	sio_send
 360              	.LVL38:
 137:Source\LwIP\src\netif/slipif.c ****     for (i = 0; i < q->len; i++) {
 361              		.loc 1 137 0
 362 0014 23E0     		b	.L27
 363              	.LVL39:
 364              	.L32:
 139:Source\LwIP\src\netif/slipif.c ****       switch (c) {
 365              		.loc 1 139 0
 366 0016 6B68     		ldr	r3, [r5, #4]
 367 0018 185D     		ldrb	r0, [r3, r4]
 368              	.LVL40:
ARM GAS  C:\Users\Phuong\AppData\Local\Temp\ccOnRzaD.s 			page 27


 140:Source\LwIP\src\netif/slipif.c ****       case SLIP_END:
 369              		.loc 1 140 0
 370 001a C028     		cmp	r0, #192
 371 001c 02D0     		beq	.L29
 372 001e DB28     		cmp	r0, #219
 373 0020 09D0     		beq	.L30
 374 0022 11E0     		b	.L35
 375              	.L29:
 143:Source\LwIP\src\netif/slipif.c ****         sio_send(SLIP_ESC_END, priv->sd);
 376              		.loc 1 143 0
 377 0024 3168     		ldr	r1, [r6]
 378 0026 DB20     		movs	r0, #219
 379              	.LVL41:
 380 0028 FFF7FEFF 		bl	sio_send
 381              	.LVL42:
 144:Source\LwIP\src\netif/slipif.c ****         break;
 382              		.loc 1 144 0
 383 002c 3168     		ldr	r1, [r6]
 384 002e DC20     		movs	r0, #220
 385 0030 FFF7FEFF 		bl	sio_send
 386              	.LVL43:
 145:Source\LwIP\src\netif/slipif.c ****       case SLIP_ESC:
 387              		.loc 1 145 0
 388 0034 0BE0     		b	.L31
 389              	.LVL44:
 390              	.L30:
 148:Source\LwIP\src\netif/slipif.c ****         sio_send(SLIP_ESC_ESC, priv->sd);
 391              		.loc 1 148 0
 392 0036 3168     		ldr	r1, [r6]
 393 0038 DB20     		movs	r0, #219
 394              	.LVL45:
 395 003a FFF7FEFF 		bl	sio_send
 396              	.LVL46:
 149:Source\LwIP\src\netif/slipif.c ****         break;
 397              		.loc 1 149 0
 398 003e 3168     		ldr	r1, [r6]
 399 0040 DD20     		movs	r0, #221
 400 0042 FFF7FEFF 		bl	sio_send
 401              	.LVL47:
 150:Source\LwIP\src\netif/slipif.c ****       default:
 402              		.loc 1 150 0
 403 0046 02E0     		b	.L31
 404              	.LVL48:
 405              	.L35:
 153:Source\LwIP\src\netif/slipif.c ****         break;
 406              		.loc 1 153 0
 407 0048 3168     		ldr	r1, [r6]
 408 004a FFF7FEFF 		bl	sio_send
 409              	.LVL49:
 410              	.L31:
 138:Source\LwIP\src\netif/slipif.c ****       c = ((u8_t *)q->payload)[i];
 411              		.loc 1 138 0 discriminator 2
 412 004e 0134     		adds	r4, r4, #1
 413              	.LVL50:
 414 0050 A4B2     		uxth	r4, r4
 415              	.LVL51:
 416 0052 00E0     		b	.L33
ARM GAS  C:\Users\Phuong\AppData\Local\Temp\ccOnRzaD.s 			page 28


 417              	.LVL52:
 418              	.L34:
 419 0054 0024     		movs	r4, #0
 420              	.L33:
 421              	.LVL53:
 138:Source\LwIP\src\netif/slipif.c ****       c = ((u8_t *)q->payload)[i];
 422              		.loc 1 138 0 is_stmt 0 discriminator 1
 423 0056 6B89     		ldrh	r3, [r5, #10]
 424 0058 9C42     		cmp	r4, r3
 425 005a DCD3     		bcc	.L32
 137:Source\LwIP\src\netif/slipif.c ****     for (i = 0; i < q->len; i++) {
 426              		.loc 1 137 0 is_stmt 1 discriminator 2
 427 005c 2D68     		ldr	r5, [r5]
 428              	.LVL54:
 429              	.L27:
 137:Source\LwIP\src\netif/slipif.c ****     for (i = 0; i < q->len; i++) {
 430              		.loc 1 137 0 is_stmt 0 discriminator 1
 431 005e 002D     		cmp	r5, #0
 432 0060 F8D1     		bne	.L34
 164:Source\LwIP\src\netif/slipif.c **** 
 433              		.loc 1 164 0 is_stmt 1
 434 0062 5020     		movs	r0, #80
 435 0064 FFF7FEFF 		bl	Cy_SysLib_DelayUs
 436              	.LVL55:
 167:Source\LwIP\src\netif/slipif.c **** 
 437              		.loc 1 167 0
 438 0068 3168     		ldr	r1, [r6]
 439 006a C020     		movs	r0, #192
 440 006c FFF7FEFF 		bl	sio_send
 441              	.LVL56:
 442              	.LBB8:
 443              	.LBB9:
 749:Generated_Source\PSoC6\pdl\drivers/peripheral/gpio/cy_gpio.h ****     }
 444              		.loc 2 749 0
 445 0070 0122     		movs	r2, #1
 446 0072 024B     		ldr	r3, .L36
 447 0074 5A60     		str	r2, [r3, #4]
 448              	.LVL57:
 449              	.LBE9:
 450              	.LBE8:
 172:Source\LwIP\src\netif/slipif.c **** 
 451              		.loc 1 172 0
 452 0076 0020     		movs	r0, #0
 453              		@ sp needed
 454              	.LVL58:
 455              	.LVL59:
 456 0078 70BD     		pop	{r4, r5, r6, pc}
 457              	.L37:
 458 007a C046     		.align	2
 459              	.L36:
 460 007c 80063240 		.word	1077020288
 461              		.cfi_endproc
 462              	.LFE91:
 463              		.size	slipif_output, .-slipif_output
 464              		.section	.text.slipif_output_v4,"ax",%progbits
 465              		.align	2
 466              		.code	16
ARM GAS  C:\Users\Phuong\AppData\Local\Temp\ccOnRzaD.s 			page 29


 467              		.thumb_func
 468              		.type	slipif_output_v4, %function
 469              	slipif_output_v4:
 470              	.LFB92:
 187:Source\LwIP\src\netif/slipif.c ****   LWIP_UNUSED_ARG(ipaddr);
 471              		.loc 1 187 0
 472              		.cfi_startproc
 473              		@ args = 0, pretend = 0, frame = 0
 474              		@ frame_needed = 0, uses_anonymous_args = 0
 475              	.LVL60:
 476 0000 10B5     		push	{r4, lr}
 477              		.cfi_def_cfa_offset 8
 478              		.cfi_offset 4, -8
 479              		.cfi_offset 14, -4
 189:Source\LwIP\src\netif/slipif.c **** }
 480              		.loc 1 189 0
 481 0002 FFF7FEFF 		bl	slipif_output
 482              	.LVL61:
 190:Source\LwIP\src\netif/slipif.c **** #endif /* LWIP_IPV4 */
 483              		.loc 1 190 0
 484              		@ sp needed
 485 0006 10BD     		pop	{r4, pc}
 486              		.cfi_endproc
 487              	.LFE92:
 488              		.size	slipif_output_v4, .-slipif_output_v4
 489              		.section	.text.slipif_init,"ax",%progbits
 490              		.align	2
 491              		.global	slipif_init
 492              		.code	16
 493              		.thumb_func
 494              		.type	slipif_init, %function
 495              	slipif_init:
 496              	.LFB96:
 353:Source\LwIP\src\netif/slipif.c ****     }
 354:Source\LwIP\src\netif/slipif.c ****   }
 355:Source\LwIP\src\netif/slipif.c **** }
 356:Source\LwIP\src\netif/slipif.c **** #endif /* SLIP_USE_RX_THREAD */
 357:Source\LwIP\src\netif/slipif.c **** 
 358:Source\LwIP\src\netif/slipif.c **** /**
 359:Source\LwIP\src\netif/slipif.c ****  * SLIP netif initialization
 360:Source\LwIP\src\netif/slipif.c ****  *
 361:Source\LwIP\src\netif/slipif.c ****  * Call the arch specific sio_open and remember
 362:Source\LwIP\src\netif/slipif.c ****  * the opened device in the state field of the netif.
 363:Source\LwIP\src\netif/slipif.c ****  *
 364:Source\LwIP\src\netif/slipif.c ****  * @param netif the lwip network interface structure for this slipif
 365:Source\LwIP\src\netif/slipif.c ****  * @return ERR_OK if serial line could be opened,
 366:Source\LwIP\src\netif/slipif.c ****  *         ERR_MEM if no memory could be allocated,
 367:Source\LwIP\src\netif/slipif.c ****  *         ERR_IF is serial line couldn't be opened
 368:Source\LwIP\src\netif/slipif.c ****  *
 369:Source\LwIP\src\netif/slipif.c ****  * @note netif->num must contain the number of the serial port to open
 370:Source\LwIP\src\netif/slipif.c ****  *       (0 by default). If netif->state is != NULL, it is interpreted as an
 371:Source\LwIP\src\netif/slipif.c ****  *       u8_t pointer pointing to the serial port number instead of netif->num.
 372:Source\LwIP\src\netif/slipif.c ****  *
 373:Source\LwIP\src\netif/slipif.c ****  */
 374:Source\LwIP\src\netif/slipif.c **** err_t
 375:Source\LwIP\src\netif/slipif.c **** slipif_init(struct netif *netif)
 376:Source\LwIP\src\netif/slipif.c **** {
ARM GAS  C:\Users\Phuong\AppData\Local\Temp\ccOnRzaD.s 			page 30


 497              		.loc 1 376 0
 498              		.cfi_startproc
 499              		@ args = 0, pretend = 0, frame = 0
 500              		@ frame_needed = 0, uses_anonymous_args = 0
 501              	.LVL62:
 502 0000 30B5     		push	{r4, r5, lr}
 503              		.cfi_def_cfa_offset 12
 504              		.cfi_offset 4, -12
 505              		.cfi_offset 5, -8
 506              		.cfi_offset 14, -4
 507 0002 83B0     		sub	sp, sp, #12
 508              		.cfi_def_cfa_offset 24
 509 0004 0500     		movs	r5, r0
 377:Source\LwIP\src\netif/slipif.c ****   struct slipif_priv *priv;
 378:Source\LwIP\src\netif/slipif.c ****   u8_t sio_num;
 379:Source\LwIP\src\netif/slipif.c **** 
 380:Source\LwIP\src\netif/slipif.c ****   LWIP_DEBUGF(SLIP_DEBUG, ("slipif_init: netif->num=%"U16_F"\n", (u16_t)netif->num));
 381:Source\LwIP\src\netif/slipif.c **** 
 382:Source\LwIP\src\netif/slipif.c ****   /* Allocate private data */
 383:Source\LwIP\src\netif/slipif.c ****   priv = (struct slipif_priv *)mem_malloc(sizeof(struct slipif_priv));
 510              		.loc 1 383 0
 511 0006 1420     		movs	r0, #20
 512              	.LVL63:
 513 0008 FFF7FEFF 		bl	mem_malloc
 514              	.LVL64:
 515 000c 041E     		subs	r4, r0, #0
 516              	.LVL65:
 384:Source\LwIP\src\netif/slipif.c ****   if (!priv) {
 517              		.loc 1 384 0
 518 000e 2DD0     		beq	.L44
 385:Source\LwIP\src\netif/slipif.c ****     return ERR_MEM;
 386:Source\LwIP\src\netif/slipif.c ****   }
 387:Source\LwIP\src\netif/slipif.c **** 
 388:Source\LwIP\src\netif/slipif.c ****   netif->name[0] = 's';
 519              		.loc 1 388 0
 520 0010 7322     		movs	r2, #115
 521 0012 3E23     		movs	r3, #62
 522 0014 EA54     		strb	r2, [r5, r3]
 389:Source\LwIP\src\netif/slipif.c ****   netif->name[1] = 'l';
 523              		.loc 1 389 0
 524 0016 073A     		subs	r2, r2, #7
 525 0018 0133     		adds	r3, r3, #1
 526 001a EA54     		strb	r2, [r5, r3]
 390:Source\LwIP\src\netif/slipif.c **** #if LWIP_IPV4
 391:Source\LwIP\src\netif/slipif.c ****   netif->output = slipif_output_v4;
 527              		.loc 1 391 0
 528 001c 154B     		ldr	r3, .L45
 529 001e 6B61     		str	r3, [r5, #20]
 392:Source\LwIP\src\netif/slipif.c **** #endif /* LWIP_IPV4 */
 393:Source\LwIP\src\netif/slipif.c **** #if LWIP_IPV6
 394:Source\LwIP\src\netif/slipif.c ****   netif->output_ip6 = slipif_output_v6;
 395:Source\LwIP\src\netif/slipif.c **** #endif /* LWIP_IPV6 */
 396:Source\LwIP\src\netif/slipif.c ****   netif->mtu = SLIP_MAX_SIZE;
 530              		.loc 1 396 0
 531 0020 154B     		ldr	r3, .L45+4
 532 0022 AB86     		strh	r3, [r5, #52]
 397:Source\LwIP\src\netif/slipif.c **** 
ARM GAS  C:\Users\Phuong\AppData\Local\Temp\ccOnRzaD.s 			page 31


 398:Source\LwIP\src\netif/slipif.c ****   /* netif->state or netif->num contain the port number */
 399:Source\LwIP\src\netif/slipif.c ****   if (netif->state != NULL) {
 533              		.loc 1 399 0
 534 0024 2B6A     		ldr	r3, [r5, #32]
 535 0026 002B     		cmp	r3, #0
 536 0028 01D0     		beq	.L41
 400:Source\LwIP\src\netif/slipif.c ****     sio_num = *(u8_t*)netif->state;
 537              		.loc 1 400 0
 538 002a 1878     		ldrb	r0, [r3]
 539              	.LVL66:
 540 002c 01E0     		b	.L42
 541              	.LVL67:
 542              	.L41:
 401:Source\LwIP\src\netif/slipif.c ****   } else {
 402:Source\LwIP\src\netif/slipif.c ****     sio_num = netif->num;
 543              		.loc 1 402 0
 544 002e 4023     		movs	r3, #64
 545 0030 E85C     		ldrb	r0, [r5, r3]
 546              	.LVL68:
 547              	.L42:
 403:Source\LwIP\src\netif/slipif.c ****   }
 404:Source\LwIP\src\netif/slipif.c ****   /* Try to open the serial port. */
 405:Source\LwIP\src\netif/slipif.c ****   priv->sd = sio_open(sio_num);
 548              		.loc 1 405 0
 549 0032 FFF7FEFF 		bl	sio_open
 550              	.LVL69:
 551 0036 2060     		str	r0, [r4]
 406:Source\LwIP\src\netif/slipif.c ****   if (!priv->sd) {
 552              		.loc 1 406 0
 553 0038 0028     		cmp	r0, #0
 554 003a 05D1     		bne	.L43
 407:Source\LwIP\src\netif/slipif.c ****     /* Opening the serial port failed. */
 408:Source\LwIP\src\netif/slipif.c ****     mem_free(priv);
 555              		.loc 1 408 0
 556 003c 2000     		movs	r0, r4
 557 003e FFF7FEFF 		bl	mem_free
 558              	.LVL70:
 409:Source\LwIP\src\netif/slipif.c ****     return ERR_IF;
 559              		.loc 1 409 0
 560 0042 0C20     		movs	r0, #12
 561 0044 4042     		rsbs	r0, r0, #0
 562 0046 13E0     		b	.L40
 563              	.L43:
 410:Source\LwIP\src\netif/slipif.c ****   }
 411:Source\LwIP\src\netif/slipif.c **** 
 412:Source\LwIP\src\netif/slipif.c ****   /* Initialize private data */
 413:Source\LwIP\src\netif/slipif.c ****   priv->p = NULL;
 564              		.loc 1 413 0
 565 0048 0023     		movs	r3, #0
 566 004a 6360     		str	r3, [r4, #4]
 414:Source\LwIP\src\netif/slipif.c ****   priv->q = NULL;
 567              		.loc 1 414 0
 568 004c A360     		str	r3, [r4, #8]
 415:Source\LwIP\src\netif/slipif.c ****   priv->state = SLIP_RECV_NORMAL;
 569              		.loc 1 415 0
 570 004e 2373     		strb	r3, [r4, #12]
 416:Source\LwIP\src\netif/slipif.c ****   priv->i = 0;
ARM GAS  C:\Users\Phuong\AppData\Local\Temp\ccOnRzaD.s 			page 32


 571              		.loc 1 416 0
 572 0050 E381     		strh	r3, [r4, #14]
 417:Source\LwIP\src\netif/slipif.c ****   priv->recved = 0;
 573              		.loc 1 417 0
 574 0052 2382     		strh	r3, [r4, #16]
 418:Source\LwIP\src\netif/slipif.c **** #if SLIP_RX_FROM_ISR
 419:Source\LwIP\src\netif/slipif.c ****   priv->rxpackets = NULL;
 420:Source\LwIP\src\netif/slipif.c **** #endif
 421:Source\LwIP\src\netif/slipif.c **** 
 422:Source\LwIP\src\netif/slipif.c ****   netif->state = priv;
 575              		.loc 1 422 0
 576 0054 2C62     		str	r4, [r5, #32]
 423:Source\LwIP\src\netif/slipif.c **** 
 424:Source\LwIP\src\netif/slipif.c ****   /* initialize the snmp variables and counters inside the struct netif */
 425:Source\LwIP\src\netif/slipif.c ****   MIB2_INIT_NETIF(netif, snmp_ifType_slip, SLIP_SIO_SPEED(priv->sd));
 426:Source\LwIP\src\netif/slipif.c **** 
 427:Source\LwIP\src\netif/slipif.c **** #if SLIP_USE_RX_THREAD
 428:Source\LwIP\src\netif/slipif.c ****   /* Create a thread to poll the serial line. */
 429:Source\LwIP\src\netif/slipif.c ****   sys_thread_new(SLIPIF_THREAD_NAME, slipif_loop_thread, netif,
 577              		.loc 1 429 0
 578 0056 0133     		adds	r3, r3, #1
 579 0058 0093     		str	r3, [sp]
 580 005a 8023     		movs	r3, #128
 581 005c 1B01     		lsls	r3, r3, #4
 582 005e 2A00     		movs	r2, r5
 583 0060 0649     		ldr	r1, .L45+8
 584 0062 0748     		ldr	r0, .L45+12
 585 0064 FFF7FEFF 		bl	sys_thread_new
 586              	.LVL71:
 430:Source\LwIP\src\netif/slipif.c ****     SLIPIF_THREAD_STACKSIZE, SLIPIF_THREAD_PRIO);
 431:Source\LwIP\src\netif/slipif.c **** #endif /* SLIP_USE_RX_THREAD */
 432:Source\LwIP\src\netif/slipif.c ****   return ERR_OK;
 587              		.loc 1 432 0
 588 0068 0020     		movs	r0, #0
 589 006a 01E0     		b	.L40
 590              	.LVL72:
 591              	.L44:
 385:Source\LwIP\src\netif/slipif.c ****   }
 592              		.loc 1 385 0
 593 006c 0120     		movs	r0, #1
 594              	.LVL73:
 595 006e 4042     		rsbs	r0, r0, #0
 596              	.L40:
 433:Source\LwIP\src\netif/slipif.c **** }
 597              		.loc 1 433 0
 598 0070 03B0     		add	sp, sp, #12
 599              		@ sp needed
 600              	.LVL74:
 601              	.LVL75:
 602 0072 30BD     		pop	{r4, r5, pc}
 603              	.L46:
 604              		.align	2
 605              	.L45:
 606 0074 00000000 		.word	slipif_output_v4
 607 0078 DC050000 		.word	1500
 608 007c 00000000 		.word	slipif_loop_thread
 609 0080 00000000 		.word	.LC3
ARM GAS  C:\Users\Phuong\AppData\Local\Temp\ccOnRzaD.s 			page 33


 610              		.cfi_endproc
 611              	.LFE96:
 612              		.size	slipif_init, .-slipif_init
 613              		.section	.text.slipif_poll,"ax",%progbits
 614              		.align	2
 615              		.global	slipif_poll
 616              		.code	16
 617              		.thumb_func
 618              		.type	slipif_poll, %function
 619              	slipif_poll:
 620              	.LFB97:
 434:Source\LwIP\src\netif/slipif.c **** 
 435:Source\LwIP\src\netif/slipif.c **** /**
 436:Source\LwIP\src\netif/slipif.c ****  * Polls the serial device and feeds the IP layer with incoming packets.
 437:Source\LwIP\src\netif/slipif.c ****  *
 438:Source\LwIP\src\netif/slipif.c ****  * @param netif The lwip network interface structure for this slipif
 439:Source\LwIP\src\netif/slipif.c ****  */
 440:Source\LwIP\src\netif/slipif.c **** void
 441:Source\LwIP\src\netif/slipif.c **** slipif_poll(struct netif *netif)
 442:Source\LwIP\src\netif/slipif.c **** {
 621              		.loc 1 442 0
 622              		.cfi_startproc
 623              		@ args = 0, pretend = 0, frame = 8
 624              		@ frame_needed = 0, uses_anonymous_args = 0
 625              	.LVL76:
 626 0000 30B5     		push	{r4, r5, lr}
 627              		.cfi_def_cfa_offset 12
 628              		.cfi_offset 4, -12
 629              		.cfi_offset 5, -8
 630              		.cfi_offset 14, -4
 631 0002 83B0     		sub	sp, sp, #12
 632              		.cfi_def_cfa_offset 24
 633 0004 0400     		movs	r4, r0
 443:Source\LwIP\src\netif/slipif.c ****   u8_t c;
 444:Source\LwIP\src\netif/slipif.c ****   struct slipif_priv *priv;
 445:Source\LwIP\src\netif/slipif.c **** 
 446:Source\LwIP\src\netif/slipif.c ****   LWIP_ASSERT("netif != NULL", (netif != NULL));
 447:Source\LwIP\src\netif/slipif.c ****   LWIP_ASSERT("netif->state != NULL", (netif->state != NULL));
 448:Source\LwIP\src\netif/slipif.c **** 
 449:Source\LwIP\src\netif/slipif.c ****   priv = (struct slipif_priv *)netif->state;
 634              		.loc 1 449 0
 635 0006 056A     		ldr	r5, [r0, #32]
 636              	.LVL77:
 450:Source\LwIP\src\netif/slipif.c **** 
 451:Source\LwIP\src\netif/slipif.c ****   while (sio_tryread(priv->sd, &c, 1) > 0) {
 637              		.loc 1 451 0
 638 0008 04E0     		b	.L48
 639              	.LVL78:
 640              	.L49:
 452:Source\LwIP\src\netif/slipif.c ****     slipif_rxbyte_input(netif, c);
 641              		.loc 1 452 0
 642 000a 6B46     		mov	r3, sp
 643 000c D979     		ldrb	r1, [r3, #7]
 644 000e 2000     		movs	r0, r4
 645 0010 FFF7FEFF 		bl	slipif_rxbyte_input
 646              	.LVL79:
 647              	.L48:
ARM GAS  C:\Users\Phuong\AppData\Local\Temp\ccOnRzaD.s 			page 34


 451:Source\LwIP\src\netif/slipif.c ****     slipif_rxbyte_input(netif, c);
 648              		.loc 1 451 0
 649 0014 0122     		movs	r2, #1
 650 0016 6B46     		mov	r3, sp
 651 0018 D91D     		adds	r1, r3, #7
 652 001a 2868     		ldr	r0, [r5]
 653 001c FFF7FEFF 		bl	sio_tryread
 654              	.LVL80:
 655 0020 0028     		cmp	r0, #0
 656 0022 F2D1     		bne	.L49
 453:Source\LwIP\src\netif/slipif.c ****   }
 454:Source\LwIP\src\netif/slipif.c **** }
 657              		.loc 1 454 0
 658 0024 03B0     		add	sp, sp, #12
 659              		@ sp needed
 660              	.LVL81:
 661              	.LVL82:
 662 0026 30BD     		pop	{r4, r5, pc}
 663              		.cfi_endproc
 664              	.LFE97:
 665              		.size	slipif_poll, .-slipif_poll
 666              		.section	.rodata.str1.4,"aMS",%progbits,1
 667              		.align	2
 668              	.LC3:
 669 0000 736C6970 		.ascii	"slipif_loop\000"
 669      69665F6C 
 669      6F6F7000 
 670              		.text
 671              	.Letext0:
 672              		.file 3 "c:\\program files (x86)\\cypress\\psoc creator\\4.2\\psoc creator\\import\\gnu\\arm\\5.4.
 673              		.file 4 "c:\\program files (x86)\\cypress\\psoc creator\\4.2\\psoc creator\\import\\gnu\\arm\\5.4.
 674              		.file 5 "c:\\program files (x86)\\cypress\\psoc creator\\4.2\\psoc creator\\import\\gnu\\arm\\5.4.
 675              		.file 6 "Generated_Source\\PSoC6\\pdl\\devices/psoc6/ip/cyip_gpio.h"
 676              		.file 7 "Generated_Source\\PSoC6\\pdl\\drivers/peripheral/syslib/cy_syslib.h"
 677              		.file 8 ".\\Source\\LwIP\\src\\include/arch/cc.h"
 678              		.file 9 ".\\Source\\LwIP\\src\\include/lwip/err.h"
 679              		.file 10 ".\\Source\\LwIP\\src\\include/lwip/ip4_addr.h"
 680              		.file 11 ".\\Source\\LwIP\\src\\include/lwip/ip_addr.h"
 681              		.file 12 ".\\Source\\LwIP\\src\\include/lwip/pbuf.h"
 682              		.file 13 ".\\Source\\LwIP\\src\\include/lwip/mem.h"
 683              		.file 14 ".\\Source\\LwIP\\src\\include/lwip/stats.h"
 684              		.file 15 ".\\Source\\LwIP\\src\\include/lwip/netif.h"
 685              		.file 16 ".\\Source\\LwIP\\src\\include/lwip/sio.h"
 686              		.file 17 ".\\Source\\LwIP\\src\\include/lwip/sys.h"