ARM GAS  C:\Users\Phuong\AppData\Local\Temp\ccjRxQwq.s 			page 1


   1              		.syntax unified
   2              		.cpu cortex-m0plus
   3              		.fpu softvfp
   4              		.eabi_attribute 20, 1
   5              		.eabi_attribute 21, 1
   6              		.eabi_attribute 23, 3
   7              		.eabi_attribute 24, 1
   8              		.eabi_attribute 25, 1
   9              		.eabi_attribute 26, 1
  10              		.eabi_attribute 30, 1
  11              		.eabi_attribute 34, 0
  12              		.eabi_attribute 18, 4
  13              		.thumb
  14              		.syntax unified
  15              		.file	"socketio_mbed.c"
  16              		.text
  17              	.Ltext0:
  18              		.cfi_sections	.debug_frame
  19              		.section	.text.socketio_CloneOption,"ax",%progbits
  20              		.align	2
  21              		.code	16
  22              		.thumb_func
  23              		.type	socketio_CloneOption, %function
  24              	socketio_CloneOption:
  25              	.LFB1:
  26              		.file 1 "Source\\azure_iot_sdk\\c-utility\\adapters\\socketio_mbed.c"
   1:Source\azure_iot_sdk\c-utility\adapters/socketio_mbed.c **** // Copyright (c) Microsoft. All rights reserved.
   2:Source\azure_iot_sdk\c-utility\adapters/socketio_mbed.c **** // Licensed under the MIT license. See LICENSE file in the project root for full license informatio
   3:Source\azure_iot_sdk\c-utility\adapters/socketio_mbed.c **** 
   4:Source\azure_iot_sdk\c-utility\adapters/socketio_mbed.c **** #include <stdlib.h>
   5:Source\azure_iot_sdk\c-utility\adapters/socketio_mbed.c **** #include <stddef.h>
   6:Source\azure_iot_sdk\c-utility\adapters/socketio_mbed.c **** #include <stdio.h>
   7:Source\azure_iot_sdk\c-utility\adapters/socketio_mbed.c **** #include <string.h>
   8:Source\azure_iot_sdk\c-utility\adapters/socketio_mbed.c **** #include "azure_c_shared_utility/socketio.h"
   9:Source\azure_iot_sdk\c-utility\adapters/socketio_mbed.c **** #include "azure_c_shared_utility/singlylinkedlist.h"
  10:Source\azure_iot_sdk\c-utility\adapters/socketio_mbed.c **** #include "azure_c_shared_utility/tcpsocketconnection_c.h"
  11:Source\azure_iot_sdk\c-utility\adapters/socketio_mbed.c **** #include "azure_c_shared_utility/optimize_size.h"
  12:Source\azure_iot_sdk\c-utility\adapters/socketio_mbed.c **** #include "azure_c_shared_utility/xlogging.h"
  13:Source\azure_iot_sdk\c-utility\adapters/socketio_mbed.c **** 
  14:Source\azure_iot_sdk\c-utility\adapters/socketio_mbed.c **** #define UNABLE_TO_COMPLETE -2
  15:Source\azure_iot_sdk\c-utility\adapters/socketio_mbed.c **** #define MBED_RECEIVE_BYTES_VALUE    128
  16:Source\azure_iot_sdk\c-utility\adapters/socketio_mbed.c **** 
  17:Source\azure_iot_sdk\c-utility\adapters/socketio_mbed.c **** typedef enum IO_STATE_TAG
  18:Source\azure_iot_sdk\c-utility\adapters/socketio_mbed.c **** {
  19:Source\azure_iot_sdk\c-utility\adapters/socketio_mbed.c ****     IO_STATE_CLOSED,
  20:Source\azure_iot_sdk\c-utility\adapters/socketio_mbed.c ****     IO_STATE_OPENING,
  21:Source\azure_iot_sdk\c-utility\adapters/socketio_mbed.c ****     IO_STATE_OPEN,
  22:Source\azure_iot_sdk\c-utility\adapters/socketio_mbed.c ****     IO_STATE_CLOSING,
  23:Source\azure_iot_sdk\c-utility\adapters/socketio_mbed.c ****     IO_STATE_ERROR
  24:Source\azure_iot_sdk\c-utility\adapters/socketio_mbed.c **** } IO_STATE;
  25:Source\azure_iot_sdk\c-utility\adapters/socketio_mbed.c **** 
  26:Source\azure_iot_sdk\c-utility\adapters/socketio_mbed.c **** typedef struct PENDING_SOCKET_IO_TAG
  27:Source\azure_iot_sdk\c-utility\adapters/socketio_mbed.c **** {
  28:Source\azure_iot_sdk\c-utility\adapters/socketio_mbed.c ****     unsigned char* bytes;
  29:Source\azure_iot_sdk\c-utility\adapters/socketio_mbed.c ****     size_t size;
  30:Source\azure_iot_sdk\c-utility\adapters/socketio_mbed.c ****     ON_SEND_COMPLETE on_send_complete;
  31:Source\azure_iot_sdk\c-utility\adapters/socketio_mbed.c ****     void* callback_context;
ARM GAS  C:\Users\Phuong\AppData\Local\Temp\ccjRxQwq.s 			page 2


  32:Source\azure_iot_sdk\c-utility\adapters/socketio_mbed.c ****     SINGLYLINKEDLIST_HANDLE pending_io_list;
  33:Source\azure_iot_sdk\c-utility\adapters/socketio_mbed.c **** } PENDING_SOCKET_IO;
  34:Source\azure_iot_sdk\c-utility\adapters/socketio_mbed.c **** 
  35:Source\azure_iot_sdk\c-utility\adapters/socketio_mbed.c **** typedef struct SOCKET_IO_INSTANCE_TAG
  36:Source\azure_iot_sdk\c-utility\adapters/socketio_mbed.c **** {
  37:Source\azure_iot_sdk\c-utility\adapters/socketio_mbed.c ****     TCPSOCKETCONNECTION_HANDLE tcp_socket_connection;
  38:Source\azure_iot_sdk\c-utility\adapters/socketio_mbed.c ****     ON_BYTES_RECEIVED on_bytes_received;
  39:Source\azure_iot_sdk\c-utility\adapters/socketio_mbed.c ****     ON_IO_ERROR on_io_error;
  40:Source\azure_iot_sdk\c-utility\adapters/socketio_mbed.c ****     void* on_bytes_received_context;
  41:Source\azure_iot_sdk\c-utility\adapters/socketio_mbed.c ****     void* on_io_error_context;
  42:Source\azure_iot_sdk\c-utility\adapters/socketio_mbed.c ****     char* hostname;
  43:Source\azure_iot_sdk\c-utility\adapters/socketio_mbed.c ****     int port;
  44:Source\azure_iot_sdk\c-utility\adapters/socketio_mbed.c ****     IO_STATE io_state;
  45:Source\azure_iot_sdk\c-utility\adapters/socketio_mbed.c ****     SINGLYLINKEDLIST_HANDLE pending_io_list;
  46:Source\azure_iot_sdk\c-utility\adapters/socketio_mbed.c **** } SOCKET_IO_INSTANCE;
  47:Source\azure_iot_sdk\c-utility\adapters/socketio_mbed.c **** 
  48:Source\azure_iot_sdk\c-utility\adapters/socketio_mbed.c **** /*this function will clone an option given by name and value*/
  49:Source\azure_iot_sdk\c-utility\adapters/socketio_mbed.c **** static void* socketio_CloneOption(const char* name, const void* value)
  50:Source\azure_iot_sdk\c-utility\adapters/socketio_mbed.c **** {
  27              		.loc 1 50 0
  28              		.cfi_startproc
  29              		@ args = 0, pretend = 0, frame = 0
  30              		@ frame_needed = 0, uses_anonymous_args = 0
  31              		@ link register save eliminated.
  32              	.LVL0:
  51:Source\azure_iot_sdk\c-utility\adapters/socketio_mbed.c ****     (void)name;
  52:Source\azure_iot_sdk\c-utility\adapters/socketio_mbed.c ****     (void)value;
  53:Source\azure_iot_sdk\c-utility\adapters/socketio_mbed.c ****     return NULL;
  54:Source\azure_iot_sdk\c-utility\adapters/socketio_mbed.c **** }
  33              		.loc 1 54 0
  34 0000 0020     		movs	r0, #0
  35              	.LVL1:
  36              		@ sp needed
  37 0002 7047     		bx	lr
  38              		.cfi_endproc
  39              	.LFE1:
  40              		.size	socketio_CloneOption, .-socketio_CloneOption
  41              		.section	.text.socketio_DestroyOption,"ax",%progbits
  42              		.align	2
  43              		.code	16
  44              		.thumb_func
  45              		.type	socketio_DestroyOption, %function
  46              	socketio_DestroyOption:
  47              	.LFB2:
  55:Source\azure_iot_sdk\c-utility\adapters/socketio_mbed.c **** 
  56:Source\azure_iot_sdk\c-utility\adapters/socketio_mbed.c **** /*this function destroys an option previously created*/
  57:Source\azure_iot_sdk\c-utility\adapters/socketio_mbed.c **** static void socketio_DestroyOption(const char* name, const void* value)
  58:Source\azure_iot_sdk\c-utility\adapters/socketio_mbed.c **** {
  48              		.loc 1 58 0
  49              		.cfi_startproc
  50              		@ args = 0, pretend = 0, frame = 0
  51              		@ frame_needed = 0, uses_anonymous_args = 0
  52              		@ link register save eliminated.
  53              	.LVL2:
  59:Source\azure_iot_sdk\c-utility\adapters/socketio_mbed.c ****     (void)name;
  60:Source\azure_iot_sdk\c-utility\adapters/socketio_mbed.c ****     (void)value;
  61:Source\azure_iot_sdk\c-utility\adapters/socketio_mbed.c **** }
ARM GAS  C:\Users\Phuong\AppData\Local\Temp\ccjRxQwq.s 			page 3


  54              		.loc 1 61 0
  55              		@ sp needed
  56 0000 7047     		bx	lr
  57              		.cfi_endproc
  58              	.LFE2:
  59              		.size	socketio_DestroyOption, .-socketio_DestroyOption
  60 0002 C046     		.section	.text.indicate_error,"ax",%progbits
  61              		.align	2
  62              		.code	16
  63              		.thumb_func
  64              		.type	indicate_error, %function
  65              	indicate_error:
  66              	.LFB4:
  62:Source\azure_iot_sdk\c-utility\adapters/socketio_mbed.c **** 
  63:Source\azure_iot_sdk\c-utility\adapters/socketio_mbed.c **** static OPTIONHANDLER_HANDLE socketio_retrieveoptions(CONCRETE_IO_HANDLE socket_io)
  64:Source\azure_iot_sdk\c-utility\adapters/socketio_mbed.c **** {
  65:Source\azure_iot_sdk\c-utility\adapters/socketio_mbed.c ****     OPTIONHANDLER_HANDLE result;
  66:Source\azure_iot_sdk\c-utility\adapters/socketio_mbed.c ****     (void)socket_io;
  67:Source\azure_iot_sdk\c-utility\adapters/socketio_mbed.c ****     result = OptionHandler_Create(socketio_CloneOption, socketio_DestroyOption, socketio_setoption)
  68:Source\azure_iot_sdk\c-utility\adapters/socketio_mbed.c ****     if (result == NULL)
  69:Source\azure_iot_sdk\c-utility\adapters/socketio_mbed.c ****     {
  70:Source\azure_iot_sdk\c-utility\adapters/socketio_mbed.c ****         /*return as is*/
  71:Source\azure_iot_sdk\c-utility\adapters/socketio_mbed.c ****     }
  72:Source\azure_iot_sdk\c-utility\adapters/socketio_mbed.c ****     else
  73:Source\azure_iot_sdk\c-utility\adapters/socketio_mbed.c ****     {
  74:Source\azure_iot_sdk\c-utility\adapters/socketio_mbed.c ****         /*insert here work to add the options to "result" handle*/
  75:Source\azure_iot_sdk\c-utility\adapters/socketio_mbed.c ****     }
  76:Source\azure_iot_sdk\c-utility\adapters/socketio_mbed.c ****     return result;
  77:Source\azure_iot_sdk\c-utility\adapters/socketio_mbed.c **** }
  78:Source\azure_iot_sdk\c-utility\adapters/socketio_mbed.c **** 
  79:Source\azure_iot_sdk\c-utility\adapters/socketio_mbed.c **** static const IO_INTERFACE_DESCRIPTION socket_io_interface_description =
  80:Source\azure_iot_sdk\c-utility\adapters/socketio_mbed.c **** {
  81:Source\azure_iot_sdk\c-utility\adapters/socketio_mbed.c ****     socketio_retrieveoptions,
  82:Source\azure_iot_sdk\c-utility\adapters/socketio_mbed.c ****     socketio_create,
  83:Source\azure_iot_sdk\c-utility\adapters/socketio_mbed.c ****     socketio_destroy,
  84:Source\azure_iot_sdk\c-utility\adapters/socketio_mbed.c ****     socketio_open,
  85:Source\azure_iot_sdk\c-utility\adapters/socketio_mbed.c ****     socketio_close,
  86:Source\azure_iot_sdk\c-utility\adapters/socketio_mbed.c ****     socketio_send,
  87:Source\azure_iot_sdk\c-utility\adapters/socketio_mbed.c ****     socketio_dowork,
  88:Source\azure_iot_sdk\c-utility\adapters/socketio_mbed.c ****     socketio_setoption
  89:Source\azure_iot_sdk\c-utility\adapters/socketio_mbed.c **** };
  90:Source\azure_iot_sdk\c-utility\adapters/socketio_mbed.c **** 
  91:Source\azure_iot_sdk\c-utility\adapters/socketio_mbed.c **** static void indicate_error(SOCKET_IO_INSTANCE* socket_io_instance)
  92:Source\azure_iot_sdk\c-utility\adapters/socketio_mbed.c **** {
  67              		.loc 1 92 0
  68              		.cfi_startproc
  69              		@ args = 0, pretend = 0, frame = 0
  70              		@ frame_needed = 0, uses_anonymous_args = 0
  71              	.LVL3:
  72 0000 10B5     		push	{r4, lr}
  73              		.cfi_def_cfa_offset 8
  74              		.cfi_offset 4, -8
  75              		.cfi_offset 14, -4
  93:Source\azure_iot_sdk\c-utility\adapters/socketio_mbed.c ****     if (socket_io_instance->on_io_error != NULL)
  76              		.loc 1 93 0
  77 0002 8368     		ldr	r3, [r0, #8]
  78 0004 002B     		cmp	r3, #0
ARM GAS  C:\Users\Phuong\AppData\Local\Temp\ccjRxQwq.s 			page 4


  79 0006 01D0     		beq	.L3
  94:Source\azure_iot_sdk\c-utility\adapters/socketio_mbed.c ****     {
  95:Source\azure_iot_sdk\c-utility\adapters/socketio_mbed.c ****         socket_io_instance->on_io_error(socket_io_instance->on_io_error_context);
  80              		.loc 1 95 0
  81 0008 0069     		ldr	r0, [r0, #16]
  82              	.LVL4:
  83 000a 9847     		blx	r3
  84              	.LVL5:
  85              	.L3:
  96:Source\azure_iot_sdk\c-utility\adapters/socketio_mbed.c ****     }
  97:Source\azure_iot_sdk\c-utility\adapters/socketio_mbed.c **** }
  86              		.loc 1 97 0
  87              		@ sp needed
  88 000c 10BD     		pop	{r4, pc}
  89              		.cfi_endproc
  90              	.LFE4:
  91              		.size	indicate_error, .-indicate_error
  92 000e C046     		.section	.text.socketio_setoption,"ax",%progbits
  93              		.align	2
  94              		.global	socketio_setoption
  95              		.code	16
  96              		.thumb_func
  97              		.type	socketio_setoption, %function
  98              	socketio_setoption:
  99              	.LFB12:
  98:Source\azure_iot_sdk\c-utility\adapters/socketio_mbed.c **** 
  99:Source\azure_iot_sdk\c-utility\adapters/socketio_mbed.c **** static int add_pending_io(SOCKET_IO_INSTANCE* socket_io_instance, const unsigned char* buffer, size
 100:Source\azure_iot_sdk\c-utility\adapters/socketio_mbed.c **** {
 101:Source\azure_iot_sdk\c-utility\adapters/socketio_mbed.c ****     int result;
 102:Source\azure_iot_sdk\c-utility\adapters/socketio_mbed.c ****     PENDING_SOCKET_IO* pending_socket_io = (PENDING_SOCKET_IO*)malloc(sizeof(PENDING_SOCKET_IO));
 103:Source\azure_iot_sdk\c-utility\adapters/socketio_mbed.c ****     if (pending_socket_io == NULL)
 104:Source\azure_iot_sdk\c-utility\adapters/socketio_mbed.c ****     {
 105:Source\azure_iot_sdk\c-utility\adapters/socketio_mbed.c ****         result = __FAILURE__;
 106:Source\azure_iot_sdk\c-utility\adapters/socketio_mbed.c ****     }
 107:Source\azure_iot_sdk\c-utility\adapters/socketio_mbed.c ****     else
 108:Source\azure_iot_sdk\c-utility\adapters/socketio_mbed.c ****     {
 109:Source\azure_iot_sdk\c-utility\adapters/socketio_mbed.c ****         pending_socket_io->bytes = (unsigned char*)malloc(size);
 110:Source\azure_iot_sdk\c-utility\adapters/socketio_mbed.c ****         if (pending_socket_io->bytes == NULL)
 111:Source\azure_iot_sdk\c-utility\adapters/socketio_mbed.c ****         {
 112:Source\azure_iot_sdk\c-utility\adapters/socketio_mbed.c ****             free(pending_socket_io);
 113:Source\azure_iot_sdk\c-utility\adapters/socketio_mbed.c ****             result = __FAILURE__;
 114:Source\azure_iot_sdk\c-utility\adapters/socketio_mbed.c ****         }
 115:Source\azure_iot_sdk\c-utility\adapters/socketio_mbed.c ****         else
 116:Source\azure_iot_sdk\c-utility\adapters/socketio_mbed.c ****         {
 117:Source\azure_iot_sdk\c-utility\adapters/socketio_mbed.c ****             pending_socket_io->size = size;
 118:Source\azure_iot_sdk\c-utility\adapters/socketio_mbed.c ****             pending_socket_io->on_send_complete = on_send_complete;
 119:Source\azure_iot_sdk\c-utility\adapters/socketio_mbed.c ****             pending_socket_io->callback_context = callback_context;
 120:Source\azure_iot_sdk\c-utility\adapters/socketio_mbed.c ****             pending_socket_io->pending_io_list = socket_io_instance->pending_io_list;
 121:Source\azure_iot_sdk\c-utility\adapters/socketio_mbed.c ****             (void)memcpy(pending_socket_io->bytes, buffer, size);
 122:Source\azure_iot_sdk\c-utility\adapters/socketio_mbed.c **** 
 123:Source\azure_iot_sdk\c-utility\adapters/socketio_mbed.c ****             if (singlylinkedlist_add(socket_io_instance->pending_io_list, pending_socket_io) == NUL
 124:Source\azure_iot_sdk\c-utility\adapters/socketio_mbed.c ****             {
 125:Source\azure_iot_sdk\c-utility\adapters/socketio_mbed.c ****                 free(pending_socket_io->bytes);
 126:Source\azure_iot_sdk\c-utility\adapters/socketio_mbed.c ****                 free(pending_socket_io);
 127:Source\azure_iot_sdk\c-utility\adapters/socketio_mbed.c ****                 result = __FAILURE__;
 128:Source\azure_iot_sdk\c-utility\adapters/socketio_mbed.c ****             }
 129:Source\azure_iot_sdk\c-utility\adapters/socketio_mbed.c ****             else
ARM GAS  C:\Users\Phuong\AppData\Local\Temp\ccjRxQwq.s 			page 5


 130:Source\azure_iot_sdk\c-utility\adapters/socketio_mbed.c ****             {
 131:Source\azure_iot_sdk\c-utility\adapters/socketio_mbed.c ****                 result = 0;
 132:Source\azure_iot_sdk\c-utility\adapters/socketio_mbed.c ****             }
 133:Source\azure_iot_sdk\c-utility\adapters/socketio_mbed.c ****         }
 134:Source\azure_iot_sdk\c-utility\adapters/socketio_mbed.c ****     }
 135:Source\azure_iot_sdk\c-utility\adapters/socketio_mbed.c **** 
 136:Source\azure_iot_sdk\c-utility\adapters/socketio_mbed.c ****     return result;
 137:Source\azure_iot_sdk\c-utility\adapters/socketio_mbed.c **** }
 138:Source\azure_iot_sdk\c-utility\adapters/socketio_mbed.c **** 
 139:Source\azure_iot_sdk\c-utility\adapters/socketio_mbed.c **** CONCRETE_IO_HANDLE socketio_create(void* io_create_parameters)
 140:Source\azure_iot_sdk\c-utility\adapters/socketio_mbed.c **** {
 141:Source\azure_iot_sdk\c-utility\adapters/socketio_mbed.c ****     SOCKETIO_CONFIG* socket_io_config = io_create_parameters;
 142:Source\azure_iot_sdk\c-utility\adapters/socketio_mbed.c ****     SOCKET_IO_INSTANCE* result;
 143:Source\azure_iot_sdk\c-utility\adapters/socketio_mbed.c **** 
 144:Source\azure_iot_sdk\c-utility\adapters/socketio_mbed.c ****     if (socket_io_config == NULL)
 145:Source\azure_iot_sdk\c-utility\adapters/socketio_mbed.c ****     {
 146:Source\azure_iot_sdk\c-utility\adapters/socketio_mbed.c ****         result = NULL;
 147:Source\azure_iot_sdk\c-utility\adapters/socketio_mbed.c ****     }
 148:Source\azure_iot_sdk\c-utility\adapters/socketio_mbed.c ****     else
 149:Source\azure_iot_sdk\c-utility\adapters/socketio_mbed.c ****     {
 150:Source\azure_iot_sdk\c-utility\adapters/socketio_mbed.c ****         result = malloc(sizeof(SOCKET_IO_INSTANCE));
 151:Source\azure_iot_sdk\c-utility\adapters/socketio_mbed.c ****         if (result != NULL)
 152:Source\azure_iot_sdk\c-utility\adapters/socketio_mbed.c ****         {
 153:Source\azure_iot_sdk\c-utility\adapters/socketio_mbed.c ****             result->pending_io_list = singlylinkedlist_create();
 154:Source\azure_iot_sdk\c-utility\adapters/socketio_mbed.c ****             if (result->pending_io_list == NULL)
 155:Source\azure_iot_sdk\c-utility\adapters/socketio_mbed.c ****             {
 156:Source\azure_iot_sdk\c-utility\adapters/socketio_mbed.c ****                 free(result);
 157:Source\azure_iot_sdk\c-utility\adapters/socketio_mbed.c ****                 result = NULL;
 158:Source\azure_iot_sdk\c-utility\adapters/socketio_mbed.c ****             }
 159:Source\azure_iot_sdk\c-utility\adapters/socketio_mbed.c ****             else
 160:Source\azure_iot_sdk\c-utility\adapters/socketio_mbed.c ****             {
 161:Source\azure_iot_sdk\c-utility\adapters/socketio_mbed.c ****                 result->hostname = (char*)malloc(strlen(socket_io_config->hostname) + 1);
 162:Source\azure_iot_sdk\c-utility\adapters/socketio_mbed.c ****                 if (result->hostname == NULL)
 163:Source\azure_iot_sdk\c-utility\adapters/socketio_mbed.c ****                 {
 164:Source\azure_iot_sdk\c-utility\adapters/socketio_mbed.c ****                     singlylinkedlist_destroy(result->pending_io_list);
 165:Source\azure_iot_sdk\c-utility\adapters/socketio_mbed.c ****                     free(result);
 166:Source\azure_iot_sdk\c-utility\adapters/socketio_mbed.c ****                     result = NULL;
 167:Source\azure_iot_sdk\c-utility\adapters/socketio_mbed.c ****                 }
 168:Source\azure_iot_sdk\c-utility\adapters/socketio_mbed.c ****                 else
 169:Source\azure_iot_sdk\c-utility\adapters/socketio_mbed.c ****                 {
 170:Source\azure_iot_sdk\c-utility\adapters/socketio_mbed.c ****                     strcpy(result->hostname, socket_io_config->hostname);
 171:Source\azure_iot_sdk\c-utility\adapters/socketio_mbed.c ****                     result->port = socket_io_config->port;
 172:Source\azure_iot_sdk\c-utility\adapters/socketio_mbed.c ****                     result->on_bytes_received = NULL;
 173:Source\azure_iot_sdk\c-utility\adapters/socketio_mbed.c ****                     result->on_io_error = NULL;
 174:Source\azure_iot_sdk\c-utility\adapters/socketio_mbed.c ****                     result->on_bytes_received_context = NULL;
 175:Source\azure_iot_sdk\c-utility\adapters/socketio_mbed.c ****                     result->on_io_error_context = NULL;
 176:Source\azure_iot_sdk\c-utility\adapters/socketio_mbed.c ****                     result->io_state = IO_STATE_CLOSED;
 177:Source\azure_iot_sdk\c-utility\adapters/socketio_mbed.c ****                     result->tcp_socket_connection = NULL;
 178:Source\azure_iot_sdk\c-utility\adapters/socketio_mbed.c ****                 }
 179:Source\azure_iot_sdk\c-utility\adapters/socketio_mbed.c ****             }
 180:Source\azure_iot_sdk\c-utility\adapters/socketio_mbed.c ****         }
 181:Source\azure_iot_sdk\c-utility\adapters/socketio_mbed.c ****     }
 182:Source\azure_iot_sdk\c-utility\adapters/socketio_mbed.c **** 
 183:Source\azure_iot_sdk\c-utility\adapters/socketio_mbed.c ****     return result;
 184:Source\azure_iot_sdk\c-utility\adapters/socketio_mbed.c **** }
 185:Source\azure_iot_sdk\c-utility\adapters/socketio_mbed.c **** 
 186:Source\azure_iot_sdk\c-utility\adapters/socketio_mbed.c **** void socketio_destroy(CONCRETE_IO_HANDLE socket_io)
ARM GAS  C:\Users\Phuong\AppData\Local\Temp\ccjRxQwq.s 			page 6


 187:Source\azure_iot_sdk\c-utility\adapters/socketio_mbed.c **** {
 188:Source\azure_iot_sdk\c-utility\adapters/socketio_mbed.c ****     if (socket_io != NULL)
 189:Source\azure_iot_sdk\c-utility\adapters/socketio_mbed.c ****     {
 190:Source\azure_iot_sdk\c-utility\adapters/socketio_mbed.c ****         SOCKET_IO_INSTANCE* socket_io_instance = (SOCKET_IO_INSTANCE*)socket_io;
 191:Source\azure_iot_sdk\c-utility\adapters/socketio_mbed.c **** 
 192:Source\azure_iot_sdk\c-utility\adapters/socketio_mbed.c ****         tcpsocketconnection_destroy(socket_io_instance->tcp_socket_connection);
 193:Source\azure_iot_sdk\c-utility\adapters/socketio_mbed.c **** 
 194:Source\azure_iot_sdk\c-utility\adapters/socketio_mbed.c ****         /* clear all pending IOs */
 195:Source\azure_iot_sdk\c-utility\adapters/socketio_mbed.c ****         LIST_ITEM_HANDLE first_pending_io = singlylinkedlist_get_head_item(socket_io_instance->pend
 196:Source\azure_iot_sdk\c-utility\adapters/socketio_mbed.c ****         while (first_pending_io != NULL)
 197:Source\azure_iot_sdk\c-utility\adapters/socketio_mbed.c ****         {
 198:Source\azure_iot_sdk\c-utility\adapters/socketio_mbed.c ****             PENDING_SOCKET_IO* pending_socket_io = (PENDING_SOCKET_IO*)singlylinkedlist_item_get_va
 199:Source\azure_iot_sdk\c-utility\adapters/socketio_mbed.c ****             if (pending_socket_io != NULL)
 200:Source\azure_iot_sdk\c-utility\adapters/socketio_mbed.c ****             {
 201:Source\azure_iot_sdk\c-utility\adapters/socketio_mbed.c ****                 free(pending_socket_io->bytes);
 202:Source\azure_iot_sdk\c-utility\adapters/socketio_mbed.c ****                 free(pending_socket_io);
 203:Source\azure_iot_sdk\c-utility\adapters/socketio_mbed.c ****             }
 204:Source\azure_iot_sdk\c-utility\adapters/socketio_mbed.c **** 
 205:Source\azure_iot_sdk\c-utility\adapters/socketio_mbed.c ****             (void)singlylinkedlist_remove(socket_io_instance->pending_io_list, first_pending_io);
 206:Source\azure_iot_sdk\c-utility\adapters/socketio_mbed.c ****             first_pending_io = singlylinkedlist_get_head_item(socket_io_instance->pending_io_list);
 207:Source\azure_iot_sdk\c-utility\adapters/socketio_mbed.c ****         }
 208:Source\azure_iot_sdk\c-utility\adapters/socketio_mbed.c **** 
 209:Source\azure_iot_sdk\c-utility\adapters/socketio_mbed.c ****         singlylinkedlist_destroy(socket_io_instance->pending_io_list);
 210:Source\azure_iot_sdk\c-utility\adapters/socketio_mbed.c ****         free(socket_io_instance->hostname);
 211:Source\azure_iot_sdk\c-utility\adapters/socketio_mbed.c ****         free(socket_io);
 212:Source\azure_iot_sdk\c-utility\adapters/socketio_mbed.c ****     }
 213:Source\azure_iot_sdk\c-utility\adapters/socketio_mbed.c **** }
 214:Source\azure_iot_sdk\c-utility\adapters/socketio_mbed.c **** 
 215:Source\azure_iot_sdk\c-utility\adapters/socketio_mbed.c **** int socketio_open(CONCRETE_IO_HANDLE socket_io, ON_IO_OPEN_COMPLETE on_io_open_complete, void* on_i
 216:Source\azure_iot_sdk\c-utility\adapters/socketio_mbed.c **** {
 217:Source\azure_iot_sdk\c-utility\adapters/socketio_mbed.c ****     int result;
 218:Source\azure_iot_sdk\c-utility\adapters/socketio_mbed.c **** 
 219:Source\azure_iot_sdk\c-utility\adapters/socketio_mbed.c ****     SOCKET_IO_INSTANCE* socket_io_instance = (SOCKET_IO_INSTANCE*)socket_io;
 220:Source\azure_iot_sdk\c-utility\adapters/socketio_mbed.c ****     if (socket_io == NULL)
 221:Source\azure_iot_sdk\c-utility\adapters/socketio_mbed.c ****     {
 222:Source\azure_iot_sdk\c-utility\adapters/socketio_mbed.c ****         result = __FAILURE__;
 223:Source\azure_iot_sdk\c-utility\adapters/socketio_mbed.c ****     }
 224:Source\azure_iot_sdk\c-utility\adapters/socketio_mbed.c ****     else
 225:Source\azure_iot_sdk\c-utility\adapters/socketio_mbed.c ****     {
 226:Source\azure_iot_sdk\c-utility\adapters/socketio_mbed.c ****         socket_io_instance->tcp_socket_connection = tcpsocketconnection_create();
 227:Source\azure_iot_sdk\c-utility\adapters/socketio_mbed.c ****         if (socket_io_instance->tcp_socket_connection == NULL)
 228:Source\azure_iot_sdk\c-utility\adapters/socketio_mbed.c ****         {
 229:Source\azure_iot_sdk\c-utility\adapters/socketio_mbed.c ****             result = __FAILURE__;
 230:Source\azure_iot_sdk\c-utility\adapters/socketio_mbed.c ****         }
 231:Source\azure_iot_sdk\c-utility\adapters/socketio_mbed.c ****         else
 232:Source\azure_iot_sdk\c-utility\adapters/socketio_mbed.c ****         {
 233:Source\azure_iot_sdk\c-utility\adapters/socketio_mbed.c ****             if (tcpsocketconnection_connect(socket_io_instance->tcp_socket_connection, socket_io_in
 234:Source\azure_iot_sdk\c-utility\adapters/socketio_mbed.c ****             {
 235:Source\azure_iot_sdk\c-utility\adapters/socketio_mbed.c ****                 tcpsocketconnection_destroy(socket_io_instance->tcp_socket_connection);
 236:Source\azure_iot_sdk\c-utility\adapters/socketio_mbed.c ****                 socket_io_instance->tcp_socket_connection = NULL;
 237:Source\azure_iot_sdk\c-utility\adapters/socketio_mbed.c ****                 result = __FAILURE__;
 238:Source\azure_iot_sdk\c-utility\adapters/socketio_mbed.c ****             }
 239:Source\azure_iot_sdk\c-utility\adapters/socketio_mbed.c ****             else
 240:Source\azure_iot_sdk\c-utility\adapters/socketio_mbed.c ****             {
 241:Source\azure_iot_sdk\c-utility\adapters/socketio_mbed.c ****                 tcpsocketconnection_set_blocking(socket_io_instance->tcp_socket_connection, false, 
 242:Source\azure_iot_sdk\c-utility\adapters/socketio_mbed.c **** 
 243:Source\azure_iot_sdk\c-utility\adapters/socketio_mbed.c ****                 socket_io_instance->on_bytes_received = on_bytes_received;
ARM GAS  C:\Users\Phuong\AppData\Local\Temp\ccjRxQwq.s 			page 7


 244:Source\azure_iot_sdk\c-utility\adapters/socketio_mbed.c ****                 socket_io_instance->on_bytes_received_context = on_bytes_received_context;
 245:Source\azure_iot_sdk\c-utility\adapters/socketio_mbed.c **** 
 246:Source\azure_iot_sdk\c-utility\adapters/socketio_mbed.c ****                 socket_io_instance->on_io_error = on_io_error;
 247:Source\azure_iot_sdk\c-utility\adapters/socketio_mbed.c ****                 socket_io_instance->on_io_error_context = on_io_error_context;
 248:Source\azure_iot_sdk\c-utility\adapters/socketio_mbed.c **** 
 249:Source\azure_iot_sdk\c-utility\adapters/socketio_mbed.c ****                 socket_io_instance->io_state = IO_STATE_OPEN;
 250:Source\azure_iot_sdk\c-utility\adapters/socketio_mbed.c **** 
 251:Source\azure_iot_sdk\c-utility\adapters/socketio_mbed.c ****                 result = 0;
 252:Source\azure_iot_sdk\c-utility\adapters/socketio_mbed.c ****             }
 253:Source\azure_iot_sdk\c-utility\adapters/socketio_mbed.c ****         }
 254:Source\azure_iot_sdk\c-utility\adapters/socketio_mbed.c ****     }
 255:Source\azure_iot_sdk\c-utility\adapters/socketio_mbed.c **** 
 256:Source\azure_iot_sdk\c-utility\adapters/socketio_mbed.c ****     if (on_io_open_complete != NULL)
 257:Source\azure_iot_sdk\c-utility\adapters/socketio_mbed.c ****     {
 258:Source\azure_iot_sdk\c-utility\adapters/socketio_mbed.c ****         on_io_open_complete(on_io_open_complete_context, result == 0 ? IO_OPEN_OK : IO_OPEN_ERROR);
 259:Source\azure_iot_sdk\c-utility\adapters/socketio_mbed.c ****     }
 260:Source\azure_iot_sdk\c-utility\adapters/socketio_mbed.c **** 
 261:Source\azure_iot_sdk\c-utility\adapters/socketio_mbed.c ****     return result;
 262:Source\azure_iot_sdk\c-utility\adapters/socketio_mbed.c **** }
 263:Source\azure_iot_sdk\c-utility\adapters/socketio_mbed.c **** 
 264:Source\azure_iot_sdk\c-utility\adapters/socketio_mbed.c **** int socketio_close(CONCRETE_IO_HANDLE socket_io, ON_IO_CLOSE_COMPLETE on_io_close_complete, void* c
 265:Source\azure_iot_sdk\c-utility\adapters/socketio_mbed.c **** {
 266:Source\azure_iot_sdk\c-utility\adapters/socketio_mbed.c ****     int result = 0;
 267:Source\azure_iot_sdk\c-utility\adapters/socketio_mbed.c **** 
 268:Source\azure_iot_sdk\c-utility\adapters/socketio_mbed.c ****     if (socket_io == NULL)
 269:Source\azure_iot_sdk\c-utility\adapters/socketio_mbed.c ****     {
 270:Source\azure_iot_sdk\c-utility\adapters/socketio_mbed.c ****         result = __FAILURE__;
 271:Source\azure_iot_sdk\c-utility\adapters/socketio_mbed.c ****     }
 272:Source\azure_iot_sdk\c-utility\adapters/socketio_mbed.c ****     else
 273:Source\azure_iot_sdk\c-utility\adapters/socketio_mbed.c ****     {
 274:Source\azure_iot_sdk\c-utility\adapters/socketio_mbed.c ****         SOCKET_IO_INSTANCE* socket_io_instance = (SOCKET_IO_INSTANCE*)socket_io;
 275:Source\azure_iot_sdk\c-utility\adapters/socketio_mbed.c **** 
 276:Source\azure_iot_sdk\c-utility\adapters/socketio_mbed.c ****         if ((socket_io_instance->io_state == IO_STATE_CLOSED) ||
 277:Source\azure_iot_sdk\c-utility\adapters/socketio_mbed.c ****             (socket_io_instance->io_state == IO_STATE_CLOSING))
 278:Source\azure_iot_sdk\c-utility\adapters/socketio_mbed.c ****         {
 279:Source\azure_iot_sdk\c-utility\adapters/socketio_mbed.c ****             result = __FAILURE__;
 280:Source\azure_iot_sdk\c-utility\adapters/socketio_mbed.c ****         }
 281:Source\azure_iot_sdk\c-utility\adapters/socketio_mbed.c ****         else
 282:Source\azure_iot_sdk\c-utility\adapters/socketio_mbed.c ****         {
 283:Source\azure_iot_sdk\c-utility\adapters/socketio_mbed.c ****             tcpsocketconnection_close(socket_io_instance->tcp_socket_connection);
 284:Source\azure_iot_sdk\c-utility\adapters/socketio_mbed.c ****             socket_io_instance->tcp_socket_connection = NULL;
 285:Source\azure_iot_sdk\c-utility\adapters/socketio_mbed.c ****             socket_io_instance->io_state = IO_STATE_CLOSED;
 286:Source\azure_iot_sdk\c-utility\adapters/socketio_mbed.c **** 
 287:Source\azure_iot_sdk\c-utility\adapters/socketio_mbed.c ****             if (on_io_close_complete != NULL)
 288:Source\azure_iot_sdk\c-utility\adapters/socketio_mbed.c ****             {
 289:Source\azure_iot_sdk\c-utility\adapters/socketio_mbed.c ****                 on_io_close_complete(callback_context);
 290:Source\azure_iot_sdk\c-utility\adapters/socketio_mbed.c ****             }
 291:Source\azure_iot_sdk\c-utility\adapters/socketio_mbed.c **** 
 292:Source\azure_iot_sdk\c-utility\adapters/socketio_mbed.c ****             result = 0;
 293:Source\azure_iot_sdk\c-utility\adapters/socketio_mbed.c ****         }
 294:Source\azure_iot_sdk\c-utility\adapters/socketio_mbed.c ****     }
 295:Source\azure_iot_sdk\c-utility\adapters/socketio_mbed.c **** 
 296:Source\azure_iot_sdk\c-utility\adapters/socketio_mbed.c ****     return result;
 297:Source\azure_iot_sdk\c-utility\adapters/socketio_mbed.c **** }
 298:Source\azure_iot_sdk\c-utility\adapters/socketio_mbed.c **** 
 299:Source\azure_iot_sdk\c-utility\adapters/socketio_mbed.c **** int socketio_send(CONCRETE_IO_HANDLE socket_io, const void* buffer, size_t size, ON_SEND_COMPLETE o
 300:Source\azure_iot_sdk\c-utility\adapters/socketio_mbed.c **** {
ARM GAS  C:\Users\Phuong\AppData\Local\Temp\ccjRxQwq.s 			page 8


 301:Source\azure_iot_sdk\c-utility\adapters/socketio_mbed.c ****     int result;
 302:Source\azure_iot_sdk\c-utility\adapters/socketio_mbed.c **** 
 303:Source\azure_iot_sdk\c-utility\adapters/socketio_mbed.c ****     if ((socket_io == NULL) ||
 304:Source\azure_iot_sdk\c-utility\adapters/socketio_mbed.c ****         (buffer == NULL) ||
 305:Source\azure_iot_sdk\c-utility\adapters/socketio_mbed.c ****         (size == 0))
 306:Source\azure_iot_sdk\c-utility\adapters/socketio_mbed.c ****     {
 307:Source\azure_iot_sdk\c-utility\adapters/socketio_mbed.c ****         /* Invalid arguments */
 308:Source\azure_iot_sdk\c-utility\adapters/socketio_mbed.c ****         result = __FAILURE__;
 309:Source\azure_iot_sdk\c-utility\adapters/socketio_mbed.c ****     }
 310:Source\azure_iot_sdk\c-utility\adapters/socketio_mbed.c ****     else
 311:Source\azure_iot_sdk\c-utility\adapters/socketio_mbed.c ****     {
 312:Source\azure_iot_sdk\c-utility\adapters/socketio_mbed.c ****         SOCKET_IO_INSTANCE* socket_io_instance = (SOCKET_IO_INSTANCE*)socket_io;
 313:Source\azure_iot_sdk\c-utility\adapters/socketio_mbed.c ****         if (socket_io_instance->io_state != IO_STATE_OPEN)
 314:Source\azure_iot_sdk\c-utility\adapters/socketio_mbed.c ****         {
 315:Source\azure_iot_sdk\c-utility\adapters/socketio_mbed.c ****             result = __FAILURE__;
 316:Source\azure_iot_sdk\c-utility\adapters/socketio_mbed.c ****         }
 317:Source\azure_iot_sdk\c-utility\adapters/socketio_mbed.c ****         else
 318:Source\azure_iot_sdk\c-utility\adapters/socketio_mbed.c ****         {
 319:Source\azure_iot_sdk\c-utility\adapters/socketio_mbed.c ****             LIST_ITEM_HANDLE first_pending_io = singlylinkedlist_get_head_item(socket_io_instance->
 320:Source\azure_iot_sdk\c-utility\adapters/socketio_mbed.c ****             if (first_pending_io != NULL)
 321:Source\azure_iot_sdk\c-utility\adapters/socketio_mbed.c ****             {
 322:Source\azure_iot_sdk\c-utility\adapters/socketio_mbed.c ****                 if (add_pending_io(socket_io_instance, buffer, size, on_send_complete, callback_con
 323:Source\azure_iot_sdk\c-utility\adapters/socketio_mbed.c ****                 {
 324:Source\azure_iot_sdk\c-utility\adapters/socketio_mbed.c ****                     result = __FAILURE__;
 325:Source\azure_iot_sdk\c-utility\adapters/socketio_mbed.c ****                 }
 326:Source\azure_iot_sdk\c-utility\adapters/socketio_mbed.c ****                 else
 327:Source\azure_iot_sdk\c-utility\adapters/socketio_mbed.c ****                 {
 328:Source\azure_iot_sdk\c-utility\adapters/socketio_mbed.c ****                     result = 0;
 329:Source\azure_iot_sdk\c-utility\adapters/socketio_mbed.c ****                 }
 330:Source\azure_iot_sdk\c-utility\adapters/socketio_mbed.c ****             }
 331:Source\azure_iot_sdk\c-utility\adapters/socketio_mbed.c ****             else
 332:Source\azure_iot_sdk\c-utility\adapters/socketio_mbed.c ****             {
 333:Source\azure_iot_sdk\c-utility\adapters/socketio_mbed.c ****                 int send_result = tcpsocketconnection_send(socket_io_instance->tcp_socket_connectio
 334:Source\azure_iot_sdk\c-utility\adapters/socketio_mbed.c ****                 if (send_result != size)
 335:Source\azure_iot_sdk\c-utility\adapters/socketio_mbed.c ****                 {
 336:Source\azure_iot_sdk\c-utility\adapters/socketio_mbed.c ****                     if (send_result < 0)
 337:Source\azure_iot_sdk\c-utility\adapters/socketio_mbed.c ****                     {
 338:Source\azure_iot_sdk\c-utility\adapters/socketio_mbed.c ****                         send_result = 0;
 339:Source\azure_iot_sdk\c-utility\adapters/socketio_mbed.c ****                     }
 340:Source\azure_iot_sdk\c-utility\adapters/socketio_mbed.c **** 
 341:Source\azure_iot_sdk\c-utility\adapters/socketio_mbed.c ****                     /* queue data */
 342:Source\azure_iot_sdk\c-utility\adapters/socketio_mbed.c ****                     if (add_pending_io(socket_io_instance, (unsigned char*)buffer + send_result, si
 343:Source\azure_iot_sdk\c-utility\adapters/socketio_mbed.c ****                     {
 344:Source\azure_iot_sdk\c-utility\adapters/socketio_mbed.c ****                         result = __FAILURE__;
 345:Source\azure_iot_sdk\c-utility\adapters/socketio_mbed.c ****                     }
 346:Source\azure_iot_sdk\c-utility\adapters/socketio_mbed.c ****                     else
 347:Source\azure_iot_sdk\c-utility\adapters/socketio_mbed.c ****                     {
 348:Source\azure_iot_sdk\c-utility\adapters/socketio_mbed.c ****                         result = 0;
 349:Source\azure_iot_sdk\c-utility\adapters/socketio_mbed.c ****                     }
 350:Source\azure_iot_sdk\c-utility\adapters/socketio_mbed.c ****                 }
 351:Source\azure_iot_sdk\c-utility\adapters/socketio_mbed.c ****                 else
 352:Source\azure_iot_sdk\c-utility\adapters/socketio_mbed.c ****                 {
 353:Source\azure_iot_sdk\c-utility\adapters/socketio_mbed.c ****                     if (on_send_complete != NULL)
 354:Source\azure_iot_sdk\c-utility\adapters/socketio_mbed.c ****                     {
 355:Source\azure_iot_sdk\c-utility\adapters/socketio_mbed.c ****                         on_send_complete(callback_context, IO_SEND_OK);
 356:Source\azure_iot_sdk\c-utility\adapters/socketio_mbed.c ****                     }
 357:Source\azure_iot_sdk\c-utility\adapters/socketio_mbed.c **** 
ARM GAS  C:\Users\Phuong\AppData\Local\Temp\ccjRxQwq.s 			page 9


 358:Source\azure_iot_sdk\c-utility\adapters/socketio_mbed.c ****                     result = 0;
 359:Source\azure_iot_sdk\c-utility\adapters/socketio_mbed.c ****                 }
 360:Source\azure_iot_sdk\c-utility\adapters/socketio_mbed.c ****             }
 361:Source\azure_iot_sdk\c-utility\adapters/socketio_mbed.c ****         }
 362:Source\azure_iot_sdk\c-utility\adapters/socketio_mbed.c ****     }
 363:Source\azure_iot_sdk\c-utility\adapters/socketio_mbed.c **** 
 364:Source\azure_iot_sdk\c-utility\adapters/socketio_mbed.c ****     return result;
 365:Source\azure_iot_sdk\c-utility\adapters/socketio_mbed.c **** }
 366:Source\azure_iot_sdk\c-utility\adapters/socketio_mbed.c **** 
 367:Source\azure_iot_sdk\c-utility\adapters/socketio_mbed.c **** void socketio_dowork(CONCRETE_IO_HANDLE socket_io)
 368:Source\azure_iot_sdk\c-utility\adapters/socketio_mbed.c **** {
 369:Source\azure_iot_sdk\c-utility\adapters/socketio_mbed.c ****     if (socket_io != NULL)
 370:Source\azure_iot_sdk\c-utility\adapters/socketio_mbed.c ****     {
 371:Source\azure_iot_sdk\c-utility\adapters/socketio_mbed.c ****         SOCKET_IO_INSTANCE* socket_io_instance = (SOCKET_IO_INSTANCE*)socket_io;
 372:Source\azure_iot_sdk\c-utility\adapters/socketio_mbed.c ****         if (socket_io_instance->io_state == IO_STATE_OPEN)
 373:Source\azure_iot_sdk\c-utility\adapters/socketio_mbed.c ****         {
 374:Source\azure_iot_sdk\c-utility\adapters/socketio_mbed.c ****             int received = 1;
 375:Source\azure_iot_sdk\c-utility\adapters/socketio_mbed.c **** 
 376:Source\azure_iot_sdk\c-utility\adapters/socketio_mbed.c ****             LIST_ITEM_HANDLE first_pending_io = singlylinkedlist_get_head_item(socket_io_instance->
 377:Source\azure_iot_sdk\c-utility\adapters/socketio_mbed.c ****             while (first_pending_io != NULL)
 378:Source\azure_iot_sdk\c-utility\adapters/socketio_mbed.c ****             {
 379:Source\azure_iot_sdk\c-utility\adapters/socketio_mbed.c ****                 PENDING_SOCKET_IO* pending_socket_io = (PENDING_SOCKET_IO*)singlylinkedlist_item_ge
 380:Source\azure_iot_sdk\c-utility\adapters/socketio_mbed.c ****                 if (pending_socket_io == NULL)
 381:Source\azure_iot_sdk\c-utility\adapters/socketio_mbed.c ****                 {
 382:Source\azure_iot_sdk\c-utility\adapters/socketio_mbed.c ****                     socket_io_instance->io_state = IO_STATE_ERROR;
 383:Source\azure_iot_sdk\c-utility\adapters/socketio_mbed.c ****                     indicate_error(socket_io_instance);
 384:Source\azure_iot_sdk\c-utility\adapters/socketio_mbed.c ****                     break;
 385:Source\azure_iot_sdk\c-utility\adapters/socketio_mbed.c ****                 }
 386:Source\azure_iot_sdk\c-utility\adapters/socketio_mbed.c **** 
 387:Source\azure_iot_sdk\c-utility\adapters/socketio_mbed.c ****                 int send_result = tcpsocketconnection_send(socket_io_instance->tcp_socket_connectio
 388:Source\azure_iot_sdk\c-utility\adapters/socketio_mbed.c ****                 if (send_result != pending_socket_io->size)
 389:Source\azure_iot_sdk\c-utility\adapters/socketio_mbed.c ****                 {
 390:Source\azure_iot_sdk\c-utility\adapters/socketio_mbed.c ****                     if (send_result < 0)
 391:Source\azure_iot_sdk\c-utility\adapters/socketio_mbed.c ****                     {
 392:Source\azure_iot_sdk\c-utility\adapters/socketio_mbed.c ****                         if (send_result < UNABLE_TO_COMPLETE)
 393:Source\azure_iot_sdk\c-utility\adapters/socketio_mbed.c ****                         {
 394:Source\azure_iot_sdk\c-utility\adapters/socketio_mbed.c ****                             // Bad error.  Indicate as much.
 395:Source\azure_iot_sdk\c-utility\adapters/socketio_mbed.c ****                             socket_io_instance->io_state = IO_STATE_ERROR;
 396:Source\azure_iot_sdk\c-utility\adapters/socketio_mbed.c ****                             indicate_error(socket_io_instance);
 397:Source\azure_iot_sdk\c-utility\adapters/socketio_mbed.c ****                         }
 398:Source\azure_iot_sdk\c-utility\adapters/socketio_mbed.c ****                         break;
 399:Source\azure_iot_sdk\c-utility\adapters/socketio_mbed.c ****                     }
 400:Source\azure_iot_sdk\c-utility\adapters/socketio_mbed.c ****                     else
 401:Source\azure_iot_sdk\c-utility\adapters/socketio_mbed.c ****                     {
 402:Source\azure_iot_sdk\c-utility\adapters/socketio_mbed.c ****                         /* send something, wait for the rest */
 403:Source\azure_iot_sdk\c-utility\adapters/socketio_mbed.c ****                         (void)memmove(pending_socket_io->bytes, pending_socket_io->bytes + send_res
 404:Source\azure_iot_sdk\c-utility\adapters/socketio_mbed.c ****                     }
 405:Source\azure_iot_sdk\c-utility\adapters/socketio_mbed.c ****                 }
 406:Source\azure_iot_sdk\c-utility\adapters/socketio_mbed.c ****                 else
 407:Source\azure_iot_sdk\c-utility\adapters/socketio_mbed.c ****                 {
 408:Source\azure_iot_sdk\c-utility\adapters/socketio_mbed.c ****                     if (pending_socket_io->on_send_complete != NULL)
 409:Source\azure_iot_sdk\c-utility\adapters/socketio_mbed.c ****                     {
 410:Source\azure_iot_sdk\c-utility\adapters/socketio_mbed.c ****                         pending_socket_io->on_send_complete(pending_socket_io->callback_context, IO
 411:Source\azure_iot_sdk\c-utility\adapters/socketio_mbed.c ****                     }
 412:Source\azure_iot_sdk\c-utility\adapters/socketio_mbed.c **** 
 413:Source\azure_iot_sdk\c-utility\adapters/socketio_mbed.c ****                     free(pending_socket_io->bytes);
 414:Source\azure_iot_sdk\c-utility\adapters/socketio_mbed.c ****                     free(pending_socket_io);
ARM GAS  C:\Users\Phuong\AppData\Local\Temp\ccjRxQwq.s 			page 10


 415:Source\azure_iot_sdk\c-utility\adapters/socketio_mbed.c ****                     if (singlylinkedlist_remove(socket_io_instance->pending_io_list, first_pending_
 416:Source\azure_iot_sdk\c-utility\adapters/socketio_mbed.c ****                     {
 417:Source\azure_iot_sdk\c-utility\adapters/socketio_mbed.c ****                         socket_io_instance->io_state = IO_STATE_ERROR;
 418:Source\azure_iot_sdk\c-utility\adapters/socketio_mbed.c ****                         indicate_error(socket_io_instance);
 419:Source\azure_iot_sdk\c-utility\adapters/socketio_mbed.c ****                     }
 420:Source\azure_iot_sdk\c-utility\adapters/socketio_mbed.c ****                 }
 421:Source\azure_iot_sdk\c-utility\adapters/socketio_mbed.c **** 
 422:Source\azure_iot_sdk\c-utility\adapters/socketio_mbed.c ****                 first_pending_io = singlylinkedlist_get_head_item(socket_io_instance->pending_io_li
 423:Source\azure_iot_sdk\c-utility\adapters/socketio_mbed.c ****             }
 424:Source\azure_iot_sdk\c-utility\adapters/socketio_mbed.c **** 
 425:Source\azure_iot_sdk\c-utility\adapters/socketio_mbed.c ****             while (received > 0)
 426:Source\azure_iot_sdk\c-utility\adapters/socketio_mbed.c ****             {
 427:Source\azure_iot_sdk\c-utility\adapters/socketio_mbed.c ****                 unsigned char* recv_bytes = malloc(MBED_RECEIVE_BYTES_VALUE);
 428:Source\azure_iot_sdk\c-utility\adapters/socketio_mbed.c ****                 if (recv_bytes == NULL)
 429:Source\azure_iot_sdk\c-utility\adapters/socketio_mbed.c ****                 {
 430:Source\azure_iot_sdk\c-utility\adapters/socketio_mbed.c ****                     LogError("Socketio_Failure: NULL allocating input buffer.");
 431:Source\azure_iot_sdk\c-utility\adapters/socketio_mbed.c ****                     indicate_error(socket_io_instance);
 432:Source\azure_iot_sdk\c-utility\adapters/socketio_mbed.c ****                 }
 433:Source\azure_iot_sdk\c-utility\adapters/socketio_mbed.c ****                 else
 434:Source\azure_iot_sdk\c-utility\adapters/socketio_mbed.c ****                 {
 435:Source\azure_iot_sdk\c-utility\adapters/socketio_mbed.c ****                     received = tcpsocketconnection_receive(socket_io_instance->tcp_socket_connectio
 436:Source\azure_iot_sdk\c-utility\adapters/socketio_mbed.c ****                     if (received > 0)
 437:Source\azure_iot_sdk\c-utility\adapters/socketio_mbed.c ****                     {
 438:Source\azure_iot_sdk\c-utility\adapters/socketio_mbed.c ****                         if (socket_io_instance->on_bytes_received != NULL)
 439:Source\azure_iot_sdk\c-utility\adapters/socketio_mbed.c ****                         {
 440:Source\azure_iot_sdk\c-utility\adapters/socketio_mbed.c ****                             /* explictly ignoring here the result of the callback */
 441:Source\azure_iot_sdk\c-utility\adapters/socketio_mbed.c ****                             (void)socket_io_instance->on_bytes_received(socket_io_instance->on_byte
 442:Source\azure_iot_sdk\c-utility\adapters/socketio_mbed.c ****                         }
 443:Source\azure_iot_sdk\c-utility\adapters/socketio_mbed.c ****                     }
 444:Source\azure_iot_sdk\c-utility\adapters/socketio_mbed.c ****                     free(recv_bytes);
 445:Source\azure_iot_sdk\c-utility\adapters/socketio_mbed.c ****                 }
 446:Source\azure_iot_sdk\c-utility\adapters/socketio_mbed.c ****             }
 447:Source\azure_iot_sdk\c-utility\adapters/socketio_mbed.c ****         }
 448:Source\azure_iot_sdk\c-utility\adapters/socketio_mbed.c ****     }
 449:Source\azure_iot_sdk\c-utility\adapters/socketio_mbed.c **** }
 450:Source\azure_iot_sdk\c-utility\adapters/socketio_mbed.c **** 
 451:Source\azure_iot_sdk\c-utility\adapters/socketio_mbed.c **** int socketio_setoption(CONCRETE_IO_HANDLE socket_io, const char* optionName, const void* value)
 452:Source\azure_iot_sdk\c-utility\adapters/socketio_mbed.c **** {
 100              		.loc 1 452 0
 101              		.cfi_startproc
 102              		@ args = 0, pretend = 0, frame = 0
 103              		@ frame_needed = 0, uses_anonymous_args = 0
 104              		@ link register save eliminated.
 105              	.LVL6:
 453:Source\azure_iot_sdk\c-utility\adapters/socketio_mbed.c ****     /* Not implementing any options */
 454:Source\azure_iot_sdk\c-utility\adapters/socketio_mbed.c ****     return __FAILURE__;
 455:Source\azure_iot_sdk\c-utility\adapters/socketio_mbed.c **** }
 106              		.loc 1 455 0
 107 0000 E320     		movs	r0, #227
 108              	.LVL7:
 109 0002 4000     		lsls	r0, r0, #1
 110              		@ sp needed
 111 0004 7047     		bx	lr
 112              		.cfi_endproc
 113              	.LFE12:
 114              		.size	socketio_setoption, .-socketio_setoption
 115 0006 C046     		.section	.text.socketio_create,"ax",%progbits
ARM GAS  C:\Users\Phuong\AppData\Local\Temp\ccjRxQwq.s 			page 11


 116              		.align	2
 117              		.global	socketio_create
 118              		.code	16
 119              		.thumb_func
 120              		.type	socketio_create, %function
 121              	socketio_create:
 122              	.LFB6:
 140:Source\azure_iot_sdk\c-utility\adapters/socketio_mbed.c ****     SOCKETIO_CONFIG* socket_io_config = io_create_parameters;
 123              		.loc 1 140 0
 124              		.cfi_startproc
 125              		@ args = 0, pretend = 0, frame = 0
 126              		@ frame_needed = 0, uses_anonymous_args = 0
 127              	.LVL8:
 128 0000 70B5     		push	{r4, r5, r6, lr}
 129              		.cfi_def_cfa_offset 16
 130              		.cfi_offset 4, -16
 131              		.cfi_offset 5, -12
 132              		.cfi_offset 6, -8
 133              		.cfi_offset 14, -4
 134 0002 051E     		subs	r5, r0, #0
 135              	.LVL9:
 144:Source\azure_iot_sdk\c-utility\adapters/socketio_mbed.c ****     {
 136              		.loc 1 144 0
 137 0004 2CD0     		beq	.L10
 150:Source\azure_iot_sdk\c-utility\adapters/socketio_mbed.c ****         if (result != NULL)
 138              		.loc 1 150 0
 139 0006 2420     		movs	r0, #36
 140              	.LVL10:
 141 0008 FFF7FEFF 		bl	malloc
 142              	.LVL11:
 143 000c 041E     		subs	r4, r0, #0
 144              	.LVL12:
 151:Source\azure_iot_sdk\c-utility\adapters/socketio_mbed.c ****         {
 145              		.loc 1 151 0
 146 000e 28D0     		beq	.L7
 153:Source\azure_iot_sdk\c-utility\adapters/socketio_mbed.c ****             if (result->pending_io_list == NULL)
 147              		.loc 1 153 0
 148 0010 FFF7FEFF 		bl	singlylinkedlist_create
 149              	.LVL13:
 150 0014 061E     		subs	r6, r0, #0
 151 0016 2062     		str	r0, [r4, #32]
 154:Source\azure_iot_sdk\c-utility\adapters/socketio_mbed.c ****             {
 152              		.loc 1 154 0
 153 0018 04D1     		bne	.L8
 156:Source\azure_iot_sdk\c-utility\adapters/socketio_mbed.c ****                 result = NULL;
 154              		.loc 1 156 0
 155 001a 2000     		movs	r0, r4
 156 001c FFF7FEFF 		bl	free
 157              	.LVL14:
 157:Source\azure_iot_sdk\c-utility\adapters/socketio_mbed.c ****             }
 158              		.loc 1 157 0
 159 0020 0024     		movs	r4, #0
 160 0022 1EE0     		b	.L7
 161              	.LVL15:
 162              	.L8:
 161:Source\azure_iot_sdk\c-utility\adapters/socketio_mbed.c ****                 if (result->hostname == NULL)
 163              		.loc 1 161 0
ARM GAS  C:\Users\Phuong\AppData\Local\Temp\ccjRxQwq.s 			page 12


 164 0024 2868     		ldr	r0, [r5]
 165 0026 FFF7FEFF 		bl	strlen
 166              	.LVL16:
 167 002a 0130     		adds	r0, r0, #1
 168 002c FFF7FEFF 		bl	malloc
 169              	.LVL17:
 170 0030 6061     		str	r0, [r4, #20]
 162:Source\azure_iot_sdk\c-utility\adapters/socketio_mbed.c ****                 {
 171              		.loc 1 162 0
 172 0032 0028     		cmp	r0, #0
 173 0034 07D1     		bne	.L9
 164:Source\azure_iot_sdk\c-utility\adapters/socketio_mbed.c ****                     free(result);
 174              		.loc 1 164 0
 175 0036 3000     		movs	r0, r6
 176 0038 FFF7FEFF 		bl	singlylinkedlist_destroy
 177              	.LVL18:
 165:Source\azure_iot_sdk\c-utility\adapters/socketio_mbed.c ****                     result = NULL;
 178              		.loc 1 165 0
 179 003c 2000     		movs	r0, r4
 180 003e FFF7FEFF 		bl	free
 181              	.LVL19:
 166:Source\azure_iot_sdk\c-utility\adapters/socketio_mbed.c ****                 }
 182              		.loc 1 166 0
 183 0042 0024     		movs	r4, #0
 184 0044 0DE0     		b	.L7
 185              	.LVL20:
 186              	.L9:
 170:Source\azure_iot_sdk\c-utility\adapters/socketio_mbed.c ****                     result->port = socket_io_config->port;
 187              		.loc 1 170 0
 188 0046 2968     		ldr	r1, [r5]
 189 0048 FFF7FEFF 		bl	strcpy
 190              	.LVL21:
 171:Source\azure_iot_sdk\c-utility\adapters/socketio_mbed.c ****                     result->on_bytes_received = NULL;
 191              		.loc 1 171 0
 192 004c 6B68     		ldr	r3, [r5, #4]
 193 004e A361     		str	r3, [r4, #24]
 172:Source\azure_iot_sdk\c-utility\adapters/socketio_mbed.c ****                     result->on_io_error = NULL;
 194              		.loc 1 172 0
 195 0050 0023     		movs	r3, #0
 196 0052 6360     		str	r3, [r4, #4]
 173:Source\azure_iot_sdk\c-utility\adapters/socketio_mbed.c ****                     result->on_bytes_received_context = NULL;
 197              		.loc 1 173 0
 198 0054 A360     		str	r3, [r4, #8]
 174:Source\azure_iot_sdk\c-utility\adapters/socketio_mbed.c ****                     result->on_io_error_context = NULL;
 199              		.loc 1 174 0
 200 0056 E360     		str	r3, [r4, #12]
 175:Source\azure_iot_sdk\c-utility\adapters/socketio_mbed.c ****                     result->io_state = IO_STATE_CLOSED;
 201              		.loc 1 175 0
 202 0058 2361     		str	r3, [r4, #16]
 176:Source\azure_iot_sdk\c-utility\adapters/socketio_mbed.c ****                     result->tcp_socket_connection = NULL;
 203              		.loc 1 176 0
 204 005a 2377     		strb	r3, [r4, #28]
 177:Source\azure_iot_sdk\c-utility\adapters/socketio_mbed.c ****                 }
 205              		.loc 1 177 0
 206 005c 2360     		str	r3, [r4]
 207 005e 00E0     		b	.L7
 208              	.LVL22:
ARM GAS  C:\Users\Phuong\AppData\Local\Temp\ccjRxQwq.s 			page 13


 209              	.L10:
 146:Source\azure_iot_sdk\c-utility\adapters/socketio_mbed.c ****     }
 210              		.loc 1 146 0
 211 0060 0024     		movs	r4, #0
 212              	.LVL23:
 213              	.L7:
 184:Source\azure_iot_sdk\c-utility\adapters/socketio_mbed.c **** 
 214              		.loc 1 184 0
 215 0062 2000     		movs	r0, r4
 216              		@ sp needed
 217              	.LVL24:
 218              	.LVL25:
 219 0064 70BD     		pop	{r4, r5, r6, pc}
 220              		.cfi_endproc
 221              	.LFE6:
 222              		.size	socketio_create, .-socketio_create
 223 0066 C046     		.section	.text.socketio_destroy,"ax",%progbits
 224              		.align	2
 225              		.global	socketio_destroy
 226              		.code	16
 227              		.thumb_func
 228              		.type	socketio_destroy, %function
 229              	socketio_destroy:
 230              	.LFB7:
 187:Source\azure_iot_sdk\c-utility\adapters/socketio_mbed.c ****     if (socket_io != NULL)
 231              		.loc 1 187 0
 232              		.cfi_startproc
 233              		@ args = 0, pretend = 0, frame = 0
 234              		@ frame_needed = 0, uses_anonymous_args = 0
 235              	.LVL26:
 236 0000 70B5     		push	{r4, r5, r6, lr}
 237              		.cfi_def_cfa_offset 16
 238              		.cfi_offset 4, -16
 239              		.cfi_offset 5, -12
 240              		.cfi_offset 6, -8
 241              		.cfi_offset 14, -4
 242 0002 061E     		subs	r6, r0, #0
 188:Source\azure_iot_sdk\c-utility\adapters/socketio_mbed.c ****     {
 243              		.loc 1 188 0
 244 0004 25D0     		beq	.L11
 245              	.LVL27:
 246              	.LBB2:
 192:Source\azure_iot_sdk\c-utility\adapters/socketio_mbed.c **** 
 247              		.loc 1 192 0
 248 0006 0068     		ldr	r0, [r0]
 249              	.LVL28:
 250 0008 FFF7FEFF 		bl	tcpsocketconnection_destroy
 251              	.LVL29:
 195:Source\azure_iot_sdk\c-utility\adapters/socketio_mbed.c ****         while (first_pending_io != NULL)
 252              		.loc 1 195 0
 253 000c 306A     		ldr	r0, [r6, #32]
 254 000e FFF7FEFF 		bl	singlylinkedlist_get_head_item
 255              	.LVL30:
 256 0012 0400     		movs	r4, r0
 257              	.LVL31:
 196:Source\azure_iot_sdk\c-utility\adapters/socketio_mbed.c ****         {
 258              		.loc 1 196 0
ARM GAS  C:\Users\Phuong\AppData\Local\Temp\ccjRxQwq.s 			page 14


 259 0014 12E0     		b	.L13
 260              	.L15:
 261              	.LBB3:
 198:Source\azure_iot_sdk\c-utility\adapters/socketio_mbed.c ****             if (pending_socket_io != NULL)
 262              		.loc 1 198 0
 263 0016 2000     		movs	r0, r4
 264              	.LVL32:
 265 0018 FFF7FEFF 		bl	singlylinkedlist_item_get_value
 266              	.LVL33:
 267 001c 051E     		subs	r5, r0, #0
 268              	.LVL34:
 199:Source\azure_iot_sdk\c-utility\adapters/socketio_mbed.c ****             {
 269              		.loc 1 199 0
 270 001e 05D0     		beq	.L14
 201:Source\azure_iot_sdk\c-utility\adapters/socketio_mbed.c ****                 free(pending_socket_io);
 271              		.loc 1 201 0
 272 0020 0068     		ldr	r0, [r0]
 273              	.LVL35:
 274 0022 FFF7FEFF 		bl	free
 275              	.LVL36:
 202:Source\azure_iot_sdk\c-utility\adapters/socketio_mbed.c ****             }
 276              		.loc 1 202 0
 277 0026 2800     		movs	r0, r5
 278 0028 FFF7FEFF 		bl	free
 279              	.LVL37:
 280              	.L14:
 205:Source\azure_iot_sdk\c-utility\adapters/socketio_mbed.c ****             first_pending_io = singlylinkedlist_get_head_item(socket_io_instance->pending_io_list);
 281              		.loc 1 205 0
 282 002c 2100     		movs	r1, r4
 283 002e 306A     		ldr	r0, [r6, #32]
 284 0030 FFF7FEFF 		bl	singlylinkedlist_remove
 285              	.LVL38:
 206:Source\azure_iot_sdk\c-utility\adapters/socketio_mbed.c ****         }
 286              		.loc 1 206 0
 287 0034 306A     		ldr	r0, [r6, #32]
 288 0036 FFF7FEFF 		bl	singlylinkedlist_get_head_item
 289              	.LVL39:
 290 003a 0400     		movs	r4, r0
 291              	.LVL40:
 292              	.L13:
 293              	.LBE3:
 196:Source\azure_iot_sdk\c-utility\adapters/socketio_mbed.c ****         {
 294              		.loc 1 196 0
 295 003c 002C     		cmp	r4, #0
 296 003e EAD1     		bne	.L15
 209:Source\azure_iot_sdk\c-utility\adapters/socketio_mbed.c ****         free(socket_io_instance->hostname);
 297              		.loc 1 209 0
 298 0040 306A     		ldr	r0, [r6, #32]
 299              	.LVL41:
 300 0042 FFF7FEFF 		bl	singlylinkedlist_destroy
 301              	.LVL42:
 210:Source\azure_iot_sdk\c-utility\adapters/socketio_mbed.c ****         free(socket_io);
 302              		.loc 1 210 0
 303 0046 7069     		ldr	r0, [r6, #20]
 304 0048 FFF7FEFF 		bl	free
 305              	.LVL43:
 211:Source\azure_iot_sdk\c-utility\adapters/socketio_mbed.c ****     }
ARM GAS  C:\Users\Phuong\AppData\Local\Temp\ccjRxQwq.s 			page 15


 306              		.loc 1 211 0
 307 004c 3000     		movs	r0, r6
 308 004e FFF7FEFF 		bl	free
 309              	.LVL44:
 310              	.L11:
 311              	.LBE2:
 213:Source\azure_iot_sdk\c-utility\adapters/socketio_mbed.c **** 
 312              		.loc 1 213 0
 313              		@ sp needed
 314              	.LVL45:
 315 0052 70BD     		pop	{r4, r5, r6, pc}
 316              		.cfi_endproc
 317              	.LFE7:
 318              		.size	socketio_destroy, .-socketio_destroy
 319              		.section	.text.socketio_open,"ax",%progbits
 320              		.align	2
 321              		.global	socketio_open
 322              		.code	16
 323              		.thumb_func
 324              		.type	socketio_open, %function
 325              	socketio_open:
 326              	.LFB8:
 216:Source\azure_iot_sdk\c-utility\adapters/socketio_mbed.c ****     int result;
 327              		.loc 1 216 0
 328              		.cfi_startproc
 329              		@ args = 12, pretend = 0, frame = 0
 330              		@ frame_needed = 0, uses_anonymous_args = 0
 331              	.LVL46:
 332 0000 F8B5     		push	{r3, r4, r5, r6, r7, lr}
 333              		.cfi_def_cfa_offset 24
 334              		.cfi_offset 3, -24
 335              		.cfi_offset 4, -20
 336              		.cfi_offset 5, -16
 337              		.cfi_offset 6, -12
 338              		.cfi_offset 7, -8
 339              		.cfi_offset 14, -4
 340 0002 0400     		movs	r4, r0
 341 0004 0E00     		movs	r6, r1
 342 0006 1500     		movs	r5, r2
 343 0008 1F00     		movs	r7, r3
 344              	.LVL47:
 220:Source\azure_iot_sdk\c-utility\adapters/socketio_mbed.c ****     {
 345              		.loc 1 220 0
 346 000a 0028     		cmp	r0, #0
 347 000c 21D0     		beq	.L20
 226:Source\azure_iot_sdk\c-utility\adapters/socketio_mbed.c ****         if (socket_io_instance->tcp_socket_connection == NULL)
 348              		.loc 1 226 0
 349 000e FFF7FEFF 		bl	tcpsocketconnection_create
 350              	.LVL48:
 351 0012 2060     		str	r0, [r4]
 227:Source\azure_iot_sdk\c-utility\adapters/socketio_mbed.c ****         {
 352              		.loc 1 227 0
 353 0014 0028     		cmp	r0, #0
 354 0016 1ED0     		beq	.L21
 233:Source\azure_iot_sdk\c-utility\adapters/socketio_mbed.c ****             {
 355              		.loc 1 233 0
 356 0018 A269     		ldr	r2, [r4, #24]
ARM GAS  C:\Users\Phuong\AppData\Local\Temp\ccjRxQwq.s 			page 16


 357 001a 6169     		ldr	r1, [r4, #20]
 358 001c FFF7FEFF 		bl	tcpsocketconnection_connect
 359              	.LVL49:
 360 0020 0028     		cmp	r0, #0
 361 0022 06D0     		beq	.L18
 235:Source\azure_iot_sdk\c-utility\adapters/socketio_mbed.c ****                 socket_io_instance->tcp_socket_connection = NULL;
 362              		.loc 1 235 0
 363 0024 2068     		ldr	r0, [r4]
 364 0026 FFF7FEFF 		bl	tcpsocketconnection_destroy
 365              	.LVL50:
 236:Source\azure_iot_sdk\c-utility\adapters/socketio_mbed.c ****                 result = __FAILURE__;
 366              		.loc 1 236 0
 367 002a 0023     		movs	r3, #0
 368 002c 2360     		str	r3, [r4]
 369              	.LVL51:
 237:Source\azure_iot_sdk\c-utility\adapters/socketio_mbed.c ****             }
 370              		.loc 1 237 0
 371 002e ED24     		movs	r4, #237
 372              	.LVL52:
 373 0030 12E0     		b	.L17
 374              	.LVL53:
 375              	.L18:
 241:Source\azure_iot_sdk\c-utility\adapters/socketio_mbed.c **** 
 376              		.loc 1 241 0
 377 0032 0022     		movs	r2, #0
 378 0034 0021     		movs	r1, #0
 379 0036 2068     		ldr	r0, [r4]
 380 0038 FFF7FEFF 		bl	tcpsocketconnection_set_blocking
 381              	.LVL54:
 243:Source\azure_iot_sdk\c-utility\adapters/socketio_mbed.c ****                 socket_io_instance->on_bytes_received_context = on_bytes_received_context;
 382              		.loc 1 243 0
 383 003c 6760     		str	r7, [r4, #4]
 244:Source\azure_iot_sdk\c-utility\adapters/socketio_mbed.c **** 
 384              		.loc 1 244 0
 385 003e 069B     		ldr	r3, [sp, #24]
 386 0040 E360     		str	r3, [r4, #12]
 246:Source\azure_iot_sdk\c-utility\adapters/socketio_mbed.c ****                 socket_io_instance->on_io_error_context = on_io_error_context;
 387              		.loc 1 246 0
 388 0042 079B     		ldr	r3, [sp, #28]
 389 0044 A360     		str	r3, [r4, #8]
 247:Source\azure_iot_sdk\c-utility\adapters/socketio_mbed.c **** 
 390              		.loc 1 247 0
 391 0046 089B     		ldr	r3, [sp, #32]
 392 0048 2361     		str	r3, [r4, #16]
 249:Source\azure_iot_sdk\c-utility\adapters/socketio_mbed.c **** 
 393              		.loc 1 249 0
 394 004a 0223     		movs	r3, #2
 395 004c 2377     		strb	r3, [r4, #28]
 396              	.LVL55:
 251:Source\azure_iot_sdk\c-utility\adapters/socketio_mbed.c ****             }
 397              		.loc 1 251 0
 398 004e 0024     		movs	r4, #0
 399              	.LVL56:
 400 0050 02E0     		b	.L17
 401              	.LVL57:
 402              	.L20:
 222:Source\azure_iot_sdk\c-utility\adapters/socketio_mbed.c ****     }
ARM GAS  C:\Users\Phuong\AppData\Local\Temp\ccjRxQwq.s 			page 17


 403              		.loc 1 222 0
 404 0052 DE24     		movs	r4, #222
 405 0054 00E0     		b	.L17
 406              	.LVL58:
 407              	.L21:
 229:Source\azure_iot_sdk\c-utility\adapters/socketio_mbed.c ****         }
 408              		.loc 1 229 0
 409 0056 E524     		movs	r4, #229
 410              	.LVL59:
 411              	.L17:
 256:Source\azure_iot_sdk\c-utility\adapters/socketio_mbed.c ****     {
 412              		.loc 1 256 0
 413 0058 002E     		cmp	r6, #0
 414 005a 05D0     		beq	.L19
 258:Source\azure_iot_sdk\c-utility\adapters/socketio_mbed.c ****     }
 415              		.loc 1 258 0
 416 005c 2100     		movs	r1, r4
 417 005e 4B1E     		subs	r3, r1, #1
 418 0060 9941     		sbcs	r1, r1, r3
 419 0062 C9B2     		uxtb	r1, r1
 420 0064 2800     		movs	r0, r5
 421 0066 B047     		blx	r6
 422              	.LVL60:
 423              	.L19:
 262:Source\azure_iot_sdk\c-utility\adapters/socketio_mbed.c **** 
 424              		.loc 1 262 0
 425 0068 2000     		movs	r0, r4
 426              		@ sp needed
 427              	.LVL61:
 428              	.LVL62:
 429              	.LVL63:
 430              	.LVL64:
 431 006a F8BD     		pop	{r3, r4, r5, r6, r7, pc}
 432              		.cfi_endproc
 433              	.LFE8:
 434              		.size	socketio_open, .-socketio_open
 435              		.section	.text.socketio_close,"ax",%progbits
 436              		.align	2
 437              		.global	socketio_close
 438              		.code	16
 439              		.thumb_func
 440              		.type	socketio_close, %function
 441              	socketio_close:
 442              	.LFB9:
 265:Source\azure_iot_sdk\c-utility\adapters/socketio_mbed.c ****     int result = 0;
 443              		.loc 1 265 0
 444              		.cfi_startproc
 445              		@ args = 0, pretend = 0, frame = 0
 446              		@ frame_needed = 0, uses_anonymous_args = 0
 447              	.LVL65:
 448 0000 70B5     		push	{r4, r5, r6, lr}
 449              		.cfi_def_cfa_offset 16
 450              		.cfi_offset 4, -16
 451              		.cfi_offset 5, -12
 452              		.cfi_offset 6, -8
 453              		.cfi_offset 14, -4
 454 0002 0400     		movs	r4, r0
ARM GAS  C:\Users\Phuong\AppData\Local\Temp\ccjRxQwq.s 			page 18


 455 0004 0D00     		movs	r5, r1
 456 0006 1600     		movs	r6, r2
 457              	.LVL66:
 268:Source\azure_iot_sdk\c-utility\adapters/socketio_mbed.c ****     {
 458              		.loc 1 268 0
 459 0008 0028     		cmp	r0, #0
 460 000a 10D0     		beq	.L24
 461              	.LVL67:
 462              	.LBB4:
 276:Source\azure_iot_sdk\c-utility\adapters/socketio_mbed.c ****             (socket_io_instance->io_state == IO_STATE_CLOSING))
 463              		.loc 1 276 0
 464 000c 037F     		ldrb	r3, [r0, #28]
 465 000e 002B     		cmp	r3, #0
 466 0010 10D0     		beq	.L25
 276:Source\azure_iot_sdk\c-utility\adapters/socketio_mbed.c ****             (socket_io_instance->io_state == IO_STATE_CLOSING))
 467              		.loc 1 276 0 is_stmt 0 discriminator 1
 468 0012 032B     		cmp	r3, #3
 469 0014 11D0     		beq	.L26
 283:Source\azure_iot_sdk\c-utility\adapters/socketio_mbed.c ****             socket_io_instance->tcp_socket_connection = NULL;
 470              		.loc 1 283 0 is_stmt 1
 471 0016 0068     		ldr	r0, [r0]
 472              	.LVL68:
 473 0018 FFF7FEFF 		bl	tcpsocketconnection_close
 474              	.LVL69:
 284:Source\azure_iot_sdk\c-utility\adapters/socketio_mbed.c ****             socket_io_instance->io_state = IO_STATE_CLOSED;
 475              		.loc 1 284 0
 476 001c 0023     		movs	r3, #0
 477 001e 2360     		str	r3, [r4]
 285:Source\azure_iot_sdk\c-utility\adapters/socketio_mbed.c **** 
 478              		.loc 1 285 0
 479 0020 2377     		strb	r3, [r4, #28]
 287:Source\azure_iot_sdk\c-utility\adapters/socketio_mbed.c ****             {
 480              		.loc 1 287 0
 481 0022 002D     		cmp	r5, #0
 482 0024 0CD0     		beq	.L27
 289:Source\azure_iot_sdk\c-utility\adapters/socketio_mbed.c ****             }
 483              		.loc 1 289 0
 484 0026 3000     		movs	r0, r6
 485 0028 A847     		blx	r5
 486              	.LVL70:
 292:Source\azure_iot_sdk\c-utility\adapters/socketio_mbed.c ****         }
 487              		.loc 1 292 0
 488 002a 0020     		movs	r0, #0
 489 002c 09E0     		b	.L23
 490              	.LVL71:
 491              	.L24:
 492              	.LBE4:
 270:Source\azure_iot_sdk\c-utility\adapters/socketio_mbed.c ****     }
 493              		.loc 1 270 0
 494 002e 8720     		movs	r0, #135
 495              	.LVL72:
 496 0030 4000     		lsls	r0, r0, #1
 497 0032 06E0     		b	.L23
 498              	.LVL73:
 499              	.L25:
 500              	.LBB5:
 279:Source\azure_iot_sdk\c-utility\adapters/socketio_mbed.c ****         }
ARM GAS  C:\Users\Phuong\AppData\Local\Temp\ccjRxQwq.s 			page 19


 501              		.loc 1 279 0
 502 0034 1820     		movs	r0, #24
 503              	.LVL74:
 504 0036 FF30     		adds	r0, r0, #255
 505 0038 03E0     		b	.L23
 506              	.LVL75:
 507              	.L26:
 508 003a 1820     		movs	r0, #24
 509              	.LVL76:
 510 003c FF30     		adds	r0, r0, #255
 511 003e 00E0     		b	.L23
 512              	.LVL77:
 513              	.L27:
 292:Source\azure_iot_sdk\c-utility\adapters/socketio_mbed.c ****         }
 514              		.loc 1 292 0
 515 0040 0020     		movs	r0, #0
 516              	.LVL78:
 517              	.L23:
 518              	.LBE5:
 297:Source\azure_iot_sdk\c-utility\adapters/socketio_mbed.c **** 
 519              		.loc 1 297 0
 520              		@ sp needed
 521              	.LVL79:
 522              	.LVL80:
 523              	.LVL81:
 524 0042 70BD     		pop	{r4, r5, r6, pc}
 525              		.cfi_endproc
 526              	.LFE9:
 527              		.size	socketio_close, .-socketio_close
 528              		.section	.text.add_pending_io,"ax",%progbits
 529              		.align	2
 530              		.code	16
 531              		.thumb_func
 532              		.type	add_pending_io, %function
 533              	add_pending_io:
 534              	.LFB5:
 100:Source\azure_iot_sdk\c-utility\adapters/socketio_mbed.c ****     int result;
 535              		.loc 1 100 0
 536              		.cfi_startproc
 537              		@ args = 4, pretend = 0, frame = 8
 538              		@ frame_needed = 0, uses_anonymous_args = 0
 539              	.LVL82:
 540 0000 F0B5     		push	{r4, r5, r6, r7, lr}
 541              		.cfi_def_cfa_offset 20
 542              		.cfi_offset 4, -20
 543              		.cfi_offset 5, -16
 544              		.cfi_offset 6, -12
 545              		.cfi_offset 7, -8
 546              		.cfi_offset 14, -4
 547 0002 83B0     		sub	sp, sp, #12
 548              		.cfi_def_cfa_offset 32
 549 0004 0600     		movs	r6, r0
 550 0006 0191     		str	r1, [sp, #4]
 551 0008 1500     		movs	r5, r2
 552 000a 1F00     		movs	r7, r3
 102:Source\azure_iot_sdk\c-utility\adapters/socketio_mbed.c ****     if (pending_socket_io == NULL)
 553              		.loc 1 102 0
ARM GAS  C:\Users\Phuong\AppData\Local\Temp\ccjRxQwq.s 			page 20


 554 000c 1420     		movs	r0, #20
 555              	.LVL83:
 556 000e FFF7FEFF 		bl	malloc
 557              	.LVL84:
 558 0012 041E     		subs	r4, r0, #0
 559              	.LVL85:
 103:Source\azure_iot_sdk\c-utility\adapters/socketio_mbed.c ****     {
 560              		.loc 1 103 0
 561 0014 22D0     		beq	.L31
 109:Source\azure_iot_sdk\c-utility\adapters/socketio_mbed.c ****         if (pending_socket_io->bytes == NULL)
 562              		.loc 1 109 0
 563 0016 2800     		movs	r0, r5
 564              	.LVL86:
 565 0018 FFF7FEFF 		bl	malloc
 566              	.LVL87:
 567 001c 2060     		str	r0, [r4]
 110:Source\azure_iot_sdk\c-utility\adapters/socketio_mbed.c ****         {
 568              		.loc 1 110 0
 569 001e 0028     		cmp	r0, #0
 570 0020 04D1     		bne	.L30
 112:Source\azure_iot_sdk\c-utility\adapters/socketio_mbed.c ****             result = __FAILURE__;
 571              		.loc 1 112 0
 572 0022 2000     		movs	r0, r4
 573 0024 FFF7FEFF 		bl	free
 574              	.LVL88:
 113:Source\azure_iot_sdk\c-utility\adapters/socketio_mbed.c ****         }
 575              		.loc 1 113 0
 576 0028 7120     		movs	r0, #113
 577 002a 1AE0     		b	.L29
 578              	.LVL89:
 579              	.L30:
 117:Source\azure_iot_sdk\c-utility\adapters/socketio_mbed.c ****             pending_socket_io->on_send_complete = on_send_complete;
 580              		.loc 1 117 0
 581 002c 6560     		str	r5, [r4, #4]
 118:Source\azure_iot_sdk\c-utility\adapters/socketio_mbed.c ****             pending_socket_io->callback_context = callback_context;
 582              		.loc 1 118 0
 583 002e A760     		str	r7, [r4, #8]
 119:Source\azure_iot_sdk\c-utility\adapters/socketio_mbed.c ****             pending_socket_io->pending_io_list = socket_io_instance->pending_io_list;
 584              		.loc 1 119 0
 585 0030 089B     		ldr	r3, [sp, #32]
 586 0032 E360     		str	r3, [r4, #12]
 120:Source\azure_iot_sdk\c-utility\adapters/socketio_mbed.c ****             (void)memcpy(pending_socket_io->bytes, buffer, size);
 587              		.loc 1 120 0
 588 0034 336A     		ldr	r3, [r6, #32]
 589 0036 2361     		str	r3, [r4, #16]
 121:Source\azure_iot_sdk\c-utility\adapters/socketio_mbed.c **** 
 590              		.loc 1 121 0
 591 0038 2A00     		movs	r2, r5
 592 003a 0199     		ldr	r1, [sp, #4]
 593 003c FFF7FEFF 		bl	memcpy
 594              	.LVL90:
 123:Source\azure_iot_sdk\c-utility\adapters/socketio_mbed.c ****             {
 595              		.loc 1 123 0
 596 0040 306A     		ldr	r0, [r6, #32]
 597 0042 2100     		movs	r1, r4
 598 0044 FFF7FEFF 		bl	singlylinkedlist_add
 599              	.LVL91:
ARM GAS  C:\Users\Phuong\AppData\Local\Temp\ccjRxQwq.s 			page 21


 600 0048 0028     		cmp	r0, #0
 601 004a 09D1     		bne	.L32
 125:Source\azure_iot_sdk\c-utility\adapters/socketio_mbed.c ****                 free(pending_socket_io);
 602              		.loc 1 125 0
 603 004c 2068     		ldr	r0, [r4]
 604 004e FFF7FEFF 		bl	free
 605              	.LVL92:
 126:Source\azure_iot_sdk\c-utility\adapters/socketio_mbed.c ****                 result = __FAILURE__;
 606              		.loc 1 126 0
 607 0052 2000     		movs	r0, r4
 608 0054 FFF7FEFF 		bl	free
 609              	.LVL93:
 127:Source\azure_iot_sdk\c-utility\adapters/socketio_mbed.c ****             }
 610              		.loc 1 127 0
 611 0058 7F20     		movs	r0, #127
 612 005a 02E0     		b	.L29
 613              	.LVL94:
 614              	.L31:
 105:Source\azure_iot_sdk\c-utility\adapters/socketio_mbed.c ****     }
 615              		.loc 1 105 0
 616 005c 6920     		movs	r0, #105
 617              	.LVL95:
 618 005e 00E0     		b	.L29
 619              	.L32:
 131:Source\azure_iot_sdk\c-utility\adapters/socketio_mbed.c ****             }
 620              		.loc 1 131 0
 621 0060 0020     		movs	r0, #0
 622              	.L29:
 623              	.LVL96:
 137:Source\azure_iot_sdk\c-utility\adapters/socketio_mbed.c **** 
 624              		.loc 1 137 0
 625 0062 03B0     		add	sp, sp, #12
 626              		@ sp needed
 627              	.LVL97:
 628              	.LVL98:
 629              	.LVL99:
 630              	.LVL100:
 631 0064 F0BD     		pop	{r4, r5, r6, r7, pc}
 632              		.cfi_endproc
 633              	.LFE5:
 634              		.size	add_pending_io, .-add_pending_io
 635 0066 C046     		.section	.text.socketio_send,"ax",%progbits
 636              		.align	2
 637              		.global	socketio_send
 638              		.code	16
 639              		.thumb_func
 640              		.type	socketio_send, %function
 641              	socketio_send:
 642              	.LFB10:
 300:Source\azure_iot_sdk\c-utility\adapters/socketio_mbed.c ****     int result;
 643              		.loc 1 300 0
 644              		.cfi_startproc
 645              		@ args = 4, pretend = 0, frame = 0
 646              		@ frame_needed = 0, uses_anonymous_args = 0
 647              	.LVL101:
 648 0000 F0B5     		push	{r4, r5, r6, r7, lr}
 649              		.cfi_def_cfa_offset 20
ARM GAS  C:\Users\Phuong\AppData\Local\Temp\ccjRxQwq.s 			page 22


 650              		.cfi_offset 4, -20
 651              		.cfi_offset 5, -16
 652              		.cfi_offset 6, -12
 653              		.cfi_offset 7, -8
 654              		.cfi_offset 14, -4
 655 0002 83B0     		sub	sp, sp, #12
 656              		.cfi_def_cfa_offset 32
 657 0004 0400     		movs	r4, r0
 658 0006 0D00     		movs	r5, r1
 659 0008 1600     		movs	r6, r2
 660 000a 1F00     		movs	r7, r3
 303:Source\azure_iot_sdk\c-utility\adapters/socketio_mbed.c ****         (buffer == NULL) ||
 661              		.loc 1 303 0
 662 000c 0028     		cmp	r0, #0
 663 000e 36D0     		beq	.L38
 303:Source\azure_iot_sdk\c-utility\adapters/socketio_mbed.c ****         (buffer == NULL) ||
 664              		.loc 1 303 0 is_stmt 0 discriminator 1
 665 0010 0029     		cmp	r1, #0
 666 0012 37D0     		beq	.L39
 304:Source\azure_iot_sdk\c-utility\adapters/socketio_mbed.c ****         (size == 0))
 667              		.loc 1 304 0 is_stmt 1
 668 0014 002A     		cmp	r2, #0
 669 0016 38D0     		beq	.L40
 670              	.LVL102:
 671              	.LBB6:
 313:Source\azure_iot_sdk\c-utility\adapters/socketio_mbed.c ****         {
 672              		.loc 1 313 0
 673 0018 037F     		ldrb	r3, [r0, #28]
 674              	.LVL103:
 675 001a 022B     		cmp	r3, #2
 676 001c 38D1     		bne	.L41
 677              	.LBB7:
 319:Source\azure_iot_sdk\c-utility\adapters/socketio_mbed.c ****             if (first_pending_io != NULL)
 678              		.loc 1 319 0
 679 001e 006A     		ldr	r0, [r0, #32]
 680              	.LVL104:
 681 0020 FFF7FEFF 		bl	singlylinkedlist_get_head_item
 682              	.LVL105:
 320:Source\azure_iot_sdk\c-utility\adapters/socketio_mbed.c ****             {
 683              		.loc 1 320 0
 684 0024 0028     		cmp	r0, #0
 685 0026 0CD0     		beq	.L35
 322:Source\azure_iot_sdk\c-utility\adapters/socketio_mbed.c ****                 {
 686              		.loc 1 322 0
 687 0028 089B     		ldr	r3, [sp, #32]
 688 002a 0093     		str	r3, [sp]
 689 002c 3B00     		movs	r3, r7
 690 002e 3200     		movs	r2, r6
 691 0030 2900     		movs	r1, r5
 692 0032 2000     		movs	r0, r4
 693              	.LVL106:
 694 0034 FFF7FEFF 		bl	add_pending_io
 695              	.LVL107:
 696 0038 0028     		cmp	r0, #0
 697 003a 2CD0     		beq	.L42
 324:Source\azure_iot_sdk\c-utility\adapters/socketio_mbed.c ****                 }
 698              		.loc 1 324 0
ARM GAS  C:\Users\Phuong\AppData\Local\Temp\ccjRxQwq.s 			page 23


 699 003c A220     		movs	r0, #162
 700 003e 4000     		lsls	r0, r0, #1
 701 0040 2EE0     		b	.L34
 702              	.LVL108:
 703              	.L35:
 704              	.LBB8:
 333:Source\azure_iot_sdk\c-utility\adapters/socketio_mbed.c ****                 if (send_result != size)
 705              		.loc 1 333 0
 706 0042 3200     		movs	r2, r6
 707 0044 2900     		movs	r1, r5
 708 0046 2068     		ldr	r0, [r4]
 709              	.LVL109:
 710 0048 FFF7FEFF 		bl	tcpsocketconnection_send
 711              	.LVL110:
 334:Source\azure_iot_sdk\c-utility\adapters/socketio_mbed.c ****                 {
 712              		.loc 1 334 0
 713 004c 8642     		cmp	r6, r0
 714 004e 0FD0     		beq	.L36
 336:Source\azure_iot_sdk\c-utility\adapters/socketio_mbed.c ****                     {
 715              		.loc 1 336 0
 716 0050 0028     		cmp	r0, #0
 717 0052 00DA     		bge	.L37
 338:Source\azure_iot_sdk\c-utility\adapters/socketio_mbed.c ****                     }
 718              		.loc 1 338 0
 719 0054 0020     		movs	r0, #0
 720              	.LVL111:
 721              	.L37:
 342:Source\azure_iot_sdk\c-utility\adapters/socketio_mbed.c ****                     {
 722              		.loc 1 342 0
 723 0056 321A     		subs	r2, r6, r0
 724 0058 2918     		adds	r1, r5, r0
 725 005a 089B     		ldr	r3, [sp, #32]
 726 005c 0093     		str	r3, [sp]
 727 005e 3B00     		movs	r3, r7
 728 0060 2000     		movs	r0, r4
 729              	.LVL112:
 730 0062 FFF7FEFF 		bl	add_pending_io
 731              	.LVL113:
 732 0066 0028     		cmp	r0, #0
 733 0068 17D0     		beq	.L44
 344:Source\azure_iot_sdk\c-utility\adapters/socketio_mbed.c ****                     }
 734              		.loc 1 344 0
 735 006a AC20     		movs	r0, #172
 736 006c 4000     		lsls	r0, r0, #1
 737 006e 17E0     		b	.L34
 738              	.LVL114:
 739              	.L36:
 353:Source\azure_iot_sdk\c-utility\adapters/socketio_mbed.c ****                     {
 740              		.loc 1 353 0
 741 0070 002F     		cmp	r7, #0
 742 0072 14D0     		beq	.L45
 355:Source\azure_iot_sdk\c-utility\adapters/socketio_mbed.c ****                     }
 743              		.loc 1 355 0
 744 0074 0021     		movs	r1, #0
 745 0076 0898     		ldr	r0, [sp, #32]
 746              	.LVL115:
 747 0078 B847     		blx	r7
ARM GAS  C:\Users\Phuong\AppData\Local\Temp\ccjRxQwq.s 			page 24


 748              	.LVL116:
 358:Source\azure_iot_sdk\c-utility\adapters/socketio_mbed.c ****                 }
 749              		.loc 1 358 0
 750 007a 0020     		movs	r0, #0
 751 007c 10E0     		b	.L34
 752              	.LVL117:
 753              	.L38:
 754              	.LBE8:
 755              	.LBE7:
 756              	.LBE6:
 308:Source\azure_iot_sdk\c-utility\adapters/socketio_mbed.c ****     }
 757              		.loc 1 308 0
 758 007e 9A20     		movs	r0, #154
 759              	.LVL118:
 760 0080 4000     		lsls	r0, r0, #1
 761 0082 0DE0     		b	.L34
 762              	.LVL119:
 763              	.L39:
 764 0084 9A20     		movs	r0, #154
 765              	.LVL120:
 766 0086 4000     		lsls	r0, r0, #1
 767 0088 0AE0     		b	.L34
 768              	.LVL121:
 769              	.L40:
 770 008a 9A20     		movs	r0, #154
 771              	.LVL122:
 772 008c 4000     		lsls	r0, r0, #1
 773 008e 07E0     		b	.L34
 774              	.LVL123:
 775              	.L41:
 776              	.LBB11:
 315:Source\azure_iot_sdk\c-utility\adapters/socketio_mbed.c ****         }
 777              		.loc 1 315 0
 778 0090 3C20     		movs	r0, #60
 779              	.LVL124:
 780 0092 FF30     		adds	r0, r0, #255
 781 0094 04E0     		b	.L34
 782              	.LVL125:
 783              	.L42:
 784              	.LBB10:
 328:Source\azure_iot_sdk\c-utility\adapters/socketio_mbed.c ****                 }
 785              		.loc 1 328 0
 786 0096 0020     		movs	r0, #0
 787 0098 02E0     		b	.L34
 788              	.L44:
 789              	.LBB9:
 348:Source\azure_iot_sdk\c-utility\adapters/socketio_mbed.c ****                     }
 790              		.loc 1 348 0
 791 009a 0020     		movs	r0, #0
 792 009c 00E0     		b	.L34
 793              	.LVL126:
 794              	.L45:
 358:Source\azure_iot_sdk\c-utility\adapters/socketio_mbed.c ****                 }
 795              		.loc 1 358 0
 796 009e 0020     		movs	r0, #0
 797              	.LVL127:
 798              	.L34:
ARM GAS  C:\Users\Phuong\AppData\Local\Temp\ccjRxQwq.s 			page 25


 799              	.LBE9:
 800              	.LBE10:
 801              	.LBE11:
 365:Source\azure_iot_sdk\c-utility\adapters/socketio_mbed.c **** 
 802              		.loc 1 365 0
 803 00a0 03B0     		add	sp, sp, #12
 804              		@ sp needed
 805              	.LVL128:
 806              	.LVL129:
 807              	.LVL130:
 808              	.LVL131:
 809 00a2 F0BD     		pop	{r4, r5, r6, r7, pc}
 810              		.cfi_endproc
 811              	.LFE10:
 812              		.size	socketio_send, .-socketio_send
 813              		.section	.text.socketio_dowork,"ax",%progbits
 814              		.align	2
 815              		.global	socketio_dowork
 816              		.code	16
 817              		.thumb_func
 818              		.type	socketio_dowork, %function
 819              	socketio_dowork:
 820              	.LFB11:
 368:Source\azure_iot_sdk\c-utility\adapters/socketio_mbed.c ****     if (socket_io != NULL)
 821              		.loc 1 368 0
 822              		.cfi_startproc
 823              		@ args = 0, pretend = 0, frame = 0
 824              		@ frame_needed = 0, uses_anonymous_args = 0
 825              	.LVL132:
 826 0000 70B5     		push	{r4, r5, r6, lr}
 827              		.cfi_def_cfa_offset 16
 828              		.cfi_offset 4, -16
 829              		.cfi_offset 5, -12
 830              		.cfi_offset 6, -8
 831              		.cfi_offset 14, -4
 832 0002 82B0     		sub	sp, sp, #8
 833              		.cfi_def_cfa_offset 24
 834 0004 051E     		subs	r5, r0, #0
 369:Source\azure_iot_sdk\c-utility\adapters/socketio_mbed.c ****     {
 835              		.loc 1 369 0
 836 0006 74D0     		beq	.L46
 837              	.LVL133:
 838              	.LBB12:
 372:Source\azure_iot_sdk\c-utility\adapters/socketio_mbed.c ****         {
 839              		.loc 1 372 0
 840 0008 037F     		ldrb	r3, [r0, #28]
 841 000a 022B     		cmp	r3, #2
 842 000c 71D1     		bne	.L46
 843              	.LVL134:
 844              	.LBB13:
 376:Source\azure_iot_sdk\c-utility\adapters/socketio_mbed.c ****             while (first_pending_io != NULL)
 845              		.loc 1 376 0
 846 000e 006A     		ldr	r0, [r0, #32]
 847              	.LVL135:
 848 0010 FFF7FEFF 		bl	singlylinkedlist_get_head_item
 849              	.LVL136:
 850 0014 0600     		movs	r6, r0
ARM GAS  C:\Users\Phuong\AppData\Local\Temp\ccjRxQwq.s 			page 26


 851              	.LVL137:
 377:Source\azure_iot_sdk\c-utility\adapters/socketio_mbed.c ****             {
 852              		.loc 1 377 0
 853 0016 3FE0     		b	.L48
 854              	.L56:
 855              	.LBB14:
 379:Source\azure_iot_sdk\c-utility\adapters/socketio_mbed.c ****                 if (pending_socket_io == NULL)
 856              		.loc 1 379 0
 857 0018 3000     		movs	r0, r6
 858              	.LVL138:
 859 001a FFF7FEFF 		bl	singlylinkedlist_item_get_value
 860              	.LVL139:
 861 001e 041E     		subs	r4, r0, #0
 862              	.LVL140:
 380:Source\azure_iot_sdk\c-utility\adapters/socketio_mbed.c ****                 {
 863              		.loc 1 380 0
 864 0020 06D1     		bne	.L49
 382:Source\azure_iot_sdk\c-utility\adapters/socketio_mbed.c ****                     indicate_error(socket_io_instance);
 865              		.loc 1 382 0
 866 0022 0423     		movs	r3, #4
 867 0024 2B77     		strb	r3, [r5, #28]
 383:Source\azure_iot_sdk\c-utility\adapters/socketio_mbed.c ****                     break;
 868              		.loc 1 383 0
 869 0026 2800     		movs	r0, r5
 870              	.LVL141:
 871 0028 FFF7FEFF 		bl	indicate_error
 872              	.LVL142:
 873              	.L53:
 874              	.LBE14:
 875              	.LBE13:
 876              	.LBE12:
 368:Source\azure_iot_sdk\c-utility\adapters/socketio_mbed.c ****     if (socket_io != NULL)
 877              		.loc 1 368 0
 878 002c 0126     		movs	r6, #1
 879              	.LVL143:
 880 002e 5EE0     		b	.L50
 881              	.LVL144:
 882              	.L49:
 883              	.LBB19:
 884              	.LBB18:
 885              	.LBB15:
 387:Source\azure_iot_sdk\c-utility\adapters/socketio_mbed.c ****                 if (send_result != pending_socket_io->size)
 886              		.loc 1 387 0
 887 0030 4268     		ldr	r2, [r0, #4]
 888 0032 0168     		ldr	r1, [r0]
 889 0034 2868     		ldr	r0, [r5]
 890              	.LVL145:
 891 0036 FFF7FEFF 		bl	tcpsocketconnection_send
 892              	.LVL146:
 388:Source\azure_iot_sdk\c-utility\adapters/socketio_mbed.c ****                 {
 893              		.loc 1 388 0
 894 003a 6268     		ldr	r2, [r4, #4]
 895 003c 8242     		cmp	r2, r0
 896 003e 10D0     		beq	.L51
 390:Source\azure_iot_sdk\c-utility\adapters/socketio_mbed.c ****                     {
 897              		.loc 1 390 0
 898 0040 0028     		cmp	r0, #0
ARM GAS  C:\Users\Phuong\AppData\Local\Temp\ccjRxQwq.s 			page 27


 899 0042 07DA     		bge	.L52
 392:Source\azure_iot_sdk\c-utility\adapters/socketio_mbed.c ****                         {
 900              		.loc 1 392 0
 901 0044 831C     		adds	r3, r0, #2
 902 0046 F1DA     		bge	.L53
 395:Source\azure_iot_sdk\c-utility\adapters/socketio_mbed.c ****                             indicate_error(socket_io_instance);
 903              		.loc 1 395 0
 904 0048 0423     		movs	r3, #4
 905 004a 2B77     		strb	r3, [r5, #28]
 396:Source\azure_iot_sdk\c-utility\adapters/socketio_mbed.c ****                         }
 906              		.loc 1 396 0
 907 004c 2800     		movs	r0, r5
 908              	.LVL147:
 909 004e FFF7FEFF 		bl	indicate_error
 910              	.LVL148:
 911 0052 EBE7     		b	.L53
 912              	.LVL149:
 913              	.L52:
 403:Source\azure_iot_sdk\c-utility\adapters/socketio_mbed.c ****                     }
 914              		.loc 1 403 0
 915 0054 2368     		ldr	r3, [r4]
 916 0056 1918     		adds	r1, r3, r0
 917 0058 121A     		subs	r2, r2, r0
 918 005a 1800     		movs	r0, r3
 919              	.LVL150:
 920 005c FFF7FEFF 		bl	memmove
 921              	.LVL151:
 922 0060 16E0     		b	.L54
 923              	.LVL152:
 924              	.L51:
 408:Source\azure_iot_sdk\c-utility\adapters/socketio_mbed.c ****                     {
 925              		.loc 1 408 0
 926 0062 A368     		ldr	r3, [r4, #8]
 927 0064 002B     		cmp	r3, #0
 928 0066 02D0     		beq	.L55
 410:Source\azure_iot_sdk\c-utility\adapters/socketio_mbed.c ****                     }
 929              		.loc 1 410 0
 930 0068 0021     		movs	r1, #0
 931 006a E068     		ldr	r0, [r4, #12]
 932              	.LVL153:
 933 006c 9847     		blx	r3
 934              	.LVL154:
 935              	.L55:
 413:Source\azure_iot_sdk\c-utility\adapters/socketio_mbed.c ****                     free(pending_socket_io);
 936              		.loc 1 413 0
 937 006e 2068     		ldr	r0, [r4]
 938 0070 FFF7FEFF 		bl	free
 939              	.LVL155:
 414:Source\azure_iot_sdk\c-utility\adapters/socketio_mbed.c ****                     if (singlylinkedlist_remove(socket_io_instance->pending_io_list, first_pending_
 940              		.loc 1 414 0
 941 0074 2000     		movs	r0, r4
 942 0076 FFF7FEFF 		bl	free
 943              	.LVL156:
 415:Source\azure_iot_sdk\c-utility\adapters/socketio_mbed.c ****                     {
 944              		.loc 1 415 0
 945 007a 3100     		movs	r1, r6
 946 007c 286A     		ldr	r0, [r5, #32]
ARM GAS  C:\Users\Phuong\AppData\Local\Temp\ccjRxQwq.s 			page 28


 947 007e FFF7FEFF 		bl	singlylinkedlist_remove
 948              	.LVL157:
 949 0082 0028     		cmp	r0, #0
 950 0084 04D0     		beq	.L54
 417:Source\azure_iot_sdk\c-utility\adapters/socketio_mbed.c ****                         indicate_error(socket_io_instance);
 951              		.loc 1 417 0
 952 0086 0423     		movs	r3, #4
 953 0088 2B77     		strb	r3, [r5, #28]
 418:Source\azure_iot_sdk\c-utility\adapters/socketio_mbed.c ****                     }
 954              		.loc 1 418 0
 955 008a 2800     		movs	r0, r5
 956 008c FFF7FEFF 		bl	indicate_error
 957              	.LVL158:
 958              	.L54:
 422:Source\azure_iot_sdk\c-utility\adapters/socketio_mbed.c ****             }
 959              		.loc 1 422 0
 960 0090 286A     		ldr	r0, [r5, #32]
 961 0092 FFF7FEFF 		bl	singlylinkedlist_get_head_item
 962              	.LVL159:
 963 0096 0600     		movs	r6, r0
 964              	.LVL160:
 965              	.L48:
 966              	.LBE15:
 377:Source\azure_iot_sdk\c-utility\adapters/socketio_mbed.c ****             {
 967              		.loc 1 377 0
 968 0098 002E     		cmp	r6, #0
 969 009a BDD1     		bne	.L56
 970 009c C6E7     		b	.L53
 971              	.LVL161:
 972              	.L61:
 973              	.LBB16:
 427:Source\azure_iot_sdk\c-utility\adapters/socketio_mbed.c ****                 if (recv_bytes == NULL)
 974              		.loc 1 427 0
 975 009e 8020     		movs	r0, #128
 976 00a0 FFF7FEFF 		bl	malloc
 977              	.LVL162:
 978 00a4 041E     		subs	r4, r0, #0
 979              	.LVL163:
 428:Source\azure_iot_sdk\c-utility\adapters/socketio_mbed.c ****                 {
 980              		.loc 1 428 0
 981 00a6 11D1     		bne	.L57
 982              	.LBB17:
 430:Source\azure_iot_sdk\c-utility\adapters/socketio_mbed.c ****                     indicate_error(socket_io_instance);
 983              		.loc 1 430 0 discriminator 3
 984 00a8 FFF7FEFF 		bl	xlogging_get_log_function
 985              	.LVL164:
 986 00ac 041E     		subs	r4, r0, #0
 987              	.LVL165:
 988 00ae 09D0     		beq	.L58
 430:Source\azure_iot_sdk\c-utility\adapters/socketio_mbed.c ****                     indicate_error(socket_io_instance);
 989              		.loc 1 430 0 is_stmt 0 discriminator 4
 990 00b0 114B     		ldr	r3, .L62
 991 00b2 0193     		str	r3, [sp, #4]
 992 00b4 0123     		movs	r3, #1
 993 00b6 0093     		str	r3, [sp]
 994 00b8 AE33     		adds	r3, r3, #174
 995 00ba FF33     		adds	r3, r3, #255
ARM GAS  C:\Users\Phuong\AppData\Local\Temp\ccjRxQwq.s 			page 29


 996 00bc 0F4A     		ldr	r2, .L62+4
 997 00be 1049     		ldr	r1, .L62+8
 998 00c0 0020     		movs	r0, #0
 999              	.LVL166:
 1000 00c2 A047     		blx	r4
 1001              	.LVL167:
 1002              	.L58:
 1003              	.LBE17:
 431:Source\azure_iot_sdk\c-utility\adapters/socketio_mbed.c ****                 }
 1004              		.loc 1 431 0 is_stmt 1
 1005 00c4 2800     		movs	r0, r5
 1006 00c6 FFF7FEFF 		bl	indicate_error
 1007              	.LVL168:
 1008 00ca 10E0     		b	.L50
 1009              	.LVL169:
 1010              	.L57:
 435:Source\azure_iot_sdk\c-utility\adapters/socketio_mbed.c ****                     if (received > 0)
 1011              		.loc 1 435 0
 1012 00cc 8022     		movs	r2, #128
 1013 00ce 0100     		movs	r1, r0
 1014 00d0 2868     		ldr	r0, [r5]
 1015              	.LVL170:
 1016 00d2 FFF7FEFF 		bl	tcpsocketconnection_receive
 1017              	.LVL171:
 1018 00d6 061E     		subs	r6, r0, #0
 1019              	.LVL172:
 436:Source\azure_iot_sdk\c-utility\adapters/socketio_mbed.c ****                     {
 1020              		.loc 1 436 0
 1021 00d8 06DD     		ble	.L60
 438:Source\azure_iot_sdk\c-utility\adapters/socketio_mbed.c ****                         {
 1022              		.loc 1 438 0
 1023 00da 6B68     		ldr	r3, [r5, #4]
 1024 00dc 002B     		cmp	r3, #0
 1025 00de 03D0     		beq	.L60
 441:Source\azure_iot_sdk\c-utility\adapters/socketio_mbed.c ****                         }
 1026              		.loc 1 441 0
 1027 00e0 0200     		movs	r2, r0
 1028 00e2 2100     		movs	r1, r4
 1029 00e4 E868     		ldr	r0, [r5, #12]
 1030              	.LVL173:
 1031 00e6 9847     		blx	r3
 1032              	.LVL174:
 1033              	.L60:
 444:Source\azure_iot_sdk\c-utility\adapters/socketio_mbed.c ****                 }
 1034              		.loc 1 444 0
 1035 00e8 2000     		movs	r0, r4
 1036 00ea FFF7FEFF 		bl	free
 1037              	.LVL175:
 1038              	.L50:
 1039              	.LBE16:
 425:Source\azure_iot_sdk\c-utility\adapters/socketio_mbed.c ****             {
 1040              		.loc 1 425 0
 1041 00ee 002E     		cmp	r6, #0
 1042 00f0 D5DC     		bgt	.L61
 1043              	.LVL176:
 1044              	.L46:
 1045              	.LBE18:
ARM GAS  C:\Users\Phuong\AppData\Local\Temp\ccjRxQwq.s 			page 30


 1046              	.LBE19:
 449:Source\azure_iot_sdk\c-utility\adapters/socketio_mbed.c **** 
 1047              		.loc 1 449 0
 1048 00f2 02B0     		add	sp, sp, #8
 1049              		@ sp needed
 1050              	.LVL177:
 1051 00f4 70BD     		pop	{r4, r5, r6, pc}
 1052              	.L63:
 1053 00f6 C046     		.align	2
 1054              	.L62:
 1055 00f8 38000000 		.word	.LC3
 1056 00fc 00000000 		.word	.LANCHOR0
 1057 0100 00000000 		.word	.LC1
 1058              		.cfi_endproc
 1059              	.LFE11:
 1060              		.size	socketio_dowork, .-socketio_dowork
 1061              		.section	.text.socketio_retrieveoptions,"ax",%progbits
 1062              		.align	2
 1063              		.code	16
 1064              		.thumb_func
 1065              		.type	socketio_retrieveoptions, %function
 1066              	socketio_retrieveoptions:
 1067              	.LFB3:
  64:Source\azure_iot_sdk\c-utility\adapters/socketio_mbed.c ****     OPTIONHANDLER_HANDLE result;
 1068              		.loc 1 64 0
 1069              		.cfi_startproc
 1070              		@ args = 0, pretend = 0, frame = 0
 1071              		@ frame_needed = 0, uses_anonymous_args = 0
 1072              	.LVL178:
 1073 0000 10B5     		push	{r4, lr}
 1074              		.cfi_def_cfa_offset 8
 1075              		.cfi_offset 4, -8
 1076              		.cfi_offset 14, -4
  67:Source\azure_iot_sdk\c-utility\adapters/socketio_mbed.c ****     if (result == NULL)
 1077              		.loc 1 67 0
 1078 0002 034A     		ldr	r2, .L65
 1079 0004 0349     		ldr	r1, .L65+4
 1080 0006 0448     		ldr	r0, .L65+8
 1081              	.LVL179:
 1082 0008 FFF7FEFF 		bl	OptionHandler_Create
 1083              	.LVL180:
  77:Source\azure_iot_sdk\c-utility\adapters/socketio_mbed.c **** 
 1084              		.loc 1 77 0
 1085              		@ sp needed
 1086 000c 10BD     		pop	{r4, pc}
 1087              	.L66:
 1088 000e C046     		.align	2
 1089              	.L65:
 1090 0010 00000000 		.word	socketio_setoption
 1091 0014 00000000 		.word	socketio_DestroyOption
 1092 0018 00000000 		.word	socketio_CloneOption
 1093              		.cfi_endproc
 1094              	.LFE3:
 1095              		.size	socketio_retrieveoptions, .-socketio_retrieveoptions
 1096              		.section	.text.socketio_get_interface_description,"ax",%progbits
 1097              		.align	2
 1098              		.global	socketio_get_interface_description
ARM GAS  C:\Users\Phuong\AppData\Local\Temp\ccjRxQwq.s 			page 31


 1099              		.code	16
 1100              		.thumb_func
 1101              		.type	socketio_get_interface_description, %function
 1102              	socketio_get_interface_description:
 1103              	.LFB13:
 456:Source\azure_iot_sdk\c-utility\adapters/socketio_mbed.c **** 
 457:Source\azure_iot_sdk\c-utility\adapters/socketio_mbed.c **** const IO_INTERFACE_DESCRIPTION* socketio_get_interface_description(void)
 458:Source\azure_iot_sdk\c-utility\adapters/socketio_mbed.c **** {
 1104              		.loc 1 458 0
 1105              		.cfi_startproc
 1106              		@ args = 0, pretend = 0, frame = 0
 1107              		@ frame_needed = 0, uses_anonymous_args = 0
 1108              		@ link register save eliminated.
 459:Source\azure_iot_sdk\c-utility\adapters/socketio_mbed.c ****     return &socket_io_interface_description;
 1109              		.loc 1 459 0
 1110 0000 0148     		ldr	r0, .L68
 460:Source\azure_iot_sdk\c-utility\adapters/socketio_mbed.c **** }
 1111              		.loc 1 460 0
 1112 0002 1030     		adds	r0, r0, #16
 1113              		@ sp needed
 1114 0004 7047     		bx	lr
 1115              	.L69:
 1116 0006 C046     		.align	2
 1117              	.L68:
 1118 0008 00000000 		.word	.LANCHOR0
 1119              		.cfi_endproc
 1120              	.LFE13:
 1121              		.size	socketio_get_interface_description, .-socketio_get_interface_description
 1122              		.section	.rodata
 1123              		.align	2
 1124              		.set	.LANCHOR0,. + 0
 1125              		.type	__func__.6199, %object
 1126              		.size	__func__.6199, 16
 1127              	__func__.6199:
 1128 0000 736F636B 		.ascii	"socketio_dowork\000"
 1128      6574696F 
 1128      5F646F77 
 1128      6F726B00 
 1129              		.type	socket_io_interface_description, %object
 1130              		.size	socket_io_interface_description, 32
 1131              	socket_io_interface_description:
 1132 0010 00000000 		.word	socketio_retrieveoptions
 1133 0014 00000000 		.word	socketio_create
 1134 0018 00000000 		.word	socketio_destroy
 1135 001c 00000000 		.word	socketio_open
 1136 0020 00000000 		.word	socketio_close
 1137 0024 00000000 		.word	socketio_send
 1138 0028 00000000 		.word	socketio_dowork
 1139 002c 00000000 		.word	socketio_setoption
 1140              		.section	.rodata.str1.4,"aMS",%progbits,1
 1141              		.align	2
 1142              	.LC1:
 1143 0000 536F7572 		.ascii	"Source\\azure_iot_sdk\\c-utility\\adapters\\socketi"
 1143      63655C61 
 1143      7A757265 
 1143      5F696F74 
 1143      5F73646B 
ARM GAS  C:\Users\Phuong\AppData\Local\Temp\ccjRxQwq.s 			page 32


 1144 002f 6F5F6D62 		.ascii	"o_mbed.c\000"
 1144      65642E63 
 1144      00
 1145              	.LC3:
 1146 0038 536F636B 		.ascii	"Socketio_Failure: NULL allocating input buffer.\000"
 1146      6574696F 
 1146      5F466169 
 1146      6C757265 
 1146      3A204E55 
 1147              		.text
 1148              	.Letext0:
 1149              		.file 2 "c:\\program files (x86)\\cypress\\psoc creator\\4.2\\psoc creator\\import\\gnu\\arm\\5.4.
 1150              		.file 3 ".\\Source\\azure_iot_sdk\\c-utility\\inc/azure_c_shared_utility/optionhandler.h"
 1151              		.file 4 ".\\Source\\azure_iot_sdk\\c-utility\\inc/azure_c_shared_utility/xio.h"
 1152              		.file 5 ".\\Source\\azure_iot_sdk\\c-utility\\inc/azure_c_shared_utility/xlogging.h"
 1153              		.file 6 ".\\Source\\azure_iot_sdk\\c-utility\\inc/azure_c_shared_utility/socketio.h"
 1154              		.file 7 ".\\Source\\azure_iot_sdk\\c-utility\\inc/azure_c_shared_utility/singlylinkedlist.h"
 1155              		.file 8 ".\\Source\\azure_iot_sdk\\c-utility\\inc/azure_c_shared_utility/tcpsocketconnection_c.h"
 1156              		.file 9 "c:\\program files (x86)\\cypress\\psoc creator\\4.2\\psoc creator\\import\\gnu\\arm\\5.4.
 1157              		.file 10 "c:\\program files (x86)\\cypress\\psoc creator\\4.2\\psoc creator\\import\\gnu\\arm\\5.4