ARM GAS  C:\Users\Phuong\AppData\Local\Temp\cc0Oog1P.s 			page 1


   1              		.syntax unified
   2              		.cpu cortex-m0plus
   3              		.fpu softvfp
   4              		.eabi_attribute 20, 1
   5              		.eabi_attribute 21, 1
   6              		.eabi_attribute 23, 3
   7              		.eabi_attribute 24, 1
   8              		.eabi_attribute 25, 1
   9              		.eabi_attribute 26, 1
  10              		.eabi_attribute 30, 1
  11              		.eabi_attribute 34, 0
  12              		.eabi_attribute 18, 4
  13              		.thumb
  14              		.syntax unified
  15              		.file	"Socket.cpp"
  16              		.text
  17              	.Ltext0:
  18              		.cfi_sections	.debug_frame
  19              		.section	.text._ZN6SocketC2Ev,"ax",%progbits
  20              		.align	2
  21              		.global	_ZN6SocketC2Ev
  22              		.code	16
  23              		.thumb_func
  24              		.type	_ZN6SocketC2Ev, %function
  25              	_ZN6SocketC2Ev:
  26              	.LFB61:
  27              		.file 1 "Source\\azure_iot_sdk\\c-utility\\Socket\\src\\Socket.cpp"
   1:Source\azure_iot_sdk\c-utility\Socket\src/Socket.cpp **** /* Copyright (C) 2012 mbed.org, MIT License
   2:Source\azure_iot_sdk\c-utility\Socket\src/Socket.cpp ****  *
   3:Source\azure_iot_sdk\c-utility\Socket\src/Socket.cpp ****  * Permission is hereby granted, free of charge, to any person obtaining a copy of this software
   4:Source\azure_iot_sdk\c-utility\Socket\src/Socket.cpp ****  * and associated documentation files (the "Software"), to deal in the Software without restriction
   5:Source\azure_iot_sdk\c-utility\Socket\src/Socket.cpp ****  * including without limitation the rights to use, copy, modify, merge, publish, distribute,
   6:Source\azure_iot_sdk\c-utility\Socket\src/Socket.cpp ****  * sublicense, and/or sell copies of the Software, and to permit persons to whom the Software is
   7:Source\azure_iot_sdk\c-utility\Socket\src/Socket.cpp ****  * furnished to do so, subject to the following conditions:
   8:Source\azure_iot_sdk\c-utility\Socket\src/Socket.cpp ****  *
   9:Source\azure_iot_sdk\c-utility\Socket\src/Socket.cpp ****  * The above copyright notice and this permission notice shall be included in all copies or
  10:Source\azure_iot_sdk\c-utility\Socket\src/Socket.cpp ****  * substantial portions of the Software.
  11:Source\azure_iot_sdk\c-utility\Socket\src/Socket.cpp ****  *
  12:Source\azure_iot_sdk\c-utility\Socket\src/Socket.cpp ****  * THE SOFTWARE IS PROVIDED "AS IS", WITHOUT WARRANTY OF ANY KIND, EXPRESS OR IMPLIED, INCLUDING
  13:Source\azure_iot_sdk\c-utility\Socket\src/Socket.cpp ****  * BUT NOT LIMITED TO THE WARRANTIES OF MERCHANTABILITY, FITNESS FOR A PARTICULAR PURPOSE AND
  14:Source\azure_iot_sdk\c-utility\Socket\src/Socket.cpp ****  * NONINFRINGEMENT. IN NO EVENT SHALL THE AUTHORS OR COPYRIGHT HOLDERS BE LIABLE FOR ANY CLAIM,
  15:Source\azure_iot_sdk\c-utility\Socket\src/Socket.cpp ****  * DAMAGES OR OTHER LIABILITY, WHETHER IN AN ACTION OF CONTRACT, TORT OR OTHERWISE, ARISING FROM,
  16:Source\azure_iot_sdk\c-utility\Socket\src/Socket.cpp ****  * OUT OF OR IN CONNECTION WITH THE SOFTWARE OR THE USE OR OTHER DEALINGS IN THE SOFTWARE.
  17:Source\azure_iot_sdk\c-utility\Socket\src/Socket.cpp ****  */
  18:Source\azure_iot_sdk\c-utility\Socket\src/Socket.cpp **** #include "Socket.h"
  19:Source\azure_iot_sdk\c-utility\Socket\src/Socket.cpp **** #include <cstring>
  20:Source\azure_iot_sdk\c-utility\Socket\src/Socket.cpp **** 
  21:Source\azure_iot_sdk\c-utility\Socket\src/Socket.cpp **** using std::memset;
  22:Source\azure_iot_sdk\c-utility\Socket\src/Socket.cpp **** 
  23:Source\azure_iot_sdk\c-utility\Socket\src/Socket.cpp **** Socket::Socket() : _sock_fd(-1), _blocking(true), _timeout(1500) {
  28              		.loc 1 23 0
  29              		.cfi_startproc
  30              		@ args = 0, pretend = 0, frame = 0
  31              		@ frame_needed = 0, uses_anonymous_args = 0
  32              		@ link register save eliminated.
  33              	.LVL0:
  34              	.LBB2:
ARM GAS  C:\Users\Phuong\AppData\Local\Temp\cc0Oog1P.s 			page 2


  35              		.loc 1 23 0
  36 0000 0123     		movs	r3, #1
  37 0002 5B42     		rsbs	r3, r3, #0
  38 0004 0360     		str	r3, [r0]
  39 0006 0233     		adds	r3, r3, #2
  40 0008 0371     		strb	r3, [r0, #4]
  41 000a 014B     		ldr	r3, .L2
  42 000c 8360     		str	r3, [r0, #8]
  43              	.LBE2:
  24:Source\azure_iot_sdk\c-utility\Socket\src/Socket.cpp ****     
  25:Source\azure_iot_sdk\c-utility\Socket\src/Socket.cpp **** }
  44              		.loc 1 25 0
  45              		@ sp needed
  46 000e 7047     		bx	lr
  47              	.L3:
  48              		.align	2
  49              	.L2:
  50 0010 DC050000 		.word	1500
  51              		.cfi_endproc
  52              	.LFE61:
  53              		.size	_ZN6SocketC2Ev, .-_ZN6SocketC2Ev
  54              		.global	_ZN6SocketC1Ev
  55              		.thumb_set _ZN6SocketC1Ev,_ZN6SocketC2Ev
  56              		.section	.text._ZN6Socket12set_blockingEbj,"ax",%progbits
  57              		.align	2
  58              		.global	_ZN6Socket12set_blockingEbj
  59              		.code	16
  60              		.thumb_func
  61              		.type	_ZN6Socket12set_blockingEbj, %function
  62              	_ZN6Socket12set_blockingEbj:
  63              	.LFB63:
  26:Source\azure_iot_sdk\c-utility\Socket\src/Socket.cpp **** 
  27:Source\azure_iot_sdk\c-utility\Socket\src/Socket.cpp **** void Socket::set_blocking(bool blocking, unsigned int timeout) {
  64              		.loc 1 27 0
  65              		.cfi_startproc
  66              		@ args = 0, pretend = 0, frame = 0
  67              		@ frame_needed = 0, uses_anonymous_args = 0
  68              		@ link register save eliminated.
  69              	.LVL1:
  28:Source\azure_iot_sdk\c-utility\Socket\src/Socket.cpp ****     _blocking = blocking;
  70              		.loc 1 28 0
  71 0000 0171     		strb	r1, [r0, #4]
  29:Source\azure_iot_sdk\c-utility\Socket\src/Socket.cpp ****     _timeout = timeout;
  72              		.loc 1 29 0
  73 0002 8260     		str	r2, [r0, #8]
  30:Source\azure_iot_sdk\c-utility\Socket\src/Socket.cpp **** }
  74              		.loc 1 30 0
  75              		@ sp needed
  76 0004 7047     		bx	lr
  77              		.cfi_endproc
  78              	.LFE63:
  79              		.size	_ZN6Socket12set_blockingEbj, .-_ZN6Socket12set_blockingEbj
  80              		.section	.text._ZN6Socket11init_socketEi,"ax",%progbits
  81              		.align	2
  82              		.global	_ZN6Socket11init_socketEi
  83              		.code	16
  84              		.thumb_func
ARM GAS  C:\Users\Phuong\AppData\Local\Temp\cc0Oog1P.s 			page 3


  85              		.type	_ZN6Socket11init_socketEi, %function
  86              	_ZN6Socket11init_socketEi:
  87              	.LFB64:
  31:Source\azure_iot_sdk\c-utility\Socket\src/Socket.cpp **** 
  32:Source\azure_iot_sdk\c-utility\Socket\src/Socket.cpp **** int Socket::init_socket(int type) {
  88              		.loc 1 32 0
  89              		.cfi_startproc
  90              		@ args = 0, pretend = 0, frame = 0
  91              		@ frame_needed = 0, uses_anonymous_args = 0
  92              	.LVL2:
  93 0000 70B5     		push	{r4, r5, r6, lr}
  94              		.cfi_def_cfa_offset 16
  95              		.cfi_offset 4, -16
  96              		.cfi_offset 5, -12
  97              		.cfi_offset 6, -8
  98              		.cfi_offset 14, -4
  99 0002 0500     		movs	r5, r0
  33:Source\azure_iot_sdk\c-utility\Socket\src/Socket.cpp ****     if (_sock_fd != -1)
 100              		.loc 1 33 0
 101 0004 0468     		ldr	r4, [r0]
 102 0006 631C     		adds	r3, r4, #1
 103 0008 08D1     		bne	.L7
  34:Source\azure_iot_sdk\c-utility\Socket\src/Socket.cpp ****         return -1;
  35:Source\azure_iot_sdk\c-utility\Socket\src/Socket.cpp ****     
  36:Source\azure_iot_sdk\c-utility\Socket\src/Socket.cpp ****     int fd = lwip_socket(AF_INET, type, 0);
 104              		.loc 1 36 0
 105 000a 0022     		movs	r2, #0
 106 000c 0220     		movs	r0, #2
 107              	.LVL3:
 108 000e FFF7FEFF 		bl	lwip_socket
 109              	.LVL4:
  37:Source\azure_iot_sdk\c-utility\Socket\src/Socket.cpp ****     if (fd < 0)
 110              		.loc 1 37 0
 111 0012 0028     		cmp	r0, #0
 112 0014 04DB     		blt	.L6
  38:Source\azure_iot_sdk\c-utility\Socket\src/Socket.cpp ****         return -1;
  39:Source\azure_iot_sdk\c-utility\Socket\src/Socket.cpp ****     
  40:Source\azure_iot_sdk\c-utility\Socket\src/Socket.cpp ****     _sock_fd = fd;
 113              		.loc 1 40 0
 114 0016 2860     		str	r0, [r5]
  41:Source\azure_iot_sdk\c-utility\Socket\src/Socket.cpp ****         
  42:Source\azure_iot_sdk\c-utility\Socket\src/Socket.cpp ****     return 0;
 115              		.loc 1 42 0
 116 0018 0024     		movs	r4, #0
 117 001a 01E0     		b	.L6
 118              	.LVL5:
 119              	.L7:
  34:Source\azure_iot_sdk\c-utility\Socket\src/Socket.cpp ****     
 120              		.loc 1 34 0
 121 001c 0124     		movs	r4, #1
 122 001e 6442     		rsbs	r4, r4, #0
 123              	.LVL6:
 124              	.L6:
  43:Source\azure_iot_sdk\c-utility\Socket\src/Socket.cpp **** }
 125              		.loc 1 43 0
 126 0020 2000     		movs	r0, r4
 127              		@ sp needed
ARM GAS  C:\Users\Phuong\AppData\Local\Temp\cc0Oog1P.s 			page 4


 128              	.LVL7:
 129 0022 70BD     		pop	{r4, r5, r6, pc}
 130              		.cfi_endproc
 131              	.LFE64:
 132              		.size	_ZN6Socket11init_socketEi, .-_ZN6Socket11init_socketEi
 133              		.section	.text._ZN6Socket10set_optionEiiPKvm,"ax",%progbits
 134              		.align	2
 135              		.global	_ZN6Socket10set_optionEiiPKvm
 136              		.code	16
 137              		.thumb_func
 138              		.type	_ZN6Socket10set_optionEiiPKvm, %function
 139              	_ZN6Socket10set_optionEiiPKvm:
 140              	.LFB65:
  44:Source\azure_iot_sdk\c-utility\Socket\src/Socket.cpp **** 
  45:Source\azure_iot_sdk\c-utility\Socket\src/Socket.cpp **** int Socket::set_option(int level, int optname, const void *optval, socklen_t optlen) {
 141              		.loc 1 45 0
 142              		.cfi_startproc
 143              		@ args = 4, pretend = 0, frame = 0
 144              		@ frame_needed = 0, uses_anonymous_args = 0
 145              	.LVL8:
 146 0000 10B5     		push	{r4, lr}
 147              		.cfi_def_cfa_offset 8
 148              		.cfi_offset 4, -8
 149              		.cfi_offset 14, -4
 150 0002 82B0     		sub	sp, sp, #8
 151              		.cfi_def_cfa_offset 16
  46:Source\azure_iot_sdk\c-utility\Socket\src/Socket.cpp ****     return lwip_setsockopt(_sock_fd, level, optname, optval, optlen);
 152              		.loc 1 46 0
 153 0004 0068     		ldr	r0, [r0]
 154              	.LVL9:
 155 0006 049C     		ldr	r4, [sp, #16]
 156 0008 0094     		str	r4, [sp]
 157 000a FFF7FEFF 		bl	lwip_setsockopt
 158              	.LVL10:
  47:Source\azure_iot_sdk\c-utility\Socket\src/Socket.cpp **** }
 159              		.loc 1 47 0
 160 000e 02B0     		add	sp, sp, #8
 161              		@ sp needed
 162 0010 10BD     		pop	{r4, pc}
 163              		.cfi_endproc
 164              	.LFE65:
 165              		.size	_ZN6Socket10set_optionEiiPKvm, .-_ZN6Socket10set_optionEiiPKvm
 166 0012 C046     		.section	.text._ZN6Socket10get_optionEiiPvPm,"ax",%progbits
 167              		.align	2
 168              		.global	_ZN6Socket10get_optionEiiPvPm
 169              		.code	16
 170              		.thumb_func
 171              		.type	_ZN6Socket10get_optionEiiPvPm, %function
 172              	_ZN6Socket10get_optionEiiPvPm:
 173              	.LFB66:
  48:Source\azure_iot_sdk\c-utility\Socket\src/Socket.cpp **** 
  49:Source\azure_iot_sdk\c-utility\Socket\src/Socket.cpp **** int Socket::get_option(int level, int optname, void *optval, socklen_t *optlen) {
 174              		.loc 1 49 0
 175              		.cfi_startproc
 176              		@ args = 4, pretend = 0, frame = 0
 177              		@ frame_needed = 0, uses_anonymous_args = 0
 178              	.LVL11:
ARM GAS  C:\Users\Phuong\AppData\Local\Temp\cc0Oog1P.s 			page 5


 179 0000 10B5     		push	{r4, lr}
 180              		.cfi_def_cfa_offset 8
 181              		.cfi_offset 4, -8
 182              		.cfi_offset 14, -4
 183 0002 82B0     		sub	sp, sp, #8
 184              		.cfi_def_cfa_offset 16
  50:Source\azure_iot_sdk\c-utility\Socket\src/Socket.cpp ****     return lwip_getsockopt(_sock_fd, level, optname, optval, optlen);
 185              		.loc 1 50 0
 186 0004 0068     		ldr	r0, [r0]
 187              	.LVL12:
 188 0006 049C     		ldr	r4, [sp, #16]
 189 0008 0094     		str	r4, [sp]
 190 000a FFF7FEFF 		bl	lwip_getsockopt
 191              	.LVL13:
  51:Source\azure_iot_sdk\c-utility\Socket\src/Socket.cpp **** }
 192              		.loc 1 51 0
 193 000e 02B0     		add	sp, sp, #8
 194              		@ sp needed
 195 0010 10BD     		pop	{r4, pc}
 196              		.cfi_endproc
 197              	.LFE66:
 198              		.size	_ZN6Socket10get_optionEiiPvPm, .-_ZN6Socket10get_optionEiiPvPm
 199 0012 C046     		.section	.text._ZN6Socket6selectEP7timevalbb,"ax",%progbits
 200              		.align	2
 201              		.global	_ZN6Socket6selectEP7timevalbb
 202              		.code	16
 203              		.thumb_func
 204              		.type	_ZN6Socket6selectEP7timevalbb, %function
 205              	_ZN6Socket6selectEP7timevalbb:
 206              	.LFB67:
  52:Source\azure_iot_sdk\c-utility\Socket\src/Socket.cpp **** 
  53:Source\azure_iot_sdk\c-utility\Socket\src/Socket.cpp **** int Socket::select(struct timeval *timeout, bool read, bool write) {
 207              		.loc 1 53 0
 208              		.cfi_startproc
 209              		@ args = 0, pretend = 0, frame = 8
 210              		@ frame_needed = 0, uses_anonymous_args = 0
 211              	.LVL14:
 212 0000 F0B5     		push	{r4, r5, r6, r7, lr}
 213              		.cfi_def_cfa_offset 20
 214              		.cfi_offset 4, -20
 215              		.cfi_offset 5, -16
 216              		.cfi_offset 6, -12
 217              		.cfi_offset 7, -8
 218              		.cfi_offset 14, -4
 219 0002 85B0     		sub	sp, sp, #20
 220              		.cfi_def_cfa_offset 40
 221 0004 0600     		movs	r6, r0
 222              	.LVL15:
 223              	.LBB3:
  54:Source\azure_iot_sdk\c-utility\Socket\src/Socket.cpp ****     fd_set fdSet;
  55:Source\azure_iot_sdk\c-utility\Socket\src/Socket.cpp ****     FD_ZERO(&fdSet);
 224              		.loc 1 55 0
 225 0006 02AC     		add	r4, sp, #8
 226              	.LVL16:
 227 0008 0020     		movs	r0, #0
 228              	.LVL17:
 229              	.L12:
ARM GAS  C:\Users\Phuong\AppData\Local\Temp\cc0Oog1P.s 			page 6


 230              		.loc 1 55 0 is_stmt 0 discriminator 3
 231 000a 0728     		cmp	r0, #7
 232 000c 04D8     		bhi	.L11
 233              	.LVL18:
 234              		.loc 1 55 0 discriminator 2
 235 000e 0025     		movs	r5, #0
 236 0010 2570     		strb	r5, [r4]
 237 0012 0130     		adds	r0, r0, #1
 238              	.LVL19:
 239 0014 0134     		adds	r4, r4, #1
 240              	.LVL20:
 241 0016 F8E7     		b	.L12
 242              	.L11:
 243              	.LBE3:
  56:Source\azure_iot_sdk\c-utility\Socket\src/Socket.cpp ****     FD_SET(_sock_fd, &fdSet);
 244              		.loc 1 56 0 is_stmt 1
 245 0018 3068     		ldr	r0, [r6]
 246              	.LVL21:
 247 001a 4409     		lsrs	r4, r0, #5
 248              	.LVL22:
 249 001c 1F25     		movs	r5, #31
 250 001e 0540     		ands	r5, r0
 251 0020 0120     		movs	r0, #1
 252 0022 A840     		lsls	r0, r0, r5
 253 0024 02AD     		add	r5, sp, #8
 254 0026 A400     		lsls	r4, r4, #2
 255 0028 6759     		ldr	r7, [r4, r5]
 256 002a 3843     		orrs	r0, r7
 257 002c 6051     		str	r0, [r4, r5]
  57:Source\azure_iot_sdk\c-utility\Socket\src/Socket.cpp ****     
  58:Source\azure_iot_sdk\c-utility\Socket\src/Socket.cpp ****     fd_set* readset  = (read ) ? (&fdSet) : (NULL);
 258              		.loc 1 58 0
 259 002e 002A     		cmp	r2, #0
 260 0030 01D0     		beq	.L16
 261 0032 2800     		movs	r0, r5
 262 0034 00E0     		b	.L13
 263              	.L16:
 264 0036 0020     		movs	r0, #0
 265              	.L13:
 266              	.LVL23:
  59:Source\azure_iot_sdk\c-utility\Socket\src/Socket.cpp ****     fd_set* writeset = (write) ? (&fdSet) : (NULL);
 267              		.loc 1 59 0 discriminator 4
 268 0038 002B     		cmp	r3, #0
 269 003a 01D0     		beq	.L17
 270              		.loc 1 59 0 is_stmt 0
 271 003c 02AA     		add	r2, sp, #8
 272              	.LVL24:
 273 003e 00E0     		b	.L14
 274              	.LVL25:
 275              	.L17:
 276 0040 0022     		movs	r2, #0
 277              	.LVL26:
 278              	.L14:
  60:Source\azure_iot_sdk\c-utility\Socket\src/Socket.cpp ****     
  61:Source\azure_iot_sdk\c-utility\Socket\src/Socket.cpp ****     int ret = lwip_select(FD_SETSIZE, readset, writeset, NULL, timeout);
 279              		.loc 1 61 0 is_stmt 1 discriminator 4
 280 0042 0091     		str	r1, [sp]
ARM GAS  C:\Users\Phuong\AppData\Local\Temp\cc0Oog1P.s 			page 7


 281 0044 0023     		movs	r3, #0
 282              	.LVL27:
 283 0046 0100     		movs	r1, r0
 284              	.LVL28:
 285 0048 4020     		movs	r0, #64
 286              	.LVL29:
 287 004a FFF7FEFF 		bl	lwip_select
 288              	.LVL30:
  62:Source\azure_iot_sdk\c-utility\Socket\src/Socket.cpp ****     return (ret <= 0 || !FD_ISSET(_sock_fd, &fdSet)) ? (-1) : (0);
 289              		.loc 1 62 0 discriminator 4
 290 004e 0028     		cmp	r0, #0
 291 0050 0DDD     		ble	.L18
 292              		.loc 1 62 0 is_stmt 0 discriminator 2
 293 0052 3368     		ldr	r3, [r6]
 294 0054 5A09     		lsrs	r2, r3, #5
 295 0056 9200     		lsls	r2, r2, #2
 296 0058 02A9     		add	r1, sp, #8
 297 005a 5158     		ldr	r1, [r2, r1]
 298 005c 1F22     		movs	r2, #31
 299 005e 1340     		ands	r3, r2
 300 0060 1E3A     		subs	r2, r2, #30
 301 0062 9A40     		lsls	r2, r2, r3
 302 0064 1142     		tst	r1, r2
 303 0066 05D1     		bne	.L19
 304              		.loc 1 62 0
 305 0068 0120     		movs	r0, #1
 306              	.LVL31:
 307 006a 4042     		rsbs	r0, r0, #0
 308 006c 03E0     		b	.L15
 309              	.LVL32:
 310              	.L18:
 311 006e 0120     		movs	r0, #1
 312              	.LVL33:
 313 0070 4042     		rsbs	r0, r0, #0
 314 0072 00E0     		b	.L15
 315              	.LVL34:
 316              	.L19:
 317 0074 0020     		movs	r0, #0
 318              	.LVL35:
 319              	.L15:
  63:Source\azure_iot_sdk\c-utility\Socket\src/Socket.cpp **** }
 320              		.loc 1 63 0 is_stmt 1 discriminator 6
 321 0076 05B0     		add	sp, sp, #20
 322              		@ sp needed
 323              	.LVL36:
 324 0078 F0BD     		pop	{r4, r5, r6, r7, pc}
 325              		.cfi_endproc
 326              	.LFE67:
 327              		.size	_ZN6Socket6selectEP7timevalbb, .-_ZN6Socket6selectEP7timevalbb
 328 007a C046     		.section	.text._ZN6Socket13wait_readableER12TimeInterval,"ax",%progbits
 329              		.align	2
 330              		.global	_ZN6Socket13wait_readableER12TimeInterval
 331              		.code	16
 332              		.thumb_func
 333              		.type	_ZN6Socket13wait_readableER12TimeInterval, %function
 334              	_ZN6Socket13wait_readableER12TimeInterval:
 335              	.LFB68:
ARM GAS  C:\Users\Phuong\AppData\Local\Temp\cc0Oog1P.s 			page 8


  64:Source\azure_iot_sdk\c-utility\Socket\src/Socket.cpp **** 
  65:Source\azure_iot_sdk\c-utility\Socket\src/Socket.cpp **** int Socket::wait_readable(TimeInterval& timeout) {
 336              		.loc 1 65 0
 337              		.cfi_startproc
 338              		@ args = 0, pretend = 0, frame = 0
 339              		@ frame_needed = 0, uses_anonymous_args = 0
 340              	.LVL37:
 341 0000 10B5     		push	{r4, lr}
 342              		.cfi_def_cfa_offset 8
 343              		.cfi_offset 4, -8
 344              		.cfi_offset 14, -4
  66:Source\azure_iot_sdk\c-utility\Socket\src/Socket.cpp ****     return select(&timeout._time, true, false);
 345              		.loc 1 66 0
 346 0002 0023     		movs	r3, #0
 347 0004 0122     		movs	r2, #1
 348 0006 FFF7FEFF 		bl	_ZN6Socket6selectEP7timevalbb
 349              	.LVL38:
  67:Source\azure_iot_sdk\c-utility\Socket\src/Socket.cpp **** }
 350              		.loc 1 67 0
 351              		@ sp needed
 352 000a 10BD     		pop	{r4, pc}
 353              		.cfi_endproc
 354              	.LFE68:
 355              		.size	_ZN6Socket13wait_readableER12TimeInterval, .-_ZN6Socket13wait_readableER12TimeInterval
 356              		.section	.text._ZN6Socket13wait_writableER12TimeInterval,"ax",%progbits
 357              		.align	2
 358              		.global	_ZN6Socket13wait_writableER12TimeInterval
 359              		.code	16
 360              		.thumb_func
 361              		.type	_ZN6Socket13wait_writableER12TimeInterval, %function
 362              	_ZN6Socket13wait_writableER12TimeInterval:
 363              	.LFB69:
  68:Source\azure_iot_sdk\c-utility\Socket\src/Socket.cpp **** 
  69:Source\azure_iot_sdk\c-utility\Socket\src/Socket.cpp **** int Socket::wait_writable(TimeInterval& timeout) {
 364              		.loc 1 69 0
 365              		.cfi_startproc
 366              		@ args = 0, pretend = 0, frame = 0
 367              		@ frame_needed = 0, uses_anonymous_args = 0
 368              	.LVL39:
 369 0000 10B5     		push	{r4, lr}
 370              		.cfi_def_cfa_offset 8
 371              		.cfi_offset 4, -8
 372              		.cfi_offset 14, -4
  70:Source\azure_iot_sdk\c-utility\Socket\src/Socket.cpp ****     return select(&timeout._time, false, true);
 373              		.loc 1 70 0
 374 0002 0123     		movs	r3, #1
 375 0004 0022     		movs	r2, #0
 376 0006 FFF7FEFF 		bl	_ZN6Socket6selectEP7timevalbb
 377              	.LVL40:
  71:Source\azure_iot_sdk\c-utility\Socket\src/Socket.cpp **** }
 378              		.loc 1 71 0
 379              		@ sp needed
 380 000a 10BD     		pop	{r4, pc}
 381              		.cfi_endproc
 382              	.LFE69:
 383              		.size	_ZN6Socket13wait_writableER12TimeInterval, .-_ZN6Socket13wait_writableER12TimeInterval
 384              		.section	.text._ZN6Socket5closeEb,"ax",%progbits
ARM GAS  C:\Users\Phuong\AppData\Local\Temp\cc0Oog1P.s 			page 9


 385              		.align	2
 386              		.global	_ZN6Socket5closeEb
 387              		.code	16
 388              		.thumb_func
 389              		.type	_ZN6Socket5closeEb, %function
 390              	_ZN6Socket5closeEb:
 391              	.LFB70:
  72:Source\azure_iot_sdk\c-utility\Socket\src/Socket.cpp **** 
  73:Source\azure_iot_sdk\c-utility\Socket\src/Socket.cpp **** int Socket::close(bool shutdown) {
 392              		.loc 1 73 0
 393              		.cfi_startproc
 394              		@ args = 0, pretend = 0, frame = 0
 395              		@ frame_needed = 0, uses_anonymous_args = 0
 396              	.LVL41:
 397 0000 10B5     		push	{r4, lr}
 398              		.cfi_def_cfa_offset 8
 399              		.cfi_offset 4, -8
 400              		.cfi_offset 14, -4
 401 0002 0400     		movs	r4, r0
  74:Source\azure_iot_sdk\c-utility\Socket\src/Socket.cpp ****     if (_sock_fd < 0)
 402              		.loc 1 74 0
 403 0004 0068     		ldr	r0, [r0]
 404              	.LVL42:
 405 0006 0028     		cmp	r0, #0
 406 0008 0CDB     		blt	.L25
  75:Source\azure_iot_sdk\c-utility\Socket\src/Socket.cpp ****         return -1;
  76:Source\azure_iot_sdk\c-utility\Socket\src/Socket.cpp ****     
  77:Source\azure_iot_sdk\c-utility\Socket\src/Socket.cpp ****     if (shutdown)
 407              		.loc 1 77 0
 408 000a 0029     		cmp	r1, #0
 409 000c 02D0     		beq	.L24
  78:Source\azure_iot_sdk\c-utility\Socket\src/Socket.cpp ****         lwip_shutdown(_sock_fd, SHUT_RDWR);
 410              		.loc 1 78 0
 411 000e 0221     		movs	r1, #2
 412              	.LVL43:
 413 0010 FFF7FEFF 		bl	lwip_shutdown
 414              	.LVL44:
 415              	.L24:
  79:Source\azure_iot_sdk\c-utility\Socket\src/Socket.cpp ****     lwip_close(_sock_fd);
 416              		.loc 1 79 0
 417 0014 2068     		ldr	r0, [r4]
 418 0016 FFF7FEFF 		bl	lwip_close
 419              	.LVL45:
  80:Source\azure_iot_sdk\c-utility\Socket\src/Socket.cpp ****     _sock_fd = -1;
 420              		.loc 1 80 0
 421 001a 0123     		movs	r3, #1
 422 001c 5B42     		rsbs	r3, r3, #0
 423 001e 2360     		str	r3, [r4]
  81:Source\azure_iot_sdk\c-utility\Socket\src/Socket.cpp ****     
  82:Source\azure_iot_sdk\c-utility\Socket\src/Socket.cpp ****     return 0;
 424              		.loc 1 82 0
 425 0020 0020     		movs	r0, #0
 426 0022 01E0     		b	.L23
 427              	.LVL46:
 428              	.L25:
  75:Source\azure_iot_sdk\c-utility\Socket\src/Socket.cpp ****     
 429              		.loc 1 75 0
ARM GAS  C:\Users\Phuong\AppData\Local\Temp\cc0Oog1P.s 			page 10


 430 0024 0120     		movs	r0, #1
 431 0026 4042     		rsbs	r0, r0, #0
 432              	.LVL47:
 433              	.L23:
  83:Source\azure_iot_sdk\c-utility\Socket\src/Socket.cpp **** }
 434              		.loc 1 83 0
 435              		@ sp needed
 436              	.LVL48:
 437 0028 10BD     		pop	{r4, pc}
 438              		.cfi_endproc
 439              	.LFE70:
 440              		.size	_ZN6Socket5closeEb, .-_ZN6Socket5closeEb
 441 002a C046     		.section	.text._ZN6SocketD2Ev,"ax",%progbits
 442              		.align	2
 443              		.global	_ZN6SocketD2Ev
 444              		.code	16
 445              		.thumb_func
 446              		.type	_ZN6SocketD2Ev, %function
 447              	_ZN6SocketD2Ev:
 448              	.LFB72:
  84:Source\azure_iot_sdk\c-utility\Socket\src/Socket.cpp **** 
  85:Source\azure_iot_sdk\c-utility\Socket\src/Socket.cpp **** Socket::~Socket() {
 449              		.loc 1 85 0
 450              		.cfi_startproc
 451              		@ args = 0, pretend = 0, frame = 0
 452              		@ frame_needed = 0, uses_anonymous_args = 0
 453              	.LVL49:
 454 0000 10B5     		push	{r4, lr}
 455              		.cfi_def_cfa_offset 8
 456              		.cfi_offset 4, -8
 457              		.cfi_offset 14, -4
 458 0002 0400     		movs	r4, r0
 459              	.LBB4:
  86:Source\azure_iot_sdk\c-utility\Socket\src/Socket.cpp ****     close(); //Don't want to leak
 460              		.loc 1 86 0
 461 0004 0121     		movs	r1, #1
 462 0006 FFF7FEFF 		bl	_ZN6Socket5closeEb
 463              	.LVL50:
 464              	.LBE4:
  87:Source\azure_iot_sdk\c-utility\Socket\src/Socket.cpp **** }
 465              		.loc 1 87 0
 466 000a 2000     		movs	r0, r4
 467              		@ sp needed
 468              	.LVL51:
 469 000c 10BD     		pop	{r4, pc}
 470              		.cfi_endproc
 471              	.LFE72:
 472              		.size	_ZN6SocketD2Ev, .-_ZN6SocketD2Ev
 473              		.global	_ZN6SocketD1Ev
 474              		.thumb_set _ZN6SocketD1Ev,_ZN6SocketD2Ev
 475              		.global	__aeabi_uidiv
 476 000e C046     		.section	.text._ZN12TimeIntervalC2Ej,"ax",%progbits
 477              		.align	2
 478              		.global	_ZN12TimeIntervalC2Ej
 479              		.code	16
 480              		.thumb_func
 481              		.type	_ZN12TimeIntervalC2Ej, %function
ARM GAS  C:\Users\Phuong\AppData\Local\Temp\cc0Oog1P.s 			page 11


 482              	_ZN12TimeIntervalC2Ej:
 483              	.LFB75:
  88:Source\azure_iot_sdk\c-utility\Socket\src/Socket.cpp **** 
  89:Source\azure_iot_sdk\c-utility\Socket\src/Socket.cpp **** TimeInterval::TimeInterval(unsigned int ms) {
 484              		.loc 1 89 0
 485              		.cfi_startproc
 486              		@ args = 0, pretend = 0, frame = 0
 487              		@ frame_needed = 0, uses_anonymous_args = 0
 488              	.LVL52:
 489 0000 70B5     		push	{r4, r5, r6, lr}
 490              		.cfi_def_cfa_offset 16
 491              		.cfi_offset 4, -16
 492              		.cfi_offset 5, -12
 493              		.cfi_offset 6, -8
 494              		.cfi_offset 14, -4
 495 0002 0500     		movs	r5, r0
 496 0004 0C00     		movs	r4, r1
 497              	.LBB5:
  90:Source\azure_iot_sdk\c-utility\Socket\src/Socket.cpp ****     _time.tv_sec = ms / 1000;
 498              		.loc 1 90 0
 499 0006 FA21     		movs	r1, #250
 500              	.LVL53:
 501 0008 8900     		lsls	r1, r1, #2
 502 000a 2000     		movs	r0, r4
 503              	.LVL54:
 504 000c FFF7FEFF 		bl	__aeabi_uidiv
 505              	.LVL55:
 506 0010 2860     		str	r0, [r5]
  91:Source\azure_iot_sdk\c-utility\Socket\src/Socket.cpp ****     _time.tv_usec = (ms - (_time.tv_sec * 1000)) * 1000;
 507              		.loc 1 91 0
 508 0012 044B     		ldr	r3, .L28
 509 0014 5843     		muls	r0, r3
 510 0016 0419     		adds	r4, r0, r4
 511              	.LVL56:
 512 0018 FA20     		movs	r0, #250
 513 001a 8000     		lsls	r0, r0, #2
 514 001c 4443     		muls	r4, r0
 515 001e 6C60     		str	r4, [r5, #4]
 516              	.LBE5:
  92:Source\azure_iot_sdk\c-utility\Socket\src/Socket.cpp **** }
 517              		.loc 1 92 0
 518 0020 2800     		movs	r0, r5
 519              		@ sp needed
 520              	.LVL57:
 521 0022 70BD     		pop	{r4, r5, r6, pc}
 522              	.L29:
 523              		.align	2
 524              	.L28:
 525 0024 18FCFFFF 		.word	-1000
 526              		.cfi_endproc
 527              	.LFE75:
 528              		.size	_ZN12TimeIntervalC2Ej, .-_ZN12TimeIntervalC2Ej
 529              		.global	_ZN12TimeIntervalC1Ej
 530              		.thumb_set _ZN12TimeIntervalC1Ej,_ZN12TimeIntervalC2Ej
 531              		.text
 532              	.Letext0:
 533              		.file 2 "c:\\program files (x86)\\cypress\\psoc creator\\4.2\\psoc creator\\import\\gnu\\arm\\5.4.
ARM GAS  C:\Users\Phuong\AppData\Local\Temp\cc0Oog1P.s 			page 12


 534              		.file 3 "c:\\program files (x86)\\cypress\\psoc creator\\4.2\\psoc creator\\import\\gnu\\arm\\5.4.
 535              		.file 4 "c:\\program files (x86)\\cypress\\psoc creator\\4.2\\psoc creator\\import\\gnu\\arm\\5.4.
 536              		.file 5 "c:\\program files (x86)\\cypress\\psoc creator\\4.2\\psoc creator\\import\\gnu\\arm\\5.4.
 537              		.file 6 ".\\Source\\LwIP\\src\\include/arch/cc.h"
 538              		.file 7 ".\\Source\\LwIP\\src\\include/lwip/sockets.h"
 539              		.file 8 ".\\Source\\azure_iot_sdk\\c-utility\\Socket\\inc/Socket.h"
 540              		.file 9 "c:\\program files (x86)\\cypress\\psoc creator\\4.2\\psoc creator\\import\\gnu\\arm\\5.4.
 541              		.file 10 "c:\\program files (x86)\\cypress\\psoc creator\\4.2\\psoc creator\\import\\gnu\\arm\\5.4
 542              		.file 11 "c:\\program files (x86)\\cypress\\psoc creator\\4.2\\psoc creator\\import\\gnu\\arm\\5.4
 543              		.file 12 "<built-in>"