ARM GAS  C:\Users\Phuong\AppData\Local\Temp\cc6iV4S7.s 			page 1


   1              		.syntax unified
   2              		.cpu cortex-m0plus
   3              		.fpu softvfp
   4              		.eabi_attribute 20, 1
   5              		.eabi_attribute 21, 1
   6              		.eabi_attribute 23, 3
   7              		.eabi_attribute 24, 1
   8              		.eabi_attribute 25, 1
   9              		.eabi_attribute 26, 1
  10              		.eabi_attribute 30, 1
  11              		.eabi_attribute 34, 0
  12              		.eabi_attribute 18, 4
  13              		.thumb
  14              		.syntax unified
  15              		.file	"ssl_ticket.c"
  16              		.text
  17              	.Ltext0:
  18              		.cfi_sections	.debug_frame
  19              		.section	.text.ssl_ticket_update_keys,"ax",%progbits
  20              		.align	2
  21              		.code	16
  22              		.thumb_func
  23              		.type	ssl_ticket_update_keys, %function
  24              	ssl_ticket_update_keys:
  25              	.LFB20:
  26              		.file 1 "Source\\mbedtls_open\\library\\ssl_ticket.c"
   1:Source\mbedtls_open\library/ssl_ticket.c **** /*
   2:Source\mbedtls_open\library/ssl_ticket.c ****  *  TLS server tickets callbacks implementation
   3:Source\mbedtls_open\library/ssl_ticket.c ****  *
   4:Source\mbedtls_open\library/ssl_ticket.c ****  *  Copyright (C) 2006-2015, ARM Limited, All Rights Reserved
   5:Source\mbedtls_open\library/ssl_ticket.c ****  *  SPDX-License-Identifier: Apache-2.0
   6:Source\mbedtls_open\library/ssl_ticket.c ****  *
   7:Source\mbedtls_open\library/ssl_ticket.c ****  *  Licensed under the Apache License, Version 2.0 (the "License"); you may
   8:Source\mbedtls_open\library/ssl_ticket.c ****  *  not use this file except in compliance with the License.
   9:Source\mbedtls_open\library/ssl_ticket.c ****  *  You may obtain a copy of the License at
  10:Source\mbedtls_open\library/ssl_ticket.c ****  *
  11:Source\mbedtls_open\library/ssl_ticket.c ****  *  http://www.apache.org/licenses/LICENSE-2.0
  12:Source\mbedtls_open\library/ssl_ticket.c ****  *
  13:Source\mbedtls_open\library/ssl_ticket.c ****  *  Unless required by applicable law or agreed to in writing, software
  14:Source\mbedtls_open\library/ssl_ticket.c ****  *  distributed under the License is distributed on an "AS IS" BASIS, WITHOUT
  15:Source\mbedtls_open\library/ssl_ticket.c ****  *  WARRANTIES OR CONDITIONS OF ANY KIND, either express or implied.
  16:Source\mbedtls_open\library/ssl_ticket.c ****  *  See the License for the specific language governing permissions and
  17:Source\mbedtls_open\library/ssl_ticket.c ****  *  limitations under the License.
  18:Source\mbedtls_open\library/ssl_ticket.c ****  *
  19:Source\mbedtls_open\library/ssl_ticket.c ****  *  This file is part of mbed TLS (https://tls.mbed.org)
  20:Source\mbedtls_open\library/ssl_ticket.c ****  */
  21:Source\mbedtls_open\library/ssl_ticket.c **** 
  22:Source\mbedtls_open\library/ssl_ticket.c **** #if !defined(MBEDTLS_CONFIG_FILE)
  23:Source\mbedtls_open\library/ssl_ticket.c **** #include "mbedtls/config.h"
  24:Source\mbedtls_open\library/ssl_ticket.c **** #else
  25:Source\mbedtls_open\library/ssl_ticket.c **** #include MBEDTLS_CONFIG_FILE
  26:Source\mbedtls_open\library/ssl_ticket.c **** #endif
  27:Source\mbedtls_open\library/ssl_ticket.c **** 
  28:Source\mbedtls_open\library/ssl_ticket.c **** #if defined(MBEDTLS_SSL_TICKET_C)
  29:Source\mbedtls_open\library/ssl_ticket.c **** 
  30:Source\mbedtls_open\library/ssl_ticket.c **** #if defined(MBEDTLS_PLATFORM_C)
  31:Source\mbedtls_open\library/ssl_ticket.c **** #include "mbedtls/platform.h"
ARM GAS  C:\Users\Phuong\AppData\Local\Temp\cc6iV4S7.s 			page 2


  32:Source\mbedtls_open\library/ssl_ticket.c **** #else
  33:Source\mbedtls_open\library/ssl_ticket.c **** #include <stdlib.h>
  34:Source\mbedtls_open\library/ssl_ticket.c **** #define mbedtls_calloc    calloc
  35:Source\mbedtls_open\library/ssl_ticket.c **** #define mbedtls_free      free
  36:Source\mbedtls_open\library/ssl_ticket.c **** #endif
  37:Source\mbedtls_open\library/ssl_ticket.c **** 
  38:Source\mbedtls_open\library/ssl_ticket.c **** #include "mbedtls/ssl_ticket.h"
  39:Source\mbedtls_open\library/ssl_ticket.c **** #include "mbedtls/platform_util.h"
  40:Source\mbedtls_open\library/ssl_ticket.c **** 
  41:Source\mbedtls_open\library/ssl_ticket.c **** #include <string.h>
  42:Source\mbedtls_open\library/ssl_ticket.c **** 
  43:Source\mbedtls_open\library/ssl_ticket.c **** /*
  44:Source\mbedtls_open\library/ssl_ticket.c ****  * Initialze context
  45:Source\mbedtls_open\library/ssl_ticket.c ****  */
  46:Source\mbedtls_open\library/ssl_ticket.c **** void mbedtls_ssl_ticket_init( mbedtls_ssl_ticket_context *ctx )
  47:Source\mbedtls_open\library/ssl_ticket.c **** {
  48:Source\mbedtls_open\library/ssl_ticket.c ****     memset( ctx, 0, sizeof( mbedtls_ssl_ticket_context ) );
  49:Source\mbedtls_open\library/ssl_ticket.c **** 
  50:Source\mbedtls_open\library/ssl_ticket.c **** #if defined(MBEDTLS_THREADING_C)
  51:Source\mbedtls_open\library/ssl_ticket.c ****     mbedtls_mutex_init( &ctx->mutex );
  52:Source\mbedtls_open\library/ssl_ticket.c **** #endif
  53:Source\mbedtls_open\library/ssl_ticket.c **** }
  54:Source\mbedtls_open\library/ssl_ticket.c **** 
  55:Source\mbedtls_open\library/ssl_ticket.c **** #define MAX_KEY_BYTES 32    /* 256 bits */
  56:Source\mbedtls_open\library/ssl_ticket.c **** 
  57:Source\mbedtls_open\library/ssl_ticket.c **** /*
  58:Source\mbedtls_open\library/ssl_ticket.c ****  * Generate/update a key
  59:Source\mbedtls_open\library/ssl_ticket.c ****  */
  60:Source\mbedtls_open\library/ssl_ticket.c **** static int ssl_ticket_gen_key( mbedtls_ssl_ticket_context *ctx,
  61:Source\mbedtls_open\library/ssl_ticket.c ****                                unsigned char index )
  62:Source\mbedtls_open\library/ssl_ticket.c **** {
  63:Source\mbedtls_open\library/ssl_ticket.c ****     int ret;
  64:Source\mbedtls_open\library/ssl_ticket.c ****     unsigned char buf[MAX_KEY_BYTES];
  65:Source\mbedtls_open\library/ssl_ticket.c ****     mbedtls_ssl_ticket_key *key = ctx->keys + index;
  66:Source\mbedtls_open\library/ssl_ticket.c **** 
  67:Source\mbedtls_open\library/ssl_ticket.c **** #if defined(MBEDTLS_HAVE_TIME)
  68:Source\mbedtls_open\library/ssl_ticket.c ****     key->generation_time = (uint32_t) mbedtls_time( NULL );
  69:Source\mbedtls_open\library/ssl_ticket.c **** #endif
  70:Source\mbedtls_open\library/ssl_ticket.c **** 
  71:Source\mbedtls_open\library/ssl_ticket.c ****     if( ( ret = ctx->f_rng( ctx->p_rng, key->name, sizeof( key->name ) ) ) != 0 )
  72:Source\mbedtls_open\library/ssl_ticket.c ****         return( ret );
  73:Source\mbedtls_open\library/ssl_ticket.c **** 
  74:Source\mbedtls_open\library/ssl_ticket.c ****     if( ( ret = ctx->f_rng( ctx->p_rng, buf, sizeof( buf ) ) ) != 0 )
  75:Source\mbedtls_open\library/ssl_ticket.c ****         return( ret );
  76:Source\mbedtls_open\library/ssl_ticket.c **** 
  77:Source\mbedtls_open\library/ssl_ticket.c ****     /* With GCM and CCM, same context can encrypt & decrypt */
  78:Source\mbedtls_open\library/ssl_ticket.c ****     ret = mbedtls_cipher_setkey( &key->ctx, buf,
  79:Source\mbedtls_open\library/ssl_ticket.c ****                                  mbedtls_cipher_get_key_bitlen( &key->ctx ),
  80:Source\mbedtls_open\library/ssl_ticket.c ****                                  MBEDTLS_ENCRYPT );
  81:Source\mbedtls_open\library/ssl_ticket.c **** 
  82:Source\mbedtls_open\library/ssl_ticket.c ****     mbedtls_platform_zeroize( buf, sizeof( buf ) );
  83:Source\mbedtls_open\library/ssl_ticket.c **** 
  84:Source\mbedtls_open\library/ssl_ticket.c ****     return( ret );
  85:Source\mbedtls_open\library/ssl_ticket.c **** }
  86:Source\mbedtls_open\library/ssl_ticket.c **** 
  87:Source\mbedtls_open\library/ssl_ticket.c **** /*
  88:Source\mbedtls_open\library/ssl_ticket.c ****  * Rotate/generate keys if necessary
ARM GAS  C:\Users\Phuong\AppData\Local\Temp\cc6iV4S7.s 			page 3


  89:Source\mbedtls_open\library/ssl_ticket.c ****  */
  90:Source\mbedtls_open\library/ssl_ticket.c **** static int ssl_ticket_update_keys( mbedtls_ssl_ticket_context *ctx )
  91:Source\mbedtls_open\library/ssl_ticket.c **** {
  27              		.loc 1 91 0
  28              		.cfi_startproc
  29              		@ args = 0, pretend = 0, frame = 0
  30              		@ frame_needed = 0, uses_anonymous_args = 0
  31              		@ link register save eliminated.
  32              	.LVL0:
  92:Source\mbedtls_open\library/ssl_ticket.c **** #if !defined(MBEDTLS_HAVE_TIME)
  93:Source\mbedtls_open\library/ssl_ticket.c ****     ((void) ctx);
  94:Source\mbedtls_open\library/ssl_ticket.c **** #else
  95:Source\mbedtls_open\library/ssl_ticket.c ****     if( ctx->ticket_lifetime != 0 )
  96:Source\mbedtls_open\library/ssl_ticket.c ****     {
  97:Source\mbedtls_open\library/ssl_ticket.c ****         uint32_t current_time = (uint32_t) mbedtls_time( NULL );
  98:Source\mbedtls_open\library/ssl_ticket.c ****         uint32_t key_time = ctx->keys[ctx->active].generation_time;
  99:Source\mbedtls_open\library/ssl_ticket.c **** 
 100:Source\mbedtls_open\library/ssl_ticket.c ****         if( current_time >= key_time &&
 101:Source\mbedtls_open\library/ssl_ticket.c ****             current_time - key_time < ctx->ticket_lifetime )
 102:Source\mbedtls_open\library/ssl_ticket.c ****         {
 103:Source\mbedtls_open\library/ssl_ticket.c ****             return( 0 );
 104:Source\mbedtls_open\library/ssl_ticket.c ****         }
 105:Source\mbedtls_open\library/ssl_ticket.c **** 
 106:Source\mbedtls_open\library/ssl_ticket.c ****         ctx->active = 1 - ctx->active;
 107:Source\mbedtls_open\library/ssl_ticket.c **** 
 108:Source\mbedtls_open\library/ssl_ticket.c ****         return( ssl_ticket_gen_key( ctx, ctx->active ) );
 109:Source\mbedtls_open\library/ssl_ticket.c ****     }
 110:Source\mbedtls_open\library/ssl_ticket.c ****     else
 111:Source\mbedtls_open\library/ssl_ticket.c **** #endif /* MBEDTLS_HAVE_TIME */
 112:Source\mbedtls_open\library/ssl_ticket.c ****         return( 0 );
 113:Source\mbedtls_open\library/ssl_ticket.c **** }
  33              		.loc 1 113 0
  34 0000 0020     		movs	r0, #0
  35              	.LVL1:
  36              		@ sp needed
  37 0002 7047     		bx	lr
  38              		.cfi_endproc
  39              	.LFE20:
  40              		.size	ssl_ticket_update_keys, .-ssl_ticket_update_keys
  41              		.section	.text.ssl_ticket_gen_key,"ax",%progbits
  42              		.align	2
  43              		.code	16
  44              		.thumb_func
  45              		.type	ssl_ticket_gen_key, %function
  46              	ssl_ticket_gen_key:
  47              	.LFB19:
  62:Source\mbedtls_open\library/ssl_ticket.c ****     int ret;
  48              		.loc 1 62 0
  49              		.cfi_startproc
  50              		@ args = 0, pretend = 0, frame = 32
  51              		@ frame_needed = 0, uses_anonymous_args = 0
  52              	.LVL2:
  53 0000 30B5     		push	{r4, r5, lr}
  54              		.cfi_def_cfa_offset 12
  55              		.cfi_offset 4, -12
  56              		.cfi_offset 5, -8
  57              		.cfi_offset 14, -4
ARM GAS  C:\Users\Phuong\AppData\Local\Temp\cc6iV4S7.s 			page 4


  58 0002 89B0     		sub	sp, sp, #36
  59              		.cfi_def_cfa_offset 48
  60 0004 0500     		movs	r5, r0
  65:Source\mbedtls_open\library/ssl_ticket.c **** 
  61              		.loc 1 65 0
  62 0006 CB00     		lsls	r3, r1, #3
  63 0008 5918     		adds	r1, r3, r1
  64              	.LVL3:
  65 000a CB00     		lsls	r3, r1, #3
  66 000c C418     		adds	r4, r0, r3
  67              	.LVL4:
  71:Source\mbedtls_open\library/ssl_ticket.c ****         return( ret );
  68              		.loc 1 71 0
  69 000e 9823     		movs	r3, #152
  70 0010 C358     		ldr	r3, [r0, r3]
  71 0012 9C22     		movs	r2, #156
  72 0014 8058     		ldr	r0, [r0, r2]
  73              	.LVL5:
  74 0016 983A     		subs	r2, r2, #152
  75 0018 2100     		movs	r1, r4
  76 001a 9847     		blx	r3
  77              	.LVL6:
  78 001c 0028     		cmp	r0, #0
  79 001e 1ED1     		bne	.L3
  74:Source\mbedtls_open\library/ssl_ticket.c ****         return( ret );
  80              		.loc 1 74 0
  81 0020 9823     		movs	r3, #152
  82 0022 EB58     		ldr	r3, [r5, r3]
  83 0024 9C22     		movs	r2, #156
  84 0026 A858     		ldr	r0, [r5, r2]
  85              	.LVL7:
  86 0028 7C3A     		subs	r2, r2, #124
  87 002a 6946     		mov	r1, sp
  88 002c 9847     		blx	r3
  89              	.LVL8:
  90 002e 0028     		cmp	r0, #0
  91 0030 15D1     		bne	.L3
  79:Source\mbedtls_open\library/ssl_ticket.c ****                                  MBEDTLS_ENCRYPT );
  92              		.loc 1 79 0
  93 0032 2000     		movs	r0, r4
  94              	.LVL9:
  95 0034 0830     		adds	r0, r0, #8
  96              	.LVL10:
  97              	.LBB4:
  98              	.LBB5:
  99              		.file 2 ".\\Source\\mbedtls_open\\include/mbedtls/cipher.h"
   1:.\Source\mbedtls_open\include/mbedtls/cipher.h **** /**
   2:.\Source\mbedtls_open\include/mbedtls/cipher.h ****  * \file cipher.h
   3:.\Source\mbedtls_open\include/mbedtls/cipher.h ****  *
   4:.\Source\mbedtls_open\include/mbedtls/cipher.h ****  * \brief This file contains an abstraction interface for use with the cipher
   5:.\Source\mbedtls_open\include/mbedtls/cipher.h ****  * primitives provided by the library. It provides a common interface to all of
   6:.\Source\mbedtls_open\include/mbedtls/cipher.h ****  * the available cipher operations.
   7:.\Source\mbedtls_open\include/mbedtls/cipher.h ****  *
   8:.\Source\mbedtls_open\include/mbedtls/cipher.h ****  * \author Adriaan de Jong <dejong@fox-it.com>
   9:.\Source\mbedtls_open\include/mbedtls/cipher.h ****  */
  10:.\Source\mbedtls_open\include/mbedtls/cipher.h **** /*
  11:.\Source\mbedtls_open\include/mbedtls/cipher.h ****  *  Copyright (C) 2006-2018, Arm Limited (or its affiliates), All Rights Reserved
ARM GAS  C:\Users\Phuong\AppData\Local\Temp\cc6iV4S7.s 			page 5


  12:.\Source\mbedtls_open\include/mbedtls/cipher.h ****  *  SPDX-License-Identifier: Apache-2.0
  13:.\Source\mbedtls_open\include/mbedtls/cipher.h ****  *
  14:.\Source\mbedtls_open\include/mbedtls/cipher.h ****  *  Licensed under the Apache License, Version 2.0 (the "License"); you may
  15:.\Source\mbedtls_open\include/mbedtls/cipher.h ****  *  not use this file except in compliance with the License.
  16:.\Source\mbedtls_open\include/mbedtls/cipher.h ****  *  You may obtain a copy of the License at
  17:.\Source\mbedtls_open\include/mbedtls/cipher.h ****  *
  18:.\Source\mbedtls_open\include/mbedtls/cipher.h ****  *  http://www.apache.org/licenses/LICENSE-2.0
  19:.\Source\mbedtls_open\include/mbedtls/cipher.h ****  *
  20:.\Source\mbedtls_open\include/mbedtls/cipher.h ****  *  Unless required by applicable law or agreed to in writing, software
  21:.\Source\mbedtls_open\include/mbedtls/cipher.h ****  *  distributed under the License is distributed on an "AS IS" BASIS, WITHOUT
  22:.\Source\mbedtls_open\include/mbedtls/cipher.h ****  *  WARRANTIES OR CONDITIONS OF ANY KIND, either express or implied.
  23:.\Source\mbedtls_open\include/mbedtls/cipher.h ****  *  See the License for the specific language governing permissions and
  24:.\Source\mbedtls_open\include/mbedtls/cipher.h ****  *  limitations under the License.
  25:.\Source\mbedtls_open\include/mbedtls/cipher.h ****  *
  26:.\Source\mbedtls_open\include/mbedtls/cipher.h ****  *  This file is part of Mbed TLS (https://tls.mbed.org)
  27:.\Source\mbedtls_open\include/mbedtls/cipher.h ****  */
  28:.\Source\mbedtls_open\include/mbedtls/cipher.h **** 
  29:.\Source\mbedtls_open\include/mbedtls/cipher.h **** #ifndef MBEDTLS_CIPHER_H
  30:.\Source\mbedtls_open\include/mbedtls/cipher.h **** #define MBEDTLS_CIPHER_H
  31:.\Source\mbedtls_open\include/mbedtls/cipher.h **** 
  32:.\Source\mbedtls_open\include/mbedtls/cipher.h **** #if !defined(MBEDTLS_CONFIG_FILE)
  33:.\Source\mbedtls_open\include/mbedtls/cipher.h **** #include "config.h"
  34:.\Source\mbedtls_open\include/mbedtls/cipher.h **** #else
  35:.\Source\mbedtls_open\include/mbedtls/cipher.h **** #include MBEDTLS_CONFIG_FILE
  36:.\Source\mbedtls_open\include/mbedtls/cipher.h **** #endif
  37:.\Source\mbedtls_open\include/mbedtls/cipher.h **** 
  38:.\Source\mbedtls_open\include/mbedtls/cipher.h **** #include <stddef.h>
  39:.\Source\mbedtls_open\include/mbedtls/cipher.h **** 
  40:.\Source\mbedtls_open\include/mbedtls/cipher.h **** #if defined(MBEDTLS_GCM_C) || defined(MBEDTLS_CCM_C) || defined(MBEDTLS_CHACHAPOLY_C)
  41:.\Source\mbedtls_open\include/mbedtls/cipher.h **** #define MBEDTLS_CIPHER_MODE_AEAD
  42:.\Source\mbedtls_open\include/mbedtls/cipher.h **** #endif
  43:.\Source\mbedtls_open\include/mbedtls/cipher.h **** 
  44:.\Source\mbedtls_open\include/mbedtls/cipher.h **** #if defined(MBEDTLS_CIPHER_MODE_CBC)
  45:.\Source\mbedtls_open\include/mbedtls/cipher.h **** #define MBEDTLS_CIPHER_MODE_WITH_PADDING
  46:.\Source\mbedtls_open\include/mbedtls/cipher.h **** #endif
  47:.\Source\mbedtls_open\include/mbedtls/cipher.h **** 
  48:.\Source\mbedtls_open\include/mbedtls/cipher.h **** #if defined(MBEDTLS_ARC4_C) || defined(MBEDTLS_CIPHER_NULL_CIPHER) || \
  49:.\Source\mbedtls_open\include/mbedtls/cipher.h ****     defined(MBEDTLS_CHACHA20_C)
  50:.\Source\mbedtls_open\include/mbedtls/cipher.h **** #define MBEDTLS_CIPHER_MODE_STREAM
  51:.\Source\mbedtls_open\include/mbedtls/cipher.h **** #endif
  52:.\Source\mbedtls_open\include/mbedtls/cipher.h **** 
  53:.\Source\mbedtls_open\include/mbedtls/cipher.h **** #if ( defined(__ARMCC_VERSION) || defined(_MSC_VER) ) && \
  54:.\Source\mbedtls_open\include/mbedtls/cipher.h ****     !defined(inline) && !defined(__cplusplus)
  55:.\Source\mbedtls_open\include/mbedtls/cipher.h **** #define inline __inline
  56:.\Source\mbedtls_open\include/mbedtls/cipher.h **** #endif
  57:.\Source\mbedtls_open\include/mbedtls/cipher.h **** 
  58:.\Source\mbedtls_open\include/mbedtls/cipher.h **** #define MBEDTLS_ERR_CIPHER_FEATURE_UNAVAILABLE  -0x6080  /**< The selected feature is not available
  59:.\Source\mbedtls_open\include/mbedtls/cipher.h **** #define MBEDTLS_ERR_CIPHER_BAD_INPUT_DATA       -0x6100  /**< Bad input parameters. */
  60:.\Source\mbedtls_open\include/mbedtls/cipher.h **** #define MBEDTLS_ERR_CIPHER_ALLOC_FAILED         -0x6180  /**< Failed to allocate memory. */
  61:.\Source\mbedtls_open\include/mbedtls/cipher.h **** #define MBEDTLS_ERR_CIPHER_INVALID_PADDING      -0x6200  /**< Input data contains invalid padding a
  62:.\Source\mbedtls_open\include/mbedtls/cipher.h **** #define MBEDTLS_ERR_CIPHER_FULL_BLOCK_EXPECTED  -0x6280  /**< Decryption of block requires a full b
  63:.\Source\mbedtls_open\include/mbedtls/cipher.h **** #define MBEDTLS_ERR_CIPHER_AUTH_FAILED          -0x6300  /**< Authentication failed (for AEAD modes
  64:.\Source\mbedtls_open\include/mbedtls/cipher.h **** #define MBEDTLS_ERR_CIPHER_INVALID_CONTEXT      -0x6380  /**< The context is invalid. For example, 
  65:.\Source\mbedtls_open\include/mbedtls/cipher.h **** #define MBEDTLS_ERR_CIPHER_HW_ACCEL_FAILED      -0x6400  /**< Cipher hardware accelerator failed. *
  66:.\Source\mbedtls_open\include/mbedtls/cipher.h **** 
  67:.\Source\mbedtls_open\include/mbedtls/cipher.h **** #define MBEDTLS_CIPHER_VARIABLE_IV_LEN     0x01    /**< Cipher accepts IVs of variable length. */
  68:.\Source\mbedtls_open\include/mbedtls/cipher.h **** #define MBEDTLS_CIPHER_VARIABLE_KEY_LEN    0x02    /**< Cipher accepts keys of variable length. */
ARM GAS  C:\Users\Phuong\AppData\Local\Temp\cc6iV4S7.s 			page 6


  69:.\Source\mbedtls_open\include/mbedtls/cipher.h **** 
  70:.\Source\mbedtls_open\include/mbedtls/cipher.h **** #ifdef __cplusplus
  71:.\Source\mbedtls_open\include/mbedtls/cipher.h **** extern "C" {
  72:.\Source\mbedtls_open\include/mbedtls/cipher.h **** #endif
  73:.\Source\mbedtls_open\include/mbedtls/cipher.h **** 
  74:.\Source\mbedtls_open\include/mbedtls/cipher.h **** /**
  75:.\Source\mbedtls_open\include/mbedtls/cipher.h ****  * \brief     Supported cipher types.
  76:.\Source\mbedtls_open\include/mbedtls/cipher.h ****  *
  77:.\Source\mbedtls_open\include/mbedtls/cipher.h ****  * \warning   RC4 and DES are considered weak ciphers and their use
  78:.\Source\mbedtls_open\include/mbedtls/cipher.h ****  *            constitutes a security risk. Arm recommends considering stronger
  79:.\Source\mbedtls_open\include/mbedtls/cipher.h ****  *            ciphers instead.
  80:.\Source\mbedtls_open\include/mbedtls/cipher.h ****  */
  81:.\Source\mbedtls_open\include/mbedtls/cipher.h **** typedef enum {
  82:.\Source\mbedtls_open\include/mbedtls/cipher.h ****     MBEDTLS_CIPHER_ID_NONE = 0,  /**< Placeholder to mark the end of cipher ID lists. */
  83:.\Source\mbedtls_open\include/mbedtls/cipher.h ****     MBEDTLS_CIPHER_ID_NULL,      /**< The identity cipher, treated as a stream cipher. */
  84:.\Source\mbedtls_open\include/mbedtls/cipher.h ****     MBEDTLS_CIPHER_ID_AES,       /**< The AES cipher. */
  85:.\Source\mbedtls_open\include/mbedtls/cipher.h ****     MBEDTLS_CIPHER_ID_DES,       /**< The DES cipher. */
  86:.\Source\mbedtls_open\include/mbedtls/cipher.h ****     MBEDTLS_CIPHER_ID_3DES,      /**< The Triple DES cipher. */
  87:.\Source\mbedtls_open\include/mbedtls/cipher.h ****     MBEDTLS_CIPHER_ID_CAMELLIA,  /**< The Camellia cipher. */
  88:.\Source\mbedtls_open\include/mbedtls/cipher.h ****     MBEDTLS_CIPHER_ID_BLOWFISH,  /**< The Blowfish cipher. */
  89:.\Source\mbedtls_open\include/mbedtls/cipher.h ****     MBEDTLS_CIPHER_ID_ARC4,      /**< The RC4 cipher. */
  90:.\Source\mbedtls_open\include/mbedtls/cipher.h ****     MBEDTLS_CIPHER_ID_ARIA,      /**< The Aria cipher. */
  91:.\Source\mbedtls_open\include/mbedtls/cipher.h ****     MBEDTLS_CIPHER_ID_CHACHA20,  /**< The ChaCha20 cipher. */
  92:.\Source\mbedtls_open\include/mbedtls/cipher.h **** } mbedtls_cipher_id_t;
  93:.\Source\mbedtls_open\include/mbedtls/cipher.h **** 
  94:.\Source\mbedtls_open\include/mbedtls/cipher.h **** /**
  95:.\Source\mbedtls_open\include/mbedtls/cipher.h ****  * \brief     Supported {cipher type, cipher mode} pairs.
  96:.\Source\mbedtls_open\include/mbedtls/cipher.h ****  *
  97:.\Source\mbedtls_open\include/mbedtls/cipher.h ****  * \warning   RC4 and DES are considered weak ciphers and their use
  98:.\Source\mbedtls_open\include/mbedtls/cipher.h ****  *            constitutes a security risk. Arm recommends considering stronger
  99:.\Source\mbedtls_open\include/mbedtls/cipher.h ****  *            ciphers instead.
 100:.\Source\mbedtls_open\include/mbedtls/cipher.h ****  */
 101:.\Source\mbedtls_open\include/mbedtls/cipher.h **** typedef enum {
 102:.\Source\mbedtls_open\include/mbedtls/cipher.h ****     MBEDTLS_CIPHER_NONE = 0,             /**< Placeholder to mark the end of cipher-pair lists. */
 103:.\Source\mbedtls_open\include/mbedtls/cipher.h ****     MBEDTLS_CIPHER_NULL,                 /**< The identity stream cipher. */
 104:.\Source\mbedtls_open\include/mbedtls/cipher.h ****     MBEDTLS_CIPHER_AES_128_ECB,          /**< AES cipher with 128-bit ECB mode. */
 105:.\Source\mbedtls_open\include/mbedtls/cipher.h ****     MBEDTLS_CIPHER_AES_192_ECB,          /**< AES cipher with 192-bit ECB mode. */
 106:.\Source\mbedtls_open\include/mbedtls/cipher.h ****     MBEDTLS_CIPHER_AES_256_ECB,          /**< AES cipher with 256-bit ECB mode. */
 107:.\Source\mbedtls_open\include/mbedtls/cipher.h ****     MBEDTLS_CIPHER_AES_128_CBC,          /**< AES cipher with 128-bit CBC mode. */
 108:.\Source\mbedtls_open\include/mbedtls/cipher.h ****     MBEDTLS_CIPHER_AES_192_CBC,          /**< AES cipher with 192-bit CBC mode. */
 109:.\Source\mbedtls_open\include/mbedtls/cipher.h ****     MBEDTLS_CIPHER_AES_256_CBC,          /**< AES cipher with 256-bit CBC mode. */
 110:.\Source\mbedtls_open\include/mbedtls/cipher.h ****     MBEDTLS_CIPHER_AES_128_CFB128,       /**< AES cipher with 128-bit CFB128 mode. */
 111:.\Source\mbedtls_open\include/mbedtls/cipher.h ****     MBEDTLS_CIPHER_AES_192_CFB128,       /**< AES cipher with 192-bit CFB128 mode. */
 112:.\Source\mbedtls_open\include/mbedtls/cipher.h ****     MBEDTLS_CIPHER_AES_256_CFB128,       /**< AES cipher with 256-bit CFB128 mode. */
 113:.\Source\mbedtls_open\include/mbedtls/cipher.h ****     MBEDTLS_CIPHER_AES_128_CTR,          /**< AES cipher with 128-bit CTR mode. */
 114:.\Source\mbedtls_open\include/mbedtls/cipher.h ****     MBEDTLS_CIPHER_AES_192_CTR,          /**< AES cipher with 192-bit CTR mode. */
 115:.\Source\mbedtls_open\include/mbedtls/cipher.h ****     MBEDTLS_CIPHER_AES_256_CTR,          /**< AES cipher with 256-bit CTR mode. */
 116:.\Source\mbedtls_open\include/mbedtls/cipher.h ****     MBEDTLS_CIPHER_AES_128_GCM,          /**< AES cipher with 128-bit GCM mode. */
 117:.\Source\mbedtls_open\include/mbedtls/cipher.h ****     MBEDTLS_CIPHER_AES_192_GCM,          /**< AES cipher with 192-bit GCM mode. */
 118:.\Source\mbedtls_open\include/mbedtls/cipher.h ****     MBEDTLS_CIPHER_AES_256_GCM,          /**< AES cipher with 256-bit GCM mode. */
 119:.\Source\mbedtls_open\include/mbedtls/cipher.h ****     MBEDTLS_CIPHER_CAMELLIA_128_ECB,     /**< Camellia cipher with 128-bit ECB mode. */
 120:.\Source\mbedtls_open\include/mbedtls/cipher.h ****     MBEDTLS_CIPHER_CAMELLIA_192_ECB,     /**< Camellia cipher with 192-bit ECB mode. */
 121:.\Source\mbedtls_open\include/mbedtls/cipher.h ****     MBEDTLS_CIPHER_CAMELLIA_256_ECB,     /**< Camellia cipher with 256-bit ECB mode. */
 122:.\Source\mbedtls_open\include/mbedtls/cipher.h ****     MBEDTLS_CIPHER_CAMELLIA_128_CBC,     /**< Camellia cipher with 128-bit CBC mode. */
 123:.\Source\mbedtls_open\include/mbedtls/cipher.h ****     MBEDTLS_CIPHER_CAMELLIA_192_CBC,     /**< Camellia cipher with 192-bit CBC mode. */
 124:.\Source\mbedtls_open\include/mbedtls/cipher.h ****     MBEDTLS_CIPHER_CAMELLIA_256_CBC,     /**< Camellia cipher with 256-bit CBC mode. */
 125:.\Source\mbedtls_open\include/mbedtls/cipher.h ****     MBEDTLS_CIPHER_CAMELLIA_128_CFB128,  /**< Camellia cipher with 128-bit CFB128 mode. */
ARM GAS  C:\Users\Phuong\AppData\Local\Temp\cc6iV4S7.s 			page 7


 126:.\Source\mbedtls_open\include/mbedtls/cipher.h ****     MBEDTLS_CIPHER_CAMELLIA_192_CFB128,  /**< Camellia cipher with 192-bit CFB128 mode. */
 127:.\Source\mbedtls_open\include/mbedtls/cipher.h ****     MBEDTLS_CIPHER_CAMELLIA_256_CFB128,  /**< Camellia cipher with 256-bit CFB128 mode. */
 128:.\Source\mbedtls_open\include/mbedtls/cipher.h ****     MBEDTLS_CIPHER_CAMELLIA_128_CTR,     /**< Camellia cipher with 128-bit CTR mode. */
 129:.\Source\mbedtls_open\include/mbedtls/cipher.h ****     MBEDTLS_CIPHER_CAMELLIA_192_CTR,     /**< Camellia cipher with 192-bit CTR mode. */
 130:.\Source\mbedtls_open\include/mbedtls/cipher.h ****     MBEDTLS_CIPHER_CAMELLIA_256_CTR,     /**< Camellia cipher with 256-bit CTR mode. */
 131:.\Source\mbedtls_open\include/mbedtls/cipher.h ****     MBEDTLS_CIPHER_CAMELLIA_128_GCM,     /**< Camellia cipher with 128-bit GCM mode. */
 132:.\Source\mbedtls_open\include/mbedtls/cipher.h ****     MBEDTLS_CIPHER_CAMELLIA_192_GCM,     /**< Camellia cipher with 192-bit GCM mode. */
 133:.\Source\mbedtls_open\include/mbedtls/cipher.h ****     MBEDTLS_CIPHER_CAMELLIA_256_GCM,     /**< Camellia cipher with 256-bit GCM mode. */
 134:.\Source\mbedtls_open\include/mbedtls/cipher.h ****     MBEDTLS_CIPHER_DES_ECB,              /**< DES cipher with ECB mode. */
 135:.\Source\mbedtls_open\include/mbedtls/cipher.h ****     MBEDTLS_CIPHER_DES_CBC,              /**< DES cipher with CBC mode. */
 136:.\Source\mbedtls_open\include/mbedtls/cipher.h ****     MBEDTLS_CIPHER_DES_EDE_ECB,          /**< DES cipher with EDE ECB mode. */
 137:.\Source\mbedtls_open\include/mbedtls/cipher.h ****     MBEDTLS_CIPHER_DES_EDE_CBC,          /**< DES cipher with EDE CBC mode. */
 138:.\Source\mbedtls_open\include/mbedtls/cipher.h ****     MBEDTLS_CIPHER_DES_EDE3_ECB,         /**< DES cipher with EDE3 ECB mode. */
 139:.\Source\mbedtls_open\include/mbedtls/cipher.h ****     MBEDTLS_CIPHER_DES_EDE3_CBC,         /**< DES cipher with EDE3 CBC mode. */
 140:.\Source\mbedtls_open\include/mbedtls/cipher.h ****     MBEDTLS_CIPHER_BLOWFISH_ECB,         /**< Blowfish cipher with ECB mode. */
 141:.\Source\mbedtls_open\include/mbedtls/cipher.h ****     MBEDTLS_CIPHER_BLOWFISH_CBC,         /**< Blowfish cipher with CBC mode. */
 142:.\Source\mbedtls_open\include/mbedtls/cipher.h ****     MBEDTLS_CIPHER_BLOWFISH_CFB64,       /**< Blowfish cipher with CFB64 mode. */
 143:.\Source\mbedtls_open\include/mbedtls/cipher.h ****     MBEDTLS_CIPHER_BLOWFISH_CTR,         /**< Blowfish cipher with CTR mode. */
 144:.\Source\mbedtls_open\include/mbedtls/cipher.h ****     MBEDTLS_CIPHER_ARC4_128,             /**< RC4 cipher with 128-bit mode. */
 145:.\Source\mbedtls_open\include/mbedtls/cipher.h ****     MBEDTLS_CIPHER_AES_128_CCM,          /**< AES cipher with 128-bit CCM mode. */
 146:.\Source\mbedtls_open\include/mbedtls/cipher.h ****     MBEDTLS_CIPHER_AES_192_CCM,          /**< AES cipher with 192-bit CCM mode. */
 147:.\Source\mbedtls_open\include/mbedtls/cipher.h ****     MBEDTLS_CIPHER_AES_256_CCM,          /**< AES cipher with 256-bit CCM mode. */
 148:.\Source\mbedtls_open\include/mbedtls/cipher.h ****     MBEDTLS_CIPHER_CAMELLIA_128_CCM,     /**< Camellia cipher with 128-bit CCM mode. */
 149:.\Source\mbedtls_open\include/mbedtls/cipher.h ****     MBEDTLS_CIPHER_CAMELLIA_192_CCM,     /**< Camellia cipher with 192-bit CCM mode. */
 150:.\Source\mbedtls_open\include/mbedtls/cipher.h ****     MBEDTLS_CIPHER_CAMELLIA_256_CCM,     /**< Camellia cipher with 256-bit CCM mode. */
 151:.\Source\mbedtls_open\include/mbedtls/cipher.h ****     MBEDTLS_CIPHER_ARIA_128_ECB,         /**< Aria cipher with 128-bit key and ECB mode. */
 152:.\Source\mbedtls_open\include/mbedtls/cipher.h ****     MBEDTLS_CIPHER_ARIA_192_ECB,         /**< Aria cipher with 192-bit key and ECB mode. */
 153:.\Source\mbedtls_open\include/mbedtls/cipher.h ****     MBEDTLS_CIPHER_ARIA_256_ECB,         /**< Aria cipher with 256-bit key and ECB mode. */
 154:.\Source\mbedtls_open\include/mbedtls/cipher.h ****     MBEDTLS_CIPHER_ARIA_128_CBC,         /**< Aria cipher with 128-bit key and CBC mode. */
 155:.\Source\mbedtls_open\include/mbedtls/cipher.h ****     MBEDTLS_CIPHER_ARIA_192_CBC,         /**< Aria cipher with 192-bit key and CBC mode. */
 156:.\Source\mbedtls_open\include/mbedtls/cipher.h ****     MBEDTLS_CIPHER_ARIA_256_CBC,         /**< Aria cipher with 256-bit key and CBC mode. */
 157:.\Source\mbedtls_open\include/mbedtls/cipher.h ****     MBEDTLS_CIPHER_ARIA_128_CFB128,      /**< Aria cipher with 128-bit key and CFB-128 mode. */
 158:.\Source\mbedtls_open\include/mbedtls/cipher.h ****     MBEDTLS_CIPHER_ARIA_192_CFB128,      /**< Aria cipher with 192-bit key and CFB-128 mode. */
 159:.\Source\mbedtls_open\include/mbedtls/cipher.h ****     MBEDTLS_CIPHER_ARIA_256_CFB128,      /**< Aria cipher with 256-bit key and CFB-128 mode. */
 160:.\Source\mbedtls_open\include/mbedtls/cipher.h ****     MBEDTLS_CIPHER_ARIA_128_CTR,         /**< Aria cipher with 128-bit key and CTR mode. */
 161:.\Source\mbedtls_open\include/mbedtls/cipher.h ****     MBEDTLS_CIPHER_ARIA_192_CTR,         /**< Aria cipher with 192-bit key and CTR mode. */
 162:.\Source\mbedtls_open\include/mbedtls/cipher.h ****     MBEDTLS_CIPHER_ARIA_256_CTR,         /**< Aria cipher with 256-bit key and CTR mode. */
 163:.\Source\mbedtls_open\include/mbedtls/cipher.h ****     MBEDTLS_CIPHER_ARIA_128_GCM,         /**< Aria cipher with 128-bit key and GCM mode. */
 164:.\Source\mbedtls_open\include/mbedtls/cipher.h ****     MBEDTLS_CIPHER_ARIA_192_GCM,         /**< Aria cipher with 192-bit key and GCM mode. */
 165:.\Source\mbedtls_open\include/mbedtls/cipher.h ****     MBEDTLS_CIPHER_ARIA_256_GCM,         /**< Aria cipher with 256-bit key and GCM mode. */
 166:.\Source\mbedtls_open\include/mbedtls/cipher.h ****     MBEDTLS_CIPHER_ARIA_128_CCM,         /**< Aria cipher with 128-bit key and CCM mode. */
 167:.\Source\mbedtls_open\include/mbedtls/cipher.h ****     MBEDTLS_CIPHER_ARIA_192_CCM,         /**< Aria cipher with 192-bit key and CCM mode. */
 168:.\Source\mbedtls_open\include/mbedtls/cipher.h ****     MBEDTLS_CIPHER_ARIA_256_CCM,         /**< Aria cipher with 256-bit key and CCM mode. */
 169:.\Source\mbedtls_open\include/mbedtls/cipher.h ****     MBEDTLS_CIPHER_AES_128_OFB,          /**< AES 128-bit cipher in OFB mode. */
 170:.\Source\mbedtls_open\include/mbedtls/cipher.h ****     MBEDTLS_CIPHER_AES_192_OFB,          /**< AES 192-bit cipher in OFB mode. */
 171:.\Source\mbedtls_open\include/mbedtls/cipher.h ****     MBEDTLS_CIPHER_AES_256_OFB,          /**< AES 256-bit cipher in OFB mode. */
 172:.\Source\mbedtls_open\include/mbedtls/cipher.h ****     MBEDTLS_CIPHER_AES_128_XTS,          /**< AES 128-bit cipher in XTS block mode. */
 173:.\Source\mbedtls_open\include/mbedtls/cipher.h ****     MBEDTLS_CIPHER_AES_256_XTS,          /**< AES 256-bit cipher in XTS block mode. */
 174:.\Source\mbedtls_open\include/mbedtls/cipher.h ****     MBEDTLS_CIPHER_CHACHA20,             /**< ChaCha20 stream cipher. */
 175:.\Source\mbedtls_open\include/mbedtls/cipher.h ****     MBEDTLS_CIPHER_CHACHA20_POLY1305,    /**< ChaCha20-Poly1305 AEAD cipher. */
 176:.\Source\mbedtls_open\include/mbedtls/cipher.h **** } mbedtls_cipher_type_t;
 177:.\Source\mbedtls_open\include/mbedtls/cipher.h **** 
 178:.\Source\mbedtls_open\include/mbedtls/cipher.h **** /** Supported cipher modes. */
 179:.\Source\mbedtls_open\include/mbedtls/cipher.h **** typedef enum {
 180:.\Source\mbedtls_open\include/mbedtls/cipher.h ****     MBEDTLS_MODE_NONE = 0,               /**< None. */
 181:.\Source\mbedtls_open\include/mbedtls/cipher.h ****     MBEDTLS_MODE_ECB,                    /**< The ECB cipher mode. */
 182:.\Source\mbedtls_open\include/mbedtls/cipher.h ****     MBEDTLS_MODE_CBC,                    /**< The CBC cipher mode. */
ARM GAS  C:\Users\Phuong\AppData\Local\Temp\cc6iV4S7.s 			page 8


 183:.\Source\mbedtls_open\include/mbedtls/cipher.h ****     MBEDTLS_MODE_CFB,                    /**< The CFB cipher mode. */
 184:.\Source\mbedtls_open\include/mbedtls/cipher.h ****     MBEDTLS_MODE_OFB,                    /**< The OFB cipher mode. */
 185:.\Source\mbedtls_open\include/mbedtls/cipher.h ****     MBEDTLS_MODE_CTR,                    /**< The CTR cipher mode. */
 186:.\Source\mbedtls_open\include/mbedtls/cipher.h ****     MBEDTLS_MODE_GCM,                    /**< The GCM cipher mode. */
 187:.\Source\mbedtls_open\include/mbedtls/cipher.h ****     MBEDTLS_MODE_STREAM,                 /**< The stream cipher mode. */
 188:.\Source\mbedtls_open\include/mbedtls/cipher.h ****     MBEDTLS_MODE_CCM,                    /**< The CCM cipher mode. */
 189:.\Source\mbedtls_open\include/mbedtls/cipher.h ****     MBEDTLS_MODE_XTS,                    /**< The XTS cipher mode. */
 190:.\Source\mbedtls_open\include/mbedtls/cipher.h ****     MBEDTLS_MODE_CHACHAPOLY,             /**< The ChaCha-Poly cipher mode. */
 191:.\Source\mbedtls_open\include/mbedtls/cipher.h **** } mbedtls_cipher_mode_t;
 192:.\Source\mbedtls_open\include/mbedtls/cipher.h **** 
 193:.\Source\mbedtls_open\include/mbedtls/cipher.h **** /** Supported cipher padding types. */
 194:.\Source\mbedtls_open\include/mbedtls/cipher.h **** typedef enum {
 195:.\Source\mbedtls_open\include/mbedtls/cipher.h ****     MBEDTLS_PADDING_PKCS7 = 0,     /**< PKCS7 padding (default).        */
 196:.\Source\mbedtls_open\include/mbedtls/cipher.h ****     MBEDTLS_PADDING_ONE_AND_ZEROS, /**< ISO/IEC 7816-4 padding.         */
 197:.\Source\mbedtls_open\include/mbedtls/cipher.h ****     MBEDTLS_PADDING_ZEROS_AND_LEN, /**< ANSI X.923 padding.             */
 198:.\Source\mbedtls_open\include/mbedtls/cipher.h ****     MBEDTLS_PADDING_ZEROS,         /**< Zero padding (not reversible). */
 199:.\Source\mbedtls_open\include/mbedtls/cipher.h ****     MBEDTLS_PADDING_NONE,          /**< Never pad (full blocks only).   */
 200:.\Source\mbedtls_open\include/mbedtls/cipher.h **** } mbedtls_cipher_padding_t;
 201:.\Source\mbedtls_open\include/mbedtls/cipher.h **** 
 202:.\Source\mbedtls_open\include/mbedtls/cipher.h **** /** Type of operation. */
 203:.\Source\mbedtls_open\include/mbedtls/cipher.h **** typedef enum {
 204:.\Source\mbedtls_open\include/mbedtls/cipher.h ****     MBEDTLS_OPERATION_NONE = -1,
 205:.\Source\mbedtls_open\include/mbedtls/cipher.h ****     MBEDTLS_DECRYPT = 0,
 206:.\Source\mbedtls_open\include/mbedtls/cipher.h ****     MBEDTLS_ENCRYPT,
 207:.\Source\mbedtls_open\include/mbedtls/cipher.h **** } mbedtls_operation_t;
 208:.\Source\mbedtls_open\include/mbedtls/cipher.h **** 
 209:.\Source\mbedtls_open\include/mbedtls/cipher.h **** enum {
 210:.\Source\mbedtls_open\include/mbedtls/cipher.h ****     /** Undefined key length. */
 211:.\Source\mbedtls_open\include/mbedtls/cipher.h ****     MBEDTLS_KEY_LENGTH_NONE = 0,
 212:.\Source\mbedtls_open\include/mbedtls/cipher.h ****     /** Key length, in bits (including parity), for DES keys. */
 213:.\Source\mbedtls_open\include/mbedtls/cipher.h ****     MBEDTLS_KEY_LENGTH_DES  = 64,
 214:.\Source\mbedtls_open\include/mbedtls/cipher.h ****     /** Key length in bits, including parity, for DES in two-key EDE. */
 215:.\Source\mbedtls_open\include/mbedtls/cipher.h ****     MBEDTLS_KEY_LENGTH_DES_EDE = 128,
 216:.\Source\mbedtls_open\include/mbedtls/cipher.h ****     /** Key length in bits, including parity, for DES in three-key EDE. */
 217:.\Source\mbedtls_open\include/mbedtls/cipher.h ****     MBEDTLS_KEY_LENGTH_DES_EDE3 = 192,
 218:.\Source\mbedtls_open\include/mbedtls/cipher.h **** };
 219:.\Source\mbedtls_open\include/mbedtls/cipher.h **** 
 220:.\Source\mbedtls_open\include/mbedtls/cipher.h **** /** Maximum length of any IV, in Bytes. */
 221:.\Source\mbedtls_open\include/mbedtls/cipher.h **** #define MBEDTLS_MAX_IV_LENGTH      16
 222:.\Source\mbedtls_open\include/mbedtls/cipher.h **** /** Maximum block size of any cipher, in Bytes. */
 223:.\Source\mbedtls_open\include/mbedtls/cipher.h **** #define MBEDTLS_MAX_BLOCK_LENGTH   16
 224:.\Source\mbedtls_open\include/mbedtls/cipher.h **** 
 225:.\Source\mbedtls_open\include/mbedtls/cipher.h **** /**
 226:.\Source\mbedtls_open\include/mbedtls/cipher.h ****  * Base cipher information (opaque struct).
 227:.\Source\mbedtls_open\include/mbedtls/cipher.h ****  */
 228:.\Source\mbedtls_open\include/mbedtls/cipher.h **** typedef struct mbedtls_cipher_base_t mbedtls_cipher_base_t;
 229:.\Source\mbedtls_open\include/mbedtls/cipher.h **** 
 230:.\Source\mbedtls_open\include/mbedtls/cipher.h **** /**
 231:.\Source\mbedtls_open\include/mbedtls/cipher.h ****  * CMAC context (opaque struct).
 232:.\Source\mbedtls_open\include/mbedtls/cipher.h ****  */
 233:.\Source\mbedtls_open\include/mbedtls/cipher.h **** typedef struct mbedtls_cmac_context_t mbedtls_cmac_context_t;
 234:.\Source\mbedtls_open\include/mbedtls/cipher.h **** 
 235:.\Source\mbedtls_open\include/mbedtls/cipher.h **** /**
 236:.\Source\mbedtls_open\include/mbedtls/cipher.h ****  * Cipher information. Allows calling cipher functions
 237:.\Source\mbedtls_open\include/mbedtls/cipher.h ****  * in a generic way.
 238:.\Source\mbedtls_open\include/mbedtls/cipher.h ****  */
 239:.\Source\mbedtls_open\include/mbedtls/cipher.h **** typedef struct mbedtls_cipher_info_t
ARM GAS  C:\Users\Phuong\AppData\Local\Temp\cc6iV4S7.s 			page 9


 240:.\Source\mbedtls_open\include/mbedtls/cipher.h **** {
 241:.\Source\mbedtls_open\include/mbedtls/cipher.h ****     /** Full cipher identifier. For example,
 242:.\Source\mbedtls_open\include/mbedtls/cipher.h ****      * MBEDTLS_CIPHER_AES_256_CBC.
 243:.\Source\mbedtls_open\include/mbedtls/cipher.h ****      */
 244:.\Source\mbedtls_open\include/mbedtls/cipher.h ****     mbedtls_cipher_type_t type;
 245:.\Source\mbedtls_open\include/mbedtls/cipher.h **** 
 246:.\Source\mbedtls_open\include/mbedtls/cipher.h ****     /** The cipher mode. For example, MBEDTLS_MODE_CBC. */
 247:.\Source\mbedtls_open\include/mbedtls/cipher.h ****     mbedtls_cipher_mode_t mode;
 248:.\Source\mbedtls_open\include/mbedtls/cipher.h **** 
 249:.\Source\mbedtls_open\include/mbedtls/cipher.h ****     /** The cipher key length, in bits. This is the
 250:.\Source\mbedtls_open\include/mbedtls/cipher.h ****      * default length for variable sized ciphers.
 251:.\Source\mbedtls_open\include/mbedtls/cipher.h ****      * Includes parity bits for ciphers like DES.
 252:.\Source\mbedtls_open\include/mbedtls/cipher.h ****      */
 253:.\Source\mbedtls_open\include/mbedtls/cipher.h ****     unsigned int key_bitlen;
 254:.\Source\mbedtls_open\include/mbedtls/cipher.h **** 
 255:.\Source\mbedtls_open\include/mbedtls/cipher.h ****     /** Name of the cipher. */
 256:.\Source\mbedtls_open\include/mbedtls/cipher.h ****     const char * name;
 257:.\Source\mbedtls_open\include/mbedtls/cipher.h **** 
 258:.\Source\mbedtls_open\include/mbedtls/cipher.h ****     /** IV or nonce size, in Bytes.
 259:.\Source\mbedtls_open\include/mbedtls/cipher.h ****      * For ciphers that accept variable IV sizes,
 260:.\Source\mbedtls_open\include/mbedtls/cipher.h ****      * this is the recommended size.
 261:.\Source\mbedtls_open\include/mbedtls/cipher.h ****      */
 262:.\Source\mbedtls_open\include/mbedtls/cipher.h ****     unsigned int iv_size;
 263:.\Source\mbedtls_open\include/mbedtls/cipher.h **** 
 264:.\Source\mbedtls_open\include/mbedtls/cipher.h ****     /** Bitflag comprised of MBEDTLS_CIPHER_VARIABLE_IV_LEN and
 265:.\Source\mbedtls_open\include/mbedtls/cipher.h ****      *  MBEDTLS_CIPHER_VARIABLE_KEY_LEN indicating whether the
 266:.\Source\mbedtls_open\include/mbedtls/cipher.h ****      *  cipher supports variable IV or variable key sizes, respectively.
 267:.\Source\mbedtls_open\include/mbedtls/cipher.h ****      */
 268:.\Source\mbedtls_open\include/mbedtls/cipher.h ****     int flags;
 269:.\Source\mbedtls_open\include/mbedtls/cipher.h **** 
 270:.\Source\mbedtls_open\include/mbedtls/cipher.h ****     /** The block size, in Bytes. */
 271:.\Source\mbedtls_open\include/mbedtls/cipher.h ****     unsigned int block_size;
 272:.\Source\mbedtls_open\include/mbedtls/cipher.h **** 
 273:.\Source\mbedtls_open\include/mbedtls/cipher.h ****     /** Struct for base cipher information and functions. */
 274:.\Source\mbedtls_open\include/mbedtls/cipher.h ****     const mbedtls_cipher_base_t *base;
 275:.\Source\mbedtls_open\include/mbedtls/cipher.h **** 
 276:.\Source\mbedtls_open\include/mbedtls/cipher.h **** } mbedtls_cipher_info_t;
 277:.\Source\mbedtls_open\include/mbedtls/cipher.h **** 
 278:.\Source\mbedtls_open\include/mbedtls/cipher.h **** /**
 279:.\Source\mbedtls_open\include/mbedtls/cipher.h ****  * Generic cipher context.
 280:.\Source\mbedtls_open\include/mbedtls/cipher.h ****  */
 281:.\Source\mbedtls_open\include/mbedtls/cipher.h **** typedef struct mbedtls_cipher_context_t
 282:.\Source\mbedtls_open\include/mbedtls/cipher.h **** {
 283:.\Source\mbedtls_open\include/mbedtls/cipher.h ****     /** Information about the associated cipher. */
 284:.\Source\mbedtls_open\include/mbedtls/cipher.h ****     const mbedtls_cipher_info_t *cipher_info;
 285:.\Source\mbedtls_open\include/mbedtls/cipher.h **** 
 286:.\Source\mbedtls_open\include/mbedtls/cipher.h ****     /** Key length to use. */
 287:.\Source\mbedtls_open\include/mbedtls/cipher.h ****     int key_bitlen;
 288:.\Source\mbedtls_open\include/mbedtls/cipher.h **** 
 289:.\Source\mbedtls_open\include/mbedtls/cipher.h ****     /** Operation that the key of the context has been
 290:.\Source\mbedtls_open\include/mbedtls/cipher.h ****      * initialized for.
 291:.\Source\mbedtls_open\include/mbedtls/cipher.h ****      */
 292:.\Source\mbedtls_open\include/mbedtls/cipher.h ****     mbedtls_operation_t operation;
 293:.\Source\mbedtls_open\include/mbedtls/cipher.h **** 
 294:.\Source\mbedtls_open\include/mbedtls/cipher.h **** #if defined(MBEDTLS_CIPHER_MODE_WITH_PADDING)
 295:.\Source\mbedtls_open\include/mbedtls/cipher.h ****     /** Padding functions to use, if relevant for
 296:.\Source\mbedtls_open\include/mbedtls/cipher.h ****      * the specific cipher mode.
ARM GAS  C:\Users\Phuong\AppData\Local\Temp\cc6iV4S7.s 			page 10


 297:.\Source\mbedtls_open\include/mbedtls/cipher.h ****      */
 298:.\Source\mbedtls_open\include/mbedtls/cipher.h ****     void (*add_padding)( unsigned char *output, size_t olen, size_t data_len );
 299:.\Source\mbedtls_open\include/mbedtls/cipher.h ****     int (*get_padding)( unsigned char *input, size_t ilen, size_t *data_len );
 300:.\Source\mbedtls_open\include/mbedtls/cipher.h **** #endif
 301:.\Source\mbedtls_open\include/mbedtls/cipher.h **** 
 302:.\Source\mbedtls_open\include/mbedtls/cipher.h ****     /** Buffer for input that has not been processed yet. */
 303:.\Source\mbedtls_open\include/mbedtls/cipher.h ****     unsigned char unprocessed_data[MBEDTLS_MAX_BLOCK_LENGTH];
 304:.\Source\mbedtls_open\include/mbedtls/cipher.h **** 
 305:.\Source\mbedtls_open\include/mbedtls/cipher.h ****     /** Number of Bytes that have not been processed yet. */
 306:.\Source\mbedtls_open\include/mbedtls/cipher.h ****     size_t unprocessed_len;
 307:.\Source\mbedtls_open\include/mbedtls/cipher.h **** 
 308:.\Source\mbedtls_open\include/mbedtls/cipher.h ****     /** Current IV or NONCE_COUNTER for CTR-mode, data unit (or sector) number
 309:.\Source\mbedtls_open\include/mbedtls/cipher.h ****      * for XTS-mode. */
 310:.\Source\mbedtls_open\include/mbedtls/cipher.h ****     unsigned char iv[MBEDTLS_MAX_IV_LENGTH];
 311:.\Source\mbedtls_open\include/mbedtls/cipher.h **** 
 312:.\Source\mbedtls_open\include/mbedtls/cipher.h ****     /** IV size in Bytes, for ciphers with variable-length IVs. */
 313:.\Source\mbedtls_open\include/mbedtls/cipher.h ****     size_t iv_size;
 314:.\Source\mbedtls_open\include/mbedtls/cipher.h **** 
 315:.\Source\mbedtls_open\include/mbedtls/cipher.h ****     /** The cipher-specific context. */
 316:.\Source\mbedtls_open\include/mbedtls/cipher.h ****     void *cipher_ctx;
 317:.\Source\mbedtls_open\include/mbedtls/cipher.h **** 
 318:.\Source\mbedtls_open\include/mbedtls/cipher.h **** #if defined(MBEDTLS_CMAC_C)
 319:.\Source\mbedtls_open\include/mbedtls/cipher.h ****     /** CMAC-specific context. */
 320:.\Source\mbedtls_open\include/mbedtls/cipher.h ****     mbedtls_cmac_context_t *cmac_ctx;
 321:.\Source\mbedtls_open\include/mbedtls/cipher.h **** #endif
 322:.\Source\mbedtls_open\include/mbedtls/cipher.h **** } mbedtls_cipher_context_t;
 323:.\Source\mbedtls_open\include/mbedtls/cipher.h **** 
 324:.\Source\mbedtls_open\include/mbedtls/cipher.h **** /**
 325:.\Source\mbedtls_open\include/mbedtls/cipher.h ****  * \brief This function retrieves the list of ciphers supported by the generic
 326:.\Source\mbedtls_open\include/mbedtls/cipher.h ****  * cipher module.
 327:.\Source\mbedtls_open\include/mbedtls/cipher.h ****  *
 328:.\Source\mbedtls_open\include/mbedtls/cipher.h ****  * \return      A statically-allocated array of ciphers. The last entry
 329:.\Source\mbedtls_open\include/mbedtls/cipher.h ****  *              is zero.
 330:.\Source\mbedtls_open\include/mbedtls/cipher.h ****  */
 331:.\Source\mbedtls_open\include/mbedtls/cipher.h **** const int *mbedtls_cipher_list( void );
 332:.\Source\mbedtls_open\include/mbedtls/cipher.h **** 
 333:.\Source\mbedtls_open\include/mbedtls/cipher.h **** /**
 334:.\Source\mbedtls_open\include/mbedtls/cipher.h ****  * \brief               This function retrieves the cipher-information
 335:.\Source\mbedtls_open\include/mbedtls/cipher.h ****  *                      structure associated with the given cipher name.
 336:.\Source\mbedtls_open\include/mbedtls/cipher.h ****  *
 337:.\Source\mbedtls_open\include/mbedtls/cipher.h ****  * \param cipher_name   Name of the cipher to search for.
 338:.\Source\mbedtls_open\include/mbedtls/cipher.h ****  *
 339:.\Source\mbedtls_open\include/mbedtls/cipher.h ****  * \return              The cipher information structure associated with the
 340:.\Source\mbedtls_open\include/mbedtls/cipher.h ****  *                      given \p cipher_name.
 341:.\Source\mbedtls_open\include/mbedtls/cipher.h ****  * \return              NULL if the associated cipher information is not found.
 342:.\Source\mbedtls_open\include/mbedtls/cipher.h ****  */
 343:.\Source\mbedtls_open\include/mbedtls/cipher.h **** const mbedtls_cipher_info_t *mbedtls_cipher_info_from_string( const char *cipher_name );
 344:.\Source\mbedtls_open\include/mbedtls/cipher.h **** 
 345:.\Source\mbedtls_open\include/mbedtls/cipher.h **** /**
 346:.\Source\mbedtls_open\include/mbedtls/cipher.h ****  * \brief               This function retrieves the cipher-information
 347:.\Source\mbedtls_open\include/mbedtls/cipher.h ****  *                      structure associated with the given cipher type.
 348:.\Source\mbedtls_open\include/mbedtls/cipher.h ****  *
 349:.\Source\mbedtls_open\include/mbedtls/cipher.h ****  * \param cipher_type   Type of the cipher to search for.
 350:.\Source\mbedtls_open\include/mbedtls/cipher.h ****  *
 351:.\Source\mbedtls_open\include/mbedtls/cipher.h ****  * \return              The cipher information structure associated with the
 352:.\Source\mbedtls_open\include/mbedtls/cipher.h ****  *                      given \p cipher_type.
 353:.\Source\mbedtls_open\include/mbedtls/cipher.h ****  * \return              NULL if the associated cipher information is not found.
ARM GAS  C:\Users\Phuong\AppData\Local\Temp\cc6iV4S7.s 			page 11


 354:.\Source\mbedtls_open\include/mbedtls/cipher.h ****  */
 355:.\Source\mbedtls_open\include/mbedtls/cipher.h **** const mbedtls_cipher_info_t *mbedtls_cipher_info_from_type( const mbedtls_cipher_type_t cipher_type
 356:.\Source\mbedtls_open\include/mbedtls/cipher.h **** 
 357:.\Source\mbedtls_open\include/mbedtls/cipher.h **** /**
 358:.\Source\mbedtls_open\include/mbedtls/cipher.h ****  * \brief               This function retrieves the cipher-information
 359:.\Source\mbedtls_open\include/mbedtls/cipher.h ****  *                      structure associated with the given cipher ID,
 360:.\Source\mbedtls_open\include/mbedtls/cipher.h ****  *                      key size and mode.
 361:.\Source\mbedtls_open\include/mbedtls/cipher.h ****  *
 362:.\Source\mbedtls_open\include/mbedtls/cipher.h ****  * \param cipher_id     The ID of the cipher to search for. For example,
 363:.\Source\mbedtls_open\include/mbedtls/cipher.h ****  *                      #MBEDTLS_CIPHER_ID_AES.
 364:.\Source\mbedtls_open\include/mbedtls/cipher.h ****  * \param key_bitlen    The length of the key in bits.
 365:.\Source\mbedtls_open\include/mbedtls/cipher.h ****  * \param mode          The cipher mode. For example, #MBEDTLS_MODE_CBC.
 366:.\Source\mbedtls_open\include/mbedtls/cipher.h ****  *
 367:.\Source\mbedtls_open\include/mbedtls/cipher.h ****  * \return              The cipher information structure associated with the
 368:.\Source\mbedtls_open\include/mbedtls/cipher.h ****  *                      given \p cipher_id.
 369:.\Source\mbedtls_open\include/mbedtls/cipher.h ****  * \return              NULL if the associated cipher information is not found.
 370:.\Source\mbedtls_open\include/mbedtls/cipher.h ****  */
 371:.\Source\mbedtls_open\include/mbedtls/cipher.h **** const mbedtls_cipher_info_t *mbedtls_cipher_info_from_values( const mbedtls_cipher_id_t cipher_id,
 372:.\Source\mbedtls_open\include/mbedtls/cipher.h ****                                               int key_bitlen,
 373:.\Source\mbedtls_open\include/mbedtls/cipher.h ****                                               const mbedtls_cipher_mode_t mode );
 374:.\Source\mbedtls_open\include/mbedtls/cipher.h **** 
 375:.\Source\mbedtls_open\include/mbedtls/cipher.h **** /**
 376:.\Source\mbedtls_open\include/mbedtls/cipher.h ****  * \brief               This function initializes a \p cipher_context as NONE.
 377:.\Source\mbedtls_open\include/mbedtls/cipher.h ****  */
 378:.\Source\mbedtls_open\include/mbedtls/cipher.h **** void mbedtls_cipher_init( mbedtls_cipher_context_t *ctx );
 379:.\Source\mbedtls_open\include/mbedtls/cipher.h **** 
 380:.\Source\mbedtls_open\include/mbedtls/cipher.h **** /**
 381:.\Source\mbedtls_open\include/mbedtls/cipher.h ****  * \brief               This function frees and clears the cipher-specific
 382:.\Source\mbedtls_open\include/mbedtls/cipher.h ****  *                      context of \p ctx. Freeing \p ctx itself remains the
 383:.\Source\mbedtls_open\include/mbedtls/cipher.h ****  *                      responsibility of the caller.
 384:.\Source\mbedtls_open\include/mbedtls/cipher.h ****  */
 385:.\Source\mbedtls_open\include/mbedtls/cipher.h **** void mbedtls_cipher_free( mbedtls_cipher_context_t *ctx );
 386:.\Source\mbedtls_open\include/mbedtls/cipher.h **** 
 387:.\Source\mbedtls_open\include/mbedtls/cipher.h **** 
 388:.\Source\mbedtls_open\include/mbedtls/cipher.h **** /**
 389:.\Source\mbedtls_open\include/mbedtls/cipher.h ****  * \brief               This function initializes and fills the cipher-context
 390:.\Source\mbedtls_open\include/mbedtls/cipher.h ****  *                      structure with the appropriate values. It also clears
 391:.\Source\mbedtls_open\include/mbedtls/cipher.h ****  *                      the structure.
 392:.\Source\mbedtls_open\include/mbedtls/cipher.h ****  *
 393:.\Source\mbedtls_open\include/mbedtls/cipher.h ****  * \param ctx           The context to initialize. May not be NULL.
 394:.\Source\mbedtls_open\include/mbedtls/cipher.h ****  * \param cipher_info   The cipher to use.
 395:.\Source\mbedtls_open\include/mbedtls/cipher.h ****  *
 396:.\Source\mbedtls_open\include/mbedtls/cipher.h ****  * \return              \c 0 on success.
 397:.\Source\mbedtls_open\include/mbedtls/cipher.h ****  * \return              #MBEDTLS_ERR_CIPHER_BAD_INPUT_DATA on
 398:.\Source\mbedtls_open\include/mbedtls/cipher.h ****  *                      parameter-verification failure.
 399:.\Source\mbedtls_open\include/mbedtls/cipher.h ****  * \return              #MBEDTLS_ERR_CIPHER_ALLOC_FAILED if allocation of the
 400:.\Source\mbedtls_open\include/mbedtls/cipher.h ****  *                      cipher-specific context fails.
 401:.\Source\mbedtls_open\include/mbedtls/cipher.h ****  *
 402:.\Source\mbedtls_open\include/mbedtls/cipher.h ****  * \internal Currently, the function also clears the structure.
 403:.\Source\mbedtls_open\include/mbedtls/cipher.h ****  * In future versions, the caller will be required to call
 404:.\Source\mbedtls_open\include/mbedtls/cipher.h ****  * mbedtls_cipher_init() on the structure first.
 405:.\Source\mbedtls_open\include/mbedtls/cipher.h ****  */
 406:.\Source\mbedtls_open\include/mbedtls/cipher.h **** int mbedtls_cipher_setup( mbedtls_cipher_context_t *ctx, const mbedtls_cipher_info_t *cipher_info )
 407:.\Source\mbedtls_open\include/mbedtls/cipher.h **** 
 408:.\Source\mbedtls_open\include/mbedtls/cipher.h **** /**
 409:.\Source\mbedtls_open\include/mbedtls/cipher.h ****  * \brief        This function returns the block size of the given cipher.
 410:.\Source\mbedtls_open\include/mbedtls/cipher.h ****  *
ARM GAS  C:\Users\Phuong\AppData\Local\Temp\cc6iV4S7.s 			page 12


 411:.\Source\mbedtls_open\include/mbedtls/cipher.h ****  * \param ctx    The context of the cipher. Must be initialized.
 412:.\Source\mbedtls_open\include/mbedtls/cipher.h ****  *
 413:.\Source\mbedtls_open\include/mbedtls/cipher.h ****  * \return       The size of the blocks of the cipher.
 414:.\Source\mbedtls_open\include/mbedtls/cipher.h ****  * \return       0 if \p ctx has not been initialized.
 415:.\Source\mbedtls_open\include/mbedtls/cipher.h ****  */
 416:.\Source\mbedtls_open\include/mbedtls/cipher.h **** static inline unsigned int mbedtls_cipher_get_block_size( const mbedtls_cipher_context_t *ctx )
 417:.\Source\mbedtls_open\include/mbedtls/cipher.h **** {
 418:.\Source\mbedtls_open\include/mbedtls/cipher.h ****     if( NULL == ctx || NULL == ctx->cipher_info )
 419:.\Source\mbedtls_open\include/mbedtls/cipher.h ****         return 0;
 420:.\Source\mbedtls_open\include/mbedtls/cipher.h **** 
 421:.\Source\mbedtls_open\include/mbedtls/cipher.h ****     return ctx->cipher_info->block_size;
 422:.\Source\mbedtls_open\include/mbedtls/cipher.h **** }
 423:.\Source\mbedtls_open\include/mbedtls/cipher.h **** 
 424:.\Source\mbedtls_open\include/mbedtls/cipher.h **** /**
 425:.\Source\mbedtls_open\include/mbedtls/cipher.h ****  * \brief        This function returns the mode of operation for
 426:.\Source\mbedtls_open\include/mbedtls/cipher.h ****  *               the cipher. For example, MBEDTLS_MODE_CBC.
 427:.\Source\mbedtls_open\include/mbedtls/cipher.h ****  *
 428:.\Source\mbedtls_open\include/mbedtls/cipher.h ****  * \param ctx    The context of the cipher. Must be initialized.
 429:.\Source\mbedtls_open\include/mbedtls/cipher.h ****  *
 430:.\Source\mbedtls_open\include/mbedtls/cipher.h ****  * \return       The mode of operation.
 431:.\Source\mbedtls_open\include/mbedtls/cipher.h ****  * \return       #MBEDTLS_MODE_NONE if \p ctx has not been initialized.
 432:.\Source\mbedtls_open\include/mbedtls/cipher.h ****  */
 433:.\Source\mbedtls_open\include/mbedtls/cipher.h **** static inline mbedtls_cipher_mode_t mbedtls_cipher_get_cipher_mode( const mbedtls_cipher_context_t 
 434:.\Source\mbedtls_open\include/mbedtls/cipher.h **** {
 435:.\Source\mbedtls_open\include/mbedtls/cipher.h ****     if( NULL == ctx || NULL == ctx->cipher_info )
 436:.\Source\mbedtls_open\include/mbedtls/cipher.h ****         return MBEDTLS_MODE_NONE;
 437:.\Source\mbedtls_open\include/mbedtls/cipher.h **** 
 438:.\Source\mbedtls_open\include/mbedtls/cipher.h ****     return ctx->cipher_info->mode;
 439:.\Source\mbedtls_open\include/mbedtls/cipher.h **** }
 440:.\Source\mbedtls_open\include/mbedtls/cipher.h **** 
 441:.\Source\mbedtls_open\include/mbedtls/cipher.h **** /**
 442:.\Source\mbedtls_open\include/mbedtls/cipher.h ****  * \brief       This function returns the size of the IV or nonce
 443:.\Source\mbedtls_open\include/mbedtls/cipher.h ****  *              of the cipher, in Bytes.
 444:.\Source\mbedtls_open\include/mbedtls/cipher.h ****  *
 445:.\Source\mbedtls_open\include/mbedtls/cipher.h ****  * \param ctx   The context of the cipher. Must be initialized.
 446:.\Source\mbedtls_open\include/mbedtls/cipher.h ****  *
 447:.\Source\mbedtls_open\include/mbedtls/cipher.h ****  * \return      The recommended IV size if no IV has been set.
 448:.\Source\mbedtls_open\include/mbedtls/cipher.h ****  * \return      \c 0 for ciphers not using an IV or a nonce.
 449:.\Source\mbedtls_open\include/mbedtls/cipher.h ****  * \return      The actual size if an IV has been set.
 450:.\Source\mbedtls_open\include/mbedtls/cipher.h ****  */
 451:.\Source\mbedtls_open\include/mbedtls/cipher.h **** static inline int mbedtls_cipher_get_iv_size( const mbedtls_cipher_context_t *ctx )
 452:.\Source\mbedtls_open\include/mbedtls/cipher.h **** {
 453:.\Source\mbedtls_open\include/mbedtls/cipher.h ****     if( NULL == ctx || NULL == ctx->cipher_info )
 454:.\Source\mbedtls_open\include/mbedtls/cipher.h ****         return 0;
 455:.\Source\mbedtls_open\include/mbedtls/cipher.h **** 
 456:.\Source\mbedtls_open\include/mbedtls/cipher.h ****     if( ctx->iv_size != 0 )
 457:.\Source\mbedtls_open\include/mbedtls/cipher.h ****         return (int) ctx->iv_size;
 458:.\Source\mbedtls_open\include/mbedtls/cipher.h **** 
 459:.\Source\mbedtls_open\include/mbedtls/cipher.h ****     return (int) ctx->cipher_info->iv_size;
 460:.\Source\mbedtls_open\include/mbedtls/cipher.h **** }
 461:.\Source\mbedtls_open\include/mbedtls/cipher.h **** 
 462:.\Source\mbedtls_open\include/mbedtls/cipher.h **** /**
 463:.\Source\mbedtls_open\include/mbedtls/cipher.h ****  * \brief               This function returns the type of the given cipher.
 464:.\Source\mbedtls_open\include/mbedtls/cipher.h ****  *
 465:.\Source\mbedtls_open\include/mbedtls/cipher.h ****  * \param ctx           The context of the cipher. Must be initialized.
 466:.\Source\mbedtls_open\include/mbedtls/cipher.h ****  *
 467:.\Source\mbedtls_open\include/mbedtls/cipher.h ****  * \return              The type of the cipher.
ARM GAS  C:\Users\Phuong\AppData\Local\Temp\cc6iV4S7.s 			page 13


 468:.\Source\mbedtls_open\include/mbedtls/cipher.h ****  * \return              #MBEDTLS_CIPHER_NONE if \p ctx has not been initialized.
 469:.\Source\mbedtls_open\include/mbedtls/cipher.h ****  */
 470:.\Source\mbedtls_open\include/mbedtls/cipher.h **** static inline mbedtls_cipher_type_t mbedtls_cipher_get_type( const mbedtls_cipher_context_t *ctx )
 471:.\Source\mbedtls_open\include/mbedtls/cipher.h **** {
 472:.\Source\mbedtls_open\include/mbedtls/cipher.h ****     if( NULL == ctx || NULL == ctx->cipher_info )
 473:.\Source\mbedtls_open\include/mbedtls/cipher.h ****         return MBEDTLS_CIPHER_NONE;
 474:.\Source\mbedtls_open\include/mbedtls/cipher.h **** 
 475:.\Source\mbedtls_open\include/mbedtls/cipher.h ****     return ctx->cipher_info->type;
 476:.\Source\mbedtls_open\include/mbedtls/cipher.h **** }
 477:.\Source\mbedtls_open\include/mbedtls/cipher.h **** 
 478:.\Source\mbedtls_open\include/mbedtls/cipher.h **** /**
 479:.\Source\mbedtls_open\include/mbedtls/cipher.h ****  * \brief               This function returns the name of the given cipher
 480:.\Source\mbedtls_open\include/mbedtls/cipher.h ****  *                      as a string.
 481:.\Source\mbedtls_open\include/mbedtls/cipher.h ****  *
 482:.\Source\mbedtls_open\include/mbedtls/cipher.h ****  * \param ctx           The context of the cipher. Must be initialized.
 483:.\Source\mbedtls_open\include/mbedtls/cipher.h ****  *
 484:.\Source\mbedtls_open\include/mbedtls/cipher.h ****  * \return              The name of the cipher.
 485:.\Source\mbedtls_open\include/mbedtls/cipher.h ****  * \return              NULL if \p ctx has not been not initialized.
 486:.\Source\mbedtls_open\include/mbedtls/cipher.h ****  */
 487:.\Source\mbedtls_open\include/mbedtls/cipher.h **** static inline const char *mbedtls_cipher_get_name( const mbedtls_cipher_context_t *ctx )
 488:.\Source\mbedtls_open\include/mbedtls/cipher.h **** {
 489:.\Source\mbedtls_open\include/mbedtls/cipher.h ****     if( NULL == ctx || NULL == ctx->cipher_info )
 490:.\Source\mbedtls_open\include/mbedtls/cipher.h ****         return 0;
 491:.\Source\mbedtls_open\include/mbedtls/cipher.h **** 
 492:.\Source\mbedtls_open\include/mbedtls/cipher.h ****     return ctx->cipher_info->name;
 493:.\Source\mbedtls_open\include/mbedtls/cipher.h **** }
 494:.\Source\mbedtls_open\include/mbedtls/cipher.h **** 
 495:.\Source\mbedtls_open\include/mbedtls/cipher.h **** /**
 496:.\Source\mbedtls_open\include/mbedtls/cipher.h ****  * \brief               This function returns the key length of the cipher.
 497:.\Source\mbedtls_open\include/mbedtls/cipher.h ****  *
 498:.\Source\mbedtls_open\include/mbedtls/cipher.h ****  * \param ctx           The context of the cipher. Must be initialized.
 499:.\Source\mbedtls_open\include/mbedtls/cipher.h ****  *
 500:.\Source\mbedtls_open\include/mbedtls/cipher.h ****  * \return              The key length of the cipher in bits.
 501:.\Source\mbedtls_open\include/mbedtls/cipher.h ****  * \return              #MBEDTLS_KEY_LENGTH_NONE if ctx \p has not been
 502:.\Source\mbedtls_open\include/mbedtls/cipher.h ****  *                      initialized.
 503:.\Source\mbedtls_open\include/mbedtls/cipher.h ****  */
 504:.\Source\mbedtls_open\include/mbedtls/cipher.h **** static inline int mbedtls_cipher_get_key_bitlen( const mbedtls_cipher_context_t *ctx )
 505:.\Source\mbedtls_open\include/mbedtls/cipher.h **** {
 506:.\Source\mbedtls_open\include/mbedtls/cipher.h ****     if( NULL == ctx || NULL == ctx->cipher_info )
 100              		.loc 2 506 0
 101 0036 0028     		cmp	r0, #0
 102 0038 04D0     		beq	.L7
 103 003a A368     		ldr	r3, [r4, #8]
 104 003c 002B     		cmp	r3, #0
 105 003e 03D0     		beq	.L8
 507:.\Source\mbedtls_open\include/mbedtls/cipher.h ****         return MBEDTLS_KEY_LENGTH_NONE;
 508:.\Source\mbedtls_open\include/mbedtls/cipher.h **** 
 509:.\Source\mbedtls_open\include/mbedtls/cipher.h ****     return (int) ctx->cipher_info->key_bitlen;
 106              		.loc 2 509 0
 107 0040 5A68     		ldr	r2, [r3, #4]
 108 0042 02E0     		b	.L4
 109              	.L7:
 507:.\Source\mbedtls_open\include/mbedtls/cipher.h ****         return MBEDTLS_KEY_LENGTH_NONE;
 110              		.loc 2 507 0
 111 0044 0022     		movs	r2, #0
 112 0046 00E0     		b	.L4
 113              	.L8:
ARM GAS  C:\Users\Phuong\AppData\Local\Temp\cc6iV4S7.s 			page 14


 114 0048 0022     		movs	r2, #0
 115              	.L4:
 116              	.LVL11:
 117              	.LBE5:
 118              	.LBE4:
  78:Source\mbedtls_open\library/ssl_ticket.c ****                                  mbedtls_cipher_get_key_bitlen( &key->ctx ),
 119              		.loc 1 78 0
 120 004a 0123     		movs	r3, #1
 121 004c 6946     		mov	r1, sp
 122 004e FFF7FEFF 		bl	mbedtls_cipher_setkey
 123              	.LVL12:
 124 0052 0400     		movs	r4, r0
 125              	.LVL13:
  82:Source\mbedtls_open\library/ssl_ticket.c **** 
 126              		.loc 1 82 0
 127 0054 2021     		movs	r1, #32
 128 0056 6846     		mov	r0, sp
 129              	.LVL14:
 130 0058 FFF7FEFF 		bl	mbedtls_platform_zeroize
 131              	.LVL15:
  84:Source\mbedtls_open\library/ssl_ticket.c **** }
 132              		.loc 1 84 0
 133 005c 2000     		movs	r0, r4
 134              	.LVL16:
 135              	.L3:
  85:Source\mbedtls_open\library/ssl_ticket.c **** 
 136              		.loc 1 85 0
 137 005e 09B0     		add	sp, sp, #36
 138              		@ sp needed
 139              	.LVL17:
 140 0060 30BD     		pop	{r4, r5, pc}
 141              		.cfi_endproc
 142              	.LFE19:
 143              		.size	ssl_ticket_gen_key, .-ssl_ticket_gen_key
 144 0062 C046     		.section	.text.ssl_save_session,"ax",%progbits
 145              		.align	2
 146              		.code	16
 147              		.thumb_func
 148              		.type	ssl_save_session, %function
 149              	ssl_save_session:
 150              	.LFB22:
 114:Source\mbedtls_open\library/ssl_ticket.c **** 
 115:Source\mbedtls_open\library/ssl_ticket.c **** /*
 116:Source\mbedtls_open\library/ssl_ticket.c ****  * Setup context for actual use
 117:Source\mbedtls_open\library/ssl_ticket.c ****  */
 118:Source\mbedtls_open\library/ssl_ticket.c **** int mbedtls_ssl_ticket_setup( mbedtls_ssl_ticket_context *ctx,
 119:Source\mbedtls_open\library/ssl_ticket.c ****     int (*f_rng)(void *, unsigned char *, size_t), void *p_rng,
 120:Source\mbedtls_open\library/ssl_ticket.c ****     mbedtls_cipher_type_t cipher,
 121:Source\mbedtls_open\library/ssl_ticket.c ****     uint32_t lifetime )
 122:Source\mbedtls_open\library/ssl_ticket.c **** {
 123:Source\mbedtls_open\library/ssl_ticket.c ****     int ret;
 124:Source\mbedtls_open\library/ssl_ticket.c ****     const mbedtls_cipher_info_t *cipher_info;
 125:Source\mbedtls_open\library/ssl_ticket.c **** 
 126:Source\mbedtls_open\library/ssl_ticket.c ****     ctx->f_rng = f_rng;
 127:Source\mbedtls_open\library/ssl_ticket.c ****     ctx->p_rng = p_rng;
 128:Source\mbedtls_open\library/ssl_ticket.c **** 
 129:Source\mbedtls_open\library/ssl_ticket.c ****     ctx->ticket_lifetime = lifetime;
ARM GAS  C:\Users\Phuong\AppData\Local\Temp\cc6iV4S7.s 			page 15


 130:Source\mbedtls_open\library/ssl_ticket.c **** 
 131:Source\mbedtls_open\library/ssl_ticket.c ****     cipher_info = mbedtls_cipher_info_from_type( cipher);
 132:Source\mbedtls_open\library/ssl_ticket.c ****     if( cipher_info == NULL )
 133:Source\mbedtls_open\library/ssl_ticket.c ****         return( MBEDTLS_ERR_SSL_BAD_INPUT_DATA );
 134:Source\mbedtls_open\library/ssl_ticket.c **** 
 135:Source\mbedtls_open\library/ssl_ticket.c ****     if( cipher_info->mode != MBEDTLS_MODE_GCM &&
 136:Source\mbedtls_open\library/ssl_ticket.c ****         cipher_info->mode != MBEDTLS_MODE_CCM )
 137:Source\mbedtls_open\library/ssl_ticket.c ****     {
 138:Source\mbedtls_open\library/ssl_ticket.c ****         return( MBEDTLS_ERR_SSL_BAD_INPUT_DATA );
 139:Source\mbedtls_open\library/ssl_ticket.c ****     }
 140:Source\mbedtls_open\library/ssl_ticket.c **** 
 141:Source\mbedtls_open\library/ssl_ticket.c ****     if( cipher_info->key_bitlen > 8 * MAX_KEY_BYTES )
 142:Source\mbedtls_open\library/ssl_ticket.c ****         return( MBEDTLS_ERR_SSL_BAD_INPUT_DATA );
 143:Source\mbedtls_open\library/ssl_ticket.c **** 
 144:Source\mbedtls_open\library/ssl_ticket.c ****     if( ( ret = mbedtls_cipher_setup( &ctx->keys[0].ctx, cipher_info ) ) != 0 ||
 145:Source\mbedtls_open\library/ssl_ticket.c ****         ( ret = mbedtls_cipher_setup( &ctx->keys[1].ctx, cipher_info ) ) != 0 )
 146:Source\mbedtls_open\library/ssl_ticket.c ****     {
 147:Source\mbedtls_open\library/ssl_ticket.c ****         return( ret );
 148:Source\mbedtls_open\library/ssl_ticket.c ****     }
 149:Source\mbedtls_open\library/ssl_ticket.c **** 
 150:Source\mbedtls_open\library/ssl_ticket.c ****     if( ( ret = ssl_ticket_gen_key( ctx, 0 ) ) != 0 ||
 151:Source\mbedtls_open\library/ssl_ticket.c ****         ( ret = ssl_ticket_gen_key( ctx, 1 ) ) != 0 )
 152:Source\mbedtls_open\library/ssl_ticket.c ****     {
 153:Source\mbedtls_open\library/ssl_ticket.c ****         return( ret );
 154:Source\mbedtls_open\library/ssl_ticket.c ****     }
 155:Source\mbedtls_open\library/ssl_ticket.c **** 
 156:Source\mbedtls_open\library/ssl_ticket.c ****     return( 0 );
 157:Source\mbedtls_open\library/ssl_ticket.c **** }
 158:Source\mbedtls_open\library/ssl_ticket.c **** 
 159:Source\mbedtls_open\library/ssl_ticket.c **** /*
 160:Source\mbedtls_open\library/ssl_ticket.c ****  * Serialize a session in the following format:
 161:Source\mbedtls_open\library/ssl_ticket.c ****  *  0   .   n-1     session structure, n = sizeof(mbedtls_ssl_session)
 162:Source\mbedtls_open\library/ssl_ticket.c ****  *  n   .   n+2     peer_cert length = m (0 if no certificate)
 163:Source\mbedtls_open\library/ssl_ticket.c ****  *  n+3 .   n+2+m   peer cert ASN.1
 164:Source\mbedtls_open\library/ssl_ticket.c ****  */
 165:Source\mbedtls_open\library/ssl_ticket.c **** static int ssl_save_session( const mbedtls_ssl_session *session,
 166:Source\mbedtls_open\library/ssl_ticket.c ****                              unsigned char *buf, size_t buf_len,
 167:Source\mbedtls_open\library/ssl_ticket.c ****                              size_t *olen )
 168:Source\mbedtls_open\library/ssl_ticket.c **** {
 151              		.loc 1 168 0
 152              		.cfi_startproc
 153              		@ args = 0, pretend = 0, frame = 0
 154              		@ frame_needed = 0, uses_anonymous_args = 0
 155              	.LVL18:
 156 0000 F0B5     		push	{r4, r5, r6, r7, lr}
 157              		.cfi_def_cfa_offset 20
 158              		.cfi_offset 4, -20
 159              		.cfi_offset 5, -16
 160              		.cfi_offset 6, -12
 161              		.cfi_offset 7, -8
 162              		.cfi_offset 14, -4
 163 0002 4746     		mov	r7, r8
 164 0004 80B4     		push	{r7}
 165              		.cfi_def_cfa_offset 24
 166              		.cfi_offset 8, -24
 167 0006 0600     		movs	r6, r0
 168 0008 0D00     		movs	r5, r1
ARM GAS  C:\Users\Phuong\AppData\Local\Temp\cc6iV4S7.s 			page 16


 169 000a 1400     		movs	r4, r2
 170 000c 1F00     		movs	r7, r3
 171              	.LVL19:
 169:Source\mbedtls_open\library/ssl_ticket.c ****     unsigned char *p = buf;
 170:Source\mbedtls_open\library/ssl_ticket.c ****     size_t left = buf_len;
 171:Source\mbedtls_open\library/ssl_ticket.c **** #if defined(MBEDTLS_X509_CRT_PARSE_C)
 172:Source\mbedtls_open\library/ssl_ticket.c ****     size_t cert_len;
 173:Source\mbedtls_open\library/ssl_ticket.c **** #endif /* MBEDTLS_X509_CRT_PARSE_C */
 174:Source\mbedtls_open\library/ssl_ticket.c **** 
 175:Source\mbedtls_open\library/ssl_ticket.c ****     if( left < sizeof( mbedtls_ssl_session ) )
 172              		.loc 1 175 0
 173 000e 7B2A     		cmp	r2, #123
 174 0010 27D9     		bls	.L13
 176:Source\mbedtls_open\library/ssl_ticket.c ****         return( MBEDTLS_ERR_SSL_BUFFER_TOO_SMALL );
 177:Source\mbedtls_open\library/ssl_ticket.c **** 
 178:Source\mbedtls_open\library/ssl_ticket.c ****     memcpy( p, session, sizeof( mbedtls_ssl_session ) );
 175              		.loc 1 178 0
 176 0012 7C22     		movs	r2, #124
 177              	.LVL20:
 178 0014 0100     		movs	r1, r0
 179              	.LVL21:
 180 0016 2800     		movs	r0, r5
 181              	.LVL22:
 182 0018 FFF7FEFF 		bl	memcpy
 183              	.LVL23:
 179:Source\mbedtls_open\library/ssl_ticket.c ****     p += sizeof( mbedtls_ssl_session );
 180:Source\mbedtls_open\library/ssl_ticket.c ****     left -= sizeof( mbedtls_ssl_session );
 184              		.loc 1 180 0
 185 001c 2300     		movs	r3, r4
 186 001e 7C3B     		subs	r3, r3, #124
 187              	.LVL24:
 181:Source\mbedtls_open\library/ssl_ticket.c **** 
 182:Source\mbedtls_open\library/ssl_ticket.c **** #if defined(MBEDTLS_X509_CRT_PARSE_C)
 183:Source\mbedtls_open\library/ssl_ticket.c ****     if( session->peer_cert == NULL )
 188              		.loc 1 183 0
 189 0020 F26D     		ldr	r2, [r6, #92]
 190 0022 002A     		cmp	r2, #0
 191 0024 01D0     		beq	.L14
 184:Source\mbedtls_open\library/ssl_ticket.c ****         cert_len = 0;
 185:Source\mbedtls_open\library/ssl_ticket.c ****     else
 186:Source\mbedtls_open\library/ssl_ticket.c ****         cert_len = session->peer_cert->raw.len;
 192              		.loc 1 186 0
 193 0026 5468     		ldr	r4, [r2, #4]
 194              	.LVL25:
 195 0028 00E0     		b	.L11
 196              	.LVL26:
 197              	.L14:
 184:Source\mbedtls_open\library/ssl_ticket.c ****         cert_len = 0;
 198              		.loc 1 184 0
 199 002a 0024     		movs	r4, #0
 200              	.LVL27:
 201              	.L11:
 187:Source\mbedtls_open\library/ssl_ticket.c **** 
 188:Source\mbedtls_open\library/ssl_ticket.c ****     if( left < 3 + cert_len )
 202              		.loc 1 188 0
 203 002c E21C     		adds	r2, r4, #3
 204 002e 9342     		cmp	r3, r2
ARM GAS  C:\Users\Phuong\AppData\Local\Temp\cc6iV4S7.s 			page 17


 205 0030 19D3     		bcc	.L15
 206              	.LVL28:
 189:Source\mbedtls_open\library/ssl_ticket.c ****         return( MBEDTLS_ERR_SSL_BUFFER_TOO_SMALL );
 190:Source\mbedtls_open\library/ssl_ticket.c **** 
 191:Source\mbedtls_open\library/ssl_ticket.c ****     *p++ = (unsigned char)( cert_len >> 16 & 0xFF );
 207              		.loc 1 191 0
 208 0032 230C     		lsrs	r3, r4, #16
 209              	.LVL29:
 210 0034 7C22     		movs	r2, #124
 211 0036 AB54     		strb	r3, [r5, r2]
 212              	.LVL30:
 192:Source\mbedtls_open\library/ssl_ticket.c ****     *p++ = (unsigned char)( cert_len >>  8 & 0xFF );
 213              		.loc 1 192 0
 214 0038 230A     		lsrs	r3, r4, #8
 215 003a 0132     		adds	r2, r2, #1
 216 003c AB54     		strb	r3, [r5, r2]
 193:Source\mbedtls_open\library/ssl_ticket.c ****     *p++ = (unsigned char)( cert_len       & 0xFF );
 217              		.loc 1 193 0
 218 003e 7F23     		movs	r3, #127
 219 0040 9846     		mov	r8, r3
 220 0042 A844     		add	r8, r8, r5
 221              	.LVL31:
 222 0044 013B     		subs	r3, r3, #1
 223 0046 EC54     		strb	r4, [r5, r3]
 194:Source\mbedtls_open\library/ssl_ticket.c **** 
 195:Source\mbedtls_open\library/ssl_ticket.c ****     if( session->peer_cert != NULL )
 224              		.loc 1 195 0
 225 0048 F36D     		ldr	r3, [r6, #92]
 226 004a 002B     		cmp	r3, #0
 227 004c 04D0     		beq	.L12
 196:Source\mbedtls_open\library/ssl_ticket.c ****         memcpy( p, session->peer_cert->raw.p, cert_len );
 228              		.loc 1 196 0
 229 004e 9968     		ldr	r1, [r3, #8]
 230 0050 2200     		movs	r2, r4
 231 0052 4046     		mov	r0, r8
 232 0054 FFF7FEFF 		bl	memcpy
 233              	.LVL32:
 234              	.L12:
 197:Source\mbedtls_open\library/ssl_ticket.c **** 
 198:Source\mbedtls_open\library/ssl_ticket.c ****     p += cert_len;
 235              		.loc 1 198 0
 236 0058 4444     		add	r4, r4, r8
 237              	.LVL33:
 199:Source\mbedtls_open\library/ssl_ticket.c **** #endif /* MBEDTLS_X509_CRT_PARSE_C */
 200:Source\mbedtls_open\library/ssl_ticket.c **** 
 201:Source\mbedtls_open\library/ssl_ticket.c ****     *olen = p - buf;
 238              		.loc 1 201 0
 239 005a 641B     		subs	r4, r4, r5
 240              	.LVL34:
 241 005c 3C60     		str	r4, [r7]
 202:Source\mbedtls_open\library/ssl_ticket.c **** 
 203:Source\mbedtls_open\library/ssl_ticket.c ****     return( 0 );
 242              		.loc 1 203 0
 243 005e 0020     		movs	r0, #0
 244 0060 02E0     		b	.L10
 245              	.LVL35:
 246              	.L13:
ARM GAS  C:\Users\Phuong\AppData\Local\Temp\cc6iV4S7.s 			page 18


 176:Source\mbedtls_open\library/ssl_ticket.c **** 
 247              		.loc 1 176 0
 248 0062 0348     		ldr	r0, .L16
 249              	.LVL36:
 250 0064 00E0     		b	.L10
 251              	.LVL37:
 252              	.L15:
 189:Source\mbedtls_open\library/ssl_ticket.c **** 
 253              		.loc 1 189 0
 254 0066 0248     		ldr	r0, .L16
 255              	.LVL38:
 256              	.L10:
 204:Source\mbedtls_open\library/ssl_ticket.c **** }
 257              		.loc 1 204 0
 258              		@ sp needed
 259              	.LVL39:
 260              	.LVL40:
 261              	.LVL41:
 262 0068 04BC     		pop	{r2}
 263 006a 9046     		mov	r8, r2
 264 006c F0BD     		pop	{r4, r5, r6, r7, pc}
 265              	.L17:
 266 006e C046     		.align	2
 267              	.L16:
 268 0070 0096FFFF 		.word	-27136
 269              		.cfi_endproc
 270              	.LFE22:
 271              		.size	ssl_save_session, .-ssl_save_session
 272              		.section	.text.ssl_ticket_select_key,"ax",%progbits
 273              		.align	2
 274              		.code	16
 275              		.thumb_func
 276              		.type	ssl_ticket_select_key, %function
 277              	ssl_ticket_select_key:
 278              	.LFB25:
 205:Source\mbedtls_open\library/ssl_ticket.c **** 
 206:Source\mbedtls_open\library/ssl_ticket.c **** /*
 207:Source\mbedtls_open\library/ssl_ticket.c ****  * Unserialise session, see ssl_save_session()
 208:Source\mbedtls_open\library/ssl_ticket.c ****  */
 209:Source\mbedtls_open\library/ssl_ticket.c **** static int ssl_load_session( mbedtls_ssl_session *session,
 210:Source\mbedtls_open\library/ssl_ticket.c ****                              const unsigned char *buf, size_t len )
 211:Source\mbedtls_open\library/ssl_ticket.c **** {
 212:Source\mbedtls_open\library/ssl_ticket.c ****     const unsigned char *p = buf;
 213:Source\mbedtls_open\library/ssl_ticket.c ****     const unsigned char * const end = buf + len;
 214:Source\mbedtls_open\library/ssl_ticket.c **** #if defined(MBEDTLS_X509_CRT_PARSE_C)
 215:Source\mbedtls_open\library/ssl_ticket.c ****     size_t cert_len;
 216:Source\mbedtls_open\library/ssl_ticket.c **** #endif /* MBEDTLS_X509_CRT_PARSE_C */
 217:Source\mbedtls_open\library/ssl_ticket.c **** 
 218:Source\mbedtls_open\library/ssl_ticket.c ****     if( p + sizeof( mbedtls_ssl_session ) > end )
 219:Source\mbedtls_open\library/ssl_ticket.c ****         return( MBEDTLS_ERR_SSL_BAD_INPUT_DATA );
 220:Source\mbedtls_open\library/ssl_ticket.c **** 
 221:Source\mbedtls_open\library/ssl_ticket.c ****     memcpy( session, p, sizeof( mbedtls_ssl_session ) );
 222:Source\mbedtls_open\library/ssl_ticket.c ****     p += sizeof( mbedtls_ssl_session );
 223:Source\mbedtls_open\library/ssl_ticket.c **** 
 224:Source\mbedtls_open\library/ssl_ticket.c **** #if defined(MBEDTLS_X509_CRT_PARSE_C)
 225:Source\mbedtls_open\library/ssl_ticket.c ****     if( p + 3 > end )
 226:Source\mbedtls_open\library/ssl_ticket.c ****         return( MBEDTLS_ERR_SSL_BAD_INPUT_DATA );
ARM GAS  C:\Users\Phuong\AppData\Local\Temp\cc6iV4S7.s 			page 19


 227:Source\mbedtls_open\library/ssl_ticket.c **** 
 228:Source\mbedtls_open\library/ssl_ticket.c ****     cert_len = ( p[0] << 16 ) | ( p[1] << 8 ) | p[2];
 229:Source\mbedtls_open\library/ssl_ticket.c ****     p += 3;
 230:Source\mbedtls_open\library/ssl_ticket.c **** 
 231:Source\mbedtls_open\library/ssl_ticket.c ****     if( cert_len == 0 )
 232:Source\mbedtls_open\library/ssl_ticket.c ****     {
 233:Source\mbedtls_open\library/ssl_ticket.c ****         session->peer_cert = NULL;
 234:Source\mbedtls_open\library/ssl_ticket.c ****     }
 235:Source\mbedtls_open\library/ssl_ticket.c ****     else
 236:Source\mbedtls_open\library/ssl_ticket.c ****     {
 237:Source\mbedtls_open\library/ssl_ticket.c ****         int ret;
 238:Source\mbedtls_open\library/ssl_ticket.c **** 
 239:Source\mbedtls_open\library/ssl_ticket.c ****         if( p + cert_len > end )
 240:Source\mbedtls_open\library/ssl_ticket.c ****             return( MBEDTLS_ERR_SSL_BAD_INPUT_DATA );
 241:Source\mbedtls_open\library/ssl_ticket.c **** 
 242:Source\mbedtls_open\library/ssl_ticket.c ****         session->peer_cert = mbedtls_calloc( 1, sizeof( mbedtls_x509_crt ) );
 243:Source\mbedtls_open\library/ssl_ticket.c **** 
 244:Source\mbedtls_open\library/ssl_ticket.c ****         if( session->peer_cert == NULL )
 245:Source\mbedtls_open\library/ssl_ticket.c ****             return( MBEDTLS_ERR_SSL_ALLOC_FAILED );
 246:Source\mbedtls_open\library/ssl_ticket.c **** 
 247:Source\mbedtls_open\library/ssl_ticket.c ****         mbedtls_x509_crt_init( session->peer_cert );
 248:Source\mbedtls_open\library/ssl_ticket.c **** 
 249:Source\mbedtls_open\library/ssl_ticket.c ****         if( ( ret = mbedtls_x509_crt_parse_der( session->peer_cert,
 250:Source\mbedtls_open\library/ssl_ticket.c ****                                         p, cert_len ) ) != 0 )
 251:Source\mbedtls_open\library/ssl_ticket.c ****         {
 252:Source\mbedtls_open\library/ssl_ticket.c ****             mbedtls_x509_crt_free( session->peer_cert );
 253:Source\mbedtls_open\library/ssl_ticket.c ****             mbedtls_free( session->peer_cert );
 254:Source\mbedtls_open\library/ssl_ticket.c ****             session->peer_cert = NULL;
 255:Source\mbedtls_open\library/ssl_ticket.c ****             return( ret );
 256:Source\mbedtls_open\library/ssl_ticket.c ****         }
 257:Source\mbedtls_open\library/ssl_ticket.c **** 
 258:Source\mbedtls_open\library/ssl_ticket.c ****         p += cert_len;
 259:Source\mbedtls_open\library/ssl_ticket.c ****     }
 260:Source\mbedtls_open\library/ssl_ticket.c **** #endif /* MBEDTLS_X509_CRT_PARSE_C */
 261:Source\mbedtls_open\library/ssl_ticket.c **** 
 262:Source\mbedtls_open\library/ssl_ticket.c ****     if( p != end )
 263:Source\mbedtls_open\library/ssl_ticket.c ****         return( MBEDTLS_ERR_SSL_BAD_INPUT_DATA );
 264:Source\mbedtls_open\library/ssl_ticket.c **** 
 265:Source\mbedtls_open\library/ssl_ticket.c ****     return( 0 );
 266:Source\mbedtls_open\library/ssl_ticket.c **** }
 267:Source\mbedtls_open\library/ssl_ticket.c **** 
 268:Source\mbedtls_open\library/ssl_ticket.c **** /*
 269:Source\mbedtls_open\library/ssl_ticket.c ****  * Create session ticket, with the following structure:
 270:Source\mbedtls_open\library/ssl_ticket.c ****  *
 271:Source\mbedtls_open\library/ssl_ticket.c ****  *    struct {
 272:Source\mbedtls_open\library/ssl_ticket.c ****  *        opaque key_name[4];
 273:Source\mbedtls_open\library/ssl_ticket.c ****  *        opaque iv[12];
 274:Source\mbedtls_open\library/ssl_ticket.c ****  *        opaque encrypted_state<0..2^16-1>;
 275:Source\mbedtls_open\library/ssl_ticket.c ****  *        opaque tag[16];
 276:Source\mbedtls_open\library/ssl_ticket.c ****  *    } ticket;
 277:Source\mbedtls_open\library/ssl_ticket.c ****  *
 278:Source\mbedtls_open\library/ssl_ticket.c ****  * The key_name, iv, and length of encrypted_state are the additional
 279:Source\mbedtls_open\library/ssl_ticket.c ****  * authenticated data.
 280:Source\mbedtls_open\library/ssl_ticket.c ****  */
 281:Source\mbedtls_open\library/ssl_ticket.c **** int mbedtls_ssl_ticket_write( void *p_ticket,
 282:Source\mbedtls_open\library/ssl_ticket.c ****                               const mbedtls_ssl_session *session,
 283:Source\mbedtls_open\library/ssl_ticket.c ****                               unsigned char *start,
ARM GAS  C:\Users\Phuong\AppData\Local\Temp\cc6iV4S7.s 			page 20


 284:Source\mbedtls_open\library/ssl_ticket.c ****                               const unsigned char *end,
 285:Source\mbedtls_open\library/ssl_ticket.c ****                               size_t *tlen,
 286:Source\mbedtls_open\library/ssl_ticket.c ****                               uint32_t *ticket_lifetime )
 287:Source\mbedtls_open\library/ssl_ticket.c **** {
 288:Source\mbedtls_open\library/ssl_ticket.c ****     int ret;
 289:Source\mbedtls_open\library/ssl_ticket.c ****     mbedtls_ssl_ticket_context *ctx = p_ticket;
 290:Source\mbedtls_open\library/ssl_ticket.c ****     mbedtls_ssl_ticket_key *key;
 291:Source\mbedtls_open\library/ssl_ticket.c ****     unsigned char *key_name = start;
 292:Source\mbedtls_open\library/ssl_ticket.c ****     unsigned char *iv = start + 4;
 293:Source\mbedtls_open\library/ssl_ticket.c ****     unsigned char *state_len_bytes = iv + 12;
 294:Source\mbedtls_open\library/ssl_ticket.c ****     unsigned char *state = state_len_bytes + 2;
 295:Source\mbedtls_open\library/ssl_ticket.c ****     unsigned char *tag;
 296:Source\mbedtls_open\library/ssl_ticket.c ****     size_t clear_len, ciph_len;
 297:Source\mbedtls_open\library/ssl_ticket.c **** 
 298:Source\mbedtls_open\library/ssl_ticket.c ****     *tlen = 0;
 299:Source\mbedtls_open\library/ssl_ticket.c **** 
 300:Source\mbedtls_open\library/ssl_ticket.c ****     if( ctx == NULL || ctx->f_rng == NULL )
 301:Source\mbedtls_open\library/ssl_ticket.c ****         return( MBEDTLS_ERR_SSL_BAD_INPUT_DATA );
 302:Source\mbedtls_open\library/ssl_ticket.c **** 
 303:Source\mbedtls_open\library/ssl_ticket.c ****     /* We need at least 4 bytes for key_name, 12 for IV, 2 for len 16 for tag,
 304:Source\mbedtls_open\library/ssl_ticket.c ****      * in addition to session itself, that will be checked when writing it. */
 305:Source\mbedtls_open\library/ssl_ticket.c ****     if( end - start < 4 + 12 + 2 + 16 )
 306:Source\mbedtls_open\library/ssl_ticket.c ****         return( MBEDTLS_ERR_SSL_BUFFER_TOO_SMALL );
 307:Source\mbedtls_open\library/ssl_ticket.c **** 
 308:Source\mbedtls_open\library/ssl_ticket.c **** #if defined(MBEDTLS_THREADING_C)
 309:Source\mbedtls_open\library/ssl_ticket.c ****     if( ( ret = mbedtls_mutex_lock( &ctx->mutex ) ) != 0 )
 310:Source\mbedtls_open\library/ssl_ticket.c ****         return( ret );
 311:Source\mbedtls_open\library/ssl_ticket.c **** #endif
 312:Source\mbedtls_open\library/ssl_ticket.c **** 
 313:Source\mbedtls_open\library/ssl_ticket.c ****     if( ( ret = ssl_ticket_update_keys( ctx ) ) != 0 )
 314:Source\mbedtls_open\library/ssl_ticket.c ****         goto cleanup;
 315:Source\mbedtls_open\library/ssl_ticket.c **** 
 316:Source\mbedtls_open\library/ssl_ticket.c ****     key = &ctx->keys[ctx->active];
 317:Source\mbedtls_open\library/ssl_ticket.c **** 
 318:Source\mbedtls_open\library/ssl_ticket.c ****     *ticket_lifetime = ctx->ticket_lifetime;
 319:Source\mbedtls_open\library/ssl_ticket.c **** 
 320:Source\mbedtls_open\library/ssl_ticket.c ****     memcpy( key_name, key->name, 4 );
 321:Source\mbedtls_open\library/ssl_ticket.c **** 
 322:Source\mbedtls_open\library/ssl_ticket.c ****     if( ( ret = ctx->f_rng( ctx->p_rng, iv, 12 ) ) != 0 )
 323:Source\mbedtls_open\library/ssl_ticket.c ****         goto cleanup;
 324:Source\mbedtls_open\library/ssl_ticket.c **** 
 325:Source\mbedtls_open\library/ssl_ticket.c ****     /* Dump session state */
 326:Source\mbedtls_open\library/ssl_ticket.c ****     if( ( ret = ssl_save_session( session,
 327:Source\mbedtls_open\library/ssl_ticket.c ****                                   state, end - state, &clear_len ) ) != 0 ||
 328:Source\mbedtls_open\library/ssl_ticket.c ****         (unsigned long) clear_len > 65535 )
 329:Source\mbedtls_open\library/ssl_ticket.c ****     {
 330:Source\mbedtls_open\library/ssl_ticket.c ****          goto cleanup;
 331:Source\mbedtls_open\library/ssl_ticket.c ****     }
 332:Source\mbedtls_open\library/ssl_ticket.c ****     state_len_bytes[0] = ( clear_len >> 8 ) & 0xff;
 333:Source\mbedtls_open\library/ssl_ticket.c ****     state_len_bytes[1] = ( clear_len      ) & 0xff;
 334:Source\mbedtls_open\library/ssl_ticket.c **** 
 335:Source\mbedtls_open\library/ssl_ticket.c ****     /* Encrypt and authenticate */
 336:Source\mbedtls_open\library/ssl_ticket.c ****     tag = state + clear_len;
 337:Source\mbedtls_open\library/ssl_ticket.c ****     if( ( ret = mbedtls_cipher_auth_encrypt( &key->ctx,
 338:Source\mbedtls_open\library/ssl_ticket.c ****                     iv, 12, key_name, 4 + 12 + 2,
 339:Source\mbedtls_open\library/ssl_ticket.c ****                     state, clear_len, state, &ciph_len, tag, 16 ) ) != 0 )
 340:Source\mbedtls_open\library/ssl_ticket.c ****     {
ARM GAS  C:\Users\Phuong\AppData\Local\Temp\cc6iV4S7.s 			page 21


 341:Source\mbedtls_open\library/ssl_ticket.c ****         goto cleanup;
 342:Source\mbedtls_open\library/ssl_ticket.c ****     }
 343:Source\mbedtls_open\library/ssl_ticket.c ****     if( ciph_len != clear_len )
 344:Source\mbedtls_open\library/ssl_ticket.c ****     {
 345:Source\mbedtls_open\library/ssl_ticket.c ****         ret = MBEDTLS_ERR_SSL_INTERNAL_ERROR;
 346:Source\mbedtls_open\library/ssl_ticket.c ****         goto cleanup;
 347:Source\mbedtls_open\library/ssl_ticket.c ****     }
 348:Source\mbedtls_open\library/ssl_ticket.c **** 
 349:Source\mbedtls_open\library/ssl_ticket.c ****     *tlen = 4 + 12 + 2 + 16 + ciph_len;
 350:Source\mbedtls_open\library/ssl_ticket.c **** 
 351:Source\mbedtls_open\library/ssl_ticket.c **** cleanup:
 352:Source\mbedtls_open\library/ssl_ticket.c **** #if defined(MBEDTLS_THREADING_C)
 353:Source\mbedtls_open\library/ssl_ticket.c ****     if( mbedtls_mutex_unlock( &ctx->mutex ) != 0 )
 354:Source\mbedtls_open\library/ssl_ticket.c ****         return( MBEDTLS_ERR_THREADING_MUTEX_ERROR );
 355:Source\mbedtls_open\library/ssl_ticket.c **** #endif
 356:Source\mbedtls_open\library/ssl_ticket.c **** 
 357:Source\mbedtls_open\library/ssl_ticket.c ****     return( ret );
 358:Source\mbedtls_open\library/ssl_ticket.c **** }
 359:Source\mbedtls_open\library/ssl_ticket.c **** 
 360:Source\mbedtls_open\library/ssl_ticket.c **** /*
 361:Source\mbedtls_open\library/ssl_ticket.c ****  * Select key based on name
 362:Source\mbedtls_open\library/ssl_ticket.c ****  */
 363:Source\mbedtls_open\library/ssl_ticket.c **** static mbedtls_ssl_ticket_key *ssl_ticket_select_key(
 364:Source\mbedtls_open\library/ssl_ticket.c ****         mbedtls_ssl_ticket_context *ctx,
 365:Source\mbedtls_open\library/ssl_ticket.c ****         const unsigned char name[4] )
 366:Source\mbedtls_open\library/ssl_ticket.c **** {
 279              		.loc 1 366 0
 280              		.cfi_startproc
 281              		@ args = 0, pretend = 0, frame = 0
 282              		@ frame_needed = 0, uses_anonymous_args = 0
 283              	.LVL42:
 284 0000 F8B5     		push	{r3, r4, r5, r6, r7, lr}
 285              		.cfi_def_cfa_offset 24
 286              		.cfi_offset 3, -24
 287              		.cfi_offset 4, -20
 288              		.cfi_offset 5, -16
 289              		.cfi_offset 6, -12
 290              		.cfi_offset 7, -8
 291              		.cfi_offset 14, -4
 292 0002 0700     		movs	r7, r0
 293 0004 0D00     		movs	r5, r1
 294              	.LVL43:
 367:Source\mbedtls_open\library/ssl_ticket.c ****     unsigned char i;
 368:Source\mbedtls_open\library/ssl_ticket.c **** 
 369:Source\mbedtls_open\library/ssl_ticket.c ****     for( i = 0; i < sizeof( ctx->keys ) / sizeof( *ctx->keys ); i++ )
 295              		.loc 1 369 0
 296 0006 0024     		movs	r4, #0
 297 0008 10E0     		b	.L19
 298              	.LVL44:
 299              	.L22:
 370:Source\mbedtls_open\library/ssl_ticket.c ****         if( memcmp( name, ctx->keys[i].name, 4 ) == 0 )
 300              		.loc 1 370 0
 301 000a E300     		lsls	r3, r4, #3
 302 000c 1B19     		adds	r3, r3, r4
 303 000e D900     		lsls	r1, r3, #3
 304 0010 7918     		adds	r1, r7, r1
 305 0012 0422     		movs	r2, #4
ARM GAS  C:\Users\Phuong\AppData\Local\Temp\cc6iV4S7.s 			page 22


 306 0014 2800     		movs	r0, r5
 307 0016 FFF7FEFF 		bl	memcmp
 308              	.LVL45:
 309 001a 0028     		cmp	r0, #0
 310 001c 04D1     		bne	.L20
 371:Source\mbedtls_open\library/ssl_ticket.c ****             return( &ctx->keys[i] );
 311              		.loc 1 371 0
 312 001e E300     		lsls	r3, r4, #3
 313 0020 1E19     		adds	r6, r3, r4
 314 0022 F000     		lsls	r0, r6, #3
 315 0024 3818     		adds	r0, r7, r0
 316 0026 04E0     		b	.L21
 317              	.L20:
 369:Source\mbedtls_open\library/ssl_ticket.c ****         if( memcmp( name, ctx->keys[i].name, 4 ) == 0 )
 318              		.loc 1 369 0 discriminator 2
 319 0028 0134     		adds	r4, r4, #1
 320              	.LVL46:
 321 002a E4B2     		uxtb	r4, r4
 322              	.LVL47:
 323              	.L19:
 369:Source\mbedtls_open\library/ssl_ticket.c ****         if( memcmp( name, ctx->keys[i].name, 4 ) == 0 )
 324              		.loc 1 369 0 is_stmt 0 discriminator 1
 325 002c 012C     		cmp	r4, #1
 326 002e ECD9     		bls	.L22
 372:Source\mbedtls_open\library/ssl_ticket.c **** 
 373:Source\mbedtls_open\library/ssl_ticket.c ****     return( NULL );
 327              		.loc 1 373 0 is_stmt 1
 328 0030 0020     		movs	r0, #0
 329              	.L21:
 374:Source\mbedtls_open\library/ssl_ticket.c **** }
 330              		.loc 1 374 0
 331              		@ sp needed
 332              	.LVL48:
 333              	.LVL49:
 334              	.LVL50:
 335 0032 F8BD     		pop	{r3, r4, r5, r6, r7, pc}
 336              		.cfi_endproc
 337              	.LFE25:
 338              		.size	ssl_ticket_select_key, .-ssl_ticket_select_key
 339              		.section	.text.ssl_load_session,"ax",%progbits
 340              		.align	2
 341              		.code	16
 342              		.thumb_func
 343              		.type	ssl_load_session, %function
 344              	ssl_load_session:
 345              	.LFB23:
 211:Source\mbedtls_open\library/ssl_ticket.c ****     const unsigned char *p = buf;
 346              		.loc 1 211 0
 347              		.cfi_startproc
 348              		@ args = 0, pretend = 0, frame = 0
 349              		@ frame_needed = 0, uses_anonymous_args = 0
 350              	.LVL51:
 351 0000 F0B5     		push	{r4, r5, r6, r7, lr}
 352              		.cfi_def_cfa_offset 20
 353              		.cfi_offset 4, -20
 354              		.cfi_offset 5, -16
 355              		.cfi_offset 6, -12
ARM GAS  C:\Users\Phuong\AppData\Local\Temp\cc6iV4S7.s 			page 23


 356              		.cfi_offset 7, -8
 357              		.cfi_offset 14, -4
 358 0002 4746     		mov	r7, r8
 359 0004 80B4     		push	{r7}
 360              		.cfi_def_cfa_offset 24
 361              		.cfi_offset 8, -24
 362 0006 0700     		movs	r7, r0
 363 0008 0D00     		movs	r5, r1
 364              	.LVL52:
 213:Source\mbedtls_open\library/ssl_ticket.c **** #if defined(MBEDTLS_X509_CRT_PARSE_C)
 365              		.loc 1 213 0
 366 000a 8E18     		adds	r6, r1, r2
 367              	.LVL53:
 218:Source\mbedtls_open\library/ssl_ticket.c ****         return( MBEDTLS_ERR_SSL_BAD_INPUT_DATA );
 368              		.loc 1 218 0
 369 000c 0B00     		movs	r3, r1
 370 000e 7C33     		adds	r3, r3, #124
 371 0010 9E42     		cmp	r6, r3
 372 0012 39D3     		bcc	.L27
 221:Source\mbedtls_open\library/ssl_ticket.c ****     p += sizeof( mbedtls_ssl_session );
 373              		.loc 1 221 0
 374 0014 7C22     		movs	r2, #124
 375              	.LVL54:
 376 0016 FFF7FEFF 		bl	memcpy
 377              	.LVL55:
 225:Source\mbedtls_open\library/ssl_ticket.c ****         return( MBEDTLS_ERR_SSL_BAD_INPUT_DATA );
 378              		.loc 1 225 0
 379 001a 7F23     		movs	r3, #127
 380 001c 9846     		mov	r8, r3
 381 001e A844     		add	r8, r8, r5
 382 0020 4645     		cmp	r6, r8
 383 0022 33D3     		bcc	.L28
 228:Source\mbedtls_open\library/ssl_ticket.c ****     p += 3;
 384              		.loc 1 228 0
 385 0024 033B     		subs	r3, r3, #3
 386 0026 EC5C     		ldrb	r4, [r5, r3]
 387 0028 2404     		lsls	r4, r4, #16
 388 002a 0133     		adds	r3, r3, #1
 389 002c EB5C     		ldrb	r3, [r5, r3]
 390 002e 1B02     		lsls	r3, r3, #8
 391 0030 1C43     		orrs	r4, r3
 392 0032 7E23     		movs	r3, #126
 393 0034 EB5C     		ldrb	r3, [r5, r3]
 394 0036 1C43     		orrs	r4, r3
 395              	.LVL56:
 231:Source\mbedtls_open\library/ssl_ticket.c ****     {
 396              		.loc 1 231 0
 397 0038 03D1     		bne	.L25
 233:Source\mbedtls_open\library/ssl_ticket.c ****     }
 398              		.loc 1 233 0
 399 003a 0023     		movs	r3, #0
 400 003c FB65     		str	r3, [r7, #92]
 229:Source\mbedtls_open\library/ssl_ticket.c **** 
 401              		.loc 1 229 0
 402 003e 4546     		mov	r5, r8
 403              	.LVL57:
 404 0040 1EE0     		b	.L26
ARM GAS  C:\Users\Phuong\AppData\Local\Temp\cc6iV4S7.s 			page 24


 405              	.LVL58:
 406              	.L25:
 407              	.LBB6:
 239:Source\mbedtls_open\library/ssl_ticket.c ****             return( MBEDTLS_ERR_SSL_BAD_INPUT_DATA );
 408              		.loc 1 239 0
 409 0042 4346     		mov	r3, r8
 410 0044 1D19     		adds	r5, r3, r4
 411              	.LVL59:
 412 0046 AE42     		cmp	r6, r5
 413 0048 22D3     		bcc	.L29
 414              	.LVL60:
 242:Source\mbedtls_open\library/ssl_ticket.c **** 
 415              		.loc 1 242 0
 416 004a 9A21     		movs	r1, #154
 417 004c 4900     		lsls	r1, r1, #1
 418 004e 0120     		movs	r0, #1
 419 0050 FFF7FEFF 		bl	calloc
 420              	.LVL61:
 421 0054 F865     		str	r0, [r7, #92]
 244:Source\mbedtls_open\library/ssl_ticket.c ****             return( MBEDTLS_ERR_SSL_ALLOC_FAILED );
 422              		.loc 1 244 0
 423 0056 0028     		cmp	r0, #0
 424 0058 1CD0     		beq	.L30
 247:Source\mbedtls_open\library/ssl_ticket.c **** 
 425              		.loc 1 247 0
 426 005a FFF7FEFF 		bl	mbedtls_x509_crt_init
 427              	.LVL62:
 249:Source\mbedtls_open\library/ssl_ticket.c ****                                         p, cert_len ) ) != 0 )
 428              		.loc 1 249 0
 429 005e 2200     		movs	r2, r4
 430 0060 4146     		mov	r1, r8
 431 0062 F86D     		ldr	r0, [r7, #92]
 432 0064 FFF7FEFF 		bl	mbedtls_x509_crt_parse_der
 433              	.LVL63:
 434 0068 041E     		subs	r4, r0, #0
 435              	.LVL64:
 436 006a 09D0     		beq	.L26
 252:Source\mbedtls_open\library/ssl_ticket.c ****             mbedtls_free( session->peer_cert );
 437              		.loc 1 252 0
 438 006c F86D     		ldr	r0, [r7, #92]
 439              	.LVL65:
 440 006e FFF7FEFF 		bl	mbedtls_x509_crt_free
 441              	.LVL66:
 253:Source\mbedtls_open\library/ssl_ticket.c ****             session->peer_cert = NULL;
 442              		.loc 1 253 0
 443 0072 F86D     		ldr	r0, [r7, #92]
 444 0074 FFF7FEFF 		bl	free
 445              	.LVL67:
 254:Source\mbedtls_open\library/ssl_ticket.c ****             return( ret );
 446              		.loc 1 254 0
 447 0078 0023     		movs	r3, #0
 448 007a FB65     		str	r3, [r7, #92]
 255:Source\mbedtls_open\library/ssl_ticket.c ****         }
 449              		.loc 1 255 0
 450 007c 2000     		movs	r0, r4
 451 007e 0CE0     		b	.L24
 452              	.LVL68:
ARM GAS  C:\Users\Phuong\AppData\Local\Temp\cc6iV4S7.s 			page 25


 453              	.L26:
 454              	.LBE6:
 262:Source\mbedtls_open\library/ssl_ticket.c ****         return( MBEDTLS_ERR_SSL_BAD_INPUT_DATA );
 455              		.loc 1 262 0
 456 0080 B542     		cmp	r5, r6
 457 0082 09D0     		beq	.L31
 263:Source\mbedtls_open\library/ssl_ticket.c **** 
 458              		.loc 1 263 0
 459 0084 0648     		ldr	r0, .L32
 460 0086 08E0     		b	.L24
 461              	.LVL69:
 462              	.L27:
 219:Source\mbedtls_open\library/ssl_ticket.c **** 
 463              		.loc 1 219 0
 464 0088 0548     		ldr	r0, .L32
 465              	.LVL70:
 466 008a 06E0     		b	.L24
 467              	.LVL71:
 468              	.L28:
 226:Source\mbedtls_open\library/ssl_ticket.c **** 
 469              		.loc 1 226 0
 470 008c 0448     		ldr	r0, .L32
 471 008e 04E0     		b	.L24
 472              	.LVL72:
 473              	.L29:
 474              	.LBB7:
 240:Source\mbedtls_open\library/ssl_ticket.c **** 
 475              		.loc 1 240 0
 476 0090 0348     		ldr	r0, .L32
 477 0092 02E0     		b	.L24
 478              	.LVL73:
 479              	.L30:
 245:Source\mbedtls_open\library/ssl_ticket.c **** 
 480              		.loc 1 245 0
 481 0094 0348     		ldr	r0, .L32+4
 482 0096 00E0     		b	.L24
 483              	.LVL74:
 484              	.L31:
 485              	.LBE7:
 265:Source\mbedtls_open\library/ssl_ticket.c **** }
 486              		.loc 1 265 0
 487 0098 0020     		movs	r0, #0
 488              	.LVL75:
 489              	.L24:
 266:Source\mbedtls_open\library/ssl_ticket.c **** 
 490              		.loc 1 266 0
 491              		@ sp needed
 492              	.LVL76:
 493              	.LVL77:
 494 009a 04BC     		pop	{r2}
 495 009c 9046     		mov	r8, r2
 496 009e F0BD     		pop	{r4, r5, r6, r7, pc}
 497              	.L33:
 498              		.align	2
 499              	.L32:
 500 00a0 008FFFFF 		.word	-28928
 501 00a4 0081FFFF 		.word	-32512
ARM GAS  C:\Users\Phuong\AppData\Local\Temp\cc6iV4S7.s 			page 26


 502              		.cfi_endproc
 503              	.LFE23:
 504              		.size	ssl_load_session, .-ssl_load_session
 505              		.section	.text.mbedtls_ssl_ticket_init,"ax",%progbits
 506              		.align	2
 507              		.global	mbedtls_ssl_ticket_init
 508              		.code	16
 509              		.thumb_func
 510              		.type	mbedtls_ssl_ticket_init, %function
 511              	mbedtls_ssl_ticket_init:
 512              	.LFB18:
  47:Source\mbedtls_open\library/ssl_ticket.c ****     memset( ctx, 0, sizeof( mbedtls_ssl_ticket_context ) );
 513              		.loc 1 47 0
 514              		.cfi_startproc
 515              		@ args = 0, pretend = 0, frame = 0
 516              		@ frame_needed = 0, uses_anonymous_args = 0
 517              	.LVL78:
 518 0000 10B5     		push	{r4, lr}
 519              		.cfi_def_cfa_offset 8
 520              		.cfi_offset 4, -8
 521              		.cfi_offset 14, -4
  48:Source\mbedtls_open\library/ssl_ticket.c **** 
 522              		.loc 1 48 0
 523 0002 A022     		movs	r2, #160
 524 0004 0021     		movs	r1, #0
 525 0006 FFF7FEFF 		bl	memset
 526              	.LVL79:
  53:Source\mbedtls_open\library/ssl_ticket.c **** 
 527              		.loc 1 53 0
 528              		@ sp needed
 529 000a 10BD     		pop	{r4, pc}
 530              		.cfi_endproc
 531              	.LFE18:
 532              		.size	mbedtls_ssl_ticket_init, .-mbedtls_ssl_ticket_init
 533              		.section	.text.mbedtls_ssl_ticket_setup,"ax",%progbits
 534              		.align	2
 535              		.global	mbedtls_ssl_ticket_setup
 536              		.code	16
 537              		.thumb_func
 538              		.type	mbedtls_ssl_ticket_setup, %function
 539              	mbedtls_ssl_ticket_setup:
 540              	.LFB21:
 122:Source\mbedtls_open\library/ssl_ticket.c ****     int ret;
 541              		.loc 1 122 0
 542              		.cfi_startproc
 543              		@ args = 4, pretend = 0, frame = 0
 544              		@ frame_needed = 0, uses_anonymous_args = 0
 545              	.LVL80:
 546 0000 70B5     		push	{r4, r5, r6, lr}
 547              		.cfi_def_cfa_offset 16
 548              		.cfi_offset 4, -16
 549              		.cfi_offset 5, -12
 550              		.cfi_offset 6, -8
 551              		.cfi_offset 14, -4
 552 0002 0400     		movs	r4, r0
 126:Source\mbedtls_open\library/ssl_ticket.c ****     ctx->p_rng = p_rng;
 553              		.loc 1 126 0
ARM GAS  C:\Users\Phuong\AppData\Local\Temp\cc6iV4S7.s 			page 27


 554 0004 9820     		movs	r0, #152
 555              	.LVL81:
 556 0006 2150     		str	r1, [r4, r0]
 127:Source\mbedtls_open\library/ssl_ticket.c **** 
 557              		.loc 1 127 0
 558 0008 9C21     		movs	r1, #156
 559              	.LVL82:
 560 000a 6250     		str	r2, [r4, r1]
 129:Source\mbedtls_open\library/ssl_ticket.c **** 
 561              		.loc 1 129 0
 562 000c 9422     		movs	r2, #148
 563              	.LVL83:
 564 000e 0499     		ldr	r1, [sp, #16]
 565              	.LVL84:
 566 0010 A150     		str	r1, [r4, r2]
 131:Source\mbedtls_open\library/ssl_ticket.c ****     if( cipher_info == NULL )
 567              		.loc 1 131 0
 568 0012 1800     		movs	r0, r3
 569              	.LVL85:
 570 0014 FFF7FEFF 		bl	mbedtls_cipher_info_from_type
 571              	.LVL86:
 572 0018 051E     		subs	r5, r0, #0
 573              	.LVL87:
 132:Source\mbedtls_open\library/ssl_ticket.c ****         return( MBEDTLS_ERR_SSL_BAD_INPUT_DATA );
 574              		.loc 1 132 0
 575 001a 22D0     		beq	.L38
 135:Source\mbedtls_open\library/ssl_ticket.c ****         cipher_info->mode != MBEDTLS_MODE_CCM )
 576              		.loc 1 135 0
 577 001c 4378     		ldrb	r3, [r0, #1]
 578 001e 062B     		cmp	r3, #6
 579 0020 01D0     		beq	.L37
 135:Source\mbedtls_open\library/ssl_ticket.c ****         cipher_info->mode != MBEDTLS_MODE_CCM )
 580              		.loc 1 135 0 is_stmt 0 discriminator 1
 581 0022 082B     		cmp	r3, #8
 582 0024 1FD1     		bne	.L39
 583              	.L37:
 141:Source\mbedtls_open\library/ssl_ticket.c ****         return( MBEDTLS_ERR_SSL_BAD_INPUT_DATA );
 584              		.loc 1 141 0 is_stmt 1
 585 0026 8023     		movs	r3, #128
 586 0028 5B00     		lsls	r3, r3, #1
 587 002a 6A68     		ldr	r2, [r5, #4]
 588 002c 9A42     		cmp	r2, r3
 589 002e 1CD8     		bhi	.L40
 144:Source\mbedtls_open\library/ssl_ticket.c ****         ( ret = mbedtls_cipher_setup( &ctx->keys[1].ctx, cipher_info ) ) != 0 )
 590              		.loc 1 144 0
 591 0030 2000     		movs	r0, r4
 592              	.LVL88:
 593 0032 0830     		adds	r0, r0, #8
 594 0034 2900     		movs	r1, r5
 595 0036 FFF7FEFF 		bl	mbedtls_cipher_setup
 596              	.LVL89:
 597 003a 0028     		cmp	r0, #0
 598 003c 16D1     		bne	.L36
 145:Source\mbedtls_open\library/ssl_ticket.c ****     {
 599              		.loc 1 145 0 discriminator 1
 600 003e 2000     		movs	r0, r4
 601              	.LVL90:
ARM GAS  C:\Users\Phuong\AppData\Local\Temp\cc6iV4S7.s 			page 28


 602 0040 5030     		adds	r0, r0, #80
 144:Source\mbedtls_open\library/ssl_ticket.c ****         ( ret = mbedtls_cipher_setup( &ctx->keys[1].ctx, cipher_info ) ) != 0 )
 603              		.loc 1 144 0 discriminator 1
 604 0042 2900     		movs	r1, r5
 605 0044 FFF7FEFF 		bl	mbedtls_cipher_setup
 606              	.LVL91:
 607 0048 0028     		cmp	r0, #0
 608 004a 0FD1     		bne	.L36
 150:Source\mbedtls_open\library/ssl_ticket.c ****         ( ret = ssl_ticket_gen_key( ctx, 1 ) ) != 0 )
 609              		.loc 1 150 0
 610 004c 0021     		movs	r1, #0
 611 004e 2000     		movs	r0, r4
 612              	.LVL92:
 613 0050 FFF7FEFF 		bl	ssl_ticket_gen_key
 614              	.LVL93:
 615 0054 0028     		cmp	r0, #0
 616 0056 09D1     		bne	.L36
 150:Source\mbedtls_open\library/ssl_ticket.c ****         ( ret = ssl_ticket_gen_key( ctx, 1 ) ) != 0 )
 617              		.loc 1 150 0 is_stmt 0 discriminator 1
 618 0058 0121     		movs	r1, #1
 619 005a 2000     		movs	r0, r4
 620              	.LVL94:
 621 005c FFF7FEFF 		bl	ssl_ticket_gen_key
 622              	.LVL95:
 623 0060 04E0     		b	.L36
 624              	.LVL96:
 625              	.L38:
 133:Source\mbedtls_open\library/ssl_ticket.c **** 
 626              		.loc 1 133 0 is_stmt 1
 627 0062 0348     		ldr	r0, .L45
 628              	.LVL97:
 629 0064 02E0     		b	.L36
 630              	.LVL98:
 631              	.L39:
 138:Source\mbedtls_open\library/ssl_ticket.c ****     }
 632              		.loc 1 138 0
 633 0066 0248     		ldr	r0, .L45
 634              	.LVL99:
 635 0068 00E0     		b	.L36
 636              	.LVL100:
 637              	.L40:
 142:Source\mbedtls_open\library/ssl_ticket.c **** 
 638              		.loc 1 142 0
 639 006a 0148     		ldr	r0, .L45
 640              	.LVL101:
 641              	.L36:
 157:Source\mbedtls_open\library/ssl_ticket.c **** 
 642              		.loc 1 157 0
 643              		@ sp needed
 644              	.LVL102:
 645              	.LVL103:
 646 006c 70BD     		pop	{r4, r5, r6, pc}
 647              	.L46:
 648 006e C046     		.align	2
 649              	.L45:
 650 0070 008FFFFF 		.word	-28928
 651              		.cfi_endproc
ARM GAS  C:\Users\Phuong\AppData\Local\Temp\cc6iV4S7.s 			page 29


 652              	.LFE21:
 653              		.size	mbedtls_ssl_ticket_setup, .-mbedtls_ssl_ticket_setup
 654              		.section	.text.mbedtls_ssl_ticket_write,"ax",%progbits
 655              		.align	2
 656              		.global	mbedtls_ssl_ticket_write
 657              		.code	16
 658              		.thumb_func
 659              		.type	mbedtls_ssl_ticket_write, %function
 660              	mbedtls_ssl_ticket_write:
 661              	.LFB24:
 287:Source\mbedtls_open\library/ssl_ticket.c ****     int ret;
 662              		.loc 1 287 0
 663              		.cfi_startproc
 664              		@ args = 8, pretend = 0, frame = 16
 665              		@ frame_needed = 0, uses_anonymous_args = 0
 666              	.LVL104:
 667 0000 F0B5     		push	{r4, r5, r6, r7, lr}
 668              		.cfi_def_cfa_offset 20
 669              		.cfi_offset 4, -20
 670              		.cfi_offset 5, -16
 671              		.cfi_offset 6, -12
 672              		.cfi_offset 7, -8
 673              		.cfi_offset 14, -4
 674 0002 5F46     		mov	r7, fp
 675 0004 4646     		mov	r6, r8
 676 0006 C0B4     		push	{r6, r7}
 677              		.cfi_def_cfa_offset 28
 678              		.cfi_offset 8, -28
 679              		.cfi_offset 11, -24
 680 0008 8DB0     		sub	sp, sp, #52
 681              		.cfi_def_cfa_offset 80
 682 000a 0400     		movs	r4, r0
 683 000c 0991     		str	r1, [sp, #36]
 684 000e 1700     		movs	r7, r2
 685 0010 1D00     		movs	r5, r3
 686              	.LVL105:
 292:Source\mbedtls_open\library/ssl_ticket.c ****     unsigned char *state_len_bytes = iv + 12;
 687              		.loc 1 292 0
 688 0012 131D     		adds	r3, r2, #4
 689              	.LVL106:
 690 0014 9846     		mov	r8, r3
 691              	.LVL107:
 294:Source\mbedtls_open\library/ssl_ticket.c ****     unsigned char *tag;
 692              		.loc 1 294 0
 693 0016 1600     		movs	r6, r2
 694 0018 1236     		adds	r6, r6, #18
 695              	.LVL108:
 298:Source\mbedtls_open\library/ssl_ticket.c **** 
 696              		.loc 1 298 0
 697 001a 0023     		movs	r3, #0
 698              	.LVL109:
 699 001c 149A     		ldr	r2, [sp, #80]
 700              	.LVL110:
 701 001e 1360     		str	r3, [r2]
 300:Source\mbedtls_open\library/ssl_ticket.c ****         return( MBEDTLS_ERR_SSL_BAD_INPUT_DATA );
 702              		.loc 1 300 0
 703 0020 0028     		cmp	r0, #0
ARM GAS  C:\Users\Phuong\AppData\Local\Temp\cc6iV4S7.s 			page 30


 704 0022 52D0     		beq	.L49
 300:Source\mbedtls_open\library/ssl_ticket.c ****         return( MBEDTLS_ERR_SSL_BAD_INPUT_DATA );
 705              		.loc 1 300 0 is_stmt 0 discriminator 1
 706 0024 9833     		adds	r3, r3, #152
 707 0026 C358     		ldr	r3, [r0, r3]
 708 0028 002B     		cmp	r3, #0
 709 002a 50D0     		beq	.L50
 305:Source\mbedtls_open\library/ssl_ticket.c ****         return( MBEDTLS_ERR_SSL_BUFFER_TOO_SMALL );
 710              		.loc 1 305 0 is_stmt 1
 711 002c EB1B     		subs	r3, r5, r7
 712 002e 212B     		cmp	r3, #33
 713 0030 4FDD     		ble	.L51
 313:Source\mbedtls_open\library/ssl_ticket.c ****         goto cleanup;
 714              		.loc 1 313 0
 715 0032 FFF7FEFF 		bl	ssl_ticket_update_keys
 716              	.LVL111:
 717 0036 0028     		cmp	r0, #0
 718 0038 4ED1     		bne	.L48
 316:Source\mbedtls_open\library/ssl_ticket.c **** 
 719              		.loc 1 316 0
 720 003a 9023     		movs	r3, #144
 721 003c E35C     		ldrb	r3, [r4, r3]
 722 003e 9B46     		mov	fp, r3
 723              	.LVL112:
 318:Source\mbedtls_open\library/ssl_ticket.c **** 
 724              		.loc 1 318 0
 725 0040 9423     		movs	r3, #148
 726              	.LVL113:
 727 0042 E258     		ldr	r2, [r4, r3]
 728 0044 159B     		ldr	r3, [sp, #84]
 729 0046 1A60     		str	r2, [r3]
 320:Source\mbedtls_open\library/ssl_ticket.c **** 
 730              		.loc 1 320 0
 731 0048 5B46     		mov	r3, fp
 732 004a DB00     		lsls	r3, r3, #3
 733 004c 5B44     		add	r3, r3, fp
 734 004e D900     		lsls	r1, r3, #3
 735 0050 6118     		adds	r1, r4, r1
 736 0052 0422     		movs	r2, #4
 737 0054 3800     		movs	r0, r7
 738              	.LVL114:
 739 0056 FFF7FEFF 		bl	memcpy
 740              	.LVL115:
 322:Source\mbedtls_open\library/ssl_ticket.c ****         goto cleanup;
 741              		.loc 1 322 0
 742 005a 9823     		movs	r3, #152
 743 005c E358     		ldr	r3, [r4, r3]
 744 005e 9C22     		movs	r2, #156
 745 0060 A058     		ldr	r0, [r4, r2]
 746 0062 903A     		subs	r2, r2, #144
 747 0064 4146     		mov	r1, r8
 748 0066 9847     		blx	r3
 749              	.LVL116:
 750 0068 0028     		cmp	r0, #0
 751 006a 35D1     		bne	.L48
 327:Source\mbedtls_open\library/ssl_ticket.c ****         (unsigned long) clear_len > 65535 )
 752              		.loc 1 327 0
ARM GAS  C:\Users\Phuong\AppData\Local\Temp\cc6iV4S7.s 			page 31


 753 006c AA1B     		subs	r2, r5, r6
 326:Source\mbedtls_open\library/ssl_ticket.c ****                                   state, end - state, &clear_len ) ) != 0 ||
 754              		.loc 1 326 0
 755 006e 0BAB     		add	r3, sp, #44
 756 0070 3100     		movs	r1, r6
 757 0072 0998     		ldr	r0, [sp, #36]
 758              	.LVL117:
 759 0074 FFF7FEFF 		bl	ssl_save_session
 760              	.LVL118:
 761 0078 0028     		cmp	r0, #0
 762 007a 2DD1     		bne	.L48
 328:Source\mbedtls_open\library/ssl_ticket.c ****     {
 763              		.loc 1 328 0
 764 007c 0B9A     		ldr	r2, [sp, #44]
 327:Source\mbedtls_open\library/ssl_ticket.c ****         (unsigned long) clear_len > 65535 )
 765              		.loc 1 327 0
 766 007e 194B     		ldr	r3, .L58
 767 0080 9A42     		cmp	r2, r3
 768 0082 29D8     		bhi	.L48
 332:Source\mbedtls_open\library/ssl_ticket.c ****     state_len_bytes[1] = ( clear_len      ) & 0xff;
 769              		.loc 1 332 0
 770 0084 130A     		lsrs	r3, r2, #8
 771 0086 3B74     		strb	r3, [r7, #16]
 333:Source\mbedtls_open\library/ssl_ticket.c **** 
 772              		.loc 1 333 0
 773 0088 7A74     		strb	r2, [r7, #17]
 336:Source\mbedtls_open\library/ssl_ticket.c ****     if( ( ret = mbedtls_cipher_auth_encrypt( &key->ctx,
 774              		.loc 1 336 0
 775 008a B118     		adds	r1, r6, r2
 776              	.LVL119:
 337:Source\mbedtls_open\library/ssl_ticket.c ****                     iv, 12, key_name, 4 + 12 + 2,
 777              		.loc 1 337 0
 778 008c 5B46     		mov	r3, fp
 779 008e DB00     		lsls	r3, r3, #3
 780 0090 5B44     		add	r3, r3, fp
 781 0092 D800     		lsls	r0, r3, #3
 782              	.LVL120:
 783 0094 0830     		adds	r0, r0, #8
 784 0096 2018     		adds	r0, r4, r0
 785 0098 1023     		movs	r3, #16
 786 009a 0693     		str	r3, [sp, #24]
 787 009c 0591     		str	r1, [sp, #20]
 788 009e 0AAB     		add	r3, sp, #40
 789 00a0 0493     		str	r3, [sp, #16]
 790 00a2 0396     		str	r6, [sp, #12]
 791 00a4 0292     		str	r2, [sp, #8]
 792 00a6 0196     		str	r6, [sp, #4]
 793 00a8 1223     		movs	r3, #18
 794 00aa 0093     		str	r3, [sp]
 795 00ac 3B00     		movs	r3, r7
 796 00ae 0C22     		movs	r2, #12
 797 00b0 4146     		mov	r1, r8
 798              	.LVL121:
 799 00b2 FFF7FEFF 		bl	mbedtls_cipher_auth_encrypt
 800              	.LVL122:
 801 00b6 0028     		cmp	r0, #0
 802 00b8 0ED1     		bne	.L48
ARM GAS  C:\Users\Phuong\AppData\Local\Temp\cc6iV4S7.s 			page 32


 343:Source\mbedtls_open\library/ssl_ticket.c ****     {
 803              		.loc 1 343 0
 804 00ba 0A9B     		ldr	r3, [sp, #40]
 805 00bc 0B9A     		ldr	r2, [sp, #44]
 806 00be 9342     		cmp	r3, r2
 807 00c0 09D1     		bne	.L57
 349:Source\mbedtls_open\library/ssl_ticket.c **** 
 808              		.loc 1 349 0
 809 00c2 2233     		adds	r3, r3, #34
 810 00c4 149A     		ldr	r2, [sp, #80]
 811 00c6 1360     		str	r3, [r2]
 812 00c8 06E0     		b	.L48
 813              	.LVL123:
 814              	.L49:
 301:Source\mbedtls_open\library/ssl_ticket.c **** 
 815              		.loc 1 301 0
 816 00ca 0748     		ldr	r0, .L58+4
 817              	.LVL124:
 818 00cc 04E0     		b	.L48
 819              	.LVL125:
 820              	.L50:
 821 00ce 0648     		ldr	r0, .L58+4
 822              	.LVL126:
 823 00d0 02E0     		b	.L48
 824              	.LVL127:
 825              	.L51:
 306:Source\mbedtls_open\library/ssl_ticket.c **** 
 826              		.loc 1 306 0
 827 00d2 0648     		ldr	r0, .L58+8
 828              	.LVL128:
 829 00d4 00E0     		b	.L48
 830              	.LVL129:
 831              	.L57:
 345:Source\mbedtls_open\library/ssl_ticket.c ****         goto cleanup;
 832              		.loc 1 345 0
 833 00d6 0648     		ldr	r0, .L58+12
 834              	.LVL130:
 835              	.L48:
 358:Source\mbedtls_open\library/ssl_ticket.c **** 
 836              		.loc 1 358 0
 837 00d8 0DB0     		add	sp, sp, #52
 838              		@ sp needed
 839              	.LVL131:
 840              	.LVL132:
 841              	.LVL133:
 842              	.LVL134:
 843              	.LVL135:
 844 00da 0CBC     		pop	{r2, r3}
 845 00dc 9046     		mov	r8, r2
 846 00de 9B46     		mov	fp, r3
 847 00e0 F0BD     		pop	{r4, r5, r6, r7, pc}
 848              	.L59:
 849 00e2 C046     		.align	2
 850              	.L58:
 851 00e4 FFFF0000 		.word	65535
 852 00e8 008FFFFF 		.word	-28928
 853 00ec 0096FFFF 		.word	-27136
ARM GAS  C:\Users\Phuong\AppData\Local\Temp\cc6iV4S7.s 			page 33


 854 00f0 0094FFFF 		.word	-27648
 855              		.cfi_endproc
 856              	.LFE24:
 857              		.size	mbedtls_ssl_ticket_write, .-mbedtls_ssl_ticket_write
 858              		.section	.text.mbedtls_ssl_ticket_parse,"ax",%progbits
 859              		.align	2
 860              		.global	mbedtls_ssl_ticket_parse
 861              		.code	16
 862              		.thumb_func
 863              		.type	mbedtls_ssl_ticket_parse, %function
 864              	mbedtls_ssl_ticket_parse:
 865              	.LFB26:
 375:Source\mbedtls_open\library/ssl_ticket.c **** 
 376:Source\mbedtls_open\library/ssl_ticket.c **** /*
 377:Source\mbedtls_open\library/ssl_ticket.c ****  * Load session ticket (see mbedtls_ssl_ticket_write for structure)
 378:Source\mbedtls_open\library/ssl_ticket.c ****  */
 379:Source\mbedtls_open\library/ssl_ticket.c **** int mbedtls_ssl_ticket_parse( void *p_ticket,
 380:Source\mbedtls_open\library/ssl_ticket.c ****                               mbedtls_ssl_session *session,
 381:Source\mbedtls_open\library/ssl_ticket.c ****                               unsigned char *buf,
 382:Source\mbedtls_open\library/ssl_ticket.c ****                               size_t len )
 383:Source\mbedtls_open\library/ssl_ticket.c **** {
 866              		.loc 1 383 0
 867              		.cfi_startproc
 868              		@ args = 0, pretend = 0, frame = 16
 869              		@ frame_needed = 0, uses_anonymous_args = 0
 870              	.LVL136:
 871 0000 F0B5     		push	{r4, r5, r6, r7, lr}
 872              		.cfi_def_cfa_offset 20
 873              		.cfi_offset 4, -20
 874              		.cfi_offset 5, -16
 875              		.cfi_offset 6, -12
 876              		.cfi_offset 7, -8
 877              		.cfi_offset 14, -4
 878 0002 5F46     		mov	r7, fp
 879 0004 5646     		mov	r6, r10
 880 0006 4D46     		mov	r5, r9
 881 0008 E0B4     		push	{r5, r6, r7}
 882              		.cfi_def_cfa_offset 32
 883              		.cfi_offset 9, -32
 884              		.cfi_offset 10, -28
 885              		.cfi_offset 11, -24
 886 000a 8CB0     		sub	sp, sp, #48
 887              		.cfi_def_cfa_offset 80
 888 000c 0700     		movs	r7, r0
 889 000e 0991     		str	r1, [sp, #36]
 890 0010 1400     		movs	r4, r2
 891 0012 9946     		mov	r9, r3
 892              	.LVL137:
 384:Source\mbedtls_open\library/ssl_ticket.c ****     int ret;
 385:Source\mbedtls_open\library/ssl_ticket.c ****     mbedtls_ssl_ticket_context *ctx = p_ticket;
 386:Source\mbedtls_open\library/ssl_ticket.c ****     mbedtls_ssl_ticket_key *key;
 387:Source\mbedtls_open\library/ssl_ticket.c ****     unsigned char *key_name = buf;
 388:Source\mbedtls_open\library/ssl_ticket.c ****     unsigned char *iv = buf + 4;
 893              		.loc 1 388 0
 894 0014 131D     		adds	r3, r2, #4
 895              	.LVL138:
 896 0016 9A46     		mov	r10, r3
ARM GAS  C:\Users\Phuong\AppData\Local\Temp\cc6iV4S7.s 			page 34


 897              	.LVL139:
 389:Source\mbedtls_open\library/ssl_ticket.c ****     unsigned char *enc_len_p = iv + 12;
 390:Source\mbedtls_open\library/ssl_ticket.c ****     unsigned char *ticket = enc_len_p + 2;
 898              		.loc 1 390 0
 899 0018 1500     		movs	r5, r2
 900 001a 1235     		adds	r5, r5, #18
 901              	.LVL140:
 391:Source\mbedtls_open\library/ssl_ticket.c ****     unsigned char *tag;
 392:Source\mbedtls_open\library/ssl_ticket.c ****     size_t enc_len, clear_len;
 393:Source\mbedtls_open\library/ssl_ticket.c **** 
 394:Source\mbedtls_open\library/ssl_ticket.c ****     if( ctx == NULL || ctx->f_rng == NULL )
 902              		.loc 1 394 0
 903 001c 0028     		cmp	r0, #0
 904 001e 39D0     		beq	.L63
 905              		.loc 1 394 0 is_stmt 0 discriminator 1
 906 0020 9823     		movs	r3, #152
 907              	.LVL141:
 908 0022 C358     		ldr	r3, [r0, r3]
 909 0024 002B     		cmp	r3, #0
 910 0026 37D0     		beq	.L64
 395:Source\mbedtls_open\library/ssl_ticket.c ****         return( MBEDTLS_ERR_SSL_BAD_INPUT_DATA );
 396:Source\mbedtls_open\library/ssl_ticket.c **** 
 397:Source\mbedtls_open\library/ssl_ticket.c ****     /* See mbedtls_ssl_ticket_write() */
 398:Source\mbedtls_open\library/ssl_ticket.c ****     if( len < 4 + 12 + 2 + 16 )
 911              		.loc 1 398 0 is_stmt 1
 912 0028 4B46     		mov	r3, r9
 913 002a 212B     		cmp	r3, #33
 914 002c 36D9     		bls	.L65
 399:Source\mbedtls_open\library/ssl_ticket.c ****         return( MBEDTLS_ERR_SSL_BAD_INPUT_DATA );
 400:Source\mbedtls_open\library/ssl_ticket.c **** 
 401:Source\mbedtls_open\library/ssl_ticket.c **** #if defined(MBEDTLS_THREADING_C)
 402:Source\mbedtls_open\library/ssl_ticket.c ****     if( ( ret = mbedtls_mutex_lock( &ctx->mutex ) ) != 0 )
 403:Source\mbedtls_open\library/ssl_ticket.c ****         return( ret );
 404:Source\mbedtls_open\library/ssl_ticket.c **** #endif
 405:Source\mbedtls_open\library/ssl_ticket.c **** 
 406:Source\mbedtls_open\library/ssl_ticket.c ****     if( ( ret = ssl_ticket_update_keys( ctx ) ) != 0 )
 915              		.loc 1 406 0
 916 002e FFF7FEFF 		bl	ssl_ticket_update_keys
 917              	.LVL142:
 918 0032 0028     		cmp	r0, #0
 919 0034 3BD1     		bne	.L61
 407:Source\mbedtls_open\library/ssl_ticket.c ****         goto cleanup;
 408:Source\mbedtls_open\library/ssl_ticket.c **** 
 409:Source\mbedtls_open\library/ssl_ticket.c ****     enc_len = ( enc_len_p[0] << 8 ) | enc_len_p[1];
 920              		.loc 1 409 0
 921 0036 267C     		ldrb	r6, [r4, #16]
 922 0038 3602     		lsls	r6, r6, #8
 923 003a 637C     		ldrb	r3, [r4, #17]
 924 003c 1E43     		orrs	r6, r3
 925              	.LVL143:
 410:Source\mbedtls_open\library/ssl_ticket.c ****     tag = ticket + enc_len;
 926              		.loc 1 410 0
 927 003e AB19     		adds	r3, r5, r6
 928 0040 9B46     		mov	fp, r3
 929              	.LVL144:
 411:Source\mbedtls_open\library/ssl_ticket.c **** 
 412:Source\mbedtls_open\library/ssl_ticket.c ****     if( len != 4 + 12 + 2 + enc_len + 16 )
ARM GAS  C:\Users\Phuong\AppData\Local\Temp\cc6iV4S7.s 			page 35


 930              		.loc 1 412 0
 931 0042 3300     		movs	r3, r6
 932              	.LVL145:
 933 0044 2233     		adds	r3, r3, #34
 934 0046 9945     		cmp	r9, r3
 935 0048 2AD1     		bne	.L67
 413:Source\mbedtls_open\library/ssl_ticket.c ****     {
 414:Source\mbedtls_open\library/ssl_ticket.c ****         ret = MBEDTLS_ERR_SSL_BAD_INPUT_DATA;
 415:Source\mbedtls_open\library/ssl_ticket.c ****         goto cleanup;
 416:Source\mbedtls_open\library/ssl_ticket.c ****     }
 417:Source\mbedtls_open\library/ssl_ticket.c **** 
 418:Source\mbedtls_open\library/ssl_ticket.c ****     /* Select key */
 419:Source\mbedtls_open\library/ssl_ticket.c ****     if( ( key = ssl_ticket_select_key( ctx, key_name ) ) == NULL )
 936              		.loc 1 419 0
 937 004a 2100     		movs	r1, r4
 938 004c 3800     		movs	r0, r7
 939              	.LVL146:
 940 004e FFF7FEFF 		bl	ssl_ticket_select_key
 941              	.LVL147:
 942 0052 0028     		cmp	r0, #0
 943 0054 26D0     		beq	.L68
 420:Source\mbedtls_open\library/ssl_ticket.c ****     {
 421:Source\mbedtls_open\library/ssl_ticket.c ****         /* We can't know for sure but this is a likely option unless we're
 422:Source\mbedtls_open\library/ssl_ticket.c ****          * under attack - this is only informative anyway */
 423:Source\mbedtls_open\library/ssl_ticket.c ****         ret = MBEDTLS_ERR_SSL_SESSION_TICKET_EXPIRED;
 424:Source\mbedtls_open\library/ssl_ticket.c ****         goto cleanup;
 425:Source\mbedtls_open\library/ssl_ticket.c ****     }
 426:Source\mbedtls_open\library/ssl_ticket.c **** 
 427:Source\mbedtls_open\library/ssl_ticket.c ****     /* Decrypt and authenticate */
 428:Source\mbedtls_open\library/ssl_ticket.c ****     if( ( ret = mbedtls_cipher_auth_decrypt( &key->ctx, iv, 12,
 944              		.loc 1 428 0
 945 0056 0830     		adds	r0, r0, #8
 946              	.LVL148:
 947 0058 1023     		movs	r3, #16
 948 005a 0693     		str	r3, [sp, #24]
 949 005c 5B46     		mov	r3, fp
 950 005e 0593     		str	r3, [sp, #20]
 951 0060 0BAB     		add	r3, sp, #44
 952 0062 0493     		str	r3, [sp, #16]
 953 0064 0395     		str	r5, [sp, #12]
 954 0066 0296     		str	r6, [sp, #8]
 955 0068 0195     		str	r5, [sp, #4]
 956 006a 1223     		movs	r3, #18
 957 006c 0093     		str	r3, [sp]
 958 006e 2300     		movs	r3, r4
 959 0070 0C22     		movs	r2, #12
 960 0072 5146     		mov	r1, r10
 961 0074 FFF7FEFF 		bl	mbedtls_cipher_auth_decrypt
 962              	.LVL149:
 963 0078 0028     		cmp	r0, #0
 964 007a 03D0     		beq	.L62
 429:Source\mbedtls_open\library/ssl_ticket.c ****                     key_name, 4 + 12 + 2, ticket, enc_len,
 430:Source\mbedtls_open\library/ssl_ticket.c ****                     ticket, &clear_len, tag, 16 ) ) != 0 )
 431:Source\mbedtls_open\library/ssl_ticket.c ****     {
 432:Source\mbedtls_open\library/ssl_ticket.c ****         if( ret == MBEDTLS_ERR_CIPHER_AUTH_FAILED )
 965              		.loc 1 432 0
 966 007c 0F4B     		ldr	r3, .L71
ARM GAS  C:\Users\Phuong\AppData\Local\Temp\cc6iV4S7.s 			page 36


 967 007e 9842     		cmp	r0, r3
 968 0080 12D0     		beq	.L69
 969 0082 14E0     		b	.L61
 970              	.L62:
 433:Source\mbedtls_open\library/ssl_ticket.c ****             ret = MBEDTLS_ERR_SSL_INVALID_MAC;
 434:Source\mbedtls_open\library/ssl_ticket.c **** 
 435:Source\mbedtls_open\library/ssl_ticket.c ****         goto cleanup;
 436:Source\mbedtls_open\library/ssl_ticket.c ****     }
 437:Source\mbedtls_open\library/ssl_ticket.c ****     if( clear_len != enc_len )
 971              		.loc 1 437 0
 972 0084 0B9A     		ldr	r2, [sp, #44]
 973 0086 9642     		cmp	r6, r2
 974 0088 10D1     		bne	.L70
 438:Source\mbedtls_open\library/ssl_ticket.c ****     {
 439:Source\mbedtls_open\library/ssl_ticket.c ****         ret = MBEDTLS_ERR_SSL_INTERNAL_ERROR;
 440:Source\mbedtls_open\library/ssl_ticket.c ****         goto cleanup;
 441:Source\mbedtls_open\library/ssl_ticket.c ****     }
 442:Source\mbedtls_open\library/ssl_ticket.c **** 
 443:Source\mbedtls_open\library/ssl_ticket.c ****     /* Actually load session */
 444:Source\mbedtls_open\library/ssl_ticket.c ****     if( ( ret = ssl_load_session( session, ticket, clear_len ) ) != 0 )
 975              		.loc 1 444 0
 976 008a 2900     		movs	r1, r5
 977 008c 0998     		ldr	r0, [sp, #36]
 978              	.LVL150:
 979 008e FFF7FEFF 		bl	ssl_load_session
 980              	.LVL151:
 981 0092 0CE0     		b	.L61
 982              	.LVL152:
 983              	.L63:
 395:Source\mbedtls_open\library/ssl_ticket.c **** 
 984              		.loc 1 395 0
 985 0094 0A48     		ldr	r0, .L71+4
 986              	.LVL153:
 987 0096 0AE0     		b	.L61
 988              	.LVL154:
 989              	.L64:
 990 0098 0948     		ldr	r0, .L71+4
 991              	.LVL155:
 992 009a 08E0     		b	.L61
 993              	.LVL156:
 994              	.L65:
 399:Source\mbedtls_open\library/ssl_ticket.c **** 
 995              		.loc 1 399 0
 996 009c 0848     		ldr	r0, .L71+4
 997              	.LVL157:
 998 009e 06E0     		b	.L61
 999              	.LVL158:
 1000              	.L67:
 414:Source\mbedtls_open\library/ssl_ticket.c ****         goto cleanup;
 1001              		.loc 1 414 0
 1002 00a0 0748     		ldr	r0, .L71+4
 1003              	.LVL159:
 1004 00a2 04E0     		b	.L61
 1005              	.LVL160:
 1006              	.L68:
 423:Source\mbedtls_open\library/ssl_ticket.c ****         goto cleanup;
 1007              		.loc 1 423 0
ARM GAS  C:\Users\Phuong\AppData\Local\Temp\cc6iV4S7.s 			page 37


 1008 00a4 0748     		ldr	r0, .L71+8
 1009              	.LVL161:
 1010 00a6 02E0     		b	.L61
 1011              	.LVL162:
 1012              	.L69:
 433:Source\mbedtls_open\library/ssl_ticket.c **** 
 1013              		.loc 1 433 0
 1014 00a8 0748     		ldr	r0, .L71+12
 1015              	.LVL163:
 1016 00aa 00E0     		b	.L61
 1017              	.LVL164:
 1018              	.L70:
 439:Source\mbedtls_open\library/ssl_ticket.c ****         goto cleanup;
 1019              		.loc 1 439 0
 1020 00ac 0748     		ldr	r0, .L71+16
 1021              	.LVL165:
 1022              	.L61:
 445:Source\mbedtls_open\library/ssl_ticket.c ****         goto cleanup;
 446:Source\mbedtls_open\library/ssl_ticket.c **** 
 447:Source\mbedtls_open\library/ssl_ticket.c **** #if defined(MBEDTLS_HAVE_TIME)
 448:Source\mbedtls_open\library/ssl_ticket.c ****     {
 449:Source\mbedtls_open\library/ssl_ticket.c ****         /* Check for expiration */
 450:Source\mbedtls_open\library/ssl_ticket.c ****         mbedtls_time_t current_time = mbedtls_time( NULL );
 451:Source\mbedtls_open\library/ssl_ticket.c **** 
 452:Source\mbedtls_open\library/ssl_ticket.c ****         if( current_time < session->start ||
 453:Source\mbedtls_open\library/ssl_ticket.c ****             (uint32_t)( current_time - session->start ) > ctx->ticket_lifetime )
 454:Source\mbedtls_open\library/ssl_ticket.c ****         {
 455:Source\mbedtls_open\library/ssl_ticket.c ****             ret = MBEDTLS_ERR_SSL_SESSION_TICKET_EXPIRED;
 456:Source\mbedtls_open\library/ssl_ticket.c ****             goto cleanup;
 457:Source\mbedtls_open\library/ssl_ticket.c ****         }
 458:Source\mbedtls_open\library/ssl_ticket.c ****     }
 459:Source\mbedtls_open\library/ssl_ticket.c **** #endif
 460:Source\mbedtls_open\library/ssl_ticket.c **** 
 461:Source\mbedtls_open\library/ssl_ticket.c **** cleanup:
 462:Source\mbedtls_open\library/ssl_ticket.c **** #if defined(MBEDTLS_THREADING_C)
 463:Source\mbedtls_open\library/ssl_ticket.c ****     if( mbedtls_mutex_unlock( &ctx->mutex ) != 0 )
 464:Source\mbedtls_open\library/ssl_ticket.c ****         return( MBEDTLS_ERR_THREADING_MUTEX_ERROR );
 465:Source\mbedtls_open\library/ssl_ticket.c **** #endif
 466:Source\mbedtls_open\library/ssl_ticket.c **** 
 467:Source\mbedtls_open\library/ssl_ticket.c ****     return( ret );
 468:Source\mbedtls_open\library/ssl_ticket.c **** }
 1023              		.loc 1 468 0
 1024 00ae 0CB0     		add	sp, sp, #48
 1025              		@ sp needed
 1026              	.LVL166:
 1027              	.LVL167:
 1028              	.LVL168:
 1029              	.LVL169:
 1030              	.LVL170:
 1031 00b0 1CBC     		pop	{r2, r3, r4}
 1032 00b2 9146     		mov	r9, r2
 1033 00b4 9A46     		mov	r10, r3
 1034 00b6 A346     		mov	fp, r4
 1035 00b8 F0BD     		pop	{r4, r5, r6, r7, pc}
 1036              	.L72:
 1037 00ba C046     		.align	2
 1038              	.L71:
ARM GAS  C:\Users\Phuong\AppData\Local\Temp\cc6iV4S7.s 			page 38


 1039 00bc 009DFFFF 		.word	-25344
 1040 00c0 008FFFFF 		.word	-28928
 1041 00c4 8092FFFF 		.word	-28032
 1042 00c8 808EFFFF 		.word	-29056
 1043 00cc 0094FFFF 		.word	-27648
 1044              		.cfi_endproc
 1045              	.LFE26:
 1046              		.size	mbedtls_ssl_ticket_parse, .-mbedtls_ssl_ticket_parse
 1047              		.section	.text.mbedtls_ssl_ticket_free,"ax",%progbits
 1048              		.align	2
 1049              		.global	mbedtls_ssl_ticket_free
 1050              		.code	16
 1051              		.thumb_func
 1052              		.type	mbedtls_ssl_ticket_free, %function
 1053              	mbedtls_ssl_ticket_free:
 1054              	.LFB27:
 469:Source\mbedtls_open\library/ssl_ticket.c **** 
 470:Source\mbedtls_open\library/ssl_ticket.c **** /*
 471:Source\mbedtls_open\library/ssl_ticket.c ****  * Free context
 472:Source\mbedtls_open\library/ssl_ticket.c ****  */
 473:Source\mbedtls_open\library/ssl_ticket.c **** void mbedtls_ssl_ticket_free( mbedtls_ssl_ticket_context *ctx )
 474:Source\mbedtls_open\library/ssl_ticket.c **** {
 1055              		.loc 1 474 0
 1056              		.cfi_startproc
 1057              		@ args = 0, pretend = 0, frame = 0
 1058              		@ frame_needed = 0, uses_anonymous_args = 0
 1059              	.LVL171:
 1060 0000 10B5     		push	{r4, lr}
 1061              		.cfi_def_cfa_offset 8
 1062              		.cfi_offset 4, -8
 1063              		.cfi_offset 14, -4
 1064 0002 0400     		movs	r4, r0
 475:Source\mbedtls_open\library/ssl_ticket.c ****     mbedtls_cipher_free( &ctx->keys[0].ctx );
 1065              		.loc 1 475 0
 1066 0004 0830     		adds	r0, r0, #8
 1067              	.LVL172:
 1068 0006 FFF7FEFF 		bl	mbedtls_cipher_free
 1069              	.LVL173:
 476:Source\mbedtls_open\library/ssl_ticket.c ****     mbedtls_cipher_free( &ctx->keys[1].ctx );
 1070              		.loc 1 476 0
 1071 000a 2000     		movs	r0, r4
 1072 000c 5030     		adds	r0, r0, #80
 1073 000e FFF7FEFF 		bl	mbedtls_cipher_free
 1074              	.LVL174:
 477:Source\mbedtls_open\library/ssl_ticket.c **** 
 478:Source\mbedtls_open\library/ssl_ticket.c **** #if defined(MBEDTLS_THREADING_C)
 479:Source\mbedtls_open\library/ssl_ticket.c ****     mbedtls_mutex_free( &ctx->mutex );
 480:Source\mbedtls_open\library/ssl_ticket.c **** #endif
 481:Source\mbedtls_open\library/ssl_ticket.c **** 
 482:Source\mbedtls_open\library/ssl_ticket.c ****     mbedtls_platform_zeroize( ctx, sizeof( mbedtls_ssl_ticket_context ) );
 1075              		.loc 1 482 0
 1076 0012 A021     		movs	r1, #160
 1077 0014 2000     		movs	r0, r4
 1078 0016 FFF7FEFF 		bl	mbedtls_platform_zeroize
 1079              	.LVL175:
 483:Source\mbedtls_open\library/ssl_ticket.c **** }
 1080              		.loc 1 483 0
ARM GAS  C:\Users\Phuong\AppData\Local\Temp\cc6iV4S7.s 			page 39


 1081              		@ sp needed
 1082              	.LVL176:
 1083 001a 10BD     		pop	{r4, pc}
 1084              		.cfi_endproc
 1085              	.LFE27:
 1086              		.size	mbedtls_ssl_ticket_free, .-mbedtls_ssl_ticket_free
 1087              		.text
 1088              	.Letext0:
 1089              		.file 3 "c:\\program files (x86)\\cypress\\psoc creator\\4.2\\psoc creator\\import\\gnu\\arm\\5.4.
 1090              		.file 4 "c:\\program files (x86)\\cypress\\psoc creator\\4.2\\psoc creator\\import\\gnu\\arm\\5.4.
 1091              		.file 5 "c:\\program files (x86)\\cypress\\psoc creator\\4.2\\psoc creator\\import\\gnu\\arm\\5.4.
 1092              		.file 6 ".\\Source\\mbedtls_open\\include/mbedtls/md.h"
 1093              		.file 7 ".\\Source\\mbedtls_open\\include/mbedtls/pk.h"
 1094              		.file 8 ".\\Source\\mbedtls_open\\include/mbedtls/asn1.h"
 1095              		.file 9 ".\\Source\\mbedtls_open\\include/mbedtls/x509.h"
 1096              		.file 10 ".\\Source\\mbedtls_open\\include/mbedtls/x509_crt.h"
 1097              		.file 11 ".\\Source\\mbedtls_open\\include/mbedtls/ssl.h"
 1098              		.file 12 ".\\Source\\mbedtls_open\\include/mbedtls/ssl_ticket.h"
 1099              		.file 13 ".\\Source\\mbedtls_open\\include/mbedtls/platform_util.h"
 1100              		.file 14 "c:\\program files (x86)\\cypress\\psoc creator\\4.2\\psoc creator\\import\\gnu\\arm\\5.4
 1101              		.file 15 "c:\\program files (x86)\\cypress\\psoc creator\\4.2\\psoc creator\\import\\gnu\\arm\\5.4