ARM GAS  C:\Users\Phuong\AppData\Local\Temp\ccgjgBoV.s 			page 1


   1              		.syntax unified
   2              		.cpu cortex-m0plus
   3              		.fpu softvfp
   4              		.eabi_attribute 20, 1
   5              		.eabi_attribute 21, 1
   6              		.eabi_attribute 23, 3
   7              		.eabi_attribute 24, 1
   8              		.eabi_attribute 25, 1
   9              		.eabi_attribute 26, 1
  10              		.eabi_attribute 30, 1
  11              		.eabi_attribute 34, 0
  12              		.eabi_attribute 18, 4
  13              		.thumb
  14              		.syntax unified
  15              		.file	"ssl_cache.c"
  16              		.text
  17              	.Ltext0:
  18              		.cfi_sections	.debug_frame
  19              		.section	.text.mbedtls_ssl_cache_init,"ax",%progbits
  20              		.align	2
  21              		.global	mbedtls_ssl_cache_init
  22              		.code	16
  23              		.thumb_func
  24              		.type	mbedtls_ssl_cache_init, %function
  25              	mbedtls_ssl_cache_init:
  26              	.LFB18:
  27              		.file 1 "Source\\mbedtls_open\\library\\ssl_cache.c"
   1:Source\mbedtls_open\library/ssl_cache.c **** /*
   2:Source\mbedtls_open\library/ssl_cache.c ****  *  SSL session cache implementation
   3:Source\mbedtls_open\library/ssl_cache.c ****  *
   4:Source\mbedtls_open\library/ssl_cache.c ****  *  Copyright (C) 2006-2015, ARM Limited, All Rights Reserved
   5:Source\mbedtls_open\library/ssl_cache.c ****  *  SPDX-License-Identifier: Apache-2.0
   6:Source\mbedtls_open\library/ssl_cache.c ****  *
   7:Source\mbedtls_open\library/ssl_cache.c ****  *  Licensed under the Apache License, Version 2.0 (the "License"); you may
   8:Source\mbedtls_open\library/ssl_cache.c ****  *  not use this file except in compliance with the License.
   9:Source\mbedtls_open\library/ssl_cache.c ****  *  You may obtain a copy of the License at
  10:Source\mbedtls_open\library/ssl_cache.c ****  *
  11:Source\mbedtls_open\library/ssl_cache.c ****  *  http://www.apache.org/licenses/LICENSE-2.0
  12:Source\mbedtls_open\library/ssl_cache.c ****  *
  13:Source\mbedtls_open\library/ssl_cache.c ****  *  Unless required by applicable law or agreed to in writing, software
  14:Source\mbedtls_open\library/ssl_cache.c ****  *  distributed under the License is distributed on an "AS IS" BASIS, WITHOUT
  15:Source\mbedtls_open\library/ssl_cache.c ****  *  WARRANTIES OR CONDITIONS OF ANY KIND, either express or implied.
  16:Source\mbedtls_open\library/ssl_cache.c ****  *  See the License for the specific language governing permissions and
  17:Source\mbedtls_open\library/ssl_cache.c ****  *  limitations under the License.
  18:Source\mbedtls_open\library/ssl_cache.c ****  *
  19:Source\mbedtls_open\library/ssl_cache.c ****  *  This file is part of mbed TLS (https://tls.mbed.org)
  20:Source\mbedtls_open\library/ssl_cache.c ****  */
  21:Source\mbedtls_open\library/ssl_cache.c **** /*
  22:Source\mbedtls_open\library/ssl_cache.c ****  * These session callbacks use a simple chained list
  23:Source\mbedtls_open\library/ssl_cache.c ****  * to store and retrieve the session information.
  24:Source\mbedtls_open\library/ssl_cache.c ****  */
  25:Source\mbedtls_open\library/ssl_cache.c **** 
  26:Source\mbedtls_open\library/ssl_cache.c **** #if !defined(MBEDTLS_CONFIG_FILE)
  27:Source\mbedtls_open\library/ssl_cache.c **** #include "mbedtls/config.h"
  28:Source\mbedtls_open\library/ssl_cache.c **** #else
  29:Source\mbedtls_open\library/ssl_cache.c **** #include MBEDTLS_CONFIG_FILE
  30:Source\mbedtls_open\library/ssl_cache.c **** #endif
ARM GAS  C:\Users\Phuong\AppData\Local\Temp\ccgjgBoV.s 			page 2


  31:Source\mbedtls_open\library/ssl_cache.c **** 
  32:Source\mbedtls_open\library/ssl_cache.c **** #if defined(MBEDTLS_SSL_CACHE_C)
  33:Source\mbedtls_open\library/ssl_cache.c **** 
  34:Source\mbedtls_open\library/ssl_cache.c **** #if defined(MBEDTLS_PLATFORM_C)
  35:Source\mbedtls_open\library/ssl_cache.c **** #include "mbedtls/platform.h"
  36:Source\mbedtls_open\library/ssl_cache.c **** #else
  37:Source\mbedtls_open\library/ssl_cache.c **** #include <stdlib.h>
  38:Source\mbedtls_open\library/ssl_cache.c **** #define mbedtls_calloc    calloc
  39:Source\mbedtls_open\library/ssl_cache.c **** #define mbedtls_free      free
  40:Source\mbedtls_open\library/ssl_cache.c **** #endif
  41:Source\mbedtls_open\library/ssl_cache.c **** 
  42:Source\mbedtls_open\library/ssl_cache.c **** #include "mbedtls/ssl_cache.h"
  43:Source\mbedtls_open\library/ssl_cache.c **** 
  44:Source\mbedtls_open\library/ssl_cache.c **** #include <string.h>
  45:Source\mbedtls_open\library/ssl_cache.c **** 
  46:Source\mbedtls_open\library/ssl_cache.c **** void mbedtls_ssl_cache_init( mbedtls_ssl_cache_context *cache )
  47:Source\mbedtls_open\library/ssl_cache.c **** {
  28              		.loc 1 47 0
  29              		.cfi_startproc
  30              		@ args = 0, pretend = 0, frame = 0
  31              		@ frame_needed = 0, uses_anonymous_args = 0
  32              	.LVL0:
  33 0000 10B5     		push	{r4, lr}
  34              		.cfi_def_cfa_offset 8
  35              		.cfi_offset 4, -8
  36              		.cfi_offset 14, -4
  37 0002 0400     		movs	r4, r0
  48:Source\mbedtls_open\library/ssl_cache.c ****     memset( cache, 0, sizeof( mbedtls_ssl_cache_context ) );
  38              		.loc 1 48 0
  39 0004 0C22     		movs	r2, #12
  40 0006 0021     		movs	r1, #0
  41 0008 FFF7FEFF 		bl	memset
  42              	.LVL1:
  49:Source\mbedtls_open\library/ssl_cache.c **** 
  50:Source\mbedtls_open\library/ssl_cache.c ****     cache->timeout = MBEDTLS_SSL_CACHE_DEFAULT_TIMEOUT;
  43              		.loc 1 50 0
  44 000c 024B     		ldr	r3, .L2
  45 000e 6360     		str	r3, [r4, #4]
  51:Source\mbedtls_open\library/ssl_cache.c ****     cache->max_entries = MBEDTLS_SSL_CACHE_DEFAULT_MAX_ENTRIES;
  46              		.loc 1 51 0
  47 0010 3223     		movs	r3, #50
  48 0012 A360     		str	r3, [r4, #8]
  52:Source\mbedtls_open\library/ssl_cache.c **** 
  53:Source\mbedtls_open\library/ssl_cache.c **** #if defined(MBEDTLS_THREADING_C)
  54:Source\mbedtls_open\library/ssl_cache.c ****     mbedtls_mutex_init( &cache->mutex );
  55:Source\mbedtls_open\library/ssl_cache.c **** #endif
  56:Source\mbedtls_open\library/ssl_cache.c **** }
  49              		.loc 1 56 0
  50              		@ sp needed
  51              	.LVL2:
  52 0014 10BD     		pop	{r4, pc}
  53              	.L3:
  54 0016 C046     		.align	2
  55              	.L2:
  56 0018 80510100 		.word	86400
  57              		.cfi_endproc
  58              	.LFE18:
ARM GAS  C:\Users\Phuong\AppData\Local\Temp\ccgjgBoV.s 			page 3


  59              		.size	mbedtls_ssl_cache_init, .-mbedtls_ssl_cache_init
  60              		.section	.text.mbedtls_ssl_cache_get,"ax",%progbits
  61              		.align	2
  62              		.global	mbedtls_ssl_cache_get
  63              		.code	16
  64              		.thumb_func
  65              		.type	mbedtls_ssl_cache_get, %function
  66              	mbedtls_ssl_cache_get:
  67              	.LFB19:
  57:Source\mbedtls_open\library/ssl_cache.c **** 
  58:Source\mbedtls_open\library/ssl_cache.c **** int mbedtls_ssl_cache_get( void *data, mbedtls_ssl_session *session )
  59:Source\mbedtls_open\library/ssl_cache.c **** {
  68              		.loc 1 59 0
  69              		.cfi_startproc
  70              		@ args = 0, pretend = 0, frame = 0
  71              		@ frame_needed = 0, uses_anonymous_args = 0
  72              	.LVL3:
  73 0000 70B5     		push	{r4, r5, r6, lr}
  74              		.cfi_def_cfa_offset 16
  75              		.cfi_offset 4, -16
  76              		.cfi_offset 5, -12
  77              		.cfi_offset 6, -8
  78              		.cfi_offset 14, -4
  79 0002 0E00     		movs	r6, r1
  80              	.LVL4:
  60:Source\mbedtls_open\library/ssl_cache.c ****     int ret = 1;
  61:Source\mbedtls_open\library/ssl_cache.c **** #if defined(MBEDTLS_HAVE_TIME)
  62:Source\mbedtls_open\library/ssl_cache.c ****     mbedtls_time_t t = mbedtls_time( NULL );
  63:Source\mbedtls_open\library/ssl_cache.c **** #endif
  64:Source\mbedtls_open\library/ssl_cache.c ****     mbedtls_ssl_cache_context *cache = (mbedtls_ssl_cache_context *) data;
  65:Source\mbedtls_open\library/ssl_cache.c ****     mbedtls_ssl_cache_entry *cur, *entry;
  66:Source\mbedtls_open\library/ssl_cache.c **** 
  67:Source\mbedtls_open\library/ssl_cache.c **** #if defined(MBEDTLS_THREADING_C)
  68:Source\mbedtls_open\library/ssl_cache.c ****     if( mbedtls_mutex_lock( &cache->mutex ) != 0 )
  69:Source\mbedtls_open\library/ssl_cache.c ****         return( 1 );
  70:Source\mbedtls_open\library/ssl_cache.c **** #endif
  71:Source\mbedtls_open\library/ssl_cache.c **** 
  72:Source\mbedtls_open\library/ssl_cache.c ****     cur = cache->chain;
  81              		.loc 1 72 0
  82 0004 0468     		ldr	r4, [r0]
  83              	.LVL5:
  73:Source\mbedtls_open\library/ssl_cache.c ****     entry = NULL;
  74:Source\mbedtls_open\library/ssl_cache.c **** 
  75:Source\mbedtls_open\library/ssl_cache.c ****     while( cur != NULL )
  84              		.loc 1 75 0
  85 0006 43E0     		b	.L5
  86              	.LVL6:
  87              	.L7:
  76:Source\mbedtls_open\library/ssl_cache.c ****     {
  77:Source\mbedtls_open\library/ssl_cache.c ****         entry = cur;
  78:Source\mbedtls_open\library/ssl_cache.c ****         cur = cur->next;
  88              		.loc 1 78 0
  89 0008 8823     		movs	r3, #136
  90 000a E558     		ldr	r5, [r4, r3]
  91              	.LVL7:
  79:Source\mbedtls_open\library/ssl_cache.c **** 
  80:Source\mbedtls_open\library/ssl_cache.c **** #if defined(MBEDTLS_HAVE_TIME)
ARM GAS  C:\Users\Phuong\AppData\Local\Temp\ccgjgBoV.s 			page 4


  81:Source\mbedtls_open\library/ssl_cache.c ****         if( cache->timeout != 0 &&
  82:Source\mbedtls_open\library/ssl_cache.c ****             (int) ( t - entry->timestamp ) > cache->timeout )
  83:Source\mbedtls_open\library/ssl_cache.c ****             continue;
  84:Source\mbedtls_open\library/ssl_cache.c **** #endif
  85:Source\mbedtls_open\library/ssl_cache.c **** 
  86:Source\mbedtls_open\library/ssl_cache.c ****         if( session->ciphersuite != entry->session.ciphersuite ||
  92              		.loc 1 86 0
  93 000c 3368     		ldr	r3, [r6]
  94 000e 2268     		ldr	r2, [r4]
  95 0010 9342     		cmp	r3, r2
  96 0012 36D1     		bne	.L8
  97              		.loc 1 86 0 is_stmt 0 discriminator 1
  98 0014 7368     		ldr	r3, [r6, #4]
  99 0016 6268     		ldr	r2, [r4, #4]
 100 0018 9342     		cmp	r3, r2
 101 001a 34D1     		bne	.L9
  87:Source\mbedtls_open\library/ssl_cache.c ****             session->compression != entry->session.compression ||
  88:Source\mbedtls_open\library/ssl_cache.c ****             session->id_len != entry->session.id_len )
 102              		.loc 1 88 0 is_stmt 1
 103 001c A268     		ldr	r2, [r4, #8]
  87:Source\mbedtls_open\library/ssl_cache.c ****             session->compression != entry->session.compression ||
 104              		.loc 1 87 0
 105 001e B368     		ldr	r3, [r6, #8]
 106 0020 9342     		cmp	r3, r2
 107 0022 32D1     		bne	.L10
  89:Source\mbedtls_open\library/ssl_cache.c ****             continue;
  90:Source\mbedtls_open\library/ssl_cache.c **** 
  91:Source\mbedtls_open\library/ssl_cache.c ****         if( memcmp( session->id, entry->session.id,
 108              		.loc 1 91 0
 109 0024 3000     		movs	r0, r6
 110 0026 0C30     		adds	r0, r0, #12
 111 0028 2100     		movs	r1, r4
 112 002a 0C31     		adds	r1, r1, #12
 113 002c FFF7FEFF 		bl	memcmp
 114              	.LVL8:
 115 0030 0028     		cmp	r0, #0
 116 0032 2CD1     		bne	.L11
  92:Source\mbedtls_open\library/ssl_cache.c ****                     entry->session.id_len ) != 0 )
  93:Source\mbedtls_open\library/ssl_cache.c ****             continue;
  94:Source\mbedtls_open\library/ssl_cache.c **** 
  95:Source\mbedtls_open\library/ssl_cache.c ****         memcpy( session->master, entry->session.master, 48 );
 117              		.loc 1 95 0
 118 0034 3000     		movs	r0, r6
 119 0036 2C30     		adds	r0, r0, #44
 120 0038 2100     		movs	r1, r4
 121 003a 2C31     		adds	r1, r1, #44
 122 003c 3022     		movs	r2, #48
 123 003e FFF7FEFF 		bl	memcpy
 124              	.LVL9:
  96:Source\mbedtls_open\library/ssl_cache.c **** 
  97:Source\mbedtls_open\library/ssl_cache.c ****         session->verify_result = entry->session.verify_result;
 125              		.loc 1 97 0
 126 0042 236E     		ldr	r3, [r4, #96]
 127 0044 3366     		str	r3, [r6, #96]
  98:Source\mbedtls_open\library/ssl_cache.c **** 
  99:Source\mbedtls_open\library/ssl_cache.c **** #if defined(MBEDTLS_X509_CRT_PARSE_C)
 100:Source\mbedtls_open\library/ssl_cache.c ****         /*
ARM GAS  C:\Users\Phuong\AppData\Local\Temp\ccgjgBoV.s 			page 5


 101:Source\mbedtls_open\library/ssl_cache.c ****          * Restore peer certificate (without rest of the original chain)
 102:Source\mbedtls_open\library/ssl_cache.c ****          */
 103:Source\mbedtls_open\library/ssl_cache.c ****         if( entry->peer_cert.p != NULL )
 128              		.loc 1 103 0
 129 0046 8423     		movs	r3, #132
 130 0048 E358     		ldr	r3, [r4, r3]
 131 004a 002B     		cmp	r3, #0
 132 004c 24D0     		beq	.L12
 104:Source\mbedtls_open\library/ssl_cache.c ****         {
 105:Source\mbedtls_open\library/ssl_cache.c ****             if( ( session->peer_cert = mbedtls_calloc( 1,
 133              		.loc 1 105 0
 134 004e 9A21     		movs	r1, #154
 135 0050 4900     		lsls	r1, r1, #1
 136 0052 0120     		movs	r0, #1
 137 0054 FFF7FEFF 		bl	calloc
 138              	.LVL10:
 139 0058 F065     		str	r0, [r6, #92]
 140 005a 0028     		cmp	r0, #0
 141 005c 1ED0     		beq	.L13
 106:Source\mbedtls_open\library/ssl_cache.c ****                                  sizeof(mbedtls_x509_crt) ) ) == NULL )
 107:Source\mbedtls_open\library/ssl_cache.c ****             {
 108:Source\mbedtls_open\library/ssl_cache.c ****                 ret = 1;
 109:Source\mbedtls_open\library/ssl_cache.c ****                 goto exit;
 110:Source\mbedtls_open\library/ssl_cache.c ****             }
 111:Source\mbedtls_open\library/ssl_cache.c **** 
 112:Source\mbedtls_open\library/ssl_cache.c ****             mbedtls_x509_crt_init( session->peer_cert );
 142              		.loc 1 112 0
 143 005e FFF7FEFF 		bl	mbedtls_x509_crt_init
 144              	.LVL11:
 113:Source\mbedtls_open\library/ssl_cache.c ****             if( mbedtls_x509_crt_parse( session->peer_cert, entry->peer_cert.p,
 145              		.loc 1 113 0
 146 0062 8423     		movs	r3, #132
 147 0064 E158     		ldr	r1, [r4, r3]
 148 0066 043B     		subs	r3, r3, #4
 149 0068 E258     		ldr	r2, [r4, r3]
 150 006a F06D     		ldr	r0, [r6, #92]
 151 006c FFF7FEFF 		bl	mbedtls_x509_crt_parse
 152              	.LVL12:
 153 0070 0028     		cmp	r0, #0
 154 0072 15D0     		beq	.L14
 114:Source\mbedtls_open\library/ssl_cache.c ****                                 entry->peer_cert.len ) != 0 )
 115:Source\mbedtls_open\library/ssl_cache.c ****             {
 116:Source\mbedtls_open\library/ssl_cache.c ****                 mbedtls_free( session->peer_cert );
 155              		.loc 1 116 0
 156 0074 F06D     		ldr	r0, [r6, #92]
 157 0076 FFF7FEFF 		bl	free
 158              	.LVL13:
 117:Source\mbedtls_open\library/ssl_cache.c ****                 session->peer_cert = NULL;
 159              		.loc 1 117 0
 160 007a 0023     		movs	r3, #0
 161 007c F365     		str	r3, [r6, #92]
 118:Source\mbedtls_open\library/ssl_cache.c ****                 ret = 1;
 162              		.loc 1 118 0
 163 007e 0120     		movs	r0, #1
 119:Source\mbedtls_open\library/ssl_cache.c ****                 goto exit;
 164              		.loc 1 119 0
 165 0080 0FE0     		b	.L6
ARM GAS  C:\Users\Phuong\AppData\Local\Temp\ccgjgBoV.s 			page 6


 166              	.L8:
 167 0082 2C00     		movs	r4, r5
 168              	.LVL14:
 169 0084 04E0     		b	.L5
 170              	.LVL15:
 171              	.L9:
 172 0086 2C00     		movs	r4, r5
 173              	.LVL16:
 174 0088 02E0     		b	.L5
 175              	.LVL17:
 176              	.L10:
 177 008a 2C00     		movs	r4, r5
 178              	.LVL18:
 179 008c 00E0     		b	.L5
 180              	.LVL19:
 181              	.L11:
 182 008e 2C00     		movs	r4, r5
 183              	.LVL20:
 184              	.L5:
  75:Source\mbedtls_open\library/ssl_cache.c ****     {
 185              		.loc 1 75 0
 186 0090 002C     		cmp	r4, #0
 187 0092 B9D1     		bne	.L7
  60:Source\mbedtls_open\library/ssl_cache.c **** #if defined(MBEDTLS_HAVE_TIME)
 188              		.loc 1 60 0
 189 0094 0120     		movs	r0, #1
 190 0096 04E0     		b	.L6
 191              	.LVL21:
 192              	.L12:
 120:Source\mbedtls_open\library/ssl_cache.c ****             }
 121:Source\mbedtls_open\library/ssl_cache.c ****         }
 122:Source\mbedtls_open\library/ssl_cache.c **** #endif /* MBEDTLS_X509_CRT_PARSE_C */
 123:Source\mbedtls_open\library/ssl_cache.c **** 
 124:Source\mbedtls_open\library/ssl_cache.c ****         ret = 0;
 193              		.loc 1 124 0
 194 0098 0020     		movs	r0, #0
 195 009a 02E0     		b	.L6
 196              	.L13:
 108:Source\mbedtls_open\library/ssl_cache.c ****                 goto exit;
 197              		.loc 1 108 0
 198 009c 0120     		movs	r0, #1
 199 009e 00E0     		b	.L6
 200              	.L14:
 201              		.loc 1 124 0
 202 00a0 0020     		movs	r0, #0
 203              	.LVL22:
 204              	.L6:
 125:Source\mbedtls_open\library/ssl_cache.c ****         goto exit;
 126:Source\mbedtls_open\library/ssl_cache.c ****     }
 127:Source\mbedtls_open\library/ssl_cache.c **** 
 128:Source\mbedtls_open\library/ssl_cache.c **** exit:
 129:Source\mbedtls_open\library/ssl_cache.c **** #if defined(MBEDTLS_THREADING_C)
 130:Source\mbedtls_open\library/ssl_cache.c ****     if( mbedtls_mutex_unlock( &cache->mutex ) != 0 )
 131:Source\mbedtls_open\library/ssl_cache.c ****         ret = 1;
 132:Source\mbedtls_open\library/ssl_cache.c **** #endif
 133:Source\mbedtls_open\library/ssl_cache.c **** 
 134:Source\mbedtls_open\library/ssl_cache.c ****     return( ret );
ARM GAS  C:\Users\Phuong\AppData\Local\Temp\ccgjgBoV.s 			page 7


 135:Source\mbedtls_open\library/ssl_cache.c **** }
 205              		.loc 1 135 0
 206              		@ sp needed
 207              	.LVL23:
 208 00a2 70BD     		pop	{r4, r5, r6, pc}
 209              		.cfi_endproc
 210              	.LFE19:
 211              		.size	mbedtls_ssl_cache_get, .-mbedtls_ssl_cache_get
 212              		.section	.text.mbedtls_ssl_cache_set,"ax",%progbits
 213              		.align	2
 214              		.global	mbedtls_ssl_cache_set
 215              		.code	16
 216              		.thumb_func
 217              		.type	mbedtls_ssl_cache_set, %function
 218              	mbedtls_ssl_cache_set:
 219              	.LFB20:
 136:Source\mbedtls_open\library/ssl_cache.c **** 
 137:Source\mbedtls_open\library/ssl_cache.c **** int mbedtls_ssl_cache_set( void *data, const mbedtls_ssl_session *session )
 138:Source\mbedtls_open\library/ssl_cache.c **** {
 220              		.loc 1 138 0
 221              		.cfi_startproc
 222              		@ args = 0, pretend = 0, frame = 0
 223              		@ frame_needed = 0, uses_anonymous_args = 0
 224              	.LVL24:
 225 0000 F8B5     		push	{r3, r4, r5, r6, r7, lr}
 226              		.cfi_def_cfa_offset 24
 227              		.cfi_offset 3, -24
 228              		.cfi_offset 4, -20
 229              		.cfi_offset 5, -16
 230              		.cfi_offset 6, -12
 231              		.cfi_offset 7, -8
 232              		.cfi_offset 14, -4
 233 0002 4F46     		mov	r7, r9
 234 0004 4646     		mov	r6, r8
 235 0006 C0B4     		push	{r6, r7}
 236              		.cfi_def_cfa_offset 32
 237              		.cfi_offset 8, -32
 238              		.cfi_offset 9, -28
 239 0008 8146     		mov	r9, r0
 240 000a 0F00     		movs	r7, r1
 241              	.LVL25:
 139:Source\mbedtls_open\library/ssl_cache.c ****     int ret = 1;
 140:Source\mbedtls_open\library/ssl_cache.c **** #if defined(MBEDTLS_HAVE_TIME)
 141:Source\mbedtls_open\library/ssl_cache.c ****     mbedtls_time_t t = mbedtls_time( NULL ), oldest = 0;
 142:Source\mbedtls_open\library/ssl_cache.c ****     mbedtls_ssl_cache_entry *old = NULL;
 143:Source\mbedtls_open\library/ssl_cache.c **** #endif
 144:Source\mbedtls_open\library/ssl_cache.c ****     mbedtls_ssl_cache_context *cache = (mbedtls_ssl_cache_context *) data;
 145:Source\mbedtls_open\library/ssl_cache.c ****     mbedtls_ssl_cache_entry *cur, *prv;
 146:Source\mbedtls_open\library/ssl_cache.c ****     int count = 0;
 147:Source\mbedtls_open\library/ssl_cache.c **** 
 148:Source\mbedtls_open\library/ssl_cache.c **** #if defined(MBEDTLS_THREADING_C)
 149:Source\mbedtls_open\library/ssl_cache.c ****     if( ( ret = mbedtls_mutex_lock( &cache->mutex ) ) != 0 )
 150:Source\mbedtls_open\library/ssl_cache.c ****         return( ret );
 151:Source\mbedtls_open\library/ssl_cache.c **** #endif
 152:Source\mbedtls_open\library/ssl_cache.c **** 
 153:Source\mbedtls_open\library/ssl_cache.c ****     cur = cache->chain;
 242              		.loc 1 153 0
ARM GAS  C:\Users\Phuong\AppData\Local\Temp\ccgjgBoV.s 			page 8


 243 000c 0368     		ldr	r3, [r0]
 244 000e 9846     		mov	r8, r3
 245              	.LVL26:
 246 0010 1C00     		movs	r4, r3
 146:Source\mbedtls_open\library/ssl_cache.c **** 
 247              		.loc 1 146 0
 248 0012 0026     		movs	r6, #0
 154:Source\mbedtls_open\library/ssl_cache.c ****     prv = NULL;
 249              		.loc 1 154 0
 250 0014 0025     		movs	r5, #0
 155:Source\mbedtls_open\library/ssl_cache.c **** 
 156:Source\mbedtls_open\library/ssl_cache.c ****     while( cur != NULL )
 251              		.loc 1 156 0
 252 0016 0CE0     		b	.L16
 253              	.LVL27:
 254              	.L18:
 157:Source\mbedtls_open\library/ssl_cache.c ****     {
 158:Source\mbedtls_open\library/ssl_cache.c ****         count++;
 255              		.loc 1 158 0
 256 0018 0136     		adds	r6, r6, #1
 257              	.LVL28:
 159:Source\mbedtls_open\library/ssl_cache.c **** 
 160:Source\mbedtls_open\library/ssl_cache.c **** #if defined(MBEDTLS_HAVE_TIME)
 161:Source\mbedtls_open\library/ssl_cache.c ****         if( cache->timeout != 0 &&
 162:Source\mbedtls_open\library/ssl_cache.c ****             (int) ( t - cur->timestamp ) > cache->timeout )
 163:Source\mbedtls_open\library/ssl_cache.c ****         {
 164:Source\mbedtls_open\library/ssl_cache.c ****             cur->timestamp = t;
 165:Source\mbedtls_open\library/ssl_cache.c ****             break; /* expired, reuse this slot, update timestamp */
 166:Source\mbedtls_open\library/ssl_cache.c ****         }
 167:Source\mbedtls_open\library/ssl_cache.c **** #endif
 168:Source\mbedtls_open\library/ssl_cache.c **** 
 169:Source\mbedtls_open\library/ssl_cache.c ****         if( memcmp( session->id, cur->session.id, cur->session.id_len ) == 0 )
 258              		.loc 1 169 0
 259 001a 3800     		movs	r0, r7
 260 001c 0C30     		adds	r0, r0, #12
 261 001e 2100     		movs	r1, r4
 262 0020 0C31     		adds	r1, r1, #12
 263 0022 A268     		ldr	r2, [r4, #8]
 264 0024 FFF7FEFF 		bl	memcmp
 265              	.LVL29:
 266 0028 0028     		cmp	r0, #0
 267 002a 04D0     		beq	.L17
 268              	.LVL30:
 170:Source\mbedtls_open\library/ssl_cache.c ****             break; /* client reconnected, keep timestamp for session id */
 171:Source\mbedtls_open\library/ssl_cache.c **** 
 172:Source\mbedtls_open\library/ssl_cache.c **** #if defined(MBEDTLS_HAVE_TIME)
 173:Source\mbedtls_open\library/ssl_cache.c ****         if( oldest == 0 || cur->timestamp < oldest )
 174:Source\mbedtls_open\library/ssl_cache.c ****         {
 175:Source\mbedtls_open\library/ssl_cache.c ****             oldest = cur->timestamp;
 176:Source\mbedtls_open\library/ssl_cache.c ****             old = cur;
 177:Source\mbedtls_open\library/ssl_cache.c ****         }
 178:Source\mbedtls_open\library/ssl_cache.c **** #endif
 179:Source\mbedtls_open\library/ssl_cache.c **** 
 180:Source\mbedtls_open\library/ssl_cache.c ****         prv = cur;
 269              		.loc 1 180 0
 270 002c 2500     		movs	r5, r4
 181:Source\mbedtls_open\library/ssl_cache.c ****         cur = cur->next;
ARM GAS  C:\Users\Phuong\AppData\Local\Temp\ccgjgBoV.s 			page 9


 271              		.loc 1 181 0
 272 002e 8823     		movs	r3, #136
 273 0030 E458     		ldr	r4, [r4, r3]
 274              	.LVL31:
 275              	.L16:
 156:Source\mbedtls_open\library/ssl_cache.c ****     {
 276              		.loc 1 156 0
 277 0032 002C     		cmp	r4, #0
 278 0034 F0D1     		bne	.L18
 279              	.L17:
 182:Source\mbedtls_open\library/ssl_cache.c ****     }
 183:Source\mbedtls_open\library/ssl_cache.c **** 
 184:Source\mbedtls_open\library/ssl_cache.c ****     if( cur == NULL )
 280              		.loc 1 184 0
 281 0036 002C     		cmp	r4, #0
 282 0038 1ED1     		bne	.L19
 185:Source\mbedtls_open\library/ssl_cache.c ****     {
 186:Source\mbedtls_open\library/ssl_cache.c **** #if defined(MBEDTLS_HAVE_TIME)
 187:Source\mbedtls_open\library/ssl_cache.c ****         /*
 188:Source\mbedtls_open\library/ssl_cache.c ****          * Reuse oldest entry if max_entries reached
 189:Source\mbedtls_open\library/ssl_cache.c ****          */
 190:Source\mbedtls_open\library/ssl_cache.c ****         if( count >= cache->max_entries )
 191:Source\mbedtls_open\library/ssl_cache.c ****         {
 192:Source\mbedtls_open\library/ssl_cache.c ****             if( old == NULL )
 193:Source\mbedtls_open\library/ssl_cache.c ****             {
 194:Source\mbedtls_open\library/ssl_cache.c ****                 ret = 1;
 195:Source\mbedtls_open\library/ssl_cache.c ****                 goto exit;
 196:Source\mbedtls_open\library/ssl_cache.c ****             }
 197:Source\mbedtls_open\library/ssl_cache.c **** 
 198:Source\mbedtls_open\library/ssl_cache.c ****             cur = old;
 199:Source\mbedtls_open\library/ssl_cache.c ****         }
 200:Source\mbedtls_open\library/ssl_cache.c **** #else /* MBEDTLS_HAVE_TIME */
 201:Source\mbedtls_open\library/ssl_cache.c ****         /*
 202:Source\mbedtls_open\library/ssl_cache.c ****          * Reuse first entry in chain if max_entries reached,
 203:Source\mbedtls_open\library/ssl_cache.c ****          * but move to last place
 204:Source\mbedtls_open\library/ssl_cache.c ****          */
 205:Source\mbedtls_open\library/ssl_cache.c ****         if( count >= cache->max_entries )
 283              		.loc 1 205 0
 284 003a 4B46     		mov	r3, r9
 285 003c 9B68     		ldr	r3, [r3, #8]
 286 003e 9E42     		cmp	r6, r3
 287 0040 0DDB     		blt	.L20
 206:Source\mbedtls_open\library/ssl_cache.c ****         {
 207:Source\mbedtls_open\library/ssl_cache.c ****             if( cache->chain == NULL )
 288              		.loc 1 207 0
 289 0042 4346     		mov	r3, r8
 290 0044 002B     		cmp	r3, #0
 291 0046 40D0     		beq	.L24
 292              	.LVL32:
 208:Source\mbedtls_open\library/ssl_cache.c ****             {
 209:Source\mbedtls_open\library/ssl_cache.c ****                 ret = 1;
 210:Source\mbedtls_open\library/ssl_cache.c ****                 goto exit;
 211:Source\mbedtls_open\library/ssl_cache.c ****             }
 212:Source\mbedtls_open\library/ssl_cache.c **** 
 213:Source\mbedtls_open\library/ssl_cache.c ****             cur = cache->chain;
 214:Source\mbedtls_open\library/ssl_cache.c ****             cache->chain = cur->next;
 293              		.loc 1 214 0
ARM GAS  C:\Users\Phuong\AppData\Local\Temp\ccgjgBoV.s 			page 10


 294 0048 8823     		movs	r3, #136
 295              	.LVL33:
 296 004a 4A46     		mov	r2, r9
 297 004c 4146     		mov	r1, r8
 298 004e C958     		ldr	r1, [r1, r3]
 299 0050 1160     		str	r1, [r2]
 215:Source\mbedtls_open\library/ssl_cache.c ****             cur->next = NULL;
 300              		.loc 1 215 0
 301 0052 0022     		movs	r2, #0
 302 0054 4146     		mov	r1, r8
 303 0056 CA50     		str	r2, [r1, r3]
 216:Source\mbedtls_open\library/ssl_cache.c ****             prv->next = cur;
 304              		.loc 1 216 0
 305 0058 E950     		str	r1, [r5, r3]
 213:Source\mbedtls_open\library/ssl_cache.c ****             cache->chain = cur->next;
 306              		.loc 1 213 0
 307 005a 4446     		mov	r4, r8
 308 005c 0CE0     		b	.L19
 309              	.LVL34:
 310              	.L20:
 217:Source\mbedtls_open\library/ssl_cache.c ****         }
 218:Source\mbedtls_open\library/ssl_cache.c **** #endif /* MBEDTLS_HAVE_TIME */
 219:Source\mbedtls_open\library/ssl_cache.c ****         else
 220:Source\mbedtls_open\library/ssl_cache.c ****         {
 221:Source\mbedtls_open\library/ssl_cache.c ****             /*
 222:Source\mbedtls_open\library/ssl_cache.c ****              * max_entries not reached, create new entry
 223:Source\mbedtls_open\library/ssl_cache.c ****              */
 224:Source\mbedtls_open\library/ssl_cache.c ****             cur = mbedtls_calloc( 1, sizeof(mbedtls_ssl_cache_entry) );
 311              		.loc 1 224 0
 312 005e 8C21     		movs	r1, #140
 313 0060 0120     		movs	r0, #1
 314 0062 FFF7FEFF 		bl	calloc
 315              	.LVL35:
 316 0066 041E     		subs	r4, r0, #0
 317              	.LVL36:
 225:Source\mbedtls_open\library/ssl_cache.c ****             if( cur == NULL )
 318              		.loc 1 225 0
 319 0068 31D0     		beq	.L25
 226:Source\mbedtls_open\library/ssl_cache.c ****             {
 227:Source\mbedtls_open\library/ssl_cache.c ****                 ret = 1;
 228:Source\mbedtls_open\library/ssl_cache.c ****                 goto exit;
 229:Source\mbedtls_open\library/ssl_cache.c ****             }
 230:Source\mbedtls_open\library/ssl_cache.c **** 
 231:Source\mbedtls_open\library/ssl_cache.c ****             if( prv == NULL )
 320              		.loc 1 231 0
 321 006a 002D     		cmp	r5, #0
 322 006c 02D1     		bne	.L22
 232:Source\mbedtls_open\library/ssl_cache.c ****                 cache->chain = cur;
 323              		.loc 1 232 0
 324 006e 4B46     		mov	r3, r9
 325 0070 1860     		str	r0, [r3]
 326 0072 01E0     		b	.L19
 327              	.L22:
 233:Source\mbedtls_open\library/ssl_cache.c ****             else
 234:Source\mbedtls_open\library/ssl_cache.c ****                 prv->next = cur;
 328              		.loc 1 234 0
 329 0074 8823     		movs	r3, #136
ARM GAS  C:\Users\Phuong\AppData\Local\Temp\ccgjgBoV.s 			page 11


 330 0076 E850     		str	r0, [r5, r3]
 331              	.LVL37:
 332              	.L19:
 235:Source\mbedtls_open\library/ssl_cache.c ****         }
 236:Source\mbedtls_open\library/ssl_cache.c **** 
 237:Source\mbedtls_open\library/ssl_cache.c **** #if defined(MBEDTLS_HAVE_TIME)
 238:Source\mbedtls_open\library/ssl_cache.c ****         cur->timestamp = t;
 239:Source\mbedtls_open\library/ssl_cache.c **** #endif
 240:Source\mbedtls_open\library/ssl_cache.c ****     }
 241:Source\mbedtls_open\library/ssl_cache.c **** 
 242:Source\mbedtls_open\library/ssl_cache.c ****     memcpy( &cur->session, session, sizeof( mbedtls_ssl_session ) );
 333              		.loc 1 242 0
 334 0078 7C22     		movs	r2, #124
 335 007a 3900     		movs	r1, r7
 336 007c 2000     		movs	r0, r4
 337 007e FFF7FEFF 		bl	memcpy
 338              	.LVL38:
 243:Source\mbedtls_open\library/ssl_cache.c **** 
 244:Source\mbedtls_open\library/ssl_cache.c **** #if defined(MBEDTLS_X509_CRT_PARSE_C)
 245:Source\mbedtls_open\library/ssl_cache.c ****     /*
 246:Source\mbedtls_open\library/ssl_cache.c ****      * If we're reusing an entry, free its certificate first
 247:Source\mbedtls_open\library/ssl_cache.c ****      */
 248:Source\mbedtls_open\library/ssl_cache.c ****     if( cur->peer_cert.p != NULL )
 339              		.loc 1 248 0
 340 0082 8423     		movs	r3, #132
 341 0084 E058     		ldr	r0, [r4, r3]
 342 0086 0028     		cmp	r0, #0
 343 0088 07D0     		beq	.L23
 249:Source\mbedtls_open\library/ssl_cache.c ****     {
 250:Source\mbedtls_open\library/ssl_cache.c ****         mbedtls_free( cur->peer_cert.p );
 344              		.loc 1 250 0
 345 008a FFF7FEFF 		bl	free
 346              	.LVL39:
 251:Source\mbedtls_open\library/ssl_cache.c ****         memset( &cur->peer_cert, 0, sizeof(mbedtls_x509_buf) );
 347              		.loc 1 251 0
 348 008e 2000     		movs	r0, r4
 349 0090 7C30     		adds	r0, r0, #124
 350 0092 0C22     		movs	r2, #12
 351 0094 0021     		movs	r1, #0
 352 0096 FFF7FEFF 		bl	memset
 353              	.LVL40:
 354              	.L23:
 252:Source\mbedtls_open\library/ssl_cache.c ****     }
 253:Source\mbedtls_open\library/ssl_cache.c **** 
 254:Source\mbedtls_open\library/ssl_cache.c ****     /*
 255:Source\mbedtls_open\library/ssl_cache.c ****      * Store peer certificate
 256:Source\mbedtls_open\library/ssl_cache.c ****      */
 257:Source\mbedtls_open\library/ssl_cache.c ****     if( session->peer_cert != NULL )
 355              		.loc 1 257 0
 356 009a FB6D     		ldr	r3, [r7, #92]
 357 009c 002B     		cmp	r3, #0
 358 009e 18D0     		beq	.L26
 258:Source\mbedtls_open\library/ssl_cache.c ****     {
 259:Source\mbedtls_open\library/ssl_cache.c ****         cur->peer_cert.p = mbedtls_calloc( 1, session->peer_cert->raw.len );
 359              		.loc 1 259 0
 360 00a0 5968     		ldr	r1, [r3, #4]
 361 00a2 0120     		movs	r0, #1
ARM GAS  C:\Users\Phuong\AppData\Local\Temp\ccgjgBoV.s 			page 12


 362 00a4 FFF7FEFF 		bl	calloc
 363              	.LVL41:
 364 00a8 8423     		movs	r3, #132
 365 00aa E050     		str	r0, [r4, r3]
 260:Source\mbedtls_open\library/ssl_cache.c ****         if( cur->peer_cert.p == NULL )
 366              		.loc 1 260 0
 367 00ac 0028     		cmp	r0, #0
 368 00ae 12D0     		beq	.L27
 261:Source\mbedtls_open\library/ssl_cache.c ****         {
 262:Source\mbedtls_open\library/ssl_cache.c ****             ret = 1;
 263:Source\mbedtls_open\library/ssl_cache.c ****             goto exit;
 264:Source\mbedtls_open\library/ssl_cache.c ****         }
 265:Source\mbedtls_open\library/ssl_cache.c **** 
 266:Source\mbedtls_open\library/ssl_cache.c ****         memcpy( cur->peer_cert.p, session->peer_cert->raw.p,
 369              		.loc 1 266 0
 370 00b0 FB6D     		ldr	r3, [r7, #92]
 371 00b2 9968     		ldr	r1, [r3, #8]
 372 00b4 5A68     		ldr	r2, [r3, #4]
 373 00b6 FFF7FEFF 		bl	memcpy
 374              	.LVL42:
 267:Source\mbedtls_open\library/ssl_cache.c ****                 session->peer_cert->raw.len );
 268:Source\mbedtls_open\library/ssl_cache.c ****         cur->peer_cert.len = session->peer_cert->raw.len;
 375              		.loc 1 268 0
 376 00ba FB6D     		ldr	r3, [r7, #92]
 377 00bc 5A68     		ldr	r2, [r3, #4]
 378 00be 8023     		movs	r3, #128
 379 00c0 E250     		str	r2, [r4, r3]
 269:Source\mbedtls_open\library/ssl_cache.c **** 
 270:Source\mbedtls_open\library/ssl_cache.c ****         cur->session.peer_cert = NULL;
 380              		.loc 1 270 0
 381 00c2 0023     		movs	r3, #0
 382 00c4 E365     		str	r3, [r4, #92]
 271:Source\mbedtls_open\library/ssl_cache.c ****     }
 272:Source\mbedtls_open\library/ssl_cache.c **** #endif /* MBEDTLS_X509_CRT_PARSE_C */
 273:Source\mbedtls_open\library/ssl_cache.c **** 
 274:Source\mbedtls_open\library/ssl_cache.c ****     ret = 0;
 383              		.loc 1 274 0
 384 00c6 0020     		movs	r0, #0
 385 00c8 06E0     		b	.L21
 386              	.L24:
 209:Source\mbedtls_open\library/ssl_cache.c ****                 goto exit;
 387              		.loc 1 209 0
 388 00ca 0120     		movs	r0, #1
 389 00cc 04E0     		b	.L21
 390              	.LVL43:
 391              	.L25:
 227:Source\mbedtls_open\library/ssl_cache.c ****                 goto exit;
 392              		.loc 1 227 0
 393 00ce 0120     		movs	r0, #1
 394              	.LVL44:
 395 00d0 02E0     		b	.L21
 396              	.L26:
 397              		.loc 1 274 0
 398 00d2 0020     		movs	r0, #0
 399 00d4 00E0     		b	.L21
 400              	.L27:
 262:Source\mbedtls_open\library/ssl_cache.c ****             goto exit;
ARM GAS  C:\Users\Phuong\AppData\Local\Temp\ccgjgBoV.s 			page 13


 401              		.loc 1 262 0
 402 00d6 0120     		movs	r0, #1
 403              	.L21:
 404              	.LVL45:
 275:Source\mbedtls_open\library/ssl_cache.c **** 
 276:Source\mbedtls_open\library/ssl_cache.c **** exit:
 277:Source\mbedtls_open\library/ssl_cache.c **** #if defined(MBEDTLS_THREADING_C)
 278:Source\mbedtls_open\library/ssl_cache.c ****     if( mbedtls_mutex_unlock( &cache->mutex ) != 0 )
 279:Source\mbedtls_open\library/ssl_cache.c ****         ret = 1;
 280:Source\mbedtls_open\library/ssl_cache.c **** #endif
 281:Source\mbedtls_open\library/ssl_cache.c **** 
 282:Source\mbedtls_open\library/ssl_cache.c ****     return( ret );
 283:Source\mbedtls_open\library/ssl_cache.c **** }
 405              		.loc 1 283 0
 406              		@ sp needed
 407              	.LVL46:
 408              	.LVL47:
 409              	.LVL48:
 410              	.LVL49:
 411              	.LVL50:
 412 00d8 0CBC     		pop	{r2, r3}
 413 00da 9046     		mov	r8, r2
 414 00dc 9946     		mov	r9, r3
 415 00de F8BD     		pop	{r3, r4, r5, r6, r7, pc}
 416              		.cfi_endproc
 417              	.LFE20:
 418              		.size	mbedtls_ssl_cache_set, .-mbedtls_ssl_cache_set
 419              		.section	.text.mbedtls_ssl_cache_set_max_entries,"ax",%progbits
 420              		.align	2
 421              		.global	mbedtls_ssl_cache_set_max_entries
 422              		.code	16
 423              		.thumb_func
 424              		.type	mbedtls_ssl_cache_set_max_entries, %function
 425              	mbedtls_ssl_cache_set_max_entries:
 426              	.LFB21:
 284:Source\mbedtls_open\library/ssl_cache.c **** 
 285:Source\mbedtls_open\library/ssl_cache.c **** #if defined(MBEDTLS_HAVE_TIME)
 286:Source\mbedtls_open\library/ssl_cache.c **** void mbedtls_ssl_cache_set_timeout( mbedtls_ssl_cache_context *cache, int timeout )
 287:Source\mbedtls_open\library/ssl_cache.c **** {
 288:Source\mbedtls_open\library/ssl_cache.c ****     if( timeout < 0 ) timeout = 0;
 289:Source\mbedtls_open\library/ssl_cache.c **** 
 290:Source\mbedtls_open\library/ssl_cache.c ****     cache->timeout = timeout;
 291:Source\mbedtls_open\library/ssl_cache.c **** }
 292:Source\mbedtls_open\library/ssl_cache.c **** #endif /* MBEDTLS_HAVE_TIME */
 293:Source\mbedtls_open\library/ssl_cache.c **** 
 294:Source\mbedtls_open\library/ssl_cache.c **** void mbedtls_ssl_cache_set_max_entries( mbedtls_ssl_cache_context *cache, int max )
 295:Source\mbedtls_open\library/ssl_cache.c **** {
 427              		.loc 1 295 0
 428              		.cfi_startproc
 429              		@ args = 0, pretend = 0, frame = 0
 430              		@ frame_needed = 0, uses_anonymous_args = 0
 431              		@ link register save eliminated.
 432              	.LVL51:
 296:Source\mbedtls_open\library/ssl_cache.c ****     if( max < 0 ) max = 0;
 433              		.loc 1 296 0
 434 0000 0029     		cmp	r1, #0
 435 0002 00DA     		bge	.L29
ARM GAS  C:\Users\Phuong\AppData\Local\Temp\ccgjgBoV.s 			page 14


 436 0004 0021     		movs	r1, #0
 437              	.LVL52:
 438              	.L29:
 297:Source\mbedtls_open\library/ssl_cache.c **** 
 298:Source\mbedtls_open\library/ssl_cache.c ****     cache->max_entries = max;
 439              		.loc 1 298 0
 440 0006 8160     		str	r1, [r0, #8]
 299:Source\mbedtls_open\library/ssl_cache.c **** }
 441              		.loc 1 299 0
 442              		@ sp needed
 443 0008 7047     		bx	lr
 444              		.cfi_endproc
 445              	.LFE21:
 446              		.size	mbedtls_ssl_cache_set_max_entries, .-mbedtls_ssl_cache_set_max_entries
 447 000a C046     		.section	.text.mbedtls_ssl_cache_free,"ax",%progbits
 448              		.align	2
 449              		.global	mbedtls_ssl_cache_free
 450              		.code	16
 451              		.thumb_func
 452              		.type	mbedtls_ssl_cache_free, %function
 453              	mbedtls_ssl_cache_free:
 454              	.LFB22:
 300:Source\mbedtls_open\library/ssl_cache.c **** 
 301:Source\mbedtls_open\library/ssl_cache.c **** void mbedtls_ssl_cache_free( mbedtls_ssl_cache_context *cache )
 302:Source\mbedtls_open\library/ssl_cache.c **** {
 455              		.loc 1 302 0
 456              		.cfi_startproc
 457              		@ args = 0, pretend = 0, frame = 0
 458              		@ frame_needed = 0, uses_anonymous_args = 0
 459              	.LVL53:
 460 0000 70B5     		push	{r4, r5, r6, lr}
 461              		.cfi_def_cfa_offset 16
 462              		.cfi_offset 4, -16
 463              		.cfi_offset 5, -12
 464              		.cfi_offset 6, -8
 465              		.cfi_offset 14, -4
 466 0002 0600     		movs	r6, r0
 303:Source\mbedtls_open\library/ssl_cache.c ****     mbedtls_ssl_cache_entry *cur, *prv;
 304:Source\mbedtls_open\library/ssl_cache.c **** 
 305:Source\mbedtls_open\library/ssl_cache.c ****     cur = cache->chain;
 467              		.loc 1 305 0
 468 0004 0468     		ldr	r4, [r0]
 469              	.LVL54:
 306:Source\mbedtls_open\library/ssl_cache.c **** 
 307:Source\mbedtls_open\library/ssl_cache.c ****     while( cur != NULL )
 470              		.loc 1 307 0
 471 0006 0CE0     		b	.L32
 472              	.LVL55:
 473              	.L33:
 308:Source\mbedtls_open\library/ssl_cache.c ****     {
 309:Source\mbedtls_open\library/ssl_cache.c ****         prv = cur;
 310:Source\mbedtls_open\library/ssl_cache.c ****         cur = cur->next;
 474              		.loc 1 310 0
 475 0008 8823     		movs	r3, #136
 476 000a E558     		ldr	r5, [r4, r3]
 477              	.LVL56:
 311:Source\mbedtls_open\library/ssl_cache.c **** 
ARM GAS  C:\Users\Phuong\AppData\Local\Temp\ccgjgBoV.s 			page 15


 312:Source\mbedtls_open\library/ssl_cache.c ****         mbedtls_ssl_session_free( &prv->session );
 478              		.loc 1 312 0
 479 000c 2000     		movs	r0, r4
 480 000e FFF7FEFF 		bl	mbedtls_ssl_session_free
 481              	.LVL57:
 313:Source\mbedtls_open\library/ssl_cache.c **** 
 314:Source\mbedtls_open\library/ssl_cache.c **** #if defined(MBEDTLS_X509_CRT_PARSE_C)
 315:Source\mbedtls_open\library/ssl_cache.c ****         mbedtls_free( prv->peer_cert.p );
 482              		.loc 1 315 0
 483 0012 8423     		movs	r3, #132
 484 0014 E058     		ldr	r0, [r4, r3]
 485 0016 FFF7FEFF 		bl	free
 486              	.LVL58:
 316:Source\mbedtls_open\library/ssl_cache.c **** #endif /* MBEDTLS_X509_CRT_PARSE_C */
 317:Source\mbedtls_open\library/ssl_cache.c **** 
 318:Source\mbedtls_open\library/ssl_cache.c ****         mbedtls_free( prv );
 487              		.loc 1 318 0
 488 001a 2000     		movs	r0, r4
 489 001c FFF7FEFF 		bl	free
 490              	.LVL59:
 310:Source\mbedtls_open\library/ssl_cache.c **** 
 491              		.loc 1 310 0
 492 0020 2C00     		movs	r4, r5
 493              	.LVL60:
 494              	.L32:
 307:Source\mbedtls_open\library/ssl_cache.c ****     {
 495              		.loc 1 307 0
 496 0022 002C     		cmp	r4, #0
 497 0024 F0D1     		bne	.L33
 319:Source\mbedtls_open\library/ssl_cache.c ****     }
 320:Source\mbedtls_open\library/ssl_cache.c **** 
 321:Source\mbedtls_open\library/ssl_cache.c **** #if defined(MBEDTLS_THREADING_C)
 322:Source\mbedtls_open\library/ssl_cache.c ****     mbedtls_mutex_free( &cache->mutex );
 323:Source\mbedtls_open\library/ssl_cache.c **** #endif
 324:Source\mbedtls_open\library/ssl_cache.c ****     cache->chain = NULL;
 498              		.loc 1 324 0
 499 0026 0023     		movs	r3, #0
 500 0028 3360     		str	r3, [r6]
 325:Source\mbedtls_open\library/ssl_cache.c **** }
 501              		.loc 1 325 0
 502              		@ sp needed
 503              	.LVL61:
 504              	.LVL62:
 505 002a 70BD     		pop	{r4, r5, r6, pc}
 506              		.cfi_endproc
 507              	.LFE22:
 508              		.size	mbedtls_ssl_cache_free, .-mbedtls_ssl_cache_free
 509              		.text
 510              	.Letext0:
 511              		.file 2 "c:\\program files (x86)\\cypress\\psoc creator\\4.2\\psoc creator\\import\\gnu\\arm\\5.4.
 512              		.file 3 "c:\\program files (x86)\\cypress\\psoc creator\\4.2\\psoc creator\\import\\gnu\\arm\\5.4.
 513              		.file 4 "c:\\program files (x86)\\cypress\\psoc creator\\4.2\\psoc creator\\import\\gnu\\arm\\5.4.
 514              		.file 5 ".\\Source\\mbedtls_open\\include/mbedtls/md.h"
 515              		.file 6 ".\\Source\\mbedtls_open\\include/mbedtls/pk.h"
 516              		.file 7 ".\\Source\\mbedtls_open\\include/mbedtls/asn1.h"
 517              		.file 8 ".\\Source\\mbedtls_open\\include/mbedtls/x509.h"
 518              		.file 9 ".\\Source\\mbedtls_open\\include/mbedtls/x509_crt.h"
ARM GAS  C:\Users\Phuong\AppData\Local\Temp\ccgjgBoV.s 			page 16


 519              		.file 10 ".\\Source\\mbedtls_open\\include/mbedtls/ssl.h"
 520              		.file 11 ".\\Source\\mbedtls_open\\include/mbedtls/ssl_cache.h"
 521              		.file 12 "c:\\program files (x86)\\cypress\\psoc creator\\4.2\\psoc creator\\import\\gnu\\arm\\5.4
 522              		.file 13 "c:\\program files (x86)\\cypress\\psoc creator\\4.2\\psoc creator\\import\\gnu\\arm\\5.4