ARM GAS  C:\Users\Phuong\AppData\Local\Temp\cct2IqGs.s 			page 1


   1              		.syntax unified
   2              		.cpu cortex-m0plus
   3              		.fpu softvfp
   4              		.eabi_attribute 20, 1
   5              		.eabi_attribute 21, 1
   6              		.eabi_attribute 23, 3
   7              		.eabi_attribute 24, 1
   8              		.eabi_attribute 25, 1
   9              		.eabi_attribute 26, 1
  10              		.eabi_attribute 30, 1
  11              		.eabi_attribute 34, 0
  12              		.eabi_attribute 18, 4
  13              		.thumb
  14              		.syntax unified
  15              		.file	"ssl_srv.c"
  16              		.text
  17              	.Ltext0:
  18              		.cfi_sections	.debug_frame
  19              		.section	.text.ssl_check_key_curve,"ax",%progbits
  20              		.align	2
  21              		.code	16
  22              		.thumb_func
  23              		.type	ssl_check_key_curve, %function
  24              	ssl_check_key_curve:
  25              	.LFB37:
  26              		.file 1 "Source\\mbedtls_open\\library\\ssl_srv.c"
   1:Source\mbedtls_open\library/ssl_srv.c **** /*
   2:Source\mbedtls_open\library/ssl_srv.c ****  *  SSLv3/TLSv1 server-side functions
   3:Source\mbedtls_open\library/ssl_srv.c ****  *
   4:Source\mbedtls_open\library/ssl_srv.c ****  *  Copyright (C) 2006-2015, ARM Limited, All Rights Reserved
   5:Source\mbedtls_open\library/ssl_srv.c ****  *  SPDX-License-Identifier: Apache-2.0
   6:Source\mbedtls_open\library/ssl_srv.c ****  *
   7:Source\mbedtls_open\library/ssl_srv.c ****  *  Licensed under the Apache License, Version 2.0 (the "License"); you may
   8:Source\mbedtls_open\library/ssl_srv.c ****  *  not use this file except in compliance with the License.
   9:Source\mbedtls_open\library/ssl_srv.c ****  *  You may obtain a copy of the License at
  10:Source\mbedtls_open\library/ssl_srv.c ****  *
  11:Source\mbedtls_open\library/ssl_srv.c ****  *  http://www.apache.org/licenses/LICENSE-2.0
  12:Source\mbedtls_open\library/ssl_srv.c ****  *
  13:Source\mbedtls_open\library/ssl_srv.c ****  *  Unless required by applicable law or agreed to in writing, software
  14:Source\mbedtls_open\library/ssl_srv.c ****  *  distributed under the License is distributed on an "AS IS" BASIS, WITHOUT
  15:Source\mbedtls_open\library/ssl_srv.c ****  *  WARRANTIES OR CONDITIONS OF ANY KIND, either express or implied.
  16:Source\mbedtls_open\library/ssl_srv.c ****  *  See the License for the specific language governing permissions and
  17:Source\mbedtls_open\library/ssl_srv.c ****  *  limitations under the License.
  18:Source\mbedtls_open\library/ssl_srv.c ****  *
  19:Source\mbedtls_open\library/ssl_srv.c ****  *  This file is part of mbed TLS (https://tls.mbed.org)
  20:Source\mbedtls_open\library/ssl_srv.c ****  */
  21:Source\mbedtls_open\library/ssl_srv.c **** 
  22:Source\mbedtls_open\library/ssl_srv.c **** #if !defined(MBEDTLS_CONFIG_FILE)
  23:Source\mbedtls_open\library/ssl_srv.c **** #include "mbedtls/config.h"
  24:Source\mbedtls_open\library/ssl_srv.c **** #else
  25:Source\mbedtls_open\library/ssl_srv.c **** #include MBEDTLS_CONFIG_FILE
  26:Source\mbedtls_open\library/ssl_srv.c **** #endif
  27:Source\mbedtls_open\library/ssl_srv.c **** 
  28:Source\mbedtls_open\library/ssl_srv.c **** #if defined(MBEDTLS_SSL_SRV_C)
  29:Source\mbedtls_open\library/ssl_srv.c **** 
  30:Source\mbedtls_open\library/ssl_srv.c **** #if defined(MBEDTLS_PLATFORM_C)
  31:Source\mbedtls_open\library/ssl_srv.c **** #include "mbedtls/platform.h"
ARM GAS  C:\Users\Phuong\AppData\Local\Temp\cct2IqGs.s 			page 2


  32:Source\mbedtls_open\library/ssl_srv.c **** #else
  33:Source\mbedtls_open\library/ssl_srv.c **** #include <stdlib.h>
  34:Source\mbedtls_open\library/ssl_srv.c **** #define mbedtls_calloc    calloc
  35:Source\mbedtls_open\library/ssl_srv.c **** #define mbedtls_free      free
  36:Source\mbedtls_open\library/ssl_srv.c **** #endif
  37:Source\mbedtls_open\library/ssl_srv.c **** 
  38:Source\mbedtls_open\library/ssl_srv.c **** #include "mbedtls/debug.h"
  39:Source\mbedtls_open\library/ssl_srv.c **** #include "mbedtls/ssl.h"
  40:Source\mbedtls_open\library/ssl_srv.c **** #include "mbedtls/ssl_internal.h"
  41:Source\mbedtls_open\library/ssl_srv.c **** #include "mbedtls/platform_util.h"
  42:Source\mbedtls_open\library/ssl_srv.c **** 
  43:Source\mbedtls_open\library/ssl_srv.c **** #include <string.h>
  44:Source\mbedtls_open\library/ssl_srv.c **** 
  45:Source\mbedtls_open\library/ssl_srv.c **** #if defined(MBEDTLS_ECP_C)
  46:Source\mbedtls_open\library/ssl_srv.c **** #include "mbedtls/ecp.h"
  47:Source\mbedtls_open\library/ssl_srv.c **** #endif
  48:Source\mbedtls_open\library/ssl_srv.c **** 
  49:Source\mbedtls_open\library/ssl_srv.c **** #if defined(MBEDTLS_HAVE_TIME)
  50:Source\mbedtls_open\library/ssl_srv.c **** #include "mbedtls/platform_time.h"
  51:Source\mbedtls_open\library/ssl_srv.c **** #endif
  52:Source\mbedtls_open\library/ssl_srv.c **** 
  53:Source\mbedtls_open\library/ssl_srv.c **** #if defined(MBEDTLS_SSL_DTLS_HELLO_VERIFY)
  54:Source\mbedtls_open\library/ssl_srv.c **** int mbedtls_ssl_set_client_transport_id( mbedtls_ssl_context *ssl,
  55:Source\mbedtls_open\library/ssl_srv.c ****                                  const unsigned char *info,
  56:Source\mbedtls_open\library/ssl_srv.c ****                                  size_t ilen )
  57:Source\mbedtls_open\library/ssl_srv.c **** {
  58:Source\mbedtls_open\library/ssl_srv.c ****     if( ssl->conf->endpoint != MBEDTLS_SSL_IS_SERVER )
  59:Source\mbedtls_open\library/ssl_srv.c ****         return( MBEDTLS_ERR_SSL_BAD_INPUT_DATA );
  60:Source\mbedtls_open\library/ssl_srv.c **** 
  61:Source\mbedtls_open\library/ssl_srv.c ****     mbedtls_free( ssl->cli_id );
  62:Source\mbedtls_open\library/ssl_srv.c **** 
  63:Source\mbedtls_open\library/ssl_srv.c ****     if( ( ssl->cli_id = mbedtls_calloc( 1, ilen ) ) == NULL )
  64:Source\mbedtls_open\library/ssl_srv.c ****         return( MBEDTLS_ERR_SSL_ALLOC_FAILED );
  65:Source\mbedtls_open\library/ssl_srv.c **** 
  66:Source\mbedtls_open\library/ssl_srv.c ****     memcpy( ssl->cli_id, info, ilen );
  67:Source\mbedtls_open\library/ssl_srv.c ****     ssl->cli_id_len = ilen;
  68:Source\mbedtls_open\library/ssl_srv.c **** 
  69:Source\mbedtls_open\library/ssl_srv.c ****     return( 0 );
  70:Source\mbedtls_open\library/ssl_srv.c **** }
  71:Source\mbedtls_open\library/ssl_srv.c **** 
  72:Source\mbedtls_open\library/ssl_srv.c **** void mbedtls_ssl_conf_dtls_cookies( mbedtls_ssl_config *conf,
  73:Source\mbedtls_open\library/ssl_srv.c ****                            mbedtls_ssl_cookie_write_t *f_cookie_write,
  74:Source\mbedtls_open\library/ssl_srv.c ****                            mbedtls_ssl_cookie_check_t *f_cookie_check,
  75:Source\mbedtls_open\library/ssl_srv.c ****                            void *p_cookie )
  76:Source\mbedtls_open\library/ssl_srv.c **** {
  77:Source\mbedtls_open\library/ssl_srv.c ****     conf->f_cookie_write = f_cookie_write;
  78:Source\mbedtls_open\library/ssl_srv.c ****     conf->f_cookie_check = f_cookie_check;
  79:Source\mbedtls_open\library/ssl_srv.c ****     conf->p_cookie       = p_cookie;
  80:Source\mbedtls_open\library/ssl_srv.c **** }
  81:Source\mbedtls_open\library/ssl_srv.c **** #endif /* MBEDTLS_SSL_DTLS_HELLO_VERIFY */
  82:Source\mbedtls_open\library/ssl_srv.c **** 
  83:Source\mbedtls_open\library/ssl_srv.c **** #if defined(MBEDTLS_SSL_SERVER_NAME_INDICATION)
  84:Source\mbedtls_open\library/ssl_srv.c **** static int ssl_parse_servername_ext( mbedtls_ssl_context *ssl,
  85:Source\mbedtls_open\library/ssl_srv.c ****                                      const unsigned char *buf,
  86:Source\mbedtls_open\library/ssl_srv.c ****                                      size_t len )
  87:Source\mbedtls_open\library/ssl_srv.c **** {
  88:Source\mbedtls_open\library/ssl_srv.c ****     int ret;
ARM GAS  C:\Users\Phuong\AppData\Local\Temp\cct2IqGs.s 			page 3


  89:Source\mbedtls_open\library/ssl_srv.c ****     size_t servername_list_size, hostname_len;
  90:Source\mbedtls_open\library/ssl_srv.c ****     const unsigned char *p;
  91:Source\mbedtls_open\library/ssl_srv.c **** 
  92:Source\mbedtls_open\library/ssl_srv.c ****     MBEDTLS_SSL_DEBUG_MSG( 3, ( "parse ServerName extension" ) );
  93:Source\mbedtls_open\library/ssl_srv.c **** 
  94:Source\mbedtls_open\library/ssl_srv.c ****     if( len < 2 )
  95:Source\mbedtls_open\library/ssl_srv.c ****     {
  96:Source\mbedtls_open\library/ssl_srv.c ****         MBEDTLS_SSL_DEBUG_MSG( 1, ( "bad client hello message" ) );
  97:Source\mbedtls_open\library/ssl_srv.c ****         mbedtls_ssl_send_alert_message( ssl, MBEDTLS_SSL_ALERT_LEVEL_FATAL,
  98:Source\mbedtls_open\library/ssl_srv.c ****                                        MBEDTLS_SSL_ALERT_MSG_DECODE_ERROR );
  99:Source\mbedtls_open\library/ssl_srv.c ****         return( MBEDTLS_ERR_SSL_BAD_HS_CLIENT_HELLO );
 100:Source\mbedtls_open\library/ssl_srv.c ****     }
 101:Source\mbedtls_open\library/ssl_srv.c ****     servername_list_size = ( ( buf[0] << 8 ) | ( buf[1] ) );
 102:Source\mbedtls_open\library/ssl_srv.c ****     if( servername_list_size + 2 != len )
 103:Source\mbedtls_open\library/ssl_srv.c ****     {
 104:Source\mbedtls_open\library/ssl_srv.c ****         MBEDTLS_SSL_DEBUG_MSG( 1, ( "bad client hello message" ) );
 105:Source\mbedtls_open\library/ssl_srv.c ****         mbedtls_ssl_send_alert_message( ssl, MBEDTLS_SSL_ALERT_LEVEL_FATAL,
 106:Source\mbedtls_open\library/ssl_srv.c ****                                         MBEDTLS_SSL_ALERT_MSG_DECODE_ERROR );
 107:Source\mbedtls_open\library/ssl_srv.c ****         return( MBEDTLS_ERR_SSL_BAD_HS_CLIENT_HELLO );
 108:Source\mbedtls_open\library/ssl_srv.c ****     }
 109:Source\mbedtls_open\library/ssl_srv.c **** 
 110:Source\mbedtls_open\library/ssl_srv.c ****     p = buf + 2;
 111:Source\mbedtls_open\library/ssl_srv.c ****     while( servername_list_size > 2 )
 112:Source\mbedtls_open\library/ssl_srv.c ****     {
 113:Source\mbedtls_open\library/ssl_srv.c ****         hostname_len = ( ( p[1] << 8 ) | p[2] );
 114:Source\mbedtls_open\library/ssl_srv.c ****         if( hostname_len + 3 > servername_list_size )
 115:Source\mbedtls_open\library/ssl_srv.c ****         {
 116:Source\mbedtls_open\library/ssl_srv.c ****             MBEDTLS_SSL_DEBUG_MSG( 1, ( "bad client hello message" ) );
 117:Source\mbedtls_open\library/ssl_srv.c ****             mbedtls_ssl_send_alert_message( ssl, MBEDTLS_SSL_ALERT_LEVEL_FATAL,
 118:Source\mbedtls_open\library/ssl_srv.c ****                                             MBEDTLS_SSL_ALERT_MSG_DECODE_ERROR );
 119:Source\mbedtls_open\library/ssl_srv.c ****             return( MBEDTLS_ERR_SSL_BAD_HS_CLIENT_HELLO );
 120:Source\mbedtls_open\library/ssl_srv.c ****         }
 121:Source\mbedtls_open\library/ssl_srv.c **** 
 122:Source\mbedtls_open\library/ssl_srv.c ****         if( p[0] == MBEDTLS_TLS_EXT_SERVERNAME_HOSTNAME )
 123:Source\mbedtls_open\library/ssl_srv.c ****         {
 124:Source\mbedtls_open\library/ssl_srv.c ****             ret = ssl->conf->f_sni( ssl->conf->p_sni,
 125:Source\mbedtls_open\library/ssl_srv.c ****                                     ssl, p + 3, hostname_len );
 126:Source\mbedtls_open\library/ssl_srv.c ****             if( ret != 0 )
 127:Source\mbedtls_open\library/ssl_srv.c ****             {
 128:Source\mbedtls_open\library/ssl_srv.c ****                 MBEDTLS_SSL_DEBUG_RET( 1, "ssl_sni_wrapper", ret );
 129:Source\mbedtls_open\library/ssl_srv.c ****                 mbedtls_ssl_send_alert_message( ssl, MBEDTLS_SSL_ALERT_LEVEL_FATAL,
 130:Source\mbedtls_open\library/ssl_srv.c ****                         MBEDTLS_SSL_ALERT_MSG_UNRECOGNIZED_NAME );
 131:Source\mbedtls_open\library/ssl_srv.c ****                 return( MBEDTLS_ERR_SSL_BAD_HS_CLIENT_HELLO );
 132:Source\mbedtls_open\library/ssl_srv.c ****             }
 133:Source\mbedtls_open\library/ssl_srv.c ****             return( 0 );
 134:Source\mbedtls_open\library/ssl_srv.c ****         }
 135:Source\mbedtls_open\library/ssl_srv.c **** 
 136:Source\mbedtls_open\library/ssl_srv.c ****         servername_list_size -= hostname_len + 3;
 137:Source\mbedtls_open\library/ssl_srv.c ****         p += hostname_len + 3;
 138:Source\mbedtls_open\library/ssl_srv.c ****     }
 139:Source\mbedtls_open\library/ssl_srv.c **** 
 140:Source\mbedtls_open\library/ssl_srv.c ****     if( servername_list_size != 0 )
 141:Source\mbedtls_open\library/ssl_srv.c ****     {
 142:Source\mbedtls_open\library/ssl_srv.c ****         MBEDTLS_SSL_DEBUG_MSG( 1, ( "bad client hello message" ) );
 143:Source\mbedtls_open\library/ssl_srv.c ****         mbedtls_ssl_send_alert_message( ssl, MBEDTLS_SSL_ALERT_LEVEL_FATAL,
 144:Source\mbedtls_open\library/ssl_srv.c ****                                         MBEDTLS_SSL_ALERT_MSG_ILLEGAL_PARAMETER );
 145:Source\mbedtls_open\library/ssl_srv.c ****         return( MBEDTLS_ERR_SSL_BAD_HS_CLIENT_HELLO );
ARM GAS  C:\Users\Phuong\AppData\Local\Temp\cct2IqGs.s 			page 4


 146:Source\mbedtls_open\library/ssl_srv.c ****     }
 147:Source\mbedtls_open\library/ssl_srv.c **** 
 148:Source\mbedtls_open\library/ssl_srv.c ****     return( 0 );
 149:Source\mbedtls_open\library/ssl_srv.c **** }
 150:Source\mbedtls_open\library/ssl_srv.c **** #endif /* MBEDTLS_SSL_SERVER_NAME_INDICATION */
 151:Source\mbedtls_open\library/ssl_srv.c **** 
 152:Source\mbedtls_open\library/ssl_srv.c **** static int ssl_parse_renegotiation_info( mbedtls_ssl_context *ssl,
 153:Source\mbedtls_open\library/ssl_srv.c ****                                          const unsigned char *buf,
 154:Source\mbedtls_open\library/ssl_srv.c ****                                          size_t len )
 155:Source\mbedtls_open\library/ssl_srv.c **** {
 156:Source\mbedtls_open\library/ssl_srv.c **** #if defined(MBEDTLS_SSL_RENEGOTIATION)
 157:Source\mbedtls_open\library/ssl_srv.c ****     if( ssl->renego_status != MBEDTLS_SSL_INITIAL_HANDSHAKE )
 158:Source\mbedtls_open\library/ssl_srv.c ****     {
 159:Source\mbedtls_open\library/ssl_srv.c ****         /* Check verify-data in constant-time. The length OTOH is no secret */
 160:Source\mbedtls_open\library/ssl_srv.c ****         if( len    != 1 + ssl->verify_data_len ||
 161:Source\mbedtls_open\library/ssl_srv.c ****             buf[0] !=     ssl->verify_data_len ||
 162:Source\mbedtls_open\library/ssl_srv.c ****             mbedtls_ssl_safer_memcmp( buf + 1, ssl->peer_verify_data,
 163:Source\mbedtls_open\library/ssl_srv.c ****                           ssl->verify_data_len ) != 0 )
 164:Source\mbedtls_open\library/ssl_srv.c ****         {
 165:Source\mbedtls_open\library/ssl_srv.c ****             MBEDTLS_SSL_DEBUG_MSG( 1, ( "non-matching renegotiation info" ) );
 166:Source\mbedtls_open\library/ssl_srv.c ****             mbedtls_ssl_send_alert_message( ssl, MBEDTLS_SSL_ALERT_LEVEL_FATAL,
 167:Source\mbedtls_open\library/ssl_srv.c ****                                             MBEDTLS_SSL_ALERT_MSG_HANDSHAKE_FAILURE );
 168:Source\mbedtls_open\library/ssl_srv.c ****             return( MBEDTLS_ERR_SSL_BAD_HS_CLIENT_HELLO );
 169:Source\mbedtls_open\library/ssl_srv.c ****         }
 170:Source\mbedtls_open\library/ssl_srv.c ****     }
 171:Source\mbedtls_open\library/ssl_srv.c ****     else
 172:Source\mbedtls_open\library/ssl_srv.c **** #endif /* MBEDTLS_SSL_RENEGOTIATION */
 173:Source\mbedtls_open\library/ssl_srv.c ****     {
 174:Source\mbedtls_open\library/ssl_srv.c ****         if( len != 1 || buf[0] != 0x0 )
 175:Source\mbedtls_open\library/ssl_srv.c ****         {
 176:Source\mbedtls_open\library/ssl_srv.c ****             MBEDTLS_SSL_DEBUG_MSG( 1, ( "non-zero length renegotiation info" ) );
 177:Source\mbedtls_open\library/ssl_srv.c ****             mbedtls_ssl_send_alert_message( ssl, MBEDTLS_SSL_ALERT_LEVEL_FATAL,
 178:Source\mbedtls_open\library/ssl_srv.c ****                                             MBEDTLS_SSL_ALERT_MSG_HANDSHAKE_FAILURE );
 179:Source\mbedtls_open\library/ssl_srv.c ****             return( MBEDTLS_ERR_SSL_BAD_HS_CLIENT_HELLO );
 180:Source\mbedtls_open\library/ssl_srv.c ****         }
 181:Source\mbedtls_open\library/ssl_srv.c **** 
 182:Source\mbedtls_open\library/ssl_srv.c ****         ssl->secure_renegotiation = MBEDTLS_SSL_SECURE_RENEGOTIATION;
 183:Source\mbedtls_open\library/ssl_srv.c ****     }
 184:Source\mbedtls_open\library/ssl_srv.c **** 
 185:Source\mbedtls_open\library/ssl_srv.c ****     return( 0 );
 186:Source\mbedtls_open\library/ssl_srv.c **** }
 187:Source\mbedtls_open\library/ssl_srv.c **** 
 188:Source\mbedtls_open\library/ssl_srv.c **** #if defined(MBEDTLS_SSL_PROTO_TLS1_2) && \
 189:Source\mbedtls_open\library/ssl_srv.c ****     defined(MBEDTLS_KEY_EXCHANGE__WITH_CERT__ENABLED)
 190:Source\mbedtls_open\library/ssl_srv.c **** 
 191:Source\mbedtls_open\library/ssl_srv.c **** /*
 192:Source\mbedtls_open\library/ssl_srv.c ****  * Status of the implementation of signature-algorithms extension:
 193:Source\mbedtls_open\library/ssl_srv.c ****  *
 194:Source\mbedtls_open\library/ssl_srv.c ****  * Currently, we are only considering the signature-algorithm extension
 195:Source\mbedtls_open\library/ssl_srv.c ****  * to pick a ciphersuite which allows us to send the ServerKeyExchange
 196:Source\mbedtls_open\library/ssl_srv.c ****  * message with a signature-hash combination that the user allows.
 197:Source\mbedtls_open\library/ssl_srv.c ****  *
 198:Source\mbedtls_open\library/ssl_srv.c ****  * We do *not* check whether all certificates in our certificate
 199:Source\mbedtls_open\library/ssl_srv.c ****  * chain are signed with an allowed signature-hash pair.
 200:Source\mbedtls_open\library/ssl_srv.c ****  * This needs to be done at a later stage.
 201:Source\mbedtls_open\library/ssl_srv.c ****  *
 202:Source\mbedtls_open\library/ssl_srv.c ****  */
ARM GAS  C:\Users\Phuong\AppData\Local\Temp\cct2IqGs.s 			page 5


 203:Source\mbedtls_open\library/ssl_srv.c **** static int ssl_parse_signature_algorithms_ext( mbedtls_ssl_context *ssl,
 204:Source\mbedtls_open\library/ssl_srv.c ****                                                const unsigned char *buf,
 205:Source\mbedtls_open\library/ssl_srv.c ****                                                size_t len )
 206:Source\mbedtls_open\library/ssl_srv.c **** {
 207:Source\mbedtls_open\library/ssl_srv.c ****     size_t sig_alg_list_size;
 208:Source\mbedtls_open\library/ssl_srv.c **** 
 209:Source\mbedtls_open\library/ssl_srv.c ****     const unsigned char *p;
 210:Source\mbedtls_open\library/ssl_srv.c ****     const unsigned char *end = buf + len;
 211:Source\mbedtls_open\library/ssl_srv.c **** 
 212:Source\mbedtls_open\library/ssl_srv.c ****     mbedtls_md_type_t md_cur;
 213:Source\mbedtls_open\library/ssl_srv.c ****     mbedtls_pk_type_t sig_cur;
 214:Source\mbedtls_open\library/ssl_srv.c **** 
 215:Source\mbedtls_open\library/ssl_srv.c ****     if ( len < 2 ) {
 216:Source\mbedtls_open\library/ssl_srv.c ****         MBEDTLS_SSL_DEBUG_MSG( 1, ( "bad client hello message" ) );
 217:Source\mbedtls_open\library/ssl_srv.c ****         mbedtls_ssl_send_alert_message( ssl, MBEDTLS_SSL_ALERT_LEVEL_FATAL,
 218:Source\mbedtls_open\library/ssl_srv.c ****                                        MBEDTLS_SSL_ALERT_MSG_DECODE_ERROR );
 219:Source\mbedtls_open\library/ssl_srv.c ****         return( MBEDTLS_ERR_SSL_BAD_HS_CLIENT_HELLO );
 220:Source\mbedtls_open\library/ssl_srv.c ****     }
 221:Source\mbedtls_open\library/ssl_srv.c ****     sig_alg_list_size = ( ( buf[0] << 8 ) | ( buf[1] ) );
 222:Source\mbedtls_open\library/ssl_srv.c ****     if( sig_alg_list_size + 2 != len ||
 223:Source\mbedtls_open\library/ssl_srv.c ****         sig_alg_list_size % 2 != 0 )
 224:Source\mbedtls_open\library/ssl_srv.c ****     {
 225:Source\mbedtls_open\library/ssl_srv.c ****         MBEDTLS_SSL_DEBUG_MSG( 1, ( "bad client hello message" ) );
 226:Source\mbedtls_open\library/ssl_srv.c ****         mbedtls_ssl_send_alert_message( ssl, MBEDTLS_SSL_ALERT_LEVEL_FATAL,
 227:Source\mbedtls_open\library/ssl_srv.c ****                                         MBEDTLS_SSL_ALERT_MSG_DECODE_ERROR );
 228:Source\mbedtls_open\library/ssl_srv.c ****         return( MBEDTLS_ERR_SSL_BAD_HS_CLIENT_HELLO );
 229:Source\mbedtls_open\library/ssl_srv.c ****     }
 230:Source\mbedtls_open\library/ssl_srv.c **** 
 231:Source\mbedtls_open\library/ssl_srv.c ****     /* Currently we only guarantee signing the ServerKeyExchange message according
 232:Source\mbedtls_open\library/ssl_srv.c ****      * to the constraints specified in this extension (see above), so it suffices
 233:Source\mbedtls_open\library/ssl_srv.c ****      * to remember only one suitable hash for each possible signature algorithm.
 234:Source\mbedtls_open\library/ssl_srv.c ****      *
 235:Source\mbedtls_open\library/ssl_srv.c ****      * This will change when we also consider certificate signatures,
 236:Source\mbedtls_open\library/ssl_srv.c ****      * in which case we will need to remember the whole signature-hash
 237:Source\mbedtls_open\library/ssl_srv.c ****      * pair list from the extension.
 238:Source\mbedtls_open\library/ssl_srv.c ****      */
 239:Source\mbedtls_open\library/ssl_srv.c **** 
 240:Source\mbedtls_open\library/ssl_srv.c ****     for( p = buf + 2; p < end; p += 2 )
 241:Source\mbedtls_open\library/ssl_srv.c ****     {
 242:Source\mbedtls_open\library/ssl_srv.c ****         /* Silently ignore unknown signature or hash algorithms. */
 243:Source\mbedtls_open\library/ssl_srv.c **** 
 244:Source\mbedtls_open\library/ssl_srv.c ****         if( ( sig_cur = mbedtls_ssl_pk_alg_from_sig( p[1] ) ) == MBEDTLS_PK_NONE )
 245:Source\mbedtls_open\library/ssl_srv.c ****         {
 246:Source\mbedtls_open\library/ssl_srv.c ****             MBEDTLS_SSL_DEBUG_MSG( 3, ( "client hello v3, signature_algorithm ext"
 247:Source\mbedtls_open\library/ssl_srv.c ****                                         " unknown sig alg encoding %d", p[1] ) );
 248:Source\mbedtls_open\library/ssl_srv.c ****             continue;
 249:Source\mbedtls_open\library/ssl_srv.c ****         }
 250:Source\mbedtls_open\library/ssl_srv.c **** 
 251:Source\mbedtls_open\library/ssl_srv.c ****         /* Check if we support the hash the user proposes */
 252:Source\mbedtls_open\library/ssl_srv.c ****         md_cur = mbedtls_ssl_md_alg_from_hash( p[0] );
 253:Source\mbedtls_open\library/ssl_srv.c ****         if( md_cur == MBEDTLS_MD_NONE )
 254:Source\mbedtls_open\library/ssl_srv.c ****         {
 255:Source\mbedtls_open\library/ssl_srv.c ****             MBEDTLS_SSL_DEBUG_MSG( 3, ( "client hello v3, signature_algorithm ext:"
 256:Source\mbedtls_open\library/ssl_srv.c ****                                         " unknown hash alg encoding %d", p[0] ) );
 257:Source\mbedtls_open\library/ssl_srv.c ****             continue;
 258:Source\mbedtls_open\library/ssl_srv.c ****         }
 259:Source\mbedtls_open\library/ssl_srv.c **** 
ARM GAS  C:\Users\Phuong\AppData\Local\Temp\cct2IqGs.s 			page 6


 260:Source\mbedtls_open\library/ssl_srv.c ****         if( mbedtls_ssl_check_sig_hash( ssl, md_cur ) == 0 )
 261:Source\mbedtls_open\library/ssl_srv.c ****         {
 262:Source\mbedtls_open\library/ssl_srv.c ****             mbedtls_ssl_sig_hash_set_add( &ssl->handshake->hash_algs, sig_cur, md_cur );
 263:Source\mbedtls_open\library/ssl_srv.c ****             MBEDTLS_SSL_DEBUG_MSG( 3, ( "client hello v3, signature_algorithm ext:"
 264:Source\mbedtls_open\library/ssl_srv.c ****                                         " match sig %d and hash %d",
 265:Source\mbedtls_open\library/ssl_srv.c ****                                         sig_cur, md_cur ) );
 266:Source\mbedtls_open\library/ssl_srv.c ****         }
 267:Source\mbedtls_open\library/ssl_srv.c ****         else
 268:Source\mbedtls_open\library/ssl_srv.c ****         {
 269:Source\mbedtls_open\library/ssl_srv.c ****             MBEDTLS_SSL_DEBUG_MSG( 3, ( "client hello v3, signature_algorithm ext: "
 270:Source\mbedtls_open\library/ssl_srv.c ****                                         "hash alg %d not supported", md_cur ) );
 271:Source\mbedtls_open\library/ssl_srv.c ****         }
 272:Source\mbedtls_open\library/ssl_srv.c ****     }
 273:Source\mbedtls_open\library/ssl_srv.c **** 
 274:Source\mbedtls_open\library/ssl_srv.c ****     return( 0 );
 275:Source\mbedtls_open\library/ssl_srv.c **** }
 276:Source\mbedtls_open\library/ssl_srv.c **** #endif /* MBEDTLS_SSL_PROTO_TLS1_2 &&
 277:Source\mbedtls_open\library/ssl_srv.c ****           MBEDTLS_KEY_EXCHANGE__WITH_CERT__ENABLED */
 278:Source\mbedtls_open\library/ssl_srv.c **** 
 279:Source\mbedtls_open\library/ssl_srv.c **** #if defined(MBEDTLS_ECDH_C) || defined(MBEDTLS_ECDSA_C) || \
 280:Source\mbedtls_open\library/ssl_srv.c ****     defined(MBEDTLS_KEY_EXCHANGE_ECJPAKE_ENABLED)
 281:Source\mbedtls_open\library/ssl_srv.c **** static int ssl_parse_supported_elliptic_curves( mbedtls_ssl_context *ssl,
 282:Source\mbedtls_open\library/ssl_srv.c ****                                                 const unsigned char *buf,
 283:Source\mbedtls_open\library/ssl_srv.c ****                                                 size_t len )
 284:Source\mbedtls_open\library/ssl_srv.c **** {
 285:Source\mbedtls_open\library/ssl_srv.c ****     size_t list_size, our_size;
 286:Source\mbedtls_open\library/ssl_srv.c ****     const unsigned char *p;
 287:Source\mbedtls_open\library/ssl_srv.c ****     const mbedtls_ecp_curve_info *curve_info, **curves;
 288:Source\mbedtls_open\library/ssl_srv.c **** 
 289:Source\mbedtls_open\library/ssl_srv.c ****     if ( len < 2 ) {
 290:Source\mbedtls_open\library/ssl_srv.c ****         MBEDTLS_SSL_DEBUG_MSG( 1, ( "bad client hello message" ) );
 291:Source\mbedtls_open\library/ssl_srv.c ****         mbedtls_ssl_send_alert_message( ssl, MBEDTLS_SSL_ALERT_LEVEL_FATAL,
 292:Source\mbedtls_open\library/ssl_srv.c ****                                        MBEDTLS_SSL_ALERT_MSG_DECODE_ERROR );
 293:Source\mbedtls_open\library/ssl_srv.c ****         return( MBEDTLS_ERR_SSL_BAD_HS_CLIENT_HELLO );
 294:Source\mbedtls_open\library/ssl_srv.c ****     }
 295:Source\mbedtls_open\library/ssl_srv.c ****     list_size = ( ( buf[0] << 8 ) | ( buf[1] ) );
 296:Source\mbedtls_open\library/ssl_srv.c ****     if( list_size + 2 != len ||
 297:Source\mbedtls_open\library/ssl_srv.c ****         list_size % 2 != 0 )
 298:Source\mbedtls_open\library/ssl_srv.c ****     {
 299:Source\mbedtls_open\library/ssl_srv.c ****         MBEDTLS_SSL_DEBUG_MSG( 1, ( "bad client hello message" ) );
 300:Source\mbedtls_open\library/ssl_srv.c ****         mbedtls_ssl_send_alert_message( ssl, MBEDTLS_SSL_ALERT_LEVEL_FATAL,
 301:Source\mbedtls_open\library/ssl_srv.c ****                                         MBEDTLS_SSL_ALERT_MSG_DECODE_ERROR );
 302:Source\mbedtls_open\library/ssl_srv.c ****         return( MBEDTLS_ERR_SSL_BAD_HS_CLIENT_HELLO );
 303:Source\mbedtls_open\library/ssl_srv.c ****     }
 304:Source\mbedtls_open\library/ssl_srv.c **** 
 305:Source\mbedtls_open\library/ssl_srv.c ****     /* Should never happen unless client duplicates the extension */
 306:Source\mbedtls_open\library/ssl_srv.c ****     if( ssl->handshake->curves != NULL )
 307:Source\mbedtls_open\library/ssl_srv.c ****     {
 308:Source\mbedtls_open\library/ssl_srv.c ****         MBEDTLS_SSL_DEBUG_MSG( 1, ( "bad client hello message" ) );
 309:Source\mbedtls_open\library/ssl_srv.c ****         mbedtls_ssl_send_alert_message( ssl, MBEDTLS_SSL_ALERT_LEVEL_FATAL,
 310:Source\mbedtls_open\library/ssl_srv.c ****                                         MBEDTLS_SSL_ALERT_MSG_DECODE_ERROR );
 311:Source\mbedtls_open\library/ssl_srv.c ****         return( MBEDTLS_ERR_SSL_BAD_HS_CLIENT_HELLO );
 312:Source\mbedtls_open\library/ssl_srv.c ****     }
 313:Source\mbedtls_open\library/ssl_srv.c **** 
 314:Source\mbedtls_open\library/ssl_srv.c ****     /* Don't allow our peer to make us allocate too much memory,
 315:Source\mbedtls_open\library/ssl_srv.c ****      * and leave room for a final 0 */
 316:Source\mbedtls_open\library/ssl_srv.c ****     our_size = list_size / 2 + 1;
ARM GAS  C:\Users\Phuong\AppData\Local\Temp\cct2IqGs.s 			page 7


 317:Source\mbedtls_open\library/ssl_srv.c ****     if( our_size > MBEDTLS_ECP_DP_MAX )
 318:Source\mbedtls_open\library/ssl_srv.c ****         our_size = MBEDTLS_ECP_DP_MAX;
 319:Source\mbedtls_open\library/ssl_srv.c **** 
 320:Source\mbedtls_open\library/ssl_srv.c ****     if( ( curves = mbedtls_calloc( our_size, sizeof( *curves ) ) ) == NULL )
 321:Source\mbedtls_open\library/ssl_srv.c ****     {
 322:Source\mbedtls_open\library/ssl_srv.c ****         mbedtls_ssl_send_alert_message( ssl, MBEDTLS_SSL_ALERT_LEVEL_FATAL,
 323:Source\mbedtls_open\library/ssl_srv.c ****                                         MBEDTLS_SSL_ALERT_MSG_INTERNAL_ERROR );
 324:Source\mbedtls_open\library/ssl_srv.c ****         return( MBEDTLS_ERR_SSL_ALLOC_FAILED );
 325:Source\mbedtls_open\library/ssl_srv.c ****     }
 326:Source\mbedtls_open\library/ssl_srv.c **** 
 327:Source\mbedtls_open\library/ssl_srv.c ****     ssl->handshake->curves = curves;
 328:Source\mbedtls_open\library/ssl_srv.c **** 
 329:Source\mbedtls_open\library/ssl_srv.c ****     p = buf + 2;
 330:Source\mbedtls_open\library/ssl_srv.c ****     while( list_size > 0 && our_size > 1 )
 331:Source\mbedtls_open\library/ssl_srv.c ****     {
 332:Source\mbedtls_open\library/ssl_srv.c ****         curve_info = mbedtls_ecp_curve_info_from_tls_id( ( p[0] << 8 ) | p[1] );
 333:Source\mbedtls_open\library/ssl_srv.c **** 
 334:Source\mbedtls_open\library/ssl_srv.c ****         if( curve_info != NULL )
 335:Source\mbedtls_open\library/ssl_srv.c ****         {
 336:Source\mbedtls_open\library/ssl_srv.c ****             *curves++ = curve_info;
 337:Source\mbedtls_open\library/ssl_srv.c ****             our_size--;
 338:Source\mbedtls_open\library/ssl_srv.c ****         }
 339:Source\mbedtls_open\library/ssl_srv.c **** 
 340:Source\mbedtls_open\library/ssl_srv.c ****         list_size -= 2;
 341:Source\mbedtls_open\library/ssl_srv.c ****         p += 2;
 342:Source\mbedtls_open\library/ssl_srv.c ****     }
 343:Source\mbedtls_open\library/ssl_srv.c **** 
 344:Source\mbedtls_open\library/ssl_srv.c ****     return( 0 );
 345:Source\mbedtls_open\library/ssl_srv.c **** }
 346:Source\mbedtls_open\library/ssl_srv.c **** 
 347:Source\mbedtls_open\library/ssl_srv.c **** static int ssl_parse_supported_point_formats( mbedtls_ssl_context *ssl,
 348:Source\mbedtls_open\library/ssl_srv.c ****                                               const unsigned char *buf,
 349:Source\mbedtls_open\library/ssl_srv.c ****                                               size_t len )
 350:Source\mbedtls_open\library/ssl_srv.c **** {
 351:Source\mbedtls_open\library/ssl_srv.c ****     size_t list_size;
 352:Source\mbedtls_open\library/ssl_srv.c ****     const unsigned char *p;
 353:Source\mbedtls_open\library/ssl_srv.c **** 
 354:Source\mbedtls_open\library/ssl_srv.c ****     if( len == 0 || (size_t)( buf[0] + 1 ) != len )
 355:Source\mbedtls_open\library/ssl_srv.c ****     {
 356:Source\mbedtls_open\library/ssl_srv.c ****         MBEDTLS_SSL_DEBUG_MSG( 1, ( "bad client hello message" ) );
 357:Source\mbedtls_open\library/ssl_srv.c ****         mbedtls_ssl_send_alert_message( ssl, MBEDTLS_SSL_ALERT_LEVEL_FATAL,
 358:Source\mbedtls_open\library/ssl_srv.c ****                                         MBEDTLS_SSL_ALERT_MSG_DECODE_ERROR );
 359:Source\mbedtls_open\library/ssl_srv.c ****         return( MBEDTLS_ERR_SSL_BAD_HS_CLIENT_HELLO );
 360:Source\mbedtls_open\library/ssl_srv.c ****     }
 361:Source\mbedtls_open\library/ssl_srv.c ****     list_size = buf[0];
 362:Source\mbedtls_open\library/ssl_srv.c **** 
 363:Source\mbedtls_open\library/ssl_srv.c ****     p = buf + 1;
 364:Source\mbedtls_open\library/ssl_srv.c ****     while( list_size > 0 )
 365:Source\mbedtls_open\library/ssl_srv.c ****     {
 366:Source\mbedtls_open\library/ssl_srv.c ****         if( p[0] == MBEDTLS_ECP_PF_UNCOMPRESSED ||
 367:Source\mbedtls_open\library/ssl_srv.c ****             p[0] == MBEDTLS_ECP_PF_COMPRESSED )
 368:Source\mbedtls_open\library/ssl_srv.c ****         {
 369:Source\mbedtls_open\library/ssl_srv.c **** #if defined(MBEDTLS_ECDH_C) || defined(MBEDTLS_ECDSA_C)
 370:Source\mbedtls_open\library/ssl_srv.c ****             ssl->handshake->ecdh_ctx.point_format = p[0];
 371:Source\mbedtls_open\library/ssl_srv.c **** #endif
 372:Source\mbedtls_open\library/ssl_srv.c **** #if defined(MBEDTLS_KEY_EXCHANGE_ECJPAKE_ENABLED)
 373:Source\mbedtls_open\library/ssl_srv.c ****             ssl->handshake->ecjpake_ctx.point_format = p[0];
ARM GAS  C:\Users\Phuong\AppData\Local\Temp\cct2IqGs.s 			page 8


 374:Source\mbedtls_open\library/ssl_srv.c **** #endif
 375:Source\mbedtls_open\library/ssl_srv.c ****             MBEDTLS_SSL_DEBUG_MSG( 4, ( "point format selected: %d", p[0] ) );
 376:Source\mbedtls_open\library/ssl_srv.c ****             return( 0 );
 377:Source\mbedtls_open\library/ssl_srv.c ****         }
 378:Source\mbedtls_open\library/ssl_srv.c **** 
 379:Source\mbedtls_open\library/ssl_srv.c ****         list_size--;
 380:Source\mbedtls_open\library/ssl_srv.c ****         p++;
 381:Source\mbedtls_open\library/ssl_srv.c ****     }
 382:Source\mbedtls_open\library/ssl_srv.c **** 
 383:Source\mbedtls_open\library/ssl_srv.c ****     return( 0 );
 384:Source\mbedtls_open\library/ssl_srv.c **** }
 385:Source\mbedtls_open\library/ssl_srv.c **** #endif /* MBEDTLS_ECDH_C || MBEDTLS_ECDSA_C ||
 386:Source\mbedtls_open\library/ssl_srv.c ****           MBEDTLS_KEY_EXCHANGE_ECJPAKE_ENABLED */
 387:Source\mbedtls_open\library/ssl_srv.c **** 
 388:Source\mbedtls_open\library/ssl_srv.c **** #if defined(MBEDTLS_KEY_EXCHANGE_ECJPAKE_ENABLED)
 389:Source\mbedtls_open\library/ssl_srv.c **** static int ssl_parse_ecjpake_kkpp( mbedtls_ssl_context *ssl,
 390:Source\mbedtls_open\library/ssl_srv.c ****                                    const unsigned char *buf,
 391:Source\mbedtls_open\library/ssl_srv.c ****                                    size_t len )
 392:Source\mbedtls_open\library/ssl_srv.c **** {
 393:Source\mbedtls_open\library/ssl_srv.c ****     int ret;
 394:Source\mbedtls_open\library/ssl_srv.c **** 
 395:Source\mbedtls_open\library/ssl_srv.c ****     if( mbedtls_ecjpake_check( &ssl->handshake->ecjpake_ctx ) != 0 )
 396:Source\mbedtls_open\library/ssl_srv.c ****     {
 397:Source\mbedtls_open\library/ssl_srv.c ****         MBEDTLS_SSL_DEBUG_MSG( 3, ( "skip ecjpake kkpp extension" ) );
 398:Source\mbedtls_open\library/ssl_srv.c ****         return( 0 );
 399:Source\mbedtls_open\library/ssl_srv.c ****     }
 400:Source\mbedtls_open\library/ssl_srv.c **** 
 401:Source\mbedtls_open\library/ssl_srv.c ****     if( ( ret = mbedtls_ecjpake_read_round_one( &ssl->handshake->ecjpake_ctx,
 402:Source\mbedtls_open\library/ssl_srv.c ****                                                 buf, len ) ) != 0 )
 403:Source\mbedtls_open\library/ssl_srv.c ****     {
 404:Source\mbedtls_open\library/ssl_srv.c ****         MBEDTLS_SSL_DEBUG_RET( 1, "mbedtls_ecjpake_read_round_one", ret );
 405:Source\mbedtls_open\library/ssl_srv.c ****         mbedtls_ssl_send_alert_message( ssl, MBEDTLS_SSL_ALERT_LEVEL_FATAL,
 406:Source\mbedtls_open\library/ssl_srv.c ****                                         MBEDTLS_SSL_ALERT_MSG_ILLEGAL_PARAMETER );
 407:Source\mbedtls_open\library/ssl_srv.c ****         return( ret );
 408:Source\mbedtls_open\library/ssl_srv.c ****     }
 409:Source\mbedtls_open\library/ssl_srv.c **** 
 410:Source\mbedtls_open\library/ssl_srv.c ****     /* Only mark the extension as OK when we're sure it is */
 411:Source\mbedtls_open\library/ssl_srv.c ****     ssl->handshake->cli_exts |= MBEDTLS_TLS_EXT_ECJPAKE_KKPP_OK;
 412:Source\mbedtls_open\library/ssl_srv.c **** 
 413:Source\mbedtls_open\library/ssl_srv.c ****     return( 0 );
 414:Source\mbedtls_open\library/ssl_srv.c **** }
 415:Source\mbedtls_open\library/ssl_srv.c **** #endif /* MBEDTLS_KEY_EXCHANGE_ECJPAKE_ENABLED */
 416:Source\mbedtls_open\library/ssl_srv.c **** 
 417:Source\mbedtls_open\library/ssl_srv.c **** #if defined(MBEDTLS_SSL_MAX_FRAGMENT_LENGTH)
 418:Source\mbedtls_open\library/ssl_srv.c **** static int ssl_parse_max_fragment_length_ext( mbedtls_ssl_context *ssl,
 419:Source\mbedtls_open\library/ssl_srv.c ****                                               const unsigned char *buf,
 420:Source\mbedtls_open\library/ssl_srv.c ****                                               size_t len )
 421:Source\mbedtls_open\library/ssl_srv.c **** {
 422:Source\mbedtls_open\library/ssl_srv.c ****     if( len != 1 || buf[0] >= MBEDTLS_SSL_MAX_FRAG_LEN_INVALID )
 423:Source\mbedtls_open\library/ssl_srv.c ****     {
 424:Source\mbedtls_open\library/ssl_srv.c ****         MBEDTLS_SSL_DEBUG_MSG( 1, ( "bad client hello message" ) );
 425:Source\mbedtls_open\library/ssl_srv.c ****         mbedtls_ssl_send_alert_message( ssl, MBEDTLS_SSL_ALERT_LEVEL_FATAL,
 426:Source\mbedtls_open\library/ssl_srv.c ****                                         MBEDTLS_SSL_ALERT_MSG_ILLEGAL_PARAMETER );
 427:Source\mbedtls_open\library/ssl_srv.c ****         return( MBEDTLS_ERR_SSL_BAD_HS_CLIENT_HELLO );
 428:Source\mbedtls_open\library/ssl_srv.c ****     }
 429:Source\mbedtls_open\library/ssl_srv.c **** 
 430:Source\mbedtls_open\library/ssl_srv.c ****     ssl->session_negotiate->mfl_code = buf[0];
ARM GAS  C:\Users\Phuong\AppData\Local\Temp\cct2IqGs.s 			page 9


 431:Source\mbedtls_open\library/ssl_srv.c **** 
 432:Source\mbedtls_open\library/ssl_srv.c ****     return( 0 );
 433:Source\mbedtls_open\library/ssl_srv.c **** }
 434:Source\mbedtls_open\library/ssl_srv.c **** #endif /* MBEDTLS_SSL_MAX_FRAGMENT_LENGTH */
 435:Source\mbedtls_open\library/ssl_srv.c **** 
 436:Source\mbedtls_open\library/ssl_srv.c **** #if defined(MBEDTLS_SSL_TRUNCATED_HMAC)
 437:Source\mbedtls_open\library/ssl_srv.c **** static int ssl_parse_truncated_hmac_ext( mbedtls_ssl_context *ssl,
 438:Source\mbedtls_open\library/ssl_srv.c ****                                          const unsigned char *buf,
 439:Source\mbedtls_open\library/ssl_srv.c ****                                          size_t len )
 440:Source\mbedtls_open\library/ssl_srv.c **** {
 441:Source\mbedtls_open\library/ssl_srv.c ****     if( len != 0 )
 442:Source\mbedtls_open\library/ssl_srv.c ****     {
 443:Source\mbedtls_open\library/ssl_srv.c ****         MBEDTLS_SSL_DEBUG_MSG( 1, ( "bad client hello message" ) );
 444:Source\mbedtls_open\library/ssl_srv.c ****         mbedtls_ssl_send_alert_message( ssl, MBEDTLS_SSL_ALERT_LEVEL_FATAL,
 445:Source\mbedtls_open\library/ssl_srv.c ****                                         MBEDTLS_SSL_ALERT_MSG_DECODE_ERROR );
 446:Source\mbedtls_open\library/ssl_srv.c ****         return( MBEDTLS_ERR_SSL_BAD_HS_CLIENT_HELLO );
 447:Source\mbedtls_open\library/ssl_srv.c ****     }
 448:Source\mbedtls_open\library/ssl_srv.c **** 
 449:Source\mbedtls_open\library/ssl_srv.c ****     ((void) buf);
 450:Source\mbedtls_open\library/ssl_srv.c **** 
 451:Source\mbedtls_open\library/ssl_srv.c ****     if( ssl->conf->trunc_hmac == MBEDTLS_SSL_TRUNC_HMAC_ENABLED )
 452:Source\mbedtls_open\library/ssl_srv.c ****         ssl->session_negotiate->trunc_hmac = MBEDTLS_SSL_TRUNC_HMAC_ENABLED;
 453:Source\mbedtls_open\library/ssl_srv.c **** 
 454:Source\mbedtls_open\library/ssl_srv.c ****     return( 0 );
 455:Source\mbedtls_open\library/ssl_srv.c **** }
 456:Source\mbedtls_open\library/ssl_srv.c **** #endif /* MBEDTLS_SSL_TRUNCATED_HMAC */
 457:Source\mbedtls_open\library/ssl_srv.c **** 
 458:Source\mbedtls_open\library/ssl_srv.c **** #if defined(MBEDTLS_SSL_ENCRYPT_THEN_MAC)
 459:Source\mbedtls_open\library/ssl_srv.c **** static int ssl_parse_encrypt_then_mac_ext( mbedtls_ssl_context *ssl,
 460:Source\mbedtls_open\library/ssl_srv.c ****                                       const unsigned char *buf,
 461:Source\mbedtls_open\library/ssl_srv.c ****                                       size_t len )
 462:Source\mbedtls_open\library/ssl_srv.c **** {
 463:Source\mbedtls_open\library/ssl_srv.c ****     if( len != 0 )
 464:Source\mbedtls_open\library/ssl_srv.c ****     {
 465:Source\mbedtls_open\library/ssl_srv.c ****         MBEDTLS_SSL_DEBUG_MSG( 1, ( "bad client hello message" ) );
 466:Source\mbedtls_open\library/ssl_srv.c ****         mbedtls_ssl_send_alert_message( ssl, MBEDTLS_SSL_ALERT_LEVEL_FATAL,
 467:Source\mbedtls_open\library/ssl_srv.c ****                                         MBEDTLS_SSL_ALERT_MSG_DECODE_ERROR );
 468:Source\mbedtls_open\library/ssl_srv.c ****         return( MBEDTLS_ERR_SSL_BAD_HS_CLIENT_HELLO );
 469:Source\mbedtls_open\library/ssl_srv.c ****     }
 470:Source\mbedtls_open\library/ssl_srv.c **** 
 471:Source\mbedtls_open\library/ssl_srv.c ****     ((void) buf);
 472:Source\mbedtls_open\library/ssl_srv.c **** 
 473:Source\mbedtls_open\library/ssl_srv.c ****     if( ssl->conf->encrypt_then_mac == MBEDTLS_SSL_ETM_ENABLED &&
 474:Source\mbedtls_open\library/ssl_srv.c ****         ssl->minor_ver != MBEDTLS_SSL_MINOR_VERSION_0 )
 475:Source\mbedtls_open\library/ssl_srv.c ****     {
 476:Source\mbedtls_open\library/ssl_srv.c ****         ssl->session_negotiate->encrypt_then_mac = MBEDTLS_SSL_ETM_ENABLED;
 477:Source\mbedtls_open\library/ssl_srv.c ****     }
 478:Source\mbedtls_open\library/ssl_srv.c **** 
 479:Source\mbedtls_open\library/ssl_srv.c ****     return( 0 );
 480:Source\mbedtls_open\library/ssl_srv.c **** }
 481:Source\mbedtls_open\library/ssl_srv.c **** #endif /* MBEDTLS_SSL_ENCRYPT_THEN_MAC */
 482:Source\mbedtls_open\library/ssl_srv.c **** 
 483:Source\mbedtls_open\library/ssl_srv.c **** #if defined(MBEDTLS_SSL_EXTENDED_MASTER_SECRET)
 484:Source\mbedtls_open\library/ssl_srv.c **** static int ssl_parse_extended_ms_ext( mbedtls_ssl_context *ssl,
 485:Source\mbedtls_open\library/ssl_srv.c ****                                       const unsigned char *buf,
 486:Source\mbedtls_open\library/ssl_srv.c ****                                       size_t len )
 487:Source\mbedtls_open\library/ssl_srv.c **** {
ARM GAS  C:\Users\Phuong\AppData\Local\Temp\cct2IqGs.s 			page 10


 488:Source\mbedtls_open\library/ssl_srv.c ****     if( len != 0 )
 489:Source\mbedtls_open\library/ssl_srv.c ****     {
 490:Source\mbedtls_open\library/ssl_srv.c ****         MBEDTLS_SSL_DEBUG_MSG( 1, ( "bad client hello message" ) );
 491:Source\mbedtls_open\library/ssl_srv.c ****         mbedtls_ssl_send_alert_message( ssl, MBEDTLS_SSL_ALERT_LEVEL_FATAL,
 492:Source\mbedtls_open\library/ssl_srv.c ****                                         MBEDTLS_SSL_ALERT_MSG_DECODE_ERROR );
 493:Source\mbedtls_open\library/ssl_srv.c ****         return( MBEDTLS_ERR_SSL_BAD_HS_CLIENT_HELLO );
 494:Source\mbedtls_open\library/ssl_srv.c ****     }
 495:Source\mbedtls_open\library/ssl_srv.c **** 
 496:Source\mbedtls_open\library/ssl_srv.c ****     ((void) buf);
 497:Source\mbedtls_open\library/ssl_srv.c **** 
 498:Source\mbedtls_open\library/ssl_srv.c ****     if( ssl->conf->extended_ms == MBEDTLS_SSL_EXTENDED_MS_ENABLED &&
 499:Source\mbedtls_open\library/ssl_srv.c ****         ssl->minor_ver != MBEDTLS_SSL_MINOR_VERSION_0 )
 500:Source\mbedtls_open\library/ssl_srv.c ****     {
 501:Source\mbedtls_open\library/ssl_srv.c ****         ssl->handshake->extended_ms = MBEDTLS_SSL_EXTENDED_MS_ENABLED;
 502:Source\mbedtls_open\library/ssl_srv.c ****     }
 503:Source\mbedtls_open\library/ssl_srv.c **** 
 504:Source\mbedtls_open\library/ssl_srv.c ****     return( 0 );
 505:Source\mbedtls_open\library/ssl_srv.c **** }
 506:Source\mbedtls_open\library/ssl_srv.c **** #endif /* MBEDTLS_SSL_EXTENDED_MASTER_SECRET */
 507:Source\mbedtls_open\library/ssl_srv.c **** 
 508:Source\mbedtls_open\library/ssl_srv.c **** #if defined(MBEDTLS_SSL_SESSION_TICKETS)
 509:Source\mbedtls_open\library/ssl_srv.c **** static int ssl_parse_session_ticket_ext( mbedtls_ssl_context *ssl,
 510:Source\mbedtls_open\library/ssl_srv.c ****                                          unsigned char *buf,
 511:Source\mbedtls_open\library/ssl_srv.c ****                                          size_t len )
 512:Source\mbedtls_open\library/ssl_srv.c **** {
 513:Source\mbedtls_open\library/ssl_srv.c ****     int ret;
 514:Source\mbedtls_open\library/ssl_srv.c ****     mbedtls_ssl_session session;
 515:Source\mbedtls_open\library/ssl_srv.c **** 
 516:Source\mbedtls_open\library/ssl_srv.c ****     mbedtls_ssl_session_init( &session );
 517:Source\mbedtls_open\library/ssl_srv.c **** 
 518:Source\mbedtls_open\library/ssl_srv.c ****     if( ssl->conf->f_ticket_parse == NULL ||
 519:Source\mbedtls_open\library/ssl_srv.c ****         ssl->conf->f_ticket_write == NULL )
 520:Source\mbedtls_open\library/ssl_srv.c ****     {
 521:Source\mbedtls_open\library/ssl_srv.c ****         return( 0 );
 522:Source\mbedtls_open\library/ssl_srv.c ****     }
 523:Source\mbedtls_open\library/ssl_srv.c **** 
 524:Source\mbedtls_open\library/ssl_srv.c ****     /* Remember the client asked us to send a new ticket */
 525:Source\mbedtls_open\library/ssl_srv.c ****     ssl->handshake->new_session_ticket = 1;
 526:Source\mbedtls_open\library/ssl_srv.c **** 
 527:Source\mbedtls_open\library/ssl_srv.c ****     MBEDTLS_SSL_DEBUG_MSG( 3, ( "ticket length: %d", len ) );
 528:Source\mbedtls_open\library/ssl_srv.c **** 
 529:Source\mbedtls_open\library/ssl_srv.c ****     if( len == 0 )
 530:Source\mbedtls_open\library/ssl_srv.c ****         return( 0 );
 531:Source\mbedtls_open\library/ssl_srv.c **** 
 532:Source\mbedtls_open\library/ssl_srv.c **** #if defined(MBEDTLS_SSL_RENEGOTIATION)
 533:Source\mbedtls_open\library/ssl_srv.c ****     if( ssl->renego_status != MBEDTLS_SSL_INITIAL_HANDSHAKE )
 534:Source\mbedtls_open\library/ssl_srv.c ****     {
 535:Source\mbedtls_open\library/ssl_srv.c ****         MBEDTLS_SSL_DEBUG_MSG( 3, ( "ticket rejected: renegotiating" ) );
 536:Source\mbedtls_open\library/ssl_srv.c ****         return( 0 );
 537:Source\mbedtls_open\library/ssl_srv.c ****     }
 538:Source\mbedtls_open\library/ssl_srv.c **** #endif /* MBEDTLS_SSL_RENEGOTIATION */
 539:Source\mbedtls_open\library/ssl_srv.c **** 
 540:Source\mbedtls_open\library/ssl_srv.c ****     /*
 541:Source\mbedtls_open\library/ssl_srv.c ****      * Failures are ok: just ignore the ticket and proceed.
 542:Source\mbedtls_open\library/ssl_srv.c ****      */
 543:Source\mbedtls_open\library/ssl_srv.c ****     if( ( ret = ssl->conf->f_ticket_parse( ssl->conf->p_ticket, &session,
 544:Source\mbedtls_open\library/ssl_srv.c ****                                            buf, len ) ) != 0 )
ARM GAS  C:\Users\Phuong\AppData\Local\Temp\cct2IqGs.s 			page 11


 545:Source\mbedtls_open\library/ssl_srv.c ****     {
 546:Source\mbedtls_open\library/ssl_srv.c ****         mbedtls_ssl_session_free( &session );
 547:Source\mbedtls_open\library/ssl_srv.c **** 
 548:Source\mbedtls_open\library/ssl_srv.c ****         if( ret == MBEDTLS_ERR_SSL_INVALID_MAC )
 549:Source\mbedtls_open\library/ssl_srv.c ****             MBEDTLS_SSL_DEBUG_MSG( 3, ( "ticket is not authentic" ) );
 550:Source\mbedtls_open\library/ssl_srv.c ****         else if( ret == MBEDTLS_ERR_SSL_SESSION_TICKET_EXPIRED )
 551:Source\mbedtls_open\library/ssl_srv.c ****             MBEDTLS_SSL_DEBUG_MSG( 3, ( "ticket is expired" ) );
 552:Source\mbedtls_open\library/ssl_srv.c ****         else
 553:Source\mbedtls_open\library/ssl_srv.c ****             MBEDTLS_SSL_DEBUG_RET( 1, "mbedtls_ssl_ticket_parse", ret );
 554:Source\mbedtls_open\library/ssl_srv.c **** 
 555:Source\mbedtls_open\library/ssl_srv.c ****         return( 0 );
 556:Source\mbedtls_open\library/ssl_srv.c ****     }
 557:Source\mbedtls_open\library/ssl_srv.c **** 
 558:Source\mbedtls_open\library/ssl_srv.c ****     /*
 559:Source\mbedtls_open\library/ssl_srv.c ****      * Keep the session ID sent by the client, since we MUST send it back to
 560:Source\mbedtls_open\library/ssl_srv.c ****      * inform them we're accepting the ticket  (RFC 5077 section 3.4)
 561:Source\mbedtls_open\library/ssl_srv.c ****      */
 562:Source\mbedtls_open\library/ssl_srv.c ****     session.id_len = ssl->session_negotiate->id_len;
 563:Source\mbedtls_open\library/ssl_srv.c ****     memcpy( &session.id, ssl->session_negotiate->id, session.id_len );
 564:Source\mbedtls_open\library/ssl_srv.c **** 
 565:Source\mbedtls_open\library/ssl_srv.c ****     mbedtls_ssl_session_free( ssl->session_negotiate );
 566:Source\mbedtls_open\library/ssl_srv.c ****     memcpy( ssl->session_negotiate, &session, sizeof( mbedtls_ssl_session ) );
 567:Source\mbedtls_open\library/ssl_srv.c **** 
 568:Source\mbedtls_open\library/ssl_srv.c ****     /* Zeroize instead of free as we copied the content */
 569:Source\mbedtls_open\library/ssl_srv.c ****     mbedtls_platform_zeroize( &session, sizeof( mbedtls_ssl_session ) );
 570:Source\mbedtls_open\library/ssl_srv.c **** 
 571:Source\mbedtls_open\library/ssl_srv.c ****     MBEDTLS_SSL_DEBUG_MSG( 3, ( "session successfully restored from ticket" ) );
 572:Source\mbedtls_open\library/ssl_srv.c **** 
 573:Source\mbedtls_open\library/ssl_srv.c ****     ssl->handshake->resume = 1;
 574:Source\mbedtls_open\library/ssl_srv.c **** 
 575:Source\mbedtls_open\library/ssl_srv.c ****     /* Don't send a new ticket after all, this one is OK */
 576:Source\mbedtls_open\library/ssl_srv.c ****     ssl->handshake->new_session_ticket = 0;
 577:Source\mbedtls_open\library/ssl_srv.c **** 
 578:Source\mbedtls_open\library/ssl_srv.c ****     return( 0 );
 579:Source\mbedtls_open\library/ssl_srv.c **** }
 580:Source\mbedtls_open\library/ssl_srv.c **** #endif /* MBEDTLS_SSL_SESSION_TICKETS */
 581:Source\mbedtls_open\library/ssl_srv.c **** 
 582:Source\mbedtls_open\library/ssl_srv.c **** #if defined(MBEDTLS_SSL_ALPN)
 583:Source\mbedtls_open\library/ssl_srv.c **** static int ssl_parse_alpn_ext( mbedtls_ssl_context *ssl,
 584:Source\mbedtls_open\library/ssl_srv.c ****                                const unsigned char *buf, size_t len )
 585:Source\mbedtls_open\library/ssl_srv.c **** {
 586:Source\mbedtls_open\library/ssl_srv.c ****     size_t list_len, cur_len, ours_len;
 587:Source\mbedtls_open\library/ssl_srv.c ****     const unsigned char *theirs, *start, *end;
 588:Source\mbedtls_open\library/ssl_srv.c ****     const char **ours;
 589:Source\mbedtls_open\library/ssl_srv.c **** 
 590:Source\mbedtls_open\library/ssl_srv.c ****     /* If ALPN not configured, just ignore the extension */
 591:Source\mbedtls_open\library/ssl_srv.c ****     if( ssl->conf->alpn_list == NULL )
 592:Source\mbedtls_open\library/ssl_srv.c ****         return( 0 );
 593:Source\mbedtls_open\library/ssl_srv.c **** 
 594:Source\mbedtls_open\library/ssl_srv.c ****     /*
 595:Source\mbedtls_open\library/ssl_srv.c ****      * opaque ProtocolName<1..2^8-1>;
 596:Source\mbedtls_open\library/ssl_srv.c ****      *
 597:Source\mbedtls_open\library/ssl_srv.c ****      * struct {
 598:Source\mbedtls_open\library/ssl_srv.c ****      *     ProtocolName protocol_name_list<2..2^16-1>
 599:Source\mbedtls_open\library/ssl_srv.c ****      * } ProtocolNameList;
 600:Source\mbedtls_open\library/ssl_srv.c ****      */
 601:Source\mbedtls_open\library/ssl_srv.c **** 
ARM GAS  C:\Users\Phuong\AppData\Local\Temp\cct2IqGs.s 			page 12


 602:Source\mbedtls_open\library/ssl_srv.c ****     /* Min length is 2 (list_len) + 1 (name_len) + 1 (name) */
 603:Source\mbedtls_open\library/ssl_srv.c ****     if( len < 4 )
 604:Source\mbedtls_open\library/ssl_srv.c ****     {
 605:Source\mbedtls_open\library/ssl_srv.c ****         mbedtls_ssl_send_alert_message( ssl, MBEDTLS_SSL_ALERT_LEVEL_FATAL,
 606:Source\mbedtls_open\library/ssl_srv.c ****                                         MBEDTLS_SSL_ALERT_MSG_DECODE_ERROR );
 607:Source\mbedtls_open\library/ssl_srv.c ****         return( MBEDTLS_ERR_SSL_BAD_HS_CLIENT_HELLO );
 608:Source\mbedtls_open\library/ssl_srv.c ****     }
 609:Source\mbedtls_open\library/ssl_srv.c **** 
 610:Source\mbedtls_open\library/ssl_srv.c ****     list_len = ( buf[0] << 8 ) | buf[1];
 611:Source\mbedtls_open\library/ssl_srv.c ****     if( list_len != len - 2 )
 612:Source\mbedtls_open\library/ssl_srv.c ****     {
 613:Source\mbedtls_open\library/ssl_srv.c ****         mbedtls_ssl_send_alert_message( ssl, MBEDTLS_SSL_ALERT_LEVEL_FATAL,
 614:Source\mbedtls_open\library/ssl_srv.c ****                                         MBEDTLS_SSL_ALERT_MSG_DECODE_ERROR );
 615:Source\mbedtls_open\library/ssl_srv.c ****         return( MBEDTLS_ERR_SSL_BAD_HS_CLIENT_HELLO );
 616:Source\mbedtls_open\library/ssl_srv.c ****     }
 617:Source\mbedtls_open\library/ssl_srv.c **** 
 618:Source\mbedtls_open\library/ssl_srv.c ****     /*
 619:Source\mbedtls_open\library/ssl_srv.c ****      * Validate peer's list (lengths)
 620:Source\mbedtls_open\library/ssl_srv.c ****      */
 621:Source\mbedtls_open\library/ssl_srv.c ****     start = buf + 2;
 622:Source\mbedtls_open\library/ssl_srv.c ****     end = buf + len;
 623:Source\mbedtls_open\library/ssl_srv.c ****     for( theirs = start; theirs != end; theirs += cur_len )
 624:Source\mbedtls_open\library/ssl_srv.c ****     {
 625:Source\mbedtls_open\library/ssl_srv.c ****         cur_len = *theirs++;
 626:Source\mbedtls_open\library/ssl_srv.c **** 
 627:Source\mbedtls_open\library/ssl_srv.c ****         /* Current identifier must fit in list */
 628:Source\mbedtls_open\library/ssl_srv.c ****         if( cur_len > (size_t)( end - theirs ) )
 629:Source\mbedtls_open\library/ssl_srv.c ****         {
 630:Source\mbedtls_open\library/ssl_srv.c ****             mbedtls_ssl_send_alert_message( ssl, MBEDTLS_SSL_ALERT_LEVEL_FATAL,
 631:Source\mbedtls_open\library/ssl_srv.c ****                                             MBEDTLS_SSL_ALERT_MSG_DECODE_ERROR );
 632:Source\mbedtls_open\library/ssl_srv.c ****             return( MBEDTLS_ERR_SSL_BAD_HS_CLIENT_HELLO );
 633:Source\mbedtls_open\library/ssl_srv.c ****         }
 634:Source\mbedtls_open\library/ssl_srv.c **** 
 635:Source\mbedtls_open\library/ssl_srv.c ****         /* Empty strings MUST NOT be included */
 636:Source\mbedtls_open\library/ssl_srv.c ****         if( cur_len == 0 )
 637:Source\mbedtls_open\library/ssl_srv.c ****         {
 638:Source\mbedtls_open\library/ssl_srv.c ****             mbedtls_ssl_send_alert_message( ssl, MBEDTLS_SSL_ALERT_LEVEL_FATAL,
 639:Source\mbedtls_open\library/ssl_srv.c ****                                             MBEDTLS_SSL_ALERT_MSG_ILLEGAL_PARAMETER );
 640:Source\mbedtls_open\library/ssl_srv.c ****             return( MBEDTLS_ERR_SSL_BAD_HS_CLIENT_HELLO );
 641:Source\mbedtls_open\library/ssl_srv.c ****         }
 642:Source\mbedtls_open\library/ssl_srv.c ****     }
 643:Source\mbedtls_open\library/ssl_srv.c **** 
 644:Source\mbedtls_open\library/ssl_srv.c ****     /*
 645:Source\mbedtls_open\library/ssl_srv.c ****      * Use our order of preference
 646:Source\mbedtls_open\library/ssl_srv.c ****      */
 647:Source\mbedtls_open\library/ssl_srv.c ****     for( ours = ssl->conf->alpn_list; *ours != NULL; ours++ )
 648:Source\mbedtls_open\library/ssl_srv.c ****     {
 649:Source\mbedtls_open\library/ssl_srv.c ****         ours_len = strlen( *ours );
 650:Source\mbedtls_open\library/ssl_srv.c ****         for( theirs = start; theirs != end; theirs += cur_len )
 651:Source\mbedtls_open\library/ssl_srv.c ****         {
 652:Source\mbedtls_open\library/ssl_srv.c ****             cur_len = *theirs++;
 653:Source\mbedtls_open\library/ssl_srv.c **** 
 654:Source\mbedtls_open\library/ssl_srv.c ****             if( cur_len == ours_len &&
 655:Source\mbedtls_open\library/ssl_srv.c ****                 memcmp( theirs, *ours, cur_len ) == 0 )
 656:Source\mbedtls_open\library/ssl_srv.c ****             {
 657:Source\mbedtls_open\library/ssl_srv.c ****                 ssl->alpn_chosen = *ours;
 658:Source\mbedtls_open\library/ssl_srv.c ****                 return( 0 );
ARM GAS  C:\Users\Phuong\AppData\Local\Temp\cct2IqGs.s 			page 13


 659:Source\mbedtls_open\library/ssl_srv.c ****             }
 660:Source\mbedtls_open\library/ssl_srv.c ****         }
 661:Source\mbedtls_open\library/ssl_srv.c ****     }
 662:Source\mbedtls_open\library/ssl_srv.c **** 
 663:Source\mbedtls_open\library/ssl_srv.c ****     /* If we get there, no match was found */
 664:Source\mbedtls_open\library/ssl_srv.c ****     mbedtls_ssl_send_alert_message( ssl, MBEDTLS_SSL_ALERT_LEVEL_FATAL,
 665:Source\mbedtls_open\library/ssl_srv.c ****                             MBEDTLS_SSL_ALERT_MSG_NO_APPLICATION_PROTOCOL );
 666:Source\mbedtls_open\library/ssl_srv.c ****     return( MBEDTLS_ERR_SSL_BAD_HS_CLIENT_HELLO );
 667:Source\mbedtls_open\library/ssl_srv.c **** }
 668:Source\mbedtls_open\library/ssl_srv.c **** #endif /* MBEDTLS_SSL_ALPN */
 669:Source\mbedtls_open\library/ssl_srv.c **** 
 670:Source\mbedtls_open\library/ssl_srv.c **** /*
 671:Source\mbedtls_open\library/ssl_srv.c ****  * Auxiliary functions for ServerHello parsing and related actions
 672:Source\mbedtls_open\library/ssl_srv.c ****  */
 673:Source\mbedtls_open\library/ssl_srv.c **** 
 674:Source\mbedtls_open\library/ssl_srv.c **** #if defined(MBEDTLS_X509_CRT_PARSE_C)
 675:Source\mbedtls_open\library/ssl_srv.c **** /*
 676:Source\mbedtls_open\library/ssl_srv.c ****  * Return 0 if the given key uses one of the acceptable curves, -1 otherwise
 677:Source\mbedtls_open\library/ssl_srv.c ****  */
 678:Source\mbedtls_open\library/ssl_srv.c **** #if defined(MBEDTLS_ECDSA_C)
 679:Source\mbedtls_open\library/ssl_srv.c **** static int ssl_check_key_curve( mbedtls_pk_context *pk,
 680:Source\mbedtls_open\library/ssl_srv.c ****                                 const mbedtls_ecp_curve_info **curves )
 681:Source\mbedtls_open\library/ssl_srv.c **** {
  27              		.loc 1 681 0
  28              		.cfi_startproc
  29              		@ args = 0, pretend = 0, frame = 8
  30              		@ frame_needed = 0, uses_anonymous_args = 0
  31              	.LVL0:
  32 0000 30B5     		push	{r4, r5, lr}
  33              		.cfi_def_cfa_offset 12
  34              		.cfi_offset 4, -12
  35              		.cfi_offset 5, -8
  36              		.cfi_offset 14, -4
  37 0002 83B0     		sub	sp, sp, #12
  38              		.cfi_def_cfa_offset 24
  39              	.LVL1:
  40 0004 6B46     		mov	r3, sp
  41 0006 0200     		movs	r2, r0
  42 0008 30CA     		ldmia	r2!, {r4, r5}
  43 000a 30C3     		stmia	r3!, {r4, r5}
  44              	.LBB63:
  45              	.LBB64:
  46              		.file 2 ".\\Source\\mbedtls_open\\include/mbedtls/pk.h"
   1:.\Source\mbedtls_open\include/mbedtls/pk.h **** /**
   2:.\Source\mbedtls_open\include/mbedtls/pk.h ****  * \file pk.h
   3:.\Source\mbedtls_open\include/mbedtls/pk.h ****  *
   4:.\Source\mbedtls_open\include/mbedtls/pk.h ****  * \brief Public Key abstraction layer
   5:.\Source\mbedtls_open\include/mbedtls/pk.h ****  */
   6:.\Source\mbedtls_open\include/mbedtls/pk.h **** /*
   7:.\Source\mbedtls_open\include/mbedtls/pk.h ****  *  Copyright (C) 2006-2015, ARM Limited, All Rights Reserved
   8:.\Source\mbedtls_open\include/mbedtls/pk.h ****  *  SPDX-License-Identifier: Apache-2.0
   9:.\Source\mbedtls_open\include/mbedtls/pk.h ****  *
  10:.\Source\mbedtls_open\include/mbedtls/pk.h ****  *  Licensed under the Apache License, Version 2.0 (the "License"); you may
  11:.\Source\mbedtls_open\include/mbedtls/pk.h ****  *  not use this file except in compliance with the License.
  12:.\Source\mbedtls_open\include/mbedtls/pk.h ****  *  You may obtain a copy of the License at
  13:.\Source\mbedtls_open\include/mbedtls/pk.h ****  *
  14:.\Source\mbedtls_open\include/mbedtls/pk.h ****  *  http://www.apache.org/licenses/LICENSE-2.0
ARM GAS  C:\Users\Phuong\AppData\Local\Temp\cct2IqGs.s 			page 14


  15:.\Source\mbedtls_open\include/mbedtls/pk.h ****  *
  16:.\Source\mbedtls_open\include/mbedtls/pk.h ****  *  Unless required by applicable law or agreed to in writing, software
  17:.\Source\mbedtls_open\include/mbedtls/pk.h ****  *  distributed under the License is distributed on an "AS IS" BASIS, WITHOUT
  18:.\Source\mbedtls_open\include/mbedtls/pk.h ****  *  WARRANTIES OR CONDITIONS OF ANY KIND, either express or implied.
  19:.\Source\mbedtls_open\include/mbedtls/pk.h ****  *  See the License for the specific language governing permissions and
  20:.\Source\mbedtls_open\include/mbedtls/pk.h ****  *  limitations under the License.
  21:.\Source\mbedtls_open\include/mbedtls/pk.h ****  *
  22:.\Source\mbedtls_open\include/mbedtls/pk.h ****  *  This file is part of mbed TLS (https://tls.mbed.org)
  23:.\Source\mbedtls_open\include/mbedtls/pk.h ****  */
  24:.\Source\mbedtls_open\include/mbedtls/pk.h **** 
  25:.\Source\mbedtls_open\include/mbedtls/pk.h **** #ifndef MBEDTLS_PK_H
  26:.\Source\mbedtls_open\include/mbedtls/pk.h **** #define MBEDTLS_PK_H
  27:.\Source\mbedtls_open\include/mbedtls/pk.h **** 
  28:.\Source\mbedtls_open\include/mbedtls/pk.h **** #if !defined(MBEDTLS_CONFIG_FILE)
  29:.\Source\mbedtls_open\include/mbedtls/pk.h **** #include "config.h"
  30:.\Source\mbedtls_open\include/mbedtls/pk.h **** #else
  31:.\Source\mbedtls_open\include/mbedtls/pk.h **** #include MBEDTLS_CONFIG_FILE
  32:.\Source\mbedtls_open\include/mbedtls/pk.h **** #endif
  33:.\Source\mbedtls_open\include/mbedtls/pk.h **** 
  34:.\Source\mbedtls_open\include/mbedtls/pk.h **** #include "md.h"
  35:.\Source\mbedtls_open\include/mbedtls/pk.h **** 
  36:.\Source\mbedtls_open\include/mbedtls/pk.h **** #if defined(MBEDTLS_RSA_C)
  37:.\Source\mbedtls_open\include/mbedtls/pk.h **** #include "rsa.h"
  38:.\Source\mbedtls_open\include/mbedtls/pk.h **** #endif
  39:.\Source\mbedtls_open\include/mbedtls/pk.h **** 
  40:.\Source\mbedtls_open\include/mbedtls/pk.h **** #if defined(MBEDTLS_ECP_C)
  41:.\Source\mbedtls_open\include/mbedtls/pk.h **** #include "ecp.h"
  42:.\Source\mbedtls_open\include/mbedtls/pk.h **** #endif
  43:.\Source\mbedtls_open\include/mbedtls/pk.h **** 
  44:.\Source\mbedtls_open\include/mbedtls/pk.h **** #if defined(MBEDTLS_ECDSA_C)
  45:.\Source\mbedtls_open\include/mbedtls/pk.h **** #include "ecdsa.h"
  46:.\Source\mbedtls_open\include/mbedtls/pk.h **** #endif
  47:.\Source\mbedtls_open\include/mbedtls/pk.h **** 
  48:.\Source\mbedtls_open\include/mbedtls/pk.h **** #if ( defined(__ARMCC_VERSION) || defined(_MSC_VER) ) && \
  49:.\Source\mbedtls_open\include/mbedtls/pk.h ****     !defined(inline) && !defined(__cplusplus)
  50:.\Source\mbedtls_open\include/mbedtls/pk.h **** #define inline __inline
  51:.\Source\mbedtls_open\include/mbedtls/pk.h **** #endif
  52:.\Source\mbedtls_open\include/mbedtls/pk.h **** 
  53:.\Source\mbedtls_open\include/mbedtls/pk.h **** #define MBEDTLS_ERR_PK_ALLOC_FAILED        -0x3F80  /**< Memory allocation failed. */
  54:.\Source\mbedtls_open\include/mbedtls/pk.h **** #define MBEDTLS_ERR_PK_TYPE_MISMATCH       -0x3F00  /**< Type mismatch, eg attempt to encrypt with 
  55:.\Source\mbedtls_open\include/mbedtls/pk.h **** #define MBEDTLS_ERR_PK_BAD_INPUT_DATA      -0x3E80  /**< Bad input parameters to function. */
  56:.\Source\mbedtls_open\include/mbedtls/pk.h **** #define MBEDTLS_ERR_PK_FILE_IO_ERROR       -0x3E00  /**< Read/write of file failed. */
  57:.\Source\mbedtls_open\include/mbedtls/pk.h **** #define MBEDTLS_ERR_PK_KEY_INVALID_VERSION -0x3D80  /**< Unsupported key version */
  58:.\Source\mbedtls_open\include/mbedtls/pk.h **** #define MBEDTLS_ERR_PK_KEY_INVALID_FORMAT  -0x3D00  /**< Invalid key tag or value. */
  59:.\Source\mbedtls_open\include/mbedtls/pk.h **** #define MBEDTLS_ERR_PK_UNKNOWN_PK_ALG      -0x3C80  /**< Key algorithm is unsupported (only RSA and
  60:.\Source\mbedtls_open\include/mbedtls/pk.h **** #define MBEDTLS_ERR_PK_PASSWORD_REQUIRED   -0x3C00  /**< Private key password can't be empty. */
  61:.\Source\mbedtls_open\include/mbedtls/pk.h **** #define MBEDTLS_ERR_PK_PASSWORD_MISMATCH   -0x3B80  /**< Given private key password does not allow 
  62:.\Source\mbedtls_open\include/mbedtls/pk.h **** #define MBEDTLS_ERR_PK_INVALID_PUBKEY      -0x3B00  /**< The pubkey tag or value is invalid (only R
  63:.\Source\mbedtls_open\include/mbedtls/pk.h **** #define MBEDTLS_ERR_PK_INVALID_ALG         -0x3A80  /**< The algorithm tag or value is invalid. */
  64:.\Source\mbedtls_open\include/mbedtls/pk.h **** #define MBEDTLS_ERR_PK_UNKNOWN_NAMED_CURVE -0x3A00  /**< Elliptic curve is unsupported (only NIST c
  65:.\Source\mbedtls_open\include/mbedtls/pk.h **** #define MBEDTLS_ERR_PK_FEATURE_UNAVAILABLE -0x3980  /**< Unavailable feature, e.g. RSA disabled for
  66:.\Source\mbedtls_open\include/mbedtls/pk.h **** #define MBEDTLS_ERR_PK_SIG_LEN_MISMATCH    -0x3900  /**< The buffer contains a valid signature foll
  67:.\Source\mbedtls_open\include/mbedtls/pk.h **** #define MBEDTLS_ERR_PK_HW_ACCEL_FAILED     -0x3880  /**< PK hardware accelerator failed. */
  68:.\Source\mbedtls_open\include/mbedtls/pk.h **** 
  69:.\Source\mbedtls_open\include/mbedtls/pk.h **** #ifdef __cplusplus
  70:.\Source\mbedtls_open\include/mbedtls/pk.h **** extern "C" {
  71:.\Source\mbedtls_open\include/mbedtls/pk.h **** #endif
ARM GAS  C:\Users\Phuong\AppData\Local\Temp\cct2IqGs.s 			page 15


  72:.\Source\mbedtls_open\include/mbedtls/pk.h **** 
  73:.\Source\mbedtls_open\include/mbedtls/pk.h **** /**
  74:.\Source\mbedtls_open\include/mbedtls/pk.h ****  * \brief          Public key types
  75:.\Source\mbedtls_open\include/mbedtls/pk.h ****  */
  76:.\Source\mbedtls_open\include/mbedtls/pk.h **** typedef enum {
  77:.\Source\mbedtls_open\include/mbedtls/pk.h ****     MBEDTLS_PK_NONE=0,
  78:.\Source\mbedtls_open\include/mbedtls/pk.h ****     MBEDTLS_PK_RSA,
  79:.\Source\mbedtls_open\include/mbedtls/pk.h ****     MBEDTLS_PK_ECKEY,
  80:.\Source\mbedtls_open\include/mbedtls/pk.h ****     MBEDTLS_PK_ECKEY_DH,
  81:.\Source\mbedtls_open\include/mbedtls/pk.h ****     MBEDTLS_PK_ECDSA,
  82:.\Source\mbedtls_open\include/mbedtls/pk.h ****     MBEDTLS_PK_RSA_ALT,
  83:.\Source\mbedtls_open\include/mbedtls/pk.h ****     MBEDTLS_PK_RSASSA_PSS,
  84:.\Source\mbedtls_open\include/mbedtls/pk.h **** } mbedtls_pk_type_t;
  85:.\Source\mbedtls_open\include/mbedtls/pk.h **** 
  86:.\Source\mbedtls_open\include/mbedtls/pk.h **** /**
  87:.\Source\mbedtls_open\include/mbedtls/pk.h ****  * \brief           Options for RSASSA-PSS signature verification.
  88:.\Source\mbedtls_open\include/mbedtls/pk.h ****  *                  See \c mbedtls_rsa_rsassa_pss_verify_ext()
  89:.\Source\mbedtls_open\include/mbedtls/pk.h ****  */
  90:.\Source\mbedtls_open\include/mbedtls/pk.h **** typedef struct mbedtls_pk_rsassa_pss_options
  91:.\Source\mbedtls_open\include/mbedtls/pk.h **** {
  92:.\Source\mbedtls_open\include/mbedtls/pk.h ****     mbedtls_md_type_t mgf1_hash_id;
  93:.\Source\mbedtls_open\include/mbedtls/pk.h ****     int expected_salt_len;
  94:.\Source\mbedtls_open\include/mbedtls/pk.h **** 
  95:.\Source\mbedtls_open\include/mbedtls/pk.h **** } mbedtls_pk_rsassa_pss_options;
  96:.\Source\mbedtls_open\include/mbedtls/pk.h **** 
  97:.\Source\mbedtls_open\include/mbedtls/pk.h **** /**
  98:.\Source\mbedtls_open\include/mbedtls/pk.h ****  * \brief           Types for interfacing with the debug module
  99:.\Source\mbedtls_open\include/mbedtls/pk.h ****  */
 100:.\Source\mbedtls_open\include/mbedtls/pk.h **** typedef enum
 101:.\Source\mbedtls_open\include/mbedtls/pk.h **** {
 102:.\Source\mbedtls_open\include/mbedtls/pk.h ****     MBEDTLS_PK_DEBUG_NONE = 0,
 103:.\Source\mbedtls_open\include/mbedtls/pk.h ****     MBEDTLS_PK_DEBUG_MPI,
 104:.\Source\mbedtls_open\include/mbedtls/pk.h ****     MBEDTLS_PK_DEBUG_ECP,
 105:.\Source\mbedtls_open\include/mbedtls/pk.h **** } mbedtls_pk_debug_type;
 106:.\Source\mbedtls_open\include/mbedtls/pk.h **** 
 107:.\Source\mbedtls_open\include/mbedtls/pk.h **** /**
 108:.\Source\mbedtls_open\include/mbedtls/pk.h ****  * \brief           Item to send to the debug module
 109:.\Source\mbedtls_open\include/mbedtls/pk.h ****  */
 110:.\Source\mbedtls_open\include/mbedtls/pk.h **** typedef struct mbedtls_pk_debug_item
 111:.\Source\mbedtls_open\include/mbedtls/pk.h **** {
 112:.\Source\mbedtls_open\include/mbedtls/pk.h ****     mbedtls_pk_debug_type type;
 113:.\Source\mbedtls_open\include/mbedtls/pk.h ****     const char *name;
 114:.\Source\mbedtls_open\include/mbedtls/pk.h ****     void *value;
 115:.\Source\mbedtls_open\include/mbedtls/pk.h **** } mbedtls_pk_debug_item;
 116:.\Source\mbedtls_open\include/mbedtls/pk.h **** 
 117:.\Source\mbedtls_open\include/mbedtls/pk.h **** /** Maximum number of item send for debugging, plus 1 */
 118:.\Source\mbedtls_open\include/mbedtls/pk.h **** #define MBEDTLS_PK_DEBUG_MAX_ITEMS 3
 119:.\Source\mbedtls_open\include/mbedtls/pk.h **** 
 120:.\Source\mbedtls_open\include/mbedtls/pk.h **** /**
 121:.\Source\mbedtls_open\include/mbedtls/pk.h ****  * \brief           Public key information and operations
 122:.\Source\mbedtls_open\include/mbedtls/pk.h ****  */
 123:.\Source\mbedtls_open\include/mbedtls/pk.h **** typedef struct mbedtls_pk_info_t mbedtls_pk_info_t;
 124:.\Source\mbedtls_open\include/mbedtls/pk.h **** 
 125:.\Source\mbedtls_open\include/mbedtls/pk.h **** /**
 126:.\Source\mbedtls_open\include/mbedtls/pk.h ****  * \brief           Public key container
 127:.\Source\mbedtls_open\include/mbedtls/pk.h ****  */
 128:.\Source\mbedtls_open\include/mbedtls/pk.h **** typedef struct mbedtls_pk_context
ARM GAS  C:\Users\Phuong\AppData\Local\Temp\cct2IqGs.s 			page 16


 129:.\Source\mbedtls_open\include/mbedtls/pk.h **** {
 130:.\Source\mbedtls_open\include/mbedtls/pk.h ****     const mbedtls_pk_info_t *   pk_info; /**< Public key information         */
 131:.\Source\mbedtls_open\include/mbedtls/pk.h ****     void *                      pk_ctx;  /**< Underlying public key context  */
 132:.\Source\mbedtls_open\include/mbedtls/pk.h **** } mbedtls_pk_context;
 133:.\Source\mbedtls_open\include/mbedtls/pk.h **** 
 134:.\Source\mbedtls_open\include/mbedtls/pk.h **** #if defined(MBEDTLS_ECDSA_C) && defined(MBEDTLS_ECP_RESTARTABLE)
 135:.\Source\mbedtls_open\include/mbedtls/pk.h **** /**
 136:.\Source\mbedtls_open\include/mbedtls/pk.h ****  * \brief           Context for resuming operations
 137:.\Source\mbedtls_open\include/mbedtls/pk.h ****  */
 138:.\Source\mbedtls_open\include/mbedtls/pk.h **** typedef struct
 139:.\Source\mbedtls_open\include/mbedtls/pk.h **** {
 140:.\Source\mbedtls_open\include/mbedtls/pk.h ****     const mbedtls_pk_info_t *   pk_info; /**< Public key information         */
 141:.\Source\mbedtls_open\include/mbedtls/pk.h ****     void *                      rs_ctx;  /**< Underlying restart context     */
 142:.\Source\mbedtls_open\include/mbedtls/pk.h **** } mbedtls_pk_restart_ctx;
 143:.\Source\mbedtls_open\include/mbedtls/pk.h **** #else /* MBEDTLS_ECDSA_C && MBEDTLS_ECP_RESTARTABLE */
 144:.\Source\mbedtls_open\include/mbedtls/pk.h **** /* Now we can declare functions that take a pointer to that */
 145:.\Source\mbedtls_open\include/mbedtls/pk.h **** typedef void mbedtls_pk_restart_ctx;
 146:.\Source\mbedtls_open\include/mbedtls/pk.h **** #endif /* MBEDTLS_ECDSA_C && MBEDTLS_ECP_RESTARTABLE */
 147:.\Source\mbedtls_open\include/mbedtls/pk.h **** 
 148:.\Source\mbedtls_open\include/mbedtls/pk.h **** #if defined(MBEDTLS_RSA_C)
 149:.\Source\mbedtls_open\include/mbedtls/pk.h **** /**
 150:.\Source\mbedtls_open\include/mbedtls/pk.h ****  * Quick access to an RSA context inside a PK context.
 151:.\Source\mbedtls_open\include/mbedtls/pk.h ****  *
 152:.\Source\mbedtls_open\include/mbedtls/pk.h ****  * \warning You must make sure the PK context actually holds an RSA context
 153:.\Source\mbedtls_open\include/mbedtls/pk.h ****  * before using this function!
 154:.\Source\mbedtls_open\include/mbedtls/pk.h ****  */
 155:.\Source\mbedtls_open\include/mbedtls/pk.h **** static inline mbedtls_rsa_context *mbedtls_pk_rsa( const mbedtls_pk_context pk )
 156:.\Source\mbedtls_open\include/mbedtls/pk.h **** {
 157:.\Source\mbedtls_open\include/mbedtls/pk.h ****     return( (mbedtls_rsa_context *) (pk).pk_ctx );
 158:.\Source\mbedtls_open\include/mbedtls/pk.h **** }
 159:.\Source\mbedtls_open\include/mbedtls/pk.h **** #endif /* MBEDTLS_RSA_C */
 160:.\Source\mbedtls_open\include/mbedtls/pk.h **** 
 161:.\Source\mbedtls_open\include/mbedtls/pk.h **** #if defined(MBEDTLS_ECP_C)
 162:.\Source\mbedtls_open\include/mbedtls/pk.h **** /**
 163:.\Source\mbedtls_open\include/mbedtls/pk.h ****  * Quick access to an EC context inside a PK context.
 164:.\Source\mbedtls_open\include/mbedtls/pk.h ****  *
 165:.\Source\mbedtls_open\include/mbedtls/pk.h ****  * \warning You must make sure the PK context actually holds an EC context
 166:.\Source\mbedtls_open\include/mbedtls/pk.h ****  * before using this function!
 167:.\Source\mbedtls_open\include/mbedtls/pk.h ****  */
 168:.\Source\mbedtls_open\include/mbedtls/pk.h **** static inline mbedtls_ecp_keypair *mbedtls_pk_ec( const mbedtls_pk_context pk )
 169:.\Source\mbedtls_open\include/mbedtls/pk.h **** {
 170:.\Source\mbedtls_open\include/mbedtls/pk.h ****     return( (mbedtls_ecp_keypair *) (pk).pk_ctx );
  47              		.loc 2 170 0
  48 000c 4368     		ldr	r3, [r0, #4]
  49              	.LBE64:
  50              	.LBE63:
 682:Source\mbedtls_open\library/ssl_srv.c ****     const mbedtls_ecp_curve_info **crv = curves;
 683:Source\mbedtls_open\library/ssl_srv.c ****     mbedtls_ecp_group_id grp_id = mbedtls_pk_ec( *pk )->grp.id;
  51              		.loc 1 683 0
  52 000e 1A78     		ldrb	r2, [r3]
  53              	.LVL2:
 684:Source\mbedtls_open\library/ssl_srv.c **** 
 685:Source\mbedtls_open\library/ssl_srv.c ****     while( *crv != NULL )
  54              		.loc 1 685 0
  55 0010 03E0     		b	.L2
  56              	.LVL3:
  57              	.L4:
ARM GAS  C:\Users\Phuong\AppData\Local\Temp\cct2IqGs.s 			page 17


 686:Source\mbedtls_open\library/ssl_srv.c ****     {
 687:Source\mbedtls_open\library/ssl_srv.c ****         if( (*crv)->grp_id == grp_id )
  58              		.loc 1 687 0
  59 0012 1B78     		ldrb	r3, [r3]
  60 0014 9A42     		cmp	r2, r3
  61 0016 06D0     		beq	.L5
 688:Source\mbedtls_open\library/ssl_srv.c ****             return( 0 );
 689:Source\mbedtls_open\library/ssl_srv.c ****         crv++;
  62              		.loc 1 689 0
  63 0018 0431     		adds	r1, r1, #4
  64              	.LVL4:
  65              	.L2:
 685:Source\mbedtls_open\library/ssl_srv.c ****     {
  66              		.loc 1 685 0
  67 001a 0B68     		ldr	r3, [r1]
  68 001c 002B     		cmp	r3, #0
  69 001e F8D1     		bne	.L4
 690:Source\mbedtls_open\library/ssl_srv.c ****     }
 691:Source\mbedtls_open\library/ssl_srv.c **** 
 692:Source\mbedtls_open\library/ssl_srv.c ****     return( -1 );
  70              		.loc 1 692 0
  71 0020 0120     		movs	r0, #1
  72              	.LVL5:
  73 0022 4042     		rsbs	r0, r0, #0
  74 0024 00E0     		b	.L3
  75              	.LVL6:
  76              	.L5:
 688:Source\mbedtls_open\library/ssl_srv.c ****         crv++;
  77              		.loc 1 688 0
  78 0026 0020     		movs	r0, #0
  79              	.LVL7:
  80              	.L3:
 693:Source\mbedtls_open\library/ssl_srv.c **** }
  81              		.loc 1 693 0
  82 0028 03B0     		add	sp, sp, #12
  83              		@ sp needed
  84 002a 30BD     		pop	{r4, r5, pc}
  85              		.cfi_endproc
  86              	.LFE37:
  87              		.size	ssl_check_key_curve, .-ssl_check_key_curve
  88              		.section	.text.ssl_write_renegotiation_ext,"ax",%progbits
  89              		.align	2
  90              		.code	16
  91              		.thumb_func
  92              		.type	ssl_write_renegotiation_ext, %function
  93              	ssl_write_renegotiation_ext:
  94              	.LFB45:
 694:Source\mbedtls_open\library/ssl_srv.c **** #endif /* MBEDTLS_ECDSA_C */
 695:Source\mbedtls_open\library/ssl_srv.c **** 
 696:Source\mbedtls_open\library/ssl_srv.c **** /*
 697:Source\mbedtls_open\library/ssl_srv.c ****  * Try picking a certificate for this ciphersuite,
 698:Source\mbedtls_open\library/ssl_srv.c ****  * return 0 on success and -1 on failure.
 699:Source\mbedtls_open\library/ssl_srv.c ****  */
 700:Source\mbedtls_open\library/ssl_srv.c **** static int ssl_pick_cert( mbedtls_ssl_context *ssl,
 701:Source\mbedtls_open\library/ssl_srv.c ****                           const mbedtls_ssl_ciphersuite_t * ciphersuite_info )
 702:Source\mbedtls_open\library/ssl_srv.c **** {
 703:Source\mbedtls_open\library/ssl_srv.c ****     mbedtls_ssl_key_cert *cur, *list, *fallback = NULL;
ARM GAS  C:\Users\Phuong\AppData\Local\Temp\cct2IqGs.s 			page 18


 704:Source\mbedtls_open\library/ssl_srv.c ****     mbedtls_pk_type_t pk_alg =
 705:Source\mbedtls_open\library/ssl_srv.c ****         mbedtls_ssl_get_ciphersuite_sig_pk_alg( ciphersuite_info );
 706:Source\mbedtls_open\library/ssl_srv.c ****     uint32_t flags;
 707:Source\mbedtls_open\library/ssl_srv.c **** 
 708:Source\mbedtls_open\library/ssl_srv.c **** #if defined(MBEDTLS_SSL_SERVER_NAME_INDICATION)
 709:Source\mbedtls_open\library/ssl_srv.c ****     if( ssl->handshake->sni_key_cert != NULL )
 710:Source\mbedtls_open\library/ssl_srv.c ****         list = ssl->handshake->sni_key_cert;
 711:Source\mbedtls_open\library/ssl_srv.c ****     else
 712:Source\mbedtls_open\library/ssl_srv.c **** #endif
 713:Source\mbedtls_open\library/ssl_srv.c ****         list = ssl->conf->key_cert;
 714:Source\mbedtls_open\library/ssl_srv.c **** 
 715:Source\mbedtls_open\library/ssl_srv.c ****     if( pk_alg == MBEDTLS_PK_NONE )
 716:Source\mbedtls_open\library/ssl_srv.c ****         return( 0 );
 717:Source\mbedtls_open\library/ssl_srv.c **** 
 718:Source\mbedtls_open\library/ssl_srv.c ****     MBEDTLS_SSL_DEBUG_MSG( 3, ( "ciphersuite requires certificate" ) );
 719:Source\mbedtls_open\library/ssl_srv.c **** 
 720:Source\mbedtls_open\library/ssl_srv.c ****     if( list == NULL )
 721:Source\mbedtls_open\library/ssl_srv.c ****     {
 722:Source\mbedtls_open\library/ssl_srv.c ****         MBEDTLS_SSL_DEBUG_MSG( 3, ( "server has no certificate" ) );
 723:Source\mbedtls_open\library/ssl_srv.c ****         return( -1 );
 724:Source\mbedtls_open\library/ssl_srv.c ****     }
 725:Source\mbedtls_open\library/ssl_srv.c **** 
 726:Source\mbedtls_open\library/ssl_srv.c ****     for( cur = list; cur != NULL; cur = cur->next )
 727:Source\mbedtls_open\library/ssl_srv.c ****     {
 728:Source\mbedtls_open\library/ssl_srv.c ****         MBEDTLS_SSL_DEBUG_CRT( 3, "candidate certificate chain, certificate",
 729:Source\mbedtls_open\library/ssl_srv.c ****                           cur->cert );
 730:Source\mbedtls_open\library/ssl_srv.c **** 
 731:Source\mbedtls_open\library/ssl_srv.c ****         if( ! mbedtls_pk_can_do( &cur->cert->pk, pk_alg ) )
 732:Source\mbedtls_open\library/ssl_srv.c ****         {
 733:Source\mbedtls_open\library/ssl_srv.c ****             MBEDTLS_SSL_DEBUG_MSG( 3, ( "certificate mismatch: key type" ) );
 734:Source\mbedtls_open\library/ssl_srv.c ****             continue;
 735:Source\mbedtls_open\library/ssl_srv.c ****         }
 736:Source\mbedtls_open\library/ssl_srv.c **** 
 737:Source\mbedtls_open\library/ssl_srv.c ****         /*
 738:Source\mbedtls_open\library/ssl_srv.c ****          * This avoids sending the client a cert it'll reject based on
 739:Source\mbedtls_open\library/ssl_srv.c ****          * keyUsage or other extensions.
 740:Source\mbedtls_open\library/ssl_srv.c ****          *
 741:Source\mbedtls_open\library/ssl_srv.c ****          * It also allows the user to provision different certificates for
 742:Source\mbedtls_open\library/ssl_srv.c ****          * different uses based on keyUsage, eg if they want to avoid signing
 743:Source\mbedtls_open\library/ssl_srv.c ****          * and decrypting with the same RSA key.
 744:Source\mbedtls_open\library/ssl_srv.c ****          */
 745:Source\mbedtls_open\library/ssl_srv.c ****         if( mbedtls_ssl_check_cert_usage( cur->cert, ciphersuite_info,
 746:Source\mbedtls_open\library/ssl_srv.c ****                                   MBEDTLS_SSL_IS_SERVER, &flags ) != 0 )
 747:Source\mbedtls_open\library/ssl_srv.c ****         {
 748:Source\mbedtls_open\library/ssl_srv.c ****             MBEDTLS_SSL_DEBUG_MSG( 3, ( "certificate mismatch: "
 749:Source\mbedtls_open\library/ssl_srv.c ****                                 "(extended) key usage extension" ) );
 750:Source\mbedtls_open\library/ssl_srv.c ****             continue;
 751:Source\mbedtls_open\library/ssl_srv.c ****         }
 752:Source\mbedtls_open\library/ssl_srv.c **** 
 753:Source\mbedtls_open\library/ssl_srv.c **** #if defined(MBEDTLS_ECDSA_C)
 754:Source\mbedtls_open\library/ssl_srv.c ****         if( pk_alg == MBEDTLS_PK_ECDSA &&
 755:Source\mbedtls_open\library/ssl_srv.c ****             ssl_check_key_curve( &cur->cert->pk, ssl->handshake->curves ) != 0 )
 756:Source\mbedtls_open\library/ssl_srv.c ****         {
 757:Source\mbedtls_open\library/ssl_srv.c ****             MBEDTLS_SSL_DEBUG_MSG( 3, ( "certificate mismatch: elliptic curve" ) );
 758:Source\mbedtls_open\library/ssl_srv.c ****             continue;
 759:Source\mbedtls_open\library/ssl_srv.c ****         }
 760:Source\mbedtls_open\library/ssl_srv.c **** #endif
ARM GAS  C:\Users\Phuong\AppData\Local\Temp\cct2IqGs.s 			page 19


 761:Source\mbedtls_open\library/ssl_srv.c **** 
 762:Source\mbedtls_open\library/ssl_srv.c ****         /*
 763:Source\mbedtls_open\library/ssl_srv.c ****          * Try to select a SHA-1 certificate for pre-1.2 clients, but still
 764:Source\mbedtls_open\library/ssl_srv.c ****          * present them a SHA-higher cert rather than failing if it's the only
 765:Source\mbedtls_open\library/ssl_srv.c ****          * one we got that satisfies the other conditions.
 766:Source\mbedtls_open\library/ssl_srv.c ****          */
 767:Source\mbedtls_open\library/ssl_srv.c ****         if( ssl->minor_ver < MBEDTLS_SSL_MINOR_VERSION_3 &&
 768:Source\mbedtls_open\library/ssl_srv.c ****             cur->cert->sig_md != MBEDTLS_MD_SHA1 )
 769:Source\mbedtls_open\library/ssl_srv.c ****         {
 770:Source\mbedtls_open\library/ssl_srv.c ****             if( fallback == NULL )
 771:Source\mbedtls_open\library/ssl_srv.c ****                 fallback = cur;
 772:Source\mbedtls_open\library/ssl_srv.c ****             {
 773:Source\mbedtls_open\library/ssl_srv.c ****                 MBEDTLS_SSL_DEBUG_MSG( 3, ( "certificate not preferred: "
 774:Source\mbedtls_open\library/ssl_srv.c ****                                     "sha-2 with pre-TLS 1.2 client" ) );
 775:Source\mbedtls_open\library/ssl_srv.c ****             continue;
 776:Source\mbedtls_open\library/ssl_srv.c ****             }
 777:Source\mbedtls_open\library/ssl_srv.c ****         }
 778:Source\mbedtls_open\library/ssl_srv.c **** 
 779:Source\mbedtls_open\library/ssl_srv.c ****         /* If we get there, we got a winner */
 780:Source\mbedtls_open\library/ssl_srv.c ****         break;
 781:Source\mbedtls_open\library/ssl_srv.c ****     }
 782:Source\mbedtls_open\library/ssl_srv.c **** 
 783:Source\mbedtls_open\library/ssl_srv.c ****     if( cur == NULL )
 784:Source\mbedtls_open\library/ssl_srv.c ****         cur = fallback;
 785:Source\mbedtls_open\library/ssl_srv.c **** 
 786:Source\mbedtls_open\library/ssl_srv.c ****     /* Do not update ssl->handshake->key_cert unless there is a match */
 787:Source\mbedtls_open\library/ssl_srv.c ****     if( cur != NULL )
 788:Source\mbedtls_open\library/ssl_srv.c ****     {
 789:Source\mbedtls_open\library/ssl_srv.c ****         ssl->handshake->key_cert = cur;
 790:Source\mbedtls_open\library/ssl_srv.c ****         MBEDTLS_SSL_DEBUG_CRT( 3, "selected certificate chain, certificate",
 791:Source\mbedtls_open\library/ssl_srv.c ****                           ssl->handshake->key_cert->cert );
 792:Source\mbedtls_open\library/ssl_srv.c ****         return( 0 );
 793:Source\mbedtls_open\library/ssl_srv.c ****     }
 794:Source\mbedtls_open\library/ssl_srv.c **** 
 795:Source\mbedtls_open\library/ssl_srv.c ****     return( -1 );
 796:Source\mbedtls_open\library/ssl_srv.c **** }
 797:Source\mbedtls_open\library/ssl_srv.c **** #endif /* MBEDTLS_X509_CRT_PARSE_C */
 798:Source\mbedtls_open\library/ssl_srv.c **** 
 799:Source\mbedtls_open\library/ssl_srv.c **** /*
 800:Source\mbedtls_open\library/ssl_srv.c ****  * Check if a given ciphersuite is suitable for use with our config/keys/etc
 801:Source\mbedtls_open\library/ssl_srv.c ****  * Sets ciphersuite_info only if the suite matches.
 802:Source\mbedtls_open\library/ssl_srv.c ****  */
 803:Source\mbedtls_open\library/ssl_srv.c **** static int ssl_ciphersuite_match( mbedtls_ssl_context *ssl, int suite_id,
 804:Source\mbedtls_open\library/ssl_srv.c ****                                   const mbedtls_ssl_ciphersuite_t **ciphersuite_info )
 805:Source\mbedtls_open\library/ssl_srv.c **** {
 806:Source\mbedtls_open\library/ssl_srv.c ****     const mbedtls_ssl_ciphersuite_t *suite_info;
 807:Source\mbedtls_open\library/ssl_srv.c **** 
 808:Source\mbedtls_open\library/ssl_srv.c **** #if defined(MBEDTLS_SSL_PROTO_TLS1_2) && \
 809:Source\mbedtls_open\library/ssl_srv.c ****     defined(MBEDTLS_KEY_EXCHANGE__WITH_CERT__ENABLED)
 810:Source\mbedtls_open\library/ssl_srv.c ****     mbedtls_pk_type_t sig_type;
 811:Source\mbedtls_open\library/ssl_srv.c **** #endif
 812:Source\mbedtls_open\library/ssl_srv.c **** 
 813:Source\mbedtls_open\library/ssl_srv.c ****     suite_info = mbedtls_ssl_ciphersuite_from_id( suite_id );
 814:Source\mbedtls_open\library/ssl_srv.c ****     if( suite_info == NULL )
 815:Source\mbedtls_open\library/ssl_srv.c ****     {
 816:Source\mbedtls_open\library/ssl_srv.c ****         MBEDTLS_SSL_DEBUG_MSG( 1, ( "should never happen" ) );
 817:Source\mbedtls_open\library/ssl_srv.c ****         return( MBEDTLS_ERR_SSL_INTERNAL_ERROR );
ARM GAS  C:\Users\Phuong\AppData\Local\Temp\cct2IqGs.s 			page 20


 818:Source\mbedtls_open\library/ssl_srv.c ****     }
 819:Source\mbedtls_open\library/ssl_srv.c **** 
 820:Source\mbedtls_open\library/ssl_srv.c ****     MBEDTLS_SSL_DEBUG_MSG( 3, ( "trying ciphersuite: %s", suite_info->name ) );
 821:Source\mbedtls_open\library/ssl_srv.c **** 
 822:Source\mbedtls_open\library/ssl_srv.c ****     if( suite_info->min_minor_ver > ssl->minor_ver ||
 823:Source\mbedtls_open\library/ssl_srv.c ****         suite_info->max_minor_ver < ssl->minor_ver )
 824:Source\mbedtls_open\library/ssl_srv.c ****     {
 825:Source\mbedtls_open\library/ssl_srv.c ****         MBEDTLS_SSL_DEBUG_MSG( 3, ( "ciphersuite mismatch: version" ) );
 826:Source\mbedtls_open\library/ssl_srv.c ****         return( 0 );
 827:Source\mbedtls_open\library/ssl_srv.c ****     }
 828:Source\mbedtls_open\library/ssl_srv.c **** 
 829:Source\mbedtls_open\library/ssl_srv.c **** #if defined(MBEDTLS_SSL_PROTO_DTLS)
 830:Source\mbedtls_open\library/ssl_srv.c ****     if( ssl->conf->transport == MBEDTLS_SSL_TRANSPORT_DATAGRAM &&
 831:Source\mbedtls_open\library/ssl_srv.c ****         ( suite_info->flags & MBEDTLS_CIPHERSUITE_NODTLS ) )
 832:Source\mbedtls_open\library/ssl_srv.c ****         return( 0 );
 833:Source\mbedtls_open\library/ssl_srv.c **** #endif
 834:Source\mbedtls_open\library/ssl_srv.c **** 
 835:Source\mbedtls_open\library/ssl_srv.c **** #if defined(MBEDTLS_ARC4_C)
 836:Source\mbedtls_open\library/ssl_srv.c ****     if( ssl->conf->arc4_disabled == MBEDTLS_SSL_ARC4_DISABLED &&
 837:Source\mbedtls_open\library/ssl_srv.c ****             suite_info->cipher == MBEDTLS_CIPHER_ARC4_128 )
 838:Source\mbedtls_open\library/ssl_srv.c ****     {
 839:Source\mbedtls_open\library/ssl_srv.c ****         MBEDTLS_SSL_DEBUG_MSG( 3, ( "ciphersuite mismatch: rc4" ) );
 840:Source\mbedtls_open\library/ssl_srv.c ****         return( 0 );
 841:Source\mbedtls_open\library/ssl_srv.c ****     }
 842:Source\mbedtls_open\library/ssl_srv.c **** #endif
 843:Source\mbedtls_open\library/ssl_srv.c **** 
 844:Source\mbedtls_open\library/ssl_srv.c **** #if defined(MBEDTLS_KEY_EXCHANGE_ECJPAKE_ENABLED)
 845:Source\mbedtls_open\library/ssl_srv.c ****     if( suite_info->key_exchange == MBEDTLS_KEY_EXCHANGE_ECJPAKE &&
 846:Source\mbedtls_open\library/ssl_srv.c ****         ( ssl->handshake->cli_exts & MBEDTLS_TLS_EXT_ECJPAKE_KKPP_OK ) == 0 )
 847:Source\mbedtls_open\library/ssl_srv.c ****     {
 848:Source\mbedtls_open\library/ssl_srv.c ****         MBEDTLS_SSL_DEBUG_MSG( 3, ( "ciphersuite mismatch: ecjpake "
 849:Source\mbedtls_open\library/ssl_srv.c ****                                     "not configured or ext missing" ) );
 850:Source\mbedtls_open\library/ssl_srv.c ****         return( 0 );
 851:Source\mbedtls_open\library/ssl_srv.c ****     }
 852:Source\mbedtls_open\library/ssl_srv.c **** #endif
 853:Source\mbedtls_open\library/ssl_srv.c **** 
 854:Source\mbedtls_open\library/ssl_srv.c **** 
 855:Source\mbedtls_open\library/ssl_srv.c **** #if defined(MBEDTLS_ECDH_C) || defined(MBEDTLS_ECDSA_C)
 856:Source\mbedtls_open\library/ssl_srv.c ****     if( mbedtls_ssl_ciphersuite_uses_ec( suite_info ) &&
 857:Source\mbedtls_open\library/ssl_srv.c ****         ( ssl->handshake->curves == NULL ||
 858:Source\mbedtls_open\library/ssl_srv.c ****           ssl->handshake->curves[0] == NULL ) )
 859:Source\mbedtls_open\library/ssl_srv.c ****     {
 860:Source\mbedtls_open\library/ssl_srv.c ****         MBEDTLS_SSL_DEBUG_MSG( 3, ( "ciphersuite mismatch: "
 861:Source\mbedtls_open\library/ssl_srv.c ****                             "no common elliptic curve" ) );
 862:Source\mbedtls_open\library/ssl_srv.c ****         return( 0 );
 863:Source\mbedtls_open\library/ssl_srv.c ****     }
 864:Source\mbedtls_open\library/ssl_srv.c **** #endif
 865:Source\mbedtls_open\library/ssl_srv.c **** 
 866:Source\mbedtls_open\library/ssl_srv.c **** #if defined(MBEDTLS_KEY_EXCHANGE__SOME__PSK_ENABLED)
 867:Source\mbedtls_open\library/ssl_srv.c ****     /* If the ciphersuite requires a pre-shared key and we don't
 868:Source\mbedtls_open\library/ssl_srv.c ****      * have one, skip it now rather than failing later */
 869:Source\mbedtls_open\library/ssl_srv.c ****     if( mbedtls_ssl_ciphersuite_uses_psk( suite_info ) &&
 870:Source\mbedtls_open\library/ssl_srv.c ****         ssl->conf->f_psk == NULL &&
 871:Source\mbedtls_open\library/ssl_srv.c ****         ( ssl->conf->psk == NULL || ssl->conf->psk_identity == NULL ||
 872:Source\mbedtls_open\library/ssl_srv.c ****           ssl->conf->psk_identity_len == 0 || ssl->conf->psk_len == 0 ) )
 873:Source\mbedtls_open\library/ssl_srv.c ****     {
 874:Source\mbedtls_open\library/ssl_srv.c ****         MBEDTLS_SSL_DEBUG_MSG( 3, ( "ciphersuite mismatch: no pre-shared key" ) );
ARM GAS  C:\Users\Phuong\AppData\Local\Temp\cct2IqGs.s 			page 21


 875:Source\mbedtls_open\library/ssl_srv.c ****         return( 0 );
 876:Source\mbedtls_open\library/ssl_srv.c ****     }
 877:Source\mbedtls_open\library/ssl_srv.c **** #endif
 878:Source\mbedtls_open\library/ssl_srv.c **** 
 879:Source\mbedtls_open\library/ssl_srv.c **** #if defined(MBEDTLS_SSL_PROTO_TLS1_2) && \
 880:Source\mbedtls_open\library/ssl_srv.c ****     defined(MBEDTLS_KEY_EXCHANGE__WITH_CERT__ENABLED)
 881:Source\mbedtls_open\library/ssl_srv.c ****     /* If the ciphersuite requires signing, check whether
 882:Source\mbedtls_open\library/ssl_srv.c ****      * a suitable hash algorithm is present. */
 883:Source\mbedtls_open\library/ssl_srv.c ****     if( ssl->minor_ver == MBEDTLS_SSL_MINOR_VERSION_3 )
 884:Source\mbedtls_open\library/ssl_srv.c ****     {
 885:Source\mbedtls_open\library/ssl_srv.c ****         sig_type = mbedtls_ssl_get_ciphersuite_sig_alg( suite_info );
 886:Source\mbedtls_open\library/ssl_srv.c ****         if( sig_type != MBEDTLS_PK_NONE &&
 887:Source\mbedtls_open\library/ssl_srv.c ****             mbedtls_ssl_sig_hash_set_find( &ssl->handshake->hash_algs, sig_type ) == MBEDTLS_MD_NON
 888:Source\mbedtls_open\library/ssl_srv.c ****         {
 889:Source\mbedtls_open\library/ssl_srv.c ****             MBEDTLS_SSL_DEBUG_MSG( 3, ( "ciphersuite mismatch: no suitable hash algorithm "
 890:Source\mbedtls_open\library/ssl_srv.c ****                                         "for signature algorithm %d", sig_type ) );
 891:Source\mbedtls_open\library/ssl_srv.c ****             return( 0 );
 892:Source\mbedtls_open\library/ssl_srv.c ****         }
 893:Source\mbedtls_open\library/ssl_srv.c ****     }
 894:Source\mbedtls_open\library/ssl_srv.c **** 
 895:Source\mbedtls_open\library/ssl_srv.c **** #endif /* MBEDTLS_SSL_PROTO_TLS1_2 &&
 896:Source\mbedtls_open\library/ssl_srv.c ****           MBEDTLS_KEY_EXCHANGE__WITH_CERT__ENABLED */
 897:Source\mbedtls_open\library/ssl_srv.c **** 
 898:Source\mbedtls_open\library/ssl_srv.c **** #if defined(MBEDTLS_X509_CRT_PARSE_C)
 899:Source\mbedtls_open\library/ssl_srv.c ****     /*
 900:Source\mbedtls_open\library/ssl_srv.c ****      * Final check: if ciphersuite requires us to have a
 901:Source\mbedtls_open\library/ssl_srv.c ****      * certificate/key of a particular type:
 902:Source\mbedtls_open\library/ssl_srv.c ****      * - select the appropriate certificate if we have one, or
 903:Source\mbedtls_open\library/ssl_srv.c ****      * - try the next ciphersuite if we don't
 904:Source\mbedtls_open\library/ssl_srv.c ****      * This must be done last since we modify the key_cert list.
 905:Source\mbedtls_open\library/ssl_srv.c ****      */
 906:Source\mbedtls_open\library/ssl_srv.c ****     if( ssl_pick_cert( ssl, suite_info ) != 0 )
 907:Source\mbedtls_open\library/ssl_srv.c ****     {
 908:Source\mbedtls_open\library/ssl_srv.c ****         MBEDTLS_SSL_DEBUG_MSG( 3, ( "ciphersuite mismatch: "
 909:Source\mbedtls_open\library/ssl_srv.c ****                             "no suitable certificate" ) );
 910:Source\mbedtls_open\library/ssl_srv.c ****         return( 0 );
 911:Source\mbedtls_open\library/ssl_srv.c ****     }
 912:Source\mbedtls_open\library/ssl_srv.c **** #endif
 913:Source\mbedtls_open\library/ssl_srv.c **** 
 914:Source\mbedtls_open\library/ssl_srv.c ****     *ciphersuite_info = suite_info;
 915:Source\mbedtls_open\library/ssl_srv.c ****     return( 0 );
 916:Source\mbedtls_open\library/ssl_srv.c **** }
 917:Source\mbedtls_open\library/ssl_srv.c **** 
 918:Source\mbedtls_open\library/ssl_srv.c **** #if defined(MBEDTLS_SSL_SRV_SUPPORT_SSLV2_CLIENT_HELLO)
 919:Source\mbedtls_open\library/ssl_srv.c **** static int ssl_parse_client_hello_v2( mbedtls_ssl_context *ssl )
 920:Source\mbedtls_open\library/ssl_srv.c **** {
 921:Source\mbedtls_open\library/ssl_srv.c ****     int ret, got_common_suite;
 922:Source\mbedtls_open\library/ssl_srv.c ****     unsigned int i, j;
 923:Source\mbedtls_open\library/ssl_srv.c ****     size_t n;
 924:Source\mbedtls_open\library/ssl_srv.c ****     unsigned int ciph_len, sess_len, chal_len;
 925:Source\mbedtls_open\library/ssl_srv.c ****     unsigned char *buf, *p;
 926:Source\mbedtls_open\library/ssl_srv.c ****     const int *ciphersuites;
 927:Source\mbedtls_open\library/ssl_srv.c ****     const mbedtls_ssl_ciphersuite_t *ciphersuite_info;
 928:Source\mbedtls_open\library/ssl_srv.c **** 
 929:Source\mbedtls_open\library/ssl_srv.c ****     MBEDTLS_SSL_DEBUG_MSG( 2, ( "=> parse client hello v2" ) );
 930:Source\mbedtls_open\library/ssl_srv.c **** 
 931:Source\mbedtls_open\library/ssl_srv.c **** #if defined(MBEDTLS_SSL_RENEGOTIATION)
ARM GAS  C:\Users\Phuong\AppData\Local\Temp\cct2IqGs.s 			page 22


 932:Source\mbedtls_open\library/ssl_srv.c ****     if( ssl->renego_status != MBEDTLS_SSL_INITIAL_HANDSHAKE )
 933:Source\mbedtls_open\library/ssl_srv.c ****     {
 934:Source\mbedtls_open\library/ssl_srv.c ****         MBEDTLS_SSL_DEBUG_MSG( 1, ( "client hello v2 illegal for renegotiation" ) );
 935:Source\mbedtls_open\library/ssl_srv.c ****         mbedtls_ssl_send_alert_message( ssl, MBEDTLS_SSL_ALERT_LEVEL_FATAL,
 936:Source\mbedtls_open\library/ssl_srv.c ****                                         MBEDTLS_SSL_ALERT_MSG_HANDSHAKE_FAILURE );
 937:Source\mbedtls_open\library/ssl_srv.c ****         return( MBEDTLS_ERR_SSL_BAD_HS_CLIENT_HELLO );
 938:Source\mbedtls_open\library/ssl_srv.c ****     }
 939:Source\mbedtls_open\library/ssl_srv.c **** #endif /* MBEDTLS_SSL_RENEGOTIATION */
 940:Source\mbedtls_open\library/ssl_srv.c **** 
 941:Source\mbedtls_open\library/ssl_srv.c ****     buf = ssl->in_hdr;
 942:Source\mbedtls_open\library/ssl_srv.c **** 
 943:Source\mbedtls_open\library/ssl_srv.c ****     MBEDTLS_SSL_DEBUG_BUF( 4, "record header", buf, 5 );
 944:Source\mbedtls_open\library/ssl_srv.c **** 
 945:Source\mbedtls_open\library/ssl_srv.c ****     MBEDTLS_SSL_DEBUG_MSG( 3, ( "client hello v2, message type: %d",
 946:Source\mbedtls_open\library/ssl_srv.c ****                    buf[2] ) );
 947:Source\mbedtls_open\library/ssl_srv.c ****     MBEDTLS_SSL_DEBUG_MSG( 3, ( "client hello v2, message len.: %d",
 948:Source\mbedtls_open\library/ssl_srv.c ****                    ( ( buf[0] & 0x7F ) << 8 ) | buf[1] ) );
 949:Source\mbedtls_open\library/ssl_srv.c ****     MBEDTLS_SSL_DEBUG_MSG( 3, ( "client hello v2, max. version: [%d:%d]",
 950:Source\mbedtls_open\library/ssl_srv.c ****                    buf[3], buf[4] ) );
 951:Source\mbedtls_open\library/ssl_srv.c **** 
 952:Source\mbedtls_open\library/ssl_srv.c ****     /*
 953:Source\mbedtls_open\library/ssl_srv.c ****      * SSLv2 Client Hello
 954:Source\mbedtls_open\library/ssl_srv.c ****      *
 955:Source\mbedtls_open\library/ssl_srv.c ****      * Record layer:
 956:Source\mbedtls_open\library/ssl_srv.c ****      *     0  .   1   message length
 957:Source\mbedtls_open\library/ssl_srv.c ****      *
 958:Source\mbedtls_open\library/ssl_srv.c ****      * SSL layer:
 959:Source\mbedtls_open\library/ssl_srv.c ****      *     2  .   2   message type
 960:Source\mbedtls_open\library/ssl_srv.c ****      *     3  .   4   protocol version
 961:Source\mbedtls_open\library/ssl_srv.c ****      */
 962:Source\mbedtls_open\library/ssl_srv.c ****     if( buf[2] != MBEDTLS_SSL_HS_CLIENT_HELLO ||
 963:Source\mbedtls_open\library/ssl_srv.c ****         buf[3] != MBEDTLS_SSL_MAJOR_VERSION_3 )
 964:Source\mbedtls_open\library/ssl_srv.c ****     {
 965:Source\mbedtls_open\library/ssl_srv.c ****         MBEDTLS_SSL_DEBUG_MSG( 1, ( "bad client hello message" ) );
 966:Source\mbedtls_open\library/ssl_srv.c ****         return( MBEDTLS_ERR_SSL_BAD_HS_CLIENT_HELLO );
 967:Source\mbedtls_open\library/ssl_srv.c ****     }
 968:Source\mbedtls_open\library/ssl_srv.c **** 
 969:Source\mbedtls_open\library/ssl_srv.c ****     n = ( ( buf[0] << 8 ) | buf[1] ) & 0x7FFF;
 970:Source\mbedtls_open\library/ssl_srv.c **** 
 971:Source\mbedtls_open\library/ssl_srv.c ****     if( n < 17 || n > 512 )
 972:Source\mbedtls_open\library/ssl_srv.c ****     {
 973:Source\mbedtls_open\library/ssl_srv.c ****         MBEDTLS_SSL_DEBUG_MSG( 1, ( "bad client hello message" ) );
 974:Source\mbedtls_open\library/ssl_srv.c ****         return( MBEDTLS_ERR_SSL_BAD_HS_CLIENT_HELLO );
 975:Source\mbedtls_open\library/ssl_srv.c ****     }
 976:Source\mbedtls_open\library/ssl_srv.c **** 
 977:Source\mbedtls_open\library/ssl_srv.c ****     ssl->major_ver = MBEDTLS_SSL_MAJOR_VERSION_3;
 978:Source\mbedtls_open\library/ssl_srv.c ****     ssl->minor_ver = ( buf[4] <= ssl->conf->max_minor_ver )
 979:Source\mbedtls_open\library/ssl_srv.c ****                      ? buf[4]  : ssl->conf->max_minor_ver;
 980:Source\mbedtls_open\library/ssl_srv.c **** 
 981:Source\mbedtls_open\library/ssl_srv.c ****     if( ssl->minor_ver < ssl->conf->min_minor_ver )
 982:Source\mbedtls_open\library/ssl_srv.c ****     {
 983:Source\mbedtls_open\library/ssl_srv.c ****         MBEDTLS_SSL_DEBUG_MSG( 1, ( "client only supports ssl smaller than minimum"
 984:Source\mbedtls_open\library/ssl_srv.c ****                             " [%d:%d] < [%d:%d]",
 985:Source\mbedtls_open\library/ssl_srv.c ****                             ssl->major_ver, ssl->minor_ver,
 986:Source\mbedtls_open\library/ssl_srv.c ****                             ssl->conf->min_major_ver, ssl->conf->min_minor_ver ) );
 987:Source\mbedtls_open\library/ssl_srv.c **** 
 988:Source\mbedtls_open\library/ssl_srv.c ****         mbedtls_ssl_send_alert_message( ssl, MBEDTLS_SSL_ALERT_LEVEL_FATAL,
ARM GAS  C:\Users\Phuong\AppData\Local\Temp\cct2IqGs.s 			page 23


 989:Source\mbedtls_open\library/ssl_srv.c ****                                      MBEDTLS_SSL_ALERT_MSG_PROTOCOL_VERSION );
 990:Source\mbedtls_open\library/ssl_srv.c ****         return( MBEDTLS_ERR_SSL_BAD_HS_PROTOCOL_VERSION );
 991:Source\mbedtls_open\library/ssl_srv.c ****     }
 992:Source\mbedtls_open\library/ssl_srv.c **** 
 993:Source\mbedtls_open\library/ssl_srv.c ****     ssl->handshake->max_major_ver = buf[3];
 994:Source\mbedtls_open\library/ssl_srv.c ****     ssl->handshake->max_minor_ver = buf[4];
 995:Source\mbedtls_open\library/ssl_srv.c **** 
 996:Source\mbedtls_open\library/ssl_srv.c ****     if( ( ret = mbedtls_ssl_fetch_input( ssl, 2 + n ) ) != 0 )
 997:Source\mbedtls_open\library/ssl_srv.c ****     {
 998:Source\mbedtls_open\library/ssl_srv.c ****         MBEDTLS_SSL_DEBUG_RET( 1, "mbedtls_ssl_fetch_input", ret );
 999:Source\mbedtls_open\library/ssl_srv.c ****         return( ret );
1000:Source\mbedtls_open\library/ssl_srv.c ****     }
1001:Source\mbedtls_open\library/ssl_srv.c **** 
1002:Source\mbedtls_open\library/ssl_srv.c ****     ssl->handshake->update_checksum( ssl, buf + 2, n );
1003:Source\mbedtls_open\library/ssl_srv.c **** 
1004:Source\mbedtls_open\library/ssl_srv.c ****     buf = ssl->in_msg;
1005:Source\mbedtls_open\library/ssl_srv.c ****     n = ssl->in_left - 5;
1006:Source\mbedtls_open\library/ssl_srv.c **** 
1007:Source\mbedtls_open\library/ssl_srv.c ****     /*
1008:Source\mbedtls_open\library/ssl_srv.c ****      *    0  .   1   ciphersuitelist length
1009:Source\mbedtls_open\library/ssl_srv.c ****      *    2  .   3   session id length
1010:Source\mbedtls_open\library/ssl_srv.c ****      *    4  .   5   challenge length
1011:Source\mbedtls_open\library/ssl_srv.c ****      *    6  .  ..   ciphersuitelist
1012:Source\mbedtls_open\library/ssl_srv.c ****      *   ..  .  ..   session id
1013:Source\mbedtls_open\library/ssl_srv.c ****      *   ..  .  ..   challenge
1014:Source\mbedtls_open\library/ssl_srv.c ****      */
1015:Source\mbedtls_open\library/ssl_srv.c ****     MBEDTLS_SSL_DEBUG_BUF( 4, "record contents", buf, n );
1016:Source\mbedtls_open\library/ssl_srv.c **** 
1017:Source\mbedtls_open\library/ssl_srv.c ****     ciph_len = ( buf[0] << 8 ) | buf[1];
1018:Source\mbedtls_open\library/ssl_srv.c ****     sess_len = ( buf[2] << 8 ) | buf[3];
1019:Source\mbedtls_open\library/ssl_srv.c ****     chal_len = ( buf[4] << 8 ) | buf[5];
1020:Source\mbedtls_open\library/ssl_srv.c **** 
1021:Source\mbedtls_open\library/ssl_srv.c ****     MBEDTLS_SSL_DEBUG_MSG( 3, ( "ciph_len: %d, sess_len: %d, chal_len: %d",
1022:Source\mbedtls_open\library/ssl_srv.c ****                    ciph_len, sess_len, chal_len ) );
1023:Source\mbedtls_open\library/ssl_srv.c **** 
1024:Source\mbedtls_open\library/ssl_srv.c ****     /*
1025:Source\mbedtls_open\library/ssl_srv.c ****      * Make sure each parameter length is valid
1026:Source\mbedtls_open\library/ssl_srv.c ****      */
1027:Source\mbedtls_open\library/ssl_srv.c ****     if( ciph_len < 3 || ( ciph_len % 3 ) != 0 )
1028:Source\mbedtls_open\library/ssl_srv.c ****     {
1029:Source\mbedtls_open\library/ssl_srv.c ****         MBEDTLS_SSL_DEBUG_MSG( 1, ( "bad client hello message" ) );
1030:Source\mbedtls_open\library/ssl_srv.c ****         return( MBEDTLS_ERR_SSL_BAD_HS_CLIENT_HELLO );
1031:Source\mbedtls_open\library/ssl_srv.c ****     }
1032:Source\mbedtls_open\library/ssl_srv.c **** 
1033:Source\mbedtls_open\library/ssl_srv.c ****     if( sess_len > 32 )
1034:Source\mbedtls_open\library/ssl_srv.c ****     {
1035:Source\mbedtls_open\library/ssl_srv.c ****         MBEDTLS_SSL_DEBUG_MSG( 1, ( "bad client hello message" ) );
1036:Source\mbedtls_open\library/ssl_srv.c ****         return( MBEDTLS_ERR_SSL_BAD_HS_CLIENT_HELLO );
1037:Source\mbedtls_open\library/ssl_srv.c ****     }
1038:Source\mbedtls_open\library/ssl_srv.c **** 
1039:Source\mbedtls_open\library/ssl_srv.c ****     if( chal_len < 8 || chal_len > 32 )
1040:Source\mbedtls_open\library/ssl_srv.c ****     {
1041:Source\mbedtls_open\library/ssl_srv.c ****         MBEDTLS_SSL_DEBUG_MSG( 1, ( "bad client hello message" ) );
1042:Source\mbedtls_open\library/ssl_srv.c ****         return( MBEDTLS_ERR_SSL_BAD_HS_CLIENT_HELLO );
1043:Source\mbedtls_open\library/ssl_srv.c ****     }
1044:Source\mbedtls_open\library/ssl_srv.c **** 
1045:Source\mbedtls_open\library/ssl_srv.c ****     if( n != 6 + ciph_len + sess_len + chal_len )
ARM GAS  C:\Users\Phuong\AppData\Local\Temp\cct2IqGs.s 			page 24


1046:Source\mbedtls_open\library/ssl_srv.c ****     {
1047:Source\mbedtls_open\library/ssl_srv.c ****         MBEDTLS_SSL_DEBUG_MSG( 1, ( "bad client hello message" ) );
1048:Source\mbedtls_open\library/ssl_srv.c ****         return( MBEDTLS_ERR_SSL_BAD_HS_CLIENT_HELLO );
1049:Source\mbedtls_open\library/ssl_srv.c ****     }
1050:Source\mbedtls_open\library/ssl_srv.c **** 
1051:Source\mbedtls_open\library/ssl_srv.c ****     MBEDTLS_SSL_DEBUG_BUF( 3, "client hello, ciphersuitelist",
1052:Source\mbedtls_open\library/ssl_srv.c ****                    buf + 6, ciph_len );
1053:Source\mbedtls_open\library/ssl_srv.c ****     MBEDTLS_SSL_DEBUG_BUF( 3, "client hello, session id",
1054:Source\mbedtls_open\library/ssl_srv.c ****                    buf + 6 + ciph_len, sess_len );
1055:Source\mbedtls_open\library/ssl_srv.c ****     MBEDTLS_SSL_DEBUG_BUF( 3, "client hello, challenge",
1056:Source\mbedtls_open\library/ssl_srv.c ****                    buf + 6 + ciph_len + sess_len, chal_len );
1057:Source\mbedtls_open\library/ssl_srv.c **** 
1058:Source\mbedtls_open\library/ssl_srv.c ****     p = buf + 6 + ciph_len;
1059:Source\mbedtls_open\library/ssl_srv.c ****     ssl->session_negotiate->id_len = sess_len;
1060:Source\mbedtls_open\library/ssl_srv.c ****     memset( ssl->session_negotiate->id, 0,
1061:Source\mbedtls_open\library/ssl_srv.c ****             sizeof( ssl->session_negotiate->id ) );
1062:Source\mbedtls_open\library/ssl_srv.c ****     memcpy( ssl->session_negotiate->id, p, ssl->session_negotiate->id_len );
1063:Source\mbedtls_open\library/ssl_srv.c **** 
1064:Source\mbedtls_open\library/ssl_srv.c ****     p += sess_len;
1065:Source\mbedtls_open\library/ssl_srv.c ****     memset( ssl->handshake->randbytes, 0, 64 );
1066:Source\mbedtls_open\library/ssl_srv.c ****     memcpy( ssl->handshake->randbytes + 32 - chal_len, p, chal_len );
1067:Source\mbedtls_open\library/ssl_srv.c **** 
1068:Source\mbedtls_open\library/ssl_srv.c ****     /*
1069:Source\mbedtls_open\library/ssl_srv.c ****      * Check for TLS_EMPTY_RENEGOTIATION_INFO_SCSV
1070:Source\mbedtls_open\library/ssl_srv.c ****      */
1071:Source\mbedtls_open\library/ssl_srv.c ****     for( i = 0, p = buf + 6; i < ciph_len; i += 3, p += 3 )
1072:Source\mbedtls_open\library/ssl_srv.c ****     {
1073:Source\mbedtls_open\library/ssl_srv.c ****         if( p[0] == 0 && p[1] == 0 && p[2] == MBEDTLS_SSL_EMPTY_RENEGOTIATION_INFO )
1074:Source\mbedtls_open\library/ssl_srv.c ****         {
1075:Source\mbedtls_open\library/ssl_srv.c ****             MBEDTLS_SSL_DEBUG_MSG( 3, ( "received TLS_EMPTY_RENEGOTIATION_INFO " ) );
1076:Source\mbedtls_open\library/ssl_srv.c **** #if defined(MBEDTLS_SSL_RENEGOTIATION)
1077:Source\mbedtls_open\library/ssl_srv.c ****             if( ssl->renego_status == MBEDTLS_SSL_RENEGOTIATION_IN_PROGRESS )
1078:Source\mbedtls_open\library/ssl_srv.c ****             {
1079:Source\mbedtls_open\library/ssl_srv.c ****                 MBEDTLS_SSL_DEBUG_MSG( 1, ( "received RENEGOTIATION SCSV "
1080:Source\mbedtls_open\library/ssl_srv.c ****                                     "during renegotiation" ) );
1081:Source\mbedtls_open\library/ssl_srv.c **** 
1082:Source\mbedtls_open\library/ssl_srv.c ****                 mbedtls_ssl_send_alert_message( ssl, MBEDTLS_SSL_ALERT_LEVEL_FATAL,
1083:Source\mbedtls_open\library/ssl_srv.c ****                                                 MBEDTLS_SSL_ALERT_MSG_HANDSHAKE_FAILURE );
1084:Source\mbedtls_open\library/ssl_srv.c ****                 return( MBEDTLS_ERR_SSL_BAD_HS_CLIENT_HELLO );
1085:Source\mbedtls_open\library/ssl_srv.c ****             }
1086:Source\mbedtls_open\library/ssl_srv.c **** #endif /* MBEDTLS_SSL_RENEGOTIATION */
1087:Source\mbedtls_open\library/ssl_srv.c ****             ssl->secure_renegotiation = MBEDTLS_SSL_SECURE_RENEGOTIATION;
1088:Source\mbedtls_open\library/ssl_srv.c ****             break;
1089:Source\mbedtls_open\library/ssl_srv.c ****         }
1090:Source\mbedtls_open\library/ssl_srv.c ****     }
1091:Source\mbedtls_open\library/ssl_srv.c **** 
1092:Source\mbedtls_open\library/ssl_srv.c **** #if defined(MBEDTLS_SSL_FALLBACK_SCSV)
1093:Source\mbedtls_open\library/ssl_srv.c ****     for( i = 0, p = buf + 6; i < ciph_len; i += 3, p += 3 )
1094:Source\mbedtls_open\library/ssl_srv.c ****     {
1095:Source\mbedtls_open\library/ssl_srv.c ****         if( p[0] == 0 &&
1096:Source\mbedtls_open\library/ssl_srv.c ****             p[1] == (unsigned char)( ( MBEDTLS_SSL_FALLBACK_SCSV_VALUE >> 8 ) & 0xff ) &&
1097:Source\mbedtls_open\library/ssl_srv.c ****             p[2] == (unsigned char)( ( MBEDTLS_SSL_FALLBACK_SCSV_VALUE      ) & 0xff ) )
1098:Source\mbedtls_open\library/ssl_srv.c ****         {
1099:Source\mbedtls_open\library/ssl_srv.c ****             MBEDTLS_SSL_DEBUG_MSG( 3, ( "received FALLBACK_SCSV" ) );
1100:Source\mbedtls_open\library/ssl_srv.c **** 
1101:Source\mbedtls_open\library/ssl_srv.c ****             if( ssl->minor_ver < ssl->conf->max_minor_ver )
1102:Source\mbedtls_open\library/ssl_srv.c ****             {
ARM GAS  C:\Users\Phuong\AppData\Local\Temp\cct2IqGs.s 			page 25


1103:Source\mbedtls_open\library/ssl_srv.c ****                 MBEDTLS_SSL_DEBUG_MSG( 1, ( "inapropriate fallback" ) );
1104:Source\mbedtls_open\library/ssl_srv.c **** 
1105:Source\mbedtls_open\library/ssl_srv.c ****                 mbedtls_ssl_send_alert_message( ssl, MBEDTLS_SSL_ALERT_LEVEL_FATAL,
1106:Source\mbedtls_open\library/ssl_srv.c ****                                         MBEDTLS_SSL_ALERT_MSG_INAPROPRIATE_FALLBACK );
1107:Source\mbedtls_open\library/ssl_srv.c **** 
1108:Source\mbedtls_open\library/ssl_srv.c ****                 return( MBEDTLS_ERR_SSL_BAD_HS_CLIENT_HELLO );
1109:Source\mbedtls_open\library/ssl_srv.c ****             }
1110:Source\mbedtls_open\library/ssl_srv.c **** 
1111:Source\mbedtls_open\library/ssl_srv.c ****             break;
1112:Source\mbedtls_open\library/ssl_srv.c ****         }
1113:Source\mbedtls_open\library/ssl_srv.c ****     }
1114:Source\mbedtls_open\library/ssl_srv.c **** #endif /* MBEDTLS_SSL_FALLBACK_SCSV */
1115:Source\mbedtls_open\library/ssl_srv.c **** 
1116:Source\mbedtls_open\library/ssl_srv.c ****     got_common_suite = 0;
1117:Source\mbedtls_open\library/ssl_srv.c ****     ciphersuites = ssl->conf->ciphersuite_list[ssl->minor_ver];
1118:Source\mbedtls_open\library/ssl_srv.c ****     ciphersuite_info = NULL;
1119:Source\mbedtls_open\library/ssl_srv.c **** #if defined(MBEDTLS_SSL_SRV_RESPECT_CLIENT_PREFERENCE)
1120:Source\mbedtls_open\library/ssl_srv.c ****     for( j = 0, p = buf + 6; j < ciph_len; j += 3, p += 3 )
1121:Source\mbedtls_open\library/ssl_srv.c ****         for( i = 0; ciphersuites[i] != 0; i++ )
1122:Source\mbedtls_open\library/ssl_srv.c **** #else
1123:Source\mbedtls_open\library/ssl_srv.c ****     for( i = 0; ciphersuites[i] != 0; i++ )
1124:Source\mbedtls_open\library/ssl_srv.c ****         for( j = 0, p = buf + 6; j < ciph_len; j += 3, p += 3 )
1125:Source\mbedtls_open\library/ssl_srv.c **** #endif
1126:Source\mbedtls_open\library/ssl_srv.c ****         {
1127:Source\mbedtls_open\library/ssl_srv.c ****             if( p[0] != 0 ||
1128:Source\mbedtls_open\library/ssl_srv.c ****                 p[1] != ( ( ciphersuites[i] >> 8 ) & 0xFF ) ||
1129:Source\mbedtls_open\library/ssl_srv.c ****                 p[2] != ( ( ciphersuites[i]      ) & 0xFF ) )
1130:Source\mbedtls_open\library/ssl_srv.c ****                 continue;
1131:Source\mbedtls_open\library/ssl_srv.c **** 
1132:Source\mbedtls_open\library/ssl_srv.c ****             got_common_suite = 1;
1133:Source\mbedtls_open\library/ssl_srv.c **** 
1134:Source\mbedtls_open\library/ssl_srv.c ****             if( ( ret = ssl_ciphersuite_match( ssl, ciphersuites[i],
1135:Source\mbedtls_open\library/ssl_srv.c ****                                                &ciphersuite_info ) ) != 0 )
1136:Source\mbedtls_open\library/ssl_srv.c ****                 return( ret );
1137:Source\mbedtls_open\library/ssl_srv.c **** 
1138:Source\mbedtls_open\library/ssl_srv.c ****             if( ciphersuite_info != NULL )
1139:Source\mbedtls_open\library/ssl_srv.c ****                 goto have_ciphersuite_v2;
1140:Source\mbedtls_open\library/ssl_srv.c ****         }
1141:Source\mbedtls_open\library/ssl_srv.c **** 
1142:Source\mbedtls_open\library/ssl_srv.c ****     if( got_common_suite )
1143:Source\mbedtls_open\library/ssl_srv.c ****     {
1144:Source\mbedtls_open\library/ssl_srv.c ****         MBEDTLS_SSL_DEBUG_MSG( 1, ( "got ciphersuites in common, "
1145:Source\mbedtls_open\library/ssl_srv.c ****                             "but none of them usable" ) );
1146:Source\mbedtls_open\library/ssl_srv.c ****         return( MBEDTLS_ERR_SSL_NO_USABLE_CIPHERSUITE );
1147:Source\mbedtls_open\library/ssl_srv.c ****     }
1148:Source\mbedtls_open\library/ssl_srv.c ****     else
1149:Source\mbedtls_open\library/ssl_srv.c ****     {
1150:Source\mbedtls_open\library/ssl_srv.c ****         MBEDTLS_SSL_DEBUG_MSG( 1, ( "got no ciphersuites in common" ) );
1151:Source\mbedtls_open\library/ssl_srv.c ****         return( MBEDTLS_ERR_SSL_NO_CIPHER_CHOSEN );
1152:Source\mbedtls_open\library/ssl_srv.c ****     }
1153:Source\mbedtls_open\library/ssl_srv.c **** 
1154:Source\mbedtls_open\library/ssl_srv.c **** have_ciphersuite_v2:
1155:Source\mbedtls_open\library/ssl_srv.c ****     MBEDTLS_SSL_DEBUG_MSG( 2, ( "selected ciphersuite: %s", ciphersuite_info->name ) );
1156:Source\mbedtls_open\library/ssl_srv.c **** 
1157:Source\mbedtls_open\library/ssl_srv.c ****     ssl->session_negotiate->ciphersuite = ciphersuites[i];
1158:Source\mbedtls_open\library/ssl_srv.c ****     ssl->transform_negotiate->ciphersuite_info = ciphersuite_info;
1159:Source\mbedtls_open\library/ssl_srv.c **** 
ARM GAS  C:\Users\Phuong\AppData\Local\Temp\cct2IqGs.s 			page 26


1160:Source\mbedtls_open\library/ssl_srv.c ****     /*
1161:Source\mbedtls_open\library/ssl_srv.c ****      * SSLv2 Client Hello relevant renegotiation security checks
1162:Source\mbedtls_open\library/ssl_srv.c ****      */
1163:Source\mbedtls_open\library/ssl_srv.c ****     if( ssl->secure_renegotiation == MBEDTLS_SSL_LEGACY_RENEGOTIATION &&
1164:Source\mbedtls_open\library/ssl_srv.c ****         ssl->conf->allow_legacy_renegotiation == MBEDTLS_SSL_LEGACY_BREAK_HANDSHAKE )
1165:Source\mbedtls_open\library/ssl_srv.c ****     {
1166:Source\mbedtls_open\library/ssl_srv.c ****         MBEDTLS_SSL_DEBUG_MSG( 1, ( "legacy renegotiation, breaking off handshake" ) );
1167:Source\mbedtls_open\library/ssl_srv.c ****         mbedtls_ssl_send_alert_message( ssl, MBEDTLS_SSL_ALERT_LEVEL_FATAL,
1168:Source\mbedtls_open\library/ssl_srv.c ****                                         MBEDTLS_SSL_ALERT_MSG_HANDSHAKE_FAILURE );
1169:Source\mbedtls_open\library/ssl_srv.c ****         return( MBEDTLS_ERR_SSL_BAD_HS_CLIENT_HELLO );
1170:Source\mbedtls_open\library/ssl_srv.c ****     }
1171:Source\mbedtls_open\library/ssl_srv.c **** 
1172:Source\mbedtls_open\library/ssl_srv.c ****     ssl->in_left = 0;
1173:Source\mbedtls_open\library/ssl_srv.c ****     ssl->state++;
1174:Source\mbedtls_open\library/ssl_srv.c **** 
1175:Source\mbedtls_open\library/ssl_srv.c ****     MBEDTLS_SSL_DEBUG_MSG( 2, ( "<= parse client hello v2" ) );
1176:Source\mbedtls_open\library/ssl_srv.c **** 
1177:Source\mbedtls_open\library/ssl_srv.c ****     return( 0 );
1178:Source\mbedtls_open\library/ssl_srv.c **** }
1179:Source\mbedtls_open\library/ssl_srv.c **** #endif /* MBEDTLS_SSL_SRV_SUPPORT_SSLV2_CLIENT_HELLO */
1180:Source\mbedtls_open\library/ssl_srv.c **** 
1181:Source\mbedtls_open\library/ssl_srv.c **** /* This function doesn't alert on errors that happen early during
1182:Source\mbedtls_open\library/ssl_srv.c ****    ClientHello parsing because they might indicate that the client is
1183:Source\mbedtls_open\library/ssl_srv.c ****    not talking SSL/TLS at all and would not understand our alert. */
1184:Source\mbedtls_open\library/ssl_srv.c **** static int ssl_parse_client_hello( mbedtls_ssl_context *ssl )
1185:Source\mbedtls_open\library/ssl_srv.c **** {
1186:Source\mbedtls_open\library/ssl_srv.c ****     int ret, got_common_suite;
1187:Source\mbedtls_open\library/ssl_srv.c ****     size_t i, j;
1188:Source\mbedtls_open\library/ssl_srv.c ****     size_t ciph_offset, comp_offset, ext_offset;
1189:Source\mbedtls_open\library/ssl_srv.c ****     size_t msg_len, ciph_len, sess_len, comp_len, ext_len;
1190:Source\mbedtls_open\library/ssl_srv.c **** #if defined(MBEDTLS_SSL_PROTO_DTLS)
1191:Source\mbedtls_open\library/ssl_srv.c ****     size_t cookie_offset, cookie_len;
1192:Source\mbedtls_open\library/ssl_srv.c **** #endif
1193:Source\mbedtls_open\library/ssl_srv.c ****     unsigned char *buf, *p, *ext;
1194:Source\mbedtls_open\library/ssl_srv.c **** #if defined(MBEDTLS_SSL_RENEGOTIATION)
1195:Source\mbedtls_open\library/ssl_srv.c ****     int renegotiation_info_seen = 0;
1196:Source\mbedtls_open\library/ssl_srv.c **** #endif
1197:Source\mbedtls_open\library/ssl_srv.c ****     int handshake_failure = 0;
1198:Source\mbedtls_open\library/ssl_srv.c ****     const int *ciphersuites;
1199:Source\mbedtls_open\library/ssl_srv.c ****     const mbedtls_ssl_ciphersuite_t *ciphersuite_info;
1200:Source\mbedtls_open\library/ssl_srv.c ****     int major, minor;
1201:Source\mbedtls_open\library/ssl_srv.c **** 
1202:Source\mbedtls_open\library/ssl_srv.c ****     /* If there is no signature-algorithm extension present,
1203:Source\mbedtls_open\library/ssl_srv.c ****      * we need to fall back to the default values for allowed
1204:Source\mbedtls_open\library/ssl_srv.c ****      * signature-hash pairs. */
1205:Source\mbedtls_open\library/ssl_srv.c **** #if defined(MBEDTLS_SSL_PROTO_TLS1_2) && \
1206:Source\mbedtls_open\library/ssl_srv.c ****     defined(MBEDTLS_KEY_EXCHANGE__WITH_CERT__ENABLED)
1207:Source\mbedtls_open\library/ssl_srv.c ****     int sig_hash_alg_ext_present = 0;
1208:Source\mbedtls_open\library/ssl_srv.c **** #endif /* MBEDTLS_SSL_PROTO_TLS1_2 &&
1209:Source\mbedtls_open\library/ssl_srv.c ****           MBEDTLS_KEY_EXCHANGE__WITH_CERT__ENABLED */
1210:Source\mbedtls_open\library/ssl_srv.c **** 
1211:Source\mbedtls_open\library/ssl_srv.c ****     MBEDTLS_SSL_DEBUG_MSG( 2, ( "=> parse client hello" ) );
1212:Source\mbedtls_open\library/ssl_srv.c **** 
1213:Source\mbedtls_open\library/ssl_srv.c **** #if defined(MBEDTLS_SSL_DTLS_ANTI_REPLAY)
1214:Source\mbedtls_open\library/ssl_srv.c **** read_record_header:
1215:Source\mbedtls_open\library/ssl_srv.c **** #endif
1216:Source\mbedtls_open\library/ssl_srv.c ****     /*
ARM GAS  C:\Users\Phuong\AppData\Local\Temp\cct2IqGs.s 			page 27


1217:Source\mbedtls_open\library/ssl_srv.c ****      * If renegotiating, then the input was read with mbedtls_ssl_read_record(),
1218:Source\mbedtls_open\library/ssl_srv.c ****      * otherwise read it ourselves manually in order to support SSLv2
1219:Source\mbedtls_open\library/ssl_srv.c ****      * ClientHello, which doesn't use the same record layer format.
1220:Source\mbedtls_open\library/ssl_srv.c ****      */
1221:Source\mbedtls_open\library/ssl_srv.c **** #if defined(MBEDTLS_SSL_RENEGOTIATION)
1222:Source\mbedtls_open\library/ssl_srv.c ****     if( ssl->renego_status == MBEDTLS_SSL_INITIAL_HANDSHAKE )
1223:Source\mbedtls_open\library/ssl_srv.c **** #endif
1224:Source\mbedtls_open\library/ssl_srv.c ****     {
1225:Source\mbedtls_open\library/ssl_srv.c ****         if( ( ret = mbedtls_ssl_fetch_input( ssl, 5 ) ) != 0 )
1226:Source\mbedtls_open\library/ssl_srv.c ****         {
1227:Source\mbedtls_open\library/ssl_srv.c ****             /* No alert on a read error. */
1228:Source\mbedtls_open\library/ssl_srv.c ****             MBEDTLS_SSL_DEBUG_RET( 1, "mbedtls_ssl_fetch_input", ret );
1229:Source\mbedtls_open\library/ssl_srv.c ****             return( ret );
1230:Source\mbedtls_open\library/ssl_srv.c ****         }
1231:Source\mbedtls_open\library/ssl_srv.c ****     }
1232:Source\mbedtls_open\library/ssl_srv.c **** 
1233:Source\mbedtls_open\library/ssl_srv.c ****     buf = ssl->in_hdr;
1234:Source\mbedtls_open\library/ssl_srv.c **** 
1235:Source\mbedtls_open\library/ssl_srv.c **** #if defined(MBEDTLS_SSL_SRV_SUPPORT_SSLV2_CLIENT_HELLO)
1236:Source\mbedtls_open\library/ssl_srv.c **** #if defined(MBEDTLS_SSL_PROTO_DTLS)
1237:Source\mbedtls_open\library/ssl_srv.c ****     if( ssl->conf->transport == MBEDTLS_SSL_TRANSPORT_STREAM )
1238:Source\mbedtls_open\library/ssl_srv.c **** #endif
1239:Source\mbedtls_open\library/ssl_srv.c ****         if( ( buf[0] & 0x80 ) != 0 )
1240:Source\mbedtls_open\library/ssl_srv.c ****             return( ssl_parse_client_hello_v2( ssl ) );
1241:Source\mbedtls_open\library/ssl_srv.c **** #endif
1242:Source\mbedtls_open\library/ssl_srv.c **** 
1243:Source\mbedtls_open\library/ssl_srv.c ****     MBEDTLS_SSL_DEBUG_BUF( 4, "record header", buf, mbedtls_ssl_hdr_len( ssl ) );
1244:Source\mbedtls_open\library/ssl_srv.c **** 
1245:Source\mbedtls_open\library/ssl_srv.c ****     /*
1246:Source\mbedtls_open\library/ssl_srv.c ****      * SSLv3/TLS Client Hello
1247:Source\mbedtls_open\library/ssl_srv.c ****      *
1248:Source\mbedtls_open\library/ssl_srv.c ****      * Record layer:
1249:Source\mbedtls_open\library/ssl_srv.c ****      *     0  .   0   message type
1250:Source\mbedtls_open\library/ssl_srv.c ****      *     1  .   2   protocol version
1251:Source\mbedtls_open\library/ssl_srv.c ****      *     3  .   11  DTLS: epoch + record sequence number
1252:Source\mbedtls_open\library/ssl_srv.c ****      *     3  .   4   message length
1253:Source\mbedtls_open\library/ssl_srv.c ****      */
1254:Source\mbedtls_open\library/ssl_srv.c ****     MBEDTLS_SSL_DEBUG_MSG( 3, ( "client hello v3, message type: %d",
1255:Source\mbedtls_open\library/ssl_srv.c ****                    buf[0] ) );
1256:Source\mbedtls_open\library/ssl_srv.c **** 
1257:Source\mbedtls_open\library/ssl_srv.c ****     if( buf[0] != MBEDTLS_SSL_MSG_HANDSHAKE )
1258:Source\mbedtls_open\library/ssl_srv.c ****     {
1259:Source\mbedtls_open\library/ssl_srv.c ****         MBEDTLS_SSL_DEBUG_MSG( 1, ( "bad client hello message" ) );
1260:Source\mbedtls_open\library/ssl_srv.c ****         return( MBEDTLS_ERR_SSL_BAD_HS_CLIENT_HELLO );
1261:Source\mbedtls_open\library/ssl_srv.c ****     }
1262:Source\mbedtls_open\library/ssl_srv.c **** 
1263:Source\mbedtls_open\library/ssl_srv.c ****     MBEDTLS_SSL_DEBUG_MSG( 3, ( "client hello v3, message len.: %d",
1264:Source\mbedtls_open\library/ssl_srv.c ****                    ( ssl->in_len[0] << 8 ) | ssl->in_len[1] ) );
1265:Source\mbedtls_open\library/ssl_srv.c **** 
1266:Source\mbedtls_open\library/ssl_srv.c ****     MBEDTLS_SSL_DEBUG_MSG( 3, ( "client hello v3, protocol version: [%d:%d]",
1267:Source\mbedtls_open\library/ssl_srv.c ****                    buf[1], buf[2] ) );
1268:Source\mbedtls_open\library/ssl_srv.c **** 
1269:Source\mbedtls_open\library/ssl_srv.c ****     mbedtls_ssl_read_version( &major, &minor, ssl->conf->transport, buf + 1 );
1270:Source\mbedtls_open\library/ssl_srv.c **** 
1271:Source\mbedtls_open\library/ssl_srv.c ****     /* According to RFC 5246 Appendix E.1, the version here is typically
1272:Source\mbedtls_open\library/ssl_srv.c ****      * "{03,00}, the lowest version number supported by the client, [or] the
1273:Source\mbedtls_open\library/ssl_srv.c ****      * value of ClientHello.client_version", so the only meaningful check here
ARM GAS  C:\Users\Phuong\AppData\Local\Temp\cct2IqGs.s 			page 28


1274:Source\mbedtls_open\library/ssl_srv.c ****      * is the major version shouldn't be less than 3 */
1275:Source\mbedtls_open\library/ssl_srv.c ****     if( major < MBEDTLS_SSL_MAJOR_VERSION_3 )
1276:Source\mbedtls_open\library/ssl_srv.c ****     {
1277:Source\mbedtls_open\library/ssl_srv.c ****         MBEDTLS_SSL_DEBUG_MSG( 1, ( "bad client hello message" ) );
1278:Source\mbedtls_open\library/ssl_srv.c ****         return( MBEDTLS_ERR_SSL_BAD_HS_CLIENT_HELLO );
1279:Source\mbedtls_open\library/ssl_srv.c ****     }
1280:Source\mbedtls_open\library/ssl_srv.c **** 
1281:Source\mbedtls_open\library/ssl_srv.c ****     /* For DTLS if this is the initial handshake, remember the client sequence
1282:Source\mbedtls_open\library/ssl_srv.c ****      * number to use it in our next message (RFC 6347 4.2.1) */
1283:Source\mbedtls_open\library/ssl_srv.c **** #if defined(MBEDTLS_SSL_PROTO_DTLS)
1284:Source\mbedtls_open\library/ssl_srv.c ****     if( ssl->conf->transport == MBEDTLS_SSL_TRANSPORT_DATAGRAM
1285:Source\mbedtls_open\library/ssl_srv.c **** #if defined(MBEDTLS_SSL_RENEGOTIATION)
1286:Source\mbedtls_open\library/ssl_srv.c ****         && ssl->renego_status == MBEDTLS_SSL_INITIAL_HANDSHAKE
1287:Source\mbedtls_open\library/ssl_srv.c **** #endif
1288:Source\mbedtls_open\library/ssl_srv.c ****         )
1289:Source\mbedtls_open\library/ssl_srv.c ****     {
1290:Source\mbedtls_open\library/ssl_srv.c ****         /* Epoch should be 0 for initial handshakes */
1291:Source\mbedtls_open\library/ssl_srv.c ****         if( ssl->in_ctr[0] != 0 || ssl->in_ctr[1] != 0 )
1292:Source\mbedtls_open\library/ssl_srv.c ****         {
1293:Source\mbedtls_open\library/ssl_srv.c ****             MBEDTLS_SSL_DEBUG_MSG( 1, ( "bad client hello message" ) );
1294:Source\mbedtls_open\library/ssl_srv.c ****             return( MBEDTLS_ERR_SSL_BAD_HS_CLIENT_HELLO );
1295:Source\mbedtls_open\library/ssl_srv.c ****         }
1296:Source\mbedtls_open\library/ssl_srv.c **** 
1297:Source\mbedtls_open\library/ssl_srv.c ****         memcpy( ssl->cur_out_ctr + 2, ssl->in_ctr + 2, 6 );
1298:Source\mbedtls_open\library/ssl_srv.c **** 
1299:Source\mbedtls_open\library/ssl_srv.c **** #if defined(MBEDTLS_SSL_DTLS_ANTI_REPLAY)
1300:Source\mbedtls_open\library/ssl_srv.c ****         if( mbedtls_ssl_dtls_replay_check( ssl ) != 0 )
1301:Source\mbedtls_open\library/ssl_srv.c ****         {
1302:Source\mbedtls_open\library/ssl_srv.c ****             MBEDTLS_SSL_DEBUG_MSG( 1, ( "replayed record, discarding" ) );
1303:Source\mbedtls_open\library/ssl_srv.c ****             ssl->next_record_offset = 0;
1304:Source\mbedtls_open\library/ssl_srv.c ****             ssl->in_left = 0;
1305:Source\mbedtls_open\library/ssl_srv.c ****             goto read_record_header;
1306:Source\mbedtls_open\library/ssl_srv.c ****         }
1307:Source\mbedtls_open\library/ssl_srv.c **** 
1308:Source\mbedtls_open\library/ssl_srv.c ****         /* No MAC to check yet, so we can update right now */
1309:Source\mbedtls_open\library/ssl_srv.c ****         mbedtls_ssl_dtls_replay_update( ssl );
1310:Source\mbedtls_open\library/ssl_srv.c **** #endif
1311:Source\mbedtls_open\library/ssl_srv.c ****     }
1312:Source\mbedtls_open\library/ssl_srv.c **** #endif /* MBEDTLS_SSL_PROTO_DTLS */
1313:Source\mbedtls_open\library/ssl_srv.c **** 
1314:Source\mbedtls_open\library/ssl_srv.c ****     msg_len = ( ssl->in_len[0] << 8 ) | ssl->in_len[1];
1315:Source\mbedtls_open\library/ssl_srv.c **** 
1316:Source\mbedtls_open\library/ssl_srv.c **** #if defined(MBEDTLS_SSL_RENEGOTIATION)
1317:Source\mbedtls_open\library/ssl_srv.c ****     if( ssl->renego_status != MBEDTLS_SSL_INITIAL_HANDSHAKE )
1318:Source\mbedtls_open\library/ssl_srv.c ****     {
1319:Source\mbedtls_open\library/ssl_srv.c ****         /* Set by mbedtls_ssl_read_record() */
1320:Source\mbedtls_open\library/ssl_srv.c ****         msg_len = ssl->in_hslen;
1321:Source\mbedtls_open\library/ssl_srv.c ****     }
1322:Source\mbedtls_open\library/ssl_srv.c ****     else
1323:Source\mbedtls_open\library/ssl_srv.c **** #endif
1324:Source\mbedtls_open\library/ssl_srv.c ****     {
1325:Source\mbedtls_open\library/ssl_srv.c ****         if( msg_len > MBEDTLS_SSL_IN_CONTENT_LEN )
1326:Source\mbedtls_open\library/ssl_srv.c ****         {
1327:Source\mbedtls_open\library/ssl_srv.c ****             MBEDTLS_SSL_DEBUG_MSG( 1, ( "bad client hello message" ) );
1328:Source\mbedtls_open\library/ssl_srv.c ****             return( MBEDTLS_ERR_SSL_BAD_HS_CLIENT_HELLO );
1329:Source\mbedtls_open\library/ssl_srv.c ****         }
1330:Source\mbedtls_open\library/ssl_srv.c **** 
ARM GAS  C:\Users\Phuong\AppData\Local\Temp\cct2IqGs.s 			page 29


1331:Source\mbedtls_open\library/ssl_srv.c ****         if( ( ret = mbedtls_ssl_fetch_input( ssl,
1332:Source\mbedtls_open\library/ssl_srv.c ****                        mbedtls_ssl_hdr_len( ssl ) + msg_len ) ) != 0 )
1333:Source\mbedtls_open\library/ssl_srv.c ****         {
1334:Source\mbedtls_open\library/ssl_srv.c ****             MBEDTLS_SSL_DEBUG_RET( 1, "mbedtls_ssl_fetch_input", ret );
1335:Source\mbedtls_open\library/ssl_srv.c ****             return( ret );
1336:Source\mbedtls_open\library/ssl_srv.c ****         }
1337:Source\mbedtls_open\library/ssl_srv.c **** 
1338:Source\mbedtls_open\library/ssl_srv.c ****     /* Done reading this record, get ready for the next one */
1339:Source\mbedtls_open\library/ssl_srv.c **** #if defined(MBEDTLS_SSL_PROTO_DTLS)
1340:Source\mbedtls_open\library/ssl_srv.c ****         if( ssl->conf->transport == MBEDTLS_SSL_TRANSPORT_DATAGRAM )
1341:Source\mbedtls_open\library/ssl_srv.c ****             ssl->next_record_offset = msg_len + mbedtls_ssl_hdr_len( ssl );
1342:Source\mbedtls_open\library/ssl_srv.c ****         else
1343:Source\mbedtls_open\library/ssl_srv.c **** #endif
1344:Source\mbedtls_open\library/ssl_srv.c ****             ssl->in_left = 0;
1345:Source\mbedtls_open\library/ssl_srv.c ****     }
1346:Source\mbedtls_open\library/ssl_srv.c **** 
1347:Source\mbedtls_open\library/ssl_srv.c ****     buf = ssl->in_msg;
1348:Source\mbedtls_open\library/ssl_srv.c **** 
1349:Source\mbedtls_open\library/ssl_srv.c ****     MBEDTLS_SSL_DEBUG_BUF( 4, "record contents", buf, msg_len );
1350:Source\mbedtls_open\library/ssl_srv.c **** 
1351:Source\mbedtls_open\library/ssl_srv.c ****     ssl->handshake->update_checksum( ssl, buf, msg_len );
1352:Source\mbedtls_open\library/ssl_srv.c **** 
1353:Source\mbedtls_open\library/ssl_srv.c ****     /*
1354:Source\mbedtls_open\library/ssl_srv.c ****      * Handshake layer:
1355:Source\mbedtls_open\library/ssl_srv.c ****      *     0  .   0   handshake type
1356:Source\mbedtls_open\library/ssl_srv.c ****      *     1  .   3   handshake length
1357:Source\mbedtls_open\library/ssl_srv.c ****      *     4  .   5   DTLS only: message seqence number
1358:Source\mbedtls_open\library/ssl_srv.c ****      *     6  .   8   DTLS only: fragment offset
1359:Source\mbedtls_open\library/ssl_srv.c ****      *     9  .  11   DTLS only: fragment length
1360:Source\mbedtls_open\library/ssl_srv.c ****      */
1361:Source\mbedtls_open\library/ssl_srv.c ****     if( msg_len < mbedtls_ssl_hs_hdr_len( ssl ) )
1362:Source\mbedtls_open\library/ssl_srv.c ****     {
1363:Source\mbedtls_open\library/ssl_srv.c ****         MBEDTLS_SSL_DEBUG_MSG( 1, ( "bad client hello message" ) );
1364:Source\mbedtls_open\library/ssl_srv.c ****         return( MBEDTLS_ERR_SSL_BAD_HS_CLIENT_HELLO );
1365:Source\mbedtls_open\library/ssl_srv.c ****     }
1366:Source\mbedtls_open\library/ssl_srv.c **** 
1367:Source\mbedtls_open\library/ssl_srv.c ****     MBEDTLS_SSL_DEBUG_MSG( 3, ( "client hello v3, handshake type: %d", buf[0] ) );
1368:Source\mbedtls_open\library/ssl_srv.c **** 
1369:Source\mbedtls_open\library/ssl_srv.c ****     if( buf[0] != MBEDTLS_SSL_HS_CLIENT_HELLO )
1370:Source\mbedtls_open\library/ssl_srv.c ****     {
1371:Source\mbedtls_open\library/ssl_srv.c ****         MBEDTLS_SSL_DEBUG_MSG( 1, ( "bad client hello message" ) );
1372:Source\mbedtls_open\library/ssl_srv.c ****         return( MBEDTLS_ERR_SSL_BAD_HS_CLIENT_HELLO );
1373:Source\mbedtls_open\library/ssl_srv.c ****     }
1374:Source\mbedtls_open\library/ssl_srv.c **** 
1375:Source\mbedtls_open\library/ssl_srv.c ****     MBEDTLS_SSL_DEBUG_MSG( 3, ( "client hello v3, handshake len.: %d",
1376:Source\mbedtls_open\library/ssl_srv.c ****                    ( buf[1] << 16 ) | ( buf[2] << 8 ) | buf[3] ) );
1377:Source\mbedtls_open\library/ssl_srv.c **** 
1378:Source\mbedtls_open\library/ssl_srv.c ****     /* We don't support fragmentation of ClientHello (yet?) */
1379:Source\mbedtls_open\library/ssl_srv.c ****     if( buf[1] != 0 ||
1380:Source\mbedtls_open\library/ssl_srv.c ****         msg_len != mbedtls_ssl_hs_hdr_len( ssl ) + ( ( buf[2] << 8 ) | buf[3] ) )
1381:Source\mbedtls_open\library/ssl_srv.c ****     {
1382:Source\mbedtls_open\library/ssl_srv.c ****         MBEDTLS_SSL_DEBUG_MSG( 1, ( "bad client hello message" ) );
1383:Source\mbedtls_open\library/ssl_srv.c ****         return( MBEDTLS_ERR_SSL_BAD_HS_CLIENT_HELLO );
1384:Source\mbedtls_open\library/ssl_srv.c ****     }
1385:Source\mbedtls_open\library/ssl_srv.c **** 
1386:Source\mbedtls_open\library/ssl_srv.c **** #if defined(MBEDTLS_SSL_PROTO_DTLS)
1387:Source\mbedtls_open\library/ssl_srv.c ****     if( ssl->conf->transport == MBEDTLS_SSL_TRANSPORT_DATAGRAM )
ARM GAS  C:\Users\Phuong\AppData\Local\Temp\cct2IqGs.s 			page 30


1388:Source\mbedtls_open\library/ssl_srv.c ****     {
1389:Source\mbedtls_open\library/ssl_srv.c ****         /*
1390:Source\mbedtls_open\library/ssl_srv.c ****          * Copy the client's handshake message_seq on initial handshakes,
1391:Source\mbedtls_open\library/ssl_srv.c ****          * check sequence number on renego.
1392:Source\mbedtls_open\library/ssl_srv.c ****          */
1393:Source\mbedtls_open\library/ssl_srv.c **** #if defined(MBEDTLS_SSL_RENEGOTIATION)
1394:Source\mbedtls_open\library/ssl_srv.c ****         if( ssl->renego_status == MBEDTLS_SSL_RENEGOTIATION_IN_PROGRESS )
1395:Source\mbedtls_open\library/ssl_srv.c ****         {
1396:Source\mbedtls_open\library/ssl_srv.c ****             /* This couldn't be done in ssl_prepare_handshake_record() */
1397:Source\mbedtls_open\library/ssl_srv.c ****             unsigned int cli_msg_seq = ( ssl->in_msg[4] << 8 ) |
1398:Source\mbedtls_open\library/ssl_srv.c ****                                          ssl->in_msg[5];
1399:Source\mbedtls_open\library/ssl_srv.c **** 
1400:Source\mbedtls_open\library/ssl_srv.c ****             if( cli_msg_seq != ssl->handshake->in_msg_seq )
1401:Source\mbedtls_open\library/ssl_srv.c ****             {
1402:Source\mbedtls_open\library/ssl_srv.c ****                 MBEDTLS_SSL_DEBUG_MSG( 1, ( "bad client hello message_seq: "
1403:Source\mbedtls_open\library/ssl_srv.c ****                                     "%d (expected %d)", cli_msg_seq,
1404:Source\mbedtls_open\library/ssl_srv.c ****                                     ssl->handshake->in_msg_seq ) );
1405:Source\mbedtls_open\library/ssl_srv.c ****                 return( MBEDTLS_ERR_SSL_BAD_HS_CLIENT_HELLO );
1406:Source\mbedtls_open\library/ssl_srv.c ****             }
1407:Source\mbedtls_open\library/ssl_srv.c **** 
1408:Source\mbedtls_open\library/ssl_srv.c ****             ssl->handshake->in_msg_seq++;
1409:Source\mbedtls_open\library/ssl_srv.c ****         }
1410:Source\mbedtls_open\library/ssl_srv.c ****         else
1411:Source\mbedtls_open\library/ssl_srv.c **** #endif
1412:Source\mbedtls_open\library/ssl_srv.c ****         {
1413:Source\mbedtls_open\library/ssl_srv.c ****             unsigned int cli_msg_seq = ( ssl->in_msg[4] << 8 ) |
1414:Source\mbedtls_open\library/ssl_srv.c ****                                          ssl->in_msg[5];
1415:Source\mbedtls_open\library/ssl_srv.c ****             ssl->handshake->out_msg_seq = cli_msg_seq;
1416:Source\mbedtls_open\library/ssl_srv.c ****             ssl->handshake->in_msg_seq  = cli_msg_seq + 1;
1417:Source\mbedtls_open\library/ssl_srv.c ****         }
1418:Source\mbedtls_open\library/ssl_srv.c **** 
1419:Source\mbedtls_open\library/ssl_srv.c ****         /*
1420:Source\mbedtls_open\library/ssl_srv.c ****          * For now we don't support fragmentation, so make sure
1421:Source\mbedtls_open\library/ssl_srv.c ****          * fragment_offset == 0 and fragment_length == length
1422:Source\mbedtls_open\library/ssl_srv.c ****          */
1423:Source\mbedtls_open\library/ssl_srv.c ****         if( ssl->in_msg[6] != 0 || ssl->in_msg[7] != 0 || ssl->in_msg[8] != 0 ||
1424:Source\mbedtls_open\library/ssl_srv.c ****             memcmp( ssl->in_msg + 1, ssl->in_msg + 9, 3 ) != 0 )
1425:Source\mbedtls_open\library/ssl_srv.c ****         {
1426:Source\mbedtls_open\library/ssl_srv.c ****             MBEDTLS_SSL_DEBUG_MSG( 1, ( "ClientHello fragmentation not supported" ) );
1427:Source\mbedtls_open\library/ssl_srv.c ****             return( MBEDTLS_ERR_SSL_FEATURE_UNAVAILABLE );
1428:Source\mbedtls_open\library/ssl_srv.c ****         }
1429:Source\mbedtls_open\library/ssl_srv.c ****     }
1430:Source\mbedtls_open\library/ssl_srv.c **** #endif /* MBEDTLS_SSL_PROTO_DTLS */
1431:Source\mbedtls_open\library/ssl_srv.c **** 
1432:Source\mbedtls_open\library/ssl_srv.c ****     buf += mbedtls_ssl_hs_hdr_len( ssl );
1433:Source\mbedtls_open\library/ssl_srv.c ****     msg_len -= mbedtls_ssl_hs_hdr_len( ssl );
1434:Source\mbedtls_open\library/ssl_srv.c **** 
1435:Source\mbedtls_open\library/ssl_srv.c ****     /*
1436:Source\mbedtls_open\library/ssl_srv.c ****      * ClientHello layer:
1437:Source\mbedtls_open\library/ssl_srv.c ****      *     0  .   1   protocol version
1438:Source\mbedtls_open\library/ssl_srv.c ****      *     2  .  33   random bytes (starting with 4 bytes of Unix time)
1439:Source\mbedtls_open\library/ssl_srv.c ****      *    34  .  35   session id length (1 byte)
1440:Source\mbedtls_open\library/ssl_srv.c ****      *    35  . 34+x  session id
1441:Source\mbedtls_open\library/ssl_srv.c ****      *   35+x . 35+x  DTLS only: cookie length (1 byte)
1442:Source\mbedtls_open\library/ssl_srv.c ****      *   36+x .  ..   DTLS only: cookie
1443:Source\mbedtls_open\library/ssl_srv.c ****      *    ..  .  ..   ciphersuite list length (2 bytes)
1444:Source\mbedtls_open\library/ssl_srv.c ****      *    ..  .  ..   ciphersuite list
ARM GAS  C:\Users\Phuong\AppData\Local\Temp\cct2IqGs.s 			page 31


1445:Source\mbedtls_open\library/ssl_srv.c ****      *    ..  .  ..   compression alg. list length (1 byte)
1446:Source\mbedtls_open\library/ssl_srv.c ****      *    ..  .  ..   compression alg. list
1447:Source\mbedtls_open\library/ssl_srv.c ****      *    ..  .  ..   extensions length (2 bytes, optional)
1448:Source\mbedtls_open\library/ssl_srv.c ****      *    ..  .  ..   extensions (optional)
1449:Source\mbedtls_open\library/ssl_srv.c ****      */
1450:Source\mbedtls_open\library/ssl_srv.c **** 
1451:Source\mbedtls_open\library/ssl_srv.c ****     /*
1452:Source\mbedtls_open\library/ssl_srv.c ****      * Minimal length (with everything empty and extensions ommitted) is
1453:Source\mbedtls_open\library/ssl_srv.c ****      * 2 + 32 + 1 + 2 + 1 = 38 bytes. Check that first, so that we can
1454:Source\mbedtls_open\library/ssl_srv.c ****      * read at least up to session id length without worrying.
1455:Source\mbedtls_open\library/ssl_srv.c ****      */
1456:Source\mbedtls_open\library/ssl_srv.c ****     if( msg_len < 38 )
1457:Source\mbedtls_open\library/ssl_srv.c ****     {
1458:Source\mbedtls_open\library/ssl_srv.c ****         MBEDTLS_SSL_DEBUG_MSG( 1, ( "bad client hello message" ) );
1459:Source\mbedtls_open\library/ssl_srv.c ****         return( MBEDTLS_ERR_SSL_BAD_HS_CLIENT_HELLO );
1460:Source\mbedtls_open\library/ssl_srv.c ****     }
1461:Source\mbedtls_open\library/ssl_srv.c **** 
1462:Source\mbedtls_open\library/ssl_srv.c ****     /*
1463:Source\mbedtls_open\library/ssl_srv.c ****      * Check and save the protocol version
1464:Source\mbedtls_open\library/ssl_srv.c ****      */
1465:Source\mbedtls_open\library/ssl_srv.c ****     MBEDTLS_SSL_DEBUG_BUF( 3, "client hello, version", buf, 2 );
1466:Source\mbedtls_open\library/ssl_srv.c **** 
1467:Source\mbedtls_open\library/ssl_srv.c ****     mbedtls_ssl_read_version( &ssl->major_ver, &ssl->minor_ver,
1468:Source\mbedtls_open\library/ssl_srv.c ****                       ssl->conf->transport, buf );
1469:Source\mbedtls_open\library/ssl_srv.c **** 
1470:Source\mbedtls_open\library/ssl_srv.c ****     ssl->handshake->max_major_ver = ssl->major_ver;
1471:Source\mbedtls_open\library/ssl_srv.c ****     ssl->handshake->max_minor_ver = ssl->minor_ver;
1472:Source\mbedtls_open\library/ssl_srv.c **** 
1473:Source\mbedtls_open\library/ssl_srv.c ****     if( ssl->major_ver < ssl->conf->min_major_ver ||
1474:Source\mbedtls_open\library/ssl_srv.c ****         ssl->minor_ver < ssl->conf->min_minor_ver )
1475:Source\mbedtls_open\library/ssl_srv.c ****     {
1476:Source\mbedtls_open\library/ssl_srv.c ****         MBEDTLS_SSL_DEBUG_MSG( 1, ( "client only supports ssl smaller than minimum"
1477:Source\mbedtls_open\library/ssl_srv.c ****                             " [%d:%d] < [%d:%d]",
1478:Source\mbedtls_open\library/ssl_srv.c ****                             ssl->major_ver, ssl->minor_ver,
1479:Source\mbedtls_open\library/ssl_srv.c ****                             ssl->conf->min_major_ver, ssl->conf->min_minor_ver ) );
1480:Source\mbedtls_open\library/ssl_srv.c ****         mbedtls_ssl_send_alert_message( ssl, MBEDTLS_SSL_ALERT_LEVEL_FATAL,
1481:Source\mbedtls_open\library/ssl_srv.c ****                                      MBEDTLS_SSL_ALERT_MSG_PROTOCOL_VERSION );
1482:Source\mbedtls_open\library/ssl_srv.c ****         return( MBEDTLS_ERR_SSL_BAD_HS_PROTOCOL_VERSION );
1483:Source\mbedtls_open\library/ssl_srv.c ****     }
1484:Source\mbedtls_open\library/ssl_srv.c **** 
1485:Source\mbedtls_open\library/ssl_srv.c ****     if( ssl->major_ver > ssl->conf->max_major_ver )
1486:Source\mbedtls_open\library/ssl_srv.c ****     {
1487:Source\mbedtls_open\library/ssl_srv.c ****         ssl->major_ver = ssl->conf->max_major_ver;
1488:Source\mbedtls_open\library/ssl_srv.c ****         ssl->minor_ver = ssl->conf->max_minor_ver;
1489:Source\mbedtls_open\library/ssl_srv.c ****     }
1490:Source\mbedtls_open\library/ssl_srv.c ****     else if( ssl->minor_ver > ssl->conf->max_minor_ver )
1491:Source\mbedtls_open\library/ssl_srv.c ****         ssl->minor_ver = ssl->conf->max_minor_ver;
1492:Source\mbedtls_open\library/ssl_srv.c **** 
1493:Source\mbedtls_open\library/ssl_srv.c ****     /*
1494:Source\mbedtls_open\library/ssl_srv.c ****      * Save client random (inc. Unix time)
1495:Source\mbedtls_open\library/ssl_srv.c ****      */
1496:Source\mbedtls_open\library/ssl_srv.c ****     MBEDTLS_SSL_DEBUG_BUF( 3, "client hello, random bytes", buf + 2, 32 );
1497:Source\mbedtls_open\library/ssl_srv.c **** 
1498:Source\mbedtls_open\library/ssl_srv.c ****     memcpy( ssl->handshake->randbytes, buf + 2, 32 );
1499:Source\mbedtls_open\library/ssl_srv.c **** 
1500:Source\mbedtls_open\library/ssl_srv.c ****     /*
1501:Source\mbedtls_open\library/ssl_srv.c ****      * Check the session ID length and save session ID
ARM GAS  C:\Users\Phuong\AppData\Local\Temp\cct2IqGs.s 			page 32


1502:Source\mbedtls_open\library/ssl_srv.c ****      */
1503:Source\mbedtls_open\library/ssl_srv.c ****     sess_len = buf[34];
1504:Source\mbedtls_open\library/ssl_srv.c **** 
1505:Source\mbedtls_open\library/ssl_srv.c ****     if( sess_len > sizeof( ssl->session_negotiate->id ) ||
1506:Source\mbedtls_open\library/ssl_srv.c ****         sess_len + 34 + 2 > msg_len ) /* 2 for cipherlist length field */
1507:Source\mbedtls_open\library/ssl_srv.c ****     {
1508:Source\mbedtls_open\library/ssl_srv.c ****         MBEDTLS_SSL_DEBUG_MSG( 1, ( "bad client hello message" ) );
1509:Source\mbedtls_open\library/ssl_srv.c ****         mbedtls_ssl_send_alert_message( ssl, MBEDTLS_SSL_ALERT_LEVEL_FATAL,
1510:Source\mbedtls_open\library/ssl_srv.c ****                                         MBEDTLS_SSL_ALERT_MSG_DECODE_ERROR );
1511:Source\mbedtls_open\library/ssl_srv.c ****         return( MBEDTLS_ERR_SSL_BAD_HS_CLIENT_HELLO );
1512:Source\mbedtls_open\library/ssl_srv.c ****     }
1513:Source\mbedtls_open\library/ssl_srv.c **** 
1514:Source\mbedtls_open\library/ssl_srv.c ****     MBEDTLS_SSL_DEBUG_BUF( 3, "client hello, session id", buf + 35, sess_len );
1515:Source\mbedtls_open\library/ssl_srv.c **** 
1516:Source\mbedtls_open\library/ssl_srv.c ****     ssl->session_negotiate->id_len = sess_len;
1517:Source\mbedtls_open\library/ssl_srv.c ****     memset( ssl->session_negotiate->id, 0,
1518:Source\mbedtls_open\library/ssl_srv.c ****             sizeof( ssl->session_negotiate->id ) );
1519:Source\mbedtls_open\library/ssl_srv.c ****     memcpy( ssl->session_negotiate->id, buf + 35,
1520:Source\mbedtls_open\library/ssl_srv.c ****             ssl->session_negotiate->id_len );
1521:Source\mbedtls_open\library/ssl_srv.c **** 
1522:Source\mbedtls_open\library/ssl_srv.c ****     /*
1523:Source\mbedtls_open\library/ssl_srv.c ****      * Check the cookie length and content
1524:Source\mbedtls_open\library/ssl_srv.c ****      */
1525:Source\mbedtls_open\library/ssl_srv.c **** #if defined(MBEDTLS_SSL_PROTO_DTLS)
1526:Source\mbedtls_open\library/ssl_srv.c ****     if( ssl->conf->transport == MBEDTLS_SSL_TRANSPORT_DATAGRAM )
1527:Source\mbedtls_open\library/ssl_srv.c ****     {
1528:Source\mbedtls_open\library/ssl_srv.c ****         cookie_offset = 35 + sess_len;
1529:Source\mbedtls_open\library/ssl_srv.c ****         cookie_len = buf[cookie_offset];
1530:Source\mbedtls_open\library/ssl_srv.c **** 
1531:Source\mbedtls_open\library/ssl_srv.c ****         if( cookie_offset + 1 + cookie_len + 2 > msg_len )
1532:Source\mbedtls_open\library/ssl_srv.c ****         {
1533:Source\mbedtls_open\library/ssl_srv.c ****             MBEDTLS_SSL_DEBUG_MSG( 1, ( "bad client hello message" ) );
1534:Source\mbedtls_open\library/ssl_srv.c ****             mbedtls_ssl_send_alert_message( ssl, MBEDTLS_SSL_ALERT_LEVEL_FATAL,
1535:Source\mbedtls_open\library/ssl_srv.c ****                                             MBEDTLS_SSL_ALERT_MSG_PROTOCOL_VERSION );
1536:Source\mbedtls_open\library/ssl_srv.c ****             return( MBEDTLS_ERR_SSL_BAD_HS_CLIENT_HELLO );
1537:Source\mbedtls_open\library/ssl_srv.c ****         }
1538:Source\mbedtls_open\library/ssl_srv.c **** 
1539:Source\mbedtls_open\library/ssl_srv.c ****         MBEDTLS_SSL_DEBUG_BUF( 3, "client hello, cookie",
1540:Source\mbedtls_open\library/ssl_srv.c ****                        buf + cookie_offset + 1, cookie_len );
1541:Source\mbedtls_open\library/ssl_srv.c **** 
1542:Source\mbedtls_open\library/ssl_srv.c **** #if defined(MBEDTLS_SSL_DTLS_HELLO_VERIFY)
1543:Source\mbedtls_open\library/ssl_srv.c ****         if( ssl->conf->f_cookie_check != NULL
1544:Source\mbedtls_open\library/ssl_srv.c **** #if defined(MBEDTLS_SSL_RENEGOTIATION)
1545:Source\mbedtls_open\library/ssl_srv.c ****             && ssl->renego_status == MBEDTLS_SSL_INITIAL_HANDSHAKE
1546:Source\mbedtls_open\library/ssl_srv.c **** #endif
1547:Source\mbedtls_open\library/ssl_srv.c ****             )
1548:Source\mbedtls_open\library/ssl_srv.c ****         {
1549:Source\mbedtls_open\library/ssl_srv.c ****             if( ssl->conf->f_cookie_check( ssl->conf->p_cookie,
1550:Source\mbedtls_open\library/ssl_srv.c ****                                      buf + cookie_offset + 1, cookie_len,
1551:Source\mbedtls_open\library/ssl_srv.c ****                                      ssl->cli_id, ssl->cli_id_len ) != 0 )
1552:Source\mbedtls_open\library/ssl_srv.c ****             {
1553:Source\mbedtls_open\library/ssl_srv.c ****                 MBEDTLS_SSL_DEBUG_MSG( 2, ( "cookie verification failed" ) );
1554:Source\mbedtls_open\library/ssl_srv.c ****                 ssl->handshake->verify_cookie_len = 1;
1555:Source\mbedtls_open\library/ssl_srv.c ****             }
1556:Source\mbedtls_open\library/ssl_srv.c ****             else
1557:Source\mbedtls_open\library/ssl_srv.c ****             {
1558:Source\mbedtls_open\library/ssl_srv.c ****                 MBEDTLS_SSL_DEBUG_MSG( 2, ( "cookie verification passed" ) );
ARM GAS  C:\Users\Phuong\AppData\Local\Temp\cct2IqGs.s 			page 33


1559:Source\mbedtls_open\library/ssl_srv.c ****                 ssl->handshake->verify_cookie_len = 0;
1560:Source\mbedtls_open\library/ssl_srv.c ****             }
1561:Source\mbedtls_open\library/ssl_srv.c ****         }
1562:Source\mbedtls_open\library/ssl_srv.c ****         else
1563:Source\mbedtls_open\library/ssl_srv.c **** #endif /* MBEDTLS_SSL_DTLS_HELLO_VERIFY */
1564:Source\mbedtls_open\library/ssl_srv.c ****         {
1565:Source\mbedtls_open\library/ssl_srv.c ****             /* We know we didn't send a cookie, so it should be empty */
1566:Source\mbedtls_open\library/ssl_srv.c ****             if( cookie_len != 0 )
1567:Source\mbedtls_open\library/ssl_srv.c ****             {
1568:Source\mbedtls_open\library/ssl_srv.c ****                 /* This may be an attacker's probe, so don't send an alert */
1569:Source\mbedtls_open\library/ssl_srv.c ****                 MBEDTLS_SSL_DEBUG_MSG( 1, ( "bad client hello message" ) );
1570:Source\mbedtls_open\library/ssl_srv.c ****                 return( MBEDTLS_ERR_SSL_BAD_HS_CLIENT_HELLO );
1571:Source\mbedtls_open\library/ssl_srv.c ****             }
1572:Source\mbedtls_open\library/ssl_srv.c **** 
1573:Source\mbedtls_open\library/ssl_srv.c ****             MBEDTLS_SSL_DEBUG_MSG( 2, ( "cookie verification skipped" ) );
1574:Source\mbedtls_open\library/ssl_srv.c ****         }
1575:Source\mbedtls_open\library/ssl_srv.c **** 
1576:Source\mbedtls_open\library/ssl_srv.c ****     /*
1577:Source\mbedtls_open\library/ssl_srv.c ****      * Check the ciphersuitelist length (will be parsed later)
1578:Source\mbedtls_open\library/ssl_srv.c ****      */
1579:Source\mbedtls_open\library/ssl_srv.c ****         ciph_offset = cookie_offset + 1 + cookie_len;
1580:Source\mbedtls_open\library/ssl_srv.c ****     }
1581:Source\mbedtls_open\library/ssl_srv.c ****     else
1582:Source\mbedtls_open\library/ssl_srv.c **** #endif /* MBEDTLS_SSL_PROTO_DTLS */
1583:Source\mbedtls_open\library/ssl_srv.c ****         ciph_offset = 35 + sess_len;
1584:Source\mbedtls_open\library/ssl_srv.c **** 
1585:Source\mbedtls_open\library/ssl_srv.c ****     ciph_len = ( buf[ciph_offset + 0] << 8 )
1586:Source\mbedtls_open\library/ssl_srv.c ****              | ( buf[ciph_offset + 1]      );
1587:Source\mbedtls_open\library/ssl_srv.c **** 
1588:Source\mbedtls_open\library/ssl_srv.c ****     if( ciph_len < 2 ||
1589:Source\mbedtls_open\library/ssl_srv.c ****         ciph_len + 2 + ciph_offset + 1 > msg_len || /* 1 for comp. alg. len */
1590:Source\mbedtls_open\library/ssl_srv.c ****         ( ciph_len % 2 ) != 0 )
1591:Source\mbedtls_open\library/ssl_srv.c ****     {
1592:Source\mbedtls_open\library/ssl_srv.c ****         MBEDTLS_SSL_DEBUG_MSG( 1, ( "bad client hello message" ) );
1593:Source\mbedtls_open\library/ssl_srv.c ****         mbedtls_ssl_send_alert_message( ssl, MBEDTLS_SSL_ALERT_LEVEL_FATAL,
1594:Source\mbedtls_open\library/ssl_srv.c ****                                         MBEDTLS_SSL_ALERT_MSG_DECODE_ERROR );
1595:Source\mbedtls_open\library/ssl_srv.c ****         return( MBEDTLS_ERR_SSL_BAD_HS_CLIENT_HELLO );
1596:Source\mbedtls_open\library/ssl_srv.c ****     }
1597:Source\mbedtls_open\library/ssl_srv.c **** 
1598:Source\mbedtls_open\library/ssl_srv.c ****     MBEDTLS_SSL_DEBUG_BUF( 3, "client hello, ciphersuitelist",
1599:Source\mbedtls_open\library/ssl_srv.c ****                    buf + ciph_offset + 2,  ciph_len );
1600:Source\mbedtls_open\library/ssl_srv.c **** 
1601:Source\mbedtls_open\library/ssl_srv.c ****     /*
1602:Source\mbedtls_open\library/ssl_srv.c ****      * Check the compression algorithms length and pick one
1603:Source\mbedtls_open\library/ssl_srv.c ****      */
1604:Source\mbedtls_open\library/ssl_srv.c ****     comp_offset = ciph_offset + 2 + ciph_len;
1605:Source\mbedtls_open\library/ssl_srv.c **** 
1606:Source\mbedtls_open\library/ssl_srv.c ****     comp_len = buf[comp_offset];
1607:Source\mbedtls_open\library/ssl_srv.c **** 
1608:Source\mbedtls_open\library/ssl_srv.c ****     if( comp_len < 1 ||
1609:Source\mbedtls_open\library/ssl_srv.c ****         comp_len > 16 ||
1610:Source\mbedtls_open\library/ssl_srv.c ****         comp_len + comp_offset + 1 > msg_len )
1611:Source\mbedtls_open\library/ssl_srv.c ****     {
1612:Source\mbedtls_open\library/ssl_srv.c ****         MBEDTLS_SSL_DEBUG_MSG( 1, ( "bad client hello message" ) );
1613:Source\mbedtls_open\library/ssl_srv.c ****         mbedtls_ssl_send_alert_message( ssl, MBEDTLS_SSL_ALERT_LEVEL_FATAL,
1614:Source\mbedtls_open\library/ssl_srv.c ****                                         MBEDTLS_SSL_ALERT_MSG_DECODE_ERROR );
1615:Source\mbedtls_open\library/ssl_srv.c ****         return( MBEDTLS_ERR_SSL_BAD_HS_CLIENT_HELLO );
ARM GAS  C:\Users\Phuong\AppData\Local\Temp\cct2IqGs.s 			page 34


1616:Source\mbedtls_open\library/ssl_srv.c ****     }
1617:Source\mbedtls_open\library/ssl_srv.c **** 
1618:Source\mbedtls_open\library/ssl_srv.c ****     MBEDTLS_SSL_DEBUG_BUF( 3, "client hello, compression",
1619:Source\mbedtls_open\library/ssl_srv.c ****                       buf + comp_offset + 1, comp_len );
1620:Source\mbedtls_open\library/ssl_srv.c **** 
1621:Source\mbedtls_open\library/ssl_srv.c ****     ssl->session_negotiate->compression = MBEDTLS_SSL_COMPRESS_NULL;
1622:Source\mbedtls_open\library/ssl_srv.c **** #if defined(MBEDTLS_ZLIB_SUPPORT)
1623:Source\mbedtls_open\library/ssl_srv.c ****     for( i = 0; i < comp_len; ++i )
1624:Source\mbedtls_open\library/ssl_srv.c ****     {
1625:Source\mbedtls_open\library/ssl_srv.c ****         if( buf[comp_offset + 1 + i] == MBEDTLS_SSL_COMPRESS_DEFLATE )
1626:Source\mbedtls_open\library/ssl_srv.c ****         {
1627:Source\mbedtls_open\library/ssl_srv.c ****             ssl->session_negotiate->compression = MBEDTLS_SSL_COMPRESS_DEFLATE;
1628:Source\mbedtls_open\library/ssl_srv.c ****             break;
1629:Source\mbedtls_open\library/ssl_srv.c ****         }
1630:Source\mbedtls_open\library/ssl_srv.c ****     }
1631:Source\mbedtls_open\library/ssl_srv.c **** #endif
1632:Source\mbedtls_open\library/ssl_srv.c **** 
1633:Source\mbedtls_open\library/ssl_srv.c ****     /* See comments in ssl_write_client_hello() */
1634:Source\mbedtls_open\library/ssl_srv.c **** #if defined(MBEDTLS_SSL_PROTO_DTLS)
1635:Source\mbedtls_open\library/ssl_srv.c ****     if( ssl->conf->transport == MBEDTLS_SSL_TRANSPORT_DATAGRAM )
1636:Source\mbedtls_open\library/ssl_srv.c ****         ssl->session_negotiate->compression = MBEDTLS_SSL_COMPRESS_NULL;
1637:Source\mbedtls_open\library/ssl_srv.c **** #endif
1638:Source\mbedtls_open\library/ssl_srv.c **** 
1639:Source\mbedtls_open\library/ssl_srv.c ****     /* Do not parse the extensions if the protocol is SSLv3 */
1640:Source\mbedtls_open\library/ssl_srv.c **** #if defined(MBEDTLS_SSL_PROTO_SSL3)
1641:Source\mbedtls_open\library/ssl_srv.c ****     if( ( ssl->major_ver != 3 ) || ( ssl->minor_ver != 0 ) )
1642:Source\mbedtls_open\library/ssl_srv.c ****     {
1643:Source\mbedtls_open\library/ssl_srv.c **** #endif
1644:Source\mbedtls_open\library/ssl_srv.c ****         /*
1645:Source\mbedtls_open\library/ssl_srv.c ****          * Check the extension length
1646:Source\mbedtls_open\library/ssl_srv.c ****          */
1647:Source\mbedtls_open\library/ssl_srv.c ****         ext_offset = comp_offset + 1 + comp_len;
1648:Source\mbedtls_open\library/ssl_srv.c ****         if( msg_len > ext_offset )
1649:Source\mbedtls_open\library/ssl_srv.c ****         {
1650:Source\mbedtls_open\library/ssl_srv.c ****             if( msg_len < ext_offset + 2 )
1651:Source\mbedtls_open\library/ssl_srv.c ****             {
1652:Source\mbedtls_open\library/ssl_srv.c ****                 MBEDTLS_SSL_DEBUG_MSG( 1, ( "bad client hello message" ) );
1653:Source\mbedtls_open\library/ssl_srv.c ****                 mbedtls_ssl_send_alert_message( ssl, MBEDTLS_SSL_ALERT_LEVEL_FATAL,
1654:Source\mbedtls_open\library/ssl_srv.c ****                                                 MBEDTLS_SSL_ALERT_MSG_DECODE_ERROR );
1655:Source\mbedtls_open\library/ssl_srv.c ****                 return( MBEDTLS_ERR_SSL_BAD_HS_CLIENT_HELLO );
1656:Source\mbedtls_open\library/ssl_srv.c ****             }
1657:Source\mbedtls_open\library/ssl_srv.c **** 
1658:Source\mbedtls_open\library/ssl_srv.c ****             ext_len = ( buf[ext_offset + 0] << 8 )
1659:Source\mbedtls_open\library/ssl_srv.c ****                     | ( buf[ext_offset + 1]      );
1660:Source\mbedtls_open\library/ssl_srv.c **** 
1661:Source\mbedtls_open\library/ssl_srv.c ****             if( ( ext_len > 0 && ext_len < 4 ) ||
1662:Source\mbedtls_open\library/ssl_srv.c ****                 msg_len != ext_offset + 2 + ext_len )
1663:Source\mbedtls_open\library/ssl_srv.c ****             {
1664:Source\mbedtls_open\library/ssl_srv.c ****                 MBEDTLS_SSL_DEBUG_MSG( 1, ( "bad client hello message" ) );
1665:Source\mbedtls_open\library/ssl_srv.c ****                 mbedtls_ssl_send_alert_message( ssl, MBEDTLS_SSL_ALERT_LEVEL_FATAL,
1666:Source\mbedtls_open\library/ssl_srv.c ****                                                 MBEDTLS_SSL_ALERT_MSG_DECODE_ERROR );
1667:Source\mbedtls_open\library/ssl_srv.c ****                 return( MBEDTLS_ERR_SSL_BAD_HS_CLIENT_HELLO );
1668:Source\mbedtls_open\library/ssl_srv.c ****             }
1669:Source\mbedtls_open\library/ssl_srv.c ****         }
1670:Source\mbedtls_open\library/ssl_srv.c ****         else
1671:Source\mbedtls_open\library/ssl_srv.c ****             ext_len = 0;
1672:Source\mbedtls_open\library/ssl_srv.c **** 
ARM GAS  C:\Users\Phuong\AppData\Local\Temp\cct2IqGs.s 			page 35


1673:Source\mbedtls_open\library/ssl_srv.c ****         ext = buf + ext_offset + 2;
1674:Source\mbedtls_open\library/ssl_srv.c ****         MBEDTLS_SSL_DEBUG_BUF( 3, "client hello extensions", ext, ext_len );
1675:Source\mbedtls_open\library/ssl_srv.c **** 
1676:Source\mbedtls_open\library/ssl_srv.c ****         while( ext_len != 0 )
1677:Source\mbedtls_open\library/ssl_srv.c ****         {
1678:Source\mbedtls_open\library/ssl_srv.c ****             unsigned int ext_id;
1679:Source\mbedtls_open\library/ssl_srv.c ****             unsigned int ext_size;
1680:Source\mbedtls_open\library/ssl_srv.c ****             if ( ext_len < 4 ) {
1681:Source\mbedtls_open\library/ssl_srv.c ****                 MBEDTLS_SSL_DEBUG_MSG( 1, ( "bad client hello message" ) );
1682:Source\mbedtls_open\library/ssl_srv.c ****                 mbedtls_ssl_send_alert_message( ssl, MBEDTLS_SSL_ALERT_LEVEL_FATAL,
1683:Source\mbedtls_open\library/ssl_srv.c ****                                                MBEDTLS_SSL_ALERT_MSG_DECODE_ERROR );
1684:Source\mbedtls_open\library/ssl_srv.c ****                 return( MBEDTLS_ERR_SSL_BAD_HS_CLIENT_HELLO );
1685:Source\mbedtls_open\library/ssl_srv.c ****             }
1686:Source\mbedtls_open\library/ssl_srv.c ****             ext_id   = ( ( ext[0] <<  8 ) | ( ext[1] ) );
1687:Source\mbedtls_open\library/ssl_srv.c ****             ext_size = ( ( ext[2] <<  8 ) | ( ext[3] ) );
1688:Source\mbedtls_open\library/ssl_srv.c **** 
1689:Source\mbedtls_open\library/ssl_srv.c ****             if( ext_size + 4 > ext_len )
1690:Source\mbedtls_open\library/ssl_srv.c ****             {
1691:Source\mbedtls_open\library/ssl_srv.c ****                 MBEDTLS_SSL_DEBUG_MSG( 1, ( "bad client hello message" ) );
1692:Source\mbedtls_open\library/ssl_srv.c ****                 mbedtls_ssl_send_alert_message( ssl, MBEDTLS_SSL_ALERT_LEVEL_FATAL,
1693:Source\mbedtls_open\library/ssl_srv.c ****                                                 MBEDTLS_SSL_ALERT_MSG_DECODE_ERROR );
1694:Source\mbedtls_open\library/ssl_srv.c ****                 return( MBEDTLS_ERR_SSL_BAD_HS_CLIENT_HELLO );
1695:Source\mbedtls_open\library/ssl_srv.c ****             }
1696:Source\mbedtls_open\library/ssl_srv.c ****             switch( ext_id )
1697:Source\mbedtls_open\library/ssl_srv.c ****             {
1698:Source\mbedtls_open\library/ssl_srv.c **** #if defined(MBEDTLS_SSL_SERVER_NAME_INDICATION)
1699:Source\mbedtls_open\library/ssl_srv.c ****             case MBEDTLS_TLS_EXT_SERVERNAME:
1700:Source\mbedtls_open\library/ssl_srv.c ****                 MBEDTLS_SSL_DEBUG_MSG( 3, ( "found ServerName extension" ) );
1701:Source\mbedtls_open\library/ssl_srv.c ****                 if( ssl->conf->f_sni == NULL )
1702:Source\mbedtls_open\library/ssl_srv.c ****                     break;
1703:Source\mbedtls_open\library/ssl_srv.c **** 
1704:Source\mbedtls_open\library/ssl_srv.c ****                 ret = ssl_parse_servername_ext( ssl, ext + 4, ext_size );
1705:Source\mbedtls_open\library/ssl_srv.c ****                 if( ret != 0 )
1706:Source\mbedtls_open\library/ssl_srv.c ****                     return( ret );
1707:Source\mbedtls_open\library/ssl_srv.c ****                 break;
1708:Source\mbedtls_open\library/ssl_srv.c **** #endif /* MBEDTLS_SSL_SERVER_NAME_INDICATION */
1709:Source\mbedtls_open\library/ssl_srv.c **** 
1710:Source\mbedtls_open\library/ssl_srv.c ****             case MBEDTLS_TLS_EXT_RENEGOTIATION_INFO:
1711:Source\mbedtls_open\library/ssl_srv.c ****                 MBEDTLS_SSL_DEBUG_MSG( 3, ( "found renegotiation extension" ) );
1712:Source\mbedtls_open\library/ssl_srv.c **** #if defined(MBEDTLS_SSL_RENEGOTIATION)
1713:Source\mbedtls_open\library/ssl_srv.c ****                 renegotiation_info_seen = 1;
1714:Source\mbedtls_open\library/ssl_srv.c **** #endif
1715:Source\mbedtls_open\library/ssl_srv.c **** 
1716:Source\mbedtls_open\library/ssl_srv.c ****                 ret = ssl_parse_renegotiation_info( ssl, ext + 4, ext_size );
1717:Source\mbedtls_open\library/ssl_srv.c ****                 if( ret != 0 )
1718:Source\mbedtls_open\library/ssl_srv.c ****                     return( ret );
1719:Source\mbedtls_open\library/ssl_srv.c ****                 break;
1720:Source\mbedtls_open\library/ssl_srv.c **** 
1721:Source\mbedtls_open\library/ssl_srv.c **** #if defined(MBEDTLS_SSL_PROTO_TLS1_2) && \
1722:Source\mbedtls_open\library/ssl_srv.c ****     defined(MBEDTLS_KEY_EXCHANGE__WITH_CERT__ENABLED)
1723:Source\mbedtls_open\library/ssl_srv.c ****             case MBEDTLS_TLS_EXT_SIG_ALG:
1724:Source\mbedtls_open\library/ssl_srv.c ****                 MBEDTLS_SSL_DEBUG_MSG( 3, ( "found signature_algorithms extension" ) );
1725:Source\mbedtls_open\library/ssl_srv.c **** 
1726:Source\mbedtls_open\library/ssl_srv.c ****                 ret = ssl_parse_signature_algorithms_ext( ssl, ext + 4, ext_size );
1727:Source\mbedtls_open\library/ssl_srv.c ****                 if( ret != 0 )
1728:Source\mbedtls_open\library/ssl_srv.c ****                     return( ret );
1729:Source\mbedtls_open\library/ssl_srv.c **** 
ARM GAS  C:\Users\Phuong\AppData\Local\Temp\cct2IqGs.s 			page 36


1730:Source\mbedtls_open\library/ssl_srv.c ****                 sig_hash_alg_ext_present = 1;
1731:Source\mbedtls_open\library/ssl_srv.c ****                 break;
1732:Source\mbedtls_open\library/ssl_srv.c **** #endif /* MBEDTLS_SSL_PROTO_TLS1_2 &&
1733:Source\mbedtls_open\library/ssl_srv.c ****           MBEDTLS_KEY_EXCHANGE__WITH_CERT__ENABLED */
1734:Source\mbedtls_open\library/ssl_srv.c **** 
1735:Source\mbedtls_open\library/ssl_srv.c **** #if defined(MBEDTLS_ECDH_C) || defined(MBEDTLS_ECDSA_C) || \
1736:Source\mbedtls_open\library/ssl_srv.c ****     defined(MBEDTLS_KEY_EXCHANGE_ECJPAKE_ENABLED)
1737:Source\mbedtls_open\library/ssl_srv.c ****             case MBEDTLS_TLS_EXT_SUPPORTED_ELLIPTIC_CURVES:
1738:Source\mbedtls_open\library/ssl_srv.c ****                 MBEDTLS_SSL_DEBUG_MSG( 3, ( "found supported elliptic curves extension" ) );
1739:Source\mbedtls_open\library/ssl_srv.c **** 
1740:Source\mbedtls_open\library/ssl_srv.c ****                 ret = ssl_parse_supported_elliptic_curves( ssl, ext + 4, ext_size );
1741:Source\mbedtls_open\library/ssl_srv.c ****                 if( ret != 0 )
1742:Source\mbedtls_open\library/ssl_srv.c ****                     return( ret );
1743:Source\mbedtls_open\library/ssl_srv.c ****                 break;
1744:Source\mbedtls_open\library/ssl_srv.c **** 
1745:Source\mbedtls_open\library/ssl_srv.c ****             case MBEDTLS_TLS_EXT_SUPPORTED_POINT_FORMATS:
1746:Source\mbedtls_open\library/ssl_srv.c ****                 MBEDTLS_SSL_DEBUG_MSG( 3, ( "found supported point formats extension" ) );
1747:Source\mbedtls_open\library/ssl_srv.c ****                 ssl->handshake->cli_exts |= MBEDTLS_TLS_EXT_SUPPORTED_POINT_FORMATS_PRESENT;
1748:Source\mbedtls_open\library/ssl_srv.c **** 
1749:Source\mbedtls_open\library/ssl_srv.c ****                 ret = ssl_parse_supported_point_formats( ssl, ext + 4, ext_size );
1750:Source\mbedtls_open\library/ssl_srv.c ****                 if( ret != 0 )
1751:Source\mbedtls_open\library/ssl_srv.c ****                     return( ret );
1752:Source\mbedtls_open\library/ssl_srv.c ****                 break;
1753:Source\mbedtls_open\library/ssl_srv.c **** #endif /* MBEDTLS_ECDH_C || MBEDTLS_ECDSA_C ||
1754:Source\mbedtls_open\library/ssl_srv.c ****           MBEDTLS_KEY_EXCHANGE_ECJPAKE_ENABLED */
1755:Source\mbedtls_open\library/ssl_srv.c **** 
1756:Source\mbedtls_open\library/ssl_srv.c **** #if defined(MBEDTLS_KEY_EXCHANGE_ECJPAKE_ENABLED)
1757:Source\mbedtls_open\library/ssl_srv.c ****             case MBEDTLS_TLS_EXT_ECJPAKE_KKPP:
1758:Source\mbedtls_open\library/ssl_srv.c ****                 MBEDTLS_SSL_DEBUG_MSG( 3, ( "found ecjpake kkpp extension" ) );
1759:Source\mbedtls_open\library/ssl_srv.c **** 
1760:Source\mbedtls_open\library/ssl_srv.c ****                 ret = ssl_parse_ecjpake_kkpp( ssl, ext + 4, ext_size );
1761:Source\mbedtls_open\library/ssl_srv.c ****                 if( ret != 0 )
1762:Source\mbedtls_open\library/ssl_srv.c ****                     return( ret );
1763:Source\mbedtls_open\library/ssl_srv.c ****                 break;
1764:Source\mbedtls_open\library/ssl_srv.c **** #endif /* MBEDTLS_KEY_EXCHANGE_ECJPAKE_ENABLED */
1765:Source\mbedtls_open\library/ssl_srv.c **** 
1766:Source\mbedtls_open\library/ssl_srv.c **** #if defined(MBEDTLS_SSL_MAX_FRAGMENT_LENGTH)
1767:Source\mbedtls_open\library/ssl_srv.c ****             case MBEDTLS_TLS_EXT_MAX_FRAGMENT_LENGTH:
1768:Source\mbedtls_open\library/ssl_srv.c ****                 MBEDTLS_SSL_DEBUG_MSG( 3, ( "found max fragment length extension" ) );
1769:Source\mbedtls_open\library/ssl_srv.c **** 
1770:Source\mbedtls_open\library/ssl_srv.c ****                 ret = ssl_parse_max_fragment_length_ext( ssl, ext + 4, ext_size );
1771:Source\mbedtls_open\library/ssl_srv.c ****                 if( ret != 0 )
1772:Source\mbedtls_open\library/ssl_srv.c ****                     return( ret );
1773:Source\mbedtls_open\library/ssl_srv.c ****                 break;
1774:Source\mbedtls_open\library/ssl_srv.c **** #endif /* MBEDTLS_SSL_MAX_FRAGMENT_LENGTH */
1775:Source\mbedtls_open\library/ssl_srv.c **** 
1776:Source\mbedtls_open\library/ssl_srv.c **** #if defined(MBEDTLS_SSL_TRUNCATED_HMAC)
1777:Source\mbedtls_open\library/ssl_srv.c ****             case MBEDTLS_TLS_EXT_TRUNCATED_HMAC:
1778:Source\mbedtls_open\library/ssl_srv.c ****                 MBEDTLS_SSL_DEBUG_MSG( 3, ( "found truncated hmac extension" ) );
1779:Source\mbedtls_open\library/ssl_srv.c **** 
1780:Source\mbedtls_open\library/ssl_srv.c ****                 ret = ssl_parse_truncated_hmac_ext( ssl, ext + 4, ext_size );
1781:Source\mbedtls_open\library/ssl_srv.c ****                 if( ret != 0 )
1782:Source\mbedtls_open\library/ssl_srv.c ****                     return( ret );
1783:Source\mbedtls_open\library/ssl_srv.c ****                 break;
1784:Source\mbedtls_open\library/ssl_srv.c **** #endif /* MBEDTLS_SSL_TRUNCATED_HMAC */
1785:Source\mbedtls_open\library/ssl_srv.c **** 
1786:Source\mbedtls_open\library/ssl_srv.c **** #if defined(MBEDTLS_SSL_ENCRYPT_THEN_MAC)
ARM GAS  C:\Users\Phuong\AppData\Local\Temp\cct2IqGs.s 			page 37


1787:Source\mbedtls_open\library/ssl_srv.c ****             case MBEDTLS_TLS_EXT_ENCRYPT_THEN_MAC:
1788:Source\mbedtls_open\library/ssl_srv.c ****                 MBEDTLS_SSL_DEBUG_MSG( 3, ( "found encrypt then mac extension" ) );
1789:Source\mbedtls_open\library/ssl_srv.c **** 
1790:Source\mbedtls_open\library/ssl_srv.c ****                 ret = ssl_parse_encrypt_then_mac_ext( ssl, ext + 4, ext_size );
1791:Source\mbedtls_open\library/ssl_srv.c ****                 if( ret != 0 )
1792:Source\mbedtls_open\library/ssl_srv.c ****                     return( ret );
1793:Source\mbedtls_open\library/ssl_srv.c ****                 break;
1794:Source\mbedtls_open\library/ssl_srv.c **** #endif /* MBEDTLS_SSL_ENCRYPT_THEN_MAC */
1795:Source\mbedtls_open\library/ssl_srv.c **** 
1796:Source\mbedtls_open\library/ssl_srv.c **** #if defined(MBEDTLS_SSL_EXTENDED_MASTER_SECRET)
1797:Source\mbedtls_open\library/ssl_srv.c ****             case MBEDTLS_TLS_EXT_EXTENDED_MASTER_SECRET:
1798:Source\mbedtls_open\library/ssl_srv.c ****                 MBEDTLS_SSL_DEBUG_MSG( 3, ( "found extended master secret extension" ) );
1799:Source\mbedtls_open\library/ssl_srv.c **** 
1800:Source\mbedtls_open\library/ssl_srv.c ****                 ret = ssl_parse_extended_ms_ext( ssl, ext + 4, ext_size );
1801:Source\mbedtls_open\library/ssl_srv.c ****                 if( ret != 0 )
1802:Source\mbedtls_open\library/ssl_srv.c ****                     return( ret );
1803:Source\mbedtls_open\library/ssl_srv.c ****                 break;
1804:Source\mbedtls_open\library/ssl_srv.c **** #endif /* MBEDTLS_SSL_EXTENDED_MASTER_SECRET */
1805:Source\mbedtls_open\library/ssl_srv.c **** 
1806:Source\mbedtls_open\library/ssl_srv.c **** #if defined(MBEDTLS_SSL_SESSION_TICKETS)
1807:Source\mbedtls_open\library/ssl_srv.c ****             case MBEDTLS_TLS_EXT_SESSION_TICKET:
1808:Source\mbedtls_open\library/ssl_srv.c ****                 MBEDTLS_SSL_DEBUG_MSG( 3, ( "found session ticket extension" ) );
1809:Source\mbedtls_open\library/ssl_srv.c **** 
1810:Source\mbedtls_open\library/ssl_srv.c ****                 ret = ssl_parse_session_ticket_ext( ssl, ext + 4, ext_size );
1811:Source\mbedtls_open\library/ssl_srv.c ****                 if( ret != 0 )
1812:Source\mbedtls_open\library/ssl_srv.c ****                     return( ret );
1813:Source\mbedtls_open\library/ssl_srv.c ****                 break;
1814:Source\mbedtls_open\library/ssl_srv.c **** #endif /* MBEDTLS_SSL_SESSION_TICKETS */
1815:Source\mbedtls_open\library/ssl_srv.c **** 
1816:Source\mbedtls_open\library/ssl_srv.c **** #if defined(MBEDTLS_SSL_ALPN)
1817:Source\mbedtls_open\library/ssl_srv.c ****             case MBEDTLS_TLS_EXT_ALPN:
1818:Source\mbedtls_open\library/ssl_srv.c ****                 MBEDTLS_SSL_DEBUG_MSG( 3, ( "found alpn extension" ) );
1819:Source\mbedtls_open\library/ssl_srv.c **** 
1820:Source\mbedtls_open\library/ssl_srv.c ****                 ret = ssl_parse_alpn_ext( ssl, ext + 4, ext_size );
1821:Source\mbedtls_open\library/ssl_srv.c ****                 if( ret != 0 )
1822:Source\mbedtls_open\library/ssl_srv.c ****                     return( ret );
1823:Source\mbedtls_open\library/ssl_srv.c ****                 break;
1824:Source\mbedtls_open\library/ssl_srv.c **** #endif /* MBEDTLS_SSL_SESSION_TICKETS */
1825:Source\mbedtls_open\library/ssl_srv.c **** 
1826:Source\mbedtls_open\library/ssl_srv.c ****             default:
1827:Source\mbedtls_open\library/ssl_srv.c ****                 MBEDTLS_SSL_DEBUG_MSG( 3, ( "unknown extension found: %d (ignoring)",
1828:Source\mbedtls_open\library/ssl_srv.c ****                                ext_id ) );
1829:Source\mbedtls_open\library/ssl_srv.c ****             }
1830:Source\mbedtls_open\library/ssl_srv.c **** 
1831:Source\mbedtls_open\library/ssl_srv.c ****             ext_len -= 4 + ext_size;
1832:Source\mbedtls_open\library/ssl_srv.c ****             ext += 4 + ext_size;
1833:Source\mbedtls_open\library/ssl_srv.c **** 
1834:Source\mbedtls_open\library/ssl_srv.c ****             if( ext_len > 0 && ext_len < 4 )
1835:Source\mbedtls_open\library/ssl_srv.c ****             {
1836:Source\mbedtls_open\library/ssl_srv.c ****                 MBEDTLS_SSL_DEBUG_MSG( 1, ( "bad client hello message" ) );
1837:Source\mbedtls_open\library/ssl_srv.c ****                 mbedtls_ssl_send_alert_message( ssl, MBEDTLS_SSL_ALERT_LEVEL_FATAL,
1838:Source\mbedtls_open\library/ssl_srv.c ****                                                 MBEDTLS_SSL_ALERT_MSG_DECODE_ERROR );
1839:Source\mbedtls_open\library/ssl_srv.c ****                 return( MBEDTLS_ERR_SSL_BAD_HS_CLIENT_HELLO );
1840:Source\mbedtls_open\library/ssl_srv.c ****             }
1841:Source\mbedtls_open\library/ssl_srv.c ****         }
1842:Source\mbedtls_open\library/ssl_srv.c **** #if defined(MBEDTLS_SSL_PROTO_SSL3)
1843:Source\mbedtls_open\library/ssl_srv.c ****     }
ARM GAS  C:\Users\Phuong\AppData\Local\Temp\cct2IqGs.s 			page 38


1844:Source\mbedtls_open\library/ssl_srv.c **** #endif
1845:Source\mbedtls_open\library/ssl_srv.c **** 
1846:Source\mbedtls_open\library/ssl_srv.c **** #if defined(MBEDTLS_SSL_FALLBACK_SCSV)
1847:Source\mbedtls_open\library/ssl_srv.c ****     for( i = 0, p = buf + ciph_offset + 2; i < ciph_len; i += 2, p += 2 )
1848:Source\mbedtls_open\library/ssl_srv.c ****     {
1849:Source\mbedtls_open\library/ssl_srv.c ****         if( p[0] == (unsigned char)( ( MBEDTLS_SSL_FALLBACK_SCSV_VALUE >> 8 ) & 0xff ) &&
1850:Source\mbedtls_open\library/ssl_srv.c ****             p[1] == (unsigned char)( ( MBEDTLS_SSL_FALLBACK_SCSV_VALUE      ) & 0xff ) )
1851:Source\mbedtls_open\library/ssl_srv.c ****         {
1852:Source\mbedtls_open\library/ssl_srv.c ****             MBEDTLS_SSL_DEBUG_MSG( 2, ( "received FALLBACK_SCSV" ) );
1853:Source\mbedtls_open\library/ssl_srv.c **** 
1854:Source\mbedtls_open\library/ssl_srv.c ****             if( ssl->minor_ver < ssl->conf->max_minor_ver )
1855:Source\mbedtls_open\library/ssl_srv.c ****             {
1856:Source\mbedtls_open\library/ssl_srv.c ****                 MBEDTLS_SSL_DEBUG_MSG( 1, ( "inapropriate fallback" ) );
1857:Source\mbedtls_open\library/ssl_srv.c **** 
1858:Source\mbedtls_open\library/ssl_srv.c ****                 mbedtls_ssl_send_alert_message( ssl, MBEDTLS_SSL_ALERT_LEVEL_FATAL,
1859:Source\mbedtls_open\library/ssl_srv.c ****                                         MBEDTLS_SSL_ALERT_MSG_INAPROPRIATE_FALLBACK );
1860:Source\mbedtls_open\library/ssl_srv.c **** 
1861:Source\mbedtls_open\library/ssl_srv.c ****                 return( MBEDTLS_ERR_SSL_BAD_HS_CLIENT_HELLO );
1862:Source\mbedtls_open\library/ssl_srv.c ****             }
1863:Source\mbedtls_open\library/ssl_srv.c **** 
1864:Source\mbedtls_open\library/ssl_srv.c ****             break;
1865:Source\mbedtls_open\library/ssl_srv.c ****         }
1866:Source\mbedtls_open\library/ssl_srv.c ****     }
1867:Source\mbedtls_open\library/ssl_srv.c **** #endif /* MBEDTLS_SSL_FALLBACK_SCSV */
1868:Source\mbedtls_open\library/ssl_srv.c **** 
1869:Source\mbedtls_open\library/ssl_srv.c **** #if defined(MBEDTLS_SSL_PROTO_TLS1_2) && \
1870:Source\mbedtls_open\library/ssl_srv.c ****     defined(MBEDTLS_KEY_EXCHANGE__WITH_CERT__ENABLED)
1871:Source\mbedtls_open\library/ssl_srv.c **** 
1872:Source\mbedtls_open\library/ssl_srv.c ****     /*
1873:Source\mbedtls_open\library/ssl_srv.c ****      * Try to fall back to default hash SHA1 if the client
1874:Source\mbedtls_open\library/ssl_srv.c ****      * hasn't provided any preferred signature-hash combinations.
1875:Source\mbedtls_open\library/ssl_srv.c ****      */
1876:Source\mbedtls_open\library/ssl_srv.c ****     if( sig_hash_alg_ext_present == 0 )
1877:Source\mbedtls_open\library/ssl_srv.c ****     {
1878:Source\mbedtls_open\library/ssl_srv.c ****         mbedtls_md_type_t md_default = MBEDTLS_MD_SHA1;
1879:Source\mbedtls_open\library/ssl_srv.c **** 
1880:Source\mbedtls_open\library/ssl_srv.c ****         if( mbedtls_ssl_check_sig_hash( ssl, md_default ) != 0 )
1881:Source\mbedtls_open\library/ssl_srv.c ****             md_default = MBEDTLS_MD_NONE;
1882:Source\mbedtls_open\library/ssl_srv.c **** 
1883:Source\mbedtls_open\library/ssl_srv.c ****         mbedtls_ssl_sig_hash_set_const_hash( &ssl->handshake->hash_algs, md_default );
1884:Source\mbedtls_open\library/ssl_srv.c ****     }
1885:Source\mbedtls_open\library/ssl_srv.c **** 
1886:Source\mbedtls_open\library/ssl_srv.c **** #endif /* MBEDTLS_SSL_PROTO_TLS1_2 &&
1887:Source\mbedtls_open\library/ssl_srv.c ****           MBEDTLS_KEY_EXCHANGE__WITH_CERT__ENABLED */
1888:Source\mbedtls_open\library/ssl_srv.c **** 
1889:Source\mbedtls_open\library/ssl_srv.c ****     /*
1890:Source\mbedtls_open\library/ssl_srv.c ****      * Check for TLS_EMPTY_RENEGOTIATION_INFO_SCSV
1891:Source\mbedtls_open\library/ssl_srv.c ****      */
1892:Source\mbedtls_open\library/ssl_srv.c ****     for( i = 0, p = buf + ciph_offset + 2; i < ciph_len; i += 2, p += 2 )
1893:Source\mbedtls_open\library/ssl_srv.c ****     {
1894:Source\mbedtls_open\library/ssl_srv.c ****         if( p[0] == 0 && p[1] == MBEDTLS_SSL_EMPTY_RENEGOTIATION_INFO )
1895:Source\mbedtls_open\library/ssl_srv.c ****         {
1896:Source\mbedtls_open\library/ssl_srv.c ****             MBEDTLS_SSL_DEBUG_MSG( 3, ( "received TLS_EMPTY_RENEGOTIATION_INFO " ) );
1897:Source\mbedtls_open\library/ssl_srv.c **** #if defined(MBEDTLS_SSL_RENEGOTIATION)
1898:Source\mbedtls_open\library/ssl_srv.c ****             if( ssl->renego_status == MBEDTLS_SSL_RENEGOTIATION_IN_PROGRESS )
1899:Source\mbedtls_open\library/ssl_srv.c ****             {
1900:Source\mbedtls_open\library/ssl_srv.c ****                 MBEDTLS_SSL_DEBUG_MSG( 1, ( "received RENEGOTIATION SCSV "
ARM GAS  C:\Users\Phuong\AppData\Local\Temp\cct2IqGs.s 			page 39


1901:Source\mbedtls_open\library/ssl_srv.c ****                                             "during renegotiation" ) );
1902:Source\mbedtls_open\library/ssl_srv.c ****                 mbedtls_ssl_send_alert_message( ssl, MBEDTLS_SSL_ALERT_LEVEL_FATAL,
1903:Source\mbedtls_open\library/ssl_srv.c ****                                                 MBEDTLS_SSL_ALERT_MSG_HANDSHAKE_FAILURE );
1904:Source\mbedtls_open\library/ssl_srv.c ****                 return( MBEDTLS_ERR_SSL_BAD_HS_CLIENT_HELLO );
1905:Source\mbedtls_open\library/ssl_srv.c ****             }
1906:Source\mbedtls_open\library/ssl_srv.c **** #endif
1907:Source\mbedtls_open\library/ssl_srv.c ****             ssl->secure_renegotiation = MBEDTLS_SSL_SECURE_RENEGOTIATION;
1908:Source\mbedtls_open\library/ssl_srv.c ****             break;
1909:Source\mbedtls_open\library/ssl_srv.c ****         }
1910:Source\mbedtls_open\library/ssl_srv.c ****     }
1911:Source\mbedtls_open\library/ssl_srv.c **** 
1912:Source\mbedtls_open\library/ssl_srv.c ****     /*
1913:Source\mbedtls_open\library/ssl_srv.c ****      * Renegotiation security checks
1914:Source\mbedtls_open\library/ssl_srv.c ****      */
1915:Source\mbedtls_open\library/ssl_srv.c ****     if( ssl->secure_renegotiation != MBEDTLS_SSL_SECURE_RENEGOTIATION &&
1916:Source\mbedtls_open\library/ssl_srv.c ****         ssl->conf->allow_legacy_renegotiation == MBEDTLS_SSL_LEGACY_BREAK_HANDSHAKE )
1917:Source\mbedtls_open\library/ssl_srv.c ****     {
1918:Source\mbedtls_open\library/ssl_srv.c ****         MBEDTLS_SSL_DEBUG_MSG( 1, ( "legacy renegotiation, breaking off handshake" ) );
1919:Source\mbedtls_open\library/ssl_srv.c ****         handshake_failure = 1;
1920:Source\mbedtls_open\library/ssl_srv.c ****     }
1921:Source\mbedtls_open\library/ssl_srv.c **** #if defined(MBEDTLS_SSL_RENEGOTIATION)
1922:Source\mbedtls_open\library/ssl_srv.c ****     else if( ssl->renego_status == MBEDTLS_SSL_RENEGOTIATION_IN_PROGRESS &&
1923:Source\mbedtls_open\library/ssl_srv.c ****              ssl->secure_renegotiation == MBEDTLS_SSL_SECURE_RENEGOTIATION &&
1924:Source\mbedtls_open\library/ssl_srv.c ****              renegotiation_info_seen == 0 )
1925:Source\mbedtls_open\library/ssl_srv.c ****     {
1926:Source\mbedtls_open\library/ssl_srv.c ****         MBEDTLS_SSL_DEBUG_MSG( 1, ( "renegotiation_info extension missing (secure)" ) );
1927:Source\mbedtls_open\library/ssl_srv.c ****         handshake_failure = 1;
1928:Source\mbedtls_open\library/ssl_srv.c ****     }
1929:Source\mbedtls_open\library/ssl_srv.c ****     else if( ssl->renego_status == MBEDTLS_SSL_RENEGOTIATION_IN_PROGRESS &&
1930:Source\mbedtls_open\library/ssl_srv.c ****              ssl->secure_renegotiation == MBEDTLS_SSL_LEGACY_RENEGOTIATION &&
1931:Source\mbedtls_open\library/ssl_srv.c ****              ssl->conf->allow_legacy_renegotiation == MBEDTLS_SSL_LEGACY_NO_RENEGOTIATION )
1932:Source\mbedtls_open\library/ssl_srv.c ****     {
1933:Source\mbedtls_open\library/ssl_srv.c ****         MBEDTLS_SSL_DEBUG_MSG( 1, ( "legacy renegotiation not allowed" ) );
1934:Source\mbedtls_open\library/ssl_srv.c ****         handshake_failure = 1;
1935:Source\mbedtls_open\library/ssl_srv.c ****     }
1936:Source\mbedtls_open\library/ssl_srv.c ****     else if( ssl->renego_status == MBEDTLS_SSL_RENEGOTIATION_IN_PROGRESS &&
1937:Source\mbedtls_open\library/ssl_srv.c ****              ssl->secure_renegotiation == MBEDTLS_SSL_LEGACY_RENEGOTIATION &&
1938:Source\mbedtls_open\library/ssl_srv.c ****              renegotiation_info_seen == 1 )
1939:Source\mbedtls_open\library/ssl_srv.c ****     {
1940:Source\mbedtls_open\library/ssl_srv.c ****         MBEDTLS_SSL_DEBUG_MSG( 1, ( "renegotiation_info extension present (legacy)" ) );
1941:Source\mbedtls_open\library/ssl_srv.c ****         handshake_failure = 1;
1942:Source\mbedtls_open\library/ssl_srv.c ****     }
1943:Source\mbedtls_open\library/ssl_srv.c **** #endif /* MBEDTLS_SSL_RENEGOTIATION */
1944:Source\mbedtls_open\library/ssl_srv.c **** 
1945:Source\mbedtls_open\library/ssl_srv.c ****     if( handshake_failure == 1 )
1946:Source\mbedtls_open\library/ssl_srv.c ****     {
1947:Source\mbedtls_open\library/ssl_srv.c ****         mbedtls_ssl_send_alert_message( ssl, MBEDTLS_SSL_ALERT_LEVEL_FATAL,
1948:Source\mbedtls_open\library/ssl_srv.c ****                                         MBEDTLS_SSL_ALERT_MSG_HANDSHAKE_FAILURE );
1949:Source\mbedtls_open\library/ssl_srv.c ****         return( MBEDTLS_ERR_SSL_BAD_HS_CLIENT_HELLO );
1950:Source\mbedtls_open\library/ssl_srv.c ****     }
1951:Source\mbedtls_open\library/ssl_srv.c **** 
1952:Source\mbedtls_open\library/ssl_srv.c ****     /*
1953:Source\mbedtls_open\library/ssl_srv.c ****      * Search for a matching ciphersuite
1954:Source\mbedtls_open\library/ssl_srv.c ****      * (At the end because we need information from the EC-based extensions
1955:Source\mbedtls_open\library/ssl_srv.c ****      * and certificate from the SNI callback triggered by the SNI extension.)
1956:Source\mbedtls_open\library/ssl_srv.c ****      */
1957:Source\mbedtls_open\library/ssl_srv.c ****     got_common_suite = 0;
ARM GAS  C:\Users\Phuong\AppData\Local\Temp\cct2IqGs.s 			page 40


1958:Source\mbedtls_open\library/ssl_srv.c ****     ciphersuites = ssl->conf->ciphersuite_list[ssl->minor_ver];
1959:Source\mbedtls_open\library/ssl_srv.c ****     ciphersuite_info = NULL;
1960:Source\mbedtls_open\library/ssl_srv.c **** #if defined(MBEDTLS_SSL_SRV_RESPECT_CLIENT_PREFERENCE)
1961:Source\mbedtls_open\library/ssl_srv.c ****     for( j = 0, p = buf + ciph_offset + 2; j < ciph_len; j += 2, p += 2 )
1962:Source\mbedtls_open\library/ssl_srv.c ****         for( i = 0; ciphersuites[i] != 0; i++ )
1963:Source\mbedtls_open\library/ssl_srv.c **** #else
1964:Source\mbedtls_open\library/ssl_srv.c ****     for( i = 0; ciphersuites[i] != 0; i++ )
1965:Source\mbedtls_open\library/ssl_srv.c ****         for( j = 0, p = buf + ciph_offset + 2; j < ciph_len; j += 2, p += 2 )
1966:Source\mbedtls_open\library/ssl_srv.c **** #endif
1967:Source\mbedtls_open\library/ssl_srv.c ****         {
1968:Source\mbedtls_open\library/ssl_srv.c ****             if( p[0] != ( ( ciphersuites[i] >> 8 ) & 0xFF ) ||
1969:Source\mbedtls_open\library/ssl_srv.c ****                 p[1] != ( ( ciphersuites[i]      ) & 0xFF ) )
1970:Source\mbedtls_open\library/ssl_srv.c ****                 continue;
1971:Source\mbedtls_open\library/ssl_srv.c **** 
1972:Source\mbedtls_open\library/ssl_srv.c ****             got_common_suite = 1;
1973:Source\mbedtls_open\library/ssl_srv.c **** 
1974:Source\mbedtls_open\library/ssl_srv.c ****             if( ( ret = ssl_ciphersuite_match( ssl, ciphersuites[i],
1975:Source\mbedtls_open\library/ssl_srv.c ****                                                &ciphersuite_info ) ) != 0 )
1976:Source\mbedtls_open\library/ssl_srv.c ****                 return( ret );
1977:Source\mbedtls_open\library/ssl_srv.c **** 
1978:Source\mbedtls_open\library/ssl_srv.c ****             if( ciphersuite_info != NULL )
1979:Source\mbedtls_open\library/ssl_srv.c ****                 goto have_ciphersuite;
1980:Source\mbedtls_open\library/ssl_srv.c ****         }
1981:Source\mbedtls_open\library/ssl_srv.c **** 
1982:Source\mbedtls_open\library/ssl_srv.c ****     if( got_common_suite )
1983:Source\mbedtls_open\library/ssl_srv.c ****     {
1984:Source\mbedtls_open\library/ssl_srv.c ****         MBEDTLS_SSL_DEBUG_MSG( 1, ( "got ciphersuites in common, "
1985:Source\mbedtls_open\library/ssl_srv.c ****                             "but none of them usable" ) );
1986:Source\mbedtls_open\library/ssl_srv.c ****         mbedtls_ssl_send_alert_message( ssl, MBEDTLS_SSL_ALERT_LEVEL_FATAL,
1987:Source\mbedtls_open\library/ssl_srv.c ****                                         MBEDTLS_SSL_ALERT_MSG_HANDSHAKE_FAILURE );
1988:Source\mbedtls_open\library/ssl_srv.c ****         return( MBEDTLS_ERR_SSL_NO_USABLE_CIPHERSUITE );
1989:Source\mbedtls_open\library/ssl_srv.c ****     }
1990:Source\mbedtls_open\library/ssl_srv.c ****     else
1991:Source\mbedtls_open\library/ssl_srv.c ****     {
1992:Source\mbedtls_open\library/ssl_srv.c ****         MBEDTLS_SSL_DEBUG_MSG( 1, ( "got no ciphersuites in common" ) );
1993:Source\mbedtls_open\library/ssl_srv.c ****         mbedtls_ssl_send_alert_message( ssl, MBEDTLS_SSL_ALERT_LEVEL_FATAL,
1994:Source\mbedtls_open\library/ssl_srv.c ****                                         MBEDTLS_SSL_ALERT_MSG_HANDSHAKE_FAILURE );
1995:Source\mbedtls_open\library/ssl_srv.c ****         return( MBEDTLS_ERR_SSL_NO_CIPHER_CHOSEN );
1996:Source\mbedtls_open\library/ssl_srv.c ****     }
1997:Source\mbedtls_open\library/ssl_srv.c **** 
1998:Source\mbedtls_open\library/ssl_srv.c **** have_ciphersuite:
1999:Source\mbedtls_open\library/ssl_srv.c ****     MBEDTLS_SSL_DEBUG_MSG( 2, ( "selected ciphersuite: %s", ciphersuite_info->name ) );
2000:Source\mbedtls_open\library/ssl_srv.c **** 
2001:Source\mbedtls_open\library/ssl_srv.c ****     ssl->session_negotiate->ciphersuite = ciphersuites[i];
2002:Source\mbedtls_open\library/ssl_srv.c ****     ssl->transform_negotiate->ciphersuite_info = ciphersuite_info;
2003:Source\mbedtls_open\library/ssl_srv.c **** 
2004:Source\mbedtls_open\library/ssl_srv.c ****     ssl->state++;
2005:Source\mbedtls_open\library/ssl_srv.c **** 
2006:Source\mbedtls_open\library/ssl_srv.c **** #if defined(MBEDTLS_SSL_PROTO_DTLS)
2007:Source\mbedtls_open\library/ssl_srv.c ****     if( ssl->conf->transport == MBEDTLS_SSL_TRANSPORT_DATAGRAM )
2008:Source\mbedtls_open\library/ssl_srv.c ****         mbedtls_ssl_recv_flight_completed( ssl );
2009:Source\mbedtls_open\library/ssl_srv.c **** #endif
2010:Source\mbedtls_open\library/ssl_srv.c **** 
2011:Source\mbedtls_open\library/ssl_srv.c ****     /* Debugging-only output for testsuite */
2012:Source\mbedtls_open\library/ssl_srv.c **** #if defined(MBEDTLS_DEBUG_C)                         && \
2013:Source\mbedtls_open\library/ssl_srv.c ****     defined(MBEDTLS_SSL_PROTO_TLS1_2)                && \
2014:Source\mbedtls_open\library/ssl_srv.c ****     defined(MBEDTLS_KEY_EXCHANGE__WITH_CERT__ENABLED)
ARM GAS  C:\Users\Phuong\AppData\Local\Temp\cct2IqGs.s 			page 41


2015:Source\mbedtls_open\library/ssl_srv.c ****     if( ssl->minor_ver == MBEDTLS_SSL_MINOR_VERSION_3 )
2016:Source\mbedtls_open\library/ssl_srv.c ****     {
2017:Source\mbedtls_open\library/ssl_srv.c ****         mbedtls_pk_type_t sig_alg = mbedtls_ssl_get_ciphersuite_sig_alg( ciphersuite_info );
2018:Source\mbedtls_open\library/ssl_srv.c ****         if( sig_alg != MBEDTLS_PK_NONE )
2019:Source\mbedtls_open\library/ssl_srv.c ****         {
2020:Source\mbedtls_open\library/ssl_srv.c ****             mbedtls_md_type_t md_alg = mbedtls_ssl_sig_hash_set_find( &ssl->handshake->hash_algs,
2021:Source\mbedtls_open\library/ssl_srv.c ****                                                                   sig_alg );
2022:Source\mbedtls_open\library/ssl_srv.c ****             MBEDTLS_SSL_DEBUG_MSG( 3, ( "client hello v3, signature_algorithm ext: %d",
2023:Source\mbedtls_open\library/ssl_srv.c ****                                         mbedtls_ssl_hash_from_md_alg( md_alg ) ) );
2024:Source\mbedtls_open\library/ssl_srv.c ****         }
2025:Source\mbedtls_open\library/ssl_srv.c ****         else
2026:Source\mbedtls_open\library/ssl_srv.c ****         {
2027:Source\mbedtls_open\library/ssl_srv.c ****             MBEDTLS_SSL_DEBUG_MSG( 3, ( "no hash algorithm for signature algorithm "
2028:Source\mbedtls_open\library/ssl_srv.c ****                                         "%d - should not happen", sig_alg ) );
2029:Source\mbedtls_open\library/ssl_srv.c ****         }
2030:Source\mbedtls_open\library/ssl_srv.c ****     }
2031:Source\mbedtls_open\library/ssl_srv.c **** #endif
2032:Source\mbedtls_open\library/ssl_srv.c **** 
2033:Source\mbedtls_open\library/ssl_srv.c ****     MBEDTLS_SSL_DEBUG_MSG( 2, ( "<= parse client hello" ) );
2034:Source\mbedtls_open\library/ssl_srv.c **** 
2035:Source\mbedtls_open\library/ssl_srv.c ****     return( 0 );
2036:Source\mbedtls_open\library/ssl_srv.c **** }
2037:Source\mbedtls_open\library/ssl_srv.c **** 
2038:Source\mbedtls_open\library/ssl_srv.c **** #if defined(MBEDTLS_SSL_TRUNCATED_HMAC)
2039:Source\mbedtls_open\library/ssl_srv.c **** static void ssl_write_truncated_hmac_ext( mbedtls_ssl_context *ssl,
2040:Source\mbedtls_open\library/ssl_srv.c ****                                           unsigned char *buf,
2041:Source\mbedtls_open\library/ssl_srv.c ****                                           size_t *olen )
2042:Source\mbedtls_open\library/ssl_srv.c **** {
2043:Source\mbedtls_open\library/ssl_srv.c ****     unsigned char *p = buf;
2044:Source\mbedtls_open\library/ssl_srv.c **** 
2045:Source\mbedtls_open\library/ssl_srv.c ****     if( ssl->session_negotiate->trunc_hmac == MBEDTLS_SSL_TRUNC_HMAC_DISABLED )
2046:Source\mbedtls_open\library/ssl_srv.c ****     {
2047:Source\mbedtls_open\library/ssl_srv.c ****         *olen = 0;
2048:Source\mbedtls_open\library/ssl_srv.c ****         return;
2049:Source\mbedtls_open\library/ssl_srv.c ****     }
2050:Source\mbedtls_open\library/ssl_srv.c **** 
2051:Source\mbedtls_open\library/ssl_srv.c ****     MBEDTLS_SSL_DEBUG_MSG( 3, ( "server hello, adding truncated hmac extension" ) );
2052:Source\mbedtls_open\library/ssl_srv.c **** 
2053:Source\mbedtls_open\library/ssl_srv.c ****     *p++ = (unsigned char)( ( MBEDTLS_TLS_EXT_TRUNCATED_HMAC >> 8 ) & 0xFF );
2054:Source\mbedtls_open\library/ssl_srv.c ****     *p++ = (unsigned char)( ( MBEDTLS_TLS_EXT_TRUNCATED_HMAC      ) & 0xFF );
2055:Source\mbedtls_open\library/ssl_srv.c **** 
2056:Source\mbedtls_open\library/ssl_srv.c ****     *p++ = 0x00;
2057:Source\mbedtls_open\library/ssl_srv.c ****     *p++ = 0x00;
2058:Source\mbedtls_open\library/ssl_srv.c **** 
2059:Source\mbedtls_open\library/ssl_srv.c ****     *olen = 4;
2060:Source\mbedtls_open\library/ssl_srv.c **** }
2061:Source\mbedtls_open\library/ssl_srv.c **** #endif /* MBEDTLS_SSL_TRUNCATED_HMAC */
2062:Source\mbedtls_open\library/ssl_srv.c **** 
2063:Source\mbedtls_open\library/ssl_srv.c **** #if defined(MBEDTLS_SSL_ENCRYPT_THEN_MAC)
2064:Source\mbedtls_open\library/ssl_srv.c **** static void ssl_write_encrypt_then_mac_ext( mbedtls_ssl_context *ssl,
2065:Source\mbedtls_open\library/ssl_srv.c ****                                             unsigned char *buf,
2066:Source\mbedtls_open\library/ssl_srv.c ****                                             size_t *olen )
2067:Source\mbedtls_open\library/ssl_srv.c **** {
2068:Source\mbedtls_open\library/ssl_srv.c ****     unsigned char *p = buf;
2069:Source\mbedtls_open\library/ssl_srv.c ****     const mbedtls_ssl_ciphersuite_t *suite = NULL;
2070:Source\mbedtls_open\library/ssl_srv.c ****     const mbedtls_cipher_info_t *cipher = NULL;
2071:Source\mbedtls_open\library/ssl_srv.c **** 
ARM GAS  C:\Users\Phuong\AppData\Local\Temp\cct2IqGs.s 			page 42


2072:Source\mbedtls_open\library/ssl_srv.c ****     if( ssl->session_negotiate->encrypt_then_mac == MBEDTLS_SSL_ETM_DISABLED ||
2073:Source\mbedtls_open\library/ssl_srv.c ****         ssl->minor_ver == MBEDTLS_SSL_MINOR_VERSION_0 )
2074:Source\mbedtls_open\library/ssl_srv.c ****     {
2075:Source\mbedtls_open\library/ssl_srv.c ****         *olen = 0;
2076:Source\mbedtls_open\library/ssl_srv.c ****         return;
2077:Source\mbedtls_open\library/ssl_srv.c ****     }
2078:Source\mbedtls_open\library/ssl_srv.c **** 
2079:Source\mbedtls_open\library/ssl_srv.c ****     /*
2080:Source\mbedtls_open\library/ssl_srv.c ****      * RFC 7366: "If a server receives an encrypt-then-MAC request extension
2081:Source\mbedtls_open\library/ssl_srv.c ****      * from a client and then selects a stream or Authenticated Encryption
2082:Source\mbedtls_open\library/ssl_srv.c ****      * with Associated Data (AEAD) ciphersuite, it MUST NOT send an
2083:Source\mbedtls_open\library/ssl_srv.c ****      * encrypt-then-MAC response extension back to the client."
2084:Source\mbedtls_open\library/ssl_srv.c ****      */
2085:Source\mbedtls_open\library/ssl_srv.c ****     if( ( suite = mbedtls_ssl_ciphersuite_from_id(
2086:Source\mbedtls_open\library/ssl_srv.c ****                     ssl->session_negotiate->ciphersuite ) ) == NULL ||
2087:Source\mbedtls_open\library/ssl_srv.c ****         ( cipher = mbedtls_cipher_info_from_type( suite->cipher ) ) == NULL ||
2088:Source\mbedtls_open\library/ssl_srv.c ****         cipher->mode != MBEDTLS_MODE_CBC )
2089:Source\mbedtls_open\library/ssl_srv.c ****     {
2090:Source\mbedtls_open\library/ssl_srv.c ****         *olen = 0;
2091:Source\mbedtls_open\library/ssl_srv.c ****         return;
2092:Source\mbedtls_open\library/ssl_srv.c ****     }
2093:Source\mbedtls_open\library/ssl_srv.c **** 
2094:Source\mbedtls_open\library/ssl_srv.c ****     MBEDTLS_SSL_DEBUG_MSG( 3, ( "server hello, adding encrypt then mac extension" ) );
2095:Source\mbedtls_open\library/ssl_srv.c **** 
2096:Source\mbedtls_open\library/ssl_srv.c ****     *p++ = (unsigned char)( ( MBEDTLS_TLS_EXT_ENCRYPT_THEN_MAC >> 8 ) & 0xFF );
2097:Source\mbedtls_open\library/ssl_srv.c ****     *p++ = (unsigned char)( ( MBEDTLS_TLS_EXT_ENCRYPT_THEN_MAC      ) & 0xFF );
2098:Source\mbedtls_open\library/ssl_srv.c **** 
2099:Source\mbedtls_open\library/ssl_srv.c ****     *p++ = 0x00;
2100:Source\mbedtls_open\library/ssl_srv.c ****     *p++ = 0x00;
2101:Source\mbedtls_open\library/ssl_srv.c **** 
2102:Source\mbedtls_open\library/ssl_srv.c ****     *olen = 4;
2103:Source\mbedtls_open\library/ssl_srv.c **** }
2104:Source\mbedtls_open\library/ssl_srv.c **** #endif /* MBEDTLS_SSL_ENCRYPT_THEN_MAC */
2105:Source\mbedtls_open\library/ssl_srv.c **** 
2106:Source\mbedtls_open\library/ssl_srv.c **** #if defined(MBEDTLS_SSL_EXTENDED_MASTER_SECRET)
2107:Source\mbedtls_open\library/ssl_srv.c **** static void ssl_write_extended_ms_ext( mbedtls_ssl_context *ssl,
2108:Source\mbedtls_open\library/ssl_srv.c ****                                        unsigned char *buf,
2109:Source\mbedtls_open\library/ssl_srv.c ****                                        size_t *olen )
2110:Source\mbedtls_open\library/ssl_srv.c **** {
2111:Source\mbedtls_open\library/ssl_srv.c ****     unsigned char *p = buf;
2112:Source\mbedtls_open\library/ssl_srv.c **** 
2113:Source\mbedtls_open\library/ssl_srv.c ****     if( ssl->handshake->extended_ms == MBEDTLS_SSL_EXTENDED_MS_DISABLED ||
2114:Source\mbedtls_open\library/ssl_srv.c ****         ssl->minor_ver == MBEDTLS_SSL_MINOR_VERSION_0 )
2115:Source\mbedtls_open\library/ssl_srv.c ****     {
2116:Source\mbedtls_open\library/ssl_srv.c ****         *olen = 0;
2117:Source\mbedtls_open\library/ssl_srv.c ****         return;
2118:Source\mbedtls_open\library/ssl_srv.c ****     }
2119:Source\mbedtls_open\library/ssl_srv.c **** 
2120:Source\mbedtls_open\library/ssl_srv.c ****     MBEDTLS_SSL_DEBUG_MSG( 3, ( "server hello, adding extended master secret "
2121:Source\mbedtls_open\library/ssl_srv.c ****                         "extension" ) );
2122:Source\mbedtls_open\library/ssl_srv.c **** 
2123:Source\mbedtls_open\library/ssl_srv.c ****     *p++ = (unsigned char)( ( MBEDTLS_TLS_EXT_EXTENDED_MASTER_SECRET >> 8 ) & 0xFF );
2124:Source\mbedtls_open\library/ssl_srv.c ****     *p++ = (unsigned char)( ( MBEDTLS_TLS_EXT_EXTENDED_MASTER_SECRET      ) & 0xFF );
2125:Source\mbedtls_open\library/ssl_srv.c **** 
2126:Source\mbedtls_open\library/ssl_srv.c ****     *p++ = 0x00;
2127:Source\mbedtls_open\library/ssl_srv.c ****     *p++ = 0x00;
2128:Source\mbedtls_open\library/ssl_srv.c **** 
ARM GAS  C:\Users\Phuong\AppData\Local\Temp\cct2IqGs.s 			page 43


2129:Source\mbedtls_open\library/ssl_srv.c ****     *olen = 4;
2130:Source\mbedtls_open\library/ssl_srv.c **** }
2131:Source\mbedtls_open\library/ssl_srv.c **** #endif /* MBEDTLS_SSL_EXTENDED_MASTER_SECRET */
2132:Source\mbedtls_open\library/ssl_srv.c **** 
2133:Source\mbedtls_open\library/ssl_srv.c **** #if defined(MBEDTLS_SSL_SESSION_TICKETS)
2134:Source\mbedtls_open\library/ssl_srv.c **** static void ssl_write_session_ticket_ext( mbedtls_ssl_context *ssl,
2135:Source\mbedtls_open\library/ssl_srv.c ****                                           unsigned char *buf,
2136:Source\mbedtls_open\library/ssl_srv.c ****                                           size_t *olen )
2137:Source\mbedtls_open\library/ssl_srv.c **** {
2138:Source\mbedtls_open\library/ssl_srv.c ****     unsigned char *p = buf;
2139:Source\mbedtls_open\library/ssl_srv.c **** 
2140:Source\mbedtls_open\library/ssl_srv.c ****     if( ssl->handshake->new_session_ticket == 0 )
2141:Source\mbedtls_open\library/ssl_srv.c ****     {
2142:Source\mbedtls_open\library/ssl_srv.c ****         *olen = 0;
2143:Source\mbedtls_open\library/ssl_srv.c ****         return;
2144:Source\mbedtls_open\library/ssl_srv.c ****     }
2145:Source\mbedtls_open\library/ssl_srv.c **** 
2146:Source\mbedtls_open\library/ssl_srv.c ****     MBEDTLS_SSL_DEBUG_MSG( 3, ( "server hello, adding session ticket extension" ) );
2147:Source\mbedtls_open\library/ssl_srv.c **** 
2148:Source\mbedtls_open\library/ssl_srv.c ****     *p++ = (unsigned char)( ( MBEDTLS_TLS_EXT_SESSION_TICKET >> 8 ) & 0xFF );
2149:Source\mbedtls_open\library/ssl_srv.c ****     *p++ = (unsigned char)( ( MBEDTLS_TLS_EXT_SESSION_TICKET      ) & 0xFF );
2150:Source\mbedtls_open\library/ssl_srv.c **** 
2151:Source\mbedtls_open\library/ssl_srv.c ****     *p++ = 0x00;
2152:Source\mbedtls_open\library/ssl_srv.c ****     *p++ = 0x00;
2153:Source\mbedtls_open\library/ssl_srv.c **** 
2154:Source\mbedtls_open\library/ssl_srv.c ****     *olen = 4;
2155:Source\mbedtls_open\library/ssl_srv.c **** }
2156:Source\mbedtls_open\library/ssl_srv.c **** #endif /* MBEDTLS_SSL_SESSION_TICKETS */
2157:Source\mbedtls_open\library/ssl_srv.c **** 
2158:Source\mbedtls_open\library/ssl_srv.c **** static void ssl_write_renegotiation_ext( mbedtls_ssl_context *ssl,
2159:Source\mbedtls_open\library/ssl_srv.c ****                                          unsigned char *buf,
2160:Source\mbedtls_open\library/ssl_srv.c ****                                          size_t *olen )
2161:Source\mbedtls_open\library/ssl_srv.c **** {
  95              		.loc 1 2161 0
  96              		.cfi_startproc
  97              		@ args = 0, pretend = 0, frame = 8
  98              		@ frame_needed = 0, uses_anonymous_args = 0
  99              	.LVL8:
 100 0000 F0B5     		push	{r4, r5, r6, r7, lr}
 101              		.cfi_def_cfa_offset 20
 102              		.cfi_offset 4, -20
 103              		.cfi_offset 5, -16
 104              		.cfi_offset 6, -12
 105              		.cfi_offset 7, -8
 106              		.cfi_offset 14, -4
 107 0002 4746     		mov	r7, r8
 108 0004 80B4     		push	{r7}
 109              		.cfi_def_cfa_offset 24
 110              		.cfi_offset 8, -24
 111 0006 84B0     		sub	sp, sp, #16
 112              		.cfi_def_cfa_offset 40
 113 0008 0400     		movs	r4, r0
 114 000a 0D00     		movs	r5, r1
 115 000c 1600     		movs	r6, r2
 116              	.LVL9:
2162:Source\mbedtls_open\library/ssl_srv.c ****     unsigned char *p = buf;
2163:Source\mbedtls_open\library/ssl_srv.c **** 
ARM GAS  C:\Users\Phuong\AppData\Local\Temp\cct2IqGs.s 			page 44


2164:Source\mbedtls_open\library/ssl_srv.c ****     if( ssl->secure_renegotiation != MBEDTLS_SSL_SECURE_RENEGOTIATION )
 117              		.loc 1 2164 0
 118 000e F423     		movs	r3, #244
 119 0010 C358     		ldr	r3, [r0, r3]
 120 0012 012B     		cmp	r3, #1
 121 0014 02D0     		beq	.L7
2165:Source\mbedtls_open\library/ssl_srv.c ****     {
2166:Source\mbedtls_open\library/ssl_srv.c ****         *olen = 0;
 122              		.loc 1 2166 0
 123 0016 0023     		movs	r3, #0
 124 0018 1360     		str	r3, [r2]
2167:Source\mbedtls_open\library/ssl_srv.c ****         return;
 125              		.loc 1 2167 0
 126 001a 34E0     		b	.L6
 127              	.L7:
2168:Source\mbedtls_open\library/ssl_srv.c ****     }
2169:Source\mbedtls_open\library/ssl_srv.c **** 
2170:Source\mbedtls_open\library/ssl_srv.c ****     MBEDTLS_SSL_DEBUG_MSG( 3, ( "server hello, secure renegotiation extension" ) );
 128              		.loc 1 2170 0
 129 001c 1C4B     		ldr	r3, .L11
 130 001e 0093     		str	r3, [sp]
 131 0020 1C4B     		ldr	r3, .L11+4
 132 0022 1D4A     		ldr	r2, .L11+8
 133              	.LVL10:
 134 0024 0321     		movs	r1, #3
 135              	.LVL11:
 136 0026 FFF7FEFF 		bl	mbedtls_debug_print_msg
 137              	.LVL12:
2171:Source\mbedtls_open\library/ssl_srv.c **** 
2172:Source\mbedtls_open\library/ssl_srv.c ****     *p++ = (unsigned char)( ( MBEDTLS_TLS_EXT_RENEGOTIATION_INFO >> 8 ) & 0xFF );
 138              		.loc 1 2172 0
 139 002a FF23     		movs	r3, #255
 140 002c 2B70     		strb	r3, [r5]
 141              	.LVL13:
2173:Source\mbedtls_open\library/ssl_srv.c ****     *p++ = (unsigned char)( ( MBEDTLS_TLS_EXT_RENEGOTIATION_INFO      ) & 0xFF );
 142              		.loc 1 2173 0
 143 002e FE3B     		subs	r3, r3, #254
 144 0030 6B70     		strb	r3, [r5, #1]
2174:Source\mbedtls_open\library/ssl_srv.c **** 
2175:Source\mbedtls_open\library/ssl_srv.c **** #if defined(MBEDTLS_SSL_RENEGOTIATION)
2176:Source\mbedtls_open\library/ssl_srv.c ****     if( ssl->renego_status != MBEDTLS_SSL_INITIAL_HANDSHAKE )
 145              		.loc 1 2176 0
 146 0032 A368     		ldr	r3, [r4, #8]
 147 0034 002B     		cmp	r3, #0
 148 0036 1ED0     		beq	.L9
 149              	.LVL14:
2177:Source\mbedtls_open\library/ssl_srv.c ****     {
2178:Source\mbedtls_open\library/ssl_srv.c ****         *p++ = 0x00;
 150              		.loc 1 2178 0
 151 0038 0023     		movs	r3, #0
 152 003a AB70     		strb	r3, [r5, #2]
 153              	.LVL15:
2179:Source\mbedtls_open\library/ssl_srv.c ****         *p++ = ( ssl->verify_data_len * 2 + 1 ) & 0xFF;
 154              		.loc 1 2179 0
 155 003c F827     		movs	r7, #248
 156 003e E359     		ldr	r3, [r4, r7]
 157 0040 5B00     		lsls	r3, r3, #1
ARM GAS  C:\Users\Phuong\AppData\Local\Temp\cct2IqGs.s 			page 45


 158 0042 0133     		adds	r3, r3, #1
 159 0044 EB70     		strb	r3, [r5, #3]
2180:Source\mbedtls_open\library/ssl_srv.c ****         *p++ = ssl->verify_data_len * 2 & 0xFF;
 160              		.loc 1 2180 0
 161 0046 681D     		adds	r0, r5, #5
 162              	.LVL16:
 163 0048 E359     		ldr	r3, [r4, r7]
 164 004a 5B00     		lsls	r3, r3, #1
 165 004c 2B71     		strb	r3, [r5, #4]
2181:Source\mbedtls_open\library/ssl_srv.c **** 
2182:Source\mbedtls_open\library/ssl_srv.c ****         memcpy( p, ssl->peer_verify_data, ssl->verify_data_len );
 166              		.loc 1 2182 0
 167 004e 2100     		movs	r1, r4
 168 0050 0931     		adds	r1, r1, #9
 169 0052 FF31     		adds	r1, r1, #255
 170 0054 E259     		ldr	r2, [r4, r7]
 171 0056 0390     		str	r0, [sp, #12]
 172 0058 FFF7FEFF 		bl	memcpy
 173              	.LVL17:
2183:Source\mbedtls_open\library/ssl_srv.c ****         p += ssl->verify_data_len;
 174              		.loc 1 2183 0
 175 005c 039B     		ldr	r3, [sp, #12]
 176 005e E259     		ldr	r2, [r4, r7]
 177 0060 9446     		mov	ip, r2
 178 0062 6344     		add	r3, r3, ip
 179 0064 9846     		mov	r8, r3
 180              	.LVL18:
2184:Source\mbedtls_open\library/ssl_srv.c ****         memcpy( p, ssl->own_verify_data, ssl->verify_data_len );
 181              		.loc 1 2184 0
 182 0066 2100     		movs	r1, r4
 183 0068 FC31     		adds	r1, r1, #252
 184 006a 1800     		movs	r0, r3
 185 006c FFF7FEFF 		bl	memcpy
 186              	.LVL19:
2185:Source\mbedtls_open\library/ssl_srv.c ****         p += ssl->verify_data_len;
 187              		.loc 1 2185 0
 188 0070 E059     		ldr	r0, [r4, r7]
 189 0072 4044     		add	r0, r0, r8
 190              	.LVL20:
 191 0074 05E0     		b	.L10
 192              	.LVL21:
 193              	.L9:
2186:Source\mbedtls_open\library/ssl_srv.c ****     }
2187:Source\mbedtls_open\library/ssl_srv.c ****     else
2188:Source\mbedtls_open\library/ssl_srv.c **** #endif /* MBEDTLS_SSL_RENEGOTIATION */
2189:Source\mbedtls_open\library/ssl_srv.c ****     {
2190:Source\mbedtls_open\library/ssl_srv.c ****         *p++ = 0x00;
 194              		.loc 1 2190 0
 195 0076 0023     		movs	r3, #0
 196 0078 AB70     		strb	r3, [r5, #2]
 197              	.LVL22:
2191:Source\mbedtls_open\library/ssl_srv.c ****         *p++ = 0x01;
 198              		.loc 1 2191 0
 199 007a 0122     		movs	r2, #1
 200 007c EA70     		strb	r2, [r5, #3]
2192:Source\mbedtls_open\library/ssl_srv.c ****         *p++ = 0x00;
 201              		.loc 1 2192 0
ARM GAS  C:\Users\Phuong\AppData\Local\Temp\cct2IqGs.s 			page 46


 202 007e 681D     		adds	r0, r5, #5
 203              	.LVL23:
 204 0080 2B71     		strb	r3, [r5, #4]
 205              	.L10:
2193:Source\mbedtls_open\library/ssl_srv.c ****     }
2194:Source\mbedtls_open\library/ssl_srv.c **** 
2195:Source\mbedtls_open\library/ssl_srv.c ****     *olen = p - buf;
 206              		.loc 1 2195 0
 207 0082 451B     		subs	r5, r0, r5
 208              	.LVL24:
 209 0084 3560     		str	r5, [r6]
 210              	.LVL25:
 211              	.L6:
2196:Source\mbedtls_open\library/ssl_srv.c **** }
 212              		.loc 1 2196 0
 213 0086 04B0     		add	sp, sp, #16
 214              		@ sp needed
 215              	.LVL26:
 216              	.LVL27:
 217 0088 04BC     		pop	{r2}
 218 008a 9046     		mov	r8, r2
 219 008c F0BD     		pop	{r4, r5, r6, r7, pc}
 220              	.L12:
 221 008e C046     		.align	2
 222              	.L11:
 223 0090 28000000 		.word	.LC2
 224 0094 7A080000 		.word	2170
 225 0098 00000000 		.word	.LC0
 226              		.cfi_endproc
 227              	.LFE45:
 228              		.size	ssl_write_renegotiation_ext, .-ssl_write_renegotiation_ext
 229              		.section	.text.ssl_write_max_fragment_length_ext,"ax",%progbits
 230              		.align	2
 231              		.code	16
 232              		.thumb_func
 233              		.type	ssl_write_max_fragment_length_ext, %function
 234              	ssl_write_max_fragment_length_ext:
 235              	.LFB46:
2197:Source\mbedtls_open\library/ssl_srv.c **** 
2198:Source\mbedtls_open\library/ssl_srv.c **** #if defined(MBEDTLS_SSL_MAX_FRAGMENT_LENGTH)
2199:Source\mbedtls_open\library/ssl_srv.c **** static void ssl_write_max_fragment_length_ext( mbedtls_ssl_context *ssl,
2200:Source\mbedtls_open\library/ssl_srv.c ****                                                unsigned char *buf,
2201:Source\mbedtls_open\library/ssl_srv.c ****                                                size_t *olen )
2202:Source\mbedtls_open\library/ssl_srv.c **** {
 236              		.loc 1 2202 0
 237              		.cfi_startproc
 238              		@ args = 0, pretend = 0, frame = 0
 239              		@ frame_needed = 0, uses_anonymous_args = 0
 240              	.LVL28:
 241 0000 70B5     		push	{r4, r5, r6, lr}
 242              		.cfi_def_cfa_offset 16
 243              		.cfi_offset 4, -16
 244              		.cfi_offset 5, -12
 245              		.cfi_offset 6, -8
 246              		.cfi_offset 14, -4
 247 0002 82B0     		sub	sp, sp, #8
 248              		.cfi_def_cfa_offset 24
ARM GAS  C:\Users\Phuong\AppData\Local\Temp\cct2IqGs.s 			page 47


 249 0004 0500     		movs	r5, r0
 250 0006 0C00     		movs	r4, r1
 251 0008 1600     		movs	r6, r2
 252              	.LVL29:
2203:Source\mbedtls_open\library/ssl_srv.c ****     unsigned char *p = buf;
2204:Source\mbedtls_open\library/ssl_srv.c **** 
2205:Source\mbedtls_open\library/ssl_srv.c ****     if( ssl->session_negotiate->mfl_code == MBEDTLS_SSL_MAX_FRAG_LEN_NONE )
 253              		.loc 1 2205 0
 254 000a 7023     		movs	r3, #112
 255 000c 826B     		ldr	r2, [r0, #56]
 256              	.LVL30:
 257 000e D35C     		ldrb	r3, [r2, r3]
 258 0010 002B     		cmp	r3, #0
 259 0012 01D1     		bne	.L14
2206:Source\mbedtls_open\library/ssl_srv.c ****     {
2207:Source\mbedtls_open\library/ssl_srv.c ****         *olen = 0;
 260              		.loc 1 2207 0
 261 0014 3360     		str	r3, [r6]
2208:Source\mbedtls_open\library/ssl_srv.c ****         return;
 262              		.loc 1 2208 0
 263 0016 12E0     		b	.L13
 264              	.L14:
2209:Source\mbedtls_open\library/ssl_srv.c ****     }
2210:Source\mbedtls_open\library/ssl_srv.c **** 
2211:Source\mbedtls_open\library/ssl_srv.c ****     MBEDTLS_SSL_DEBUG_MSG( 3, ( "server hello, max_fragment_length extension" ) );
 265              		.loc 1 2211 0
 266 0018 0A4B     		ldr	r3, .L16
 267 001a 0093     		str	r3, [sp]
 268 001c 0A4B     		ldr	r3, .L16+4
 269 001e 0B4A     		ldr	r2, .L16+8
 270 0020 0321     		movs	r1, #3
 271              	.LVL31:
 272 0022 FFF7FEFF 		bl	mbedtls_debug_print_msg
 273              	.LVL32:
2212:Source\mbedtls_open\library/ssl_srv.c **** 
2213:Source\mbedtls_open\library/ssl_srv.c ****     *p++ = (unsigned char)( ( MBEDTLS_TLS_EXT_MAX_FRAGMENT_LENGTH >> 8 ) & 0xFF );
 274              		.loc 1 2213 0
 275 0026 0022     		movs	r2, #0
 276 0028 2270     		strb	r2, [r4]
 277              	.LVL33:
2214:Source\mbedtls_open\library/ssl_srv.c ****     *p++ = (unsigned char)( ( MBEDTLS_TLS_EXT_MAX_FRAGMENT_LENGTH      ) & 0xFF );
 278              		.loc 1 2214 0
 279 002a 0123     		movs	r3, #1
 280 002c 6370     		strb	r3, [r4, #1]
 281              	.LVL34:
2215:Source\mbedtls_open\library/ssl_srv.c **** 
2216:Source\mbedtls_open\library/ssl_srv.c ****     *p++ = 0x00;
 282              		.loc 1 2216 0
 283 002e A270     		strb	r2, [r4, #2]
 284              	.LVL35:
2217:Source\mbedtls_open\library/ssl_srv.c ****     *p++ = 1;
 285              		.loc 1 2217 0
 286 0030 E370     		strb	r3, [r4, #3]
 287              	.LVL36:
2218:Source\mbedtls_open\library/ssl_srv.c **** 
2219:Source\mbedtls_open\library/ssl_srv.c ****     *p++ = ssl->session_negotiate->mfl_code;
 288              		.loc 1 2219 0
ARM GAS  C:\Users\Phuong\AppData\Local\Temp\cct2IqGs.s 			page 48


 289 0032 AA6B     		ldr	r2, [r5, #56]
 290 0034 6F33     		adds	r3, r3, #111
 291 0036 D35C     		ldrb	r3, [r2, r3]
 292 0038 2371     		strb	r3, [r4, #4]
2220:Source\mbedtls_open\library/ssl_srv.c **** 
2221:Source\mbedtls_open\library/ssl_srv.c ****     *olen = 5;
 293              		.loc 1 2221 0
 294 003a 0523     		movs	r3, #5
 295 003c 3360     		str	r3, [r6]
 296              	.LVL37:
 297              	.L13:
2222:Source\mbedtls_open\library/ssl_srv.c **** }
 298              		.loc 1 2222 0
 299 003e 02B0     		add	sp, sp, #8
 300              		@ sp needed
 301              	.LVL38:
 302              	.LVL39:
 303              	.LVL40:
 304 0040 70BD     		pop	{r4, r5, r6, pc}
 305              	.L17:
 306 0042 C046     		.align	2
 307              	.L16:
 308 0044 58000000 		.word	.LC5
 309 0048 A3080000 		.word	2211
 310 004c 00000000 		.word	.LC0
 311              		.cfi_endproc
 312              	.LFE46:
 313              		.size	ssl_write_max_fragment_length_ext, .-ssl_write_max_fragment_length_ext
 314              		.section	.text.ssl_write_truncated_hmac_ext,"ax",%progbits
 315              		.align	2
 316              		.code	16
 317              		.thumb_func
 318              		.type	ssl_write_truncated_hmac_ext, %function
 319              	ssl_write_truncated_hmac_ext:
 320              	.LFB41:
2042:Source\mbedtls_open\library/ssl_srv.c ****     unsigned char *p = buf;
 321              		.loc 1 2042 0
 322              		.cfi_startproc
 323              		@ args = 0, pretend = 0, frame = 0
 324              		@ frame_needed = 0, uses_anonymous_args = 0
 325              	.LVL41:
 326 0000 30B5     		push	{r4, r5, lr}
 327              		.cfi_def_cfa_offset 12
 328              		.cfi_offset 4, -12
 329              		.cfi_offset 5, -8
 330              		.cfi_offset 14, -4
 331 0002 83B0     		sub	sp, sp, #12
 332              		.cfi_def_cfa_offset 24
 333 0004 0C00     		movs	r4, r1
 334 0006 1500     		movs	r5, r2
 335              	.LVL42:
2045:Source\mbedtls_open\library/ssl_srv.c ****     {
 336              		.loc 1 2045 0
 337 0008 836B     		ldr	r3, [r0, #56]
 338 000a 5B6F     		ldr	r3, [r3, #116]
 339 000c 002B     		cmp	r3, #0
 340 000e 01D1     		bne	.L19
ARM GAS  C:\Users\Phuong\AppData\Local\Temp\cct2IqGs.s 			page 49


2047:Source\mbedtls_open\library/ssl_srv.c ****         return;
 341              		.loc 1 2047 0
 342 0010 1360     		str	r3, [r2]
2048:Source\mbedtls_open\library/ssl_srv.c ****     }
 343              		.loc 1 2048 0
 344 0012 0DE0     		b	.L18
 345              	.L19:
2051:Source\mbedtls_open\library/ssl_srv.c **** 
 346              		.loc 1 2051 0
 347 0014 074B     		ldr	r3, .L21
 348 0016 0093     		str	r3, [sp]
 349 0018 074B     		ldr	r3, .L21+4
 350 001a 084A     		ldr	r2, .L21+8
 351              	.LVL43:
 352 001c 0321     		movs	r1, #3
 353              	.LVL44:
 354 001e FFF7FEFF 		bl	mbedtls_debug_print_msg
 355              	.LVL45:
2053:Source\mbedtls_open\library/ssl_srv.c ****     *p++ = (unsigned char)( ( MBEDTLS_TLS_EXT_TRUNCATED_HMAC      ) & 0xFF );
 356              		.loc 1 2053 0
 357 0022 0023     		movs	r3, #0
 358 0024 2370     		strb	r3, [r4]
 359              	.LVL46:
2054:Source\mbedtls_open\library/ssl_srv.c **** 
 360              		.loc 1 2054 0
 361 0026 0422     		movs	r2, #4
 362 0028 6270     		strb	r2, [r4, #1]
 363              	.LVL47:
2056:Source\mbedtls_open\library/ssl_srv.c ****     *p++ = 0x00;
 364              		.loc 1 2056 0
 365 002a A370     		strb	r3, [r4, #2]
 366              	.LVL48:
2057:Source\mbedtls_open\library/ssl_srv.c **** 
 367              		.loc 1 2057 0
 368 002c E370     		strb	r3, [r4, #3]
2059:Source\mbedtls_open\library/ssl_srv.c **** }
 369              		.loc 1 2059 0
 370 002e 2A60     		str	r2, [r5]
 371              	.LVL49:
 372              	.L18:
2060:Source\mbedtls_open\library/ssl_srv.c **** #endif /* MBEDTLS_SSL_TRUNCATED_HMAC */
 373              		.loc 1 2060 0
 374 0030 03B0     		add	sp, sp, #12
 375              		@ sp needed
 376              	.LVL50:
 377              	.LVL51:
 378 0032 30BD     		pop	{r4, r5, pc}
 379              	.L22:
 380              		.align	2
 381              	.L21:
 382 0034 84000000 		.word	.LC8
 383 0038 03080000 		.word	2051
 384 003c 00000000 		.word	.LC0
 385              		.cfi_endproc
 386              	.LFE41:
 387              		.size	ssl_write_truncated_hmac_ext, .-ssl_write_truncated_hmac_ext
 388              		.section	.text.ssl_write_extended_ms_ext,"ax",%progbits
ARM GAS  C:\Users\Phuong\AppData\Local\Temp\cct2IqGs.s 			page 50


 389              		.align	2
 390              		.code	16
 391              		.thumb_func
 392              		.type	ssl_write_extended_ms_ext, %function
 393              	ssl_write_extended_ms_ext:
 394              	.LFB43:
2110:Source\mbedtls_open\library/ssl_srv.c ****     unsigned char *p = buf;
 395              		.loc 1 2110 0
 396              		.cfi_startproc
 397              		@ args = 0, pretend = 0, frame = 0
 398              		@ frame_needed = 0, uses_anonymous_args = 0
 399              	.LVL52:
 400 0000 30B5     		push	{r4, r5, lr}
 401              		.cfi_def_cfa_offset 12
 402              		.cfi_offset 4, -12
 403              		.cfi_offset 5, -8
 404              		.cfi_offset 14, -4
 405 0002 83B0     		sub	sp, sp, #12
 406              		.cfi_def_cfa_offset 24
 407 0004 0D00     		movs	r5, r1
 408 0006 1400     		movs	r4, r2
 409              	.LVL53:
2113:Source\mbedtls_open\library/ssl_srv.c ****         ssl->minor_ver == MBEDTLS_SSL_MINOR_VERSION_0 )
 410              		.loc 1 2113 0
 411 0008 0D4B     		ldr	r3, .L27
 412 000a C26B     		ldr	r2, [r0, #60]
 413              	.LVL54:
 414 000c D358     		ldr	r3, [r2, r3]
 415 000e 002B     		cmp	r3, #0
 416 0010 02D0     		beq	.L24
2113:Source\mbedtls_open\library/ssl_srv.c ****         ssl->minor_ver == MBEDTLS_SSL_MINOR_VERSION_0 )
 417              		.loc 1 2113 0 is_stmt 0 discriminator 1
 418 0012 4369     		ldr	r3, [r0, #20]
 419 0014 002B     		cmp	r3, #0
 420 0016 02D1     		bne	.L25
 421              	.L24:
2116:Source\mbedtls_open\library/ssl_srv.c ****         return;
 422              		.loc 1 2116 0 is_stmt 1
 423 0018 0023     		movs	r3, #0
 424 001a 2360     		str	r3, [r4]
2117:Source\mbedtls_open\library/ssl_srv.c ****     }
 425              		.loc 1 2117 0
 426 001c 0EE0     		b	.L23
 427              	.L25:
2120:Source\mbedtls_open\library/ssl_srv.c ****                         "extension" ) );
 428              		.loc 1 2120 0
 429 001e 094B     		ldr	r3, .L27+4
 430 0020 0093     		str	r3, [sp]
 431 0022 094B     		ldr	r3, .L27+8
 432 0024 094A     		ldr	r2, .L27+12
 433 0026 0321     		movs	r1, #3
 434              	.LVL55:
 435 0028 FFF7FEFF 		bl	mbedtls_debug_print_msg
 436              	.LVL56:
2123:Source\mbedtls_open\library/ssl_srv.c ****     *p++ = (unsigned char)( ( MBEDTLS_TLS_EXT_EXTENDED_MASTER_SECRET      ) & 0xFF );
 437              		.loc 1 2123 0
 438 002c 0023     		movs	r3, #0
ARM GAS  C:\Users\Phuong\AppData\Local\Temp\cct2IqGs.s 			page 51


 439 002e 2B70     		strb	r3, [r5]
 440              	.LVL57:
2124:Source\mbedtls_open\library/ssl_srv.c **** 
 441              		.loc 1 2124 0
 442 0030 1722     		movs	r2, #23
 443 0032 6A70     		strb	r2, [r5, #1]
 444              	.LVL58:
2126:Source\mbedtls_open\library/ssl_srv.c ****     *p++ = 0x00;
 445              		.loc 1 2126 0
 446 0034 AB70     		strb	r3, [r5, #2]
 447              	.LVL59:
2127:Source\mbedtls_open\library/ssl_srv.c **** 
 448              		.loc 1 2127 0
 449 0036 EB70     		strb	r3, [r5, #3]
2129:Source\mbedtls_open\library/ssl_srv.c **** }
 450              		.loc 1 2129 0
 451 0038 0433     		adds	r3, r3, #4
 452 003a 2360     		str	r3, [r4]
 453              	.LVL60:
 454              	.L23:
2130:Source\mbedtls_open\library/ssl_srv.c **** #endif /* MBEDTLS_SSL_EXTENDED_MASTER_SECRET */
 455              		.loc 1 2130 0
 456 003c 03B0     		add	sp, sp, #12
 457              		@ sp needed
 458              	.LVL61:
 459              	.LVL62:
 460 003e 30BD     		pop	{r4, r5, pc}
 461              	.L28:
 462              		.align	2
 463              	.L27:
 464 0040 D4080000 		.word	2260
 465 0044 B4000000 		.word	.LC11
 466 0048 49080000 		.word	2121
 467 004c 00000000 		.word	.LC0
 468              		.cfi_endproc
 469              	.LFE43:
 470              		.size	ssl_write_extended_ms_ext, .-ssl_write_extended_ms_ext
 471              		.section	.text.ssl_write_session_ticket_ext,"ax",%progbits
 472              		.align	2
 473              		.code	16
 474              		.thumb_func
 475              		.type	ssl_write_session_ticket_ext, %function
 476              	ssl_write_session_ticket_ext:
 477              	.LFB44:
2137:Source\mbedtls_open\library/ssl_srv.c ****     unsigned char *p = buf;
 478              		.loc 1 2137 0
 479              		.cfi_startproc
 480              		@ args = 0, pretend = 0, frame = 0
 481              		@ frame_needed = 0, uses_anonymous_args = 0
 482              	.LVL63:
 483 0000 30B5     		push	{r4, r5, lr}
 484              		.cfi_def_cfa_offset 12
 485              		.cfi_offset 4, -12
 486              		.cfi_offset 5, -8
 487              		.cfi_offset 14, -4
 488 0002 83B0     		sub	sp, sp, #12
 489              		.cfi_def_cfa_offset 24
ARM GAS  C:\Users\Phuong\AppData\Local\Temp\cct2IqGs.s 			page 52


 490 0004 0C00     		movs	r4, r1
 491 0006 1500     		movs	r5, r2
 492              	.LVL64:
2140:Source\mbedtls_open\library/ssl_srv.c ****     {
 493              		.loc 1 2140 0
 494 0008 8D23     		movs	r3, #141
 495 000a 1B01     		lsls	r3, r3, #4
 496 000c C26B     		ldr	r2, [r0, #60]
 497              	.LVL65:
 498 000e D358     		ldr	r3, [r2, r3]
 499 0010 002B     		cmp	r3, #0
 500 0012 01D1     		bne	.L30
2142:Source\mbedtls_open\library/ssl_srv.c ****         return;
 501              		.loc 1 2142 0
 502 0014 2B60     		str	r3, [r5]
2143:Source\mbedtls_open\library/ssl_srv.c ****     }
 503              		.loc 1 2143 0
 504 0016 0EE0     		b	.L29
 505              	.L30:
2146:Source\mbedtls_open\library/ssl_srv.c **** 
 506              		.loc 1 2146 0
 507 0018 084B     		ldr	r3, .L32
 508 001a 0093     		str	r3, [sp]
 509 001c 084B     		ldr	r3, .L32+4
 510 001e 094A     		ldr	r2, .L32+8
 511 0020 0321     		movs	r1, #3
 512              	.LVL66:
 513 0022 FFF7FEFF 		bl	mbedtls_debug_print_msg
 514              	.LVL67:
2148:Source\mbedtls_open\library/ssl_srv.c ****     *p++ = (unsigned char)( ( MBEDTLS_TLS_EXT_SESSION_TICKET      ) & 0xFF );
 515              		.loc 1 2148 0
 516 0026 0023     		movs	r3, #0
 517 0028 2370     		strb	r3, [r4]
 518              	.LVL68:
2149:Source\mbedtls_open\library/ssl_srv.c **** 
 519              		.loc 1 2149 0
 520 002a 2322     		movs	r2, #35
 521 002c 6270     		strb	r2, [r4, #1]
 522              	.LVL69:
2151:Source\mbedtls_open\library/ssl_srv.c ****     *p++ = 0x00;
 523              		.loc 1 2151 0
 524 002e A370     		strb	r3, [r4, #2]
 525              	.LVL70:
2152:Source\mbedtls_open\library/ssl_srv.c **** 
 526              		.loc 1 2152 0
 527 0030 E370     		strb	r3, [r4, #3]
2154:Source\mbedtls_open\library/ssl_srv.c **** }
 528              		.loc 1 2154 0
 529 0032 0433     		adds	r3, r3, #4
 530 0034 2B60     		str	r3, [r5]
 531              	.LVL71:
 532              	.L29:
2155:Source\mbedtls_open\library/ssl_srv.c **** #endif /* MBEDTLS_SSL_SESSION_TICKETS */
 533              		.loc 1 2155 0
 534 0036 03B0     		add	sp, sp, #12
 535              		@ sp needed
 536              	.LVL72:
ARM GAS  C:\Users\Phuong\AppData\Local\Temp\cct2IqGs.s 			page 53


 537              	.LVL73:
 538 0038 30BD     		pop	{r4, r5, pc}
 539              	.L33:
 540 003a C046     		.align	2
 541              	.L32:
 542 003c EC000000 		.word	.LC14
 543 0040 62080000 		.word	2146
 544 0044 00000000 		.word	.LC0
 545              		.cfi_endproc
 546              	.LFE44:
 547              		.size	ssl_write_session_ticket_ext, .-ssl_write_session_ticket_ext
 548              		.section	.text.ssl_write_supported_point_formats_ext,"ax",%progbits
 549              		.align	2
 550              		.code	16
 551              		.thumb_func
 552              		.type	ssl_write_supported_point_formats_ext, %function
 553              	ssl_write_supported_point_formats_ext:
 554              	.LFB47:
2223:Source\mbedtls_open\library/ssl_srv.c **** #endif /* MBEDTLS_SSL_MAX_FRAGMENT_LENGTH */
2224:Source\mbedtls_open\library/ssl_srv.c **** 
2225:Source\mbedtls_open\library/ssl_srv.c **** #if defined(MBEDTLS_ECDH_C) || defined(MBEDTLS_ECDSA_C) || \
2226:Source\mbedtls_open\library/ssl_srv.c ****     defined(MBEDTLS_KEY_EXCHANGE_ECJPAKE_ENABLED)
2227:Source\mbedtls_open\library/ssl_srv.c **** static void ssl_write_supported_point_formats_ext( mbedtls_ssl_context *ssl,
2228:Source\mbedtls_open\library/ssl_srv.c ****                                                    unsigned char *buf,
2229:Source\mbedtls_open\library/ssl_srv.c ****                                                    size_t *olen )
2230:Source\mbedtls_open\library/ssl_srv.c **** {
 555              		.loc 1 2230 0
 556              		.cfi_startproc
 557              		@ args = 0, pretend = 0, frame = 0
 558              		@ frame_needed = 0, uses_anonymous_args = 0
 559              	.LVL74:
 560 0000 30B5     		push	{r4, r5, lr}
 561              		.cfi_def_cfa_offset 12
 562              		.cfi_offset 4, -12
 563              		.cfi_offset 5, -8
 564              		.cfi_offset 14, -4
 565 0002 83B0     		sub	sp, sp, #12
 566              		.cfi_def_cfa_offset 24
 567 0004 0C00     		movs	r4, r1
 568 0006 1500     		movs	r5, r2
 569              	.LVL75:
2231:Source\mbedtls_open\library/ssl_srv.c ****     unsigned char *p = buf;
2232:Source\mbedtls_open\library/ssl_srv.c ****     ((void) ssl);
2233:Source\mbedtls_open\library/ssl_srv.c **** 
2234:Source\mbedtls_open\library/ssl_srv.c ****     if( ( ssl->handshake->cli_exts &
 570              		.loc 1 2234 0
 571 0008 0E4B     		ldr	r3, .L37
 572 000a C26B     		ldr	r2, [r0, #60]
 573              	.LVL76:
 574 000c D358     		ldr	r3, [r2, r3]
 575 000e DB07     		lsls	r3, r3, #31
 576 0010 02D4     		bmi	.L35
2235:Source\mbedtls_open\library/ssl_srv.c ****           MBEDTLS_TLS_EXT_SUPPORTED_POINT_FORMATS_PRESENT ) == 0 )
2236:Source\mbedtls_open\library/ssl_srv.c ****     {
2237:Source\mbedtls_open\library/ssl_srv.c ****         *olen = 0;
 577              		.loc 1 2237 0
 578 0012 0023     		movs	r3, #0
ARM GAS  C:\Users\Phuong\AppData\Local\Temp\cct2IqGs.s 			page 54


 579 0014 2B60     		str	r3, [r5]
2238:Source\mbedtls_open\library/ssl_srv.c ****         return;
 580              		.loc 1 2238 0
 581 0016 12E0     		b	.L34
 582              	.L35:
2239:Source\mbedtls_open\library/ssl_srv.c ****     }
2240:Source\mbedtls_open\library/ssl_srv.c **** 
2241:Source\mbedtls_open\library/ssl_srv.c ****     MBEDTLS_SSL_DEBUG_MSG( 3, ( "server hello, supported_point_formats extension" ) );
 583              		.loc 1 2241 0
 584 0018 0B4B     		ldr	r3, .L37+4
 585 001a 0093     		str	r3, [sp]
 586 001c 0B4B     		ldr	r3, .L37+8
 587 001e 0C4A     		ldr	r2, .L37+12
 588 0020 0321     		movs	r1, #3
 589              	.LVL77:
 590 0022 FFF7FEFF 		bl	mbedtls_debug_print_msg
 591              	.LVL78:
2242:Source\mbedtls_open\library/ssl_srv.c **** 
2243:Source\mbedtls_open\library/ssl_srv.c ****     *p++ = (unsigned char)( ( MBEDTLS_TLS_EXT_SUPPORTED_POINT_FORMATS >> 8 ) & 0xFF );
 592              		.loc 1 2243 0
 593 0026 0023     		movs	r3, #0
 594 0028 2370     		strb	r3, [r4]
 595              	.LVL79:
2244:Source\mbedtls_open\library/ssl_srv.c ****     *p++ = (unsigned char)( ( MBEDTLS_TLS_EXT_SUPPORTED_POINT_FORMATS      ) & 0xFF );
 596              		.loc 1 2244 0
 597 002a 0B22     		movs	r2, #11
 598 002c 6270     		strb	r2, [r4, #1]
 599              	.LVL80:
2245:Source\mbedtls_open\library/ssl_srv.c **** 
2246:Source\mbedtls_open\library/ssl_srv.c ****     *p++ = 0x00;
 600              		.loc 1 2246 0
 601 002e A370     		strb	r3, [r4, #2]
 602              	.LVL81:
2247:Source\mbedtls_open\library/ssl_srv.c ****     *p++ = 2;
 603              		.loc 1 2247 0
 604 0030 093A     		subs	r2, r2, #9
 605 0032 E270     		strb	r2, [r4, #3]
 606              	.LVL82:
2248:Source\mbedtls_open\library/ssl_srv.c **** 
2249:Source\mbedtls_open\library/ssl_srv.c ****     *p++ = 1;
 607              		.loc 1 2249 0
 608 0034 013A     		subs	r2, r2, #1
 609 0036 2271     		strb	r2, [r4, #4]
 610              	.LVL83:
2250:Source\mbedtls_open\library/ssl_srv.c ****     *p++ = MBEDTLS_ECP_PF_UNCOMPRESSED;
 611              		.loc 1 2250 0
 612 0038 6371     		strb	r3, [r4, #5]
2251:Source\mbedtls_open\library/ssl_srv.c **** 
2252:Source\mbedtls_open\library/ssl_srv.c ****     *olen = 6;
 613              		.loc 1 2252 0
 614 003a 0633     		adds	r3, r3, #6
 615 003c 2B60     		str	r3, [r5]
 616              	.LVL84:
 617              	.L34:
2253:Source\mbedtls_open\library/ssl_srv.c **** }
 618              		.loc 1 2253 0
 619 003e 03B0     		add	sp, sp, #12
ARM GAS  C:\Users\Phuong\AppData\Local\Temp\cct2IqGs.s 			page 55


 620              		@ sp needed
 621              	.LVL85:
 622              	.LVL86:
 623 0040 30BD     		pop	{r4, r5, pc}
 624              	.L38:
 625 0042 C046     		.align	2
 626              	.L37:
 627 0044 CC080000 		.word	2252
 628 0048 1C010000 		.word	.LC17
 629 004c C1080000 		.word	2241
 630 0050 00000000 		.word	.LC0
 631              		.cfi_endproc
 632              	.LFE47:
 633              		.size	ssl_write_supported_point_formats_ext, .-ssl_write_supported_point_formats_ext
 634              		.section	.text.ssl_parse_servername_ext,"ax",%progbits
 635              		.align	2
 636              		.code	16
 637              		.thumb_func
 638              		.type	ssl_parse_servername_ext, %function
 639              	ssl_parse_servername_ext:
 640              	.LFB26:
  87:Source\mbedtls_open\library/ssl_srv.c ****     int ret;
 641              		.loc 1 87 0
 642              		.cfi_startproc
 643              		@ args = 0, pretend = 0, frame = 0
 644              		@ frame_needed = 0, uses_anonymous_args = 0
 645              	.LVL87:
 646 0000 F0B5     		push	{r4, r5, r6, r7, lr}
 647              		.cfi_def_cfa_offset 20
 648              		.cfi_offset 4, -20
 649              		.cfi_offset 5, -16
 650              		.cfi_offset 6, -12
 651              		.cfi_offset 7, -8
 652              		.cfi_offset 14, -4
 653 0002 83B0     		sub	sp, sp, #12
 654              		.cfi_def_cfa_offset 32
 655 0004 0400     		movs	r4, r0
 656 0006 0E00     		movs	r6, r1
 657 0008 1700     		movs	r7, r2
  92:Source\mbedtls_open\library/ssl_srv.c **** 
 658              		.loc 1 92 0
 659 000a 3E4B     		ldr	r3, .L49
 660 000c 0093     		str	r3, [sp]
 661 000e 5C23     		movs	r3, #92
 662 0010 3D4A     		ldr	r2, .L49+4
 663              	.LVL88:
 664 0012 0321     		movs	r1, #3
 665              	.LVL89:
 666 0014 FFF7FEFF 		bl	mbedtls_debug_print_msg
 667              	.LVL90:
  94:Source\mbedtls_open\library/ssl_srv.c ****     {
 668              		.loc 1 94 0
 669 0018 012F     		cmp	r7, #1
 670 001a 0ED8     		bhi	.L40
  96:Source\mbedtls_open\library/ssl_srv.c ****         mbedtls_ssl_send_alert_message( ssl, MBEDTLS_SSL_ALERT_LEVEL_FATAL,
 671              		.loc 1 96 0
 672 001c 3B4B     		ldr	r3, .L49+8
ARM GAS  C:\Users\Phuong\AppData\Local\Temp\cct2IqGs.s 			page 56


 673 001e 0093     		str	r3, [sp]
 674 0020 6023     		movs	r3, #96
 675 0022 394A     		ldr	r2, .L49+4
 676 0024 0121     		movs	r1, #1
 677 0026 2000     		movs	r0, r4
 678 0028 FFF7FEFF 		bl	mbedtls_debug_print_msg
 679              	.LVL91:
  97:Source\mbedtls_open\library/ssl_srv.c ****                                        MBEDTLS_SSL_ALERT_MSG_DECODE_ERROR );
 680              		.loc 1 97 0
 681 002c 3222     		movs	r2, #50
 682 002e 0221     		movs	r1, #2
 683 0030 2000     		movs	r0, r4
 684 0032 FFF7FEFF 		bl	mbedtls_ssl_send_alert_message
 685              	.LVL92:
  99:Source\mbedtls_open\library/ssl_srv.c ****     }
 686              		.loc 1 99 0
 687 0036 3648     		ldr	r0, .L49+12
 688 0038 61E0     		b	.L41
 689              	.L40:
 101:Source\mbedtls_open\library/ssl_srv.c ****     if( servername_list_size + 2 != len )
 690              		.loc 1 101 0
 691 003a 3578     		ldrb	r5, [r6]
 692 003c 2D02     		lsls	r5, r5, #8
 693 003e 7378     		ldrb	r3, [r6, #1]
 694 0040 1D43     		orrs	r5, r3
 695              	.LVL93:
 102:Source\mbedtls_open\library/ssl_srv.c ****     {
 696              		.loc 1 102 0
 697 0042 AB1C     		adds	r3, r5, #2
 698 0044 9F42     		cmp	r7, r3
 699 0046 0ED0     		beq	.L42
 104:Source\mbedtls_open\library/ssl_srv.c ****         mbedtls_ssl_send_alert_message( ssl, MBEDTLS_SSL_ALERT_LEVEL_FATAL,
 700              		.loc 1 104 0
 701 0048 304B     		ldr	r3, .L49+8
 702 004a 0093     		str	r3, [sp]
 703 004c 6823     		movs	r3, #104
 704 004e 2E4A     		ldr	r2, .L49+4
 705 0050 0121     		movs	r1, #1
 706 0052 2000     		movs	r0, r4
 707 0054 FFF7FEFF 		bl	mbedtls_debug_print_msg
 708              	.LVL94:
 105:Source\mbedtls_open\library/ssl_srv.c ****                                         MBEDTLS_SSL_ALERT_MSG_DECODE_ERROR );
 709              		.loc 1 105 0
 710 0058 3222     		movs	r2, #50
 711 005a 0221     		movs	r1, #2
 712 005c 2000     		movs	r0, r4
 713 005e FFF7FEFF 		bl	mbedtls_ssl_send_alert_message
 714              	.LVL95:
 107:Source\mbedtls_open\library/ssl_srv.c ****     }
 715              		.loc 1 107 0
 716 0062 2B48     		ldr	r0, .L49+12
 717 0064 4BE0     		b	.L41
 718              	.L42:
 110:Source\mbedtls_open\library/ssl_srv.c ****     while( servername_list_size > 2 )
 719              		.loc 1 110 0
 720 0066 B21C     		adds	r2, r6, #2
 721              	.LVL96:
ARM GAS  C:\Users\Phuong\AppData\Local\Temp\cct2IqGs.s 			page 57


 111:Source\mbedtls_open\library/ssl_srv.c ****     {
 722              		.loc 1 111 0
 723 0068 33E0     		b	.L43
 724              	.L46:
 113:Source\mbedtls_open\library/ssl_srv.c ****         if( hostname_len + 3 > servername_list_size )
 725              		.loc 1 113 0
 726 006a 5378     		ldrb	r3, [r2, #1]
 727 006c 1802     		lsls	r0, r3, #8
 728 006e 9378     		ldrb	r3, [r2, #2]
 729 0070 0343     		orrs	r3, r0
 730              	.LVL97:
 114:Source\mbedtls_open\library/ssl_srv.c ****         {
 731              		.loc 1 114 0
 732 0072 D91C     		adds	r1, r3, #3
 733 0074 8D42     		cmp	r5, r1
 734 0076 0ED2     		bcs	.L44
 116:Source\mbedtls_open\library/ssl_srv.c ****             mbedtls_ssl_send_alert_message( ssl, MBEDTLS_SSL_ALERT_LEVEL_FATAL,
 735              		.loc 1 116 0
 736 0078 244B     		ldr	r3, .L49+8
 737              	.LVL98:
 738 007a 0093     		str	r3, [sp]
 739 007c 7423     		movs	r3, #116
 740 007e 224A     		ldr	r2, .L49+4
 741              	.LVL99:
 742 0080 0121     		movs	r1, #1
 743              	.LVL100:
 744 0082 2000     		movs	r0, r4
 745 0084 FFF7FEFF 		bl	mbedtls_debug_print_msg
 746              	.LVL101:
 117:Source\mbedtls_open\library/ssl_srv.c ****                                             MBEDTLS_SSL_ALERT_MSG_DECODE_ERROR );
 747              		.loc 1 117 0
 748 0088 3222     		movs	r2, #50
 749 008a 0221     		movs	r1, #2
 750 008c 2000     		movs	r0, r4
 751 008e FFF7FEFF 		bl	mbedtls_ssl_send_alert_message
 752              	.LVL102:
 119:Source\mbedtls_open\library/ssl_srv.c ****         }
 753              		.loc 1 119 0
 754 0092 1F48     		ldr	r0, .L49+12
 755 0094 33E0     		b	.L41
 756              	.LVL103:
 757              	.L44:
 122:Source\mbedtls_open\library/ssl_srv.c ****         {
 758              		.loc 1 122 0
 759 0096 1078     		ldrb	r0, [r2]
 760 0098 0028     		cmp	r0, #0
 761 009a 17D1     		bne	.L45
 124:Source\mbedtls_open\library/ssl_srv.c ****                                     ssl, p + 3, hostname_len );
 762              		.loc 1 124 0
 763 009c 2168     		ldr	r1, [r4]
 764 009e CD6A     		ldr	r5, [r1, #44]
 765              	.LVL104:
 766 00a0 086B     		ldr	r0, [r1, #48]
 767 00a2 0332     		adds	r2, r2, #3
 768              	.LVL105:
 769 00a4 2100     		movs	r1, r4
 770 00a6 A847     		blx	r5
ARM GAS  C:\Users\Phuong\AppData\Local\Temp\cct2IqGs.s 			page 58


 771              	.LVL106:
 126:Source\mbedtls_open\library/ssl_srv.c ****             {
 772              		.loc 1 126 0
 773 00a8 0028     		cmp	r0, #0
 774 00aa 25D0     		beq	.L47
 128:Source\mbedtls_open\library/ssl_srv.c ****                 mbedtls_ssl_send_alert_message( ssl, MBEDTLS_SSL_ALERT_LEVEL_FATAL,
 775              		.loc 1 128 0
 776 00ac 0190     		str	r0, [sp, #4]
 777 00ae 194B     		ldr	r3, .L49+16
 778 00b0 0093     		str	r3, [sp]
 779 00b2 8023     		movs	r3, #128
 780 00b4 144A     		ldr	r2, .L49+4
 781 00b6 0121     		movs	r1, #1
 782 00b8 2000     		movs	r0, r4
 783              	.LVL107:
 784 00ba FFF7FEFF 		bl	mbedtls_debug_print_ret
 785              	.LVL108:
 129:Source\mbedtls_open\library/ssl_srv.c ****                         MBEDTLS_SSL_ALERT_MSG_UNRECOGNIZED_NAME );
 786              		.loc 1 129 0
 787 00be 7022     		movs	r2, #112
 788 00c0 0221     		movs	r1, #2
 789 00c2 2000     		movs	r0, r4
 790 00c4 FFF7FEFF 		bl	mbedtls_ssl_send_alert_message
 791              	.LVL109:
 131:Source\mbedtls_open\library/ssl_srv.c ****             }
 792              		.loc 1 131 0
 793 00c8 1148     		ldr	r0, .L49+12
 794 00ca 18E0     		b	.L41
 795              	.LVL110:
 796              	.L45:
 136:Source\mbedtls_open\library/ssl_srv.c ****         p += hostname_len + 3;
 797              		.loc 1 136 0
 798 00cc ED1A     		subs	r5, r5, r3
 799              	.LVL111:
 800 00ce 033D     		subs	r5, r5, #3
 801              	.LVL112:
 137:Source\mbedtls_open\library/ssl_srv.c ****     }
 802              		.loc 1 137 0
 803 00d0 5218     		adds	r2, r2, r1
 804              	.LVL113:
 805              	.L43:
 111:Source\mbedtls_open\library/ssl_srv.c ****     {
 806              		.loc 1 111 0
 807 00d2 022D     		cmp	r5, #2
 808 00d4 C9D8     		bhi	.L46
 140:Source\mbedtls_open\library/ssl_srv.c ****     {
 809              		.loc 1 140 0
 810 00d6 002D     		cmp	r5, #0
 811 00d8 10D0     		beq	.L48
 142:Source\mbedtls_open\library/ssl_srv.c ****         mbedtls_ssl_send_alert_message( ssl, MBEDTLS_SSL_ALERT_LEVEL_FATAL,
 812              		.loc 1 142 0
 813 00da 0C4B     		ldr	r3, .L49+8
 814 00dc 0093     		str	r3, [sp]
 815 00de 8E23     		movs	r3, #142
 816 00e0 094A     		ldr	r2, .L49+4
 817              	.LVL114:
 818 00e2 0121     		movs	r1, #1
ARM GAS  C:\Users\Phuong\AppData\Local\Temp\cct2IqGs.s 			page 59


 819 00e4 2000     		movs	r0, r4
 820 00e6 FFF7FEFF 		bl	mbedtls_debug_print_msg
 821              	.LVL115:
 143:Source\mbedtls_open\library/ssl_srv.c ****                                         MBEDTLS_SSL_ALERT_MSG_ILLEGAL_PARAMETER );
 822              		.loc 1 143 0
 823 00ea 2F22     		movs	r2, #47
 824 00ec 0221     		movs	r1, #2
 825 00ee 2000     		movs	r0, r4
 826 00f0 FFF7FEFF 		bl	mbedtls_ssl_send_alert_message
 827              	.LVL116:
 145:Source\mbedtls_open\library/ssl_srv.c ****     }
 828              		.loc 1 145 0
 829 00f4 0648     		ldr	r0, .L49+12
 830 00f6 02E0     		b	.L41
 831              	.LVL117:
 832              	.L47:
 133:Source\mbedtls_open\library/ssl_srv.c ****         }
 833              		.loc 1 133 0
 834 00f8 0020     		movs	r0, #0
 835              	.LVL118:
 836 00fa 00E0     		b	.L41
 837              	.LVL119:
 838              	.L48:
 148:Source\mbedtls_open\library/ssl_srv.c **** }
 839              		.loc 1 148 0
 840 00fc 0020     		movs	r0, #0
 841              	.LVL120:
 842              	.L41:
 149:Source\mbedtls_open\library/ssl_srv.c **** #endif /* MBEDTLS_SSL_SERVER_NAME_INDICATION */
 843              		.loc 1 149 0
 844 00fe 03B0     		add	sp, sp, #12
 845              		@ sp needed
 846              	.LVL121:
 847              	.LVL122:
 848              	.LVL123:
 849 0100 F0BD     		pop	{r4, r5, r6, r7, pc}
 850              	.L50:
 851 0102 C046     		.align	2
 852              	.L49:
 853 0104 4C010000 		.word	.LC20
 854 0108 00000000 		.word	.LC0
 855 010c 68010000 		.word	.LC22
 856 0110 0087FFFF 		.word	-30976
 857 0114 84010000 		.word	.LC24
 858              		.cfi_endproc
 859              	.LFE26:
 860              		.size	ssl_parse_servername_ext, .-ssl_parse_servername_ext
 861              		.section	.text.ssl_parse_renegotiation_info,"ax",%progbits
 862              		.align	2
 863              		.code	16
 864              		.thumb_func
 865              		.type	ssl_parse_renegotiation_info, %function
 866              	ssl_parse_renegotiation_info:
 867              	.LFB27:
 155:Source\mbedtls_open\library/ssl_srv.c **** #if defined(MBEDTLS_SSL_RENEGOTIATION)
 868              		.loc 1 155 0
 869              		.cfi_startproc
ARM GAS  C:\Users\Phuong\AppData\Local\Temp\cct2IqGs.s 			page 60


 870              		@ args = 0, pretend = 0, frame = 8
 871              		@ frame_needed = 0, uses_anonymous_args = 0
 872              	.LVL124:
 873 0000 F0B5     		push	{r4, r5, r6, r7, lr}
 874              		.cfi_def_cfa_offset 20
 875              		.cfi_offset 4, -20
 876              		.cfi_offset 5, -16
 877              		.cfi_offset 6, -12
 878              		.cfi_offset 7, -8
 879              		.cfi_offset 14, -4
 880 0002 85B0     		sub	sp, sp, #20
 881              		.cfi_def_cfa_offset 40
 882 0004 0500     		movs	r5, r0
 157:Source\mbedtls_open\library/ssl_srv.c ****     {
 883              		.loc 1 157 0
 884 0006 8068     		ldr	r0, [r0, #8]
 885              	.LVL125:
 886 0008 0028     		cmp	r0, #0
 887 000a 34D0     		beq	.L52
 160:Source\mbedtls_open\library/ssl_srv.c ****             buf[0] !=     ssl->verify_data_len ||
 888              		.loc 1 160 0
 889 000c F823     		movs	r3, #248
 890 000e EF58     		ldr	r7, [r5, r3]
 891 0010 7B1C     		adds	r3, r7, #1
 892 0012 9342     		cmp	r3, r2
 893 0014 20D1     		bne	.L53
 161:Source\mbedtls_open\library/ssl_srv.c ****             mbedtls_ssl_safer_memcmp( buf + 1, ssl->peer_verify_data,
 894              		.loc 1 161 0 discriminator 1
 895 0016 0B78     		ldrb	r3, [r1]
 160:Source\mbedtls_open\library/ssl_srv.c ****             buf[0] !=     ssl->verify_data_len ||
 896              		.loc 1 160 0 discriminator 1
 897 0018 9F42     		cmp	r7, r3
 898 001a 1DD1     		bne	.L53
 162:Source\mbedtls_open\library/ssl_srv.c ****                           ssl->verify_data_len ) != 0 )
 899              		.loc 1 162 0
 900 001c 8423     		movs	r3, #132
 901 001e 5B00     		lsls	r3, r3, #1
 902 0020 9C46     		mov	ip, r3
 903 0022 AC44     		add	ip, ip, r5
 904              	.LVL126:
 905              	.LBB65:
 906              	.LBB66:
 907              		.file 3 ".\\Source\\mbedtls_open\\include/mbedtls/ssl_internal.h"
   1:.\Source\mbedtls_open\include/mbedtls/ssl_internal.h **** /**
   2:.\Source\mbedtls_open\include/mbedtls/ssl_internal.h ****  * \file ssl_internal.h
   3:.\Source\mbedtls_open\include/mbedtls/ssl_internal.h ****  *
   4:.\Source\mbedtls_open\include/mbedtls/ssl_internal.h ****  * \brief Internal functions shared by the SSL modules
   5:.\Source\mbedtls_open\include/mbedtls/ssl_internal.h ****  */
   6:.\Source\mbedtls_open\include/mbedtls/ssl_internal.h **** /*
   7:.\Source\mbedtls_open\include/mbedtls/ssl_internal.h ****  *  Copyright (C) 2006-2015, ARM Limited, All Rights Reserved
   8:.\Source\mbedtls_open\include/mbedtls/ssl_internal.h ****  *  SPDX-License-Identifier: Apache-2.0
   9:.\Source\mbedtls_open\include/mbedtls/ssl_internal.h ****  *
  10:.\Source\mbedtls_open\include/mbedtls/ssl_internal.h ****  *  Licensed under the Apache License, Version 2.0 (the "License"); you may
  11:.\Source\mbedtls_open\include/mbedtls/ssl_internal.h ****  *  not use this file except in compliance with the License.
  12:.\Source\mbedtls_open\include/mbedtls/ssl_internal.h ****  *  You may obtain a copy of the License at
  13:.\Source\mbedtls_open\include/mbedtls/ssl_internal.h ****  *
  14:.\Source\mbedtls_open\include/mbedtls/ssl_internal.h ****  *  http://www.apache.org/licenses/LICENSE-2.0
ARM GAS  C:\Users\Phuong\AppData\Local\Temp\cct2IqGs.s 			page 61


  15:.\Source\mbedtls_open\include/mbedtls/ssl_internal.h ****  *
  16:.\Source\mbedtls_open\include/mbedtls/ssl_internal.h ****  *  Unless required by applicable law or agreed to in writing, software
  17:.\Source\mbedtls_open\include/mbedtls/ssl_internal.h ****  *  distributed under the License is distributed on an "AS IS" BASIS, WITHOUT
  18:.\Source\mbedtls_open\include/mbedtls/ssl_internal.h ****  *  WARRANTIES OR CONDITIONS OF ANY KIND, either express or implied.
  19:.\Source\mbedtls_open\include/mbedtls/ssl_internal.h ****  *  See the License for the specific language governing permissions and
  20:.\Source\mbedtls_open\include/mbedtls/ssl_internal.h ****  *  limitations under the License.
  21:.\Source\mbedtls_open\include/mbedtls/ssl_internal.h ****  *
  22:.\Source\mbedtls_open\include/mbedtls/ssl_internal.h ****  *  This file is part of mbed TLS (https://tls.mbed.org)
  23:.\Source\mbedtls_open\include/mbedtls/ssl_internal.h ****  */
  24:.\Source\mbedtls_open\include/mbedtls/ssl_internal.h **** #ifndef MBEDTLS_SSL_INTERNAL_H
  25:.\Source\mbedtls_open\include/mbedtls/ssl_internal.h **** #define MBEDTLS_SSL_INTERNAL_H
  26:.\Source\mbedtls_open\include/mbedtls/ssl_internal.h **** 
  27:.\Source\mbedtls_open\include/mbedtls/ssl_internal.h **** #include "ssl.h"
  28:.\Source\mbedtls_open\include/mbedtls/ssl_internal.h **** #include "cipher.h"
  29:.\Source\mbedtls_open\include/mbedtls/ssl_internal.h **** 
  30:.\Source\mbedtls_open\include/mbedtls/ssl_internal.h **** #if defined(MBEDTLS_MD5_C)
  31:.\Source\mbedtls_open\include/mbedtls/ssl_internal.h **** #include "md5.h"
  32:.\Source\mbedtls_open\include/mbedtls/ssl_internal.h **** #endif
  33:.\Source\mbedtls_open\include/mbedtls/ssl_internal.h **** 
