ARM GAS  C:\Users\Phuong\AppData\Local\Temp\ccbbphLa.s 			page 1


   1              		.syntax unified
   2              		.cpu cortex-m0plus
   3              		.fpu softvfp
   4              		.eabi_attribute 20, 1
   5              		.eabi_attribute 21, 1
   6              		.eabi_attribute 23, 3
   7              		.eabi_attribute 24, 1
   8              		.eabi_attribute 25, 1
   9              		.eabi_attribute 26, 1
  10              		.eabi_attribute 30, 1
  11              		.eabi_attribute 34, 0
  12              		.eabi_attribute 18, 4
  13              		.thumb
  14              		.syntax unified
  15              		.file	"ssl_cookie.c"
  16              		.text
  17              	.Ltext0:
  18              		.cfi_sections	.debug_frame
  19              		.section	.text.ssl_cookie_hmac,"ax",%progbits
  20              		.align	2
  21              		.code	16
  22              		.thumb_func
  23              		.type	ssl_cookie_hmac, %function
  24              	ssl_cookie_hmac:
  25              	.LFB28:
  26              		.file 1 "Source\\mbedtls_open\\library\\ssl_cookie.c"
   1:Source\mbedtls_open\library/ssl_cookie.c **** /*
   2:Source\mbedtls_open\library/ssl_cookie.c ****  *  DTLS cookie callbacks implementation
   3:Source\mbedtls_open\library/ssl_cookie.c ****  *
   4:Source\mbedtls_open\library/ssl_cookie.c ****  *  Copyright (C) 2006-2015, ARM Limited, All Rights Reserved
   5:Source\mbedtls_open\library/ssl_cookie.c ****  *  SPDX-License-Identifier: Apache-2.0
   6:Source\mbedtls_open\library/ssl_cookie.c ****  *
   7:Source\mbedtls_open\library/ssl_cookie.c ****  *  Licensed under the Apache License, Version 2.0 (the "License"); you may
   8:Source\mbedtls_open\library/ssl_cookie.c ****  *  not use this file except in compliance with the License.
   9:Source\mbedtls_open\library/ssl_cookie.c ****  *  You may obtain a copy of the License at
  10:Source\mbedtls_open\library/ssl_cookie.c ****  *
  11:Source\mbedtls_open\library/ssl_cookie.c ****  *  http://www.apache.org/licenses/LICENSE-2.0
  12:Source\mbedtls_open\library/ssl_cookie.c ****  *
  13:Source\mbedtls_open\library/ssl_cookie.c ****  *  Unless required by applicable law or agreed to in writing, software
  14:Source\mbedtls_open\library/ssl_cookie.c ****  *  distributed under the License is distributed on an "AS IS" BASIS, WITHOUT
  15:Source\mbedtls_open\library/ssl_cookie.c ****  *  WARRANTIES OR CONDITIONS OF ANY KIND, either express or implied.
  16:Source\mbedtls_open\library/ssl_cookie.c ****  *  See the License for the specific language governing permissions and
  17:Source\mbedtls_open\library/ssl_cookie.c ****  *  limitations under the License.
  18:Source\mbedtls_open\library/ssl_cookie.c ****  *
  19:Source\mbedtls_open\library/ssl_cookie.c ****  *  This file is part of mbed TLS (https://tls.mbed.org)
  20:Source\mbedtls_open\library/ssl_cookie.c ****  */
  21:Source\mbedtls_open\library/ssl_cookie.c **** /*
  22:Source\mbedtls_open\library/ssl_cookie.c ****  * These session callbacks use a simple chained list
  23:Source\mbedtls_open\library/ssl_cookie.c ****  * to store and retrieve the session information.
  24:Source\mbedtls_open\library/ssl_cookie.c ****  */
  25:Source\mbedtls_open\library/ssl_cookie.c **** 
  26:Source\mbedtls_open\library/ssl_cookie.c **** #if !defined(MBEDTLS_CONFIG_FILE)
  27:Source\mbedtls_open\library/ssl_cookie.c **** #include "mbedtls/config.h"
  28:Source\mbedtls_open\library/ssl_cookie.c **** #else
  29:Source\mbedtls_open\library/ssl_cookie.c **** #include MBEDTLS_CONFIG_FILE
  30:Source\mbedtls_open\library/ssl_cookie.c **** #endif
  31:Source\mbedtls_open\library/ssl_cookie.c **** 
ARM GAS  C:\Users\Phuong\AppData\Local\Temp\ccbbphLa.s 			page 2


  32:Source\mbedtls_open\library/ssl_cookie.c **** #if defined(MBEDTLS_SSL_COOKIE_C)
  33:Source\mbedtls_open\library/ssl_cookie.c **** 
  34:Source\mbedtls_open\library/ssl_cookie.c **** #if defined(MBEDTLS_PLATFORM_C)
  35:Source\mbedtls_open\library/ssl_cookie.c **** #include "mbedtls/platform.h"
  36:Source\mbedtls_open\library/ssl_cookie.c **** #else
  37:Source\mbedtls_open\library/ssl_cookie.c **** #define mbedtls_calloc    calloc
  38:Source\mbedtls_open\library/ssl_cookie.c **** #define mbedtls_free      free
  39:Source\mbedtls_open\library/ssl_cookie.c **** #endif
  40:Source\mbedtls_open\library/ssl_cookie.c **** 
  41:Source\mbedtls_open\library/ssl_cookie.c **** #include "mbedtls/ssl_cookie.h"
  42:Source\mbedtls_open\library/ssl_cookie.c **** #include "mbedtls/ssl_internal.h"
  43:Source\mbedtls_open\library/ssl_cookie.c **** #include "mbedtls/platform_util.h"
  44:Source\mbedtls_open\library/ssl_cookie.c **** 
  45:Source\mbedtls_open\library/ssl_cookie.c **** #include <string.h>
  46:Source\mbedtls_open\library/ssl_cookie.c **** 
  47:Source\mbedtls_open\library/ssl_cookie.c **** /*
  48:Source\mbedtls_open\library/ssl_cookie.c ****  * If DTLS is in use, then at least one of SHA-1, SHA-256, SHA-512 is
  49:Source\mbedtls_open\library/ssl_cookie.c ****  * available. Try SHA-256 first, 512 wastes resources since we need to stay
  50:Source\mbedtls_open\library/ssl_cookie.c ****  * with max 32 bytes of cookie for DTLS 1.0
  51:Source\mbedtls_open\library/ssl_cookie.c ****  */
  52:Source\mbedtls_open\library/ssl_cookie.c **** #if defined(MBEDTLS_SHA256_C)
  53:Source\mbedtls_open\library/ssl_cookie.c **** #define COOKIE_MD           MBEDTLS_MD_SHA224
  54:Source\mbedtls_open\library/ssl_cookie.c **** #define COOKIE_MD_OUTLEN    32
  55:Source\mbedtls_open\library/ssl_cookie.c **** #define COOKIE_HMAC_LEN     28
  56:Source\mbedtls_open\library/ssl_cookie.c **** #elif defined(MBEDTLS_SHA512_C)
  57:Source\mbedtls_open\library/ssl_cookie.c **** #define COOKIE_MD           MBEDTLS_MD_SHA384
  58:Source\mbedtls_open\library/ssl_cookie.c **** #define COOKIE_MD_OUTLEN    48
  59:Source\mbedtls_open\library/ssl_cookie.c **** #define COOKIE_HMAC_LEN     28
  60:Source\mbedtls_open\library/ssl_cookie.c **** #elif defined(MBEDTLS_SHA1_C)
  61:Source\mbedtls_open\library/ssl_cookie.c **** #define COOKIE_MD           MBEDTLS_MD_SHA1
  62:Source\mbedtls_open\library/ssl_cookie.c **** #define COOKIE_MD_OUTLEN    20
  63:Source\mbedtls_open\library/ssl_cookie.c **** #define COOKIE_HMAC_LEN     20
  64:Source\mbedtls_open\library/ssl_cookie.c **** #else
  65:Source\mbedtls_open\library/ssl_cookie.c **** #error "DTLS hello verify needs SHA-1 or SHA-2"
  66:Source\mbedtls_open\library/ssl_cookie.c **** #endif
  67:Source\mbedtls_open\library/ssl_cookie.c **** 
  68:Source\mbedtls_open\library/ssl_cookie.c **** /*
  69:Source\mbedtls_open\library/ssl_cookie.c ****  * Cookies are formed of a 4-bytes timestamp (or serial number) and
  70:Source\mbedtls_open\library/ssl_cookie.c ****  * an HMAC of timestemp and client ID.
  71:Source\mbedtls_open\library/ssl_cookie.c ****  */
  72:Source\mbedtls_open\library/ssl_cookie.c **** #define COOKIE_LEN      ( 4 + COOKIE_HMAC_LEN )
  73:Source\mbedtls_open\library/ssl_cookie.c **** 
  74:Source\mbedtls_open\library/ssl_cookie.c **** void mbedtls_ssl_cookie_init( mbedtls_ssl_cookie_ctx *ctx )
  75:Source\mbedtls_open\library/ssl_cookie.c **** {
  76:Source\mbedtls_open\library/ssl_cookie.c ****     mbedtls_md_init( &ctx->hmac_ctx );
  77:Source\mbedtls_open\library/ssl_cookie.c **** #if !defined(MBEDTLS_HAVE_TIME)
  78:Source\mbedtls_open\library/ssl_cookie.c ****     ctx->serial = 0;
  79:Source\mbedtls_open\library/ssl_cookie.c **** #endif
  80:Source\mbedtls_open\library/ssl_cookie.c ****     ctx->timeout = MBEDTLS_SSL_COOKIE_TIMEOUT;
  81:Source\mbedtls_open\library/ssl_cookie.c **** 
  82:Source\mbedtls_open\library/ssl_cookie.c **** #if defined(MBEDTLS_THREADING_C)
  83:Source\mbedtls_open\library/ssl_cookie.c ****     mbedtls_mutex_init( &ctx->mutex );
  84:Source\mbedtls_open\library/ssl_cookie.c **** #endif
  85:Source\mbedtls_open\library/ssl_cookie.c **** }
  86:Source\mbedtls_open\library/ssl_cookie.c **** 
  87:Source\mbedtls_open\library/ssl_cookie.c **** void mbedtls_ssl_cookie_set_timeout( mbedtls_ssl_cookie_ctx *ctx, unsigned long delay )
  88:Source\mbedtls_open\library/ssl_cookie.c **** {
ARM GAS  C:\Users\Phuong\AppData\Local\Temp\ccbbphLa.s 			page 3


  89:Source\mbedtls_open\library/ssl_cookie.c ****     ctx->timeout = delay;
  90:Source\mbedtls_open\library/ssl_cookie.c **** }
  91:Source\mbedtls_open\library/ssl_cookie.c **** 
  92:Source\mbedtls_open\library/ssl_cookie.c **** void mbedtls_ssl_cookie_free( mbedtls_ssl_cookie_ctx *ctx )
  93:Source\mbedtls_open\library/ssl_cookie.c **** {
  94:Source\mbedtls_open\library/ssl_cookie.c ****     mbedtls_md_free( &ctx->hmac_ctx );
  95:Source\mbedtls_open\library/ssl_cookie.c **** 
  96:Source\mbedtls_open\library/ssl_cookie.c **** #if defined(MBEDTLS_THREADING_C)
  97:Source\mbedtls_open\library/ssl_cookie.c ****     mbedtls_mutex_free( &ctx->mutex );
  98:Source\mbedtls_open\library/ssl_cookie.c **** #endif
  99:Source\mbedtls_open\library/ssl_cookie.c **** 
 100:Source\mbedtls_open\library/ssl_cookie.c ****     mbedtls_platform_zeroize( ctx, sizeof( mbedtls_ssl_cookie_ctx ) );
 101:Source\mbedtls_open\library/ssl_cookie.c **** }
 102:Source\mbedtls_open\library/ssl_cookie.c **** 
 103:Source\mbedtls_open\library/ssl_cookie.c **** int mbedtls_ssl_cookie_setup( mbedtls_ssl_cookie_ctx *ctx,
 104:Source\mbedtls_open\library/ssl_cookie.c ****                       int (*f_rng)(void *, unsigned char *, size_t),
 105:Source\mbedtls_open\library/ssl_cookie.c ****                       void *p_rng )
 106:Source\mbedtls_open\library/ssl_cookie.c **** {
 107:Source\mbedtls_open\library/ssl_cookie.c ****     int ret;
 108:Source\mbedtls_open\library/ssl_cookie.c ****     unsigned char key[COOKIE_MD_OUTLEN];
 109:Source\mbedtls_open\library/ssl_cookie.c **** 
 110:Source\mbedtls_open\library/ssl_cookie.c ****     if( ( ret = f_rng( p_rng, key, sizeof( key ) ) ) != 0 )
 111:Source\mbedtls_open\library/ssl_cookie.c ****         return( ret );
 112:Source\mbedtls_open\library/ssl_cookie.c **** 
 113:Source\mbedtls_open\library/ssl_cookie.c ****     ret = mbedtls_md_setup( &ctx->hmac_ctx, mbedtls_md_info_from_type( COOKIE_MD ), 1 );
 114:Source\mbedtls_open\library/ssl_cookie.c ****     if( ret != 0 )
 115:Source\mbedtls_open\library/ssl_cookie.c ****         return( ret );
 116:Source\mbedtls_open\library/ssl_cookie.c **** 
 117:Source\mbedtls_open\library/ssl_cookie.c ****     ret = mbedtls_md_hmac_starts( &ctx->hmac_ctx, key, sizeof( key ) );
 118:Source\mbedtls_open\library/ssl_cookie.c ****     if( ret != 0 )
 119:Source\mbedtls_open\library/ssl_cookie.c ****         return( ret );
 120:Source\mbedtls_open\library/ssl_cookie.c **** 
 121:Source\mbedtls_open\library/ssl_cookie.c ****     mbedtls_platform_zeroize( key, sizeof( key ) );
 122:Source\mbedtls_open\library/ssl_cookie.c **** 
 123:Source\mbedtls_open\library/ssl_cookie.c ****     return( 0 );
 124:Source\mbedtls_open\library/ssl_cookie.c **** }
 125:Source\mbedtls_open\library/ssl_cookie.c **** 
 126:Source\mbedtls_open\library/ssl_cookie.c **** /*
 127:Source\mbedtls_open\library/ssl_cookie.c ****  * Generate the HMAC part of a cookie
 128:Source\mbedtls_open\library/ssl_cookie.c ****  */
 129:Source\mbedtls_open\library/ssl_cookie.c **** static int ssl_cookie_hmac( mbedtls_md_context_t *hmac_ctx,
 130:Source\mbedtls_open\library/ssl_cookie.c ****                             const unsigned char time[4],
 131:Source\mbedtls_open\library/ssl_cookie.c ****                             unsigned char **p, unsigned char *end,
 132:Source\mbedtls_open\library/ssl_cookie.c ****                             const unsigned char *cli_id, size_t cli_id_len )
 133:Source\mbedtls_open\library/ssl_cookie.c **** {
  27              		.loc 1 133 0
  28              		.cfi_startproc
  29              		@ args = 8, pretend = 0, frame = 32
  30              		@ frame_needed = 0, uses_anonymous_args = 0
  31              	.LVL0:
  32 0000 70B5     		push	{r4, r5, r6, lr}
  33              		.cfi_def_cfa_offset 16
  34              		.cfi_offset 4, -16
  35              		.cfi_offset 5, -12
  36              		.cfi_offset 6, -8
  37              		.cfi_offset 14, -4
  38 0002 88B0     		sub	sp, sp, #32
ARM GAS  C:\Users\Phuong\AppData\Local\Temp\ccbbphLa.s 			page 4


  39              		.cfi_def_cfa_offset 48
  40 0004 0400     		movs	r4, r0
  41 0006 0D00     		movs	r5, r1
  42 0008 1600     		movs	r6, r2
 134:Source\mbedtls_open\library/ssl_cookie.c ****     unsigned char hmac_out[COOKIE_MD_OUTLEN];
 135:Source\mbedtls_open\library/ssl_cookie.c **** 
 136:Source\mbedtls_open\library/ssl_cookie.c ****     if( (size_t)( end - *p ) < COOKIE_HMAC_LEN )
  43              		.loc 1 136 0
  44 000a 1268     		ldr	r2, [r2]
  45              	.LVL1:
  46 000c 9B1A     		subs	r3, r3, r2
  47              	.LVL2:
  48 000e 1B2B     		cmp	r3, #27
  49 0010 20D9     		bls	.L3
 137:Source\mbedtls_open\library/ssl_cookie.c ****         return( MBEDTLS_ERR_SSL_BUFFER_TOO_SMALL );
 138:Source\mbedtls_open\library/ssl_cookie.c **** 
 139:Source\mbedtls_open\library/ssl_cookie.c ****     if( mbedtls_md_hmac_reset(  hmac_ctx ) != 0 ||
  50              		.loc 1 139 0
  51 0012 FFF7FEFF 		bl	mbedtls_md_hmac_reset
  52              	.LVL3:
  53 0016 0028     		cmp	r0, #0
  54 0018 1ED1     		bne	.L4
 140:Source\mbedtls_open\library/ssl_cookie.c ****         mbedtls_md_hmac_update( hmac_ctx, time, 4 ) != 0 ||
  55              		.loc 1 140 0 discriminator 1
  56 001a 0422     		movs	r2, #4
  57 001c 2900     		movs	r1, r5
  58 001e 2000     		movs	r0, r4
  59 0020 FFF7FEFF 		bl	mbedtls_md_hmac_update
  60              	.LVL4:
 139:Source\mbedtls_open\library/ssl_cookie.c ****         mbedtls_md_hmac_update( hmac_ctx, time, 4 ) != 0 ||
  61              		.loc 1 139 0 discriminator 1
  62 0024 0028     		cmp	r0, #0
  63 0026 19D1     		bne	.L5
 141:Source\mbedtls_open\library/ssl_cookie.c ****         mbedtls_md_hmac_update( hmac_ctx, cli_id, cli_id_len ) != 0 ||
  64              		.loc 1 141 0
  65 0028 0D9A     		ldr	r2, [sp, #52]
  66 002a 0C99     		ldr	r1, [sp, #48]
  67 002c 2000     		movs	r0, r4
  68 002e FFF7FEFF 		bl	mbedtls_md_hmac_update
  69              	.LVL5:
 140:Source\mbedtls_open\library/ssl_cookie.c ****         mbedtls_md_hmac_update( hmac_ctx, time, 4 ) != 0 ||
  70              		.loc 1 140 0
  71 0032 0028     		cmp	r0, #0
  72 0034 14D1     		bne	.L6
 142:Source\mbedtls_open\library/ssl_cookie.c ****         mbedtls_md_hmac_finish( hmac_ctx, hmac_out ) != 0 )
  73              		.loc 1 142 0
  74 0036 6946     		mov	r1, sp
  75 0038 2000     		movs	r0, r4
  76 003a FFF7FEFF 		bl	mbedtls_md_hmac_finish
  77              	.LVL6:
  78 003e 041E     		subs	r4, r0, #0
  79              	.LVL7:
 141:Source\mbedtls_open\library/ssl_cookie.c ****         mbedtls_md_hmac_update( hmac_ctx, cli_id, cli_id_len ) != 0 ||
  80              		.loc 1 141 0
  81 0040 10D1     		bne	.L7
 143:Source\mbedtls_open\library/ssl_cookie.c ****     {
 144:Source\mbedtls_open\library/ssl_cookie.c ****         return( MBEDTLS_ERR_SSL_INTERNAL_ERROR );
ARM GAS  C:\Users\Phuong\AppData\Local\Temp\ccbbphLa.s 			page 5


 145:Source\mbedtls_open\library/ssl_cookie.c ****     }
 146:Source\mbedtls_open\library/ssl_cookie.c **** 
 147:Source\mbedtls_open\library/ssl_cookie.c ****     memcpy( *p, hmac_out, COOKIE_HMAC_LEN );
  82              		.loc 1 147 0
  83 0042 1C22     		movs	r2, #28
  84 0044 6946     		mov	r1, sp
  85 0046 3068     		ldr	r0, [r6]
  86 0048 FFF7FEFF 		bl	memcpy
  87              	.LVL8:
 148:Source\mbedtls_open\library/ssl_cookie.c ****     *p += COOKIE_HMAC_LEN;
  88              		.loc 1 148 0
  89 004c 3368     		ldr	r3, [r6]
  90 004e 1C33     		adds	r3, r3, #28
  91 0050 3360     		str	r3, [r6]
 149:Source\mbedtls_open\library/ssl_cookie.c **** 
 150:Source\mbedtls_open\library/ssl_cookie.c ****     return( 0 );
  92              		.loc 1 150 0
  93 0052 08E0     		b	.L2
  94              	.LVL9:
  95              	.L3:
 137:Source\mbedtls_open\library/ssl_cookie.c **** 
  96              		.loc 1 137 0
  97 0054 054C     		ldr	r4, .L8
  98 0056 06E0     		b	.L2
  99              	.LVL10:
 100              	.L4:
 144:Source\mbedtls_open\library/ssl_cookie.c ****     }
 101              		.loc 1 144 0
 102 0058 054C     		ldr	r4, .L8+4
 103              	.LVL11:
 104 005a 04E0     		b	.L2
 105              	.LVL12:
 106              	.L5:
 107 005c 044C     		ldr	r4, .L8+4
 108              	.LVL13:
 109 005e 02E0     		b	.L2
 110              	.LVL14:
 111              	.L6:
 112 0060 034C     		ldr	r4, .L8+4
 113              	.LVL15:
 114 0062 00E0     		b	.L2
 115              	.L7:
 116 0064 024C     		ldr	r4, .L8+4
 117              	.L2:
 151:Source\mbedtls_open\library/ssl_cookie.c **** }
 118              		.loc 1 151 0
 119 0066 2000     		movs	r0, r4
 120 0068 08B0     		add	sp, sp, #32
 121              		@ sp needed
 122              	.LVL16:
 123              	.LVL17:
 124 006a 70BD     		pop	{r4, r5, r6, pc}
 125              	.L9:
 126              		.align	2
 127              	.L8:
 128 006c 0096FFFF 		.word	-27136
 129 0070 0094FFFF 		.word	-27648
ARM GAS  C:\Users\Phuong\AppData\Local\Temp\ccbbphLa.s 			page 6


 130              		.cfi_endproc
 131              	.LFE28:
 132              		.size	ssl_cookie_hmac, .-ssl_cookie_hmac
 133              		.section	.text.mbedtls_ssl_cookie_init,"ax",%progbits
 134              		.align	2
 135              		.global	mbedtls_ssl_cookie_init
 136              		.code	16
 137              		.thumb_func
 138              		.type	mbedtls_ssl_cookie_init, %function
 139              	mbedtls_ssl_cookie_init:
 140              	.LFB24:
  75:Source\mbedtls_open\library/ssl_cookie.c ****     mbedtls_md_init( &ctx->hmac_ctx );
 141              		.loc 1 75 0
 142              		.cfi_startproc
 143              		@ args = 0, pretend = 0, frame = 0
 144              		@ frame_needed = 0, uses_anonymous_args = 0
 145              	.LVL18:
 146 0000 10B5     		push	{r4, lr}
 147              		.cfi_def_cfa_offset 8
 148              		.cfi_offset 4, -8
 149              		.cfi_offset 14, -4
 150 0002 0400     		movs	r4, r0
  76:Source\mbedtls_open\library/ssl_cookie.c **** #if !defined(MBEDTLS_HAVE_TIME)
 151              		.loc 1 76 0
 152 0004 FFF7FEFF 		bl	mbedtls_md_init
 153              	.LVL19:
  78:Source\mbedtls_open\library/ssl_cookie.c **** #endif
 154              		.loc 1 78 0
 155 0008 0023     		movs	r3, #0
 156 000a E360     		str	r3, [r4, #12]
  80:Source\mbedtls_open\library/ssl_cookie.c **** 
 157              		.loc 1 80 0
 158 000c 3C33     		adds	r3, r3, #60
 159 000e 2361     		str	r3, [r4, #16]
  85:Source\mbedtls_open\library/ssl_cookie.c **** 
 160              		.loc 1 85 0
 161              		@ sp needed
 162              	.LVL20:
 163 0010 10BD     		pop	{r4, pc}
 164              		.cfi_endproc
 165              	.LFE24:
 166              		.size	mbedtls_ssl_cookie_init, .-mbedtls_ssl_cookie_init
 167 0012 C046     		.section	.text.mbedtls_ssl_cookie_set_timeout,"ax",%progbits
 168              		.align	2
 169              		.global	mbedtls_ssl_cookie_set_timeout
 170              		.code	16
 171              		.thumb_func
 172              		.type	mbedtls_ssl_cookie_set_timeout, %function
 173              	mbedtls_ssl_cookie_set_timeout:
 174              	.LFB25:
  88:Source\mbedtls_open\library/ssl_cookie.c ****     ctx->timeout = delay;
 175              		.loc 1 88 0
 176              		.cfi_startproc
 177              		@ args = 0, pretend = 0, frame = 0
 178              		@ frame_needed = 0, uses_anonymous_args = 0
 179              		@ link register save eliminated.
 180              	.LVL21:
ARM GAS  C:\Users\Phuong\AppData\Local\Temp\ccbbphLa.s 			page 7


  89:Source\mbedtls_open\library/ssl_cookie.c **** }
 181              		.loc 1 89 0
 182 0000 0161     		str	r1, [r0, #16]
  90:Source\mbedtls_open\library/ssl_cookie.c **** 
 183              		.loc 1 90 0
 184              		@ sp needed
 185 0002 7047     		bx	lr
 186              		.cfi_endproc
 187              	.LFE25:
 188              		.size	mbedtls_ssl_cookie_set_timeout, .-mbedtls_ssl_cookie_set_timeout
 189              		.section	.text.mbedtls_ssl_cookie_free,"ax",%progbits
 190              		.align	2
 191              		.global	mbedtls_ssl_cookie_free
 192              		.code	16
 193              		.thumb_func
 194              		.type	mbedtls_ssl_cookie_free, %function
 195              	mbedtls_ssl_cookie_free:
 196              	.LFB26:
  93:Source\mbedtls_open\library/ssl_cookie.c ****     mbedtls_md_free( &ctx->hmac_ctx );
 197              		.loc 1 93 0
 198              		.cfi_startproc
 199              		@ args = 0, pretend = 0, frame = 0
 200              		@ frame_needed = 0, uses_anonymous_args = 0
 201              	.LVL22:
 202 0000 10B5     		push	{r4, lr}
 203              		.cfi_def_cfa_offset 8
 204              		.cfi_offset 4, -8
 205              		.cfi_offset 14, -4
 206 0002 0400     		movs	r4, r0
  94:Source\mbedtls_open\library/ssl_cookie.c **** 
 207              		.loc 1 94 0
 208 0004 FFF7FEFF 		bl	mbedtls_md_free
 209              	.LVL23:
 100:Source\mbedtls_open\library/ssl_cookie.c **** }
 210              		.loc 1 100 0
 211 0008 1421     		movs	r1, #20
 212 000a 2000     		movs	r0, r4
 213 000c FFF7FEFF 		bl	mbedtls_platform_zeroize
 214              	.LVL24:
 101:Source\mbedtls_open\library/ssl_cookie.c **** 
 215              		.loc 1 101 0
 216              		@ sp needed
 217              	.LVL25:
 218 0010 10BD     		pop	{r4, pc}
 219              		.cfi_endproc
 220              	.LFE26:
 221              		.size	mbedtls_ssl_cookie_free, .-mbedtls_ssl_cookie_free
 222 0012 C046     		.section	.text.mbedtls_ssl_cookie_setup,"ax",%progbits
 223              		.align	2
 224              		.global	mbedtls_ssl_cookie_setup
 225              		.code	16
 226              		.thumb_func
 227              		.type	mbedtls_ssl_cookie_setup, %function
 228              	mbedtls_ssl_cookie_setup:
 229              	.LFB27:
 106:Source\mbedtls_open\library/ssl_cookie.c ****     int ret;
 230              		.loc 1 106 0
ARM GAS  C:\Users\Phuong\AppData\Local\Temp\ccbbphLa.s 			page 8


 231              		.cfi_startproc
 232              		@ args = 0, pretend = 0, frame = 32
 233              		@ frame_needed = 0, uses_anonymous_args = 0
 234              	.LVL26:
 235 0000 10B5     		push	{r4, lr}
 236              		.cfi_def_cfa_offset 8
 237              		.cfi_offset 4, -8
 238              		.cfi_offset 14, -4
 239 0002 88B0     		sub	sp, sp, #32
 240              		.cfi_def_cfa_offset 40
 241 0004 0400     		movs	r4, r0
 242 0006 0B00     		movs	r3, r1
 243 0008 1000     		movs	r0, r2
 244              	.LVL27:
 110:Source\mbedtls_open\library/ssl_cookie.c ****         return( ret );
 245              		.loc 1 110 0
 246 000a 2022     		movs	r2, #32
 247              	.LVL28:
 248 000c 6946     		mov	r1, sp
 249              	.LVL29:
 250 000e 9847     		blx	r3
 251              	.LVL30:
 252 0010 0028     		cmp	r0, #0
 253 0012 15D1     		bne	.L14
 113:Source\mbedtls_open\library/ssl_cookie.c ****     if( ret != 0 )
 254              		.loc 1 113 0
 255 0014 0530     		adds	r0, r0, #5
 256              	.LVL31:
 257 0016 FFF7FEFF 		bl	mbedtls_md_info_from_type
 258              	.LVL32:
 259 001a 0100     		movs	r1, r0
 260 001c 0122     		movs	r2, #1
 261 001e 2000     		movs	r0, r4
 262 0020 FFF7FEFF 		bl	mbedtls_md_setup
 263              	.LVL33:
 114:Source\mbedtls_open\library/ssl_cookie.c ****         return( ret );
 264              		.loc 1 114 0
 265 0024 0028     		cmp	r0, #0
 266 0026 0BD1     		bne	.L14
 117:Source\mbedtls_open\library/ssl_cookie.c ****     if( ret != 0 )
 267              		.loc 1 117 0
 268 0028 2022     		movs	r2, #32
 269 002a 6946     		mov	r1, sp
 270 002c 2000     		movs	r0, r4
 271              	.LVL34:
 272 002e FFF7FEFF 		bl	mbedtls_md_hmac_starts
 273              	.LVL35:
 118:Source\mbedtls_open\library/ssl_cookie.c ****         return( ret );
 274              		.loc 1 118 0
 275 0032 0028     		cmp	r0, #0
 276 0034 04D1     		bne	.L14
 121:Source\mbedtls_open\library/ssl_cookie.c **** 
 277              		.loc 1 121 0
 278 0036 2021     		movs	r1, #32
 279 0038 6846     		mov	r0, sp
 280              	.LVL36:
 281 003a FFF7FEFF 		bl	mbedtls_platform_zeroize
ARM GAS  C:\Users\Phuong\AppData\Local\Temp\ccbbphLa.s 			page 9


 282              	.LVL37:
 123:Source\mbedtls_open\library/ssl_cookie.c **** }
 283              		.loc 1 123 0
 284 003e 0020     		movs	r0, #0
 285              	.L14:
 124:Source\mbedtls_open\library/ssl_cookie.c **** 
 286              		.loc 1 124 0
 287 0040 08B0     		add	sp, sp, #32
 288              		@ sp needed
 289              	.LVL38:
 290 0042 10BD     		pop	{r4, pc}
 291              		.cfi_endproc
 292              	.LFE27:
 293              		.size	mbedtls_ssl_cookie_setup, .-mbedtls_ssl_cookie_setup
 294              		.section	.text.mbedtls_ssl_cookie_write,"ax",%progbits
 295              		.align	2
 296              		.global	mbedtls_ssl_cookie_write
 297              		.code	16
 298              		.thumb_func
 299              		.type	mbedtls_ssl_cookie_write, %function
 300              	mbedtls_ssl_cookie_write:
 301              	.LFB29:
 152:Source\mbedtls_open\library/ssl_cookie.c **** 
 153:Source\mbedtls_open\library/ssl_cookie.c **** /*
 154:Source\mbedtls_open\library/ssl_cookie.c ****  * Generate cookie for DTLS ClientHello verification
 155:Source\mbedtls_open\library/ssl_cookie.c ****  */
 156:Source\mbedtls_open\library/ssl_cookie.c **** int mbedtls_ssl_cookie_write( void *p_ctx,
 157:Source\mbedtls_open\library/ssl_cookie.c ****                       unsigned char **p, unsigned char *end,
 158:Source\mbedtls_open\library/ssl_cookie.c ****                       const unsigned char *cli_id, size_t cli_id_len )
 159:Source\mbedtls_open\library/ssl_cookie.c **** {
 302              		.loc 1 159 0
 303              		.cfi_startproc
 304              		@ args = 4, pretend = 0, frame = 0
 305              		@ frame_needed = 0, uses_anonymous_args = 0
 306              	.LVL39:
 307 0000 70B5     		push	{r4, r5, r6, lr}
 308              		.cfi_def_cfa_offset 16
 309              		.cfi_offset 4, -16
 310              		.cfi_offset 5, -12
 311              		.cfi_offset 6, -8
 312              		.cfi_offset 14, -4
 313 0002 82B0     		sub	sp, sp, #8
 314              		.cfi_def_cfa_offset 24
 315              	.LVL40:
 160:Source\mbedtls_open\library/ssl_cookie.c ****     int ret;
 161:Source\mbedtls_open\library/ssl_cookie.c ****     mbedtls_ssl_cookie_ctx *ctx = (mbedtls_ssl_cookie_ctx *) p_ctx;
 162:Source\mbedtls_open\library/ssl_cookie.c ****     unsigned long t;
 163:Source\mbedtls_open\library/ssl_cookie.c **** 
 164:Source\mbedtls_open\library/ssl_cookie.c ****     if( ctx == NULL || cli_id == NULL )
 316              		.loc 1 164 0
 317 0004 0028     		cmp	r0, #0
 318 0006 1FD0     		beq	.L20
 319              		.loc 1 164 0 is_stmt 0 discriminator 1
 320 0008 002B     		cmp	r3, #0
 321 000a 1FD0     		beq	.L21
 165:Source\mbedtls_open\library/ssl_cookie.c ****         return( MBEDTLS_ERR_SSL_BAD_INPUT_DATA );
 166:Source\mbedtls_open\library/ssl_cookie.c **** 
ARM GAS  C:\Users\Phuong\AppData\Local\Temp\ccbbphLa.s 			page 10


 167:Source\mbedtls_open\library/ssl_cookie.c ****     if( (size_t)( end - *p ) < COOKIE_LEN )
 322              		.loc 1 167 0 is_stmt 1
 323 000c 0C68     		ldr	r4, [r1]
 324 000e 141B     		subs	r4, r2, r4
 325 0010 1F2C     		cmp	r4, #31
 326 0012 1DD9     		bls	.L22
 168:Source\mbedtls_open\library/ssl_cookie.c ****         return( MBEDTLS_ERR_SSL_BUFFER_TOO_SMALL );
 169:Source\mbedtls_open\library/ssl_cookie.c **** 
 170:Source\mbedtls_open\library/ssl_cookie.c **** #if defined(MBEDTLS_HAVE_TIME)
 171:Source\mbedtls_open\library/ssl_cookie.c ****     t = (unsigned long) mbedtls_time( NULL );
 172:Source\mbedtls_open\library/ssl_cookie.c **** #else
 173:Source\mbedtls_open\library/ssl_cookie.c ****     t = ctx->serial++;
 327              		.loc 1 173 0
 328 0014 C468     		ldr	r4, [r0, #12]
 329 0016 651C     		adds	r5, r4, #1
 330 0018 C560     		str	r5, [r0, #12]
 331              	.LVL41:
 174:Source\mbedtls_open\library/ssl_cookie.c **** #endif
 175:Source\mbedtls_open\library/ssl_cookie.c **** 
 176:Source\mbedtls_open\library/ssl_cookie.c ****     (*p)[0] = (unsigned char)( t >> 24 );
 332              		.loc 1 176 0
 333 001a 250E     		lsrs	r5, r4, #24
 334 001c 0E68     		ldr	r6, [r1]
 335 001e 3570     		strb	r5, [r6]
 177:Source\mbedtls_open\library/ssl_cookie.c ****     (*p)[1] = (unsigned char)( t >> 16 );
 336              		.loc 1 177 0
 337 0020 250C     		lsrs	r5, r4, #16
 338 0022 0E68     		ldr	r6, [r1]
 339 0024 7570     		strb	r5, [r6, #1]
 178:Source\mbedtls_open\library/ssl_cookie.c ****     (*p)[2] = (unsigned char)( t >>  8 );
 340              		.loc 1 178 0
 341 0026 250A     		lsrs	r5, r4, #8
 342 0028 0E68     		ldr	r6, [r1]
 343 002a B570     		strb	r5, [r6, #2]
 179:Source\mbedtls_open\library/ssl_cookie.c ****     (*p)[3] = (unsigned char)( t       );
 344              		.loc 1 179 0
 345 002c 0D68     		ldr	r5, [r1]
 346 002e EC70     		strb	r4, [r5, #3]
 180:Source\mbedtls_open\library/ssl_cookie.c ****     *p += 4;
 347              		.loc 1 180 0
 348 0030 0C68     		ldr	r4, [r1]
 349              	.LVL42:
 350 0032 251D     		adds	r5, r4, #4
 351 0034 0D60     		str	r5, [r1]
 181:Source\mbedtls_open\library/ssl_cookie.c **** 
 182:Source\mbedtls_open\library/ssl_cookie.c **** #if defined(MBEDTLS_THREADING_C)
 183:Source\mbedtls_open\library/ssl_cookie.c ****     if( ( ret = mbedtls_mutex_lock( &ctx->mutex ) ) != 0 )
 184:Source\mbedtls_open\library/ssl_cookie.c ****         return( MBEDTLS_ERR_SSL_INTERNAL_ERROR + ret );
 185:Source\mbedtls_open\library/ssl_cookie.c **** #endif
 186:Source\mbedtls_open\library/ssl_cookie.c **** 
 187:Source\mbedtls_open\library/ssl_cookie.c ****     ret = ssl_cookie_hmac( &ctx->hmac_ctx, *p - 4,
 352              		.loc 1 187 0
 353 0036 069D     		ldr	r5, [sp, #24]
 354 0038 0195     		str	r5, [sp, #4]
 355 003a 0093     		str	r3, [sp]
 356 003c 1300     		movs	r3, r2
 357              	.LVL43:
ARM GAS  C:\Users\Phuong\AppData\Local\Temp\ccbbphLa.s 			page 11


 358 003e 0A00     		movs	r2, r1
 359              	.LVL44:
 360 0040 2100     		movs	r1, r4
 361              	.LVL45:
 362 0042 FFF7FEFF 		bl	ssl_cookie_hmac
 363              	.LVL46:
 188:Source\mbedtls_open\library/ssl_cookie.c ****                            p, end, cli_id, cli_id_len );
 189:Source\mbedtls_open\library/ssl_cookie.c **** 
 190:Source\mbedtls_open\library/ssl_cookie.c **** #if defined(MBEDTLS_THREADING_C)
 191:Source\mbedtls_open\library/ssl_cookie.c ****     if( mbedtls_mutex_unlock( &ctx->mutex ) != 0 )
 192:Source\mbedtls_open\library/ssl_cookie.c ****         return( MBEDTLS_ERR_SSL_INTERNAL_ERROR +
 193:Source\mbedtls_open\library/ssl_cookie.c ****                 MBEDTLS_ERR_THREADING_MUTEX_ERROR );
 194:Source\mbedtls_open\library/ssl_cookie.c **** #endif
 195:Source\mbedtls_open\library/ssl_cookie.c **** 
 196:Source\mbedtls_open\library/ssl_cookie.c ****     return( ret );
 364              		.loc 1 196 0
 365 0046 04E0     		b	.L19
 366              	.LVL47:
 367              	.L20:
 165:Source\mbedtls_open\library/ssl_cookie.c **** 
 368              		.loc 1 165 0
 369 0048 0348     		ldr	r0, .L23
 370              	.LVL48:
 371 004a 02E0     		b	.L19
 372              	.LVL49:
 373              	.L21:
 374 004c 0248     		ldr	r0, .L23
 375              	.LVL50:
 376 004e 00E0     		b	.L19
 377              	.LVL51:
 378              	.L22:
 168:Source\mbedtls_open\library/ssl_cookie.c **** 
 379              		.loc 1 168 0
 380 0050 0248     		ldr	r0, .L23+4
 381              	.LVL52:
 382              	.L19:
 197:Source\mbedtls_open\library/ssl_cookie.c **** }
 383              		.loc 1 197 0
 384 0052 02B0     		add	sp, sp, #8
 385              		@ sp needed
 386 0054 70BD     		pop	{r4, r5, r6, pc}
 387              	.L24:
 388 0056 C046     		.align	2
 389              	.L23:
 390 0058 008FFFFF 		.word	-28928
 391 005c 0096FFFF 		.word	-27136
 392              		.cfi_endproc
 393              	.LFE29:
 394              		.size	mbedtls_ssl_cookie_write, .-mbedtls_ssl_cookie_write
 395              		.section	.text.mbedtls_ssl_cookie_check,"ax",%progbits
 396              		.align	2
 397              		.global	mbedtls_ssl_cookie_check
 398              		.code	16
 399              		.thumb_func
 400              		.type	mbedtls_ssl_cookie_check, %function
 401              	mbedtls_ssl_cookie_check:
 402              	.LFB30:
ARM GAS  C:\Users\Phuong\AppData\Local\Temp\ccbbphLa.s 			page 12


 198:Source\mbedtls_open\library/ssl_cookie.c **** 
 199:Source\mbedtls_open\library/ssl_cookie.c **** /*
 200:Source\mbedtls_open\library/ssl_cookie.c ****  * Check a cookie
 201:Source\mbedtls_open\library/ssl_cookie.c ****  */
 202:Source\mbedtls_open\library/ssl_cookie.c **** int mbedtls_ssl_cookie_check( void *p_ctx,
 203:Source\mbedtls_open\library/ssl_cookie.c ****                       const unsigned char *cookie, size_t cookie_len,
 204:Source\mbedtls_open\library/ssl_cookie.c ****                       const unsigned char *cli_id, size_t cli_id_len )
 205:Source\mbedtls_open\library/ssl_cookie.c **** {
 403              		.loc 1 205 0
 404              		.cfi_startproc
 405              		@ args = 4, pretend = 0, frame = 40
 406              		@ frame_needed = 0, uses_anonymous_args = 0
 407              	.LVL53:
 408 0000 70B5     		push	{r4, r5, r6, lr}
 409              		.cfi_def_cfa_offset 16
 410              		.cfi_offset 4, -16
 411              		.cfi_offset 5, -12
 412              		.cfi_offset 6, -8
 413              		.cfi_offset 14, -4
 414 0002 8CB0     		sub	sp, sp, #48
 415              		.cfi_def_cfa_offset 64
 416 0004 0500     		movs	r5, r0
 417 0006 0C00     		movs	r4, r1
 418              	.LVL54:
 206:Source\mbedtls_open\library/ssl_cookie.c ****     unsigned char ref_hmac[COOKIE_HMAC_LEN];
 207:Source\mbedtls_open\library/ssl_cookie.c ****     int ret = 0;
 208:Source\mbedtls_open\library/ssl_cookie.c ****     unsigned char *p = ref_hmac;
 419              		.loc 1 208 0
 420 0008 05A9     		add	r1, sp, #20
 421              	.LVL55:
 422 000a 0491     		str	r1, [sp, #16]
 423              	.LVL56:
 209:Source\mbedtls_open\library/ssl_cookie.c ****     mbedtls_ssl_cookie_ctx *ctx = (mbedtls_ssl_cookie_ctx *) p_ctx;
 210:Source\mbedtls_open\library/ssl_cookie.c ****     unsigned long cur_time, cookie_time;
 211:Source\mbedtls_open\library/ssl_cookie.c **** 
 212:Source\mbedtls_open\library/ssl_cookie.c ****     if( ctx == NULL || cli_id == NULL )
 424              		.loc 1 212 0
 425 000c 0028     		cmp	r0, #0
 426 000e 3ED0     		beq	.L30
 427              		.loc 1 212 0 is_stmt 0 discriminator 1
 428 0010 002B     		cmp	r3, #0
 429 0012 3ED0     		beq	.L31
 213:Source\mbedtls_open\library/ssl_cookie.c ****         return( MBEDTLS_ERR_SSL_BAD_INPUT_DATA );
 214:Source\mbedtls_open\library/ssl_cookie.c **** 
 215:Source\mbedtls_open\library/ssl_cookie.c ****     if( cookie_len != COOKIE_LEN )
 430              		.loc 1 215 0 is_stmt 1
 431 0014 202A     		cmp	r2, #32
 432 0016 3ED1     		bne	.L32
 216:Source\mbedtls_open\library/ssl_cookie.c ****         return( -1 );
 217:Source\mbedtls_open\library/ssl_cookie.c **** 
 218:Source\mbedtls_open\library/ssl_cookie.c **** #if defined(MBEDTLS_THREADING_C)
 219:Source\mbedtls_open\library/ssl_cookie.c ****     if( ( ret = mbedtls_mutex_lock( &ctx->mutex ) ) != 0 )
 220:Source\mbedtls_open\library/ssl_cookie.c ****         return( MBEDTLS_ERR_SSL_INTERNAL_ERROR + ret );
 221:Source\mbedtls_open\library/ssl_cookie.c **** #endif
 222:Source\mbedtls_open\library/ssl_cookie.c **** 
 223:Source\mbedtls_open\library/ssl_cookie.c ****     if( ssl_cookie_hmac( &ctx->hmac_ctx, cookie,
 433              		.loc 1 223 0
ARM GAS  C:\Users\Phuong\AppData\Local\Temp\ccbbphLa.s 			page 13


 434 0018 109A     		ldr	r2, [sp, #64]
 435              	.LVL57:
 436 001a 0192     		str	r2, [sp, #4]
 437 001c 0093     		str	r3, [sp]
 438 001e 0CAB     		add	r3, sp, #48
 439              	.LVL58:
 440 0020 04AA     		add	r2, sp, #16
 441 0022 2100     		movs	r1, r4
 442 0024 FFF7FEFF 		bl	ssl_cookie_hmac
 443              	.LVL59:
 444 0028 0028     		cmp	r0, #0
 445 002a 01D0     		beq	.L27
 224:Source\mbedtls_open\library/ssl_cookie.c ****                          &p, p + sizeof( ref_hmac ),
 225:Source\mbedtls_open\library/ssl_cookie.c ****                          cli_id, cli_id_len ) != 0 )
 226:Source\mbedtls_open\library/ssl_cookie.c ****         ret = -1;
 446              		.loc 1 226 0
 447 002c 0120     		movs	r0, #1
 448 002e 4042     		rsbs	r0, r0, #0
 449              	.L27:
 450              	.LVL60:
 227:Source\mbedtls_open\library/ssl_cookie.c **** 
 228:Source\mbedtls_open\library/ssl_cookie.c **** #if defined(MBEDTLS_THREADING_C)
 229:Source\mbedtls_open\library/ssl_cookie.c ****     if( mbedtls_mutex_unlock( &ctx->mutex ) != 0 )
 230:Source\mbedtls_open\library/ssl_cookie.c ****         return( MBEDTLS_ERR_SSL_INTERNAL_ERROR +
 231:Source\mbedtls_open\library/ssl_cookie.c ****                 MBEDTLS_ERR_THREADING_MUTEX_ERROR );
 232:Source\mbedtls_open\library/ssl_cookie.c **** #endif
 233:Source\mbedtls_open\library/ssl_cookie.c **** 
 234:Source\mbedtls_open\library/ssl_cookie.c ****     if( ret != 0 )
 451              		.loc 1 234 0
 452 0030 0028     		cmp	r0, #0
 453 0032 38D1     		bne	.L26
 454              	.LVL61:
 455              	.LBB5:
 456              	.LBB6:
 457              		.file 2 ".\\Source\\mbedtls_open\\include/mbedtls/ssl_internal.h"
   1:.\Source\mbedtls_open\include/mbedtls/ssl_internal.h **** /**
   2:.\Source\mbedtls_open\include/mbedtls/ssl_internal.h ****  * \file ssl_internal.h
   3:.\Source\mbedtls_open\include/mbedtls/ssl_internal.h ****  *
   4:.\Source\mbedtls_open\include/mbedtls/ssl_internal.h ****  * \brief Internal functions shared by the SSL modules
   5:.\Source\mbedtls_open\include/mbedtls/ssl_internal.h ****  */
   6:.\Source\mbedtls_open\include/mbedtls/ssl_internal.h **** /*
   7:.\Source\mbedtls_open\include/mbedtls/ssl_internal.h ****  *  Copyright (C) 2006-2015, ARM Limited, All Rights Reserved
   8:.\Source\mbedtls_open\include/mbedtls/ssl_internal.h ****  *  SPDX-License-Identifier: Apache-2.0
   9:.\Source\mbedtls_open\include/mbedtls/ssl_internal.h ****  *
  10:.\Source\mbedtls_open\include/mbedtls/ssl_internal.h ****  *  Licensed under the Apache License, Version 2.0 (the "License"); you may
  11:.\Source\mbedtls_open\include/mbedtls/ssl_internal.h ****  *  not use this file except in compliance with the License.
  12:.\Source\mbedtls_open\include/mbedtls/ssl_internal.h ****  *  You may obtain a copy of the License at
  13:.\Source\mbedtls_open\include/mbedtls/ssl_internal.h ****  *
  14:.\Source\mbedtls_open\include/mbedtls/ssl_internal.h ****  *  http://www.apache.org/licenses/LICENSE-2.0
  15:.\Source\mbedtls_open\include/mbedtls/ssl_internal.h ****  *
  16:.\Source\mbedtls_open\include/mbedtls/ssl_internal.h ****  *  Unless required by applicable law or agreed to in writing, software
  17:.\Source\mbedtls_open\include/mbedtls/ssl_internal.h ****  *  distributed under the License is distributed on an "AS IS" BASIS, WITHOUT
  18:.\Source\mbedtls_open\include/mbedtls/ssl_internal.h ****  *  WARRANTIES OR CONDITIONS OF ANY KIND, either express or implied.
  19:.\Source\mbedtls_open\include/mbedtls/ssl_internal.h ****  *  See the License for the specific language governing permissions and
  20:.\Source\mbedtls_open\include/mbedtls/ssl_internal.h ****  *  limitations under the License.
  21:.\Source\mbedtls_open\include/mbedtls/ssl_internal.h ****  *
  22:.\Source\mbedtls_open\include/mbedtls/ssl_internal.h ****  *  This file is part of mbed TLS (https://tls.mbed.org)
ARM GAS  C:\Users\Phuong\AppData\Local\Temp\ccbbphLa.s 			page 14


  23:.\Source\mbedtls_open\include/mbedtls/ssl_internal.h ****  */
  24:.\Source\mbedtls_open\include/mbedtls/ssl_internal.h **** #ifndef MBEDTLS_SSL_INTERNAL_H
  25:.\Source\mbedtls_open\include/mbedtls/ssl_internal.h **** #define MBEDTLS_SSL_INTERNAL_H
  26:.\Source\mbedtls_open\include/mbedtls/ssl_internal.h **** 
  27:.\Source\mbedtls_open\include/mbedtls/ssl_internal.h **** #include "ssl.h"
  28:.\Source\mbedtls_open\include/mbedtls/ssl_internal.h **** #include "cipher.h"
  29:.\Source\mbedtls_open\include/mbedtls/ssl_internal.h **** 
  30:.\Source\mbedtls_open\include/mbedtls/ssl_internal.h **** #if defined(MBEDTLS_MD5_C)
  31:.\Source\mbedtls_open\include/mbedtls/ssl_internal.h **** #include "md5.h"
  32:.\Source\mbedtls_open\include/mbedtls/ssl_internal.h **** #endif
  33:.\Source\mbedtls_open\include/mbedtls/ssl_internal.h **** 
  34:.\Source\mbedtls_open\include/mbedtls/ssl_internal.h **** #if defined(MBEDTLS_SHA1_C)
  35:.\Source\mbedtls_open\include/mbedtls/ssl_internal.h **** #include "sha1.h"
  36:.\Source\mbedtls_open\include/mbedtls/ssl_internal.h **** #endif
  37:.\Source\mbedtls_open\include/mbedtls/ssl_internal.h **** 
  38:.\Source\mbedtls_open\include/mbedtls/ssl_internal.h **** #if defined(MBEDTLS_SHA256_C)
  39:.\Source\mbedtls_open\include/mbedtls/ssl_internal.h **** #include "sha256.h"
  40:.\Source\mbedtls_open\include/mbedtls/ssl_internal.h **** #endif
  41:.\Source\mbedtls_open\include/mbedtls/ssl_internal.h **** 
  42:.\Source\mbedtls_open\include/mbedtls/ssl_internal.h **** #if defined(MBEDTLS_SHA512_C)
  43:.\Source\mbedtls_open\include/mbedtls/ssl_internal.h **** #include "sha512.h"
  44:.\Source\mbedtls_open\include/mbedtls/ssl_internal.h **** #endif
  45:.\Source\mbedtls_open\include/mbedtls/ssl_internal.h **** 
  46:.\Source\mbedtls_open\include/mbedtls/ssl_internal.h **** #if defined(MBEDTLS_KEY_EXCHANGE_ECJPAKE_ENABLED)
  47:.\Source\mbedtls_open\include/mbedtls/ssl_internal.h **** #include "ecjpake.h"
  48:.\Source\mbedtls_open\include/mbedtls/ssl_internal.h **** #endif
  49:.\Source\mbedtls_open\include/mbedtls/ssl_internal.h **** 
  50:.\Source\mbedtls_open\include/mbedtls/ssl_internal.h **** #if ( defined(__ARMCC_VERSION) || defined(_MSC_VER) ) && \
  51:.\Source\mbedtls_open\include/mbedtls/ssl_internal.h ****     !defined(inline) && !defined(__cplusplus)
  52:.\Source\mbedtls_open\include/mbedtls/ssl_internal.h **** #define inline __inline
  53:.\Source\mbedtls_open\include/mbedtls/ssl_internal.h **** #endif
  54:.\Source\mbedtls_open\include/mbedtls/ssl_internal.h **** 
  55:.\Source\mbedtls_open\include/mbedtls/ssl_internal.h **** /* Determine minimum supported version */
  56:.\Source\mbedtls_open\include/mbedtls/ssl_internal.h **** #define MBEDTLS_SSL_MIN_MAJOR_VERSION           MBEDTLS_SSL_MAJOR_VERSION_3
  57:.\Source\mbedtls_open\include/mbedtls/ssl_internal.h **** 
  58:.\Source\mbedtls_open\include/mbedtls/ssl_internal.h **** #if defined(MBEDTLS_SSL_PROTO_SSL3)
  59:.\Source\mbedtls_open\include/mbedtls/ssl_internal.h **** #define MBEDTLS_SSL_MIN_MINOR_VERSION           MBEDTLS_SSL_MINOR_VERSION_0
  60:.\Source\mbedtls_open\include/mbedtls/ssl_internal.h **** #else
  61:.\Source\mbedtls_open\include/mbedtls/ssl_internal.h **** #if defined(MBEDTLS_SSL_PROTO_TLS1)
  62:.\Source\mbedtls_open\include/mbedtls/ssl_internal.h **** #define MBEDTLS_SSL_MIN_MINOR_VERSION           MBEDTLS_SSL_MINOR_VERSION_1
  63:.\Source\mbedtls_open\include/mbedtls/ssl_internal.h **** #else
  64:.\Source\mbedtls_open\include/mbedtls/ssl_internal.h **** #if defined(MBEDTLS_SSL_PROTO_TLS1_1)
  65:.\Source\mbedtls_open\include/mbedtls/ssl_internal.h **** #define MBEDTLS_SSL_MIN_MINOR_VERSION           MBEDTLS_SSL_MINOR_VERSION_2
  66:.\Source\mbedtls_open\include/mbedtls/ssl_internal.h **** #else
  67:.\Source\mbedtls_open\include/mbedtls/ssl_internal.h **** #if defined(MBEDTLS_SSL_PROTO_TLS1_2)
  68:.\Source\mbedtls_open\include/mbedtls/ssl_internal.h **** #define MBEDTLS_SSL_MIN_MINOR_VERSION           MBEDTLS_SSL_MINOR_VERSION_3
  69:.\Source\mbedtls_open\include/mbedtls/ssl_internal.h **** #endif /* MBEDTLS_SSL_PROTO_TLS1_2 */
  70:.\Source\mbedtls_open\include/mbedtls/ssl_internal.h **** #endif /* MBEDTLS_SSL_PROTO_TLS1_1 */
  71:.\Source\mbedtls_open\include/mbedtls/ssl_internal.h **** #endif /* MBEDTLS_SSL_PROTO_TLS1   */
  72:.\Source\mbedtls_open\include/mbedtls/ssl_internal.h **** #endif /* MBEDTLS_SSL_PROTO_SSL3   */
  73:.\Source\mbedtls_open\include/mbedtls/ssl_internal.h **** 
  74:.\Source\mbedtls_open\include/mbedtls/ssl_internal.h **** #define MBEDTLS_SSL_MIN_VALID_MINOR_VERSION MBEDTLS_SSL_MINOR_VERSION_1
  75:.\Source\mbedtls_open\include/mbedtls/ssl_internal.h **** #define MBEDTLS_SSL_MIN_VALID_MAJOR_VERSION MBEDTLS_SSL_MAJOR_VERSION_3
  76:.\Source\mbedtls_open\include/mbedtls/ssl_internal.h **** 
  77:.\Source\mbedtls_open\include/mbedtls/ssl_internal.h **** /* Determine maximum supported version */
  78:.\Source\mbedtls_open\include/mbedtls/ssl_internal.h **** #define MBEDTLS_SSL_MAX_MAJOR_VERSION           MBEDTLS_SSL_MAJOR_VERSION_3
  79:.\Source\mbedtls_open\include/mbedtls/ssl_internal.h **** 
ARM GAS  C:\Users\Phuong\AppData\Local\Temp\ccbbphLa.s 			page 15


  80:.\Source\mbedtls_open\include/mbedtls/ssl_internal.h **** #if defined(MBEDTLS_SSL_PROTO_TLS1_2)
  81:.\Source\mbedtls_open\include/mbedtls/ssl_internal.h **** #define MBEDTLS_SSL_MAX_MINOR_VERSION           MBEDTLS_SSL_MINOR_VERSION_3
  82:.\Source\mbedtls_open\include/mbedtls/ssl_internal.h **** #else
  83:.\Source\mbedtls_open\include/mbedtls/ssl_internal.h **** #if defined(MBEDTLS_SSL_PROTO_TLS1_1)
  84:.\Source\mbedtls_open\include/mbedtls/ssl_internal.h **** #define MBEDTLS_SSL_MAX_MINOR_VERSION           MBEDTLS_SSL_MINOR_VERSION_2
  85:.\Source\mbedtls_open\include/mbedtls/ssl_internal.h **** #else
  86:.\Source\mbedtls_open\include/mbedtls/ssl_internal.h **** #if defined(MBEDTLS_SSL_PROTO_TLS1)
  87:.\Source\mbedtls_open\include/mbedtls/ssl_internal.h **** #define MBEDTLS_SSL_MAX_MINOR_VERSION           MBEDTLS_SSL_MINOR_VERSION_1
  88:.\Source\mbedtls_open\include/mbedtls/ssl_internal.h **** #else
  89:.\Source\mbedtls_open\include/mbedtls/ssl_internal.h **** #if defined(MBEDTLS_SSL_PROTO_SSL3)
  90:.\Source\mbedtls_open\include/mbedtls/ssl_internal.h **** #define MBEDTLS_SSL_MAX_MINOR_VERSION           MBEDTLS_SSL_MINOR_VERSION_0
  91:.\Source\mbedtls_open\include/mbedtls/ssl_internal.h **** #endif /* MBEDTLS_SSL_PROTO_SSL3   */
  92:.\Source\mbedtls_open\include/mbedtls/ssl_internal.h **** #endif /* MBEDTLS_SSL_PROTO_TLS1   */
  93:.\Source\mbedtls_open\include/mbedtls/ssl_internal.h **** #endif /* MBEDTLS_SSL_PROTO_TLS1_1 */
  94:.\Source\mbedtls_open\include/mbedtls/ssl_internal.h **** #endif /* MBEDTLS_SSL_PROTO_TLS1_2 */
  95:.\Source\mbedtls_open\include/mbedtls/ssl_internal.h **** 
  96:.\Source\mbedtls_open\include/mbedtls/ssl_internal.h **** /* Shorthand for restartable ECC */
  97:.\Source\mbedtls_open\include/mbedtls/ssl_internal.h **** #if defined(MBEDTLS_ECP_RESTARTABLE) && \
  98:.\Source\mbedtls_open\include/mbedtls/ssl_internal.h ****     defined(MBEDTLS_SSL_CLI_C) && \
  99:.\Source\mbedtls_open\include/mbedtls/ssl_internal.h ****     defined(MBEDTLS_SSL_PROTO_TLS1_2) && \
 100:.\Source\mbedtls_open\include/mbedtls/ssl_internal.h ****     defined(MBEDTLS_KEY_EXCHANGE_ECDHE_ECDSA_ENABLED)
 101:.\Source\mbedtls_open\include/mbedtls/ssl_internal.h **** #define MBEDTLS_SSL__ECP_RESTARTABLE
 102:.\Source\mbedtls_open\include/mbedtls/ssl_internal.h **** #endif
 103:.\Source\mbedtls_open\include/mbedtls/ssl_internal.h **** 
 104:.\Source\mbedtls_open\include/mbedtls/ssl_internal.h **** #define MBEDTLS_SSL_INITIAL_HANDSHAKE           0
 105:.\Source\mbedtls_open\include/mbedtls/ssl_internal.h **** #define MBEDTLS_SSL_RENEGOTIATION_IN_PROGRESS   1   /* In progress */
 106:.\Source\mbedtls_open\include/mbedtls/ssl_internal.h **** #define MBEDTLS_SSL_RENEGOTIATION_DONE          2   /* Done or aborted */
 107:.\Source\mbedtls_open\include/mbedtls/ssl_internal.h **** #define MBEDTLS_SSL_RENEGOTIATION_PENDING       3   /* Requested (server only) */
 108:.\Source\mbedtls_open\include/mbedtls/ssl_internal.h **** 
 109:.\Source\mbedtls_open\include/mbedtls/ssl_internal.h **** /*
 110:.\Source\mbedtls_open\include/mbedtls/ssl_internal.h ****  * DTLS retransmission states, see RFC 6347 4.2.4
 111:.\Source\mbedtls_open\include/mbedtls/ssl_internal.h ****  *
 112:.\Source\mbedtls_open\include/mbedtls/ssl_internal.h ****  * The SENDING state is merged in PREPARING for initial sends,
 113:.\Source\mbedtls_open\include/mbedtls/ssl_internal.h ****  * but is distinct for resends.
 114:.\Source\mbedtls_open\include/mbedtls/ssl_internal.h ****  *
 115:.\Source\mbedtls_open\include/mbedtls/ssl_internal.h ****  * Note: initial state is wrong for server, but is not used anyway.
 116:.\Source\mbedtls_open\include/mbedtls/ssl_internal.h ****  */
 117:.\Source\mbedtls_open\include/mbedtls/ssl_internal.h **** #define MBEDTLS_SSL_RETRANS_PREPARING       0
 118:.\Source\mbedtls_open\include/mbedtls/ssl_internal.h **** #define MBEDTLS_SSL_RETRANS_SENDING         1
 119:.\Source\mbedtls_open\include/mbedtls/ssl_internal.h **** #define MBEDTLS_SSL_RETRANS_WAITING         2
 120:.\Source\mbedtls_open\include/mbedtls/ssl_internal.h **** #define MBEDTLS_SSL_RETRANS_FINISHED        3
 121:.\Source\mbedtls_open\include/mbedtls/ssl_internal.h **** 
 122:.\Source\mbedtls_open\include/mbedtls/ssl_internal.h **** /*
 123:.\Source\mbedtls_open\include/mbedtls/ssl_internal.h ****  * Allow extra bytes for record, authentication and encryption overhead:
 124:.\Source\mbedtls_open\include/mbedtls/ssl_internal.h ****  * counter (8) + header (5) + IV(16) + MAC (16-48) + padding (0-256)
 125:.\Source\mbedtls_open\include/mbedtls/ssl_internal.h ****  * and allow for a maximum of 1024 of compression expansion if
 126:.\Source\mbedtls_open\include/mbedtls/ssl_internal.h ****  * enabled.
 127:.\Source\mbedtls_open\include/mbedtls/ssl_internal.h ****  */
 128:.\Source\mbedtls_open\include/mbedtls/ssl_internal.h **** #if defined(MBEDTLS_ZLIB_SUPPORT)
 129:.\Source\mbedtls_open\include/mbedtls/ssl_internal.h **** #define MBEDTLS_SSL_COMPRESSION_ADD          1024
 130:.\Source\mbedtls_open\include/mbedtls/ssl_internal.h **** #else
 131:.\Source\mbedtls_open\include/mbedtls/ssl_internal.h **** #define MBEDTLS_SSL_COMPRESSION_ADD             0
 132:.\Source\mbedtls_open\include/mbedtls/ssl_internal.h **** #endif
 133:.\Source\mbedtls_open\include/mbedtls/ssl_internal.h **** 
 134:.\Source\mbedtls_open\include/mbedtls/ssl_internal.h **** #if defined(MBEDTLS_ARC4_C) || defined(MBEDTLS_CIPHER_MODE_CBC)
 135:.\Source\mbedtls_open\include/mbedtls/ssl_internal.h **** /* Ciphersuites using HMAC */
 136:.\Source\mbedtls_open\include/mbedtls/ssl_internal.h **** #if defined(MBEDTLS_SHA512_C)
ARM GAS  C:\Users\Phuong\AppData\Local\Temp\ccbbphLa.s 			page 16


 137:.\Source\mbedtls_open\include/mbedtls/ssl_internal.h **** #define MBEDTLS_SSL_MAC_ADD                 48  /* SHA-384 used for HMAC */
 138:.\Source\mbedtls_open\include/mbedtls/ssl_internal.h **** #elif defined(MBEDTLS_SHA256_C)
 139:.\Source\mbedtls_open\include/mbedtls/ssl_internal.h **** #define MBEDTLS_SSL_MAC_ADD                 32  /* SHA-256 used for HMAC */
 140:.\Source\mbedtls_open\include/mbedtls/ssl_internal.h **** #else
 141:.\Source\mbedtls_open\include/mbedtls/ssl_internal.h **** #define MBEDTLS_SSL_MAC_ADD                 20  /* SHA-1   used for HMAC */
 142:.\Source\mbedtls_open\include/mbedtls/ssl_internal.h **** #endif
 143:.\Source\mbedtls_open\include/mbedtls/ssl_internal.h **** #else
 144:.\Source\mbedtls_open\include/mbedtls/ssl_internal.h **** /* AEAD ciphersuites: GCM and CCM use a 128 bits tag */
 145:.\Source\mbedtls_open\include/mbedtls/ssl_internal.h **** #define MBEDTLS_SSL_MAC_ADD                 16
 146:.\Source\mbedtls_open\include/mbedtls/ssl_internal.h **** #endif
 147:.\Source\mbedtls_open\include/mbedtls/ssl_internal.h **** 
 148:.\Source\mbedtls_open\include/mbedtls/ssl_internal.h **** #if defined(MBEDTLS_CIPHER_MODE_CBC)
 149:.\Source\mbedtls_open\include/mbedtls/ssl_internal.h **** #define MBEDTLS_SSL_PADDING_ADD            256
 150:.\Source\mbedtls_open\include/mbedtls/ssl_internal.h **** #else
 151:.\Source\mbedtls_open\include/mbedtls/ssl_internal.h **** #define MBEDTLS_SSL_PADDING_ADD              0
 152:.\Source\mbedtls_open\include/mbedtls/ssl_internal.h **** #endif
 153:.\Source\mbedtls_open\include/mbedtls/ssl_internal.h **** 
 154:.\Source\mbedtls_open\include/mbedtls/ssl_internal.h **** #define MBEDTLS_SSL_PAYLOAD_OVERHEAD ( MBEDTLS_SSL_COMPRESSION_ADD +    \
 155:.\Source\mbedtls_open\include/mbedtls/ssl_internal.h ****                                        MBEDTLS_MAX_IV_LENGTH +          \
 156:.\Source\mbedtls_open\include/mbedtls/ssl_internal.h ****                                        MBEDTLS_SSL_MAC_ADD +            \
 157:.\Source\mbedtls_open\include/mbedtls/ssl_internal.h ****                                        MBEDTLS_SSL_PADDING_ADD          \
 158:.\Source\mbedtls_open\include/mbedtls/ssl_internal.h ****                                        )
 159:.\Source\mbedtls_open\include/mbedtls/ssl_internal.h **** 
 160:.\Source\mbedtls_open\include/mbedtls/ssl_internal.h **** #define MBEDTLS_SSL_IN_PAYLOAD_LEN ( MBEDTLS_SSL_PAYLOAD_OVERHEAD + \
 161:.\Source\mbedtls_open\include/mbedtls/ssl_internal.h ****                                      ( MBEDTLS_SSL_IN_CONTENT_LEN ) )
 162:.\Source\mbedtls_open\include/mbedtls/ssl_internal.h **** 
 163:.\Source\mbedtls_open\include/mbedtls/ssl_internal.h **** #define MBEDTLS_SSL_OUT_PAYLOAD_LEN ( MBEDTLS_SSL_PAYLOAD_OVERHEAD + \
 164:.\Source\mbedtls_open\include/mbedtls/ssl_internal.h ****                                       ( MBEDTLS_SSL_OUT_CONTENT_LEN ) )
 165:.\Source\mbedtls_open\include/mbedtls/ssl_internal.h **** 
 166:.\Source\mbedtls_open\include/mbedtls/ssl_internal.h **** /* The maximum number of buffered handshake messages. */
 167:.\Source\mbedtls_open\include/mbedtls/ssl_internal.h **** #define MBEDTLS_SSL_MAX_BUFFERED_HS 4
 168:.\Source\mbedtls_open\include/mbedtls/ssl_internal.h **** 
 169:.\Source\mbedtls_open\include/mbedtls/ssl_internal.h **** /* Maximum length we can advertise as our max content length for
 170:.\Source\mbedtls_open\include/mbedtls/ssl_internal.h ****    RFC 6066 max_fragment_length extension negotiation purposes
 171:.\Source\mbedtls_open\include/mbedtls/ssl_internal.h ****    (the lesser of both sizes, if they are unequal.)
 172:.\Source\mbedtls_open\include/mbedtls/ssl_internal.h ****  */
 173:.\Source\mbedtls_open\include/mbedtls/ssl_internal.h **** #define MBEDTLS_TLS_EXT_ADV_CONTENT_LEN (                            \
 174:.\Source\mbedtls_open\include/mbedtls/ssl_internal.h ****         (MBEDTLS_SSL_IN_CONTENT_LEN > MBEDTLS_SSL_OUT_CONTENT_LEN)   \
 175:.\Source\mbedtls_open\include/mbedtls/ssl_internal.h ****         ? ( MBEDTLS_SSL_OUT_CONTENT_LEN )                            \
 176:.\Source\mbedtls_open\include/mbedtls/ssl_internal.h ****         : ( MBEDTLS_SSL_IN_CONTENT_LEN )                             \
 177:.\Source\mbedtls_open\include/mbedtls/ssl_internal.h ****         )
 178:.\Source\mbedtls_open\include/mbedtls/ssl_internal.h **** 
 179:.\Source\mbedtls_open\include/mbedtls/ssl_internal.h **** /*
 180:.\Source\mbedtls_open\include/mbedtls/ssl_internal.h ****  * Check that we obey the standard's message size bounds
 181:.\Source\mbedtls_open\include/mbedtls/ssl_internal.h ****  */
 182:.\Source\mbedtls_open\include/mbedtls/ssl_internal.h **** 
 183:.\Source\mbedtls_open\include/mbedtls/ssl_internal.h **** #if MBEDTLS_SSL_MAX_CONTENT_LEN > 16384
 184:.\Source\mbedtls_open\include/mbedtls/ssl_internal.h **** #error "Bad configuration - record content too large."
 185:.\Source\mbedtls_open\include/mbedtls/ssl_internal.h **** #endif
 186:.\Source\mbedtls_open\include/mbedtls/ssl_internal.h **** 
 187:.\Source\mbedtls_open\include/mbedtls/ssl_internal.h **** #if MBEDTLS_SSL_IN_CONTENT_LEN > MBEDTLS_SSL_MAX_CONTENT_LEN
 188:.\Source\mbedtls_open\include/mbedtls/ssl_internal.h **** #error "Bad configuration - incoming record content should not be larger than MBEDTLS_SSL_MAX_CONTE
 189:.\Source\mbedtls_open\include/mbedtls/ssl_internal.h **** #endif
 190:.\Source\mbedtls_open\include/mbedtls/ssl_internal.h **** 
 191:.\Source\mbedtls_open\include/mbedtls/ssl_internal.h **** #if MBEDTLS_SSL_OUT_CONTENT_LEN > MBEDTLS_SSL_MAX_CONTENT_LEN
 192:.\Source\mbedtls_open\include/mbedtls/ssl_internal.h **** #error "Bad configuration - outgoing record content should not be larger than MBEDTLS_SSL_MAX_CONTE
 193:.\Source\mbedtls_open\include/mbedtls/ssl_internal.h **** #endif
ARM GAS  C:\Users\Phuong\AppData\Local\Temp\ccbbphLa.s 			page 17


 194:.\Source\mbedtls_open\include/mbedtls/ssl_internal.h **** 
 195:.\Source\mbedtls_open\include/mbedtls/ssl_internal.h **** #if MBEDTLS_SSL_IN_PAYLOAD_LEN > MBEDTLS_SSL_MAX_CONTENT_LEN + 2048
 196:.\Source\mbedtls_open\include/mbedtls/ssl_internal.h **** #error "Bad configuration - incoming protected record payload too large."
 197:.\Source\mbedtls_open\include/mbedtls/ssl_internal.h **** #endif
 198:.\Source\mbedtls_open\include/mbedtls/ssl_internal.h **** 
 199:.\Source\mbedtls_open\include/mbedtls/ssl_internal.h **** #if MBEDTLS_SSL_OUT_PAYLOAD_LEN > MBEDTLS_SSL_MAX_CONTENT_LEN + 2048
 200:.\Source\mbedtls_open\include/mbedtls/ssl_internal.h **** #error "Bad configuration - outgoing protected record payload too large."
 201:.\Source\mbedtls_open\include/mbedtls/ssl_internal.h **** #endif
 202:.\Source\mbedtls_open\include/mbedtls/ssl_internal.h **** 
 203:.\Source\mbedtls_open\include/mbedtls/ssl_internal.h **** /* Calculate buffer sizes */
 204:.\Source\mbedtls_open\include/mbedtls/ssl_internal.h **** 
 205:.\Source\mbedtls_open\include/mbedtls/ssl_internal.h **** /* Note: Even though the TLS record header is only 5 bytes
 206:.\Source\mbedtls_open\include/mbedtls/ssl_internal.h ****    long, we're internally using 8 bytes to store the
 207:.\Source\mbedtls_open\include/mbedtls/ssl_internal.h ****    implicit sequence number. */
 208:.\Source\mbedtls_open\include/mbedtls/ssl_internal.h **** #define MBEDTLS_SSL_HEADER_LEN 13
 209:.\Source\mbedtls_open\include/mbedtls/ssl_internal.h **** 
 210:.\Source\mbedtls_open\include/mbedtls/ssl_internal.h **** #define MBEDTLS_SSL_IN_BUFFER_LEN  \
 211:.\Source\mbedtls_open\include/mbedtls/ssl_internal.h ****     ( ( MBEDTLS_SSL_HEADER_LEN ) + ( MBEDTLS_SSL_IN_PAYLOAD_LEN ) )
 212:.\Source\mbedtls_open\include/mbedtls/ssl_internal.h **** 
 213:.\Source\mbedtls_open\include/mbedtls/ssl_internal.h **** #define MBEDTLS_SSL_OUT_BUFFER_LEN  \
 214:.\Source\mbedtls_open\include/mbedtls/ssl_internal.h ****     ( ( MBEDTLS_SSL_HEADER_LEN ) + ( MBEDTLS_SSL_OUT_PAYLOAD_LEN ) )
 215:.\Source\mbedtls_open\include/mbedtls/ssl_internal.h **** 
 216:.\Source\mbedtls_open\include/mbedtls/ssl_internal.h **** #ifdef MBEDTLS_ZLIB_SUPPORT
 217:.\Source\mbedtls_open\include/mbedtls/ssl_internal.h **** /* Compression buffer holds both IN and OUT buffers, so should be size of the larger */
 218:.\Source\mbedtls_open\include/mbedtls/ssl_internal.h **** #define MBEDTLS_SSL_COMPRESS_BUFFER_LEN (                               \
 219:.\Source\mbedtls_open\include/mbedtls/ssl_internal.h ****         ( MBEDTLS_SSL_IN_BUFFER_LEN > MBEDTLS_SSL_OUT_BUFFER_LEN )      \
 220:.\Source\mbedtls_open\include/mbedtls/ssl_internal.h ****         ? MBEDTLS_SSL_IN_BUFFER_LEN                                     \
 221:.\Source\mbedtls_open\include/mbedtls/ssl_internal.h ****         : MBEDTLS_SSL_OUT_BUFFER_LEN                                    \
 222:.\Source\mbedtls_open\include/mbedtls/ssl_internal.h ****         )
 223:.\Source\mbedtls_open\include/mbedtls/ssl_internal.h **** #endif
 224:.\Source\mbedtls_open\include/mbedtls/ssl_internal.h **** 
 225:.\Source\mbedtls_open\include/mbedtls/ssl_internal.h **** /*
 226:.\Source\mbedtls_open\include/mbedtls/ssl_internal.h ****  * TLS extension flags (for extensions with outgoing ServerHello content
 227:.\Source\mbedtls_open\include/mbedtls/ssl_internal.h ****  * that need it (e.g. for RENEGOTIATION_INFO the server already knows because
 228:.\Source\mbedtls_open\include/mbedtls/ssl_internal.h ****  * of state of the renegotiation flag, so no indicator is required)
 229:.\Source\mbedtls_open\include/mbedtls/ssl_internal.h ****  */
 230:.\Source\mbedtls_open\include/mbedtls/ssl_internal.h **** #define MBEDTLS_TLS_EXT_SUPPORTED_POINT_FORMATS_PRESENT (1 << 0)
 231:.\Source\mbedtls_open\include/mbedtls/ssl_internal.h **** #define MBEDTLS_TLS_EXT_ECJPAKE_KKPP_OK                 (1 << 1)
 232:.\Source\mbedtls_open\include/mbedtls/ssl_internal.h **** 
 233:.\Source\mbedtls_open\include/mbedtls/ssl_internal.h **** #ifdef __cplusplus
 234:.\Source\mbedtls_open\include/mbedtls/ssl_internal.h **** extern "C" {
 235:.\Source\mbedtls_open\include/mbedtls/ssl_internal.h **** #endif
 236:.\Source\mbedtls_open\include/mbedtls/ssl_internal.h **** 
 237:.\Source\mbedtls_open\include/mbedtls/ssl_internal.h **** #if defined(MBEDTLS_SSL_PROTO_TLS1_2) && \
 238:.\Source\mbedtls_open\include/mbedtls/ssl_internal.h ****     defined(MBEDTLS_KEY_EXCHANGE__WITH_CERT__ENABLED)
 239:.\Source\mbedtls_open\include/mbedtls/ssl_internal.h **** /*
 240:.\Source\mbedtls_open\include/mbedtls/ssl_internal.h ****  * Abstraction for a grid of allowed signature-hash-algorithm pairs.
 241:.\Source\mbedtls_open\include/mbedtls/ssl_internal.h ****  */
 242:.\Source\mbedtls_open\include/mbedtls/ssl_internal.h **** struct mbedtls_ssl_sig_hash_set_t
 243:.\Source\mbedtls_open\include/mbedtls/ssl_internal.h **** {
 244:.\Source\mbedtls_open\include/mbedtls/ssl_internal.h ****     /* At the moment, we only need to remember a single suitable
 245:.\Source\mbedtls_open\include/mbedtls/ssl_internal.h ****      * hash algorithm per signature algorithm. As long as that's
 246:.\Source\mbedtls_open\include/mbedtls/ssl_internal.h ****      * the case - and we don't need a general lookup function -
 247:.\Source\mbedtls_open\include/mbedtls/ssl_internal.h ****      * we can implement the sig-hash-set as a map from signatures
 248:.\Source\mbedtls_open\include/mbedtls/ssl_internal.h ****      * to hash algorithms. */
 249:.\Source\mbedtls_open\include/mbedtls/ssl_internal.h ****     mbedtls_md_type_t rsa;
 250:.\Source\mbedtls_open\include/mbedtls/ssl_internal.h ****     mbedtls_md_type_t ecdsa;
ARM GAS  C:\Users\Phuong\AppData\Local\Temp\ccbbphLa.s 			page 18


 251:.\Source\mbedtls_open\include/mbedtls/ssl_internal.h **** };
 252:.\Source\mbedtls_open\include/mbedtls/ssl_internal.h **** #endif /* MBEDTLS_SSL_PROTO_TLS1_2 &&
 253:.\Source\mbedtls_open\include/mbedtls/ssl_internal.h ****           MBEDTLS_KEY_EXCHANGE__WITH_CERT__ENABLED */
 254:.\Source\mbedtls_open\include/mbedtls/ssl_internal.h **** 
 255:.\Source\mbedtls_open\include/mbedtls/ssl_internal.h **** /*
 256:.\Source\mbedtls_open\include/mbedtls/ssl_internal.h ****  * This structure contains the parameters only needed during handshake.
 257:.\Source\mbedtls_open\include/mbedtls/ssl_internal.h ****  */
 258:.\Source\mbedtls_open\include/mbedtls/ssl_internal.h **** struct mbedtls_ssl_handshake_params
 259:.\Source\mbedtls_open\include/mbedtls/ssl_internal.h **** {
 260:.\Source\mbedtls_open\include/mbedtls/ssl_internal.h ****     /*
 261:.\Source\mbedtls_open\include/mbedtls/ssl_internal.h ****      * Handshake specific crypto variables
 262:.\Source\mbedtls_open\include/mbedtls/ssl_internal.h ****      */
 263:.\Source\mbedtls_open\include/mbedtls/ssl_internal.h **** 
 264:.\Source\mbedtls_open\include/mbedtls/ssl_internal.h **** #if defined(MBEDTLS_SSL_PROTO_TLS1_2) && \
 265:.\Source\mbedtls_open\include/mbedtls/ssl_internal.h ****     defined(MBEDTLS_KEY_EXCHANGE__WITH_CERT__ENABLED)
 266:.\Source\mbedtls_open\include/mbedtls/ssl_internal.h ****     mbedtls_ssl_sig_hash_set_t hash_algs;             /*!<  Set of suitable sig-hash pairs */
 267:.\Source\mbedtls_open\include/mbedtls/ssl_internal.h **** #endif
 268:.\Source\mbedtls_open\include/mbedtls/ssl_internal.h **** #if defined(MBEDTLS_DHM_C)
 269:.\Source\mbedtls_open\include/mbedtls/ssl_internal.h ****     mbedtls_dhm_context dhm_ctx;                /*!<  DHM key exchange        */
 270:.\Source\mbedtls_open\include/mbedtls/ssl_internal.h **** #endif
 271:.\Source\mbedtls_open\include/mbedtls/ssl_internal.h **** #if defined(MBEDTLS_ECDH_C)
 272:.\Source\mbedtls_open\include/mbedtls/ssl_internal.h ****     mbedtls_ecdh_context ecdh_ctx;              /*!<  ECDH key exchange       */
 273:.\Source\mbedtls_open\include/mbedtls/ssl_internal.h **** #endif
 274:.\Source\mbedtls_open\include/mbedtls/ssl_internal.h **** #if defined(MBEDTLS_KEY_EXCHANGE_ECJPAKE_ENABLED)
 275:.\Source\mbedtls_open\include/mbedtls/ssl_internal.h ****     mbedtls_ecjpake_context ecjpake_ctx;        /*!< EC J-PAKE key exchange */
 276:.\Source\mbedtls_open\include/mbedtls/ssl_internal.h **** #if defined(MBEDTLS_SSL_CLI_C)
 277:.\Source\mbedtls_open\include/mbedtls/ssl_internal.h ****     unsigned char *ecjpake_cache;               /*!< Cache for ClientHello ext */
 278:.\Source\mbedtls_open\include/mbedtls/ssl_internal.h ****     size_t ecjpake_cache_len;                   /*!< Length of cached data */
 279:.\Source\mbedtls_open\include/mbedtls/ssl_internal.h **** #endif
 280:.\Source\mbedtls_open\include/mbedtls/ssl_internal.h **** #endif /* MBEDTLS_KEY_EXCHANGE_ECJPAKE_ENABLED */
 281:.\Source\mbedtls_open\include/mbedtls/ssl_internal.h **** #if defined(MBEDTLS_ECDH_C) || defined(MBEDTLS_ECDSA_C) || \
 282:.\Source\mbedtls_open\include/mbedtls/ssl_internal.h ****     defined(MBEDTLS_KEY_EXCHANGE_ECJPAKE_ENABLED)
 283:.\Source\mbedtls_open\include/mbedtls/ssl_internal.h ****     const mbedtls_ecp_curve_info **curves;      /*!<  Supported elliptic curves */
 284:.\Source\mbedtls_open\include/mbedtls/ssl_internal.h **** #endif
 285:.\Source\mbedtls_open\include/mbedtls/ssl_internal.h **** #if defined(MBEDTLS_KEY_EXCHANGE__SOME__PSK_ENABLED)
 286:.\Source\mbedtls_open\include/mbedtls/ssl_internal.h ****     unsigned char *psk;                 /*!<  PSK from the callback         */
 287:.\Source\mbedtls_open\include/mbedtls/ssl_internal.h ****     size_t psk_len;                     /*!<  Length of PSK from callback   */
 288:.\Source\mbedtls_open\include/mbedtls/ssl_internal.h **** #endif
 289:.\Source\mbedtls_open\include/mbedtls/ssl_internal.h **** #if defined(MBEDTLS_X509_CRT_PARSE_C)
 290:.\Source\mbedtls_open\include/mbedtls/ssl_internal.h ****     mbedtls_ssl_key_cert *key_cert;     /*!< chosen key/cert pair (server)  */
 291:.\Source\mbedtls_open\include/mbedtls/ssl_internal.h **** #if defined(MBEDTLS_SSL_SERVER_NAME_INDICATION)
 292:.\Source\mbedtls_open\include/mbedtls/ssl_internal.h ****     int sni_authmode;                   /*!< authmode from SNI callback     */
 293:.\Source\mbedtls_open\include/mbedtls/ssl_internal.h ****     mbedtls_ssl_key_cert *sni_key_cert; /*!< key/cert list from SNI         */
 294:.\Source\mbedtls_open\include/mbedtls/ssl_internal.h ****     mbedtls_x509_crt *sni_ca_chain;     /*!< trusted CAs from SNI callback  */
 295:.\Source\mbedtls_open\include/mbedtls/ssl_internal.h ****     mbedtls_x509_crl *sni_ca_crl;       /*!< trusted CAs CRLs from SNI      */
 296:.\Source\mbedtls_open\include/mbedtls/ssl_internal.h **** #endif /* MBEDTLS_SSL_SERVER_NAME_INDICATION */
 297:.\Source\mbedtls_open\include/mbedtls/ssl_internal.h **** #endif /* MBEDTLS_X509_CRT_PARSE_C */
 298:.\Source\mbedtls_open\include/mbedtls/ssl_internal.h **** #if defined(MBEDTLS_SSL__ECP_RESTARTABLE)
 299:.\Source\mbedtls_open\include/mbedtls/ssl_internal.h ****     int ecrs_enabled;                   /*!< Handshake supports EC restart? */
 300:.\Source\mbedtls_open\include/mbedtls/ssl_internal.h ****     mbedtls_x509_crt_restart_ctx ecrs_ctx;  /*!< restart context            */
 301:.\Source\mbedtls_open\include/mbedtls/ssl_internal.h ****     enum { /* this complements ssl->state with info on intra-state operations */
 302:.\Source\mbedtls_open\include/mbedtls/ssl_internal.h ****         ssl_ecrs_none = 0,              /*!< nothing going on (yet)         */
 303:.\Source\mbedtls_open\include/mbedtls/ssl_internal.h ****         ssl_ecrs_crt_verify,            /*!< Certificate: crt_verify()      */
 304:.\Source\mbedtls_open\include/mbedtls/ssl_internal.h ****         ssl_ecrs_ske_start_processing,  /*!< ServerKeyExchange: pk_verify() */
 305:.\Source\mbedtls_open\include/mbedtls/ssl_internal.h ****         ssl_ecrs_cke_ecdh_calc_secret,  /*!< ClientKeyExchange: ECDH step 2 */
 306:.\Source\mbedtls_open\include/mbedtls/ssl_internal.h ****         ssl_ecrs_crt_vrfy_sign,         /*!< CertificateVerify: pk_sign()   */
 307:.\Source\mbedtls_open\include/mbedtls/ssl_internal.h ****     } ecrs_state;                       /*!< current (or last) operation    */
ARM GAS  C:\Users\Phuong\AppData\Local\Temp\ccbbphLa.s 			page 19


 308:.\Source\mbedtls_open\include/mbedtls/ssl_internal.h ****     size_t ecrs_n;                      /*!< place for saving a length      */
 309:.\Source\mbedtls_open\include/mbedtls/ssl_internal.h **** #endif
 310:.\Source\mbedtls_open\include/mbedtls/ssl_internal.h **** #if defined(MBEDTLS_SSL_PROTO_DTLS)
 311:.\Source\mbedtls_open\include/mbedtls/ssl_internal.h ****     unsigned int out_msg_seq;           /*!<  Outgoing handshake sequence number */
 312:.\Source\mbedtls_open\include/mbedtls/ssl_internal.h ****     unsigned int in_msg_seq;            /*!<  Incoming handshake sequence number */
 313:.\Source\mbedtls_open\include/mbedtls/ssl_internal.h **** 
 314:.\Source\mbedtls_open\include/mbedtls/ssl_internal.h ****     unsigned char *verify_cookie;       /*!<  Cli: HelloVerifyRequest cookie
 315:.\Source\mbedtls_open\include/mbedtls/ssl_internal.h ****                                               Srv: unused                    */
 316:.\Source\mbedtls_open\include/mbedtls/ssl_internal.h ****     unsigned char verify_cookie_len;    /*!<  Cli: cookie length
 317:.\Source\mbedtls_open\include/mbedtls/ssl_internal.h ****                                               Srv: flag for sending a cookie */
 318:.\Source\mbedtls_open\include/mbedtls/ssl_internal.h **** 
 319:.\Source\mbedtls_open\include/mbedtls/ssl_internal.h ****     uint32_t retransmit_timeout;        /*!<  Current value of timeout       */
 320:.\Source\mbedtls_open\include/mbedtls/ssl_internal.h ****     unsigned char retransmit_state;     /*!<  Retransmission state           */
 321:.\Source\mbedtls_open\include/mbedtls/ssl_internal.h ****     mbedtls_ssl_flight_item *flight;    /*!<  Current outgoing flight        */
 322:.\Source\mbedtls_open\include/mbedtls/ssl_internal.h ****     mbedtls_ssl_flight_item *cur_msg;   /*!<  Current message in flight      */
 323:.\Source\mbedtls_open\include/mbedtls/ssl_internal.h ****     unsigned char *cur_msg_p;           /*!<  Position in current message    */
 324:.\Source\mbedtls_open\include/mbedtls/ssl_internal.h ****     unsigned int in_flight_start_seq;   /*!<  Minimum message sequence in the
 325:.\Source\mbedtls_open\include/mbedtls/ssl_internal.h ****                                               flight being received          */
 326:.\Source\mbedtls_open\include/mbedtls/ssl_internal.h ****     mbedtls_ssl_transform *alt_transform_out;   /*!<  Alternative transform for
 327:.\Source\mbedtls_open\include/mbedtls/ssl_internal.h ****                                               resending messages             */
 328:.\Source\mbedtls_open\include/mbedtls/ssl_internal.h ****     unsigned char alt_out_ctr[8];       /*!<  Alternative record epoch/counter
 329:.\Source\mbedtls_open\include/mbedtls/ssl_internal.h ****                                               for resending messages         */
 330:.\Source\mbedtls_open\include/mbedtls/ssl_internal.h **** 
 331:.\Source\mbedtls_open\include/mbedtls/ssl_internal.h ****     struct
 332:.\Source\mbedtls_open\include/mbedtls/ssl_internal.h ****     {
 333:.\Source\mbedtls_open\include/mbedtls/ssl_internal.h ****         size_t total_bytes_buffered; /*!< Cumulative size of heap allocated
 334:.\Source\mbedtls_open\include/mbedtls/ssl_internal.h ****                                       *   buffers used for message buffering. */
 335:.\Source\mbedtls_open\include/mbedtls/ssl_internal.h **** 
 336:.\Source\mbedtls_open\include/mbedtls/ssl_internal.h ****         uint8_t seen_ccs;               /*!< Indicates if a CCS message has
 337:.\Source\mbedtls_open\include/mbedtls/ssl_internal.h ****                                          *   been seen in the current flight. */
 338:.\Source\mbedtls_open\include/mbedtls/ssl_internal.h **** 
 339:.\Source\mbedtls_open\include/mbedtls/ssl_internal.h ****         struct mbedtls_ssl_hs_buffer
 340:.\Source\mbedtls_open\include/mbedtls/ssl_internal.h ****         {
 341:.\Source\mbedtls_open\include/mbedtls/ssl_internal.h ****             unsigned is_valid      : 1;
 342:.\Source\mbedtls_open\include/mbedtls/ssl_internal.h ****             unsigned is_fragmented : 1;
 343:.\Source\mbedtls_open\include/mbedtls/ssl_internal.h ****             unsigned is_complete   : 1;
 344:.\Source\mbedtls_open\include/mbedtls/ssl_internal.h ****             unsigned char *data;
 345:.\Source\mbedtls_open\include/mbedtls/ssl_internal.h ****             size_t data_len;
 346:.\Source\mbedtls_open\include/mbedtls/ssl_internal.h ****         } hs[MBEDTLS_SSL_MAX_BUFFERED_HS];
 347:.\Source\mbedtls_open\include/mbedtls/ssl_internal.h **** 
 348:.\Source\mbedtls_open\include/mbedtls/ssl_internal.h ****         struct
 349:.\Source\mbedtls_open\include/mbedtls/ssl_internal.h ****         {
 350:.\Source\mbedtls_open\include/mbedtls/ssl_internal.h ****             unsigned char *data;
 351:.\Source\mbedtls_open\include/mbedtls/ssl_internal.h ****             size_t len;
 352:.\Source\mbedtls_open\include/mbedtls/ssl_internal.h ****             unsigned epoch;
 353:.\Source\mbedtls_open\include/mbedtls/ssl_internal.h ****         } future_record;
 354:.\Source\mbedtls_open\include/mbedtls/ssl_internal.h **** 
 355:.\Source\mbedtls_open\include/mbedtls/ssl_internal.h ****     } buffering;
 356:.\Source\mbedtls_open\include/mbedtls/ssl_internal.h **** 
 357:.\Source\mbedtls_open\include/mbedtls/ssl_internal.h ****     uint16_t mtu;                       /*!<  Handshake mtu, used to fragment outgoing messages */
 358:.\Source\mbedtls_open\include/mbedtls/ssl_internal.h **** #endif /* MBEDTLS_SSL_PROTO_DTLS */
 359:.\Source\mbedtls_open\include/mbedtls/ssl_internal.h **** 
 360:.\Source\mbedtls_open\include/mbedtls/ssl_internal.h ****     /*
 361:.\Source\mbedtls_open\include/mbedtls/ssl_internal.h ****      * Checksum contexts
 362:.\Source\mbedtls_open\include/mbedtls/ssl_internal.h ****      */
 363:.\Source\mbedtls_open\include/mbedtls/ssl_internal.h **** #if defined(MBEDTLS_SSL_PROTO_SSL3) || defined(MBEDTLS_SSL_PROTO_TLS1) || \
 364:.\Source\mbedtls_open\include/mbedtls/ssl_internal.h ****     defined(MBEDTLS_SSL_PROTO_TLS1_1)
ARM GAS  C:\Users\Phuong\AppData\Local\Temp\ccbbphLa.s 			page 20


 365:.\Source\mbedtls_open\include/mbedtls/ssl_internal.h ****        mbedtls_md5_context fin_md5;
 366:.\Source\mbedtls_open\include/mbedtls/ssl_internal.h ****       mbedtls_sha1_context fin_sha1;
 367:.\Source\mbedtls_open\include/mbedtls/ssl_internal.h **** #endif
 368:.\Source\mbedtls_open\include/mbedtls/ssl_internal.h **** #if defined(MBEDTLS_SSL_PROTO_TLS1_2)
 369:.\Source\mbedtls_open\include/mbedtls/ssl_internal.h **** #if defined(MBEDTLS_SHA256_C)
 370:.\Source\mbedtls_open\include/mbedtls/ssl_internal.h ****     mbedtls_sha256_context fin_sha256;
 371:.\Source\mbedtls_open\include/mbedtls/ssl_internal.h **** #endif
 372:.\Source\mbedtls_open\include/mbedtls/ssl_internal.h **** #if defined(MBEDTLS_SHA512_C)
 373:.\Source\mbedtls_open\include/mbedtls/ssl_internal.h ****     mbedtls_sha512_context fin_sha512;
 374:.\Source\mbedtls_open\include/mbedtls/ssl_internal.h **** #endif
 375:.\Source\mbedtls_open\include/mbedtls/ssl_internal.h **** #endif /* MBEDTLS_SSL_PROTO_TLS1_2 */
 376:.\Source\mbedtls_open\include/mbedtls/ssl_internal.h **** 
 377:.\Source\mbedtls_open\include/mbedtls/ssl_internal.h ****     void (*update_checksum)(mbedtls_ssl_context *, const unsigned char *, size_t);
 378:.\Source\mbedtls_open\include/mbedtls/ssl_internal.h ****     void (*calc_verify)(mbedtls_ssl_context *, unsigned char *);
 379:.\Source\mbedtls_open\include/mbedtls/ssl_internal.h ****     void (*calc_finished)(mbedtls_ssl_context *, unsigned char *, int);
 380:.\Source\mbedtls_open\include/mbedtls/ssl_internal.h ****     int  (*tls_prf)(const unsigned char *, size_t, const char *,
 381:.\Source\mbedtls_open\include/mbedtls/ssl_internal.h ****                     const unsigned char *, size_t,
 382:.\Source\mbedtls_open\include/mbedtls/ssl_internal.h ****                     unsigned char *, size_t);
 383:.\Source\mbedtls_open\include/mbedtls/ssl_internal.h **** 
 384:.\Source\mbedtls_open\include/mbedtls/ssl_internal.h ****     size_t pmslen;                      /*!<  premaster length        */
 385:.\Source\mbedtls_open\include/mbedtls/ssl_internal.h **** 
 386:.\Source\mbedtls_open\include/mbedtls/ssl_internal.h ****     unsigned char randbytes[64];        /*!<  random bytes            */
 387:.\Source\mbedtls_open\include/mbedtls/ssl_internal.h ****     unsigned char premaster[MBEDTLS_PREMASTER_SIZE];
 388:.\Source\mbedtls_open\include/mbedtls/ssl_internal.h ****                                         /*!<  premaster secret        */
 389:.\Source\mbedtls_open\include/mbedtls/ssl_internal.h **** 
 390:.\Source\mbedtls_open\include/mbedtls/ssl_internal.h ****     int resume;                         /*!<  session resume indicator*/
 391:.\Source\mbedtls_open\include/mbedtls/ssl_internal.h ****     int max_major_ver;                  /*!< max. major version client*/
 392:.\Source\mbedtls_open\include/mbedtls/ssl_internal.h ****     int max_minor_ver;                  /*!< max. minor version client*/
 393:.\Source\mbedtls_open\include/mbedtls/ssl_internal.h ****     int cli_exts;                       /*!< client extension presence*/
 394:.\Source\mbedtls_open\include/mbedtls/ssl_internal.h **** 
 395:.\Source\mbedtls_open\include/mbedtls/ssl_internal.h **** #if defined(MBEDTLS_SSL_SESSION_TICKETS)
 396:.\Source\mbedtls_open\include/mbedtls/ssl_internal.h ****     int new_session_ticket;             /*!< use NewSessionTicket?    */
 397:.\Source\mbedtls_open\include/mbedtls/ssl_internal.h **** #endif /* MBEDTLS_SSL_SESSION_TICKETS */
 398:.\Source\mbedtls_open\include/mbedtls/ssl_internal.h **** #if defined(MBEDTLS_SSL_EXTENDED_MASTER_SECRET)
 399:.\Source\mbedtls_open\include/mbedtls/ssl_internal.h ****     int extended_ms;                    /*!< use Extended Master Secret? */
 400:.\Source\mbedtls_open\include/mbedtls/ssl_internal.h **** #endif
 401:.\Source\mbedtls_open\include/mbedtls/ssl_internal.h **** 
 402:.\Source\mbedtls_open\include/mbedtls/ssl_internal.h **** #if defined(MBEDTLS_SSL_ASYNC_PRIVATE)
 403:.\Source\mbedtls_open\include/mbedtls/ssl_internal.h ****     unsigned int async_in_progress : 1; /*!< an asynchronous operation is in progress */
 404:.\Source\mbedtls_open\include/mbedtls/ssl_internal.h **** #endif /* MBEDTLS_SSL_ASYNC_PRIVATE */
 405:.\Source\mbedtls_open\include/mbedtls/ssl_internal.h **** 
 406:.\Source\mbedtls_open\include/mbedtls/ssl_internal.h **** #if defined(MBEDTLS_SSL_ASYNC_PRIVATE)
 407:.\Source\mbedtls_open\include/mbedtls/ssl_internal.h ****     /** Asynchronous operation context. This field is meant for use by the
 408:.\Source\mbedtls_open\include/mbedtls/ssl_internal.h ****      * asynchronous operation callbacks (mbedtls_ssl_config::f_async_sign_start,
 409:.\Source\mbedtls_open\include/mbedtls/ssl_internal.h ****      * mbedtls_ssl_config::f_async_decrypt_start,
 410:.\Source\mbedtls_open\include/mbedtls/ssl_internal.h ****      * mbedtls_ssl_config::f_async_resume, mbedtls_ssl_config::f_async_cancel).
 411:.\Source\mbedtls_open\include/mbedtls/ssl_internal.h ****      * The library does not use it internally. */
 412:.\Source\mbedtls_open\include/mbedtls/ssl_internal.h ****     void *user_async_ctx;
 413:.\Source\mbedtls_open\include/mbedtls/ssl_internal.h **** #endif /* MBEDTLS_SSL_ASYNC_PRIVATE */
 414:.\Source\mbedtls_open\include/mbedtls/ssl_internal.h **** };
 415:.\Source\mbedtls_open\include/mbedtls/ssl_internal.h **** 
 416:.\Source\mbedtls_open\include/mbedtls/ssl_internal.h **** typedef struct mbedtls_ssl_hs_buffer mbedtls_ssl_hs_buffer;
 417:.\Source\mbedtls_open\include/mbedtls/ssl_internal.h **** 
 418:.\Source\mbedtls_open\include/mbedtls/ssl_internal.h **** /*
 419:.\Source\mbedtls_open\include/mbedtls/ssl_internal.h ****  * This structure contains a full set of runtime transform parameters
 420:.\Source\mbedtls_open\include/mbedtls/ssl_internal.h ****  * either in negotiation or active.
 421:.\Source\mbedtls_open\include/mbedtls/ssl_internal.h ****  */
ARM GAS  C:\Users\Phuong\AppData\Local\Temp\ccbbphLa.s 			page 21


 422:.\Source\mbedtls_open\include/mbedtls/ssl_internal.h **** struct mbedtls_ssl_transform
 423:.\Source\mbedtls_open\include/mbedtls/ssl_internal.h **** {
 424:.\Source\mbedtls_open\include/mbedtls/ssl_internal.h ****     /*
 425:.\Source\mbedtls_open\include/mbedtls/ssl_internal.h ****      * Session specific crypto layer
 426:.\Source\mbedtls_open\include/mbedtls/ssl_internal.h ****      */
 427:.\Source\mbedtls_open\include/mbedtls/ssl_internal.h ****     const mbedtls_ssl_ciphersuite_t *ciphersuite_info;
 428:.\Source\mbedtls_open\include/mbedtls/ssl_internal.h ****                                         /*!<  Chosen cipersuite_info  */
 429:.\Source\mbedtls_open\include/mbedtls/ssl_internal.h ****     unsigned int keylen;                /*!<  symmetric key length (bytes)  */
 430:.\Source\mbedtls_open\include/mbedtls/ssl_internal.h ****     size_t minlen;                      /*!<  min. ciphertext length  */
 431:.\Source\mbedtls_open\include/mbedtls/ssl_internal.h ****     size_t ivlen;                       /*!<  IV length               */
 432:.\Source\mbedtls_open\include/mbedtls/ssl_internal.h ****     size_t fixed_ivlen;                 /*!<  Fixed part of IV (AEAD) */
 433:.\Source\mbedtls_open\include/mbedtls/ssl_internal.h ****     size_t maclen;                      /*!<  MAC length              */
 434:.\Source\mbedtls_open\include/mbedtls/ssl_internal.h **** 
 435:.\Source\mbedtls_open\include/mbedtls/ssl_internal.h ****     unsigned char iv_enc[16];           /*!<  IV (encryption)         */
 436:.\Source\mbedtls_open\include/mbedtls/ssl_internal.h ****     unsigned char iv_dec[16];           /*!<  IV (decryption)         */
 437:.\Source\mbedtls_open\include/mbedtls/ssl_internal.h **** 
 438:.\Source\mbedtls_open\include/mbedtls/ssl_internal.h **** #if defined(MBEDTLS_SSL_PROTO_SSL3)
 439:.\Source\mbedtls_open\include/mbedtls/ssl_internal.h ****     /* Needed only for SSL v3.0 secret */
 440:.\Source\mbedtls_open\include/mbedtls/ssl_internal.h ****     unsigned char mac_enc[20];          /*!<  SSL v3.0 secret (enc)   */
 441:.\Source\mbedtls_open\include/mbedtls/ssl_internal.h ****     unsigned char mac_dec[20];          /*!<  SSL v3.0 secret (dec)   */
 442:.\Source\mbedtls_open\include/mbedtls/ssl_internal.h **** #endif /* MBEDTLS_SSL_PROTO_SSL3 */
 443:.\Source\mbedtls_open\include/mbedtls/ssl_internal.h **** 
 444:.\Source\mbedtls_open\include/mbedtls/ssl_internal.h ****     mbedtls_md_context_t md_ctx_enc;            /*!<  MAC (encryption)        */
 445:.\Source\mbedtls_open\include/mbedtls/ssl_internal.h ****     mbedtls_md_context_t md_ctx_dec;            /*!<  MAC (decryption)        */
 446:.\Source\mbedtls_open\include/mbedtls/ssl_internal.h **** 
 447:.\Source\mbedtls_open\include/mbedtls/ssl_internal.h ****     mbedtls_cipher_context_t cipher_ctx_enc;    /*!<  encryption context      */
 448:.\Source\mbedtls_open\include/mbedtls/ssl_internal.h ****     mbedtls_cipher_context_t cipher_ctx_dec;    /*!<  decryption context      */
 449:.\Source\mbedtls_open\include/mbedtls/ssl_internal.h **** 
 450:.\Source\mbedtls_open\include/mbedtls/ssl_internal.h ****     /*
 451:.\Source\mbedtls_open\include/mbedtls/ssl_internal.h ****      * Session specific compression layer
 452:.\Source\mbedtls_open\include/mbedtls/ssl_internal.h ****      */
 453:.\Source\mbedtls_open\include/mbedtls/ssl_internal.h **** #if defined(MBEDTLS_ZLIB_SUPPORT)
 454:.\Source\mbedtls_open\include/mbedtls/ssl_internal.h ****     z_stream ctx_deflate;               /*!<  compression context     */
 455:.\Source\mbedtls_open\include/mbedtls/ssl_internal.h ****     z_stream ctx_inflate;               /*!<  decompression context   */
 456:.\Source\mbedtls_open\include/mbedtls/ssl_internal.h **** #endif
 457:.\Source\mbedtls_open\include/mbedtls/ssl_internal.h **** };
 458:.\Source\mbedtls_open\include/mbedtls/ssl_internal.h **** 
 459:.\Source\mbedtls_open\include/mbedtls/ssl_internal.h **** #if defined(MBEDTLS_X509_CRT_PARSE_C)
 460:.\Source\mbedtls_open\include/mbedtls/ssl_internal.h **** /*
 461:.\Source\mbedtls_open\include/mbedtls/ssl_internal.h ****  * List of certificate + private key pairs
 462:.\Source\mbedtls_open\include/mbedtls/ssl_internal.h ****  */
 463:.\Source\mbedtls_open\include/mbedtls/ssl_internal.h **** struct mbedtls_ssl_key_cert
 464:.\Source\mbedtls_open\include/mbedtls/ssl_internal.h **** {
 465:.\Source\mbedtls_open\include/mbedtls/ssl_internal.h ****     mbedtls_x509_crt *cert;                 /*!< cert                       */
 466:.\Source\mbedtls_open\include/mbedtls/ssl_internal.h ****     mbedtls_pk_context *key;                /*!< private key                */
 467:.\Source\mbedtls_open\include/mbedtls/ssl_internal.h ****     mbedtls_ssl_key_cert *next;             /*!< next key/cert pair         */
 468:.\Source\mbedtls_open\include/mbedtls/ssl_internal.h **** };
 469:.\Source\mbedtls_open\include/mbedtls/ssl_internal.h **** #endif /* MBEDTLS_X509_CRT_PARSE_C */
 470:.\Source\mbedtls_open\include/mbedtls/ssl_internal.h **** 
 471:.\Source\mbedtls_open\include/mbedtls/ssl_internal.h **** #if defined(MBEDTLS_SSL_PROTO_DTLS)
 472:.\Source\mbedtls_open\include/mbedtls/ssl_internal.h **** /*
 473:.\Source\mbedtls_open\include/mbedtls/ssl_internal.h ****  * List of handshake messages kept around for resending
 474:.\Source\mbedtls_open\include/mbedtls/ssl_internal.h ****  */
 475:.\Source\mbedtls_open\include/mbedtls/ssl_internal.h **** struct mbedtls_ssl_flight_item
 476:.\Source\mbedtls_open\include/mbedtls/ssl_internal.h **** {
 477:.\Source\mbedtls_open\include/mbedtls/ssl_internal.h ****     unsigned char *p;       /*!< message, including handshake headers   */
 478:.\Source\mbedtls_open\include/mbedtls/ssl_internal.h ****     size_t len;             /*!< length of p                            */
ARM GAS  C:\Users\Phuong\AppData\Local\Temp\ccbbphLa.s 			page 22


 479:.\Source\mbedtls_open\include/mbedtls/ssl_internal.h ****     unsigned char type;     /*!< type of the message: handshake or CCS  */
 480:.\Source\mbedtls_open\include/mbedtls/ssl_internal.h ****     mbedtls_ssl_flight_item *next;  /*!< next handshake message(s)              */
 481:.\Source\mbedtls_open\include/mbedtls/ssl_internal.h **** };
 482:.\Source\mbedtls_open\include/mbedtls/ssl_internal.h **** #endif /* MBEDTLS_SSL_PROTO_DTLS */
 483:.\Source\mbedtls_open\include/mbedtls/ssl_internal.h **** 
 484:.\Source\mbedtls_open\include/mbedtls/ssl_internal.h **** #if defined(MBEDTLS_SSL_PROTO_TLS1_2) && \
 485:.\Source\mbedtls_open\include/mbedtls/ssl_internal.h ****     defined(MBEDTLS_KEY_EXCHANGE__WITH_CERT__ENABLED)
 486:.\Source\mbedtls_open\include/mbedtls/ssl_internal.h **** 
 487:.\Source\mbedtls_open\include/mbedtls/ssl_internal.h **** /* Find an entry in a signature-hash set matching a given hash algorithm. */
 488:.\Source\mbedtls_open\include/mbedtls/ssl_internal.h **** mbedtls_md_type_t mbedtls_ssl_sig_hash_set_find( mbedtls_ssl_sig_hash_set_t *set,
 489:.\Source\mbedtls_open\include/mbedtls/ssl_internal.h ****                                                  mbedtls_pk_type_t sig_alg );
 490:.\Source\mbedtls_open\include/mbedtls/ssl_internal.h **** /* Add a signature-hash-pair to a signature-hash set */
 491:.\Source\mbedtls_open\include/mbedtls/ssl_internal.h **** void mbedtls_ssl_sig_hash_set_add( mbedtls_ssl_sig_hash_set_t *set,
 492:.\Source\mbedtls_open\include/mbedtls/ssl_internal.h ****                                    mbedtls_pk_type_t sig_alg,
 493:.\Source\mbedtls_open\include/mbedtls/ssl_internal.h ****                                    mbedtls_md_type_t md_alg );
 494:.\Source\mbedtls_open\include/mbedtls/ssl_internal.h **** /* Allow exactly one hash algorithm for each signature. */
 495:.\Source\mbedtls_open\include/mbedtls/ssl_internal.h **** void mbedtls_ssl_sig_hash_set_const_hash( mbedtls_ssl_sig_hash_set_t *set,
 496:.\Source\mbedtls_open\include/mbedtls/ssl_internal.h ****                                           mbedtls_md_type_t md_alg );
 497:.\Source\mbedtls_open\include/mbedtls/ssl_internal.h **** 
 498:.\Source\mbedtls_open\include/mbedtls/ssl_internal.h **** /* Setup an empty signature-hash set */
 499:.\Source\mbedtls_open\include/mbedtls/ssl_internal.h **** static inline void mbedtls_ssl_sig_hash_set_init( mbedtls_ssl_sig_hash_set_t *set )
 500:.\Source\mbedtls_open\include/mbedtls/ssl_internal.h **** {
 501:.\Source\mbedtls_open\include/mbedtls/ssl_internal.h ****     mbedtls_ssl_sig_hash_set_const_hash( set, MBEDTLS_MD_NONE );
 502:.\Source\mbedtls_open\include/mbedtls/ssl_internal.h **** }
 503:.\Source\mbedtls_open\include/mbedtls/ssl_internal.h **** 
 504:.\Source\mbedtls_open\include/mbedtls/ssl_internal.h **** #endif /* MBEDTLS_SSL_PROTO_TLS1_2) &&
 505:.\Source\mbedtls_open\include/mbedtls/ssl_internal.h ****           MBEDTLS_KEY_EXCHANGE__WITH_CERT__ENABLED */
 506:.\Source\mbedtls_open\include/mbedtls/ssl_internal.h **** 
 507:.\Source\mbedtls_open\include/mbedtls/ssl_internal.h **** /**
 508:.\Source\mbedtls_open\include/mbedtls/ssl_internal.h ****  * \brief           Free referenced items in an SSL transform context and clear
 509:.\Source\mbedtls_open\include/mbedtls/ssl_internal.h ****  *                  memory
 510:.\Source\mbedtls_open\include/mbedtls/ssl_internal.h ****  *
 511:.\Source\mbedtls_open\include/mbedtls/ssl_internal.h ****  * \param transform SSL transform context
 512:.\Source\mbedtls_open\include/mbedtls/ssl_internal.h ****  */
 513:.\Source\mbedtls_open\include/mbedtls/ssl_internal.h **** void mbedtls_ssl_transform_free( mbedtls_ssl_transform *transform );
 514:.\Source\mbedtls_open\include/mbedtls/ssl_internal.h **** 
 515:.\Source\mbedtls_open\include/mbedtls/ssl_internal.h **** /**
 516:.\Source\mbedtls_open\include/mbedtls/ssl_internal.h ****  * \brief           Free referenced items in an SSL handshake context and clear
 517:.\Source\mbedtls_open\include/mbedtls/ssl_internal.h ****  *                  memory
 518:.\Source\mbedtls_open\include/mbedtls/ssl_internal.h ****  *
 519:.\Source\mbedtls_open\include/mbedtls/ssl_internal.h ****  * \param ssl       SSL context
 520:.\Source\mbedtls_open\include/mbedtls/ssl_internal.h ****  */
 521:.\Source\mbedtls_open\include/mbedtls/ssl_internal.h **** void mbedtls_ssl_handshake_free( mbedtls_ssl_context *ssl );
 522:.\Source\mbedtls_open\include/mbedtls/ssl_internal.h **** 
 523:.\Source\mbedtls_open\include/mbedtls/ssl_internal.h **** int mbedtls_ssl_handshake_client_step( mbedtls_ssl_context *ssl );
 524:.\Source\mbedtls_open\include/mbedtls/ssl_internal.h **** int mbedtls_ssl_handshake_server_step( mbedtls_ssl_context *ssl );
 525:.\Source\mbedtls_open\include/mbedtls/ssl_internal.h **** void mbedtls_ssl_handshake_wrapup( mbedtls_ssl_context *ssl );
 526:.\Source\mbedtls_open\include/mbedtls/ssl_internal.h **** 
 527:.\Source\mbedtls_open\include/mbedtls/ssl_internal.h **** int mbedtls_ssl_send_fatal_handshake_failure( mbedtls_ssl_context *ssl );
 528:.\Source\mbedtls_open\include/mbedtls/ssl_internal.h **** 
 529:.\Source\mbedtls_open\include/mbedtls/ssl_internal.h **** void mbedtls_ssl_reset_checksum( mbedtls_ssl_context *ssl );
 530:.\Source\mbedtls_open\include/mbedtls/ssl_internal.h **** int mbedtls_ssl_derive_keys( mbedtls_ssl_context *ssl );
 531:.\Source\mbedtls_open\include/mbedtls/ssl_internal.h **** 
 532:.\Source\mbedtls_open\include/mbedtls/ssl_internal.h **** int mbedtls_ssl_handle_message_type( mbedtls_ssl_context *ssl );
 533:.\Source\mbedtls_open\include/mbedtls/ssl_internal.h **** int mbedtls_ssl_prepare_handshake_record( mbedtls_ssl_context *ssl );
 534:.\Source\mbedtls_open\include/mbedtls/ssl_internal.h **** void mbedtls_ssl_update_handshake_status( mbedtls_ssl_context *ssl );
 535:.\Source\mbedtls_open\include/mbedtls/ssl_internal.h **** 
ARM GAS  C:\Users\Phuong\AppData\Local\Temp\ccbbphLa.s 			page 23


 536:.\Source\mbedtls_open\include/mbedtls/ssl_internal.h **** /**
 537:.\Source\mbedtls_open\include/mbedtls/ssl_internal.h ****  * \brief       Update record layer
 538:.\Source\mbedtls_open\include/mbedtls/ssl_internal.h ****  *
 539:.\Source\mbedtls_open\include/mbedtls/ssl_internal.h ****  *              This function roughly separates the implementation
 540:.\Source\mbedtls_open\include/mbedtls/ssl_internal.h ****  *              of the logic of (D)TLS from the implementation
 541:.\Source\mbedtls_open\include/mbedtls/ssl_internal.h ****  *              of the secure transport.
 542:.\Source\mbedtls_open\include/mbedtls/ssl_internal.h ****  *
 543:.\Source\mbedtls_open\include/mbedtls/ssl_internal.h ****  * \param  ssl              The SSL context to use.
 544:.\Source\mbedtls_open\include/mbedtls/ssl_internal.h ****  * \param  update_hs_digest This indicates if the handshake digest
 545:.\Source\mbedtls_open\include/mbedtls/ssl_internal.h ****  *                          should be automatically updated in case
 546:.\Source\mbedtls_open\include/mbedtls/ssl_internal.h ****  *                          a handshake message is found.
 547:.\Source\mbedtls_open\include/mbedtls/ssl_internal.h ****  *
 548:.\Source\mbedtls_open\include/mbedtls/ssl_internal.h ****  * \return      0 or non-zero error code.
 549:.\Source\mbedtls_open\include/mbedtls/ssl_internal.h ****  *
 550:.\Source\mbedtls_open\include/mbedtls/ssl_internal.h ****  * \note        A clarification on what is called 'record layer' here
 551:.\Source\mbedtls_open\include/mbedtls/ssl_internal.h ****  *              is in order, as many sensible definitions are possible:
 552:.\Source\mbedtls_open\include/mbedtls/ssl_internal.h ****  *
 553:.\Source\mbedtls_open\include/mbedtls/ssl_internal.h ****  *              The record layer takes as input an untrusted underlying
 554:.\Source\mbedtls_open\include/mbedtls/ssl_internal.h ****  *              transport (stream or datagram) and transforms it into
 555:.\Source\mbedtls_open\include/mbedtls/ssl_internal.h ****  *              a serially multiplexed, secure transport, which
 556:.\Source\mbedtls_open\include/mbedtls/ssl_internal.h ****  *              conceptually provides the following:
 557:.\Source\mbedtls_open\include/mbedtls/ssl_internal.h ****  *
 558:.\Source\mbedtls_open\include/mbedtls/ssl_internal.h ****  *              (1) Three datagram based, content-agnostic transports
 559:.\Source\mbedtls_open\include/mbedtls/ssl_internal.h ****  *                  for handshake, alert and CCS messages.
 560:.\Source\mbedtls_open\include/mbedtls/ssl_internal.h ****  *              (2) One stream- or datagram-based transport
 561:.\Source\mbedtls_open\include/mbedtls/ssl_internal.h ****  *                  for application data.
 562:.\Source\mbedtls_open\include/mbedtls/ssl_internal.h ****  *              (3) Functionality for changing the underlying transform
 563:.\Source\mbedtls_open\include/mbedtls/ssl_internal.h ****  *                  securing the contents.
 564:.\Source\mbedtls_open\include/mbedtls/ssl_internal.h ****  *
 565:.\Source\mbedtls_open\include/mbedtls/ssl_internal.h ****  *              The interface to this functionality is given as follows:
 566:.\Source\mbedtls_open\include/mbedtls/ssl_internal.h ****  *
 567:.\Source\mbedtls_open\include/mbedtls/ssl_internal.h ****  *              a Updating
 568:.\Source\mbedtls_open\include/mbedtls/ssl_internal.h ****  *                [Currently implemented by mbedtls_ssl_read_record]
 569:.\Source\mbedtls_open\include/mbedtls/ssl_internal.h ****  *
 570:.\Source\mbedtls_open\include/mbedtls/ssl_internal.h ****  *                Check if and on which of the four 'ports' data is pending:
 571:.\Source\mbedtls_open\include/mbedtls/ssl_internal.h ****  *                Nothing, a controlling datagram of type (1), or application
 572:.\Source\mbedtls_open\include/mbedtls/ssl_internal.h ****  *                data (2). In any case data is present, internal buffers
 573:.\Source\mbedtls_open\include/mbedtls/ssl_internal.h ****  *                provide access to the data for the user to process it.
 574:.\Source\mbedtls_open\include/mbedtls/ssl_internal.h ****  *                Consumption of type (1) datagrams is done automatically
 575:.\Source\mbedtls_open\include/mbedtls/ssl_internal.h ****  *                on the next update, invalidating that the internal buffers
 576:.\Source\mbedtls_open\include/mbedtls/ssl_internal.h ****  *                for previous datagrams, while consumption of application
 577:.\Source\mbedtls_open\include/mbedtls/ssl_internal.h ****  *                data (2) is user-controlled.
 578:.\Source\mbedtls_open\include/mbedtls/ssl_internal.h ****  *
 579:.\Source\mbedtls_open\include/mbedtls/ssl_internal.h ****  *              b Reading of application data
 580:.\Source\mbedtls_open\include/mbedtls/ssl_internal.h ****  *                [Currently manual adaption of ssl->in_offt pointer]
 581:.\Source\mbedtls_open\include/mbedtls/ssl_internal.h ****  *
 582:.\Source\mbedtls_open\include/mbedtls/ssl_internal.h ****  *                As mentioned in the last paragraph, consumption of data
 583:.\Source\mbedtls_open\include/mbedtls/ssl_internal.h ****  *                is different from the automatic consumption of control
 584:.\Source\mbedtls_open\include/mbedtls/ssl_internal.h ****  *                datagrams (1) because application data is treated as a stream.
 585:.\Source\mbedtls_open\include/mbedtls/ssl_internal.h ****  *
 586:.\Source\mbedtls_open\include/mbedtls/ssl_internal.h ****  *              c Tracking availability of application data
 587:.\Source\mbedtls_open\include/mbedtls/ssl_internal.h ****  *                [Currently manually through decreasing ssl->in_msglen]
 588:.\Source\mbedtls_open\include/mbedtls/ssl_internal.h ****  *
 589:.\Source\mbedtls_open\include/mbedtls/ssl_internal.h ****  *                For efficiency and to retain datagram semantics for
 590:.\Source\mbedtls_open\include/mbedtls/ssl_internal.h ****  *                application data in case of DTLS, the record layer
 591:.\Source\mbedtls_open\include/mbedtls/ssl_internal.h ****  *                provides functionality for checking how much application
 592:.\Source\mbedtls_open\include/mbedtls/ssl_internal.h ****  *                data is still available in the internal buffer.
ARM GAS  C:\Users\Phuong\AppData\Local\Temp\ccbbphLa.s 			page 24


 593:.\Source\mbedtls_open\include/mbedtls/ssl_internal.h ****  *
 594:.\Source\mbedtls_open\include/mbedtls/ssl_internal.h ****  *              d Changing the transformation securing the communication.
 595:.\Source\mbedtls_open\include/mbedtls/ssl_internal.h ****  *
 596:.\Source\mbedtls_open\include/mbedtls/ssl_internal.h ****  *              Given an opaque implementation of the record layer in the
 597:.\Source\mbedtls_open\include/mbedtls/ssl_internal.h ****  *              above sense, it should be possible to implement the logic
 598:.\Source\mbedtls_open\include/mbedtls/ssl_internal.h ****  *              of (D)TLS on top of it without the need to know anything
 599:.\Source\mbedtls_open\include/mbedtls/ssl_internal.h ****  *              about the record layer's internals. This is done e.g.
 600:.\Source\mbedtls_open\include/mbedtls/ssl_internal.h ****  *              in all the handshake handling functions, and in the
 601:.\Source\mbedtls_open\include/mbedtls/ssl_internal.h ****  *              application data reading function mbedtls_ssl_read.
 602:.\Source\mbedtls_open\include/mbedtls/ssl_internal.h ****  *
 603:.\Source\mbedtls_open\include/mbedtls/ssl_internal.h ****  * \note        The above tries to give a conceptual picture of the
 604:.\Source\mbedtls_open\include/mbedtls/ssl_internal.h ****  *              record layer, but the current implementation deviates
 605:.\Source\mbedtls_open\include/mbedtls/ssl_internal.h ****  *              from it in some places. For example, our implementation of
 606:.\Source\mbedtls_open\include/mbedtls/ssl_internal.h ****  *              the update functionality through mbedtls_ssl_read_record
 607:.\Source\mbedtls_open\include/mbedtls/ssl_internal.h ****  *              discards datagrams depending on the current state, which
 608:.\Source\mbedtls_open\include/mbedtls/ssl_internal.h ****  *              wouldn't fall under the record layer's responsibility
 609:.\Source\mbedtls_open\include/mbedtls/ssl_internal.h ****  *              following the above definition.
 610:.\Source\mbedtls_open\include/mbedtls/ssl_internal.h ****  *
 611:.\Source\mbedtls_open\include/mbedtls/ssl_internal.h ****  */
 612:.\Source\mbedtls_open\include/mbedtls/ssl_internal.h **** int mbedtls_ssl_read_record( mbedtls_ssl_context *ssl,
 613:.\Source\mbedtls_open\include/mbedtls/ssl_internal.h ****                              unsigned update_hs_digest );
 614:.\Source\mbedtls_open\include/mbedtls/ssl_internal.h **** int mbedtls_ssl_fetch_input( mbedtls_ssl_context *ssl, size_t nb_want );
 615:.\Source\mbedtls_open\include/mbedtls/ssl_internal.h **** 
 616:.\Source\mbedtls_open\include/mbedtls/ssl_internal.h **** int mbedtls_ssl_write_handshake_msg( mbedtls_ssl_context *ssl );
 617:.\Source\mbedtls_open\include/mbedtls/ssl_internal.h **** int mbedtls_ssl_write_record( mbedtls_ssl_context *ssl, uint8_t force_flush );
 618:.\Source\mbedtls_open\include/mbedtls/ssl_internal.h **** int mbedtls_ssl_flush_output( mbedtls_ssl_context *ssl );
 619:.\Source\mbedtls_open\include/mbedtls/ssl_internal.h **** 
 620:.\Source\mbedtls_open\include/mbedtls/ssl_internal.h **** int mbedtls_ssl_parse_certificate( mbedtls_ssl_context *ssl );
 621:.\Source\mbedtls_open\include/mbedtls/ssl_internal.h **** int mbedtls_ssl_write_certificate( mbedtls_ssl_context *ssl );
 622:.\Source\mbedtls_open\include/mbedtls/ssl_internal.h **** 
 623:.\Source\mbedtls_open\include/mbedtls/ssl_internal.h **** int mbedtls_ssl_parse_change_cipher_spec( mbedtls_ssl_context *ssl );
 624:.\Source\mbedtls_open\include/mbedtls/ssl_internal.h **** int mbedtls_ssl_write_change_cipher_spec( mbedtls_ssl_context *ssl );
 625:.\Source\mbedtls_open\include/mbedtls/ssl_internal.h **** 
 626:.\Source\mbedtls_open\include/mbedtls/ssl_internal.h **** int mbedtls_ssl_parse_finished( mbedtls_ssl_context *ssl );
 627:.\Source\mbedtls_open\include/mbedtls/ssl_internal.h **** int mbedtls_ssl_write_finished( mbedtls_ssl_context *ssl );
 628:.\Source\mbedtls_open\include/mbedtls/ssl_internal.h **** 
 629:.\Source\mbedtls_open\include/mbedtls/ssl_internal.h **** void mbedtls_ssl_optimize_checksum( mbedtls_ssl_context *ssl,
 630:.\Source\mbedtls_open\include/mbedtls/ssl_internal.h ****                             const mbedtls_ssl_ciphersuite_t *ciphersuite_info );
 631:.\Source\mbedtls_open\include/mbedtls/ssl_internal.h **** 
 632:.\Source\mbedtls_open\include/mbedtls/ssl_internal.h **** #if defined(MBEDTLS_KEY_EXCHANGE__SOME__PSK_ENABLED)
 633:.\Source\mbedtls_open\include/mbedtls/ssl_internal.h **** int mbedtls_ssl_psk_derive_premaster( mbedtls_ssl_context *ssl, mbedtls_key_exchange_type_t key_ex 
 634:.\Source\mbedtls_open\include/mbedtls/ssl_internal.h **** #endif
 635:.\Source\mbedtls_open\include/mbedtls/ssl_internal.h **** 
 636:.\Source\mbedtls_open\include/mbedtls/ssl_internal.h **** #if defined(MBEDTLS_PK_C)
 637:.\Source\mbedtls_open\include/mbedtls/ssl_internal.h **** unsigned char mbedtls_ssl_sig_from_pk( mbedtls_pk_context *pk );
 638:.\Source\mbedtls_open\include/mbedtls/ssl_internal.h **** unsigned char mbedtls_ssl_sig_from_pk_alg( mbedtls_pk_type_t type );
 639:.\Source\mbedtls_open\include/mbedtls/ssl_internal.h **** mbedtls_pk_type_t mbedtls_ssl_pk_alg_from_sig( unsigned char sig );
 640:.\Source\mbedtls_open\include/mbedtls/ssl_internal.h **** #endif
 641:.\Source\mbedtls_open\include/mbedtls/ssl_internal.h **** 
 642:.\Source\mbedtls_open\include/mbedtls/ssl_internal.h **** mbedtls_md_type_t mbedtls_ssl_md_alg_from_hash( unsigned char hash );
 643:.\Source\mbedtls_open\include/mbedtls/ssl_internal.h **** unsigned char mbedtls_ssl_hash_from_md_alg( int md );
 644:.\Source\mbedtls_open\include/mbedtls/ssl_internal.h **** int mbedtls_ssl_set_calc_verify_md( mbedtls_ssl_context *ssl, int md );
 645:.\Source\mbedtls_open\include/mbedtls/ssl_internal.h **** 
 646:.\Source\mbedtls_open\include/mbedtls/ssl_internal.h **** #if defined(MBEDTLS_ECP_C)
 647:.\Source\mbedtls_open\include/mbedtls/ssl_internal.h **** int mbedtls_ssl_check_curve( const mbedtls_ssl_context *ssl, mbedtls_ecp_group_id grp_id );
 648:.\Source\mbedtls_open\include/mbedtls/ssl_internal.h **** #endif
 649:.\Source\mbedtls_open\include/mbedtls/ssl_internal.h **** 
ARM GAS  C:\Users\Phuong\AppData\Local\Temp\ccbbphLa.s 			page 25


 650:.\Source\mbedtls_open\include/mbedtls/ssl_internal.h **** #if defined(MBEDTLS_KEY_EXCHANGE__WITH_CERT__ENABLED)
 651:.\Source\mbedtls_open\include/mbedtls/ssl_internal.h **** int mbedtls_ssl_check_sig_hash( const mbedtls_ssl_context *ssl,
 652:.\Source\mbedtls_open\include/mbedtls/ssl_internal.h ****                                 mbedtls_md_type_t md );
 653:.\Source\mbedtls_open\include/mbedtls/ssl_internal.h **** #endif
 654:.\Source\mbedtls_open\include/mbedtls/ssl_internal.h **** 
 655:.\Source\mbedtls_open\include/mbedtls/ssl_internal.h **** #if defined(MBEDTLS_X509_CRT_PARSE_C)
 656:.\Source\mbedtls_open\include/mbedtls/ssl_internal.h **** static inline mbedtls_pk_context *mbedtls_ssl_own_key( mbedtls_ssl_context *ssl )
 657:.\Source\mbedtls_open\include/mbedtls/ssl_internal.h **** {
 658:.\Source\mbedtls_open\include/mbedtls/ssl_internal.h ****     mbedtls_ssl_key_cert *key_cert;
 659:.\Source\mbedtls_open\include/mbedtls/ssl_internal.h **** 
 660:.\Source\mbedtls_open\include/mbedtls/ssl_internal.h ****     if( ssl->handshake != NULL && ssl->handshake->key_cert != NULL )
 661:.\Source\mbedtls_open\include/mbedtls/ssl_internal.h ****         key_cert = ssl->handshake->key_cert;
 662:.\Source\mbedtls_open\include/mbedtls/ssl_internal.h ****     else
 663:.\Source\mbedtls_open\include/mbedtls/ssl_internal.h ****         key_cert = ssl->conf->key_cert;
 664:.\Source\mbedtls_open\include/mbedtls/ssl_internal.h **** 
 665:.\Source\mbedtls_open\include/mbedtls/ssl_internal.h ****     return( key_cert == NULL ? NULL : key_cert->key );
 666:.\Source\mbedtls_open\include/mbedtls/ssl_internal.h **** }
 667:.\Source\mbedtls_open\include/mbedtls/ssl_internal.h **** 
 668:.\Source\mbedtls_open\include/mbedtls/ssl_internal.h **** static inline mbedtls_x509_crt *mbedtls_ssl_own_cert( mbedtls_ssl_context *ssl )
 669:.\Source\mbedtls_open\include/mbedtls/ssl_internal.h **** {
 670:.\Source\mbedtls_open\include/mbedtls/ssl_internal.h ****     mbedtls_ssl_key_cert *key_cert;
 671:.\Source\mbedtls_open\include/mbedtls/ssl_internal.h **** 
 672:.\Source\mbedtls_open\include/mbedtls/ssl_internal.h ****     if( ssl->handshake != NULL && ssl->handshake->key_cert != NULL )
 673:.\Source\mbedtls_open\include/mbedtls/ssl_internal.h ****         key_cert = ssl->handshake->key_cert;
 674:.\Source\mbedtls_open\include/mbedtls/ssl_internal.h ****     else
 675:.\Source\mbedtls_open\include/mbedtls/ssl_internal.h ****         key_cert = ssl->conf->key_cert;
 676:.\Source\mbedtls_open\include/mbedtls/ssl_internal.h **** 
 677:.\Source\mbedtls_open\include/mbedtls/ssl_internal.h ****     return( key_cert == NULL ? NULL : key_cert->cert );
 678:.\Source\mbedtls_open\include/mbedtls/ssl_internal.h **** }
 679:.\Source\mbedtls_open\include/mbedtls/ssl_internal.h **** 
 680:.\Source\mbedtls_open\include/mbedtls/ssl_internal.h **** /*
 681:.\Source\mbedtls_open\include/mbedtls/ssl_internal.h ****  * Check usage of a certificate wrt extensions:
 682:.\Source\mbedtls_open\include/mbedtls/ssl_internal.h ****  * keyUsage, extendedKeyUsage (later), and nSCertType (later).
 683:.\Source\mbedtls_open\include/mbedtls/ssl_internal.h ****  *
 684:.\Source\mbedtls_open\include/mbedtls/ssl_internal.h ****  * Warning: cert_endpoint is the endpoint of the cert (ie, of our peer when we
 685:.\Source\mbedtls_open\include/mbedtls/ssl_internal.h ****  * check a cert we received from them)!
 686:.\Source\mbedtls_open\include/mbedtls/ssl_internal.h ****  *
 687:.\Source\mbedtls_open\include/mbedtls/ssl_internal.h ****  * Return 0 if everything is OK, -1 if not.
 688:.\Source\mbedtls_open\include/mbedtls/ssl_internal.h ****  */
 689:.\Source\mbedtls_open\include/mbedtls/ssl_internal.h **** int mbedtls_ssl_check_cert_usage( const mbedtls_x509_crt *cert,
 690:.\Source\mbedtls_open\include/mbedtls/ssl_internal.h ****                           const mbedtls_ssl_ciphersuite_t *ciphersuite,
 691:.\Source\mbedtls_open\include/mbedtls/ssl_internal.h ****                           int cert_endpoint,
 692:.\Source\mbedtls_open\include/mbedtls/ssl_internal.h ****                           uint32_t *flags );
 693:.\Source\mbedtls_open\include/mbedtls/ssl_internal.h **** #endif /* MBEDTLS_X509_CRT_PARSE_C */
 694:.\Source\mbedtls_open\include/mbedtls/ssl_internal.h **** 
 695:.\Source\mbedtls_open\include/mbedtls/ssl_internal.h **** void mbedtls_ssl_write_version( int major, int minor, int transport,
 696:.\Source\mbedtls_open\include/mbedtls/ssl_internal.h ****                         unsigned char ver[2] );
 697:.\Source\mbedtls_open\include/mbedtls/ssl_internal.h **** void mbedtls_ssl_read_version( int *major, int *minor, int transport,
 698:.\Source\mbedtls_open\include/mbedtls/ssl_internal.h ****                        const unsigned char ver[2] );
 699:.\Source\mbedtls_open\include/mbedtls/ssl_internal.h **** 
 700:.\Source\mbedtls_open\include/mbedtls/ssl_internal.h **** static inline size_t mbedtls_ssl_hdr_len( const mbedtls_ssl_context *ssl )
 701:.\Source\mbedtls_open\include/mbedtls/ssl_internal.h **** {
 702:.\Source\mbedtls_open\include/mbedtls/ssl_internal.h **** #if defined(MBEDTLS_SSL_PROTO_DTLS)
 703:.\Source\mbedtls_open\include/mbedtls/ssl_internal.h ****     if( ssl->conf->transport == MBEDTLS_SSL_TRANSPORT_DATAGRAM )
 704:.\Source\mbedtls_open\include/mbedtls/ssl_internal.h ****         return( 13 );
 705:.\Source\mbedtls_open\include/mbedtls/ssl_internal.h **** #else
 706:.\Source\mbedtls_open\include/mbedtls/ssl_internal.h ****     ((void) ssl);
ARM GAS  C:\Users\Phuong\AppData\Local\Temp\ccbbphLa.s 			page 26


 707:.\Source\mbedtls_open\include/mbedtls/ssl_internal.h **** #endif
 708:.\Source\mbedtls_open\include/mbedtls/ssl_internal.h ****     return( 5 );
 709:.\Source\mbedtls_open\include/mbedtls/ssl_internal.h **** }
 710:.\Source\mbedtls_open\include/mbedtls/ssl_internal.h **** 
 711:.\Source\mbedtls_open\include/mbedtls/ssl_internal.h **** static inline size_t mbedtls_ssl_hs_hdr_len( const mbedtls_ssl_context *ssl )
 712:.\Source\mbedtls_open\include/mbedtls/ssl_internal.h **** {
 713:.\Source\mbedtls_open\include/mbedtls/ssl_internal.h **** #if defined(MBEDTLS_SSL_PROTO_DTLS)
 714:.\Source\mbedtls_open\include/mbedtls/ssl_internal.h ****     if( ssl->conf->transport == MBEDTLS_SSL_TRANSPORT_DATAGRAM )
 715:.\Source\mbedtls_open\include/mbedtls/ssl_internal.h ****         return( 12 );
 716:.\Source\mbedtls_open\include/mbedtls/ssl_internal.h **** #else
 717:.\Source\mbedtls_open\include/mbedtls/ssl_internal.h ****     ((void) ssl);
 718:.\Source\mbedtls_open\include/mbedtls/ssl_internal.h **** #endif
 719:.\Source\mbedtls_open\include/mbedtls/ssl_internal.h ****     return( 4 );
 720:.\Source\mbedtls_open\include/mbedtls/ssl_internal.h **** }
 721:.\Source\mbedtls_open\include/mbedtls/ssl_internal.h **** 
 722:.\Source\mbedtls_open\include/mbedtls/ssl_internal.h **** #if defined(MBEDTLS_SSL_PROTO_DTLS)
 723:.\Source\mbedtls_open\include/mbedtls/ssl_internal.h **** void mbedtls_ssl_send_flight_completed( mbedtls_ssl_context *ssl );
 724:.\Source\mbedtls_open\include/mbedtls/ssl_internal.h **** void mbedtls_ssl_recv_flight_completed( mbedtls_ssl_context *ssl );
 725:.\Source\mbedtls_open\include/mbedtls/ssl_internal.h **** int mbedtls_ssl_resend( mbedtls_ssl_context *ssl );
 726:.\Source\mbedtls_open\include/mbedtls/ssl_internal.h **** int mbedtls_ssl_flight_transmit( mbedtls_ssl_context *ssl );
 727:.\Source\mbedtls_open\include/mbedtls/ssl_internal.h **** #endif
 728:.\Source\mbedtls_open\include/mbedtls/ssl_internal.h **** 
 729:.\Source\mbedtls_open\include/mbedtls/ssl_internal.h **** /* Visible for testing purposes only */
 730:.\Source\mbedtls_open\include/mbedtls/ssl_internal.h **** #if defined(MBEDTLS_SSL_DTLS_ANTI_REPLAY)
 731:.\Source\mbedtls_open\include/mbedtls/ssl_internal.h **** int mbedtls_ssl_dtls_replay_check( mbedtls_ssl_context *ssl );
 732:.\Source\mbedtls_open\include/mbedtls/ssl_internal.h **** void mbedtls_ssl_dtls_replay_update( mbedtls_ssl_context *ssl );
 733:.\Source\mbedtls_open\include/mbedtls/ssl_internal.h **** #endif
 734:.\Source\mbedtls_open\include/mbedtls/ssl_internal.h **** 
 735:.\Source\mbedtls_open\include/mbedtls/ssl_internal.h **** /* constant-time buffer comparison */
 736:.\Source\mbedtls_open\include/mbedtls/ssl_internal.h **** static inline int mbedtls_ssl_safer_memcmp( const void *a, const void *b, size_t n )
 737:.\Source\mbedtls_open\include/mbedtls/ssl_internal.h **** {
 738:.\Source\mbedtls_open\include/mbedtls/ssl_internal.h ****     size_t i;
 739:.\Source\mbedtls_open\include/mbedtls/ssl_internal.h ****     volatile const unsigned char *A = (volatile const unsigned char *) a;
 740:.\Source\mbedtls_open\include/mbedtls/ssl_internal.h ****     volatile const unsigned char *B = (volatile const unsigned char *) b;
 741:.\Source\mbedtls_open\include/mbedtls/ssl_internal.h ****     volatile unsigned char diff = 0;
 458              		.loc 2 741 0
 459 0034 0022     		movs	r2, #0
 460 0036 0F23     		movs	r3, #15
 461 0038 6B44     		add	r3, r3, sp
 462 003a 1A70     		strb	r2, [r3]
 463              	.LVL62:
 742:.\Source\mbedtls_open\include/mbedtls/ssl_internal.h **** 
 743:.\Source\mbedtls_open\include/mbedtls/ssl_internal.h ****     for( i = 0; i < n; i++ )
 464              		.loc 2 743 0
 465 003c 0021     		movs	r1, #0
 466 003e 0CE0     		b	.L28
 467              	.LVL63:
 468              	.L29:
 469              	.LBB7:
 744:.\Source\mbedtls_open\include/mbedtls/ssl_internal.h ****     {
 745:.\Source\mbedtls_open\include/mbedtls/ssl_internal.h ****         /* Read volatile data in order before computing diff.
 746:.\Source\mbedtls_open\include/mbedtls/ssl_internal.h ****          * This avoids IAR compiler warning:
 747:.\Source\mbedtls_open\include/mbedtls/ssl_internal.h ****          * 'the order of volatile accesses is undefined ..' */
 748:.\Source\mbedtls_open\include/mbedtls/ssl_internal.h ****         unsigned char x = A[i], y = B[i];
 470              		.loc 2 748 0
 471 0040 0B1D     		adds	r3, r1, #4
 472 0042 E318     		adds	r3, r4, r3
ARM GAS  C:\Users\Phuong\AppData\Local\Temp\ccbbphLa.s 			page 27


 473 0044 1A78     		ldrb	r2, [r3]
 474              	.LVL64:
 475 0046 05AB     		add	r3, sp, #20
 476              	.LVL65:
 477 0048 5B18     		adds	r3, r3, r1
 478              	.LVL66:
 479 004a 1B78     		ldrb	r3, [r3]
 480              	.LVL67:
 749:.\Source\mbedtls_open\include/mbedtls/ssl_internal.h ****         diff |= x ^ y;
 481              		.loc 2 749 0
 482 004c 0F20     		movs	r0, #15
 483 004e 6844     		add	r0, r0, sp
 484 0050 0678     		ldrb	r6, [r0]
 485 0052 5340     		eors	r3, r2
 486              	.LVL68:
 487 0054 3343     		orrs	r3, r6
 488 0056 0370     		strb	r3, [r0]
 489              	.LBE7:
 743:.\Source\mbedtls_open\include/mbedtls/ssl_internal.h ****     {
 490              		.loc 2 743 0
 491 0058 0131     		adds	r1, r1, #1
 492              	.LVL69:
 493              	.L28:
 494 005a 1B29     		cmp	r1, #27
 495 005c F0D9     		bls	.L29
 750:.\Source\mbedtls_open\include/mbedtls/ssl_internal.h ****     }
 751:.\Source\mbedtls_open\include/mbedtls/ssl_internal.h **** 
 752:.\Source\mbedtls_open\include/mbedtls/ssl_internal.h ****     return( diff );
 496              		.loc 2 752 0
 497 005e 0F23     		movs	r3, #15
 498 0060 6B44     		add	r3, r3, sp
 499 0062 1878     		ldrb	r0, [r3]
 500 0064 C0B2     		uxtb	r0, r0
 501              	.LVL70:
 502              	.LBE6:
 503              	.LBE5:
 235:Source\mbedtls_open\library/ssl_cookie.c ****         return( ret );
 236:Source\mbedtls_open\library/ssl_cookie.c **** 
 237:Source\mbedtls_open\library/ssl_cookie.c ****     if( mbedtls_ssl_safer_memcmp( cookie + 4, ref_hmac, sizeof( ref_hmac ) ) != 0 )
 504              		.loc 1 237 0
 505 0066 0028     		cmp	r0, #0
 506 0068 18D1     		bne	.L35
 238:Source\mbedtls_open\library/ssl_cookie.c ****         return( -1 );
 239:Source\mbedtls_open\library/ssl_cookie.c **** 
 240:Source\mbedtls_open\library/ssl_cookie.c **** #if defined(MBEDTLS_HAVE_TIME)
 241:Source\mbedtls_open\library/ssl_cookie.c ****     cur_time = (unsigned long) mbedtls_time( NULL );
 242:Source\mbedtls_open\library/ssl_cookie.c **** #else
 243:Source\mbedtls_open\library/ssl_cookie.c ****     cur_time = ctx->serial;
 507              		.loc 1 243 0
 508 006a E968     		ldr	r1, [r5, #12]
 509              	.LVL71:
 244:Source\mbedtls_open\library/ssl_cookie.c **** #endif
 245:Source\mbedtls_open\library/ssl_cookie.c **** 
 246:Source\mbedtls_open\library/ssl_cookie.c ****     cookie_time = ( (unsigned long) cookie[0] << 24 ) |
 510              		.loc 1 246 0
 511 006c 2378     		ldrb	r3, [r4]
 512 006e 1A06     		lsls	r2, r3, #24
ARM GAS  C:\Users\Phuong\AppData\Local\Temp\ccbbphLa.s 			page 28


 247:Source\mbedtls_open\library/ssl_cookie.c ****                   ( (unsigned long) cookie[1] << 16 ) |
 513              		.loc 1 247 0
 514 0070 6378     		ldrb	r3, [r4, #1]
 515 0072 1B04     		lsls	r3, r3, #16
 246:Source\mbedtls_open\library/ssl_cookie.c ****                   ( (unsigned long) cookie[1] << 16 ) |
 516              		.loc 1 246 0
 517 0074 1343     		orrs	r3, r2
 248:Source\mbedtls_open\library/ssl_cookie.c ****                   ( (unsigned long) cookie[2] <<  8 ) |
 518              		.loc 1 248 0
 519 0076 A278     		ldrb	r2, [r4, #2]
 520 0078 1202     		lsls	r2, r2, #8
 247:Source\mbedtls_open\library/ssl_cookie.c ****                   ( (unsigned long) cookie[1] << 16 ) |
 521              		.loc 1 247 0
 522 007a 1343     		orrs	r3, r2
 249:Source\mbedtls_open\library/ssl_cookie.c ****                   ( (unsigned long) cookie[3]       );
 523              		.loc 1 249 0
 524 007c E278     		ldrb	r2, [r4, #3]
 246:Source\mbedtls_open\library/ssl_cookie.c ****                   ( (unsigned long) cookie[1] << 16 ) |
 525              		.loc 1 246 0
 526 007e 1343     		orrs	r3, r2
 527              	.LVL72:
 250:Source\mbedtls_open\library/ssl_cookie.c **** 
 251:Source\mbedtls_open\library/ssl_cookie.c ****     if( ctx->timeout != 0 && cur_time - cookie_time > ctx->timeout )
 528              		.loc 1 251 0
 529 0080 2C69     		ldr	r4, [r5, #16]
 530              	.LVL73:
 531 0082 002C     		cmp	r4, #0
 532 0084 0FD0     		beq	.L26
 533              		.loc 1 251 0 is_stmt 0 discriminator 1
 534 0086 CB1A     		subs	r3, r1, r3
 535              	.LVL74:
 536 0088 9C42     		cmp	r4, r3
 537 008a 0CD2     		bcs	.L26
 538 008c 09E0     		b	.L36
 539              	.LVL75:
 540              	.L30:
 213:Source\mbedtls_open\library/ssl_cookie.c **** 
 541              		.loc 1 213 0 is_stmt 1
 542 008e 0748     		ldr	r0, .L37
 543              	.LVL76:
 544 0090 09E0     		b	.L26
 545              	.LVL77:
 546              	.L31:
 547 0092 0648     		ldr	r0, .L37
 548              	.LVL78:
 549 0094 07E0     		b	.L26
 550              	.LVL79:
 551              	.L32:
 216:Source\mbedtls_open\library/ssl_cookie.c **** 
 552              		.loc 1 216 0
 553 0096 0120     		movs	r0, #1
 554              	.LVL80:
 555 0098 4042     		rsbs	r0, r0, #0
 556 009a 04E0     		b	.L26
 557              	.LVL81:
 558              	.L35:
 238:Source\mbedtls_open\library/ssl_cookie.c **** 
ARM GAS  C:\Users\Phuong\AppData\Local\Temp\ccbbphLa.s 			page 29


 559              		.loc 1 238 0
 560 009c 0120     		movs	r0, #1
 561 009e 4042     		rsbs	r0, r0, #0
 562 00a0 01E0     		b	.L26
 563              	.LVL82:
 564              	.L36:
 252:Source\mbedtls_open\library/ssl_cookie.c ****         return( -1 );
 565              		.loc 1 252 0
 566 00a2 0120     		movs	r0, #1
 567 00a4 4042     		rsbs	r0, r0, #0
 568              	.LVL83:
 569              	.L26:
 253:Source\mbedtls_open\library/ssl_cookie.c **** 
 254:Source\mbedtls_open\library/ssl_cookie.c ****     return( 0 );
 255:Source\mbedtls_open\library/ssl_cookie.c **** }
 570              		.loc 1 255 0
 571 00a6 0CB0     		add	sp, sp, #48
 572              		@ sp needed
 573              	.LVL84:
 574 00a8 70BD     		pop	{r4, r5, r6, pc}
 575              	.L38:
 576 00aa C046     		.align	2
 577              	.L37:
 578 00ac 008FFFFF 		.word	-28928
 579              		.cfi_endproc
 580              	.LFE30:
 581              		.size	mbedtls_ssl_cookie_check, .-mbedtls_ssl_cookie_check
 582              		.text
 583              	.Letext0:
 584              		.file 3 "c:\\program files (x86)\\cypress\\psoc creator\\4.2\\psoc creator\\import\\gnu\\arm\\5.4.
 585              		.file 4 ".\\Source\\mbedtls_open\\include/mbedtls/md.h"
 586              		.file 5 ".\\Source\\mbedtls_open\\include/mbedtls/ssl_cookie.h"
 587              		.file 6 ".\\Source\\mbedtls_open\\include/mbedtls/platform_util.h"