ARM GAS  C:\Users\Phuong\AppData\Local\Temp\ccnrs5hd.s 			page 1


   1              		.syntax unified
   2              		.cpu cortex-m0plus
   3              		.fpu softvfp
   4              		.eabi_attribute 20, 1
   5              		.eabi_attribute 21, 1
   6              		.eabi_attribute 23, 3
   7              		.eabi_attribute 24, 1
   8              		.eabi_attribute 25, 1
   9              		.eabi_attribute 26, 1
  10              		.eabi_attribute 30, 1
  11              		.eabi_attribute 34, 0
  12              		.eabi_attribute 18, 4
  13              		.thumb
  14              		.syntax unified
  15              		.file	"stream_buffer.c"
  16              		.text
  17              	.Ltext0:
  18              		.cfi_sections	.debug_frame
  19              		.section	.text.prvBytesInBuffer,"ax",%progbits
  20              		.align	2
  21              		.code	16
  22              		.thumb_func
  23              		.type	prvBytesInBuffer, %function
  24              	prvBytesInBuffer:
  25              	.LFB54:
  26              		.file 1 "Source\\FreeRTOS\\10.0.1\\Source\\stream_buffer.c"
   1:Source\FreeRTOS\10.0.1\Source/stream_buffer.c **** /*
   2:Source\FreeRTOS\10.0.1\Source/stream_buffer.c ****  * FreeRTOS Kernel V10.0.1
   3:Source\FreeRTOS\10.0.1\Source/stream_buffer.c ****  * Copyright (C) 2017 Amazon.com, Inc. or its affiliates.  All Rights Reserved.
   4:Source\FreeRTOS\10.0.1\Source/stream_buffer.c ****  *
   5:Source\FreeRTOS\10.0.1\Source/stream_buffer.c ****  * Permission is hereby granted, free of charge, to any person obtaining a copy of
   6:Source\FreeRTOS\10.0.1\Source/stream_buffer.c ****  * this software and associated documentation files (the "Software"), to deal in
   7:Source\FreeRTOS\10.0.1\Source/stream_buffer.c ****  * the Software without restriction, including without limitation the rights to
   8:Source\FreeRTOS\10.0.1\Source/stream_buffer.c ****  * use, copy, modify, merge, publish, distribute, sublicense, and/or sell copies of
   9:Source\FreeRTOS\10.0.1\Source/stream_buffer.c ****  * the Software, and to permit persons to whom the Software is furnished to do so,
  10:Source\FreeRTOS\10.0.1\Source/stream_buffer.c ****  * subject to the following conditions:
  11:Source\FreeRTOS\10.0.1\Source/stream_buffer.c ****  *
  12:Source\FreeRTOS\10.0.1\Source/stream_buffer.c ****  * The above copyright notice and this permission notice shall be included in all
  13:Source\FreeRTOS\10.0.1\Source/stream_buffer.c ****  * copies or substantial portions of the Software.
  14:Source\FreeRTOS\10.0.1\Source/stream_buffer.c ****  *
  15:Source\FreeRTOS\10.0.1\Source/stream_buffer.c ****  * THE SOFTWARE IS PROVIDED "AS IS", WITHOUT WARRANTY OF ANY KIND, EXPRESS OR
  16:Source\FreeRTOS\10.0.1\Source/stream_buffer.c ****  * IMPLIED, INCLUDING BUT NOT LIMITED TO THE WARRANTIES OF MERCHANTABILITY, FITNESS
  17:Source\FreeRTOS\10.0.1\Source/stream_buffer.c ****  * FOR A PARTICULAR PURPOSE AND NONINFRINGEMENT. IN NO EVENT SHALL THE AUTHORS OR
  18:Source\FreeRTOS\10.0.1\Source/stream_buffer.c ****  * COPYRIGHT HOLDERS BE LIABLE FOR ANY CLAIM, DAMAGES OR OTHER LIABILITY, WHETHER
  19:Source\FreeRTOS\10.0.1\Source/stream_buffer.c ****  * IN AN ACTION OF CONTRACT, TORT OR OTHERWISE, ARISING FROM, OUT OF OR IN
  20:Source\FreeRTOS\10.0.1\Source/stream_buffer.c ****  * CONNECTION WITH THE SOFTWARE OR THE USE OR OTHER DEALINGS IN THE SOFTWARE.
  21:Source\FreeRTOS\10.0.1\Source/stream_buffer.c ****  *
  22:Source\FreeRTOS\10.0.1\Source/stream_buffer.c ****  * http://www.FreeRTOS.org
  23:Source\FreeRTOS\10.0.1\Source/stream_buffer.c ****  * http://aws.amazon.com/freertos
  24:Source\FreeRTOS\10.0.1\Source/stream_buffer.c ****  *
  25:Source\FreeRTOS\10.0.1\Source/stream_buffer.c ****  * 1 tab == 4 spaces!
  26:Source\FreeRTOS\10.0.1\Source/stream_buffer.c ****  */
  27:Source\FreeRTOS\10.0.1\Source/stream_buffer.c **** 
  28:Source\FreeRTOS\10.0.1\Source/stream_buffer.c **** /* Standard includes. */
  29:Source\FreeRTOS\10.0.1\Source/stream_buffer.c **** #include <stdint.h>
  30:Source\FreeRTOS\10.0.1\Source/stream_buffer.c **** #include <string.h>
  31:Source\FreeRTOS\10.0.1\Source/stream_buffer.c **** 
ARM GAS  C:\Users\Phuong\AppData\Local\Temp\ccnrs5hd.s 			page 2


  32:Source\FreeRTOS\10.0.1\Source/stream_buffer.c **** /* Defining MPU_WRAPPERS_INCLUDED_FROM_API_FILE prevents task.h from redefining
  33:Source\FreeRTOS\10.0.1\Source/stream_buffer.c **** all the API functions to use the MPU wrappers.  That should only be done when
  34:Source\FreeRTOS\10.0.1\Source/stream_buffer.c **** task.h is included from an application file. */
  35:Source\FreeRTOS\10.0.1\Source/stream_buffer.c **** #define MPU_WRAPPERS_INCLUDED_FROM_API_FILE
  36:Source\FreeRTOS\10.0.1\Source/stream_buffer.c **** 
  37:Source\FreeRTOS\10.0.1\Source/stream_buffer.c **** /* FreeRTOS includes. */
  38:Source\FreeRTOS\10.0.1\Source/stream_buffer.c **** #include "FreeRTOS.h"
  39:Source\FreeRTOS\10.0.1\Source/stream_buffer.c **** #include "task.h"
  40:Source\FreeRTOS\10.0.1\Source/stream_buffer.c **** #include "stream_buffer.h"
  41:Source\FreeRTOS\10.0.1\Source/stream_buffer.c **** 
  42:Source\FreeRTOS\10.0.1\Source/stream_buffer.c **** #if( configUSE_TASK_NOTIFICATIONS != 1 )
  43:Source\FreeRTOS\10.0.1\Source/stream_buffer.c **** 	#error configUSE_TASK_NOTIFICATIONS must be set to 1 to build stream_buffer.c
  44:Source\FreeRTOS\10.0.1\Source/stream_buffer.c **** #endif
  45:Source\FreeRTOS\10.0.1\Source/stream_buffer.c **** 
  46:Source\FreeRTOS\10.0.1\Source/stream_buffer.c **** /* Lint e961 and e750 are suppressed as a MISRA exception justified because the
  47:Source\FreeRTOS\10.0.1\Source/stream_buffer.c **** MPU ports require MPU_WRAPPERS_INCLUDED_FROM_API_FILE to be defined for the
  48:Source\FreeRTOS\10.0.1\Source/stream_buffer.c **** header files above, but not in this file, in order to generate the correct
  49:Source\FreeRTOS\10.0.1\Source/stream_buffer.c **** privileged Vs unprivileged linkage and placement. */
  50:Source\FreeRTOS\10.0.1\Source/stream_buffer.c **** #undef MPU_WRAPPERS_INCLUDED_FROM_API_FILE /*lint !e961 !e750. */
  51:Source\FreeRTOS\10.0.1\Source/stream_buffer.c **** 
  52:Source\FreeRTOS\10.0.1\Source/stream_buffer.c **** /* If the user has not provided application specific Rx notification macros,
  53:Source\FreeRTOS\10.0.1\Source/stream_buffer.c **** or #defined the notification macros away, them provide default implementations
  54:Source\FreeRTOS\10.0.1\Source/stream_buffer.c **** that uses task notifications. */
  55:Source\FreeRTOS\10.0.1\Source/stream_buffer.c **** /*lint -save -e9026 Function like macros allowed and needed here so they can be overidden. */
  56:Source\FreeRTOS\10.0.1\Source/stream_buffer.c **** #ifndef sbRECEIVE_COMPLETED
  57:Source\FreeRTOS\10.0.1\Source/stream_buffer.c **** 	#define sbRECEIVE_COMPLETED( pxStreamBuffer )										\
  58:Source\FreeRTOS\10.0.1\Source/stream_buffer.c **** 		vTaskSuspendAll();																\
  59:Source\FreeRTOS\10.0.1\Source/stream_buffer.c **** 		{																				\
  60:Source\FreeRTOS\10.0.1\Source/stream_buffer.c **** 			if( ( pxStreamBuffer )->xTaskWaitingToSend != NULL )						\
  61:Source\FreeRTOS\10.0.1\Source/stream_buffer.c **** 			{																			\
  62:Source\FreeRTOS\10.0.1\Source/stream_buffer.c **** 				( void ) xTaskNotify( ( pxStreamBuffer )->xTaskWaitingToSend,			\
  63:Source\FreeRTOS\10.0.1\Source/stream_buffer.c **** 									  ( uint32_t ) 0,									\
  64:Source\FreeRTOS\10.0.1\Source/stream_buffer.c **** 									  eNoAction );										\
  65:Source\FreeRTOS\10.0.1\Source/stream_buffer.c **** 				( pxStreamBuffer )->xTaskWaitingToSend = NULL;							\
  66:Source\FreeRTOS\10.0.1\Source/stream_buffer.c **** 			}																			\
  67:Source\FreeRTOS\10.0.1\Source/stream_buffer.c **** 		}																				\
  68:Source\FreeRTOS\10.0.1\Source/stream_buffer.c **** 		( void ) xTaskResumeAll();
  69:Source\FreeRTOS\10.0.1\Source/stream_buffer.c **** #endif /* sbRECEIVE_COMPLETED */
  70:Source\FreeRTOS\10.0.1\Source/stream_buffer.c **** 
  71:Source\FreeRTOS\10.0.1\Source/stream_buffer.c **** #ifndef sbRECEIVE_COMPLETED_FROM_ISR
  72:Source\FreeRTOS\10.0.1\Source/stream_buffer.c **** 	#define sbRECEIVE_COMPLETED_FROM_ISR( pxStreamBuffer,								\
  73:Source\FreeRTOS\10.0.1\Source/stream_buffer.c **** 										  pxHigherPriorityTaskWoken )					\
  74:Source\FreeRTOS\10.0.1\Source/stream_buffer.c **** 	{																					\
  75:Source\FreeRTOS\10.0.1\Source/stream_buffer.c **** 	UBaseType_t uxSavedInterruptStatus;													\
  76:Source\FreeRTOS\10.0.1\Source/stream_buffer.c **** 																						\
  77:Source\FreeRTOS\10.0.1\Source/stream_buffer.c **** 		uxSavedInterruptStatus = ( UBaseType_t ) portSET_INTERRUPT_MASK_FROM_ISR();		\
  78:Source\FreeRTOS\10.0.1\Source/stream_buffer.c **** 		{																				\
  79:Source\FreeRTOS\10.0.1\Source/stream_buffer.c **** 			if( ( pxStreamBuffer )->xTaskWaitingToSend != NULL )						\
  80:Source\FreeRTOS\10.0.1\Source/stream_buffer.c **** 			{																			\
  81:Source\FreeRTOS\10.0.1\Source/stream_buffer.c **** 				( void ) xTaskNotifyFromISR( ( pxStreamBuffer )->xTaskWaitingToSend,	\
  82:Source\FreeRTOS\10.0.1\Source/stream_buffer.c **** 											 ( uint32_t ) 0,							\
  83:Source\FreeRTOS\10.0.1\Source/stream_buffer.c **** 											 eNoAction,									\
  84:Source\FreeRTOS\10.0.1\Source/stream_buffer.c **** 											 pxHigherPriorityTaskWoken );				\
  85:Source\FreeRTOS\10.0.1\Source/stream_buffer.c **** 				( pxStreamBuffer )->xTaskWaitingToSend = NULL;							\
  86:Source\FreeRTOS\10.0.1\Source/stream_buffer.c **** 			}																			\
  87:Source\FreeRTOS\10.0.1\Source/stream_buffer.c **** 		}																				\
  88:Source\FreeRTOS\10.0.1\Source/stream_buffer.c **** 		portCLEAR_INTERRUPT_MASK_FROM_ISR( uxSavedInterruptStatus );					\
ARM GAS  C:\Users\Phuong\AppData\Local\Temp\ccnrs5hd.s 			page 3


  89:Source\FreeRTOS\10.0.1\Source/stream_buffer.c **** 	}
  90:Source\FreeRTOS\10.0.1\Source/stream_buffer.c **** #endif /* sbRECEIVE_COMPLETED_FROM_ISR */
  91:Source\FreeRTOS\10.0.1\Source/stream_buffer.c **** 
  92:Source\FreeRTOS\10.0.1\Source/stream_buffer.c **** /* If the user has not provided an application specific Tx notification macro,
  93:Source\FreeRTOS\10.0.1\Source/stream_buffer.c **** or #defined the notification macro away, them provide a default implementation
  94:Source\FreeRTOS\10.0.1\Source/stream_buffer.c **** that uses task notifications. */
  95:Source\FreeRTOS\10.0.1\Source/stream_buffer.c **** #ifndef sbSEND_COMPLETED
  96:Source\FreeRTOS\10.0.1\Source/stream_buffer.c **** 	#define sbSEND_COMPLETED( pxStreamBuffer )											\
  97:Source\FreeRTOS\10.0.1\Source/stream_buffer.c **** 		vTaskSuspendAll();																\
  98:Source\FreeRTOS\10.0.1\Source/stream_buffer.c **** 		{																				\
  99:Source\FreeRTOS\10.0.1\Source/stream_buffer.c **** 			if( ( pxStreamBuffer )->xTaskWaitingToReceive != NULL )						\
 100:Source\FreeRTOS\10.0.1\Source/stream_buffer.c **** 			{																			\
 101:Source\FreeRTOS\10.0.1\Source/stream_buffer.c **** 				( void ) xTaskNotify( ( pxStreamBuffer )->xTaskWaitingToReceive,		\
 102:Source\FreeRTOS\10.0.1\Source/stream_buffer.c **** 									  ( uint32_t ) 0,									\
 103:Source\FreeRTOS\10.0.1\Source/stream_buffer.c **** 									  eNoAction );										\
 104:Source\FreeRTOS\10.0.1\Source/stream_buffer.c **** 				( pxStreamBuffer )->xTaskWaitingToReceive = NULL;						\
 105:Source\FreeRTOS\10.0.1\Source/stream_buffer.c **** 			}																			\
 106:Source\FreeRTOS\10.0.1\Source/stream_buffer.c **** 		}																				\
 107:Source\FreeRTOS\10.0.1\Source/stream_buffer.c **** 		( void ) xTaskResumeAll();
 108:Source\FreeRTOS\10.0.1\Source/stream_buffer.c **** #endif /* sbSEND_COMPLETED */
 109:Source\FreeRTOS\10.0.1\Source/stream_buffer.c **** 
 110:Source\FreeRTOS\10.0.1\Source/stream_buffer.c **** #ifndef sbSEND_COMPLETE_FROM_ISR
 111:Source\FreeRTOS\10.0.1\Source/stream_buffer.c **** 	#define sbSEND_COMPLETE_FROM_ISR( pxStreamBuffer, pxHigherPriorityTaskWoken )		\
 112:Source\FreeRTOS\10.0.1\Source/stream_buffer.c **** 	{																					\
 113:Source\FreeRTOS\10.0.1\Source/stream_buffer.c **** 	UBaseType_t uxSavedInterruptStatus;													\
 114:Source\FreeRTOS\10.0.1\Source/stream_buffer.c **** 																						\
 115:Source\FreeRTOS\10.0.1\Source/stream_buffer.c **** 		uxSavedInterruptStatus = ( UBaseType_t ) portSET_INTERRUPT_MASK_FROM_ISR();		\
 116:Source\FreeRTOS\10.0.1\Source/stream_buffer.c **** 		{																				\
 117:Source\FreeRTOS\10.0.1\Source/stream_buffer.c **** 			if( ( pxStreamBuffer )->xTaskWaitingToReceive != NULL )						\
 118:Source\FreeRTOS\10.0.1\Source/stream_buffer.c **** 			{																			\
 119:Source\FreeRTOS\10.0.1\Source/stream_buffer.c **** 				( void ) xTaskNotifyFromISR( ( pxStreamBuffer )->xTaskWaitingToReceive,	\
 120:Source\FreeRTOS\10.0.1\Source/stream_buffer.c **** 											 ( uint32_t ) 0,							\
 121:Source\FreeRTOS\10.0.1\Source/stream_buffer.c **** 											 eNoAction,									\
 122:Source\FreeRTOS\10.0.1\Source/stream_buffer.c **** 											 pxHigherPriorityTaskWoken );				\
 123:Source\FreeRTOS\10.0.1\Source/stream_buffer.c **** 				( pxStreamBuffer )->xTaskWaitingToReceive = NULL;						\
 124:Source\FreeRTOS\10.0.1\Source/stream_buffer.c **** 			}																			\
 125:Source\FreeRTOS\10.0.1\Source/stream_buffer.c **** 		}																				\
 126:Source\FreeRTOS\10.0.1\Source/stream_buffer.c **** 		portCLEAR_INTERRUPT_MASK_FROM_ISR( uxSavedInterruptStatus );					\
 127:Source\FreeRTOS\10.0.1\Source/stream_buffer.c **** 	}
 128:Source\FreeRTOS\10.0.1\Source/stream_buffer.c **** #endif /* sbSEND_COMPLETE_FROM_ISR */
 129:Source\FreeRTOS\10.0.1\Source/stream_buffer.c **** /*lint -restore (9026) */
 130:Source\FreeRTOS\10.0.1\Source/stream_buffer.c **** 
 131:Source\FreeRTOS\10.0.1\Source/stream_buffer.c **** /* The number of bytes used to hold the length of a message in the buffer. */
 132:Source\FreeRTOS\10.0.1\Source/stream_buffer.c **** #define sbBYTES_TO_STORE_MESSAGE_LENGTH ( sizeof( size_t ) )
 133:Source\FreeRTOS\10.0.1\Source/stream_buffer.c **** 
 134:Source\FreeRTOS\10.0.1\Source/stream_buffer.c **** /* Bits stored in the ucFlags field of the stream buffer. */
 135:Source\FreeRTOS\10.0.1\Source/stream_buffer.c **** #define sbFLAGS_IS_MESSAGE_BUFFER		( ( uint8_t ) 1 ) /* Set if the stream buffer was created as a m
 136:Source\FreeRTOS\10.0.1\Source/stream_buffer.c **** #define sbFLAGS_IS_STATICALLY_ALLOCATED ( ( uint8_t ) 2 ) /* Set if the stream buffer was created u
 137:Source\FreeRTOS\10.0.1\Source/stream_buffer.c **** 
 138:Source\FreeRTOS\10.0.1\Source/stream_buffer.c **** /*-----------------------------------------------------------*/
 139:Source\FreeRTOS\10.0.1\Source/stream_buffer.c **** 
 140:Source\FreeRTOS\10.0.1\Source/stream_buffer.c **** /* Structure that hold state information on the buffer. */
 141:Source\FreeRTOS\10.0.1\Source/stream_buffer.c **** typedef struct xSTREAM_BUFFER /*lint !e9058 Style convention uses tag. */
 142:Source\FreeRTOS\10.0.1\Source/stream_buffer.c **** {
 143:Source\FreeRTOS\10.0.1\Source/stream_buffer.c **** 	volatile size_t xTail;				/* Index to the next item to read within the buffer. */
 144:Source\FreeRTOS\10.0.1\Source/stream_buffer.c **** 	volatile size_t xHead;				/* Index to the next item to write within the buffer. */
 145:Source\FreeRTOS\10.0.1\Source/stream_buffer.c **** 	size_t xLength;						/* The length of the buffer pointed to by pucBuffer. */
ARM GAS  C:\Users\Phuong\AppData\Local\Temp\ccnrs5hd.s 			page 4


 146:Source\FreeRTOS\10.0.1\Source/stream_buffer.c **** 	size_t xTriggerLevelBytes;			/* The number of bytes that must be in the stream buffer before a tas
 147:Source\FreeRTOS\10.0.1\Source/stream_buffer.c **** 	volatile TaskHandle_t xTaskWaitingToReceive; /* Holds the handle of a task waiting for data, or NU
 148:Source\FreeRTOS\10.0.1\Source/stream_buffer.c **** 	volatile TaskHandle_t xTaskWaitingToSend;	/* Holds the handle of a task waiting to send data to a 
 149:Source\FreeRTOS\10.0.1\Source/stream_buffer.c **** 	uint8_t *pucBuffer;					/* Points to the buffer itself - that is - the RAM that stores the data pa
 150:Source\FreeRTOS\10.0.1\Source/stream_buffer.c **** 	uint8_t ucFlags;
 151:Source\FreeRTOS\10.0.1\Source/stream_buffer.c **** 
 152:Source\FreeRTOS\10.0.1\Source/stream_buffer.c **** 	#if ( configUSE_TRACE_FACILITY == 1 )
 153:Source\FreeRTOS\10.0.1\Source/stream_buffer.c **** 		UBaseType_t uxStreamBufferNumber;		/* Used for tracing purposes. */
 154:Source\FreeRTOS\10.0.1\Source/stream_buffer.c **** 	#endif
 155:Source\FreeRTOS\10.0.1\Source/stream_buffer.c **** } StreamBuffer_t;
 156:Source\FreeRTOS\10.0.1\Source/stream_buffer.c **** 
 157:Source\FreeRTOS\10.0.1\Source/stream_buffer.c **** /*
 158:Source\FreeRTOS\10.0.1\Source/stream_buffer.c ****  * The number of bytes available to be read from the buffer.
 159:Source\FreeRTOS\10.0.1\Source/stream_buffer.c ****  */
 160:Source\FreeRTOS\10.0.1\Source/stream_buffer.c **** static size_t prvBytesInBuffer( const StreamBuffer_t * const pxStreamBuffer ) PRIVILEGED_FUNCTION;
 161:Source\FreeRTOS\10.0.1\Source/stream_buffer.c **** 
 162:Source\FreeRTOS\10.0.1\Source/stream_buffer.c **** /*
 163:Source\FreeRTOS\10.0.1\Source/stream_buffer.c ****  * Add xCount bytes from pucData into the pxStreamBuffer message buffer.
 164:Source\FreeRTOS\10.0.1\Source/stream_buffer.c ****  * Returns the number of bytes written, which will either equal xCount in the
 165:Source\FreeRTOS\10.0.1\Source/stream_buffer.c ****  * success case, or 0 if there was not enough space in the buffer (in which case
 166:Source\FreeRTOS\10.0.1\Source/stream_buffer.c ****  * no data is written into the buffer).
 167:Source\FreeRTOS\10.0.1\Source/stream_buffer.c ****  */
 168:Source\FreeRTOS\10.0.1\Source/stream_buffer.c **** static size_t prvWriteBytesToBuffer( StreamBuffer_t * const pxStreamBuffer, const uint8_t *pucData,
 169:Source\FreeRTOS\10.0.1\Source/stream_buffer.c **** 
 170:Source\FreeRTOS\10.0.1\Source/stream_buffer.c **** /*
 171:Source\FreeRTOS\10.0.1\Source/stream_buffer.c ****  * If the stream buffer is being used as a message buffer, then reads an entire
 172:Source\FreeRTOS\10.0.1\Source/stream_buffer.c ****  * message out of the buffer.  If the stream buffer is being used as a stream
 173:Source\FreeRTOS\10.0.1\Source/stream_buffer.c ****  * buffer then read as many bytes as possible from the buffer.
 174:Source\FreeRTOS\10.0.1\Source/stream_buffer.c ****  * prvReadBytesFromBuffer() is called to actually extract the bytes from the
 175:Source\FreeRTOS\10.0.1\Source/stream_buffer.c ****  * buffer's data storage area.
 176:Source\FreeRTOS\10.0.1\Source/stream_buffer.c ****  */
 177:Source\FreeRTOS\10.0.1\Source/stream_buffer.c **** static size_t prvReadMessageFromBuffer( StreamBuffer_t *pxStreamBuffer,
 178:Source\FreeRTOS\10.0.1\Source/stream_buffer.c **** 										void *pvRxData,
 179:Source\FreeRTOS\10.0.1\Source/stream_buffer.c **** 										size_t xBufferLengthBytes,
 180:Source\FreeRTOS\10.0.1\Source/stream_buffer.c **** 										size_t xBytesAvailable,
 181:Source\FreeRTOS\10.0.1\Source/stream_buffer.c **** 										size_t xBytesToStoreMessageLength ) PRIVILEGED_FUNCTION;
 182:Source\FreeRTOS\10.0.1\Source/stream_buffer.c **** 
 183:Source\FreeRTOS\10.0.1\Source/stream_buffer.c **** /*
 184:Source\FreeRTOS\10.0.1\Source/stream_buffer.c ****  * If the stream buffer is being used as a message buffer, then writes an entire
 185:Source\FreeRTOS\10.0.1\Source/stream_buffer.c ****  * message to the buffer.  If the stream buffer is being used as a stream
 186:Source\FreeRTOS\10.0.1\Source/stream_buffer.c ****  * buffer then write as many bytes as possible to the buffer.
 187:Source\FreeRTOS\10.0.1\Source/stream_buffer.c ****  * prvWriteBytestoBuffer() is called to actually send the bytes to the buffer's
 188:Source\FreeRTOS\10.0.1\Source/stream_buffer.c ****  * data storage area.
 189:Source\FreeRTOS\10.0.1\Source/stream_buffer.c ****  */
 190:Source\FreeRTOS\10.0.1\Source/stream_buffer.c **** static size_t prvWriteMessageToBuffer(  StreamBuffer_t * const pxStreamBuffer,
 191:Source\FreeRTOS\10.0.1\Source/stream_buffer.c **** 										const void * pvTxData,
 192:Source\FreeRTOS\10.0.1\Source/stream_buffer.c **** 										size_t xDataLengthBytes,
 193:Source\FreeRTOS\10.0.1\Source/stream_buffer.c **** 										size_t xSpace,
 194:Source\FreeRTOS\10.0.1\Source/stream_buffer.c **** 										size_t xRequiredSpace ) PRIVILEGED_FUNCTION;
 195:Source\FreeRTOS\10.0.1\Source/stream_buffer.c **** 
 196:Source\FreeRTOS\10.0.1\Source/stream_buffer.c **** /*
 197:Source\FreeRTOS\10.0.1\Source/stream_buffer.c ****  * Read xMaxCount bytes from the pxStreamBuffer message buffer and write them
 198:Source\FreeRTOS\10.0.1\Source/stream_buffer.c ****  * to pucData.
 199:Source\FreeRTOS\10.0.1\Source/stream_buffer.c ****  */
 200:Source\FreeRTOS\10.0.1\Source/stream_buffer.c **** static size_t prvReadBytesFromBuffer( StreamBuffer_t *pxStreamBuffer,
 201:Source\FreeRTOS\10.0.1\Source/stream_buffer.c **** 									  uint8_t *pucData,
 202:Source\FreeRTOS\10.0.1\Source/stream_buffer.c **** 									  size_t xMaxCount,
ARM GAS  C:\Users\Phuong\AppData\Local\Temp\ccnrs5hd.s 			page 5


 203:Source\FreeRTOS\10.0.1\Source/stream_buffer.c **** 									  size_t xBytesAvailable ); PRIVILEGED_FUNCTION
 204:Source\FreeRTOS\10.0.1\Source/stream_buffer.c **** 
 205:Source\FreeRTOS\10.0.1\Source/stream_buffer.c **** /*
 206:Source\FreeRTOS\10.0.1\Source/stream_buffer.c ****  * Called by both pxStreamBufferCreate() and pxStreamBufferCreateStatic() to
 207:Source\FreeRTOS\10.0.1\Source/stream_buffer.c ****  * initialise the members of the newly created stream buffer structure.
 208:Source\FreeRTOS\10.0.1\Source/stream_buffer.c ****  */
 209:Source\FreeRTOS\10.0.1\Source/stream_buffer.c **** static void prvInitialiseNewStreamBuffer( StreamBuffer_t * const pxStreamBuffer,
 210:Source\FreeRTOS\10.0.1\Source/stream_buffer.c **** 										  uint8_t * const pucBuffer,
 211:Source\FreeRTOS\10.0.1\Source/stream_buffer.c **** 										  size_t xBufferSizeBytes,
 212:Source\FreeRTOS\10.0.1\Source/stream_buffer.c **** 										  size_t xTriggerLevelBytes,
 213:Source\FreeRTOS\10.0.1\Source/stream_buffer.c **** 										  BaseType_t xIsMessageBuffer ) PRIVILEGED_FUNCTION;
 214:Source\FreeRTOS\10.0.1\Source/stream_buffer.c **** 
 215:Source\FreeRTOS\10.0.1\Source/stream_buffer.c **** /*-----------------------------------------------------------*/
 216:Source\FreeRTOS\10.0.1\Source/stream_buffer.c **** 
 217:Source\FreeRTOS\10.0.1\Source/stream_buffer.c **** #if( configSUPPORT_DYNAMIC_ALLOCATION == 1 )
 218:Source\FreeRTOS\10.0.1\Source/stream_buffer.c **** 
 219:Source\FreeRTOS\10.0.1\Source/stream_buffer.c **** 	StreamBufferHandle_t xStreamBufferGenericCreate( size_t xBufferSizeBytes, size_t xTriggerLevelByte
 220:Source\FreeRTOS\10.0.1\Source/stream_buffer.c **** 	{
 221:Source\FreeRTOS\10.0.1\Source/stream_buffer.c **** 	uint8_t *pucAllocatedMemory;
 222:Source\FreeRTOS\10.0.1\Source/stream_buffer.c **** 
 223:Source\FreeRTOS\10.0.1\Source/stream_buffer.c **** 		/* In case the stream buffer is going to be used as a message buffer
 224:Source\FreeRTOS\10.0.1\Source/stream_buffer.c **** 		(that is, it will hold discrete messages with a little meta data that
 225:Source\FreeRTOS\10.0.1\Source/stream_buffer.c **** 		says how big the next message is) check the buffer will be large enough
 226:Source\FreeRTOS\10.0.1\Source/stream_buffer.c **** 		to hold at least one message. */
 227:Source\FreeRTOS\10.0.1\Source/stream_buffer.c **** 		configASSERT( xBufferSizeBytes > sbBYTES_TO_STORE_MESSAGE_LENGTH );
 228:Source\FreeRTOS\10.0.1\Source/stream_buffer.c **** 		configASSERT( xTriggerLevelBytes <= xBufferSizeBytes );
 229:Source\FreeRTOS\10.0.1\Source/stream_buffer.c **** 
 230:Source\FreeRTOS\10.0.1\Source/stream_buffer.c **** 		/* A trigger level of 0 would cause a waiting task to unblock even when
 231:Source\FreeRTOS\10.0.1\Source/stream_buffer.c **** 		the buffer was empty. */
 232:Source\FreeRTOS\10.0.1\Source/stream_buffer.c **** 		if( xTriggerLevelBytes == ( size_t ) 0 )
 233:Source\FreeRTOS\10.0.1\Source/stream_buffer.c **** 		{
 234:Source\FreeRTOS\10.0.1\Source/stream_buffer.c **** 			xTriggerLevelBytes = ( size_t ) 1; /*lint !e9044 Parameter modified to ensure it doesn't have a 
 235:Source\FreeRTOS\10.0.1\Source/stream_buffer.c **** 		}
 236:Source\FreeRTOS\10.0.1\Source/stream_buffer.c **** 
 237:Source\FreeRTOS\10.0.1\Source/stream_buffer.c **** 		/* A stream buffer requires a StreamBuffer_t structure and a buffer.
 238:Source\FreeRTOS\10.0.1\Source/stream_buffer.c **** 		Both are allocated in a single call to pvPortMalloc().  The
 239:Source\FreeRTOS\10.0.1\Source/stream_buffer.c **** 		StreamBuffer_t structure is placed at the start of the allocated memory
 240:Source\FreeRTOS\10.0.1\Source/stream_buffer.c **** 		and the buffer follows immediately after.  The requested size is
 241:Source\FreeRTOS\10.0.1\Source/stream_buffer.c **** 		incremented so the free space is returned as the user would expect -
 242:Source\FreeRTOS\10.0.1\Source/stream_buffer.c **** 		this is a quirk of the implementation that means otherwise the free
 243:Source\FreeRTOS\10.0.1\Source/stream_buffer.c **** 		space would be reported as one byte smaller than would be logically
 244:Source\FreeRTOS\10.0.1\Source/stream_buffer.c **** 		expected. */
 245:Source\FreeRTOS\10.0.1\Source/stream_buffer.c **** 		xBufferSizeBytes++;
 246:Source\FreeRTOS\10.0.1\Source/stream_buffer.c **** 		pucAllocatedMemory = ( uint8_t * ) pvPortMalloc( xBufferSizeBytes + sizeof( StreamBuffer_t ) ); /
 247:Source\FreeRTOS\10.0.1\Source/stream_buffer.c **** 
 248:Source\FreeRTOS\10.0.1\Source/stream_buffer.c **** 		if( pucAllocatedMemory != NULL )
 249:Source\FreeRTOS\10.0.1\Source/stream_buffer.c **** 		{
 250:Source\FreeRTOS\10.0.1\Source/stream_buffer.c **** 			prvInitialiseNewStreamBuffer( ( StreamBuffer_t * ) pucAllocatedMemory, /* Structure at the start
 251:Source\FreeRTOS\10.0.1\Source/stream_buffer.c **** 										   pucAllocatedMemory + sizeof( StreamBuffer_t ),  /* Storage area follows. */ /*lint !e9
 252:Source\FreeRTOS\10.0.1\Source/stream_buffer.c **** 										   xBufferSizeBytes,
 253:Source\FreeRTOS\10.0.1\Source/stream_buffer.c **** 										   xTriggerLevelBytes,
 254:Source\FreeRTOS\10.0.1\Source/stream_buffer.c **** 										   xIsMessageBuffer );
 255:Source\FreeRTOS\10.0.1\Source/stream_buffer.c **** 
 256:Source\FreeRTOS\10.0.1\Source/stream_buffer.c **** 			traceSTREAM_BUFFER_CREATE( ( ( StreamBuffer_t * ) pucAllocatedMemory ), xIsMessageBuffer );
 257:Source\FreeRTOS\10.0.1\Source/stream_buffer.c **** 		}
 258:Source\FreeRTOS\10.0.1\Source/stream_buffer.c **** 		else
 259:Source\FreeRTOS\10.0.1\Source/stream_buffer.c **** 		{
ARM GAS  C:\Users\Phuong\AppData\Local\Temp\ccnrs5hd.s 			page 6


 260:Source\FreeRTOS\10.0.1\Source/stream_buffer.c **** 			traceSTREAM_BUFFER_CREATE_FAILED( xIsMessageBuffer );
 261:Source\FreeRTOS\10.0.1\Source/stream_buffer.c **** 		}
 262:Source\FreeRTOS\10.0.1\Source/stream_buffer.c **** 
 263:Source\FreeRTOS\10.0.1\Source/stream_buffer.c **** 		return ( StreamBufferHandle_t * ) pucAllocatedMemory; /*lint !e9087 !e826 Safe cast as allocated 
 264:Source\FreeRTOS\10.0.1\Source/stream_buffer.c **** 	}
 265:Source\FreeRTOS\10.0.1\Source/stream_buffer.c **** 
 266:Source\FreeRTOS\10.0.1\Source/stream_buffer.c **** #endif /* configSUPPORT_DYNAMIC_ALLOCATION */
 267:Source\FreeRTOS\10.0.1\Source/stream_buffer.c **** /*-----------------------------------------------------------*/
 268:Source\FreeRTOS\10.0.1\Source/stream_buffer.c **** 
 269:Source\FreeRTOS\10.0.1\Source/stream_buffer.c **** #if( configSUPPORT_STATIC_ALLOCATION == 1 )
 270:Source\FreeRTOS\10.0.1\Source/stream_buffer.c **** 
 271:Source\FreeRTOS\10.0.1\Source/stream_buffer.c **** 	StreamBufferHandle_t xStreamBufferGenericCreateStatic( size_t xBufferSizeBytes,
 272:Source\FreeRTOS\10.0.1\Source/stream_buffer.c **** 														   size_t xTriggerLevelBytes,
 273:Source\FreeRTOS\10.0.1\Source/stream_buffer.c **** 														   BaseType_t xIsMessageBuffer,
 274:Source\FreeRTOS\10.0.1\Source/stream_buffer.c **** 														   uint8_t * const pucStreamBufferStorageArea,
 275:Source\FreeRTOS\10.0.1\Source/stream_buffer.c **** 														   StaticStreamBuffer_t * const pxStaticStreamBuffer )
 276:Source\FreeRTOS\10.0.1\Source/stream_buffer.c **** 	{
 277:Source\FreeRTOS\10.0.1\Source/stream_buffer.c **** 	StreamBuffer_t * const pxStreamBuffer = ( StreamBuffer_t * ) pxStaticStreamBuffer; /*lint !e740 !e
 278:Source\FreeRTOS\10.0.1\Source/stream_buffer.c **** 	StreamBufferHandle_t xReturn;
 279:Source\FreeRTOS\10.0.1\Source/stream_buffer.c **** 
 280:Source\FreeRTOS\10.0.1\Source/stream_buffer.c **** 		configASSERT( pucStreamBufferStorageArea );
 281:Source\FreeRTOS\10.0.1\Source/stream_buffer.c **** 		configASSERT( pxStaticStreamBuffer );
 282:Source\FreeRTOS\10.0.1\Source/stream_buffer.c **** 		configASSERT( xTriggerLevelBytes <= xBufferSizeBytes );
 283:Source\FreeRTOS\10.0.1\Source/stream_buffer.c **** 
 284:Source\FreeRTOS\10.0.1\Source/stream_buffer.c **** 		/* A trigger level of 0 would cause a waiting task to unblock even when
 285:Source\FreeRTOS\10.0.1\Source/stream_buffer.c **** 		the buffer was empty. */
 286:Source\FreeRTOS\10.0.1\Source/stream_buffer.c **** 		if( xTriggerLevelBytes == ( size_t ) 0 )
 287:Source\FreeRTOS\10.0.1\Source/stream_buffer.c **** 		{
 288:Source\FreeRTOS\10.0.1\Source/stream_buffer.c **** 			xTriggerLevelBytes = ( size_t ) 1; /*lint !e9044 Function parameter deliberately modified to ens
 289:Source\FreeRTOS\10.0.1\Source/stream_buffer.c **** 		}
 290:Source\FreeRTOS\10.0.1\Source/stream_buffer.c **** 
 291:Source\FreeRTOS\10.0.1\Source/stream_buffer.c **** 		/* In case the stream buffer is going to be used as a message buffer
 292:Source\FreeRTOS\10.0.1\Source/stream_buffer.c **** 		(that is, it will hold discrete messages with a little meta data that
 293:Source\FreeRTOS\10.0.1\Source/stream_buffer.c **** 		says how big the next message is) check the buffer will be large enough
 294:Source\FreeRTOS\10.0.1\Source/stream_buffer.c **** 		to hold at least one message. */
 295:Source\FreeRTOS\10.0.1\Source/stream_buffer.c **** 		configASSERT( xBufferSizeBytes > sbBYTES_TO_STORE_MESSAGE_LENGTH );
 296:Source\FreeRTOS\10.0.1\Source/stream_buffer.c **** 
 297:Source\FreeRTOS\10.0.1\Source/stream_buffer.c **** 		#if( configASSERT_DEFINED == 1 )
 298:Source\FreeRTOS\10.0.1\Source/stream_buffer.c **** 		{
 299:Source\FreeRTOS\10.0.1\Source/stream_buffer.c **** 			/* Sanity check that the size of the structure used to declare a
 300:Source\FreeRTOS\10.0.1\Source/stream_buffer.c **** 			variable of type StaticStreamBuffer_t equals the size of the real
 301:Source\FreeRTOS\10.0.1\Source/stream_buffer.c **** 			message buffer structure. */
 302:Source\FreeRTOS\10.0.1\Source/stream_buffer.c **** 			volatile size_t xSize = sizeof( StaticStreamBuffer_t );
 303:Source\FreeRTOS\10.0.1\Source/stream_buffer.c **** 			configASSERT( xSize == sizeof( StreamBuffer_t ) );
 304:Source\FreeRTOS\10.0.1\Source/stream_buffer.c **** 		}
 305:Source\FreeRTOS\10.0.1\Source/stream_buffer.c **** 		#endif /* configASSERT_DEFINED */
 306:Source\FreeRTOS\10.0.1\Source/stream_buffer.c **** 
 307:Source\FreeRTOS\10.0.1\Source/stream_buffer.c **** 		if( ( pucStreamBufferStorageArea != NULL ) && ( pxStaticStreamBuffer != NULL ) )
 308:Source\FreeRTOS\10.0.1\Source/stream_buffer.c **** 		{
 309:Source\FreeRTOS\10.0.1\Source/stream_buffer.c **** 			prvInitialiseNewStreamBuffer( pxStreamBuffer,
 310:Source\FreeRTOS\10.0.1\Source/stream_buffer.c **** 										  pucStreamBufferStorageArea,
 311:Source\FreeRTOS\10.0.1\Source/stream_buffer.c **** 										  xBufferSizeBytes,
 312:Source\FreeRTOS\10.0.1\Source/stream_buffer.c **** 										  xTriggerLevelBytes,
 313:Source\FreeRTOS\10.0.1\Source/stream_buffer.c **** 										  xIsMessageBuffer );
 314:Source\FreeRTOS\10.0.1\Source/stream_buffer.c **** 
 315:Source\FreeRTOS\10.0.1\Source/stream_buffer.c **** 			/* Remember this was statically allocated in case it is ever deleted
 316:Source\FreeRTOS\10.0.1\Source/stream_buffer.c **** 			again. */
ARM GAS  C:\Users\Phuong\AppData\Local\Temp\ccnrs5hd.s 			page 7


 317:Source\FreeRTOS\10.0.1\Source/stream_buffer.c **** 			pxStreamBuffer->ucFlags |= sbFLAGS_IS_STATICALLY_ALLOCATED;
 318:Source\FreeRTOS\10.0.1\Source/stream_buffer.c **** 
 319:Source\FreeRTOS\10.0.1\Source/stream_buffer.c **** 			traceSTREAM_BUFFER_CREATE( pxStreamBuffer, xIsMessageBuffer );
 320:Source\FreeRTOS\10.0.1\Source/stream_buffer.c **** 
 321:Source\FreeRTOS\10.0.1\Source/stream_buffer.c **** 			xReturn = ( StreamBufferHandle_t ) pxStaticStreamBuffer; /*lint !e9087 Data hiding requires cast
 322:Source\FreeRTOS\10.0.1\Source/stream_buffer.c **** 		}
 323:Source\FreeRTOS\10.0.1\Source/stream_buffer.c **** 		else
 324:Source\FreeRTOS\10.0.1\Source/stream_buffer.c **** 		{
 325:Source\FreeRTOS\10.0.1\Source/stream_buffer.c **** 			xReturn = NULL;
 326:Source\FreeRTOS\10.0.1\Source/stream_buffer.c **** 			traceSTREAM_BUFFER_CREATE_STATIC_FAILED( xReturn, xIsMessageBuffer );
 327:Source\FreeRTOS\10.0.1\Source/stream_buffer.c **** 		}
 328:Source\FreeRTOS\10.0.1\Source/stream_buffer.c **** 
 329:Source\FreeRTOS\10.0.1\Source/stream_buffer.c **** 		return xReturn;
 330:Source\FreeRTOS\10.0.1\Source/stream_buffer.c **** 	}
 331:Source\FreeRTOS\10.0.1\Source/stream_buffer.c **** 
 332:Source\FreeRTOS\10.0.1\Source/stream_buffer.c **** #endif /* ( configSUPPORT_STATIC_ALLOCATION == 1 ) */
 333:Source\FreeRTOS\10.0.1\Source/stream_buffer.c **** /*-----------------------------------------------------------*/
 334:Source\FreeRTOS\10.0.1\Source/stream_buffer.c **** 
 335:Source\FreeRTOS\10.0.1\Source/stream_buffer.c **** void vStreamBufferDelete( StreamBufferHandle_t xStreamBuffer )
 336:Source\FreeRTOS\10.0.1\Source/stream_buffer.c **** {
 337:Source\FreeRTOS\10.0.1\Source/stream_buffer.c **** StreamBuffer_t * pxStreamBuffer = ( StreamBuffer_t * ) xStreamBuffer; /*lint !e9087 !e9079 Safe cas
 338:Source\FreeRTOS\10.0.1\Source/stream_buffer.c **** 
 339:Source\FreeRTOS\10.0.1\Source/stream_buffer.c **** 	configASSERT( pxStreamBuffer );
 340:Source\FreeRTOS\10.0.1\Source/stream_buffer.c **** 
 341:Source\FreeRTOS\10.0.1\Source/stream_buffer.c **** 	traceSTREAM_BUFFER_DELETE( xStreamBuffer );
 342:Source\FreeRTOS\10.0.1\Source/stream_buffer.c **** 
 343:Source\FreeRTOS\10.0.1\Source/stream_buffer.c **** 	if( ( pxStreamBuffer->ucFlags & sbFLAGS_IS_STATICALLY_ALLOCATED ) == ( uint8_t ) pdFALSE )
 344:Source\FreeRTOS\10.0.1\Source/stream_buffer.c **** 	{
 345:Source\FreeRTOS\10.0.1\Source/stream_buffer.c **** 		#if( configSUPPORT_DYNAMIC_ALLOCATION == 1 )
 346:Source\FreeRTOS\10.0.1\Source/stream_buffer.c **** 		{
 347:Source\FreeRTOS\10.0.1\Source/stream_buffer.c **** 			/* Both the structure and the buffer were allocated using a single call
 348:Source\FreeRTOS\10.0.1\Source/stream_buffer.c **** 			to pvPortMalloc(), hence only one call to vPortFree() is required. */
 349:Source\FreeRTOS\10.0.1\Source/stream_buffer.c **** 			vPortFree( ( void * ) pxStreamBuffer ); /*lint !e9087 Standard free() semantics require void *, 
 350:Source\FreeRTOS\10.0.1\Source/stream_buffer.c **** 		}
 351:Source\FreeRTOS\10.0.1\Source/stream_buffer.c **** 		#else
 352:Source\FreeRTOS\10.0.1\Source/stream_buffer.c **** 		{
 353:Source\FreeRTOS\10.0.1\Source/stream_buffer.c **** 			/* Should not be possible to get here, ucFlags must be corrupt.
 354:Source\FreeRTOS\10.0.1\Source/stream_buffer.c **** 			Force an assert. */
 355:Source\FreeRTOS\10.0.1\Source/stream_buffer.c **** 			configASSERT( xStreamBuffer == ( StreamBufferHandle_t ) ~0 );
 356:Source\FreeRTOS\10.0.1\Source/stream_buffer.c **** 		}
 357:Source\FreeRTOS\10.0.1\Source/stream_buffer.c **** 		#endif
 358:Source\FreeRTOS\10.0.1\Source/stream_buffer.c **** 	}
 359:Source\FreeRTOS\10.0.1\Source/stream_buffer.c **** 	else
 360:Source\FreeRTOS\10.0.1\Source/stream_buffer.c **** 	{
 361:Source\FreeRTOS\10.0.1\Source/stream_buffer.c **** 		/* The structure and buffer were not allocated dynamically and cannot be
 362:Source\FreeRTOS\10.0.1\Source/stream_buffer.c **** 		freed - just scrub the structure so future use will assert. */
 363:Source\FreeRTOS\10.0.1\Source/stream_buffer.c **** 		memset( pxStreamBuffer, 0x00, sizeof( StreamBuffer_t ) );
 364:Source\FreeRTOS\10.0.1\Source/stream_buffer.c **** 	}
 365:Source\FreeRTOS\10.0.1\Source/stream_buffer.c **** }
 366:Source\FreeRTOS\10.0.1\Source/stream_buffer.c **** /*-----------------------------------------------------------*/
 367:Source\FreeRTOS\10.0.1\Source/stream_buffer.c **** 
 368:Source\FreeRTOS\10.0.1\Source/stream_buffer.c **** BaseType_t xStreamBufferReset( StreamBufferHandle_t xStreamBuffer )
 369:Source\FreeRTOS\10.0.1\Source/stream_buffer.c **** {
 370:Source\FreeRTOS\10.0.1\Source/stream_buffer.c **** StreamBuffer_t * const pxStreamBuffer = ( StreamBuffer_t * ) xStreamBuffer; /*lint !e9087 !e9079 Sa
 371:Source\FreeRTOS\10.0.1\Source/stream_buffer.c **** BaseType_t xReturn = pdFAIL, xIsMessageBuffer;
 372:Source\FreeRTOS\10.0.1\Source/stream_buffer.c **** 
 373:Source\FreeRTOS\10.0.1\Source/stream_buffer.c **** #if( configUSE_TRACE_FACILITY == 1 )
ARM GAS  C:\Users\Phuong\AppData\Local\Temp\ccnrs5hd.s 			page 8


 374:Source\FreeRTOS\10.0.1\Source/stream_buffer.c **** 	UBaseType_t uxStreamBufferNumber;
 375:Source\FreeRTOS\10.0.1\Source/stream_buffer.c **** #endif
 376:Source\FreeRTOS\10.0.1\Source/stream_buffer.c **** 
 377:Source\FreeRTOS\10.0.1\Source/stream_buffer.c **** 	configASSERT( pxStreamBuffer );
 378:Source\FreeRTOS\10.0.1\Source/stream_buffer.c **** 
 379:Source\FreeRTOS\10.0.1\Source/stream_buffer.c **** 	#if( configUSE_TRACE_FACILITY == 1 )
 380:Source\FreeRTOS\10.0.1\Source/stream_buffer.c **** 	{
 381:Source\FreeRTOS\10.0.1\Source/stream_buffer.c **** 		/* Store the stream buffer number so it can be restored after the
 382:Source\FreeRTOS\10.0.1\Source/stream_buffer.c **** 		reset. */
 383:Source\FreeRTOS\10.0.1\Source/stream_buffer.c **** 		uxStreamBufferNumber = pxStreamBuffer->uxStreamBufferNumber;
 384:Source\FreeRTOS\10.0.1\Source/stream_buffer.c **** 	}
 385:Source\FreeRTOS\10.0.1\Source/stream_buffer.c **** 	#endif
 386:Source\FreeRTOS\10.0.1\Source/stream_buffer.c **** 
 387:Source\FreeRTOS\10.0.1\Source/stream_buffer.c **** 	/* Can only reset a message buffer if there are no tasks blocked on it. */
 388:Source\FreeRTOS\10.0.1\Source/stream_buffer.c **** 	if( pxStreamBuffer->xTaskWaitingToReceive == NULL )
 389:Source\FreeRTOS\10.0.1\Source/stream_buffer.c **** 	{
 390:Source\FreeRTOS\10.0.1\Source/stream_buffer.c **** 		if( pxStreamBuffer->xTaskWaitingToSend == NULL )
 391:Source\FreeRTOS\10.0.1\Source/stream_buffer.c **** 		{
 392:Source\FreeRTOS\10.0.1\Source/stream_buffer.c **** 			if( ( pxStreamBuffer->ucFlags & sbFLAGS_IS_MESSAGE_BUFFER ) != ( uint8_t ) 0 )
 393:Source\FreeRTOS\10.0.1\Source/stream_buffer.c **** 			{
 394:Source\FreeRTOS\10.0.1\Source/stream_buffer.c **** 				xIsMessageBuffer = pdTRUE;
 395:Source\FreeRTOS\10.0.1\Source/stream_buffer.c **** 			}
 396:Source\FreeRTOS\10.0.1\Source/stream_buffer.c **** 			else
 397:Source\FreeRTOS\10.0.1\Source/stream_buffer.c **** 			{
 398:Source\FreeRTOS\10.0.1\Source/stream_buffer.c **** 				xIsMessageBuffer = pdFALSE;
 399:Source\FreeRTOS\10.0.1\Source/stream_buffer.c **** 			}
 400:Source\FreeRTOS\10.0.1\Source/stream_buffer.c **** 
 401:Source\FreeRTOS\10.0.1\Source/stream_buffer.c **** 			prvInitialiseNewStreamBuffer( pxStreamBuffer,
 402:Source\FreeRTOS\10.0.1\Source/stream_buffer.c **** 										  pxStreamBuffer->pucBuffer,
 403:Source\FreeRTOS\10.0.1\Source/stream_buffer.c **** 										  pxStreamBuffer->xLength,
 404:Source\FreeRTOS\10.0.1\Source/stream_buffer.c **** 										  pxStreamBuffer->xTriggerLevelBytes,
 405:Source\FreeRTOS\10.0.1\Source/stream_buffer.c **** 										  xIsMessageBuffer );
 406:Source\FreeRTOS\10.0.1\Source/stream_buffer.c **** 			xReturn = pdPASS;
 407:Source\FreeRTOS\10.0.1\Source/stream_buffer.c **** 
 408:Source\FreeRTOS\10.0.1\Source/stream_buffer.c **** 			#if( configUSE_TRACE_FACILITY == 1 )
 409:Source\FreeRTOS\10.0.1\Source/stream_buffer.c **** 			{
 410:Source\FreeRTOS\10.0.1\Source/stream_buffer.c **** 				pxStreamBuffer->uxStreamBufferNumber = uxStreamBufferNumber;
 411:Source\FreeRTOS\10.0.1\Source/stream_buffer.c **** 			}
 412:Source\FreeRTOS\10.0.1\Source/stream_buffer.c **** 			#endif
 413:Source\FreeRTOS\10.0.1\Source/stream_buffer.c **** 
 414:Source\FreeRTOS\10.0.1\Source/stream_buffer.c **** 			traceSTREAM_BUFFER_RESET( xStreamBuffer );
 415:Source\FreeRTOS\10.0.1\Source/stream_buffer.c **** 		}
 416:Source\FreeRTOS\10.0.1\Source/stream_buffer.c **** 	}
 417:Source\FreeRTOS\10.0.1\Source/stream_buffer.c **** 
 418:Source\FreeRTOS\10.0.1\Source/stream_buffer.c **** 	return xReturn;
 419:Source\FreeRTOS\10.0.1\Source/stream_buffer.c **** }
 420:Source\FreeRTOS\10.0.1\Source/stream_buffer.c **** /*-----------------------------------------------------------*/
 421:Source\FreeRTOS\10.0.1\Source/stream_buffer.c **** 
 422:Source\FreeRTOS\10.0.1\Source/stream_buffer.c **** BaseType_t xStreamBufferSetTriggerLevel( StreamBufferHandle_t xStreamBuffer, size_t xTriggerLevel )
 423:Source\FreeRTOS\10.0.1\Source/stream_buffer.c **** {
 424:Source\FreeRTOS\10.0.1\Source/stream_buffer.c **** StreamBuffer_t * const pxStreamBuffer = ( StreamBuffer_t * ) xStreamBuffer; /*lint !e9087 !e9079 Sa
 425:Source\FreeRTOS\10.0.1\Source/stream_buffer.c **** BaseType_t xReturn;
 426:Source\FreeRTOS\10.0.1\Source/stream_buffer.c **** 
 427:Source\FreeRTOS\10.0.1\Source/stream_buffer.c **** 	configASSERT( pxStreamBuffer );
 428:Source\FreeRTOS\10.0.1\Source/stream_buffer.c **** 
 429:Source\FreeRTOS\10.0.1\Source/stream_buffer.c **** 	/* It is not valid for the trigger level to be 0. */
 430:Source\FreeRTOS\10.0.1\Source/stream_buffer.c **** 	if( xTriggerLevel == ( size_t ) 0 )
ARM GAS  C:\Users\Phuong\AppData\Local\Temp\ccnrs5hd.s 			page 9


 431:Source\FreeRTOS\10.0.1\Source/stream_buffer.c **** 	{
 432:Source\FreeRTOS\10.0.1\Source/stream_buffer.c **** 		xTriggerLevel = ( size_t ) 1; /*lint !e9044 Parameter modified to ensure it doesn't have a danger
 433:Source\FreeRTOS\10.0.1\Source/stream_buffer.c **** 	}
 434:Source\FreeRTOS\10.0.1\Source/stream_buffer.c **** 
 435:Source\FreeRTOS\10.0.1\Source/stream_buffer.c **** 	/* The trigger level is the number of bytes that must be in the stream
 436:Source\FreeRTOS\10.0.1\Source/stream_buffer.c **** 	buffer before a task that is waiting for data is unblocked. */
 437:Source\FreeRTOS\10.0.1\Source/stream_buffer.c **** 	if( xTriggerLevel <= pxStreamBuffer->xLength )
 438:Source\FreeRTOS\10.0.1\Source/stream_buffer.c **** 	{
 439:Source\FreeRTOS\10.0.1\Source/stream_buffer.c **** 		pxStreamBuffer->xTriggerLevelBytes = xTriggerLevel;
 440:Source\FreeRTOS\10.0.1\Source/stream_buffer.c **** 		xReturn = pdPASS;
 441:Source\FreeRTOS\10.0.1\Source/stream_buffer.c **** 	}
 442:Source\FreeRTOS\10.0.1\Source/stream_buffer.c **** 	else
 443:Source\FreeRTOS\10.0.1\Source/stream_buffer.c **** 	{
 444:Source\FreeRTOS\10.0.1\Source/stream_buffer.c **** 		xReturn = pdFALSE;
 445:Source\FreeRTOS\10.0.1\Source/stream_buffer.c **** 	}
 446:Source\FreeRTOS\10.0.1\Source/stream_buffer.c **** 
 447:Source\FreeRTOS\10.0.1\Source/stream_buffer.c **** 	return xReturn;
 448:Source\FreeRTOS\10.0.1\Source/stream_buffer.c **** }
 449:Source\FreeRTOS\10.0.1\Source/stream_buffer.c **** /*-----------------------------------------------------------*/
 450:Source\FreeRTOS\10.0.1\Source/stream_buffer.c **** 
 451:Source\FreeRTOS\10.0.1\Source/stream_buffer.c **** size_t xStreamBufferSpacesAvailable( StreamBufferHandle_t xStreamBuffer )
 452:Source\FreeRTOS\10.0.1\Source/stream_buffer.c **** {
 453:Source\FreeRTOS\10.0.1\Source/stream_buffer.c **** const StreamBuffer_t * const pxStreamBuffer = ( StreamBuffer_t * ) xStreamBuffer; /*lint !e9087 !e9
 454:Source\FreeRTOS\10.0.1\Source/stream_buffer.c **** size_t xSpace;
 455:Source\FreeRTOS\10.0.1\Source/stream_buffer.c **** 
 456:Source\FreeRTOS\10.0.1\Source/stream_buffer.c **** 	configASSERT( pxStreamBuffer );
 457:Source\FreeRTOS\10.0.1\Source/stream_buffer.c **** 
 458:Source\FreeRTOS\10.0.1\Source/stream_buffer.c **** 	xSpace = pxStreamBuffer->xLength + pxStreamBuffer->xTail;
 459:Source\FreeRTOS\10.0.1\Source/stream_buffer.c **** 	xSpace -= pxStreamBuffer->xHead;
 460:Source\FreeRTOS\10.0.1\Source/stream_buffer.c **** 	xSpace -= ( size_t ) 1;
 461:Source\FreeRTOS\10.0.1\Source/stream_buffer.c **** 
 462:Source\FreeRTOS\10.0.1\Source/stream_buffer.c **** 	if( xSpace >= pxStreamBuffer->xLength )
 463:Source\FreeRTOS\10.0.1\Source/stream_buffer.c **** 	{
 464:Source\FreeRTOS\10.0.1\Source/stream_buffer.c **** 		xSpace -= pxStreamBuffer->xLength;
 465:Source\FreeRTOS\10.0.1\Source/stream_buffer.c **** 	}
 466:Source\FreeRTOS\10.0.1\Source/stream_buffer.c **** 	else
 467:Source\FreeRTOS\10.0.1\Source/stream_buffer.c **** 	{
 468:Source\FreeRTOS\10.0.1\Source/stream_buffer.c **** 		mtCOVERAGE_TEST_MARKER();
 469:Source\FreeRTOS\10.0.1\Source/stream_buffer.c **** 	}
 470:Source\FreeRTOS\10.0.1\Source/stream_buffer.c **** 
 471:Source\FreeRTOS\10.0.1\Source/stream_buffer.c **** 	return xSpace;
 472:Source\FreeRTOS\10.0.1\Source/stream_buffer.c **** }
 473:Source\FreeRTOS\10.0.1\Source/stream_buffer.c **** /*-----------------------------------------------------------*/
 474:Source\FreeRTOS\10.0.1\Source/stream_buffer.c **** 
 475:Source\FreeRTOS\10.0.1\Source/stream_buffer.c **** size_t xStreamBufferBytesAvailable( StreamBufferHandle_t xStreamBuffer )
 476:Source\FreeRTOS\10.0.1\Source/stream_buffer.c **** {
 477:Source\FreeRTOS\10.0.1\Source/stream_buffer.c **** const StreamBuffer_t * const pxStreamBuffer = ( StreamBuffer_t * ) xStreamBuffer; /*lint !e9087 !e9
 478:Source\FreeRTOS\10.0.1\Source/stream_buffer.c **** size_t xReturn;
 479:Source\FreeRTOS\10.0.1\Source/stream_buffer.c **** 
 480:Source\FreeRTOS\10.0.1\Source/stream_buffer.c **** 	configASSERT( pxStreamBuffer );
 481:Source\FreeRTOS\10.0.1\Source/stream_buffer.c **** 
 482:Source\FreeRTOS\10.0.1\Source/stream_buffer.c **** 	xReturn = prvBytesInBuffer( pxStreamBuffer );
 483:Source\FreeRTOS\10.0.1\Source/stream_buffer.c **** 	return xReturn;
 484:Source\FreeRTOS\10.0.1\Source/stream_buffer.c **** }
 485:Source\FreeRTOS\10.0.1\Source/stream_buffer.c **** /*-----------------------------------------------------------*/
 486:Source\FreeRTOS\10.0.1\Source/stream_buffer.c **** 
 487:Source\FreeRTOS\10.0.1\Source/stream_buffer.c **** size_t xStreamBufferSend( StreamBufferHandle_t xStreamBuffer,
ARM GAS  C:\Users\Phuong\AppData\Local\Temp\ccnrs5hd.s 			page 10


 488:Source\FreeRTOS\10.0.1\Source/stream_buffer.c **** 						  const void *pvTxData,
 489:Source\FreeRTOS\10.0.1\Source/stream_buffer.c **** 						  size_t xDataLengthBytes,
 490:Source\FreeRTOS\10.0.1\Source/stream_buffer.c **** 						  TickType_t xTicksToWait )
 491:Source\FreeRTOS\10.0.1\Source/stream_buffer.c **** {
 492:Source\FreeRTOS\10.0.1\Source/stream_buffer.c **** StreamBuffer_t * const pxStreamBuffer = ( StreamBuffer_t * ) xStreamBuffer; /*lint !e9087 !e9079 Sa
 493:Source\FreeRTOS\10.0.1\Source/stream_buffer.c **** size_t xReturn, xSpace = 0;
 494:Source\FreeRTOS\10.0.1\Source/stream_buffer.c **** size_t xRequiredSpace = xDataLengthBytes;
 495:Source\FreeRTOS\10.0.1\Source/stream_buffer.c **** TimeOut_t xTimeOut;
 496:Source\FreeRTOS\10.0.1\Source/stream_buffer.c **** 
 497:Source\FreeRTOS\10.0.1\Source/stream_buffer.c **** 	configASSERT( pvTxData );
 498:Source\FreeRTOS\10.0.1\Source/stream_buffer.c **** 	configASSERT( pxStreamBuffer );
 499:Source\FreeRTOS\10.0.1\Source/stream_buffer.c **** 
 500:Source\FreeRTOS\10.0.1\Source/stream_buffer.c **** 	/* This send function is used to write to both message buffers and stream
 501:Source\FreeRTOS\10.0.1\Source/stream_buffer.c **** 	buffers.  If this is a message buffer then the space needed must be
 502:Source\FreeRTOS\10.0.1\Source/stream_buffer.c **** 	increased by the amount of bytes needed to store the length of the
 503:Source\FreeRTOS\10.0.1\Source/stream_buffer.c **** 	message. */
 504:Source\FreeRTOS\10.0.1\Source/stream_buffer.c **** 	if( ( pxStreamBuffer->ucFlags & sbFLAGS_IS_MESSAGE_BUFFER ) != ( uint8_t ) 0 )
 505:Source\FreeRTOS\10.0.1\Source/stream_buffer.c **** 	{
 506:Source\FreeRTOS\10.0.1\Source/stream_buffer.c **** 		xRequiredSpace += sbBYTES_TO_STORE_MESSAGE_LENGTH;
 507:Source\FreeRTOS\10.0.1\Source/stream_buffer.c **** 	}
 508:Source\FreeRTOS\10.0.1\Source/stream_buffer.c **** 	else
 509:Source\FreeRTOS\10.0.1\Source/stream_buffer.c **** 	{
 510:Source\FreeRTOS\10.0.1\Source/stream_buffer.c **** 		mtCOVERAGE_TEST_MARKER();
 511:Source\FreeRTOS\10.0.1\Source/stream_buffer.c **** 	}
 512:Source\FreeRTOS\10.0.1\Source/stream_buffer.c **** 
 513:Source\FreeRTOS\10.0.1\Source/stream_buffer.c **** 	if( xTicksToWait != ( TickType_t ) 0 )
 514:Source\FreeRTOS\10.0.1\Source/stream_buffer.c **** 	{
 515:Source\FreeRTOS\10.0.1\Source/stream_buffer.c **** 		vTaskSetTimeOutState( &xTimeOut );
 516:Source\FreeRTOS\10.0.1\Source/stream_buffer.c **** 
 517:Source\FreeRTOS\10.0.1\Source/stream_buffer.c **** 		do
 518:Source\FreeRTOS\10.0.1\Source/stream_buffer.c **** 		{
 519:Source\FreeRTOS\10.0.1\Source/stream_buffer.c **** 			/* Wait until the required number of bytes are free in the message
 520:Source\FreeRTOS\10.0.1\Source/stream_buffer.c **** 			buffer. */
 521:Source\FreeRTOS\10.0.1\Source/stream_buffer.c **** 			taskENTER_CRITICAL();
 522:Source\FreeRTOS\10.0.1\Source/stream_buffer.c **** 			{
 523:Source\FreeRTOS\10.0.1\Source/stream_buffer.c **** 				xSpace = xStreamBufferSpacesAvailable( pxStreamBuffer );
 524:Source\FreeRTOS\10.0.1\Source/stream_buffer.c **** 
 525:Source\FreeRTOS\10.0.1\Source/stream_buffer.c **** 				if( xSpace < xRequiredSpace )
 526:Source\FreeRTOS\10.0.1\Source/stream_buffer.c **** 				{
 527:Source\FreeRTOS\10.0.1\Source/stream_buffer.c **** 					/* Clear notification state as going to wait for space. */
 528:Source\FreeRTOS\10.0.1\Source/stream_buffer.c **** 					( void ) xTaskNotifyStateClear( NULL );
 529:Source\FreeRTOS\10.0.1\Source/stream_buffer.c **** 
 530:Source\FreeRTOS\10.0.1\Source/stream_buffer.c **** 					/* Should only be one writer. */
 531:Source\FreeRTOS\10.0.1\Source/stream_buffer.c **** 					configASSERT( pxStreamBuffer->xTaskWaitingToSend == NULL );
 532:Source\FreeRTOS\10.0.1\Source/stream_buffer.c **** 					pxStreamBuffer->xTaskWaitingToSend = xTaskGetCurrentTaskHandle();
 533:Source\FreeRTOS\10.0.1\Source/stream_buffer.c **** 				}
 534:Source\FreeRTOS\10.0.1\Source/stream_buffer.c **** 				else
 535:Source\FreeRTOS\10.0.1\Source/stream_buffer.c **** 				{
 536:Source\FreeRTOS\10.0.1\Source/stream_buffer.c **** 					taskEXIT_CRITICAL();
 537:Source\FreeRTOS\10.0.1\Source/stream_buffer.c **** 					break;
 538:Source\FreeRTOS\10.0.1\Source/stream_buffer.c **** 				}
 539:Source\FreeRTOS\10.0.1\Source/stream_buffer.c **** 			}
 540:Source\FreeRTOS\10.0.1\Source/stream_buffer.c **** 			taskEXIT_CRITICAL();
 541:Source\FreeRTOS\10.0.1\Source/stream_buffer.c **** 
 542:Source\FreeRTOS\10.0.1\Source/stream_buffer.c **** 			traceBLOCKING_ON_STREAM_BUFFER_SEND( xStreamBuffer );
 543:Source\FreeRTOS\10.0.1\Source/stream_buffer.c **** 			( void ) xTaskNotifyWait( ( uint32_t ) 0, UINT32_MAX, NULL, xTicksToWait );
 544:Source\FreeRTOS\10.0.1\Source/stream_buffer.c **** 			pxStreamBuffer->xTaskWaitingToSend = NULL;
ARM GAS  C:\Users\Phuong\AppData\Local\Temp\ccnrs5hd.s 			page 11


 545:Source\FreeRTOS\10.0.1\Source/stream_buffer.c **** 
 546:Source\FreeRTOS\10.0.1\Source/stream_buffer.c **** 		} while( xTaskCheckForTimeOut( &xTimeOut, &xTicksToWait ) == pdFALSE );
 547:Source\FreeRTOS\10.0.1\Source/stream_buffer.c **** 	}
 548:Source\FreeRTOS\10.0.1\Source/stream_buffer.c **** 	else
 549:Source\FreeRTOS\10.0.1\Source/stream_buffer.c **** 	{
 550:Source\FreeRTOS\10.0.1\Source/stream_buffer.c **** 		mtCOVERAGE_TEST_MARKER();
 551:Source\FreeRTOS\10.0.1\Source/stream_buffer.c **** 	}
 552:Source\FreeRTOS\10.0.1\Source/stream_buffer.c **** 
 553:Source\FreeRTOS\10.0.1\Source/stream_buffer.c **** 	if( xSpace == ( size_t ) 0 )
 554:Source\FreeRTOS\10.0.1\Source/stream_buffer.c **** 	{
 555:Source\FreeRTOS\10.0.1\Source/stream_buffer.c **** 		xSpace = xStreamBufferSpacesAvailable( pxStreamBuffer );
 556:Source\FreeRTOS\10.0.1\Source/stream_buffer.c **** 	}
 557:Source\FreeRTOS\10.0.1\Source/stream_buffer.c **** 	else
 558:Source\FreeRTOS\10.0.1\Source/stream_buffer.c **** 	{
 559:Source\FreeRTOS\10.0.1\Source/stream_buffer.c **** 		mtCOVERAGE_TEST_MARKER();
 560:Source\FreeRTOS\10.0.1\Source/stream_buffer.c **** 	}
 561:Source\FreeRTOS\10.0.1\Source/stream_buffer.c **** 
 562:Source\FreeRTOS\10.0.1\Source/stream_buffer.c **** 	xReturn = prvWriteMessageToBuffer( pxStreamBuffer, pvTxData, xDataLengthBytes, xSpace, xRequiredSp
 563:Source\FreeRTOS\10.0.1\Source/stream_buffer.c **** 
 564:Source\FreeRTOS\10.0.1\Source/stream_buffer.c **** 	if( xReturn > ( size_t ) 0 )
 565:Source\FreeRTOS\10.0.1\Source/stream_buffer.c **** 	{
 566:Source\FreeRTOS\10.0.1\Source/stream_buffer.c **** 		traceSTREAM_BUFFER_SEND( xStreamBuffer, xReturn );
 567:Source\FreeRTOS\10.0.1\Source/stream_buffer.c **** 
 568:Source\FreeRTOS\10.0.1\Source/stream_buffer.c **** 		/* Was a task waiting for the data? */
 569:Source\FreeRTOS\10.0.1\Source/stream_buffer.c **** 		if( prvBytesInBuffer( pxStreamBuffer ) >= pxStreamBuffer->xTriggerLevelBytes )
 570:Source\FreeRTOS\10.0.1\Source/stream_buffer.c **** 		{
 571:Source\FreeRTOS\10.0.1\Source/stream_buffer.c **** 			sbSEND_COMPLETED( pxStreamBuffer );
 572:Source\FreeRTOS\10.0.1\Source/stream_buffer.c **** 		}
 573:Source\FreeRTOS\10.0.1\Source/stream_buffer.c **** 		else
 574:Source\FreeRTOS\10.0.1\Source/stream_buffer.c **** 		{
 575:Source\FreeRTOS\10.0.1\Source/stream_buffer.c **** 			mtCOVERAGE_TEST_MARKER();
 576:Source\FreeRTOS\10.0.1\Source/stream_buffer.c **** 		}
 577:Source\FreeRTOS\10.0.1\Source/stream_buffer.c **** 	}
 578:Source\FreeRTOS\10.0.1\Source/stream_buffer.c **** 	else
 579:Source\FreeRTOS\10.0.1\Source/stream_buffer.c **** 	{
 580:Source\FreeRTOS\10.0.1\Source/stream_buffer.c **** 		mtCOVERAGE_TEST_MARKER();
 581:Source\FreeRTOS\10.0.1\Source/stream_buffer.c **** 		traceSTREAM_BUFFER_SEND_FAILED( xStreamBuffer );
 582:Source\FreeRTOS\10.0.1\Source/stream_buffer.c **** 	}
 583:Source\FreeRTOS\10.0.1\Source/stream_buffer.c **** 
 584:Source\FreeRTOS\10.0.1\Source/stream_buffer.c **** 	return xReturn;
 585:Source\FreeRTOS\10.0.1\Source/stream_buffer.c **** }
 586:Source\FreeRTOS\10.0.1\Source/stream_buffer.c **** /*-----------------------------------------------------------*/
 587:Source\FreeRTOS\10.0.1\Source/stream_buffer.c **** 
 588:Source\FreeRTOS\10.0.1\Source/stream_buffer.c **** size_t xStreamBufferSendFromISR( StreamBufferHandle_t xStreamBuffer,
 589:Source\FreeRTOS\10.0.1\Source/stream_buffer.c **** 								 const void *pvTxData,
 590:Source\FreeRTOS\10.0.1\Source/stream_buffer.c **** 								 size_t xDataLengthBytes,
 591:Source\FreeRTOS\10.0.1\Source/stream_buffer.c **** 								 BaseType_t * const pxHigherPriorityTaskWoken )
 592:Source\FreeRTOS\10.0.1\Source/stream_buffer.c **** {
 593:Source\FreeRTOS\10.0.1\Source/stream_buffer.c **** StreamBuffer_t * const pxStreamBuffer = ( StreamBuffer_t * ) xStreamBuffer; /*lint !e9087 !e9079 Sa
 594:Source\FreeRTOS\10.0.1\Source/stream_buffer.c **** size_t xReturn, xSpace;
 595:Source\FreeRTOS\10.0.1\Source/stream_buffer.c **** size_t xRequiredSpace = xDataLengthBytes;
 596:Source\FreeRTOS\10.0.1\Source/stream_buffer.c **** 
 597:Source\FreeRTOS\10.0.1\Source/stream_buffer.c **** 	configASSERT( pvTxData );
 598:Source\FreeRTOS\10.0.1\Source/stream_buffer.c **** 	configASSERT( pxStreamBuffer );
 599:Source\FreeRTOS\10.0.1\Source/stream_buffer.c **** 
 600:Source\FreeRTOS\10.0.1\Source/stream_buffer.c **** 	/* This send function is used to write to both message buffers and stream
 601:Source\FreeRTOS\10.0.1\Source/stream_buffer.c **** 	buffers.  If this is a message buffer then the space needed must be
ARM GAS  C:\Users\Phuong\AppData\Local\Temp\ccnrs5hd.s 			page 12


 602:Source\FreeRTOS\10.0.1\Source/stream_buffer.c **** 	increased by the amount of bytes needed to store the length of the
 603:Source\FreeRTOS\10.0.1\Source/stream_buffer.c **** 	message. */
 604:Source\FreeRTOS\10.0.1\Source/stream_buffer.c **** 	if( ( pxStreamBuffer->ucFlags & sbFLAGS_IS_MESSAGE_BUFFER ) != ( uint8_t ) 0 )
 605:Source\FreeRTOS\10.0.1\Source/stream_buffer.c **** 	{
 606:Source\FreeRTOS\10.0.1\Source/stream_buffer.c **** 		xRequiredSpace += sbBYTES_TO_STORE_MESSAGE_LENGTH;
 607:Source\FreeRTOS\10.0.1\Source/stream_buffer.c **** 	}
 608:Source\FreeRTOS\10.0.1\Source/stream_buffer.c **** 	else
 609:Source\FreeRTOS\10.0.1\Source/stream_buffer.c **** 	{
 610:Source\FreeRTOS\10.0.1\Source/stream_buffer.c **** 		mtCOVERAGE_TEST_MARKER();
 611:Source\FreeRTOS\10.0.1\Source/stream_buffer.c **** 	}
 612:Source\FreeRTOS\10.0.1\Source/stream_buffer.c **** 
 613:Source\FreeRTOS\10.0.1\Source/stream_buffer.c **** 	xSpace = xStreamBufferSpacesAvailable( pxStreamBuffer );
 614:Source\FreeRTOS\10.0.1\Source/stream_buffer.c **** 	xReturn = prvWriteMessageToBuffer( pxStreamBuffer, pvTxData, xDataLengthBytes, xSpace, xRequiredSp
 615:Source\FreeRTOS\10.0.1\Source/stream_buffer.c **** 
 616:Source\FreeRTOS\10.0.1\Source/stream_buffer.c **** 	if( xReturn > ( size_t ) 0 )
 617:Source\FreeRTOS\10.0.1\Source/stream_buffer.c **** 	{
 618:Source\FreeRTOS\10.0.1\Source/stream_buffer.c **** 		/* Was a task waiting for the data? */
 619:Source\FreeRTOS\10.0.1\Source/stream_buffer.c **** 		if( prvBytesInBuffer( pxStreamBuffer ) >= pxStreamBuffer->xTriggerLevelBytes )
 620:Source\FreeRTOS\10.0.1\Source/stream_buffer.c **** 		{
 621:Source\FreeRTOS\10.0.1\Source/stream_buffer.c **** 			sbSEND_COMPLETE_FROM_ISR( pxStreamBuffer, pxHigherPriorityTaskWoken );
 622:Source\FreeRTOS\10.0.1\Source/stream_buffer.c **** 		}
 623:Source\FreeRTOS\10.0.1\Source/stream_buffer.c **** 		else
 624:Source\FreeRTOS\10.0.1\Source/stream_buffer.c **** 		{
 625:Source\FreeRTOS\10.0.1\Source/stream_buffer.c **** 			mtCOVERAGE_TEST_MARKER();
 626:Source\FreeRTOS\10.0.1\Source/stream_buffer.c **** 		}
 627:Source\FreeRTOS\10.0.1\Source/stream_buffer.c **** 	}
 628:Source\FreeRTOS\10.0.1\Source/stream_buffer.c **** 	else
 629:Source\FreeRTOS\10.0.1\Source/stream_buffer.c **** 	{
 630:Source\FreeRTOS\10.0.1\Source/stream_buffer.c **** 		mtCOVERAGE_TEST_MARKER();
 631:Source\FreeRTOS\10.0.1\Source/stream_buffer.c **** 	}
 632:Source\FreeRTOS\10.0.1\Source/stream_buffer.c **** 
 633:Source\FreeRTOS\10.0.1\Source/stream_buffer.c **** 	traceSTREAM_BUFFER_SEND_FROM_ISR( xStreamBuffer, xReturn );
 634:Source\FreeRTOS\10.0.1\Source/stream_buffer.c **** 
 635:Source\FreeRTOS\10.0.1\Source/stream_buffer.c **** 	return xReturn;
 636:Source\FreeRTOS\10.0.1\Source/stream_buffer.c **** }
 637:Source\FreeRTOS\10.0.1\Source/stream_buffer.c **** /*-----------------------------------------------------------*/
 638:Source\FreeRTOS\10.0.1\Source/stream_buffer.c **** 
 639:Source\FreeRTOS\10.0.1\Source/stream_buffer.c **** static size_t prvWriteMessageToBuffer( StreamBuffer_t * const pxStreamBuffer,
 640:Source\FreeRTOS\10.0.1\Source/stream_buffer.c **** 									   const void * pvTxData,
 641:Source\FreeRTOS\10.0.1\Source/stream_buffer.c **** 									   size_t xDataLengthBytes,
 642:Source\FreeRTOS\10.0.1\Source/stream_buffer.c **** 									   size_t xSpace,
 643:Source\FreeRTOS\10.0.1\Source/stream_buffer.c **** 									   size_t xRequiredSpace )
 644:Source\FreeRTOS\10.0.1\Source/stream_buffer.c **** {
 645:Source\FreeRTOS\10.0.1\Source/stream_buffer.c **** 	BaseType_t xShouldWrite;
 646:Source\FreeRTOS\10.0.1\Source/stream_buffer.c **** 	size_t xReturn;
 647:Source\FreeRTOS\10.0.1\Source/stream_buffer.c **** 
 648:Source\FreeRTOS\10.0.1\Source/stream_buffer.c **** 	if( xSpace == ( size_t ) 0 )
 649:Source\FreeRTOS\10.0.1\Source/stream_buffer.c **** 	{
 650:Source\FreeRTOS\10.0.1\Source/stream_buffer.c **** 		/* Doesn't matter if this is a stream buffer or a message buffer, there
 651:Source\FreeRTOS\10.0.1\Source/stream_buffer.c **** 		is no space to write. */
 652:Source\FreeRTOS\10.0.1\Source/stream_buffer.c **** 		xShouldWrite = pdFALSE;
 653:Source\FreeRTOS\10.0.1\Source/stream_buffer.c **** 	}
 654:Source\FreeRTOS\10.0.1\Source/stream_buffer.c **** 	else if( ( pxStreamBuffer->ucFlags & sbFLAGS_IS_MESSAGE_BUFFER ) == ( uint8_t ) 0 )
 655:Source\FreeRTOS\10.0.1\Source/stream_buffer.c **** 	{
 656:Source\FreeRTOS\10.0.1\Source/stream_buffer.c **** 		/* This is a stream buffer, as opposed to a message buffer, so writing a
 657:Source\FreeRTOS\10.0.1\Source/stream_buffer.c **** 		stream of bytes rather than discrete messages.  Write as many bytes as
 658:Source\FreeRTOS\10.0.1\Source/stream_buffer.c **** 		possible. */
ARM GAS  C:\Users\Phuong\AppData\Local\Temp\ccnrs5hd.s 			page 13


 659:Source\FreeRTOS\10.0.1\Source/stream_buffer.c **** 		xShouldWrite = pdTRUE;
 660:Source\FreeRTOS\10.0.1\Source/stream_buffer.c **** 		xDataLengthBytes = configMIN( xDataLengthBytes, xSpace ); /*lint !e9044 Function parameter modifi
 661:Source\FreeRTOS\10.0.1\Source/stream_buffer.c **** 	}
 662:Source\FreeRTOS\10.0.1\Source/stream_buffer.c **** 	else if( xSpace >= xRequiredSpace )
 663:Source\FreeRTOS\10.0.1\Source/stream_buffer.c **** 	{
 664:Source\FreeRTOS\10.0.1\Source/stream_buffer.c **** 		/* This is a message buffer, as opposed to a stream buffer, and there
 665:Source\FreeRTOS\10.0.1\Source/stream_buffer.c **** 		is enough space to write both the message length and the message itself
 666:Source\FreeRTOS\10.0.1\Source/stream_buffer.c **** 		into the buffer.  Start by writing the length of the data, the data
 667:Source\FreeRTOS\10.0.1\Source/stream_buffer.c **** 		itself will be written later in this function. */
 668:Source\FreeRTOS\10.0.1\Source/stream_buffer.c **** 		xShouldWrite = pdTRUE;
 669:Source\FreeRTOS\10.0.1\Source/stream_buffer.c **** 		( void ) prvWriteBytesToBuffer( pxStreamBuffer, ( const uint8_t * ) &( xDataLengthBytes ), sbBYTE
 670:Source\FreeRTOS\10.0.1\Source/stream_buffer.c **** 	}
 671:Source\FreeRTOS\10.0.1\Source/stream_buffer.c **** 	else
 672:Source\FreeRTOS\10.0.1\Source/stream_buffer.c **** 	{
 673:Source\FreeRTOS\10.0.1\Source/stream_buffer.c **** 		/* There is space available, but not enough space. */
 674:Source\FreeRTOS\10.0.1\Source/stream_buffer.c **** 		xShouldWrite = pdFALSE;
 675:Source\FreeRTOS\10.0.1\Source/stream_buffer.c **** 	}
 676:Source\FreeRTOS\10.0.1\Source/stream_buffer.c **** 
 677:Source\FreeRTOS\10.0.1\Source/stream_buffer.c **** 	if( xShouldWrite != pdFALSE )
 678:Source\FreeRTOS\10.0.1\Source/stream_buffer.c **** 	{
 679:Source\FreeRTOS\10.0.1\Source/stream_buffer.c **** 		/* Writes the data itself. */
 680:Source\FreeRTOS\10.0.1\Source/stream_buffer.c **** 		xReturn = prvWriteBytesToBuffer( pxStreamBuffer, ( const uint8_t * ) pvTxData, xDataLengthBytes )
 681:Source\FreeRTOS\10.0.1\Source/stream_buffer.c **** 	}
 682:Source\FreeRTOS\10.0.1\Source/stream_buffer.c **** 	else
 683:Source\FreeRTOS\10.0.1\Source/stream_buffer.c **** 	{
 684:Source\FreeRTOS\10.0.1\Source/stream_buffer.c **** 		xReturn = 0;
 685:Source\FreeRTOS\10.0.1\Source/stream_buffer.c **** 	}
 686:Source\FreeRTOS\10.0.1\Source/stream_buffer.c **** 
 687:Source\FreeRTOS\10.0.1\Source/stream_buffer.c **** 	return xReturn;
 688:Source\FreeRTOS\10.0.1\Source/stream_buffer.c **** }
 689:Source\FreeRTOS\10.0.1\Source/stream_buffer.c **** /*-----------------------------------------------------------*/
 690:Source\FreeRTOS\10.0.1\Source/stream_buffer.c **** 
 691:Source\FreeRTOS\10.0.1\Source/stream_buffer.c **** size_t xStreamBufferReceive( StreamBufferHandle_t xStreamBuffer,
 692:Source\FreeRTOS\10.0.1\Source/stream_buffer.c **** 							 void *pvRxData,
 693:Source\FreeRTOS\10.0.1\Source/stream_buffer.c **** 							 size_t xBufferLengthBytes,
 694:Source\FreeRTOS\10.0.1\Source/stream_buffer.c **** 							 TickType_t xTicksToWait )
 695:Source\FreeRTOS\10.0.1\Source/stream_buffer.c **** {
 696:Source\FreeRTOS\10.0.1\Source/stream_buffer.c **** StreamBuffer_t * const pxStreamBuffer = ( StreamBuffer_t * ) xStreamBuffer; /*lint !e9087 !e9079 Sa
 697:Source\FreeRTOS\10.0.1\Source/stream_buffer.c **** size_t xReceivedLength = 0, xBytesAvailable, xBytesToStoreMessageLength;
 698:Source\FreeRTOS\10.0.1\Source/stream_buffer.c **** 
 699:Source\FreeRTOS\10.0.1\Source/stream_buffer.c **** 	configASSERT( pvRxData );
 700:Source\FreeRTOS\10.0.1\Source/stream_buffer.c **** 	configASSERT( pxStreamBuffer );
 701:Source\FreeRTOS\10.0.1\Source/stream_buffer.c **** 
 702:Source\FreeRTOS\10.0.1\Source/stream_buffer.c **** 	/* This receive function is used by both message buffers, which store
 703:Source\FreeRTOS\10.0.1\Source/stream_buffer.c **** 	discrete messages, and stream buffers, which store a continuous stream of
 704:Source\FreeRTOS\10.0.1\Source/stream_buffer.c **** 	bytes.  Discrete messages include an additional
 705:Source\FreeRTOS\10.0.1\Source/stream_buffer.c **** 	sbBYTES_TO_STORE_MESSAGE_LENGTH bytes that hold the length of the
 706:Source\FreeRTOS\10.0.1\Source/stream_buffer.c **** 	message. */
 707:Source\FreeRTOS\10.0.1\Source/stream_buffer.c **** 	if( ( pxStreamBuffer->ucFlags & sbFLAGS_IS_MESSAGE_BUFFER ) != ( uint8_t ) 0 )
 708:Source\FreeRTOS\10.0.1\Source/stream_buffer.c **** 	{
 709:Source\FreeRTOS\10.0.1\Source/stream_buffer.c **** 		xBytesToStoreMessageLength = sbBYTES_TO_STORE_MESSAGE_LENGTH;
 710:Source\FreeRTOS\10.0.1\Source/stream_buffer.c **** 	}
 711:Source\FreeRTOS\10.0.1\Source/stream_buffer.c **** 	else
 712:Source\FreeRTOS\10.0.1\Source/stream_buffer.c **** 	{
 713:Source\FreeRTOS\10.0.1\Source/stream_buffer.c **** 		xBytesToStoreMessageLength = 0;
 714:Source\FreeRTOS\10.0.1\Source/stream_buffer.c **** 	}
 715:Source\FreeRTOS\10.0.1\Source/stream_buffer.c **** 
ARM GAS  C:\Users\Phuong\AppData\Local\Temp\ccnrs5hd.s 			page 14


 716:Source\FreeRTOS\10.0.1\Source/stream_buffer.c **** 	if( xTicksToWait != ( TickType_t ) 0 )
 717:Source\FreeRTOS\10.0.1\Source/stream_buffer.c **** 	{
 718:Source\FreeRTOS\10.0.1\Source/stream_buffer.c **** 		/* Checking if there is data and clearing the notification state must be
 719:Source\FreeRTOS\10.0.1\Source/stream_buffer.c **** 		performed atomically. */
 720:Source\FreeRTOS\10.0.1\Source/stream_buffer.c **** 		taskENTER_CRITICAL();
 721:Source\FreeRTOS\10.0.1\Source/stream_buffer.c **** 		{
 722:Source\FreeRTOS\10.0.1\Source/stream_buffer.c **** 			xBytesAvailable = prvBytesInBuffer( pxStreamBuffer );
 723:Source\FreeRTOS\10.0.1\Source/stream_buffer.c **** 
 724:Source\FreeRTOS\10.0.1\Source/stream_buffer.c **** 			/* If this function was invoked by a message buffer read then
 725:Source\FreeRTOS\10.0.1\Source/stream_buffer.c **** 			xBytesToStoreMessageLength holds the number of bytes used to hold
 726:Source\FreeRTOS\10.0.1\Source/stream_buffer.c **** 			the length of the next discrete message.  If this function was
 727:Source\FreeRTOS\10.0.1\Source/stream_buffer.c **** 			invoked by a stream buffer read then xBytesToStoreMessageLength will
 728:Source\FreeRTOS\10.0.1\Source/stream_buffer.c **** 			be 0. */
 729:Source\FreeRTOS\10.0.1\Source/stream_buffer.c **** 			if( xBytesAvailable <= xBytesToStoreMessageLength )
 730:Source\FreeRTOS\10.0.1\Source/stream_buffer.c **** 			{
 731:Source\FreeRTOS\10.0.1\Source/stream_buffer.c **** 				/* Clear notification state as going to wait for data. */
 732:Source\FreeRTOS\10.0.1\Source/stream_buffer.c **** 				( void ) xTaskNotifyStateClear( NULL );
 733:Source\FreeRTOS\10.0.1\Source/stream_buffer.c **** 
 734:Source\FreeRTOS\10.0.1\Source/stream_buffer.c **** 				/* Should only be one reader. */
 735:Source\FreeRTOS\10.0.1\Source/stream_buffer.c **** 				configASSERT( pxStreamBuffer->xTaskWaitingToReceive == NULL );
 736:Source\FreeRTOS\10.0.1\Source/stream_buffer.c **** 				pxStreamBuffer->xTaskWaitingToReceive = xTaskGetCurrentTaskHandle();
 737:Source\FreeRTOS\10.0.1\Source/stream_buffer.c **** 			}
 738:Source\FreeRTOS\10.0.1\Source/stream_buffer.c **** 			else
 739:Source\FreeRTOS\10.0.1\Source/stream_buffer.c **** 			{
 740:Source\FreeRTOS\10.0.1\Source/stream_buffer.c **** 				mtCOVERAGE_TEST_MARKER();
 741:Source\FreeRTOS\10.0.1\Source/stream_buffer.c **** 			}
 742:Source\FreeRTOS\10.0.1\Source/stream_buffer.c **** 		}
 743:Source\FreeRTOS\10.0.1\Source/stream_buffer.c **** 		taskEXIT_CRITICAL();
 744:Source\FreeRTOS\10.0.1\Source/stream_buffer.c **** 
 745:Source\FreeRTOS\10.0.1\Source/stream_buffer.c **** 		if( xBytesAvailable <= xBytesToStoreMessageLength )
 746:Source\FreeRTOS\10.0.1\Source/stream_buffer.c **** 		{
 747:Source\FreeRTOS\10.0.1\Source/stream_buffer.c **** 			/* Wait for data to be available. */
 748:Source\FreeRTOS\10.0.1\Source/stream_buffer.c **** 			traceBLOCKING_ON_STREAM_BUFFER_RECEIVE( xStreamBuffer );
 749:Source\FreeRTOS\10.0.1\Source/stream_buffer.c **** 			( void ) xTaskNotifyWait( ( uint32_t ) 0, UINT32_MAX, NULL, xTicksToWait );
 750:Source\FreeRTOS\10.0.1\Source/stream_buffer.c **** 			pxStreamBuffer->xTaskWaitingToReceive = NULL;
 751:Source\FreeRTOS\10.0.1\Source/stream_buffer.c **** 
 752:Source\FreeRTOS\10.0.1\Source/stream_buffer.c **** 			/* Recheck the data available after blocking. */
 753:Source\FreeRTOS\10.0.1\Source/stream_buffer.c **** 			xBytesAvailable = prvBytesInBuffer( pxStreamBuffer );
 754:Source\FreeRTOS\10.0.1\Source/stream_buffer.c **** 		}
 755:Source\FreeRTOS\10.0.1\Source/stream_buffer.c **** 		else
 756:Source\FreeRTOS\10.0.1\Source/stream_buffer.c **** 		{
 757:Source\FreeRTOS\10.0.1\Source/stream_buffer.c **** 			mtCOVERAGE_TEST_MARKER();
 758:Source\FreeRTOS\10.0.1\Source/stream_buffer.c **** 		}
 759:Source\FreeRTOS\10.0.1\Source/stream_buffer.c **** 	}
 760:Source\FreeRTOS\10.0.1\Source/stream_buffer.c **** 	else
 761:Source\FreeRTOS\10.0.1\Source/stream_buffer.c **** 	{
 762:Source\FreeRTOS\10.0.1\Source/stream_buffer.c **** 		xBytesAvailable = prvBytesInBuffer( pxStreamBuffer );
 763:Source\FreeRTOS\10.0.1\Source/stream_buffer.c **** 	}
 764:Source\FreeRTOS\10.0.1\Source/stream_buffer.c **** 
 765:Source\FreeRTOS\10.0.1\Source/stream_buffer.c **** 	/* Whether receiving a discrete message (where xBytesToStoreMessageLength
 766:Source\FreeRTOS\10.0.1\Source/stream_buffer.c **** 	holds the number of bytes used to store the message length) or a stream of
 767:Source\FreeRTOS\10.0.1\Source/stream_buffer.c **** 	bytes (where xBytesToStoreMessageLength is zero), the number of bytes
 768:Source\FreeRTOS\10.0.1\Source/stream_buffer.c **** 	available must be greater than xBytesToStoreMessageLength to be able to
 769:Source\FreeRTOS\10.0.1\Source/stream_buffer.c **** 	read bytes from the buffer. */
 770:Source\FreeRTOS\10.0.1\Source/stream_buffer.c **** 	if( xBytesAvailable > xBytesToStoreMessageLength )
 771:Source\FreeRTOS\10.0.1\Source/stream_buffer.c **** 	{
 772:Source\FreeRTOS\10.0.1\Source/stream_buffer.c **** 		xReceivedLength = prvReadMessageFromBuffer( pxStreamBuffer, pvRxData, xBufferLengthBytes, xBytesA
ARM GAS  C:\Users\Phuong\AppData\Local\Temp\ccnrs5hd.s 			page 15


 773:Source\FreeRTOS\10.0.1\Source/stream_buffer.c **** 
 774:Source\FreeRTOS\10.0.1\Source/stream_buffer.c **** 		/* Was a task waiting for space in the buffer? */
 775:Source\FreeRTOS\10.0.1\Source/stream_buffer.c **** 		if( xReceivedLength != ( size_t ) 0 )
 776:Source\FreeRTOS\10.0.1\Source/stream_buffer.c **** 		{
 777:Source\FreeRTOS\10.0.1\Source/stream_buffer.c **** 			traceSTREAM_BUFFER_RECEIVE( xStreamBuffer, xReceivedLength );
 778:Source\FreeRTOS\10.0.1\Source/stream_buffer.c **** 			sbRECEIVE_COMPLETED( pxStreamBuffer );
 779:Source\FreeRTOS\10.0.1\Source/stream_buffer.c **** 		}
 780:Source\FreeRTOS\10.0.1\Source/stream_buffer.c **** 		else
 781:Source\FreeRTOS\10.0.1\Source/stream_buffer.c **** 		{
 782:Source\FreeRTOS\10.0.1\Source/stream_buffer.c **** 			mtCOVERAGE_TEST_MARKER();
 783:Source\FreeRTOS\10.0.1\Source/stream_buffer.c **** 		}
 784:Source\FreeRTOS\10.0.1\Source/stream_buffer.c **** 	}
 785:Source\FreeRTOS\10.0.1\Source/stream_buffer.c **** 	else
 786:Source\FreeRTOS\10.0.1\Source/stream_buffer.c **** 	{
 787:Source\FreeRTOS\10.0.1\Source/stream_buffer.c **** 		traceSTREAM_BUFFER_RECEIVE_FAILED( xStreamBuffer );
 788:Source\FreeRTOS\10.0.1\Source/stream_buffer.c **** 		mtCOVERAGE_TEST_MARKER();
 789:Source\FreeRTOS\10.0.1\Source/stream_buffer.c **** 	}
 790:Source\FreeRTOS\10.0.1\Source/stream_buffer.c **** 
 791:Source\FreeRTOS\10.0.1\Source/stream_buffer.c **** 	return xReceivedLength;
 792:Source\FreeRTOS\10.0.1\Source/stream_buffer.c **** }
 793:Source\FreeRTOS\10.0.1\Source/stream_buffer.c **** /*-----------------------------------------------------------*/
 794:Source\FreeRTOS\10.0.1\Source/stream_buffer.c **** 
 795:Source\FreeRTOS\10.0.1\Source/stream_buffer.c **** size_t xStreamBufferReceiveFromISR( StreamBufferHandle_t xStreamBuffer,
 796:Source\FreeRTOS\10.0.1\Source/stream_buffer.c **** 									void *pvRxData,
 797:Source\FreeRTOS\10.0.1\Source/stream_buffer.c **** 									size_t xBufferLengthBytes,
 798:Source\FreeRTOS\10.0.1\Source/stream_buffer.c **** 									BaseType_t * const pxHigherPriorityTaskWoken )
 799:Source\FreeRTOS\10.0.1\Source/stream_buffer.c **** {
 800:Source\FreeRTOS\10.0.1\Source/stream_buffer.c **** StreamBuffer_t * const pxStreamBuffer = ( StreamBuffer_t * ) xStreamBuffer; /*lint !e9087 !e9079 Sa
 801:Source\FreeRTOS\10.0.1\Source/stream_buffer.c **** size_t xReceivedLength = 0, xBytesAvailable, xBytesToStoreMessageLength;
 802:Source\FreeRTOS\10.0.1\Source/stream_buffer.c **** 
 803:Source\FreeRTOS\10.0.1\Source/stream_buffer.c **** 	configASSERT( pvRxData );
 804:Source\FreeRTOS\10.0.1\Source/stream_buffer.c **** 	configASSERT( pxStreamBuffer );
 805:Source\FreeRTOS\10.0.1\Source/stream_buffer.c **** 
 806:Source\FreeRTOS\10.0.1\Source/stream_buffer.c **** 	/* This receive function is used by both message buffers, which store
 807:Source\FreeRTOS\10.0.1\Source/stream_buffer.c **** 	discrete messages, and stream buffers, which store a continuous stream of
 808:Source\FreeRTOS\10.0.1\Source/stream_buffer.c **** 	bytes.  Discrete messages include an additional
 809:Source\FreeRTOS\10.0.1\Source/stream_buffer.c **** 	sbBYTES_TO_STORE_MESSAGE_LENGTH bytes that hold the length of the
 810:Source\FreeRTOS\10.0.1\Source/stream_buffer.c **** 	message. */
 811:Source\FreeRTOS\10.0.1\Source/stream_buffer.c **** 	if( ( pxStreamBuffer->ucFlags & sbFLAGS_IS_MESSAGE_BUFFER ) != ( uint8_t ) 0 )
 812:Source\FreeRTOS\10.0.1\Source/stream_buffer.c **** 	{
 813:Source\FreeRTOS\10.0.1\Source/stream_buffer.c **** 		xBytesToStoreMessageLength = sbBYTES_TO_STORE_MESSAGE_LENGTH;
 814:Source\FreeRTOS\10.0.1\Source/stream_buffer.c **** 	}
 815:Source\FreeRTOS\10.0.1\Source/stream_buffer.c **** 	else
 816:Source\FreeRTOS\10.0.1\Source/stream_buffer.c **** 	{
 817:Source\FreeRTOS\10.0.1\Source/stream_buffer.c **** 		xBytesToStoreMessageLength = 0;
 818:Source\FreeRTOS\10.0.1\Source/stream_buffer.c **** 	}
 819:Source\FreeRTOS\10.0.1\Source/stream_buffer.c **** 
 820:Source\FreeRTOS\10.0.1\Source/stream_buffer.c **** 	xBytesAvailable = prvBytesInBuffer( pxStreamBuffer );
 821:Source\FreeRTOS\10.0.1\Source/stream_buffer.c **** 
 822:Source\FreeRTOS\10.0.1\Source/stream_buffer.c **** 	/* Whether receiving a discrete message (where xBytesToStoreMessageLength
 823:Source\FreeRTOS\10.0.1\Source/stream_buffer.c **** 	holds the number of bytes used to store the message length) or a stream of
 824:Source\FreeRTOS\10.0.1\Source/stream_buffer.c **** 	bytes (where xBytesToStoreMessageLength is zero), the number of bytes
 825:Source\FreeRTOS\10.0.1\Source/stream_buffer.c **** 	available must be greater than xBytesToStoreMessageLength to be able to
 826:Source\FreeRTOS\10.0.1\Source/stream_buffer.c **** 	read bytes from the buffer. */
 827:Source\FreeRTOS\10.0.1\Source/stream_buffer.c **** 	if( xBytesAvailable > xBytesToStoreMessageLength )
 828:Source\FreeRTOS\10.0.1\Source/stream_buffer.c **** 	{
 829:Source\FreeRTOS\10.0.1\Source/stream_buffer.c **** 		xReceivedLength = prvReadMessageFromBuffer( pxStreamBuffer, pvRxData, xBufferLengthBytes, xBytesA
ARM GAS  C:\Users\Phuong\AppData\Local\Temp\ccnrs5hd.s 			page 16


 830:Source\FreeRTOS\10.0.1\Source/stream_buffer.c **** 
 831:Source\FreeRTOS\10.0.1\Source/stream_buffer.c **** 		/* Was a task waiting for space in the buffer? */
 832:Source\FreeRTOS\10.0.1\Source/stream_buffer.c **** 		if( xReceivedLength != ( size_t ) 0 )
 833:Source\FreeRTOS\10.0.1\Source/stream_buffer.c **** 		{
 834:Source\FreeRTOS\10.0.1\Source/stream_buffer.c **** 			sbRECEIVE_COMPLETED_FROM_ISR( pxStreamBuffer, pxHigherPriorityTaskWoken );
 835:Source\FreeRTOS\10.0.1\Source/stream_buffer.c **** 		}
 836:Source\FreeRTOS\10.0.1\Source/stream_buffer.c **** 		else
 837:Source\FreeRTOS\10.0.1\Source/stream_buffer.c **** 		{
 838:Source\FreeRTOS\10.0.1\Source/stream_buffer.c **** 			mtCOVERAGE_TEST_MARKER();
 839:Source\FreeRTOS\10.0.1\Source/stream_buffer.c **** 		}
 840:Source\FreeRTOS\10.0.1\Source/stream_buffer.c **** 	}
 841:Source\FreeRTOS\10.0.1\Source/stream_buffer.c **** 	else
 842:Source\FreeRTOS\10.0.1\Source/stream_buffer.c **** 	{
 843:Source\FreeRTOS\10.0.1\Source/stream_buffer.c **** 		mtCOVERAGE_TEST_MARKER();
 844:Source\FreeRTOS\10.0.1\Source/stream_buffer.c **** 	}
 845:Source\FreeRTOS\10.0.1\Source/stream_buffer.c **** 
 846:Source\FreeRTOS\10.0.1\Source/stream_buffer.c **** 	traceSTREAM_BUFFER_RECEIVE_FROM_ISR( xStreamBuffer, xReceivedLength );
 847:Source\FreeRTOS\10.0.1\Source/stream_buffer.c **** 
 848:Source\FreeRTOS\10.0.1\Source/stream_buffer.c **** 	return xReceivedLength;
 849:Source\FreeRTOS\10.0.1\Source/stream_buffer.c **** }
 850:Source\FreeRTOS\10.0.1\Source/stream_buffer.c **** /*-----------------------------------------------------------*/
 851:Source\FreeRTOS\10.0.1\Source/stream_buffer.c **** 
 852:Source\FreeRTOS\10.0.1\Source/stream_buffer.c **** static size_t prvReadMessageFromBuffer( StreamBuffer_t *pxStreamBuffer,
 853:Source\FreeRTOS\10.0.1\Source/stream_buffer.c **** 										void *pvRxData,
 854:Source\FreeRTOS\10.0.1\Source/stream_buffer.c **** 										size_t xBufferLengthBytes,
 855:Source\FreeRTOS\10.0.1\Source/stream_buffer.c **** 										size_t xBytesAvailable,
 856:Source\FreeRTOS\10.0.1\Source/stream_buffer.c **** 										size_t xBytesToStoreMessageLength )
 857:Source\FreeRTOS\10.0.1\Source/stream_buffer.c **** {
 858:Source\FreeRTOS\10.0.1\Source/stream_buffer.c **** size_t xOriginalTail, xReceivedLength, xNextMessageLength;
 859:Source\FreeRTOS\10.0.1\Source/stream_buffer.c **** 
 860:Source\FreeRTOS\10.0.1\Source/stream_buffer.c **** 	if( xBytesToStoreMessageLength != ( size_t ) 0 )
 861:Source\FreeRTOS\10.0.1\Source/stream_buffer.c **** 	{
 862:Source\FreeRTOS\10.0.1\Source/stream_buffer.c **** 		/* A discrete message is being received.  First receive the length
 863:Source\FreeRTOS\10.0.1\Source/stream_buffer.c **** 		of the message.  A copy of the tail is stored so the buffer can be
 864:Source\FreeRTOS\10.0.1\Source/stream_buffer.c **** 		returned to its prior state if the length of the message is too
 865:Source\FreeRTOS\10.0.1\Source/stream_buffer.c **** 		large for the provided buffer. */
 866:Source\FreeRTOS\10.0.1\Source/stream_buffer.c **** 		xOriginalTail = pxStreamBuffer->xTail;
 867:Source\FreeRTOS\10.0.1\Source/stream_buffer.c **** 		( void ) prvReadBytesFromBuffer( pxStreamBuffer, ( uint8_t * ) &xNextMessageLength, xBytesToStore
 868:Source\FreeRTOS\10.0.1\Source/stream_buffer.c **** 
 869:Source\FreeRTOS\10.0.1\Source/stream_buffer.c **** 		/* Reduce the number of bytes available by the number of bytes just
 870:Source\FreeRTOS\10.0.1\Source/stream_buffer.c **** 		read out. */
 871:Source\FreeRTOS\10.0.1\Source/stream_buffer.c **** 		xBytesAvailable -= xBytesToStoreMessageLength;
 872:Source\FreeRTOS\10.0.1\Source/stream_buffer.c **** 
 873:Source\FreeRTOS\10.0.1\Source/stream_buffer.c **** 		/* Check there is enough space in the buffer provided by the
 874:Source\FreeRTOS\10.0.1\Source/stream_buffer.c **** 		user. */
 875:Source\FreeRTOS\10.0.1\Source/stream_buffer.c **** 		if( xNextMessageLength > xBufferLengthBytes )
 876:Source\FreeRTOS\10.0.1\Source/stream_buffer.c **** 		{
 877:Source\FreeRTOS\10.0.1\Source/stream_buffer.c **** 			/* The user has provided insufficient space to read the message
 878:Source\FreeRTOS\10.0.1\Source/stream_buffer.c **** 			so return the buffer to its previous state (so the length of
 879:Source\FreeRTOS\10.0.1\Source/stream_buffer.c **** 			the message is in the buffer again). */
 880:Source\FreeRTOS\10.0.1\Source/stream_buffer.c **** 			pxStreamBuffer->xTail = xOriginalTail;
 881:Source\FreeRTOS\10.0.1\Source/stream_buffer.c **** 			xNextMessageLength = 0;
 882:Source\FreeRTOS\10.0.1\Source/stream_buffer.c **** 		}
 883:Source\FreeRTOS\10.0.1\Source/stream_buffer.c **** 		else
 884:Source\FreeRTOS\10.0.1\Source/stream_buffer.c **** 		{
 885:Source\FreeRTOS\10.0.1\Source/stream_buffer.c **** 			mtCOVERAGE_TEST_MARKER();
 886:Source\FreeRTOS\10.0.1\Source/stream_buffer.c **** 		}
ARM GAS  C:\Users\Phuong\AppData\Local\Temp\ccnrs5hd.s 			page 17


 887:Source\FreeRTOS\10.0.1\Source/stream_buffer.c **** 	}
 888:Source\FreeRTOS\10.0.1\Source/stream_buffer.c **** 	else
 889:Source\FreeRTOS\10.0.1\Source/stream_buffer.c **** 	{
 890:Source\FreeRTOS\10.0.1\Source/stream_buffer.c **** 		/* A stream of bytes is being received (as opposed to a discrete
 891:Source\FreeRTOS\10.0.1\Source/stream_buffer.c **** 		message), so read as many bytes as possible. */
 892:Source\FreeRTOS\10.0.1\Source/stream_buffer.c **** 		xNextMessageLength = xBufferLengthBytes;
 893:Source\FreeRTOS\10.0.1\Source/stream_buffer.c **** 	}
 894:Source\FreeRTOS\10.0.1\Source/stream_buffer.c **** 
 895:Source\FreeRTOS\10.0.1\Source/stream_buffer.c **** 	/* Read the actual data. */
 896:Source\FreeRTOS\10.0.1\Source/stream_buffer.c **** 	xReceivedLength = prvReadBytesFromBuffer( pxStreamBuffer, ( uint8_t * ) pvRxData, xNextMessageLeng
 897:Source\FreeRTOS\10.0.1\Source/stream_buffer.c **** 
 898:Source\FreeRTOS\10.0.1\Source/stream_buffer.c **** 	return xReceivedLength;
 899:Source\FreeRTOS\10.0.1\Source/stream_buffer.c **** }
 900:Source\FreeRTOS\10.0.1\Source/stream_buffer.c **** /*-----------------------------------------------------------*/
 901:Source\FreeRTOS\10.0.1\Source/stream_buffer.c **** 
 902:Source\FreeRTOS\10.0.1\Source/stream_buffer.c **** BaseType_t xStreamBufferIsEmpty( StreamBufferHandle_t xStreamBuffer )
 903:Source\FreeRTOS\10.0.1\Source/stream_buffer.c **** {
 904:Source\FreeRTOS\10.0.1\Source/stream_buffer.c **** const StreamBuffer_t * const pxStreamBuffer = ( StreamBuffer_t * ) xStreamBuffer; /*lint !e9087 !e9
 905:Source\FreeRTOS\10.0.1\Source/stream_buffer.c **** BaseType_t xReturn;
 906:Source\FreeRTOS\10.0.1\Source/stream_buffer.c **** size_t xTail;
 907:Source\FreeRTOS\10.0.1\Source/stream_buffer.c **** 
 908:Source\FreeRTOS\10.0.1\Source/stream_buffer.c **** 	configASSERT( pxStreamBuffer );
 909:Source\FreeRTOS\10.0.1\Source/stream_buffer.c **** 
 910:Source\FreeRTOS\10.0.1\Source/stream_buffer.c **** 	/* True if no bytes are available. */
 911:Source\FreeRTOS\10.0.1\Source/stream_buffer.c **** 	xTail = pxStreamBuffer->xTail;
 912:Source\FreeRTOS\10.0.1\Source/stream_buffer.c **** 	if( pxStreamBuffer->xHead == xTail )
 913:Source\FreeRTOS\10.0.1\Source/stream_buffer.c **** 	{
 914:Source\FreeRTOS\10.0.1\Source/stream_buffer.c **** 		xReturn = pdTRUE;
 915:Source\FreeRTOS\10.0.1\Source/stream_buffer.c **** 	}
 916:Source\FreeRTOS\10.0.1\Source/stream_buffer.c **** 	else
 917:Source\FreeRTOS\10.0.1\Source/stream_buffer.c **** 	{
 918:Source\FreeRTOS\10.0.1\Source/stream_buffer.c **** 		xReturn = pdFALSE;
 919:Source\FreeRTOS\10.0.1\Source/stream_buffer.c **** 	}
 920:Source\FreeRTOS\10.0.1\Source/stream_buffer.c **** 
 921:Source\FreeRTOS\10.0.1\Source/stream_buffer.c **** 	return xReturn;
 922:Source\FreeRTOS\10.0.1\Source/stream_buffer.c **** }
 923:Source\FreeRTOS\10.0.1\Source/stream_buffer.c **** /*-----------------------------------------------------------*/
 924:Source\FreeRTOS\10.0.1\Source/stream_buffer.c **** 
 925:Source\FreeRTOS\10.0.1\Source/stream_buffer.c **** BaseType_t xStreamBufferIsFull( StreamBufferHandle_t xStreamBuffer )
 926:Source\FreeRTOS\10.0.1\Source/stream_buffer.c **** {
 927:Source\FreeRTOS\10.0.1\Source/stream_buffer.c **** BaseType_t xReturn;
 928:Source\FreeRTOS\10.0.1\Source/stream_buffer.c **** size_t xBytesToStoreMessageLength;
 929:Source\FreeRTOS\10.0.1\Source/stream_buffer.c **** const StreamBuffer_t * const pxStreamBuffer = ( StreamBuffer_t * ) xStreamBuffer; /*lint !e9087 !e9
 930:Source\FreeRTOS\10.0.1\Source/stream_buffer.c **** 
 931:Source\FreeRTOS\10.0.1\Source/stream_buffer.c **** 	configASSERT( pxStreamBuffer );
 932:Source\FreeRTOS\10.0.1\Source/stream_buffer.c **** 
 933:Source\FreeRTOS\10.0.1\Source/stream_buffer.c **** 	/* This generic version of the receive function is used by both message
 934:Source\FreeRTOS\10.0.1\Source/stream_buffer.c **** 	buffers, which store discrete messages, and stream buffers, which store a
 935:Source\FreeRTOS\10.0.1\Source/stream_buffer.c **** 	continuous stream of bytes.  Discrete messages include an additional
 936:Source\FreeRTOS\10.0.1\Source/stream_buffer.c **** 	sbBYTES_TO_STORE_MESSAGE_LENGTH bytes that hold the length of the message. */
 937:Source\FreeRTOS\10.0.1\Source/stream_buffer.c **** 	if( ( pxStreamBuffer->ucFlags & sbFLAGS_IS_MESSAGE_BUFFER ) != ( uint8_t ) 0 )
 938:Source\FreeRTOS\10.0.1\Source/stream_buffer.c **** 	{
 939:Source\FreeRTOS\10.0.1\Source/stream_buffer.c **** 		xBytesToStoreMessageLength = sbBYTES_TO_STORE_MESSAGE_LENGTH;
 940:Source\FreeRTOS\10.0.1\Source/stream_buffer.c **** 	}
 941:Source\FreeRTOS\10.0.1\Source/stream_buffer.c **** 	else
 942:Source\FreeRTOS\10.0.1\Source/stream_buffer.c **** 	{
 943:Source\FreeRTOS\10.0.1\Source/stream_buffer.c **** 		xBytesToStoreMessageLength = 0;
ARM GAS  C:\Users\Phuong\AppData\Local\Temp\ccnrs5hd.s 			page 18


 944:Source\FreeRTOS\10.0.1\Source/stream_buffer.c **** 	}
 945:Source\FreeRTOS\10.0.1\Source/stream_buffer.c **** 
 946:Source\FreeRTOS\10.0.1\Source/stream_buffer.c **** 	/* True if the available space equals zero. */
 947:Source\FreeRTOS\10.0.1\Source/stream_buffer.c **** 	if( xStreamBufferSpacesAvailable( xStreamBuffer ) <= xBytesToStoreMessageLength )
 948:Source\FreeRTOS\10.0.1\Source/stream_buffer.c **** 	{
 949:Source\FreeRTOS\10.0.1\Source/stream_buffer.c **** 		xReturn = pdTRUE;
 950:Source\FreeRTOS\10.0.1\Source/stream_buffer.c **** 	}
 951:Source\FreeRTOS\10.0.1\Source/stream_buffer.c **** 	else
 952:Source\FreeRTOS\10.0.1\Source/stream_buffer.c **** 	{
 953:Source\FreeRTOS\10.0.1\Source/stream_buffer.c **** 		xReturn = pdFALSE;
 954:Source\FreeRTOS\10.0.1\Source/stream_buffer.c **** 	}
 955:Source\FreeRTOS\10.0.1\Source/stream_buffer.c **** 
 956:Source\FreeRTOS\10.0.1\Source/stream_buffer.c **** 	return xReturn;
 957:Source\FreeRTOS\10.0.1\Source/stream_buffer.c **** }
 958:Source\FreeRTOS\10.0.1\Source/stream_buffer.c **** /*-----------------------------------------------------------*/
 959:Source\FreeRTOS\10.0.1\Source/stream_buffer.c **** 
 960:Source\FreeRTOS\10.0.1\Source/stream_buffer.c **** BaseType_t xStreamBufferSendCompletedFromISR( StreamBufferHandle_t xStreamBuffer, BaseType_t *pxHig
 961:Source\FreeRTOS\10.0.1\Source/stream_buffer.c **** {
 962:Source\FreeRTOS\10.0.1\Source/stream_buffer.c **** StreamBuffer_t * const pxStreamBuffer = ( StreamBuffer_t * ) xStreamBuffer; /*lint !e9087 !e9079 Sa
 963:Source\FreeRTOS\10.0.1\Source/stream_buffer.c **** BaseType_t xReturn;
 964:Source\FreeRTOS\10.0.1\Source/stream_buffer.c **** UBaseType_t uxSavedInterruptStatus;
 965:Source\FreeRTOS\10.0.1\Source/stream_buffer.c **** 
 966:Source\FreeRTOS\10.0.1\Source/stream_buffer.c **** 	configASSERT( pxStreamBuffer );
 967:Source\FreeRTOS\10.0.1\Source/stream_buffer.c **** 
 968:Source\FreeRTOS\10.0.1\Source/stream_buffer.c **** 	uxSavedInterruptStatus = ( UBaseType_t ) portSET_INTERRUPT_MASK_FROM_ISR();
 969:Source\FreeRTOS\10.0.1\Source/stream_buffer.c **** 	{
 970:Source\FreeRTOS\10.0.1\Source/stream_buffer.c **** 		if( ( pxStreamBuffer )->xTaskWaitingToReceive != NULL )
 971:Source\FreeRTOS\10.0.1\Source/stream_buffer.c **** 		{
 972:Source\FreeRTOS\10.0.1\Source/stream_buffer.c **** 			( void ) xTaskNotifyFromISR( ( pxStreamBuffer )->xTaskWaitingToReceive,
 973:Source\FreeRTOS\10.0.1\Source/stream_buffer.c **** 										 ( uint32_t ) 0,
 974:Source\FreeRTOS\10.0.1\Source/stream_buffer.c **** 										 eNoAction,
 975:Source\FreeRTOS\10.0.1\Source/stream_buffer.c **** 										 pxHigherPriorityTaskWoken );
 976:Source\FreeRTOS\10.0.1\Source/stream_buffer.c **** 			( pxStreamBuffer )->xTaskWaitingToReceive = NULL;
 977:Source\FreeRTOS\10.0.1\Source/stream_buffer.c **** 			xReturn = pdTRUE;
 978:Source\FreeRTOS\10.0.1\Source/stream_buffer.c **** 		}
 979:Source\FreeRTOS\10.0.1\Source/stream_buffer.c **** 		else
 980:Source\FreeRTOS\10.0.1\Source/stream_buffer.c **** 		{
 981:Source\FreeRTOS\10.0.1\Source/stream_buffer.c **** 			xReturn = pdFALSE;
 982:Source\FreeRTOS\10.0.1\Source/stream_buffer.c **** 		}
 983:Source\FreeRTOS\10.0.1\Source/stream_buffer.c **** 	}
 984:Source\FreeRTOS\10.0.1\Source/stream_buffer.c **** 	portCLEAR_INTERRUPT_MASK_FROM_ISR( uxSavedInterruptStatus );
 985:Source\FreeRTOS\10.0.1\Source/stream_buffer.c **** 
 986:Source\FreeRTOS\10.0.1\Source/stream_buffer.c **** 	return xReturn;
 987:Source\FreeRTOS\10.0.1\Source/stream_buffer.c **** }
 988:Source\FreeRTOS\10.0.1\Source/stream_buffer.c **** /*-----------------------------------------------------------*/
 989:Source\FreeRTOS\10.0.1\Source/stream_buffer.c **** 
 990:Source\FreeRTOS\10.0.1\Source/stream_buffer.c **** BaseType_t xStreamBufferReceiveCompletedFromISR( StreamBufferHandle_t xStreamBuffer, BaseType_t *px
 991:Source\FreeRTOS\10.0.1\Source/stream_buffer.c **** {
 992:Source\FreeRTOS\10.0.1\Source/stream_buffer.c **** StreamBuffer_t * const pxStreamBuffer = ( StreamBuffer_t * ) xStreamBuffer; /*lint !e9087 !e9079 Sa
 993:Source\FreeRTOS\10.0.1\Source/stream_buffer.c **** BaseType_t xReturn;
 994:Source\FreeRTOS\10.0.1\Source/stream_buffer.c **** UBaseType_t uxSavedInterruptStatus;
 995:Source\FreeRTOS\10.0.1\Source/stream_buffer.c **** 
 996:Source\FreeRTOS\10.0.1\Source/stream_buffer.c **** 	configASSERT( pxStreamBuffer );
 997:Source\FreeRTOS\10.0.1\Source/stream_buffer.c **** 
 998:Source\FreeRTOS\10.0.1\Source/stream_buffer.c **** 	uxSavedInterruptStatus = ( UBaseType_t ) portSET_INTERRUPT_MASK_FROM_ISR();
 999:Source\FreeRTOS\10.0.1\Source/stream_buffer.c **** 	{
1000:Source\FreeRTOS\10.0.1\Source/stream_buffer.c **** 		if( ( pxStreamBuffer )->xTaskWaitingToSend != NULL )
ARM GAS  C:\Users\Phuong\AppData\Local\Temp\ccnrs5hd.s 			page 19


1001:Source\FreeRTOS\10.0.1\Source/stream_buffer.c **** 		{
1002:Source\FreeRTOS\10.0.1\Source/stream_buffer.c **** 			( void ) xTaskNotifyFromISR( ( pxStreamBuffer )->xTaskWaitingToSend,
1003:Source\FreeRTOS\10.0.1\Source/stream_buffer.c **** 										 ( uint32_t ) 0,
1004:Source\FreeRTOS\10.0.1\Source/stream_buffer.c **** 										 eNoAction,
1005:Source\FreeRTOS\10.0.1\Source/stream_buffer.c **** 										 pxHigherPriorityTaskWoken );
1006:Source\FreeRTOS\10.0.1\Source/stream_buffer.c **** 			( pxStreamBuffer )->xTaskWaitingToSend = NULL;
1007:Source\FreeRTOS\10.0.1\Source/stream_buffer.c **** 			xReturn = pdTRUE;
1008:Source\FreeRTOS\10.0.1\Source/stream_buffer.c **** 		}
1009:Source\FreeRTOS\10.0.1\Source/stream_buffer.c **** 		else
1010:Source\FreeRTOS\10.0.1\Source/stream_buffer.c **** 		{
1011:Source\FreeRTOS\10.0.1\Source/stream_buffer.c **** 			xReturn = pdFALSE;
1012:Source\FreeRTOS\10.0.1\Source/stream_buffer.c **** 		}
1013:Source\FreeRTOS\10.0.1\Source/stream_buffer.c **** 	}
1014:Source\FreeRTOS\10.0.1\Source/stream_buffer.c **** 	portCLEAR_INTERRUPT_MASK_FROM_ISR( uxSavedInterruptStatus );
1015:Source\FreeRTOS\10.0.1\Source/stream_buffer.c **** 
1016:Source\FreeRTOS\10.0.1\Source/stream_buffer.c **** 	return xReturn;
1017:Source\FreeRTOS\10.0.1\Source/stream_buffer.c **** }
1018:Source\FreeRTOS\10.0.1\Source/stream_buffer.c **** /*-----------------------------------------------------------*/
1019:Source\FreeRTOS\10.0.1\Source/stream_buffer.c **** 
1020:Source\FreeRTOS\10.0.1\Source/stream_buffer.c **** static size_t prvWriteBytesToBuffer( StreamBuffer_t * const pxStreamBuffer, const uint8_t *pucData,
1021:Source\FreeRTOS\10.0.1\Source/stream_buffer.c **** {
1022:Source\FreeRTOS\10.0.1\Source/stream_buffer.c **** size_t xNextHead, xFirstLength;
1023:Source\FreeRTOS\10.0.1\Source/stream_buffer.c **** 
1024:Source\FreeRTOS\10.0.1\Source/stream_buffer.c **** 	configASSERT( xCount > ( size_t ) 0 );
1025:Source\FreeRTOS\10.0.1\Source/stream_buffer.c **** 
1026:Source\FreeRTOS\10.0.1\Source/stream_buffer.c **** 	xNextHead = pxStreamBuffer->xHead;
1027:Source\FreeRTOS\10.0.1\Source/stream_buffer.c **** 
1028:Source\FreeRTOS\10.0.1\Source/stream_buffer.c **** 	/* Calculate the number of bytes that can be added in the first write -
1029:Source\FreeRTOS\10.0.1\Source/stream_buffer.c **** 	which may be less than the total number of bytes that need to be added if
1030:Source\FreeRTOS\10.0.1\Source/stream_buffer.c **** 	the buffer will wrap back to the beginning. */
1031:Source\FreeRTOS\10.0.1\Source/stream_buffer.c **** 	xFirstLength = configMIN( pxStreamBuffer->xLength - xNextHead, xCount );
1032:Source\FreeRTOS\10.0.1\Source/stream_buffer.c **** 
1033:Source\FreeRTOS\10.0.1\Source/stream_buffer.c **** 	/* Write as many bytes as can be written in the first write. */
1034:Source\FreeRTOS\10.0.1\Source/stream_buffer.c **** 	configASSERT( ( xNextHead + xFirstLength ) <= pxStreamBuffer->xLength );
1035:Source\FreeRTOS\10.0.1\Source/stream_buffer.c **** 	memcpy( ( void* ) ( &( pxStreamBuffer->pucBuffer[ xNextHead ] ) ), ( const void * ) pucData, xFirs
1036:Source\FreeRTOS\10.0.1\Source/stream_buffer.c **** 
1037:Source\FreeRTOS\10.0.1\Source/stream_buffer.c **** 	/* If the number of bytes written was less than the number that could be
1038:Source\FreeRTOS\10.0.1\Source/stream_buffer.c **** 	written in the first write... */
1039:Source\FreeRTOS\10.0.1\Source/stream_buffer.c **** 	if( xCount > xFirstLength )
1040:Source\FreeRTOS\10.0.1\Source/stream_buffer.c **** 	{
1041:Source\FreeRTOS\10.0.1\Source/stream_buffer.c **** 		/* ...then write the remaining bytes to the start of the buffer. */
1042:Source\FreeRTOS\10.0.1\Source/stream_buffer.c **** 		configASSERT( ( xCount - xFirstLength ) <= pxStreamBuffer->xLength );
1043:Source\FreeRTOS\10.0.1\Source/stream_buffer.c **** 		memcpy( ( void * ) pxStreamBuffer->pucBuffer, ( const void * ) &( pucData[ xFirstLength ] ), xCou
1044:Source\FreeRTOS\10.0.1\Source/stream_buffer.c **** 	}
1045:Source\FreeRTOS\10.0.1\Source/stream_buffer.c **** 	else
1046:Source\FreeRTOS\10.0.1\Source/stream_buffer.c **** 	{
1047:Source\FreeRTOS\10.0.1\Source/stream_buffer.c **** 		mtCOVERAGE_TEST_MARKER();
1048:Source\FreeRTOS\10.0.1\Source/stream_buffer.c **** 	}
1049:Source\FreeRTOS\10.0.1\Source/stream_buffer.c **** 
1050:Source\FreeRTOS\10.0.1\Source/stream_buffer.c **** 	xNextHead += xCount;
1051:Source\FreeRTOS\10.0.1\Source/stream_buffer.c **** 	if( xNextHead >= pxStreamBuffer->xLength )
1052:Source\FreeRTOS\10.0.1\Source/stream_buffer.c **** 	{
1053:Source\FreeRTOS\10.0.1\Source/stream_buffer.c **** 		xNextHead -= pxStreamBuffer->xLength;
1054:Source\FreeRTOS\10.0.1\Source/stream_buffer.c **** 	}
1055:Source\FreeRTOS\10.0.1\Source/stream_buffer.c **** 	else
1056:Source\FreeRTOS\10.0.1\Source/stream_buffer.c **** 	{
1057:Source\FreeRTOS\10.0.1\Source/stream_buffer.c **** 		mtCOVERAGE_TEST_MARKER();
ARM GAS  C:\Users\Phuong\AppData\Local\Temp\ccnrs5hd.s 			page 20


1058:Source\FreeRTOS\10.0.1\Source/stream_buffer.c **** 	}
1059:Source\FreeRTOS\10.0.1\Source/stream_buffer.c **** 
1060:Source\FreeRTOS\10.0.1\Source/stream_buffer.c **** 	pxStreamBuffer->xHead = xNextHead;
1061:Source\FreeRTOS\10.0.1\Source/stream_buffer.c **** 
1062:Source\FreeRTOS\10.0.1\Source/stream_buffer.c **** 	return xCount;
1063:Source\FreeRTOS\10.0.1\Source/stream_buffer.c **** }
1064:Source\FreeRTOS\10.0.1\Source/stream_buffer.c **** /*-----------------------------------------------------------*/
1065:Source\FreeRTOS\10.0.1\Source/stream_buffer.c **** 
1066:Source\FreeRTOS\10.0.1\Source/stream_buffer.c **** static size_t prvReadBytesFromBuffer( StreamBuffer_t *pxStreamBuffer, uint8_t *pucData, size_t xMax
1067:Source\FreeRTOS\10.0.1\Source/stream_buffer.c **** {
1068:Source\FreeRTOS\10.0.1\Source/stream_buffer.c **** size_t xCount, xFirstLength, xNextTail;
1069:Source\FreeRTOS\10.0.1\Source/stream_buffer.c **** 
1070:Source\FreeRTOS\10.0.1\Source/stream_buffer.c **** 	/* Use the minimum of the wanted bytes and the available bytes. */
1071:Source\FreeRTOS\10.0.1\Source/stream_buffer.c **** 	xCount = configMIN( xBytesAvailable, xMaxCount );
1072:Source\FreeRTOS\10.0.1\Source/stream_buffer.c **** 
1073:Source\FreeRTOS\10.0.1\Source/stream_buffer.c **** 	if( xCount > ( size_t ) 0 )
1074:Source\FreeRTOS\10.0.1\Source/stream_buffer.c **** 	{
1075:Source\FreeRTOS\10.0.1\Source/stream_buffer.c **** 		xNextTail = pxStreamBuffer->xTail;
1076:Source\FreeRTOS\10.0.1\Source/stream_buffer.c **** 
1077:Source\FreeRTOS\10.0.1\Source/stream_buffer.c **** 		/* Calculate the number of bytes that can be read - which may be
1078:Source\FreeRTOS\10.0.1\Source/stream_buffer.c **** 		less than the number wanted if the data wraps around to the start of
1079:Source\FreeRTOS\10.0.1\Source/stream_buffer.c **** 		the buffer. */
1080:Source\FreeRTOS\10.0.1\Source/stream_buffer.c **** 		xFirstLength = configMIN( pxStreamBuffer->xLength - xNextTail, xCount );
1081:Source\FreeRTOS\10.0.1\Source/stream_buffer.c **** 
1082:Source\FreeRTOS\10.0.1\Source/stream_buffer.c **** 		/* Obtain the number of bytes it is possible to obtain in the first
1083:Source\FreeRTOS\10.0.1\Source/stream_buffer.c **** 		read.  Asserts check bounds of read and write. */
1084:Source\FreeRTOS\10.0.1\Source/stream_buffer.c **** 		configASSERT( xFirstLength <= xMaxCount );
1085:Source\FreeRTOS\10.0.1\Source/stream_buffer.c **** 		configASSERT( ( xNextTail + xFirstLength ) <= pxStreamBuffer->xLength );
1086:Source\FreeRTOS\10.0.1\Source/stream_buffer.c **** 		memcpy( ( void * ) pucData, ( const void * ) &( pxStreamBuffer->pucBuffer[ xNextTail ] ), xFirstL
1087:Source\FreeRTOS\10.0.1\Source/stream_buffer.c **** 
1088:Source\FreeRTOS\10.0.1\Source/stream_buffer.c **** 		/* If the total number of wanted bytes is greater than the number
1089:Source\FreeRTOS\10.0.1\Source/stream_buffer.c **** 		that could be read in the first read... */
1090:Source\FreeRTOS\10.0.1\Source/stream_buffer.c **** 		if( xCount > xFirstLength )
1091:Source\FreeRTOS\10.0.1\Source/stream_buffer.c **** 		{
1092:Source\FreeRTOS\10.0.1\Source/stream_buffer.c **** 			/*...then read the remaining bytes from the start of the buffer. */
1093:Source\FreeRTOS\10.0.1\Source/stream_buffer.c **** 			configASSERT( xCount <= xMaxCount );
1094:Source\FreeRTOS\10.0.1\Source/stream_buffer.c **** 			memcpy( ( void * ) &( pucData[ xFirstLength ] ), ( void * ) ( pxStreamBuffer->pucBuffer ), xCoun
1095:Source\FreeRTOS\10.0.1\Source/stream_buffer.c **** 		}
1096:Source\FreeRTOS\10.0.1\Source/stream_buffer.c **** 		else
1097:Source\FreeRTOS\10.0.1\Source/stream_buffer.c **** 		{
1098:Source\FreeRTOS\10.0.1\Source/stream_buffer.c **** 			mtCOVERAGE_TEST_MARKER();
1099:Source\FreeRTOS\10.0.1\Source/stream_buffer.c **** 		}
1100:Source\FreeRTOS\10.0.1\Source/stream_buffer.c **** 
1101:Source\FreeRTOS\10.0.1\Source/stream_buffer.c **** 		/* Move the tail pointer to effectively remove the data read from
1102:Source\FreeRTOS\10.0.1\Source/stream_buffer.c **** 		the buffer. */
1103:Source\FreeRTOS\10.0.1\Source/stream_buffer.c **** 		xNextTail += xCount;
1104:Source\FreeRTOS\10.0.1\Source/stream_buffer.c **** 
1105:Source\FreeRTOS\10.0.1\Source/stream_buffer.c **** 		if( xNextTail >= pxStreamBuffer->xLength )
1106:Source\FreeRTOS\10.0.1\Source/stream_buffer.c **** 		{
1107:Source\FreeRTOS\10.0.1\Source/stream_buffer.c **** 			xNextTail -= pxStreamBuffer->xLength;
1108:Source\FreeRTOS\10.0.1\Source/stream_buffer.c **** 		}
1109:Source\FreeRTOS\10.0.1\Source/stream_buffer.c **** 
1110:Source\FreeRTOS\10.0.1\Source/stream_buffer.c **** 		pxStreamBuffer->xTail = xNextTail;
1111:Source\FreeRTOS\10.0.1\Source/stream_buffer.c **** 	}
1112:Source\FreeRTOS\10.0.1\Source/stream_buffer.c **** 	else
1113:Source\FreeRTOS\10.0.1\Source/stream_buffer.c **** 	{
1114:Source\FreeRTOS\10.0.1\Source/stream_buffer.c **** 		mtCOVERAGE_TEST_MARKER();
ARM GAS  C:\Users\Phuong\AppData\Local\Temp\ccnrs5hd.s 			page 21


1115:Source\FreeRTOS\10.0.1\Source/stream_buffer.c **** 	}
1116:Source\FreeRTOS\10.0.1\Source/stream_buffer.c **** 
1117:Source\FreeRTOS\10.0.1\Source/stream_buffer.c **** 	return xCount;
1118:Source\FreeRTOS\10.0.1\Source/stream_buffer.c **** }
1119:Source\FreeRTOS\10.0.1\Source/stream_buffer.c **** /*-----------------------------------------------------------*/
1120:Source\FreeRTOS\10.0.1\Source/stream_buffer.c **** 
1121:Source\FreeRTOS\10.0.1\Source/stream_buffer.c **** static size_t prvBytesInBuffer( const StreamBuffer_t * const pxStreamBuffer )
1122:Source\FreeRTOS\10.0.1\Source/stream_buffer.c **** {
  27              		.loc 1 1122 0
  28              		.cfi_startproc
  29              		@ args = 0, pretend = 0, frame = 0
  30              		@ frame_needed = 0, uses_anonymous_args = 0
  31              		@ link register save eliminated.
  32              	.LVL0:
1123:Source\FreeRTOS\10.0.1\Source/stream_buffer.c **** /* Returns the distance between xTail and xHead. */
1124:Source\FreeRTOS\10.0.1\Source/stream_buffer.c **** size_t xCount;
1125:Source\FreeRTOS\10.0.1\Source/stream_buffer.c **** 
1126:Source\FreeRTOS\10.0.1\Source/stream_buffer.c **** 	xCount = pxStreamBuffer->xLength + pxStreamBuffer->xHead;
  33              		.loc 1 1126 0
  34 0000 8268     		ldr	r2, [r0, #8]
  35 0002 4368     		ldr	r3, [r0, #4]
  36 0004 D318     		adds	r3, r2, r3
  37              	.LVL1:
1127:Source\FreeRTOS\10.0.1\Source/stream_buffer.c **** 	xCount -= pxStreamBuffer->xTail;
  38              		.loc 1 1127 0
  39 0006 0068     		ldr	r0, [r0]
  40              	.LVL2:
  41 0008 181A     		subs	r0, r3, r0
  42              	.LVL3:
1128:Source\FreeRTOS\10.0.1\Source/stream_buffer.c **** 	if ( xCount >= pxStreamBuffer->xLength )
  43              		.loc 1 1128 0
  44 000a 8242     		cmp	r2, r0
  45 000c 00D8     		bhi	.L2
1129:Source\FreeRTOS\10.0.1\Source/stream_buffer.c **** 	{
1130:Source\FreeRTOS\10.0.1\Source/stream_buffer.c **** 		xCount -= pxStreamBuffer->xLength;
  46              		.loc 1 1130 0
  47 000e 801A     		subs	r0, r0, r2
  48              	.LVL4:
  49              	.L2:
1131:Source\FreeRTOS\10.0.1\Source/stream_buffer.c **** 	}
1132:Source\FreeRTOS\10.0.1\Source/stream_buffer.c **** 	else
1133:Source\FreeRTOS\10.0.1\Source/stream_buffer.c **** 	{
1134:Source\FreeRTOS\10.0.1\Source/stream_buffer.c **** 		mtCOVERAGE_TEST_MARKER();
1135:Source\FreeRTOS\10.0.1\Source/stream_buffer.c **** 	}
1136:Source\FreeRTOS\10.0.1\Source/stream_buffer.c **** 
1137:Source\FreeRTOS\10.0.1\Source/stream_buffer.c **** 	return xCount;
1138:Source\FreeRTOS\10.0.1\Source/stream_buffer.c **** }
  50              		.loc 1 1138 0
  51              		@ sp needed
  52 0010 7047     		bx	lr
  53              		.cfi_endproc
  54              	.LFE54:
  55              		.size	prvBytesInBuffer, .-prvBytesInBuffer
  56 0012 C046     		.section	.text.prvInitialiseNewStreamBuffer,"ax",%progbits
  57              		.align	2
  58              		.code	16
  59              		.thumb_func
ARM GAS  C:\Users\Phuong\AppData\Local\Temp\ccnrs5hd.s 			page 22


  60              		.type	prvInitialiseNewStreamBuffer, %function
  61              	prvInitialiseNewStreamBuffer:
  62              	.LFB55:
1139:Source\FreeRTOS\10.0.1\Source/stream_buffer.c **** /*-----------------------------------------------------------*/
1140:Source\FreeRTOS\10.0.1\Source/stream_buffer.c **** 
1141:Source\FreeRTOS\10.0.1\Source/stream_buffer.c **** static void prvInitialiseNewStreamBuffer( StreamBuffer_t * const pxStreamBuffer,
1142:Source\FreeRTOS\10.0.1\Source/stream_buffer.c **** 										  uint8_t * const pucBuffer,
1143:Source\FreeRTOS\10.0.1\Source/stream_buffer.c **** 										  size_t xBufferSizeBytes,
1144:Source\FreeRTOS\10.0.1\Source/stream_buffer.c **** 										  size_t xTriggerLevelBytes,
1145:Source\FreeRTOS\10.0.1\Source/stream_buffer.c **** 										  BaseType_t xIsMessageBuffer )
1146:Source\FreeRTOS\10.0.1\Source/stream_buffer.c **** {
  63              		.loc 1 1146 0
  64              		.cfi_startproc
  65              		@ args = 4, pretend = 0, frame = 0
  66              		@ frame_needed = 0, uses_anonymous_args = 0
  67              	.LVL5:
  68 0000 F8B5     		push	{r3, r4, r5, r6, r7, lr}
  69              		.cfi_def_cfa_offset 24
  70              		.cfi_offset 3, -24
  71              		.cfi_offset 4, -20
  72              		.cfi_offset 5, -16
  73              		.cfi_offset 6, -12
  74              		.cfi_offset 7, -8
  75              		.cfi_offset 14, -4
  76 0002 0400     		movs	r4, r0
  77 0004 0D00     		movs	r5, r1
  78 0006 1600     		movs	r6, r2
  79 0008 1F00     		movs	r7, r3
  80              	.LVL6:
  81              	.LBB2:
1147:Source\FreeRTOS\10.0.1\Source/stream_buffer.c **** 	/* Assert here is deliberately writing to the entire buffer to ensure it can
1148:Source\FreeRTOS\10.0.1\Source/stream_buffer.c **** 	be written to without generating exceptions, and is setting the buffer to a
1149:Source\FreeRTOS\10.0.1\Source/stream_buffer.c **** 	known value to assist in development/debugging. */
1150:Source\FreeRTOS\10.0.1\Source/stream_buffer.c **** 	#if( configASSERT_DEFINED == 1 )
1151:Source\FreeRTOS\10.0.1\Source/stream_buffer.c **** 	{
1152:Source\FreeRTOS\10.0.1\Source/stream_buffer.c **** 		/* The value written just has to be identifiable when looking at the
1153:Source\FreeRTOS\10.0.1\Source/stream_buffer.c **** 		memory.  Don't use 0xA5 as that is the stack fill value and could
1154:Source\FreeRTOS\10.0.1\Source/stream_buffer.c **** 		result in confusion as to what is actually being observed. */
1155:Source\FreeRTOS\10.0.1\Source/stream_buffer.c **** 		const BaseType_t xWriteValue = 0x55;
1156:Source\FreeRTOS\10.0.1\Source/stream_buffer.c **** 		configASSERT( memset( pucBuffer, ( int ) xWriteValue, xBufferSizeBytes ) == pucBuffer );
  82              		.loc 1 1156 0
  83 000a 5521     		movs	r1, #85
  84              	.LVL7:
  85 000c 2800     		movs	r0, r5
  86              	.LVL8:
  87 000e FFF7FEFF 		bl	memset
  88              	.LVL9:
  89 0012 8542     		cmp	r5, r0
  90 0014 01D0     		beq	.L4
  91              		.loc 1 1156 0 is_stmt 0 discriminator 1
  92              		.syntax divided
  93              	@ 1156 "Source\FreeRTOS\10.0.1\Source\stream_buffer.c" 1
  94 0016 72B6     		 cpsid i 
  95              	@ 0 "" 2
  96              		.thumb
  97              		.syntax unified
  98              	.L5:
ARM GAS  C:\Users\Phuong\AppData\Local\Temp\ccnrs5hd.s 			page 23


  99 0018 FEE7     		b	.L5
 100              	.L4:
 101              	.LBE2:
1157:Source\FreeRTOS\10.0.1\Source/stream_buffer.c **** 	}
1158:Source\FreeRTOS\10.0.1\Source/stream_buffer.c **** 	#endif
1159:Source\FreeRTOS\10.0.1\Source/stream_buffer.c **** 
1160:Source\FreeRTOS\10.0.1\Source/stream_buffer.c **** 	memset( ( void * ) pxStreamBuffer, 0x00, sizeof( StreamBuffer_t ) ); /*lint !e9087 memset() requir
 102              		.loc 1 1160 0 is_stmt 1
 103 001a 2422     		movs	r2, #36
 104 001c 0021     		movs	r1, #0
 105 001e 2000     		movs	r0, r4
 106 0020 FFF7FEFF 		bl	memset
 107              	.LVL10:
1161:Source\FreeRTOS\10.0.1\Source/stream_buffer.c **** 	pxStreamBuffer->pucBuffer = pucBuffer;
 108              		.loc 1 1161 0
 109 0024 A561     		str	r5, [r4, #24]
1162:Source\FreeRTOS\10.0.1\Source/stream_buffer.c **** 	pxStreamBuffer->xLength = xBufferSizeBytes;
 110              		.loc 1 1162 0
 111 0026 A660     		str	r6, [r4, #8]
1163:Source\FreeRTOS\10.0.1\Source/stream_buffer.c **** 	pxStreamBuffer->xTriggerLevelBytes = xTriggerLevelBytes;
 112              		.loc 1 1163 0
 113 0028 E760     		str	r7, [r4, #12]
1164:Source\FreeRTOS\10.0.1\Source/stream_buffer.c **** 
1165:Source\FreeRTOS\10.0.1\Source/stream_buffer.c **** 	if( xIsMessageBuffer != pdFALSE )
 114              		.loc 1 1165 0
 115 002a 069B     		ldr	r3, [sp, #24]
 116 002c 002B     		cmp	r3, #0
 117 002e 03D0     		beq	.L3
1166:Source\FreeRTOS\10.0.1\Source/stream_buffer.c **** 	{
1167:Source\FreeRTOS\10.0.1\Source/stream_buffer.c **** 		pxStreamBuffer->ucFlags |= sbFLAGS_IS_MESSAGE_BUFFER;
 118              		.loc 1 1167 0
 119 0030 237F     		ldrb	r3, [r4, #28]
 120 0032 0122     		movs	r2, #1
 121 0034 1343     		orrs	r3, r2
 122 0036 2377     		strb	r3, [r4, #28]
 123              	.L3:
1168:Source\FreeRTOS\10.0.1\Source/stream_buffer.c **** 	}
1169:Source\FreeRTOS\10.0.1\Source/stream_buffer.c **** }
 124              		.loc 1 1169 0
 125              		@ sp needed
 126              	.LVL11:
 127              	.LVL12:
 128              	.LVL13:
 129              	.LVL14:
 130 0038 F8BD     		pop	{r3, r4, r5, r6, r7, pc}
 131              		.cfi_endproc
 132              	.LFE55:
 133              		.size	prvInitialiseNewStreamBuffer, .-prvInitialiseNewStreamBuffer
 134 003a C046     		.section	.text.prvWriteBytesToBuffer,"ax",%progbits
 135              		.align	2
 136              		.code	16
 137              		.thumb_func
 138              		.type	prvWriteBytesToBuffer, %function
 139              	prvWriteBytesToBuffer:
 140              	.LFB52:
1021:Source\FreeRTOS\10.0.1\Source/stream_buffer.c **** size_t xNextHead, xFirstLength;
 141              		.loc 1 1021 0
ARM GAS  C:\Users\Phuong\AppData\Local\Temp\ccnrs5hd.s 			page 24


 142              		.cfi_startproc
 143              		@ args = 0, pretend = 0, frame = 8
 144              		@ frame_needed = 0, uses_anonymous_args = 0
 145              	.LVL15:
 146 0000 F0B5     		push	{r4, r5, r6, r7, lr}
 147              		.cfi_def_cfa_offset 20
 148              		.cfi_offset 4, -20
 149              		.cfi_offset 5, -16
 150              		.cfi_offset 6, -12
 151              		.cfi_offset 7, -8
 152              		.cfi_offset 14, -4
 153 0002 83B0     		sub	sp, sp, #12
 154              		.cfi_def_cfa_offset 32
 155 0004 0700     		movs	r7, r0
 156 0006 0191     		str	r1, [sp, #4]
 157 0008 161E     		subs	r6, r2, #0
1024:Source\FreeRTOS\10.0.1\Source/stream_buffer.c **** 
 158              		.loc 1 1024 0
 159 000a 01D1     		bne	.L8
1024:Source\FreeRTOS\10.0.1\Source/stream_buffer.c **** 
 160              		.loc 1 1024 0 is_stmt 0 discriminator 1
 161              		.syntax divided
 162              	@ 1024 "Source\FreeRTOS\10.0.1\Source\stream_buffer.c" 1
 163 000c 72B6     		 cpsid i 
 164              	@ 0 "" 2
 165              		.thumb
 166              		.syntax unified
 167              	.L9:
 168 000e FEE7     		b	.L9
 169              	.L8:
1026:Source\FreeRTOS\10.0.1\Source/stream_buffer.c **** 
 170              		.loc 1 1026 0 is_stmt 1
 171 0010 4468     		ldr	r4, [r0, #4]
 172              	.LVL16:
1031:Source\FreeRTOS\10.0.1\Source/stream_buffer.c **** 
 173              		.loc 1 1031 0
 174 0012 8368     		ldr	r3, [r0, #8]
 175 0014 1A1B     		subs	r2, r3, r4
 176              	.LVL17:
 177 0016 3500     		movs	r5, r6
 178 0018 9642     		cmp	r6, r2
 179 001a 00D9     		bls	.L10
 180              	.LVL18:
 181 001c 1500     		movs	r5, r2
 182              	.LVL19:
 183              	.L10:
1034:Source\FreeRTOS\10.0.1\Source/stream_buffer.c **** 	memcpy( ( void* ) ( &( pxStreamBuffer->pucBuffer[ xNextHead ] ) ), ( const void * ) pucData, xFirs
 184              		.loc 1 1034 0
 185 001e 6219     		adds	r2, r4, r5
 186 0020 9342     		cmp	r3, r2
 187 0022 01D2     		bcs	.L11
1034:Source\FreeRTOS\10.0.1\Source/stream_buffer.c **** 	memcpy( ( void* ) ( &( pxStreamBuffer->pucBuffer[ xNextHead ] ) ), ( const void * ) pucData, xFirs
 188              		.loc 1 1034 0 is_stmt 0 discriminator 1
 189              		.syntax divided
 190              	@ 1034 "Source\FreeRTOS\10.0.1\Source\stream_buffer.c" 1
 191 0024 72B6     		 cpsid i 
 192              	@ 0 "" 2
ARM GAS  C:\Users\Phuong\AppData\Local\Temp\ccnrs5hd.s 			page 25


 193              		.thumb
 194              		.syntax unified
 195              	.L12:
 196 0026 FEE7     		b	.L12
 197              	.L11:
1035:Source\FreeRTOS\10.0.1\Source/stream_buffer.c **** 
 198              		.loc 1 1035 0 is_stmt 1
 199 0028 BB69     		ldr	r3, [r7, #24]
 200 002a 1819     		adds	r0, r3, r4
 201              	.LVL20:
 202 002c 2A00     		movs	r2, r5
 203 002e 0199     		ldr	r1, [sp, #4]
 204              	.LVL21:
 205 0030 FFF7FEFF 		bl	memcpy
 206              	.LVL22:
1039:Source\FreeRTOS\10.0.1\Source/stream_buffer.c **** 	{
 207              		.loc 1 1039 0
 208 0034 AE42     		cmp	r6, r5
 209 0036 0AD9     		bls	.L13
1042:Source\FreeRTOS\10.0.1\Source/stream_buffer.c **** 		memcpy( ( void * ) pxStreamBuffer->pucBuffer, ( const void * ) &( pucData[ xFirstLength ] ), xCou
 210              		.loc 1 1042 0
 211 0038 721B     		subs	r2, r6, r5
 212 003a BB68     		ldr	r3, [r7, #8]
 213 003c 9A42     		cmp	r2, r3
 214 003e 01D9     		bls	.L14
1042:Source\FreeRTOS\10.0.1\Source/stream_buffer.c **** 		memcpy( ( void * ) pxStreamBuffer->pucBuffer, ( const void * ) &( pucData[ xFirstLength ] ), xCou
 215              		.loc 1 1042 0 is_stmt 0 discriminator 1
 216              		.syntax divided
 217              	@ 1042 "Source\FreeRTOS\10.0.1\Source\stream_buffer.c" 1
 218 0040 72B6     		 cpsid i 
 219              	@ 0 "" 2
 220              		.thumb
 221              		.syntax unified
 222              	.L15:
 223 0042 FEE7     		b	.L15
 224              	.L14:
1043:Source\FreeRTOS\10.0.1\Source/stream_buffer.c **** 	}
 225              		.loc 1 1043 0 is_stmt 1
 226 0044 019B     		ldr	r3, [sp, #4]
 227 0046 5919     		adds	r1, r3, r5
 228 0048 B869     		ldr	r0, [r7, #24]
 229 004a FFF7FEFF 		bl	memcpy
 230              	.LVL23:
 231              	.L13:
1050:Source\FreeRTOS\10.0.1\Source/stream_buffer.c **** 	if( xNextHead >= pxStreamBuffer->xLength )
 232              		.loc 1 1050 0
 233 004e 3419     		adds	r4, r6, r4
 234              	.LVL24:
1051:Source\FreeRTOS\10.0.1\Source/stream_buffer.c **** 	{
 235              		.loc 1 1051 0
 236 0050 BB68     		ldr	r3, [r7, #8]
 237 0052 9C42     		cmp	r4, r3
 238 0054 00D3     		bcc	.L16
1053:Source\FreeRTOS\10.0.1\Source/stream_buffer.c **** 	}
 239              		.loc 1 1053 0
 240 0056 E41A     		subs	r4, r4, r3
 241              	.LVL25:
ARM GAS  C:\Users\Phuong\AppData\Local\Temp\ccnrs5hd.s 			page 26


 242              	.L16:
1060:Source\FreeRTOS\10.0.1\Source/stream_buffer.c **** 
 243              		.loc 1 1060 0
 244 0058 7C60     		str	r4, [r7, #4]
1063:Source\FreeRTOS\10.0.1\Source/stream_buffer.c **** /*-----------------------------------------------------------*/
 245              		.loc 1 1063 0
 246 005a 3000     		movs	r0, r6
 247 005c 03B0     		add	sp, sp, #12
 248              		@ sp needed
 249              	.LVL26:
 250              	.LVL27:
 251              	.LVL28:
 252              	.LVL29:
 253 005e F0BD     		pop	{r4, r5, r6, r7, pc}
 254              		.cfi_endproc
 255              	.LFE52:
 256              		.size	prvWriteBytesToBuffer, .-prvWriteBytesToBuffer
 257              		.section	.text.prvWriteMessageToBuffer,"ax",%progbits
 258              		.align	2
 259              		.code	16
 260              		.thumb_func
 261              		.type	prvWriteMessageToBuffer, %function
 262              	prvWriteMessageToBuffer:
 263              	.LFB44:
 644:Source\FreeRTOS\10.0.1\Source/stream_buffer.c **** 	BaseType_t xShouldWrite;
 264              		.loc 1 644 0
 265              		.cfi_startproc
 266              		@ args = 4, pretend = 0, frame = 8
 267              		@ frame_needed = 0, uses_anonymous_args = 0
 268              	.LVL30:
 269 0000 30B5     		push	{r4, r5, lr}
 270              		.cfi_def_cfa_offset 12
 271              		.cfi_offset 4, -12
 272              		.cfi_offset 5, -8
 273              		.cfi_offset 14, -4
 274 0002 83B0     		sub	sp, sp, #12
 275              		.cfi_def_cfa_offset 24
 276 0004 0400     		movs	r4, r0
 277 0006 0D00     		movs	r5, r1
 278 0008 0192     		str	r2, [sp, #4]
 648:Source\FreeRTOS\10.0.1\Source/stream_buffer.c **** 	{
 279              		.loc 1 648 0
 280 000a 002B     		cmp	r3, #0
 281 000c 12D0     		beq	.L22
 654:Source\FreeRTOS\10.0.1\Source/stream_buffer.c **** 	{
 282              		.loc 1 654 0
 283 000e 027F     		ldrb	r2, [r0, #28]
 284              	.LVL31:
 285 0010 D207     		lsls	r2, r2, #31
 286 0012 06D4     		bmi	.L19
 287              	.LVL32:
 660:Source\FreeRTOS\10.0.1\Source/stream_buffer.c **** 	}
 288              		.loc 1 660 0
 289 0014 019A     		ldr	r2, [sp, #4]
 290 0016 9A42     		cmp	r2, r3
 291 0018 00D9     		bls	.L20
 292 001a 1A00     		movs	r2, r3
ARM GAS  C:\Users\Phuong\AppData\Local\Temp\ccnrs5hd.s 			page 27


 293              	.L20:
 294 001c 0192     		str	r2, [sp, #4]
 295              	.LVL33:
 659:Source\FreeRTOS\10.0.1\Source/stream_buffer.c **** 		xDataLengthBytes = configMIN( xDataLengthBytes, xSpace ); /*lint !e9044 Function parameter modifi
 296              		.loc 1 659 0
 297 001e 0123     		movs	r3, #1
 298              	.LVL34:
 299 0020 0BE0     		b	.L18
 300              	.LVL35:
 301              	.L19:
 662:Source\FreeRTOS\10.0.1\Source/stream_buffer.c **** 	{
 302              		.loc 1 662 0
 303 0022 069A     		ldr	r2, [sp, #24]
 304 0024 9342     		cmp	r3, r2
 305 0026 07D3     		bcc	.L23
 306              	.LVL36:
 669:Source\FreeRTOS\10.0.1\Source/stream_buffer.c **** 	}
 307              		.loc 1 669 0
 308 0028 0422     		movs	r2, #4
 309 002a 01A9     		add	r1, sp, #4
 310              	.LVL37:
 311 002c FFF7FEFF 		bl	prvWriteBytesToBuffer
 312              	.LVL38:
 668:Source\FreeRTOS\10.0.1\Source/stream_buffer.c **** 		( void ) prvWriteBytesToBuffer( pxStreamBuffer, ( const uint8_t * ) &( xDataLengthBytes ), sbBYTE
 313              		.loc 1 668 0
 314 0030 0123     		movs	r3, #1
 315 0032 02E0     		b	.L18
 316              	.LVL39:
 317              	.L22:
 652:Source\FreeRTOS\10.0.1\Source/stream_buffer.c **** 	}
 318              		.loc 1 652 0
 319 0034 0023     		movs	r3, #0
 320              	.LVL40:
 321 0036 00E0     		b	.L18
 322              	.LVL41:
 323              	.L23:
 674:Source\FreeRTOS\10.0.1\Source/stream_buffer.c **** 	}
 324              		.loc 1 674 0
 325 0038 0023     		movs	r3, #0
 326              	.LVL42:
 327              	.L18:
 677:Source\FreeRTOS\10.0.1\Source/stream_buffer.c **** 	{
 328              		.loc 1 677 0
 329 003a 002B     		cmp	r3, #0
 330 003c 05D0     		beq	.L24
 680:Source\FreeRTOS\10.0.1\Source/stream_buffer.c **** 	}
 331              		.loc 1 680 0
 332 003e 019A     		ldr	r2, [sp, #4]
 333 0040 2900     		movs	r1, r5
 334 0042 2000     		movs	r0, r4
 335 0044 FFF7FEFF 		bl	prvWriteBytesToBuffer
 336              	.LVL43:
 337 0048 00E0     		b	.L21
 338              	.LVL44:
 339              	.L24:
 684:Source\FreeRTOS\10.0.1\Source/stream_buffer.c **** 	}
 340              		.loc 1 684 0
ARM GAS  C:\Users\Phuong\AppData\Local\Temp\ccnrs5hd.s 			page 28


 341 004a 0020     		movs	r0, #0
 342              	.LVL45:
 343              	.L21:
 688:Source\FreeRTOS\10.0.1\Source/stream_buffer.c **** /*-----------------------------------------------------------*/
 344              		.loc 1 688 0
 345 004c 03B0     		add	sp, sp, #12
 346              		@ sp needed
 347              	.LVL46:
 348              	.LVL47:
 349 004e 30BD     		pop	{r4, r5, pc}
 350              		.cfi_endproc
 351              	.LFE44:
 352              		.size	prvWriteMessageToBuffer, .-prvWriteMessageToBuffer
 353              		.section	.text.prvReadBytesFromBuffer,"ax",%progbits
 354              		.align	2
 355              		.code	16
 356              		.thumb_func
 357              		.type	prvReadBytesFromBuffer, %function
 358              	prvReadBytesFromBuffer:
 359              	.LFB53:
1067:Source\FreeRTOS\10.0.1\Source/stream_buffer.c **** size_t xCount, xFirstLength, xNextTail;
 360              		.loc 1 1067 0
 361              		.cfi_startproc
 362              		@ args = 0, pretend = 0, frame = 8
 363              		@ frame_needed = 0, uses_anonymous_args = 0
 364              	.LVL48:
 365 0000 F0B5     		push	{r4, r5, r6, r7, lr}
 366              		.cfi_def_cfa_offset 20
 367              		.cfi_offset 4, -20
 368              		.cfi_offset 5, -16
 369              		.cfi_offset 6, -12
 370              		.cfi_offset 7, -8
 371              		.cfi_offset 14, -4
 372 0002 4F46     		mov	r7, r9
 373 0004 80B4     		push	{r7}
 374              		.cfi_def_cfa_offset 24
 375              		.cfi_offset 9, -24
 376 0006 82B0     		sub	sp, sp, #8
 377              		.cfi_def_cfa_offset 32
 378 0008 0700     		movs	r7, r0
 379 000a 0191     		str	r1, [sp, #4]
 380 000c 9146     		mov	r9, r2
1071:Source\FreeRTOS\10.0.1\Source/stream_buffer.c **** 
 381              		.loc 1 1071 0
 382 000e 1400     		movs	r4, r2
 383 0010 9A42     		cmp	r2, r3
 384 0012 00D9     		bls	.L26
 385 0014 1C00     		movs	r4, r3
 386              	.L26:
 387              	.LVL49:
1073:Source\FreeRTOS\10.0.1\Source/stream_buffer.c **** 	{
 388              		.loc 1 1073 0
 389 0016 002C     		cmp	r4, #0
 390 0018 27D0     		beq	.L27
1075:Source\FreeRTOS\10.0.1\Source/stream_buffer.c **** 
 391              		.loc 1 1075 0
 392 001a 3D68     		ldr	r5, [r7]
ARM GAS  C:\Users\Phuong\AppData\Local\Temp\ccnrs5hd.s 			page 29


 393              	.LVL50:
1080:Source\FreeRTOS\10.0.1\Source/stream_buffer.c **** 
 394              		.loc 1 1080 0
 395 001c BB68     		ldr	r3, [r7, #8]
 396              	.LVL51:
 397 001e 5A1B     		subs	r2, r3, r5
 398              	.LVL52:
 399 0020 2600     		movs	r6, r4
 400 0022 9442     		cmp	r4, r2
 401 0024 00D9     		bls	.L28
 402 0026 1600     		movs	r6, r2
 403              	.L28:
 404              	.LVL53:
1084:Source\FreeRTOS\10.0.1\Source/stream_buffer.c **** 		configASSERT( ( xNextTail + xFirstLength ) <= pxStreamBuffer->xLength );
 405              		.loc 1 1084 0
 406 0028 B145     		cmp	r9, r6
 407 002a 01D2     		bcs	.L29
1084:Source\FreeRTOS\10.0.1\Source/stream_buffer.c **** 		configASSERT( ( xNextTail + xFirstLength ) <= pxStreamBuffer->xLength );
 408              		.loc 1 1084 0 is_stmt 0 discriminator 1
 409              		.syntax divided
 410              	@ 1084 "Source\FreeRTOS\10.0.1\Source\stream_buffer.c" 1
 411 002c 72B6     		 cpsid i 
 412              	@ 0 "" 2
 413              		.thumb
 414              		.syntax unified
 415              	.L30:
 416 002e FEE7     		b	.L30
 417              	.L29:
1085:Source\FreeRTOS\10.0.1\Source/stream_buffer.c **** 		memcpy( ( void * ) pucData, ( const void * ) &( pxStreamBuffer->pucBuffer[ xNextTail ] ), xFirstL
 418              		.loc 1 1085 0 is_stmt 1
 419 0030 AA19     		adds	r2, r5, r6
 420 0032 9342     		cmp	r3, r2
 421 0034 01D2     		bcs	.L31
1085:Source\FreeRTOS\10.0.1\Source/stream_buffer.c **** 		memcpy( ( void * ) pucData, ( const void * ) &( pxStreamBuffer->pucBuffer[ xNextTail ] ), xFirstL
 422              		.loc 1 1085 0 is_stmt 0 discriminator 1
 423              		.syntax divided
 424              	@ 1085 "Source\FreeRTOS\10.0.1\Source\stream_buffer.c" 1
 425 0036 72B6     		 cpsid i 
 426              	@ 0 "" 2
 427              		.thumb
 428              		.syntax unified
 429              	.L32:
 430 0038 FEE7     		b	.L32
 431              	.L31:
1086:Source\FreeRTOS\10.0.1\Source/stream_buffer.c **** 
 432              		.loc 1 1086 0 is_stmt 1
 433 003a BB69     		ldr	r3, [r7, #24]
 434 003c 5919     		adds	r1, r3, r5
 435              	.LVL54:
 436 003e 3200     		movs	r2, r6
 437 0040 0198     		ldr	r0, [sp, #4]
 438              	.LVL55:
 439 0042 FFF7FEFF 		bl	memcpy
 440              	.LVL56:
1090:Source\FreeRTOS\10.0.1\Source/stream_buffer.c **** 		{
 441              		.loc 1 1090 0
 442 0046 B442     		cmp	r4, r6
ARM GAS  C:\Users\Phuong\AppData\Local\Temp\ccnrs5hd.s 			page 30


 443 0048 09D9     		bls	.L33
1093:Source\FreeRTOS\10.0.1\Source/stream_buffer.c **** 			memcpy( ( void * ) &( pucData[ xFirstLength ] ), ( void * ) ( pxStreamBuffer->pucBuffer ), xCoun
 444              		.loc 1 1093 0
 445 004a A145     		cmp	r9, r4
 446 004c 01D2     		bcs	.L34
1093:Source\FreeRTOS\10.0.1\Source/stream_buffer.c **** 			memcpy( ( void * ) &( pucData[ xFirstLength ] ), ( void * ) ( pxStreamBuffer->pucBuffer ), xCoun
 447              		.loc 1 1093 0 is_stmt 0 discriminator 1
 448              		.syntax divided
 449              	@ 1093 "Source\FreeRTOS\10.0.1\Source\stream_buffer.c" 1
 450 004e 72B6     		 cpsid i 
 451              	@ 0 "" 2
 452              		.thumb
 453              		.syntax unified
 454              	.L35:
 455 0050 FEE7     		b	.L35
 456              	.L34:
1094:Source\FreeRTOS\10.0.1\Source/stream_buffer.c **** 		}
 457              		.loc 1 1094 0 is_stmt 1
 458 0052 019B     		ldr	r3, [sp, #4]
 459 0054 9819     		adds	r0, r3, r6
 460 0056 A21B     		subs	r2, r4, r6
 461 0058 B969     		ldr	r1, [r7, #24]
 462 005a FFF7FEFF 		bl	memcpy
 463              	.LVL57:
 464              	.L33:
1103:Source\FreeRTOS\10.0.1\Source/stream_buffer.c **** 
 465              		.loc 1 1103 0
 466 005e 6519     		adds	r5, r4, r5
 467              	.LVL58:
1105:Source\FreeRTOS\10.0.1\Source/stream_buffer.c **** 		{
 468              		.loc 1 1105 0
 469 0060 BB68     		ldr	r3, [r7, #8]
 470 0062 9D42     		cmp	r5, r3
 471 0064 00D3     		bcc	.L36
1107:Source\FreeRTOS\10.0.1\Source/stream_buffer.c **** 		}
 472              		.loc 1 1107 0
 473 0066 ED1A     		subs	r5, r5, r3
 474              	.LVL59:
 475              	.L36:
1110:Source\FreeRTOS\10.0.1\Source/stream_buffer.c **** 	}
 476              		.loc 1 1110 0
 477 0068 3D60     		str	r5, [r7]
 478              	.LVL60:
 479              	.L27:
1118:Source\FreeRTOS\10.0.1\Source/stream_buffer.c **** /*-----------------------------------------------------------*/
 480              		.loc 1 1118 0
 481 006a 2000     		movs	r0, r4
 482 006c 02B0     		add	sp, sp, #8
 483              		@ sp needed
 484              	.LVL61:
 485              	.LVL62:
 486              	.LVL63:
 487 006e 04BC     		pop	{r2}
 488 0070 9146     		mov	r9, r2
 489 0072 F0BD     		pop	{r4, r5, r6, r7, pc}
 490              		.cfi_endproc
 491              	.LFE53:
ARM GAS  C:\Users\Phuong\AppData\Local\Temp\ccnrs5hd.s 			page 31


 492              		.size	prvReadBytesFromBuffer, .-prvReadBytesFromBuffer
 493              		.section	.text.prvReadMessageFromBuffer,"ax",%progbits
 494              		.align	2
 495              		.code	16
 496              		.thumb_func
 497              		.type	prvReadMessageFromBuffer, %function
 498              	prvReadMessageFromBuffer:
 499              	.LFB47:
 857:Source\FreeRTOS\10.0.1\Source/stream_buffer.c **** size_t xOriginalTail, xReceivedLength, xNextMessageLength;
 500              		.loc 1 857 0
 501              		.cfi_startproc
 502              		@ args = 4, pretend = 0, frame = 8
 503              		@ frame_needed = 0, uses_anonymous_args = 0
 504              	.LVL64:
 505 0000 F0B5     		push	{r4, r5, r6, r7, lr}
 506              		.cfi_def_cfa_offset 20
 507              		.cfi_offset 4, -20
 508              		.cfi_offset 5, -16
 509              		.cfi_offset 6, -12
 510              		.cfi_offset 7, -8
 511              		.cfi_offset 14, -4
 512 0002 4746     		mov	r7, r8
 513 0004 80B4     		push	{r7}
 514              		.cfi_def_cfa_offset 24
 515              		.cfi_offset 8, -24
 516 0006 82B0     		sub	sp, sp, #8
 517              		.cfi_def_cfa_offset 32
 518 0008 0500     		movs	r5, r0
 519 000a 0E00     		movs	r6, r1
 520 000c 1700     		movs	r7, r2
 521 000e 1C00     		movs	r4, r3
 860:Source\FreeRTOS\10.0.1\Source/stream_buffer.c **** 	{
 522              		.loc 1 860 0
 523 0010 089B     		ldr	r3, [sp, #32]
 524              	.LVL65:
 525 0012 002B     		cmp	r3, #0
 526 0014 10D0     		beq	.L38
 866:Source\FreeRTOS\10.0.1\Source/stream_buffer.c **** 		( void ) prvReadBytesFromBuffer( pxStreamBuffer, ( uint8_t * ) &xNextMessageLength, xBytesToStore
 527              		.loc 1 866 0
 528 0016 0368     		ldr	r3, [r0]
 529 0018 9846     		mov	r8, r3
 530              	.LVL66:
 867:Source\FreeRTOS\10.0.1\Source/stream_buffer.c **** 
 531              		.loc 1 867 0
 532 001a 2300     		movs	r3, r4
 533              	.LVL67:
 534 001c 089A     		ldr	r2, [sp, #32]
 535              	.LVL68:
 536 001e 01A9     		add	r1, sp, #4
 537              	.LVL69:
 538 0020 FFF7FEFF 		bl	prvReadBytesFromBuffer
 539              	.LVL70:
 871:Source\FreeRTOS\10.0.1\Source/stream_buffer.c **** 
 540              		.loc 1 871 0
 541 0024 089B     		ldr	r3, [sp, #32]
 542 0026 E41A     		subs	r4, r4, r3
 543              	.LVL71:
ARM GAS  C:\Users\Phuong\AppData\Local\Temp\ccnrs5hd.s 			page 32


 875:Source\FreeRTOS\10.0.1\Source/stream_buffer.c **** 		{
 544              		.loc 1 875 0
 545 0028 019B     		ldr	r3, [sp, #4]
 546 002a BB42     		cmp	r3, r7
 547 002c 05D9     		bls	.L39
 880:Source\FreeRTOS\10.0.1\Source/stream_buffer.c **** 			xNextMessageLength = 0;
 548              		.loc 1 880 0
 549 002e 4346     		mov	r3, r8
 550 0030 2B60     		str	r3, [r5]
 881:Source\FreeRTOS\10.0.1\Source/stream_buffer.c **** 		}
 551              		.loc 1 881 0
 552 0032 0023     		movs	r3, #0
 553 0034 0193     		str	r3, [sp, #4]
 554 0036 00E0     		b	.L39
 555              	.LVL72:
 556              	.L38:
 892:Source\FreeRTOS\10.0.1\Source/stream_buffer.c **** 	}
 557              		.loc 1 892 0
 558 0038 0192     		str	r2, [sp, #4]
 559              	.LVL73:
 560              	.L39:
 896:Source\FreeRTOS\10.0.1\Source/stream_buffer.c **** 
 561              		.loc 1 896 0
 562 003a 2300     		movs	r3, r4
 563 003c 019A     		ldr	r2, [sp, #4]
 564 003e 3100     		movs	r1, r6
 565 0040 2800     		movs	r0, r5
 566 0042 FFF7FEFF 		bl	prvReadBytesFromBuffer
 567              	.LVL74:
 899:Source\FreeRTOS\10.0.1\Source/stream_buffer.c **** /*-----------------------------------------------------------*/
 568              		.loc 1 899 0
 569 0046 02B0     		add	sp, sp, #8
 570              		@ sp needed
 571              	.LVL75:
 572              	.LVL76:
 573              	.LVL77:
 574              	.LVL78:
 575 0048 04BC     		pop	{r2}
 576 004a 9046     		mov	r8, r2
 577 004c F0BD     		pop	{r4, r5, r6, r7, pc}
 578              		.cfi_endproc
 579              	.LFE47:
 580              		.size	prvReadMessageFromBuffer, .-prvReadMessageFromBuffer
 581 004e C046     		.section	.text.xStreamBufferGenericCreate,"ax",%progbits
 582              		.align	2
 583              		.global	xStreamBufferGenericCreate
 584              		.code	16
 585              		.thumb_func
 586              		.type	xStreamBufferGenericCreate, %function
 587              	xStreamBufferGenericCreate:
 588              	.LFB36:
 220:Source\FreeRTOS\10.0.1\Source/stream_buffer.c **** 	uint8_t *pucAllocatedMemory;
 589              		.loc 1 220 0
 590              		.cfi_startproc
 591              		@ args = 0, pretend = 0, frame = 0
 592              		@ frame_needed = 0, uses_anonymous_args = 0
 593              	.LVL79:
ARM GAS  C:\Users\Phuong\AppData\Local\Temp\ccnrs5hd.s 			page 33


 594 0000 F0B5     		push	{r4, r5, r6, r7, lr}
 595              		.cfi_def_cfa_offset 20
 596              		.cfi_offset 4, -20
 597              		.cfi_offset 5, -16
 598              		.cfi_offset 6, -12
 599              		.cfi_offset 7, -8
 600              		.cfi_offset 14, -4
 601 0002 83B0     		sub	sp, sp, #12
 602              		.cfi_def_cfa_offset 32
 603 0004 0D00     		movs	r5, r1
 604 0006 1700     		movs	r7, r2
 227:Source\FreeRTOS\10.0.1\Source/stream_buffer.c **** 		configASSERT( xTriggerLevelBytes <= xBufferSizeBytes );
 605              		.loc 1 227 0
 606 0008 0428     		cmp	r0, #4
 607 000a 01D8     		bhi	.L41
 227:Source\FreeRTOS\10.0.1\Source/stream_buffer.c **** 		configASSERT( xTriggerLevelBytes <= xBufferSizeBytes );
 608              		.loc 1 227 0 is_stmt 0 discriminator 1
 609              		.syntax divided
 610              	@ 227 "Source\FreeRTOS\10.0.1\Source\stream_buffer.c" 1
 611 000c 72B6     		 cpsid i 
 612              	@ 0 "" 2
 613              		.thumb
 614              		.syntax unified
 615              	.L42:
 616 000e FEE7     		b	.L42
 617              	.L41:
 228:Source\FreeRTOS\10.0.1\Source/stream_buffer.c **** 
 618              		.loc 1 228 0 is_stmt 1
 619 0010 8842     		cmp	r0, r1
 620 0012 01D2     		bcs	.L43
 228:Source\FreeRTOS\10.0.1\Source/stream_buffer.c **** 
 621              		.loc 1 228 0 is_stmt 0 discriminator 1
 622              		.syntax divided
 623              	@ 228 "Source\FreeRTOS\10.0.1\Source\stream_buffer.c" 1
 624 0014 72B6     		 cpsid i 
 625              	@ 0 "" 2
 626              		.thumb
 627              		.syntax unified
 628              	.L44:
 629 0016 FEE7     		b	.L44
 630              	.L43:
 232:Source\FreeRTOS\10.0.1\Source/stream_buffer.c **** 		{
 631              		.loc 1 232 0 is_stmt 1
 632 0018 0029     		cmp	r1, #0
 633 001a 00D1     		bne	.L45
 234:Source\FreeRTOS\10.0.1\Source/stream_buffer.c **** 		}
 634              		.loc 1 234 0
 635 001c 0135     		adds	r5, r5, #1
 636              	.L45:
 637              	.LVL80:
 245:Source\FreeRTOS\10.0.1\Source/stream_buffer.c **** 		pucAllocatedMemory = ( uint8_t * ) pvPortMalloc( xBufferSizeBytes + sizeof( StreamBuffer_t ) ); /
 638              		.loc 1 245 0
 639 001e 461C     		adds	r6, r0, #1
 640              	.LVL81:
 246:Source\FreeRTOS\10.0.1\Source/stream_buffer.c **** 
 641              		.loc 1 246 0
 642 0020 2530     		adds	r0, r0, #37
ARM GAS  C:\Users\Phuong\AppData\Local\Temp\ccnrs5hd.s 			page 34


 643 0022 FFF7FEFF 		bl	pvPortMalloc
 644              	.LVL82:
 645 0026 041E     		subs	r4, r0, #0
 646              	.LVL83:
 248:Source\FreeRTOS\10.0.1\Source/stream_buffer.c **** 		{
 647              		.loc 1 248 0
 648 0028 06D0     		beq	.L46
 250:Source\FreeRTOS\10.0.1\Source/stream_buffer.c **** 										   pucAllocatedMemory + sizeof( StreamBuffer_t ),  /* Storage area follows. */ /*lint !e9
 649              		.loc 1 250 0
 650 002a 0100     		movs	r1, r0
 651 002c 2431     		adds	r1, r1, #36
 652 002e 0097     		str	r7, [sp]
 653 0030 2B00     		movs	r3, r5
 654 0032 3200     		movs	r2, r6
 655 0034 FFF7FEFF 		bl	prvInitialiseNewStreamBuffer
 656              	.LVL84:
 657              	.L46:
 264:Source\FreeRTOS\10.0.1\Source/stream_buffer.c **** 
 658              		.loc 1 264 0
 659 0038 2000     		movs	r0, r4
 660 003a 03B0     		add	sp, sp, #12
 661              		@ sp needed
 662              	.LVL85:
 663              	.LVL86:
 664              	.LVL87:
 665              	.LVL88:
 666 003c F0BD     		pop	{r4, r5, r6, r7, pc}
 667              		.cfi_endproc
 668              	.LFE36:
 669              		.size	xStreamBufferGenericCreate, .-xStreamBufferGenericCreate
 670 003e C046     		.section	.text.vStreamBufferDelete,"ax",%progbits
 671              		.align	2
 672              		.global	vStreamBufferDelete
 673              		.code	16
 674              		.thumb_func
 675              		.type	vStreamBufferDelete, %function
 676              	vStreamBufferDelete:
 677              	.LFB37:
 336:Source\FreeRTOS\10.0.1\Source/stream_buffer.c **** StreamBuffer_t * pxStreamBuffer = ( StreamBuffer_t * ) xStreamBuffer; /*lint !e9087 !e9079 Safe cas
 678              		.loc 1 336 0
 679              		.cfi_startproc
 680              		@ args = 0, pretend = 0, frame = 0
 681              		@ frame_needed = 0, uses_anonymous_args = 0
 682              	.LVL89:
 683 0000 10B5     		push	{r4, lr}
 684              		.cfi_def_cfa_offset 8
 685              		.cfi_offset 4, -8
 686              		.cfi_offset 14, -4
 687              	.LVL90:
 339:Source\FreeRTOS\10.0.1\Source/stream_buffer.c **** 
 688              		.loc 1 339 0
 689 0002 0028     		cmp	r0, #0
 690 0004 01D1     		bne	.L49
 339:Source\FreeRTOS\10.0.1\Source/stream_buffer.c **** 
 691              		.loc 1 339 0 is_stmt 0 discriminator 1
 692              		.syntax divided
 693              	@ 339 "Source\FreeRTOS\10.0.1\Source\stream_buffer.c" 1
ARM GAS  C:\Users\Phuong\AppData\Local\Temp\ccnrs5hd.s 			page 35


 694 0006 72B6     		 cpsid i 
 695              	@ 0 "" 2
 696              		.thumb
 697              		.syntax unified
 698              	.L50:
 699 0008 FEE7     		b	.L50
 700              	.L49:
 343:Source\FreeRTOS\10.0.1\Source/stream_buffer.c **** 	{
 701              		.loc 1 343 0 is_stmt 1
 702 000a 037F     		ldrb	r3, [r0, #28]
 703 000c 9B07     		lsls	r3, r3, #30
 704 000e 02D4     		bmi	.L51
 349:Source\FreeRTOS\10.0.1\Source/stream_buffer.c **** 		}
 705              		.loc 1 349 0
 706 0010 FFF7FEFF 		bl	vPortFree
 707              	.LVL91:
 708 0014 03E0     		b	.L48
 709              	.LVL92:
 710              	.L51:
 363:Source\FreeRTOS\10.0.1\Source/stream_buffer.c **** 	}
 711              		.loc 1 363 0
 712 0016 2422     		movs	r2, #36
 713 0018 0021     		movs	r1, #0
 714 001a FFF7FEFF 		bl	memset
 715              	.LVL93:
 716              	.L48:
 365:Source\FreeRTOS\10.0.1\Source/stream_buffer.c **** /*-----------------------------------------------------------*/
 717              		.loc 1 365 0
 718              		@ sp needed
 719 001e 10BD     		pop	{r4, pc}
 720              		.cfi_endproc
 721              	.LFE37:
 722              		.size	vStreamBufferDelete, .-vStreamBufferDelete
 723              		.section	.text.xStreamBufferReset,"ax",%progbits
 724              		.align	2
 725              		.global	xStreamBufferReset
 726              		.code	16
 727              		.thumb_func
 728              		.type	xStreamBufferReset, %function
 729              	xStreamBufferReset:
 730              	.LFB38:
 369:Source\FreeRTOS\10.0.1\Source/stream_buffer.c **** StreamBuffer_t * const pxStreamBuffer = ( StreamBuffer_t * ) xStreamBuffer; /*lint !e9087 !e9079 Sa
 731              		.loc 1 369 0
 732              		.cfi_startproc
 733              		@ args = 0, pretend = 0, frame = 0
 734              		@ frame_needed = 0, uses_anonymous_args = 0
 735              	.LVL94:
 736 0000 30B5     		push	{r4, r5, lr}
 737              		.cfi_def_cfa_offset 12
 738              		.cfi_offset 4, -12
 739              		.cfi_offset 5, -8
 740              		.cfi_offset 14, -4
 741 0002 83B0     		sub	sp, sp, #12
 742              		.cfi_def_cfa_offset 24
 743 0004 041E     		subs	r4, r0, #0
 744              	.LVL95:
 377:Source\FreeRTOS\10.0.1\Source/stream_buffer.c **** 
ARM GAS  C:\Users\Phuong\AppData\Local\Temp\ccnrs5hd.s 			page 36


 745              		.loc 1 377 0
 746 0006 01D1     		bne	.L54
 377:Source\FreeRTOS\10.0.1\Source/stream_buffer.c **** 
 747              		.loc 1 377 0 is_stmt 0 discriminator 1
 748              		.syntax divided
 749              	@ 377 "Source\FreeRTOS\10.0.1\Source\stream_buffer.c" 1
 750 0008 72B6     		 cpsid i 
 751              	@ 0 "" 2
 752              		.thumb
 753              		.syntax unified
 754              	.L55:
 755 000a FEE7     		b	.L55
 756              	.L54:
 383:Source\FreeRTOS\10.0.1\Source/stream_buffer.c **** 	}
 757              		.loc 1 383 0 is_stmt 1
 758 000c 056A     		ldr	r5, [r0, #32]
 759              	.LVL96:
 388:Source\FreeRTOS\10.0.1\Source/stream_buffer.c **** 	{
 760              		.loc 1 388 0
 761 000e 0369     		ldr	r3, [r0, #16]
 762 0010 002B     		cmp	r3, #0
 763 0012 12D1     		bne	.L58
 390:Source\FreeRTOS\10.0.1\Source/stream_buffer.c **** 		{
 764              		.loc 1 390 0
 765 0014 4369     		ldr	r3, [r0, #20]
 766 0016 002B     		cmp	r3, #0
 767 0018 11D1     		bne	.L59
 392:Source\FreeRTOS\10.0.1\Source/stream_buffer.c **** 			{
 768              		.loc 1 392 0
 769 001a 037F     		ldrb	r3, [r0, #28]
 770 001c DB07     		lsls	r3, r3, #31
 771 001e 01D5     		bpl	.L60
 394:Source\FreeRTOS\10.0.1\Source/stream_buffer.c **** 			}
 772              		.loc 1 394 0
 773 0020 0123     		movs	r3, #1
 774 0022 00E0     		b	.L57
 775              	.L60:
 398:Source\FreeRTOS\10.0.1\Source/stream_buffer.c **** 			}
 776              		.loc 1 398 0
 777 0024 0023     		movs	r3, #0
 778              	.L57:
 779              	.LVL97:
 401:Source\FreeRTOS\10.0.1\Source/stream_buffer.c **** 										  pxStreamBuffer->pucBuffer,
 780              		.loc 1 401 0
 781 0026 0093     		str	r3, [sp]
 782 0028 E368     		ldr	r3, [r4, #12]
 783              	.LVL98:
 784 002a A268     		ldr	r2, [r4, #8]
 785 002c A169     		ldr	r1, [r4, #24]
 786 002e 2000     		movs	r0, r4
 787              	.LVL99:
 788 0030 FFF7FEFF 		bl	prvInitialiseNewStreamBuffer
 789              	.LVL100:
 410:Source\FreeRTOS\10.0.1\Source/stream_buffer.c **** 			}
 790              		.loc 1 410 0
 791 0034 2562     		str	r5, [r4, #32]
 406:Source\FreeRTOS\10.0.1\Source/stream_buffer.c **** 
ARM GAS  C:\Users\Phuong\AppData\Local\Temp\ccnrs5hd.s 			page 37


 792              		.loc 1 406 0
 793 0036 0120     		movs	r0, #1
 794 0038 02E0     		b	.L56
 795              	.LVL101:
 796              	.L58:
 371:Source\FreeRTOS\10.0.1\Source/stream_buffer.c **** 
 797              		.loc 1 371 0
 798 003a 0020     		movs	r0, #0
 799              	.LVL102:
 800 003c 00E0     		b	.L56
 801              	.LVL103:
 802              	.L59:
 803 003e 0020     		movs	r0, #0
 804              	.LVL104:
 805              	.L56:
 419:Source\FreeRTOS\10.0.1\Source/stream_buffer.c **** /*-----------------------------------------------------------*/
 806              		.loc 1 419 0
 807 0040 03B0     		add	sp, sp, #12
 808              		@ sp needed
 809              	.LVL105:
 810              	.LVL106:
 811 0042 30BD     		pop	{r4, r5, pc}
 812              		.cfi_endproc
 813              	.LFE38:
 814              		.size	xStreamBufferReset, .-xStreamBufferReset
 815              		.section	.text.xStreamBufferSetTriggerLevel,"ax",%progbits
 816              		.align	2
 817              		.global	xStreamBufferSetTriggerLevel
 818              		.code	16
 819              		.thumb_func
 820              		.type	xStreamBufferSetTriggerLevel, %function
 821              	xStreamBufferSetTriggerLevel:
 822              	.LFB39:
 423:Source\FreeRTOS\10.0.1\Source/stream_buffer.c **** StreamBuffer_t * const pxStreamBuffer = ( StreamBuffer_t * ) xStreamBuffer; /*lint !e9087 !e9079 Sa
 823              		.loc 1 423 0
 824              		.cfi_startproc
 825              		@ args = 0, pretend = 0, frame = 0
 826              		@ frame_needed = 0, uses_anonymous_args = 0
 827              		@ link register save eliminated.
 828              	.LVL107:
 427:Source\FreeRTOS\10.0.1\Source/stream_buffer.c **** 
 829              		.loc 1 427 0
 830 0000 0028     		cmp	r0, #0
 831 0002 01D1     		bne	.L62
 427:Source\FreeRTOS\10.0.1\Source/stream_buffer.c **** 
 832              		.loc 1 427 0 is_stmt 0 discriminator 1
 833              		.syntax divided
 834              	@ 427 "Source\FreeRTOS\10.0.1\Source\stream_buffer.c" 1
 835 0004 72B6     		 cpsid i 
 836              	@ 0 "" 2
 837              		.thumb
 838              		.syntax unified
 839              	.L63:
 840 0006 FEE7     		b	.L63
 841              	.L62:
 430:Source\FreeRTOS\10.0.1\Source/stream_buffer.c **** 	{
 842              		.loc 1 430 0 is_stmt 1
ARM GAS  C:\Users\Phuong\AppData\Local\Temp\ccnrs5hd.s 			page 38


 843 0008 0029     		cmp	r1, #0
 844 000a 00D1     		bne	.L64
 432:Source\FreeRTOS\10.0.1\Source/stream_buffer.c **** 	}
 845              		.loc 1 432 0
 846 000c 0131     		adds	r1, r1, #1
 847              	.LVL108:
 848              	.L64:
 437:Source\FreeRTOS\10.0.1\Source/stream_buffer.c **** 	{
 849              		.loc 1 437 0
 850 000e 8368     		ldr	r3, [r0, #8]
 851 0010 9942     		cmp	r1, r3
 852 0012 02D8     		bhi	.L67
 439:Source\FreeRTOS\10.0.1\Source/stream_buffer.c **** 		xReturn = pdPASS;
 853              		.loc 1 439 0
 854 0014 C160     		str	r1, [r0, #12]
 855              	.LVL109:
 440:Source\FreeRTOS\10.0.1\Source/stream_buffer.c **** 	}
 856              		.loc 1 440 0
 857 0016 0120     		movs	r0, #1
 858              	.LVL110:
 859 0018 00E0     		b	.L65
 860              	.LVL111:
 861              	.L67:
 444:Source\FreeRTOS\10.0.1\Source/stream_buffer.c **** 	}
 862              		.loc 1 444 0
 863 001a 0020     		movs	r0, #0
 864              	.LVL112:
 865              	.L65:
 448:Source\FreeRTOS\10.0.1\Source/stream_buffer.c **** /*-----------------------------------------------------------*/
 866              		.loc 1 448 0
 867              		@ sp needed
 868 001c 7047     		bx	lr
 869              		.cfi_endproc
 870              	.LFE39:
 871              		.size	xStreamBufferSetTriggerLevel, .-xStreamBufferSetTriggerLevel
 872 001e C046     		.section	.text.xStreamBufferSpacesAvailable,"ax",%progbits
 873              		.align	2
 874              		.global	xStreamBufferSpacesAvailable
 875              		.code	16
 876              		.thumb_func
 877              		.type	xStreamBufferSpacesAvailable, %function
 878              	xStreamBufferSpacesAvailable:
 879              	.LFB40:
 452:Source\FreeRTOS\10.0.1\Source/stream_buffer.c **** const StreamBuffer_t * const pxStreamBuffer = ( StreamBuffer_t * ) xStreamBuffer; /*lint !e9087 !e9
 880              		.loc 1 452 0
 881              		.cfi_startproc
 882              		@ args = 0, pretend = 0, frame = 0
 883              		@ frame_needed = 0, uses_anonymous_args = 0
 884              		@ link register save eliminated.
 885              	.LVL113:
 456:Source\FreeRTOS\10.0.1\Source/stream_buffer.c **** 
 886              		.loc 1 456 0
 887 0000 0028     		cmp	r0, #0
 888 0002 01D1     		bne	.L69
 456:Source\FreeRTOS\10.0.1\Source/stream_buffer.c **** 
 889              		.loc 1 456 0 is_stmt 0 discriminator 1
 890              		.syntax divided
ARM GAS  C:\Users\Phuong\AppData\Local\Temp\ccnrs5hd.s 			page 39


 891              	@ 456 "Source\FreeRTOS\10.0.1\Source\stream_buffer.c" 1
 892 0004 72B6     		 cpsid i 
 893              	@ 0 "" 2
 894              		.thumb
 895              		.syntax unified
 896              	.L70:
 897 0006 FEE7     		b	.L70
 898              	.L69:
 458:Source\FreeRTOS\10.0.1\Source/stream_buffer.c **** 	xSpace -= pxStreamBuffer->xHead;
 899              		.loc 1 458 0 is_stmt 1
 900 0008 8268     		ldr	r2, [r0, #8]
 901 000a 0368     		ldr	r3, [r0]
 902 000c D318     		adds	r3, r2, r3
 903              	.LVL114:
 459:Source\FreeRTOS\10.0.1\Source/stream_buffer.c **** 	xSpace -= ( size_t ) 1;
 904              		.loc 1 459 0
 905 000e 4068     		ldr	r0, [r0, #4]
 906              	.LVL115:
 907 0010 181A     		subs	r0, r3, r0
 908              	.LVL116:
 460:Source\FreeRTOS\10.0.1\Source/stream_buffer.c **** 
 909              		.loc 1 460 0
 910 0012 0138     		subs	r0, r0, #1
 911              	.LVL117:
 462:Source\FreeRTOS\10.0.1\Source/stream_buffer.c **** 	{
 912              		.loc 1 462 0
 913 0014 8242     		cmp	r2, r0
 914 0016 00D8     		bhi	.L71
 464:Source\FreeRTOS\10.0.1\Source/stream_buffer.c **** 	}
 915              		.loc 1 464 0
 916 0018 801A     		subs	r0, r0, r2
 917              	.LVL118:
 918              	.L71:
 472:Source\FreeRTOS\10.0.1\Source/stream_buffer.c **** /*-----------------------------------------------------------*/
 919              		.loc 1 472 0
 920              		@ sp needed
 921 001a 7047     		bx	lr
 922              		.cfi_endproc
 923              	.LFE40:
 924              		.size	xStreamBufferSpacesAvailable, .-xStreamBufferSpacesAvailable
 925              		.section	.text.xStreamBufferBytesAvailable,"ax",%progbits
 926              		.align	2
 927              		.global	xStreamBufferBytesAvailable
 928              		.code	16
 929              		.thumb_func
 930              		.type	xStreamBufferBytesAvailable, %function
 931              	xStreamBufferBytesAvailable:
 932              	.LFB41:
 476:Source\FreeRTOS\10.0.1\Source/stream_buffer.c **** const StreamBuffer_t * const pxStreamBuffer = ( StreamBuffer_t * ) xStreamBuffer; /*lint !e9087 !e9
 933              		.loc 1 476 0
 934              		.cfi_startproc
 935              		@ args = 0, pretend = 0, frame = 0
 936              		@ frame_needed = 0, uses_anonymous_args = 0
 937              	.LVL119:
 938 0000 10B5     		push	{r4, lr}
 939              		.cfi_def_cfa_offset 8
 940              		.cfi_offset 4, -8
ARM GAS  C:\Users\Phuong\AppData\Local\Temp\ccnrs5hd.s 			page 40


 941              		.cfi_offset 14, -4
 942              	.LVL120:
 480:Source\FreeRTOS\10.0.1\Source/stream_buffer.c **** 
 943              		.loc 1 480 0
 944 0002 0028     		cmp	r0, #0
 945 0004 01D1     		bne	.L73
 480:Source\FreeRTOS\10.0.1\Source/stream_buffer.c **** 
 946              		.loc 1 480 0 is_stmt 0 discriminator 1
 947              		.syntax divided
 948              	@ 480 "Source\FreeRTOS\10.0.1\Source\stream_buffer.c" 1
 949 0006 72B6     		 cpsid i 
 950              	@ 0 "" 2
 951              		.thumb
 952              		.syntax unified
 953              	.L74:
 954 0008 FEE7     		b	.L74
 955              	.L73:
 482:Source\FreeRTOS\10.0.1\Source/stream_buffer.c **** 	return xReturn;
 956              		.loc 1 482 0 is_stmt 1
 957 000a FFF7FEFF 		bl	prvBytesInBuffer
 958              	.LVL121:
 484:Source\FreeRTOS\10.0.1\Source/stream_buffer.c **** /*-----------------------------------------------------------*/
 959              		.loc 1 484 0
 960              		@ sp needed
 961 000e 10BD     		pop	{r4, pc}
 962              		.cfi_endproc
 963              	.LFE41:
 964              		.size	xStreamBufferBytesAvailable, .-xStreamBufferBytesAvailable
 965              		.section	.text.xStreamBufferSend,"ax",%progbits
 966              		.align	2
 967              		.global	xStreamBufferSend
 968              		.code	16
 969              		.thumb_func
 970              		.type	xStreamBufferSend, %function
 971              	xStreamBufferSend:
 972              	.LFB42:
 491:Source\FreeRTOS\10.0.1\Source/stream_buffer.c **** StreamBuffer_t * const pxStreamBuffer = ( StreamBuffer_t * ) xStreamBuffer; /*lint !e9087 !e9079 Sa
 973              		.loc 1 491 0
 974              		.cfi_startproc
 975              		@ args = 0, pretend = 0, frame = 16
 976              		@ frame_needed = 0, uses_anonymous_args = 0
 977              	.LVL122:
 978 0000 F0B5     		push	{r4, r5, r6, r7, lr}
 979              		.cfi_def_cfa_offset 20
 980              		.cfi_offset 4, -20
 981              		.cfi_offset 5, -16
 982              		.cfi_offset 6, -12
 983              		.cfi_offset 7, -8
 984              		.cfi_offset 14, -4
 985 0002 87B0     		sub	sp, sp, #28
 986              		.cfi_def_cfa_offset 48
 987 0004 0400     		movs	r4, r0
 988 0006 0291     		str	r1, [sp, #8]
 989 0008 1600     		movs	r6, r2
 990 000a 0393     		str	r3, [sp, #12]
 991              	.LVL123:
 497:Source\FreeRTOS\10.0.1\Source/stream_buffer.c **** 	configASSERT( pxStreamBuffer );
ARM GAS  C:\Users\Phuong\AppData\Local\Temp\ccnrs5hd.s 			page 41


 992              		.loc 1 497 0
 993 000c 0029     		cmp	r1, #0
 994 000e 01D1     		bne	.L76
 497:Source\FreeRTOS\10.0.1\Source/stream_buffer.c **** 	configASSERT( pxStreamBuffer );
 995              		.loc 1 497 0 is_stmt 0 discriminator 1
 996              		.syntax divided
 997              	@ 497 "Source\FreeRTOS\10.0.1\Source\stream_buffer.c" 1
 998 0010 72B6     		 cpsid i 
 999              	@ 0 "" 2
 1000              		.thumb
 1001              		.syntax unified
 1002              	.L77:
 1003 0012 FEE7     		b	.L77
 1004              	.L76:
 498:Source\FreeRTOS\10.0.1\Source/stream_buffer.c **** 
 1005              		.loc 1 498 0 is_stmt 1
 1006 0014 0028     		cmp	r0, #0
 1007 0016 01D1     		bne	.L78
 498:Source\FreeRTOS\10.0.1\Source/stream_buffer.c **** 
 1008              		.loc 1 498 0 is_stmt 0 discriminator 1
 1009              		.syntax divided
 1010              	@ 498 "Source\FreeRTOS\10.0.1\Source\stream_buffer.c" 1
 1011 0018 72B6     		 cpsid i 
 1012              	@ 0 "" 2
 1013              		.thumb
 1014              		.syntax unified
 1015              	.L79:
 1016 001a FEE7     		b	.L79
 1017              	.L78:
 504:Source\FreeRTOS\10.0.1\Source/stream_buffer.c **** 	{
 1018              		.loc 1 504 0 is_stmt 1
 1019 001c 037F     		ldrb	r3, [r0, #28]
 1020              	.LVL124:
 1021 001e DB07     		lsls	r3, r3, #31
 1022 0020 01D5     		bpl	.L89
 506:Source\FreeRTOS\10.0.1\Source/stream_buffer.c **** 	}
 1023              		.loc 1 506 0
 1024 0022 171D     		adds	r7, r2, #4
 1025              	.LVL125:
 1026 0024 00E0     		b	.L80
 1027              	.LVL126:
 1028              	.L89:
 494:Source\FreeRTOS\10.0.1\Source/stream_buffer.c **** TimeOut_t xTimeOut;
 1029              		.loc 1 494 0
 1030 0026 1700     		movs	r7, r2
 1031              	.LVL127:
 1032              	.L80:
 513:Source\FreeRTOS\10.0.1\Source/stream_buffer.c **** 	{
 1033              		.loc 1 513 0
 1034 0028 039B     		ldr	r3, [sp, #12]
 1035 002a 002B     		cmp	r3, #0
 1036 002c 2AD0     		beq	.L90
 515:Source\FreeRTOS\10.0.1\Source/stream_buffer.c **** 
 1037              		.loc 1 515 0
 1038 002e 04A8     		add	r0, sp, #16
 1039              	.LVL128:
 1040 0030 FFF7FEFF 		bl	vTaskSetTimeOutState
ARM GAS  C:\Users\Phuong\AppData\Local\Temp\ccnrs5hd.s 			page 42


 1041              	.LVL129:
 1042              	.L85:
 521:Source\FreeRTOS\10.0.1\Source/stream_buffer.c **** 			{
 1043              		.loc 1 521 0
 1044 0034 FFF7FEFF 		bl	vPortEnterCritical
 1045              	.LVL130:
 523:Source\FreeRTOS\10.0.1\Source/stream_buffer.c **** 
 1046              		.loc 1 523 0
 1047 0038 2000     		movs	r0, r4
 1048 003a FFF7FEFF 		bl	xStreamBufferSpacesAvailable
 1049              	.LVL131:
 1050 003e 0500     		movs	r5, r0
 1051              	.LVL132:
 525:Source\FreeRTOS\10.0.1\Source/stream_buffer.c **** 				{
 1052              		.loc 1 525 0
 1053 0040 8742     		cmp	r7, r0
 1054 0042 1CD9     		bls	.L82
 528:Source\FreeRTOS\10.0.1\Source/stream_buffer.c **** 
 1055              		.loc 1 528 0
 1056 0044 0020     		movs	r0, #0
 1057              	.LVL133:
 1058 0046 FFF7FEFF 		bl	xTaskNotifyStateClear
 1059              	.LVL134:
 531:Source\FreeRTOS\10.0.1\Source/stream_buffer.c **** 					pxStreamBuffer->xTaskWaitingToSend = xTaskGetCurrentTaskHandle();
 1060              		.loc 1 531 0
 1061 004a 6369     		ldr	r3, [r4, #20]
 1062 004c 002B     		cmp	r3, #0
 1063 004e 01D0     		beq	.L83
 531:Source\FreeRTOS\10.0.1\Source/stream_buffer.c **** 					pxStreamBuffer->xTaskWaitingToSend = xTaskGetCurrentTaskHandle();
 1064              		.loc 1 531 0 is_stmt 0 discriminator 1
 1065              		.syntax divided
 1066              	@ 531 "Source\FreeRTOS\10.0.1\Source\stream_buffer.c" 1
 1067 0050 72B6     		 cpsid i 
 1068              	@ 0 "" 2
 1069              		.thumb
 1070              		.syntax unified
 1071              	.L84:
 1072 0052 FEE7     		b	.L84
 1073              	.L83:
 532:Source\FreeRTOS\10.0.1\Source/stream_buffer.c **** 				}
 1074              		.loc 1 532 0 is_stmt 1
 1075 0054 FFF7FEFF 		bl	xTaskGetCurrentTaskHandle
 1076              	.LVL135:
 1077 0058 6061     		str	r0, [r4, #20]
 540:Source\FreeRTOS\10.0.1\Source/stream_buffer.c **** 
 1078              		.loc 1 540 0
 1079 005a FFF7FEFF 		bl	vPortExitCritical
 1080              	.LVL136:
 543:Source\FreeRTOS\10.0.1\Source/stream_buffer.c **** 			pxStreamBuffer->xTaskWaitingToSend = NULL;
 1081              		.loc 1 543 0
 1082 005e 039B     		ldr	r3, [sp, #12]
 1083 0060 0022     		movs	r2, #0
 1084 0062 0121     		movs	r1, #1
 1085 0064 4942     		rsbs	r1, r1, #0
 1086 0066 0020     		movs	r0, #0
 1087 0068 FFF7FEFF 		bl	xTaskNotifyWait
 1088              	.LVL137:
ARM GAS  C:\Users\Phuong\AppData\Local\Temp\ccnrs5hd.s 			page 43


 544:Source\FreeRTOS\10.0.1\Source/stream_buffer.c **** 
 1089              		.loc 1 544 0
 1090 006c 0023     		movs	r3, #0
 1091 006e 6361     		str	r3, [r4, #20]
 546:Source\FreeRTOS\10.0.1\Source/stream_buffer.c **** 	}
 1092              		.loc 1 546 0
 1093 0070 03A9     		add	r1, sp, #12
 1094              	.LVL138:
 1095 0072 04A8     		add	r0, sp, #16
 1096 0074 FFF7FEFF 		bl	xTaskCheckForTimeOut
 1097              	.LVL139:
 1098 0078 0028     		cmp	r0, #0
 1099 007a DBD0     		beq	.L85
 1100 007c 03E0     		b	.L81
 1101              	.LVL140:
 1102              	.L82:
 536:Source\FreeRTOS\10.0.1\Source/stream_buffer.c **** 					break;
 1103              		.loc 1 536 0
 1104 007e FFF7FEFF 		bl	vPortExitCritical
 1105              	.LVL141:
 537:Source\FreeRTOS\10.0.1\Source/stream_buffer.c **** 				}
 1106              		.loc 1 537 0
 1107 0082 00E0     		b	.L81
 1108              	.LVL142:
 1109              	.L90:
 493:Source\FreeRTOS\10.0.1\Source/stream_buffer.c **** size_t xRequiredSpace = xDataLengthBytes;
 1110              		.loc 1 493 0
 1111 0084 0025     		movs	r5, #0
 1112              	.LVL143:
 1113              	.L81:
 553:Source\FreeRTOS\10.0.1\Source/stream_buffer.c **** 	{
 1114              		.loc 1 553 0
 1115 0086 002D     		cmp	r5, #0
 1116 0088 03D1     		bne	.L86
 555:Source\FreeRTOS\10.0.1\Source/stream_buffer.c **** 	}
 1117              		.loc 1 555 0
 1118 008a 2000     		movs	r0, r4
 1119 008c FFF7FEFF 		bl	xStreamBufferSpacesAvailable
 1120              	.LVL144:
 1121 0090 0500     		movs	r5, r0
 1122              	.LVL145:
 1123              	.L86:
 562:Source\FreeRTOS\10.0.1\Source/stream_buffer.c **** 
 1124              		.loc 1 562 0
 1125 0092 0097     		str	r7, [sp]
 1126 0094 2B00     		movs	r3, r5
 1127 0096 3200     		movs	r2, r6
 1128 0098 0299     		ldr	r1, [sp, #8]
 1129 009a 2000     		movs	r0, r4
 1130 009c FFF7FEFF 		bl	prvWriteMessageToBuffer
 1131              	.LVL146:
 1132 00a0 051E     		subs	r5, r0, #0
 1133              	.LVL147:
 564:Source\FreeRTOS\10.0.1\Source/stream_buffer.c **** 	{
 1134              		.loc 1 564 0
 1135 00a2 14D0     		beq	.L87
 569:Source\FreeRTOS\10.0.1\Source/stream_buffer.c **** 		{
ARM GAS  C:\Users\Phuong\AppData\Local\Temp\ccnrs5hd.s 			page 44


 1136              		.loc 1 569 0
 1137 00a4 2000     		movs	r0, r4
 1138              	.LVL148:
 1139 00a6 FFF7FEFF 		bl	prvBytesInBuffer
 1140              	.LVL149:
 1141 00aa E368     		ldr	r3, [r4, #12]
 1142 00ac 9842     		cmp	r0, r3
 1143 00ae 0ED3     		bcc	.L87
 571:Source\FreeRTOS\10.0.1\Source/stream_buffer.c **** 		}
 1144              		.loc 1 571 0
 1145 00b0 FFF7FEFF 		bl	vTaskSuspendAll
 1146              	.LVL150:
 1147 00b4 2369     		ldr	r3, [r4, #16]
 1148 00b6 002B     		cmp	r3, #0
 1149 00b8 07D0     		beq	.L88
 571:Source\FreeRTOS\10.0.1\Source/stream_buffer.c **** 		}
 1150              		.loc 1 571 0 is_stmt 0 discriminator 1
 1151 00ba 2069     		ldr	r0, [r4, #16]
 1152 00bc 0023     		movs	r3, #0
 1153 00be 0022     		movs	r2, #0
 1154 00c0 0021     		movs	r1, #0
 1155 00c2 FFF7FEFF 		bl	xTaskGenericNotify
 1156              	.LVL151:
 1157 00c6 0023     		movs	r3, #0
 1158 00c8 2361     		str	r3, [r4, #16]
 1159              	.L88:
 571:Source\FreeRTOS\10.0.1\Source/stream_buffer.c **** 		}
 1160              		.loc 1 571 0 discriminator 3
 1161 00ca FFF7FEFF 		bl	xTaskResumeAll
 1162              	.LVL152:
 1163              	.L87:
 585:Source\FreeRTOS\10.0.1\Source/stream_buffer.c **** /*-----------------------------------------------------------*/
 1164              		.loc 1 585 0 is_stmt 1
 1165 00ce 2800     		movs	r0, r5
 1166 00d0 07B0     		add	sp, sp, #28
 1167              		@ sp needed
 1168              	.LVL153:
 1169              	.LVL154:
 1170              	.LVL155:
 1171              	.LVL156:
 1172 00d2 F0BD     		pop	{r4, r5, r6, r7, pc}
 1173              		.cfi_endproc
 1174              	.LFE42:
 1175              		.size	xStreamBufferSend, .-xStreamBufferSend
 1176              		.section	.text.xStreamBufferSendFromISR,"ax",%progbits
 1177              		.align	2
 1178              		.global	xStreamBufferSendFromISR
 1179              		.code	16
 1180              		.thumb_func
 1181              		.type	xStreamBufferSendFromISR, %function
 1182              	xStreamBufferSendFromISR:
 1183              	.LFB43:
 592:Source\FreeRTOS\10.0.1\Source/stream_buffer.c **** StreamBuffer_t * const pxStreamBuffer = ( StreamBuffer_t * ) xStreamBuffer; /*lint !e9087 !e9079 Sa
 1184              		.loc 1 592 0
 1185              		.cfi_startproc
 1186              		@ args = 0, pretend = 0, frame = 0
 1187              		@ frame_needed = 0, uses_anonymous_args = 0
ARM GAS  C:\Users\Phuong\AppData\Local\Temp\ccnrs5hd.s 			page 45


 1188              	.LVL157:
 1189 0000 F0B5     		push	{r4, r5, r6, r7, lr}
 1190              		.cfi_def_cfa_offset 20
 1191              		.cfi_offset 4, -20
 1192              		.cfi_offset 5, -16
 1193              		.cfi_offset 6, -12
 1194              		.cfi_offset 7, -8
 1195              		.cfi_offset 14, -4
 1196 0002 4746     		mov	r7, r8
 1197 0004 80B4     		push	{r7}
 1198              		.cfi_def_cfa_offset 24
 1199              		.cfi_offset 8, -24
 1200 0006 82B0     		sub	sp, sp, #8
 1201              		.cfi_def_cfa_offset 32
 1202 0008 0400     		movs	r4, r0
 1203 000a 0E00     		movs	r6, r1
 1204 000c 1500     		movs	r5, r2
 1205 000e 9846     		mov	r8, r3
 1206              	.LVL158:
 597:Source\FreeRTOS\10.0.1\Source/stream_buffer.c **** 	configASSERT( pxStreamBuffer );
 1207              		.loc 1 597 0
 1208 0010 0029     		cmp	r1, #0
 1209 0012 01D1     		bne	.L92
 597:Source\FreeRTOS\10.0.1\Source/stream_buffer.c **** 	configASSERT( pxStreamBuffer );
 1210              		.loc 1 597 0 is_stmt 0 discriminator 1
 1211              		.syntax divided
 1212              	@ 597 "Source\FreeRTOS\10.0.1\Source\stream_buffer.c" 1
 1213 0014 72B6     		 cpsid i 
 1214              	@ 0 "" 2
 1215              		.thumb
 1216              		.syntax unified
 1217              	.L93:
 1218 0016 FEE7     		b	.L93
 1219              	.L92:
 598:Source\FreeRTOS\10.0.1\Source/stream_buffer.c **** 
 1220              		.loc 1 598 0 is_stmt 1
 1221 0018 0028     		cmp	r0, #0
 1222 001a 01D1     		bne	.L94
 598:Source\FreeRTOS\10.0.1\Source/stream_buffer.c **** 
 1223              		.loc 1 598 0 is_stmt 0 discriminator 1
 1224              		.syntax divided
 1225              	@ 598 "Source\FreeRTOS\10.0.1\Source\stream_buffer.c" 1
 1226 001c 72B6     		 cpsid i 
 1227              	@ 0 "" 2
 1228              		.thumb
 1229              		.syntax unified
 1230              	.L95:
 1231 001e FEE7     		b	.L95
 1232              	.L94:
 604:Source\FreeRTOS\10.0.1\Source/stream_buffer.c **** 	{
 1233              		.loc 1 604 0 is_stmt 1
 1234 0020 037F     		ldrb	r3, [r0, #28]
 1235              	.LVL159:
 1236 0022 DB07     		lsls	r3, r3, #31
 1237 0024 01D5     		bpl	.L99
 606:Source\FreeRTOS\10.0.1\Source/stream_buffer.c **** 	}
 1238              		.loc 1 606 0
ARM GAS  C:\Users\Phuong\AppData\Local\Temp\ccnrs5hd.s 			page 46


 1239 0026 171D     		adds	r7, r2, #4
 1240              	.LVL160:
 1241 0028 00E0     		b	.L96
 1242              	.LVL161:
 1243              	.L99:
 595:Source\FreeRTOS\10.0.1\Source/stream_buffer.c **** 
 1244              		.loc 1 595 0
 1245 002a 1700     		movs	r7, r2
 1246              	.LVL162:
 1247              	.L96:
 613:Source\FreeRTOS\10.0.1\Source/stream_buffer.c **** 	xReturn = prvWriteMessageToBuffer( pxStreamBuffer, pvTxData, xDataLengthBytes, xSpace, xRequiredSp
 1248              		.loc 1 613 0
 1249 002c 2000     		movs	r0, r4
 1250              	.LVL163:
 1251 002e FFF7FEFF 		bl	xStreamBufferSpacesAvailable
 1252              	.LVL164:
 1253 0032 0300     		movs	r3, r0
 1254              	.LVL165:
 614:Source\FreeRTOS\10.0.1\Source/stream_buffer.c **** 
 1255              		.loc 1 614 0
 1256 0034 0097     		str	r7, [sp]
 1257 0036 2A00     		movs	r2, r5
 1258 0038 3100     		movs	r1, r6
 1259 003a 2000     		movs	r0, r4
 1260              	.LVL166:
 1261 003c FFF7FEFF 		bl	prvWriteMessageToBuffer
 1262              	.LVL167:
 1263 0040 051E     		subs	r5, r0, #0
 1264              	.LVL168:
 616:Source\FreeRTOS\10.0.1\Source/stream_buffer.c **** 	{
 1265              		.loc 1 616 0
 1266 0042 18D0     		beq	.L97
 619:Source\FreeRTOS\10.0.1\Source/stream_buffer.c **** 		{
 1267              		.loc 1 619 0
 1268 0044 2000     		movs	r0, r4
 1269              	.LVL169:
 1270 0046 FFF7FEFF 		bl	prvBytesInBuffer
 1271              	.LVL170:
 1272 004a E368     		ldr	r3, [r4, #12]
 1273 004c 9842     		cmp	r0, r3
 1274 004e 12D3     		bcc	.L97
 1275              	.LBB3:
 621:Source\FreeRTOS\10.0.1\Source/stream_buffer.c **** 		}
 1276              		.loc 1 621 0
 1277 0050 FFF7FEFF 		bl	ulSetInterruptMaskFromISR
 1278              	.LVL171:
 1279 0054 0600     		movs	r6, r0
 1280              	.LVL172:
 1281 0056 2369     		ldr	r3, [r4, #16]
 1282 0058 002B     		cmp	r3, #0
 1283 005a 09D0     		beq	.L98
 621:Source\FreeRTOS\10.0.1\Source/stream_buffer.c **** 		}
 1284              		.loc 1 621 0 is_stmt 0 discriminator 1
 1285 005c 2069     		ldr	r0, [r4, #16]
 1286              	.LVL173:
 1287 005e 4346     		mov	r3, r8
 1288 0060 0093     		str	r3, [sp]
ARM GAS  C:\Users\Phuong\AppData\Local\Temp\ccnrs5hd.s 			page 47


 1289 0062 0023     		movs	r3, #0
 1290 0064 0022     		movs	r2, #0
 1291 0066 0021     		movs	r1, #0
 1292 0068 FFF7FEFF 		bl	xTaskGenericNotifyFromISR
 1293              	.LVL174:
 1294 006c 0023     		movs	r3, #0
 1295 006e 2361     		str	r3, [r4, #16]
 1296              	.L98:
 621:Source\FreeRTOS\10.0.1\Source/stream_buffer.c **** 		}
 1297              		.loc 1 621 0 discriminator 3
 1298 0070 3000     		movs	r0, r6
 1299 0072 FFF7FEFF 		bl	vClearInterruptMaskFromISR
 1300              	.LVL175:
 1301              	.L97:
 1302              	.LBE3:
 636:Source\FreeRTOS\10.0.1\Source/stream_buffer.c **** /*-----------------------------------------------------------*/
 1303              		.loc 1 636 0 is_stmt 1
 1304 0076 2800     		movs	r0, r5
 1305 0078 02B0     		add	sp, sp, #8
 1306              		@ sp needed
 1307              	.LVL176:
 1308              	.LVL177:
 1309              	.LVL178:
 1310              	.LVL179:
 1311 007a 04BC     		pop	{r2}
 1312 007c 9046     		mov	r8, r2
 1313 007e F0BD     		pop	{r4, r5, r6, r7, pc}
 1314              		.cfi_endproc
 1315              	.LFE43:
 1316              		.size	xStreamBufferSendFromISR, .-xStreamBufferSendFromISR
 1317              		.section	.text.xStreamBufferReceive,"ax",%progbits
 1318              		.align	2
 1319              		.global	xStreamBufferReceive
 1320              		.code	16
 1321              		.thumb_func
 1322              		.type	xStreamBufferReceive, %function
 1323              	xStreamBufferReceive:
 1324              	.LFB45:
 695:Source\FreeRTOS\10.0.1\Source/stream_buffer.c **** StreamBuffer_t * const pxStreamBuffer = ( StreamBuffer_t * ) xStreamBuffer; /*lint !e9087 !e9079 Sa
 1325              		.loc 1 695 0
 1326              		.cfi_startproc
 1327              		@ args = 0, pretend = 0, frame = 8
 1328              		@ frame_needed = 0, uses_anonymous_args = 0
 1329              	.LVL180:
 1330 0000 F0B5     		push	{r4, r5, r6, r7, lr}
 1331              		.cfi_def_cfa_offset 20
 1332              		.cfi_offset 4, -20
 1333              		.cfi_offset 5, -16
 1334              		.cfi_offset 6, -12
 1335              		.cfi_offset 7, -8
 1336              		.cfi_offset 14, -4
 1337 0002 85B0     		sub	sp, sp, #20
 1338              		.cfi_def_cfa_offset 40
 1339 0004 0400     		movs	r4, r0
 1340 0006 0291     		str	r1, [sp, #8]
 1341 0008 0392     		str	r2, [sp, #12]
 1342 000a 1E00     		movs	r6, r3
ARM GAS  C:\Users\Phuong\AppData\Local\Temp\ccnrs5hd.s 			page 48


 1343              	.LVL181:
 699:Source\FreeRTOS\10.0.1\Source/stream_buffer.c **** 	configASSERT( pxStreamBuffer );
 1344              		.loc 1 699 0
 1345 000c 0029     		cmp	r1, #0
 1346 000e 01D1     		bne	.L101
 699:Source\FreeRTOS\10.0.1\Source/stream_buffer.c **** 	configASSERT( pxStreamBuffer );
 1347              		.loc 1 699 0 is_stmt 0 discriminator 1
 1348              		.syntax divided
 1349              	@ 699 "Source\FreeRTOS\10.0.1\Source\stream_buffer.c" 1
 1350 0010 72B6     		 cpsid i 
 1351              	@ 0 "" 2
 1352              		.thumb
 1353              		.syntax unified
 1354              	.L102:
 1355 0012 FEE7     		b	.L102
 1356              	.L101:
 700:Source\FreeRTOS\10.0.1\Source/stream_buffer.c **** 
 1357              		.loc 1 700 0 is_stmt 1
 1358 0014 0028     		cmp	r0, #0
 1359 0016 01D1     		bne	.L103
 700:Source\FreeRTOS\10.0.1\Source/stream_buffer.c **** 
 1360              		.loc 1 700 0 is_stmt 0 discriminator 1
 1361              		.syntax divided
 1362              	@ 700 "Source\FreeRTOS\10.0.1\Source\stream_buffer.c" 1
 1363 0018 72B6     		 cpsid i 
 1364              	@ 0 "" 2
 1365              		.thumb
 1366              		.syntax unified
 1367              	.L104:
 1368 001a FEE7     		b	.L104
 1369              	.L103:
 707:Source\FreeRTOS\10.0.1\Source/stream_buffer.c **** 	{
 1370              		.loc 1 707 0 is_stmt 1
 1371 001c 037F     		ldrb	r3, [r0, #28]
 1372              	.LVL182:
 1373 001e DB07     		lsls	r3, r3, #31
 1374 0020 01D5     		bpl	.L113
 709:Source\FreeRTOS\10.0.1\Source/stream_buffer.c **** 	}
 1375              		.loc 1 709 0
 1376 0022 0425     		movs	r5, #4
 1377 0024 00E0     		b	.L105
 1378              	.L113:
 713:Source\FreeRTOS\10.0.1\Source/stream_buffer.c **** 	}
 1379              		.loc 1 713 0
 1380 0026 0025     		movs	r5, #0
 1381              	.L105:
 1382              	.LVL183:
 716:Source\FreeRTOS\10.0.1\Source/stream_buffer.c **** 	{
 1383              		.loc 1 716 0
 1384 0028 002E     		cmp	r6, #0
 1385 002a 24D0     		beq	.L106
 720:Source\FreeRTOS\10.0.1\Source/stream_buffer.c **** 		{
 1386              		.loc 1 720 0
 1387 002c FFF7FEFF 		bl	vPortEnterCritical
 1388              	.LVL184:
 722:Source\FreeRTOS\10.0.1\Source/stream_buffer.c **** 
 1389              		.loc 1 722 0
ARM GAS  C:\Users\Phuong\AppData\Local\Temp\ccnrs5hd.s 			page 49


 1390 0030 2000     		movs	r0, r4
 1391 0032 FFF7FEFF 		bl	prvBytesInBuffer
 1392              	.LVL185:
 1393 0036 0700     		movs	r7, r0
 1394              	.LVL186:
 729:Source\FreeRTOS\10.0.1\Source/stream_buffer.c **** 			{
 1395              		.loc 1 729 0
 1396 0038 8542     		cmp	r5, r0
 1397 003a 0AD3     		bcc	.L107
 732:Source\FreeRTOS\10.0.1\Source/stream_buffer.c **** 
 1398              		.loc 1 732 0
 1399 003c 0020     		movs	r0, #0
 1400              	.LVL187:
 1401 003e FFF7FEFF 		bl	xTaskNotifyStateClear
 1402              	.LVL188:
 735:Source\FreeRTOS\10.0.1\Source/stream_buffer.c **** 				pxStreamBuffer->xTaskWaitingToReceive = xTaskGetCurrentTaskHandle();
 1403              		.loc 1 735 0
 1404 0042 2369     		ldr	r3, [r4, #16]
 1405 0044 002B     		cmp	r3, #0
 1406 0046 01D0     		beq	.L108
 735:Source\FreeRTOS\10.0.1\Source/stream_buffer.c **** 				pxStreamBuffer->xTaskWaitingToReceive = xTaskGetCurrentTaskHandle();
 1407              		.loc 1 735 0 is_stmt 0 discriminator 1
 1408              		.syntax divided
 1409              	@ 735 "Source\FreeRTOS\10.0.1\Source\stream_buffer.c" 1
 1410 0048 72B6     		 cpsid i 
 1411              	@ 0 "" 2
 1412              		.thumb
 1413              		.syntax unified
 1414              	.L109:
 1415 004a FEE7     		b	.L109
 1416              	.L108:
 736:Source\FreeRTOS\10.0.1\Source/stream_buffer.c **** 			}
 1417              		.loc 1 736 0 is_stmt 1
 1418 004c FFF7FEFF 		bl	xTaskGetCurrentTaskHandle
 1419              	.LVL189:
 1420 0050 2061     		str	r0, [r4, #16]
 1421              	.L107:
 743:Source\FreeRTOS\10.0.1\Source/stream_buffer.c **** 
 1422              		.loc 1 743 0
 1423 0052 FFF7FEFF 		bl	vPortExitCritical
 1424              	.LVL190:
 745:Source\FreeRTOS\10.0.1\Source/stream_buffer.c **** 		{
 1425              		.loc 1 745 0
 1426 0056 BD42     		cmp	r5, r7
 1427 0058 11D3     		bcc	.L110
 749:Source\FreeRTOS\10.0.1\Source/stream_buffer.c **** 			pxStreamBuffer->xTaskWaitingToReceive = NULL;
 1428              		.loc 1 749 0
 1429 005a 3300     		movs	r3, r6
 1430 005c 0022     		movs	r2, #0
 1431 005e 0121     		movs	r1, #1
 1432 0060 4942     		rsbs	r1, r1, #0
 1433 0062 0020     		movs	r0, #0
 1434 0064 FFF7FEFF 		bl	xTaskNotifyWait
 1435              	.LVL191:
 750:Source\FreeRTOS\10.0.1\Source/stream_buffer.c **** 
 1436              		.loc 1 750 0
 1437 0068 0023     		movs	r3, #0
ARM GAS  C:\Users\Phuong\AppData\Local\Temp\ccnrs5hd.s 			page 50


 1438 006a 2361     		str	r3, [r4, #16]
 753:Source\FreeRTOS\10.0.1\Source/stream_buffer.c **** 		}
 1439              		.loc 1 753 0
 1440 006c 2000     		movs	r0, r4
 1441 006e FFF7FEFF 		bl	prvBytesInBuffer
 1442              	.LVL192:
 1443 0072 0700     		movs	r7, r0
 1444              	.LVL193:
 1445 0074 03E0     		b	.L110
 1446              	.LVL194:
 1447              	.L106:
 762:Source\FreeRTOS\10.0.1\Source/stream_buffer.c **** 	}
 1448              		.loc 1 762 0
 1449 0076 2000     		movs	r0, r4
 1450              	.LVL195:
 1451 0078 FFF7FEFF 		bl	prvBytesInBuffer
 1452              	.LVL196:
 1453 007c 0700     		movs	r7, r0
 1454              	.LVL197:
 1455              	.L110:
 770:Source\FreeRTOS\10.0.1\Source/stream_buffer.c **** 	{
 1456              		.loc 1 770 0
 1457 007e AF42     		cmp	r7, r5
 1458 0080 18D9     		bls	.L114
 772:Source\FreeRTOS\10.0.1\Source/stream_buffer.c **** 
 1459              		.loc 1 772 0
 1460 0082 0095     		str	r5, [sp]
 1461 0084 3B00     		movs	r3, r7
 1462 0086 039A     		ldr	r2, [sp, #12]
 1463 0088 0299     		ldr	r1, [sp, #8]
 1464 008a 2000     		movs	r0, r4
 1465 008c FFF7FEFF 		bl	prvReadMessageFromBuffer
 1466              	.LVL198:
 1467 0090 051E     		subs	r5, r0, #0
 1468              	.LVL199:
 775:Source\FreeRTOS\10.0.1\Source/stream_buffer.c **** 		{
 1469              		.loc 1 775 0
 1470 0092 10D0     		beq	.L111
 778:Source\FreeRTOS\10.0.1\Source/stream_buffer.c **** 		}
 1471              		.loc 1 778 0
 1472 0094 FFF7FEFF 		bl	vTaskSuspendAll
 1473              	.LVL200:
 1474 0098 6369     		ldr	r3, [r4, #20]
 1475 009a 002B     		cmp	r3, #0
 1476 009c 07D0     		beq	.L112
 778:Source\FreeRTOS\10.0.1\Source/stream_buffer.c **** 		}
 1477              		.loc 1 778 0 is_stmt 0 discriminator 1
 1478 009e 6069     		ldr	r0, [r4, #20]
 1479 00a0 0023     		movs	r3, #0
 1480 00a2 0022     		movs	r2, #0
 1481 00a4 0021     		movs	r1, #0
 1482 00a6 FFF7FEFF 		bl	xTaskGenericNotify
 1483              	.LVL201:
 1484 00aa 0023     		movs	r3, #0
 1485 00ac 6361     		str	r3, [r4, #20]
 1486              	.L112:
 778:Source\FreeRTOS\10.0.1\Source/stream_buffer.c **** 		}
ARM GAS  C:\Users\Phuong\AppData\Local\Temp\ccnrs5hd.s 			page 51


 1487              		.loc 1 778 0 discriminator 3
 1488 00ae FFF7FEFF 		bl	xTaskResumeAll
 1489              	.LVL202:
 1490 00b2 00E0     		b	.L111
 1491              	.LVL203:
 1492              	.L114:
 697:Source\FreeRTOS\10.0.1\Source/stream_buffer.c **** 
 1493              		.loc 1 697 0 is_stmt 1
 1494 00b4 0025     		movs	r5, #0
 1495              	.LVL204:
 1496              	.L111:
 792:Source\FreeRTOS\10.0.1\Source/stream_buffer.c **** /*-----------------------------------------------------------*/
 1497              		.loc 1 792 0
 1498 00b6 2800     		movs	r0, r5
 1499 00b8 05B0     		add	sp, sp, #20
 1500              		@ sp needed
 1501              	.LVL205:
 1502              	.LVL206:
 1503              	.LVL207:
 1504              	.LVL208:
 1505 00ba F0BD     		pop	{r4, r5, r6, r7, pc}
 1506              		.cfi_endproc
 1507              	.LFE45:
 1508              		.size	xStreamBufferReceive, .-xStreamBufferReceive
 1509              		.section	.text.xStreamBufferReceiveFromISR,"ax",%progbits
 1510              		.align	2
 1511              		.global	xStreamBufferReceiveFromISR
 1512              		.code	16
 1513              		.thumb_func
 1514              		.type	xStreamBufferReceiveFromISR, %function
 1515              	xStreamBufferReceiveFromISR:
 1516              	.LFB46:
 799:Source\FreeRTOS\10.0.1\Source/stream_buffer.c **** StreamBuffer_t * const pxStreamBuffer = ( StreamBuffer_t * ) xStreamBuffer; /*lint !e9087 !e9079 Sa
 1517              		.loc 1 799 0
 1518              		.cfi_startproc
 1519              		@ args = 0, pretend = 0, frame = 8
 1520              		@ frame_needed = 0, uses_anonymous_args = 0
 1521              	.LVL209:
 1522 0000 F0B5     		push	{r4, r5, r6, r7, lr}
 1523              		.cfi_def_cfa_offset 20
 1524              		.cfi_offset 4, -20
 1525              		.cfi_offset 5, -16
 1526              		.cfi_offset 6, -12
 1527              		.cfi_offset 7, -8
 1528              		.cfi_offset 14, -4
 1529 0002 85B0     		sub	sp, sp, #20
 1530              		.cfi_def_cfa_offset 40
 1531 0004 0400     		movs	r4, r0
 1532 0006 0E00     		movs	r6, r1
 1533 0008 0392     		str	r2, [sp, #12]
 1534 000a 1F00     		movs	r7, r3
 1535              	.LVL210:
 803:Source\FreeRTOS\10.0.1\Source/stream_buffer.c **** 	configASSERT( pxStreamBuffer );
 1536              		.loc 1 803 0
 1537 000c 0029     		cmp	r1, #0
 1538 000e 01D1     		bne	.L116
 803:Source\FreeRTOS\10.0.1\Source/stream_buffer.c **** 	configASSERT( pxStreamBuffer );
ARM GAS  C:\Users\Phuong\AppData\Local\Temp\ccnrs5hd.s 			page 52


 1539              		.loc 1 803 0 is_stmt 0 discriminator 1
 1540              		.syntax divided
 1541              	@ 803 "Source\FreeRTOS\10.0.1\Source\stream_buffer.c" 1
 1542 0010 72B6     		 cpsid i 
 1543              	@ 0 "" 2
 1544              		.thumb
 1545              		.syntax unified
 1546              	.L117:
 1547 0012 FEE7     		b	.L117
 1548              	.L116:
 804:Source\FreeRTOS\10.0.1\Source/stream_buffer.c **** 
 1549              		.loc 1 804 0 is_stmt 1
 1550 0014 0028     		cmp	r0, #0
 1551 0016 01D1     		bne	.L118
 804:Source\FreeRTOS\10.0.1\Source/stream_buffer.c **** 
 1552              		.loc 1 804 0 is_stmt 0 discriminator 1
 1553              		.syntax divided
 1554              	@ 804 "Source\FreeRTOS\10.0.1\Source\stream_buffer.c" 1
 1555 0018 72B6     		 cpsid i 
 1556              	@ 0 "" 2
 1557              		.thumb
 1558              		.syntax unified
 1559              	.L119:
 1560 001a FEE7     		b	.L119
 1561              	.L118:
 811:Source\FreeRTOS\10.0.1\Source/stream_buffer.c **** 	{
 1562              		.loc 1 811 0 is_stmt 1
 1563 001c 037F     		ldrb	r3, [r0, #28]
 1564              	.LVL211:
 1565 001e DB07     		lsls	r3, r3, #31
 1566 0020 01D5     		bpl	.L123
 813:Source\FreeRTOS\10.0.1\Source/stream_buffer.c **** 	}
 1567              		.loc 1 813 0
 1568 0022 0425     		movs	r5, #4
 1569 0024 00E0     		b	.L120
 1570              	.L123:
 817:Source\FreeRTOS\10.0.1\Source/stream_buffer.c **** 	}
 1571              		.loc 1 817 0
 1572 0026 0025     		movs	r5, #0
 1573              	.L120:
 1574              	.LVL212:
 820:Source\FreeRTOS\10.0.1\Source/stream_buffer.c **** 
 1575              		.loc 1 820 0
 1576 0028 2000     		movs	r0, r4
 1577              	.LVL213:
 1578 002a FFF7FEFF 		bl	prvBytesInBuffer
 1579              	.LVL214:
 1580 002e 0300     		movs	r3, r0
 1581              	.LVL215:
 827:Source\FreeRTOS\10.0.1\Source/stream_buffer.c **** 	{
 1582              		.loc 1 827 0
 1583 0030 8542     		cmp	r5, r0
 1584 0032 1AD2     		bcs	.L124
 829:Source\FreeRTOS\10.0.1\Source/stream_buffer.c **** 
 1585              		.loc 1 829 0
 1586 0034 0095     		str	r5, [sp]
 1587 0036 039A     		ldr	r2, [sp, #12]
ARM GAS  C:\Users\Phuong\AppData\Local\Temp\ccnrs5hd.s 			page 53


 1588 0038 3100     		movs	r1, r6
 1589 003a 2000     		movs	r0, r4
 1590              	.LVL216:
 1591 003c FFF7FEFF 		bl	prvReadMessageFromBuffer
 1592              	.LVL217:
 1593 0040 051E     		subs	r5, r0, #0
 1594              	.LVL218:
 832:Source\FreeRTOS\10.0.1\Source/stream_buffer.c **** 		{
 1595              		.loc 1 832 0
 1596 0042 13D0     		beq	.L121
 1597              	.LBB4:
 834:Source\FreeRTOS\10.0.1\Source/stream_buffer.c **** 		}
 1598              		.loc 1 834 0
 1599 0044 FFF7FEFF 		bl	ulSetInterruptMaskFromISR
 1600              	.LVL219:
 1601 0048 0600     		movs	r6, r0
 1602              	.LVL220:
 1603 004a 6369     		ldr	r3, [r4, #20]
 1604 004c 002B     		cmp	r3, #0
 1605 004e 08D0     		beq	.L122
 834:Source\FreeRTOS\10.0.1\Source/stream_buffer.c **** 		}
 1606              		.loc 1 834 0 is_stmt 0 discriminator 1
 1607 0050 6069     		ldr	r0, [r4, #20]
 1608              	.LVL221:
 1609 0052 0097     		str	r7, [sp]
 1610 0054 0023     		movs	r3, #0
 1611 0056 0022     		movs	r2, #0
 1612 0058 0021     		movs	r1, #0
 1613 005a FFF7FEFF 		bl	xTaskGenericNotifyFromISR
 1614              	.LVL222:
 1615 005e 0023     		movs	r3, #0
 1616 0060 6361     		str	r3, [r4, #20]
 1617              	.L122:
 834:Source\FreeRTOS\10.0.1\Source/stream_buffer.c **** 		}
 1618              		.loc 1 834 0 discriminator 3
 1619 0062 3000     		movs	r0, r6
 1620 0064 FFF7FEFF 		bl	vClearInterruptMaskFromISR
 1621              	.LVL223:
 1622              	.LBE4:
 1623 0068 00E0     		b	.L121
 1624              	.LVL224:
 1625              	.L124:
 801:Source\FreeRTOS\10.0.1\Source/stream_buffer.c **** 
 1626              		.loc 1 801 0 is_stmt 1
 1627 006a 0025     		movs	r5, #0
 1628              	.LVL225:
 1629              	.L121:
 849:Source\FreeRTOS\10.0.1\Source/stream_buffer.c **** /*-----------------------------------------------------------*/
 1630              		.loc 1 849 0
 1631 006c 2800     		movs	r0, r5
 1632 006e 05B0     		add	sp, sp, #20
 1633              		@ sp needed
 1634              	.LVL226:
 1635              	.LVL227:
 1636              	.LVL228:
 1637 0070 F0BD     		pop	{r4, r5, r6, r7, pc}
 1638              		.cfi_endproc
ARM GAS  C:\Users\Phuong\AppData\Local\Temp\ccnrs5hd.s 			page 54


 1639              	.LFE46:
 1640              		.size	xStreamBufferReceiveFromISR, .-xStreamBufferReceiveFromISR
 1641 0072 C046     		.section	.text.xStreamBufferIsEmpty,"ax",%progbits
 1642              		.align	2
 1643              		.global	xStreamBufferIsEmpty
 1644              		.code	16
 1645              		.thumb_func
 1646              		.type	xStreamBufferIsEmpty, %function
 1647              	xStreamBufferIsEmpty:
 1648              	.LFB48:
 903:Source\FreeRTOS\10.0.1\Source/stream_buffer.c **** const StreamBuffer_t * const pxStreamBuffer = ( StreamBuffer_t * ) xStreamBuffer; /*lint !e9087 !e9
 1649              		.loc 1 903 0
 1650              		.cfi_startproc
 1651              		@ args = 0, pretend = 0, frame = 0
 1652              		@ frame_needed = 0, uses_anonymous_args = 0
 1653              		@ link register save eliminated.
 1654              	.LVL229:
 908:Source\FreeRTOS\10.0.1\Source/stream_buffer.c **** 
 1655              		.loc 1 908 0
 1656 0000 0028     		cmp	r0, #0
 1657 0002 01D1     		bne	.L126
 908:Source\FreeRTOS\10.0.1\Source/stream_buffer.c **** 
 1658              		.loc 1 908 0 is_stmt 0 discriminator 1
 1659              		.syntax divided
 1660              	@ 908 "Source\FreeRTOS\10.0.1\Source\stream_buffer.c" 1
 1661 0004 72B6     		 cpsid i 
 1662              	@ 0 "" 2
 1663              		.thumb
 1664              		.syntax unified
 1665              	.L127:
 1666 0006 FEE7     		b	.L127
 1667              	.L126:
 911:Source\FreeRTOS\10.0.1\Source/stream_buffer.c **** 	if( pxStreamBuffer->xHead == xTail )
 1668              		.loc 1 911 0 is_stmt 1
 1669 0008 0268     		ldr	r2, [r0]
 1670              	.LVL230:
 912:Source\FreeRTOS\10.0.1\Source/stream_buffer.c **** 	{
 1671              		.loc 1 912 0
 1672 000a 4368     		ldr	r3, [r0, #4]
 1673 000c 9A42     		cmp	r2, r3
 1674 000e 01D1     		bne	.L129
 914:Source\FreeRTOS\10.0.1\Source/stream_buffer.c **** 	}
 1675              		.loc 1 914 0
 1676 0010 0120     		movs	r0, #1
 1677              	.LVL231:
 1678 0012 00E0     		b	.L128
 1679              	.LVL232:
 1680              	.L129:
 918:Source\FreeRTOS\10.0.1\Source/stream_buffer.c **** 	}
 1681              		.loc 1 918 0
 1682 0014 0020     		movs	r0, #0
 1683              	.LVL233:
 1684              	.L128:
 922:Source\FreeRTOS\10.0.1\Source/stream_buffer.c **** /*-----------------------------------------------------------*/
 1685              		.loc 1 922 0
 1686              		@ sp needed
 1687 0016 7047     		bx	lr
ARM GAS  C:\Users\Phuong\AppData\Local\Temp\ccnrs5hd.s 			page 55


 1688              		.cfi_endproc
 1689              	.LFE48:
 1690              		.size	xStreamBufferIsEmpty, .-xStreamBufferIsEmpty
 1691              		.section	.text.xStreamBufferIsFull,"ax",%progbits
 1692              		.align	2
 1693              		.global	xStreamBufferIsFull
 1694              		.code	16
 1695              		.thumb_func
 1696              		.type	xStreamBufferIsFull, %function
 1697              	xStreamBufferIsFull:
 1698              	.LFB49:
 926:Source\FreeRTOS\10.0.1\Source/stream_buffer.c **** BaseType_t xReturn;
 1699              		.loc 1 926 0
 1700              		.cfi_startproc
 1701              		@ args = 0, pretend = 0, frame = 0
 1702              		@ frame_needed = 0, uses_anonymous_args = 0
 1703              	.LVL234:
 1704 0000 10B5     		push	{r4, lr}
 1705              		.cfi_def_cfa_offset 8
 1706              		.cfi_offset 4, -8
 1707              		.cfi_offset 14, -4
 1708              	.LVL235:
 931:Source\FreeRTOS\10.0.1\Source/stream_buffer.c **** 
 1709              		.loc 1 931 0
 1710 0002 0028     		cmp	r0, #0
 1711 0004 01D1     		bne	.L131
 931:Source\FreeRTOS\10.0.1\Source/stream_buffer.c **** 
 1712              		.loc 1 931 0 is_stmt 0 discriminator 1
 1713              		.syntax divided
 1714              	@ 931 "Source\FreeRTOS\10.0.1\Source\stream_buffer.c" 1
 1715 0006 72B6     		 cpsid i 
 1716              	@ 0 "" 2
 1717              		.thumb
 1718              		.syntax unified
 1719              	.L132:
 1720 0008 FEE7     		b	.L132
 1721              	.L131:
 937:Source\FreeRTOS\10.0.1\Source/stream_buffer.c **** 	{
 1722              		.loc 1 937 0 is_stmt 1
 1723 000a 037F     		ldrb	r3, [r0, #28]
 1724 000c DB07     		lsls	r3, r3, #31
 1725 000e 01D5     		bpl	.L135
 939:Source\FreeRTOS\10.0.1\Source/stream_buffer.c **** 	}
 1726              		.loc 1 939 0
 1727 0010 0424     		movs	r4, #4
 1728 0012 00E0     		b	.L133
 1729              	.L135:
 943:Source\FreeRTOS\10.0.1\Source/stream_buffer.c **** 	}
 1730              		.loc 1 943 0
 1731 0014 0024     		movs	r4, #0
 1732              	.L133:
 1733              	.LVL236:
 947:Source\FreeRTOS\10.0.1\Source/stream_buffer.c **** 	{
 1734              		.loc 1 947 0
 1735 0016 FFF7FEFF 		bl	xStreamBufferSpacesAvailable
 1736              	.LVL237:
 1737 001a 8442     		cmp	r4, r0
ARM GAS  C:\Users\Phuong\AppData\Local\Temp\ccnrs5hd.s 			page 56


 1738 001c 01D3     		bcc	.L136
 949:Source\FreeRTOS\10.0.1\Source/stream_buffer.c **** 	}
 1739              		.loc 1 949 0
 1740 001e 0120     		movs	r0, #1
 1741 0020 00E0     		b	.L134
 1742              	.L136:
 953:Source\FreeRTOS\10.0.1\Source/stream_buffer.c **** 	}
 1743              		.loc 1 953 0
 1744 0022 0020     		movs	r0, #0
 1745              	.L134:
 1746              	.LVL238:
 957:Source\FreeRTOS\10.0.1\Source/stream_buffer.c **** /*-----------------------------------------------------------*/
 1747              		.loc 1 957 0
 1748              		@ sp needed
 1749              	.LVL239:
 1750 0024 10BD     		pop	{r4, pc}
 1751              		.cfi_endproc
 1752              	.LFE49:
 1753              		.size	xStreamBufferIsFull, .-xStreamBufferIsFull
 1754 0026 C046     		.section	.text.xStreamBufferSendCompletedFromISR,"ax",%progbits
 1755              		.align	2
 1756              		.global	xStreamBufferSendCompletedFromISR
 1757              		.code	16
 1758              		.thumb_func
 1759              		.type	xStreamBufferSendCompletedFromISR, %function
 1760              	xStreamBufferSendCompletedFromISR:
 1761              	.LFB50:
 961:Source\FreeRTOS\10.0.1\Source/stream_buffer.c **** StreamBuffer_t * const pxStreamBuffer = ( StreamBuffer_t * ) xStreamBuffer; /*lint !e9087 !e9079 Sa
 1762              		.loc 1 961 0
 1763              		.cfi_startproc
 1764              		@ args = 0, pretend = 0, frame = 0
 1765              		@ frame_needed = 0, uses_anonymous_args = 0
 1766              	.LVL240:
 1767 0000 70B5     		push	{r4, r5, r6, lr}
 1768              		.cfi_def_cfa_offset 16
 1769              		.cfi_offset 4, -16
 1770              		.cfi_offset 5, -12
 1771              		.cfi_offset 6, -8
 1772              		.cfi_offset 14, -4
 1773 0002 82B0     		sub	sp, sp, #8
 1774              		.cfi_def_cfa_offset 24
 1775 0004 0400     		movs	r4, r0
 1776 0006 0E00     		movs	r6, r1
 1777              	.LVL241:
 966:Source\FreeRTOS\10.0.1\Source/stream_buffer.c **** 
 1778              		.loc 1 966 0
 1779 0008 0028     		cmp	r0, #0
 1780 000a 01D1     		bne	.L138
 966:Source\FreeRTOS\10.0.1\Source/stream_buffer.c **** 
 1781              		.loc 1 966 0 is_stmt 0 discriminator 1
 1782              		.syntax divided
 1783              	@ 966 "Source\FreeRTOS\10.0.1\Source\stream_buffer.c" 1
 1784 000c 72B6     		 cpsid i 
 1785              	@ 0 "" 2
 1786              		.thumb
 1787              		.syntax unified
 1788              	.L139:
ARM GAS  C:\Users\Phuong\AppData\Local\Temp\ccnrs5hd.s 			page 57


 1789 000e FEE7     		b	.L139
 1790              	.L138:
 968:Source\FreeRTOS\10.0.1\Source/stream_buffer.c **** 	{
 1791              		.loc 1 968 0 is_stmt 1
 1792 0010 FFF7FEFF 		bl	ulSetInterruptMaskFromISR
 1793              	.LVL242:
 1794 0014 0500     		movs	r5, r0
 1795              	.LVL243:
 970:Source\FreeRTOS\10.0.1\Source/stream_buffer.c **** 		{
 1796              		.loc 1 970 0
 1797 0016 2369     		ldr	r3, [r4, #16]
 1798 0018 002B     		cmp	r3, #0
 1799 001a 0AD0     		beq	.L141
 972:Source\FreeRTOS\10.0.1\Source/stream_buffer.c **** 										 ( uint32_t ) 0,
 1800              		.loc 1 972 0
 1801 001c 2069     		ldr	r0, [r4, #16]
 1802              	.LVL244:
 1803 001e 0096     		str	r6, [sp]
 1804 0020 0023     		movs	r3, #0
 1805 0022 0022     		movs	r2, #0
 1806 0024 0021     		movs	r1, #0
 1807 0026 FFF7FEFF 		bl	xTaskGenericNotifyFromISR
 1808              	.LVL245:
 976:Source\FreeRTOS\10.0.1\Source/stream_buffer.c **** 			xReturn = pdTRUE;
 1809              		.loc 1 976 0
 1810 002a 0023     		movs	r3, #0
 1811 002c 2361     		str	r3, [r4, #16]
 1812              	.LVL246:
 977:Source\FreeRTOS\10.0.1\Source/stream_buffer.c **** 		}
 1813              		.loc 1 977 0
 1814 002e 0124     		movs	r4, #1
 1815              	.LVL247:
 1816 0030 00E0     		b	.L140
 1817              	.LVL248:
 1818              	.L141:
 981:Source\FreeRTOS\10.0.1\Source/stream_buffer.c **** 		}
 1819              		.loc 1 981 0
 1820 0032 0024     		movs	r4, #0
 1821              	.LVL249:
 1822              	.L140:
 984:Source\FreeRTOS\10.0.1\Source/stream_buffer.c **** 
 1823              		.loc 1 984 0
 1824 0034 2800     		movs	r0, r5
 1825 0036 FFF7FEFF 		bl	vClearInterruptMaskFromISR
 1826              	.LVL250:
 987:Source\FreeRTOS\10.0.1\Source/stream_buffer.c **** /*-----------------------------------------------------------*/
 1827              		.loc 1 987 0
 1828 003a 2000     		movs	r0, r4
 1829 003c 02B0     		add	sp, sp, #8
 1830              		@ sp needed
 1831              	.LVL251:
 1832              	.LVL252:
 1833              	.LVL253:
 1834 003e 70BD     		pop	{r4, r5, r6, pc}
 1835              		.cfi_endproc
 1836              	.LFE50:
 1837              		.size	xStreamBufferSendCompletedFromISR, .-xStreamBufferSendCompletedFromISR
ARM GAS  C:\Users\Phuong\AppData\Local\Temp\ccnrs5hd.s 			page 58


 1838              		.section	.text.xStreamBufferReceiveCompletedFromISR,"ax",%progbits
 1839              		.align	2
 1840              		.global	xStreamBufferReceiveCompletedFromISR
 1841              		.code	16
 1842              		.thumb_func
 1843              		.type	xStreamBufferReceiveCompletedFromISR, %function
 1844              	xStreamBufferReceiveCompletedFromISR:
 1845              	.LFB51:
 991:Source\FreeRTOS\10.0.1\Source/stream_buffer.c **** StreamBuffer_t * const pxStreamBuffer = ( StreamBuffer_t * ) xStreamBuffer; /*lint !e9087 !e9079 Sa
 1846              		.loc 1 991 0
 1847              		.cfi_startproc
 1848              		@ args = 0, pretend = 0, frame = 0
 1849              		@ frame_needed = 0, uses_anonymous_args = 0
 1850              	.LVL254:
 1851 0000 70B5     		push	{r4, r5, r6, lr}
 1852              		.cfi_def_cfa_offset 16
 1853              		.cfi_offset 4, -16
 1854              		.cfi_offset 5, -12
 1855              		.cfi_offset 6, -8
 1856              		.cfi_offset 14, -4
 1857 0002 82B0     		sub	sp, sp, #8
 1858              		.cfi_def_cfa_offset 24
 1859 0004 0400     		movs	r4, r0
 1860 0006 0E00     		movs	r6, r1
 1861              	.LVL255:
 996:Source\FreeRTOS\10.0.1\Source/stream_buffer.c **** 
 1862              		.loc 1 996 0
 1863 0008 0028     		cmp	r0, #0
 1864 000a 01D1     		bne	.L143
 996:Source\FreeRTOS\10.0.1\Source/stream_buffer.c **** 
 1865              		.loc 1 996 0 is_stmt 0 discriminator 1
 1866              		.syntax divided
 1867              	@ 996 "Source\FreeRTOS\10.0.1\Source\stream_buffer.c" 1
 1868 000c 72B6     		 cpsid i 
 1869              	@ 0 "" 2
 1870              		.thumb
 1871              		.syntax unified
 1872              	.L144:
 1873 000e FEE7     		b	.L144
 1874              	.L143:
 998:Source\FreeRTOS\10.0.1\Source/stream_buffer.c **** 	{
 1875              		.loc 1 998 0 is_stmt 1
 1876 0010 FFF7FEFF 		bl	ulSetInterruptMaskFromISR
 1877              	.LVL256:
 1878 0014 0500     		movs	r5, r0
 1879              	.LVL257:
1000:Source\FreeRTOS\10.0.1\Source/stream_buffer.c **** 		{
 1880              		.loc 1 1000 0
 1881 0016 6369     		ldr	r3, [r4, #20]
 1882 0018 002B     		cmp	r3, #0
 1883 001a 0AD0     		beq	.L146
1002:Source\FreeRTOS\10.0.1\Source/stream_buffer.c **** 										 ( uint32_t ) 0,
 1884              		.loc 1 1002 0
 1885 001c 6069     		ldr	r0, [r4, #20]
 1886              	.LVL258:
 1887 001e 0096     		str	r6, [sp]
 1888 0020 0023     		movs	r3, #0
ARM GAS  C:\Users\Phuong\AppData\Local\Temp\ccnrs5hd.s 			page 59


 1889 0022 0022     		movs	r2, #0
 1890 0024 0021     		movs	r1, #0
 1891 0026 FFF7FEFF 		bl	xTaskGenericNotifyFromISR
 1892              	.LVL259:
1006:Source\FreeRTOS\10.0.1\Source/stream_buffer.c **** 			xReturn = pdTRUE;
 1893              		.loc 1 1006 0
 1894 002a 0023     		movs	r3, #0
 1895 002c 6361     		str	r3, [r4, #20]
 1896              	.LVL260:
1007:Source\FreeRTOS\10.0.1\Source/stream_buffer.c **** 		}
 1897              		.loc 1 1007 0
 1898 002e 0124     		movs	r4, #1
 1899              	.LVL261:
 1900 0030 00E0     		b	.L145
 1901              	.LVL262:
 1902              	.L146:
1011:Source\FreeRTOS\10.0.1\Source/stream_buffer.c **** 		}
 1903              		.loc 1 1011 0
 1904 0032 0024     		movs	r4, #0
 1905              	.LVL263:
 1906              	.L145:
1014:Source\FreeRTOS\10.0.1\Source/stream_buffer.c **** 
 1907              		.loc 1 1014 0
 1908 0034 2800     		movs	r0, r5
 1909 0036 FFF7FEFF 		bl	vClearInterruptMaskFromISR
 1910              	.LVL264:
1017:Source\FreeRTOS\10.0.1\Source/stream_buffer.c **** /*-----------------------------------------------------------*/
 1911              		.loc 1 1017 0
 1912 003a 2000     		movs	r0, r4
 1913 003c 02B0     		add	sp, sp, #8
 1914              		@ sp needed
 1915              	.LVL265:
 1916              	.LVL266:
 1917              	.LVL267:
 1918 003e 70BD     		pop	{r4, r5, r6, pc}
 1919              		.cfi_endproc
 1920              	.LFE51:
 1921              		.size	xStreamBufferReceiveCompletedFromISR, .-xStreamBufferReceiveCompletedFromISR
 1922              		.section	.text.uxStreamBufferGetStreamBufferNumber,"ax",%progbits
 1923              		.align	2
 1924              		.global	uxStreamBufferGetStreamBufferNumber
 1925              		.code	16
 1926              		.thumb_func
 1927              		.type	uxStreamBufferGetStreamBufferNumber, %function
 1928              	uxStreamBufferGetStreamBufferNumber:
 1929              	.LFB56:
1170:Source\FreeRTOS\10.0.1\Source/stream_buffer.c **** 
1171:Source\FreeRTOS\10.0.1\Source/stream_buffer.c **** #if ( configUSE_TRACE_FACILITY == 1 )
1172:Source\FreeRTOS\10.0.1\Source/stream_buffer.c **** 
1173:Source\FreeRTOS\10.0.1\Source/stream_buffer.c **** 	UBaseType_t uxStreamBufferGetStreamBufferNumber( StreamBufferHandle_t xStreamBuffer )
1174:Source\FreeRTOS\10.0.1\Source/stream_buffer.c **** 	{
 1930              		.loc 1 1174 0
 1931              		.cfi_startproc
 1932              		@ args = 0, pretend = 0, frame = 0
 1933              		@ frame_needed = 0, uses_anonymous_args = 0
 1934              		@ link register save eliminated.
 1935              	.LVL268:
ARM GAS  C:\Users\Phuong\AppData\Local\Temp\ccnrs5hd.s 			page 60


1175:Source\FreeRTOS\10.0.1\Source/stream_buffer.c **** 		return ( ( StreamBuffer_t * ) xStreamBuffer )->uxStreamBufferNumber;
 1936              		.loc 1 1175 0
 1937 0000 006A     		ldr	r0, [r0, #32]
 1938              	.LVL269:
1176:Source\FreeRTOS\10.0.1\Source/stream_buffer.c **** 	}
 1939              		.loc 1 1176 0
 1940              		@ sp needed
 1941 0002 7047     		bx	lr
 1942              		.cfi_endproc
 1943              	.LFE56:
 1944              		.size	uxStreamBufferGetStreamBufferNumber, .-uxStreamBufferGetStreamBufferNumber
 1945              		.section	.text.vStreamBufferSetStreamBufferNumber,"ax",%progbits
 1946              		.align	2
 1947              		.global	vStreamBufferSetStreamBufferNumber
 1948              		.code	16
 1949              		.thumb_func
 1950              		.type	vStreamBufferSetStreamBufferNumber, %function
 1951              	vStreamBufferSetStreamBufferNumber:
 1952              	.LFB57:
1177:Source\FreeRTOS\10.0.1\Source/stream_buffer.c **** 
1178:Source\FreeRTOS\10.0.1\Source/stream_buffer.c **** #endif /* configUSE_TRACE_FACILITY */
1179:Source\FreeRTOS\10.0.1\Source/stream_buffer.c **** /*-----------------------------------------------------------*/
1180:Source\FreeRTOS\10.0.1\Source/stream_buffer.c **** 
1181:Source\FreeRTOS\10.0.1\Source/stream_buffer.c **** #if ( configUSE_TRACE_FACILITY == 1 )
1182:Source\FreeRTOS\10.0.1\Source/stream_buffer.c **** 
1183:Source\FreeRTOS\10.0.1\Source/stream_buffer.c **** 	void vStreamBufferSetStreamBufferNumber( StreamBufferHandle_t xStreamBuffer, UBaseType_t uxStreamB
1184:Source\FreeRTOS\10.0.1\Source/stream_buffer.c **** 	{
 1953              		.loc 1 1184 0
 1954              		.cfi_startproc
 1955              		@ args = 0, pretend = 0, frame = 0
 1956              		@ frame_needed = 0, uses_anonymous_args = 0
 1957              		@ link register save eliminated.
 1958              	.LVL270:
1185:Source\FreeRTOS\10.0.1\Source/stream_buffer.c **** 		( ( StreamBuffer_t * ) xStreamBuffer )->uxStreamBufferNumber = uxStreamBufferNumber;
 1959              		.loc 1 1185 0
 1960 0000 0162     		str	r1, [r0, #32]
1186:Source\FreeRTOS\10.0.1\Source/stream_buffer.c **** 	}
 1961              		.loc 1 1186 0
 1962              		@ sp needed
 1963 0002 7047     		bx	lr
 1964              		.cfi_endproc
 1965              	.LFE57:
 1966              		.size	vStreamBufferSetStreamBufferNumber, .-vStreamBufferSetStreamBufferNumber
 1967              		.section	.text.ucStreamBufferGetStreamBufferType,"ax",%progbits
 1968              		.align	2
 1969              		.global	ucStreamBufferGetStreamBufferType
 1970              		.code	16
 1971              		.thumb_func
 1972              		.type	ucStreamBufferGetStreamBufferType, %function
 1973              	ucStreamBufferGetStreamBufferType:
 1974              	.LFB58:
1187:Source\FreeRTOS\10.0.1\Source/stream_buffer.c **** 
1188:Source\FreeRTOS\10.0.1\Source/stream_buffer.c **** #endif /* configUSE_TRACE_FACILITY */
1189:Source\FreeRTOS\10.0.1\Source/stream_buffer.c **** /*-----------------------------------------------------------*/
1190:Source\FreeRTOS\10.0.1\Source/stream_buffer.c **** 
1191:Source\FreeRTOS\10.0.1\Source/stream_buffer.c **** #if ( configUSE_TRACE_FACILITY == 1 )
1192:Source\FreeRTOS\10.0.1\Source/stream_buffer.c **** 
ARM GAS  C:\Users\Phuong\AppData\Local\Temp\ccnrs5hd.s 			page 61


1193:Source\FreeRTOS\10.0.1\Source/stream_buffer.c **** 	uint8_t ucStreamBufferGetStreamBufferType( StreamBufferHandle_t xStreamBuffer )
1194:Source\FreeRTOS\10.0.1\Source/stream_buffer.c **** 	{
 1975              		.loc 1 1194 0
 1976              		.cfi_startproc
 1977              		@ args = 0, pretend = 0, frame = 0
 1978              		@ frame_needed = 0, uses_anonymous_args = 0
 1979              		@ link register save eliminated.
 1980              	.LVL271:
1195:Source\FreeRTOS\10.0.1\Source/stream_buffer.c **** 		return ( ( StreamBuffer_t * )xStreamBuffer )->ucFlags | sbFLAGS_IS_MESSAGE_BUFFER;
 1981              		.loc 1 1195 0
 1982 0000 007F     		ldrb	r0, [r0, #28]
 1983              	.LVL272:
 1984 0002 0123     		movs	r3, #1
 1985 0004 1843     		orrs	r0, r3
 1986 0006 C0B2     		uxtb	r0, r0
1196:Source\FreeRTOS\10.0.1\Source/stream_buffer.c **** 	}
 1987              		.loc 1 1196 0
 1988              		@ sp needed
 1989 0008 7047     		bx	lr
 1990              		.cfi_endproc
 1991              	.LFE58:
 1992              		.size	ucStreamBufferGetStreamBufferType, .-ucStreamBufferGetStreamBufferType
 1993 000a C046     		.text
 1994              	.Letext0:
 1995              		.file 2 "c:\\program files (x86)\\cypress\\psoc creator\\4.2\\psoc creator\\import\\gnu\\arm\\5.4.
 1996              		.file 3 "c:\\program files (x86)\\cypress\\psoc creator\\4.2\\psoc creator\\import\\gnu\\arm\\5.4.
 1997              		.file 4 "c:\\program files (x86)\\cypress\\psoc creator\\4.2\\psoc creator\\import\\gnu\\arm\\5.4.
 1998              		.file 5 ".\\Source\\FreeRTOS\\10.0.1\\Source\\portable\\GCC\\CM0/portmacro.h"
 1999              		.file 6 ".\\Source\\FreeRTOS\\10.0.1\\Source\\include/task.h"
 2000              		.file 7 ".\\Source\\FreeRTOS\\10.0.1\\Source\\include/stream_buffer.h"
 2001              		.file 8 "c:\\program files (x86)\\cypress\\psoc creator\\4.2\\psoc creator\\import\\gnu\\arm\\5.4.
 2002              		.file 9 ".\\Source\\FreeRTOS\\10.0.1\\Source\\include/portable.h"
 2003              		.section	.debug_info,"",%progbits
 2004              	.Ldebug_info0:
 2005 0000 8F110000 		.4byte	0x118f
 2006 0004 0400     		.2byte	0x4
 2007 0006 00000000 		.4byte	.Ldebug_abbrev0
 2008 000a 04       		.byte	0x4
 2009 000b 01       		.uleb128 0x1
 2010 000c D0000000 		.4byte	.LASF113
 2011 0010 0C       		.byte	0xc
 2012 0011 78080000 		.4byte	.LASF114
 2013 0015 3B040000 		.4byte	.LASF115
 2014 0019 00000000 		.4byte	.Ldebug_ranges0+0
 2015 001d 00000000 		.4byte	0
 2016 0021 00000000 		.4byte	.Ldebug_line0
 2017 0025 02       		.uleb128 0x2
 2018 0026 01       		.byte	0x1
 2019 0027 06       		.byte	0x6
 2020 0028 E0040000 		.4byte	.LASF0
 2021 002c 03       		.uleb128 0x3
 2022 002d 50030000 		.4byte	.LASF5
 2023 0031 02       		.byte	0x2
 2024 0032 1D       		.byte	0x1d
 2025 0033 37000000 		.4byte	0x37
 2026 0037 02       		.uleb128 0x2
 2027 0038 01       		.byte	0x1
ARM GAS  C:\Users\Phuong\AppData\Local\Temp\ccnrs5hd.s 			page 62


 2028 0039 08       		.byte	0x8
 2029 003a E0030000 		.4byte	.LASF1
 2030 003e 02       		.uleb128 0x2
 2031 003f 02       		.byte	0x2
 2032 0040 05       		.byte	0x5
 2033 0041 92000000 		.4byte	.LASF2
 2034 0045 02       		.uleb128 0x2
 2035 0046 02       		.byte	0x2
 2036 0047 07       		.byte	0x7
 2037 0048 A7050000 		.4byte	.LASF3
 2038 004c 02       		.uleb128 0x2
 2039 004d 04       		.byte	0x4
 2040 004e 05       		.byte	0x5
 2041 004f 24030000 		.4byte	.LASF4
 2042 0053 03       		.uleb128 0x3
 2043 0054 01070000 		.4byte	.LASF6
 2044 0058 02       		.byte	0x2
 2045 0059 41       		.byte	0x41
 2046 005a 5E000000 		.4byte	0x5e
 2047 005e 02       		.uleb128 0x2
 2048 005f 04       		.byte	0x4
 2049 0060 07       		.byte	0x7
 2050 0061 94060000 		.4byte	.LASF7
 2051 0065 02       		.uleb128 0x2
 2052 0066 08       		.byte	0x8
 2053 0067 05       		.byte	0x5
 2054 0068 D8020000 		.4byte	.LASF8
 2055 006c 02       		.uleb128 0x2
 2056 006d 08       		.byte	0x8
 2057 006e 07       		.byte	0x7
 2058 006f 09050000 		.4byte	.LASF9
 2059 0073 04       		.uleb128 0x4
 2060 0074 04       		.byte	0x4
 2061 0075 05       		.byte	0x5
 2062 0076 696E7400 		.ascii	"int\000"
 2063 007a 02       		.uleb128 0x2
 2064 007b 04       		.byte	0x4
 2065 007c 07       		.byte	0x7
 2066 007d 5B050000 		.4byte	.LASF10
 2067 0081 03       		.uleb128 0x3
 2068 0082 21020000 		.4byte	.LASF11
 2069 0086 03       		.byte	0x3
 2070 0087 18       		.byte	0x18
 2071 0088 2C000000 		.4byte	0x2c
 2072 008c 03       		.uleb128 0x3
 2073 008d 39050000 		.4byte	.LASF12
 2074 0091 03       		.byte	0x3
 2075 0092 30       		.byte	0x30
 2076 0093 53000000 		.4byte	0x53
 2077 0097 03       		.uleb128 0x3
 2078 0098 9C000000 		.4byte	.LASF13
 2079 009c 04       		.byte	0x4
 2080 009d D8       		.byte	0xd8
 2081 009e 7A000000 		.4byte	0x7a
 2082 00a2 02       		.uleb128 0x2
 2083 00a3 08       		.byte	0x8
 2084 00a4 04       		.byte	0x4
ARM GAS  C:\Users\Phuong\AppData\Local\Temp\ccnrs5hd.s 			page 63


 2085 00a5 CC030000 		.4byte	.LASF14
 2086 00a9 02       		.uleb128 0x2
 2087 00aa 04       		.byte	0x4
 2088 00ab 07       		.byte	0x7
 2089 00ac A3000000 		.4byte	.LASF15
 2090 00b0 05       		.uleb128 0x5
 2091 00b1 04       		.byte	0x4
 2092 00b2 02       		.uleb128 0x2
 2093 00b3 01       		.byte	0x1
 2094 00b4 08       		.byte	0x8
 2095 00b5 42080000 		.4byte	.LASF16
 2096 00b9 02       		.uleb128 0x2
 2097 00ba 04       		.byte	0x4
 2098 00bb 04       		.byte	0x4
 2099 00bc B5020000 		.4byte	.LASF17
 2100 00c0 02       		.uleb128 0x2
 2101 00c1 08       		.byte	0x8
 2102 00c2 04       		.byte	0x4
 2103 00c3 C1060000 		.4byte	.LASF18
 2104 00c7 03       		.uleb128 0x3
 2105 00c8 68050000 		.4byte	.LASF19
 2106 00cc 05       		.byte	0x5
 2107 00cd 38       		.byte	0x38
 2108 00ce 4C000000 		.4byte	0x4c
 2109 00d2 03       		.uleb128 0x3
 2110 00d3 25060000 		.4byte	.LASF20
 2111 00d7 05       		.byte	0x5
 2112 00d8 39       		.byte	0x39
 2113 00d9 5E000000 		.4byte	0x5e
 2114 00dd 03       		.uleb128 0x3
 2115 00de 8D050000 		.4byte	.LASF21
 2116 00e2 05       		.byte	0x5
 2117 00e3 3F       		.byte	0x3f
 2118 00e4 8C000000 		.4byte	0x8c
 2119 00e8 06       		.uleb128 0x6
 2120 00e9 04       		.byte	0x4
 2121 00ea 81000000 		.4byte	0x81
 2122 00ee 03       		.uleb128 0x3
 2123 00ef C3000000 		.4byte	.LASF22
 2124 00f3 06       		.byte	0x6
 2125 00f4 3D       		.byte	0x3d
 2126 00f5 B0000000 		.4byte	0xb0
 2127 00f9 07       		.uleb128 0x7
 2128 00fa 01       		.byte	0x1
 2129 00fb 37000000 		.4byte	0x37
 2130 00ff 06       		.byte	0x6
 2131 0100 52       		.byte	0x52
 2132 0101 24010000 		.4byte	0x124
 2133 0105 08       		.uleb128 0x8
 2134 0106 20000000 		.4byte	.LASF23
 2135 010a 00       		.byte	0
 2136 010b 08       		.uleb128 0x8
 2137 010c 88020000 		.4byte	.LASF24
 2138 0110 01       		.byte	0x1
 2139 0111 08       		.uleb128 0x8
 2140 0112 B6080000 		.4byte	.LASF25
 2141 0116 02       		.byte	0x2
ARM GAS  C:\Users\Phuong\AppData\Local\Temp\ccnrs5hd.s 			page 64


 2142 0117 08       		.uleb128 0x8
 2143 0118 71020000 		.4byte	.LASF26
 2144 011c 03       		.byte	0x3
 2145 011d 08       		.uleb128 0x8
 2146 011e D8010000 		.4byte	.LASF27
 2147 0122 04       		.byte	0x4
 2148 0123 00       		.byte	0
 2149 0124 09       		.uleb128 0x9
 2150 0125 60000000 		.4byte	.LASF32
 2151 0129 08       		.byte	0x8
 2152 012a 06       		.byte	0x6
 2153 012b 5D       		.byte	0x5d
 2154 012c 49010000 		.4byte	0x149
 2155 0130 0A       		.uleb128 0xa
 2156 0131 0F040000 		.4byte	.LASF28
 2157 0135 06       		.byte	0x6
 2158 0136 5F       		.byte	0x5f
 2159 0137 C7000000 		.4byte	0xc7
 2160 013b 00       		.byte	0
 2161 013c 0A       		.uleb128 0xa
 2162 013d EE030000 		.4byte	.LASF29
 2163 0141 06       		.byte	0x6
 2164 0142 60       		.byte	0x60
 2165 0143 DD000000 		.4byte	0xdd
 2166 0147 04       		.byte	0x4
 2167 0148 00       		.byte	0
 2168 0149 03       		.uleb128 0x3
 2169 014a 88000000 		.4byte	.LASF30
 2170 014e 06       		.byte	0x6
 2171 014f 61       		.byte	0x61
 2172 0150 24010000 		.4byte	0x124
 2173 0154 03       		.uleb128 0x3
 2174 0155 6A070000 		.4byte	.LASF31
 2175 0159 07       		.byte	0x7
 2176 015a 40       		.byte	0x40
 2177 015b B0000000 		.4byte	0xb0
 2178 015f 09       		.uleb128 0x9
 2179 0160 16080000 		.4byte	.LASF33
 2180 0164 24       		.byte	0x24
 2181 0165 01       		.byte	0x1
 2182 0166 8D       		.byte	0x8d
 2183 0167 D8010000 		.4byte	0x1d8
 2184 016b 0A       		.uleb128 0xa
 2185 016c D7050000 		.4byte	.LASF34
 2186 0170 01       		.byte	0x1
 2187 0171 8F       		.byte	0x8f
 2188 0172 D8010000 		.4byte	0x1d8
 2189 0176 00       		.byte	0
 2190 0177 0A       		.uleb128 0xa
 2191 0178 DE070000 		.4byte	.LASF35
 2192 017c 01       		.byte	0x1
 2193 017d 90       		.byte	0x90
 2194 017e D8010000 		.4byte	0x1d8
 2195 0182 04       		.byte	0x4
 2196 0183 0A       		.uleb128 0xa
 2197 0184 D8030000 		.4byte	.LASF36
 2198 0188 01       		.byte	0x1
ARM GAS  C:\Users\Phuong\AppData\Local\Temp\ccnrs5hd.s 			page 65


 2199 0189 91       		.byte	0x91
 2200 018a 97000000 		.4byte	0x97
 2201 018e 08       		.byte	0x8
 2202 018f 0A       		.uleb128 0xa
 2203 0190 5D060000 		.4byte	.LASF37
 2204 0194 01       		.byte	0x1
 2205 0195 92       		.byte	0x92
 2206 0196 97000000 		.4byte	0x97
 2207 019a 0C       		.byte	0xc
 2208 019b 0A       		.uleb128 0xa
 2209 019c 91020000 		.4byte	.LASF38
 2210 01a0 01       		.byte	0x1
 2211 01a1 93       		.byte	0x93
 2212 01a2 DD010000 		.4byte	0x1dd
 2213 01a6 10       		.byte	0x10
 2214 01a7 0A       		.uleb128 0xa
 2215 01a8 3C070000 		.4byte	.LASF39
 2216 01ac 01       		.byte	0x1
 2217 01ad 94       		.byte	0x94
 2218 01ae DD010000 		.4byte	0x1dd
 2219 01b2 14       		.byte	0x14
 2220 01b3 0A       		.uleb128 0xa
 2221 01b4 A7010000 		.4byte	.LASF40
 2222 01b8 01       		.byte	0x1
 2223 01b9 95       		.byte	0x95
 2224 01ba E8000000 		.4byte	0xe8
 2225 01be 18       		.byte	0x18
 2226 01bf 0A       		.uleb128 0xa
 2227 01c0 73050000 		.4byte	.LASF41
 2228 01c4 01       		.byte	0x1
 2229 01c5 96       		.byte	0x96
 2230 01c6 81000000 		.4byte	0x81
 2231 01ca 1C       		.byte	0x1c
 2232 01cb 0A       		.uleb128 0xa
 2233 01cc 10060000 		.4byte	.LASF42
 2234 01d0 01       		.byte	0x1
 2235 01d1 99       		.byte	0x99
 2236 01d2 D2000000 		.4byte	0xd2
 2237 01d6 20       		.byte	0x20
 2238 01d7 00       		.byte	0
 2239 01d8 0B       		.uleb128 0xb
 2240 01d9 97000000 		.4byte	0x97
 2241 01dd 0B       		.uleb128 0xb
 2242 01de EE000000 		.4byte	0xee
 2243 01e2 03       		.uleb128 0x3
 2244 01e3 C1080000 		.4byte	.LASF43
 2245 01e7 01       		.byte	0x1
 2246 01e8 9B       		.byte	0x9b
 2247 01e9 5F010000 		.4byte	0x15f
 2248 01ed 0C       		.uleb128 0xc
 2249 01ee 10020000 		.4byte	.LASF49
 2250 01f2 01       		.byte	0x1
 2251 01f3 6104     		.2byte	0x461
 2252 01f5 97000000 		.4byte	0x97
 2253 01f9 00000000 		.4byte	.LFB54
 2254 01fd 12000000 		.4byte	.LFE54-.LFB54
 2255 0201 01       		.uleb128 0x1
ARM GAS  C:\Users\Phuong\AppData\Local\Temp\ccnrs5hd.s 			page 66


 2256 0202 9C       		.byte	0x9c
 2257 0203 28020000 		.4byte	0x228
 2258 0207 0D       		.uleb128 0xd
 2259 0208 82030000 		.4byte	.LASF44
 2260 020c 01       		.byte	0x1
 2261 020d 6104     		.2byte	0x461
 2262 020f 33020000 		.4byte	0x233
 2263 0213 00000000 		.4byte	.LLST0
 2264 0217 0E       		.uleb128 0xe
 2265 0218 45000000 		.4byte	.LASF47
 2266 021c 01       		.byte	0x1
 2267 021d 6404     		.2byte	0x464
 2268 021f 97000000 		.4byte	0x97
 2269 0223 21000000 		.4byte	.LLST1
 2270 0227 00       		.byte	0
 2271 0228 06       		.uleb128 0x6
 2272 0229 04       		.byte	0x4
 2273 022a 2E020000 		.4byte	0x22e
 2274 022e 0F       		.uleb128 0xf
 2275 022f E2010000 		.4byte	0x1e2
 2276 0233 0F       		.uleb128 0xf
 2277 0234 28020000 		.4byte	0x228
 2278 0238 10       		.uleb128 0x10
 2279 0239 25080000 		.4byte	.LASF116
 2280 023d 01       		.byte	0x1
 2281 023e 7504     		.2byte	0x475
 2282 0240 00000000 		.4byte	.LFB55
 2283 0244 3A000000 		.4byte	.LFE55-.LFB55
 2284 0248 01       		.uleb128 0x1
 2285 0249 9C       		.byte	0x9c
 2286 024a F0020000 		.4byte	0x2f0
 2287 024e 0D       		.uleb128 0xd
 2288 024f 82030000 		.4byte	.LASF44
 2289 0253 01       		.byte	0x1
 2290 0254 7504     		.2byte	0x475
 2291 0256 F6020000 		.4byte	0x2f6
 2292 025a 3F000000 		.4byte	.LLST2
 2293 025e 0D       		.uleb128 0xd
 2294 025f A7010000 		.4byte	.LASF40
 2295 0263 01       		.byte	0x1
 2296 0264 7604     		.2byte	0x476
 2297 0266 FB020000 		.4byte	0x2fb
 2298 026a 6B000000 		.4byte	.LLST3
 2299 026e 0D       		.uleb128 0xd
 2300 026f FE030000 		.4byte	.LASF45
 2301 0273 01       		.byte	0x1
 2302 0274 7704     		.2byte	0x477
 2303 0276 97000000 		.4byte	0x97
 2304 027a 98000000 		.4byte	.LLST4
 2305 027e 0D       		.uleb128 0xd
 2306 027f 5D060000 		.4byte	.LASF37
 2307 0283 01       		.byte	0x1
 2308 0284 7804     		.2byte	0x478
 2309 0286 97000000 		.4byte	0x97
 2310 028a C5000000 		.4byte	.LLST5
 2311 028e 11       		.uleb128 0x11
 2312 028f FF050000 		.4byte	.LASF46
ARM GAS  C:\Users\Phuong\AppData\Local\Temp\ccnrs5hd.s 			page 67


 2313 0293 01       		.byte	0x1
 2314 0294 7904     		.2byte	0x479
 2315 0296 C7000000 		.4byte	0xc7
 2316 029a 02       		.uleb128 0x2
 2317 029b 91       		.byte	0x91
 2318 029c 00       		.sleb128 0
 2319 029d 12       		.uleb128 0x12
 2320 029e 0A000000 		.4byte	.LBB2
 2321 02a2 10000000 		.4byte	.LBE2-.LBB2
 2322 02a6 D4020000 		.4byte	0x2d4
 2323 02aa 13       		.uleb128 0x13
 2324 02ab 18030000 		.4byte	.LASF48
 2325 02af 01       		.byte	0x1
 2326 02b0 8304     		.2byte	0x483
 2327 02b2 00030000 		.4byte	0x300
 2328 02b6 55       		.byte	0x55
 2329 02b7 14       		.uleb128 0x14
 2330 02b8 12000000 		.4byte	.LVL9
 2331 02bc C7100000 		.4byte	0x10c7
 2332 02c0 15       		.uleb128 0x15
 2333 02c1 01       		.uleb128 0x1
 2334 02c2 50       		.byte	0x50
 2335 02c3 02       		.uleb128 0x2
 2336 02c4 75       		.byte	0x75
 2337 02c5 00       		.sleb128 0
 2338 02c6 15       		.uleb128 0x15
 2339 02c7 01       		.uleb128 0x1
 2340 02c8 51       		.byte	0x51
 2341 02c9 02       		.uleb128 0x2
 2342 02ca 08       		.byte	0x8
 2343 02cb 55       		.byte	0x55
 2344 02cc 15       		.uleb128 0x15
 2345 02cd 01       		.uleb128 0x1
 2346 02ce 52       		.byte	0x52
 2347 02cf 02       		.uleb128 0x2
 2348 02d0 76       		.byte	0x76
 2349 02d1 00       		.sleb128 0
 2350 02d2 00       		.byte	0
 2351 02d3 00       		.byte	0
 2352 02d4 14       		.uleb128 0x14
 2353 02d5 24000000 		.4byte	.LVL10
 2354 02d9 D2100000 		.4byte	0x10d2
 2355 02dd 15       		.uleb128 0x15
 2356 02de 01       		.uleb128 0x1
 2357 02df 50       		.byte	0x50
 2358 02e0 02       		.uleb128 0x2
 2359 02e1 74       		.byte	0x74
 2360 02e2 00       		.sleb128 0
 2361 02e3 15       		.uleb128 0x15
 2362 02e4 01       		.uleb128 0x1
 2363 02e5 51       		.byte	0x51
 2364 02e6 01       		.uleb128 0x1
 2365 02e7 30       		.byte	0x30
 2366 02e8 15       		.uleb128 0x15
 2367 02e9 01       		.uleb128 0x1
 2368 02ea 52       		.byte	0x52
 2369 02eb 02       		.uleb128 0x2
ARM GAS  C:\Users\Phuong\AppData\Local\Temp\ccnrs5hd.s 			page 68


 2370 02ec 08       		.byte	0x8
 2371 02ed 24       		.byte	0x24
 2372 02ee 00       		.byte	0
 2373 02ef 00       		.byte	0
 2374 02f0 06       		.uleb128 0x6
 2375 02f1 04       		.byte	0x4
 2376 02f2 E2010000 		.4byte	0x1e2
 2377 02f6 0F       		.uleb128 0xf
 2378 02f7 F0020000 		.4byte	0x2f0
 2379 02fb 0F       		.uleb128 0xf
 2380 02fc E8000000 		.4byte	0xe8
 2381 0300 0F       		.uleb128 0xf
 2382 0301 C7000000 		.4byte	0xc7
 2383 0305 0C       		.uleb128 0xc
 2384 0306 C8060000 		.4byte	.LASF50
 2385 030a 01       		.byte	0x1
 2386 030b FC03     		.2byte	0x3fc
 2387 030d 97000000 		.4byte	0x97
 2388 0311 00000000 		.4byte	.LFB52
 2389 0315 60000000 		.4byte	.LFE52-.LFB52
 2390 0319 01       		.uleb128 0x1
 2391 031a 9C       		.byte	0x9c
 2392 031b 9F030000 		.4byte	0x39f
 2393 031f 0D       		.uleb128 0xd
 2394 0320 82030000 		.4byte	.LASF44
 2395 0324 01       		.byte	0x1
 2396 0325 FC03     		.2byte	0x3fc
 2397 0327 F6020000 		.4byte	0x2f6
 2398 032b F2000000 		.4byte	.LLST6
 2399 032f 0D       		.uleb128 0xd
 2400 0330 63080000 		.4byte	.LASF51
 2401 0334 01       		.byte	0x1
 2402 0335 FC03     		.2byte	0x3fc
 2403 0337 9F030000 		.4byte	0x39f
 2404 033b 1E010000 		.4byte	.LLST7
 2405 033f 0D       		.uleb128 0xd
 2406 0340 45000000 		.4byte	.LASF47
 2407 0344 01       		.byte	0x1
 2408 0345 FC03     		.2byte	0x3fc
 2409 0347 97000000 		.4byte	0x97
 2410 034b 3D010000 		.4byte	.LLST8
 2411 034f 0E       		.uleb128 0xe
 2412 0350 85010000 		.4byte	.LASF52
 2413 0354 01       		.byte	0x1
 2414 0355 FE03     		.2byte	0x3fe
 2415 0357 97000000 		.4byte	0x97
 2416 035b 7C010000 		.4byte	.LLST9
 2417 035f 0E       		.uleb128 0xe
 2418 0360 CB010000 		.4byte	.LASF53
 2419 0364 01       		.byte	0x1
 2420 0365 FE03     		.2byte	0x3fe
 2421 0367 97000000 		.4byte	0x97
 2422 036b AA010000 		.4byte	.LLST10
 2423 036f 16       		.uleb128 0x16
 2424 0370 34000000 		.4byte	.LVL22
 2425 0374 DB100000 		.4byte	0x10db
 2426 0378 8A030000 		.4byte	0x38a
ARM GAS  C:\Users\Phuong\AppData\Local\Temp\ccnrs5hd.s 			page 69


 2427 037c 15       		.uleb128 0x15
 2428 037d 01       		.uleb128 0x1
 2429 037e 51       		.byte	0x51
 2430 037f 03       		.uleb128 0x3
 2431 0380 91       		.byte	0x91
 2432 0381 64       		.sleb128 -28
 2433 0382 06       		.byte	0x6
 2434 0383 15       		.uleb128 0x15
 2435 0384 01       		.uleb128 0x1
 2436 0385 52       		.byte	0x52
 2437 0386 02       		.uleb128 0x2
 2438 0387 75       		.byte	0x75
 2439 0388 00       		.sleb128 0
 2440 0389 00       		.byte	0
 2441 038a 14       		.uleb128 0x14
 2442 038b 4E000000 		.4byte	.LVL23
 2443 038f DB100000 		.4byte	0x10db
 2444 0393 15       		.uleb128 0x15
 2445 0394 01       		.uleb128 0x1
 2446 0395 51       		.byte	0x51
 2447 0396 06       		.uleb128 0x6
 2448 0397 91       		.byte	0x91
 2449 0398 64       		.sleb128 -28
 2450 0399 06       		.byte	0x6
 2451 039a 75       		.byte	0x75
 2452 039b 00       		.sleb128 0
 2453 039c 22       		.byte	0x22
 2454 039d 00       		.byte	0
 2455 039e 00       		.byte	0
 2456 039f 06       		.uleb128 0x6
 2457 03a0 04       		.byte	0x4
 2458 03a1 A5030000 		.4byte	0x3a5
 2459 03a5 0F       		.uleb128 0xf
 2460 03a6 81000000 		.4byte	0x81
 2461 03aa 0C       		.uleb128 0xc
 2462 03ab 91030000 		.4byte	.LASF54
 2463 03af 01       		.byte	0x1
 2464 03b0 7F02     		.2byte	0x27f
 2465 03b2 97000000 		.4byte	0x97
 2466 03b6 00000000 		.4byte	.LFB44
 2467 03ba 50000000 		.4byte	.LFE44-.LFB44
 2468 03be 01       		.uleb128 0x1
 2469 03bf 9C       		.byte	0x9c
 2470 03c0 63040000 		.4byte	0x463
 2471 03c4 0D       		.uleb128 0xd
 2472 03c5 82030000 		.4byte	.LASF44
 2473 03c9 01       		.byte	0x1
 2474 03ca 7F02     		.2byte	0x27f
 2475 03cc F6020000 		.4byte	0x2f6
 2476 03d0 BD010000 		.4byte	.LLST11
 2477 03d4 0D       		.uleb128 0xd
 2478 03d5 7F000000 		.4byte	.LASF55
 2479 03d9 01       		.byte	0x1
 2480 03da 8002     		.2byte	0x280
 2481 03dc 63040000 		.4byte	0x463
 2482 03e0 FF010000 		.4byte	.LLST12
 2483 03e4 0D       		.uleb128 0xd
ARM GAS  C:\Users\Phuong\AppData\Local\Temp\ccnrs5hd.s 			page 70


 2484 03e5 96010000 		.4byte	.LASF56
 2485 03e9 01       		.byte	0x1
 2486 03ea 8102     		.2byte	0x281
 2487 03ec 97000000 		.4byte	0x97
 2488 03f0 41020000 		.4byte	.LLST13
 2489 03f4 0D       		.uleb128 0xd
 2490 03f5 31060000 		.4byte	.LASF57
 2491 03f9 01       		.byte	0x1
 2492 03fa 8202     		.2byte	0x282
 2493 03fc 97000000 		.4byte	0x97
 2494 0400 A9020000 		.4byte	.LLST14
 2495 0404 11       		.uleb128 0x11
 2496 0405 E6020000 		.4byte	.LASF58
 2497 0409 01       		.byte	0x1
 2498 040a 8302     		.2byte	0x283
 2499 040c 97000000 		.4byte	0x97
 2500 0410 02       		.uleb128 0x2
 2501 0411 91       		.byte	0x91
 2502 0412 00       		.sleb128 0
 2503 0413 0E       		.uleb128 0xe
 2504 0414 00000000 		.4byte	.LASF59
 2505 0418 01       		.byte	0x1
 2506 0419 8502     		.2byte	0x285
 2507 041b C7000000 		.4byte	0xc7
 2508 041f 15030000 		.4byte	.LLST15
 2509 0423 0E       		.uleb128 0xe
 2510 0424 AA070000 		.4byte	.LASF60
 2511 0428 01       		.byte	0x1
 2512 0429 8602     		.2byte	0x286
 2513 042b 97000000 		.4byte	0x97
 2514 042f 4B030000 		.4byte	.LLST16
 2515 0433 16       		.uleb128 0x16
 2516 0434 30000000 		.4byte	.LVL38
 2517 0438 05030000 		.4byte	0x305
 2518 043c 4C040000 		.4byte	0x44c
 2519 0440 15       		.uleb128 0x15
 2520 0441 01       		.uleb128 0x1
 2521 0442 51       		.byte	0x51
 2522 0443 02       		.uleb128 0x2
 2523 0444 91       		.byte	0x91
 2524 0445 6C       		.sleb128 -20
 2525 0446 15       		.uleb128 0x15
 2526 0447 01       		.uleb128 0x1
 2527 0448 52       		.byte	0x52
 2528 0449 01       		.uleb128 0x1
 2529 044a 34       		.byte	0x34
 2530 044b 00       		.byte	0
 2531 044c 14       		.uleb128 0x14
 2532 044d 48000000 		.4byte	.LVL43
 2533 0451 05030000 		.4byte	0x305
 2534 0455 15       		.uleb128 0x15
 2535 0456 01       		.uleb128 0x1
 2536 0457 50       		.byte	0x50
 2537 0458 02       		.uleb128 0x2
 2538 0459 74       		.byte	0x74
 2539 045a 00       		.sleb128 0
 2540 045b 15       		.uleb128 0x15
ARM GAS  C:\Users\Phuong\AppData\Local\Temp\ccnrs5hd.s 			page 71


 2541 045c 01       		.uleb128 0x1
 2542 045d 51       		.byte	0x51
 2543 045e 02       		.uleb128 0x2
 2544 045f 75       		.byte	0x75
 2545 0460 00       		.sleb128 0
 2546 0461 00       		.byte	0
 2547 0462 00       		.byte	0
 2548 0463 06       		.uleb128 0x6
 2549 0464 04       		.byte	0x4
 2550 0465 69040000 		.4byte	0x469
 2551 0469 17       		.uleb128 0x17
 2552 046a 0C       		.uleb128 0xc
 2553 046b AC000000 		.4byte	.LASF61
 2554 046f 01       		.byte	0x1
 2555 0470 2A04     		.2byte	0x42a
 2556 0472 97000000 		.4byte	0x97
 2557 0476 00000000 		.4byte	.LFB53
 2558 047a 74000000 		.4byte	.LFE53-.LFB53
 2559 047e 01       		.uleb128 0x1
 2560 047f 9C       		.byte	0x9c
 2561 0480 2D050000 		.4byte	0x52d
 2562 0484 0D       		.uleb128 0xd
 2563 0485 82030000 		.4byte	.LASF44
 2564 0489 01       		.byte	0x1
 2565 048a 2A04     		.2byte	0x42a
 2566 048c F0020000 		.4byte	0x2f0
 2567 0490 69030000 		.4byte	.LLST17
 2568 0494 0D       		.uleb128 0xd
 2569 0495 63080000 		.4byte	.LASF51
 2570 0499 01       		.byte	0x1
 2571 049a 2A04     		.2byte	0x42a
 2572 049c E8000000 		.4byte	0xe8
 2573 04a0 95030000 		.4byte	.LLST18
 2574 04a4 0D       		.uleb128 0xd
 2575 04a5 8A060000 		.4byte	.LASF62
 2576 04a9 01       		.byte	0x1
 2577 04aa 2A04     		.2byte	0x42a
 2578 04ac 97000000 		.4byte	0x97
 2579 04b0 B4030000 		.4byte	.LLST19
 2580 04b4 0D       		.uleb128 0xd
 2581 04b5 62010000 		.4byte	.LASF63
 2582 04b9 01       		.byte	0x1
 2583 04ba 2A04     		.2byte	0x42a
 2584 04bc 97000000 		.4byte	0x97
 2585 04c0 E0030000 		.4byte	.LLST20
 2586 04c4 0E       		.uleb128 0xe
 2587 04c5 45000000 		.4byte	.LASF47
 2588 04c9 01       		.byte	0x1
 2589 04ca 2C04     		.2byte	0x42c
 2590 04cc 97000000 		.4byte	0x97
 2591 04d0 01040000 		.4byte	.LLST21
 2592 04d4 0E       		.uleb128 0xe
 2593 04d5 CB010000 		.4byte	.LASF53
 2594 04d9 01       		.byte	0x1
 2595 04da 2C04     		.2byte	0x42c
 2596 04dc 97000000 		.4byte	0x97
 2597 04e0 1F040000 		.4byte	.LLST22
ARM GAS  C:\Users\Phuong\AppData\Local\Temp\ccnrs5hd.s 			page 72


 2598 04e4 0E       		.uleb128 0xe
 2599 04e5 D4070000 		.4byte	.LASF64
 2600 04e9 01       		.byte	0x1
 2601 04ea 2C04     		.2byte	0x42c
 2602 04ec 97000000 		.4byte	0x97
 2603 04f0 32040000 		.4byte	.LLST23
 2604 04f4 16       		.uleb128 0x16
 2605 04f5 46000000 		.4byte	.LVL56
 2606 04f9 DB100000 		.4byte	0x10db
 2607 04fd 0F050000 		.4byte	0x50f
 2608 0501 15       		.uleb128 0x15
 2609 0502 01       		.uleb128 0x1
 2610 0503 50       		.byte	0x50
 2611 0504 03       		.uleb128 0x3
 2612 0505 91       		.byte	0x91
 2613 0506 64       		.sleb128 -28
 2614 0507 06       		.byte	0x6
 2615 0508 15       		.uleb128 0x15
 2616 0509 01       		.uleb128 0x1
 2617 050a 52       		.byte	0x52
 2618 050b 02       		.uleb128 0x2
 2619 050c 76       		.byte	0x76
 2620 050d 00       		.sleb128 0
 2621 050e 00       		.byte	0
 2622 050f 14       		.uleb128 0x14
 2623 0510 5E000000 		.4byte	.LVL57
 2624 0514 DB100000 		.4byte	0x10db
 2625 0518 15       		.uleb128 0x15
 2626 0519 01       		.uleb128 0x1
 2627 051a 50       		.byte	0x50
 2628 051b 06       		.uleb128 0x6
 2629 051c 91       		.byte	0x91
 2630 051d 64       		.sleb128 -28
 2631 051e 06       		.byte	0x6
 2632 051f 76       		.byte	0x76
 2633 0520 00       		.sleb128 0
 2634 0521 22       		.byte	0x22
 2635 0522 15       		.uleb128 0x15
 2636 0523 01       		.uleb128 0x1
 2637 0524 52       		.byte	0x52
 2638 0525 05       		.uleb128 0x5
 2639 0526 74       		.byte	0x74
 2640 0527 00       		.sleb128 0
 2641 0528 76       		.byte	0x76
 2642 0529 00       		.sleb128 0
 2643 052a 1C       		.byte	0x1c
 2644 052b 00       		.byte	0
 2645 052c 00       		.byte	0
 2646 052d 0C       		.uleb128 0xc
 2647 052e 20050000 		.4byte	.LASF65
 2648 0532 01       		.byte	0x1
 2649 0533 5403     		.2byte	0x354
 2650 0535 97000000 		.4byte	0x97
 2651 0539 00000000 		.4byte	.LFB47
 2652 053d 4E000000 		.4byte	.LFE47-.LFB47
 2653 0541 01       		.uleb128 0x1
 2654 0542 9C       		.byte	0x9c
ARM GAS  C:\Users\Phuong\AppData\Local\Temp\ccnrs5hd.s 			page 73


 2655 0543 07060000 		.4byte	0x607
 2656 0547 0D       		.uleb128 0xd
 2657 0548 82030000 		.4byte	.LASF44
 2658 054c 01       		.byte	0x1
 2659 054d 5403     		.2byte	0x354
 2660 054f F0020000 		.4byte	0x2f0
 2661 0553 45040000 		.4byte	.LLST24
 2662 0557 0D       		.uleb128 0xd
 2663 0558 C3030000 		.4byte	.LASF66
 2664 055c 01       		.byte	0x1
 2665 055d 5503     		.2byte	0x355
 2666 055f B0000000 		.4byte	0xb0
 2667 0563 87040000 		.4byte	.LLST25
 2668 0567 0D       		.uleb128 0xd
 2669 0568 0D000000 		.4byte	.LASF67
 2670 056c 01       		.byte	0x1
 2671 056d 5603     		.2byte	0x356
 2672 056f 97000000 		.4byte	0x97
 2673 0573 C9040000 		.4byte	.LLST26
 2674 0577 0D       		.uleb128 0xd
 2675 0578 62010000 		.4byte	.LASF63
 2676 057c 01       		.byte	0x1
 2677 057d 5703     		.2byte	0x357
 2678 057f 97000000 		.4byte	0x97
 2679 0583 0B050000 		.4byte	.LLST27
 2680 0587 11       		.uleb128 0x11
 2681 0588 A6060000 		.4byte	.LASF68
 2682 058c 01       		.byte	0x1
 2683 058d 5803     		.2byte	0x358
 2684 058f 97000000 		.4byte	0x97
 2685 0593 02       		.uleb128 0x2
 2686 0594 91       		.byte	0x91
 2687 0595 00       		.sleb128 0
 2688 0596 0E       		.uleb128 0xe
 2689 0597 08080000 		.4byte	.LASF69
 2690 059b 01       		.byte	0x1
 2691 059c 5A03     		.2byte	0x35a
 2692 059e 97000000 		.4byte	0x97
 2693 05a2 29050000 		.4byte	.LLST28
 2694 05a6 18       		.uleb128 0x18
 2695 05a7 29020000 		.4byte	.LASF70
 2696 05ab 01       		.byte	0x1
 2697 05ac 5A03     		.2byte	0x35a
 2698 05ae 97000000 		.4byte	0x97
 2699 05b2 01       		.uleb128 0x1
 2700 05b3 50       		.byte	0x50
 2701 05b4 18       		.uleb128 0x18
 2702 05b5 72010000 		.4byte	.LASF71
 2703 05b9 01       		.byte	0x1
 2704 05ba 5A03     		.2byte	0x35a
 2705 05bc 97000000 		.4byte	0x97
 2706 05c0 02       		.uleb128 0x2
 2707 05c1 91       		.byte	0x91
 2708 05c2 64       		.sleb128 -28
 2709 05c3 16       		.uleb128 0x16
 2710 05c4 24000000 		.4byte	.LVL70
 2711 05c8 6A040000 		.4byte	0x46a
ARM GAS  C:\Users\Phuong\AppData\Local\Temp\ccnrs5hd.s 			page 74


 2712 05cc EA050000 		.4byte	0x5ea
 2713 05d0 15       		.uleb128 0x15
 2714 05d1 01       		.uleb128 0x1
 2715 05d2 50       		.byte	0x50
 2716 05d3 02       		.uleb128 0x2
 2717 05d4 75       		.byte	0x75
 2718 05d5 00       		.sleb128 0
 2719 05d6 15       		.uleb128 0x15
 2720 05d7 01       		.uleb128 0x1
 2721 05d8 51       		.byte	0x51
 2722 05d9 02       		.uleb128 0x2
 2723 05da 91       		.byte	0x91
 2724 05db 64       		.sleb128 -28
 2725 05dc 15       		.uleb128 0x15
 2726 05dd 01       		.uleb128 0x1
 2727 05de 52       		.byte	0x52
 2728 05df 03       		.uleb128 0x3
 2729 05e0 91       		.byte	0x91
 2730 05e1 00       		.sleb128 0
 2731 05e2 06       		.byte	0x6
 2732 05e3 15       		.uleb128 0x15
 2733 05e4 01       		.uleb128 0x1
 2734 05e5 53       		.byte	0x53
 2735 05e6 02       		.uleb128 0x2
 2736 05e7 74       		.byte	0x74
 2737 05e8 00       		.sleb128 0
 2738 05e9 00       		.byte	0
 2739 05ea 14       		.uleb128 0x14
 2740 05eb 46000000 		.4byte	.LVL74
 2741 05ef 6A040000 		.4byte	0x46a
 2742 05f3 15       		.uleb128 0x15
 2743 05f4 01       		.uleb128 0x1
 2744 05f5 50       		.byte	0x50
 2745 05f6 02       		.uleb128 0x2
 2746 05f7 75       		.byte	0x75
 2747 05f8 00       		.sleb128 0
 2748 05f9 15       		.uleb128 0x15
 2749 05fa 01       		.uleb128 0x1
 2750 05fb 51       		.byte	0x51
 2751 05fc 02       		.uleb128 0x2
 2752 05fd 76       		.byte	0x76
 2753 05fe 00       		.sleb128 0
 2754 05ff 15       		.uleb128 0x15
 2755 0600 01       		.uleb128 0x1
 2756 0601 53       		.byte	0x53
 2757 0602 02       		.uleb128 0x2
 2758 0603 74       		.byte	0x74
 2759 0604 00       		.sleb128 0
 2760 0605 00       		.byte	0
 2761 0606 00       		.byte	0
 2762 0607 19       		.uleb128 0x19
 2763 0608 2A000000 		.4byte	.LASF74
 2764 060c 01       		.byte	0x1
 2765 060d DB       		.byte	0xdb
 2766 060e 54010000 		.4byte	0x154
 2767 0612 00000000 		.4byte	.LFB36
 2768 0616 3E000000 		.4byte	.LFE36-.LFB36
ARM GAS  C:\Users\Phuong\AppData\Local\Temp\ccnrs5hd.s 			page 75


 2769 061a 01       		.uleb128 0x1
 2770 061b 9C       		.byte	0x9c
 2771 061c 9A060000 		.4byte	0x69a
 2772 0620 1A       		.uleb128 0x1a
 2773 0621 FE030000 		.4byte	.LASF45
 2774 0625 01       		.byte	0x1
 2775 0626 DB       		.byte	0xdb
 2776 0627 97000000 		.4byte	0x97
 2777 062b 47050000 		.4byte	.LLST29
 2778 062f 1A       		.uleb128 0x1a
 2779 0630 5D060000 		.4byte	.LASF37
 2780 0634 01       		.byte	0x1
 2781 0635 DB       		.byte	0xdb
 2782 0636 97000000 		.4byte	0x97
 2783 063a 75050000 		.4byte	.LLST30
 2784 063e 1A       		.uleb128 0x1a
 2785 063f FF050000 		.4byte	.LASF46
 2786 0643 01       		.byte	0x1
 2787 0644 DB       		.byte	0xdb
 2788 0645 C7000000 		.4byte	0xc7
 2789 0649 93050000 		.4byte	.LLST31
 2790 064d 1B       		.uleb128 0x1b
 2791 064e 6F030000 		.4byte	.LASF72
 2792 0652 01       		.byte	0x1
 2793 0653 DD       		.byte	0xdd
 2794 0654 E8000000 		.4byte	0xe8
 2795 0658 BF050000 		.4byte	.LLST32
 2796 065c 16       		.uleb128 0x16
 2797 065d 26000000 		.4byte	.LVL82
 2798 0661 E4100000 		.4byte	0x10e4
 2799 0665 70060000 		.4byte	0x670
 2800 0669 15       		.uleb128 0x15
 2801 066a 01       		.uleb128 0x1
 2802 066b 50       		.byte	0x50
 2803 066c 02       		.uleb128 0x2
 2804 066d 76       		.byte	0x76
 2805 066e 24       		.sleb128 36
 2806 066f 00       		.byte	0
 2807 0670 14       		.uleb128 0x14
 2808 0671 38000000 		.4byte	.LVL84
 2809 0675 38020000 		.4byte	0x238
 2810 0679 15       		.uleb128 0x15
 2811 067a 01       		.uleb128 0x1
 2812 067b 50       		.byte	0x50
 2813 067c 02       		.uleb128 0x2
 2814 067d 74       		.byte	0x74
 2815 067e 00       		.sleb128 0
 2816 067f 15       		.uleb128 0x15
 2817 0680 01       		.uleb128 0x1
 2818 0681 51       		.byte	0x51
 2819 0682 02       		.uleb128 0x2
 2820 0683 74       		.byte	0x74
 2821 0684 24       		.sleb128 36
 2822 0685 15       		.uleb128 0x15
 2823 0686 01       		.uleb128 0x1
 2824 0687 52       		.byte	0x52
 2825 0688 02       		.uleb128 0x2
ARM GAS  C:\Users\Phuong\AppData\Local\Temp\ccnrs5hd.s 			page 76


 2826 0689 76       		.byte	0x76
 2827 068a 00       		.sleb128 0
 2828 068b 15       		.uleb128 0x15
 2829 068c 01       		.uleb128 0x1
 2830 068d 53       		.byte	0x53
 2831 068e 02       		.uleb128 0x2
 2832 068f 75       		.byte	0x75
 2833 0690 00       		.sleb128 0
 2834 0691 15       		.uleb128 0x15
 2835 0692 02       		.uleb128 0x2
 2836 0693 7D       		.byte	0x7d
 2837 0694 00       		.sleb128 0
 2838 0695 02       		.uleb128 0x2
 2839 0696 77       		.byte	0x77
 2840 0697 00       		.sleb128 0
 2841 0698 00       		.byte	0
 2842 0699 00       		.byte	0
 2843 069a 1C       		.uleb128 0x1c
 2844 069b 4C000000 		.4byte	.LASF93
 2845 069f 01       		.byte	0x1
 2846 06a0 4F01     		.2byte	0x14f
 2847 06a2 00000000 		.4byte	.LFB37
 2848 06a6 20000000 		.4byte	.LFE37-.LFB37
 2849 06aa 01       		.uleb128 0x1
 2850 06ab 9C       		.byte	0x9c
 2851 06ac FB060000 		.4byte	0x6fb
 2852 06b0 0D       		.uleb128 0xd
 2853 06b1 A7020000 		.4byte	.LASF73
 2854 06b5 01       		.byte	0x1
 2855 06b6 4F01     		.2byte	0x14f
 2856 06b8 54010000 		.4byte	0x154
 2857 06bc E8050000 		.4byte	.LLST33
 2858 06c0 0E       		.uleb128 0xe
 2859 06c1 82030000 		.4byte	.LASF44
 2860 06c5 01       		.byte	0x1
 2861 06c6 5101     		.2byte	0x151
 2862 06c8 F0020000 		.4byte	0x2f0
 2863 06cc 22060000 		.4byte	.LLST34
 2864 06d0 16       		.uleb128 0x16
 2865 06d1 14000000 		.4byte	.LVL91
 2866 06d5 EF100000 		.4byte	0x10ef
 2867 06d9 E5060000 		.4byte	0x6e5
 2868 06dd 15       		.uleb128 0x15
 2869 06de 01       		.uleb128 0x1
 2870 06df 50       		.byte	0x50
 2871 06e0 03       		.uleb128 0x3
 2872 06e1 F3       		.byte	0xf3
 2873 06e2 01       		.uleb128 0x1
 2874 06e3 50       		.byte	0x50
 2875 06e4 00       		.byte	0
 2876 06e5 14       		.uleb128 0x14
 2877 06e6 1E000000 		.4byte	.LVL93
 2878 06ea D2100000 		.4byte	0x10d2
 2879 06ee 15       		.uleb128 0x15
 2880 06ef 01       		.uleb128 0x1
 2881 06f0 51       		.byte	0x51
 2882 06f1 01       		.uleb128 0x1
ARM GAS  C:\Users\Phuong\AppData\Local\Temp\ccnrs5hd.s 			page 77


 2883 06f2 30       		.byte	0x30
 2884 06f3 15       		.uleb128 0x15
 2885 06f4 01       		.uleb128 0x1
 2886 06f5 52       		.byte	0x52
 2887 06f6 02       		.uleb128 0x2
 2888 06f7 08       		.byte	0x8
 2889 06f8 24       		.byte	0x24
 2890 06f9 00       		.byte	0
 2891 06fa 00       		.byte	0
 2892 06fb 1D       		.uleb128 0x1d
 2893 06fc 5E020000 		.4byte	.LASF75
 2894 0700 01       		.byte	0x1
 2895 0701 7001     		.2byte	0x170
 2896 0703 C7000000 		.4byte	0xc7
 2897 0707 00000000 		.4byte	.LFB38
 2898 070b 44000000 		.4byte	.LFE38-.LFB38
 2899 070f 01       		.uleb128 0x1
 2900 0710 9C       		.byte	0x9c
 2901 0711 76070000 		.4byte	0x776
 2902 0715 0D       		.uleb128 0xd
 2903 0716 A7020000 		.4byte	.LASF73
 2904 071a 01       		.byte	0x1
 2905 071b 7001     		.2byte	0x170
 2906 071d 54010000 		.4byte	0x154
 2907 0721 5C060000 		.4byte	.LLST35
 2908 0725 0E       		.uleb128 0xe
 2909 0726 82030000 		.4byte	.LASF44
 2910 072a 01       		.byte	0x1
 2911 072b 7201     		.2byte	0x172
 2912 072d F6020000 		.4byte	0x2f6
 2913 0731 B4060000 		.4byte	.LLST36
 2914 0735 0E       		.uleb128 0xe
 2915 0736 AA070000 		.4byte	.LASF60
 2916 073a 01       		.byte	0x1
 2917 073b 7301     		.2byte	0x173
 2918 073d C7000000 		.4byte	0xc7
 2919 0741 0C070000 		.4byte	.LLST37
 2920 0745 0E       		.uleb128 0xe
 2921 0746 FF050000 		.4byte	.LASF46
 2922 074a 01       		.byte	0x1
 2923 074b 7301     		.2byte	0x173
 2924 074d C7000000 		.4byte	0xc7
 2925 0751 43070000 		.4byte	.LLST38
 2926 0755 0E       		.uleb128 0xe
 2927 0756 10060000 		.4byte	.LASF42
 2928 075a 01       		.byte	0x1
 2929 075b 7601     		.2byte	0x176
 2930 075d D2000000 		.4byte	0xd2
 2931 0761 62070000 		.4byte	.LLST39
 2932 0765 14       		.uleb128 0x14
 2933 0766 34000000 		.4byte	.LVL100
 2934 076a 38020000 		.4byte	0x238
 2935 076e 15       		.uleb128 0x15
 2936 076f 01       		.uleb128 0x1
 2937 0770 50       		.byte	0x50
 2938 0771 02       		.uleb128 0x2
 2939 0772 74       		.byte	0x74
ARM GAS  C:\Users\Phuong\AppData\Local\Temp\ccnrs5hd.s 			page 78


 2940 0773 00       		.sleb128 0
 2941 0774 00       		.byte	0
 2942 0775 00       		.byte	0
 2943 0776 1D       		.uleb128 0x1d
 2944 0777 1E040000 		.4byte	.LASF76
 2945 077b 01       		.byte	0x1
 2946 077c A601     		.2byte	0x1a6
 2947 077e C7000000 		.4byte	0xc7
 2948 0782 00000000 		.4byte	.LFB39
 2949 0786 1E000000 		.4byte	.LFE39-.LFB39
 2950 078a 01       		.uleb128 0x1
 2951 078b 9C       		.byte	0x9c
 2952 078c D1070000 		.4byte	0x7d1
 2953 0790 0D       		.uleb128 0xd
 2954 0791 A7020000 		.4byte	.LASF73
 2955 0795 01       		.byte	0x1
 2956 0796 A601     		.2byte	0x1a6
 2957 0798 54010000 		.4byte	0x154
 2958 079c 75070000 		.4byte	.LLST40
 2959 07a0 0D       		.uleb128 0xd
 2960 07a1 2D030000 		.4byte	.LASF77
 2961 07a5 01       		.byte	0x1
 2962 07a6 A601     		.2byte	0x1a6
 2963 07a8 97000000 		.4byte	0x97
 2964 07ac AF070000 		.4byte	.LLST41
 2965 07b0 0E       		.uleb128 0xe
 2966 07b1 82030000 		.4byte	.LASF44
 2967 07b5 01       		.byte	0x1
 2968 07b6 A801     		.2byte	0x1a8
 2969 07b8 F6020000 		.4byte	0x2f6
 2970 07bc CD070000 		.4byte	.LLST42
 2971 07c0 0E       		.uleb128 0xe
 2972 07c1 AA070000 		.4byte	.LASF60
 2973 07c5 01       		.byte	0x1
 2974 07c6 A901     		.2byte	0x1a9
 2975 07c8 C7000000 		.4byte	0xc7
 2976 07cc 07080000 		.4byte	.LLST43
 2977 07d0 00       		.byte	0
 2978 07d1 1D       		.uleb128 0x1d
 2979 07d2 EC040000 		.4byte	.LASF78
 2980 07d6 01       		.byte	0x1
 2981 07d7 C301     		.2byte	0x1c3
 2982 07d9 97000000 		.4byte	0x97
 2983 07dd 00000000 		.4byte	.LFB40
 2984 07e1 1C000000 		.4byte	.LFE40-.LFB40
 2985 07e5 01       		.uleb128 0x1
 2986 07e6 9C       		.byte	0x9c
 2987 07e7 1C080000 		.4byte	0x81c
 2988 07eb 0D       		.uleb128 0xd
 2989 07ec A7020000 		.4byte	.LASF73
 2990 07f0 01       		.byte	0x1
 2991 07f1 C301     		.2byte	0x1c3
 2992 07f3 54010000 		.4byte	0x154
 2993 07f7 26080000 		.4byte	.LLST44
 2994 07fb 0E       		.uleb128 0xe
 2995 07fc 82030000 		.4byte	.LASF44
 2996 0800 01       		.byte	0x1
ARM GAS  C:\Users\Phuong\AppData\Local\Temp\ccnrs5hd.s 			page 79


 2997 0801 C501     		.2byte	0x1c5
 2998 0803 33020000 		.4byte	0x233
 2999 0807 47080000 		.4byte	.LLST45
 3000 080b 0E       		.uleb128 0xe
 3001 080c 31060000 		.4byte	.LASF57
 3002 0810 01       		.byte	0x1
 3003 0811 C601     		.2byte	0x1c6
 3004 0813 97000000 		.4byte	0x97
 3005 0817 68080000 		.4byte	.LLST46
 3006 081b 00       		.byte	0
 3007 081c 1D       		.uleb128 0x1d
 3008 081d 47080000 		.4byte	.LASF79
 3009 0821 01       		.byte	0x1
 3010 0822 DB01     		.2byte	0x1db
 3011 0824 97000000 		.4byte	0x97
 3012 0828 00000000 		.4byte	.LFB41
 3013 082c 10000000 		.4byte	.LFE41-.LFB41
 3014 0830 01       		.uleb128 0x1
 3015 0831 9C       		.byte	0x9c
 3016 0832 6E080000 		.4byte	0x86e
 3017 0836 0D       		.uleb128 0xd
 3018 0837 A7020000 		.4byte	.LASF73
 3019 083b 01       		.byte	0x1
 3020 083c DB01     		.2byte	0x1db
 3021 083e 54010000 		.4byte	0x154
 3022 0842 86080000 		.4byte	.LLST47
 3023 0846 0E       		.uleb128 0xe
 3024 0847 82030000 		.4byte	.LASF44
 3025 084b 01       		.byte	0x1
 3026 084c DD01     		.2byte	0x1dd
 3027 084e 33020000 		.4byte	0x233
 3028 0852 A7080000 		.4byte	.LLST48
 3029 0856 18       		.uleb128 0x18
 3030 0857 AA070000 		.4byte	.LASF60
 3031 085b 01       		.byte	0x1
 3032 085c DE01     		.2byte	0x1de
 3033 085e 97000000 		.4byte	0x97
 3034 0862 01       		.uleb128 0x1
 3035 0863 50       		.byte	0x50
 3036 0864 1E       		.uleb128 0x1e
 3037 0865 0E000000 		.4byte	.LVL121
 3038 0869 ED010000 		.4byte	0x1ed
 3039 086d 00       		.byte	0
 3040 086e 1D       		.uleb128 0x1d
 3041 086f 7B050000 		.4byte	.LASF80
 3042 0873 01       		.byte	0x1
 3043 0874 E701     		.2byte	0x1e7
 3044 0876 97000000 		.4byte	0x97
 3045 087a 00000000 		.4byte	.LFB42
 3046 087e D4000000 		.4byte	.LFE42-.LFB42
 3047 0882 01       		.uleb128 0x1
 3048 0883 9C       		.byte	0x9c
 3049 0884 340A0000 		.4byte	0xa34
 3050 0888 0D       		.uleb128 0xd
 3051 0889 A7020000 		.4byte	.LASF73
 3052 088d 01       		.byte	0x1
 3053 088e E701     		.2byte	0x1e7
ARM GAS  C:\Users\Phuong\AppData\Local\Temp\ccnrs5hd.s 			page 80


 3054 0890 54010000 		.4byte	0x154
 3055 0894 C8080000 		.4byte	.LLST49
 3056 0898 0D       		.uleb128 0xd
 3057 0899 7F000000 		.4byte	.LASF55
 3058 089d 01       		.byte	0x1
 3059 089e E801     		.2byte	0x1e8
 3060 08a0 63040000 		.4byte	0x463
 3061 08a4 0A090000 		.4byte	.LLST50
 3062 08a8 0D       		.uleb128 0xd
 3063 08a9 96010000 		.4byte	.LASF56
 3064 08ad 01       		.byte	0x1
 3065 08ae E901     		.2byte	0x1e9
 3066 08b0 97000000 		.4byte	0x97
 3067 08b4 40090000 		.4byte	.LLST51
 3068 08b8 0D       		.uleb128 0xd
 3069 08b9 CB020000 		.4byte	.LASF81
 3070 08bd 01       		.byte	0x1
 3071 08be EA01     		.2byte	0x1ea
 3072 08c0 DD000000 		.4byte	0xdd
 3073 08c4 82090000 		.4byte	.LLST52
 3074 08c8 0E       		.uleb128 0xe
 3075 08c9 82030000 		.4byte	.LASF44
 3076 08cd 01       		.byte	0x1
 3077 08ce EC01     		.2byte	0x1ec
 3078 08d0 F6020000 		.4byte	0x2f6
 3079 08d4 B9090000 		.4byte	.LLST53
 3080 08d8 0E       		.uleb128 0xe
 3081 08d9 AA070000 		.4byte	.LASF60
 3082 08dd 01       		.byte	0x1
 3083 08de ED01     		.2byte	0x1ed
 3084 08e0 97000000 		.4byte	0x97
 3085 08e4 FB090000 		.4byte	.LLST54
 3086 08e8 0E       		.uleb128 0xe
 3087 08e9 31060000 		.4byte	.LASF57
 3088 08ed 01       		.byte	0x1
 3089 08ee ED01     		.2byte	0x1ed
 3090 08f0 97000000 		.4byte	0x97
 3091 08f4 240A0000 		.4byte	.LLST55
 3092 08f8 0E       		.uleb128 0xe
 3093 08f9 E6020000 		.4byte	.LASF58
 3094 08fd 01       		.byte	0x1
 3095 08fe EE01     		.2byte	0x1ee
 3096 0900 97000000 		.4byte	0x97
 3097 0904 7B0A0000 		.4byte	.LLST56
 3098 0908 18       		.uleb128 0x18
 3099 0909 F2010000 		.4byte	.LASF82
 3100 090d 01       		.byte	0x1
 3101 090e EF01     		.2byte	0x1ef
 3102 0910 49010000 		.4byte	0x149
 3103 0914 02       		.uleb128 0x2
 3104 0915 91       		.byte	0x91
 3105 0916 60       		.sleb128 -32
 3106 0917 16       		.uleb128 0x16
 3107 0918 34000000 		.4byte	.LVL129
 3108 091c FA100000 		.4byte	0x10fa
 3109 0920 2B090000 		.4byte	0x92b
 3110 0924 15       		.uleb128 0x15
ARM GAS  C:\Users\Phuong\AppData\Local\Temp\ccnrs5hd.s 			page 81


 3111 0925 01       		.uleb128 0x1
 3112 0926 50       		.byte	0x50
 3113 0927 02       		.uleb128 0x2
 3114 0928 91       		.byte	0x91
 3115 0929 60       		.sleb128 -32
 3116 092a 00       		.byte	0
 3117 092b 1E       		.uleb128 0x1e
 3118 092c 38000000 		.4byte	.LVL130
 3119 0930 06110000 		.4byte	0x1106
 3120 0934 16       		.uleb128 0x16
 3121 0935 3E000000 		.4byte	.LVL131
 3122 0939 D1070000 		.4byte	0x7d1
 3123 093d 48090000 		.4byte	0x948
 3124 0941 15       		.uleb128 0x15
 3125 0942 01       		.uleb128 0x1
 3126 0943 50       		.byte	0x50
 3127 0944 02       		.uleb128 0x2
 3128 0945 74       		.byte	0x74
 3129 0946 00       		.sleb128 0
 3130 0947 00       		.byte	0
 3131 0948 16       		.uleb128 0x16
 3132 0949 4A000000 		.4byte	.LVL134
 3133 094d 11110000 		.4byte	0x1111
 3134 0951 5B090000 		.4byte	0x95b
 3135 0955 15       		.uleb128 0x15
 3136 0956 01       		.uleb128 0x1
 3137 0957 50       		.byte	0x50
 3138 0958 01       		.uleb128 0x1
 3139 0959 30       		.byte	0x30
 3140 095a 00       		.byte	0
 3141 095b 1E       		.uleb128 0x1e
 3142 095c 58000000 		.4byte	.LVL135
 3143 0960 1D110000 		.4byte	0x111d
 3144 0964 1E       		.uleb128 0x1e
 3145 0965 5E000000 		.4byte	.LVL136
 3146 0969 29110000 		.4byte	0x1129
 3147 096d 16       		.uleb128 0x16
 3148 096e 6C000000 		.4byte	.LVL137
 3149 0972 34110000 		.4byte	0x1134
 3150 0976 8B090000 		.4byte	0x98b
 3151 097a 15       		.uleb128 0x15
 3152 097b 01       		.uleb128 0x1
 3153 097c 50       		.byte	0x50
 3154 097d 01       		.uleb128 0x1
 3155 097e 30       		.byte	0x30
 3156 097f 15       		.uleb128 0x15
 3157 0980 01       		.uleb128 0x1
 3158 0981 51       		.byte	0x51
 3159 0982 02       		.uleb128 0x2
 3160 0983 09       		.byte	0x9
 3161 0984 FF       		.byte	0xff
 3162 0985 15       		.uleb128 0x15
 3163 0986 01       		.uleb128 0x1
 3164 0987 52       		.byte	0x52
 3165 0988 01       		.uleb128 0x1
 3166 0989 30       		.byte	0x30
 3167 098a 00       		.byte	0
ARM GAS  C:\Users\Phuong\AppData\Local\Temp\ccnrs5hd.s 			page 82


 3168 098b 16       		.uleb128 0x16
 3169 098c 78000000 		.4byte	.LVL139
 3170 0990 40110000 		.4byte	0x1140
 3171 0994 A5090000 		.4byte	0x9a5
 3172 0998 15       		.uleb128 0x15
 3173 0999 01       		.uleb128 0x1
 3174 099a 50       		.byte	0x50
 3175 099b 02       		.uleb128 0x2
 3176 099c 91       		.byte	0x91
 3177 099d 60       		.sleb128 -32
 3178 099e 15       		.uleb128 0x15
 3179 099f 01       		.uleb128 0x1
 3180 09a0 51       		.byte	0x51
 3181 09a1 02       		.uleb128 0x2
 3182 09a2 91       		.byte	0x91
 3183 09a3 5C       		.sleb128 -36
 3184 09a4 00       		.byte	0
 3185 09a5 1E       		.uleb128 0x1e
 3186 09a6 82000000 		.4byte	.LVL141
 3187 09aa 29110000 		.4byte	0x1129
 3188 09ae 16       		.uleb128 0x16
 3189 09af 90000000 		.4byte	.LVL144
 3190 09b3 D1070000 		.4byte	0x7d1
 3191 09b7 C2090000 		.4byte	0x9c2
 3192 09bb 15       		.uleb128 0x15
 3193 09bc 01       		.uleb128 0x1
 3194 09bd 50       		.byte	0x50
 3195 09be 02       		.uleb128 0x2
 3196 09bf 74       		.byte	0x74
 3197 09c0 00       		.sleb128 0
 3198 09c1 00       		.byte	0
 3199 09c2 16       		.uleb128 0x16
 3200 09c3 A0000000 		.4byte	.LVL146
 3201 09c7 AA030000 		.4byte	0x3aa
 3202 09cb F0090000 		.4byte	0x9f0
 3203 09cf 15       		.uleb128 0x15
 3204 09d0 01       		.uleb128 0x1
 3205 09d1 50       		.byte	0x50
 3206 09d2 02       		.uleb128 0x2
 3207 09d3 74       		.byte	0x74
 3208 09d4 00       		.sleb128 0
 3209 09d5 15       		.uleb128 0x15
 3210 09d6 01       		.uleb128 0x1
 3211 09d7 51       		.byte	0x51
 3212 09d8 03       		.uleb128 0x3
 3213 09d9 91       		.byte	0x91
 3214 09da 58       		.sleb128 -40
 3215 09db 06       		.byte	0x6
 3216 09dc 15       		.uleb128 0x15
 3217 09dd 01       		.uleb128 0x1
 3218 09de 52       		.byte	0x52
 3219 09df 02       		.uleb128 0x2
 3220 09e0 76       		.byte	0x76
 3221 09e1 00       		.sleb128 0
 3222 09e2 15       		.uleb128 0x15
 3223 09e3 01       		.uleb128 0x1
 3224 09e4 53       		.byte	0x53
ARM GAS  C:\Users\Phuong\AppData\Local\Temp\ccnrs5hd.s 			page 83


 3225 09e5 02       		.uleb128 0x2
 3226 09e6 75       		.byte	0x75
 3227 09e7 00       		.sleb128 0
 3228 09e8 15       		.uleb128 0x15
 3229 09e9 02       		.uleb128 0x2
 3230 09ea 7D       		.byte	0x7d
 3231 09eb 00       		.sleb128 0
 3232 09ec 02       		.uleb128 0x2
 3233 09ed 77       		.byte	0x77
 3234 09ee 00       		.sleb128 0
 3235 09ef 00       		.byte	0
 3236 09f0 16       		.uleb128 0x16
 3237 09f1 AA000000 		.4byte	.LVL149
 3238 09f5 ED010000 		.4byte	0x1ed
 3239 09f9 040A0000 		.4byte	0xa04
 3240 09fd 15       		.uleb128 0x15
 3241 09fe 01       		.uleb128 0x1
 3242 09ff 50       		.byte	0x50
 3243 0a00 02       		.uleb128 0x2
 3244 0a01 74       		.byte	0x74
 3245 0a02 00       		.sleb128 0
 3246 0a03 00       		.byte	0
 3247 0a04 1E       		.uleb128 0x1e
 3248 0a05 B4000000 		.4byte	.LVL150
 3249 0a09 4C110000 		.4byte	0x114c
 3250 0a0d 16       		.uleb128 0x16
 3251 0a0e C6000000 		.4byte	.LVL151
 3252 0a12 58110000 		.4byte	0x1158
 3253 0a16 2A0A0000 		.4byte	0xa2a
 3254 0a1a 15       		.uleb128 0x15
 3255 0a1b 01       		.uleb128 0x1
 3256 0a1c 51       		.byte	0x51
 3257 0a1d 01       		.uleb128 0x1
 3258 0a1e 30       		.byte	0x30
 3259 0a1f 15       		.uleb128 0x15
 3260 0a20 01       		.uleb128 0x1
 3261 0a21 52       		.byte	0x52
 3262 0a22 01       		.uleb128 0x1
 3263 0a23 30       		.byte	0x30
 3264 0a24 15       		.uleb128 0x15
 3265 0a25 01       		.uleb128 0x1
 3266 0a26 53       		.byte	0x53
 3267 0a27 01       		.uleb128 0x1
 3268 0a28 30       		.byte	0x30
 3269 0a29 00       		.byte	0
 3270 0a2a 1E       		.uleb128 0x1e
 3271 0a2b CE000000 		.4byte	.LVL152
 3272 0a2f 64110000 		.4byte	0x1164
 3273 0a33 00       		.byte	0
 3274 0a34 1D       		.uleb128 0x1d
 3275 0a35 42050000 		.4byte	.LASF83
 3276 0a39 01       		.byte	0x1
 3277 0a3a 4C02     		.2byte	0x24c
 3278 0a3c 97000000 		.4byte	0x97
 3279 0a40 00000000 		.4byte	.LFB43
 3280 0a44 80000000 		.4byte	.LFE43-.LFB43
 3281 0a48 01       		.uleb128 0x1
ARM GAS  C:\Users\Phuong\AppData\Local\Temp\ccnrs5hd.s 			page 84


 3282 0a49 9C       		.byte	0x9c
 3283 0a4a 750B0000 		.4byte	0xb75
 3284 0a4e 0D       		.uleb128 0xd
 3285 0a4f A7020000 		.4byte	.LASF73
 3286 0a53 01       		.byte	0x1
 3287 0a54 4C02     		.2byte	0x24c
 3288 0a56 54010000 		.4byte	0x154
 3289 0a5a AF0A0000 		.4byte	.LLST57
 3290 0a5e 0D       		.uleb128 0xd
 3291 0a5f 7F000000 		.4byte	.LASF55
 3292 0a63 01       		.byte	0x1
 3293 0a64 4D02     		.2byte	0x24d
 3294 0a66 63040000 		.4byte	0x463
 3295 0a6a DB0A0000 		.4byte	.LLST58
 3296 0a6e 0D       		.uleb128 0xd
 3297 0a6f 96010000 		.4byte	.LASF56
 3298 0a73 01       		.byte	0x1
 3299 0a74 4E02     		.2byte	0x24e
 3300 0a76 97000000 		.4byte	0x97
 3301 0a7a 070B0000 		.4byte	.LLST59
 3302 0a7e 0D       		.uleb128 0xd
 3303 0a7f A9030000 		.4byte	.LASF84
 3304 0a83 01       		.byte	0x1
 3305 0a84 4F02     		.2byte	0x24f
 3306 0a86 7B0B0000 		.4byte	0xb7b
 3307 0a8a 330B0000 		.4byte	.LLST60
 3308 0a8e 0E       		.uleb128 0xe
 3309 0a8f 82030000 		.4byte	.LASF44
 3310 0a93 01       		.byte	0x1
 3311 0a94 5102     		.2byte	0x251
 3312 0a96 F6020000 		.4byte	0x2f6
 3313 0a9a 5F0B0000 		.4byte	.LLST61
 3314 0a9e 0E       		.uleb128 0xe
 3315 0a9f AA070000 		.4byte	.LASF60
 3316 0aa3 01       		.byte	0x1
 3317 0aa4 5202     		.2byte	0x252
 3318 0aa6 97000000 		.4byte	0x97
 3319 0aaa 8B0B0000 		.4byte	.LLST62
 3320 0aae 0E       		.uleb128 0xe
 3321 0aaf 31060000 		.4byte	.LASF57
 3322 0ab3 01       		.byte	0x1
 3323 0ab4 5202     		.2byte	0x252
 3324 0ab6 97000000 		.4byte	0x97
 3325 0aba B40B0000 		.4byte	.LLST63
 3326 0abe 0E       		.uleb128 0xe
 3327 0abf E6020000 		.4byte	.LASF58
 3328 0ac3 01       		.byte	0x1
 3329 0ac4 5302     		.2byte	0x253
 3330 0ac6 97000000 		.4byte	0x97
 3331 0aca D20B0000 		.4byte	.LLST64
 3332 0ace 12       		.uleb128 0x12
 3333 0acf 50000000 		.4byte	.LBB3
 3334 0ad3 26000000 		.4byte	.LBE3-.LBB3
 3335 0ad7 290B0000 		.4byte	0xb29
 3336 0adb 0E       		.uleb128 0xe
 3337 0adc 7F070000 		.4byte	.LASF85
 3338 0ae0 01       		.byte	0x1
ARM GAS  C:\Users\Phuong\AppData\Local\Temp\ccnrs5hd.s 			page 85


 3339 0ae1 6D02     		.2byte	0x26d
 3340 0ae3 D2000000 		.4byte	0xd2
 3341 0ae7 060C0000 		.4byte	.LLST65
 3342 0aeb 1E       		.uleb128 0x1e
 3343 0aec 54000000 		.4byte	.LVL171
 3344 0af0 70110000 		.4byte	0x1170
 3345 0af4 16       		.uleb128 0x16
 3346 0af5 6C000000 		.4byte	.LVL174
 3347 0af9 7B110000 		.4byte	0x117b
 3348 0afd 180B0000 		.4byte	0xb18
 3349 0b01 15       		.uleb128 0x15
 3350 0b02 01       		.uleb128 0x1
 3351 0b03 51       		.byte	0x51
 3352 0b04 01       		.uleb128 0x1
 3353 0b05 30       		.byte	0x30
 3354 0b06 15       		.uleb128 0x15
 3355 0b07 01       		.uleb128 0x1
 3356 0b08 52       		.byte	0x52
 3357 0b09 01       		.uleb128 0x1
 3358 0b0a 30       		.byte	0x30
 3359 0b0b 15       		.uleb128 0x15
 3360 0b0c 01       		.uleb128 0x1
 3361 0b0d 53       		.byte	0x53
 3362 0b0e 01       		.uleb128 0x1
 3363 0b0f 30       		.byte	0x30
 3364 0b10 15       		.uleb128 0x15
 3365 0b11 02       		.uleb128 0x2
 3366 0b12 7D       		.byte	0x7d
 3367 0b13 00       		.sleb128 0
 3368 0b14 02       		.uleb128 0x2
 3369 0b15 78       		.byte	0x78
 3370 0b16 00       		.sleb128 0
 3371 0b17 00       		.byte	0
 3372 0b18 14       		.uleb128 0x14
 3373 0b19 76000000 		.4byte	.LVL175
 3374 0b1d 87110000 		.4byte	0x1187
 3375 0b21 15       		.uleb128 0x15
 3376 0b22 01       		.uleb128 0x1
 3377 0b23 50       		.byte	0x50
 3378 0b24 02       		.uleb128 0x2
 3379 0b25 76       		.byte	0x76
 3380 0b26 00       		.sleb128 0
 3381 0b27 00       		.byte	0
 3382 0b28 00       		.byte	0
 3383 0b29 16       		.uleb128 0x16
 3384 0b2a 32000000 		.4byte	.LVL164
 3385 0b2e D1070000 		.4byte	0x7d1
 3386 0b32 3D0B0000 		.4byte	0xb3d
 3387 0b36 15       		.uleb128 0x15
 3388 0b37 01       		.uleb128 0x1
 3389 0b38 50       		.byte	0x50
 3390 0b39 02       		.uleb128 0x2
 3391 0b3a 74       		.byte	0x74
 3392 0b3b 00       		.sleb128 0
 3393 0b3c 00       		.byte	0
 3394 0b3d 16       		.uleb128 0x16
 3395 0b3e 40000000 		.4byte	.LVL167
ARM GAS  C:\Users\Phuong\AppData\Local\Temp\ccnrs5hd.s 			page 86


 3396 0b42 AA030000 		.4byte	0x3aa
 3397 0b46 640B0000 		.4byte	0xb64
 3398 0b4a 15       		.uleb128 0x15
 3399 0b4b 01       		.uleb128 0x1
 3400 0b4c 50       		.byte	0x50
 3401 0b4d 02       		.uleb128 0x2
 3402 0b4e 74       		.byte	0x74
 3403 0b4f 00       		.sleb128 0
 3404 0b50 15       		.uleb128 0x15
 3405 0b51 01       		.uleb128 0x1
 3406 0b52 51       		.byte	0x51
 3407 0b53 02       		.uleb128 0x2
 3408 0b54 76       		.byte	0x76
 3409 0b55 00       		.sleb128 0
 3410 0b56 15       		.uleb128 0x15
 3411 0b57 01       		.uleb128 0x1
 3412 0b58 52       		.byte	0x52
 3413 0b59 02       		.uleb128 0x2
 3414 0b5a 75       		.byte	0x75
 3415 0b5b 00       		.sleb128 0
 3416 0b5c 15       		.uleb128 0x15
 3417 0b5d 02       		.uleb128 0x2
 3418 0b5e 7D       		.byte	0x7d
 3419 0b5f 00       		.sleb128 0
 3420 0b60 02       		.uleb128 0x2
 3421 0b61 77       		.byte	0x77
 3422 0b62 00       		.sleb128 0
 3423 0b63 00       		.byte	0
 3424 0b64 14       		.uleb128 0x14
 3425 0b65 4A000000 		.4byte	.LVL170
 3426 0b69 ED010000 		.4byte	0x1ed
 3427 0b6d 15       		.uleb128 0x15
 3428 0b6e 01       		.uleb128 0x1
 3429 0b6f 50       		.byte	0x50
 3430 0b70 02       		.uleb128 0x2
 3431 0b71 74       		.byte	0x74
 3432 0b72 00       		.sleb128 0
 3433 0b73 00       		.byte	0
 3434 0b74 00       		.byte	0
 3435 0b75 06       		.uleb128 0x6
 3436 0b76 04       		.byte	0x4
 3437 0b77 C7000000 		.4byte	0xc7
 3438 0b7b 0F       		.uleb128 0xf
 3439 0b7c 750B0000 		.4byte	0xb75
 3440 0b80 1D       		.uleb128 0x1d
 3441 0b81 6A000000 		.4byte	.LASF86
 3442 0b85 01       		.byte	0x1
 3443 0b86 B302     		.2byte	0x2b3
 3444 0b88 97000000 		.4byte	0x97
 3445 0b8c 00000000 		.4byte	.LFB45
 3446 0b90 BC000000 		.4byte	.LFE45-.LFB45
 3447 0b94 01       		.uleb128 0x1
 3448 0b95 9C       		.byte	0x9c
 3449 0b96 070D0000 		.4byte	0xd07
 3450 0b9a 0D       		.uleb128 0xd
 3451 0b9b A7020000 		.4byte	.LASF73
 3452 0b9f 01       		.byte	0x1
ARM GAS  C:\Users\Phuong\AppData\Local\Temp\ccnrs5hd.s 			page 87


 3453 0ba0 B302     		.2byte	0x2b3
 3454 0ba2 54010000 		.4byte	0x154
 3455 0ba6 240C0000 		.4byte	.LLST66
 3456 0baa 0D       		.uleb128 0xd
 3457 0bab C3030000 		.4byte	.LASF66
 3458 0baf 01       		.byte	0x1
 3459 0bb0 B402     		.2byte	0x2b4
 3460 0bb2 B0000000 		.4byte	0xb0
 3461 0bb6 660C0000 		.4byte	.LLST67
 3462 0bba 0D       		.uleb128 0xd
 3463 0bbb 0D000000 		.4byte	.LASF67
 3464 0bbf 01       		.byte	0x1
 3465 0bc0 B502     		.2byte	0x2b5
 3466 0bc2 97000000 		.4byte	0x97
 3467 0bc6 9C0C0000 		.4byte	.LLST68
 3468 0bca 0D       		.uleb128 0xd
 3469 0bcb CB020000 		.4byte	.LASF81
 3470 0bcf 01       		.byte	0x1
 3471 0bd0 B602     		.2byte	0x2b6
 3472 0bd2 DD000000 		.4byte	0xdd
 3473 0bd6 D20C0000 		.4byte	.LLST69
 3474 0bda 0E       		.uleb128 0xe
 3475 0bdb 82030000 		.4byte	.LASF44
 3476 0bdf 01       		.byte	0x1
 3477 0be0 B802     		.2byte	0x2b8
 3478 0be2 F6020000 		.4byte	0x2f6
 3479 0be6 FE0C0000 		.4byte	.LLST70
 3480 0bea 0E       		.uleb128 0xe
 3481 0beb 29020000 		.4byte	.LASF70
 3482 0bef 01       		.byte	0x1
 3483 0bf0 B902     		.2byte	0x2b9
 3484 0bf2 97000000 		.4byte	0x97
 3485 0bf6 400D0000 		.4byte	.LLST71
 3486 0bfa 0E       		.uleb128 0xe
 3487 0bfb 62010000 		.4byte	.LASF63
 3488 0bff 01       		.byte	0x1
 3489 0c00 B902     		.2byte	0x2b9
 3490 0c02 97000000 		.4byte	0x97
 3491 0c06 8C0D0000 		.4byte	.LLST72
 3492 0c0a 0E       		.uleb128 0xe
 3493 0c0b A6060000 		.4byte	.LASF68
 3494 0c0f 01       		.byte	0x1
 3495 0c10 B902     		.2byte	0x2b9
 3496 0c12 97000000 		.4byte	0x97
 3497 0c16 C00D0000 		.4byte	.LLST73
 3498 0c1a 1E       		.uleb128 0x1e
 3499 0c1b 30000000 		.4byte	.LVL184
 3500 0c1f 06110000 		.4byte	0x1106
 3501 0c23 16       		.uleb128 0x16
 3502 0c24 36000000 		.4byte	.LVL185
 3503 0c28 ED010000 		.4byte	0x1ed
 3504 0c2c 370C0000 		.4byte	0xc37
 3505 0c30 15       		.uleb128 0x15
 3506 0c31 01       		.uleb128 0x1
 3507 0c32 50       		.byte	0x50
 3508 0c33 02       		.uleb128 0x2
 3509 0c34 74       		.byte	0x74
ARM GAS  C:\Users\Phuong\AppData\Local\Temp\ccnrs5hd.s 			page 88


 3510 0c35 00       		.sleb128 0
 3511 0c36 00       		.byte	0
 3512 0c37 16       		.uleb128 0x16
 3513 0c38 42000000 		.4byte	.LVL188
 3514 0c3c 11110000 		.4byte	0x1111
 3515 0c40 4A0C0000 		.4byte	0xc4a
 3516 0c44 15       		.uleb128 0x15
 3517 0c45 01       		.uleb128 0x1
 3518 0c46 50       		.byte	0x50
 3519 0c47 01       		.uleb128 0x1
 3520 0c48 30       		.byte	0x30
 3521 0c49 00       		.byte	0
 3522 0c4a 1E       		.uleb128 0x1e
 3523 0c4b 50000000 		.4byte	.LVL189
 3524 0c4f 1D110000 		.4byte	0x111d
 3525 0c53 1E       		.uleb128 0x1e
 3526 0c54 56000000 		.4byte	.LVL190
 3527 0c58 29110000 		.4byte	0x1129
 3528 0c5c 16       		.uleb128 0x16
 3529 0c5d 68000000 		.4byte	.LVL191
 3530 0c61 34110000 		.4byte	0x1134
 3531 0c65 800C0000 		.4byte	0xc80
 3532 0c69 15       		.uleb128 0x15
 3533 0c6a 01       		.uleb128 0x1
 3534 0c6b 50       		.byte	0x50
 3535 0c6c 01       		.uleb128 0x1
 3536 0c6d 30       		.byte	0x30
 3537 0c6e 15       		.uleb128 0x15
 3538 0c6f 01       		.uleb128 0x1
 3539 0c70 51       		.byte	0x51
 3540 0c71 02       		.uleb128 0x2
 3541 0c72 09       		.byte	0x9
 3542 0c73 FF       		.byte	0xff
 3543 0c74 15       		.uleb128 0x15
 3544 0c75 01       		.uleb128 0x1
 3545 0c76 52       		.byte	0x52
 3546 0c77 01       		.uleb128 0x1
 3547 0c78 30       		.byte	0x30
 3548 0c79 15       		.uleb128 0x15
 3549 0c7a 01       		.uleb128 0x1
 3550 0c7b 53       		.byte	0x53
 3551 0c7c 02       		.uleb128 0x2
 3552 0c7d 76       		.byte	0x76
 3553 0c7e 00       		.sleb128 0
 3554 0c7f 00       		.byte	0
 3555 0c80 16       		.uleb128 0x16
 3556 0c81 72000000 		.4byte	.LVL192
 3557 0c85 ED010000 		.4byte	0x1ed
 3558 0c89 940C0000 		.4byte	0xc94
 3559 0c8d 15       		.uleb128 0x15
 3560 0c8e 01       		.uleb128 0x1
 3561 0c8f 50       		.byte	0x50
 3562 0c90 02       		.uleb128 0x2
 3563 0c91 74       		.byte	0x74
 3564 0c92 00       		.sleb128 0
 3565 0c93 00       		.byte	0
 3566 0c94 16       		.uleb128 0x16
ARM GAS  C:\Users\Phuong\AppData\Local\Temp\ccnrs5hd.s 			page 89


 3567 0c95 7C000000 		.4byte	.LVL196
 3568 0c99 ED010000 		.4byte	0x1ed
 3569 0c9d A80C0000 		.4byte	0xca8
 3570 0ca1 15       		.uleb128 0x15
 3571 0ca2 01       		.uleb128 0x1
 3572 0ca3 50       		.byte	0x50
 3573 0ca4 02       		.uleb128 0x2
 3574 0ca5 74       		.byte	0x74
 3575 0ca6 00       		.sleb128 0
 3576 0ca7 00       		.byte	0
 3577 0ca8 16       		.uleb128 0x16
 3578 0ca9 90000000 		.4byte	.LVL198
 3579 0cad 2D050000 		.4byte	0x52d
 3580 0cb1 D70C0000 		.4byte	0xcd7
 3581 0cb5 15       		.uleb128 0x15
 3582 0cb6 01       		.uleb128 0x1
 3583 0cb7 50       		.byte	0x50
 3584 0cb8 02       		.uleb128 0x2
 3585 0cb9 74       		.byte	0x74
 3586 0cba 00       		.sleb128 0
 3587 0cbb 15       		.uleb128 0x15
 3588 0cbc 01       		.uleb128 0x1
 3589 0cbd 51       		.byte	0x51
 3590 0cbe 03       		.uleb128 0x3
 3591 0cbf 91       		.byte	0x91
 3592 0cc0 60       		.sleb128 -32
 3593 0cc1 06       		.byte	0x6
 3594 0cc2 15       		.uleb128 0x15
 3595 0cc3 01       		.uleb128 0x1
 3596 0cc4 52       		.byte	0x52
 3597 0cc5 03       		.uleb128 0x3
 3598 0cc6 91       		.byte	0x91
 3599 0cc7 64       		.sleb128 -28
 3600 0cc8 06       		.byte	0x6
 3601 0cc9 15       		.uleb128 0x15
 3602 0cca 01       		.uleb128 0x1
 3603 0ccb 53       		.byte	0x53
 3604 0ccc 02       		.uleb128 0x2
 3605 0ccd 77       		.byte	0x77
 3606 0cce 00       		.sleb128 0
 3607 0ccf 15       		.uleb128 0x15
 3608 0cd0 02       		.uleb128 0x2
 3609 0cd1 7D       		.byte	0x7d
 3610 0cd2 00       		.sleb128 0
 3611 0cd3 02       		.uleb128 0x2
 3612 0cd4 75       		.byte	0x75
 3613 0cd5 00       		.sleb128 0
 3614 0cd6 00       		.byte	0
 3615 0cd7 1E       		.uleb128 0x1e
 3616 0cd8 98000000 		.4byte	.LVL200
 3617 0cdc 4C110000 		.4byte	0x114c
 3618 0ce0 16       		.uleb128 0x16
 3619 0ce1 AA000000 		.4byte	.LVL201
 3620 0ce5 58110000 		.4byte	0x1158
 3621 0ce9 FD0C0000 		.4byte	0xcfd
 3622 0ced 15       		.uleb128 0x15
 3623 0cee 01       		.uleb128 0x1
ARM GAS  C:\Users\Phuong\AppData\Local\Temp\ccnrs5hd.s 			page 90


 3624 0cef 51       		.byte	0x51
 3625 0cf0 01       		.uleb128 0x1
 3626 0cf1 30       		.byte	0x30
 3627 0cf2 15       		.uleb128 0x15
 3628 0cf3 01       		.uleb128 0x1
 3629 0cf4 52       		.byte	0x52
 3630 0cf5 01       		.uleb128 0x1
 3631 0cf6 30       		.byte	0x30
 3632 0cf7 15       		.uleb128 0x15
 3633 0cf8 01       		.uleb128 0x1
 3634 0cf9 53       		.byte	0x53
 3635 0cfa 01       		.uleb128 0x1
 3636 0cfb 30       		.byte	0x30
 3637 0cfc 00       		.byte	0
 3638 0cfd 1E       		.uleb128 0x1e
 3639 0cfe B2000000 		.4byte	.LVL202
 3640 0d02 64110000 		.4byte	0x1164
 3641 0d06 00       		.byte	0
 3642 0d07 1D       		.uleb128 0x1d
 3643 0d08 F5020000 		.4byte	.LASF87
 3644 0d0c 01       		.byte	0x1
 3645 0d0d 1B03     		.2byte	0x31b
 3646 0d0f 97000000 		.4byte	0x97
 3647 0d13 00000000 		.4byte	.LFB46
 3648 0d17 72000000 		.4byte	.LFE46-.LFB46
 3649 0d1b 01       		.uleb128 0x1
 3650 0d1c 9C       		.byte	0x9c
 3651 0d1d 350E0000 		.4byte	0xe35
 3652 0d21 0D       		.uleb128 0xd
 3653 0d22 A7020000 		.4byte	.LASF73
 3654 0d26 01       		.byte	0x1
 3655 0d27 1B03     		.2byte	0x31b
 3656 0d29 54010000 		.4byte	0x154
 3657 0d2d DE0D0000 		.4byte	.LLST74
 3658 0d31 0D       		.uleb128 0xd
 3659 0d32 C3030000 		.4byte	.LASF66
 3660 0d36 01       		.byte	0x1
 3661 0d37 1C03     		.2byte	0x31c
 3662 0d39 B0000000 		.4byte	0xb0
 3663 0d3d 0A0E0000 		.4byte	.LLST75
 3664 0d41 0D       		.uleb128 0xd
 3665 0d42 0D000000 		.4byte	.LASF67
 3666 0d46 01       		.byte	0x1
 3667 0d47 1D03     		.2byte	0x31d
 3668 0d49 97000000 		.4byte	0x97
 3669 0d4d 4F0E0000 		.4byte	.LLST76
 3670 0d51 0D       		.uleb128 0xd
 3671 0d52 A9030000 		.4byte	.LASF84
 3672 0d56 01       		.byte	0x1
 3673 0d57 1E03     		.2byte	0x31e
 3674 0d59 7B0B0000 		.4byte	0xb7b
 3675 0d5d 6E0E0000 		.4byte	.LLST77
 3676 0d61 0E       		.uleb128 0xe
 3677 0d62 82030000 		.4byte	.LASF44
 3678 0d66 01       		.byte	0x1
 3679 0d67 2003     		.2byte	0x320
 3680 0d69 F6020000 		.4byte	0x2f6
ARM GAS  C:\Users\Phuong\AppData\Local\Temp\ccnrs5hd.s 			page 91


 3681 0d6d 9A0E0000 		.4byte	.LLST78
 3682 0d71 0E       		.uleb128 0xe
 3683 0d72 29020000 		.4byte	.LASF70
 3684 0d76 01       		.byte	0x1
 3685 0d77 2103     		.2byte	0x321
 3686 0d79 97000000 		.4byte	0x97
 3687 0d7d C60E0000 		.4byte	.LLST79
 3688 0d81 0E       		.uleb128 0xe
 3689 0d82 62010000 		.4byte	.LASF63
 3690 0d86 01       		.byte	0x1
 3691 0d87 2103     		.2byte	0x321
 3692 0d89 97000000 		.4byte	0x97
 3693 0d8d 120F0000 		.4byte	.LLST80
 3694 0d91 0E       		.uleb128 0xe
 3695 0d92 A6060000 		.4byte	.LASF68
 3696 0d96 01       		.byte	0x1
 3697 0d97 2103     		.2byte	0x321
 3698 0d99 97000000 		.4byte	0x97
 3699 0d9d 3B0F0000 		.4byte	.LLST81
 3700 0da1 12       		.uleb128 0x12
 3701 0da2 44000000 		.4byte	.LBB4
 3702 0da6 24000000 		.4byte	.LBE4-.LBB4
 3703 0daa FC0D0000 		.4byte	0xdfc
 3704 0dae 0E       		.uleb128 0xe
 3705 0daf 7F070000 		.4byte	.LASF85
 3706 0db3 01       		.byte	0x1
 3707 0db4 4203     		.2byte	0x342
 3708 0db6 D2000000 		.4byte	0xd2
 3709 0dba 590F0000 		.4byte	.LLST82
 3710 0dbe 1E       		.uleb128 0x1e
 3711 0dbf 48000000 		.4byte	.LVL219
 3712 0dc3 70110000 		.4byte	0x1170
 3713 0dc7 16       		.uleb128 0x16
 3714 0dc8 5E000000 		.4byte	.LVL222
 3715 0dcc 7B110000 		.4byte	0x117b
 3716 0dd0 EB0D0000 		.4byte	0xdeb
 3717 0dd4 15       		.uleb128 0x15
 3718 0dd5 01       		.uleb128 0x1
 3719 0dd6 51       		.byte	0x51
 3720 0dd7 01       		.uleb128 0x1
 3721 0dd8 30       		.byte	0x30
 3722 0dd9 15       		.uleb128 0x15
 3723 0dda 01       		.uleb128 0x1
 3724 0ddb 52       		.byte	0x52
 3725 0ddc 01       		.uleb128 0x1
 3726 0ddd 30       		.byte	0x30
 3727 0dde 15       		.uleb128 0x15
 3728 0ddf 01       		.uleb128 0x1
 3729 0de0 53       		.byte	0x53
 3730 0de1 01       		.uleb128 0x1
 3731 0de2 30       		.byte	0x30
 3732 0de3 15       		.uleb128 0x15
 3733 0de4 02       		.uleb128 0x2
 3734 0de5 7D       		.byte	0x7d
 3735 0de6 00       		.sleb128 0
 3736 0de7 02       		.uleb128 0x2
 3737 0de8 77       		.byte	0x77
ARM GAS  C:\Users\Phuong\AppData\Local\Temp\ccnrs5hd.s 			page 92


 3738 0de9 00       		.sleb128 0
 3739 0dea 00       		.byte	0
 3740 0deb 14       		.uleb128 0x14
 3741 0dec 68000000 		.4byte	.LVL223
 3742 0df0 87110000 		.4byte	0x1187
 3743 0df4 15       		.uleb128 0x15
 3744 0df5 01       		.uleb128 0x1
 3745 0df6 50       		.byte	0x50
 3746 0df7 02       		.uleb128 0x2
 3747 0df8 76       		.byte	0x76
 3748 0df9 00       		.sleb128 0
 3749 0dfa 00       		.byte	0
 3750 0dfb 00       		.byte	0
 3751 0dfc 16       		.uleb128 0x16
 3752 0dfd 2E000000 		.4byte	.LVL214
 3753 0e01 ED010000 		.4byte	0x1ed
 3754 0e05 100E0000 		.4byte	0xe10
 3755 0e09 15       		.uleb128 0x15
 3756 0e0a 01       		.uleb128 0x1
 3757 0e0b 50       		.byte	0x50
 3758 0e0c 02       		.uleb128 0x2
 3759 0e0d 74       		.byte	0x74
 3760 0e0e 00       		.sleb128 0
 3761 0e0f 00       		.byte	0
 3762 0e10 14       		.uleb128 0x14
 3763 0e11 40000000 		.4byte	.LVL217
 3764 0e15 2D050000 		.4byte	0x52d
 3765 0e19 15       		.uleb128 0x15
 3766 0e1a 01       		.uleb128 0x1
 3767 0e1b 50       		.byte	0x50
 3768 0e1c 02       		.uleb128 0x2
 3769 0e1d 74       		.byte	0x74
 3770 0e1e 00       		.sleb128 0
 3771 0e1f 15       		.uleb128 0x15
 3772 0e20 01       		.uleb128 0x1
 3773 0e21 51       		.byte	0x51
 3774 0e22 02       		.uleb128 0x2
 3775 0e23 76       		.byte	0x76
 3776 0e24 00       		.sleb128 0
 3777 0e25 15       		.uleb128 0x15
 3778 0e26 01       		.uleb128 0x1
 3779 0e27 52       		.byte	0x52
 3780 0e28 03       		.uleb128 0x3
 3781 0e29 91       		.byte	0x91
 3782 0e2a 64       		.sleb128 -28
 3783 0e2b 06       		.byte	0x6
 3784 0e2c 15       		.uleb128 0x15
 3785 0e2d 02       		.uleb128 0x2
 3786 0e2e 7D       		.byte	0x7d
 3787 0e2f 00       		.sleb128 0
 3788 0e30 02       		.uleb128 0x2
 3789 0e31 75       		.byte	0x75
 3790 0e32 00       		.sleb128 0
 3791 0e33 00       		.byte	0
 3792 0e34 00       		.byte	0
 3793 0e35 1D       		.uleb128 0x1d
 3794 0e36 3B030000 		.4byte	.LASF88
ARM GAS  C:\Users\Phuong\AppData\Local\Temp\ccnrs5hd.s 			page 93


 3795 0e3a 01       		.byte	0x1
 3796 0e3b 8603     		.2byte	0x386
 3797 0e3d C7000000 		.4byte	0xc7
 3798 0e41 00000000 		.4byte	.LFB48
 3799 0e45 18000000 		.4byte	.LFE48-.LFB48
 3800 0e49 01       		.uleb128 0x1
 3801 0e4a 9C       		.byte	0x9c
 3802 0e4b 8C0E0000 		.4byte	0xe8c
 3803 0e4f 0D       		.uleb128 0xd
 3804 0e50 A7020000 		.4byte	.LASF73
 3805 0e54 01       		.byte	0x1
 3806 0e55 8603     		.2byte	0x386
 3807 0e57 54010000 		.4byte	0x154
 3808 0e5b 770F0000 		.4byte	.LLST83
 3809 0e5f 0E       		.uleb128 0xe
 3810 0e60 82030000 		.4byte	.LASF44
 3811 0e64 01       		.byte	0x1
 3812 0e65 8803     		.2byte	0x388
 3813 0e67 33020000 		.4byte	0x233
 3814 0e6b B10F0000 		.4byte	.LLST84
 3815 0e6f 18       		.uleb128 0x18
 3816 0e70 AA070000 		.4byte	.LASF60
 3817 0e74 01       		.byte	0x1
 3818 0e75 8903     		.2byte	0x389
 3819 0e77 C7000000 		.4byte	0xc7
 3820 0e7b 01       		.uleb128 0x1
 3821 0e7c 50       		.byte	0x50
 3822 0e7d 18       		.uleb128 0x18
 3823 0e7e D7050000 		.4byte	.LASF34
 3824 0e82 01       		.byte	0x1
 3825 0e83 8A03     		.2byte	0x38a
 3826 0e85 97000000 		.4byte	0x97
 3827 0e89 01       		.uleb128 0x1
 3828 0e8a 52       		.byte	0x52
 3829 0e8b 00       		.byte	0
 3830 0e8c 1D       		.uleb128 0x1d
 3831 0e8d 96070000 		.4byte	.LASF89
 3832 0e91 01       		.byte	0x1
 3833 0e92 9D03     		.2byte	0x39d
 3834 0e94 C7000000 		.4byte	0xc7
 3835 0e98 00000000 		.4byte	.LFB49
 3836 0e9c 26000000 		.4byte	.LFE49-.LFB49
 3837 0ea0 01       		.uleb128 0x1
 3838 0ea1 9C       		.byte	0x9c
 3839 0ea2 EE0E0000 		.4byte	0xeee
 3840 0ea6 0D       		.uleb128 0xd
 3841 0ea7 A7020000 		.4byte	.LASF73
 3842 0eab 01       		.byte	0x1
 3843 0eac 9D03     		.2byte	0x39d
 3844 0eae 54010000 		.4byte	0x154
 3845 0eb2 EB0F0000 		.4byte	.LLST85
 3846 0eb6 18       		.uleb128 0x18
 3847 0eb7 AA070000 		.4byte	.LASF60
 3848 0ebb 01       		.byte	0x1
 3849 0ebc 9F03     		.2byte	0x39f
 3850 0ebe C7000000 		.4byte	0xc7
 3851 0ec2 01       		.uleb128 0x1
ARM GAS  C:\Users\Phuong\AppData\Local\Temp\ccnrs5hd.s 			page 94


 3852 0ec3 50       		.byte	0x50
 3853 0ec4 0E       		.uleb128 0xe
 3854 0ec5 A6060000 		.4byte	.LASF68
 3855 0ec9 01       		.byte	0x1
 3856 0eca A003     		.2byte	0x3a0
 3857 0ecc 97000000 		.4byte	0x97
 3858 0ed0 0C100000 		.4byte	.LLST86
 3859 0ed4 0E       		.uleb128 0xe
 3860 0ed5 82030000 		.4byte	.LASF44
 3861 0ed9 01       		.byte	0x1
 3862 0eda A103     		.2byte	0x3a1
 3863 0edc 33020000 		.4byte	0x233
 3864 0ee0 1F100000 		.4byte	.LLST87
 3865 0ee4 1E       		.uleb128 0x1e
 3866 0ee5 1A000000 		.4byte	.LVL237
 3867 0ee9 D1070000 		.4byte	0x7d1
 3868 0eed 00       		.byte	0
 3869 0eee 1D       		.uleb128 0x1d
 3870 0eef B2070000 		.4byte	.LASF90
 3871 0ef3 01       		.byte	0x1
 3872 0ef4 C003     		.2byte	0x3c0
 3873 0ef6 C7000000 		.4byte	0xc7
 3874 0efa 00000000 		.4byte	.LFB50
 3875 0efe 40000000 		.4byte	.LFE50-.LFB50
 3876 0f02 01       		.uleb128 0x1
 3877 0f03 9C       		.byte	0x9c
 3878 0f04 960F0000 		.4byte	0xf96
 3879 0f08 0D       		.uleb128 0xd
 3880 0f09 A7020000 		.4byte	.LASF73
 3881 0f0d 01       		.byte	0x1
 3882 0f0e C003     		.2byte	0x3c0
 3883 0f10 54010000 		.4byte	0x154
 3884 0f14 40100000 		.4byte	.LLST88
 3885 0f18 0D       		.uleb128 0xd
 3886 0f19 A9030000 		.4byte	.LASF84
 3887 0f1d 01       		.byte	0x1
 3888 0f1e C003     		.2byte	0x3c0
 3889 0f20 750B0000 		.4byte	0xb75
 3890 0f24 85100000 		.4byte	.LLST89
 3891 0f28 0E       		.uleb128 0xe
 3892 0f29 82030000 		.4byte	.LASF44
 3893 0f2d 01       		.byte	0x1
 3894 0f2e C203     		.2byte	0x3c2
 3895 0f30 F6020000 		.4byte	0x2f6
 3896 0f34 B1100000 		.4byte	.LLST90
 3897 0f38 0E       		.uleb128 0xe
 3898 0f39 AA070000 		.4byte	.LASF60
 3899 0f3d 01       		.byte	0x1
 3900 0f3e C303     		.2byte	0x3c3
 3901 0f40 C7000000 		.4byte	0xc7
 3902 0f44 F6100000 		.4byte	.LLST91
 3903 0f48 0E       		.uleb128 0xe
 3904 0f49 7F070000 		.4byte	.LASF85
 3905 0f4d 01       		.byte	0x1
 3906 0f4e C403     		.2byte	0x3c4
 3907 0f50 D2000000 		.4byte	0xd2
 3908 0f54 20110000 		.4byte	.LLST92
ARM GAS  C:\Users\Phuong\AppData\Local\Temp\ccnrs5hd.s 			page 95


 3909 0f58 1E       		.uleb128 0x1e
 3910 0f59 14000000 		.4byte	.LVL242
 3911 0f5d 70110000 		.4byte	0x1170
 3912 0f61 16       		.uleb128 0x16
 3913 0f62 2A000000 		.4byte	.LVL245
 3914 0f66 7B110000 		.4byte	0x117b
 3915 0f6a 850F0000 		.4byte	0xf85
 3916 0f6e 15       		.uleb128 0x15
 3917 0f6f 01       		.uleb128 0x1
 3918 0f70 51       		.byte	0x51
 3919 0f71 01       		.uleb128 0x1
 3920 0f72 30       		.byte	0x30
 3921 0f73 15       		.uleb128 0x15
 3922 0f74 01       		.uleb128 0x1
 3923 0f75 52       		.byte	0x52
 3924 0f76 01       		.uleb128 0x1
 3925 0f77 30       		.byte	0x30
 3926 0f78 15       		.uleb128 0x15
 3927 0f79 01       		.uleb128 0x1
 3928 0f7a 53       		.byte	0x53
 3929 0f7b 01       		.uleb128 0x1
 3930 0f7c 30       		.byte	0x30
 3931 0f7d 15       		.uleb128 0x15
 3932 0f7e 02       		.uleb128 0x2
 3933 0f7f 7D       		.byte	0x7d
 3934 0f80 00       		.sleb128 0
 3935 0f81 02       		.uleb128 0x2
 3936 0f82 76       		.byte	0x76
 3937 0f83 00       		.sleb128 0
 3938 0f84 00       		.byte	0
 3939 0f85 14       		.uleb128 0x14
 3940 0f86 3A000000 		.4byte	.LVL250
 3941 0f8a 87110000 		.4byte	0x1187
 3942 0f8e 15       		.uleb128 0x15
 3943 0f8f 01       		.uleb128 0x1
 3944 0f90 50       		.byte	0x50
 3945 0f91 02       		.uleb128 0x2
 3946 0f92 75       		.byte	0x75
 3947 0f93 00       		.sleb128 0
 3948 0f94 00       		.byte	0
 3949 0f95 00       		.byte	0
 3950 0f96 1D       		.uleb128 0x1d
 3951 0f97 39020000 		.4byte	.LASF91
 3952 0f9b 01       		.byte	0x1
 3953 0f9c DE03     		.2byte	0x3de
 3954 0f9e C7000000 		.4byte	0xc7
 3955 0fa2 00000000 		.4byte	.LFB51
 3956 0fa6 40000000 		.4byte	.LFE51-.LFB51
 3957 0faa 01       		.uleb128 0x1
 3958 0fab 9C       		.byte	0x9c
 3959 0fac 3E100000 		.4byte	0x103e
 3960 0fb0 0D       		.uleb128 0xd
 3961 0fb1 A7020000 		.4byte	.LASF73
 3962 0fb5 01       		.byte	0x1
 3963 0fb6 DE03     		.2byte	0x3de
 3964 0fb8 54010000 		.4byte	0x154
 3965 0fbc 54110000 		.4byte	.LLST93
ARM GAS  C:\Users\Phuong\AppData\Local\Temp\ccnrs5hd.s 			page 96


 3966 0fc0 0D       		.uleb128 0xd
 3967 0fc1 A9030000 		.4byte	.LASF84
 3968 0fc5 01       		.byte	0x1
 3969 0fc6 DE03     		.2byte	0x3de
 3970 0fc8 750B0000 		.4byte	0xb75
 3971 0fcc 99110000 		.4byte	.LLST94
 3972 0fd0 0E       		.uleb128 0xe
 3973 0fd1 82030000 		.4byte	.LASF44
 3974 0fd5 01       		.byte	0x1
 3975 0fd6 E003     		.2byte	0x3e0
 3976 0fd8 F6020000 		.4byte	0x2f6
 3977 0fdc C5110000 		.4byte	.LLST95
 3978 0fe0 0E       		.uleb128 0xe
 3979 0fe1 AA070000 		.4byte	.LASF60
 3980 0fe5 01       		.byte	0x1
 3981 0fe6 E103     		.2byte	0x3e1
 3982 0fe8 C7000000 		.4byte	0xc7
 3983 0fec 0A120000 		.4byte	.LLST96
 3984 0ff0 0E       		.uleb128 0xe
 3985 0ff1 7F070000 		.4byte	.LASF85
 3986 0ff5 01       		.byte	0x1
 3987 0ff6 E203     		.2byte	0x3e2
 3988 0ff8 D2000000 		.4byte	0xd2
 3989 0ffc 34120000 		.4byte	.LLST97
 3990 1000 1E       		.uleb128 0x1e
 3991 1001 14000000 		.4byte	.LVL256
 3992 1005 70110000 		.4byte	0x1170
 3993 1009 16       		.uleb128 0x16
 3994 100a 2A000000 		.4byte	.LVL259
 3995 100e 7B110000 		.4byte	0x117b
 3996 1012 2D100000 		.4byte	0x102d
 3997 1016 15       		.uleb128 0x15
 3998 1017 01       		.uleb128 0x1
 3999 1018 51       		.byte	0x51
 4000 1019 01       		.uleb128 0x1
 4001 101a 30       		.byte	0x30
 4002 101b 15       		.uleb128 0x15
 4003 101c 01       		.uleb128 0x1
 4004 101d 52       		.byte	0x52
 4005 101e 01       		.uleb128 0x1
 4006 101f 30       		.byte	0x30
 4007 1020 15       		.uleb128 0x15
 4008 1021 01       		.uleb128 0x1
 4009 1022 53       		.byte	0x53
 4010 1023 01       		.uleb128 0x1
 4011 1024 30       		.byte	0x30
 4012 1025 15       		.uleb128 0x15
 4013 1026 02       		.uleb128 0x2
 4014 1027 7D       		.byte	0x7d
 4015 1028 00       		.sleb128 0
 4016 1029 02       		.uleb128 0x2
 4017 102a 76       		.byte	0x76
 4018 102b 00       		.sleb128 0
 4019 102c 00       		.byte	0
 4020 102d 14       		.uleb128 0x14
 4021 102e 3A000000 		.4byte	.LVL264
 4022 1032 87110000 		.4byte	0x1187
ARM GAS  C:\Users\Phuong\AppData\Local\Temp\ccnrs5hd.s 			page 97


 4023 1036 15       		.uleb128 0x15
 4024 1037 01       		.uleb128 0x1
 4025 1038 50       		.byte	0x50
 4026 1039 02       		.uleb128 0x2
 4027 103a 75       		.byte	0x75
 4028 103b 00       		.sleb128 0
 4029 103c 00       		.byte	0
 4030 103d 00       		.byte	0
 4031 103e 1D       		.uleb128 0x1d
 4032 103f E4070000 		.4byte	.LASF92
 4033 1043 01       		.byte	0x1
 4034 1044 9504     		.2byte	0x495
 4035 1046 D2000000 		.4byte	0xd2
 4036 104a 00000000 		.4byte	.LFB56
 4037 104e 04000000 		.4byte	.LFE56-.LFB56
 4038 1052 01       		.uleb128 0x1
 4039 1053 9C       		.byte	0x9c
 4040 1054 69100000 		.4byte	0x1069
 4041 1058 0D       		.uleb128 0xd
 4042 1059 A7020000 		.4byte	.LASF73
 4043 105d 01       		.byte	0x1
 4044 105e 9504     		.2byte	0x495
 4045 1060 54010000 		.4byte	0x154
 4046 1064 68120000 		.4byte	.LLST98
 4047 1068 00       		.byte	0
 4048 1069 1C       		.uleb128 0x1c
 4049 106a DE060000 		.4byte	.LASF94
 4050 106e 01       		.byte	0x1
 4051 106f 9F04     		.2byte	0x49f
 4052 1071 00000000 		.4byte	.LFB57
 4053 1075 04000000 		.4byte	.LFE57-.LFB57
 4054 1079 01       		.uleb128 0x1
 4055 107a 9C       		.byte	0x9c
 4056 107b 9C100000 		.4byte	0x109c
 4057 107f 11       		.uleb128 0x11
 4058 1080 A7020000 		.4byte	.LASF73
 4059 1084 01       		.byte	0x1
 4060 1085 9F04     		.2byte	0x49f
 4061 1087 54010000 		.4byte	0x154
 4062 108b 01       		.uleb128 0x1
 4063 108c 50       		.byte	0x50
 4064 108d 11       		.uleb128 0x11
 4065 108e 10060000 		.4byte	.LASF42
 4066 1092 01       		.byte	0x1
 4067 1093 9F04     		.2byte	0x49f
 4068 1095 D2000000 		.4byte	0xd2
 4069 1099 01       		.uleb128 0x1
 4070 109a 51       		.byte	0x51
 4071 109b 00       		.byte	0
 4072 109c 1D       		.uleb128 0x1d
 4073 109d DD050000 		.4byte	.LASF95
 4074 10a1 01       		.byte	0x1
 4075 10a2 A904     		.2byte	0x4a9
 4076 10a4 81000000 		.4byte	0x81
 4077 10a8 00000000 		.4byte	.LFB58
 4078 10ac 0A000000 		.4byte	.LFE58-.LFB58
 4079 10b0 01       		.uleb128 0x1
ARM GAS  C:\Users\Phuong\AppData\Local\Temp\ccnrs5hd.s 			page 98


 4080 10b1 9C       		.byte	0x9c
 4081 10b2 C7100000 		.4byte	0x10c7
 4082 10b6 0D       		.uleb128 0xd
 4083 10b7 A7020000 		.4byte	.LASF73
 4084 10bb 01       		.byte	0x1
 4085 10bc A904     		.2byte	0x4a9
 4086 10be 54010000 		.4byte	0x154
 4087 10c2 89120000 		.4byte	.LLST99
 4088 10c6 00       		.byte	0
 4089 10c7 1F       		.uleb128 0x1f
 4090 10c8 11030000 		.4byte	.LASF96
 4091 10cc 11030000 		.4byte	.LASF96
 4092 10d0 08       		.byte	0x8
 4093 10d1 19       		.byte	0x19
 4094 10d2 20       		.uleb128 0x20
 4095 10d3 11030000 		.4byte	.LASF96
 4096 10d7 11030000 		.4byte	.LASF96
 4097 10db 20       		.uleb128 0x20
 4098 10dc 8F010000 		.4byte	.LASF97
 4099 10e0 8F010000 		.4byte	.LASF97
 4100 10e4 1F       		.uleb128 0x1f
 4101 10e5 6B080000 		.4byte	.LASF98
 4102 10e9 6B080000 		.4byte	.LASF98
 4103 10ed 09       		.byte	0x9
 4104 10ee 81       		.byte	0x81
 4105 10ef 1F       		.uleb128 0x1f
 4106 10f0 CD050000 		.4byte	.LASF99
 4107 10f4 CD050000 		.4byte	.LASF99
 4108 10f8 09       		.byte	0x9
 4109 10f9 82       		.byte	0x82
 4110 10fa 21       		.uleb128 0x21
 4111 10fb FB010000 		.4byte	.LASF100
 4112 10ff FB010000 		.4byte	.LASF100
 4113 1103 06       		.byte	0x6
 4114 1104 C008     		.2byte	0x8c0
 4115 1106 1F       		.uleb128 0x1f
 4116 1107 BA050000 		.4byte	.LASF101
 4117 110b BA050000 		.4byte	.LASF101
 4118 110f 05       		.byte	0x5
 4119 1110 5A       		.byte	0x5a
 4120 1111 21       		.uleb128 0x21
 4121 1112 26070000 		.4byte	.LASF102
 4122 1116 26070000 		.4byte	.LASF102
 4123 111a 06       		.byte	0x6
 4124 111b 4708     		.2byte	0x847
 4125 111d 21       		.uleb128 0x21
 4126 111e 70060000 		.4byte	.LASF103
 4127 1122 70060000 		.4byte	.LASF103
 4128 1126 06       		.byte	0x6
 4129 1127 BB08     		.2byte	0x8bb
 4130 1129 1F       		.uleb128 0x1f
 4131 112a 38060000 		.4byte	.LASF104
 4132 112e 38060000 		.4byte	.LASF104
 4133 1132 05       		.byte	0x5
 4134 1133 5B       		.byte	0x5b
 4135 1134 21       		.uleb128 0x21
 4136 1135 BB020000 		.4byte	.LASF105
ARM GAS  C:\Users\Phuong\AppData\Local\Temp\ccnrs5hd.s 			page 99


 4137 1139 BB020000 		.4byte	.LASF105
 4138 113d 06       		.byte	0x6
 4139 113e 8D07     		.2byte	0x78d
 4140 1140 21       		.uleb128 0x21
 4141 1141 5A030000 		.4byte	.LASF106
 4142 1145 5A030000 		.4byte	.LASF106
 4143 1149 06       		.byte	0x6
 4144 114a C608     		.2byte	0x8c6
 4145 114c 21       		.uleb128 0x21
 4146 114d A6080000 		.4byte	.LASF107
 4147 1151 A6080000 		.4byte	.LASF107
 4148 1155 06       		.byte	0x6
 4149 1156 F904     		.2byte	0x4f9
 4150 1158 21       		.uleb128 0x21
 4151 1159 4A060000 		.4byte	.LASF108
 4152 115d 4A060000 		.4byte	.LASF108
 4153 1161 06       		.byte	0x6
 4154 1162 E506     		.2byte	0x6e5
 4155 1164 21       		.uleb128 0x21
 4156 1165 98050000 		.4byte	.LASF109
 4157 1169 98050000 		.4byte	.LASF109
 4158 116d 06       		.byte	0x6
 4159 116e 2F05     		.2byte	0x52f
 4160 1170 1F       		.uleb128 0x1f
 4161 1171 0C070000 		.4byte	.LASF110
 4162 1175 0C070000 		.4byte	.LASF110
 4163 1179 05       		.byte	0x5
 4164 117a 5C       		.byte	0x5c
 4165 117b 21       		.uleb128 0x21
 4166 117c B1010000 		.4byte	.LASF111
 4167 1180 B1010000 		.4byte	.LASF111
 4168 1184 06       		.byte	0x6
 4169 1185 4007     		.2byte	0x740
 4170 1187 1F       		.uleb128 0x1f
 4171 1188 4F070000 		.4byte	.LASF112
 4172 118c 4F070000 		.4byte	.LASF112
 4173 1190 05       		.byte	0x5
 4174 1191 5D       		.byte	0x5d
 4175 1192 00       		.byte	0
 4176              		.section	.debug_abbrev,"",%progbits
 4177              	.Ldebug_abbrev0:
 4178 0000 01       		.uleb128 0x1
 4179 0001 11       		.uleb128 0x11
 4180 0002 01       		.byte	0x1
 4181 0003 25       		.uleb128 0x25
 4182 0004 0E       		.uleb128 0xe
 4183 0005 13       		.uleb128 0x13
 4184 0006 0B       		.uleb128 0xb
 4185 0007 03       		.uleb128 0x3
 4186 0008 0E       		.uleb128 0xe
 4187 0009 1B       		.uleb128 0x1b
 4188 000a 0E       		.uleb128 0xe
 4189 000b 55       		.uleb128 0x55
 4190 000c 17       		.uleb128 0x17
 4191 000d 11       		.uleb128 0x11
 4192 000e 01       		.uleb128 0x1
 4193 000f 10       		.uleb128 0x10
ARM GAS  C:\Users\Phuong\AppData\Local\Temp\ccnrs5hd.s 			page 100


 4194 0010 17       		.uleb128 0x17
 4195 0011 00       		.byte	0
 4196 0012 00       		.byte	0
 4197 0013 02       		.uleb128 0x2
 4198 0014 24       		.uleb128 0x24
 4199 0015 00       		.byte	0
 4200 0016 0B       		.uleb128 0xb
 4201 0017 0B       		.uleb128 0xb
 4202 0018 3E       		.uleb128 0x3e
 4203 0019 0B       		.uleb128 0xb
 4204 001a 03       		.uleb128 0x3
 4205 001b 0E       		.uleb128 0xe
 4206 001c 00       		.byte	0
 4207 001d 00       		.byte	0
 4208 001e 03       		.uleb128 0x3
 4209 001f 16       		.uleb128 0x16
 4210 0020 00       		.byte	0
 4211 0021 03       		.uleb128 0x3
 4212 0022 0E       		.uleb128 0xe
 4213 0023 3A       		.uleb128 0x3a
 4214 0024 0B       		.uleb128 0xb
 4215 0025 3B       		.uleb128 0x3b
 4216 0026 0B       		.uleb128 0xb
 4217 0027 49       		.uleb128 0x49
 4218 0028 13       		.uleb128 0x13
 4219 0029 00       		.byte	0
 4220 002a 00       		.byte	0
 4221 002b 04       		.uleb128 0x4
 4222 002c 24       		.uleb128 0x24
 4223 002d 00       		.byte	0
 4224 002e 0B       		.uleb128 0xb
 4225 002f 0B       		.uleb128 0xb
 4226 0030 3E       		.uleb128 0x3e
 4227 0031 0B       		.uleb128 0xb
 4228 0032 03       		.uleb128 0x3
 4229 0033 08       		.uleb128 0x8
 4230 0034 00       		.byte	0
 4231 0035 00       		.byte	0
 4232 0036 05       		.uleb128 0x5
 4233 0037 0F       		.uleb128 0xf
 4234 0038 00       		.byte	0
 4235 0039 0B       		.uleb128 0xb
 4236 003a 0B       		.uleb128 0xb
 4237 003b 00       		.byte	0
 4238 003c 00       		.byte	0
 4239 003d 06       		.uleb128 0x6
 4240 003e 0F       		.uleb128 0xf
 4241 003f 00       		.byte	0
 4242 0040 0B       		.uleb128 0xb
 4243 0041 0B       		.uleb128 0xb
 4244 0042 49       		.uleb128 0x49
 4245 0043 13       		.uleb128 0x13
 4246 0044 00       		.byte	0
 4247 0045 00       		.byte	0
 4248 0046 07       		.uleb128 0x7
 4249 0047 04       		.uleb128 0x4
 4250 0048 01       		.byte	0x1
ARM GAS  C:\Users\Phuong\AppData\Local\Temp\ccnrs5hd.s 			page 101


 4251 0049 0B       		.uleb128 0xb
 4252 004a 0B       		.uleb128 0xb
 4253 004b 49       		.uleb128 0x49
 4254 004c 13       		.uleb128 0x13
 4255 004d 3A       		.uleb128 0x3a
 4256 004e 0B       		.uleb128 0xb
 4257 004f 3B       		.uleb128 0x3b
 4258 0050 0B       		.uleb128 0xb
 4259 0051 01       		.uleb128 0x1
 4260 0052 13       		.uleb128 0x13
 4261 0053 00       		.byte	0
 4262 0054 00       		.byte	0
 4263 0055 08       		.uleb128 0x8
 4264 0056 28       		.uleb128 0x28
 4265 0057 00       		.byte	0
 4266 0058 03       		.uleb128 0x3
 4267 0059 0E       		.uleb128 0xe
 4268 005a 1C       		.uleb128 0x1c
 4269 005b 0B       		.uleb128 0xb
 4270 005c 00       		.byte	0
 4271 005d 00       		.byte	0
 4272 005e 09       		.uleb128 0x9
 4273 005f 13       		.uleb128 0x13
 4274 0060 01       		.byte	0x1
 4275 0061 03       		.uleb128 0x3
 4276 0062 0E       		.uleb128 0xe
 4277 0063 0B       		.uleb128 0xb
 4278 0064 0B       		.uleb128 0xb
 4279 0065 3A       		.uleb128 0x3a
 4280 0066 0B       		.uleb128 0xb
 4281 0067 3B       		.uleb128 0x3b
 4282 0068 0B       		.uleb128 0xb
 4283 0069 01       		.uleb128 0x1
 4284 006a 13       		.uleb128 0x13
 4285 006b 00       		.byte	0
 4286 006c 00       		.byte	0
 4287 006d 0A       		.uleb128 0xa
 4288 006e 0D       		.uleb128 0xd
 4289 006f 00       		.byte	0
 4290 0070 03       		.uleb128 0x3
 4291 0071 0E       		.uleb128 0xe
 4292 0072 3A       		.uleb128 0x3a
 4293 0073 0B       		.uleb128 0xb
 4294 0074 3B       		.uleb128 0x3b
 4295 0075 0B       		.uleb128 0xb
 4296 0076 49       		.uleb128 0x49
 4297 0077 13       		.uleb128 0x13
 4298 0078 38       		.uleb128 0x38
 4299 0079 0B       		.uleb128 0xb
 4300 007a 00       		.byte	0
 4301 007b 00       		.byte	0
 4302 007c 0B       		.uleb128 0xb
 4303 007d 35       		.uleb128 0x35
 4304 007e 00       		.byte	0
 4305 007f 49       		.uleb128 0x49
 4306 0080 13       		.uleb128 0x13
 4307 0081 00       		.byte	0
ARM GAS  C:\Users\Phuong\AppData\Local\Temp\ccnrs5hd.s 			page 102


 4308 0082 00       		.byte	0
 4309 0083 0C       		.uleb128 0xc
 4310 0084 2E       		.uleb128 0x2e
 4311 0085 01       		.byte	0x1
 4312 0086 03       		.uleb128 0x3
 4313 0087 0E       		.uleb128 0xe
 4314 0088 3A       		.uleb128 0x3a
 4315 0089 0B       		.uleb128 0xb
 4316 008a 3B       		.uleb128 0x3b
 4317 008b 05       		.uleb128 0x5
 4318 008c 27       		.uleb128 0x27
 4319 008d 19       		.uleb128 0x19
 4320 008e 49       		.uleb128 0x49
 4321 008f 13       		.uleb128 0x13
 4322 0090 11       		.uleb128 0x11
 4323 0091 01       		.uleb128 0x1
 4324 0092 12       		.uleb128 0x12
 4325 0093 06       		.uleb128 0x6
 4326 0094 40       		.uleb128 0x40
 4327 0095 18       		.uleb128 0x18
 4328 0096 9742     		.uleb128 0x2117
 4329 0098 19       		.uleb128 0x19
 4330 0099 01       		.uleb128 0x1
 4331 009a 13       		.uleb128 0x13
 4332 009b 00       		.byte	0
 4333 009c 00       		.byte	0
 4334 009d 0D       		.uleb128 0xd
 4335 009e 05       		.uleb128 0x5
 4336 009f 00       		.byte	0
 4337 00a0 03       		.uleb128 0x3
 4338 00a1 0E       		.uleb128 0xe
 4339 00a2 3A       		.uleb128 0x3a
 4340 00a3 0B       		.uleb128 0xb
 4341 00a4 3B       		.uleb128 0x3b
 4342 00a5 05       		.uleb128 0x5
 4343 00a6 49       		.uleb128 0x49
 4344 00a7 13       		.uleb128 0x13
 4345 00a8 02       		.uleb128 0x2
 4346 00a9 17       		.uleb128 0x17
 4347 00aa 00       		.byte	0
 4348 00ab 00       		.byte	0
 4349 00ac 0E       		.uleb128 0xe
 4350 00ad 34       		.uleb128 0x34
 4351 00ae 00       		.byte	0
 4352 00af 03       		.uleb128 0x3
 4353 00b0 0E       		.uleb128 0xe
 4354 00b1 3A       		.uleb128 0x3a
 4355 00b2 0B       		.uleb128 0xb
 4356 00b3 3B       		.uleb128 0x3b
 4357 00b4 05       		.uleb128 0x5
 4358 00b5 49       		.uleb128 0x49
 4359 00b6 13       		.uleb128 0x13
 4360 00b7 02       		.uleb128 0x2
 4361 00b8 17       		.uleb128 0x17
 4362 00b9 00       		.byte	0
 4363 00ba 00       		.byte	0
 4364 00bb 0F       		.uleb128 0xf
ARM GAS  C:\Users\Phuong\AppData\Local\Temp\ccnrs5hd.s 			page 103


 4365 00bc 26       		.uleb128 0x26
 4366 00bd 00       		.byte	0
 4367 00be 49       		.uleb128 0x49
 4368 00bf 13       		.uleb128 0x13
 4369 00c0 00       		.byte	0
 4370 00c1 00       		.byte	0
 4371 00c2 10       		.uleb128 0x10
 4372 00c3 2E       		.uleb128 0x2e
 4373 00c4 01       		.byte	0x1
 4374 00c5 03       		.uleb128 0x3
 4375 00c6 0E       		.uleb128 0xe
 4376 00c7 3A       		.uleb128 0x3a
 4377 00c8 0B       		.uleb128 0xb
 4378 00c9 3B       		.uleb128 0x3b
 4379 00ca 05       		.uleb128 0x5
 4380 00cb 27       		.uleb128 0x27
 4381 00cc 19       		.uleb128 0x19
 4382 00cd 11       		.uleb128 0x11
 4383 00ce 01       		.uleb128 0x1
 4384 00cf 12       		.uleb128 0x12
 4385 00d0 06       		.uleb128 0x6
 4386 00d1 40       		.uleb128 0x40
 4387 00d2 18       		.uleb128 0x18
 4388 00d3 9742     		.uleb128 0x2117
 4389 00d5 19       		.uleb128 0x19
 4390 00d6 01       		.uleb128 0x1
 4391 00d7 13       		.uleb128 0x13
 4392 00d8 00       		.byte	0
 4393 00d9 00       		.byte	0
 4394 00da 11       		.uleb128 0x11
 4395 00db 05       		.uleb128 0x5
 4396 00dc 00       		.byte	0
 4397 00dd 03       		.uleb128 0x3
 4398 00de 0E       		.uleb128 0xe
 4399 00df 3A       		.uleb128 0x3a
 4400 00e0 0B       		.uleb128 0xb
 4401 00e1 3B       		.uleb128 0x3b
 4402 00e2 05       		.uleb128 0x5
 4403 00e3 49       		.uleb128 0x49
 4404 00e4 13       		.uleb128 0x13
 4405 00e5 02       		.uleb128 0x2
 4406 00e6 18       		.uleb128 0x18
 4407 00e7 00       		.byte	0
 4408 00e8 00       		.byte	0
 4409 00e9 12       		.uleb128 0x12
 4410 00ea 0B       		.uleb128 0xb
 4411 00eb 01       		.byte	0x1
 4412 00ec 11       		.uleb128 0x11
 4413 00ed 01       		.uleb128 0x1
 4414 00ee 12       		.uleb128 0x12
 4415 00ef 06       		.uleb128 0x6
 4416 00f0 01       		.uleb128 0x1
 4417 00f1 13       		.uleb128 0x13
 4418 00f2 00       		.byte	0
 4419 00f3 00       		.byte	0
 4420 00f4 13       		.uleb128 0x13
 4421 00f5 34       		.uleb128 0x34
ARM GAS  C:\Users\Phuong\AppData\Local\Temp\ccnrs5hd.s 			page 104


 4422 00f6 00       		.byte	0
 4423 00f7 03       		.uleb128 0x3
 4424 00f8 0E       		.uleb128 0xe
 4425 00f9 3A       		.uleb128 0x3a
 4426 00fa 0B       		.uleb128 0xb
 4427 00fb 3B       		.uleb128 0x3b
 4428 00fc 05       		.uleb128 0x5
 4429 00fd 49       		.uleb128 0x49
 4430 00fe 13       		.uleb128 0x13
 4431 00ff 1C       		.uleb128 0x1c
 4432 0100 0B       		.uleb128 0xb
 4433 0101 00       		.byte	0
 4434 0102 00       		.byte	0
 4435 0103 14       		.uleb128 0x14
 4436 0104 898201   		.uleb128 0x4109
 4437 0107 01       		.byte	0x1
 4438 0108 11       		.uleb128 0x11
 4439 0109 01       		.uleb128 0x1
 4440 010a 31       		.uleb128 0x31
 4441 010b 13       		.uleb128 0x13
 4442 010c 00       		.byte	0
 4443 010d 00       		.byte	0
 4444 010e 15       		.uleb128 0x15
 4445 010f 8A8201   		.uleb128 0x410a
 4446 0112 00       		.byte	0
 4447 0113 02       		.uleb128 0x2
 4448 0114 18       		.uleb128 0x18
 4449 0115 9142     		.uleb128 0x2111
 4450 0117 18       		.uleb128 0x18
 4451 0118 00       		.byte	0
 4452 0119 00       		.byte	0
 4453 011a 16       		.uleb128 0x16
 4454 011b 898201   		.uleb128 0x4109
 4455 011e 01       		.byte	0x1
 4456 011f 11       		.uleb128 0x11
 4457 0120 01       		.uleb128 0x1
 4458 0121 31       		.uleb128 0x31
 4459 0122 13       		.uleb128 0x13
 4460 0123 01       		.uleb128 0x1
 4461 0124 13       		.uleb128 0x13
 4462 0125 00       		.byte	0
 4463 0126 00       		.byte	0
 4464 0127 17       		.uleb128 0x17
 4465 0128 26       		.uleb128 0x26
 4466 0129 00       		.byte	0
 4467 012a 00       		.byte	0
 4468 012b 00       		.byte	0
 4469 012c 18       		.uleb128 0x18
 4470 012d 34       		.uleb128 0x34
 4471 012e 00       		.byte	0
 4472 012f 03       		.uleb128 0x3
 4473 0130 0E       		.uleb128 0xe
 4474 0131 3A       		.uleb128 0x3a
 4475 0132 0B       		.uleb128 0xb
 4476 0133 3B       		.uleb128 0x3b
 4477 0134 05       		.uleb128 0x5
 4478 0135 49       		.uleb128 0x49
ARM GAS  C:\Users\Phuong\AppData\Local\Temp\ccnrs5hd.s 			page 105


 4479 0136 13       		.uleb128 0x13
 4480 0137 02       		.uleb128 0x2
 4481 0138 18       		.uleb128 0x18
 4482 0139 00       		.byte	0
 4483 013a 00       		.byte	0
 4484 013b 19       		.uleb128 0x19
 4485 013c 2E       		.uleb128 0x2e
 4486 013d 01       		.byte	0x1
 4487 013e 3F       		.uleb128 0x3f
 4488 013f 19       		.uleb128 0x19
 4489 0140 03       		.uleb128 0x3
 4490 0141 0E       		.uleb128 0xe
 4491 0142 3A       		.uleb128 0x3a
 4492 0143 0B       		.uleb128 0xb
 4493 0144 3B       		.uleb128 0x3b
 4494 0145 0B       		.uleb128 0xb
 4495 0146 27       		.uleb128 0x27
 4496 0147 19       		.uleb128 0x19
 4497 0148 49       		.uleb128 0x49
 4498 0149 13       		.uleb128 0x13
 4499 014a 11       		.uleb128 0x11
 4500 014b 01       		.uleb128 0x1
 4501 014c 12       		.uleb128 0x12
 4502 014d 06       		.uleb128 0x6
 4503 014e 40       		.uleb128 0x40
 4504 014f 18       		.uleb128 0x18
 4505 0150 9742     		.uleb128 0x2117
 4506 0152 19       		.uleb128 0x19
 4507 0153 01       		.uleb128 0x1
 4508 0154 13       		.uleb128 0x13
 4509 0155 00       		.byte	0
 4510 0156 00       		.byte	0
 4511 0157 1A       		.uleb128 0x1a
 4512 0158 05       		.uleb128 0x5
 4513 0159 00       		.byte	0
 4514 015a 03       		.uleb128 0x3
 4515 015b 0E       		.uleb128 0xe
 4516 015c 3A       		.uleb128 0x3a
 4517 015d 0B       		.uleb128 0xb
 4518 015e 3B       		.uleb128 0x3b
 4519 015f 0B       		.uleb128 0xb
 4520 0160 49       		.uleb128 0x49
 4521 0161 13       		.uleb128 0x13
 4522 0162 02       		.uleb128 0x2
 4523 0163 17       		.uleb128 0x17
 4524 0164 00       		.byte	0
 4525 0165 00       		.byte	0
 4526 0166 1B       		.uleb128 0x1b
 4527 0167 34       		.uleb128 0x34
 4528 0168 00       		.byte	0
 4529 0169 03       		.uleb128 0x3
 4530 016a 0E       		.uleb128 0xe
 4531 016b 3A       		.uleb128 0x3a
 4532 016c 0B       		.uleb128 0xb
 4533 016d 3B       		.uleb128 0x3b
 4534 016e 0B       		.uleb128 0xb
 4535 016f 49       		.uleb128 0x49
ARM GAS  C:\Users\Phuong\AppData\Local\Temp\ccnrs5hd.s 			page 106


 4536 0170 13       		.uleb128 0x13
 4537 0171 02       		.uleb128 0x2
 4538 0172 17       		.uleb128 0x17
 4539 0173 00       		.byte	0
 4540 0174 00       		.byte	0
 4541 0175 1C       		.uleb128 0x1c
 4542 0176 2E       		.uleb128 0x2e
 4543 0177 01       		.byte	0x1
 4544 0178 3F       		.uleb128 0x3f
 4545 0179 19       		.uleb128 0x19
 4546 017a 03       		.uleb128 0x3
 4547 017b 0E       		.uleb128 0xe
 4548 017c 3A       		.uleb128 0x3a
 4549 017d 0B       		.uleb128 0xb
 4550 017e 3B       		.uleb128 0x3b
 4551 017f 05       		.uleb128 0x5
 4552 0180 27       		.uleb128 0x27
 4553 0181 19       		.uleb128 0x19
 4554 0182 11       		.uleb128 0x11
 4555 0183 01       		.uleb128 0x1
 4556 0184 12       		.uleb128 0x12
 4557 0185 06       		.uleb128 0x6
 4558 0186 40       		.uleb128 0x40
 4559 0187 18       		.uleb128 0x18
 4560 0188 9742     		.uleb128 0x2117
 4561 018a 19       		.uleb128 0x19
 4562 018b 01       		.uleb128 0x1
 4563 018c 13       		.uleb128 0x13
 4564 018d 00       		.byte	0
 4565 018e 00       		.byte	0
 4566 018f 1D       		.uleb128 0x1d
 4567 0190 2E       		.uleb128 0x2e
 4568 0191 01       		.byte	0x1
 4569 0192 3F       		.uleb128 0x3f
 4570 0193 19       		.uleb128 0x19
 4571 0194 03       		.uleb128 0x3
 4572 0195 0E       		.uleb128 0xe
 4573 0196 3A       		.uleb128 0x3a
 4574 0197 0B       		.uleb128 0xb
 4575 0198 3B       		.uleb128 0x3b
 4576 0199 05       		.uleb128 0x5
 4577 019a 27       		.uleb128 0x27
 4578 019b 19       		.uleb128 0x19
 4579 019c 49       		.uleb128 0x49
 4580 019d 13       		.uleb128 0x13
 4581 019e 11       		.uleb128 0x11
 4582 019f 01       		.uleb128 0x1
 4583 01a0 12       		.uleb128 0x12
 4584 01a1 06       		.uleb128 0x6
 4585 01a2 40       		.uleb128 0x40
 4586 01a3 18       		.uleb128 0x18
 4587 01a4 9742     		.uleb128 0x2117
 4588 01a6 19       		.uleb128 0x19
 4589 01a7 01       		.uleb128 0x1
 4590 01a8 13       		.uleb128 0x13
 4591 01a9 00       		.byte	0
 4592 01aa 00       		.byte	0
ARM GAS  C:\Users\Phuong\AppData\Local\Temp\ccnrs5hd.s 			page 107


 4593 01ab 1E       		.uleb128 0x1e
 4594 01ac 898201   		.uleb128 0x4109
 4595 01af 00       		.byte	0
 4596 01b0 11       		.uleb128 0x11
 4597 01b1 01       		.uleb128 0x1
 4598 01b2 31       		.uleb128 0x31
 4599 01b3 13       		.uleb128 0x13
 4600 01b4 00       		.byte	0
 4601 01b5 00       		.byte	0
 4602 01b6 1F       		.uleb128 0x1f
 4603 01b7 2E       		.uleb128 0x2e
 4604 01b8 00       		.byte	0
 4605 01b9 3F       		.uleb128 0x3f
 4606 01ba 19       		.uleb128 0x19
 4607 01bb 3C       		.uleb128 0x3c
 4608 01bc 19       		.uleb128 0x19
 4609 01bd 6E       		.uleb128 0x6e
 4610 01be 0E       		.uleb128 0xe
 4611 01bf 03       		.uleb128 0x3
 4612 01c0 0E       		.uleb128 0xe
 4613 01c1 3A       		.uleb128 0x3a
 4614 01c2 0B       		.uleb128 0xb
 4615 01c3 3B       		.uleb128 0x3b
 4616 01c4 0B       		.uleb128 0xb
 4617 01c5 00       		.byte	0
 4618 01c6 00       		.byte	0
 4619 01c7 20       		.uleb128 0x20
 4620 01c8 2E       		.uleb128 0x2e
 4621 01c9 00       		.byte	0
 4622 01ca 3F       		.uleb128 0x3f
 4623 01cb 19       		.uleb128 0x19
 4624 01cc 3C       		.uleb128 0x3c
 4625 01cd 19       		.uleb128 0x19
 4626 01ce 6E       		.uleb128 0x6e
 4627 01cf 0E       		.uleb128 0xe
 4628 01d0 03       		.uleb128 0x3
 4629 01d1 0E       		.uleb128 0xe
 4630 01d2 00       		.byte	0
 4631 01d3 00       		.byte	0
 4632 01d4 21       		.uleb128 0x21
 4633 01d5 2E       		.uleb128 0x2e
 4634 01d6 00       		.byte	0
 4635 01d7 3F       		.uleb128 0x3f
 4636 01d8 19       		.uleb128 0x19
 4637 01d9 3C       		.uleb128 0x3c
 4638 01da 19       		.uleb128 0x19
 4639 01db 6E       		.uleb128 0x6e
 4640 01dc 0E       		.uleb128 0xe
 4641 01dd 03       		.uleb128 0x3
 4642 01de 0E       		.uleb128 0xe
 4643 01df 3A       		.uleb128 0x3a
 4644 01e0 0B       		.uleb128 0xb
 4645 01e1 3B       		.uleb128 0x3b
 4646 01e2 05       		.uleb128 0x5
 4647 01e3 00       		.byte	0
 4648 01e4 00       		.byte	0
 4649 01e5 00       		.byte	0
ARM GAS  C:\Users\Phuong\AppData\Local\Temp\ccnrs5hd.s 			page 108


 4650              		.section	.debug_loc,"",%progbits
 4651              	.Ldebug_loc0:
 4652              	.LLST0:
 4653 0000 00000000 		.4byte	.LVL0
 4654 0004 08000000 		.4byte	.LVL2
 4655 0008 0100     		.2byte	0x1
 4656 000a 50       		.byte	0x50
 4657 000b 08000000 		.4byte	.LVL2
 4658 000f 12000000 		.4byte	.LFE54
 4659 0013 0400     		.2byte	0x4
 4660 0015 F3       		.byte	0xf3
 4661 0016 01       		.uleb128 0x1
 4662 0017 50       		.byte	0x50
 4663 0018 9F       		.byte	0x9f
 4664 0019 00000000 		.4byte	0
 4665 001d 00000000 		.4byte	0
 4666              	.LLST1:
 4667 0021 06000000 		.4byte	.LVL1
 4668 0025 0A000000 		.4byte	.LVL3
 4669 0029 0100     		.2byte	0x1
 4670 002b 53       		.byte	0x53
 4671 002c 0A000000 		.4byte	.LVL3
 4672 0030 12000000 		.4byte	.LFE54
 4673 0034 0100     		.2byte	0x1
 4674 0036 50       		.byte	0x50
 4675 0037 00000000 		.4byte	0
 4676 003b 00000000 		.4byte	0
 4677              	.LLST2:
 4678 003f 00000000 		.4byte	.LVL5
 4679 0043 0E000000 		.4byte	.LVL8
 4680 0047 0100     		.2byte	0x1
 4681 0049 50       		.byte	0x50
 4682 004a 0E000000 		.4byte	.LVL8
 4683 004e 38000000 		.4byte	.LVL11
 4684 0052 0100     		.2byte	0x1
 4685 0054 54       		.byte	0x54
 4686 0055 38000000 		.4byte	.LVL11
 4687 0059 3A000000 		.4byte	.LFE55
 4688 005d 0400     		.2byte	0x4
 4689 005f F3       		.byte	0xf3
 4690 0060 01       		.uleb128 0x1
 4691 0061 50       		.byte	0x50
 4692 0062 9F       		.byte	0x9f
 4693 0063 00000000 		.4byte	0
 4694 0067 00000000 		.4byte	0
 4695              	.LLST3:
 4696 006b 00000000 		.4byte	.LVL5
 4697 006f 0C000000 		.4byte	.LVL7
 4698 0073 0100     		.2byte	0x1
 4699 0075 51       		.byte	0x51
 4700 0076 0C000000 		.4byte	.LVL7
 4701 007a 38000000 		.4byte	.LVL12
 4702 007e 0100     		.2byte	0x1
 4703 0080 55       		.byte	0x55
 4704 0081 38000000 		.4byte	.LVL12
 4705 0085 3A000000 		.4byte	.LFE55
 4706 0089 0500     		.2byte	0x5
ARM GAS  C:\Users\Phuong\AppData\Local\Temp\ccnrs5hd.s 			page 109


 4707 008b F3       		.byte	0xf3
 4708 008c 01       		.uleb128 0x1
 4709 008d 50       		.byte	0x50
 4710 008e 23       		.byte	0x23
 4711 008f 18       		.uleb128 0x18
 4712 0090 00000000 		.4byte	0
 4713 0094 00000000 		.4byte	0
 4714              	.LLST4:
 4715 0098 00000000 		.4byte	.LVL5
 4716 009c 11000000 		.4byte	.LVL9-1
 4717 00a0 0100     		.2byte	0x1
 4718 00a2 52       		.byte	0x52
 4719 00a3 11000000 		.4byte	.LVL9-1
 4720 00a7 38000000 		.4byte	.LVL13
 4721 00ab 0100     		.2byte	0x1
 4722 00ad 56       		.byte	0x56
 4723 00ae 38000000 		.4byte	.LVL13
 4724 00b2 3A000000 		.4byte	.LFE55
 4725 00b6 0500     		.2byte	0x5
 4726 00b8 F3       		.byte	0xf3
 4727 00b9 01       		.uleb128 0x1
 4728 00ba 50       		.byte	0x50
 4729 00bb 23       		.byte	0x23
 4730 00bc 08       		.uleb128 0x8
 4731 00bd 00000000 		.4byte	0
 4732 00c1 00000000 		.4byte	0
 4733              	.LLST5:
 4734 00c5 00000000 		.4byte	.LVL5
 4735 00c9 11000000 		.4byte	.LVL9-1
 4736 00cd 0100     		.2byte	0x1
 4737 00cf 53       		.byte	0x53
 4738 00d0 11000000 		.4byte	.LVL9-1
 4739 00d4 38000000 		.4byte	.LVL14
 4740 00d8 0100     		.2byte	0x1
 4741 00da 57       		.byte	0x57
 4742 00db 38000000 		.4byte	.LVL14
 4743 00df 3A000000 		.4byte	.LFE55
 4744 00e3 0500     		.2byte	0x5
 4745 00e5 F3       		.byte	0xf3
 4746 00e6 01       		.uleb128 0x1
 4747 00e7 50       		.byte	0x50
 4748 00e8 23       		.byte	0x23
 4749 00e9 0C       		.uleb128 0xc
 4750 00ea 00000000 		.4byte	0
 4751 00ee 00000000 		.4byte	0
 4752              	.LLST6:
 4753 00f2 00000000 		.4byte	.LVL15
 4754 00f6 2C000000 		.4byte	.LVL20
 4755 00fa 0100     		.2byte	0x1
 4756 00fc 50       		.byte	0x50
 4757 00fd 2C000000 		.4byte	.LVL20
 4758 0101 5E000000 		.4byte	.LVL29
 4759 0105 0100     		.2byte	0x1
 4760 0107 57       		.byte	0x57
 4761 0108 5E000000 		.4byte	.LVL29
 4762 010c 60000000 		.4byte	.LFE52
 4763 0110 0400     		.2byte	0x4
ARM GAS  C:\Users\Phuong\AppData\Local\Temp\ccnrs5hd.s 			page 110


 4764 0112 F3       		.byte	0xf3
 4765 0113 01       		.uleb128 0x1
 4766 0114 50       		.byte	0x50
 4767 0115 9F       		.byte	0x9f
 4768 0116 00000000 		.4byte	0
 4769 011a 00000000 		.4byte	0
 4770              	.LLST7:
 4771 011e 00000000 		.4byte	.LVL15
 4772 0122 30000000 		.4byte	.LVL21
 4773 0126 0100     		.2byte	0x1
 4774 0128 51       		.byte	0x51
 4775 0129 30000000 		.4byte	.LVL21
 4776 012d 60000000 		.4byte	.LFE52
 4777 0131 0200     		.2byte	0x2
 4778 0133 91       		.byte	0x91
 4779 0134 64       		.sleb128 -28
 4780 0135 00000000 		.4byte	0
 4781 0139 00000000 		.4byte	0
 4782              	.LLST8:
 4783 013d 00000000 		.4byte	.LVL15
 4784 0141 16000000 		.4byte	.LVL17
 4785 0145 0100     		.2byte	0x1
 4786 0147 52       		.byte	0x52
 4787 0148 16000000 		.4byte	.LVL17
 4788 014c 1C000000 		.4byte	.LVL18
 4789 0150 0100     		.2byte	0x1
 4790 0152 56       		.byte	0x56
 4791 0153 1C000000 		.4byte	.LVL18
 4792 0157 1E000000 		.4byte	.LVL19
 4793 015b 0100     		.2byte	0x1
 4794 015d 55       		.byte	0x55
 4795 015e 1E000000 		.4byte	.LVL19
 4796 0162 5E000000 		.4byte	.LVL28
 4797 0166 0100     		.2byte	0x1
 4798 0168 56       		.byte	0x56
 4799 0169 5E000000 		.4byte	.LVL28
 4800 016d 60000000 		.4byte	.LFE52
 4801 0171 0100     		.2byte	0x1
 4802 0173 50       		.byte	0x50
 4803 0174 00000000 		.4byte	0
 4804 0178 00000000 		.4byte	0
 4805              	.LLST9:
 4806 017c 12000000 		.4byte	.LVL16
 4807 0180 5E000000 		.4byte	.LVL26
 4808 0184 0100     		.2byte	0x1
 4809 0186 54       		.byte	0x54
 4810 0187 5E000000 		.4byte	.LVL26
 4811 018b 5E000000 		.4byte	.LVL29
 4812 018f 0200     		.2byte	0x2
 4813 0191 77       		.byte	0x77
 4814 0192 04       		.sleb128 4
 4815 0193 5E000000 		.4byte	.LVL29
 4816 0197 60000000 		.4byte	.LFE52
 4817 019b 0500     		.2byte	0x5
 4818 019d F3       		.byte	0xf3
 4819 019e 01       		.uleb128 0x1
 4820 019f 50       		.byte	0x50
ARM GAS  C:\Users\Phuong\AppData\Local\Temp\ccnrs5hd.s 			page 111


 4821 01a0 23       		.byte	0x23
 4822 01a1 04       		.uleb128 0x4
 4823 01a2 00000000 		.4byte	0
 4824 01a6 00000000 		.4byte	0
 4825              	.LLST10:
 4826 01aa 1E000000 		.4byte	.LVL19
 4827 01ae 5E000000 		.4byte	.LVL27
 4828 01b2 0100     		.2byte	0x1
 4829 01b4 55       		.byte	0x55
 4830 01b5 00000000 		.4byte	0
 4831 01b9 00000000 		.4byte	0
 4832              	.LLST11:
 4833 01bd 00000000 		.4byte	.LVL30
 4834 01c1 2F000000 		.4byte	.LVL38-1
 4835 01c5 0100     		.2byte	0x1
 4836 01c7 50       		.byte	0x50
 4837 01c8 2F000000 		.4byte	.LVL38-1
 4838 01cc 34000000 		.4byte	.LVL39
 4839 01d0 0100     		.2byte	0x1
 4840 01d2 54       		.byte	0x54
 4841 01d3 34000000 		.4byte	.LVL39
 4842 01d7 3A000000 		.4byte	.LVL42
 4843 01db 0100     		.2byte	0x1
 4844 01dd 50       		.byte	0x50
 4845 01de 3A000000 		.4byte	.LVL42
 4846 01e2 4E000000 		.4byte	.LVL46
 4847 01e6 0100     		.2byte	0x1
 4848 01e8 54       		.byte	0x54
 4849 01e9 4E000000 		.4byte	.LVL46
 4850 01ed 50000000 		.4byte	.LFE44
 4851 01f1 0400     		.2byte	0x4
 4852 01f3 F3       		.byte	0xf3
 4853 01f4 01       		.uleb128 0x1
 4854 01f5 50       		.byte	0x50
 4855 01f6 9F       		.byte	0x9f
 4856 01f7 00000000 		.4byte	0
 4857 01fb 00000000 		.4byte	0
 4858              	.LLST12:
 4859 01ff 00000000 		.4byte	.LVL30
 4860 0203 2C000000 		.4byte	.LVL37
 4861 0207 0100     		.2byte	0x1
 4862 0209 51       		.byte	0x51
 4863 020a 2C000000 		.4byte	.LVL37
 4864 020e 34000000 		.4byte	.LVL39
 4865 0212 0100     		.2byte	0x1
 4866 0214 55       		.byte	0x55
 4867 0215 34000000 		.4byte	.LVL39
 4868 0219 3A000000 		.4byte	.LVL42
 4869 021d 0100     		.2byte	0x1
 4870 021f 51       		.byte	0x51
 4871 0220 3A000000 		.4byte	.LVL42
 4872 0224 4E000000 		.4byte	.LVL47
 4873 0228 0100     		.2byte	0x1
 4874 022a 55       		.byte	0x55
 4875 022b 4E000000 		.4byte	.LVL47
 4876 022f 50000000 		.4byte	.LFE44
 4877 0233 0400     		.2byte	0x4
ARM GAS  C:\Users\Phuong\AppData\Local\Temp\ccnrs5hd.s 			page 112


 4878 0235 F3       		.byte	0xf3
 4879 0236 01       		.uleb128 0x1
 4880 0237 51       		.byte	0x51
 4881 0238 9F       		.byte	0x9f
 4882 0239 00000000 		.4byte	0
 4883 023d 00000000 		.4byte	0
 4884              	.LLST13:
 4885 0241 00000000 		.4byte	.LVL30
 4886 0245 10000000 		.4byte	.LVL31
 4887 0249 0100     		.2byte	0x1
 4888 024b 52       		.byte	0x52
 4889 024c 10000000 		.4byte	.LVL31
 4890 0250 1E000000 		.4byte	.LVL33
 4891 0254 0200     		.2byte	0x2
 4892 0256 91       		.byte	0x91
 4893 0257 6C       		.sleb128 -20
 4894 0258 1E000000 		.4byte	.LVL33
 4895 025c 22000000 		.4byte	.LVL35
 4896 0260 0400     		.2byte	0x4
 4897 0262 F3       		.byte	0xf3
 4898 0263 01       		.uleb128 0x1
 4899 0264 52       		.byte	0x52
 4900 0265 9F       		.byte	0x9f
 4901 0266 22000000 		.4byte	.LVL35
 4902 026a 2C000000 		.4byte	.LVL37
 4903 026e 0200     		.2byte	0x2
 4904 0270 91       		.byte	0x91
 4905 0271 6C       		.sleb128 -20
 4906 0272 2C000000 		.4byte	.LVL37
 4907 0276 2F000000 		.4byte	.LVL38-1
 4908 027a 0200     		.2byte	0x2
 4909 027c 71       		.byte	0x71
 4910 027d 00       		.sleb128 0
 4911 027e 2F000000 		.4byte	.LVL38-1
 4912 0282 34000000 		.4byte	.LVL39
 4913 0286 0200     		.2byte	0x2
 4914 0288 91       		.byte	0x91
 4915 0289 6C       		.sleb128 -20
 4916 028a 34000000 		.4byte	.LVL39
 4917 028e 38000000 		.4byte	.LVL41
 4918 0292 0100     		.2byte	0x1
 4919 0294 52       		.byte	0x52
 4920 0295 38000000 		.4byte	.LVL41
 4921 0299 3A000000 		.4byte	.LVL42
 4922 029d 0200     		.2byte	0x2
 4923 029f 91       		.byte	0x91
 4924 02a0 6C       		.sleb128 -20
 4925 02a1 00000000 		.4byte	0
 4926 02a5 00000000 		.4byte	0
 4927              	.LLST14:
 4928 02a9 00000000 		.4byte	.LVL30
 4929 02ad 20000000 		.4byte	.LVL34
 4930 02b1 0100     		.2byte	0x1
 4931 02b3 53       		.byte	0x53
 4932 02b4 20000000 		.4byte	.LVL34
 4933 02b8 22000000 		.4byte	.LVL35
 4934 02bc 0400     		.2byte	0x4
ARM GAS  C:\Users\Phuong\AppData\Local\Temp\ccnrs5hd.s 			page 113


 4935 02be F3       		.byte	0xf3
 4936 02bf 01       		.uleb128 0x1
 4937 02c0 53       		.byte	0x53
 4938 02c1 9F       		.byte	0x9f
 4939 02c2 22000000 		.4byte	.LVL35
 4940 02c6 2F000000 		.4byte	.LVL38-1
 4941 02ca 0100     		.2byte	0x1
 4942 02cc 53       		.byte	0x53
 4943 02cd 2F000000 		.4byte	.LVL38-1
 4944 02d1 34000000 		.4byte	.LVL39
 4945 02d5 0400     		.2byte	0x4
 4946 02d7 F3       		.byte	0xf3
 4947 02d8 01       		.uleb128 0x1
 4948 02d9 53       		.byte	0x53
 4949 02da 9F       		.byte	0x9f
 4950 02db 34000000 		.4byte	.LVL39
 4951 02df 36000000 		.4byte	.LVL40
 4952 02e3 0100     		.2byte	0x1
 4953 02e5 53       		.byte	0x53
 4954 02e6 36000000 		.4byte	.LVL40
 4955 02ea 38000000 		.4byte	.LVL41
 4956 02ee 0400     		.2byte	0x4
 4957 02f0 F3       		.byte	0xf3
 4958 02f1 01       		.uleb128 0x1
 4959 02f2 53       		.byte	0x53
 4960 02f3 9F       		.byte	0x9f
 4961 02f4 38000000 		.4byte	.LVL41
 4962 02f8 3A000000 		.4byte	.LVL42
 4963 02fc 0100     		.2byte	0x1
 4964 02fe 53       		.byte	0x53
 4965 02ff 3A000000 		.4byte	.LVL42
 4966 0303 50000000 		.4byte	.LFE44
 4967 0307 0400     		.2byte	0x4
 4968 0309 F3       		.byte	0xf3
 4969 030a 01       		.uleb128 0x1
 4970 030b 53       		.byte	0x53
 4971 030c 9F       		.byte	0x9f
 4972 030d 00000000 		.4byte	0
 4973 0311 00000000 		.4byte	0
 4974              	.LLST15:
 4975 0315 14000000 		.4byte	.LVL32
 4976 0319 22000000 		.4byte	.LVL35
 4977 031d 0200     		.2byte	0x2
 4978 031f 31       		.byte	0x31
 4979 0320 9F       		.byte	0x9f
 4980 0321 28000000 		.4byte	.LVL36
 4981 0325 34000000 		.4byte	.LVL39
 4982 0329 0200     		.2byte	0x2
 4983 032b 31       		.byte	0x31
 4984 032c 9F       		.byte	0x9f
 4985 032d 3A000000 		.4byte	.LVL42
 4986 0331 47000000 		.4byte	.LVL43-1
 4987 0335 0100     		.2byte	0x1
 4988 0337 53       		.byte	0x53
 4989 0338 4A000000 		.4byte	.LVL44
 4990 033c 4C000000 		.4byte	.LVL45
 4991 0340 0100     		.2byte	0x1
ARM GAS  C:\Users\Phuong\AppData\Local\Temp\ccnrs5hd.s 			page 114


 4992 0342 53       		.byte	0x53
 4993 0343 00000000 		.4byte	0
 4994 0347 00000000 		.4byte	0
 4995              	.LLST16:
 4996 034b 48000000 		.4byte	.LVL43
 4997 034f 4A000000 		.4byte	.LVL44
 4998 0353 0100     		.2byte	0x1
 4999 0355 50       		.byte	0x50
 5000 0356 4C000000 		.4byte	.LVL45
 5001 035a 50000000 		.4byte	.LFE44
 5002 035e 0100     		.2byte	0x1
 5003 0360 50       		.byte	0x50
 5004 0361 00000000 		.4byte	0
 5005 0365 00000000 		.4byte	0
 5006              	.LLST17:
 5007 0369 00000000 		.4byte	.LVL48
 5008 036d 42000000 		.4byte	.LVL55
 5009 0371 0100     		.2byte	0x1
 5010 0373 50       		.byte	0x50
 5011 0374 42000000 		.4byte	.LVL55
 5012 0378 6E000000 		.4byte	.LVL62
 5013 037c 0100     		.2byte	0x1
 5014 037e 57       		.byte	0x57
 5015 037f 6E000000 		.4byte	.LVL62
 5016 0383 74000000 		.4byte	.LFE53
 5017 0387 0400     		.2byte	0x4
 5018 0389 F3       		.byte	0xf3
 5019 038a 01       		.uleb128 0x1
 5020 038b 50       		.byte	0x50
 5021 038c 9F       		.byte	0x9f
 5022 038d 00000000 		.4byte	0
 5023 0391 00000000 		.4byte	0
 5024              	.LLST18:
 5025 0395 00000000 		.4byte	.LVL48
 5026 0399 3E000000 		.4byte	.LVL54
 5027 039d 0100     		.2byte	0x1
 5028 039f 51       		.byte	0x51
 5029 03a0 3E000000 		.4byte	.LVL54
 5030 03a4 74000000 		.4byte	.LFE53
 5031 03a8 0200     		.2byte	0x2
 5032 03aa 91       		.byte	0x91
 5033 03ab 64       		.sleb128 -28
 5034 03ac 00000000 		.4byte	0
 5035 03b0 00000000 		.4byte	0
 5036              	.LLST19:
 5037 03b4 00000000 		.4byte	.LVL48
 5038 03b8 20000000 		.4byte	.LVL52
 5039 03bc 0100     		.2byte	0x1
 5040 03be 52       		.byte	0x52
 5041 03bf 20000000 		.4byte	.LVL52
 5042 03c3 6E000000 		.4byte	.LVL63
 5043 03c7 0100     		.2byte	0x1
 5044 03c9 59       		.byte	0x59
 5045 03ca 6E000000 		.4byte	.LVL63
 5046 03ce 74000000 		.4byte	.LFE53
 5047 03d2 0400     		.2byte	0x4
 5048 03d4 F3       		.byte	0xf3
ARM GAS  C:\Users\Phuong\AppData\Local\Temp\ccnrs5hd.s 			page 115


 5049 03d5 01       		.uleb128 0x1
 5050 03d6 52       		.byte	0x52
 5051 03d7 9F       		.byte	0x9f
 5052 03d8 00000000 		.4byte	0
 5053 03dc 00000000 		.4byte	0
 5054              	.LLST20:
 5055 03e0 00000000 		.4byte	.LVL48
 5056 03e4 1E000000 		.4byte	.LVL51
 5057 03e8 0100     		.2byte	0x1
 5058 03ea 53       		.byte	0x53
 5059 03eb 1E000000 		.4byte	.LVL51
 5060 03ef 74000000 		.4byte	.LFE53
 5061 03f3 0400     		.2byte	0x4
 5062 03f5 F3       		.byte	0xf3
 5063 03f6 01       		.uleb128 0x1
 5064 03f7 53       		.byte	0x53
 5065 03f8 9F       		.byte	0x9f
 5066 03f9 00000000 		.4byte	0
 5067 03fd 00000000 		.4byte	0
 5068              	.LLST21:
 5069 0401 16000000 		.4byte	.LVL49
 5070 0405 6E000000 		.4byte	.LVL61
 5071 0409 0100     		.2byte	0x1
 5072 040b 54       		.byte	0x54
 5073 040c 6E000000 		.4byte	.LVL61
 5074 0410 74000000 		.4byte	.LFE53
 5075 0414 0100     		.2byte	0x1
 5076 0416 50       		.byte	0x50
 5077 0417 00000000 		.4byte	0
 5078 041b 00000000 		.4byte	0
 5079              	.LLST22:
 5080 041f 28000000 		.4byte	.LVL53
 5081 0423 6A000000 		.4byte	.LVL60
 5082 0427 0100     		.2byte	0x1
 5083 0429 56       		.byte	0x56
 5084 042a 00000000 		.4byte	0
 5085 042e 00000000 		.4byte	0
 5086              	.LLST23:
 5087 0432 1C000000 		.4byte	.LVL50
 5088 0436 6A000000 		.4byte	.LVL60
 5089 043a 0100     		.2byte	0x1
 5090 043c 55       		.byte	0x55
 5091 043d 00000000 		.4byte	0
 5092 0441 00000000 		.4byte	0
 5093              	.LLST24:
 5094 0445 00000000 		.4byte	.LVL64
 5095 0449 23000000 		.4byte	.LVL70-1
 5096 044d 0100     		.2byte	0x1
 5097 044f 50       		.byte	0x50
 5098 0450 23000000 		.4byte	.LVL70-1
 5099 0454 38000000 		.4byte	.LVL72
 5100 0458 0100     		.2byte	0x1
 5101 045a 55       		.byte	0x55
 5102 045b 38000000 		.4byte	.LVL72
 5103 045f 3A000000 		.4byte	.LVL73
 5104 0463 0100     		.2byte	0x1
 5105 0465 50       		.byte	0x50
ARM GAS  C:\Users\Phuong\AppData\Local\Temp\ccnrs5hd.s 			page 116


 5106 0466 3A000000 		.4byte	.LVL73
 5107 046a 48000000 		.4byte	.LVL76
 5108 046e 0100     		.2byte	0x1
 5109 0470 55       		.byte	0x55
 5110 0471 48000000 		.4byte	.LVL76
 5111 0475 4E000000 		.4byte	.LFE47
 5112 0479 0400     		.2byte	0x4
 5113 047b F3       		.byte	0xf3
 5114 047c 01       		.uleb128 0x1
 5115 047d 50       		.byte	0x50
 5116 047e 9F       		.byte	0x9f
 5117 047f 00000000 		.4byte	0
 5118 0483 00000000 		.4byte	0
 5119              	.LLST25:
 5120 0487 00000000 		.4byte	.LVL64
 5121 048b 20000000 		.4byte	.LVL69
 5122 048f 0100     		.2byte	0x1
 5123 0491 51       		.byte	0x51
 5124 0492 20000000 		.4byte	.LVL69
 5125 0496 38000000 		.4byte	.LVL72
 5126 049a 0100     		.2byte	0x1
 5127 049c 56       		.byte	0x56
 5128 049d 38000000 		.4byte	.LVL72
 5129 04a1 3A000000 		.4byte	.LVL73
 5130 04a5 0100     		.2byte	0x1
 5131 04a7 51       		.byte	0x51
 5132 04a8 3A000000 		.4byte	.LVL73
 5133 04ac 48000000 		.4byte	.LVL77
 5134 04b0 0100     		.2byte	0x1
 5135 04b2 56       		.byte	0x56
 5136 04b3 48000000 		.4byte	.LVL77
 5137 04b7 4E000000 		.4byte	.LFE47
 5138 04bb 0400     		.2byte	0x4
 5139 04bd F3       		.byte	0xf3
 5140 04be 01       		.uleb128 0x1
 5141 04bf 51       		.byte	0x51
 5142 04c0 9F       		.byte	0x9f
 5143 04c1 00000000 		.4byte	0
 5144 04c5 00000000 		.4byte	0
 5145              	.LLST26:
 5146 04c9 00000000 		.4byte	.LVL64
 5147 04cd 1E000000 		.4byte	.LVL68
 5148 04d1 0100     		.2byte	0x1
 5149 04d3 52       		.byte	0x52
 5150 04d4 1E000000 		.4byte	.LVL68
 5151 04d8 38000000 		.4byte	.LVL72
 5152 04dc 0100     		.2byte	0x1
 5153 04de 57       		.byte	0x57
 5154 04df 38000000 		.4byte	.LVL72
 5155 04e3 3A000000 		.4byte	.LVL73
 5156 04e7 0100     		.2byte	0x1
 5157 04e9 52       		.byte	0x52
 5158 04ea 3A000000 		.4byte	.LVL73
 5159 04ee 48000000 		.4byte	.LVL78
 5160 04f2 0100     		.2byte	0x1
 5161 04f4 57       		.byte	0x57
 5162 04f5 48000000 		.4byte	.LVL78
ARM GAS  C:\Users\Phuong\AppData\Local\Temp\ccnrs5hd.s 			page 117


 5163 04f9 4E000000 		.4byte	.LFE47
 5164 04fd 0400     		.2byte	0x4
 5165 04ff F3       		.byte	0xf3
 5166 0500 01       		.uleb128 0x1
 5167 0501 52       		.byte	0x52
 5168 0502 9F       		.byte	0x9f
 5169 0503 00000000 		.4byte	0
 5170 0507 00000000 		.4byte	0
 5171              	.LLST27:
 5172 050b 00000000 		.4byte	.LVL64
 5173 050f 12000000 		.4byte	.LVL65
 5174 0513 0100     		.2byte	0x1
 5175 0515 53       		.byte	0x53
 5176 0516 12000000 		.4byte	.LVL65
 5177 051a 48000000 		.4byte	.LVL75
 5178 051e 0100     		.2byte	0x1
 5179 0520 54       		.byte	0x54
 5180 0521 00000000 		.4byte	0
 5181 0525 00000000 		.4byte	0
 5182              	.LLST28:
 5183 0529 1A000000 		.4byte	.LVL66
 5184 052d 1C000000 		.4byte	.LVL67
 5185 0531 0100     		.2byte	0x1
 5186 0533 53       		.byte	0x53
 5187 0534 1C000000 		.4byte	.LVL67
 5188 0538 38000000 		.4byte	.LVL72
 5189 053c 0100     		.2byte	0x1
 5190 053e 58       		.byte	0x58
 5191 053f 00000000 		.4byte	0
 5192 0543 00000000 		.4byte	0
 5193              	.LLST29:
 5194 0547 00000000 		.4byte	.LVL79
 5195 054b 20000000 		.4byte	.LVL81
 5196 054f 0100     		.2byte	0x1
 5197 0551 50       		.byte	0x50
 5198 0552 20000000 		.4byte	.LVL81
 5199 0556 3C000000 		.4byte	.LVL87
 5200 055a 0100     		.2byte	0x1
 5201 055c 56       		.byte	0x56
 5202 055d 3C000000 		.4byte	.LVL87
 5203 0561 3E000000 		.4byte	.LFE36
 5204 0565 0600     		.2byte	0x6
 5205 0567 F3       		.byte	0xf3
 5206 0568 01       		.uleb128 0x1
 5207 0569 50       		.byte	0x50
 5208 056a 23       		.byte	0x23
 5209 056b 01       		.uleb128 0x1
 5210 056c 9F       		.byte	0x9f
 5211 056d 00000000 		.4byte	0
 5212 0571 00000000 		.4byte	0
 5213              	.LLST30:
 5214 0575 00000000 		.4byte	.LVL79
 5215 0579 1E000000 		.4byte	.LVL80
 5216 057d 0100     		.2byte	0x1
 5217 057f 51       		.byte	0x51
 5218 0580 1E000000 		.4byte	.LVL80
 5219 0584 3C000000 		.4byte	.LVL86
ARM GAS  C:\Users\Phuong\AppData\Local\Temp\ccnrs5hd.s 			page 118


 5220 0588 0100     		.2byte	0x1
 5221 058a 55       		.byte	0x55
 5222 058b 00000000 		.4byte	0
 5223 058f 00000000 		.4byte	0
 5224              	.LLST31:
 5225 0593 00000000 		.4byte	.LVL79
 5226 0597 25000000 		.4byte	.LVL82-1
 5227 059b 0100     		.2byte	0x1
 5228 059d 52       		.byte	0x52
 5229 059e 25000000 		.4byte	.LVL82-1
 5230 05a2 3C000000 		.4byte	.LVL88
 5231 05a6 0100     		.2byte	0x1
 5232 05a8 57       		.byte	0x57
 5233 05a9 3C000000 		.4byte	.LVL88
 5234 05ad 3E000000 		.4byte	.LFE36
 5235 05b1 0400     		.2byte	0x4
 5236 05b3 F3       		.byte	0xf3
 5237 05b4 01       		.uleb128 0x1
 5238 05b5 52       		.byte	0x52
 5239 05b6 9F       		.byte	0x9f
 5240 05b7 00000000 		.4byte	0
 5241 05bb 00000000 		.4byte	0
 5242              	.LLST32:
 5243 05bf 28000000 		.4byte	.LVL83
 5244 05c3 37000000 		.4byte	.LVL84-1
 5245 05c7 0100     		.2byte	0x1
 5246 05c9 50       		.byte	0x50
 5247 05ca 37000000 		.4byte	.LVL84-1
 5248 05ce 3C000000 		.4byte	.LVL85
 5249 05d2 0100     		.2byte	0x1
 5250 05d4 54       		.byte	0x54
 5251 05d5 3C000000 		.4byte	.LVL85
 5252 05d9 3E000000 		.4byte	.LFE36
 5253 05dd 0100     		.2byte	0x1
 5254 05df 50       		.byte	0x50
 5255 05e0 00000000 		.4byte	0
 5256 05e4 00000000 		.4byte	0
 5257              	.LLST33:
 5258 05e8 00000000 		.4byte	.LVL89
 5259 05ec 13000000 		.4byte	.LVL91-1
 5260 05f0 0100     		.2byte	0x1
 5261 05f2 50       		.byte	0x50
 5262 05f3 13000000 		.4byte	.LVL91-1
 5263 05f7 16000000 		.4byte	.LVL92
 5264 05fb 0400     		.2byte	0x4
 5265 05fd F3       		.byte	0xf3
 5266 05fe 01       		.uleb128 0x1
 5267 05ff 50       		.byte	0x50
 5268 0600 9F       		.byte	0x9f
 5269 0601 16000000 		.4byte	.LVL92
 5270 0605 1D000000 		.4byte	.LVL93-1
 5271 0609 0100     		.2byte	0x1
 5272 060b 50       		.byte	0x50
 5273 060c 1D000000 		.4byte	.LVL93-1
 5274 0610 20000000 		.4byte	.LFE37
 5275 0614 0400     		.2byte	0x4
 5276 0616 F3       		.byte	0xf3
ARM GAS  C:\Users\Phuong\AppData\Local\Temp\ccnrs5hd.s 			page 119


 5277 0617 01       		.uleb128 0x1
 5278 0618 50       		.byte	0x50
 5279 0619 9F       		.byte	0x9f
 5280 061a 00000000 		.4byte	0
 5281 061e 00000000 		.4byte	0
 5282              	.LLST34:
 5283 0622 02000000 		.4byte	.LVL90
 5284 0626 13000000 		.4byte	.LVL91-1
 5285 062a 0100     		.2byte	0x1
 5286 062c 50       		.byte	0x50
 5287 062d 13000000 		.4byte	.LVL91-1
 5288 0631 16000000 		.4byte	.LVL92
 5289 0635 0400     		.2byte	0x4
 5290 0637 F3       		.byte	0xf3
 5291 0638 01       		.uleb128 0x1
 5292 0639 50       		.byte	0x50
 5293 063a 9F       		.byte	0x9f
 5294 063b 16000000 		.4byte	.LVL92
 5295 063f 1D000000 		.4byte	.LVL93-1
 5296 0643 0100     		.2byte	0x1
 5297 0645 50       		.byte	0x50
 5298 0646 1D000000 		.4byte	.LVL93-1
 5299 064a 20000000 		.4byte	.LFE37
 5300 064e 0400     		.2byte	0x4
 5301 0650 F3       		.byte	0xf3
 5302 0651 01       		.uleb128 0x1
 5303 0652 50       		.byte	0x50
 5304 0653 9F       		.byte	0x9f
 5305 0654 00000000 		.4byte	0
 5306 0658 00000000 		.4byte	0
 5307              	.LLST35:
 5308 065c 00000000 		.4byte	.LVL94
 5309 0660 30000000 		.4byte	.LVL99
 5310 0664 0100     		.2byte	0x1
 5311 0666 50       		.byte	0x50
 5312 0667 30000000 		.4byte	.LVL99
 5313 066b 3A000000 		.4byte	.LVL101
 5314 066f 0100     		.2byte	0x1
 5315 0671 54       		.byte	0x54
 5316 0672 3A000000 		.4byte	.LVL101
 5317 0676 3C000000 		.4byte	.LVL102
 5318 067a 0100     		.2byte	0x1
 5319 067c 50       		.byte	0x50
 5320 067d 3C000000 		.4byte	.LVL102
 5321 0681 3E000000 		.4byte	.LVL103
 5322 0685 0100     		.2byte	0x1
 5323 0687 54       		.byte	0x54
 5324 0688 3E000000 		.4byte	.LVL103
 5325 068c 40000000 		.4byte	.LVL104
 5326 0690 0100     		.2byte	0x1
 5327 0692 50       		.byte	0x50
 5328 0693 40000000 		.4byte	.LVL104
 5329 0697 42000000 		.4byte	.LVL105
 5330 069b 0100     		.2byte	0x1
 5331 069d 54       		.byte	0x54
 5332 069e 42000000 		.4byte	.LVL105
 5333 06a2 44000000 		.4byte	.LFE38
ARM GAS  C:\Users\Phuong\AppData\Local\Temp\ccnrs5hd.s 			page 120


 5334 06a6 0400     		.2byte	0x4
 5335 06a8 F3       		.byte	0xf3
 5336 06a9 01       		.uleb128 0x1
 5337 06aa 50       		.byte	0x50
 5338 06ab 9F       		.byte	0x9f
 5339 06ac 00000000 		.4byte	0
 5340 06b0 00000000 		.4byte	0
 5341              	.LLST36:
 5342 06b4 06000000 		.4byte	.LVL95
 5343 06b8 30000000 		.4byte	.LVL99
 5344 06bc 0100     		.2byte	0x1
 5345 06be 50       		.byte	0x50
 5346 06bf 30000000 		.4byte	.LVL99
 5347 06c3 3A000000 		.4byte	.LVL101
 5348 06c7 0100     		.2byte	0x1
 5349 06c9 54       		.byte	0x54
 5350 06ca 3A000000 		.4byte	.LVL101
 5351 06ce 3C000000 		.4byte	.LVL102
 5352 06d2 0100     		.2byte	0x1
 5353 06d4 50       		.byte	0x50
 5354 06d5 3C000000 		.4byte	.LVL102
 5355 06d9 3E000000 		.4byte	.LVL103
 5356 06dd 0100     		.2byte	0x1
 5357 06df 54       		.byte	0x54
 5358 06e0 3E000000 		.4byte	.LVL103
 5359 06e4 40000000 		.4byte	.LVL104
 5360 06e8 0100     		.2byte	0x1
 5361 06ea 50       		.byte	0x50
 5362 06eb 40000000 		.4byte	.LVL104
 5363 06ef 42000000 		.4byte	.LVL105
 5364 06f3 0100     		.2byte	0x1
 5365 06f5 54       		.byte	0x54
 5366 06f6 42000000 		.4byte	.LVL105
 5367 06fa 44000000 		.4byte	.LFE38
 5368 06fe 0400     		.2byte	0x4
 5369 0700 F3       		.byte	0xf3
 5370 0701 01       		.uleb128 0x1
 5371 0702 50       		.byte	0x50
 5372 0703 9F       		.byte	0x9f
 5373 0704 00000000 		.4byte	0
 5374 0708 00000000 		.4byte	0
 5375              	.LLST37:
 5376 070c 06000000 		.4byte	.LVL95
 5377 0710 34000000 		.4byte	.LVL100
 5378 0714 0200     		.2byte	0x2
 5379 0716 30       		.byte	0x30
 5380 0717 9F       		.byte	0x9f
 5381 0718 34000000 		.4byte	.LVL100
 5382 071c 3A000000 		.4byte	.LVL101
 5383 0720 0200     		.2byte	0x2
 5384 0722 31       		.byte	0x31
 5385 0723 9F       		.byte	0x9f
 5386 0724 3A000000 		.4byte	.LVL101
 5387 0728 40000000 		.4byte	.LVL104
 5388 072c 0200     		.2byte	0x2
 5389 072e 30       		.byte	0x30
 5390 072f 9F       		.byte	0x9f
ARM GAS  C:\Users\Phuong\AppData\Local\Temp\ccnrs5hd.s 			page 121


 5391 0730 40000000 		.4byte	.LVL104
 5392 0734 44000000 		.4byte	.LFE38
 5393 0738 0100     		.2byte	0x1
 5394 073a 50       		.byte	0x50
 5395 073b 00000000 		.4byte	0
 5396 073f 00000000 		.4byte	0
 5397              	.LLST38:
 5398 0743 26000000 		.4byte	.LVL97
 5399 0747 2A000000 		.4byte	.LVL98
 5400 074b 0100     		.2byte	0x1
 5401 074d 53       		.byte	0x53
 5402 074e 2A000000 		.4byte	.LVL98
 5403 0752 33000000 		.4byte	.LVL100-1
 5404 0756 0200     		.2byte	0x2
 5405 0758 7D       		.byte	0x7d
 5406 0759 00       		.sleb128 0
 5407 075a 00000000 		.4byte	0
 5408 075e 00000000 		.4byte	0
 5409              	.LLST39:
 5410 0762 0E000000 		.4byte	.LVL96
 5411 0766 42000000 		.4byte	.LVL106
 5412 076a 0100     		.2byte	0x1
 5413 076c 55       		.byte	0x55
 5414 076d 00000000 		.4byte	0
 5415 0771 00000000 		.4byte	0
 5416              	.LLST40:
 5417 0775 00000000 		.4byte	.LVL107
 5418 0779 18000000 		.4byte	.LVL110
 5419 077d 0100     		.2byte	0x1
 5420 077f 50       		.byte	0x50
 5421 0780 18000000 		.4byte	.LVL110
 5422 0784 1A000000 		.4byte	.LVL111
 5423 0788 0400     		.2byte	0x4
 5424 078a F3       		.byte	0xf3
 5425 078b 01       		.uleb128 0x1
 5426 078c 50       		.byte	0x50
 5427 078d 9F       		.byte	0x9f
 5428 078e 1A000000 		.4byte	.LVL111
 5429 0792 1C000000 		.4byte	.LVL112
 5430 0796 0100     		.2byte	0x1
 5431 0798 50       		.byte	0x50
 5432 0799 1C000000 		.4byte	.LVL112
 5433 079d 1E000000 		.4byte	.LFE39
 5434 07a1 0400     		.2byte	0x4
 5435 07a3 F3       		.byte	0xf3
 5436 07a4 01       		.uleb128 0x1
 5437 07a5 50       		.byte	0x50
 5438 07a6 9F       		.byte	0x9f
 5439 07a7 00000000 		.4byte	0
 5440 07ab 00000000 		.4byte	0
 5441              	.LLST41:
 5442 07af 00000000 		.4byte	.LVL107
 5443 07b3 0E000000 		.4byte	.LVL108
 5444 07b7 0100     		.2byte	0x1
 5445 07b9 51       		.byte	0x51
 5446 07ba 0E000000 		.4byte	.LVL108
 5447 07be 1E000000 		.4byte	.LFE39
ARM GAS  C:\Users\Phuong\AppData\Local\Temp\ccnrs5hd.s 			page 122


 5448 07c2 0100     		.2byte	0x1
 5449 07c4 51       		.byte	0x51
 5450 07c5 00000000 		.4byte	0
 5451 07c9 00000000 		.4byte	0
 5452              	.LLST42:
 5453 07cd 00000000 		.4byte	.LVL107
 5454 07d1 18000000 		.4byte	.LVL110
 5455 07d5 0100     		.2byte	0x1
 5456 07d7 50       		.byte	0x50
 5457 07d8 18000000 		.4byte	.LVL110
 5458 07dc 1A000000 		.4byte	.LVL111
 5459 07e0 0400     		.2byte	0x4
 5460 07e2 F3       		.byte	0xf3
 5461 07e3 01       		.uleb128 0x1
 5462 07e4 50       		.byte	0x50
 5463 07e5 9F       		.byte	0x9f
 5464 07e6 1A000000 		.4byte	.LVL111
 5465 07ea 1C000000 		.4byte	.LVL112
 5466 07ee 0100     		.2byte	0x1
 5467 07f0 50       		.byte	0x50
 5468 07f1 1C000000 		.4byte	.LVL112
 5469 07f5 1E000000 		.4byte	.LFE39
 5470 07f9 0400     		.2byte	0x4
 5471 07fb F3       		.byte	0xf3
 5472 07fc 01       		.uleb128 0x1
 5473 07fd 50       		.byte	0x50
 5474 07fe 9F       		.byte	0x9f
 5475 07ff 00000000 		.4byte	0
 5476 0803 00000000 		.4byte	0
 5477              	.LLST43:
 5478 0807 16000000 		.4byte	.LVL109
 5479 080b 1A000000 		.4byte	.LVL111
 5480 080f 0200     		.2byte	0x2
 5481 0811 31       		.byte	0x31
 5482 0812 9F       		.byte	0x9f
 5483 0813 1C000000 		.4byte	.LVL112
 5484 0817 1E000000 		.4byte	.LFE39
 5485 081b 0100     		.2byte	0x1
 5486 081d 50       		.byte	0x50
 5487 081e 00000000 		.4byte	0
 5488 0822 00000000 		.4byte	0
 5489              	.LLST44:
 5490 0826 00000000 		.4byte	.LVL113
 5491 082a 10000000 		.4byte	.LVL115
 5492 082e 0100     		.2byte	0x1
 5493 0830 50       		.byte	0x50
 5494 0831 10000000 		.4byte	.LVL115
 5495 0835 1C000000 		.4byte	.LFE40
 5496 0839 0400     		.2byte	0x4
 5497 083b F3       		.byte	0xf3
 5498 083c 01       		.uleb128 0x1
 5499 083d 50       		.byte	0x50
 5500 083e 9F       		.byte	0x9f
 5501 083f 00000000 		.4byte	0
 5502 0843 00000000 		.4byte	0
 5503              	.LLST45:
 5504 0847 00000000 		.4byte	.LVL113
ARM GAS  C:\Users\Phuong\AppData\Local\Temp\ccnrs5hd.s 			page 123


 5505 084b 10000000 		.4byte	.LVL115
 5506 084f 0100     		.2byte	0x1
 5507 0851 50       		.byte	0x50
 5508 0852 10000000 		.4byte	.LVL115
 5509 0856 1C000000 		.4byte	.LFE40
 5510 085a 0400     		.2byte	0x4
 5511 085c F3       		.byte	0xf3
 5512 085d 01       		.uleb128 0x1
 5513 085e 50       		.byte	0x50
 5514 085f 9F       		.byte	0x9f
 5515 0860 00000000 		.4byte	0
 5516 0864 00000000 		.4byte	0
 5517              	.LLST46:
 5518 0868 0E000000 		.4byte	.LVL114
 5519 086c 12000000 		.4byte	.LVL116
 5520 0870 0100     		.2byte	0x1
 5521 0872 53       		.byte	0x53
 5522 0873 12000000 		.4byte	.LVL116
 5523 0877 1C000000 		.4byte	.LFE40
 5524 087b 0100     		.2byte	0x1
 5525 087d 50       		.byte	0x50
 5526 087e 00000000 		.4byte	0
 5527 0882 00000000 		.4byte	0
 5528              	.LLST47:
 5529 0886 00000000 		.4byte	.LVL119
 5530 088a 0D000000 		.4byte	.LVL121-1
 5531 088e 0100     		.2byte	0x1
 5532 0890 50       		.byte	0x50
 5533 0891 0D000000 		.4byte	.LVL121-1
 5534 0895 10000000 		.4byte	.LFE41
 5535 0899 0400     		.2byte	0x4
 5536 089b F3       		.byte	0xf3
 5537 089c 01       		.uleb128 0x1
 5538 089d 50       		.byte	0x50
 5539 089e 9F       		.byte	0x9f
 5540 089f 00000000 		.4byte	0
 5541 08a3 00000000 		.4byte	0
 5542              	.LLST48:
 5543 08a7 02000000 		.4byte	.LVL120
 5544 08ab 0D000000 		.4byte	.LVL121-1
 5545 08af 0100     		.2byte	0x1
 5546 08b1 50       		.byte	0x50
 5547 08b2 0D000000 		.4byte	.LVL121-1
 5548 08b6 10000000 		.4byte	.LFE41
 5549 08ba 0400     		.2byte	0x4
 5550 08bc F3       		.byte	0xf3
 5551 08bd 01       		.uleb128 0x1
 5552 08be 50       		.byte	0x50
 5553 08bf 9F       		.byte	0x9f
 5554 08c0 00000000 		.4byte	0
 5555 08c4 00000000 		.4byte	0
 5556              	.LLST49:
 5557 08c8 00000000 		.4byte	.LVL122
 5558 08cc 30000000 		.4byte	.LVL128
 5559 08d0 0100     		.2byte	0x1
 5560 08d2 50       		.byte	0x50
 5561 08d3 30000000 		.4byte	.LVL128
ARM GAS  C:\Users\Phuong\AppData\Local\Temp\ccnrs5hd.s 			page 124


 5562 08d7 84000000 		.4byte	.LVL142
 5563 08db 0100     		.2byte	0x1
 5564 08dd 54       		.byte	0x54
 5565 08de 84000000 		.4byte	.LVL142
 5566 08e2 86000000 		.4byte	.LVL143
 5567 08e6 0100     		.2byte	0x1
 5568 08e8 50       		.byte	0x50
 5569 08e9 86000000 		.4byte	.LVL143
 5570 08ed D2000000 		.4byte	.LVL153
 5571 08f1 0100     		.2byte	0x1
 5572 08f3 54       		.byte	0x54
 5573 08f4 D2000000 		.4byte	.LVL153
 5574 08f8 D4000000 		.4byte	.LFE42
 5575 08fc 0400     		.2byte	0x4
 5576 08fe F3       		.byte	0xf3
 5577 08ff 01       		.uleb128 0x1
 5578 0900 50       		.byte	0x50
 5579 0901 9F       		.byte	0x9f
 5580 0902 00000000 		.4byte	0
 5581 0906 00000000 		.4byte	0
 5582              	.LLST50:
 5583 090a 00000000 		.4byte	.LVL122
 5584 090e 33000000 		.4byte	.LVL129-1
 5585 0912 0100     		.2byte	0x1
 5586 0914 51       		.byte	0x51
 5587 0915 33000000 		.4byte	.LVL129-1
 5588 0919 84000000 		.4byte	.LVL142
 5589 091d 0200     		.2byte	0x2
 5590 091f 91       		.byte	0x91
 5591 0920 58       		.sleb128 -40
 5592 0921 84000000 		.4byte	.LVL142
 5593 0925 86000000 		.4byte	.LVL143
 5594 0929 0100     		.2byte	0x1
 5595 092b 51       		.byte	0x51
 5596 092c 86000000 		.4byte	.LVL143
 5597 0930 D4000000 		.4byte	.LFE42
 5598 0934 0200     		.2byte	0x2
 5599 0936 91       		.byte	0x91
 5600 0937 58       		.sleb128 -40
 5601 0938 00000000 		.4byte	0
 5602 093c 00000000 		.4byte	0
 5603              	.LLST51:
 5604 0940 00000000 		.4byte	.LVL122
 5605 0944 33000000 		.4byte	.LVL129-1
 5606 0948 0100     		.2byte	0x1
 5607 094a 52       		.byte	0x52
 5608 094b 33000000 		.4byte	.LVL129-1
 5609 094f 84000000 		.4byte	.LVL142
 5610 0953 0100     		.2byte	0x1
 5611 0955 56       		.byte	0x56
 5612 0956 84000000 		.4byte	.LVL142
 5613 095a 86000000 		.4byte	.LVL143
 5614 095e 0100     		.2byte	0x1
 5615 0960 52       		.byte	0x52
 5616 0961 86000000 		.4byte	.LVL143
 5617 0965 D2000000 		.4byte	.LVL155
 5618 0969 0100     		.2byte	0x1
ARM GAS  C:\Users\Phuong\AppData\Local\Temp\ccnrs5hd.s 			page 125


 5619 096b 56       		.byte	0x56
 5620 096c D2000000 		.4byte	.LVL155
 5621 0970 D4000000 		.4byte	.LFE42
 5622 0974 0400     		.2byte	0x4
 5623 0976 F3       		.byte	0xf3
 5624 0977 01       		.uleb128 0x1
 5625 0978 52       		.byte	0x52
 5626 0979 9F       		.byte	0x9f
 5627 097a 00000000 		.4byte	0
 5628 097e 00000000 		.4byte	0
 5629              	.LLST52:
 5630 0982 00000000 		.4byte	.LVL122
 5631 0986 1E000000 		.4byte	.LVL124
 5632 098a 0100     		.2byte	0x1
 5633 098c 53       		.byte	0x53
 5634 098d 1E000000 		.4byte	.LVL124
 5635 0991 72000000 		.4byte	.LVL138
 5636 0995 0200     		.2byte	0x2
 5637 0997 91       		.byte	0x91
 5638 0998 5C       		.sleb128 -36
 5639 0999 72000000 		.4byte	.LVL138
 5640 099d 77000000 		.4byte	.LVL139-1
 5641 09a1 0200     		.2byte	0x2
 5642 09a3 71       		.byte	0x71
 5643 09a4 00       		.sleb128 0
 5644 09a5 77000000 		.4byte	.LVL139-1
 5645 09a9 D4000000 		.4byte	.LFE42
 5646 09ad 0200     		.2byte	0x2
 5647 09af 91       		.byte	0x91
 5648 09b0 5C       		.sleb128 -36
 5649 09b1 00000000 		.4byte	0
 5650 09b5 00000000 		.4byte	0
 5651              	.LLST53:
 5652 09b9 0C000000 		.4byte	.LVL123
 5653 09bd 30000000 		.4byte	.LVL128
 5654 09c1 0100     		.2byte	0x1
 5655 09c3 50       		.byte	0x50
 5656 09c4 30000000 		.4byte	.LVL128
 5657 09c8 84000000 		.4byte	.LVL142
 5658 09cc 0100     		.2byte	0x1
 5659 09ce 54       		.byte	0x54
 5660 09cf 84000000 		.4byte	.LVL142
 5661 09d3 86000000 		.4byte	.LVL143
 5662 09d7 0100     		.2byte	0x1
 5663 09d9 50       		.byte	0x50
 5664 09da 86000000 		.4byte	.LVL143
 5665 09de D2000000 		.4byte	.LVL153
 5666 09e2 0100     		.2byte	0x1
 5667 09e4 54       		.byte	0x54
 5668 09e5 D2000000 		.4byte	.LVL153
 5669 09e9 D4000000 		.4byte	.LFE42
 5670 09ed 0400     		.2byte	0x4
 5671 09ef F3       		.byte	0xf3
 5672 09f0 01       		.uleb128 0x1
 5673 09f1 50       		.byte	0x50
 5674 09f2 9F       		.byte	0x9f
 5675 09f3 00000000 		.4byte	0
ARM GAS  C:\Users\Phuong\AppData\Local\Temp\ccnrs5hd.s 			page 126


 5676 09f7 00000000 		.4byte	0
 5677              	.LLST54:
 5678 09fb A2000000 		.4byte	.LVL147
 5679 09ff A6000000 		.4byte	.LVL148
 5680 0a03 0100     		.2byte	0x1
 5681 0a05 50       		.byte	0x50
 5682 0a06 A6000000 		.4byte	.LVL148
 5683 0a0a D2000000 		.4byte	.LVL154
 5684 0a0e 0100     		.2byte	0x1
 5685 0a10 55       		.byte	0x55
 5686 0a11 D2000000 		.4byte	.LVL154
 5687 0a15 D4000000 		.4byte	.LFE42
 5688 0a19 0100     		.2byte	0x1
 5689 0a1b 50       		.byte	0x50
 5690 0a1c 00000000 		.4byte	0
 5691 0a20 00000000 		.4byte	0
 5692              	.LLST55:
 5693 0a24 0C000000 		.4byte	.LVL123
 5694 0a28 34000000 		.4byte	.LVL129
 5695 0a2c 0200     		.2byte	0x2
 5696 0a2e 30       		.byte	0x30
 5697 0a2f 9F       		.byte	0x9f
 5698 0a30 40000000 		.4byte	.LVL132
 5699 0a34 46000000 		.4byte	.LVL133
 5700 0a38 0100     		.2byte	0x1
 5701 0a3a 50       		.byte	0x50
 5702 0a3b 46000000 		.4byte	.LVL133
 5703 0a3f 7E000000 		.4byte	.LVL140
 5704 0a43 0100     		.2byte	0x1
 5705 0a45 55       		.byte	0x55
 5706 0a46 7E000000 		.4byte	.LVL140
 5707 0a4a 81000000 		.4byte	.LVL141-1
 5708 0a4e 0100     		.2byte	0x1
 5709 0a50 50       		.byte	0x50
 5710 0a51 81000000 		.4byte	.LVL141-1
 5711 0a55 84000000 		.4byte	.LVL142
 5712 0a59 0100     		.2byte	0x1
 5713 0a5b 55       		.byte	0x55
 5714 0a5c 84000000 		.4byte	.LVL142
 5715 0a60 86000000 		.4byte	.LVL143
 5716 0a64 0200     		.2byte	0x2
 5717 0a66 30       		.byte	0x30
 5718 0a67 9F       		.byte	0x9f
 5719 0a68 86000000 		.4byte	.LVL143
 5720 0a6c A2000000 		.4byte	.LVL147
 5721 0a70 0100     		.2byte	0x1
 5722 0a72 55       		.byte	0x55
 5723 0a73 00000000 		.4byte	0
 5724 0a77 00000000 		.4byte	0
 5725              	.LLST56:
 5726 0a7b 0C000000 		.4byte	.LVL123
 5727 0a7f 24000000 		.4byte	.LVL125
 5728 0a83 0100     		.2byte	0x1
 5729 0a85 52       		.byte	0x52
 5730 0a86 24000000 		.4byte	.LVL125
 5731 0a8a 26000000 		.4byte	.LVL126
 5732 0a8e 0100     		.2byte	0x1
ARM GAS  C:\Users\Phuong\AppData\Local\Temp\ccnrs5hd.s 			page 127


 5733 0a90 57       		.byte	0x57
 5734 0a91 26000000 		.4byte	.LVL126
 5735 0a95 28000000 		.4byte	.LVL127
 5736 0a99 0100     		.2byte	0x1
 5737 0a9b 52       		.byte	0x52
 5738 0a9c 28000000 		.4byte	.LVL127
 5739 0aa0 D2000000 		.4byte	.LVL156
 5740 0aa4 0100     		.2byte	0x1
 5741 0aa6 57       		.byte	0x57
 5742 0aa7 00000000 		.4byte	0
 5743 0aab 00000000 		.4byte	0
 5744              	.LLST57:
 5745 0aaf 00000000 		.4byte	.LVL157
 5746 0ab3 2E000000 		.4byte	.LVL163
 5747 0ab7 0100     		.2byte	0x1
 5748 0ab9 50       		.byte	0x50
 5749 0aba 2E000000 		.4byte	.LVL163
 5750 0abe 7A000000 		.4byte	.LVL176
 5751 0ac2 0100     		.2byte	0x1
 5752 0ac4 54       		.byte	0x54
 5753 0ac5 7A000000 		.4byte	.LVL176
 5754 0ac9 80000000 		.4byte	.LFE43
 5755 0acd 0400     		.2byte	0x4
 5756 0acf F3       		.byte	0xf3
 5757 0ad0 01       		.uleb128 0x1
 5758 0ad1 50       		.byte	0x50
 5759 0ad2 9F       		.byte	0x9f
 5760 0ad3 00000000 		.4byte	0
 5761 0ad7 00000000 		.4byte	0
 5762              	.LLST58:
 5763 0adb 00000000 		.4byte	.LVL157
 5764 0adf 31000000 		.4byte	.LVL164-1
 5765 0ae3 0100     		.2byte	0x1
 5766 0ae5 51       		.byte	0x51
 5767 0ae6 31000000 		.4byte	.LVL164-1
 5768 0aea 56000000 		.4byte	.LVL172
 5769 0aee 0100     		.2byte	0x1
 5770 0af0 56       		.byte	0x56
 5771 0af1 56000000 		.4byte	.LVL172
 5772 0af5 80000000 		.4byte	.LFE43
 5773 0af9 0400     		.2byte	0x4
 5774 0afb F3       		.byte	0xf3
 5775 0afc 01       		.uleb128 0x1
 5776 0afd 51       		.byte	0x51
 5777 0afe 9F       		.byte	0x9f
 5778 0aff 00000000 		.4byte	0
 5779 0b03 00000000 		.4byte	0
 5780              	.LLST59:
 5781 0b07 00000000 		.4byte	.LVL157
 5782 0b0b 31000000 		.4byte	.LVL164-1
 5783 0b0f 0100     		.2byte	0x1
 5784 0b11 52       		.byte	0x52
 5785 0b12 31000000 		.4byte	.LVL164-1
 5786 0b16 42000000 		.4byte	.LVL168
 5787 0b1a 0100     		.2byte	0x1
 5788 0b1c 55       		.byte	0x55
 5789 0b1d 42000000 		.4byte	.LVL168
ARM GAS  C:\Users\Phuong\AppData\Local\Temp\ccnrs5hd.s 			page 128


 5790 0b21 80000000 		.4byte	.LFE43
 5791 0b25 0400     		.2byte	0x4
 5792 0b27 F3       		.byte	0xf3
 5793 0b28 01       		.uleb128 0x1
 5794 0b29 52       		.byte	0x52
 5795 0b2a 9F       		.byte	0x9f
 5796 0b2b 00000000 		.4byte	0
 5797 0b2f 00000000 		.4byte	0
 5798              	.LLST60:
 5799 0b33 00000000 		.4byte	.LVL157
 5800 0b37 22000000 		.4byte	.LVL159
 5801 0b3b 0100     		.2byte	0x1
 5802 0b3d 53       		.byte	0x53
 5803 0b3e 22000000 		.4byte	.LVL159
 5804 0b42 7A000000 		.4byte	.LVL179
 5805 0b46 0100     		.2byte	0x1
 5806 0b48 58       		.byte	0x58
 5807 0b49 7A000000 		.4byte	.LVL179
 5808 0b4d 80000000 		.4byte	.LFE43
 5809 0b51 0400     		.2byte	0x4
 5810 0b53 F3       		.byte	0xf3
 5811 0b54 01       		.uleb128 0x1
 5812 0b55 53       		.byte	0x53
 5813 0b56 9F       		.byte	0x9f
 5814 0b57 00000000 		.4byte	0
 5815 0b5b 00000000 		.4byte	0
 5816              	.LLST61:
 5817 0b5f 10000000 		.4byte	.LVL158
 5818 0b63 2E000000 		.4byte	.LVL163
 5819 0b67 0100     		.2byte	0x1
 5820 0b69 50       		.byte	0x50
 5821 0b6a 2E000000 		.4byte	.LVL163
 5822 0b6e 7A000000 		.4byte	.LVL176
 5823 0b72 0100     		.2byte	0x1
 5824 0b74 54       		.byte	0x54
 5825 0b75 7A000000 		.4byte	.LVL176
 5826 0b79 80000000 		.4byte	.LFE43
 5827 0b7d 0400     		.2byte	0x4
 5828 0b7f F3       		.byte	0xf3
 5829 0b80 01       		.uleb128 0x1
 5830 0b81 50       		.byte	0x50
 5831 0b82 9F       		.byte	0x9f
 5832 0b83 00000000 		.4byte	0
 5833 0b87 00000000 		.4byte	0
 5834              	.LLST62:
 5835 0b8b 42000000 		.4byte	.LVL168
 5836 0b8f 46000000 		.4byte	.LVL169
 5837 0b93 0100     		.2byte	0x1
 5838 0b95 50       		.byte	0x50
 5839 0b96 46000000 		.4byte	.LVL169
 5840 0b9a 7A000000 		.4byte	.LVL177
 5841 0b9e 0100     		.2byte	0x1
 5842 0ba0 55       		.byte	0x55
 5843 0ba1 7A000000 		.4byte	.LVL177
 5844 0ba5 80000000 		.4byte	.LFE43
 5845 0ba9 0100     		.2byte	0x1
 5846 0bab 50       		.byte	0x50
ARM GAS  C:\Users\Phuong\AppData\Local\Temp\ccnrs5hd.s 			page 129


 5847 0bac 00000000 		.4byte	0
 5848 0bb0 00000000 		.4byte	0
 5849              	.LLST63:
 5850 0bb4 34000000 		.4byte	.LVL165
 5851 0bb8 3C000000 		.4byte	.LVL166
 5852 0bbc 0100     		.2byte	0x1
 5853 0bbe 50       		.byte	0x50
 5854 0bbf 3C000000 		.4byte	.LVL166
 5855 0bc3 3F000000 		.4byte	.LVL167-1
 5856 0bc7 0100     		.2byte	0x1
 5857 0bc9 53       		.byte	0x53
 5858 0bca 00000000 		.4byte	0
 5859 0bce 00000000 		.4byte	0
 5860              	.LLST64:
 5861 0bd2 10000000 		.4byte	.LVL158
 5862 0bd6 28000000 		.4byte	.LVL160
 5863 0bda 0100     		.2byte	0x1
 5864 0bdc 52       		.byte	0x52
 5865 0bdd 28000000 		.4byte	.LVL160
 5866 0be1 2A000000 		.4byte	.LVL161
 5867 0be5 0100     		.2byte	0x1
 5868 0be7 57       		.byte	0x57
 5869 0be8 2A000000 		.4byte	.LVL161
 5870 0bec 2C000000 		.4byte	.LVL162
 5871 0bf0 0100     		.2byte	0x1
 5872 0bf2 52       		.byte	0x52
 5873 0bf3 2C000000 		.4byte	.LVL162
 5874 0bf7 7A000000 		.4byte	.LVL178
 5875 0bfb 0100     		.2byte	0x1
 5876 0bfd 57       		.byte	0x57
 5877 0bfe 00000000 		.4byte	0
 5878 0c02 00000000 		.4byte	0
 5879              	.LLST65:
 5880 0c06 56000000 		.4byte	.LVL172
 5881 0c0a 5E000000 		.4byte	.LVL173
 5882 0c0e 0100     		.2byte	0x1
 5883 0c10 50       		.byte	0x50
 5884 0c11 5E000000 		.4byte	.LVL173
 5885 0c15 76000000 		.4byte	.LVL175
 5886 0c19 0100     		.2byte	0x1
 5887 0c1b 56       		.byte	0x56
 5888 0c1c 00000000 		.4byte	0
 5889 0c20 00000000 		.4byte	0
 5890              	.LLST66:
 5891 0c24 00000000 		.4byte	.LVL180
 5892 0c28 2F000000 		.4byte	.LVL184-1
 5893 0c2c 0100     		.2byte	0x1
 5894 0c2e 50       		.byte	0x50
 5895 0c2f 2F000000 		.4byte	.LVL184-1
 5896 0c33 76000000 		.4byte	.LVL194
 5897 0c37 0100     		.2byte	0x1
 5898 0c39 54       		.byte	0x54
 5899 0c3a 76000000 		.4byte	.LVL194
 5900 0c3e 78000000 		.4byte	.LVL195
 5901 0c42 0100     		.2byte	0x1
 5902 0c44 50       		.byte	0x50
 5903 0c45 78000000 		.4byte	.LVL195
ARM GAS  C:\Users\Phuong\AppData\Local\Temp\ccnrs5hd.s 			page 130


 5904 0c49 BA000000 		.4byte	.LVL205
 5905 0c4d 0100     		.2byte	0x1
 5906 0c4f 54       		.byte	0x54
 5907 0c50 BA000000 		.4byte	.LVL205
 5908 0c54 BC000000 		.4byte	.LFE45
 5909 0c58 0400     		.2byte	0x4
 5910 0c5a F3       		.byte	0xf3
 5911 0c5b 01       		.uleb128 0x1
 5912 0c5c 50       		.byte	0x50
 5913 0c5d 9F       		.byte	0x9f
 5914 0c5e 00000000 		.4byte	0
 5915 0c62 00000000 		.4byte	0
 5916              	.LLST67:
 5917 0c66 00000000 		.4byte	.LVL180
 5918 0c6a 2F000000 		.4byte	.LVL184-1
 5919 0c6e 0100     		.2byte	0x1
 5920 0c70 51       		.byte	0x51
 5921 0c71 2F000000 		.4byte	.LVL184-1
 5922 0c75 76000000 		.4byte	.LVL194
 5923 0c79 0200     		.2byte	0x2
 5924 0c7b 91       		.byte	0x91
 5925 0c7c 60       		.sleb128 -32
 5926 0c7d 76000000 		.4byte	.LVL194
 5927 0c81 7B000000 		.4byte	.LVL196-1
 5928 0c85 0100     		.2byte	0x1
 5929 0c87 51       		.byte	0x51
 5930 0c88 7B000000 		.4byte	.LVL196-1
 5931 0c8c BC000000 		.4byte	.LFE45
 5932 0c90 0200     		.2byte	0x2
 5933 0c92 91       		.byte	0x91
 5934 0c93 60       		.sleb128 -32
 5935 0c94 00000000 		.4byte	0
 5936 0c98 00000000 		.4byte	0
 5937              	.LLST68:
 5938 0c9c 00000000 		.4byte	.LVL180
 5939 0ca0 2F000000 		.4byte	.LVL184-1
 5940 0ca4 0100     		.2byte	0x1
 5941 0ca6 52       		.byte	0x52
 5942 0ca7 2F000000 		.4byte	.LVL184-1
 5943 0cab 76000000 		.4byte	.LVL194
 5944 0caf 0200     		.2byte	0x2
 5945 0cb1 91       		.byte	0x91
 5946 0cb2 64       		.sleb128 -28
 5947 0cb3 76000000 		.4byte	.LVL194
 5948 0cb7 7B000000 		.4byte	.LVL196-1
 5949 0cbb 0100     		.2byte	0x1
 5950 0cbd 52       		.byte	0x52
 5951 0cbe 7B000000 		.4byte	.LVL196-1
 5952 0cc2 BC000000 		.4byte	.LFE45
 5953 0cc6 0200     		.2byte	0x2
 5954 0cc8 91       		.byte	0x91
 5955 0cc9 64       		.sleb128 -28
 5956 0cca 00000000 		.4byte	0
 5957 0cce 00000000 		.4byte	0
 5958              	.LLST69:
 5959 0cd2 00000000 		.4byte	.LVL180
 5960 0cd6 1E000000 		.4byte	.LVL182
ARM GAS  C:\Users\Phuong\AppData\Local\Temp\ccnrs5hd.s 			page 131


 5961 0cda 0100     		.2byte	0x1
 5962 0cdc 53       		.byte	0x53
 5963 0cdd 1E000000 		.4byte	.LVL182
 5964 0ce1 BA000000 		.4byte	.LVL207
 5965 0ce5 0100     		.2byte	0x1
 5966 0ce7 56       		.byte	0x56
 5967 0ce8 BA000000 		.4byte	.LVL207
 5968 0cec BC000000 		.4byte	.LFE45
 5969 0cf0 0400     		.2byte	0x4
 5970 0cf2 F3       		.byte	0xf3
 5971 0cf3 01       		.uleb128 0x1
 5972 0cf4 53       		.byte	0x53
 5973 0cf5 9F       		.byte	0x9f
 5974 0cf6 00000000 		.4byte	0
 5975 0cfa 00000000 		.4byte	0
 5976              	.LLST70:
 5977 0cfe 0C000000 		.4byte	.LVL181
 5978 0d02 2F000000 		.4byte	.LVL184-1
 5979 0d06 0100     		.2byte	0x1
 5980 0d08 50       		.byte	0x50
 5981 0d09 2F000000 		.4byte	.LVL184-1
 5982 0d0d 76000000 		.4byte	.LVL194
 5983 0d11 0100     		.2byte	0x1
 5984 0d13 54       		.byte	0x54
 5985 0d14 76000000 		.4byte	.LVL194
 5986 0d18 78000000 		.4byte	.LVL195
 5987 0d1c 0100     		.2byte	0x1
 5988 0d1e 50       		.byte	0x50
 5989 0d1f 78000000 		.4byte	.LVL195
 5990 0d23 BA000000 		.4byte	.LVL205
 5991 0d27 0100     		.2byte	0x1
 5992 0d29 54       		.byte	0x54
 5993 0d2a BA000000 		.4byte	.LVL205
 5994 0d2e BC000000 		.4byte	.LFE45
 5995 0d32 0400     		.2byte	0x4
 5996 0d34 F3       		.byte	0xf3
 5997 0d35 01       		.uleb128 0x1
 5998 0d36 50       		.byte	0x50
 5999 0d37 9F       		.byte	0x9f
 6000 0d38 00000000 		.4byte	0
 6001 0d3c 00000000 		.4byte	0
 6002              	.LLST71:
 6003 0d40 0C000000 		.4byte	.LVL181
 6004 0d44 92000000 		.4byte	.LVL199
 6005 0d48 0200     		.2byte	0x2
 6006 0d4a 30       		.byte	0x30
 6007 0d4b 9F       		.byte	0x9f
 6008 0d4c 92000000 		.4byte	.LVL199
 6009 0d50 97000000 		.4byte	.LVL200-1
 6010 0d54 0100     		.2byte	0x1
 6011 0d56 50       		.byte	0x50
 6012 0d57 97000000 		.4byte	.LVL200-1
 6013 0d5b B4000000 		.4byte	.LVL203
 6014 0d5f 0100     		.2byte	0x1
 6015 0d61 55       		.byte	0x55
 6016 0d62 B4000000 		.4byte	.LVL203
 6017 0d66 B6000000 		.4byte	.LVL204
ARM GAS  C:\Users\Phuong\AppData\Local\Temp\ccnrs5hd.s 			page 132


 6018 0d6a 0200     		.2byte	0x2
 6019 0d6c 30       		.byte	0x30
 6020 0d6d 9F       		.byte	0x9f
 6021 0d6e B6000000 		.4byte	.LVL204
 6022 0d72 BA000000 		.4byte	.LVL206
 6023 0d76 0100     		.2byte	0x1
 6024 0d78 55       		.byte	0x55
 6025 0d79 BA000000 		.4byte	.LVL206
 6026 0d7d BC000000 		.4byte	.LFE45
 6027 0d81 0100     		.2byte	0x1
 6028 0d83 50       		.byte	0x50
 6029 0d84 00000000 		.4byte	0
 6030 0d88 00000000 		.4byte	0
 6031              	.LLST72:
 6032 0d8c 38000000 		.4byte	.LVL186
 6033 0d90 3E000000 		.4byte	.LVL187
 6034 0d94 0100     		.2byte	0x1
 6035 0d96 50       		.byte	0x50
 6036 0d97 3E000000 		.4byte	.LVL187
 6037 0d9b 74000000 		.4byte	.LVL193
 6038 0d9f 0100     		.2byte	0x1
 6039 0da1 57       		.byte	0x57
 6040 0da2 74000000 		.4byte	.LVL193
 6041 0da6 76000000 		.4byte	.LVL194
 6042 0daa 0100     		.2byte	0x1
 6043 0dac 50       		.byte	0x50
 6044 0dad 7E000000 		.4byte	.LVL197
 6045 0db1 BA000000 		.4byte	.LVL208
 6046 0db5 0100     		.2byte	0x1
 6047 0db7 57       		.byte	0x57
 6048 0db8 00000000 		.4byte	0
 6049 0dbc 00000000 		.4byte	0
 6050              	.LLST73:
 6051 0dc0 28000000 		.4byte	.LVL183
 6052 0dc4 92000000 		.4byte	.LVL199
 6053 0dc8 0100     		.2byte	0x1
 6054 0dca 55       		.byte	0x55
 6055 0dcb B4000000 		.4byte	.LVL203
 6056 0dcf B6000000 		.4byte	.LVL204
 6057 0dd3 0100     		.2byte	0x1
 6058 0dd5 55       		.byte	0x55
 6059 0dd6 00000000 		.4byte	0
 6060 0dda 00000000 		.4byte	0
 6061              	.LLST74:
 6062 0dde 00000000 		.4byte	.LVL209
 6063 0de2 2A000000 		.4byte	.LVL213
 6064 0de6 0100     		.2byte	0x1
 6065 0de8 50       		.byte	0x50
 6066 0de9 2A000000 		.4byte	.LVL213
 6067 0ded 70000000 		.4byte	.LVL226
 6068 0df1 0100     		.2byte	0x1
 6069 0df3 54       		.byte	0x54
 6070 0df4 70000000 		.4byte	.LVL226
 6071 0df8 72000000 		.4byte	.LFE46
 6072 0dfc 0400     		.2byte	0x4
 6073 0dfe F3       		.byte	0xf3
 6074 0dff 01       		.uleb128 0x1
ARM GAS  C:\Users\Phuong\AppData\Local\Temp\ccnrs5hd.s 			page 133


 6075 0e00 50       		.byte	0x50
 6076 0e01 9F       		.byte	0x9f
 6077 0e02 00000000 		.4byte	0
 6078 0e06 00000000 		.4byte	0
 6079              	.LLST75:
 6080 0e0a 00000000 		.4byte	.LVL209
 6081 0e0e 2D000000 		.4byte	.LVL214-1
 6082 0e12 0100     		.2byte	0x1
 6083 0e14 51       		.byte	0x51
 6084 0e15 2D000000 		.4byte	.LVL214-1
 6085 0e19 4A000000 		.4byte	.LVL220
 6086 0e1d 0100     		.2byte	0x1
 6087 0e1f 56       		.byte	0x56
 6088 0e20 4A000000 		.4byte	.LVL220
 6089 0e24 6A000000 		.4byte	.LVL224
 6090 0e28 0400     		.2byte	0x4
 6091 0e2a F3       		.byte	0xf3
 6092 0e2b 01       		.uleb128 0x1
 6093 0e2c 51       		.byte	0x51
 6094 0e2d 9F       		.byte	0x9f
 6095 0e2e 6A000000 		.4byte	.LVL224
 6096 0e32 6C000000 		.4byte	.LVL225
 6097 0e36 0100     		.2byte	0x1
 6098 0e38 56       		.byte	0x56
 6099 0e39 6C000000 		.4byte	.LVL225
 6100 0e3d 72000000 		.4byte	.LFE46
 6101 0e41 0400     		.2byte	0x4
 6102 0e43 F3       		.byte	0xf3
 6103 0e44 01       		.uleb128 0x1
 6104 0e45 51       		.byte	0x51
 6105 0e46 9F       		.byte	0x9f
 6106 0e47 00000000 		.4byte	0
 6107 0e4b 00000000 		.4byte	0
 6108              	.LLST76:
 6109 0e4f 00000000 		.4byte	.LVL209
 6110 0e53 2D000000 		.4byte	.LVL214-1
 6111 0e57 0100     		.2byte	0x1
 6112 0e59 52       		.byte	0x52
 6113 0e5a 2D000000 		.4byte	.LVL214-1
 6114 0e5e 72000000 		.4byte	.LFE46
 6115 0e62 0200     		.2byte	0x2
 6116 0e64 91       		.byte	0x91
 6117 0e65 64       		.sleb128 -28
 6118 0e66 00000000 		.4byte	0
 6119 0e6a 00000000 		.4byte	0
 6120              	.LLST77:
 6121 0e6e 00000000 		.4byte	.LVL209
 6122 0e72 1E000000 		.4byte	.LVL211
 6123 0e76 0100     		.2byte	0x1
 6124 0e78 53       		.byte	0x53
 6125 0e79 1E000000 		.4byte	.LVL211
 6126 0e7d 70000000 		.4byte	.LVL228
 6127 0e81 0100     		.2byte	0x1
 6128 0e83 57       		.byte	0x57
 6129 0e84 70000000 		.4byte	.LVL228
 6130 0e88 72000000 		.4byte	.LFE46
 6131 0e8c 0400     		.2byte	0x4
ARM GAS  C:\Users\Phuong\AppData\Local\Temp\ccnrs5hd.s 			page 134


 6132 0e8e F3       		.byte	0xf3
 6133 0e8f 01       		.uleb128 0x1
 6134 0e90 53       		.byte	0x53
 6135 0e91 9F       		.byte	0x9f
 6136 0e92 00000000 		.4byte	0
 6137 0e96 00000000 		.4byte	0
 6138              	.LLST78:
 6139 0e9a 0C000000 		.4byte	.LVL210
 6140 0e9e 2A000000 		.4byte	.LVL213
 6141 0ea2 0100     		.2byte	0x1
 6142 0ea4 50       		.byte	0x50
 6143 0ea5 2A000000 		.4byte	.LVL213
 6144 0ea9 70000000 		.4byte	.LVL226
 6145 0ead 0100     		.2byte	0x1
 6146 0eaf 54       		.byte	0x54
 6147 0eb0 70000000 		.4byte	.LVL226
 6148 0eb4 72000000 		.4byte	.LFE46
 6149 0eb8 0400     		.2byte	0x4
 6150 0eba F3       		.byte	0xf3
 6151 0ebb 01       		.uleb128 0x1
 6152 0ebc 50       		.byte	0x50
 6153 0ebd 9F       		.byte	0x9f
 6154 0ebe 00000000 		.4byte	0
 6155 0ec2 00000000 		.4byte	0
 6156              	.LLST79:
 6157 0ec6 0C000000 		.4byte	.LVL210
 6158 0eca 42000000 		.4byte	.LVL218
 6159 0ece 0200     		.2byte	0x2
 6160 0ed0 30       		.byte	0x30
 6161 0ed1 9F       		.byte	0x9f
 6162 0ed2 42000000 		.4byte	.LVL218
 6163 0ed6 47000000 		.4byte	.LVL219-1
 6164 0eda 0100     		.2byte	0x1
 6165 0edc 50       		.byte	0x50
 6166 0edd 47000000 		.4byte	.LVL219-1
 6167 0ee1 6A000000 		.4byte	.LVL224
 6168 0ee5 0100     		.2byte	0x1
 6169 0ee7 55       		.byte	0x55
 6170 0ee8 6A000000 		.4byte	.LVL224
 6171 0eec 6C000000 		.4byte	.LVL225
 6172 0ef0 0200     		.2byte	0x2
 6173 0ef2 30       		.byte	0x30
 6174 0ef3 9F       		.byte	0x9f
 6175 0ef4 6C000000 		.4byte	.LVL225
 6176 0ef8 70000000 		.4byte	.LVL227
 6177 0efc 0100     		.2byte	0x1
 6178 0efe 55       		.byte	0x55
 6179 0eff 70000000 		.4byte	.LVL227
 6180 0f03 72000000 		.4byte	.LFE46
 6181 0f07 0100     		.2byte	0x1
 6182 0f09 50       		.byte	0x50
 6183 0f0a 00000000 		.4byte	0
 6184 0f0e 00000000 		.4byte	0
 6185              	.LLST80:
 6186 0f12 30000000 		.4byte	.LVL215
 6187 0f16 3C000000 		.4byte	.LVL216
 6188 0f1a 0100     		.2byte	0x1
ARM GAS  C:\Users\Phuong\AppData\Local\Temp\ccnrs5hd.s 			page 135


 6189 0f1c 50       		.byte	0x50
 6190 0f1d 3C000000 		.4byte	.LVL216
 6191 0f21 3F000000 		.4byte	.LVL217-1
 6192 0f25 0100     		.2byte	0x1
 6193 0f27 53       		.byte	0x53
 6194 0f28 6A000000 		.4byte	.LVL224
 6195 0f2c 6C000000 		.4byte	.LVL225
 6196 0f30 0100     		.2byte	0x1
 6197 0f32 50       		.byte	0x50
 6198 0f33 00000000 		.4byte	0
 6199 0f37 00000000 		.4byte	0
 6200              	.LLST81:
 6201 0f3b 28000000 		.4byte	.LVL212
 6202 0f3f 42000000 		.4byte	.LVL218
 6203 0f43 0100     		.2byte	0x1
 6204 0f45 55       		.byte	0x55
 6205 0f46 6A000000 		.4byte	.LVL224
 6206 0f4a 6C000000 		.4byte	.LVL225
 6207 0f4e 0100     		.2byte	0x1
 6208 0f50 55       		.byte	0x55
 6209 0f51 00000000 		.4byte	0
 6210 0f55 00000000 		.4byte	0
 6211              	.LLST82:
 6212 0f59 4A000000 		.4byte	.LVL220
 6213 0f5d 52000000 		.4byte	.LVL221
 6214 0f61 0100     		.2byte	0x1
 6215 0f63 50       		.byte	0x50
 6216 0f64 52000000 		.4byte	.LVL221
 6217 0f68 6A000000 		.4byte	.LVL224
 6218 0f6c 0100     		.2byte	0x1
 6219 0f6e 56       		.byte	0x56
 6220 0f6f 00000000 		.4byte	0
 6221 0f73 00000000 		.4byte	0
 6222              	.LLST83:
 6223 0f77 00000000 		.4byte	.LVL229
 6224 0f7b 12000000 		.4byte	.LVL231
 6225 0f7f 0100     		.2byte	0x1
 6226 0f81 50       		.byte	0x50
 6227 0f82 12000000 		.4byte	.LVL231
 6228 0f86 14000000 		.4byte	.LVL232
 6229 0f8a 0400     		.2byte	0x4
 6230 0f8c F3       		.byte	0xf3
 6231 0f8d 01       		.uleb128 0x1
 6232 0f8e 50       		.byte	0x50
 6233 0f8f 9F       		.byte	0x9f
 6234 0f90 14000000 		.4byte	.LVL232
 6235 0f94 16000000 		.4byte	.LVL233
 6236 0f98 0100     		.2byte	0x1
 6237 0f9a 50       		.byte	0x50
 6238 0f9b 16000000 		.4byte	.LVL233
 6239 0f9f 18000000 		.4byte	.LFE48
 6240 0fa3 0400     		.2byte	0x4
 6241 0fa5 F3       		.byte	0xf3
 6242 0fa6 01       		.uleb128 0x1
 6243 0fa7 50       		.byte	0x50
 6244 0fa8 9F       		.byte	0x9f
 6245 0fa9 00000000 		.4byte	0
ARM GAS  C:\Users\Phuong\AppData\Local\Temp\ccnrs5hd.s 			page 136


 6246 0fad 00000000 		.4byte	0
 6247              	.LLST84:
 6248 0fb1 00000000 		.4byte	.LVL229
 6249 0fb5 12000000 		.4byte	.LVL231
 6250 0fb9 0100     		.2byte	0x1
 6251 0fbb 50       		.byte	0x50
 6252 0fbc 12000000 		.4byte	.LVL231
 6253 0fc0 14000000 		.4byte	.LVL232
 6254 0fc4 0400     		.2byte	0x4
 6255 0fc6 F3       		.byte	0xf3
 6256 0fc7 01       		.uleb128 0x1
 6257 0fc8 50       		.byte	0x50
 6258 0fc9 9F       		.byte	0x9f
 6259 0fca 14000000 		.4byte	.LVL232
 6260 0fce 16000000 		.4byte	.LVL233
 6261 0fd2 0100     		.2byte	0x1
 6262 0fd4 50       		.byte	0x50
 6263 0fd5 16000000 		.4byte	.LVL233
 6264 0fd9 18000000 		.4byte	.LFE48
 6265 0fdd 0400     		.2byte	0x4
 6266 0fdf F3       		.byte	0xf3
 6267 0fe0 01       		.uleb128 0x1
 6268 0fe1 50       		.byte	0x50
 6269 0fe2 9F       		.byte	0x9f
 6270 0fe3 00000000 		.4byte	0
 6271 0fe7 00000000 		.4byte	0
 6272              	.LLST85:
 6273 0feb 00000000 		.4byte	.LVL234
 6274 0fef 19000000 		.4byte	.LVL237-1
 6275 0ff3 0100     		.2byte	0x1
 6276 0ff5 50       		.byte	0x50
 6277 0ff6 19000000 		.4byte	.LVL237-1
 6278 0ffa 26000000 		.4byte	.LFE49
 6279 0ffe 0400     		.2byte	0x4
 6280 1000 F3       		.byte	0xf3
 6281 1001 01       		.uleb128 0x1
 6282 1002 50       		.byte	0x50
 6283 1003 9F       		.byte	0x9f
 6284 1004 00000000 		.4byte	0
 6285 1008 00000000 		.4byte	0
 6286              	.LLST86:
 6287 100c 16000000 		.4byte	.LVL236
 6288 1010 24000000 		.4byte	.LVL239
 6289 1014 0100     		.2byte	0x1
 6290 1016 54       		.byte	0x54
 6291 1017 00000000 		.4byte	0
 6292 101b 00000000 		.4byte	0
 6293              	.LLST87:
 6294 101f 02000000 		.4byte	.LVL235
 6295 1023 19000000 		.4byte	.LVL237-1
 6296 1027 0100     		.2byte	0x1
 6297 1029 50       		.byte	0x50
 6298 102a 19000000 		.4byte	.LVL237-1
 6299 102e 26000000 		.4byte	.LFE49
 6300 1032 0400     		.2byte	0x4
 6301 1034 F3       		.byte	0xf3
 6302 1035 01       		.uleb128 0x1
ARM GAS  C:\Users\Phuong\AppData\Local\Temp\ccnrs5hd.s 			page 137


 6303 1036 50       		.byte	0x50
 6304 1037 9F       		.byte	0x9f
 6305 1038 00000000 		.4byte	0
 6306 103c 00000000 		.4byte	0
 6307              	.LLST88:
 6308 1040 00000000 		.4byte	.LVL240
 6309 1044 13000000 		.4byte	.LVL242-1
 6310 1048 0100     		.2byte	0x1
 6311 104a 50       		.byte	0x50
 6312 104b 13000000 		.4byte	.LVL242-1
 6313 104f 30000000 		.4byte	.LVL247
 6314 1053 0100     		.2byte	0x1
 6315 1055 54       		.byte	0x54
 6316 1056 30000000 		.4byte	.LVL247
 6317 105a 32000000 		.4byte	.LVL248
 6318 105e 0400     		.2byte	0x4
 6319 1060 F3       		.byte	0xf3
 6320 1061 01       		.uleb128 0x1
 6321 1062 50       		.byte	0x50
 6322 1063 9F       		.byte	0x9f
 6323 1064 32000000 		.4byte	.LVL248
 6324 1068 34000000 		.4byte	.LVL249
 6325 106c 0100     		.2byte	0x1
 6326 106e 54       		.byte	0x54
 6327 106f 34000000 		.4byte	.LVL249
 6328 1073 40000000 		.4byte	.LFE50
 6329 1077 0400     		.2byte	0x4
 6330 1079 F3       		.byte	0xf3
 6331 107a 01       		.uleb128 0x1
 6332 107b 50       		.byte	0x50
 6333 107c 9F       		.byte	0x9f
 6334 107d 00000000 		.4byte	0
 6335 1081 00000000 		.4byte	0
 6336              	.LLST89:
 6337 1085 00000000 		.4byte	.LVL240
 6338 1089 13000000 		.4byte	.LVL242-1
 6339 108d 0100     		.2byte	0x1
 6340 108f 51       		.byte	0x51
 6341 1090 13000000 		.4byte	.LVL242-1
 6342 1094 3E000000 		.4byte	.LVL253
 6343 1098 0100     		.2byte	0x1
 6344 109a 56       		.byte	0x56
 6345 109b 3E000000 		.4byte	.LVL253
 6346 109f 40000000 		.4byte	.LFE50
 6347 10a3 0400     		.2byte	0x4
 6348 10a5 F3       		.byte	0xf3
 6349 10a6 01       		.uleb128 0x1
 6350 10a7 51       		.byte	0x51
 6351 10a8 9F       		.byte	0x9f
 6352 10a9 00000000 		.4byte	0
 6353 10ad 00000000 		.4byte	0
 6354              	.LLST90:
 6355 10b1 08000000 		.4byte	.LVL241
 6356 10b5 13000000 		.4byte	.LVL242-1
 6357 10b9 0100     		.2byte	0x1
 6358 10bb 50       		.byte	0x50
 6359 10bc 13000000 		.4byte	.LVL242-1
ARM GAS  C:\Users\Phuong\AppData\Local\Temp\ccnrs5hd.s 			page 138


 6360 10c0 30000000 		.4byte	.LVL247
 6361 10c4 0100     		.2byte	0x1
 6362 10c6 54       		.byte	0x54
 6363 10c7 30000000 		.4byte	.LVL247
 6364 10cb 32000000 		.4byte	.LVL248
 6365 10cf 0400     		.2byte	0x4
 6366 10d1 F3       		.byte	0xf3
 6367 10d2 01       		.uleb128 0x1
 6368 10d3 50       		.byte	0x50
 6369 10d4 9F       		.byte	0x9f
 6370 10d5 32000000 		.4byte	.LVL248
 6371 10d9 34000000 		.4byte	.LVL249
 6372 10dd 0100     		.2byte	0x1
 6373 10df 54       		.byte	0x54
 6374 10e0 34000000 		.4byte	.LVL249
 6375 10e4 40000000 		.4byte	.LFE50
 6376 10e8 0400     		.2byte	0x4
 6377 10ea F3       		.byte	0xf3
 6378 10eb 01       		.uleb128 0x1
 6379 10ec 50       		.byte	0x50
 6380 10ed 9F       		.byte	0x9f
 6381 10ee 00000000 		.4byte	0
 6382 10f2 00000000 		.4byte	0
 6383              	.LLST91:
 6384 10f6 2E000000 		.4byte	.LVL246
 6385 10fa 32000000 		.4byte	.LVL248
 6386 10fe 0200     		.2byte	0x2
 6387 1100 31       		.byte	0x31
 6388 1101 9F       		.byte	0x9f
 6389 1102 34000000 		.4byte	.LVL249
 6390 1106 3E000000 		.4byte	.LVL251
 6391 110a 0100     		.2byte	0x1
 6392 110c 54       		.byte	0x54
 6393 110d 3E000000 		.4byte	.LVL251
 6394 1111 40000000 		.4byte	.LFE50
 6395 1115 0100     		.2byte	0x1
 6396 1117 50       		.byte	0x50
 6397 1118 00000000 		.4byte	0
 6398 111c 00000000 		.4byte	0
 6399              	.LLST92:
 6400 1120 16000000 		.4byte	.LVL243
 6401 1124 1E000000 		.4byte	.LVL244
 6402 1128 0100     		.2byte	0x1
 6403 112a 50       		.byte	0x50
 6404 112b 1E000000 		.4byte	.LVL244
 6405 112f 32000000 		.4byte	.LVL248
 6406 1133 0100     		.2byte	0x1
 6407 1135 55       		.byte	0x55
 6408 1136 32000000 		.4byte	.LVL248
 6409 113a 34000000 		.4byte	.LVL249
 6410 113e 0100     		.2byte	0x1
 6411 1140 50       		.byte	0x50
 6412 1141 34000000 		.4byte	.LVL249
 6413 1145 3E000000 		.4byte	.LVL252
 6414 1149 0100     		.2byte	0x1
 6415 114b 55       		.byte	0x55
 6416 114c 00000000 		.4byte	0
ARM GAS  C:\Users\Phuong\AppData\Local\Temp\ccnrs5hd.s 			page 139


 6417 1150 00000000 		.4byte	0
 6418              	.LLST93:
 6419 1154 00000000 		.4byte	.LVL254
 6420 1158 13000000 		.4byte	.LVL256-1
 6421 115c 0100     		.2byte	0x1
 6422 115e 50       		.byte	0x50
 6423 115f 13000000 		.4byte	.LVL256-1
 6424 1163 30000000 		.4byte	.LVL261
 6425 1167 0100     		.2byte	0x1
 6426 1169 54       		.byte	0x54
 6427 116a 30000000 		.4byte	.LVL261
 6428 116e 32000000 		.4byte	.LVL262
 6429 1172 0400     		.2byte	0x4
 6430 1174 F3       		.byte	0xf3
 6431 1175 01       		.uleb128 0x1
 6432 1176 50       		.byte	0x50
 6433 1177 9F       		.byte	0x9f
 6434 1178 32000000 		.4byte	.LVL262
 6435 117c 34000000 		.4byte	.LVL263
 6436 1180 0100     		.2byte	0x1
 6437 1182 54       		.byte	0x54
 6438 1183 34000000 		.4byte	.LVL263
 6439 1187 40000000 		.4byte	.LFE51
 6440 118b 0400     		.2byte	0x4
 6441 118d F3       		.byte	0xf3
 6442 118e 01       		.uleb128 0x1
 6443 118f 50       		.byte	0x50
 6444 1190 9F       		.byte	0x9f
 6445 1191 00000000 		.4byte	0
 6446 1195 00000000 		.4byte	0
 6447              	.LLST94:
 6448 1199 00000000 		.4byte	.LVL254
 6449 119d 13000000 		.4byte	.LVL256-1
 6450 11a1 0100     		.2byte	0x1
 6451 11a3 51       		.byte	0x51
 6452 11a4 13000000 		.4byte	.LVL256-1
 6453 11a8 3E000000 		.4byte	.LVL267
 6454 11ac 0100     		.2byte	0x1
 6455 11ae 56       		.byte	0x56
 6456 11af 3E000000 		.4byte	.LVL267
 6457 11b3 40000000 		.4byte	.LFE51
 6458 11b7 0400     		.2byte	0x4
 6459 11b9 F3       		.byte	0xf3
 6460 11ba 01       		.uleb128 0x1
 6461 11bb 51       		.byte	0x51
 6462 11bc 9F       		.byte	0x9f
 6463 11bd 00000000 		.4byte	0
 6464 11c1 00000000 		.4byte	0
 6465              	.LLST95:
 6466 11c5 08000000 		.4byte	.LVL255
 6467 11c9 13000000 		.4byte	.LVL256-1
 6468 11cd 0100     		.2byte	0x1
 6469 11cf 50       		.byte	0x50
 6470 11d0 13000000 		.4byte	.LVL256-1
 6471 11d4 30000000 		.4byte	.LVL261
 6472 11d8 0100     		.2byte	0x1
 6473 11da 54       		.byte	0x54
ARM GAS  C:\Users\Phuong\AppData\Local\Temp\ccnrs5hd.s 			page 140


 6474 11db 30000000 		.4byte	.LVL261
 6475 11df 32000000 		.4byte	.LVL262
 6476 11e3 0400     		.2byte	0x4
 6477 11e5 F3       		.byte	0xf3
 6478 11e6 01       		.uleb128 0x1
 6479 11e7 50       		.byte	0x50
 6480 11e8 9F       		.byte	0x9f
 6481 11e9 32000000 		.4byte	.LVL262
 6482 11ed 34000000 		.4byte	.LVL263
 6483 11f1 0100     		.2byte	0x1
 6484 11f3 54       		.byte	0x54
 6485 11f4 34000000 		.4byte	.LVL263
 6486 11f8 40000000 		.4byte	.LFE51
 6487 11fc 0400     		.2byte	0x4
 6488 11fe F3       		.byte	0xf3
 6489 11ff 01       		.uleb128 0x1
 6490 1200 50       		.byte	0x50
 6491 1201 9F       		.byte	0x9f
 6492 1202 00000000 		.4byte	0
 6493 1206 00000000 		.4byte	0
 6494              	.LLST96:
 6495 120a 2E000000 		.4byte	.LVL260
 6496 120e 32000000 		.4byte	.LVL262
 6497 1212 0200     		.2byte	0x2
 6498 1214 31       		.byte	0x31
 6499 1215 9F       		.byte	0x9f
 6500 1216 34000000 		.4byte	.LVL263
 6501 121a 3E000000 		.4byte	.LVL265
 6502 121e 0100     		.2byte	0x1
 6503 1220 54       		.byte	0x54
 6504 1221 3E000000 		.4byte	.LVL265
 6505 1225 40000000 		.4byte	.LFE51
 6506 1229 0100     		.2byte	0x1
 6507 122b 50       		.byte	0x50
 6508 122c 00000000 		.4byte	0
 6509 1230 00000000 		.4byte	0
 6510              	.LLST97:
 6511 1234 16000000 		.4byte	.LVL257
 6512 1238 1E000000 		.4byte	.LVL258
 6513 123c 0100     		.2byte	0x1
 6514 123e 50       		.byte	0x50
 6515 123f 1E000000 		.4byte	.LVL258
 6516 1243 32000000 		.4byte	.LVL262
 6517 1247 0100     		.2byte	0x1
 6518 1249 55       		.byte	0x55
 6519 124a 32000000 		.4byte	.LVL262
 6520 124e 34000000 		.4byte	.LVL263
 6521 1252 0100     		.2byte	0x1
 6522 1254 50       		.byte	0x50
 6523 1255 34000000 		.4byte	.LVL263
 6524 1259 3E000000 		.4byte	.LVL266
 6525 125d 0100     		.2byte	0x1
 6526 125f 55       		.byte	0x55
 6527 1260 00000000 		.4byte	0
 6528 1264 00000000 		.4byte	0
 6529              	.LLST98:
 6530 1268 00000000 		.4byte	.LVL268
ARM GAS  C:\Users\Phuong\AppData\Local\Temp\ccnrs5hd.s 			page 141


 6531 126c 02000000 		.4byte	.LVL269
 6532 1270 0100     		.2byte	0x1
 6533 1272 50       		.byte	0x50
 6534 1273 02000000 		.4byte	.LVL269
 6535 1277 04000000 		.4byte	.LFE56
 6536 127b 0400     		.2byte	0x4
 6537 127d F3       		.byte	0xf3
 6538 127e 01       		.uleb128 0x1
 6539 127f 50       		.byte	0x50
 6540 1280 9F       		.byte	0x9f
 6541 1281 00000000 		.4byte	0
 6542 1285 00000000 		.4byte	0
 6543              	.LLST99:
 6544 1289 00000000 		.4byte	.LVL271
 6545 128d 02000000 		.4byte	.LVL272
 6546 1291 0100     		.2byte	0x1
 6547 1293 50       		.byte	0x50
 6548 1294 02000000 		.4byte	.LVL272
 6549 1298 0A000000 		.4byte	.LFE58
 6550 129c 0400     		.2byte	0x4
 6551 129e F3       		.byte	0xf3
 6552 129f 01       		.uleb128 0x1
 6553 12a0 50       		.byte	0x50
 6554 12a1 9F       		.byte	0x9f
 6555 12a2 00000000 		.4byte	0
 6556 12a6 00000000 		.4byte	0
 6557              		.section	.debug_aranges,"",%progbits
 6558 0000 CC000000 		.4byte	0xcc
 6559 0004 0200     		.2byte	0x2
 6560 0006 00000000 		.4byte	.Ldebug_info0
 6561 000a 04       		.byte	0x4
 6562 000b 00       		.byte	0
 6563 000c 0000     		.2byte	0
 6564 000e 0000     		.2byte	0
 6565 0010 00000000 		.4byte	.LFB54
 6566 0014 12000000 		.4byte	.LFE54-.LFB54
 6567 0018 00000000 		.4byte	.LFB55
 6568 001c 3A000000 		.4byte	.LFE55-.LFB55
 6569 0020 00000000 		.4byte	.LFB52
 6570 0024 60000000 		.4byte	.LFE52-.LFB52
 6571 0028 00000000 		.4byte	.LFB44
 6572 002c 50000000 		.4byte	.LFE44-.LFB44
 6573 0030 00000000 		.4byte	.LFB53
 6574 0034 74000000 		.4byte	.LFE53-.LFB53
 6575 0038 00000000 		.4byte	.LFB47
 6576 003c 4E000000 		.4byte	.LFE47-.LFB47
 6577 0040 00000000 		.4byte	.LFB36
 6578 0044 3E000000 		.4byte	.LFE36-.LFB36
 6579 0048 00000000 		.4byte	.LFB37
 6580 004c 20000000 		.4byte	.LFE37-.LFB37
 6581 0050 00000000 		.4byte	.LFB38
 6582 0054 44000000 		.4byte	.LFE38-.LFB38
 6583 0058 00000000 		.4byte	.LFB39
 6584 005c 1E000000 		.4byte	.LFE39-.LFB39
 6585 0060 00000000 		.4byte	.LFB40
 6586 0064 1C000000 		.4byte	.LFE40-.LFB40
 6587 0068 00000000 		.4byte	.LFB41
ARM GAS  C:\Users\Phuong\AppData\Local\Temp\ccnrs5hd.s 			page 142


 6588 006c 10000000 		.4byte	.LFE41-.LFB41
 6589 0070 00000000 		.4byte	.LFB42
 6590 0074 D4000000 		.4byte	.LFE42-.LFB42
 6591 0078 00000000 		.4byte	.LFB43
 6592 007c 80000000 		.4byte	.LFE43-.LFB43
 6593 0080 00000000 		.4byte	.LFB45
 6594 0084 BC000000 		.4byte	.LFE45-.LFB45
 6595 0088 00000000 		.4byte	.LFB46
 6596 008c 72000000 		.4byte	.LFE46-.LFB46
 6597 0090 00000000 		.4byte	.LFB48
 6598 0094 18000000 		.4byte	.LFE48-.LFB48
 6599 0098 00000000 		.4byte	.LFB49
 6600 009c 26000000 		.4byte	.LFE49-.LFB49
 6601 00a0 00000000 		.4byte	.LFB50
 6602 00a4 40000000 		.4byte	.LFE50-.LFB50
 6603 00a8 00000000 		.4byte	.LFB51
 6604 00ac 40000000 		.4byte	.LFE51-.LFB51
 6605 00b0 00000000 		.4byte	.LFB56
 6606 00b4 04000000 		.4byte	.LFE56-.LFB56
 6607 00b8 00000000 		.4byte	.LFB57
 6608 00bc 04000000 		.4byte	.LFE57-.LFB57
 6609 00c0 00000000 		.4byte	.LFB58
 6610 00c4 0A000000 		.4byte	.LFE58-.LFB58
 6611 00c8 00000000 		.4byte	0
 6612 00cc 00000000 		.4byte	0
 6613              		.section	.debug_ranges,"",%progbits
 6614              	.Ldebug_ranges0:
 6615 0000 00000000 		.4byte	.LFB54
 6616 0004 12000000 		.4byte	.LFE54
 6617 0008 00000000 		.4byte	.LFB55
 6618 000c 3A000000 		.4byte	.LFE55
 6619 0010 00000000 		.4byte	.LFB52
 6620 0014 60000000 		.4byte	.LFE52
 6621 0018 00000000 		.4byte	.LFB44
 6622 001c 50000000 		.4byte	.LFE44
 6623 0020 00000000 		.4byte	.LFB53
 6624 0024 74000000 		.4byte	.LFE53
 6625 0028 00000000 		.4byte	.LFB47
 6626 002c 4E000000 		.4byte	.LFE47
 6627 0030 00000000 		.4byte	.LFB36
 6628 0034 3E000000 		.4byte	.LFE36
 6629 0038 00000000 		.4byte	.LFB37
 6630 003c 20000000 		.4byte	.LFE37
 6631 0040 00000000 		.4byte	.LFB38
 6632 0044 44000000 		.4byte	.LFE38
 6633 0048 00000000 		.4byte	.LFB39
 6634 004c 1E000000 		.4byte	.LFE39
 6635 0050 00000000 		.4byte	.LFB40
 6636 0054 1C000000 		.4byte	.LFE40
 6637 0058 00000000 		.4byte	.LFB41
 6638 005c 10000000 		.4byte	.LFE41
 6639 0060 00000000 		.4byte	.LFB42
 6640 0064 D4000000 		.4byte	.LFE42
 6641 0068 00000000 		.4byte	.LFB43
 6642 006c 80000000 		.4byte	.LFE43
 6643 0070 00000000 		.4byte	.LFB45
 6644 0074 BC000000 		.4byte	.LFE45
ARM GAS  C:\Users\Phuong\AppData\Local\Temp\ccnrs5hd.s 			page 143


 6645 0078 00000000 		.4byte	.LFB46
 6646 007c 72000000 		.4byte	.LFE46
 6647 0080 00000000 		.4byte	.LFB48
 6648 0084 18000000 		.4byte	.LFE48
 6649 0088 00000000 		.4byte	.LFB49
 6650 008c 26000000 		.4byte	.LFE49
 6651 0090 00000000 		.4byte	.LFB50
 6652 0094 40000000 		.4byte	.LFE50
 6653 0098 00000000 		.4byte	.LFB51
 6654 009c 40000000 		.4byte	.LFE51
 6655 00a0 00000000 		.4byte	.LFB56
 6656 00a4 04000000 		.4byte	.LFE56
 6657 00a8 00000000 		.4byte	.LFB57
 6658 00ac 04000000 		.4byte	.LFE57
 6659 00b0 00000000 		.4byte	.LFB58
 6660 00b4 0A000000 		.4byte	.LFE58
 6661 00b8 00000000 		.4byte	0
 6662 00bc 00000000 		.4byte	0
 6663              		.section	.debug_line,"",%progbits
 6664              	.Ldebug_line0:
 6665 0000 44060000 		.section	.debug_str,"MS",%progbits,1
 6665      0200CA02 
 6665      00000201 
 6665      FB0E0D00 
 6665      01010101 
 6666              	.LASF59:
 6667 0000 7853686F 		.ascii	"xShouldWrite\000"
 6667      756C6457 
 6667      72697465 
 6667      00
 6668              	.LASF67:
 6669 000d 78427566 		.ascii	"xBufferLengthBytes\000"
 6669      6665724C 
 6669      656E6774 
 6669      68427974 
 6669      657300
 6670              	.LASF23:
 6671 0020 654E6F41 		.ascii	"eNoAction\000"
 6671      6374696F 
 6671      6E00
 6672              	.LASF74:
 6673 002a 78537472 		.ascii	"xStreamBufferGenericCreate\000"
 6673      65616D42 
 6673      75666665 
 6673      7247656E 
 6673      65726963 
 6674              	.LASF47:
 6675 0045 78436F75 		.ascii	"xCount\000"
 6675      6E7400
 6676              	.LASF93:
 6677 004c 76537472 		.ascii	"vStreamBufferDelete\000"
 6677      65616D42 
 6677      75666665 
 6677      7244656C 
 6677      65746500 
 6678              	.LASF32:
 6679 0060 7854494D 		.ascii	"xTIME_OUT\000"
ARM GAS  C:\Users\Phuong\AppData\Local\Temp\ccnrs5hd.s 			page 144


 6679      455F4F55 
 6679      5400
 6680              	.LASF86:
 6681 006a 78537472 		.ascii	"xStreamBufferReceive\000"
 6681      65616D42 
 6681      75666665 
 6681      72526563 
 6681      65697665 
 6682              	.LASF55:
 6683 007f 70765478 		.ascii	"pvTxData\000"
 6683      44617461 
 6683      00
 6684              	.LASF30:
 6685 0088 54696D65 		.ascii	"TimeOut_t\000"
 6685      4F75745F 
 6685      7400
 6686              	.LASF2:
 6687 0092 73686F72 		.ascii	"short int\000"
 6687      7420696E 
 6687      7400
 6688              	.LASF13:
 6689 009c 73697A65 		.ascii	"size_t\000"
 6689      5F7400
 6690              	.LASF15:
 6691 00a3 73697A65 		.ascii	"sizetype\000"
 6691      74797065 
 6691      00
 6692              	.LASF61:
 6693 00ac 70727652 		.ascii	"prvReadBytesFromBuffer\000"
 6693      65616442 
 6693      79746573 
 6693      46726F6D 
 6693      42756666 
 6694              	.LASF22:
 6695 00c3 5461736B 		.ascii	"TaskHandle_t\000"
 6695      48616E64 
 6695      6C655F74 
 6695      00
 6696              	.LASF113:
 6697 00d0 474E5520 		.ascii	"GNU C11 5.4.1 20160609 (release) [ARM/embedded-5-br"
 6697      43313120 
 6697      352E342E 
 6697      31203230 
 6697      31363036 
 6698 0103 616E6368 		.ascii	"anch revision 237715] -mcpu=cortex-m0plus -mthumb -"
 6698      20726576 
 6698      6973696F 
 6698      6E203233 
 6698      37373135 
 6699 0136 67202D4F 		.ascii	"g -Og -ffunction-sections -ffat-lto-objects\000"
 6699      67202D66 
 6699      66756E63 
 6699      74696F6E 
 6699      2D736563 
 6700              	.LASF63:
 6701 0162 78427974 		.ascii	"xBytesAvailable\000"
 6701      65734176 
ARM GAS  C:\Users\Phuong\AppData\Local\Temp\ccnrs5hd.s 			page 145


 6701      61696C61 
 6701      626C6500 
 6702              	.LASF71:
 6703 0172 784E6578 		.ascii	"xNextMessageLength\000"
 6703      744D6573 
 6703      73616765 
 6703      4C656E67 
 6703      746800
 6704              	.LASF52:
 6705 0185 784E6578 		.ascii	"xNextHead\000"
 6705      74486561 
 6705      6400
 6706              	.LASF97:
 6707 018f 6D656D63 		.ascii	"memcpy\000"
 6707      707900
 6708              	.LASF56:
 6709 0196 78446174 		.ascii	"xDataLengthBytes\000"
 6709      614C656E 
 6709      67746842 
 6709      79746573 
 6709      00
 6710              	.LASF40:
 6711 01a7 70756342 		.ascii	"pucBuffer\000"
 6711      75666665 
 6711      7200
 6712              	.LASF111:
 6713 01b1 78546173 		.ascii	"xTaskGenericNotifyFromISR\000"
 6713      6B47656E 
 6713      65726963 
 6713      4E6F7469 
 6713      66794672 
 6714              	.LASF53:
 6715 01cb 78466972 		.ascii	"xFirstLength\000"
 6715      73744C65 
 6715      6E677468 
 6715      00
 6716              	.LASF27:
 6717 01d8 65536574 		.ascii	"eSetValueWithoutOverwrite\000"
 6717      56616C75 
 6717      65576974 
 6717      686F7574 
 6717      4F766572 
 6718              	.LASF82:
 6719 01f2 7854696D 		.ascii	"xTimeOut\000"
 6719      654F7574 
 6719      00
 6720              	.LASF100:
 6721 01fb 76546173 		.ascii	"vTaskSetTimeOutState\000"
 6721      6B536574 
 6721      54696D65 
 6721      4F757453 
 6721      74617465 
 6722              	.LASF49:
 6723 0210 70727642 		.ascii	"prvBytesInBuffer\000"
 6723      79746573 
 6723      496E4275 
 6723      66666572 
ARM GAS  C:\Users\Phuong\AppData\Local\Temp\ccnrs5hd.s 			page 146


 6723      00
 6724              	.LASF11:
 6725 0221 75696E74 		.ascii	"uint8_t\000"
 6725      385F7400 
 6726              	.LASF70:
 6727 0229 78526563 		.ascii	"xReceivedLength\000"
 6727      65697665 
 6727      644C656E 
 6727      67746800 
 6728              	.LASF91:
 6729 0239 78537472 		.ascii	"xStreamBufferReceiveCompletedFromISR\000"
 6729      65616D42 
 6729      75666665 
 6729      72526563 
 6729      65697665 
 6730              	.LASF75:
 6731 025e 78537472 		.ascii	"xStreamBufferReset\000"
 6731      65616D42 
 6731      75666665 
 6731      72526573 
 6731      657400
 6732              	.LASF26:
 6733 0271 65536574 		.ascii	"eSetValueWithOverwrite\000"
 6733      56616C75 
 6733      65576974 
 6733      684F7665 
 6733      72777269 
 6734              	.LASF24:
 6735 0288 65536574 		.ascii	"eSetBits\000"
 6735      42697473 
 6735      00
 6736              	.LASF38:
 6737 0291 78546173 		.ascii	"xTaskWaitingToReceive\000"
 6737      6B576169 
 6737      74696E67 
 6737      546F5265 
 6737      63656976 
 6738              	.LASF73:
 6739 02a7 78537472 		.ascii	"xStreamBuffer\000"
 6739      65616D42 
 6739      75666665 
 6739      7200
 6740              	.LASF17:
 6741 02b5 666C6F61 		.ascii	"float\000"
 6741      7400
 6742              	.LASF105:
 6743 02bb 78546173 		.ascii	"xTaskNotifyWait\000"
 6743      6B4E6F74 
 6743      69667957 
 6743      61697400 
 6744              	.LASF81:
 6745 02cb 78546963 		.ascii	"xTicksToWait\000"
 6745      6B73546F 
 6745      57616974 
 6745      00
 6746              	.LASF8:
 6747 02d8 6C6F6E67 		.ascii	"long long int\000"
ARM GAS  C:\Users\Phuong\AppData\Local\Temp\ccnrs5hd.s 			page 147


 6747      206C6F6E 
 6747      6720696E 
 6747      7400
 6748              	.LASF58:
 6749 02e6 78526571 		.ascii	"xRequiredSpace\000"
 6749      75697265 
 6749      64537061 
 6749      636500
 6750              	.LASF87:
 6751 02f5 78537472 		.ascii	"xStreamBufferReceiveFromISR\000"
 6751      65616D42 
 6751      75666665 
 6751      72526563 
 6751      65697665 
 6752              	.LASF96:
 6753 0311 6D656D73 		.ascii	"memset\000"
 6753      657400
 6754              	.LASF48:
 6755 0318 78577269 		.ascii	"xWriteValue\000"
 6755      74655661 
 6755      6C756500 
 6756              	.LASF4:
 6757 0324 6C6F6E67 		.ascii	"long int\000"
 6757      20696E74 
 6757      00
 6758              	.LASF77:
 6759 032d 78547269 		.ascii	"xTriggerLevel\000"
 6759      67676572 
 6759      4C657665 
 6759      6C00
 6760              	.LASF88:
 6761 033b 78537472 		.ascii	"xStreamBufferIsEmpty\000"
 6761      65616D42 
 6761      75666665 
 6761      72497345 
 6761      6D707479 
 6762              	.LASF5:
 6763 0350 5F5F7569 		.ascii	"__uint8_t\000"
 6763      6E74385F 
 6763      7400
 6764              	.LASF106:
 6765 035a 78546173 		.ascii	"xTaskCheckForTimeOut\000"
 6765      6B436865 
 6765      636B466F 
 6765      7254696D 
 6765      654F7574 
 6766              	.LASF72:
 6767 036f 70756341 		.ascii	"pucAllocatedMemory\000"
 6767      6C6C6F63 
 6767      61746564 
 6767      4D656D6F 
 6767      727900
 6768              	.LASF44:
 6769 0382 70785374 		.ascii	"pxStreamBuffer\000"
 6769      7265616D 
 6769      42756666 
 6769      657200
ARM GAS  C:\Users\Phuong\AppData\Local\Temp\ccnrs5hd.s 			page 148


 6770              	.LASF54:
 6771 0391 70727657 		.ascii	"prvWriteMessageToBuffer\000"
 6771      72697465 
 6771      4D657373 
 6771      61676554 
 6771      6F427566 
 6772              	.LASF84:
 6773 03a9 70784869 		.ascii	"pxHigherPriorityTaskWoken\000"
 6773      67686572 
 6773      5072696F 
 6773      72697479 
 6773      5461736B 
 6774              	.LASF66:
 6775 03c3 70765278 		.ascii	"pvRxData\000"
 6775      44617461 
 6775      00
 6776              	.LASF14:
 6777 03cc 6C6F6E67 		.ascii	"long double\000"
 6777      20646F75 
 6777      626C6500 
 6778              	.LASF36:
 6779 03d8 784C656E 		.ascii	"xLength\000"
 6779      67746800 
 6780              	.LASF1:
 6781 03e0 756E7369 		.ascii	"unsigned char\000"
 6781      676E6564 
 6781      20636861 
 6781      7200
 6782              	.LASF29:
 6783 03ee 7854696D 		.ascii	"xTimeOnEntering\000"
 6783      654F6E45 
 6783      6E746572 
 6783      696E6700 
 6784              	.LASF45:
 6785 03fe 78427566 		.ascii	"xBufferSizeBytes\000"
 6785      66657253 
 6785      697A6542 
 6785      79746573 
 6785      00
 6786              	.LASF28:
 6787 040f 784F7665 		.ascii	"xOverflowCount\000"
 6787      72666C6F 
 6787      77436F75 
 6787      6E7400
 6788              	.LASF76:
 6789 041e 78537472 		.ascii	"xStreamBufferSetTriggerLevel\000"
 6789      65616D42 
 6789      75666665 
 6789      72536574 
 6789      54726967 
 6790              	.LASF115:
 6791 043b 433A5C55 		.ascii	"C:\\Users\\Phuong\\Documents\\PSoC Creator\\Dec0820"
 6791      73657273 
 6791      5C506875 
 6791      6F6E675C 
 6791      446F6375 
 6792 0469 31385C69 		.ascii	"18\\iot-sdk-iot-dev\\PSOC6_FreeRTOS+LwIP+MbedTLS_Az"
ARM GAS  C:\Users\Phuong\AppData\Local\Temp\ccnrs5hd.s 			page 149


 6792      6F742D73 
 6792      646B2D69 
 6792      6F742D64 
 6792      65765C50 
 6793 049a 7572652D 		.ascii	"ure-IOT-Hub-Demo\\PSOC6_FreeRTOS+LwIP+MbedTLS_Azure"
 6793      494F542D 
 6793      4875622D 
 6793      44656D6F 
 6793      5C50534F 
 6794 04cc 2D494F54 		.ascii	"-IOT-Hub-Demo.cydsn\000"
 6794      2D487562 
 6794      2D44656D 
 6794      6F2E6379 
 6794      64736E00 
 6795              	.LASF0:
 6796 04e0 7369676E 		.ascii	"signed char\000"
 6796      65642063 
 6796      68617200 
 6797              	.LASF78:
 6798 04ec 78537472 		.ascii	"xStreamBufferSpacesAvailable\000"
 6798      65616D42 
 6798      75666665 
 6798      72537061 
 6798      63657341 
 6799              	.LASF9:
 6800 0509 6C6F6E67 		.ascii	"long long unsigned int\000"
 6800      206C6F6E 
 6800      6720756E 
 6800      7369676E 
 6800      65642069 
 6801              	.LASF65:
 6802 0520 70727652 		.ascii	"prvReadMessageFromBuffer\000"
 6802      6561644D 
 6802      65737361 
 6802      67654672 
 6802      6F6D4275 
 6803              	.LASF12:
 6804 0539 75696E74 		.ascii	"uint32_t\000"
 6804      33325F74 
 6804      00
 6805              	.LASF83:
 6806 0542 78537472 		.ascii	"xStreamBufferSendFromISR\000"
 6806      65616D42 
 6806      75666665 
 6806      7253656E 
 6806      6446726F 
 6807              	.LASF10:
 6808 055b 756E7369 		.ascii	"unsigned int\000"
 6808      676E6564 
 6808      20696E74 
 6808      00
 6809              	.LASF19:
 6810 0568 42617365 		.ascii	"BaseType_t\000"
 6810      54797065 
 6810      5F7400
 6811              	.LASF41:
 6812 0573 7563466C 		.ascii	"ucFlags\000"
ARM GAS  C:\Users\Phuong\AppData\Local\Temp\ccnrs5hd.s 			page 150


 6812      61677300 
 6813              	.LASF80:
 6814 057b 78537472 		.ascii	"xStreamBufferSend\000"
 6814      65616D42 
 6814      75666665 
 6814      7253656E 
 6814      6400
 6815              	.LASF21:
 6816 058d 5469636B 		.ascii	"TickType_t\000"
 6816      54797065 
 6816      5F7400
 6817              	.LASF109:
 6818 0598 78546173 		.ascii	"xTaskResumeAll\000"
 6818      6B526573 
 6818      756D6541 
 6818      6C6C00
 6819              	.LASF3:
 6820 05a7 73686F72 		.ascii	"short unsigned int\000"
 6820      7420756E 
 6820      7369676E 
 6820      65642069 
 6820      6E7400
 6821              	.LASF101:
 6822 05ba 76506F72 		.ascii	"vPortEnterCritical\000"
 6822      74456E74 
 6822      65724372 
 6822      69746963 
 6822      616C00
 6823              	.LASF99:
 6824 05cd 76506F72 		.ascii	"vPortFree\000"
 6824      74467265 
 6824      6500
 6825              	.LASF34:
 6826 05d7 78546169 		.ascii	"xTail\000"
 6826      6C00
 6827              	.LASF95:
 6828 05dd 75635374 		.ascii	"ucStreamBufferGetStreamBufferType\000"
 6828      7265616D 
 6828      42756666 
 6828      65724765 
 6828      74537472 
 6829              	.LASF46:
 6830 05ff 7849734D 		.ascii	"xIsMessageBuffer\000"
 6830      65737361 
 6830      67654275 
 6830      66666572 
 6830      00
 6831              	.LASF42:
 6832 0610 75785374 		.ascii	"uxStreamBufferNumber\000"
 6832      7265616D 
 6832      42756666 
 6832      65724E75 
 6832      6D626572 
 6833              	.LASF20:
 6834 0625 55426173 		.ascii	"UBaseType_t\000"
 6834      65547970 
 6834      655F7400 
ARM GAS  C:\Users\Phuong\AppData\Local\Temp\ccnrs5hd.s 			page 151


 6835              	.LASF57:
 6836 0631 78537061 		.ascii	"xSpace\000"
 6836      636500
 6837              	.LASF104:
 6838 0638 76506F72 		.ascii	"vPortExitCritical\000"
 6838      74457869 
 6838      74437269 
 6838      74696361 
 6838      6C00
 6839              	.LASF108:
 6840 064a 78546173 		.ascii	"xTaskGenericNotify\000"
 6840      6B47656E 
 6840      65726963 
 6840      4E6F7469 
 6840      667900
 6841              	.LASF37:
 6842 065d 78547269 		.ascii	"xTriggerLevelBytes\000"
 6842      67676572 
 6842      4C657665 
 6842      6C427974 
 6842      657300
 6843              	.LASF103:
 6844 0670 78546173 		.ascii	"xTaskGetCurrentTaskHandle\000"
 6844      6B476574 
 6844      43757272 
 6844      656E7454 
 6844      61736B48 
 6845              	.LASF62:
 6846 068a 784D6178 		.ascii	"xMaxCount\000"
 6846      436F756E 
 6846      7400
 6847              	.LASF7:
 6848 0694 6C6F6E67 		.ascii	"long unsigned int\000"
 6848      20756E73 
 6848      69676E65 
 6848      6420696E 
 6848      7400
 6849              	.LASF68:
 6850 06a6 78427974 		.ascii	"xBytesToStoreMessageLength\000"
 6850      6573546F 
 6850      53746F72 
 6850      654D6573 
 6850      73616765 
 6851              	.LASF18:
 6852 06c1 646F7562 		.ascii	"double\000"
 6852      6C6500
 6853              	.LASF50:
 6854 06c8 70727657 		.ascii	"prvWriteBytesToBuffer\000"
 6854      72697465 
 6854      42797465 
 6854      73546F42 
 6854      75666665 
 6855              	.LASF94:
 6856 06de 76537472 		.ascii	"vStreamBufferSetStreamBufferNumber\000"
 6856      65616D42 
 6856      75666665 
 6856      72536574 
ARM GAS  C:\Users\Phuong\AppData\Local\Temp\ccnrs5hd.s 			page 152


 6856      53747265 
 6857              	.LASF6:
 6858 0701 5F5F7569 		.ascii	"__uint32_t\000"
 6858      6E743332 
 6858      5F7400
 6859              	.LASF110:
 6860 070c 756C5365 		.ascii	"ulSetInterruptMaskFromISR\000"
 6860      74496E74 
 6860      65727275 
 6860      70744D61 
 6860      736B4672 
 6861              	.LASF102:
 6862 0726 78546173 		.ascii	"xTaskNotifyStateClear\000"
 6862      6B4E6F74 
 6862      69667953 
 6862      74617465 
 6862      436C6561 
 6863              	.LASF39:
 6864 073c 78546173 		.ascii	"xTaskWaitingToSend\000"
 6864      6B576169 
 6864      74696E67 
 6864      546F5365 
 6864      6E6400
 6865              	.LASF112:
 6866 074f 76436C65 		.ascii	"vClearInterruptMaskFromISR\000"
 6866      6172496E 
 6866      74657272 
 6866      7570744D 
 6866      61736B46 
 6867              	.LASF31:
 6868 076a 53747265 		.ascii	"StreamBufferHandle_t\000"
 6868      616D4275 
 6868      66666572 
 6868      48616E64 
 6868      6C655F74 
 6869              	.LASF85:
 6870 077f 75785361 		.ascii	"uxSavedInterruptStatus\000"
 6870      76656449 
 6870      6E746572 
 6870      72757074 
 6870      53746174 
 6871              	.LASF89:
 6872 0796 78537472 		.ascii	"xStreamBufferIsFull\000"
 6872      65616D42 
 6872      75666665 
 6872      72497346 
 6872      756C6C00 
 6873              	.LASF60:
 6874 07aa 78526574 		.ascii	"xReturn\000"
 6874      75726E00 
 6875              	.LASF90:
 6876 07b2 78537472 		.ascii	"xStreamBufferSendCompletedFromISR\000"
 6876      65616D42 
 6876      75666665 
 6876      7253656E 
 6876      64436F6D 
 6877              	.LASF64:
ARM GAS  C:\Users\Phuong\AppData\Local\Temp\ccnrs5hd.s 			page 153


 6878 07d4 784E6578 		.ascii	"xNextTail\000"
 6878      74546169 
 6878      6C00
 6879              	.LASF35:
 6880 07de 78486561 		.ascii	"xHead\000"
 6880      6400
 6881              	.LASF92:
 6882 07e4 75785374 		.ascii	"uxStreamBufferGetStreamBufferNumber\000"
 6882      7265616D 
 6882      42756666 
 6882      65724765 
 6882      74537472 
 6883              	.LASF69:
 6884 0808 784F7269 		.ascii	"xOriginalTail\000"
 6884      67696E61 
 6884      6C546169 
 6884      6C00
 6885              	.LASF33:
 6886 0816 78535452 		.ascii	"xSTREAM_BUFFER\000"
 6886      45414D5F 
 6886      42554646 
 6886      455200
 6887              	.LASF116:
 6888 0825 70727649 		.ascii	"prvInitialiseNewStreamBuffer\000"
 6888      6E697469 
 6888      616C6973 
 6888      654E6577 
 6888      53747265 
 6889              	.LASF16:
 6890 0842 63686172 		.ascii	"char\000"
 6890      00
 6891              	.LASF79:
 6892 0847 78537472 		.ascii	"xStreamBufferBytesAvailable\000"
 6892      65616D42 
 6892      75666665 
 6892      72427974 
 6892      65734176 
 6893              	.LASF51:
 6894 0863 70756344 		.ascii	"pucData\000"
 6894      61746100 
 6895              	.LASF98:
 6896 086b 7076506F 		.ascii	"pvPortMalloc\000"
 6896      72744D61 
 6896      6C6C6F63 
 6896      00
 6897              	.LASF114:
 6898 0878 536F7572 		.ascii	"Source\\FreeRTOS\\10.0.1\\Source\\stream_buffer.c\000"
 6898      63655C46 
 6898      72656552 
 6898      544F535C 
 6898      31302E30 
 6899              	.LASF107:
 6900 08a6 76546173 		.ascii	"vTaskSuspendAll\000"
 6900      6B537573 
 6900      70656E64 
 6900      416C6C00 
 6901              	.LASF25:
ARM GAS  C:\Users\Phuong\AppData\Local\Temp\ccnrs5hd.s 			page 154


 6902 08b6 65496E63 		.ascii	"eIncrement\000"
 6902      72656D65 
 6902      6E7400
 6903              	.LASF43:
 6904 08c1 53747265 		.ascii	"StreamBuffer_t\000"
 6904      616D4275 
 6904      66666572 
 6904      5F7400
 6905              		.ident	"GCC: (GNU Tools for ARM Embedded Processors) 5.4.1 20160609 (release) [ARM/embedded-5-bran
