ARM GAS  C:\Users\Phuong\AppData\Local\Temp\ccGRUYyX.s 			page 1


   1              		.syntax unified
   2              		.cpu cortex-m0plus
   3              		.fpu softvfp
   4              		.eabi_attribute 20, 1
   5              		.eabi_attribute 21, 1
   6              		.eabi_attribute 23, 3
   7              		.eabi_attribute 24, 1
   8              		.eabi_attribute 25, 1
   9              		.eabi_attribute 26, 1
  10              		.eabi_attribute 30, 1
  11              		.eabi_attribute 34, 0
  12              		.eabi_attribute 18, 4
  13              		.thumb
  14              		.syntax unified
  15              		.file	"sys_arch.c"
  16              		.text
  17              	.Ltext0:
  18              		.cfi_sections	.debug_frame
  19              		.section	.text.sys_mbox_new,"ax",%progbits
  20              		.align	2
  21              		.global	sys_mbox_new
  22              		.code	16
  23              		.thumb_func
  24              		.type	sys_mbox_new, %function
  25              	sys_mbox_new:
  26              	.LFB53:
  27              		.file 1 "Source\\LwIP\\src\\sys_arch.c"
   1:Source\LwIP\src/sys_arch.c **** /*
   2:Source\LwIP\src/sys_arch.c ****  * Copyright 2018, Cypress Semiconductor Corporation or a subsidiary of 
   3:Source\LwIP\src/sys_arch.c ****  * Cypress Semiconductor Corporation. All Rights Reserved.
   4:Source\LwIP\src/sys_arch.c ****  * 
   5:Source\LwIP\src/sys_arch.c ****  * This software, associated documentation and materials ("Software"),
   6:Source\LwIP\src/sys_arch.c ****  * is owned by Cypress Semiconductor Corporation
   7:Source\LwIP\src/sys_arch.c ****  * or one of its subsidiaries ("Cypress") and is protected by and subject to
   8:Source\LwIP\src/sys_arch.c ****  * worldwide patent protection (United States and foreign),
   9:Source\LwIP\src/sys_arch.c ****  * United States copyright laws and international treaty provisions.
  10:Source\LwIP\src/sys_arch.c ****  * Therefore, you may use this Software only as provided in the license
  11:Source\LwIP\src/sys_arch.c ****  * agreement accompanying the software package from which you
  12:Source\LwIP\src/sys_arch.c ****  * obtained this Software ("EULA").
  13:Source\LwIP\src/sys_arch.c ****  * If no EULA applies, Cypress hereby grants you a personal, non-exclusive,
  14:Source\LwIP\src/sys_arch.c ****  * non-transferable license to copy, modify, and compile the Software
  15:Source\LwIP\src/sys_arch.c ****  * source code solely for use in connection with Cypress's
  16:Source\LwIP\src/sys_arch.c ****  * integrated circuit products. Any reproduction, modification, translation,
  17:Source\LwIP\src/sys_arch.c ****  * compilation, or representation of this Software except as specified
  18:Source\LwIP\src/sys_arch.c ****  * above is prohibited without the express written permission of Cypress.
  19:Source\LwIP\src/sys_arch.c ****  *
  20:Source\LwIP\src/sys_arch.c ****  * Disclaimer: THIS SOFTWARE IS PROVIDED AS-IS, WITH NO WARRANTY OF ANY KIND,
  21:Source\LwIP\src/sys_arch.c ****  * EXPRESS OR IMPLIED, INCLUDING, BUT NOT LIMITED TO, NONINFRINGEMENT, IMPLIED
  22:Source\LwIP\src/sys_arch.c ****  * WARRANTIES OF MERCHANTABILITY AND FITNESS FOR A PARTICULAR PURPOSE. Cypress
  23:Source\LwIP\src/sys_arch.c ****  * reserves the right to make changes to the Software without notice. Cypress
  24:Source\LwIP\src/sys_arch.c ****  * does not assume any liability arising out of the application or use of the
  25:Source\LwIP\src/sys_arch.c ****  * Software or any product or circuit described in the Software. Cypress does
  26:Source\LwIP\src/sys_arch.c ****  * not authorize its products for use in any products where a malfunction or
  27:Source\LwIP\src/sys_arch.c ****  * failure of the Cypress product may reasonably be expected to result in
  28:Source\LwIP\src/sys_arch.c ****  * significant property damage, injury or death ("High Risk Product"). By
  29:Source\LwIP\src/sys_arch.c ****  * including Cypress's product in a High Risk Product, the manufacturer
  30:Source\LwIP\src/sys_arch.c ****  * of such system or application assumes all risk of such use and in doing
ARM GAS  C:\Users\Phuong\AppData\Local\Temp\ccGRUYyX.s 			page 2


  31:Source\LwIP\src/sys_arch.c ****  * so agrees to indemnify Cypress against all liability.
  32:Source\LwIP\src/sys_arch.c ****  */
  33:Source\LwIP\src/sys_arch.c **** /*
  34:Source\LwIP\src/sys_arch.c ****  * Copyright (c) 2001-2003 Swedish Institute of Computer Science.
  35:Source\LwIP\src/sys_arch.c ****  * All rights reserved.
  36:Source\LwIP\src/sys_arch.c ****  *
  37:Source\LwIP\src/sys_arch.c ****  * Redistribution and use in source and binary forms, with or without modification,
  38:Source\LwIP\src/sys_arch.c ****  * are permitted provided that the following conditions are met:
  39:Source\LwIP\src/sys_arch.c ****  *
  40:Source\LwIP\src/sys_arch.c ****  * 1. Redistributions of source code must retain the above copyright notice,
  41:Source\LwIP\src/sys_arch.c ****  *    this list of conditions and the following disclaimer.
  42:Source\LwIP\src/sys_arch.c ****  * 2. Redistributions in binary form must reproduce the above copyright notice,
  43:Source\LwIP\src/sys_arch.c ****  *    this list of conditions and the following disclaimer in the documentation
  44:Source\LwIP\src/sys_arch.c ****  *    and/or other materials provided with the distribution.
  45:Source\LwIP\src/sys_arch.c ****  * 3. The name of the author may not be used to endorse or promote products
  46:Source\LwIP\src/sys_arch.c ****  *    derived from this software without specific prior written permission.
  47:Source\LwIP\src/sys_arch.c ****  *
  48:Source\LwIP\src/sys_arch.c ****  * THIS SOFTWARE IS PROVIDED BY THE AUTHOR ``AS IS'' AND ANY EXPRESS OR IMPLIED
  49:Source\LwIP\src/sys_arch.c ****  * WARRANTIES, INCLUDING, BUT NOT LIMITED TO, THE IMPLIED WARRANTIES OF
  50:Source\LwIP\src/sys_arch.c ****  * MERCHANTABILITY AND FITNESS FOR A PARTICULAR PURPOSE ARE DISCLAIMED. IN NO EVENT
  51:Source\LwIP\src/sys_arch.c ****  * SHALL THE AUTHOR BE LIABLE FOR ANY DIRECT, INDIRECT, INCIDENTAL, SPECIAL,
  52:Source\LwIP\src/sys_arch.c ****  * EXEMPLARY, OR CONSEQUENTIAL DAMAGES (INCLUDING, BUT NOT LIMITED TO, PROCUREMENT
  53:Source\LwIP\src/sys_arch.c ****  * OF SUBSTITUTE GOODS OR SERVICES; LOSS OF USE, DATA, OR PROFITS; OR BUSINESS
  54:Source\LwIP\src/sys_arch.c ****  * INTERRUPTION) HOWEVER CAUSED AND ON ANY THEORY OF LIABILITY, WHETHER IN
  55:Source\LwIP\src/sys_arch.c ****  * CONTRACT, STRICT LIABILITY, OR TORT (INCLUDING NEGLIGENCE OR OTHERWISE) ARISING
  56:Source\LwIP\src/sys_arch.c ****  * IN ANY WAY OUT OF THE USE OF THIS SOFTWARE, EVEN IF ADVISED OF THE POSSIBILITY
  57:Source\LwIP\src/sys_arch.c ****  * OF SUCH DAMAGE.
  58:Source\LwIP\src/sys_arch.c ****  *
  59:Source\LwIP\src/sys_arch.c ****  * This file is part of the lwIP TCP/IP stack.
  60:Source\LwIP\src/sys_arch.c ****  *
  61:Source\LwIP\src/sys_arch.c ****  * Author: Adam Dunkels <adam@sics.se>
  62:Source\LwIP\src/sys_arch.c ****  *
  63:Source\LwIP\src/sys_arch.c ****  */
  64:Source\LwIP\src/sys_arch.c **** 
  65:Source\LwIP\src/sys_arch.c **** /* lwIP includes. */
  66:Source\LwIP\src/sys_arch.c **** #include "lwip/debug.h"
  67:Source\LwIP\src/sys_arch.c **** #include "lwip/def.h"
  68:Source\LwIP\src/sys_arch.c **** #include "lwip/sys.h"
  69:Source\LwIP\src/sys_arch.c **** #include "lwip/mem.h"
  70:Source\LwIP\src/sys_arch.c **** #include "lwip/stats.h"
  71:Source\LwIP\src/sys_arch.c **** //#include "wiced_utilities.h"
  72:Source\LwIP\src/sys_arch.c **** //#include "wiced_crypto.h"
  73:Source\LwIP\src/sys_arch.c **** //#include "wwd_rtos_interface.h"
  74:Source\LwIP\src/sys_arch.c **** 
  75:Source\LwIP\src/sys_arch.c **** typedef enum
  76:Source\LwIP\src/sys_arch.c **** {
  77:Source\LwIP\src/sys_arch.c ****     LEAK_CHECK_THREAD,  /**< Thread scope */
  78:Source\LwIP\src/sys_arch.c ****     LEAK_CHECK_GLOBAL,  /**< Global scope */
  79:Source\LwIP\src/sys_arch.c **** } leak_check_scope_t;
  80:Source\LwIP\src/sys_arch.c **** 
  81:Source\LwIP\src/sys_arch.c **** /* Message queue constants. */
  82:Source\LwIP\src/sys_arch.c **** #define archMESG_QUEUE_LENGTH     ( (unsigned long) 6 )
  83:Source\LwIP\src/sys_arch.c **** #define archPOST_BLOCK_TIME_MS    ( ( unsigned long ) 10000 )
  84:Source\LwIP\src/sys_arch.c **** 
  85:Source\LwIP\src/sys_arch.c **** /* The timeout code seems to be unused */
  86:Source\LwIP\src/sys_arch.c **** #if LWIP_SYS_ARCH_TIMEOUTS
  87:Source\LwIP\src/sys_arch.c **** struct timeout_list
ARM GAS  C:\Users\Phuong\AppData\Local\Temp\ccGRUYyX.s 			page 3


  88:Source\LwIP\src/sys_arch.c **** {
  89:Source\LwIP\src/sys_arch.c ****     struct sys_timeouts timeouts;
  90:Source\LwIP\src/sys_arch.c ****     xTaskHandle pid;
  91:Source\LwIP\src/sys_arch.c **** };
  92:Source\LwIP\src/sys_arch.c **** static struct timeout_list timeout_list[SYS_THREAD_MAX];
  93:Source\LwIP\src/sys_arch.c **** static uint16_t next_thread = 0;
  94:Source\LwIP\src/sys_arch.c **** #endif /* if LWIP_SYS_ARCH_TIMEOUTS */
  95:Source\LwIP\src/sys_arch.c **** 
  96:Source\LwIP\src/sys_arch.c **** /* This is the number of threads that can be started with sys_thread_new() */
  97:Source\LwIP\src/sys_arch.c **** #define SYS_THREAD_MAX                 (4)
  98:Source\LwIP\src/sys_arch.c **** 
  99:Source\LwIP\src/sys_arch.c **** #define lwipTCP_STACK_SIZE             (600)
 100:Source\LwIP\src/sys_arch.c **** #define lwipBASIC_SERVER_STACK_SIZE    (250)
 101:Source\LwIP\src/sys_arch.c **** 
 102:Source\LwIP\src/sys_arch.c **** /*-----------------------------------------------------------------------------------
 103:Source\LwIP\src/sys_arch.c ****  * Creates an empty mailbox.
 104:Source\LwIP\src/sys_arch.c ****  */
 105:Source\LwIP\src/sys_arch.c **** err_t sys_mbox_new( /*@special@*/ /*@out@*/ sys_mbox_t *mbox, /*@unused@*/int size ) /*@allocates *
 106:Source\LwIP\src/sys_arch.c **** {
  28              		.loc 1 106 0
  29              		.cfi_startproc
  30              		@ args = 0, pretend = 0, frame = 0
  31              		@ frame_needed = 0, uses_anonymous_args = 0
  32              	.LVL0:
  33 0000 10B5     		push	{r4, lr}
  34              		.cfi_def_cfa_offset 8
  35              		.cfi_offset 4, -8
  36              		.cfi_offset 14, -4
  37 0002 0400     		movs	r4, r0
 107:Source\LwIP\src/sys_arch.c ****     /*@-noeffect@*/
 108:Source\LwIP\src/sys_arch.c ****     (void) size; /* unused parameter */
 109:Source\LwIP\src/sys_arch.c ****     /*@+noeffect@*/
 110:Source\LwIP\src/sys_arch.c **** 
 111:Source\LwIP\src/sys_arch.c ****     *mbox = xQueueCreate( archMESG_QUEUE_LENGTH, (unsigned long) sizeof(void *) );
  38              		.loc 1 111 0
  39 0004 0022     		movs	r2, #0
  40 0006 0421     		movs	r1, #4
  41              	.LVL1:
  42 0008 0620     		movs	r0, #6
  43              	.LVL2:
  44 000a FFF7FEFF 		bl	xQueueGenericCreate
  45              	.LVL3:
  46 000e 2060     		str	r0, [r4]
 112:Source\LwIP\src/sys_arch.c **** 
 113:Source\LwIP\src/sys_arch.c ****     /*@-compdef@*/ /* Lint doesnt realise allocation has occurred */
 114:Source\LwIP\src/sys_arch.c ****     return ERR_OK;
 115:Source\LwIP\src/sys_arch.c ****     /*@+compdef@*/
 116:Source\LwIP\src/sys_arch.c **** }
  47              		.loc 1 116 0
  48 0010 0020     		movs	r0, #0
  49              		@ sp needed
  50              	.LVL4:
  51 0012 10BD     		pop	{r4, pc}
  52              		.cfi_endproc
  53              	.LFE53:
  54              		.size	sys_mbox_new, .-sys_mbox_new
  55              		.section	.text.sys_mbox_free,"ax",%progbits
ARM GAS  C:\Users\Phuong\AppData\Local\Temp\ccGRUYyX.s 			page 4


  56              		.align	2
  57              		.global	sys_mbox_free
  58              		.code	16
  59              		.thumb_func
  60              		.type	sys_mbox_free, %function
  61              	sys_mbox_free:
  62              	.LFB54:
 117:Source\LwIP\src/sys_arch.c **** 
 118:Source\LwIP\src/sys_arch.c **** /*-----------------------------------------------------------------------------------
 119:Source\LwIP\src/sys_arch.c ****  * Deallocates a mailbox. If there are messages still present in the
 120:Source\LwIP\src/sys_arch.c ****  * mailbox when the mailbox is deallocated, it is an indication of a
 121:Source\LwIP\src/sys_arch.c ****  * programming error in lwIP and the developer should be notified.
 122:Source\LwIP\src/sys_arch.c ****  */
 123:Source\LwIP\src/sys_arch.c **** void sys_mbox_free( /*@special@*/ sys_mbox_t *mbox ) /*@releases *mbox@*/
 124:Source\LwIP\src/sys_arch.c **** {
  63              		.loc 1 124 0
  64              		.cfi_startproc
  65              		@ args = 0, pretend = 0, frame = 0
  66              		@ frame_needed = 0, uses_anonymous_args = 0
  67              	.LVL5:
  68 0000 10B5     		push	{r4, lr}
  69              		.cfi_def_cfa_offset 8
  70              		.cfi_offset 4, -8
  71              		.cfi_offset 14, -4
  72 0002 0400     		movs	r4, r0
 125:Source\LwIP\src/sys_arch.c ****     if ( uxQueueMessagesWaiting( *mbox ) != 0 )
  73              		.loc 1 125 0
  74 0004 0068     		ldr	r0, [r0]
  75              	.LVL6:
  76 0006 FFF7FEFF 		bl	uxQueueMessagesWaiting
  77              	.LVL7:
  78 000a 0028     		cmp	r0, #0
  79 000c 00D0     		beq	.L3
 126:Source\LwIP\src/sys_arch.c ****     {
 127:Source\LwIP\src/sys_arch.c ****         /* Line for breakpoint.  Should never break here! */
 128:Source\LwIP\src/sys_arch.c **** #ifdef __GNUC__
 129:Source\LwIP\src/sys_arch.c ****         __asm volatile ( "NOP" );
  80              		.loc 1 129 0
  81              		.syntax divided
  82              	@ 129 "Source\LwIP\src\sys_arch.c" 1
  83 000e C046     		NOP
  84              	@ 0 "" 2
  85              		.thumb
  86              		.syntax unified
  87              	.L3:
 130:Source\LwIP\src/sys_arch.c **** #elif defined( __IAR_SYSTEMS_ICC__ )
 131:Source\LwIP\src/sys_arch.c ****         asm( "NOP" );
 132:Source\LwIP\src/sys_arch.c **** #endif
 133:Source\LwIP\src/sys_arch.c ****     }
 134:Source\LwIP\src/sys_arch.c **** 
 135:Source\LwIP\src/sys_arch.c ****     vQueueDelete( *mbox );
  88              		.loc 1 135 0
  89 0010 2068     		ldr	r0, [r4]
  90 0012 FFF7FEFF 		bl	vQueueDelete
  91              	.LVL8:
 136:Source\LwIP\src/sys_arch.c **** }
  92              		.loc 1 136 0
ARM GAS  C:\Users\Phuong\AppData\Local\Temp\ccGRUYyX.s 			page 5


  93              		@ sp needed
  94              	.LVL9:
  95 0016 10BD     		pop	{r4, pc}
  96              		.cfi_endproc
  97              	.LFE54:
  98              		.size	sys_mbox_free, .-sys_mbox_free
  99              		.section	.text.sys_mbox_post,"ax",%progbits
 100              		.align	2
 101              		.global	sys_mbox_post
 102              		.code	16
 103              		.thumb_func
 104              		.type	sys_mbox_post, %function
 105              	sys_mbox_post:
 106              	.LFB55:
 137:Source\LwIP\src/sys_arch.c **** 
 138:Source\LwIP\src/sys_arch.c **** /*-----------------------------------------------------------------------------------
 139:Source\LwIP\src/sys_arch.c ****  * Posts the "msg" to the mailbox.
 140:Source\LwIP\src/sys_arch.c ****  */
 141:Source\LwIP\src/sys_arch.c **** void sys_mbox_post( sys_mbox_t *mbox, void *msg )
 142:Source\LwIP\src/sys_arch.c **** {
 107              		.loc 1 142 0
 108              		.cfi_startproc
 109              		@ args = 0, pretend = 0, frame = 8
 110              		@ frame_needed = 0, uses_anonymous_args = 0
 111              	.LVL10:
 112 0000 00B5     		push	{lr}
 113              		.cfi_def_cfa_offset 4
 114              		.cfi_offset 14, -4
 115 0002 83B0     		sub	sp, sp, #12
 116              		.cfi_def_cfa_offset 16
 117 0004 0191     		str	r1, [sp, #4]
 143:Source\LwIP\src/sys_arch.c ****     signed portBASE_TYPE retval;
 144:Source\LwIP\src/sys_arch.c ****     retval = xQueueSend( *mbox, &msg, ( TickType_t ) ( archPOST_BLOCK_TIME_MS / portTICK_PERIOD_MS 
 118              		.loc 1 144 0
 119 0006 0068     		ldr	r0, [r0]
 120              	.LVL11:
 121 0008 0023     		movs	r3, #0
 122 000a 034A     		ldr	r2, .L5
 123 000c 01A9     		add	r1, sp, #4
 124              	.LVL12:
 125 000e FFF7FEFF 		bl	xQueueGenericSend
 126              	.LVL13:
 145:Source\LwIP\src/sys_arch.c ****     LWIP_ASSERT("Error posting to LwIP mailbox", retval == pdTRUE );
 146:Source\LwIP\src/sys_arch.c **** }
 127              		.loc 1 146 0
 128 0012 03B0     		add	sp, sp, #12
 129              		@ sp needed
 130 0014 00BD     		pop	{pc}
 131              	.L6:
 132 0016 C046     		.align	2
 133              	.L5:
 134 0018 10270000 		.word	10000
 135              		.cfi_endproc
 136              	.LFE55:
 137              		.size	sys_mbox_post, .-sys_mbox_post
 138              		.section	.text.sys_arch_mbox_fetch,"ax",%progbits
 139              		.align	2
ARM GAS  C:\Users\Phuong\AppData\Local\Temp\ccGRUYyX.s 			page 6


 140              		.global	sys_arch_mbox_fetch
 141              		.code	16
 142              		.thumb_func
 143              		.type	sys_arch_mbox_fetch, %function
 144              	sys_arch_mbox_fetch:
 145              	.LFB56:
 147:Source\LwIP\src/sys_arch.c **** 
 148:Source\LwIP\src/sys_arch.c **** /*-----------------------------------------------------------------------------------
 149:Source\LwIP\src/sys_arch.c ****  * Blocks the thread until a message arrives in the mailbox, but does
 150:Source\LwIP\src/sys_arch.c ****  * not block the thread longer than "timeout" milliseconds (similar to
 151:Source\LwIP\src/sys_arch.c ****  * the sys_arch_sem_wait() function). The "msg" argument is a result
 152:Source\LwIP\src/sys_arch.c ****  * parameter that is set by the function (i.e., by doing "*msg =
 153:Source\LwIP\src/sys_arch.c ****  * ptr"). The "msg" parameter maybe NULL to indicate that the message
 154:Source\LwIP\src/sys_arch.c ****  * should be dropped.
 155:Source\LwIP\src/sys_arch.c ****  *
 156:Source\LwIP\src/sys_arch.c ****  * The return values are the same as for the sys_arch_sem_wait() function:
 157:Source\LwIP\src/sys_arch.c ****  * Number of milliseconds spent waiting or SYS_ARCH_TIMEOUT if there was a
 158:Source\LwIP\src/sys_arch.c ****  * timeout.
 159:Source\LwIP\src/sys_arch.c ****  *
 160:Source\LwIP\src/sys_arch.c ****  * Note that a function with a similar name, sys_mbox_fetch(), is
 161:Source\LwIP\src/sys_arch.c ****  * implemented by lwIP.
 162:Source\LwIP\src/sys_arch.c ****  */
 163:Source\LwIP\src/sys_arch.c **** u32_t sys_arch_mbox_fetch(sys_mbox_t *mbox, /*@null@*/ /*@out@*/ void **msg, u32_t timeout)
 164:Source\LwIP\src/sys_arch.c **** {
 146              		.loc 1 164 0
 147              		.cfi_startproc
 148              		@ args = 0, pretend = 0, frame = 16
 149              		@ frame_needed = 0, uses_anonymous_args = 0
 150              	.LVL14:
 151 0000 F0B5     		push	{r4, r5, r6, r7, lr}
 152              		.cfi_def_cfa_offset 20
 153              		.cfi_offset 4, -20
 154              		.cfi_offset 5, -16
 155              		.cfi_offset 6, -12
 156              		.cfi_offset 7, -8
 157              		.cfi_offset 14, -4
 158 0002 85B0     		sub	sp, sp, #20
 159              		.cfi_def_cfa_offset 40
 160 0004 0500     		movs	r5, r0
 161 0006 0C00     		movs	r4, r1
 162 0008 1600     		movs	r6, r2
 165:Source\LwIP\src/sys_arch.c ****     void *dummyptr;
 166:Source\LwIP\src/sys_arch.c ****     void ** tmp_ptr;
 167:Source\LwIP\src/sys_arch.c ****     TickType_t start_time, end_time, elapsed_time;
 168:Source\LwIP\src/sys_arch.c **** 
 169:Source\LwIP\src/sys_arch.c ****     start_time = xTaskGetTickCount( );
 163              		.loc 1 169 0
 164 000a FFF7FEFF 		bl	xTaskGetTickCount
 165              	.LVL15:
 166 000e 0190     		str	r0, [sp, #4]
 167              	.LVL16:
 170:Source\LwIP\src/sys_arch.c **** 
 171:Source\LwIP\src/sys_arch.c ****     if ( msg == NULL )
 168              		.loc 1 171 0
 169 0010 002C     		cmp	r4, #0
 170 0012 01D1     		bne	.L13
 172:Source\LwIP\src/sys_arch.c ****     {
ARM GAS  C:\Users\Phuong\AppData\Local\Temp\ccGRUYyX.s 			page 7


 173:Source\LwIP\src/sys_arch.c ****         tmp_ptr = &dummyptr;
 171              		.loc 1 173 0
 172 0014 03AF     		add	r7, sp, #12
 173 0016 00E0     		b	.L8
 174              	.L13:
 174:Source\LwIP\src/sys_arch.c ****     }
 175:Source\LwIP\src/sys_arch.c ****     else
 176:Source\LwIP\src/sys_arch.c ****     {
 177:Source\LwIP\src/sys_arch.c ****         tmp_ptr = msg;
 175              		.loc 1 177 0
 176 0018 2700     		movs	r7, r4
 177              	.L8:
 178              	.LVL17:
 178:Source\LwIP\src/sys_arch.c ****     }
 179:Source\LwIP\src/sys_arch.c **** 
 180:Source\LwIP\src/sys_arch.c ****     if ( timeout != 0 )
 179              		.loc 1 180 0
 180 001a 002E     		cmp	r6, #0
 181 001c 13D0     		beq	.L9
 181:Source\LwIP\src/sys_arch.c ****     {
 182:Source\LwIP\src/sys_arch.c ****         if ( pdTRUE == xQueueReceive( *mbox, tmp_ptr, timeout ) )
 182              		.loc 1 182 0
 183 001e 2868     		ldr	r0, [r5]
 184              	.LVL18:
 185 0020 3200     		movs	r2, r6
 186 0022 3900     		movs	r1, r7
 187 0024 FFF7FEFF 		bl	xQueueReceive
 188              	.LVL19:
 189 0028 0128     		cmp	r0, #1
 190 002a 05D1     		bne	.L10
 183:Source\LwIP\src/sys_arch.c ****         {
 184:Source\LwIP\src/sys_arch.c ****             end_time = xTaskGetTickCount( );
 191              		.loc 1 184 0
 192 002c FFF7FEFF 		bl	xTaskGetTickCount
 193              	.LVL20:
 185:Source\LwIP\src/sys_arch.c ****             elapsed_time = end_time - start_time;
 194              		.loc 1 185 0
 195 0030 019B     		ldr	r3, [sp, #4]
 196 0032 C01A     		subs	r0, r0, r3
 197              	.LVL21:
 186:Source\LwIP\src/sys_arch.c ****             if ( elapsed_time == 0 )
 198              		.loc 1 186 0
 199 0034 19D0     		beq	.L14
 200 0036 1EE0     		b	.L11
 201              	.LVL22:
 202              	.L10:
 187:Source\LwIP\src/sys_arch.c ****             {
 188:Source\LwIP\src/sys_arch.c ****                 elapsed_time = (TickType_t) 1;
 189:Source\LwIP\src/sys_arch.c ****             }
 190:Source\LwIP\src/sys_arch.c ****             return ( elapsed_time );
 191:Source\LwIP\src/sys_arch.c ****         }
 192:Source\LwIP\src/sys_arch.c ****         else /* timed out blocking for message */
 193:Source\LwIP\src/sys_arch.c ****         {
 194:Source\LwIP\src/sys_arch.c ****             if ( msg != NULL )
 203              		.loc 1 194 0
 204 0038 002C     		cmp	r4, #0
 205 003a 18D0     		beq	.L15
ARM GAS  C:\Users\Phuong\AppData\Local\Temp\ccGRUYyX.s 			page 8


 195:Source\LwIP\src/sys_arch.c ****             {
 196:Source\LwIP\src/sys_arch.c ****                 *msg = NULL;
 206              		.loc 1 196 0
 207 003c 0023     		movs	r3, #0
 208 003e 2360     		str	r3, [r4]
 197:Source\LwIP\src/sys_arch.c ****             }
 198:Source\LwIP\src/sys_arch.c ****             return SYS_ARCH_TIMEOUT;
 209              		.loc 1 198 0
 210 0040 0120     		movs	r0, #1
 211 0042 4042     		rsbs	r0, r0, #0
 212 0044 17E0     		b	.L11
 213              	.LVL23:
 214              	.L9:
 199:Source\LwIP\src/sys_arch.c ****         }
 200:Source\LwIP\src/sys_arch.c ****     }
 201:Source\LwIP\src/sys_arch.c ****     else /* block forever for a message. */
 202:Source\LwIP\src/sys_arch.c ****     {
 203:Source\LwIP\src/sys_arch.c ****         if ( xQueueReceive( *mbox, &(*tmp_ptr), (TickType_t) 0xFFFFFFFF ) == errQUEUE_EMPTY)
 215              		.loc 1 203 0
 216 0046 2868     		ldr	r0, [r5]
 217              	.LVL24:
 218 0048 0122     		movs	r2, #1
 219 004a 5242     		rsbs	r2, r2, #0
 220 004c 3900     		movs	r1, r7
 221 004e FFF7FEFF 		bl	xQueueReceive
 222              	.LVL25:
 223 0052 0028     		cmp	r0, #0
 224 0054 03D1     		bne	.L12
 204:Source\LwIP\src/sys_arch.c ****         {
 205:Source\LwIP\src/sys_arch.c ****             *tmp_ptr = NULL;
 225              		.loc 1 205 0
 226 0056 0023     		movs	r3, #0
 227 0058 3B60     		str	r3, [r7]
 206:Source\LwIP\src/sys_arch.c ****             return SYS_ARCH_TIMEOUT;
 228              		.loc 1 206 0
 229 005a 0138     		subs	r0, r0, #1
 230 005c 0BE0     		b	.L11
 231              	.L12:
 207:Source\LwIP\src/sys_arch.c ****         }
 208:Source\LwIP\src/sys_arch.c **** 
 209:Source\LwIP\src/sys_arch.c ****         end_time = xTaskGetTickCount( );
 232              		.loc 1 209 0
 233 005e FFF7FEFF 		bl	xTaskGetTickCount
 234              	.LVL26:
 210:Source\LwIP\src/sys_arch.c ****         elapsed_time = end_time - start_time;
 235              		.loc 1 210 0
 236 0062 019B     		ldr	r3, [sp, #4]
 237 0064 C01A     		subs	r0, r0, r3
 238              	.LVL27:
 211:Source\LwIP\src/sys_arch.c ****         if ( elapsed_time == 0 )
 239              		.loc 1 211 0
 240 0066 05D0     		beq	.L16
 241 0068 05E0     		b	.L11
 242              	.L14:
 188:Source\LwIP\src/sys_arch.c ****             }
 243              		.loc 1 188 0
 244 006a 0120     		movs	r0, #1
ARM GAS  C:\Users\Phuong\AppData\Local\Temp\ccGRUYyX.s 			page 9


 245              	.LVL28:
 246 006c 03E0     		b	.L11
 247              	.L15:
 198:Source\LwIP\src/sys_arch.c ****         }
 248              		.loc 1 198 0
 249 006e 0120     		movs	r0, #1
 250 0070 4042     		rsbs	r0, r0, #0
 251 0072 00E0     		b	.L11
 252              	.LVL29:
 253              	.L16:
 212:Source\LwIP\src/sys_arch.c ****         {
 213:Source\LwIP\src/sys_arch.c ****             elapsed_time = (TickType_t) 1;
 254              		.loc 1 213 0
 255 0074 0120     		movs	r0, #1
 256              	.LVL30:
 257              	.L11:
 214:Source\LwIP\src/sys_arch.c ****         }
 215:Source\LwIP\src/sys_arch.c ****         return ( elapsed_time ); /* return time blocked TBD test */
 216:Source\LwIP\src/sys_arch.c ****     }
 217:Source\LwIP\src/sys_arch.c **** }
 258              		.loc 1 217 0
 259 0076 05B0     		add	sp, sp, #20
 260              		@ sp needed
 261              	.LVL31:
 262              	.LVL32:
 263              	.LVL33:
 264              	.LVL34:
 265 0078 F0BD     		pop	{r4, r5, r6, r7, pc}
 266              		.cfi_endproc
 267              	.LFE56:
 268              		.size	sys_arch_mbox_fetch, .-sys_arch_mbox_fetch
 269 007a C046     		.section	.text.sys_sem_new,"ax",%progbits
 270              		.align	2
 271              		.global	sys_sem_new
 272              		.code	16
 273              		.thumb_func
 274              		.type	sys_sem_new, %function
 275              	sys_sem_new:
 276              	.LFB57:
 218:Source\LwIP\src/sys_arch.c **** 
 219:Source\LwIP\src/sys_arch.c **** /*-----------------------------------------------------------------------------------
 220:Source\LwIP\src/sys_arch.c ****  * Creates and returns a new semaphore. The "count" argument specifies
 221:Source\LwIP\src/sys_arch.c ****  * the initial state of the semaphore. TBD finish and test
 222:Source\LwIP\src/sys_arch.c ****  */
 223:Source\LwIP\src/sys_arch.c **** err_t sys_sem_new( /*@special@*/ /*@out@*/ sys_sem_t *sem, u8_t count) /*@allocates *sem@*/
 224:Source\LwIP\src/sys_arch.c **** {
 277              		.loc 1 224 0
 278              		.cfi_startproc
 279              		@ args = 0, pretend = 0, frame = 0
 280              		@ frame_needed = 0, uses_anonymous_args = 0
 281              	.LVL35:
 282 0000 70B5     		push	{r4, r5, r6, lr}
 283              		.cfi_def_cfa_offset 16
 284              		.cfi_offset 4, -16
 285              		.cfi_offset 5, -12
 286              		.cfi_offset 6, -8
 287              		.cfi_offset 14, -4
ARM GAS  C:\Users\Phuong\AppData\Local\Temp\ccGRUYyX.s 			page 10


 288 0002 0400     		movs	r4, r0
 289 0004 0D00     		movs	r5, r1
 225:Source\LwIP\src/sys_arch.c ****     if ( sem == NULL )
 290              		.loc 1 225 0
 291 0006 0028     		cmp	r0, #0
 292 0008 29D0     		beq	.L22
 226:Source\LwIP\src/sys_arch.c ****     {
 227:Source\LwIP\src/sys_arch.c ****         /*@-mustdefine@*/ /*@-compdef@*/ /* do not need to allocate or set *sem */
 228:Source\LwIP\src/sys_arch.c ****         return ERR_VAL;
 229:Source\LwIP\src/sys_arch.c ****         /*@+mustdefine@*/ /*@+compdef@*/
 230:Source\LwIP\src/sys_arch.c ****     }
 231:Source\LwIP\src/sys_arch.c **** 
 232:Source\LwIP\src/sys_arch.c ****     portENTER_CRITICAL();
 293              		.loc 1 232 0
 294 000a FFF7FEFF 		bl	vPortEnterCritical
 295              	.LVL36:
 233:Source\LwIP\src/sys_arch.c ****     vSemaphoreCreateBinary( *sem )
 296              		.loc 1 233 0
 297 000e 0322     		movs	r2, #3
 298 0010 0021     		movs	r1, #0
 299 0012 0120     		movs	r0, #1
 300 0014 FFF7FEFF 		bl	xQueueGenericCreate
 301              	.LVL37:
 302 0018 2060     		str	r0, [r4]
 303 001a 0028     		cmp	r0, #0
 304 001c 04D0     		beq	.L19
 305              		.loc 1 233 0 is_stmt 0 discriminator 1
 306 001e 0023     		movs	r3, #0
 307 0020 0022     		movs	r2, #0
 308 0022 0021     		movs	r1, #0
 309 0024 FFF7FEFF 		bl	xQueueGenericSend
 310              	.LVL38:
 311              	.L19:
 234:Source\LwIP\src/sys_arch.c ****    // *sem = xSemaphoreCreateBinary();
 235:Source\LwIP\src/sys_arch.c ****     if ( *sem == NULL )
 312              		.loc 1 235 0 is_stmt 1
 313 0028 2068     		ldr	r0, [r4]
 314 002a 0028     		cmp	r0, #0
 315 002c 04D1     		bne	.L20
 236:Source\LwIP\src/sys_arch.c ****     {
 237:Source\LwIP\src/sys_arch.c ****         portEXIT_CRITICAL();
 316              		.loc 1 237 0
 317 002e FFF7FEFF 		bl	vPortExitCritical
 318              	.LVL39:
 238:Source\LwIP\src/sys_arch.c ****         /*@-mustdefine@*/ /*@-compdef@*/ /* allocation failed - dont allocate or set *sem */
 239:Source\LwIP\src/sys_arch.c ****         return ERR_MEM;
 319              		.loc 1 239 0
 320 0032 0120     		movs	r0, #1
 321 0034 4042     		rsbs	r0, r0, #0
 322 0036 14E0     		b	.L18
 323              	.L20:
 240:Source\LwIP\src/sys_arch.c ****         /*@+mustdefine@*/ /*@+compdef@*/
 241:Source\LwIP\src/sys_arch.c ****     }
 242:Source\LwIP\src/sys_arch.c **** 
 243:Source\LwIP\src/sys_arch.c ****     if ( count == (u8_t) 0 ) /* Means it can't be taken */
 324              		.loc 1 243 0
 325 0038 002D     		cmp	r5, #0
ARM GAS  C:\Users\Phuong\AppData\Local\Temp\ccGRUYyX.s 			page 11


 326 003a 0CD1     		bne	.L21
 244:Source\LwIP\src/sys_arch.c ****     {
 245:Source\LwIP\src/sys_arch.c ****         if ( pdTRUE != xSemaphoreTake( *sem, (TickType_t) 1 ) )
 327              		.loc 1 245 0
 328 003c 0121     		movs	r1, #1
 329 003e FFF7FEFF 		bl	xQueueSemaphoreTake
 330              	.LVL40:
 331 0042 0128     		cmp	r0, #1
 332 0044 07D0     		beq	.L21
 246:Source\LwIP\src/sys_arch.c ****         {
 247:Source\LwIP\src/sys_arch.c ****             vQueueDelete( *sem );
 333              		.loc 1 247 0
 334 0046 2068     		ldr	r0, [r4]
 335 0048 FFF7FEFF 		bl	vQueueDelete
 336              	.LVL41:
 248:Source\LwIP\src/sys_arch.c ****             portEXIT_CRITICAL();
 337              		.loc 1 248 0
 338 004c FFF7FEFF 		bl	vPortExitCritical
 339              	.LVL42:
 249:Source\LwIP\src/sys_arch.c ****             /*@-compdef@*/ /* take failed - dont allocate or set *sem */
 250:Source\LwIP\src/sys_arch.c ****             return ERR_VAL;
 340              		.loc 1 250 0
 341 0050 0620     		movs	r0, #6
 342 0052 4042     		rsbs	r0, r0, #0
 343 0054 05E0     		b	.L18
 344              	.L21:
 251:Source\LwIP\src/sys_arch.c ****             /*@+compdef@*/
 252:Source\LwIP\src/sys_arch.c ****         }
 253:Source\LwIP\src/sys_arch.c ****     }
 254:Source\LwIP\src/sys_arch.c **** 
 255:Source\LwIP\src/sys_arch.c ****     portEXIT_CRITICAL();
 345              		.loc 1 255 0
 346 0056 FFF7FEFF 		bl	vPortExitCritical
 347              	.LVL43:
 256:Source\LwIP\src/sys_arch.c **** 
 257:Source\LwIP\src/sys_arch.c ****     /*@-compdef@*/ /* Lint doesnt realise allocation has occurred */
 258:Source\LwIP\src/sys_arch.c ****     return ERR_OK;
 348              		.loc 1 258 0
 349 005a 0020     		movs	r0, #0
 350 005c 01E0     		b	.L18
 351              	.LVL44:
 352              	.L22:
 228:Source\LwIP\src/sys_arch.c ****         /*@+mustdefine@*/ /*@+compdef@*/
 353              		.loc 1 228 0
 354 005e 0620     		movs	r0, #6
 355              	.LVL45:
 356 0060 4042     		rsbs	r0, r0, #0
 357              	.LVL46:
 358              	.L18:
 259:Source\LwIP\src/sys_arch.c ****     /*@+compdef@*/
 260:Source\LwIP\src/sys_arch.c **** }
 359              		.loc 1 260 0
 360              		@ sp needed
 361              	.LVL47:
 362 0062 70BD     		pop	{r4, r5, r6, pc}
 363              		.cfi_endproc
 364              	.LFE57:
ARM GAS  C:\Users\Phuong\AppData\Local\Temp\ccGRUYyX.s 			page 12


 365              		.size	sys_sem_new, .-sys_sem_new
 366              		.section	.text.sys_arch_sem_wait,"ax",%progbits
 367              		.align	2
 368              		.global	sys_arch_sem_wait
 369              		.code	16
 370              		.thumb_func
 371              		.type	sys_arch_sem_wait, %function
 372              	sys_arch_sem_wait:
 373              	.LFB58:
 261:Source\LwIP\src/sys_arch.c **** 
 262:Source\LwIP\src/sys_arch.c **** /*-----------------------------------------------------------------------------------
 263:Source\LwIP\src/sys_arch.c ****  * Blocks the thread while waiting for the semaphore to be
 264:Source\LwIP\src/sys_arch.c ****  * signaled. If the "timeout" argument is non-zero, the thread should
 265:Source\LwIP\src/sys_arch.c ****  * only be blocked for the specified time (measured in
 266:Source\LwIP\src/sys_arch.c ****  * milliseconds).
 267:Source\LwIP\src/sys_arch.c ****  *
 268:Source\LwIP\src/sys_arch.c ****  * If the timeout argument is non-zero, the return value is the number of
 269:Source\LwIP\src/sys_arch.c ****  * milliseconds spent waiting for the semaphore to be signaled. If the
 270:Source\LwIP\src/sys_arch.c ****  * semaphore wasn't signaled within the specified time, the return value is
 271:Source\LwIP\src/sys_arch.c ****  * SYS_ARCH_TIMEOUT. If the thread didn't have to wait for the semaphore
 272:Source\LwIP\src/sys_arch.c ****  * (i.e., it was already signaled), the function may return zero.
 273:Source\LwIP\src/sys_arch.c ****  *
 274:Source\LwIP\src/sys_arch.c ****  * Notice that lwIP implements a function with a similar name,
 275:Source\LwIP\src/sys_arch.c ****  * sys_sem_wait(), that uses the sys_arch_sem_wait() function.
 276:Source\LwIP\src/sys_arch.c ****  */
 277:Source\LwIP\src/sys_arch.c **** u32_t sys_arch_sem_wait(sys_sem_t *sem, u32_t timeout)
 278:Source\LwIP\src/sys_arch.c **** {
 374              		.loc 1 278 0
 375              		.cfi_startproc
 376              		@ args = 0, pretend = 0, frame = 0
 377              		@ frame_needed = 0, uses_anonymous_args = 0
 378              	.LVL48:
 379 0000 70B5     		push	{r4, r5, r6, lr}
 380              		.cfi_def_cfa_offset 16
 381              		.cfi_offset 4, -16
 382              		.cfi_offset 5, -12
 383              		.cfi_offset 6, -8
 384              		.cfi_offset 14, -4
 385 0002 0400     		movs	r4, r0
 386 0004 0E00     		movs	r6, r1
 279:Source\LwIP\src/sys_arch.c ****     TickType_t start_time, end_time, elapsed_time;
 280:Source\LwIP\src/sys_arch.c **** 
 281:Source\LwIP\src/sys_arch.c ****     start_time = xTaskGetTickCount( );
 387              		.loc 1 281 0
 388 0006 FFF7FEFF 		bl	xTaskGetTickCount
 389              	.LVL49:
 390 000a 0500     		movs	r5, r0
 391              	.LVL50:
 282:Source\LwIP\src/sys_arch.c **** 
 283:Source\LwIP\src/sys_arch.c ****     if ( timeout != 0 )
 392              		.loc 1 283 0
 393 000c 002E     		cmp	r6, #0
 394 000e 0AD0     		beq	.L24
 284:Source\LwIP\src/sys_arch.c ****     {
 285:Source\LwIP\src/sys_arch.c ****         if ( xSemaphoreTake( *sem, timeout ) == (long) pdTRUE )
 395              		.loc 1 285 0
 396 0010 2068     		ldr	r0, [r4]
ARM GAS  C:\Users\Phuong\AppData\Local\Temp\ccGRUYyX.s 			page 13


 397              	.LVL51:
 398 0012 3100     		movs	r1, r6
 399 0014 FFF7FEFF 		bl	xQueueSemaphoreTake
 400              	.LVL52:
 401 0018 0128     		cmp	r0, #1
 402 001a 0FD1     		bne	.L26
 286:Source\LwIP\src/sys_arch.c ****         {
 287:Source\LwIP\src/sys_arch.c ****             end_time = xTaskGetTickCount( );
 403              		.loc 1 287 0
 404 001c FFF7FEFF 		bl	xTaskGetTickCount
 405              	.LVL53:
 288:Source\LwIP\src/sys_arch.c ****             elapsed_time = end_time - start_time;
 406              		.loc 1 288 0
 407 0020 401B     		subs	r0, r0, r5
 408              	.LVL54:
 289:Source\LwIP\src/sys_arch.c ****             if ( elapsed_time == 0 )
 409              		.loc 1 289 0
 410 0022 0ED0     		beq	.L27
 411 0024 10E0     		b	.L25
 412              	.LVL55:
 413              	.L24:
 290:Source\LwIP\src/sys_arch.c ****             {
 291:Source\LwIP\src/sys_arch.c ****                 elapsed_time = (TickType_t) 1;
 292:Source\LwIP\src/sys_arch.c ****             }
 293:Source\LwIP\src/sys_arch.c ****             return ( elapsed_time ); /* return time blocked TBD test */
 294:Source\LwIP\src/sys_arch.c ****         }
 295:Source\LwIP\src/sys_arch.c ****         else
 296:Source\LwIP\src/sys_arch.c ****         {
 297:Source\LwIP\src/sys_arch.c ****             return SYS_ARCH_TIMEOUT;
 298:Source\LwIP\src/sys_arch.c ****         }
 299:Source\LwIP\src/sys_arch.c ****     }
 300:Source\LwIP\src/sys_arch.c ****     else /* must block without a timeout */
 301:Source\LwIP\src/sys_arch.c ****     {
 302:Source\LwIP\src/sys_arch.c ****         while ( xSemaphoreTake( *sem, (TickType_t) 10000 ) != (long) pdTRUE )
 414              		.loc 1 302 0 discriminator 1
 415 0026 0949     		ldr	r1, .L29
 416 0028 2068     		ldr	r0, [r4]
 417 002a FFF7FEFF 		bl	xQueueSemaphoreTake
 418              	.LVL56:
 419 002e 0128     		cmp	r0, #1
 420 0030 F9D1     		bne	.L24
 303:Source\LwIP\src/sys_arch.c ****         {
 304:Source\LwIP\src/sys_arch.c ****             /* Do nothing */
 305:Source\LwIP\src/sys_arch.c ****         }
 306:Source\LwIP\src/sys_arch.c ****         end_time = xTaskGetTickCount( );
 421              		.loc 1 306 0
 422 0032 FFF7FEFF 		bl	xTaskGetTickCount
 423              	.LVL57:
 307:Source\LwIP\src/sys_arch.c ****         elapsed_time = end_time - start_time;
 424              		.loc 1 307 0
 425 0036 401B     		subs	r0, r0, r5
 426              	.LVL58:
 308:Source\LwIP\src/sys_arch.c ****         if ( elapsed_time == 0 )
 427              		.loc 1 308 0
 428 0038 05D0     		beq	.L28
 429 003a 05E0     		b	.L25
 430              	.LVL59:
ARM GAS  C:\Users\Phuong\AppData\Local\Temp\ccGRUYyX.s 			page 14


 431              	.L26:
 297:Source\LwIP\src/sys_arch.c ****         }
 432              		.loc 1 297 0
 433 003c 0120     		movs	r0, #1
 434 003e 4042     		rsbs	r0, r0, #0
 435 0040 02E0     		b	.L25
 436              	.LVL60:
 437              	.L27:
 291:Source\LwIP\src/sys_arch.c ****             }
 438              		.loc 1 291 0
 439 0042 0120     		movs	r0, #1
 440              	.LVL61:
 441 0044 00E0     		b	.L25
 442              	.LVL62:
 443              	.L28:
 309:Source\LwIP\src/sys_arch.c ****         {
 310:Source\LwIP\src/sys_arch.c ****             elapsed_time = (TickType_t) 1;
 444              		.loc 1 310 0
 445 0046 0120     		movs	r0, #1
 446              	.LVL63:
 447              	.L25:
 311:Source\LwIP\src/sys_arch.c ****         }
 312:Source\LwIP\src/sys_arch.c **** 
 313:Source\LwIP\src/sys_arch.c ****         return ( elapsed_time ); /* return time blocked */
 314:Source\LwIP\src/sys_arch.c **** 
 315:Source\LwIP\src/sys_arch.c ****     }
 316:Source\LwIP\src/sys_arch.c **** }
 448              		.loc 1 316 0
 449              		@ sp needed
 450              	.LVL64:
 451              	.LVL65:
 452              	.LVL66:
 453 0048 70BD     		pop	{r4, r5, r6, pc}
 454              	.L30:
 455 004a C046     		.align	2
 456              	.L29:
 457 004c 10270000 		.word	10000
 458              		.cfi_endproc
 459              	.LFE58:
 460              		.size	sys_arch_sem_wait, .-sys_arch_sem_wait
 461              		.section	.text.sys_sem_signal,"ax",%progbits
 462              		.align	2
 463              		.global	sys_sem_signal
 464              		.code	16
 465              		.thumb_func
 466              		.type	sys_sem_signal, %function
 467              	sys_sem_signal:
 468              	.LFB59:
 317:Source\LwIP\src/sys_arch.c **** 
 318:Source\LwIP\src/sys_arch.c **** /*-----------------------------------------------------------------------------------
 319:Source\LwIP\src/sys_arch.c ****  * Signals a semaphore
 320:Source\LwIP\src/sys_arch.c ****  */
 321:Source\LwIP\src/sys_arch.c **** void sys_sem_signal( sys_sem_t *sem )
 322:Source\LwIP\src/sys_arch.c **** {
 469              		.loc 1 322 0
 470              		.cfi_startproc
 471              		@ args = 0, pretend = 0, frame = 0
ARM GAS  C:\Users\Phuong\AppData\Local\Temp\ccGRUYyX.s 			page 15


 472              		@ frame_needed = 0, uses_anonymous_args = 0
 473              	.LVL67:
 474 0000 10B5     		push	{r4, lr}
 475              		.cfi_def_cfa_offset 8
 476              		.cfi_offset 4, -8
 477              		.cfi_offset 14, -4
 323:Source\LwIP\src/sys_arch.c ****     signed portBASE_TYPE result;
 324:Source\LwIP\src/sys_arch.c **** 
 325:Source\LwIP\src/sys_arch.c ****     result = xSemaphoreGive( *sem );
 478              		.loc 1 325 0
 479 0002 0068     		ldr	r0, [r0]
 480              	.LVL68:
 481 0004 0023     		movs	r3, #0
 482 0006 0022     		movs	r2, #0
 483 0008 0021     		movs	r1, #0
 484 000a FFF7FEFF 		bl	xQueueGenericSend
 485              	.LVL69:
 326:Source\LwIP\src/sys_arch.c ****     /*@-noeffect@*/
 327:Source\LwIP\src/sys_arch.c ****     (void) result;  /* unused in release build */
 328:Source\LwIP\src/sys_arch.c ****     /*@+noeffect@*/
 329:Source\LwIP\src/sys_arch.c **** 
 330:Source\LwIP\src/sys_arch.c ****     LWIP_ASSERT( "FreeRTOS failed to set semaphore for LwIP", result == pdTRUE );
 331:Source\LwIP\src/sys_arch.c **** }
 486              		.loc 1 331 0
 487              		@ sp needed
 488 000e 10BD     		pop	{r4, pc}
 489              		.cfi_endproc
 490              	.LFE59:
 491              		.size	sys_sem_signal, .-sys_sem_signal
 492              		.section	.text.sys_sem_free,"ax",%progbits
 493              		.align	2
 494              		.global	sys_sem_free
 495              		.code	16
 496              		.thumb_func
 497              		.type	sys_sem_free, %function
 498              	sys_sem_free:
 499              	.LFB60:
 332:Source\LwIP\src/sys_arch.c **** 
 333:Source\LwIP\src/sys_arch.c **** /*-----------------------------------------------------------------------------------
 334:Source\LwIP\src/sys_arch.c ****  * Deallocates a semaphore
 335:Source\LwIP\src/sys_arch.c ****  */
 336:Source\LwIP\src/sys_arch.c **** void sys_sem_free( /*@special@*/ sys_sem_t *sem ) /*@releases *sem@*/
 337:Source\LwIP\src/sys_arch.c **** {
 500              		.loc 1 337 0
 501              		.cfi_startproc
 502              		@ args = 0, pretend = 0, frame = 0
 503              		@ frame_needed = 0, uses_anonymous_args = 0
 504              	.LVL70:
 505 0000 10B5     		push	{r4, lr}
 506              		.cfi_def_cfa_offset 8
 507              		.cfi_offset 4, -8
 508              		.cfi_offset 14, -4
 338:Source\LwIP\src/sys_arch.c ****     vQueueDelete( *sem );
 509              		.loc 1 338 0
 510 0002 0068     		ldr	r0, [r0]
 511              	.LVL71:
 512 0004 FFF7FEFF 		bl	vQueueDelete
ARM GAS  C:\Users\Phuong\AppData\Local\Temp\ccGRUYyX.s 			page 16


 513              	.LVL72:
 339:Source\LwIP\src/sys_arch.c **** }
 514              		.loc 1 339 0
 515              		@ sp needed
 516 0008 10BD     		pop	{r4, pc}
 517              		.cfi_endproc
 518              	.LFE60:
 519              		.size	sys_sem_free, .-sys_sem_free
 520 000a C046     		.section	.text.sys_init,"ax",%progbits
 521              		.align	2
 522              		.global	sys_init
 523              		.code	16
 524              		.thumb_func
 525              		.type	sys_init, %function
 526              	sys_init:
 527              	.LFB61:
 340:Source\LwIP\src/sys_arch.c **** 
 341:Source\LwIP\src/sys_arch.c **** /*-----------------------------------------------------------------------------------
 342:Source\LwIP\src/sys_arch.c ****  * Initialize sys arch
 343:Source\LwIP\src/sys_arch.c ****  */
 344:Source\LwIP\src/sys_arch.c **** void sys_init( void )
 345:Source\LwIP\src/sys_arch.c **** {
 528              		.loc 1 345 0
 529              		.cfi_startproc
 530              		@ args = 0, pretend = 0, frame = 0
 531              		@ frame_needed = 0, uses_anonymous_args = 0
 532              		@ link register save eliminated.
 346:Source\LwIP\src/sys_arch.c **** #if LWIP_SYS_ARCH_TIMEOUTS
 347:Source\LwIP\src/sys_arch.c ****     int i;
 348:Source\LwIP\src/sys_arch.c ****     /* Initialize the the per-thread sys_timeouts structures
 349:Source\LwIP\src/sys_arch.c ****      * make sure there are no valid pids in the list
 350:Source\LwIP\src/sys_arch.c ****      */
 351:Source\LwIP\src/sys_arch.c ****     for(i = 0; i < SYS_THREAD_MAX; i++)
 352:Source\LwIP\src/sys_arch.c ****     {
 353:Source\LwIP\src/sys_arch.c ****         timeout_list[i].pid = 0;
 354:Source\LwIP\src/sys_arch.c ****     }
 355:Source\LwIP\src/sys_arch.c **** 
 356:Source\LwIP\src/sys_arch.c ****     /* keep track of how many threads have been created */
 357:Source\LwIP\src/sys_arch.c ****     next_thread = 0;
 358:Source\LwIP\src/sys_arch.c **** #endif /* if LWIP_SYS_ARCH_TIMEOUTS */
 359:Source\LwIP\src/sys_arch.c **** }
 533              		.loc 1 359 0
 534              		@ sp needed
 535 0000 7047     		bx	lr
 536              		.cfi_endproc
 537              	.LFE61:
 538              		.size	sys_init, .-sys_init
 539 0002 C046     		.section	.text.sys_deinit,"ax",%progbits
 540              		.align	2
 541              		.global	sys_deinit
 542              		.code	16
 543              		.thumb_func
 544              		.type	sys_deinit, %function
 545              	sys_deinit:
 546              	.LFB62:
 360:Source\LwIP\src/sys_arch.c **** 
 361:Source\LwIP\src/sys_arch.c **** void sys_deinit( void )
ARM GAS  C:\Users\Phuong\AppData\Local\Temp\ccGRUYyX.s 			page 17


 362:Source\LwIP\src/sys_arch.c **** {
 547              		.loc 1 362 0
 548              		.cfi_startproc
 549              		@ args = 0, pretend = 0, frame = 0
 550              		@ frame_needed = 0, uses_anonymous_args = 0
 551              		@ link register save eliminated.
 363:Source\LwIP\src/sys_arch.c **** }
 552              		.loc 1 363 0
 553              		@ sp needed
 554 0000 7047     		bx	lr
 555              		.cfi_endproc
 556              	.LFE62:
 557              		.size	sys_deinit, .-sys_deinit
 558 0002 C046     		.section	.text.sys_now,"ax",%progbits
 559              		.align	2
 560              		.global	sys_now
 561              		.code	16
 562              		.thumb_func
 563              		.type	sys_now, %function
 564              	sys_now:
 565              	.LFB63:
 364:Source\LwIP\src/sys_arch.c **** 
 365:Source\LwIP\src/sys_arch.c **** #if LWIP_SYS_ARCH_TIMEOUTS
 366:Source\LwIP\src/sys_arch.c **** /*-----------------------------------------------------------------------------------
 367:Source\LwIP\src/sys_arch.c ****  * Returns a pointer to the per-thread sys_timeouts structure. In lwIP,
 368:Source\LwIP\src/sys_arch.c ****  * each thread has a list of timeouts which is represented as a linked
 369:Source\LwIP\src/sys_arch.c ****  * list of sys_timeout structures. The sys_timeouts structure holds a
 370:Source\LwIP\src/sys_arch.c ****  * pointer to a linked list of timeouts. This function is called by
 371:Source\LwIP\src/sys_arch.c ****  * the lwIP timeout scheduler and must not return a NULL value.
 372:Source\LwIP\src/sys_arch.c ****  *
 373:Source\LwIP\src/sys_arch.c ****  * In a single threaded sys_arch implementation, this function will
 374:Source\LwIP\src/sys_arch.c ****  * simply return a pointer to a global sys_timeouts variable stored in
 375:Source\LwIP\src/sys_arch.c ****  * the sys_arch module.
 376:Source\LwIP\src/sys_arch.c ****  */
 377:Source\LwIP\src/sys_arch.c **** 
 378:Source\LwIP\src/sys_arch.c **** struct sys_timeouts *
 379:Source\LwIP\src/sys_arch.c **** sys_arch_timeouts(void)
 380:Source\LwIP\src/sys_arch.c **** {
 381:Source\LwIP\src/sys_arch.c ****     int i;
 382:Source\LwIP\src/sys_arch.c ****     xTaskHandle pid;
 383:Source\LwIP\src/sys_arch.c ****     struct timeout_list *tl;
 384:Source\LwIP\src/sys_arch.c **** 
 385:Source\LwIP\src/sys_arch.c ****     pid = xTaskGetCurrentTaskHandle( );
 386:Source\LwIP\src/sys_arch.c **** 
 387:Source\LwIP\src/sys_arch.c ****     for(i = 0; i < next_thread; i++)
 388:Source\LwIP\src/sys_arch.c ****     {
 389:Source\LwIP\src/sys_arch.c ****         tl = &timeout_list[i];
 390:Source\LwIP\src/sys_arch.c ****         if(tl->pid == pid)
 391:Source\LwIP\src/sys_arch.c ****         {
 392:Source\LwIP\src/sys_arch.c ****             return &(tl->timeouts);
 393:Source\LwIP\src/sys_arch.c ****         }
 394:Source\LwIP\src/sys_arch.c ****     }
 395:Source\LwIP\src/sys_arch.c **** 
 396:Source\LwIP\src/sys_arch.c ****     /* Error */
 397:Source\LwIP\src/sys_arch.c ****     return NULL;
 398:Source\LwIP\src/sys_arch.c **** }
 399:Source\LwIP\src/sys_arch.c **** #endif /* if LWIP_SYS_ARCH_TIMEOUTS */
ARM GAS  C:\Users\Phuong\AppData\Local\Temp\ccGRUYyX.s 			page 18


 400:Source\LwIP\src/sys_arch.c **** 
 401:Source\LwIP\src/sys_arch.c **** u32_t
 402:Source\LwIP\src/sys_arch.c **** sys_now(void)
 403:Source\LwIP\src/sys_arch.c **** {
 566              		.loc 1 403 0
 567              		.cfi_startproc
 568              		@ args = 0, pretend = 0, frame = 0
 569              		@ frame_needed = 0, uses_anonymous_args = 0
 570 0000 10B5     		push	{r4, lr}
 571              		.cfi_def_cfa_offset 8
 572              		.cfi_offset 4, -8
 573              		.cfi_offset 14, -4
 404:Source\LwIP\src/sys_arch.c ****     return xTaskGetTickCount();
 574              		.loc 1 404 0
 575 0002 FFF7FEFF 		bl	xTaskGetTickCount
 576              	.LVL73:
 405:Source\LwIP\src/sys_arch.c **** }
 577              		.loc 1 405 0
 578              		@ sp needed
 579 0006 10BD     		pop	{r4, pc}
 580              		.cfi_endproc
 581              	.LFE63:
 582              		.size	sys_now, .-sys_now
 583              		.section	.text.sys_thread_new,"ax",%progbits
 584              		.align	2
 585              		.global	sys_thread_new
 586              		.code	16
 587              		.thumb_func
 588              		.type	sys_thread_new, %function
 589              	sys_thread_new:
 590              	.LFB64:
 406:Source\LwIP\src/sys_arch.c **** 
 407:Source\LwIP\src/sys_arch.c **** /*-----------------------------------------------------------------------------------
 408:Source\LwIP\src/sys_arch.c ****  * Starts a new thread with priority "prio" that will begin its execution in the
 409:Source\LwIP\src/sys_arch.c ****  * function "thread()". The "arg" argument will be passed as an argument to the
 410:Source\LwIP\src/sys_arch.c ****  * thread() function. The id of the new thread is returned. Both the id and
 411:Source\LwIP\src/sys_arch.c ****  * the priority are system dependent.
 412:Source\LwIP\src/sys_arch.c ****  */
 413:Source\LwIP\src/sys_arch.c **** /*@null@*/ sys_thread_t sys_thread_new( const char *name, lwip_thread_fn thread, void *arg, int sta
 414:Source\LwIP\src/sys_arch.c **** {
 591              		.loc 1 414 0
 592              		.cfi_startproc
 593              		@ args = 4, pretend = 0, frame = 8
 594              		@ frame_needed = 0, uses_anonymous_args = 0
 595              	.LVL74:
 596 0000 10B5     		push	{r4, lr}
 597              		.cfi_def_cfa_offset 8
 598              		.cfi_offset 4, -8
 599              		.cfi_offset 14, -4
 600 0002 84B0     		sub	sp, sp, #16
 601              		.cfi_def_cfa_offset 24
 602 0004 0400     		movs	r4, r0
 603 0006 0800     		movs	r0, r1
 604              	.LVL75:
 605 0008 1100     		movs	r1, r2
 606              	.LVL76:
 415:Source\LwIP\src/sys_arch.c ****     signed portBASE_TYPE result;
ARM GAS  C:\Users\Phuong\AppData\Local\Temp\ccGRUYyX.s 			page 19


 416:Source\LwIP\src/sys_arch.c ****     sys_thread_t thread_out;
 417:Source\LwIP\src/sys_arch.c ****     /* The first time this is called we are creating the lwIP handler. */
 418:Source\LwIP\src/sys_arch.c ****     result = xTaskCreate( thread, name, (unsigned short) (stacksize / sizeof( portSTACK_TYPE )), ar
 607              		.loc 1 418 0
 608 000a 9B08     		lsrs	r3, r3, #2
 609              	.LVL77:
 610 000c 9AB2     		uxth	r2, r3
 611              	.LVL78:
 612 000e 03AB     		add	r3, sp, #12
 613 0010 0193     		str	r3, [sp, #4]
 614 0012 069B     		ldr	r3, [sp, #24]
 615 0014 0093     		str	r3, [sp]
 616 0016 0B00     		movs	r3, r1
 617 0018 2100     		movs	r1, r4
 618              	.LVL79:
 619 001a FFF7FEFF 		bl	xTaskCreate
 620              	.LVL80:
 419:Source\LwIP\src/sys_arch.c **** 
 420:Source\LwIP\src/sys_arch.c ****     /* LwIP requires that this function always succeed */
 421:Source\LwIP\src/sys_arch.c ****     LWIP_ASSERT("Error creating thread", result == pdTRUE );
 422:Source\LwIP\src/sys_arch.c **** 
 423:Source\LwIP\src/sys_arch.c **** #if LWIP_SYS_ARCH_TIMEOUTS
 424:Source\LwIP\src/sys_arch.c ****     /* For each task created, store the task handle (pid) in the timers array.
 425:Source\LwIP\src/sys_arch.c ****      * This scheme doesn't allow for threads to be deleted
 426:Source\LwIP\src/sys_arch.c ****      */
 427:Source\LwIP\src/sys_arch.c ****     timeout_list[next_thread++].pid = created_task;
 428:Source\LwIP\src/sys_arch.c **** #endif /* if LWIP_SYS_ARCH_TIMEOUTS */
 429:Source\LwIP\src/sys_arch.c **** 
 430:Source\LwIP\src/sys_arch.c ****     return thread_out;
 431:Source\LwIP\src/sys_arch.c **** }
 621              		.loc 1 431 0
 622 001e 0398     		ldr	r0, [sp, #12]
 623 0020 04B0     		add	sp, sp, #16
 624              		@ sp needed
 625              	.LVL81:
 626 0022 10BD     		pop	{r4, pc}
 627              		.cfi_endproc
 628              	.LFE64:
 629              		.size	sys_thread_new, .-sys_thread_new
 630              		.section	.text.sys_thread_exit,"ax",%progbits
 631              		.align	2
 632              		.global	sys_thread_exit
 633              		.code	16
 634              		.thumb_func
 635              		.type	sys_thread_exit, %function
 636              	sys_thread_exit:
 637              	.LFB65:
 432:Source\LwIP\src/sys_arch.c **** 
 433:Source\LwIP\src/sys_arch.c **** void sys_thread_exit( void )
 434:Source\LwIP\src/sys_arch.c **** {
 638              		.loc 1 434 0
 639              		.cfi_startproc
 640              		@ args = 0, pretend = 0, frame = 0
 641              		@ frame_needed = 0, uses_anonymous_args = 0
 642 0000 10B5     		push	{r4, lr}
 643              		.cfi_def_cfa_offset 8
 644              		.cfi_offset 4, -8
ARM GAS  C:\Users\Phuong\AppData\Local\Temp\ccGRUYyX.s 			page 20


 645              		.cfi_offset 14, -4
 435:Source\LwIP\src/sys_arch.c ****     //malloc_leak_check(NULL, LEAK_CHECK_THREAD);
 436:Source\LwIP\src/sys_arch.c ****     vTaskDelete(NULL);
 646              		.loc 1 436 0
 647 0002 0020     		movs	r0, #0
 648 0004 FFF7FEFF 		bl	vTaskDelete
 649              	.LVL82:
 437:Source\LwIP\src/sys_arch.c **** }
 650              		.loc 1 437 0
 651              		@ sp needed
 652 0008 10BD     		pop	{r4, pc}
 653              		.cfi_endproc
 654              	.LFE65:
 655              		.size	sys_thread_exit, .-sys_thread_exit
 656 000a C046     		.section	.text.sys_thread_free,"ax",%progbits
 657              		.align	2
 658              		.global	sys_thread_free
 659              		.code	16
 660              		.thumb_func
 661              		.type	sys_thread_free, %function
 662              	sys_thread_free:
 663              	.LFB66:
 438:Source\LwIP\src/sys_arch.c **** 
 439:Source\LwIP\src/sys_arch.c **** void sys_thread_free( sys_thread_t* task )
 440:Source\LwIP\src/sys_arch.c **** {
 664              		.loc 1 440 0
 665              		.cfi_startproc
 666              		@ args = 0, pretend = 0, frame = 0
 667              		@ frame_needed = 0, uses_anonymous_args = 0
 668              		@ link register save eliminated.
 669              	.LVL83:
 441:Source\LwIP\src/sys_arch.c ****     task = (void *)NULL;
 442:Source\LwIP\src/sys_arch.c **** }
 670              		.loc 1 442 0
 671              		@ sp needed
 672 0000 7047     		bx	lr
 673              		.cfi_endproc
 674              	.LFE66:
 675              		.size	sys_thread_free, .-sys_thread_free
 676 0002 C046     		.section	.text.sys_arch_protect,"ax",%progbits
 677              		.align	2
 678              		.global	sys_arch_protect
 679              		.code	16
 680              		.thumb_func
 681              		.type	sys_arch_protect, %function
 682              	sys_arch_protect:
 683              	.LFB67:
 443:Source\LwIP\src/sys_arch.c **** 
 444:Source\LwIP\src/sys_arch.c **** /*-----------------------------------------------------------------------------------
 445:Source\LwIP\src/sys_arch.c ****  * This optional function does a "fast" critical region protection and returns
 446:Source\LwIP\src/sys_arch.c ****  * the previous protection level. This function is only called during very short
 447:Source\LwIP\src/sys_arch.c ****  * critical regions. An embedded system which supports ISR-based drivers might
 448:Source\LwIP\src/sys_arch.c ****  * want to implement this function by disabling interrupts. Task-based systems
 449:Source\LwIP\src/sys_arch.c ****  * might want to implement this by using a mutex or disabling tasking. This
 450:Source\LwIP\src/sys_arch.c ****  * function should support recursive calls from the same task or interrupt. In
 451:Source\LwIP\src/sys_arch.c ****  * other words, sys_arch_protect() could be called while already protected. In
 452:Source\LwIP\src/sys_arch.c ****  * that case the return value indicates that it is already protected.
ARM GAS  C:\Users\Phuong\AppData\Local\Temp\ccGRUYyX.s 			page 21


 453:Source\LwIP\src/sys_arch.c ****  *
 454:Source\LwIP\src/sys_arch.c ****  * sys_arch_protect() is only required if your port is supporting an operating
 455:Source\LwIP\src/sys_arch.c ****  * system.
 456:Source\LwIP\src/sys_arch.c ****  */
 457:Source\LwIP\src/sys_arch.c **** sys_prot_t sys_arch_protect( void )
 458:Source\LwIP\src/sys_arch.c **** {
 684              		.loc 1 458 0
 685              		.cfi_startproc
 686              		@ args = 0, pretend = 0, frame = 0
 687              		@ frame_needed = 0, uses_anonymous_args = 0
 688 0000 10B5     		push	{r4, lr}
 689              		.cfi_def_cfa_offset 8
 690              		.cfi_offset 4, -8
 691              		.cfi_offset 14, -4
 459:Source\LwIP\src/sys_arch.c ****     vPortEnterCritical( );
 692              		.loc 1 459 0
 693 0002 FFF7FEFF 		bl	vPortEnterCritical
 694              	.LVL84:
 460:Source\LwIP\src/sys_arch.c ****     return 1;
 461:Source\LwIP\src/sys_arch.c **** }
 695              		.loc 1 461 0
 696 0006 0120     		movs	r0, #1
 697              		@ sp needed
 698 0008 10BD     		pop	{r4, pc}
 699              		.cfi_endproc
 700              	.LFE67:
 701              		.size	sys_arch_protect, .-sys_arch_protect
 702 000a C046     		.section	.text.sys_arch_unprotect,"ax",%progbits
 703              		.align	2
 704              		.global	sys_arch_unprotect
 705              		.code	16
 706              		.thumb_func
 707              		.type	sys_arch_unprotect, %function
 708              	sys_arch_unprotect:
 709              	.LFB68:
 462:Source\LwIP\src/sys_arch.c **** 
 463:Source\LwIP\src/sys_arch.c **** /*-----------------------------------------------------------------------------------
 464:Source\LwIP\src/sys_arch.c ****  * This optional function does a "fast" set of critical region protection to the
 465:Source\LwIP\src/sys_arch.c ****  * value specified by pval. See the documentation for sys_arch_protect() for
 466:Source\LwIP\src/sys_arch.c ****  * more information. This function is only required if your port is supporting
 467:Source\LwIP\src/sys_arch.c ****  * an operating system.
 468:Source\LwIP\src/sys_arch.c ****  */
 469:Source\LwIP\src/sys_arch.c **** void sys_arch_unprotect( sys_prot_t pval )
 470:Source\LwIP\src/sys_arch.c **** {
 710              		.loc 1 470 0
 711              		.cfi_startproc
 712              		@ args = 0, pretend = 0, frame = 0
 713              		@ frame_needed = 0, uses_anonymous_args = 0
 714              	.LVL85:
 715 0000 10B5     		push	{r4, lr}
 716              		.cfi_def_cfa_offset 8
 717              		.cfi_offset 4, -8
 718              		.cfi_offset 14, -4
 471:Source\LwIP\src/sys_arch.c ****     /*@-noeffect@*/
 472:Source\LwIP\src/sys_arch.c ****     (void) pval;  /* Parameter is unused */
 473:Source\LwIP\src/sys_arch.c ****     /*@+noeffect@*/
 474:Source\LwIP\src/sys_arch.c ****     vPortExitCritical( );
ARM GAS  C:\Users\Phuong\AppData\Local\Temp\ccGRUYyX.s 			page 22


 719              		.loc 1 474 0
 720 0002 FFF7FEFF 		bl	vPortExitCritical
 721              	.LVL86:
 475:Source\LwIP\src/sys_arch.c **** }
 722              		.loc 1 475 0
 723              		@ sp needed
 724 0006 10BD     		pop	{r4, pc}
 725              		.cfi_endproc
 726              	.LFE68:
 727              		.size	sys_arch_unprotect, .-sys_arch_unprotect
 728              		.section	.text.sys_arch_mbox_tryfetch,"ax",%progbits
 729              		.align	2
 730              		.global	sys_arch_mbox_tryfetch
 731              		.code	16
 732              		.thumb_func
 733              		.type	sys_arch_mbox_tryfetch, %function
 734              	sys_arch_mbox_tryfetch:
 735              	.LFB69:
 476:Source\LwIP\src/sys_arch.c **** 
 477:Source\LwIP\src/sys_arch.c **** /*-----------------------------------------------------------------------------------
 478:Source\LwIP\src/sys_arch.c ****  * Similar to sys_arch_mbox_fetch, but if message is not ready immediately, we'll
 479:Source\LwIP\src/sys_arch.c ****  * return with SYS_MBOX_EMPTY.  On success, 0 is returned.
 480:Source\LwIP\src/sys_arch.c ****  */
 481:Source\LwIP\src/sys_arch.c **** u32_t sys_arch_mbox_tryfetch(sys_mbox_t *mbox, void **msg)
 482:Source\LwIP\src/sys_arch.c **** {
 736              		.loc 1 482 0
 737              		.cfi_startproc
 738              		@ args = 0, pretend = 0, frame = 8
 739              		@ frame_needed = 0, uses_anonymous_args = 0
 740              	.LVL87:
 741 0000 00B5     		push	{lr}
 742              		.cfi_def_cfa_offset 4
 743              		.cfi_offset 14, -4
 744 0002 83B0     		sub	sp, sp, #12
 745              		.cfi_def_cfa_offset 16
 746              	.LVL88:
 483:Source\LwIP\src/sys_arch.c ****     void *dummy_ptr;
 484:Source\LwIP\src/sys_arch.c ****     void ** tmp_ptr = msg;
 485:Source\LwIP\src/sys_arch.c **** 
 486:Source\LwIP\src/sys_arch.c ****     if ( msg == NULL )
 747              		.loc 1 486 0
 748 0004 0029     		cmp	r1, #0
 749 0006 00D1     		bne	.L42
 487:Source\LwIP\src/sys_arch.c ****     {
 488:Source\LwIP\src/sys_arch.c ****         tmp_ptr = &dummy_ptr;
 750              		.loc 1 488 0
 751 0008 01A9     		add	r1, sp, #4
 752              	.LVL89:
 753              	.L42:
 489:Source\LwIP\src/sys_arch.c ****     }
 490:Source\LwIP\src/sys_arch.c **** 
 491:Source\LwIP\src/sys_arch.c ****     if ( pdTRUE == xQueueReceive( *mbox, tmp_ptr, 0 ) )
 754              		.loc 1 491 0
 755 000a 0068     		ldr	r0, [r0]
 756              	.LVL90:
 757 000c 0022     		movs	r2, #0
 758 000e FFF7FEFF 		bl	xQueueReceive
ARM GAS  C:\Users\Phuong\AppData\Local\Temp\ccGRUYyX.s 			page 23


 759              	.LVL91:
 760 0012 0128     		cmp	r0, #1
 761 0014 01D1     		bne	.L45
 492:Source\LwIP\src/sys_arch.c ****     {
 493:Source\LwIP\src/sys_arch.c ****         return ERR_OK;
 762              		.loc 1 493 0
 763 0016 0020     		movs	r0, #0
 764 0018 01E0     		b	.L43
 765              	.L45:
 494:Source\LwIP\src/sys_arch.c ****     }
 495:Source\LwIP\src/sys_arch.c ****     else
 496:Source\LwIP\src/sys_arch.c ****     {
 497:Source\LwIP\src/sys_arch.c ****         return SYS_MBOX_EMPTY;
 766              		.loc 1 497 0
 767 001a 0120     		movs	r0, #1
 768 001c 4042     		rsbs	r0, r0, #0
 769              	.L43:
 498:Source\LwIP\src/sys_arch.c ****     }
 499:Source\LwIP\src/sys_arch.c **** }
 770              		.loc 1 499 0
 771 001e 03B0     		add	sp, sp, #12
 772              		@ sp needed
 773 0020 00BD     		pop	{pc}
 774              		.cfi_endproc
 775              	.LFE69:
 776              		.size	sys_arch_mbox_tryfetch, .-sys_arch_mbox_tryfetch
 777 0022 C046     		.section	.text.sys_mbox_trypost,"ax",%progbits
 778              		.align	2
 779              		.global	sys_mbox_trypost
 780              		.code	16
 781              		.thumb_func
 782              		.type	sys_mbox_trypost, %function
 783              	sys_mbox_trypost:
 784              	.LFB70:
 500:Source\LwIP\src/sys_arch.c **** 
 501:Source\LwIP\src/sys_arch.c **** 
 502:Source\LwIP\src/sys_arch.c **** /*-----------------------------------------------------------------------------------
 503:Source\LwIP\src/sys_arch.c ****  * Try to post the "msg" to the mailbox.
 504:Source\LwIP\src/sys_arch.c ****  */
 505:Source\LwIP\src/sys_arch.c **** err_t sys_mbox_trypost( sys_mbox_t *mbox, void *msg )
 506:Source\LwIP\src/sys_arch.c **** {
 785              		.loc 1 506 0
 786              		.cfi_startproc
 787              		@ args = 0, pretend = 0, frame = 8
 788              		@ frame_needed = 0, uses_anonymous_args = 0
 789              	.LVL92:
 790 0000 00B5     		push	{lr}
 791              		.cfi_def_cfa_offset 4
 792              		.cfi_offset 14, -4
 793 0002 83B0     		sub	sp, sp, #12
 794              		.cfi_def_cfa_offset 16
 795 0004 0191     		str	r1, [sp, #4]
 507:Source\LwIP\src/sys_arch.c ****     err_t result;
 508:Source\LwIP\src/sys_arch.c **** 
 509:Source\LwIP\src/sys_arch.c ****     if ( xQueueSend( *mbox, &msg, 0 ) == pdPASS )
 796              		.loc 1 509 0
 797 0006 0068     		ldr	r0, [r0]
ARM GAS  C:\Users\Phuong\AppData\Local\Temp\ccGRUYyX.s 			page 24


 798              	.LVL93:
 799 0008 0023     		movs	r3, #0
 800 000a 0022     		movs	r2, #0
 801 000c 01A9     		add	r1, sp, #4
 802              	.LVL94:
 803 000e FFF7FEFF 		bl	xQueueGenericSend
 804              	.LVL95:
 805 0012 0128     		cmp	r0, #1
 806 0014 08D0     		beq	.L48
 807              	.LVL96:
 510:Source\LwIP\src/sys_arch.c ****     {
 511:Source\LwIP\src/sys_arch.c ****         result = ERR_OK;
 512:Source\LwIP\src/sys_arch.c ****     }
 513:Source\LwIP\src/sys_arch.c ****     else
 514:Source\LwIP\src/sys_arch.c ****     {
 515:Source\LwIP\src/sys_arch.c ****         /* could not post, queue must be full */
 516:Source\LwIP\src/sys_arch.c ****         result = ERR_MEM;
 517:Source\LwIP\src/sys_arch.c **** 
 518:Source\LwIP\src/sys_arch.c **** #if SYS_STATS
 519:Source\LwIP\src/sys_arch.c ****         lwip_stats.sys.mbox.err++;
 808              		.loc 1 519 0
 809 0016 0649     		ldr	r1, .L49
 810 0018 8A22     		movs	r2, #138
 811 001a 5200     		lsls	r2, r2, #1
 812 001c 8B5A     		ldrh	r3, [r1, r2]
 813 001e 0133     		adds	r3, r3, #1
 814 0020 8B52     		strh	r3, [r1, r2]
 516:Source\LwIP\src/sys_arch.c **** 
 815              		.loc 1 516 0
 816 0022 0120     		movs	r0, #1
 817 0024 4042     		rsbs	r0, r0, #0
 818 0026 00E0     		b	.L47
 819              	.LVL97:
 820              	.L48:
 511:Source\LwIP\src/sys_arch.c ****     }
 821              		.loc 1 511 0
 822 0028 0020     		movs	r0, #0
 823              	.L47:
 824              	.LVL98:
 520:Source\LwIP\src/sys_arch.c **** #endif /* SYS_STATS */
 521:Source\LwIP\src/sys_arch.c **** 
 522:Source\LwIP\src/sys_arch.c ****     }
 523:Source\LwIP\src/sys_arch.c **** 
 524:Source\LwIP\src/sys_arch.c ****     return result;
 525:Source\LwIP\src/sys_arch.c **** }
 825              		.loc 1 525 0
 826 002a 03B0     		add	sp, sp, #12
 827              		@ sp needed
 828 002c 00BD     		pop	{pc}
 829              	.L50:
 830 002e C046     		.align	2
 831              	.L49:
 832 0030 00000000 		.word	lwip_stats
 833              		.cfi_endproc
 834              	.LFE70:
 835              		.size	sys_mbox_trypost, .-sys_mbox_trypost
 836              		.section	.text.sys_mbox_valid,"ax",%progbits
ARM GAS  C:\Users\Phuong\AppData\Local\Temp\ccGRUYyX.s 			page 25


 837              		.align	2
 838              		.global	sys_mbox_valid
 839              		.code	16
 840              		.thumb_func
 841              		.type	sys_mbox_valid, %function
 842              	sys_mbox_valid:
 843              	.LFB71:
 526:Source\LwIP\src/sys_arch.c **** 
 527:Source\LwIP\src/sys_arch.c **** int sys_mbox_valid( sys_mbox_t *mbox )
 528:Source\LwIP\src/sys_arch.c **** {
 844              		.loc 1 528 0
 845              		.cfi_startproc
 846              		@ args = 0, pretend = 0, frame = 0
 847              		@ frame_needed = 0, uses_anonymous_args = 0
 848              		@ link register save eliminated.
 849              	.LVL99:
 529:Source\LwIP\src/sys_arch.c ****     return (int)( *mbox != 0 );
 850              		.loc 1 529 0
 851 0000 0068     		ldr	r0, [r0]
 852              	.LVL100:
 853 0002 431E     		subs	r3, r0, #1
 854 0004 9841     		sbcs	r0, r0, r3
 530:Source\LwIP\src/sys_arch.c **** }
 855              		.loc 1 530 0
 856              		@ sp needed
 857 0006 7047     		bx	lr
 858              		.cfi_endproc
 859              	.LFE71:
 860              		.size	sys_mbox_valid, .-sys_mbox_valid
 861              		.section	.text.sys_sem_valid,"ax",%progbits
 862              		.align	2
 863              		.global	sys_sem_valid
 864              		.code	16
 865              		.thumb_func
 866              		.type	sys_sem_valid, %function
 867              	sys_sem_valid:
 868              	.LFB72:
 531:Source\LwIP\src/sys_arch.c **** 
 532:Source\LwIP\src/sys_arch.c **** int sys_sem_valid( sys_sem_t *sem )
 533:Source\LwIP\src/sys_arch.c **** {
 869              		.loc 1 533 0
 870              		.cfi_startproc
 871              		@ args = 0, pretend = 0, frame = 0
 872              		@ frame_needed = 0, uses_anonymous_args = 0
 873              		@ link register save eliminated.
 874              	.LVL101:
 534:Source\LwIP\src/sys_arch.c ****     return (int)( *sem != 0 );
 875              		.loc 1 534 0
 876 0000 0068     		ldr	r0, [r0]
 877              	.LVL102:
 878 0002 431E     		subs	r3, r0, #1
 879 0004 9841     		sbcs	r0, r0, r3
 535:Source\LwIP\src/sys_arch.c **** }
 880              		.loc 1 535 0
 881              		@ sp needed
 882 0006 7047     		bx	lr
 883              		.cfi_endproc
ARM GAS  C:\Users\Phuong\AppData\Local\Temp\ccGRUYyX.s 			page 26


 884              	.LFE72:
 885              		.size	sys_sem_valid, .-sys_sem_valid
 886              		.section	.text.sys_mbox_set_invalid,"ax",%progbits
 887              		.align	2
 888              		.global	sys_mbox_set_invalid
 889              		.code	16
 890              		.thumb_func
 891              		.type	sys_mbox_set_invalid, %function
 892              	sys_mbox_set_invalid:
 893              	.LFB73:
 536:Source\LwIP\src/sys_arch.c **** 
 537:Source\LwIP\src/sys_arch.c **** void sys_mbox_set_invalid( sys_mbox_t *mbox )
 538:Source\LwIP\src/sys_arch.c **** {
 894              		.loc 1 538 0
 895              		.cfi_startproc
 896              		@ args = 0, pretend = 0, frame = 0
 897              		@ frame_needed = 0, uses_anonymous_args = 0
 898              		@ link register save eliminated.
 899              	.LVL103:
 539:Source\LwIP\src/sys_arch.c ****     ( *(int*) mbox ) = 0;
 900              		.loc 1 539 0
 901 0000 0023     		movs	r3, #0
 902 0002 0360     		str	r3, [r0]
 540:Source\LwIP\src/sys_arch.c **** }
 903              		.loc 1 540 0
 904              		@ sp needed
 905 0004 7047     		bx	lr
 906              		.cfi_endproc
 907              	.LFE73:
 908              		.size	sys_mbox_set_invalid, .-sys_mbox_set_invalid
 909 0006 C046     		.section	.text.sys_sem_set_invalid,"ax",%progbits
 910              		.align	2
 911              		.global	sys_sem_set_invalid
 912              		.code	16
 913              		.thumb_func
 914              		.type	sys_sem_set_invalid, %function
 915              	sys_sem_set_invalid:
 916              	.LFB74:
 541:Source\LwIP\src/sys_arch.c **** 
 542:Source\LwIP\src/sys_arch.c **** void sys_sem_set_invalid( sys_sem_t *sem )
 543:Source\LwIP\src/sys_arch.c **** {
 917              		.loc 1 543 0
 918              		.cfi_startproc
 919              		@ args = 0, pretend = 0, frame = 0
 920              		@ frame_needed = 0, uses_anonymous_args = 0
 921              		@ link register save eliminated.
 922              	.LVL104:
 544:Source\LwIP\src/sys_arch.c ****     ( *(int*) sem ) = 0;
 923              		.loc 1 544 0
 924 0000 0023     		movs	r3, #0
 925 0002 0360     		str	r3, [r0]
 545:Source\LwIP\src/sys_arch.c **** }
 926              		.loc 1 545 0
 927              		@ sp needed
 928 0004 7047     		bx	lr
 929              		.cfi_endproc
 930              	.LFE74:
ARM GAS  C:\Users\Phuong\AppData\Local\Temp\ccGRUYyX.s 			page 27


 931              		.size	sys_sem_set_invalid, .-sys_sem_set_invalid
 932 0006 C046     		.section	.text.sys_rand16,"ax",%progbits
 933              		.align	2
 934              		.global	sys_rand16
 935              		.code	16
 936              		.thumb_func
 937              		.type	sys_rand16, %function
 938              	sys_rand16:
 939              	.LFB75:
 546:Source\LwIP\src/sys_arch.c **** 
 547:Source\LwIP\src/sys_arch.c **** 
 548:Source\LwIP\src/sys_arch.c **** 
 549:Source\LwIP\src/sys_arch.c **** uint16_t sys_rand16( void )
 550:Source\LwIP\src/sys_arch.c **** {
 940              		.loc 1 550 0
 941              		.cfi_startproc
 942              		@ args = 0, pretend = 0, frame = 0
 943              		@ frame_needed = 0, uses_anonymous_args = 0
 944              		@ link register save eliminated.
 551:Source\LwIP\src/sys_arch.c ****     uint16_t output;
 552:Source\LwIP\src/sys_arch.c ****    // wiced_crypto_get_random( &output, 2 );
 553:Source\LwIP\src/sys_arch.c ****     return output;
 554:Source\LwIP\src/sys_arch.c **** }
 945              		.loc 1 554 0
 946 0000 0020     		movs	r0, #0
 947              		@ sp needed
 948 0002 7047     		bx	lr
 949              		.cfi_endproc
 950              	.LFE75:
 951              		.size	sys_rand16, .-sys_rand16
 952              		.text
 953              	.Letext0:
 954              		.file 2 "c:\\program files (x86)\\cypress\\psoc creator\\4.2\\psoc creator\\import\\gnu\\arm\\5.4.
 955              		.file 3 "c:\\program files (x86)\\cypress\\psoc creator\\4.2\\psoc creator\\import\\gnu\\arm\\5.4.
 956              		.file 4 "c:\\program files (x86)\\cypress\\psoc creator\\4.2\\psoc creator\\import\\gnu\\arm\\5.4.
 957              		.file 5 ".\\Source\\FreeRTOS\\10.0.1\\Source\\portable\\GCC\\CM0/portmacro.h"
 958              		.file 6 ".\\Source\\FreeRTOS\\10.0.1\\Source\\include/task.h"
 959              		.file 7 ".\\Source\\FreeRTOS\\10.0.1\\Source\\include/queue.h"
 960              		.file 8 ".\\Source\\FreeRTOS\\10.0.1\\Source\\include/semphr.h"
 961              		.file 9 ".\\Source\\LwIP\\src\\include/arch/sys_arch.h"
 962              		.file 10 ".\\Source\\LwIP\\src\\include/arch/cc.h"
 963              		.file 11 ".\\Source\\LwIP\\src\\include/lwip/err.h"
 964              		.file 12 ".\\Source\\LwIP\\src\\include/lwip/sys.h"
 965              		.file 13 ".\\Source\\LwIP\\src\\include/lwip/mem.h"
 966              		.file 14 ".\\Source\\LwIP\\src\\include/lwip/stats.h"