ARM GAS  C:\Users\Phuong\AppData\Local\Temp\cct5AIDl.s 			page 1


   1              		.syntax unified
   2              		.cpu cortex-m0plus
   3              		.fpu softvfp
   4              		.eabi_attribute 20, 1
   5              		.eabi_attribute 21, 1
   6              		.eabi_attribute 23, 3
   7              		.eabi_attribute 24, 1
   8              		.eabi_attribute 25, 1
   9              		.eabi_attribute 26, 1
  10              		.eabi_attribute 30, 1
  11              		.eabi_attribute 34, 0
  12              		.eabi_attribute 18, 4
  13              		.thumb
  14              		.syntax unified
  15              		.file	"system_psoc62_cm0plus.c"
  16              		.text
  17              	.Ltext0:
  18              		.cfi_sections	.debug_frame
  19              		.section	.text.Cy_SystemInit,"ax",%progbits
  20              		.align	2
  21              		.weak	Cy_SystemInit
  22              		.code	16
  23              		.thumb_func
  24              		.type	Cy_SystemInit, %function
  25              	Cy_SystemInit:
  26              	.LFB56:
  27              		.file 1 "system_psoc62_cm0plus.c"
   1:system_psoc62_cm0plus.c **** /***************************************************************************//**
   2:system_psoc62_cm0plus.c **** * \file system_psoc62_cm0plus.c
   3:system_psoc62_cm0plus.c **** * \version 2.10
   4:system_psoc62_cm0plus.c **** *
   5:system_psoc62_cm0plus.c **** * The device system-source file.
   6:system_psoc62_cm0plus.c **** *
   7:system_psoc62_cm0plus.c **** ********************************************************************************
   8:system_psoc62_cm0plus.c **** * \copyright
   9:system_psoc62_cm0plus.c **** * Copyright 2016-2018, Cypress Semiconductor Corporation.  All rights reserved.
  10:system_psoc62_cm0plus.c **** * You may use this file only in accordance with the license, terms, conditions,
  11:system_psoc62_cm0plus.c **** * disclaimers, and limitations in the end user license agreement accompanying
  12:system_psoc62_cm0plus.c **** * the software package with which this file was provided.
  13:system_psoc62_cm0plus.c **** *******************************************************************************/
  14:system_psoc62_cm0plus.c **** 
  15:system_psoc62_cm0plus.c **** #include <stdint.h>
  16:system_psoc62_cm0plus.c **** #include <stdbool.h>
  17:system_psoc62_cm0plus.c **** #include "system_psoc62.h"
  18:system_psoc62_cm0plus.c **** #include "cy_device_headers.h"
  19:system_psoc62_cm0plus.c **** 
  20:system_psoc62_cm0plus.c **** #if defined(CY_DEVICE_PSOC6ABLE2)
  21:system_psoc62_cm0plus.c ****     #if !defined(CY_PSOC6ABLE2_REV_0A_SUPPORT_DISABLE)
  22:system_psoc62_cm0plus.c ****         #include "syslib/cy_syslib.h"
  23:system_psoc62_cm0plus.c ****     #endif /* !defined(CY_PSOC6ABLE2_REV_0A_SUPPORT_DISABLE) */
  24:system_psoc62_cm0plus.c ****     #if !defined(CY_IPC_DEFAULT_CFG_DISABLE)
  25:system_psoc62_cm0plus.c ****         #include "ipc/cy_ipc_drv.h"
  26:system_psoc62_cm0plus.c ****         #include "flash/cy_flash.h"
  27:system_psoc62_cm0plus.c ****     #endif /* !defined(CY_IPC_DEFAULT_CFG_DISABLE) */
  28:system_psoc62_cm0plus.c **** #endif /* defined(CY_DEVICE_PSOC6ABLE2) */
  29:system_psoc62_cm0plus.c **** 
  30:system_psoc62_cm0plus.c **** 
ARM GAS  C:\Users\Phuong\AppData\Local\Temp\cct5AIDl.s 			page 2


  31:system_psoc62_cm0plus.c **** /*******************************************************************************
  32:system_psoc62_cm0plus.c **** * SystemCoreClockUpdate()
  33:system_psoc62_cm0plus.c **** *******************************************************************************/
  34:system_psoc62_cm0plus.c **** 
  35:system_psoc62_cm0plus.c **** /** Default HFClk frequency in Hz */
  36:system_psoc62_cm0plus.c **** #define CY_CLK_HFCLK0_FREQ_HZ_DEFAULT       ( 8000000UL)
  37:system_psoc62_cm0plus.c **** 
  38:system_psoc62_cm0plus.c **** /** Default PeriClk frequency in Hz */
  39:system_psoc62_cm0plus.c **** #define CY_CLK_PERICLK_FREQ_HZ_DEFAULT      (4000000UL)
  40:system_psoc62_cm0plus.c **** 
  41:system_psoc62_cm0plus.c **** /** Default SlowClk system core frequency in Hz */
  42:system_psoc62_cm0plus.c **** #define CY_CLK_SYSTEM_FREQ_HZ_DEFAULT       (4000000UL)
  43:system_psoc62_cm0plus.c **** 
  44:system_psoc62_cm0plus.c **** /** IMO frequency in Hz */
  45:system_psoc62_cm0plus.c **** #define CY_CLK_IMO_FREQ_HZ                  (8000000UL)
  46:system_psoc62_cm0plus.c **** 
  47:system_psoc62_cm0plus.c **** /** HVILO frequency in Hz */
  48:system_psoc62_cm0plus.c **** #define CY_CLK_HVILO_FREQ_HZ                  (32000UL)
  49:system_psoc62_cm0plus.c **** 
  50:system_psoc62_cm0plus.c **** #if (SRSS_PILO_PRESENT == 1U) || defined(CY_DOXYGEN)
  51:system_psoc62_cm0plus.c ****     /** PILO frequency in Hz */
  52:system_psoc62_cm0plus.c ****     #define CY_CLK_PILO_FREQ_HZ              (32768UL)
  53:system_psoc62_cm0plus.c **** #endif /* (SRSS_PILO_PRESENT == 1U) || defined(CY_DOXYGEN) */
  54:system_psoc62_cm0plus.c **** 
  55:system_psoc62_cm0plus.c **** /** WCO frequency in Hz */
  56:system_psoc62_cm0plus.c **** #define CY_CLK_WCO_FREQ_HZ                   (32768UL)
  57:system_psoc62_cm0plus.c **** 
  58:system_psoc62_cm0plus.c **** #if (SRSS_ALTLF_PRESENT == 1U) || defined(CY_DOXYGEN)
  59:system_psoc62_cm0plus.c ****     /** ALTLF frequency in Hz */
  60:system_psoc62_cm0plus.c ****     #define CY_CLK_ALTLF_FREQ_HZ             (32768UL)
  61:system_psoc62_cm0plus.c **** #endif /* (SRSS_ALTLF_PRESENT == 1U) || defined(CY_DOXYGEN) */
  62:system_psoc62_cm0plus.c **** 
  63:system_psoc62_cm0plus.c **** 
  64:system_psoc62_cm0plus.c **** /**
  65:system_psoc62_cm0plus.c **** * Holds the SlowClk (Cortex-M0+) or FastClk (Cortex-M4) system core clock, 
  66:system_psoc62_cm0plus.c **** * which is the system clock frequency supplied to the SysTick timer and the
  67:system_psoc62_cm0plus.c **** * processor core clock. 
  68:system_psoc62_cm0plus.c **** * This variable implements CMSIS Core global variable.
  69:system_psoc62_cm0plus.c **** * Refer to the [CMSIS documentation]
  70:system_psoc62_cm0plus.c **** * (http://www.keil.com/pack/doc/CMSIS/Core/html/group__system__init__gr.html "System and Clock Conf
  71:system_psoc62_cm0plus.c **** * for more details.
  72:system_psoc62_cm0plus.c **** * This variable can be used by debuggers to query the frequency
  73:system_psoc62_cm0plus.c **** * of the debug timer or to configure the trace clock speed.
  74:system_psoc62_cm0plus.c **** *
  75:system_psoc62_cm0plus.c **** * \attention Compilers must be configured to avoid removing this variable in case
  76:system_psoc62_cm0plus.c **** * the application program is not using it. Debugging systems require the variable
  77:system_psoc62_cm0plus.c **** * to be physically present in memory so that it can be examined to configure the debugger. */
  78:system_psoc62_cm0plus.c **** uint32_t SystemCoreClock = CY_CLK_SYSTEM_FREQ_HZ_DEFAULT;
  79:system_psoc62_cm0plus.c **** 
  80:system_psoc62_cm0plus.c **** /** Holds the HFClk0 clock frequency. Updated by \ref SystemCoreClockUpdate(). */
  81:system_psoc62_cm0plus.c **** uint32_t cy_Hfclk0FreqHz  = CY_CLK_HFCLK0_FREQ_HZ_DEFAULT;
  82:system_psoc62_cm0plus.c **** 
  83:system_psoc62_cm0plus.c **** /** Holds the PeriClk clock frequency. Updated by \ref SystemCoreClockUpdate(). */
  84:system_psoc62_cm0plus.c **** uint32_t cy_PeriClkFreqHz = CY_CLK_PERICLK_FREQ_HZ_DEFAULT;
  85:system_psoc62_cm0plus.c **** 
  86:system_psoc62_cm0plus.c **** /** Holds the Alternate high frequency clock in Hz. Updated by \ref SystemCoreClockUpdate(). */
  87:system_psoc62_cm0plus.c **** #if defined (CY_IP_MXBLESS) && (CY_IP_MXBLESS == 1UL)
ARM GAS  C:\Users\Phuong\AppData\Local\Temp\cct5AIDl.s 			page 3


  88:system_psoc62_cm0plus.c ****     uint32_t cy_BleEcoClockFreqHz = CY_CLK_ALTHF_FREQ_HZ;
  89:system_psoc62_cm0plus.c **** #endif /* defined (CY_IP_MXBLESS) && (CY_IP_MXBLESS == 1UL) */
  90:system_psoc62_cm0plus.c **** 
  91:system_psoc62_cm0plus.c **** 
  92:system_psoc62_cm0plus.c **** /*******************************************************************************
  93:system_psoc62_cm0plus.c **** * SystemInit()
  94:system_psoc62_cm0plus.c **** *******************************************************************************/
  95:system_psoc62_cm0plus.c **** /* WDT lock bits */
  96:system_psoc62_cm0plus.c **** #define CY_WDT_LOCK_BIT0                ((uint32_t)0x01u << 30u)
  97:system_psoc62_cm0plus.c **** #define CY_WDT_LOCK_BIT1                ((uint32_t)0x01u << 31u)
  98:system_psoc62_cm0plus.c **** 
  99:system_psoc62_cm0plus.c **** /* CLK_FLL_CONFIG default values */
 100:system_psoc62_cm0plus.c **** #define CY_FB_CLK_FLL_CONFIG_VALUE      (0x01000000u)
 101:system_psoc62_cm0plus.c **** #define CY_FB_CLK_FLL_CONFIG2_VALUE     (0x00020001u)
 102:system_psoc62_cm0plus.c **** #define CY_FB_CLK_FLL_CONFIG3_VALUE     (0x00002800u)
 103:system_psoc62_cm0plus.c **** #define CY_FB_CLK_FLL_CONFIG4_VALUE     (0x000000FFu)
 104:system_psoc62_cm0plus.c **** 
 105:system_psoc62_cm0plus.c **** 
 106:system_psoc62_cm0plus.c **** /*******************************************************************************
 107:system_psoc62_cm0plus.c **** * SystemCoreClockUpdate (void)
 108:system_psoc62_cm0plus.c **** *******************************************************************************/
 109:system_psoc62_cm0plus.c **** /* Do not use these definitions directly in your application */
 110:system_psoc62_cm0plus.c **** #define CY_DELAY_MS_OVERFLOW_THRESHOLD  (0x8000u)
 111:system_psoc62_cm0plus.c **** #define CY_DELAY_1K_THRESHOLD           (1000u)
 112:system_psoc62_cm0plus.c **** #define CY_DELAY_1K_MINUS_1_THRESHOLD   (CY_DELAY_1K_THRESHOLD - 1u)
 113:system_psoc62_cm0plus.c **** #define CY_DELAY_1M_THRESHOLD           (1000000u)
 114:system_psoc62_cm0plus.c **** #define CY_DELAY_1M_MINUS_1_THRESHOLD   (CY_DELAY_1M_THRESHOLD - 1u)
 115:system_psoc62_cm0plus.c **** uint32_t cy_delayFreqHz   = CY_CLK_SYSTEM_FREQ_HZ_DEFAULT;
 116:system_psoc62_cm0plus.c **** 
 117:system_psoc62_cm0plus.c **** uint32_t cy_delayFreqKhz  = (CY_CLK_SYSTEM_FREQ_HZ_DEFAULT + CY_DELAY_1K_MINUS_1_THRESHOLD) /
 118:system_psoc62_cm0plus.c ****                             CY_DELAY_1K_THRESHOLD;
 119:system_psoc62_cm0plus.c **** 
 120:system_psoc62_cm0plus.c **** uint8_t cy_delayFreqMhz  = (uint8_t)((CY_CLK_SYSTEM_FREQ_HZ_DEFAULT + CY_DELAY_1M_MINUS_1_THRESHOLD
 121:system_psoc62_cm0plus.c ****                             CY_DELAY_1M_THRESHOLD);
 122:system_psoc62_cm0plus.c **** 
 123:system_psoc62_cm0plus.c **** uint32_t cy_delay32kMs    = CY_DELAY_MS_OVERFLOW_THRESHOLD *
 124:system_psoc62_cm0plus.c ****                             ((CY_CLK_SYSTEM_FREQ_HZ_DEFAULT + CY_DELAY_1K_MINUS_1_THRESHOLD) / CY_D
 125:system_psoc62_cm0plus.c **** 
 126:system_psoc62_cm0plus.c **** #define CY_ROOT_PATH_SRC_IMO                (0UL)
 127:system_psoc62_cm0plus.c **** #define CY_ROOT_PATH_SRC_EXT                (1UL)
 128:system_psoc62_cm0plus.c **** #if (SRSS_ECO_PRESENT == 1U)
 129:system_psoc62_cm0plus.c ****     #define CY_ROOT_PATH_SRC_ECO            (2UL)
 130:system_psoc62_cm0plus.c **** #endif /* (SRSS_ECO_PRESENT == 1U) */
 131:system_psoc62_cm0plus.c **** #if (SRSS_ALTHF_PRESENT == 1U)
 132:system_psoc62_cm0plus.c ****     #define CY_ROOT_PATH_SRC_ALTHF          (3UL)
 133:system_psoc62_cm0plus.c **** #endif /* (SRSS_ALTHF_PRESENT == 1U) */
 134:system_psoc62_cm0plus.c **** #define CY_ROOT_PATH_SRC_DSI_MUX            (4UL)
 135:system_psoc62_cm0plus.c **** #define CY_ROOT_PATH_SRC_DSI_MUX_HVILO      (16UL)
 136:system_psoc62_cm0plus.c **** #define CY_ROOT_PATH_SRC_DSI_MUX_WCO        (17UL)
 137:system_psoc62_cm0plus.c **** #if (SRSS_ALTLF_PRESENT == 1U)
 138:system_psoc62_cm0plus.c ****     #define CY_ROOT_PATH_SRC_DSI_MUX_ALTLF  (18UL)
 139:system_psoc62_cm0plus.c **** #endif /* (SRSS_ALTLF_PRESENT == 1U) */
 140:system_psoc62_cm0plus.c **** #if (SRSS_PILO_PRESENT == 1U)
 141:system_psoc62_cm0plus.c ****     #define CY_ROOT_PATH_SRC_DSI_MUX_PILO   (19UL)
 142:system_psoc62_cm0plus.c **** #endif /* (SRSS_PILO_PRESENT == 1U) */
 143:system_psoc62_cm0plus.c **** 
 144:system_psoc62_cm0plus.c **** 
ARM GAS  C:\Users\Phuong\AppData\Local\Temp\cct5AIDl.s 			page 4


 145:system_psoc62_cm0plus.c **** /*******************************************************************************
 146:system_psoc62_cm0plus.c **** * Cy_SysEnableCM4(), Cy_SysRetainCM4(), and Cy_SysResetCM4()
 147:system_psoc62_cm0plus.c **** *******************************************************************************/
 148:system_psoc62_cm0plus.c **** #define CY_SYS_CM4_PWR_CTL_KEY_OPEN  (0x05FAUL)
 149:system_psoc62_cm0plus.c **** #define CY_SYS_CM4_PWR_CTL_KEY_CLOSE (0xFA05UL)
 150:system_psoc62_cm0plus.c **** 
 151:system_psoc62_cm0plus.c **** 
 152:system_psoc62_cm0plus.c **** /*******************************************************************************
 153:system_psoc62_cm0plus.c **** * Function Name: SystemInit
 154:system_psoc62_cm0plus.c **** ****************************************************************************//**
 155:system_psoc62_cm0plus.c **** *
 156:system_psoc62_cm0plus.c **** * Initializes the system:
 157:system_psoc62_cm0plus.c **** * - Restores FLL registers to the default state.
 158:system_psoc62_cm0plus.c **** * - Unlocks and disables WDT.
 159:system_psoc62_cm0plus.c **** * - Calls the Cy_SystemInit() function, if compiled from PSoC Creator.
 160:system_psoc62_cm0plus.c **** * - Calls \ref SystemCoreClockUpdate().
 161:system_psoc62_cm0plus.c **** *
 162:system_psoc62_cm0plus.c **** *******************************************************************************/
 163:system_psoc62_cm0plus.c **** void SystemInit(void)
 164:system_psoc62_cm0plus.c **** {
 165:system_psoc62_cm0plus.c ****     /* Restore FLL registers to the default state as they are not restored by the ROM code */
 166:system_psoc62_cm0plus.c ****     uint32_t copy = SRSS->CLK_FLL_CONFIG;
 167:system_psoc62_cm0plus.c ****     copy &= ~SRSS_CLK_FLL_CONFIG_FLL_ENABLE_Msk;
 168:system_psoc62_cm0plus.c ****     SRSS->CLK_FLL_CONFIG = copy;
 169:system_psoc62_cm0plus.c **** 
 170:system_psoc62_cm0plus.c ****     copy = SRSS->CLK_ROOT_SELECT[0u];
 171:system_psoc62_cm0plus.c ****     copy &= ~SRSS_CLK_ROOT_SELECT_ROOT_DIV_Msk; /* Set ROOT_DIV = 0*/
 172:system_psoc62_cm0plus.c ****     SRSS->CLK_ROOT_SELECT[0u] = copy;
 173:system_psoc62_cm0plus.c **** 
 174:system_psoc62_cm0plus.c ****     SRSS->CLK_FLL_CONFIG  = CY_FB_CLK_FLL_CONFIG_VALUE;
 175:system_psoc62_cm0plus.c ****     SRSS->CLK_FLL_CONFIG2 = CY_FB_CLK_FLL_CONFIG2_VALUE;
 176:system_psoc62_cm0plus.c ****     SRSS->CLK_FLL_CONFIG3 = CY_FB_CLK_FLL_CONFIG3_VALUE;
 177:system_psoc62_cm0plus.c ****     SRSS->CLK_FLL_CONFIG4 = CY_FB_CLK_FLL_CONFIG4_VALUE;
 178:system_psoc62_cm0plus.c **** 
 179:system_psoc62_cm0plus.c ****     /* Unlock and disable WDT */
 180:system_psoc62_cm0plus.c ****     SRSS->WDT_CTL = ((SRSS->WDT_CTL & (uint32_t)(~SRSS_WDT_CTL_WDT_LOCK_Msk)) | CY_WDT_LOCK_BIT0);
 181:system_psoc62_cm0plus.c ****     SRSS->WDT_CTL = (SRSS->WDT_CTL | CY_WDT_LOCK_BIT1);
 182:system_psoc62_cm0plus.c ****     SRSS->WDT_CTL &= (~ (uint32_t) SRSS_WDT_CTL_WDT_EN_Msk);
 183:system_psoc62_cm0plus.c **** 
 184:system_psoc62_cm0plus.c ****     Cy_SystemInit();
 185:system_psoc62_cm0plus.c ****     SystemCoreClockUpdate();
 186:system_psoc62_cm0plus.c **** 
 187:system_psoc62_cm0plus.c **** #if defined(CY_DEVICE_PSOC6ABLE2)
 188:system_psoc62_cm0plus.c ****     #if !defined(CY_IPC_DEFAULT_CFG_DISABLE)
 189:system_psoc62_cm0plus.c ****         /* Allocate and initialize semaphores for the system operations. */
 190:system_psoc62_cm0plus.c ****         Cy_IPC_SystemSemaInit();
 191:system_psoc62_cm0plus.c ****         Cy_IPC_SystemPipeInit();
 192:system_psoc62_cm0plus.c ****         Cy_Flash_Init();
 193:system_psoc62_cm0plus.c ****     #endif /* CY_IPC_DEFAULT_CFG_DISABLE */
 194:system_psoc62_cm0plus.c **** 
 195:system_psoc62_cm0plus.c ****     #if !defined(CY_PSOC6ABLE2_REV_0A_SUPPORT_DISABLE)
 196:system_psoc62_cm0plus.c ****         if (CY_SYSLIB_DEVICE_REV_0A == Cy_SysLib_GetDeviceRevision())
 197:system_psoc62_cm0plus.c ****         {
 198:system_psoc62_cm0plus.c ****             /* Clear data register of IPC structure #7, reserved for the Deep-Sleep operations. */
 199:system_psoc62_cm0plus.c ****             IPC_STRUCT7->DATA = 0UL;
 200:system_psoc62_cm0plus.c ****             /* Release IPC structure #7 to avoid deadlocks in case of SW or WDT reset during Deep-S
 201:system_psoc62_cm0plus.c ****             IPC_STRUCT7->RELEASE = 0UL;
ARM GAS  C:\Users\Phuong\AppData\Local\Temp\cct5AIDl.s 			page 5


 202:system_psoc62_cm0plus.c ****         }
 203:system_psoc62_cm0plus.c ****     #endif /* !defined(CY_PSOC6ABLE2_REV_0A_SUPPORT_DISABLE) */
 204:system_psoc62_cm0plus.c **** #endif /* CY_DEVICE_PSOC6ABLE2 */
 205:system_psoc62_cm0plus.c **** }
 206:system_psoc62_cm0plus.c **** 
 207:system_psoc62_cm0plus.c **** 
 208:system_psoc62_cm0plus.c **** /*******************************************************************************
 209:system_psoc62_cm0plus.c **** * Function Name: Cy_SystemInit
 210:system_psoc62_cm0plus.c **** ****************************************************************************//**
 211:system_psoc62_cm0plus.c **** *
 212:system_psoc62_cm0plus.c **** * The function is called during device startup. Once project compiled as part of
 213:system_psoc62_cm0plus.c **** * the PSoC Creator project, the Cy_SystemInit() function is generated by the
 214:system_psoc62_cm0plus.c **** * PSoC Creator.
 215:system_psoc62_cm0plus.c **** *
 216:system_psoc62_cm0plus.c **** * The function generated by PSoC Creator performs all of the necessary device
 217:system_psoc62_cm0plus.c **** * configuration based on the design settings.  This includes settings from the
 218:system_psoc62_cm0plus.c **** * Design Wide Resources (DWR) such as Clocks and Pins as well as any component
 219:system_psoc62_cm0plus.c **** * configuration that is necessary.
 220:system_psoc62_cm0plus.c **** *
 221:system_psoc62_cm0plus.c **** *******************************************************************************/
 222:system_psoc62_cm0plus.c **** __WEAK void Cy_SystemInit(void)
 223:system_psoc62_cm0plus.c **** {
  28              		.loc 1 223 0
  29              		.cfi_startproc
  30              		@ args = 0, pretend = 0, frame = 0
  31              		@ frame_needed = 0, uses_anonymous_args = 0
  32              		@ link register save eliminated.
 224:system_psoc62_cm0plus.c ****      /* Empty weak function. The actual implementation to be in the PSoC Creator
 225:system_psoc62_cm0plus.c ****       * generated strong function.
 226:system_psoc62_cm0plus.c ****      */
 227:system_psoc62_cm0plus.c **** }
  33              		.loc 1 227 0
  34              		@ sp needed
  35 0000 7047     		bx	lr
  36              		.cfi_endproc
  37              	.LFE56:
  38              		.size	Cy_SystemInit, .-Cy_SystemInit
  39              		.global	__aeabi_uidiv
  40 0002 C046     		.section	.text.SystemCoreClockUpdate,"ax",%progbits
  41              		.align	2
  42              		.global	SystemCoreClockUpdate
  43              		.code	16
  44              		.thumb_func
  45              		.type	SystemCoreClockUpdate, %function
  46              	SystemCoreClockUpdate:
  47              	.LFB57:
 228:system_psoc62_cm0plus.c **** 
 229:system_psoc62_cm0plus.c **** 
 230:system_psoc62_cm0plus.c **** /*******************************************************************************
 231:system_psoc62_cm0plus.c **** * Function Name: SystemCoreClockUpdate
 232:system_psoc62_cm0plus.c **** ****************************************************************************//**
 233:system_psoc62_cm0plus.c **** *
 234:system_psoc62_cm0plus.c **** * Gets core clock frequency and updates \ref SystemCoreClock, \ref
 235:system_psoc62_cm0plus.c **** * cy_Hfclk0FreqHz, and \ref cy_PeriClkFreqHz.
 236:system_psoc62_cm0plus.c **** *
 237:system_psoc62_cm0plus.c **** * Updates global variables used by the \ref Cy_SysLib_Delay(), \ref
 238:system_psoc62_cm0plus.c **** * Cy_SysLib_DelayUs(), and \ref Cy_SysLib_DelayCycles().
ARM GAS  C:\Users\Phuong\AppData\Local\Temp\cct5AIDl.s 			page 6


 239:system_psoc62_cm0plus.c **** *
 240:system_psoc62_cm0plus.c **** *******************************************************************************/
 241:system_psoc62_cm0plus.c **** void SystemCoreClockUpdate (void)
 242:system_psoc62_cm0plus.c **** {
  48              		.loc 1 242 0
  49              		.cfi_startproc
  50              		@ args = 0, pretend = 0, frame = 0
  51              		@ frame_needed = 0, uses_anonymous_args = 0
  52 0000 70B5     		push	{r4, r5, r6, lr}
  53              		.cfi_def_cfa_offset 16
  54              		.cfi_offset 4, -16
  55              		.cfi_offset 5, -12
  56              		.cfi_offset 6, -8
  57              		.cfi_offset 14, -4
 243:system_psoc62_cm0plus.c ****     uint32_t srcFreqHz;
 244:system_psoc62_cm0plus.c ****     uint32_t pathFreqHz;
 245:system_psoc62_cm0plus.c ****     uint32_t slowClkDiv;
 246:system_psoc62_cm0plus.c ****     uint32_t periClkDiv;
 247:system_psoc62_cm0plus.c ****     uint32_t rootPath;
 248:system_psoc62_cm0plus.c ****     uint32_t srcClk;
 249:system_psoc62_cm0plus.c **** 
 250:system_psoc62_cm0plus.c ****     /* Get root path clock for the high-frequency clock # 0 */
 251:system_psoc62_cm0plus.c ****     rootPath = _FLD2VAL(SRSS_CLK_ROOT_SELECT_ROOT_MUX, SRSS->CLK_ROOT_SELECT[0u]);
  58              		.loc 1 251 0
  59 0002 5F49     		ldr	r1, .L22
  60 0004 E023     		movs	r3, #224
  61 0006 9B00     		lsls	r3, r3, #2
  62 0008 CB58     		ldr	r3, [r1, r3]
  63 000a 0F22     		movs	r2, #15
  64 000c 1340     		ands	r3, r2
  65              	.LVL0:
 252:system_psoc62_cm0plus.c **** 
 253:system_psoc62_cm0plus.c ****     /* Get source of the root path clock */
 254:system_psoc62_cm0plus.c ****     srcClk = _FLD2VAL(SRSS_CLK_PATH_SELECT_PATH_MUX, SRSS->CLK_PATH_SELECT[rootPath]);
  66              		.loc 1 254 0
  67 000e 1A00     		movs	r2, r3
  68 0010 D032     		adds	r2, r2, #208
  69 0012 9200     		lsls	r2, r2, #2
  70 0014 5258     		ldr	r2, [r2, r1]
  71 0016 0721     		movs	r1, #7
  72 0018 0A40     		ands	r2, r1
  73              	.LVL1:
 255:system_psoc62_cm0plus.c **** 
 256:system_psoc62_cm0plus.c ****     /* Get frequency of the source */
 257:system_psoc62_cm0plus.c ****     switch (srcClk)
  74              		.loc 1 257 0
  75 001a 02D0     		beq	.L4
  76 001c 042A     		cmp	r2, #4
  77 001e 02D0     		beq	.L5
  78 0020 0FE0     		b	.L21
  79              	.L4:
 258:system_psoc62_cm0plus.c ****     {
 259:system_psoc62_cm0plus.c ****     case CY_ROOT_PATH_SRC_IMO:
 260:system_psoc62_cm0plus.c ****         srcFreqHz = CY_CLK_IMO_FREQ_HZ;
  80              		.loc 1 260 0
  81 0022 5848     		ldr	r0, .L22+4
  82 0024 11E0     		b	.L3
ARM GAS  C:\Users\Phuong\AppData\Local\Temp\cct5AIDl.s 			page 7


  83              	.L5:
  84              	.LBB4:
 261:system_psoc62_cm0plus.c ****     break;
 262:system_psoc62_cm0plus.c **** 
 263:system_psoc62_cm0plus.c ****     case CY_ROOT_PATH_SRC_EXT:
 264:system_psoc62_cm0plus.c ****         srcFreqHz = CY_CLK_EXT_FREQ_HZ;
 265:system_psoc62_cm0plus.c ****     break;
 266:system_psoc62_cm0plus.c **** 
 267:system_psoc62_cm0plus.c ****     #if (SRSS_ECO_PRESENT == 1U)
 268:system_psoc62_cm0plus.c ****         case CY_ROOT_PATH_SRC_ECO:
 269:system_psoc62_cm0plus.c ****             srcFreqHz = CY_CLK_ECO_FREQ_HZ;
 270:system_psoc62_cm0plus.c ****         break;
 271:system_psoc62_cm0plus.c ****     #endif /* (SRSS_ECO_PRESENT == 1U) */
 272:system_psoc62_cm0plus.c **** 
 273:system_psoc62_cm0plus.c **** #if defined (CY_IP_MXBLESS) && (CY_IP_MXBLESS == 1UL) && (SRSS_ALTHF_PRESENT == 1U)
 274:system_psoc62_cm0plus.c ****     case CY_ROOT_PATH_SRC_ALTHF:
 275:system_psoc62_cm0plus.c ****         srcFreqHz = cy_BleEcoClockFreqHz;
 276:system_psoc62_cm0plus.c ****     break;
 277:system_psoc62_cm0plus.c **** #endif /* defined (CY_IP_MXBLESS) && (CY_IP_MXBLESS == 1UL) && (SRSS_ALTHF_PRESENT == 1U) */
 278:system_psoc62_cm0plus.c **** 
 279:system_psoc62_cm0plus.c ****     case CY_ROOT_PATH_SRC_DSI_MUX:
 280:system_psoc62_cm0plus.c ****     {
 281:system_psoc62_cm0plus.c ****         uint32_t dsi_src;
 282:system_psoc62_cm0plus.c ****         dsi_src = _FLD2VAL(SRSS_CLK_DSI_SELECT_DSI_MUX,  SRSS->CLK_DSI_SELECT[rootPath]);
  85              		.loc 1 282 0
  86 0026 1A00     		movs	r2, r3
  87              	.LVL2:
  88 0028 C032     		adds	r2, r2, #192
  89 002a 9200     		lsls	r2, r2, #2
  90 002c 5449     		ldr	r1, .L22
  91 002e 5258     		ldr	r2, [r2, r1]
  92 0030 1F21     		movs	r1, #31
  93 0032 0A40     		ands	r2, r1
  94              	.LVL3:
 283:system_psoc62_cm0plus.c ****         switch (dsi_src)
  95              		.loc 1 283 0
  96 0034 112A     		cmp	r2, #17
  97 0036 06D0     		beq	.L16
  98 0038 132A     		cmp	r2, #19
  99 003a 04D0     		beq	.L16
 284:system_psoc62_cm0plus.c ****         {
 285:system_psoc62_cm0plus.c ****         case CY_ROOT_PATH_SRC_DSI_MUX_HVILO:
 286:system_psoc62_cm0plus.c ****             srcFreqHz = CY_CLK_HVILO_FREQ_HZ;
 100              		.loc 1 286 0
 101 003c FA20     		movs	r0, #250
 102 003e C001     		lsls	r0, r0, #7
 103 0040 03E0     		b	.L3
 104              	.LVL4:
 105              	.L21:
 106              	.LBE4:
 264:system_psoc62_cm0plus.c ****     break;
 107              		.loc 1 264 0
 108 0042 5148     		ldr	r0, .L22+8
 109 0044 01E0     		b	.L3
 110              	.LVL5:
 111              	.L16:
 112              	.LBB5:
ARM GAS  C:\Users\Phuong\AppData\Local\Temp\cct5AIDl.s 			page 8


 287:system_psoc62_cm0plus.c ****         break;
 288:system_psoc62_cm0plus.c **** 
 289:system_psoc62_cm0plus.c ****         case CY_ROOT_PATH_SRC_DSI_MUX_WCO:
 290:system_psoc62_cm0plus.c ****             srcFreqHz = CY_CLK_WCO_FREQ_HZ;
 113              		.loc 1 290 0
 114 0046 8020     		movs	r0, #128
 115 0048 0002     		lsls	r0, r0, #8
 116              	.LVL6:
 117              	.L3:
 118              	.LBE5:
 291:system_psoc62_cm0plus.c ****         break;
 292:system_psoc62_cm0plus.c **** 
 293:system_psoc62_cm0plus.c ****         #if (SRSS_ALTLF_PRESENT == 1U)
 294:system_psoc62_cm0plus.c ****             case CY_ROOT_PATH_SRC_DSI_MUX_ALTLF:
 295:system_psoc62_cm0plus.c ****                 srcFreqHz = CY_CLK_ALTLF_FREQ_HZ;
 296:system_psoc62_cm0plus.c ****             break;
 297:system_psoc62_cm0plus.c ****         #endif /* (SRSS_ALTLF_PRESENT == 1U) */
 298:system_psoc62_cm0plus.c **** 
 299:system_psoc62_cm0plus.c ****         #if (SRSS_PILO_PRESENT == 1U)
 300:system_psoc62_cm0plus.c ****             case CY_ROOT_PATH_SRC_DSI_MUX_PILO:
 301:system_psoc62_cm0plus.c ****                 srcFreqHz = CY_CLK_PILO_FREQ_HZ;
 302:system_psoc62_cm0plus.c ****             break;
 303:system_psoc62_cm0plus.c ****         #endif /* (SRSS_PILO_PRESENT == 1U) */
 304:system_psoc62_cm0plus.c **** 
 305:system_psoc62_cm0plus.c ****         default:
 306:system_psoc62_cm0plus.c ****             srcFreqHz = CY_CLK_HVILO_FREQ_HZ;
 307:system_psoc62_cm0plus.c ****         break;
 308:system_psoc62_cm0plus.c ****         }
 309:system_psoc62_cm0plus.c ****     }
 310:system_psoc62_cm0plus.c ****     break;
 311:system_psoc62_cm0plus.c **** 
 312:system_psoc62_cm0plus.c ****     default:
 313:system_psoc62_cm0plus.c ****         srcFreqHz = CY_CLK_EXT_FREQ_HZ;
 314:system_psoc62_cm0plus.c ****     break;
 315:system_psoc62_cm0plus.c ****     }
 316:system_psoc62_cm0plus.c **** 
 317:system_psoc62_cm0plus.c ****     if (rootPath == 0UL)
 119              		.loc 1 317 0
 120 004a 002B     		cmp	r3, #0
 121 004c 36D1     		bne	.L7
 122              	.LBB6:
 318:system_psoc62_cm0plus.c ****     {
 319:system_psoc62_cm0plus.c ****         /* FLL */
 320:system_psoc62_cm0plus.c ****         bool fllLocked       = ( 0UL != _FLD2VAL(SRSS_CLK_FLL_STATUS_LOCKED, SRSS->CLK_FLL_STATUS))
 123              		.loc 1 320 0
 124 004e 4C4B     		ldr	r3, .L22
 125              	.LVL7:
 126 0050 B222     		movs	r2, #178
 127 0052 D200     		lsls	r2, r2, #3
 128 0054 9A58     		ldr	r2, [r3, r2]
 129 0056 0121     		movs	r1, #1
 130 0058 1140     		ands	r1, r2
 131              	.LVL8:
 321:system_psoc62_cm0plus.c ****         bool fllOutputOutput = ( 3UL == _FLD2VAL(SRSS_CLK_FLL_CONFIG3_BYPASS_SEL, SRSS->CLK_FLL_CON
 132              		.loc 1 321 0
 133 005a B125     		movs	r5, #177
 134 005c ED00     		lsls	r5, r5, #3
ARM GAS  C:\Users\Phuong\AppData\Local\Temp\cct5AIDl.s 			page 9


 135 005e 5A59     		ldr	r2, [r3, r5]
 136 0060 120F     		lsrs	r2, r2, #28
 137 0062 0324     		movs	r4, #3
 138 0064 2240     		ands	r2, r4
 139              	.LVL9:
 322:system_psoc62_cm0plus.c ****         bool fllOutputAuto   = ((0UL == _FLD2VAL(SRSS_CLK_FLL_CONFIG3_BYPASS_SEL, SRSS->CLK_FLL_CON
 140              		.loc 1 322 0
 141 0066 5B59     		ldr	r3, [r3, r5]
 142 0068 1B0F     		lsrs	r3, r3, #28
 143 006a 1C42     		tst	r4, r3
 144 006c 07D0     		beq	.L17
 323:system_psoc62_cm0plus.c ****                                 (1UL == _FLD2VAL(SRSS_CLK_FLL_CONFIG3_BYPASS_SEL, SRSS->CLK_FLL_CON
 145              		.loc 1 323 0 discriminator 2
 146 006e 444C     		ldr	r4, .L22
 147 0070 6359     		ldr	r3, [r4, r5]
 148 0072 1B0F     		lsrs	r3, r3, #28
 149 0074 0324     		movs	r4, #3
 150 0076 2340     		ands	r3, r4
 322:system_psoc62_cm0plus.c ****         bool fllOutputAuto   = ((0UL == _FLD2VAL(SRSS_CLK_FLL_CONFIG3_BYPASS_SEL, SRSS->CLK_FLL_CON
 151              		.loc 1 322 0 discriminator 2
 152 0078 012B     		cmp	r3, #1
 153 007a 02D1     		bne	.L18
 154 007c 02E0     		b	.L8
 155              	.L17:
 322:system_psoc62_cm0plus.c ****         bool fllOutputAuto   = ((0UL == _FLD2VAL(SRSS_CLK_FLL_CONFIG3_BYPASS_SEL, SRSS->CLK_FLL_CON
 156              		.loc 1 322 0 is_stmt 0
 157 007e 0123     		movs	r3, #1
 158 0080 00E0     		b	.L8
 159              	.L18:
 160 0082 0023     		movs	r3, #0
 161              	.L8:
 162              	.LVL10:
 324:system_psoc62_cm0plus.c ****         if ((fllOutputAuto && fllLocked) || fllOutputOutput)
 163              		.loc 1 324 0 is_stmt 1 discriminator 6
 164 0084 002B     		cmp	r3, #0
 165 0086 01D0     		beq	.L9
 166              		.loc 1 324 0 is_stmt 0 discriminator 1
 167 0088 0029     		cmp	r1, #0
 168 008a 01D1     		bne	.L10
 169              	.L9:
 170              		.loc 1 324 0 discriminator 3
 171 008c 032A     		cmp	r2, #3
 172 008e 4BD1     		bne	.L11
 173              	.L10:
 174              	.LBB7:
 325:system_psoc62_cm0plus.c ****         {
 326:system_psoc62_cm0plus.c ****             uint32_t fllMult;
 327:system_psoc62_cm0plus.c ****             uint32_t refDiv;
 328:system_psoc62_cm0plus.c ****             uint32_t outputDiv;
 329:system_psoc62_cm0plus.c **** 
 330:system_psoc62_cm0plus.c ****             fllMult = _FLD2VAL(SRSS_CLK_FLL_CONFIG_FLL_MULT, SRSS->CLK_FLL_CONFIG);
 175              		.loc 1 330 0 is_stmt 1
 176 0090 3B4B     		ldr	r3, .L22
 177              	.LVL11:
 178 0092 B022     		movs	r2, #176
 179              	.LVL12:
 180 0094 D200     		lsls	r2, r2, #3
ARM GAS  C:\Users\Phuong\AppData\Local\Temp\cct5AIDl.s 			page 10


 181 0096 9D58     		ldr	r5, [r3, r2]
 182 0098 AD03     		lsls	r5, r5, #14
 183 009a AD0B     		lsrs	r5, r5, #14
 184              	.LVL13:
 331:system_psoc62_cm0plus.c ****             refDiv  = _FLD2VAL(SRSS_CLK_FLL_CONFIG2_FLL_REF_DIV, SRSS->CLK_FLL_CONFIG2);
 185              		.loc 1 331 0
 186 009c 3B49     		ldr	r1, .L22+12
 187              	.LVL14:
 188 009e 5958     		ldr	r1, [r3, r1]
 189 00a0 C904     		lsls	r1, r1, #19
 190 00a2 C90C     		lsrs	r1, r1, #19
 191              	.LVL15:
 332:system_psoc62_cm0plus.c ****             outputDiv = _FLD2VAL(SRSS_CLK_FLL_CONFIG_FLL_OUTPUT_DIV, SRSS->CLK_FLL_CONFIG) + 1UL;
 192              		.loc 1 332 0
 193 00a4 9C58     		ldr	r4, [r3, r2]
 194 00a6 240E     		lsrs	r4, r4, #24
 195 00a8 0123     		movs	r3, #1
 196 00aa 1C40     		ands	r4, r3
 197 00ac 0134     		adds	r4, r4, #1
 198              	.LVL16:
 333:system_psoc62_cm0plus.c **** 
 334:system_psoc62_cm0plus.c ****             pathFreqHz = ((srcFreqHz / refDiv) * fllMult) / outputDiv;
 199              		.loc 1 334 0
 200 00ae FFF7FEFF 		bl	__aeabi_uidiv
 201              	.LVL17:
 202 00b2 6843     		muls	r0, r5
 203 00b4 2100     		movs	r1, r4
 204 00b6 FFF7FEFF 		bl	__aeabi_uidiv
 205              	.LVL18:
 206              	.LBE7:
 325:system_psoc62_cm0plus.c ****             uint32_t fllMult;
 207              		.loc 1 325 0
 208 00ba 35E0     		b	.L11
 209              	.LVL19:
 210              	.L7:
 211              	.LBE6:
 335:system_psoc62_cm0plus.c ****         }
 336:system_psoc62_cm0plus.c ****         else
 337:system_psoc62_cm0plus.c ****         {
 338:system_psoc62_cm0plus.c ****             pathFreqHz = srcFreqHz;
 339:system_psoc62_cm0plus.c ****         }
 340:system_psoc62_cm0plus.c ****     }
 341:system_psoc62_cm0plus.c ****     else if (rootPath == 1UL)
 212              		.loc 1 341 0
 213 00bc 012B     		cmp	r3, #1
 214 00be 33D1     		bne	.L11
 215              	.LBB8:
 342:system_psoc62_cm0plus.c ****     {
 343:system_psoc62_cm0plus.c ****         /* PLL */
 344:system_psoc62_cm0plus.c ****         bool pllLocked       = ( 0UL != _FLD2VAL(SRSS_CLK_PLL_STATUS_LOCKED,     SRSS->CLK_PLL_STAT
 216              		.loc 1 344 0
 217 00c0 2F4B     		ldr	r3, .L22
 218              	.LVL20:
 219 00c2 C822     		movs	r2, #200
 220 00c4 D200     		lsls	r2, r2, #3
 221 00c6 9A58     		ldr	r2, [r3, r2]
 222 00c8 0125     		movs	r5, #1
ARM GAS  C:\Users\Phuong\AppData\Local\Temp\cct5AIDl.s 			page 11


 223 00ca 1540     		ands	r5, r2
 224              	.LVL21:
 345:system_psoc62_cm0plus.c ****         bool pllOutputOutput = ( 3UL == _FLD2VAL(SRSS_CLK_PLL_CONFIG_BYPASS_SEL, SRSS->CLK_PLL_CONF
 225              		.loc 1 345 0
 226 00cc C024     		movs	r4, #192
 227 00ce E400     		lsls	r4, r4, #3
 228 00d0 1A59     		ldr	r2, [r3, r4]
 229 00d2 120F     		lsrs	r2, r2, #28
 230 00d4 0321     		movs	r1, #3
 231 00d6 0A40     		ands	r2, r1
 232              	.LVL22:
 346:system_psoc62_cm0plus.c ****         bool pllOutputAuto   = ((0UL == _FLD2VAL(SRSS_CLK_PLL_CONFIG_BYPASS_SEL, SRSS->CLK_PLL_CONF
 233              		.loc 1 346 0
 234 00d8 1B59     		ldr	r3, [r3, r4]
 235 00da 1B0F     		lsrs	r3, r3, #28
 236 00dc 1942     		tst	r1, r3
 237 00de 07D0     		beq	.L19
 347:system_psoc62_cm0plus.c ****                                 (1UL == _FLD2VAL(SRSS_CLK_PLL_CONFIG_BYPASS_SEL, SRSS->CLK_PLL_CONF
 238              		.loc 1 347 0 discriminator 2
 239 00e0 2749     		ldr	r1, .L22
 240 00e2 0B59     		ldr	r3, [r1, r4]
 241 00e4 1B0F     		lsrs	r3, r3, #28
 242 00e6 0321     		movs	r1, #3
 243 00e8 0B40     		ands	r3, r1
 346:system_psoc62_cm0plus.c ****         bool pllOutputAuto   = ((0UL == _FLD2VAL(SRSS_CLK_PLL_CONFIG_BYPASS_SEL, SRSS->CLK_PLL_CONF
 244              		.loc 1 346 0 discriminator 2
 245 00ea 012B     		cmp	r3, #1
 246 00ec 02D1     		bne	.L20
 247 00ee 02E0     		b	.L12
 248              	.L19:
 346:system_psoc62_cm0plus.c ****         bool pllOutputAuto   = ((0UL == _FLD2VAL(SRSS_CLK_PLL_CONFIG_BYPASS_SEL, SRSS->CLK_PLL_CONF
 249              		.loc 1 346 0 is_stmt 0
 250 00f0 0123     		movs	r3, #1
 251 00f2 00E0     		b	.L12
 252              	.L20:
 253 00f4 0023     		movs	r3, #0
 254              	.L12:
 255              	.LVL23:
 348:system_psoc62_cm0plus.c ****         if ((pllOutputAuto && pllLocked) || pllOutputOutput)
 256              		.loc 1 348 0 is_stmt 1 discriminator 6
 257 00f6 002B     		cmp	r3, #0
 258 00f8 01D0     		beq	.L13
 259              		.loc 1 348 0 is_stmt 0 discriminator 1
 260 00fa 002D     		cmp	r5, #0
 261 00fc 01D1     		bne	.L14
 262              	.L13:
 263              		.loc 1 348 0 discriminator 3
 264 00fe 032A     		cmp	r2, #3
 265 0100 12D1     		bne	.L11
 266              	.L14:
 267              	.LBB9:
 349:system_psoc62_cm0plus.c ****         {
 350:system_psoc62_cm0plus.c ****             uint32_t feedbackDiv;
 351:system_psoc62_cm0plus.c ****             uint32_t referenceDiv;
 352:system_psoc62_cm0plus.c ****             uint32_t outputDiv;
 353:system_psoc62_cm0plus.c **** 
 354:system_psoc62_cm0plus.c ****             feedbackDiv  = _FLD2VAL(SRSS_CLK_PLL_CONFIG_FEEDBACK_DIV,  SRSS->CLK_PLL_CONFIG[0UL]);
ARM GAS  C:\Users\Phuong\AppData\Local\Temp\cct5AIDl.s 			page 12


 268              		.loc 1 354 0 is_stmt 1
 269 0102 1F4D     		ldr	r5, .L22
 270              	.LVL24:
 271 0104 C022     		movs	r2, #192
 272              	.LVL25:
 273 0106 D200     		lsls	r2, r2, #3
 274 0108 AB58     		ldr	r3, [r5, r2]
 275              	.LVL26:
 276 010a 7F21     		movs	r1, #127
 277 010c 0B40     		ands	r3, r1
 278              	.LVL27:
 355:system_psoc62_cm0plus.c ****             referenceDiv = _FLD2VAL(SRSS_CLK_PLL_CONFIG_REFERENCE_DIV, SRSS->CLK_PLL_CONFIG[0UL]);
 279              		.loc 1 355 0
 280 010e A958     		ldr	r1, [r5, r2]
 281 0110 090A     		lsrs	r1, r1, #8
 282 0112 1F26     		movs	r6, #31
 283 0114 3140     		ands	r1, r6
 284              	.LVL28:
 356:system_psoc62_cm0plus.c ****             outputDiv    = _FLD2VAL(SRSS_CLK_PLL_CONFIG_OUTPUT_DIV,    SRSS->CLK_PLL_CONFIG[0UL]);
 285              		.loc 1 356 0
 286 0116 AC58     		ldr	r4, [r5, r2]
 287 0118 240C     		lsrs	r4, r4, #16
 288 011a 3440     		ands	r4, r6
 289              	.LVL29:
 357:system_psoc62_cm0plus.c **** 
 358:system_psoc62_cm0plus.c ****             pathFreqHz = ((srcFreqHz * feedbackDiv) / referenceDiv) / outputDiv;
 290              		.loc 1 358 0
 291 011c 5843     		muls	r0, r3
 292              	.LVL30:
 293 011e FFF7FEFF 		bl	__aeabi_uidiv
 294              	.LVL31:
 295 0122 2100     		movs	r1, r4
 296 0124 FFF7FEFF 		bl	__aeabi_uidiv
 297              	.LVL32:
 298              	.L11:
 299              	.LBE9:
 300              	.LBE8:
 359:system_psoc62_cm0plus.c **** 
 360:system_psoc62_cm0plus.c ****         }
 361:system_psoc62_cm0plus.c ****         else
 362:system_psoc62_cm0plus.c ****         {
 363:system_psoc62_cm0plus.c ****             pathFreqHz = srcFreqHz;
 364:system_psoc62_cm0plus.c ****         }
 365:system_psoc62_cm0plus.c ****     }
 366:system_psoc62_cm0plus.c ****     else
 367:system_psoc62_cm0plus.c ****     {
 368:system_psoc62_cm0plus.c ****         /* Direct */
 369:system_psoc62_cm0plus.c ****         pathFreqHz = srcFreqHz;
 370:system_psoc62_cm0plus.c ****     }
 371:system_psoc62_cm0plus.c **** 
 372:system_psoc62_cm0plus.c ****     /* Get frequency after hf_clk pre-divider */
 373:system_psoc62_cm0plus.c ****     pathFreqHz = pathFreqHz >> _FLD2VAL(SRSS_CLK_ROOT_SELECT_ROOT_DIV, SRSS->CLK_ROOT_SELECT[0u]);
 301              		.loc 1 373 0
 302 0128 E023     		movs	r3, #224
 303 012a 9B00     		lsls	r3, r3, #2
 304 012c 144A     		ldr	r2, .L22
 305 012e D358     		ldr	r3, [r2, r3]
ARM GAS  C:\Users\Phuong\AppData\Local\Temp\cct5AIDl.s 			page 13


 306 0130 1B09     		lsrs	r3, r3, #4
 307 0132 0322     		movs	r2, #3
 308 0134 1340     		ands	r3, r2
 309 0136 D840     		lsrs	r0, r0, r3
 310              	.LVL33:
 374:system_psoc62_cm0plus.c ****     cy_Hfclk0FreqHz = pathFreqHz;
 311              		.loc 1 374 0
 312 0138 154C     		ldr	r4, .L22+16
 313 013a 2060     		str	r0, [r4]
 375:system_psoc62_cm0plus.c **** 
 376:system_psoc62_cm0plus.c ****     /* Slow Clock Divider */
 377:system_psoc62_cm0plus.c ****     slowClkDiv = 1u + _FLD2VAL(CPUSS_CM0_CLOCK_CTL_SLOW_INT_DIV, CPUSS->CM0_CLOCK_CTL);
 314              		.loc 1 377 0
 315 013c 154B     		ldr	r3, .L22+20
 316 013e 1D69     		ldr	r5, [r3, #16]
 317 0140 2D0A     		lsrs	r5, r5, #8
 318 0142 FC32     		adds	r2, r2, #252
 319 0144 1540     		ands	r5, r2
 320 0146 0135     		adds	r5, r5, #1
 321              	.LVL34:
 378:system_psoc62_cm0plus.c **** 
 379:system_psoc62_cm0plus.c ****     /* Peripheral Clock Divider */
 380:system_psoc62_cm0plus.c ****     periClkDiv = 1u + _FLD2VAL(CPUSS_CM0_CLOCK_CTL_PERI_INT_DIV, CPUSS->CM0_CLOCK_CTL);
 322              		.loc 1 380 0
 323 0148 1969     		ldr	r1, [r3, #16]
 324 014a 090E     		lsrs	r1, r1, #24
 325 014c 0131     		adds	r1, r1, #1
 326              	.LVL35:
 381:system_psoc62_cm0plus.c **** 
 382:system_psoc62_cm0plus.c ****     pathFreqHz = pathFreqHz / periClkDiv;
 327              		.loc 1 382 0
 328 014e FFF7FEFF 		bl	__aeabi_uidiv
 329              	.LVL36:
 383:system_psoc62_cm0plus.c ****     cy_PeriClkFreqHz = pathFreqHz;
 330              		.loc 1 383 0
 331 0152 6060     		str	r0, [r4, #4]
 384:system_psoc62_cm0plus.c ****     pathFreqHz = pathFreqHz / slowClkDiv;
 332              		.loc 1 384 0
 333 0154 2900     		movs	r1, r5
 334 0156 FFF7FEFF 		bl	__aeabi_uidiv
 335              	.LVL37:
 336 015a 0500     		movs	r5, r0
 337              	.LVL38:
 385:system_psoc62_cm0plus.c ****     SystemCoreClock = pathFreqHz;
 338              		.loc 1 385 0
 339 015c A060     		str	r0, [r4, #8]
 386:system_psoc62_cm0plus.c **** 
 387:system_psoc62_cm0plus.c ****     /* Sets clock frequency for Delay API */
 388:system_psoc62_cm0plus.c ****     cy_delayFreqHz = SystemCoreClock;
 340              		.loc 1 388 0
 341 015e E060     		str	r0, [r4, #12]
 389:system_psoc62_cm0plus.c ****     cy_delayFreqMhz = (uint8_t)((cy_delayFreqHz + CY_DELAY_1M_MINUS_1_THRESHOLD) / CY_DELAY_1M_THRE
 342              		.loc 1 389 0
 343 0160 0D4B     		ldr	r3, .L22+24
 344 0162 C018     		adds	r0, r0, r3
 345              	.LVL39:
 346 0164 0D49     		ldr	r1, .L22+28
ARM GAS  C:\Users\Phuong\AppData\Local\Temp\cct5AIDl.s 			page 14


 347 0166 FFF7FEFF 		bl	__aeabi_uidiv
 348              	.LVL40:
 349 016a 2074     		strb	r0, [r4, #16]
 390:system_psoc62_cm0plus.c ****     cy_delayFreqKhz = (cy_delayFreqHz + CY_DELAY_1K_MINUS_1_THRESHOLD) / CY_DELAY_1K_THRESHOLD;
 350              		.loc 1 390 0
 351 016c 0C4B     		ldr	r3, .L22+32
 352 016e E818     		adds	r0, r5, r3
 353 0170 FA21     		movs	r1, #250
 354 0172 8900     		lsls	r1, r1, #2
 355 0174 FFF7FEFF 		bl	__aeabi_uidiv
 356              	.LVL41:
 357 0178 6061     		str	r0, [r4, #20]
 391:system_psoc62_cm0plus.c ****     cy_delay32kMs   = CY_DELAY_MS_OVERFLOW_THRESHOLD * cy_delayFreqKhz;
 358              		.loc 1 391 0
 359 017a C003     		lsls	r0, r0, #15
 360 017c A061     		str	r0, [r4, #24]
 392:system_psoc62_cm0plus.c **** }
 361              		.loc 1 392 0
 362              		@ sp needed
 363              	.LVL42:
 364 017e 70BD     		pop	{r4, r5, r6, pc}
 365              	.L23:
 366              		.align	2
 367              	.L22:
 368 0180 00002640 		.word	1076232192
 369 0184 00127A00 		.word	8000000
 370 0188 00366E01 		.word	24000000
 371 018c 84050000 		.word	1412
 372 0190 00000000 		.word	.LANCHOR0
 373 0194 00002140 		.word	1075904512
 374 0198 3F420F00 		.word	999999
 375 019c 40420F00 		.word	1000000
 376 01a0 E7030000 		.word	999
 377              		.cfi_endproc
 378              	.LFE57:
 379              		.size	SystemCoreClockUpdate, .-SystemCoreClockUpdate
 380              		.section	.text.SystemInit,"ax",%progbits
 381              		.align	2
 382              		.global	SystemInit
 383              		.code	16
 384              		.thumb_func
 385              		.type	SystemInit, %function
 386              	SystemInit:
 387              	.LFB55:
 164:system_psoc62_cm0plus.c ****     /* Restore FLL registers to the default state as they are not restored by the ROM code */
 388              		.loc 1 164 0
 389              		.cfi_startproc
 390              		@ args = 0, pretend = 0, frame = 0
 391              		@ frame_needed = 0, uses_anonymous_args = 0
 392 0000 10B5     		push	{r4, lr}
 393              		.cfi_def_cfa_offset 8
 394              		.cfi_offset 4, -8
 395              		.cfi_offset 14, -4
 166:system_psoc62_cm0plus.c ****     copy &= ~SRSS_CLK_FLL_CONFIG_FLL_ENABLE_Msk;
 396              		.loc 1 166 0
 397 0002 234B     		ldr	r3, .L28
 398 0004 B021     		movs	r1, #176
ARM GAS  C:\Users\Phuong\AppData\Local\Temp\cct5AIDl.s 			page 15


 399 0006 C900     		lsls	r1, r1, #3
 400 0008 5A58     		ldr	r2, [r3, r1]
 401              	.LVL43:
 167:system_psoc62_cm0plus.c ****     SRSS->CLK_FLL_CONFIG = copy;
 402              		.loc 1 167 0
 403 000a 5200     		lsls	r2, r2, #1
 404              	.LVL44:
 405 000c 5208     		lsrs	r2, r2, #1
 406              	.LVL45:
 168:system_psoc62_cm0plus.c **** 
 407              		.loc 1 168 0
 408 000e 5A50     		str	r2, [r3, r1]
 170:system_psoc62_cm0plus.c ****     copy &= ~SRSS_CLK_ROOT_SELECT_ROOT_DIV_Msk; /* Set ROOT_DIV = 0*/
 409              		.loc 1 170 0
 410 0010 E020     		movs	r0, #224
 411 0012 8000     		lsls	r0, r0, #2
 412 0014 1A58     		ldr	r2, [r3, r0]
 413              	.LVL46:
 171:system_psoc62_cm0plus.c ****     SRSS->CLK_ROOT_SELECT[0u] = copy;
 414              		.loc 1 171 0
 415 0016 3024     		movs	r4, #48
 416 0018 A243     		bics	r2, r4
 417              	.LVL47:
 172:system_psoc62_cm0plus.c **** 
 418              		.loc 1 172 0
 419 001a 1A50     		str	r2, [r3, r0]
 174:system_psoc62_cm0plus.c ****     SRSS->CLK_FLL_CONFIG2 = CY_FB_CLK_FLL_CONFIG2_VALUE;
 420              		.loc 1 174 0
 421 001c 8022     		movs	r2, #128
 422              	.LVL48:
 423 001e 5204     		lsls	r2, r2, #17
 424 0020 5A50     		str	r2, [r3, r1]
 425              	.LVL49:
 175:system_psoc62_cm0plus.c ****     SRSS->CLK_FLL_CONFIG3 = CY_FB_CLK_FLL_CONFIG3_VALUE;
 426              		.loc 1 175 0
 427 0022 1C49     		ldr	r1, .L28+4
 428 0024 1C4A     		ldr	r2, .L28+8
 429 0026 9950     		str	r1, [r3, r2]
 176:system_psoc62_cm0plus.c ****     SRSS->CLK_FLL_CONFIG4 = CY_FB_CLK_FLL_CONFIG4_VALUE;
 430              		.loc 1 176 0
 431 0028 A021     		movs	r1, #160
 432 002a 8901     		lsls	r1, r1, #6
 433 002c 0432     		adds	r2, r2, #4
 434 002e 9950     		str	r1, [r3, r2]
 177:system_psoc62_cm0plus.c **** 
 435              		.loc 1 177 0
 436 0030 FF21     		movs	r1, #255
 437 0032 1A4A     		ldr	r2, .L28+12
 438 0034 9950     		str	r1, [r3, r2]
 180:system_psoc62_cm0plus.c ****     SRSS->WDT_CTL = (SRSS->WDT_CTL | CY_WDT_LOCK_BIT1);
 439              		.loc 1 180 0
 440 0036 8131     		adds	r1, r1, #129
 441 0038 5A58     		ldr	r2, [r3, r1]
 442 003a 9200     		lsls	r2, r2, #2
 443 003c 9208     		lsrs	r2, r2, #2
 444 003e 8020     		movs	r0, #128
 445 0040 C005     		lsls	r0, r0, #23
ARM GAS  C:\Users\Phuong\AppData\Local\Temp\cct5AIDl.s 			page 16


 446 0042 0243     		orrs	r2, r0
 447 0044 5A50     		str	r2, [r3, r1]
 181:system_psoc62_cm0plus.c ****     SRSS->WDT_CTL &= (~ (uint32_t) SRSS_WDT_CTL_WDT_EN_Msk);
 448              		.loc 1 181 0
 449 0046 5A58     		ldr	r2, [r3, r1]
 450 0048 8020     		movs	r0, #128
 451 004a 0006     		lsls	r0, r0, #24
 452 004c 0243     		orrs	r2, r0
 453 004e 5A50     		str	r2, [r3, r1]
 182:system_psoc62_cm0plus.c **** 
 454              		.loc 1 182 0
 455 0050 5A58     		ldr	r2, [r3, r1]
 456 0052 0120     		movs	r0, #1
 457 0054 8243     		bics	r2, r0
 458 0056 5A50     		str	r2, [r3, r1]
 184:system_psoc62_cm0plus.c ****     SystemCoreClockUpdate();
 459              		.loc 1 184 0
 460 0058 FFF7FEFF 		bl	Cy_SystemInit
 461              	.LVL50:
 185:system_psoc62_cm0plus.c **** 
 462              		.loc 1 185 0
 463 005c FFF7FEFF 		bl	SystemCoreClockUpdate
 464              	.LVL51:
 190:system_psoc62_cm0plus.c ****         Cy_IPC_SystemPipeInit();
 465              		.loc 1 190 0
 466 0060 FFF7FEFF 		bl	Cy_IPC_SystemSemaInit
 467              	.LVL52:
 191:system_psoc62_cm0plus.c ****         Cy_Flash_Init();
 468              		.loc 1 191 0
 469 0064 FFF7FEFF 		bl	Cy_IPC_SystemPipeInit
 470              	.LVL53:
 192:system_psoc62_cm0plus.c ****     #endif /* CY_IPC_DEFAULT_CFG_DISABLE */
 471              		.loc 1 192 0
 472 0068 FFF7FEFF 		bl	Cy_Flash_Init
 473              	.LVL54:
 474              	.LBB10:
 475              	.LBB11:
 476              		.file 2 "Generated_Source\\PSoC6\\pdl\\drivers/peripheral/syslib/cy_syslib.h"
   1:Generated_Source\PSoC6\pdl\drivers/peripheral/syslib/cy_syslib.h **** /***************************************************************************//**
   2:Generated_Source\PSoC6\pdl\drivers/peripheral/syslib/cy_syslib.h **** * \file cy_syslib.h
   3:Generated_Source\PSoC6\pdl\drivers/peripheral/syslib/cy_syslib.h **** * \version 2.0.1
   4:Generated_Source\PSoC6\pdl\drivers/peripheral/syslib/cy_syslib.h **** *
   5:Generated_Source\PSoC6\pdl\drivers/peripheral/syslib/cy_syslib.h **** * Provides an API declaration of the SysLib driver.
   6:Generated_Source\PSoC6\pdl\drivers/peripheral/syslib/cy_syslib.h **** *
   7:Generated_Source\PSoC6\pdl\drivers/peripheral/syslib/cy_syslib.h **** ********************************************************************************
   8:Generated_Source\PSoC6\pdl\drivers/peripheral/syslib/cy_syslib.h **** * \copyright
   9:Generated_Source\PSoC6\pdl\drivers/peripheral/syslib/cy_syslib.h **** * Copyright 2016-2018, Cypress Semiconductor Corporation. All rights reserved.
  10:Generated_Source\PSoC6\pdl\drivers/peripheral/syslib/cy_syslib.h **** * You may use this file only in accordance with the license, terms, conditions,
  11:Generated_Source\PSoC6\pdl\drivers/peripheral/syslib/cy_syslib.h **** * disclaimers, and limitations in the end user license agreement accompanying
  12:Generated_Source\PSoC6\pdl\drivers/peripheral/syslib/cy_syslib.h **** * the software package with which this file was provided.
  13:Generated_Source\PSoC6\pdl\drivers/peripheral/syslib/cy_syslib.h **** *******************************************************************************/
  14:Generated_Source\PSoC6\pdl\drivers/peripheral/syslib/cy_syslib.h **** 
  15:Generated_Source\PSoC6\pdl\drivers/peripheral/syslib/cy_syslib.h **** /**
  16:Generated_Source\PSoC6\pdl\drivers/peripheral/syslib/cy_syslib.h **** * \defgroup group_syslib System Library (SysLib)
  17:Generated_Source\PSoC6\pdl\drivers/peripheral/syslib/cy_syslib.h **** * \{
  18:Generated_Source\PSoC6\pdl\drivers/peripheral/syslib/cy_syslib.h **** * The system libraries provide APIs that can be called in the user application
  19:Generated_Source\PSoC6\pdl\drivers/peripheral/syslib/cy_syslib.h **** * to handle the timing, logical checking or register.
ARM GAS  C:\Users\Phuong\AppData\Local\Temp\cct5AIDl.s 			page 17


  20:Generated_Source\PSoC6\pdl\drivers/peripheral/syslib/cy_syslib.h **** *
  21:Generated_Source\PSoC6\pdl\drivers/peripheral/syslib/cy_syslib.h **** * The SysLib driver contains a set of different system functions. These functions
  22:Generated_Source\PSoC6\pdl\drivers/peripheral/syslib/cy_syslib.h **** * can be called in the application routine. Major features of the system library:
  23:Generated_Source\PSoC6\pdl\drivers/peripheral/syslib/cy_syslib.h **** * * Delay functions
  24:Generated_Source\PSoC6\pdl\drivers/peripheral/syslib/cy_syslib.h **** * * The register Read/Write macro
  25:Generated_Source\PSoC6\pdl\drivers/peripheral/syslib/cy_syslib.h **** * * Assert and Halt
  26:Generated_Source\PSoC6\pdl\drivers/peripheral/syslib/cy_syslib.h **** * * Assert Classes and Levels
  27:Generated_Source\PSoC6\pdl\drivers/peripheral/syslib/cy_syslib.h **** * * A software reset
  28:Generated_Source\PSoC6\pdl\drivers/peripheral/syslib/cy_syslib.h **** * * Reading the reset cause
  29:Generated_Source\PSoC6\pdl\drivers/peripheral/syslib/cy_syslib.h **** * * An API to invalidate the flash cache and buffer
  30:Generated_Source\PSoC6\pdl\drivers/peripheral/syslib/cy_syslib.h **** * * Data manipulation macro
  31:Generated_Source\PSoC6\pdl\drivers/peripheral/syslib/cy_syslib.h **** * * A variable type definition from MISRA-C which specifies signedness
  32:Generated_Source\PSoC6\pdl\drivers/peripheral/syslib/cy_syslib.h **** * * Cross compiler compatible attributes
  33:Generated_Source\PSoC6\pdl\drivers/peripheral/syslib/cy_syslib.h **** * * Getting a silicon-unique ID API
  34:Generated_Source\PSoC6\pdl\drivers/peripheral/syslib/cy_syslib.h **** * * Setting wait states API
  35:Generated_Source\PSoC6\pdl\drivers/peripheral/syslib/cy_syslib.h **** * * Resetting the backup domain API
  36:Generated_Source\PSoC6\pdl\drivers/peripheral/syslib/cy_syslib.h **** * * APIs to serve Fault handler
  37:Generated_Source\PSoC6\pdl\drivers/peripheral/syslib/cy_syslib.h **** *
  38:Generated_Source\PSoC6\pdl\drivers/peripheral/syslib/cy_syslib.h **** * \section group_syslib_configuration Configuration Considerations
  39:Generated_Source\PSoC6\pdl\drivers/peripheral/syslib/cy_syslib.h **** * <b> Assertion Usage </b> <br />
  40:Generated_Source\PSoC6\pdl\drivers/peripheral/syslib/cy_syslib.h **** * Use the CY_ASSERT() macro to check expressions that must be true as long as the
  41:Generated_Source\PSoC6\pdl\drivers/peripheral/syslib/cy_syslib.h **** * program is running correctly. It is a convenient way to insert sanity checks.
  42:Generated_Source\PSoC6\pdl\drivers/peripheral/syslib/cy_syslib.h **** * The CY_ASSERT() macro is defined in the cy_syslib.h file which is part of
  43:Generated_Source\PSoC6\pdl\drivers/peripheral/syslib/cy_syslib.h **** * the PDL library. The behavior of the macro is as follows: if the expression
  44:Generated_Source\PSoC6\pdl\drivers/peripheral/syslib/cy_syslib.h **** * passed to the macro is false, output an error message that includes the file
  45:Generated_Source\PSoC6\pdl\drivers/peripheral/syslib/cy_syslib.h **** * name and line number, and then halts the CPU. \n
  46:Generated_Source\PSoC6\pdl\drivers/peripheral/syslib/cy_syslib.h **** * In case of fault, the CY_ASSERT() macro calls the Cy_SysLib_AssertFailed() function.
  47:Generated_Source\PSoC6\pdl\drivers/peripheral/syslib/cy_syslib.h **** * This is a weakly linked function. The default implementation stores the file
  48:Generated_Source\PSoC6\pdl\drivers/peripheral/syslib/cy_syslib.h **** * name and line number of the ASSERT into global variables, cy_assertFileName
  49:Generated_Source\PSoC6\pdl\drivers/peripheral/syslib/cy_syslib.h **** * and cy_assertLine . It then calls the Cy_SysLib_Halt() function.
  50:Generated_Source\PSoC6\pdl\drivers/peripheral/syslib/cy_syslib.h **** * \note Firmware can redefine the Cy_SysLib_AssertFailed() function for custom processing.
  51:Generated_Source\PSoC6\pdl\drivers/peripheral/syslib/cy_syslib.h **** * 
  52:Generated_Source\PSoC6\pdl\drivers/peripheral/syslib/cy_syslib.h **** * The PDL source code uses this assert mechanism extensively. It is recommended
  53:Generated_Source\PSoC6\pdl\drivers/peripheral/syslib/cy_syslib.h **** * that you enable asserts when debugging firmware. \n
  54:Generated_Source\PSoC6\pdl\drivers/peripheral/syslib/cy_syslib.h **** * <b> Assertion Classes and Levels </b> <br />
  55:Generated_Source\PSoC6\pdl\drivers/peripheral/syslib/cy_syslib.h **** * The PDL defines three assert classes, which correspond to different kinds
  56:Generated_Source\PSoC6\pdl\drivers/peripheral/syslib/cy_syslib.h **** * of parameters. There is a corresponding assert "level" for each class.
  57:Generated_Source\PSoC6\pdl\drivers/peripheral/syslib/cy_syslib.h **** * <table class="doxtable">
  58:Generated_Source\PSoC6\pdl\drivers/peripheral/syslib/cy_syslib.h **** *   <tr><th>Class Macro</th><th>Level Macro</th><th>Type of check</th></tr>
  59:Generated_Source\PSoC6\pdl\drivers/peripheral/syslib/cy_syslib.h **** *   <tr>
  60:Generated_Source\PSoC6\pdl\drivers/peripheral/syslib/cy_syslib.h **** *     <td>CY_ASSERT_CLASS_1</td>
  61:Generated_Source\PSoC6\pdl\drivers/peripheral/syslib/cy_syslib.h **** *     <td>CY_ASSERT_L1</td>
  62:Generated_Source\PSoC6\pdl\drivers/peripheral/syslib/cy_syslib.h **** *     <td>A parameter that could change between different PSoC devices
  63:Generated_Source\PSoC6\pdl\drivers/peripheral/syslib/cy_syslib.h **** *         (e.g. the number of clock paths)</td>
  64:Generated_Source\PSoC6\pdl\drivers/peripheral/syslib/cy_syslib.h **** *   </tr>
  65:Generated_Source\PSoC6\pdl\drivers/peripheral/syslib/cy_syslib.h **** *   <tr>
  66:Generated_Source\PSoC6\pdl\drivers/peripheral/syslib/cy_syslib.h **** *     <td>CY_ASSERT_CLASS_2</td>
  67:Generated_Source\PSoC6\pdl\drivers/peripheral/syslib/cy_syslib.h **** *     <td>CY_ASSERT_L2</td>
  68:Generated_Source\PSoC6\pdl\drivers/peripheral/syslib/cy_syslib.h **** *     <td>A parameter that has fixed limits such as a counter period</td>
  69:Generated_Source\PSoC6\pdl\drivers/peripheral/syslib/cy_syslib.h **** *   </tr>
  70:Generated_Source\PSoC6\pdl\drivers/peripheral/syslib/cy_syslib.h **** *   <tr>
  71:Generated_Source\PSoC6\pdl\drivers/peripheral/syslib/cy_syslib.h **** *     <td>CY_ASSERT_CLASS_3</td>
  72:Generated_Source\PSoC6\pdl\drivers/peripheral/syslib/cy_syslib.h **** *     <td>CY_ASSERT_L3</td>
  73:Generated_Source\PSoC6\pdl\drivers/peripheral/syslib/cy_syslib.h **** *     <td>A parameter that is an enum constant</td>
  74:Generated_Source\PSoC6\pdl\drivers/peripheral/syslib/cy_syslib.h **** *   </tr>
  75:Generated_Source\PSoC6\pdl\drivers/peripheral/syslib/cy_syslib.h **** * </table>
  76:Generated_Source\PSoC6\pdl\drivers/peripheral/syslib/cy_syslib.h **** * Firmware defines which ASSERT class is enabled by defining CY_ASSERT_LEVEL.
ARM GAS  C:\Users\Phuong\AppData\Local\Temp\cct5AIDl.s 			page 18


  77:Generated_Source\PSoC6\pdl\drivers/peripheral/syslib/cy_syslib.h **** * This is a compiler command line argument, similar to how the DEBUG / NDEBUG
  78:Generated_Source\PSoC6\pdl\drivers/peripheral/syslib/cy_syslib.h **** * macro is passed. \n 
  79:Generated_Source\PSoC6\pdl\drivers/peripheral/syslib/cy_syslib.h **** * Enabling any class also enables any lower-numbered class.
  80:Generated_Source\PSoC6\pdl\drivers/peripheral/syslib/cy_syslib.h **** * CY_ASSERT_CLASS_3 is the default level, and it enables asserts for all three
  81:Generated_Source\PSoC6\pdl\drivers/peripheral/syslib/cy_syslib.h **** * classes. The following example shows the command-line option to enable all
  82:Generated_Source\PSoC6\pdl\drivers/peripheral/syslib/cy_syslib.h **** * the assert levels:
  83:Generated_Source\PSoC6\pdl\drivers/peripheral/syslib/cy_syslib.h **** * \code -D CY_ASSERT_LEVEL=CY_ASSERT_CLASS_3 \endcode
  84:Generated_Source\PSoC6\pdl\drivers/peripheral/syslib/cy_syslib.h **** * \note The use of special characters, such as spaces, parenthesis, etc. must
  85:Generated_Source\PSoC6\pdl\drivers/peripheral/syslib/cy_syslib.h **** * be protected with quotes. 
  86:Generated_Source\PSoC6\pdl\drivers/peripheral/syslib/cy_syslib.h **** * 
  87:Generated_Source\PSoC6\pdl\drivers/peripheral/syslib/cy_syslib.h **** * After CY_ASSERT_LEVEL is defined, firmware can use
  88:Generated_Source\PSoC6\pdl\drivers/peripheral/syslib/cy_syslib.h **** * one of the three level macros to make an assertion. For example, if the
  89:Generated_Source\PSoC6\pdl\drivers/peripheral/syslib/cy_syslib.h **** * parameter can vary between devices, firmware uses the L1 macro.
  90:Generated_Source\PSoC6\pdl\drivers/peripheral/syslib/cy_syslib.h **** * \code CY_ASSERT_L1(clkPath < SRSS_NUM_CLKPATH); \endcode
  91:Generated_Source\PSoC6\pdl\drivers/peripheral/syslib/cy_syslib.h **** * If the parameter has bounds, firmware uses L2.
  92:Generated_Source\PSoC6\pdl\drivers/peripheral/syslib/cy_syslib.h **** * \code CY_ASSERT_L2(trim <= CY_CTB_TRIM_VALUE_MAX); \endcode
  93:Generated_Source\PSoC6\pdl\drivers/peripheral/syslib/cy_syslib.h **** * If the parameter is an enum, firmware uses L3.
  94:Generated_Source\PSoC6\pdl\drivers/peripheral/syslib/cy_syslib.h **** * \code CY_ASSERT_L3(config->LossAction <= CY_SYSCLK_CSV_ERROR_FAULT_RESET); \endcode
  95:Generated_Source\PSoC6\pdl\drivers/peripheral/syslib/cy_syslib.h **** * Each check uses the appropriate level macro for the kind of parameter being checked.
  96:Generated_Source\PSoC6\pdl\drivers/peripheral/syslib/cy_syslib.h **** * If a particular assert class/level is not enabled, then the assert does nothing.
  97:Generated_Source\PSoC6\pdl\drivers/peripheral/syslib/cy_syslib.h **** *
  98:Generated_Source\PSoC6\pdl\drivers/peripheral/syslib/cy_syslib.h **** * \section group_syslib_more_information More Information
  99:Generated_Source\PSoC6\pdl\drivers/peripheral/syslib/cy_syslib.h **** * Refer to the technical reference manual (TRM).
 100:Generated_Source\PSoC6\pdl\drivers/peripheral/syslib/cy_syslib.h **** *
 101:Generated_Source\PSoC6\pdl\drivers/peripheral/syslib/cy_syslib.h **** * \section group_syslib_MISRA MISRA-C Compliance
 102:Generated_Source\PSoC6\pdl\drivers/peripheral/syslib/cy_syslib.h **** * <table class="doxtable">
 103:Generated_Source\PSoC6\pdl\drivers/peripheral/syslib/cy_syslib.h **** *   <tr>
 104:Generated_Source\PSoC6\pdl\drivers/peripheral/syslib/cy_syslib.h **** *     <th>MISRA Rule</th>
 105:Generated_Source\PSoC6\pdl\drivers/peripheral/syslib/cy_syslib.h **** *     <th>Rule Class (Required/Advisory)</th>
 106:Generated_Source\PSoC6\pdl\drivers/peripheral/syslib/cy_syslib.h **** *     <th>Rule Description</th>
 107:Generated_Source\PSoC6\pdl\drivers/peripheral/syslib/cy_syslib.h **** *     <th>Description of Deviation(s)</th>
 108:Generated_Source\PSoC6\pdl\drivers/peripheral/syslib/cy_syslib.h **** *   </tr>
 109:Generated_Source\PSoC6\pdl\drivers/peripheral/syslib/cy_syslib.h **** *   <tr>
 110:Generated_Source\PSoC6\pdl\drivers/peripheral/syslib/cy_syslib.h **** *     <td>18.4</td>
 111:Generated_Source\PSoC6\pdl\drivers/peripheral/syslib/cy_syslib.h **** *     <td>R</td>
 112:Generated_Source\PSoC6\pdl\drivers/peripheral/syslib/cy_syslib.h **** *     <td>Unions shall not be used.</td>
 113:Generated_Source\PSoC6\pdl\drivers/peripheral/syslib/cy_syslib.h **** *     <td>The unions are used for CFSR, HFSR and SHCSR Fault Status Registers
 114:Generated_Source\PSoC6\pdl\drivers/peripheral/syslib/cy_syslib.h **** *         content access as a word in code and as a structure during debug.</td>
 115:Generated_Source\PSoC6\pdl\drivers/peripheral/syslib/cy_syslib.h **** *   </tr>
 116:Generated_Source\PSoC6\pdl\drivers/peripheral/syslib/cy_syslib.h **** *   <tr>
 117:Generated_Source\PSoC6\pdl\drivers/peripheral/syslib/cy_syslib.h **** *     <td>19.13</td>
 118:Generated_Source\PSoC6\pdl\drivers/peripheral/syslib/cy_syslib.h **** *     <td>A</td>
 119:Generated_Source\PSoC6\pdl\drivers/peripheral/syslib/cy_syslib.h **** *     <td>The # and ## operators should not be used.</td>
 120:Generated_Source\PSoC6\pdl\drivers/peripheral/syslib/cy_syslib.h **** *     <td>The ## preprocessor operator is used in macros to form the field mask.</td>
 121:Generated_Source\PSoC6\pdl\drivers/peripheral/syslib/cy_syslib.h **** *   </tr>
 122:Generated_Source\PSoC6\pdl\drivers/peripheral/syslib/cy_syslib.h **** * </table>
 123:Generated_Source\PSoC6\pdl\drivers/peripheral/syslib/cy_syslib.h **** *
 124:Generated_Source\PSoC6\pdl\drivers/peripheral/syslib/cy_syslib.h **** * \section group_syslib_changelog Changelog
 125:Generated_Source\PSoC6\pdl\drivers/peripheral/syslib/cy_syslib.h **** * <table class="doxtable">
 126:Generated_Source\PSoC6\pdl\drivers/peripheral/syslib/cy_syslib.h **** *   <tr><th>Version</th><th>Changes</th><th>Reason for Change</th></tr>
 127:Generated_Source\PSoC6\pdl\drivers/peripheral/syslib/cy_syslib.h **** *   <tr>
 128:Generated_Source\PSoC6\pdl\drivers/peripheral/syslib/cy_syslib.h **** *     <td>2.0.1</td>
 129:Generated_Source\PSoC6\pdl\drivers/peripheral/syslib/cy_syslib.h **** *     <td>Minor documentation edits</td>
 130:Generated_Source\PSoC6\pdl\drivers/peripheral/syslib/cy_syslib.h **** *     <td>Documentation update and clarification</td>
 131:Generated_Source\PSoC6\pdl\drivers/peripheral/syslib/cy_syslib.h **** *   </tr>
 132:Generated_Source\PSoC6\pdl\drivers/peripheral/syslib/cy_syslib.h **** *   <tr>
 133:Generated_Source\PSoC6\pdl\drivers/peripheral/syslib/cy_syslib.h **** *     <td rowspan="4"> 2.0</td>
ARM GAS  C:\Users\Phuong\AppData\Local\Temp\cct5AIDl.s 			page 19


 134:Generated_Source\PSoC6\pdl\drivers/peripheral/syslib/cy_syslib.h **** *     <td>
 135:Generated_Source\PSoC6\pdl\drivers/peripheral/syslib/cy_syslib.h **** * Added Cy_SysLib_ResetBackupDomain() API implementation. \n
 136:Generated_Source\PSoC6\pdl\drivers/peripheral/syslib/cy_syslib.h **** * Added CY_NOINLINE attribute implementation. \n
 137:Generated_Source\PSoC6\pdl\drivers/peripheral/syslib/cy_syslib.h **** * Added DIE_YEAR field to 64-bit unique ID return value of Cy_SysLib_GetUniqueId() API. \n
 138:Generated_Source\PSoC6\pdl\drivers/peripheral/syslib/cy_syslib.h **** * Added storing of SCB->HFSR, SCB->SHCSR registers and SCB->MMFAR, SCB->BFAR addresses to Fault Han
 139:Generated_Source\PSoC6\pdl\drivers/peripheral/syslib/cy_syslib.h **** * Optimized Cy_SysLib_SetWaitStates() API implementation.
 140:Generated_Source\PSoC6\pdl\drivers/peripheral/syslib/cy_syslib.h **** *     </td>
 141:Generated_Source\PSoC6\pdl\drivers/peripheral/syslib/cy_syslib.h **** *     <td>Improvements made based on usability feedback.</td>
 142:Generated_Source\PSoC6\pdl\drivers/peripheral/syslib/cy_syslib.h **** *   </tr>
 143:Generated_Source\PSoC6\pdl\drivers/peripheral/syslib/cy_syslib.h **** *   <tr>
 144:Generated_Source\PSoC6\pdl\drivers/peripheral/syslib/cy_syslib.h **** *     <td>Added Assertion Classes and Levels.</td>
 145:Generated_Source\PSoC6\pdl\drivers/peripheral/syslib/cy_syslib.h **** *     <td>For error checking, parameter validation and status returns in the PDL API.</td>
 146:Generated_Source\PSoC6\pdl\drivers/peripheral/syslib/cy_syslib.h **** *   </tr>
 147:Generated_Source\PSoC6\pdl\drivers/peripheral/syslib/cy_syslib.h **** *   <tr>
 148:Generated_Source\PSoC6\pdl\drivers/peripheral/syslib/cy_syslib.h **** *     <td>Applied CY_NOINIT attribute to cy_assertFileName, cy_assertLine, and cy_faultFrame global
 149:Generated_Source\PSoC6\pdl\drivers/peripheral/syslib/cy_syslib.h **** *     <td>To store debug information into a non-zero init area for future analysis.</td>
 150:Generated_Source\PSoC6\pdl\drivers/peripheral/syslib/cy_syslib.h **** *   </tr>
 151:Generated_Source\PSoC6\pdl\drivers/peripheral/syslib/cy_syslib.h **** *   <tr>
 152:Generated_Source\PSoC6\pdl\drivers/peripheral/syslib/cy_syslib.h **** *     <td>Removed CY_WEAK attribute implementation.</td>
 153:Generated_Source\PSoC6\pdl\drivers/peripheral/syslib/cy_syslib.h **** *     <td>CMSIS __WEAK attribute should be used instead.</td>
 154:Generated_Source\PSoC6\pdl\drivers/peripheral/syslib/cy_syslib.h **** *   </tr>
 155:Generated_Source\PSoC6\pdl\drivers/peripheral/syslib/cy_syslib.h **** *   <tr>
 156:Generated_Source\PSoC6\pdl\drivers/peripheral/syslib/cy_syslib.h **** *     <td>1.0</td>
 157:Generated_Source\PSoC6\pdl\drivers/peripheral/syslib/cy_syslib.h **** *     <td>Initial version</td>
 158:Generated_Source\PSoC6\pdl\drivers/peripheral/syslib/cy_syslib.h **** *     <td></td>
 159:Generated_Source\PSoC6\pdl\drivers/peripheral/syslib/cy_syslib.h **** *   </tr>
 160:Generated_Source\PSoC6\pdl\drivers/peripheral/syslib/cy_syslib.h **** * </table>
 161:Generated_Source\PSoC6\pdl\drivers/peripheral/syslib/cy_syslib.h **** *
 162:Generated_Source\PSoC6\pdl\drivers/peripheral/syslib/cy_syslib.h **** * \defgroup group_syslib_macros Macros
 163:Generated_Source\PSoC6\pdl\drivers/peripheral/syslib/cy_syslib.h **** * \defgroup group_syslib_functions Functions
 164:Generated_Source\PSoC6\pdl\drivers/peripheral/syslib/cy_syslib.h **** * \defgroup group_syslib_data_structures Data Structures
 165:Generated_Source\PSoC6\pdl\drivers/peripheral/syslib/cy_syslib.h **** * \defgroup group_syslib_enumerated_types Enumerated Types
 166:Generated_Source\PSoC6\pdl\drivers/peripheral/syslib/cy_syslib.h **** *
 167:Generated_Source\PSoC6\pdl\drivers/peripheral/syslib/cy_syslib.h **** */
 168:Generated_Source\PSoC6\pdl\drivers/peripheral/syslib/cy_syslib.h **** 
 169:Generated_Source\PSoC6\pdl\drivers/peripheral/syslib/cy_syslib.h **** #if !defined(_CY_SYSLIB_H_)
 170:Generated_Source\PSoC6\pdl\drivers/peripheral/syslib/cy_syslib.h **** #define _CY_SYSLIB_H_
 171:Generated_Source\PSoC6\pdl\drivers/peripheral/syslib/cy_syslib.h **** 
 172:Generated_Source\PSoC6\pdl\drivers/peripheral/syslib/cy_syslib.h **** #include <stdint.h>
 173:Generated_Source\PSoC6\pdl\drivers/peripheral/syslib/cy_syslib.h **** #include <stdbool.h>
 174:Generated_Source\PSoC6\pdl\drivers/peripheral/syslib/cy_syslib.h **** #include "cy_device_headers.h"
 175:Generated_Source\PSoC6\pdl\drivers/peripheral/syslib/cy_syslib.h **** 
 176:Generated_Source\PSoC6\pdl\drivers/peripheral/syslib/cy_syslib.h **** #if defined(__cplusplus)
 177:Generated_Source\PSoC6\pdl\drivers/peripheral/syslib/cy_syslib.h **** extern "C" {
 178:Generated_Source\PSoC6\pdl\drivers/peripheral/syslib/cy_syslib.h **** #endif /* defined(__cplusplus) */
 179:Generated_Source\PSoC6\pdl\drivers/peripheral/syslib/cy_syslib.h **** 
 180:Generated_Source\PSoC6\pdl\drivers/peripheral/syslib/cy_syslib.h **** #if defined( __ICCARM__ )
 181:Generated_Source\PSoC6\pdl\drivers/peripheral/syslib/cy_syslib.h ****     /* Suppress the warning for multiple volatile variables in an expression. */
 182:Generated_Source\PSoC6\pdl\drivers/peripheral/syslib/cy_syslib.h ****     /* This is common for driver's code and the usage is not order-dependent. */
 183:Generated_Source\PSoC6\pdl\drivers/peripheral/syslib/cy_syslib.h ****     #pragma diag_suppress=Pa082
 184:Generated_Source\PSoC6\pdl\drivers/peripheral/syslib/cy_syslib.h **** #endif  /* defined( __ICCARM__ ) */
 185:Generated_Source\PSoC6\pdl\drivers/peripheral/syslib/cy_syslib.h **** 
 186:Generated_Source\PSoC6\pdl\drivers/peripheral/syslib/cy_syslib.h **** /**
 187:Generated_Source\PSoC6\pdl\drivers/peripheral/syslib/cy_syslib.h **** * \addtogroup group_syslib_macros
 188:Generated_Source\PSoC6\pdl\drivers/peripheral/syslib/cy_syslib.h **** * \{
 189:Generated_Source\PSoC6\pdl\drivers/peripheral/syslib/cy_syslib.h **** */
 190:Generated_Source\PSoC6\pdl\drivers/peripheral/syslib/cy_syslib.h **** 
ARM GAS  C:\Users\Phuong\AppData\Local\Temp\cct5AIDl.s 			page 20


 191:Generated_Source\PSoC6\pdl\drivers/peripheral/syslib/cy_syslib.h **** /******************************************************************************
 192:Generated_Source\PSoC6\pdl\drivers/peripheral/syslib/cy_syslib.h **** * Macros
 193:Generated_Source\PSoC6\pdl\drivers/peripheral/syslib/cy_syslib.h **** *****************************************************************************/
 194:Generated_Source\PSoC6\pdl\drivers/peripheral/syslib/cy_syslib.h **** 
 195:Generated_Source\PSoC6\pdl\drivers/peripheral/syslib/cy_syslib.h **** #define CY_CPU_CORTEX_M0P   (__CORTEX_M == 0)    /**< CM0+ core CPU Code */
 196:Generated_Source\PSoC6\pdl\drivers/peripheral/syslib/cy_syslib.h **** #define CY_CPU_CORTEX_M4    (__CORTEX_M == 4)    /**< CM4  core CPU Code */
 197:Generated_Source\PSoC6\pdl\drivers/peripheral/syslib/cy_syslib.h **** 
 198:Generated_Source\PSoC6\pdl\drivers/peripheral/syslib/cy_syslib.h **** /** The macro to disable the Fault Handler */
 199:Generated_Source\PSoC6\pdl\drivers/peripheral/syslib/cy_syslib.h **** #define CY_ARM_FAULT_DEBUG_DISABLED    (0U)
 200:Generated_Source\PSoC6\pdl\drivers/peripheral/syslib/cy_syslib.h **** /** The macro to enable the Fault Handler */
 201:Generated_Source\PSoC6\pdl\drivers/peripheral/syslib/cy_syslib.h **** #define CY_ARM_FAULT_DEBUG_ENABLED     (1U)
 202:Generated_Source\PSoC6\pdl\drivers/peripheral/syslib/cy_syslib.h **** 
 203:Generated_Source\PSoC6\pdl\drivers/peripheral/syslib/cy_syslib.h **** #if !defined(CY_ARM_FAULT_DEBUG)
 204:Generated_Source\PSoC6\pdl\drivers/peripheral/syslib/cy_syslib.h ****     /** The macro defines if the Fault Handler is enabled. Enabled by default. */
 205:Generated_Source\PSoC6\pdl\drivers/peripheral/syslib/cy_syslib.h ****     #define CY_ARM_FAULT_DEBUG         (CY_ARM_FAULT_DEBUG_ENABLED)
 206:Generated_Source\PSoC6\pdl\drivers/peripheral/syslib/cy_syslib.h **** #endif /* CY_ARM_FAULT_DEBUG */
 207:Generated_Source\PSoC6\pdl\drivers/peripheral/syslib/cy_syslib.h **** 
 208:Generated_Source\PSoC6\pdl\drivers/peripheral/syslib/cy_syslib.h **** /**
 209:Generated_Source\PSoC6\pdl\drivers/peripheral/syslib/cy_syslib.h **** * \defgroup group_syslib_macros_status_codes Status codes
 210:Generated_Source\PSoC6\pdl\drivers/peripheral/syslib/cy_syslib.h **** * \{
 211:Generated_Source\PSoC6\pdl\drivers/peripheral/syslib/cy_syslib.h **** * Function status type codes
 212:Generated_Source\PSoC6\pdl\drivers/peripheral/syslib/cy_syslib.h **** */
 213:Generated_Source\PSoC6\pdl\drivers/peripheral/syslib/cy_syslib.h **** #define CY_PDL_STATUS_CODE_Pos  (0U)        /**< The module status code position in the status code
 214:Generated_Source\PSoC6\pdl\drivers/peripheral/syslib/cy_syslib.h **** #define CY_PDL_STATUS_TYPE_Pos  (16U)       /**< The status type position in the status code */
 215:Generated_Source\PSoC6\pdl\drivers/peripheral/syslib/cy_syslib.h **** #define CY_PDL_MODULE_ID_Pos    (18U)       /**< The software module ID position in the status code
 216:Generated_Source\PSoC6\pdl\drivers/peripheral/syslib/cy_syslib.h **** #define CY_PDL_STATUS_INFO      (0UL << CY_PDL_STATUS_TYPE_Pos)    /**< The information status type
 217:Generated_Source\PSoC6\pdl\drivers/peripheral/syslib/cy_syslib.h **** #define CY_PDL_STATUS_WARNING   (1UL << CY_PDL_STATUS_TYPE_Pos)    /**< The warning status type */
 218:Generated_Source\PSoC6\pdl\drivers/peripheral/syslib/cy_syslib.h **** #define CY_PDL_STATUS_ERROR     (2UL << CY_PDL_STATUS_TYPE_Pos)    /**< The error status type */
 219:Generated_Source\PSoC6\pdl\drivers/peripheral/syslib/cy_syslib.h **** #define CY_PDL_MODULE_ID_Msk    (0x3FFFU)   /**< The software module ID mask */
 220:Generated_Source\PSoC6\pdl\drivers/peripheral/syslib/cy_syslib.h **** /** Get the software PDL module ID */
 221:Generated_Source\PSoC6\pdl\drivers/peripheral/syslib/cy_syslib.h **** #define CY_PDL_DRV_ID(id)       ((uint32_t)((uint32_t)((id) & CY_PDL_MODULE_ID_Msk) << CY_PDL_MODUL
 222:Generated_Source\PSoC6\pdl\drivers/peripheral/syslib/cy_syslib.h **** #define CY_SYSLIB_ID            CY_PDL_DRV_ID(0x11U)     /**< SYSLIB PDL ID */
 223:Generated_Source\PSoC6\pdl\drivers/peripheral/syslib/cy_syslib.h **** /** \} group_syslib_macros_status_codes */
 224:Generated_Source\PSoC6\pdl\drivers/peripheral/syslib/cy_syslib.h **** 
 225:Generated_Source\PSoC6\pdl\drivers/peripheral/syslib/cy_syslib.h **** /** \} group_syslib_macros */
 226:Generated_Source\PSoC6\pdl\drivers/peripheral/syslib/cy_syslib.h **** 
 227:Generated_Source\PSoC6\pdl\drivers/peripheral/syslib/cy_syslib.h **** /**
 228:Generated_Source\PSoC6\pdl\drivers/peripheral/syslib/cy_syslib.h **** * \addtogroup group_syslib_enumerated_types
 229:Generated_Source\PSoC6\pdl\drivers/peripheral/syslib/cy_syslib.h **** * \{
 230:Generated_Source\PSoC6\pdl\drivers/peripheral/syslib/cy_syslib.h **** */
 231:Generated_Source\PSoC6\pdl\drivers/peripheral/syslib/cy_syslib.h **** 
 232:Generated_Source\PSoC6\pdl\drivers/peripheral/syslib/cy_syslib.h **** /** The SysLib status code structure. */
 233:Generated_Source\PSoC6\pdl\drivers/peripheral/syslib/cy_syslib.h **** typedef enum
 234:Generated_Source\PSoC6\pdl\drivers/peripheral/syslib/cy_syslib.h **** {
 235:Generated_Source\PSoC6\pdl\drivers/peripheral/syslib/cy_syslib.h ****     CY_SYSLIB_SUCCESS       = 0x00UL,    /**< The success status code */
 236:Generated_Source\PSoC6\pdl\drivers/peripheral/syslib/cy_syslib.h ****     CY_SYSLIB_BAD_PARAM     = CY_SYSLIB_ID | CY_PDL_STATUS_ERROR | 0x01UL,    /**< The bad paramete
 237:Generated_Source\PSoC6\pdl\drivers/peripheral/syslib/cy_syslib.h ****     CY_SYSLIB_TIMEOUT       = CY_SYSLIB_ID | CY_PDL_STATUS_ERROR | 0x02UL,    /**< The time out sta
 238:Generated_Source\PSoC6\pdl\drivers/peripheral/syslib/cy_syslib.h ****     CY_SYSLIB_INVALID_STATE = CY_SYSLIB_ID | CY_PDL_STATUS_ERROR | 0x03UL,    /**< The invalid stat
 239:Generated_Source\PSoC6\pdl\drivers/peripheral/syslib/cy_syslib.h ****     CY_SYSLIB_UNKNOWN       = CY_SYSLIB_ID | CY_PDL_STATUS_ERROR | 0xFFUL     /**< Unknown status c
 240:Generated_Source\PSoC6\pdl\drivers/peripheral/syslib/cy_syslib.h **** } cy_en_syslib_status_t;
 241:Generated_Source\PSoC6\pdl\drivers/peripheral/syslib/cy_syslib.h **** 
 242:Generated_Source\PSoC6\pdl\drivers/peripheral/syslib/cy_syslib.h **** /** \} group_syslib_enumerated_types */
 243:Generated_Source\PSoC6\pdl\drivers/peripheral/syslib/cy_syslib.h **** /**
 244:Generated_Source\PSoC6\pdl\drivers/peripheral/syslib/cy_syslib.h **** * \addtogroup group_syslib_data_structures
 245:Generated_Source\PSoC6\pdl\drivers/peripheral/syslib/cy_syslib.h **** * \{
 246:Generated_Source\PSoC6\pdl\drivers/peripheral/syslib/cy_syslib.h **** */
 247:Generated_Source\PSoC6\pdl\drivers/peripheral/syslib/cy_syslib.h **** 
ARM GAS  C:\Users\Phuong\AppData\Local\Temp\cct5AIDl.s 			page 21


 248:Generated_Source\PSoC6\pdl\drivers/peripheral/syslib/cy_syslib.h **** #if (CY_ARM_FAULT_DEBUG == CY_ARM_FAULT_DEBUG_ENABLED)
 249:Generated_Source\PSoC6\pdl\drivers/peripheral/syslib/cy_syslib.h ****     #if (CY_CPU_CORTEX_M4)
 250:Generated_Source\PSoC6\pdl\drivers/peripheral/syslib/cy_syslib.h ****         /** Configurable Fault Status Register - CFSR */
 251:Generated_Source\PSoC6\pdl\drivers/peripheral/syslib/cy_syslib.h ****         typedef struct
 252:Generated_Source\PSoC6\pdl\drivers/peripheral/syslib/cy_syslib.h ****         {
 253:Generated_Source\PSoC6\pdl\drivers/peripheral/syslib/cy_syslib.h ****             /** MemManage Fault Status Sub-register - MMFSR */
 254:Generated_Source\PSoC6\pdl\drivers/peripheral/syslib/cy_syslib.h ****             uint32_t iaccViol    : 1;  /**< MemManage Fault - The instruction access violation flag
 255:Generated_Source\PSoC6\pdl\drivers/peripheral/syslib/cy_syslib.h ****             uint32_t daccViol    : 1;  /**< MemManage Fault - The data access violation flag */
 256:Generated_Source\PSoC6\pdl\drivers/peripheral/syslib/cy_syslib.h ****             uint32_t reserved1   : 1;  /**< Reserved */
 257:Generated_Source\PSoC6\pdl\drivers/peripheral/syslib/cy_syslib.h ****             uint32_t mUnstkErr   : 1;  /**< MemManage Fault - Unstacking for a return from exceptio
 258:Generated_Source\PSoC6\pdl\drivers/peripheral/syslib/cy_syslib.h ****             uint32_t mStkErr     : 1;  /**< MemManage Fault - MemManage fault on stacking for excep
 259:Generated_Source\PSoC6\pdl\drivers/peripheral/syslib/cy_syslib.h ****             uint32_t mlspErr     : 1;  /**< MemManage Fault - MemManage fault occurred during float
 260:Generated_Source\PSoC6\pdl\drivers/peripheral/syslib/cy_syslib.h ****             uint32_t reserved2   : 1;  /**< Reserved */
 261:Generated_Source\PSoC6\pdl\drivers/peripheral/syslib/cy_syslib.h ****             uint32_t mmarValid   : 1;  /**< MemManage Fault - The MemManage Address register valid 
 262:Generated_Source\PSoC6\pdl\drivers/peripheral/syslib/cy_syslib.h ****             /** Bus Fault Status Sub-register - UFSR */
 263:Generated_Source\PSoC6\pdl\drivers/peripheral/syslib/cy_syslib.h ****             uint32_t iBusErr     : 1;  /**< Bus Fault - The instruction bus error */
 264:Generated_Source\PSoC6\pdl\drivers/peripheral/syslib/cy_syslib.h ****             uint32_t precisErr   : 1;  /**< Bus Fault - The precise Data bus error */
 265:Generated_Source\PSoC6\pdl\drivers/peripheral/syslib/cy_syslib.h ****             uint32_t imprecisErr : 1;  /**< Bus Fault - The imprecise data bus error */
 266:Generated_Source\PSoC6\pdl\drivers/peripheral/syslib/cy_syslib.h ****             uint32_t unstkErr    : 1;  /**< Bus Fault - Unstacking for an exception return has caus
 267:Generated_Source\PSoC6\pdl\drivers/peripheral/syslib/cy_syslib.h ****             uint32_t stkErr      : 1;  /**< Bus Fault - Stacking for an exception entry has caused 
 268:Generated_Source\PSoC6\pdl\drivers/peripheral/syslib/cy_syslib.h ****             uint32_t lspErr      : 1;  /**< Bus Fault - A bus fault occurred during the floating-po
 269:Generated_Source\PSoC6\pdl\drivers/peripheral/syslib/cy_syslib.h ****             uint32_t reserved3   : 1;  /**< Reserved */
 270:Generated_Source\PSoC6\pdl\drivers/peripheral/syslib/cy_syslib.h ****             uint32_t bfarValid   : 1;  /**< Bus Fault - The bus fault address register valid flag *
 271:Generated_Source\PSoC6\pdl\drivers/peripheral/syslib/cy_syslib.h ****             /** Usage Fault Status Sub-register - UFSR */
 272:Generated_Source\PSoC6\pdl\drivers/peripheral/syslib/cy_syslib.h ****             uint32_t undefInstr  : 1;  /**< Usage Fault - An undefined instruction */
 273:Generated_Source\PSoC6\pdl\drivers/peripheral/syslib/cy_syslib.h ****             uint32_t invState    : 1;  /**< Usage Fault - The invalid state */
 274:Generated_Source\PSoC6\pdl\drivers/peripheral/syslib/cy_syslib.h ****             uint32_t invPC       : 1;  /**< Usage Fault - An invalid PC */
 275:Generated_Source\PSoC6\pdl\drivers/peripheral/syslib/cy_syslib.h ****             uint32_t noCP        : 1;  /**< Usage Fault - No coprocessor */
 276:Generated_Source\PSoC6\pdl\drivers/peripheral/syslib/cy_syslib.h ****             uint32_t reserved4   : 4;  /**< Reserved */
 277:Generated_Source\PSoC6\pdl\drivers/peripheral/syslib/cy_syslib.h ****             uint32_t unaligned   : 1;  /**< Usage Fault - Unaligned access */
 278:Generated_Source\PSoC6\pdl\drivers/peripheral/syslib/cy_syslib.h ****             uint32_t divByZero   : 1;  /**< Usage Fault - Divide by zero */
 279:Generated_Source\PSoC6\pdl\drivers/peripheral/syslib/cy_syslib.h ****             uint32_t reserved5   : 6;  /**< Reserved */
 280:Generated_Source\PSoC6\pdl\drivers/peripheral/syslib/cy_syslib.h ****         } cy_stc_fault_cfsr_t;
 281:Generated_Source\PSoC6\pdl\drivers/peripheral/syslib/cy_syslib.h **** 
 282:Generated_Source\PSoC6\pdl\drivers/peripheral/syslib/cy_syslib.h ****         /** Hard Fault Status Register - HFSR */
 283:Generated_Source\PSoC6\pdl\drivers/peripheral/syslib/cy_syslib.h ****         typedef struct
 284:Generated_Source\PSoC6\pdl\drivers/peripheral/syslib/cy_syslib.h ****         {
 285:Generated_Source\PSoC6\pdl\drivers/peripheral/syslib/cy_syslib.h ****             uint32_t reserved1   :  1;   /**< Reserved. */
 286:Generated_Source\PSoC6\pdl\drivers/peripheral/syslib/cy_syslib.h ****             uint32_t vectTbl     :  1;   /**< HFSR - Indicates a bus fault on a vector table read d
 287:Generated_Source\PSoC6\pdl\drivers/peripheral/syslib/cy_syslib.h ****             uint32_t reserved2   : 28;   /**< Reserved. */
 288:Generated_Source\PSoC6\pdl\drivers/peripheral/syslib/cy_syslib.h ****             uint32_t forced      :  1;   /**< HFSR - Indicates a forced hard fault */
 289:Generated_Source\PSoC6\pdl\drivers/peripheral/syslib/cy_syslib.h ****             uint32_t debugEvt    :  1;   /**< HFSR - Reserved for the debug use.  */
 290:Generated_Source\PSoC6\pdl\drivers/peripheral/syslib/cy_syslib.h ****         } cy_stc_fault_hfsr_t;
 291:Generated_Source\PSoC6\pdl\drivers/peripheral/syslib/cy_syslib.h **** 
 292:Generated_Source\PSoC6\pdl\drivers/peripheral/syslib/cy_syslib.h ****         /** System Handler Control and State Register - SHCSR */
 293:Generated_Source\PSoC6\pdl\drivers/peripheral/syslib/cy_syslib.h ****         typedef struct
 294:Generated_Source\PSoC6\pdl\drivers/peripheral/syslib/cy_syslib.h ****         {
 295:Generated_Source\PSoC6\pdl\drivers/peripheral/syslib/cy_syslib.h ****             uint32_t memFaultAct    :  1;   /**< SHCSR - The MemManage exception active bit, reads 
 296:Generated_Source\PSoC6\pdl\drivers/peripheral/syslib/cy_syslib.h ****             uint32_t busFaultAct    :  1;   /**< SHCSR - The BusFault exception active bit, reads a
 297:Generated_Source\PSoC6\pdl\drivers/peripheral/syslib/cy_syslib.h ****             uint32_t reserved1      :  1;   /**< Reserved. */
 298:Generated_Source\PSoC6\pdl\drivers/peripheral/syslib/cy_syslib.h ****             uint32_t usgFaultAct    :  1;   /**< SHCSR - The UsageFault exception active bit, reads
 299:Generated_Source\PSoC6\pdl\drivers/peripheral/syslib/cy_syslib.h ****             uint32_t reserved2      :  3;   /**< Reserved. */
 300:Generated_Source\PSoC6\pdl\drivers/peripheral/syslib/cy_syslib.h ****             uint32_t svCallAct      :  1;   /**< SHCSR - The SVCall active bit, reads as 1 if the S
 301:Generated_Source\PSoC6\pdl\drivers/peripheral/syslib/cy_syslib.h ****             uint32_t monitorAct     :  1;   /**< SHCSR - The debug monitor active bit, reads as 1 i
 302:Generated_Source\PSoC6\pdl\drivers/peripheral/syslib/cy_syslib.h ****             uint32_t reserved3      :  1;   /**< Reserved. */
 303:Generated_Source\PSoC6\pdl\drivers/peripheral/syslib/cy_syslib.h ****             uint32_t pendSVAct      :  1;   /**< SHCSR - The PendSV exception active bit, reads as 
 304:Generated_Source\PSoC6\pdl\drivers/peripheral/syslib/cy_syslib.h ****             uint32_t sysTickAct     :  1;   /**< SHCSR - The SysTick exception active bit, reads as
ARM GAS  C:\Users\Phuong\AppData\Local\Temp\cct5AIDl.s 			page 22


 305:Generated_Source\PSoC6\pdl\drivers/peripheral/syslib/cy_syslib.h ****             uint32_t usgFaultPended :  1;   /**< SHCSR - The UsageFault exception pending bit, read
 306:Generated_Source\PSoC6\pdl\drivers/peripheral/syslib/cy_syslib.h ****             uint32_t memFaultPended :  1;   /**< SHCSR - The MemManage exception pending bit, reads
 307:Generated_Source\PSoC6\pdl\drivers/peripheral/syslib/cy_syslib.h ****             uint32_t busFaultPended :  1;   /**< SHCSR - The BusFault exception pending bit, reads 
 308:Generated_Source\PSoC6\pdl\drivers/peripheral/syslib/cy_syslib.h ****             uint32_t svCallPended   :  1;   /**< SHCSR - The SVCall pending bit, reads as 1 if the 
 309:Generated_Source\PSoC6\pdl\drivers/peripheral/syslib/cy_syslib.h ****             uint32_t memFaultEna    :  1;   /**< SHCSR - The MemManage enable bit, set to 1 to enab
 310:Generated_Source\PSoC6\pdl\drivers/peripheral/syslib/cy_syslib.h ****             uint32_t busFaultEna    :  1;   /**< SHCSR - The BusFault enable bit, set to 1 to enabl
 311:Generated_Source\PSoC6\pdl\drivers/peripheral/syslib/cy_syslib.h ****             uint32_t usgFaultEna    :  1;   /**< SHCSR - The UsageFault enable bit, set to 1 to ena
 312:Generated_Source\PSoC6\pdl\drivers/peripheral/syslib/cy_syslib.h ****             uint32_t reserved4      : 13;   /**< Reserved */
 313:Generated_Source\PSoC6\pdl\drivers/peripheral/syslib/cy_syslib.h ****         } cy_stc_fault_shcsr_t;
 314:Generated_Source\PSoC6\pdl\drivers/peripheral/syslib/cy_syslib.h ****     #endif /* CY_CPU_CORTEX_M4 */
 315:Generated_Source\PSoC6\pdl\drivers/peripheral/syslib/cy_syslib.h **** 
 316:Generated_Source\PSoC6\pdl\drivers/peripheral/syslib/cy_syslib.h ****     /** The fault configuration structure. */
 317:Generated_Source\PSoC6\pdl\drivers/peripheral/syslib/cy_syslib.h ****     typedef struct
 318:Generated_Source\PSoC6\pdl\drivers/peripheral/syslib/cy_syslib.h ****     {
 319:Generated_Source\PSoC6\pdl\drivers/peripheral/syslib/cy_syslib.h ****         uint32_t r0;       /**< R0 register content */
 320:Generated_Source\PSoC6\pdl\drivers/peripheral/syslib/cy_syslib.h ****         uint32_t r1;       /**< R1 register content */
 321:Generated_Source\PSoC6\pdl\drivers/peripheral/syslib/cy_syslib.h ****         uint32_t r2;       /**< R2 register content */
 322:Generated_Source\PSoC6\pdl\drivers/peripheral/syslib/cy_syslib.h ****         uint32_t r3;       /**< R3 register content */
 323:Generated_Source\PSoC6\pdl\drivers/peripheral/syslib/cy_syslib.h ****         uint32_t r12;      /**< R12 register content */
 324:Generated_Source\PSoC6\pdl\drivers/peripheral/syslib/cy_syslib.h ****         uint32_t lr;       /**< LR register content */
 325:Generated_Source\PSoC6\pdl\drivers/peripheral/syslib/cy_syslib.h ****         uint32_t pc;       /**< PC register content */
 326:Generated_Source\PSoC6\pdl\drivers/peripheral/syslib/cy_syslib.h ****         uint32_t psr;      /**< PSR register content */
 327:Generated_Source\PSoC6\pdl\drivers/peripheral/syslib/cy_syslib.h ****         #if (CY_CPU_CORTEX_M4)
 328:Generated_Source\PSoC6\pdl\drivers/peripheral/syslib/cy_syslib.h ****             union
 329:Generated_Source\PSoC6\pdl\drivers/peripheral/syslib/cy_syslib.h ****             {
 330:Generated_Source\PSoC6\pdl\drivers/peripheral/syslib/cy_syslib.h ****                 uint32_t cfsrReg;              /**< CFSR register content as a word */
 331:Generated_Source\PSoC6\pdl\drivers/peripheral/syslib/cy_syslib.h ****                 cy_stc_fault_cfsr_t cfsrBits;  /**< CFSR register content as a structure */
 332:Generated_Source\PSoC6\pdl\drivers/peripheral/syslib/cy_syslib.h ****             } cfsr;
 333:Generated_Source\PSoC6\pdl\drivers/peripheral/syslib/cy_syslib.h ****             union
 334:Generated_Source\PSoC6\pdl\drivers/peripheral/syslib/cy_syslib.h ****             {
 335:Generated_Source\PSoC6\pdl\drivers/peripheral/syslib/cy_syslib.h ****                 uint32_t hfsrReg;              /**< HFSR register content as a word */
 336:Generated_Source\PSoC6\pdl\drivers/peripheral/syslib/cy_syslib.h ****                 cy_stc_fault_hfsr_t hfsrBits;  /**< HFSR register content as a structure */
 337:Generated_Source\PSoC6\pdl\drivers/peripheral/syslib/cy_syslib.h ****             } hfsr;
 338:Generated_Source\PSoC6\pdl\drivers/peripheral/syslib/cy_syslib.h ****             union
 339:Generated_Source\PSoC6\pdl\drivers/peripheral/syslib/cy_syslib.h ****             {
 340:Generated_Source\PSoC6\pdl\drivers/peripheral/syslib/cy_syslib.h ****                 uint32_t shcsrReg;              /**< SHCSR register content as a word */
 341:Generated_Source\PSoC6\pdl\drivers/peripheral/syslib/cy_syslib.h ****                 cy_stc_fault_shcsr_t shcsrBits; /**< SHCSR register content as a structure */
 342:Generated_Source\PSoC6\pdl\drivers/peripheral/syslib/cy_syslib.h ****             } shcsr;
 343:Generated_Source\PSoC6\pdl\drivers/peripheral/syslib/cy_syslib.h ****             uint32_t mmfar;                /**< MMFAR register content */
 344:Generated_Source\PSoC6\pdl\drivers/peripheral/syslib/cy_syslib.h ****             uint32_t bfar;                 /**< BFAR register content */
 345:Generated_Source\PSoC6\pdl\drivers/peripheral/syslib/cy_syslib.h ****             #if ((defined (__FPU_PRESENT) && (__FPU_PRESENT == 1U)) && \
 346:Generated_Source\PSoC6\pdl\drivers/peripheral/syslib/cy_syslib.h ****                  (defined (__FPU_USED   ) && (__FPU_USED    == 1U)))
 347:Generated_Source\PSoC6\pdl\drivers/peripheral/syslib/cy_syslib.h ****                 uint32_t s0;       /**< FPU S0 register content */
 348:Generated_Source\PSoC6\pdl\drivers/peripheral/syslib/cy_syslib.h ****                 uint32_t s1;       /**< FPU S1 register content */
 349:Generated_Source\PSoC6\pdl\drivers/peripheral/syslib/cy_syslib.h ****                 uint32_t s2;       /**< FPU S2 register content */
 350:Generated_Source\PSoC6\pdl\drivers/peripheral/syslib/cy_syslib.h ****                 uint32_t s3;       /**< FPU S3 register content */
 351:Generated_Source\PSoC6\pdl\drivers/peripheral/syslib/cy_syslib.h ****                 uint32_t s4;       /**< FPU S4 register content */
 352:Generated_Source\PSoC6\pdl\drivers/peripheral/syslib/cy_syslib.h ****                 uint32_t s5;       /**< FPU S5 register content */
 353:Generated_Source\PSoC6\pdl\drivers/peripheral/syslib/cy_syslib.h ****                 uint32_t s6;       /**< FPU S6 register content */
 354:Generated_Source\PSoC6\pdl\drivers/peripheral/syslib/cy_syslib.h ****                 uint32_t s7;       /**< FPU S7 register content */
 355:Generated_Source\PSoC6\pdl\drivers/peripheral/syslib/cy_syslib.h ****                 uint32_t s8;       /**< FPU S8 register content */
 356:Generated_Source\PSoC6\pdl\drivers/peripheral/syslib/cy_syslib.h ****                 uint32_t s9;       /**< FPU S9 register content */
 357:Generated_Source\PSoC6\pdl\drivers/peripheral/syslib/cy_syslib.h ****                 uint32_t s10;      /**< FPU S10 register content */
 358:Generated_Source\PSoC6\pdl\drivers/peripheral/syslib/cy_syslib.h ****                 uint32_t s11;      /**< FPU S11 register content */
 359:Generated_Source\PSoC6\pdl\drivers/peripheral/syslib/cy_syslib.h ****                 uint32_t s12;      /**< FPU S12 register content */
 360:Generated_Source\PSoC6\pdl\drivers/peripheral/syslib/cy_syslib.h ****                 uint32_t s13;      /**< FPU S13 register content */
 361:Generated_Source\PSoC6\pdl\drivers/peripheral/syslib/cy_syslib.h ****                 uint32_t s14;      /**< FPU S14 register content */
ARM GAS  C:\Users\Phuong\AppData\Local\Temp\cct5AIDl.s 			page 23


 362:Generated_Source\PSoC6\pdl\drivers/peripheral/syslib/cy_syslib.h ****                 uint32_t s15;      /**< FPU S15 register content */
 363:Generated_Source\PSoC6\pdl\drivers/peripheral/syslib/cy_syslib.h ****                 uint32_t fpscr;    /**< FPU FPSCR register content */
 364:Generated_Source\PSoC6\pdl\drivers/peripheral/syslib/cy_syslib.h ****             #endif /* __FPU_PRESENT */
 365:Generated_Source\PSoC6\pdl\drivers/peripheral/syslib/cy_syslib.h ****         #endif /* CY_CPU_CORTEX_M4 */
 366:Generated_Source\PSoC6\pdl\drivers/peripheral/syslib/cy_syslib.h ****     } cy_stc_fault_frame_t;
 367:Generated_Source\PSoC6\pdl\drivers/peripheral/syslib/cy_syslib.h **** #endif /* (CY_ARM_FAULT_DEBUG == CY_ARM_FAULT_DEBUG_ENABLED) */
 368:Generated_Source\PSoC6\pdl\drivers/peripheral/syslib/cy_syslib.h **** 
 369:Generated_Source\PSoC6\pdl\drivers/peripheral/syslib/cy_syslib.h **** /** \} group_syslib_data_structures */
 370:Generated_Source\PSoC6\pdl\drivers/peripheral/syslib/cy_syslib.h **** 
 371:Generated_Source\PSoC6\pdl\drivers/peripheral/syslib/cy_syslib.h **** /**
 372:Generated_Source\PSoC6\pdl\drivers/peripheral/syslib/cy_syslib.h **** * \addtogroup group_syslib_macros
 373:Generated_Source\PSoC6\pdl\drivers/peripheral/syslib/cy_syslib.h **** * \{
 374:Generated_Source\PSoC6\pdl\drivers/peripheral/syslib/cy_syslib.h **** */
 375:Generated_Source\PSoC6\pdl\drivers/peripheral/syslib/cy_syslib.h **** 
 376:Generated_Source\PSoC6\pdl\drivers/peripheral/syslib/cy_syslib.h **** /** The driver major version */
 377:Generated_Source\PSoC6\pdl\drivers/peripheral/syslib/cy_syslib.h **** #define CY_SYSLIB_DRV_VERSION_MAJOR    2
 378:Generated_Source\PSoC6\pdl\drivers/peripheral/syslib/cy_syslib.h **** 
 379:Generated_Source\PSoC6\pdl\drivers/peripheral/syslib/cy_syslib.h **** /** The driver minor version */
 380:Generated_Source\PSoC6\pdl\drivers/peripheral/syslib/cy_syslib.h **** #define CY_SYSLIB_DRV_VERSION_MINOR    0
 381:Generated_Source\PSoC6\pdl\drivers/peripheral/syslib/cy_syslib.h **** 
 382:Generated_Source\PSoC6\pdl\drivers/peripheral/syslib/cy_syslib.h **** 
 383:Generated_Source\PSoC6\pdl\drivers/peripheral/syslib/cy_syslib.h **** /*******************************************************************************
 384:Generated_Source\PSoC6\pdl\drivers/peripheral/syslib/cy_syslib.h **** *  Data manipulation defines
 385:Generated_Source\PSoC6\pdl\drivers/peripheral/syslib/cy_syslib.h **** *******************************************************************************/
 386:Generated_Source\PSoC6\pdl\drivers/peripheral/syslib/cy_syslib.h **** 
 387:Generated_Source\PSoC6\pdl\drivers/peripheral/syslib/cy_syslib.h **** /** Get the lower 8 bits of a 16-bit value. */
 388:Generated_Source\PSoC6\pdl\drivers/peripheral/syslib/cy_syslib.h **** #define CY_LO8(x)               ((uint8_t) ((x) & 0xFFU))
 389:Generated_Source\PSoC6\pdl\drivers/peripheral/syslib/cy_syslib.h **** /** Get the upper 8 bits of a 16-bit value. */
 390:Generated_Source\PSoC6\pdl\drivers/peripheral/syslib/cy_syslib.h **** #define CY_HI8(x)               ((uint8_t) ((uint16_t)(x) >> 8U))
 391:Generated_Source\PSoC6\pdl\drivers/peripheral/syslib/cy_syslib.h **** 
 392:Generated_Source\PSoC6\pdl\drivers/peripheral/syslib/cy_syslib.h **** /** Get the lower 16 bits of a 32-bit value. */
 393:Generated_Source\PSoC6\pdl\drivers/peripheral/syslib/cy_syslib.h **** #define CY_LO16(x)              ((uint16_t) ((x) & 0xFFFFU))
 394:Generated_Source\PSoC6\pdl\drivers/peripheral/syslib/cy_syslib.h **** /** Get the upper 16 bits of a 32-bit value. */
 395:Generated_Source\PSoC6\pdl\drivers/peripheral/syslib/cy_syslib.h **** #define CY_HI16(x)              ((uint16_t) ((uint32_t)(x) >> 16U))
 396:Generated_Source\PSoC6\pdl\drivers/peripheral/syslib/cy_syslib.h **** 
 397:Generated_Source\PSoC6\pdl\drivers/peripheral/syslib/cy_syslib.h **** /** Swap the byte ordering of a 16-bit value */
 398:Generated_Source\PSoC6\pdl\drivers/peripheral/syslib/cy_syslib.h **** #define CY_SWAP_ENDIAN16(x)     ((uint16_t)(((x) << 8U) | (((x) >> 8U) & 0x00FFU)))
 399:Generated_Source\PSoC6\pdl\drivers/peripheral/syslib/cy_syslib.h **** 
 400:Generated_Source\PSoC6\pdl\drivers/peripheral/syslib/cy_syslib.h **** /** Swap the byte ordering of a 32-bit value */
 401:Generated_Source\PSoC6\pdl\drivers/peripheral/syslib/cy_syslib.h **** #define CY_SWAP_ENDIAN32(x)     ((uint32_t)((((x) >> 24U) & 0x000000FFU) | (((x) & 0x00FF0000U) >> 
 402:Generated_Source\PSoC6\pdl\drivers/peripheral/syslib/cy_syslib.h ****                                 (((x) & 0x0000FF00U) << 8U) | ((x) << 24U)))
 403:Generated_Source\PSoC6\pdl\drivers/peripheral/syslib/cy_syslib.h **** 
 404:Generated_Source\PSoC6\pdl\drivers/peripheral/syslib/cy_syslib.h **** /** Swap the byte ordering of a 64-bit value */
 405:Generated_Source\PSoC6\pdl\drivers/peripheral/syslib/cy_syslib.h **** #define CY_SWAP_ENDIAN64(x)     ((uint64_t) (((uint64_t) CY_SWAP_ENDIAN32((uint32_t)(x)) << 32U) | 
 406:Generated_Source\PSoC6\pdl\drivers/peripheral/syslib/cy_syslib.h ****                                 CY_SWAP_ENDIAN32((uint32_t)((x) >> 32U))))
 407:Generated_Source\PSoC6\pdl\drivers/peripheral/syslib/cy_syslib.h **** 
 408:Generated_Source\PSoC6\pdl\drivers/peripheral/syslib/cy_syslib.h **** 
 409:Generated_Source\PSoC6\pdl\drivers/peripheral/syslib/cy_syslib.h **** /*******************************************************************************
 410:Generated_Source\PSoC6\pdl\drivers/peripheral/syslib/cy_syslib.h **** *   Memory model definitions
 411:Generated_Source\PSoC6\pdl\drivers/peripheral/syslib/cy_syslib.h **** *******************************************************************************/
 412:Generated_Source\PSoC6\pdl\drivers/peripheral/syslib/cy_syslib.h **** #if defined(__ARMCC_VERSION)
 413:Generated_Source\PSoC6\pdl\drivers/peripheral/syslib/cy_syslib.h ****     /** To create cross compiler compatible code, use the CY_NOINIT, CY_SECTION, CY_UNUSED, CY_ALIG
 414:Generated_Source\PSoC6\pdl\drivers/peripheral/syslib/cy_syslib.h ****      * attributes at the first place of declaration/definition.
 415:Generated_Source\PSoC6\pdl\drivers/peripheral/syslib/cy_syslib.h ****      * For example: CY_NOINIT uint32_t noinitVar;
 416:Generated_Source\PSoC6\pdl\drivers/peripheral/syslib/cy_syslib.h ****      */
 417:Generated_Source\PSoC6\pdl\drivers/peripheral/syslib/cy_syslib.h ****     #define CY_NOINIT           __attribute__ ((section(".noinit"), zero_init))
 418:Generated_Source\PSoC6\pdl\drivers/peripheral/syslib/cy_syslib.h ****     #define CY_SECTION(name)    __attribute__ ((section(name)))
ARM GAS  C:\Users\Phuong\AppData\Local\Temp\cct5AIDl.s 			page 24


 419:Generated_Source\PSoC6\pdl\drivers/peripheral/syslib/cy_syslib.h ****     #define CY_UNUSED           __attribute__ ((unused))
 420:Generated_Source\PSoC6\pdl\drivers/peripheral/syslib/cy_syslib.h ****     #define CY_NOINLINE         __attribute__ ((noinline))
 421:Generated_Source\PSoC6\pdl\drivers/peripheral/syslib/cy_syslib.h ****     /* Specifies the minimum alignment (in bytes) for variables of the specified type. */
 422:Generated_Source\PSoC6\pdl\drivers/peripheral/syslib/cy_syslib.h ****     #define CY_ALIGN(align)     __ALIGNED(align)
 423:Generated_Source\PSoC6\pdl\drivers/peripheral/syslib/cy_syslib.h **** #elif defined (__GNUC__)
 424:Generated_Source\PSoC6\pdl\drivers/peripheral/syslib/cy_syslib.h ****     #define CY_NOINIT           __attribute__ ((section(".noinit")))
 425:Generated_Source\PSoC6\pdl\drivers/peripheral/syslib/cy_syslib.h ****     #define CY_SECTION(name)    __attribute__ ((section(name)))
 426:Generated_Source\PSoC6\pdl\drivers/peripheral/syslib/cy_syslib.h ****     #define CY_UNUSED           __attribute__ ((unused))
 427:Generated_Source\PSoC6\pdl\drivers/peripheral/syslib/cy_syslib.h ****     #define CY_NOINLINE         __attribute__ ((noinline))
 428:Generated_Source\PSoC6\pdl\drivers/peripheral/syslib/cy_syslib.h ****     #define CY_ALIGN(align)     __ALIGNED(align)
 429:Generated_Source\PSoC6\pdl\drivers/peripheral/syslib/cy_syslib.h **** #elif defined (__ICCARM__)
 430:Generated_Source\PSoC6\pdl\drivers/peripheral/syslib/cy_syslib.h ****     #define CY_PRAGMA(x)        _Pragma(#x)
 431:Generated_Source\PSoC6\pdl\drivers/peripheral/syslib/cy_syslib.h ****     #define CY_NOINIT           __no_init
 432:Generated_Source\PSoC6\pdl\drivers/peripheral/syslib/cy_syslib.h ****     #define CY_SECTION(name)    CY_PRAGMA(location = name)
 433:Generated_Source\PSoC6\pdl\drivers/peripheral/syslib/cy_syslib.h ****     #define CY_UNUSED
 434:Generated_Source\PSoC6\pdl\drivers/peripheral/syslib/cy_syslib.h ****     #define CY_NOINLINE         CY_PRAGMA(optimize = no_inline)
 435:Generated_Source\PSoC6\pdl\drivers/peripheral/syslib/cy_syslib.h ****     #if (__VER__ < 8010001)
 436:Generated_Source\PSoC6\pdl\drivers/peripheral/syslib/cy_syslib.h ****         #define CY_ALIGN(align) CY_PRAGMA(data_alignment = align)
 437:Generated_Source\PSoC6\pdl\drivers/peripheral/syslib/cy_syslib.h ****     #else
 438:Generated_Source\PSoC6\pdl\drivers/peripheral/syslib/cy_syslib.h ****         #define CY_ALIGN(align) __ALIGNED(align)
 439:Generated_Source\PSoC6\pdl\drivers/peripheral/syslib/cy_syslib.h ****     #endif /* (__VER__ < 8010001) */
 440:Generated_Source\PSoC6\pdl\drivers/peripheral/syslib/cy_syslib.h **** #else
 441:Generated_Source\PSoC6\pdl\drivers/peripheral/syslib/cy_syslib.h ****     #error "An unsupported toolchain"
 442:Generated_Source\PSoC6\pdl\drivers/peripheral/syslib/cy_syslib.h **** #endif  /* (__ARMCC_VERSION) */
 443:Generated_Source\PSoC6\pdl\drivers/peripheral/syslib/cy_syslib.h **** 
 444:Generated_Source\PSoC6\pdl\drivers/peripheral/syslib/cy_syslib.h **** typedef void (* cy_israddress)(void);   /**< Type of ISR callbacks */
 445:Generated_Source\PSoC6\pdl\drivers/peripheral/syslib/cy_syslib.h **** #if defined (__ICCARM__)
 446:Generated_Source\PSoC6\pdl\drivers/peripheral/syslib/cy_syslib.h ****     typedef union { cy_israddress __fun; void * __ptr; } cy_intvec_elem;
 447:Generated_Source\PSoC6\pdl\drivers/peripheral/syslib/cy_syslib.h **** #endif  /* defined (__ICCARM__) */
 448:Generated_Source\PSoC6\pdl\drivers/peripheral/syslib/cy_syslib.h **** 
 449:Generated_Source\PSoC6\pdl\drivers/peripheral/syslib/cy_syslib.h **** /* MISRA rule 6.3 recommends using specific-length typedef for the basic
 450:Generated_Source\PSoC6\pdl\drivers/peripheral/syslib/cy_syslib.h ****  * numerical types of signed and unsigned variants of char, float, and double.
 451:Generated_Source\PSoC6\pdl\drivers/peripheral/syslib/cy_syslib.h ****  */
 452:Generated_Source\PSoC6\pdl\drivers/peripheral/syslib/cy_syslib.h **** typedef char     char_t;    /**< Specific-length typedef for the basic numerical types of char */
 453:Generated_Source\PSoC6\pdl\drivers/peripheral/syslib/cy_syslib.h **** typedef float    float32_t; /**< Specific-length typedef for the basic numerical types of float */
 454:Generated_Source\PSoC6\pdl\drivers/peripheral/syslib/cy_syslib.h **** typedef double   float64_t; /**< Specific-length typedef for the basic numerical types of double */
 455:Generated_Source\PSoC6\pdl\drivers/peripheral/syslib/cy_syslib.h **** 
 456:Generated_Source\PSoC6\pdl\drivers/peripheral/syslib/cy_syslib.h **** #if !defined(NDEBUG)
 457:Generated_Source\PSoC6\pdl\drivers/peripheral/syslib/cy_syslib.h ****     /** The max size of the file name which stores the ASSERT location */
 458:Generated_Source\PSoC6\pdl\drivers/peripheral/syslib/cy_syslib.h ****     #define CY_MAX_FILE_NAME_SIZE  (24U)
 459:Generated_Source\PSoC6\pdl\drivers/peripheral/syslib/cy_syslib.h ****     extern CY_NOINIT char_t cy_assertFileName[CY_MAX_FILE_NAME_SIZE];  /**< The assert buffer */
 460:Generated_Source\PSoC6\pdl\drivers/peripheral/syslib/cy_syslib.h ****     extern CY_NOINIT uint32_t cy_assertLine;                           /**< The assert line value *
 461:Generated_Source\PSoC6\pdl\drivers/peripheral/syslib/cy_syslib.h **** #endif /* NDEBUG */
 462:Generated_Source\PSoC6\pdl\drivers/peripheral/syslib/cy_syslib.h **** 
 463:Generated_Source\PSoC6\pdl\drivers/peripheral/syslib/cy_syslib.h **** #if (CY_ARM_FAULT_DEBUG == CY_ARM_FAULT_DEBUG_ENABLED)
 464:Generated_Source\PSoC6\pdl\drivers/peripheral/syslib/cy_syslib.h ****     #define CY_R0_Pos             (0U)     /**< The position of the R0  content in a fault structur
 465:Generated_Source\PSoC6\pdl\drivers/peripheral/syslib/cy_syslib.h ****     #define CY_R1_Pos             (1U)     /**< The position of the R1  content in a fault structur
 466:Generated_Source\PSoC6\pdl\drivers/peripheral/syslib/cy_syslib.h ****     #define CY_R2_Pos             (2U)     /**< The position of the R2  content in a fault structur
 467:Generated_Source\PSoC6\pdl\drivers/peripheral/syslib/cy_syslib.h ****     #define CY_R3_Pos             (3U)     /**< The position of the R3  content in a fault structur
 468:Generated_Source\PSoC6\pdl\drivers/peripheral/syslib/cy_syslib.h ****     #define CY_R12_Pos            (4U)     /**< The position of the R12 content in a fault structur
 469:Generated_Source\PSoC6\pdl\drivers/peripheral/syslib/cy_syslib.h ****     #define CY_LR_Pos             (5U)     /**< The position of the LR  content in a fault structur
 470:Generated_Source\PSoC6\pdl\drivers/peripheral/syslib/cy_syslib.h ****     #define CY_PC_Pos             (6U)     /**< The position of the PC  content in a fault structur
 471:Generated_Source\PSoC6\pdl\drivers/peripheral/syslib/cy_syslib.h ****     #define CY_PSR_Pos            (7U)     /**< The position of the PSR content in a fault structur
 472:Generated_Source\PSoC6\pdl\drivers/peripheral/syslib/cy_syslib.h ****     #if (CY_CPU_CORTEX_M4) && ((defined (__FPU_PRESENT) && (__FPU_PRESENT == 1U)) && \
 473:Generated_Source\PSoC6\pdl\drivers/peripheral/syslib/cy_syslib.h ****                                (defined (__FPU_USED   ) && (__FPU_USED    == 1U)))
 474:Generated_Source\PSoC6\pdl\drivers/peripheral/syslib/cy_syslib.h ****         #define CY_FPSCR_IXC_Msk  (0x00000010U)    /**< The cumulative exception bit for floating-p
 475:Generated_Source\PSoC6\pdl\drivers/peripheral/syslib/cy_syslib.h ****         #define CY_FPSCR_IDC_Msk  (0x00000080U)    /**< The cumulative exception bit for floating-p
ARM GAS  C:\Users\Phuong\AppData\Local\Temp\cct5AIDl.s 			page 25


 476:Generated_Source\PSoC6\pdl\drivers/peripheral/syslib/cy_syslib.h ****         #define CY_S0_Pos         (8U)     /**< The position of the FPU S0 content in a fault struc
 477:Generated_Source\PSoC6\pdl\drivers/peripheral/syslib/cy_syslib.h ****         #define CY_S1_Pos         (9U)     /**< The position of the FPU S1 content in a fault struc
 478:Generated_Source\PSoC6\pdl\drivers/peripheral/syslib/cy_syslib.h ****         #define CY_S2_Pos         (10U)    /**< The position of the FPU S2 content in a fault struc
 479:Generated_Source\PSoC6\pdl\drivers/peripheral/syslib/cy_syslib.h ****         #define CY_S3_Pos         (11U)    /**< The position of the FPU S3 content in a fault struc
 480:Generated_Source\PSoC6\pdl\drivers/peripheral/syslib/cy_syslib.h ****         #define CY_S4_Pos         (12U)    /**< The position of the FPU S4 content in a fault struc
 481:Generated_Source\PSoC6\pdl\drivers/peripheral/syslib/cy_syslib.h ****         #define CY_S5_Pos         (13U)    /**< The position of the FPU S5 content in a fault struc
 482:Generated_Source\PSoC6\pdl\drivers/peripheral/syslib/cy_syslib.h ****         #define CY_S6_Pos         (14U)    /**< The position of the FPU S6 content in a fault struc
 483:Generated_Source\PSoC6\pdl\drivers/peripheral/syslib/cy_syslib.h ****         #define CY_S7_Pos         (15U)    /**< The position of the FPU S7 content in a fault struc
 484:Generated_Source\PSoC6\pdl\drivers/peripheral/syslib/cy_syslib.h ****         #define CY_S8_Pos         (16U)    /**< The position of the FPU S8 content in a fault struc
 485:Generated_Source\PSoC6\pdl\drivers/peripheral/syslib/cy_syslib.h ****         #define CY_S9_Pos         (17U)    /**< The position of the FPU S9 content in a fault struc
 486:Generated_Source\PSoC6\pdl\drivers/peripheral/syslib/cy_syslib.h ****         #define CY_S10_Pos        (18U)    /**< The position of the FPU S10 content in a fault stru
 487:Generated_Source\PSoC6\pdl\drivers/peripheral/syslib/cy_syslib.h ****         #define CY_S11_Pos        (19U)    /**< The position of the FPU S11 content in a fault stru
 488:Generated_Source\PSoC6\pdl\drivers/peripheral/syslib/cy_syslib.h ****         #define CY_S12_Pos        (20U)    /**< The position of the FPU S12 content in a fault stru
 489:Generated_Source\PSoC6\pdl\drivers/peripheral/syslib/cy_syslib.h ****         #define CY_S13_Pos        (21U)    /**< The position of the FPU S13 content in a fault stru
 490:Generated_Source\PSoC6\pdl\drivers/peripheral/syslib/cy_syslib.h ****         #define CY_S14_Pos        (22U)    /**< The position of the FPU S14 content in a fault stru
 491:Generated_Source\PSoC6\pdl\drivers/peripheral/syslib/cy_syslib.h ****         #define CY_S15_Pos        (23U)    /**< The position of the FPU S15 content in a fault stru
 492:Generated_Source\PSoC6\pdl\drivers/peripheral/syslib/cy_syslib.h ****         #define CY_FPSCR_Pos      (24U)    /**< The position of the FPU FPSCR content in a fault st
 493:Generated_Source\PSoC6\pdl\drivers/peripheral/syslib/cy_syslib.h ****     #endif /* CY_CPU_CORTEX_M4 && __FPU_PRESENT */
 494:Generated_Source\PSoC6\pdl\drivers/peripheral/syslib/cy_syslib.h **** 
 495:Generated_Source\PSoC6\pdl\drivers/peripheral/syslib/cy_syslib.h ****     extern CY_NOINIT cy_stc_fault_frame_t cy_faultFrame;    /**< Fault frame structure */
 496:Generated_Source\PSoC6\pdl\drivers/peripheral/syslib/cy_syslib.h **** #endif /* (CY_ARM_FAULT_DEBUG == CY_ARM_FAULT_DEBUG_ENABLED) */
 497:Generated_Source\PSoC6\pdl\drivers/peripheral/syslib/cy_syslib.h **** 
 498:Generated_Source\PSoC6\pdl\drivers/peripheral/syslib/cy_syslib.h **** 
 499:Generated_Source\PSoC6\pdl\drivers/peripheral/syslib/cy_syslib.h **** /*******************************************************************************
 500:Generated_Source\PSoC6\pdl\drivers/peripheral/syslib/cy_syslib.h **** * Macro Name: CY_GET_REG8(addr)
 501:Generated_Source\PSoC6\pdl\drivers/peripheral/syslib/cy_syslib.h **** ****************************************************************************//**
 502:Generated_Source\PSoC6\pdl\drivers/peripheral/syslib/cy_syslib.h **** *
 503:Generated_Source\PSoC6\pdl\drivers/peripheral/syslib/cy_syslib.h **** * Reads the 8-bit value from the specified address. This function can't be
 504:Generated_Source\PSoC6\pdl\drivers/peripheral/syslib/cy_syslib.h **** * used to access the Core register, otherwise a fault occurs.
 505:Generated_Source\PSoC6\pdl\drivers/peripheral/syslib/cy_syslib.h **** *
 506:Generated_Source\PSoC6\pdl\drivers/peripheral/syslib/cy_syslib.h **** * \param addr  The register address.
 507:Generated_Source\PSoC6\pdl\drivers/peripheral/syslib/cy_syslib.h **** *
 508:Generated_Source\PSoC6\pdl\drivers/peripheral/syslib/cy_syslib.h **** * \return The read value.
 509:Generated_Source\PSoC6\pdl\drivers/peripheral/syslib/cy_syslib.h **** *
 510:Generated_Source\PSoC6\pdl\drivers/peripheral/syslib/cy_syslib.h **** *******************************************************************************/
 511:Generated_Source\PSoC6\pdl\drivers/peripheral/syslib/cy_syslib.h **** #define CY_GET_REG8(addr)           (*((const volatile uint8_t *)(addr)))
 512:Generated_Source\PSoC6\pdl\drivers/peripheral/syslib/cy_syslib.h **** 
 513:Generated_Source\PSoC6\pdl\drivers/peripheral/syslib/cy_syslib.h **** 
 514:Generated_Source\PSoC6\pdl\drivers/peripheral/syslib/cy_syslib.h **** /*******************************************************************************
 515:Generated_Source\PSoC6\pdl\drivers/peripheral/syslib/cy_syslib.h **** * Macro Name: CY_SET_REG8(addr, value)
 516:Generated_Source\PSoC6\pdl\drivers/peripheral/syslib/cy_syslib.h **** ****************************************************************************//**
 517:Generated_Source\PSoC6\pdl\drivers/peripheral/syslib/cy_syslib.h **** *
 518:Generated_Source\PSoC6\pdl\drivers/peripheral/syslib/cy_syslib.h **** * Writes an 8-bit value to the specified address. This function can't be
 519:Generated_Source\PSoC6\pdl\drivers/peripheral/syslib/cy_syslib.h **** * used to access the Core register, otherwise a fault occurs.
 520:Generated_Source\PSoC6\pdl\drivers/peripheral/syslib/cy_syslib.h **** *
 521:Generated_Source\PSoC6\pdl\drivers/peripheral/syslib/cy_syslib.h **** * \param addr  The register address.
 522:Generated_Source\PSoC6\pdl\drivers/peripheral/syslib/cy_syslib.h **** *
 523:Generated_Source\PSoC6\pdl\drivers/peripheral/syslib/cy_syslib.h **** * \param value The value to write.
 524:Generated_Source\PSoC6\pdl\drivers/peripheral/syslib/cy_syslib.h **** *
 525:Generated_Source\PSoC6\pdl\drivers/peripheral/syslib/cy_syslib.h **** *******************************************************************************/
 526:Generated_Source\PSoC6\pdl\drivers/peripheral/syslib/cy_syslib.h **** #define CY_SET_REG8(addr, value)    (*((volatile uint8_t *)(addr)) = (uint8_t)(value))
 527:Generated_Source\PSoC6\pdl\drivers/peripheral/syslib/cy_syslib.h **** 
 528:Generated_Source\PSoC6\pdl\drivers/peripheral/syslib/cy_syslib.h **** 
 529:Generated_Source\PSoC6\pdl\drivers/peripheral/syslib/cy_syslib.h **** /*******************************************************************************
 530:Generated_Source\PSoC6\pdl\drivers/peripheral/syslib/cy_syslib.h **** * Macro Name: CY_GET_REG16(addr)
 531:Generated_Source\PSoC6\pdl\drivers/peripheral/syslib/cy_syslib.h **** ****************************************************************************//**
 532:Generated_Source\PSoC6\pdl\drivers/peripheral/syslib/cy_syslib.h **** *
ARM GAS  C:\Users\Phuong\AppData\Local\Temp\cct5AIDl.s 			page 26


 533:Generated_Source\PSoC6\pdl\drivers/peripheral/syslib/cy_syslib.h **** * Reads the 16-bit value from the specified address.
 534:Generated_Source\PSoC6\pdl\drivers/peripheral/syslib/cy_syslib.h **** *
 535:Generated_Source\PSoC6\pdl\drivers/peripheral/syslib/cy_syslib.h **** * \param addr  The register address.
 536:Generated_Source\PSoC6\pdl\drivers/peripheral/syslib/cy_syslib.h **** *
 537:Generated_Source\PSoC6\pdl\drivers/peripheral/syslib/cy_syslib.h **** * \return The read value.
 538:Generated_Source\PSoC6\pdl\drivers/peripheral/syslib/cy_syslib.h **** *
 539:Generated_Source\PSoC6\pdl\drivers/peripheral/syslib/cy_syslib.h **** *******************************************************************************/
 540:Generated_Source\PSoC6\pdl\drivers/peripheral/syslib/cy_syslib.h **** #define CY_GET_REG16(addr)          (*((const volatile uint16_t *)(addr)))
 541:Generated_Source\PSoC6\pdl\drivers/peripheral/syslib/cy_syslib.h **** 
 542:Generated_Source\PSoC6\pdl\drivers/peripheral/syslib/cy_syslib.h **** 
 543:Generated_Source\PSoC6\pdl\drivers/peripheral/syslib/cy_syslib.h **** /*******************************************************************************
 544:Generated_Source\PSoC6\pdl\drivers/peripheral/syslib/cy_syslib.h **** * Macro Name: CY_SET_REG16(addr, value)
 545:Generated_Source\PSoC6\pdl\drivers/peripheral/syslib/cy_syslib.h **** ****************************************************************************//**
 546:Generated_Source\PSoC6\pdl\drivers/peripheral/syslib/cy_syslib.h **** *
 547:Generated_Source\PSoC6\pdl\drivers/peripheral/syslib/cy_syslib.h **** * Writes the 16-bit value to the specified address.
 548:Generated_Source\PSoC6\pdl\drivers/peripheral/syslib/cy_syslib.h **** *
 549:Generated_Source\PSoC6\pdl\drivers/peripheral/syslib/cy_syslib.h **** * \param addr  The register address.
 550:Generated_Source\PSoC6\pdl\drivers/peripheral/syslib/cy_syslib.h **** *
 551:Generated_Source\PSoC6\pdl\drivers/peripheral/syslib/cy_syslib.h **** * \param value The value to write.
 552:Generated_Source\PSoC6\pdl\drivers/peripheral/syslib/cy_syslib.h **** *
 553:Generated_Source\PSoC6\pdl\drivers/peripheral/syslib/cy_syslib.h **** *******************************************************************************/
 554:Generated_Source\PSoC6\pdl\drivers/peripheral/syslib/cy_syslib.h **** #define CY_SET_REG16(addr, value)   (*((volatile uint16_t *)(addr)) = (uint16_t)(value))
 555:Generated_Source\PSoC6\pdl\drivers/peripheral/syslib/cy_syslib.h **** 
 556:Generated_Source\PSoC6\pdl\drivers/peripheral/syslib/cy_syslib.h **** 
 557:Generated_Source\PSoC6\pdl\drivers/peripheral/syslib/cy_syslib.h **** /*******************************************************************************
 558:Generated_Source\PSoC6\pdl\drivers/peripheral/syslib/cy_syslib.h **** * Macro Name: CY_GET_REG24(addr)
 559:Generated_Source\PSoC6\pdl\drivers/peripheral/syslib/cy_syslib.h **** ****************************************************************************//**
 560:Generated_Source\PSoC6\pdl\drivers/peripheral/syslib/cy_syslib.h **** *
 561:Generated_Source\PSoC6\pdl\drivers/peripheral/syslib/cy_syslib.h **** * Reads the 24-bit value from the specified address.
 562:Generated_Source\PSoC6\pdl\drivers/peripheral/syslib/cy_syslib.h **** *
 563:Generated_Source\PSoC6\pdl\drivers/peripheral/syslib/cy_syslib.h **** * \param addr  The register address.
 564:Generated_Source\PSoC6\pdl\drivers/peripheral/syslib/cy_syslib.h **** *
 565:Generated_Source\PSoC6\pdl\drivers/peripheral/syslib/cy_syslib.h **** * \return The read value.
 566:Generated_Source\PSoC6\pdl\drivers/peripheral/syslib/cy_syslib.h **** *
 567:Generated_Source\PSoC6\pdl\drivers/peripheral/syslib/cy_syslib.h **** *******************************************************************************/
 568:Generated_Source\PSoC6\pdl\drivers/peripheral/syslib/cy_syslib.h **** #define CY_GET_REG24(addr)          (uint32_t) ((*((const volatile uint8_t *)(addr))) | \
 569:Generated_Source\PSoC6\pdl\drivers/peripheral/syslib/cy_syslib.h ****                                     (uint32_t) ((*((const volatile uint8_t *)(addr) + 1)) << 8U) | 
 570:Generated_Source\PSoC6\pdl\drivers/peripheral/syslib/cy_syslib.h ****                                     (uint32_t) ((*((const volatile uint8_t *)(addr) + 2)) << 16U))
 571:Generated_Source\PSoC6\pdl\drivers/peripheral/syslib/cy_syslib.h **** 
 572:Generated_Source\PSoC6\pdl\drivers/peripheral/syslib/cy_syslib.h **** 
 573:Generated_Source\PSoC6\pdl\drivers/peripheral/syslib/cy_syslib.h **** /*******************************************************************************
 574:Generated_Source\PSoC6\pdl\drivers/peripheral/syslib/cy_syslib.h **** * Macro Name: CY_SET_REG24(addr, value)
 575:Generated_Source\PSoC6\pdl\drivers/peripheral/syslib/cy_syslib.h **** ****************************************************************************//**
 576:Generated_Source\PSoC6\pdl\drivers/peripheral/syslib/cy_syslib.h **** *
 577:Generated_Source\PSoC6\pdl\drivers/peripheral/syslib/cy_syslib.h **** * Writes the 24-bit value to the specified address.
 578:Generated_Source\PSoC6\pdl\drivers/peripheral/syslib/cy_syslib.h **** *
 579:Generated_Source\PSoC6\pdl\drivers/peripheral/syslib/cy_syslib.h **** * \param addr  The register address.
 580:Generated_Source\PSoC6\pdl\drivers/peripheral/syslib/cy_syslib.h **** *
 581:Generated_Source\PSoC6\pdl\drivers/peripheral/syslib/cy_syslib.h **** * \param value The value to write.
 582:Generated_Source\PSoC6\pdl\drivers/peripheral/syslib/cy_syslib.h **** *
 583:Generated_Source\PSoC6\pdl\drivers/peripheral/syslib/cy_syslib.h **** *******************************************************************************/
 584:Generated_Source\PSoC6\pdl\drivers/peripheral/syslib/cy_syslib.h **** #define CY_SET_REG24(addr, value)   do  \
 585:Generated_Source\PSoC6\pdl\drivers/peripheral/syslib/cy_syslib.h ****                                     {   \
 586:Generated_Source\PSoC6\pdl\drivers/peripheral/syslib/cy_syslib.h ****                                         (*((volatile uint8_t *) (addr))) = (uint8_t)(value);       
 587:Generated_Source\PSoC6\pdl\drivers/peripheral/syslib/cy_syslib.h ****                                         (*((volatile uint8_t *) (addr) + 1)) = (uint8_t)((value) >>
 588:Generated_Source\PSoC6\pdl\drivers/peripheral/syslib/cy_syslib.h ****                                         (*((volatile uint8_t *) (addr) + 2)) = (uint8_t)((value) >>
 589:Generated_Source\PSoC6\pdl\drivers/peripheral/syslib/cy_syslib.h ****                                     }   \
ARM GAS  C:\Users\Phuong\AppData\Local\Temp\cct5AIDl.s 			page 27


 590:Generated_Source\PSoC6\pdl\drivers/peripheral/syslib/cy_syslib.h ****                                     while(0)
 591:Generated_Source\PSoC6\pdl\drivers/peripheral/syslib/cy_syslib.h **** 
 592:Generated_Source\PSoC6\pdl\drivers/peripheral/syslib/cy_syslib.h **** 
 593:Generated_Source\PSoC6\pdl\drivers/peripheral/syslib/cy_syslib.h **** /*******************************************************************************
 594:Generated_Source\PSoC6\pdl\drivers/peripheral/syslib/cy_syslib.h **** * Macro Name: CY_GET_REG32(addr)
 595:Generated_Source\PSoC6\pdl\drivers/peripheral/syslib/cy_syslib.h **** ****************************************************************************//**
 596:Generated_Source\PSoC6\pdl\drivers/peripheral/syslib/cy_syslib.h **** *
 597:Generated_Source\PSoC6\pdl\drivers/peripheral/syslib/cy_syslib.h **** * Reads the 32-bit value from the specified register. The address is the little
 598:Generated_Source\PSoC6\pdl\drivers/peripheral/syslib/cy_syslib.h **** * endian order (LSB in lowest address).
 599:Generated_Source\PSoC6\pdl\drivers/peripheral/syslib/cy_syslib.h **** *
 600:Generated_Source\PSoC6\pdl\drivers/peripheral/syslib/cy_syslib.h **** * \param addr  The register address.
 601:Generated_Source\PSoC6\pdl\drivers/peripheral/syslib/cy_syslib.h **** *
 602:Generated_Source\PSoC6\pdl\drivers/peripheral/syslib/cy_syslib.h **** * \return The read value.
 603:Generated_Source\PSoC6\pdl\drivers/peripheral/syslib/cy_syslib.h **** *
 604:Generated_Source\PSoC6\pdl\drivers/peripheral/syslib/cy_syslib.h **** *******************************************************************************/
 605:Generated_Source\PSoC6\pdl\drivers/peripheral/syslib/cy_syslib.h **** #define CY_GET_REG32(addr)          (*((const volatile uint32_t *)(addr)))
 606:Generated_Source\PSoC6\pdl\drivers/peripheral/syslib/cy_syslib.h **** 
 607:Generated_Source\PSoC6\pdl\drivers/peripheral/syslib/cy_syslib.h **** 
 608:Generated_Source\PSoC6\pdl\drivers/peripheral/syslib/cy_syslib.h **** /*******************************************************************************
 609:Generated_Source\PSoC6\pdl\drivers/peripheral/syslib/cy_syslib.h **** * Macro Name: CY_SET_REG32(addr, value)
 610:Generated_Source\PSoC6\pdl\drivers/peripheral/syslib/cy_syslib.h **** ****************************************************************************//**
 611:Generated_Source\PSoC6\pdl\drivers/peripheral/syslib/cy_syslib.h **** *
 612:Generated_Source\PSoC6\pdl\drivers/peripheral/syslib/cy_syslib.h **** * Writes the 32-bit value to the specified register. The address is the little
 613:Generated_Source\PSoC6\pdl\drivers/peripheral/syslib/cy_syslib.h **** * endian order (LSB in lowest address).
 614:Generated_Source\PSoC6\pdl\drivers/peripheral/syslib/cy_syslib.h **** *
 615:Generated_Source\PSoC6\pdl\drivers/peripheral/syslib/cy_syslib.h **** * \param addr  The register address.
 616:Generated_Source\PSoC6\pdl\drivers/peripheral/syslib/cy_syslib.h **** *
 617:Generated_Source\PSoC6\pdl\drivers/peripheral/syslib/cy_syslib.h **** * \param value The value to write.
 618:Generated_Source\PSoC6\pdl\drivers/peripheral/syslib/cy_syslib.h **** *
 619:Generated_Source\PSoC6\pdl\drivers/peripheral/syslib/cy_syslib.h **** *******************************************************************************/
 620:Generated_Source\PSoC6\pdl\drivers/peripheral/syslib/cy_syslib.h **** #define CY_SET_REG32(addr, value)   (*((volatile uint32_t *)(addr)) = (uint32_t)(value))
 621:Generated_Source\PSoC6\pdl\drivers/peripheral/syslib/cy_syslib.h **** 
 622:Generated_Source\PSoC6\pdl\drivers/peripheral/syslib/cy_syslib.h **** 
 623:Generated_Source\PSoC6\pdl\drivers/peripheral/syslib/cy_syslib.h **** /**
 624:Generated_Source\PSoC6\pdl\drivers/peripheral/syslib/cy_syslib.h **** * \defgroup group_syslib_macros_assert Assert Classes and Levels
 625:Generated_Source\PSoC6\pdl\drivers/peripheral/syslib/cy_syslib.h **** * \{
 626:Generated_Source\PSoC6\pdl\drivers/peripheral/syslib/cy_syslib.h **** * Defines for the Assert Classes and Levels
 627:Generated_Source\PSoC6\pdl\drivers/peripheral/syslib/cy_syslib.h **** */
 628:Generated_Source\PSoC6\pdl\drivers/peripheral/syslib/cy_syslib.h **** 
 629:Generated_Source\PSoC6\pdl\drivers/peripheral/syslib/cy_syslib.h **** /** 
 630:Generated_Source\PSoC6\pdl\drivers/peripheral/syslib/cy_syslib.h **** * Class 1 - The highest class, safety-critical functions which rely on parameters that could be
 631:Generated_Source\PSoC6\pdl\drivers/peripheral/syslib/cy_syslib.h **** * changed between different PSoC devices
 632:Generated_Source\PSoC6\pdl\drivers/peripheral/syslib/cy_syslib.h **** */
 633:Generated_Source\PSoC6\pdl\drivers/peripheral/syslib/cy_syslib.h **** #define CY_ASSERT_CLASS_1           (1U)
 634:Generated_Source\PSoC6\pdl\drivers/peripheral/syslib/cy_syslib.h **** 
 635:Generated_Source\PSoC6\pdl\drivers/peripheral/syslib/cy_syslib.h **** /** Class 2 - Functions that have fixed limits such as counter periods (16-bits/32-bits etc.) */
 636:Generated_Source\PSoC6\pdl\drivers/peripheral/syslib/cy_syslib.h **** #define CY_ASSERT_CLASS_2           (2U)
 637:Generated_Source\PSoC6\pdl\drivers/peripheral/syslib/cy_syslib.h **** 
 638:Generated_Source\PSoC6\pdl\drivers/peripheral/syslib/cy_syslib.h **** /** Class 3 - Functions that accept enums as constant parameters */
 639:Generated_Source\PSoC6\pdl\drivers/peripheral/syslib/cy_syslib.h **** #define CY_ASSERT_CLASS_3           (3U)
 640:Generated_Source\PSoC6\pdl\drivers/peripheral/syslib/cy_syslib.h **** 
 641:Generated_Source\PSoC6\pdl\drivers/peripheral/syslib/cy_syslib.h **** #ifndef CY_ASSERT_LEVEL
 642:Generated_Source\PSoC6\pdl\drivers/peripheral/syslib/cy_syslib.h ****     /** The user-definable assert level from compiler command-line argument (similarly to DEBUG / N
 643:Generated_Source\PSoC6\pdl\drivers/peripheral/syslib/cy_syslib.h ****     #define CY_ASSERT_LEVEL         CY_ASSERT_CLASS_3
 644:Generated_Source\PSoC6\pdl\drivers/peripheral/syslib/cy_syslib.h **** #endif /* CY_ASSERT_LEVEL */
 645:Generated_Source\PSoC6\pdl\drivers/peripheral/syslib/cy_syslib.h **** 
 646:Generated_Source\PSoC6\pdl\drivers/peripheral/syslib/cy_syslib.h **** #if (CY_ASSERT_LEVEL == CY_ASSERT_CLASS_1)
ARM GAS  C:\Users\Phuong\AppData\Local\Temp\cct5AIDl.s 			page 28


 647:Generated_Source\PSoC6\pdl\drivers/peripheral/syslib/cy_syslib.h ****     #define CY_ASSERT_L1(x)         CY_ASSERT(x)     /**< Assert Level 1 */
 648:Generated_Source\PSoC6\pdl\drivers/peripheral/syslib/cy_syslib.h ****     #define CY_ASSERT_L2(x)         do{} while(0)    /**< Assert Level 2 */
 649:Generated_Source\PSoC6\pdl\drivers/peripheral/syslib/cy_syslib.h ****     #define CY_ASSERT_L3(x)         do{} while(0)    /**< Assert Level 3 */
 650:Generated_Source\PSoC6\pdl\drivers/peripheral/syslib/cy_syslib.h **** #elif (CY_ASSERT_LEVEL == CY_ASSERT_CLASS_2)
 651:Generated_Source\PSoC6\pdl\drivers/peripheral/syslib/cy_syslib.h ****     #define CY_ASSERT_L1(x)         CY_ASSERT(x)     /**< Assert Level 1 */
 652:Generated_Source\PSoC6\pdl\drivers/peripheral/syslib/cy_syslib.h ****     #define CY_ASSERT_L2(x)         CY_ASSERT(x)     /**< Assert Level 2 */
 653:Generated_Source\PSoC6\pdl\drivers/peripheral/syslib/cy_syslib.h ****     #define CY_ASSERT_L3(x)         do{} while(0)    /**< Assert Level 3 */
 654:Generated_Source\PSoC6\pdl\drivers/peripheral/syslib/cy_syslib.h **** #else /* Default is Level 3 */
 655:Generated_Source\PSoC6\pdl\drivers/peripheral/syslib/cy_syslib.h ****     #define CY_ASSERT_L1(x)         CY_ASSERT(x)     /**< Assert Level 1 */
 656:Generated_Source\PSoC6\pdl\drivers/peripheral/syslib/cy_syslib.h ****     #define CY_ASSERT_L2(x)         CY_ASSERT(x)     /**< Assert Level 2 */
 657:Generated_Source\PSoC6\pdl\drivers/peripheral/syslib/cy_syslib.h ****     #define CY_ASSERT_L3(x)         CY_ASSERT(x)     /**< Assert Level 3 */
 658:Generated_Source\PSoC6\pdl\drivers/peripheral/syslib/cy_syslib.h **** #endif /* CY_ASSERT_LEVEL == CY_ASSERT_CLASS_1 */
 659:Generated_Source\PSoC6\pdl\drivers/peripheral/syslib/cy_syslib.h **** 
 660:Generated_Source\PSoC6\pdl\drivers/peripheral/syslib/cy_syslib.h **** /** \} group_syslib_macros_assert */
 661:Generated_Source\PSoC6\pdl\drivers/peripheral/syslib/cy_syslib.h **** 
 662:Generated_Source\PSoC6\pdl\drivers/peripheral/syslib/cy_syslib.h **** 
 663:Generated_Source\PSoC6\pdl\drivers/peripheral/syslib/cy_syslib.h **** /*******************************************************************************
 664:Generated_Source\PSoC6\pdl\drivers/peripheral/syslib/cy_syslib.h **** * Macro Name: CY_ASSERT
 665:Generated_Source\PSoC6\pdl\drivers/peripheral/syslib/cy_syslib.h **** ****************************************************************************//**
 666:Generated_Source\PSoC6\pdl\drivers/peripheral/syslib/cy_syslib.h **** *
 667:Generated_Source\PSoC6\pdl\drivers/peripheral/syslib/cy_syslib.h **** *  The macro that evaluates the expression and, if it is false (evaluates to 0),
 668:Generated_Source\PSoC6\pdl\drivers/peripheral/syslib/cy_syslib.h **** *  the processor is halted. Cy_SysLib_AssertFailed() is called when the logical
 669:Generated_Source\PSoC6\pdl\drivers/peripheral/syslib/cy_syslib.h **** *  expression is false to store the ASSERT location and halt the processor.
 670:Generated_Source\PSoC6\pdl\drivers/peripheral/syslib/cy_syslib.h **** *
 671:Generated_Source\PSoC6\pdl\drivers/peripheral/syslib/cy_syslib.h **** * \param x  The logical expression. Asserts if false.
 672:Generated_Source\PSoC6\pdl\drivers/peripheral/syslib/cy_syslib.h **** * \note This macro is evaluated unless NDEBUG is not defined.
 673:Generated_Source\PSoC6\pdl\drivers/peripheral/syslib/cy_syslib.h **** *       If NDEBUG is defined, just empty do while cycle is generated for this
 674:Generated_Source\PSoC6\pdl\drivers/peripheral/syslib/cy_syslib.h **** *       macro for the sake of consistency and to avoid MISRA violation.
 675:Generated_Source\PSoC6\pdl\drivers/peripheral/syslib/cy_syslib.h **** *       NDEBUG is defined by default for a Release build setting and not defined
 676:Generated_Source\PSoC6\pdl\drivers/peripheral/syslib/cy_syslib.h **** *       for a Debug build setting.
 677:Generated_Source\PSoC6\pdl\drivers/peripheral/syslib/cy_syslib.h **** *
 678:Generated_Source\PSoC6\pdl\drivers/peripheral/syslib/cy_syslib.h **** *******************************************************************************/
 679:Generated_Source\PSoC6\pdl\drivers/peripheral/syslib/cy_syslib.h **** #if !defined(NDEBUG)
 680:Generated_Source\PSoC6\pdl\drivers/peripheral/syslib/cy_syslib.h ****     #define CY_ASSERT(x)    do  \
 681:Generated_Source\PSoC6\pdl\drivers/peripheral/syslib/cy_syslib.h ****                             {   \
 682:Generated_Source\PSoC6\pdl\drivers/peripheral/syslib/cy_syslib.h ****                                 if(!(x)) \
 683:Generated_Source\PSoC6\pdl\drivers/peripheral/syslib/cy_syslib.h ****                                 { \
 684:Generated_Source\PSoC6\pdl\drivers/peripheral/syslib/cy_syslib.h ****                                     Cy_SysLib_AssertFailed((char_t *) __FILE__, (uint32_t) __LINE__
 685:Generated_Source\PSoC6\pdl\drivers/peripheral/syslib/cy_syslib.h ****                                 } \
 686:Generated_Source\PSoC6\pdl\drivers/peripheral/syslib/cy_syslib.h ****                             } while(0)
 687:Generated_Source\PSoC6\pdl\drivers/peripheral/syslib/cy_syslib.h **** #else
 688:Generated_Source\PSoC6\pdl\drivers/peripheral/syslib/cy_syslib.h ****     #define CY_ASSERT(x)    do  \
 689:Generated_Source\PSoC6\pdl\drivers/peripheral/syslib/cy_syslib.h ****                             {   \
 690:Generated_Source\PSoC6\pdl\drivers/peripheral/syslib/cy_syslib.h ****                             } while(0)
 691:Generated_Source\PSoC6\pdl\drivers/peripheral/syslib/cy_syslib.h **** #endif  /* !defined(NDEBUG) */
 692:Generated_Source\PSoC6\pdl\drivers/peripheral/syslib/cy_syslib.h **** 
 693:Generated_Source\PSoC6\pdl\drivers/peripheral/syslib/cy_syslib.h **** 
 694:Generated_Source\PSoC6\pdl\drivers/peripheral/syslib/cy_syslib.h **** /*******************************************************************************
 695:Generated_Source\PSoC6\pdl\drivers/peripheral/syslib/cy_syslib.h **** * Macro Name: _CLR_SET_FLD32U
 696:Generated_Source\PSoC6\pdl\drivers/peripheral/syslib/cy_syslib.h **** ****************************************************************************//**
 697:Generated_Source\PSoC6\pdl\drivers/peripheral/syslib/cy_syslib.h **** *
 698:Generated_Source\PSoC6\pdl\drivers/peripheral/syslib/cy_syslib.h **** *  The macro for setting a register with a name field and value for providing
 699:Generated_Source\PSoC6\pdl\drivers/peripheral/syslib/cy_syslib.h **** *  get-clear-modify-write operations.
 700:Generated_Source\PSoC6\pdl\drivers/peripheral/syslib/cy_syslib.h **** *  Returns a resulting value to be assigned to the register.
 701:Generated_Source\PSoC6\pdl\drivers/peripheral/syslib/cy_syslib.h **** *
 702:Generated_Source\PSoC6\pdl\drivers/peripheral/syslib/cy_syslib.h **** *******************************************************************************/
 703:Generated_Source\PSoC6\pdl\drivers/peripheral/syslib/cy_syslib.h **** #define _CLR_SET_FLD32U(reg, field, value) (((reg) & ((uint32_t)(~(field ## _Msk)))) | (_VAL2FLD(fi
ARM GAS  C:\Users\Phuong\AppData\Local\Temp\cct5AIDl.s 			page 29


 704:Generated_Source\PSoC6\pdl\drivers/peripheral/syslib/cy_syslib.h **** 
 705:Generated_Source\PSoC6\pdl\drivers/peripheral/syslib/cy_syslib.h **** 
 706:Generated_Source\PSoC6\pdl\drivers/peripheral/syslib/cy_syslib.h **** /*******************************************************************************
 707:Generated_Source\PSoC6\pdl\drivers/peripheral/syslib/cy_syslib.h **** * Macro Name: _BOOL2FLD
 708:Generated_Source\PSoC6\pdl\drivers/peripheral/syslib/cy_syslib.h **** ****************************************************************************//**
 709:Generated_Source\PSoC6\pdl\drivers/peripheral/syslib/cy_syslib.h **** *
 710:Generated_Source\PSoC6\pdl\drivers/peripheral/syslib/cy_syslib.h **** *  Returns a field mask if the value is not false.
 711:Generated_Source\PSoC6\pdl\drivers/peripheral/syslib/cy_syslib.h **** *  Returns 0, if the value is false.
 712:Generated_Source\PSoC6\pdl\drivers/peripheral/syslib/cy_syslib.h **** *
 713:Generated_Source\PSoC6\pdl\drivers/peripheral/syslib/cy_syslib.h **** *******************************************************************************/
 714:Generated_Source\PSoC6\pdl\drivers/peripheral/syslib/cy_syslib.h **** #define _BOOL2FLD(field, value) (((value) != false) ? (field ## _Msk) : 0UL)
 715:Generated_Source\PSoC6\pdl\drivers/peripheral/syslib/cy_syslib.h **** 
 716:Generated_Source\PSoC6\pdl\drivers/peripheral/syslib/cy_syslib.h **** 
 717:Generated_Source\PSoC6\pdl\drivers/peripheral/syslib/cy_syslib.h **** /*******************************************************************************
 718:Generated_Source\PSoC6\pdl\drivers/peripheral/syslib/cy_syslib.h **** * Macro Name: _FLD2BOOL
 719:Generated_Source\PSoC6\pdl\drivers/peripheral/syslib/cy_syslib.h **** ****************************************************************************//**
 720:Generated_Source\PSoC6\pdl\drivers/peripheral/syslib/cy_syslib.h **** *
 721:Generated_Source\PSoC6\pdl\drivers/peripheral/syslib/cy_syslib.h **** *  Returns true, if the value includes the field mask.
 722:Generated_Source\PSoC6\pdl\drivers/peripheral/syslib/cy_syslib.h **** *  Returns false, if the value doesn't include the field mask.
 723:Generated_Source\PSoC6\pdl\drivers/peripheral/syslib/cy_syslib.h **** *
 724:Generated_Source\PSoC6\pdl\drivers/peripheral/syslib/cy_syslib.h **** *******************************************************************************/
 725:Generated_Source\PSoC6\pdl\drivers/peripheral/syslib/cy_syslib.h **** #define _FLD2BOOL(field, value) (((value) & (field ## _Msk)) != 0UL)
 726:Generated_Source\PSoC6\pdl\drivers/peripheral/syslib/cy_syslib.h **** 
 727:Generated_Source\PSoC6\pdl\drivers/peripheral/syslib/cy_syslib.h **** 
 728:Generated_Source\PSoC6\pdl\drivers/peripheral/syslib/cy_syslib.h **** /******************************************************************************
 729:Generated_Source\PSoC6\pdl\drivers/peripheral/syslib/cy_syslib.h **** * Constants
 730:Generated_Source\PSoC6\pdl\drivers/peripheral/syslib/cy_syslib.h **** *****************************************************************************/
 731:Generated_Source\PSoC6\pdl\drivers/peripheral/syslib/cy_syslib.h **** /** Defines a 32-kHz clock delay */
 732:Generated_Source\PSoC6\pdl\drivers/peripheral/syslib/cy_syslib.h **** #define CY_DELAY_MS_OVERFLOW            (0x8000U)
 733:Generated_Source\PSoC6\pdl\drivers/peripheral/syslib/cy_syslib.h **** 
 734:Generated_Source\PSoC6\pdl\drivers/peripheral/syslib/cy_syslib.h **** /**
 735:Generated_Source\PSoC6\pdl\drivers/peripheral/syslib/cy_syslib.h **** * \defgroup group_syslib_macros_reset_cause Reset cause
 736:Generated_Source\PSoC6\pdl\drivers/peripheral/syslib/cy_syslib.h **** * \{
 737:Generated_Source\PSoC6\pdl\drivers/peripheral/syslib/cy_syslib.h **** * Define RESET_CAUSE mask values
 738:Generated_Source\PSoC6\pdl\drivers/peripheral/syslib/cy_syslib.h **** */
 739:Generated_Source\PSoC6\pdl\drivers/peripheral/syslib/cy_syslib.h **** /** A basic WatchDog Timer (WDT) reset has occurred since the last power cycle. */
 740:Generated_Source\PSoC6\pdl\drivers/peripheral/syslib/cy_syslib.h **** #define CY_SYSLIB_RESET_HWWDT           (0x0001U)
 741:Generated_Source\PSoC6\pdl\drivers/peripheral/syslib/cy_syslib.h **** /** The fault logging system requested a reset from its Active logic. */
 742:Generated_Source\PSoC6\pdl\drivers/peripheral/syslib/cy_syslib.h **** #define CY_SYSLIB_RESET_ACT_FAULT       (0x0002U)
 743:Generated_Source\PSoC6\pdl\drivers/peripheral/syslib/cy_syslib.h **** /** The fault logging system requested a reset from its Deep-Sleep logic. */
 744:Generated_Source\PSoC6\pdl\drivers/peripheral/syslib/cy_syslib.h **** #define CY_SYSLIB_RESET_DPSLP_FAULT     (0x0004U)
 745:Generated_Source\PSoC6\pdl\drivers/peripheral/syslib/cy_syslib.h **** /** The CPU requested a system reset through it's SYSRESETREQ. This can be done via a debugger prob
 746:Generated_Source\PSoC6\pdl\drivers/peripheral/syslib/cy_syslib.h **** #define CY_SYSLIB_RESET_SOFT            (0x0010U)
 747:Generated_Source\PSoC6\pdl\drivers/peripheral/syslib/cy_syslib.h **** /** The Multi-Counter Watchdog timer #0 reset has occurred since the last power cycle. */
 748:Generated_Source\PSoC6\pdl\drivers/peripheral/syslib/cy_syslib.h **** #define CY_SYSLIB_RESET_SWWDT0          (0x0020U)
 749:Generated_Source\PSoC6\pdl\drivers/peripheral/syslib/cy_syslib.h **** /** The Multi-Counter Watchdog timer #1 reset has occurred since the last power cycle. */
 750:Generated_Source\PSoC6\pdl\drivers/peripheral/syslib/cy_syslib.h **** #define CY_SYSLIB_RESET_SWWDT1          (0x0040U)
 751:Generated_Source\PSoC6\pdl\drivers/peripheral/syslib/cy_syslib.h **** /** The Multi-Counter Watchdog timer #2 reset has occurred since the last power cycle. */
 752:Generated_Source\PSoC6\pdl\drivers/peripheral/syslib/cy_syslib.h **** #define CY_SYSLIB_RESET_SWWDT2          (0x0080U)
 753:Generated_Source\PSoC6\pdl\drivers/peripheral/syslib/cy_syslib.h **** /** The Multi-Counter Watchdog timer #3 reset has occurred since the last power cycle. */
 754:Generated_Source\PSoC6\pdl\drivers/peripheral/syslib/cy_syslib.h **** #define CY_SYSLIB_RESET_SWWDT3          (0x0100U)
 755:Generated_Source\PSoC6\pdl\drivers/peripheral/syslib/cy_syslib.h **** /** The reset has occurred on a wakeup from Hibernate power mode. */
 756:Generated_Source\PSoC6\pdl\drivers/peripheral/syslib/cy_syslib.h **** #define CY_SYSLIB_RESET_HIB_WAKEUP      (0x40000UL)
 757:Generated_Source\PSoC6\pdl\drivers/peripheral/syslib/cy_syslib.h **** #if (SRSS_WCOCSV_PRESENT != 0U)
 758:Generated_Source\PSoC6\pdl\drivers/peripheral/syslib/cy_syslib.h ****     /** The clock supervision logic requested a reset due to the loss of a watch-crystal clock. */
 759:Generated_Source\PSoC6\pdl\drivers/peripheral/syslib/cy_syslib.h ****     #define CY_SYSLIB_RESET_CSV_WCO_LOSS    (0x0008U)
 760:Generated_Source\PSoC6\pdl\drivers/peripheral/syslib/cy_syslib.h ****     /** The clock supervision logic requested a reset due to the loss of a high-frequency clock. */
ARM GAS  C:\Users\Phuong\AppData\Local\Temp\cct5AIDl.s 			page 30


 761:Generated_Source\PSoC6\pdl\drivers/peripheral/syslib/cy_syslib.h ****     #define CY_SYSLIB_RESET_HFCLK_LOSS      (0x10000UL)
 762:Generated_Source\PSoC6\pdl\drivers/peripheral/syslib/cy_syslib.h ****     /** The clock supervision logic requested a reset due to the frequency error of a high-frequenc
 763:Generated_Source\PSoC6\pdl\drivers/peripheral/syslib/cy_syslib.h ****     #define CY_SYSLIB_RESET_HFCLK_ERR       (0x20000UL)
 764:Generated_Source\PSoC6\pdl\drivers/peripheral/syslib/cy_syslib.h **** #endif /* (SRSS_WCOCSV_PRESENT != 0U) */
 765:Generated_Source\PSoC6\pdl\drivers/peripheral/syslib/cy_syslib.h **** 
 766:Generated_Source\PSoC6\pdl\drivers/peripheral/syslib/cy_syslib.h **** /** \} group_syslib_macros_reset_cause */
 767:Generated_Source\PSoC6\pdl\drivers/peripheral/syslib/cy_syslib.h **** 
 768:Generated_Source\PSoC6\pdl\drivers/peripheral/syslib/cy_syslib.h **** /** Bit[31:24] Opcode = 0x1B (SoftReset)
 769:Generated_Source\PSoC6\pdl\drivers/peripheral/syslib/cy_syslib.h ****  *  Bit[7:1]   Type   = 1    (Only CM4 reset)
 770:Generated_Source\PSoC6\pdl\drivers/peripheral/syslib/cy_syslib.h ****  */
 771:Generated_Source\PSoC6\pdl\drivers/peripheral/syslib/cy_syslib.h **** #define CY_IPC_DATA_FOR_CM4_SOFT_RESET  (0x1B000002UL)
 772:Generated_Source\PSoC6\pdl\drivers/peripheral/syslib/cy_syslib.h **** 
 773:Generated_Source\PSoC6\pdl\drivers/peripheral/syslib/cy_syslib.h **** /**
 774:Generated_Source\PSoC6\pdl\drivers/peripheral/syslib/cy_syslib.h **** * \defgroup group_syslib_macros_unique_id Unique ID
 775:Generated_Source\PSoC6\pdl\drivers/peripheral/syslib/cy_syslib.h **** * \{
 776:Generated_Source\PSoC6\pdl\drivers/peripheral/syslib/cy_syslib.h **** * Unique ID fields positions
 777:Generated_Source\PSoC6\pdl\drivers/peripheral/syslib/cy_syslib.h **** */
 778:Generated_Source\PSoC6\pdl\drivers/peripheral/syslib/cy_syslib.h **** #define CY_UNIQUE_ID_DIE_YEAR_Pos       (57U)    /**< The position of the DIE_YEAR  field in the si
 779:Generated_Source\PSoC6\pdl\drivers/peripheral/syslib/cy_syslib.h **** #define CY_UNIQUE_ID_DIE_MINOR_Pos      (56U)    /**< The position of the DIE_MINOR field in the si
 780:Generated_Source\PSoC6\pdl\drivers/peripheral/syslib/cy_syslib.h **** #define CY_UNIQUE_ID_DIE_SORT_Pos       (48U)    /**< The position of the DIE_SORT  field in the si
 781:Generated_Source\PSoC6\pdl\drivers/peripheral/syslib/cy_syslib.h **** #define CY_UNIQUE_ID_DIE_Y_Pos          (40U)    /**< The position of the DIE_Y     field in the si
 782:Generated_Source\PSoC6\pdl\drivers/peripheral/syslib/cy_syslib.h **** #define CY_UNIQUE_ID_DIE_X_Pos          (32U)    /**< The position of the DIE_X     field in the si
 783:Generated_Source\PSoC6\pdl\drivers/peripheral/syslib/cy_syslib.h **** #define CY_UNIQUE_ID_DIE_WAFER_Pos      (24U)    /**< The position of the DIE_WAFER field in the si
 784:Generated_Source\PSoC6\pdl\drivers/peripheral/syslib/cy_syslib.h **** #define CY_UNIQUE_ID_DIE_LOT_2_Pos      (16U)    /**< The position of the DIE_LOT_2 field in the si
 785:Generated_Source\PSoC6\pdl\drivers/peripheral/syslib/cy_syslib.h **** #define CY_UNIQUE_ID_DIE_LOT_1_Pos      (8U)     /**< The position of the DIE_LOT_1 field in the si
 786:Generated_Source\PSoC6\pdl\drivers/peripheral/syslib/cy_syslib.h **** #define CY_UNIQUE_ID_DIE_LOT_0_Pos      (0U)     /**< The position of the DIE_LOT_0 field in the si
 787:Generated_Source\PSoC6\pdl\drivers/peripheral/syslib/cy_syslib.h **** 
 788:Generated_Source\PSoC6\pdl\drivers/peripheral/syslib/cy_syslib.h **** /** \} group_syslib_macros_unique_id */
 789:Generated_Source\PSoC6\pdl\drivers/peripheral/syslib/cy_syslib.h **** 
 790:Generated_Source\PSoC6\pdl\drivers/peripheral/syslib/cy_syslib.h **** /** \} group_syslib_macros */
 791:Generated_Source\PSoC6\pdl\drivers/peripheral/syslib/cy_syslib.h **** 
 792:Generated_Source\PSoC6\pdl\drivers/peripheral/syslib/cy_syslib.h **** /******************************************************************************
 793:Generated_Source\PSoC6\pdl\drivers/peripheral/syslib/cy_syslib.h **** * Function prototypes
 794:Generated_Source\PSoC6\pdl\drivers/peripheral/syslib/cy_syslib.h **** ******************************************************************************/
 795:Generated_Source\PSoC6\pdl\drivers/peripheral/syslib/cy_syslib.h **** 
 796:Generated_Source\PSoC6\pdl\drivers/peripheral/syslib/cy_syslib.h **** /**
 797:Generated_Source\PSoC6\pdl\drivers/peripheral/syslib/cy_syslib.h **** * \addtogroup group_syslib_functions
 798:Generated_Source\PSoC6\pdl\drivers/peripheral/syslib/cy_syslib.h **** * \{
 799:Generated_Source\PSoC6\pdl\drivers/peripheral/syslib/cy_syslib.h **** */
 800:Generated_Source\PSoC6\pdl\drivers/peripheral/syslib/cy_syslib.h **** 
 801:Generated_Source\PSoC6\pdl\drivers/peripheral/syslib/cy_syslib.h **** void Cy_SysLib_Delay(uint32_t milliseconds);
 802:Generated_Source\PSoC6\pdl\drivers/peripheral/syslib/cy_syslib.h **** void Cy_SysLib_DelayUs(uint16_t microseconds);
 803:Generated_Source\PSoC6\pdl\drivers/peripheral/syslib/cy_syslib.h **** /** Delays for the specified number of cycles.
 804:Generated_Source\PSoC6\pdl\drivers/peripheral/syslib/cy_syslib.h ****  *  The function is implemented in the assembler for each supported compiler.
 805:Generated_Source\PSoC6\pdl\drivers/peripheral/syslib/cy_syslib.h ****  *  \param cycles  The number of cycles to delay.
 806:Generated_Source\PSoC6\pdl\drivers/peripheral/syslib/cy_syslib.h ****  */
 807:Generated_Source\PSoC6\pdl\drivers/peripheral/syslib/cy_syslib.h **** void Cy_SysLib_DelayCycles(uint32_t cycles);
 808:Generated_Source\PSoC6\pdl\drivers/peripheral/syslib/cy_syslib.h **** __NO_RETURN void Cy_SysLib_Halt(uint32_t reason);
 809:Generated_Source\PSoC6\pdl\drivers/peripheral/syslib/cy_syslib.h **** #if !defined(NDEBUG) || defined(CY_DOXYGEN)
 810:Generated_Source\PSoC6\pdl\drivers/peripheral/syslib/cy_syslib.h ****     void Cy_SysLib_AssertFailed(const char_t * file, uint32_t line);
 811:Generated_Source\PSoC6\pdl\drivers/peripheral/syslib/cy_syslib.h **** #endif  /* !defined(NDEBUG) || defined(CY_DOXYGEN) */
 812:Generated_Source\PSoC6\pdl\drivers/peripheral/syslib/cy_syslib.h **** void Cy_SysLib_ClearFlashCacheAndBuffer(void);
 813:Generated_Source\PSoC6\pdl\drivers/peripheral/syslib/cy_syslib.h **** cy_en_syslib_status_t Cy_SysLib_ResetBackupDomain(void);
 814:Generated_Source\PSoC6\pdl\drivers/peripheral/syslib/cy_syslib.h **** uint32_t Cy_SysLib_GetResetReason(void);
 815:Generated_Source\PSoC6\pdl\drivers/peripheral/syslib/cy_syslib.h **** #if (SRSS_WCOCSV_PRESENT != 0U) || defined(CY_DOXYGEN)
 816:Generated_Source\PSoC6\pdl\drivers/peripheral/syslib/cy_syslib.h ****     uint32_t Cy_SysLib_GetNumHfclkResetCause(void);
 817:Generated_Source\PSoC6\pdl\drivers/peripheral/syslib/cy_syslib.h **** #endif /* (SRSS_WCOCSV_PRESENT != 0U) || defined(CY_DOXYGEN) */
ARM GAS  C:\Users\Phuong\AppData\Local\Temp\cct5AIDl.s 			page 31


 818:Generated_Source\PSoC6\pdl\drivers/peripheral/syslib/cy_syslib.h **** void Cy_SysLib_ClearResetReason(void);
 819:Generated_Source\PSoC6\pdl\drivers/peripheral/syslib/cy_syslib.h **** uint64_t Cy_SysLib_GetUniqueId(void);
 820:Generated_Source\PSoC6\pdl\drivers/peripheral/syslib/cy_syslib.h **** #if (CY_CPU_CORTEX_M0P)
 821:Generated_Source\PSoC6\pdl\drivers/peripheral/syslib/cy_syslib.h ****     void Cy_SysLib_SoftResetCM4(void);
 822:Generated_Source\PSoC6\pdl\drivers/peripheral/syslib/cy_syslib.h **** #endif /* CY_CPU_CORTEX_M0P */
 823:Generated_Source\PSoC6\pdl\drivers/peripheral/syslib/cy_syslib.h **** #if (CY_ARM_FAULT_DEBUG == CY_ARM_FAULT_DEBUG_ENABLED) || defined(CY_DOXYGEN)
 824:Generated_Source\PSoC6\pdl\drivers/peripheral/syslib/cy_syslib.h ****     void Cy_SysLib_FaultHandler(uint32_t const *faultStackAddr);
 825:Generated_Source\PSoC6\pdl\drivers/peripheral/syslib/cy_syslib.h ****     void Cy_SysLib_ProcessingFault(void);
 826:Generated_Source\PSoC6\pdl\drivers/peripheral/syslib/cy_syslib.h **** #endif /* (CY_ARM_FAULT_DEBUG == CY_ARM_FAULT_DEBUG_ENABLED) */
 827:Generated_Source\PSoC6\pdl\drivers/peripheral/syslib/cy_syslib.h **** void Cy_SysLib_SetWaitStates(bool ulpMode, uint32_t clkHfMHz);
 828:Generated_Source\PSoC6\pdl\drivers/peripheral/syslib/cy_syslib.h **** 
 829:Generated_Source\PSoC6\pdl\drivers/peripheral/syslib/cy_syslib.h **** 
 830:Generated_Source\PSoC6\pdl\drivers/peripheral/syslib/cy_syslib.h **** /*******************************************************************************
 831:Generated_Source\PSoC6\pdl\drivers/peripheral/syslib/cy_syslib.h **** * Function Name: Cy_SysLib_EnterCriticalSection
 832:Generated_Source\PSoC6\pdl\drivers/peripheral/syslib/cy_syslib.h **** ****************************************************************************//**
 833:Generated_Source\PSoC6\pdl\drivers/peripheral/syslib/cy_syslib.h **** *
 834:Generated_Source\PSoC6\pdl\drivers/peripheral/syslib/cy_syslib.h **** *  Cy_SysLib_EnterCriticalSection disables interrupts and returns a value
 835:Generated_Source\PSoC6\pdl\drivers/peripheral/syslib/cy_syslib.h **** *  indicating whether the interrupts were previously enabled.
 836:Generated_Source\PSoC6\pdl\drivers/peripheral/syslib/cy_syslib.h **** *
 837:Generated_Source\PSoC6\pdl\drivers/peripheral/syslib/cy_syslib.h **** *  \return Returns the current interrupt status. Returns 0 if the interrupts
 838:Generated_Source\PSoC6\pdl\drivers/peripheral/syslib/cy_syslib.h **** *          were previously enabled or 1 if the interrupts were previously
 839:Generated_Source\PSoC6\pdl\drivers/peripheral/syslib/cy_syslib.h **** *          disabled.
 840:Generated_Source\PSoC6\pdl\drivers/peripheral/syslib/cy_syslib.h **** *
 841:Generated_Source\PSoC6\pdl\drivers/peripheral/syslib/cy_syslib.h **** *  \note Implementation of Cy_SysLib_EnterCriticalSection manipulates the IRQ
 842:Generated_Source\PSoC6\pdl\drivers/peripheral/syslib/cy_syslib.h **** *        enable bit with interrupts still enabled.
 843:Generated_Source\PSoC6\pdl\drivers/peripheral/syslib/cy_syslib.h **** *
 844:Generated_Source\PSoC6\pdl\drivers/peripheral/syslib/cy_syslib.h **** *******************************************************************************/
 845:Generated_Source\PSoC6\pdl\drivers/peripheral/syslib/cy_syslib.h **** uint32_t Cy_SysLib_EnterCriticalSection(void);
 846:Generated_Source\PSoC6\pdl\drivers/peripheral/syslib/cy_syslib.h **** 
 847:Generated_Source\PSoC6\pdl\drivers/peripheral/syslib/cy_syslib.h **** 
 848:Generated_Source\PSoC6\pdl\drivers/peripheral/syslib/cy_syslib.h **** /*******************************************************************************
 849:Generated_Source\PSoC6\pdl\drivers/peripheral/syslib/cy_syslib.h **** * Function Name: Cy_SysLib_ExitCriticalSection
 850:Generated_Source\PSoC6\pdl\drivers/peripheral/syslib/cy_syslib.h **** ****************************************************************************//**
 851:Generated_Source\PSoC6\pdl\drivers/peripheral/syslib/cy_syslib.h **** *
 852:Generated_Source\PSoC6\pdl\drivers/peripheral/syslib/cy_syslib.h **** *  Re-enables the interrupts if they were enabled before
 853:Generated_Source\PSoC6\pdl\drivers/peripheral/syslib/cy_syslib.h **** *  Cy_SysLib_EnterCriticalSection() was called. The argument should be the value
 854:Generated_Source\PSoC6\pdl\drivers/peripheral/syslib/cy_syslib.h **** *  returned from \ref Cy_SysLib_EnterCriticalSection().
 855:Generated_Source\PSoC6\pdl\drivers/peripheral/syslib/cy_syslib.h **** *
 856:Generated_Source\PSoC6\pdl\drivers/peripheral/syslib/cy_syslib.h **** *  \param savedIntrStatus  Puts the saved interrupts status returned by
 857:Generated_Source\PSoC6\pdl\drivers/peripheral/syslib/cy_syslib.h **** *                          the \ref Cy_SysLib_EnterCriticalSection().
 858:Generated_Source\PSoC6\pdl\drivers/peripheral/syslib/cy_syslib.h **** *
 859:Generated_Source\PSoC6\pdl\drivers/peripheral/syslib/cy_syslib.h **** *******************************************************************************/
 860:Generated_Source\PSoC6\pdl\drivers/peripheral/syslib/cy_syslib.h **** void Cy_SysLib_ExitCriticalSection(uint32_t savedIntrStatus);
 861:Generated_Source\PSoC6\pdl\drivers/peripheral/syslib/cy_syslib.h **** 
 862:Generated_Source\PSoC6\pdl\drivers/peripheral/syslib/cy_syslib.h **** 
 863:Generated_Source\PSoC6\pdl\drivers/peripheral/syslib/cy_syslib.h **** /** \cond INTERNAL */
 864:Generated_Source\PSoC6\pdl\drivers/peripheral/syslib/cy_syslib.h **** #define CY_SYSLIB_DEVICE_REV_0A       (0x21U)  /**< The device TO *A Revision ID */
 865:Generated_Source\PSoC6\pdl\drivers/peripheral/syslib/cy_syslib.h **** #define CY_SYSLIB_DEVICE_PSOC6ABLE2   (0x100U) /**< The PSoC6 BLE2 device Family ID */
 866:Generated_Source\PSoC6\pdl\drivers/peripheral/syslib/cy_syslib.h **** 
 867:Generated_Source\PSoC6\pdl\drivers/peripheral/syslib/cy_syslib.h **** 
 868:Generated_Source\PSoC6\pdl\drivers/peripheral/syslib/cy_syslib.h **** /*******************************************************************************
 869:Generated_Source\PSoC6\pdl\drivers/peripheral/syslib/cy_syslib.h **** * Function Name: Cy_SysLib_GetDeviceRevision
 870:Generated_Source\PSoC6\pdl\drivers/peripheral/syslib/cy_syslib.h **** ****************************************************************************//**
 871:Generated_Source\PSoC6\pdl\drivers/peripheral/syslib/cy_syslib.h **** *
 872:Generated_Source\PSoC6\pdl\drivers/peripheral/syslib/cy_syslib.h **** * This function returns a device Revision ID.
 873:Generated_Source\PSoC6\pdl\drivers/peripheral/syslib/cy_syslib.h **** *
 874:Generated_Source\PSoC6\pdl\drivers/peripheral/syslib/cy_syslib.h **** * \return  A device Revision ID.
ARM GAS  C:\Users\Phuong\AppData\Local\Temp\cct5AIDl.s 			page 32


 875:Generated_Source\PSoC6\pdl\drivers/peripheral/syslib/cy_syslib.h **** *
 876:Generated_Source\PSoC6\pdl\drivers/peripheral/syslib/cy_syslib.h **** *******************************************************************************/
 877:Generated_Source\PSoC6\pdl\drivers/peripheral/syslib/cy_syslib.h **** __STATIC_INLINE uint8_t Cy_SysLib_GetDeviceRevision(void)
 878:Generated_Source\PSoC6\pdl\drivers/peripheral/syslib/cy_syslib.h **** {
 879:Generated_Source\PSoC6\pdl\drivers/peripheral/syslib/cy_syslib.h ****     return ((SFLASH->SI_REVISION_ID == 0UL) ? CY_SYSLIB_DEVICE_REV_0A : SFLASH->SI_REVISION_ID);
 477              		.loc 2 879 0
 478 006c B023     		movs	r3, #176
 479 006e 5B05     		lsls	r3, r3, #21
 480 0070 5B78     		ldrb	r3, [r3, #1]
 481 0072 002B     		cmp	r3, #0
 482 0074 04D0     		beq	.L27
 483 0076 B023     		movs	r3, #176
 484 0078 5B05     		lsls	r3, r3, #21
 485 007a 5B78     		ldrb	r3, [r3, #1]
 486 007c DBB2     		uxtb	r3, r3
 487 007e 00E0     		b	.L25
 488              	.L27:
 489 0080 2123     		movs	r3, #33
 490              	.L25:
 491              	.LBE11:
 492              	.LBE10:
 196:system_psoc62_cm0plus.c ****         {
 493              		.loc 1 196 0
 494 0082 212B     		cmp	r3, #33
 495 0084 03D1     		bne	.L24
 199:system_psoc62_cm0plus.c ****             /* Release IPC structure #7 to avoid deadlocks in case of SW or WDT reset during Deep-S
 496              		.loc 1 199 0
 497 0086 064B     		ldr	r3, .L28+16
 498 0088 0022     		movs	r2, #0
 499 008a DA60     		str	r2, [r3, #12]
 201:system_psoc62_cm0plus.c ****         }
 500              		.loc 1 201 0
 501 008c 5A60     		str	r2, [r3, #4]
 502              	.L24:
 205:system_psoc62_cm0plus.c **** 
 503              		.loc 1 205 0
 504              		@ sp needed
 505 008e 10BD     		pop	{r4, pc}
 506              	.L29:
 507              		.align	2
 508              	.L28:
 509 0090 00002640 		.word	1076232192
 510 0094 01000200 		.word	131073
 511 0098 84050000 		.word	1412
 512 009c 8C050000 		.word	1420
 513 00a0 E0002340 		.word	1076035808
 514              		.cfi_endproc
 515              	.LFE55:
 516              		.size	SystemInit, .-SystemInit
 517              		.section	.text.Cy_SysGetCM4Status,"ax",%progbits
 518              		.align	2
 519              		.global	Cy_SysGetCM4Status
 520              		.code	16
 521              		.thumb_func
 522              		.type	Cy_SysGetCM4Status, %function
 523              	Cy_SysGetCM4Status:
 524              	.LFB58:
ARM GAS  C:\Users\Phuong\AppData\Local\Temp\cct5AIDl.s 			page 33


 393:system_psoc62_cm0plus.c **** 
 394:system_psoc62_cm0plus.c **** 
 395:system_psoc62_cm0plus.c **** #if (CY_SYSTEM_CPU_CM0P == 1UL) || defined(CY_DOXYGEN)
 396:system_psoc62_cm0plus.c **** /*******************************************************************************
 397:system_psoc62_cm0plus.c **** * Function Name: Cy_SysGetCM4Status
 398:system_psoc62_cm0plus.c **** ****************************************************************************//**
 399:system_psoc62_cm0plus.c **** *
 400:system_psoc62_cm0plus.c **** * Returns the Cortex-M4 core power mode.
 401:system_psoc62_cm0plus.c **** *
 402:system_psoc62_cm0plus.c **** * \return \ref group_system_config_cm4_status_macro
 403:system_psoc62_cm0plus.c **** *
 404:system_psoc62_cm0plus.c **** *******************************************************************************/
 405:system_psoc62_cm0plus.c **** uint32_t Cy_SysGetCM4Status(void)
 406:system_psoc62_cm0plus.c **** {
 525              		.loc 1 406 0
 526              		.cfi_startproc
 527              		@ args = 0, pretend = 0, frame = 0
 528              		@ frame_needed = 0, uses_anonymous_args = 0
 529              		@ link register save eliminated.
 407:system_psoc62_cm0plus.c ****     uint32_t regValue;
 408:system_psoc62_cm0plus.c **** 
 409:system_psoc62_cm0plus.c ****     /* Get current power mode */
 410:system_psoc62_cm0plus.c ****     regValue = CPUSS->CM4_PWR_CTL & CPUSS_CM4_PWR_CTL_PWR_MODE_Msk;
 530              		.loc 1 410 0
 531 0000 8023     		movs	r3, #128
 532 0002 024A     		ldr	r2, .L31
 533 0004 D358     		ldr	r3, [r2, r3]
 534 0006 0320     		movs	r0, #3
 535 0008 1840     		ands	r0, r3
 536              	.LVL55:
 411:system_psoc62_cm0plus.c **** 
 412:system_psoc62_cm0plus.c ****     return (regValue);
 413:system_psoc62_cm0plus.c **** }
 537              		.loc 1 413 0
 538              		@ sp needed
 539 000a 7047     		bx	lr
 540              	.L32:
 541              		.align	2
 542              	.L31:
 543 000c 00002140 		.word	1075904512
 544              		.cfi_endproc
 545              	.LFE58:
 546              		.size	Cy_SysGetCM4Status, .-Cy_SysGetCM4Status
 547              		.section	.text.Cy_SysDisableCM4,"ax",%progbits
 548              		.align	2
 549              		.global	Cy_SysDisableCM4
 550              		.code	16
 551              		.thumb_func
 552              		.type	Cy_SysDisableCM4, %function
 553              	Cy_SysDisableCM4:
 554              	.LFB60:
 414:system_psoc62_cm0plus.c **** 
 415:system_psoc62_cm0plus.c **** 
 416:system_psoc62_cm0plus.c **** /*******************************************************************************
 417:system_psoc62_cm0plus.c **** * Function Name: Cy_SysEnableCM4
 418:system_psoc62_cm0plus.c **** ****************************************************************************//**
 419:system_psoc62_cm0plus.c **** *
ARM GAS  C:\Users\Phuong\AppData\Local\Temp\cct5AIDl.s 			page 34


 420:system_psoc62_cm0plus.c **** * Sets vector table base address and enables the Cortex-M4 core.
 421:system_psoc62_cm0plus.c **** *
 422:system_psoc62_cm0plus.c **** * \note If the CPU is already enabled, it is reset and then enabled.
 423:system_psoc62_cm0plus.c **** *
 424:system_psoc62_cm0plus.c **** * \param vectorTableOffset The offset of the vector table base address from
 425:system_psoc62_cm0plus.c **** * memory address 0x00000000. The offset should be multiple to 1024 bytes.
 426:system_psoc62_cm0plus.c **** *
 427:system_psoc62_cm0plus.c **** *******************************************************************************/
 428:system_psoc62_cm0plus.c **** void Cy_SysEnableCM4(uint32_t vectorTableOffset)
 429:system_psoc62_cm0plus.c **** {
 430:system_psoc62_cm0plus.c ****     uint32_t regValue;
 431:system_psoc62_cm0plus.c ****     uint32_t interruptState;
 432:system_psoc62_cm0plus.c ****     uint32_t cpuState;
 433:system_psoc62_cm0plus.c **** 
 434:system_psoc62_cm0plus.c ****     interruptState = Cy_SaveIRQ();
 435:system_psoc62_cm0plus.c **** 
 436:system_psoc62_cm0plus.c ****     cpuState = Cy_SysGetCM4Status();
 437:system_psoc62_cm0plus.c ****     if (CY_SYS_CM4_STATUS_ENABLED == cpuState)
 438:system_psoc62_cm0plus.c ****     {
 439:system_psoc62_cm0plus.c ****         Cy_SysResetCM4();
 440:system_psoc62_cm0plus.c ****     }
 441:system_psoc62_cm0plus.c **** 
 442:system_psoc62_cm0plus.c ****     CPUSS->CM4_VECTOR_TABLE_BASE = vectorTableOffset;
 443:system_psoc62_cm0plus.c **** 
 444:system_psoc62_cm0plus.c ****     regValue = CPUSS->CM4_PWR_CTL & ~(CPUSS_CM4_PWR_CTL_VECTKEYSTAT_Msk | CPUSS_CM4_PWR_CTL_PWR_MOD
 445:system_psoc62_cm0plus.c ****     regValue |= _VAL2FLD(CPUSS_CM4_PWR_CTL_VECTKEYSTAT, CY_SYS_CM4_PWR_CTL_KEY_OPEN);
 446:system_psoc62_cm0plus.c ****     regValue |= CY_SYS_CM4_STATUS_ENABLED;
 447:system_psoc62_cm0plus.c ****     CPUSS->CM4_PWR_CTL = regValue;
 448:system_psoc62_cm0plus.c **** 
 449:system_psoc62_cm0plus.c ****     while((CPUSS->CM4_STATUS & CPUSS_CM4_STATUS_PWR_DONE_Msk) == 0UL)
 450:system_psoc62_cm0plus.c ****     {
 451:system_psoc62_cm0plus.c ****         /* Wait for the power mode to take effect */
 452:system_psoc62_cm0plus.c ****     }
 453:system_psoc62_cm0plus.c **** 
 454:system_psoc62_cm0plus.c ****     Cy_RestoreIRQ(interruptState);
 455:system_psoc62_cm0plus.c **** }
 456:system_psoc62_cm0plus.c **** 
 457:system_psoc62_cm0plus.c **** 
 458:system_psoc62_cm0plus.c **** /*******************************************************************************
 459:system_psoc62_cm0plus.c **** * Function Name: Cy_SysDisableCM4
 460:system_psoc62_cm0plus.c **** ****************************************************************************//**
 461:system_psoc62_cm0plus.c **** *
 462:system_psoc62_cm0plus.c **** * Disables the Cortex-M4 core and waits for the mode to take the effect.
 463:system_psoc62_cm0plus.c **** *
 464:system_psoc62_cm0plus.c **** * \warning Do not call the function while the Cortex-M4 is executing because
 465:system_psoc62_cm0plus.c **** * such a call may corrupt/abort a pending bus-transaction by the CPU and cause
 466:system_psoc62_cm0plus.c **** * unexpected behavior in the system including a deadlock. Call the function
 467:system_psoc62_cm0plus.c **** * while the Cortex-M4 core is in the Sleep or Deep Sleep low-power mode. Use
 468:system_psoc62_cm0plus.c **** * the \ref group_syspm Power Management (syspm) API to put the CPU into the
 469:system_psoc62_cm0plus.c **** * low-power modes. Use the \ref Cy_SysPm_ReadStatus() to get a status of the
 470:system_psoc62_cm0plus.c **** * CPU.
 471:system_psoc62_cm0plus.c **** *
 472:system_psoc62_cm0plus.c **** *******************************************************************************/
 473:system_psoc62_cm0plus.c **** void Cy_SysDisableCM4(void)
 474:system_psoc62_cm0plus.c **** {
 555              		.loc 1 474 0
 556              		.cfi_startproc
ARM GAS  C:\Users\Phuong\AppData\Local\Temp\cct5AIDl.s 			page 35


 557              		@ args = 0, pretend = 0, frame = 0
 558              		@ frame_needed = 0, uses_anonymous_args = 0
 559 0000 10B5     		push	{r4, lr}
 560              		.cfi_def_cfa_offset 8
 561              		.cfi_offset 4, -8
 562              		.cfi_offset 14, -4
 475:system_psoc62_cm0plus.c ****     uint32_t interruptState;
 476:system_psoc62_cm0plus.c ****     uint32_t regValue;
 477:system_psoc62_cm0plus.c **** 
 478:system_psoc62_cm0plus.c ****     interruptState = Cy_SaveIRQ();
 563              		.loc 1 478 0
 564 0002 FFF7FEFF 		bl	Cy_SaveIRQ
 565              	.LVL56:
 479:system_psoc62_cm0plus.c **** 
 480:system_psoc62_cm0plus.c ****     regValue = CPUSS->CM4_PWR_CTL & ~(CPUSS_CM4_PWR_CTL_VECTKEYSTAT_Msk | CPUSS_CM4_PWR_CTL_PWR_MOD
 566              		.loc 1 480 0
 567 0006 0849     		ldr	r1, .L35
 568 0008 8022     		movs	r2, #128
 569 000a 8C58     		ldr	r4, [r1, r2]
 570 000c 074B     		ldr	r3, .L35+4
 571 000e 2340     		ands	r3, r4
 572              	.LVL57:
 481:system_psoc62_cm0plus.c ****     regValue |= _VAL2FLD(CPUSS_CM4_PWR_CTL_VECTKEYSTAT, CY_SYS_CM4_PWR_CTL_KEY_OPEN);
 573              		.loc 1 481 0
 574 0010 074C     		ldr	r4, .L35+8
 575 0012 2343     		orrs	r3, r4
 576              	.LVL58:
 482:system_psoc62_cm0plus.c ****     regValue |= CY_SYS_CM4_STATUS_DISABLED;
 483:system_psoc62_cm0plus.c ****     CPUSS->CM4_PWR_CTL = regValue;
 577              		.loc 1 483 0
 578 0014 8B50     		str	r3, [r1, r2]
 579              	.LVL59:
 580              	.L34:
 484:system_psoc62_cm0plus.c **** 
 485:system_psoc62_cm0plus.c ****     while((CPUSS->CM4_STATUS & CPUSS_CM4_STATUS_PWR_DONE_Msk) == 0UL)
 581              		.loc 1 485 0 discriminator 1
 582 0016 8823     		movs	r3, #136
 583 0018 034A     		ldr	r2, .L35
 584 001a D358     		ldr	r3, [r2, r3]
 585 001c DB06     		lsls	r3, r3, #27
 586 001e FAD5     		bpl	.L34
 486:system_psoc62_cm0plus.c ****     {
 487:system_psoc62_cm0plus.c ****         /* Wait for the power mode to take effect */
 488:system_psoc62_cm0plus.c ****     }
 489:system_psoc62_cm0plus.c **** 
 490:system_psoc62_cm0plus.c ****     Cy_RestoreIRQ(interruptState);
 587              		.loc 1 490 0
 588 0020 FFF7FEFF 		bl	Cy_RestoreIRQ
 589              	.LVL60:
 491:system_psoc62_cm0plus.c **** }
 590              		.loc 1 491 0
 591              		@ sp needed
 592 0024 10BD     		pop	{r4, pc}
 593              	.L36:
 594 0026 C046     		.align	2
 595              	.L35:
 596 0028 00002140 		.word	1075904512
ARM GAS  C:\Users\Phuong\AppData\Local\Temp\cct5AIDl.s 			page 36


 597 002c FCFF0000 		.word	65532
 598 0030 0000FA05 		.word	100270080
 599              		.cfi_endproc
 600              	.LFE60:
 601              		.size	Cy_SysDisableCM4, .-Cy_SysDisableCM4
 602              		.section	.text.Cy_SysRetainCM4,"ax",%progbits
 603              		.align	2
 604              		.global	Cy_SysRetainCM4
 605              		.code	16
 606              		.thumb_func
 607              		.type	Cy_SysRetainCM4, %function
 608              	Cy_SysRetainCM4:
 609              	.LFB61:
 492:system_psoc62_cm0plus.c **** 
 493:system_psoc62_cm0plus.c **** 
 494:system_psoc62_cm0plus.c **** /*******************************************************************************
 495:system_psoc62_cm0plus.c **** * Function Name: Cy_SysRetainCM4
 496:system_psoc62_cm0plus.c **** ****************************************************************************//**
 497:system_psoc62_cm0plus.c **** *
 498:system_psoc62_cm0plus.c **** * Retains the Cortex-M4 core and exists without waiting for the mode to take
 499:system_psoc62_cm0plus.c **** * effect.
 500:system_psoc62_cm0plus.c **** *
 501:system_psoc62_cm0plus.c **** * \note The retained mode can be entered only from the enabled mode.
 502:system_psoc62_cm0plus.c **** *
 503:system_psoc62_cm0plus.c **** * \warning Do not call the function while the Cortex-M4 is executing because
 504:system_psoc62_cm0plus.c **** * such a call may corrupt/abort a pending bus-transaction by the CPU and cause
 505:system_psoc62_cm0plus.c **** * unexpected behavior in the system including a deadlock. Call the function
 506:system_psoc62_cm0plus.c **** * while the Cortex-M4 core is in the Sleep or Deep Sleep low-power mode. Use
 507:system_psoc62_cm0plus.c **** * the \ref group_syspm Power Management (syspm) API to put the CPU into the
 508:system_psoc62_cm0plus.c **** * low-power modes. Use the \ref Cy_SysPm_ReadStatus() to get a status of the CPU.
 509:system_psoc62_cm0plus.c **** *
 510:system_psoc62_cm0plus.c **** *******************************************************************************/
 511:system_psoc62_cm0plus.c **** void Cy_SysRetainCM4(void)
 512:system_psoc62_cm0plus.c **** {
 610              		.loc 1 512 0
 611              		.cfi_startproc
 612              		@ args = 0, pretend = 0, frame = 0
 613              		@ frame_needed = 0, uses_anonymous_args = 0
 614 0000 10B5     		push	{r4, lr}
 615              		.cfi_def_cfa_offset 8
 616              		.cfi_offset 4, -8
 617              		.cfi_offset 14, -4
 513:system_psoc62_cm0plus.c ****     uint32_t interruptState;
 514:system_psoc62_cm0plus.c ****     uint32_t regValue;
 515:system_psoc62_cm0plus.c **** 
 516:system_psoc62_cm0plus.c ****     interruptState = Cy_SaveIRQ();
 618              		.loc 1 516 0
 619 0002 FFF7FEFF 		bl	Cy_SaveIRQ
 620              	.LVL61:
 517:system_psoc62_cm0plus.c **** 
 518:system_psoc62_cm0plus.c ****     regValue = CPUSS->CM4_PWR_CTL & ~(CPUSS_CM4_PWR_CTL_VECTKEYSTAT_Msk | CPUSS_CM4_PWR_CTL_PWR_MOD
 621              		.loc 1 518 0
 622 0006 0549     		ldr	r1, .L38
 623 0008 8022     		movs	r2, #128
 624 000a 8C58     		ldr	r4, [r1, r2]
 625 000c 044B     		ldr	r3, .L38+4
 626 000e 2340     		ands	r3, r4
ARM GAS  C:\Users\Phuong\AppData\Local\Temp\cct5AIDl.s 			page 37


 627              	.LVL62:
 519:system_psoc62_cm0plus.c ****     regValue |= _VAL2FLD(CPUSS_CM4_PWR_CTL_VECTKEYSTAT, CY_SYS_CM4_PWR_CTL_KEY_OPEN);
 520:system_psoc62_cm0plus.c ****     regValue |= CY_SYS_CM4_STATUS_RETAINED;
 628              		.loc 1 520 0
 629 0010 044C     		ldr	r4, .L38+8
 630 0012 2343     		orrs	r3, r4
 631              	.LVL63:
 521:system_psoc62_cm0plus.c ****     CPUSS->CM4_PWR_CTL = regValue;
 632              		.loc 1 521 0
 633 0014 8B50     		str	r3, [r1, r2]
 522:system_psoc62_cm0plus.c **** 
 523:system_psoc62_cm0plus.c ****     Cy_RestoreIRQ(interruptState);
 634              		.loc 1 523 0
 635 0016 FFF7FEFF 		bl	Cy_RestoreIRQ
 636              	.LVL64:
 524:system_psoc62_cm0plus.c **** }
 637              		.loc 1 524 0
 638              		@ sp needed
 639 001a 10BD     		pop	{r4, pc}
 640              	.L39:
 641              		.align	2
 642              	.L38:
 643 001c 00002140 		.word	1075904512
 644 0020 FCFF0000 		.word	65532
 645 0024 0200FA05 		.word	100270082
 646              		.cfi_endproc
 647              	.LFE61:
 648              		.size	Cy_SysRetainCM4, .-Cy_SysRetainCM4
 649              		.section	.text.Cy_SysResetCM4,"ax",%progbits
 650              		.align	2
 651              		.global	Cy_SysResetCM4
 652              		.code	16
 653              		.thumb_func
 654              		.type	Cy_SysResetCM4, %function
 655              	Cy_SysResetCM4:
 656              	.LFB62:
 525:system_psoc62_cm0plus.c **** 
 526:system_psoc62_cm0plus.c **** 
 527:system_psoc62_cm0plus.c **** /*******************************************************************************
 528:system_psoc62_cm0plus.c **** * Function Name: Cy_SysResetCM4
 529:system_psoc62_cm0plus.c **** ****************************************************************************//**
 530:system_psoc62_cm0plus.c **** *
 531:system_psoc62_cm0plus.c **** * Resets the Cortex-M4 core and waits for the mode to take the effect.
 532:system_psoc62_cm0plus.c **** *
 533:system_psoc62_cm0plus.c **** * \note The reset mode can not be entered from the retained mode.
 534:system_psoc62_cm0plus.c **** *
 535:system_psoc62_cm0plus.c **** * \warning Do not call the function while the Cortex-M4 is executing because
 536:system_psoc62_cm0plus.c **** * such a call may corrupt/abort a pending bus-transaction by the CPU and cause
 537:system_psoc62_cm0plus.c **** * unexpected behavior in the system including a deadlock. Call the function
 538:system_psoc62_cm0plus.c **** * while the Cortex-M4 core is in the Sleep or Deep Sleep low-power mode. Use
 539:system_psoc62_cm0plus.c **** * the \ref group_syspm Power Management (syspm) API to put the CPU into the
 540:system_psoc62_cm0plus.c **** * low-power modes. Use the \ref Cy_SysPm_ReadStatus() to get a status of the CPU.
 541:system_psoc62_cm0plus.c **** *
 542:system_psoc62_cm0plus.c **** *******************************************************************************/
 543:system_psoc62_cm0plus.c **** void Cy_SysResetCM4(void)
 544:system_psoc62_cm0plus.c **** {
 657              		.loc 1 544 0
ARM GAS  C:\Users\Phuong\AppData\Local\Temp\cct5AIDl.s 			page 38


 658              		.cfi_startproc
 659              		@ args = 0, pretend = 0, frame = 0
 660              		@ frame_needed = 0, uses_anonymous_args = 0
 661 0000 10B5     		push	{r4, lr}
 662              		.cfi_def_cfa_offset 8
 663              		.cfi_offset 4, -8
 664              		.cfi_offset 14, -4
 545:system_psoc62_cm0plus.c ****     uint32_t interruptState;
 546:system_psoc62_cm0plus.c ****     uint32_t regValue;
 547:system_psoc62_cm0plus.c **** 
 548:system_psoc62_cm0plus.c ****     interruptState = Cy_SaveIRQ();
 665              		.loc 1 548 0
 666 0002 FFF7FEFF 		bl	Cy_SaveIRQ
 667              	.LVL65:
 549:system_psoc62_cm0plus.c **** 
 550:system_psoc62_cm0plus.c ****     regValue = CPUSS->CM4_PWR_CTL & ~(CPUSS_CM4_PWR_CTL_VECTKEYSTAT_Msk | CPUSS_CM4_PWR_CTL_PWR_MOD
 668              		.loc 1 550 0
 669 0006 0849     		ldr	r1, .L42
 670 0008 8022     		movs	r2, #128
 671 000a 8C58     		ldr	r4, [r1, r2]
 672 000c 074B     		ldr	r3, .L42+4
 673 000e 2340     		ands	r3, r4
 674              	.LVL66:
 551:system_psoc62_cm0plus.c ****     regValue |= _VAL2FLD(CPUSS_CM4_PWR_CTL_VECTKEYSTAT, CY_SYS_CM4_PWR_CTL_KEY_OPEN);
 552:system_psoc62_cm0plus.c ****     regValue |= CY_SYS_CM4_STATUS_RESET;
 675              		.loc 1 552 0
 676 0010 074C     		ldr	r4, .L42+8
 677 0012 2343     		orrs	r3, r4
 678              	.LVL67:
 553:system_psoc62_cm0plus.c ****     CPUSS->CM4_PWR_CTL = regValue;
 679              		.loc 1 553 0
 680 0014 8B50     		str	r3, [r1, r2]
 681              	.LVL68:
 682              	.L41:
 554:system_psoc62_cm0plus.c **** 
 555:system_psoc62_cm0plus.c ****     while((CPUSS->CM4_STATUS & CPUSS_CM4_STATUS_PWR_DONE_Msk) == 0UL)
 683              		.loc 1 555 0 discriminator 1
 684 0016 8823     		movs	r3, #136
 685 0018 034A     		ldr	r2, .L42
 686 001a D358     		ldr	r3, [r2, r3]
 687 001c DB06     		lsls	r3, r3, #27
 688 001e FAD5     		bpl	.L41
 556:system_psoc62_cm0plus.c ****     {
 557:system_psoc62_cm0plus.c ****         /* Wait for the power mode to take effect */
 558:system_psoc62_cm0plus.c ****     }
 559:system_psoc62_cm0plus.c **** 
 560:system_psoc62_cm0plus.c ****     Cy_RestoreIRQ(interruptState);
 689              		.loc 1 560 0
 690 0020 FFF7FEFF 		bl	Cy_RestoreIRQ
 691              	.LVL69:
 561:system_psoc62_cm0plus.c **** }
 692              		.loc 1 561 0
 693              		@ sp needed
 694 0024 10BD     		pop	{r4, pc}
 695              	.L43:
 696 0026 C046     		.align	2
 697              	.L42:
ARM GAS  C:\Users\Phuong\AppData\Local\Temp\cct5AIDl.s 			page 39


 698 0028 00002140 		.word	1075904512
 699 002c FCFF0000 		.word	65532
 700 0030 0100FA05 		.word	100270081
 701              		.cfi_endproc
 702              	.LFE62:
 703              		.size	Cy_SysResetCM4, .-Cy_SysResetCM4
 704              		.section	.text.Cy_SysEnableCM4,"ax",%progbits
 705              		.align	2
 706              		.global	Cy_SysEnableCM4
 707              		.code	16
 708              		.thumb_func
 709              		.type	Cy_SysEnableCM4, %function
 710              	Cy_SysEnableCM4:
 711              	.LFB59:
 429:system_psoc62_cm0plus.c ****     uint32_t regValue;
 712              		.loc 1 429 0
 713              		.cfi_startproc
 714              		@ args = 0, pretend = 0, frame = 0
 715              		@ frame_needed = 0, uses_anonymous_args = 0
 716              	.LVL70:
 717 0000 70B5     		push	{r4, r5, r6, lr}
 718              		.cfi_def_cfa_offset 16
 719              		.cfi_offset 4, -16
 720              		.cfi_offset 5, -12
 721              		.cfi_offset 6, -8
 722              		.cfi_offset 14, -4
 723 0002 0500     		movs	r5, r0
 434:system_psoc62_cm0plus.c **** 
 724              		.loc 1 434 0
 725 0004 FFF7FEFF 		bl	Cy_SaveIRQ
 726              	.LVL71:
 727 0008 0400     		movs	r4, r0
 728              	.LVL72:
 436:system_psoc62_cm0plus.c ****     if (CY_SYS_CM4_STATUS_ENABLED == cpuState)
 729              		.loc 1 436 0
 730 000a FFF7FEFF 		bl	Cy_SysGetCM4Status
 731              	.LVL73:
 437:system_psoc62_cm0plus.c ****     {
 732              		.loc 1 437 0
 733 000e 0328     		cmp	r0, #3
 734 0010 01D1     		bne	.L45
 439:system_psoc62_cm0plus.c ****     }
 735              		.loc 1 439 0
 736 0012 FFF7FEFF 		bl	Cy_SysResetCM4
 737              	.LVL74:
 738              	.L45:
 442:system_psoc62_cm0plus.c **** 
 739              		.loc 1 442 0
 740 0016 0A4A     		ldr	r2, .L47
 741 0018 B023     		movs	r3, #176
 742 001a 9B00     		lsls	r3, r3, #2
 743 001c D550     		str	r5, [r2, r3]
 444:system_psoc62_cm0plus.c ****     regValue |= _VAL2FLD(CPUSS_CM4_PWR_CTL_VECTKEYSTAT, CY_SYS_CM4_PWR_CTL_KEY_OPEN);
 744              		.loc 1 444 0
 745 001e 8021     		movs	r1, #128
 746 0020 5058     		ldr	r0, [r2, r1]
 747 0022 084B     		ldr	r3, .L47+4
ARM GAS  C:\Users\Phuong\AppData\Local\Temp\cct5AIDl.s 			page 40


 748 0024 0340     		ands	r3, r0
 749              	.LVL75:
 446:system_psoc62_cm0plus.c ****     CPUSS->CM4_PWR_CTL = regValue;
 750              		.loc 1 446 0
 751 0026 0848     		ldr	r0, .L47+8
 752 0028 0343     		orrs	r3, r0
 753              	.LVL76:
 447:system_psoc62_cm0plus.c **** 
 754              		.loc 1 447 0
 755 002a 5350     		str	r3, [r2, r1]
 756              	.LVL77:
 757              	.L46:
 449:system_psoc62_cm0plus.c ****     {
 758              		.loc 1 449 0 discriminator 1
 759 002c 8823     		movs	r3, #136
 760 002e 044A     		ldr	r2, .L47
 761 0030 D358     		ldr	r3, [r2, r3]
 762 0032 DB06     		lsls	r3, r3, #27
 763 0034 FAD5     		bpl	.L46
 454:system_psoc62_cm0plus.c **** }
 764              		.loc 1 454 0
 765 0036 2000     		movs	r0, r4
 766 0038 FFF7FEFF 		bl	Cy_RestoreIRQ
 767              	.LVL78:
 455:system_psoc62_cm0plus.c **** 
 768              		.loc 1 455 0
 769              		@ sp needed
 770              	.LVL79:
 771              	.LVL80:
 772 003c 70BD     		pop	{r4, r5, r6, pc}
 773              	.L48:
 774 003e C046     		.align	2
 775              	.L47:
 776 0040 00002140 		.word	1075904512
 777 0044 FCFF0000 		.word	65532
 778 0048 0300FA05 		.word	100270083
 779              		.cfi_endproc
 780              	.LFE59:
 781              		.size	Cy_SysEnableCM4, .-Cy_SysEnableCM4
 782              		.global	cy_delay32kMs
 783              		.global	cy_delayFreqMhz
 784              		.global	cy_delayFreqKhz
 785              		.global	cy_delayFreqHz
 786              		.global	cy_PeriClkFreqHz
 787              		.global	cy_Hfclk0FreqHz
 788              		.global	SystemCoreClock
 789              		.data
 790              		.align	2
 791              		.set	.LANCHOR0,. + 0
 792              		.type	cy_Hfclk0FreqHz, %object
 793              		.size	cy_Hfclk0FreqHz, 4
 794              	cy_Hfclk0FreqHz:
 795 0000 00127A00 		.word	8000000
 796              		.type	cy_PeriClkFreqHz, %object
 797              		.size	cy_PeriClkFreqHz, 4
 798              	cy_PeriClkFreqHz:
 799 0004 00093D00 		.word	4000000
ARM GAS  C:\Users\Phuong\AppData\Local\Temp\cct5AIDl.s 			page 41


 800              		.type	SystemCoreClock, %object
 801              		.size	SystemCoreClock, 4
 802              	SystemCoreClock:
 803 0008 00093D00 		.word	4000000
 804              		.type	cy_delayFreqHz, %object
 805              		.size	cy_delayFreqHz, 4
 806              	cy_delayFreqHz:
 807 000c 00093D00 		.word	4000000
 808              		.type	cy_delayFreqMhz, %object
 809              		.size	cy_delayFreqMhz, 1
 810              	cy_delayFreqMhz:
 811 0010 04       		.byte	4
 812 0011 000000   		.space	3
 813              		.type	cy_delayFreqKhz, %object
 814              		.size	cy_delayFreqKhz, 4
 815              	cy_delayFreqKhz:
 816 0014 A00F0000 		.word	4000
 817              		.type	cy_delay32kMs, %object
 818              		.size	cy_delay32kMs, 4
 819              	cy_delay32kMs:
 820 0018 0000D007 		.word	131072000
 821              		.text
 822              	.Letext0:
 823              		.file 3 "c:\\program files (x86)\\cypress\\psoc creator\\4.2\\psoc creator\\import\\gnu\\arm\\5.4.
 824              		.file 4 "c:\\program files (x86)\\cypress\\psoc creator\\4.2\\psoc creator\\import\\gnu\\arm\\5.4.
 825              		.file 5 "Generated_Source\\PSoC6\\pdl\\devices/psoc6/ip/cyip_sflash.h"
 826              		.file 6 "Generated_Source\\PSoC6\\pdl\\devices/psoc6/ip/cyip_cpuss.h"
 827              		.file 7 "Generated_Source\\PSoC6\\pdl\\devices/psoc6/ip/cyip_ipc.h"
 828              		.file 8 "Generated_Source\\PSoC6\\pdl\\devices/psoc6/ip/cyip_srss.h"
 829              		.file 9 "./cy_ipc_config.h"
 830              		.file 10 "Generated_Source\\PSoC6\\pdl\\drivers/peripheral/flash/cy_flash.h"
 831              		.file 11 "system_psoc62.h"