ARM GAS  C:\Users\Phuong\AppData\Local\Temp\cczg95Bp.s 			page 1


   1              		.syntax unified
   2              		.cpu cortex-m0plus
   3              		.fpu softvfp
   4              		.eabi_attribute 20, 1
   5              		.eabi_attribute 21, 1
   6              		.eabi_attribute 23, 3
   7              		.eabi_attribute 24, 1
   8              		.eabi_attribute 25, 1
   9              		.eabi_attribute 26, 1
  10              		.eabi_attribute 30, 1
  11              		.eabi_attribute 34, 0
  12              		.eabi_attribute 18, 4
  13              		.thumb
  14              		.syntax unified
  15              		.file	"tcp.c"
  16              		.text
  17              	.Ltext0:
  18              		.cfi_sections	.debug_frame
  19              		.section	.text.tcp_remove_listener,"ax",%progbits
  20              		.align	2
  21              		.code	16
  22              		.thumb_func
  23              		.type	tcp_remove_listener, %function
  24              	tcp_remove_listener:
  25              	.LFB55:
  26              		.file 1 "Source\\LwIP\\src\\core\\tcp.c"
   1:Source\LwIP\src\core/tcp.c **** /**
   2:Source\LwIP\src\core/tcp.c ****  * @file 
   3:Source\LwIP\src\core/tcp.c ****  * Transmission Control Protocol for IP
   4:Source\LwIP\src\core/tcp.c ****  * See also @ref tcp_raw
   5:Source\LwIP\src\core/tcp.c ****  *
   6:Source\LwIP\src\core/tcp.c ****  * @defgroup tcp_raw TCP
   7:Source\LwIP\src\core/tcp.c ****  * @ingroup callbackstyle_api
   8:Source\LwIP\src\core/tcp.c ****  * Transmission Control Protocol for IP\n
   9:Source\LwIP\src\core/tcp.c ****  * @see @ref raw_api and @ref netconn
  10:Source\LwIP\src\core/tcp.c ****  *
  11:Source\LwIP\src\core/tcp.c ****  * Common functions for the TCP implementation, such as functinos
  12:Source\LwIP\src\core/tcp.c ****  * for manipulating the data structures and the TCP timer functions. TCP functions
  13:Source\LwIP\src\core/tcp.c ****  * related to input and output is found in tcp_in.c and tcp_out.c respectively.\n
  14:Source\LwIP\src\core/tcp.c ****  */
  15:Source\LwIP\src\core/tcp.c **** 
  16:Source\LwIP\src\core/tcp.c **** /*
  17:Source\LwIP\src\core/tcp.c ****  * Copyright (c) 2001-2004 Swedish Institute of Computer Science.
  18:Source\LwIP\src\core/tcp.c ****  * All rights reserved.
  19:Source\LwIP\src\core/tcp.c ****  *
  20:Source\LwIP\src\core/tcp.c ****  * Redistribution and use in source and binary forms, with or without modification,
  21:Source\LwIP\src\core/tcp.c ****  * are permitted provided that the following conditions are met:
  22:Source\LwIP\src\core/tcp.c ****  *
  23:Source\LwIP\src\core/tcp.c ****  * 1. Redistributions of source code must retain the above copyright notice,
  24:Source\LwIP\src\core/tcp.c ****  *    this list of conditions and the following disclaimer.
  25:Source\LwIP\src\core/tcp.c ****  * 2. Redistributions in binary form must reproduce the above copyright notice,
  26:Source\LwIP\src\core/tcp.c ****  *    this list of conditions and the following disclaimer in the documentation
  27:Source\LwIP\src\core/tcp.c ****  *    and/or other materials provided with the distribution.
  28:Source\LwIP\src\core/tcp.c ****  * 3. The name of the author may not be used to endorse or promote products
  29:Source\LwIP\src\core/tcp.c ****  *    derived from this software without specific prior written permission.
  30:Source\LwIP\src\core/tcp.c ****  *
  31:Source\LwIP\src\core/tcp.c ****  * THIS SOFTWARE IS PROVIDED BY THE AUTHOR ``AS IS'' AND ANY EXPRESS OR IMPLIED
ARM GAS  C:\Users\Phuong\AppData\Local\Temp\cczg95Bp.s 			page 2


  32:Source\LwIP\src\core/tcp.c ****  * WARRANTIES, INCLUDING, BUT NOT LIMITED TO, THE IMPLIED WARRANTIES OF
  33:Source\LwIP\src\core/tcp.c ****  * MERCHANTABILITY AND FITNESS FOR A PARTICULAR PURPOSE ARE DISCLAIMED. IN NO EVENT
  34:Source\LwIP\src\core/tcp.c ****  * SHALL THE AUTHOR BE LIABLE FOR ANY DIRECT, INDIRECT, INCIDENTAL, SPECIAL,
  35:Source\LwIP\src\core/tcp.c ****  * EXEMPLARY, OR CONSEQUENTIAL DAMAGES (INCLUDING, BUT NOT LIMITED TO, PROCUREMENT
  36:Source\LwIP\src\core/tcp.c ****  * OF SUBSTITUTE GOODS OR SERVICES; LOSS OF USE, DATA, OR PROFITS; OR BUSINESS
  37:Source\LwIP\src\core/tcp.c ****  * INTERRUPTION) HOWEVER CAUSED AND ON ANY THEORY OF LIABILITY, WHETHER IN
  38:Source\LwIP\src\core/tcp.c ****  * CONTRACT, STRICT LIABILITY, OR TORT (INCLUDING NEGLIGENCE OR OTHERWISE) ARISING
  39:Source\LwIP\src\core/tcp.c ****  * IN ANY WAY OUT OF THE USE OF THIS SOFTWARE, EVEN IF ADVISED OF THE POSSIBILITY
  40:Source\LwIP\src\core/tcp.c ****  * OF SUCH DAMAGE.
  41:Source\LwIP\src\core/tcp.c ****  *
  42:Source\LwIP\src\core/tcp.c ****  * This file is part of the lwIP TCP/IP stack.
  43:Source\LwIP\src\core/tcp.c ****  *
  44:Source\LwIP\src\core/tcp.c ****  * Author: Adam Dunkels <adam@sics.se>
  45:Source\LwIP\src\core/tcp.c ****  *
  46:Source\LwIP\src\core/tcp.c ****  */
  47:Source\LwIP\src\core/tcp.c **** 
  48:Source\LwIP\src\core/tcp.c **** #include "lwip/opt.h"
  49:Source\LwIP\src\core/tcp.c **** 
  50:Source\LwIP\src\core/tcp.c **** #if LWIP_TCP /* don't build if not configured for use in lwipopts.h */
  51:Source\LwIP\src\core/tcp.c **** 
  52:Source\LwIP\src\core/tcp.c **** #include "lwip/def.h"
  53:Source\LwIP\src\core/tcp.c **** #include "lwip/mem.h"
  54:Source\LwIP\src\core/tcp.c **** #include "lwip/memp.h"
  55:Source\LwIP\src\core/tcp.c **** #include "lwip/tcp.h"
  56:Source\LwIP\src\core/tcp.c **** #include "lwip/priv/tcp_priv.h"
  57:Source\LwIP\src\core/tcp.c **** #include "lwip/debug.h"
  58:Source\LwIP\src\core/tcp.c **** #include "lwip/stats.h"
  59:Source\LwIP\src\core/tcp.c **** #include "lwip/ip6.h"
  60:Source\LwIP\src\core/tcp.c **** #include "lwip/ip6_addr.h"
  61:Source\LwIP\src\core/tcp.c **** #include "lwip/nd6.h"
  62:Source\LwIP\src\core/tcp.c **** 
  63:Source\LwIP\src\core/tcp.c **** #include <string.h>
  64:Source\LwIP\src\core/tcp.c **** 
  65:Source\LwIP\src\core/tcp.c **** #ifdef LWIP_HOOK_FILENAME
  66:Source\LwIP\src\core/tcp.c **** #include LWIP_HOOK_FILENAME
  67:Source\LwIP\src\core/tcp.c **** #endif
  68:Source\LwIP\src\core/tcp.c **** 
  69:Source\LwIP\src\core/tcp.c **** #ifndef TCP_LOCAL_PORT_RANGE_START
  70:Source\LwIP\src\core/tcp.c **** /* From http://www.iana.org/assignments/port-numbers:
  71:Source\LwIP\src\core/tcp.c ****    "The Dynamic and/or Private Ports are those from 49152 through 65535" */
  72:Source\LwIP\src\core/tcp.c **** #define TCP_LOCAL_PORT_RANGE_START        0xc000
  73:Source\LwIP\src\core/tcp.c **** #define TCP_LOCAL_PORT_RANGE_END          0xffff
  74:Source\LwIP\src\core/tcp.c **** #define TCP_ENSURE_LOCAL_PORT_RANGE(port) ((u16_t)(((port) & ~TCP_LOCAL_PORT_RANGE_START) + TCP_LOC
  75:Source\LwIP\src\core/tcp.c **** #endif
  76:Source\LwIP\src\core/tcp.c **** 
  77:Source\LwIP\src\core/tcp.c **** #if LWIP_TCP_KEEPALIVE
  78:Source\LwIP\src\core/tcp.c **** #define TCP_KEEP_DUR(pcb)   ((pcb)->keep_cnt * (pcb)->keep_intvl)
  79:Source\LwIP\src\core/tcp.c **** #define TCP_KEEP_INTVL(pcb) ((pcb)->keep_intvl)
  80:Source\LwIP\src\core/tcp.c **** #else /* LWIP_TCP_KEEPALIVE */
  81:Source\LwIP\src\core/tcp.c **** #define TCP_KEEP_DUR(pcb)   TCP_MAXIDLE
  82:Source\LwIP\src\core/tcp.c **** #define TCP_KEEP_INTVL(pcb) TCP_KEEPINTVL_DEFAULT
  83:Source\LwIP\src\core/tcp.c **** #endif /* LWIP_TCP_KEEPALIVE */
  84:Source\LwIP\src\core/tcp.c **** 
  85:Source\LwIP\src\core/tcp.c **** /* As initial send MSS, we use TCP_MSS but limit it to 536. */
  86:Source\LwIP\src\core/tcp.c **** #if TCP_MSS > 536
  87:Source\LwIP\src\core/tcp.c **** #define INITIAL_MSS 536
  88:Source\LwIP\src\core/tcp.c **** #else
ARM GAS  C:\Users\Phuong\AppData\Local\Temp\cczg95Bp.s 			page 3


  89:Source\LwIP\src\core/tcp.c **** #define INITIAL_MSS TCP_MSS
  90:Source\LwIP\src\core/tcp.c **** #endif
  91:Source\LwIP\src\core/tcp.c **** 
  92:Source\LwIP\src\core/tcp.c **** static const char * const tcp_state_str[] = {
  93:Source\LwIP\src\core/tcp.c ****   "CLOSED",
  94:Source\LwIP\src\core/tcp.c ****   "LISTEN",
  95:Source\LwIP\src\core/tcp.c ****   "SYN_SENT",
  96:Source\LwIP\src\core/tcp.c ****   "SYN_RCVD",
  97:Source\LwIP\src\core/tcp.c ****   "ESTABLISHED",
  98:Source\LwIP\src\core/tcp.c ****   "FIN_WAIT_1",
  99:Source\LwIP\src\core/tcp.c ****   "FIN_WAIT_2",
 100:Source\LwIP\src\core/tcp.c ****   "CLOSE_WAIT",
 101:Source\LwIP\src\core/tcp.c ****   "CLOSING",
 102:Source\LwIP\src\core/tcp.c ****   "LAST_ACK",
 103:Source\LwIP\src\core/tcp.c ****   "TIME_WAIT"
 104:Source\LwIP\src\core/tcp.c **** };
 105:Source\LwIP\src\core/tcp.c **** 
 106:Source\LwIP\src\core/tcp.c **** /* last local TCP port */
 107:Source\LwIP\src\core/tcp.c **** static u16_t tcp_port = TCP_LOCAL_PORT_RANGE_START;
 108:Source\LwIP\src\core/tcp.c **** 
 109:Source\LwIP\src\core/tcp.c **** /* Incremented every coarse grained timer shot (typically every 500 ms). */
 110:Source\LwIP\src\core/tcp.c **** u32_t tcp_ticks;
 111:Source\LwIP\src\core/tcp.c **** static const u8_t tcp_backoff[13] =
 112:Source\LwIP\src\core/tcp.c ****     { 1, 2, 3, 4, 5, 6, 7, 7, 7, 7, 7, 7, 7};
 113:Source\LwIP\src\core/tcp.c ****  /* Times per slowtmr hits */
 114:Source\LwIP\src\core/tcp.c **** static const u8_t tcp_persist_backoff[7] = { 3, 6, 12, 24, 48, 96, 120 };
 115:Source\LwIP\src\core/tcp.c **** 
 116:Source\LwIP\src\core/tcp.c **** /* The TCP PCB lists. */
 117:Source\LwIP\src\core/tcp.c **** 
 118:Source\LwIP\src\core/tcp.c **** /** List of all TCP PCBs bound but not yet (connected || listening) */
 119:Source\LwIP\src\core/tcp.c **** struct tcp_pcb *tcp_bound_pcbs;
 120:Source\LwIP\src\core/tcp.c **** /** List of all TCP PCBs in LISTEN state */
 121:Source\LwIP\src\core/tcp.c **** union tcp_listen_pcbs_t tcp_listen_pcbs;
 122:Source\LwIP\src\core/tcp.c **** /** List of all TCP PCBs that are in a state in which
 123:Source\LwIP\src\core/tcp.c ****  * they accept or send data. */
 124:Source\LwIP\src\core/tcp.c **** struct tcp_pcb *tcp_active_pcbs;
 125:Source\LwIP\src\core/tcp.c **** /** List of all TCP PCBs in TIME-WAIT state */
 126:Source\LwIP\src\core/tcp.c **** struct tcp_pcb *tcp_tw_pcbs;
 127:Source\LwIP\src\core/tcp.c **** 
 128:Source\LwIP\src\core/tcp.c **** /** An array with all (non-temporary) PCB lists, mainly used for smaller code size */
 129:Source\LwIP\src\core/tcp.c **** struct tcp_pcb ** const tcp_pcb_lists[] = {&tcp_listen_pcbs.pcbs, &tcp_bound_pcbs,
 130:Source\LwIP\src\core/tcp.c ****   &tcp_active_pcbs, &tcp_tw_pcbs};
 131:Source\LwIP\src\core/tcp.c **** 
 132:Source\LwIP\src\core/tcp.c **** u8_t tcp_active_pcbs_changed;
 133:Source\LwIP\src\core/tcp.c **** 
 134:Source\LwIP\src\core/tcp.c **** /** Timer counter to handle calling slow-timer from tcp_tmr() */
 135:Source\LwIP\src\core/tcp.c **** static u8_t tcp_timer;
 136:Source\LwIP\src\core/tcp.c **** static u8_t tcp_timer_ctr;
 137:Source\LwIP\src\core/tcp.c **** static u16_t tcp_new_port(void);
 138:Source\LwIP\src\core/tcp.c **** 
 139:Source\LwIP\src\core/tcp.c **** static err_t tcp_close_shutdown_fin(struct tcp_pcb *pcb);
 140:Source\LwIP\src\core/tcp.c **** 
 141:Source\LwIP\src\core/tcp.c **** /**
 142:Source\LwIP\src\core/tcp.c ****  * Initialize this module.
 143:Source\LwIP\src\core/tcp.c ****  */
 144:Source\LwIP\src\core/tcp.c **** void
 145:Source\LwIP\src\core/tcp.c **** tcp_init(void)
ARM GAS  C:\Users\Phuong\AppData\Local\Temp\cczg95Bp.s 			page 4


 146:Source\LwIP\src\core/tcp.c **** {
 147:Source\LwIP\src\core/tcp.c **** #if LWIP_RANDOMIZE_INITIAL_LOCAL_PORTS && defined(LWIP_RAND)
 148:Source\LwIP\src\core/tcp.c ****   tcp_port = TCP_ENSURE_LOCAL_PORT_RANGE(LWIP_RAND());
 149:Source\LwIP\src\core/tcp.c **** #endif /* LWIP_RANDOMIZE_INITIAL_LOCAL_PORTS && defined(LWIP_RAND) */
 150:Source\LwIP\src\core/tcp.c **** }
 151:Source\LwIP\src\core/tcp.c **** 
 152:Source\LwIP\src\core/tcp.c **** /**
 153:Source\LwIP\src\core/tcp.c ****  * Called periodically to dispatch TCP timers.
 154:Source\LwIP\src\core/tcp.c ****  */
 155:Source\LwIP\src\core/tcp.c **** void
 156:Source\LwIP\src\core/tcp.c **** tcp_tmr(void)
 157:Source\LwIP\src\core/tcp.c **** {
 158:Source\LwIP\src\core/tcp.c ****   /* Call tcp_fasttmr() every 250 ms */
 159:Source\LwIP\src\core/tcp.c ****   tcp_fasttmr();
 160:Source\LwIP\src\core/tcp.c **** 
 161:Source\LwIP\src\core/tcp.c ****   if (++tcp_timer & 1) {
 162:Source\LwIP\src\core/tcp.c ****     /* Call tcp_slowtmr() every 500 ms, i.e., every other timer
 163:Source\LwIP\src\core/tcp.c ****        tcp_tmr() is called. */
 164:Source\LwIP\src\core/tcp.c ****     tcp_slowtmr();
 165:Source\LwIP\src\core/tcp.c ****   }
 166:Source\LwIP\src\core/tcp.c **** }
 167:Source\LwIP\src\core/tcp.c **** 
 168:Source\LwIP\src\core/tcp.c **** #if LWIP_CALLBACK_API || TCP_LISTEN_BACKLOG
 169:Source\LwIP\src\core/tcp.c **** /** Called when a listen pcb is closed. Iterates one pcb list and removes the
 170:Source\LwIP\src\core/tcp.c ****  * closed listener pcb from pcb->listener if matching.
 171:Source\LwIP\src\core/tcp.c ****  */
 172:Source\LwIP\src\core/tcp.c **** static void
 173:Source\LwIP\src\core/tcp.c **** tcp_remove_listener(struct tcp_pcb *list, struct tcp_pcb_listen *lpcb)
 174:Source\LwIP\src\core/tcp.c **** {
  27              		.loc 1 174 0
  28              		.cfi_startproc
  29              		@ args = 0, pretend = 0, frame = 0
  30              		@ frame_needed = 0, uses_anonymous_args = 0
  31              		@ link register save eliminated.
  32              	.LVL0:
 175:Source\LwIP\src\core/tcp.c ****    struct tcp_pcb *pcb;
 176:Source\LwIP\src\core/tcp.c ****    for (pcb = list; pcb != NULL; pcb = pcb->next) {
  33              		.loc 1 176 0
  34 0000 05E0     		b	.L2
  35              	.LVL1:
  36              	.L4:
 177:Source\LwIP\src\core/tcp.c ****       if (pcb->listener == lpcb) {
  37              		.loc 1 177 0
  38 0002 836F     		ldr	r3, [r0, #120]
  39 0004 8B42     		cmp	r3, r1
  40 0006 01D1     		bne	.L3
 178:Source\LwIP\src\core/tcp.c ****          pcb->listener = NULL;
  41              		.loc 1 178 0
  42 0008 0023     		movs	r3, #0
  43 000a 8367     		str	r3, [r0, #120]
  44              	.L3:
 176:Source\LwIP\src\core/tcp.c ****       if (pcb->listener == lpcb) {
  45              		.loc 1 176 0 discriminator 2
  46 000c C068     		ldr	r0, [r0, #12]
  47              	.LVL2:
  48              	.L2:
 176:Source\LwIP\src\core/tcp.c ****       if (pcb->listener == lpcb) {
ARM GAS  C:\Users\Phuong\AppData\Local\Temp\cczg95Bp.s 			page 5


  49              		.loc 1 176 0 is_stmt 0 discriminator 1
  50 000e 0028     		cmp	r0, #0
  51 0010 F7D1     		bne	.L4
 179:Source\LwIP\src\core/tcp.c ****       }
 180:Source\LwIP\src\core/tcp.c ****    }
 181:Source\LwIP\src\core/tcp.c **** }
  52              		.loc 1 181 0 is_stmt 1
  53              		@ sp needed
  54 0012 7047     		bx	lr
  55              		.cfi_endproc
  56              	.LFE55:
  57              		.size	tcp_remove_listener, .-tcp_remove_listener
  58              		.section	.text.tcp_listen_closed,"ax",%progbits
  59              		.align	2
  60              		.code	16
  61              		.thumb_func
  62              		.type	tcp_listen_closed, %function
  63              	tcp_listen_closed:
  64              	.LFB56:
 182:Source\LwIP\src\core/tcp.c **** #endif
 183:Source\LwIP\src\core/tcp.c **** 
 184:Source\LwIP\src\core/tcp.c **** /** Called when a listen pcb is closed. Iterates all pcb lists and removes the
 185:Source\LwIP\src\core/tcp.c ****  * closed listener pcb from pcb->listener if matching.
 186:Source\LwIP\src\core/tcp.c ****  */
 187:Source\LwIP\src\core/tcp.c **** static void
 188:Source\LwIP\src\core/tcp.c **** tcp_listen_closed(struct tcp_pcb *pcb)
 189:Source\LwIP\src\core/tcp.c **** {
  65              		.loc 1 189 0
  66              		.cfi_startproc
  67              		@ args = 0, pretend = 0, frame = 0
  68              		@ frame_needed = 0, uses_anonymous_args = 0
  69              	.LVL3:
  70 0000 70B5     		push	{r4, r5, r6, lr}
  71              		.cfi_def_cfa_offset 16
  72              		.cfi_offset 4, -16
  73              		.cfi_offset 5, -12
  74              		.cfi_offset 6, -8
  75              		.cfi_offset 14, -4
  76 0002 0500     		movs	r5, r0
  77              	.LVL4:
 190:Source\LwIP\src\core/tcp.c **** #if LWIP_CALLBACK_API || TCP_LISTEN_BACKLOG
 191:Source\LwIP\src\core/tcp.c ****   size_t i;
 192:Source\LwIP\src\core/tcp.c ****   LWIP_ASSERT("pcb != NULL", pcb != NULL);
 193:Source\LwIP\src\core/tcp.c ****   LWIP_ASSERT("pcb->state == LISTEN", pcb->state == LISTEN);
 194:Source\LwIP\src\core/tcp.c ****   for (i = 1; i < LWIP_ARRAYSIZE(tcp_pcb_lists); i++) {
  78              		.loc 1 194 0
  79 0004 0124     		movs	r4, #1
  80 0006 07E0     		b	.L6
  81              	.LVL5:
  82              	.L7:
 195:Source\LwIP\src\core/tcp.c ****     tcp_remove_listener(*tcp_pcb_lists[i], (struct tcp_pcb_listen*)pcb);
  83              		.loc 1 195 0 discriminator 3
  84 0008 A200     		lsls	r2, r4, #2
  85 000a 054B     		ldr	r3, .L8
  86 000c D358     		ldr	r3, [r2, r3]
  87 000e 1868     		ldr	r0, [r3]
  88 0010 2900     		movs	r1, r5
ARM GAS  C:\Users\Phuong\AppData\Local\Temp\cczg95Bp.s 			page 6


  89 0012 FFF7FEFF 		bl	tcp_remove_listener
  90              	.LVL6:
 194:Source\LwIP\src\core/tcp.c ****     tcp_remove_listener(*tcp_pcb_lists[i], (struct tcp_pcb_listen*)pcb);
  91              		.loc 1 194 0 discriminator 3
  92 0016 0134     		adds	r4, r4, #1
  93              	.LVL7:
  94              	.L6:
 194:Source\LwIP\src\core/tcp.c ****     tcp_remove_listener(*tcp_pcb_lists[i], (struct tcp_pcb_listen*)pcb);
  95              		.loc 1 194 0 is_stmt 0 discriminator 1
  96 0018 032C     		cmp	r4, #3
  97 001a F5D9     		bls	.L7
 196:Source\LwIP\src\core/tcp.c ****   }
 197:Source\LwIP\src\core/tcp.c **** #endif
 198:Source\LwIP\src\core/tcp.c ****   LWIP_UNUSED_ARG(pcb);
 199:Source\LwIP\src\core/tcp.c **** }
  98              		.loc 1 199 0 is_stmt 1
  99              		@ sp needed
 100              	.LVL8:
 101              	.LVL9:
 102 001c 70BD     		pop	{r4, r5, r6, pc}
 103              	.L9:
 104 001e C046     		.align	2
 105              	.L8:
 106 0020 00000000 		.word	.LANCHOR0
 107              		.cfi_endproc
 108              	.LFE56:
 109              		.size	tcp_listen_closed, .-tcp_listen_closed
 110              		.section	.text.tcp_new_port,"ax",%progbits
 111              		.align	2
 112              		.code	16
 113              		.thumb_func
 114              		.type	tcp_new_port, %function
 115              	tcp_new_port:
 116              	.LFB71:
 200:Source\LwIP\src\core/tcp.c **** 
 201:Source\LwIP\src\core/tcp.c **** #if TCP_LISTEN_BACKLOG
 202:Source\LwIP\src\core/tcp.c **** /** @ingroup tcp_raw
 203:Source\LwIP\src\core/tcp.c ****  * Delay accepting a connection in respect to the listen backlog:
 204:Source\LwIP\src\core/tcp.c ****  * the number of outstanding connections is increased until
 205:Source\LwIP\src\core/tcp.c ****  * tcp_backlog_accepted() is called.
 206:Source\LwIP\src\core/tcp.c ****  *
 207:Source\LwIP\src\core/tcp.c ****  * ATTENTION: the caller is responsible for calling tcp_backlog_accepted()
 208:Source\LwIP\src\core/tcp.c ****  * or else the backlog feature will get out of sync!
 209:Source\LwIP\src\core/tcp.c ****  *
 210:Source\LwIP\src\core/tcp.c ****  * @param pcb the connection pcb which is not fully accepted yet
 211:Source\LwIP\src\core/tcp.c ****  */
 212:Source\LwIP\src\core/tcp.c **** void
 213:Source\LwIP\src\core/tcp.c **** tcp_backlog_delayed(struct tcp_pcb* pcb)
 214:Source\LwIP\src\core/tcp.c **** {
 215:Source\LwIP\src\core/tcp.c ****   LWIP_ASSERT("pcb != NULL", pcb != NULL);
 216:Source\LwIP\src\core/tcp.c ****   if ((pcb->flags & TF_BACKLOGPEND) == 0) {
 217:Source\LwIP\src\core/tcp.c ****     if (pcb->listener != NULL) {
 218:Source\LwIP\src\core/tcp.c ****       pcb->listener->accepts_pending++;
 219:Source\LwIP\src\core/tcp.c ****       LWIP_ASSERT("accepts_pending != 0", pcb->listener->accepts_pending != 0);
 220:Source\LwIP\src\core/tcp.c ****       pcb->flags |= TF_BACKLOGPEND;
 221:Source\LwIP\src\core/tcp.c ****     }
 222:Source\LwIP\src\core/tcp.c ****   }
ARM GAS  C:\Users\Phuong\AppData\Local\Temp\cczg95Bp.s 			page 7


 223:Source\LwIP\src\core/tcp.c **** }
 224:Source\LwIP\src\core/tcp.c **** 
 225:Source\LwIP\src\core/tcp.c **** /** @ingroup tcp_raw
 226:Source\LwIP\src\core/tcp.c ****  * A delayed-accept a connection is accepted (or closed/aborted): decreases
 227:Source\LwIP\src\core/tcp.c ****  * the number of outstanding connections after calling tcp_backlog_delayed().
 228:Source\LwIP\src\core/tcp.c ****  *
 229:Source\LwIP\src\core/tcp.c ****  * ATTENTION: the caller is responsible for calling tcp_backlog_accepted()
 230:Source\LwIP\src\core/tcp.c ****  * or else the backlog feature will get out of sync!
 231:Source\LwIP\src\core/tcp.c ****  *
 232:Source\LwIP\src\core/tcp.c ****  * @param pcb the connection pcb which is now fully accepted (or closed/aborted)
 233:Source\LwIP\src\core/tcp.c ****  */
 234:Source\LwIP\src\core/tcp.c **** void
 235:Source\LwIP\src\core/tcp.c **** tcp_backlog_accepted(struct tcp_pcb* pcb)
 236:Source\LwIP\src\core/tcp.c **** {
 237:Source\LwIP\src\core/tcp.c ****   LWIP_ASSERT("pcb != NULL", pcb != NULL);
 238:Source\LwIP\src\core/tcp.c ****   if ((pcb->flags & TF_BACKLOGPEND) != 0) {
 239:Source\LwIP\src\core/tcp.c ****     if (pcb->listener != NULL) {
 240:Source\LwIP\src\core/tcp.c ****       LWIP_ASSERT("accepts_pending != 0", pcb->listener->accepts_pending != 0);
 241:Source\LwIP\src\core/tcp.c ****       pcb->listener->accepts_pending--;
 242:Source\LwIP\src\core/tcp.c ****       pcb->flags &= ~TF_BACKLOGPEND;
 243:Source\LwIP\src\core/tcp.c ****     }
 244:Source\LwIP\src\core/tcp.c ****   }
 245:Source\LwIP\src\core/tcp.c **** }
 246:Source\LwIP\src\core/tcp.c **** #endif /* TCP_LISTEN_BACKLOG */
 247:Source\LwIP\src\core/tcp.c **** 
 248:Source\LwIP\src\core/tcp.c **** /**
 249:Source\LwIP\src\core/tcp.c ****  * Closes the TX side of a connection held by the PCB.
 250:Source\LwIP\src\core/tcp.c ****  * For tcp_close(), a RST is sent if the application didn't receive all data
 251:Source\LwIP\src\core/tcp.c ****  * (tcp_recved() not called for all data passed to recv callback).
 252:Source\LwIP\src\core/tcp.c ****  *
 253:Source\LwIP\src\core/tcp.c ****  * Listening pcbs are freed and may not be referenced any more.
 254:Source\LwIP\src\core/tcp.c ****  * Connection pcbs are freed if not yet connected and may not be referenced
 255:Source\LwIP\src\core/tcp.c ****  * any more. If a connection is established (at least SYN received or in
 256:Source\LwIP\src\core/tcp.c ****  * a closing state), the connection is closed, and put in a closing state.
 257:Source\LwIP\src\core/tcp.c ****  * The pcb is then automatically freed in tcp_slowtmr(). It is therefore
 258:Source\LwIP\src\core/tcp.c ****  * unsafe to reference it.
 259:Source\LwIP\src\core/tcp.c ****  *
 260:Source\LwIP\src\core/tcp.c ****  * @param pcb the tcp_pcb to close
 261:Source\LwIP\src\core/tcp.c ****  * @return ERR_OK if connection has been closed
 262:Source\LwIP\src\core/tcp.c ****  *         another err_t if closing failed and pcb is not freed
 263:Source\LwIP\src\core/tcp.c ****  */
 264:Source\LwIP\src\core/tcp.c **** static err_t
 265:Source\LwIP\src\core/tcp.c **** tcp_close_shutdown(struct tcp_pcb *pcb, u8_t rst_on_unacked_data)
 266:Source\LwIP\src\core/tcp.c **** {
 267:Source\LwIP\src\core/tcp.c ****   if (rst_on_unacked_data && ((pcb->state == ESTABLISHED) || (pcb->state == CLOSE_WAIT))) {
 268:Source\LwIP\src\core/tcp.c ****     if ((pcb->refused_data != NULL) || (pcb->rcv_wnd != TCP_WND_MAX(pcb))) {
 269:Source\LwIP\src\core/tcp.c ****       /* Not all data received by application, send RST to tell the remote
 270:Source\LwIP\src\core/tcp.c ****          side about this. */
 271:Source\LwIP\src\core/tcp.c ****       LWIP_ASSERT("pcb->flags & TF_RXCLOSED", pcb->flags & TF_RXCLOSED);
 272:Source\LwIP\src\core/tcp.c **** 
 273:Source\LwIP\src\core/tcp.c ****       /* don't call tcp_abort here: we must not deallocate the pcb since
 274:Source\LwIP\src\core/tcp.c ****          that might not be expected when calling tcp_close */
 275:Source\LwIP\src\core/tcp.c ****       tcp_rst(pcb->snd_nxt, pcb->rcv_nxt, &pcb->local_ip, &pcb->remote_ip,
 276:Source\LwIP\src\core/tcp.c ****                pcb->local_port, pcb->remote_port);
 277:Source\LwIP\src\core/tcp.c **** 
 278:Source\LwIP\src\core/tcp.c ****       tcp_pcb_purge(pcb);
 279:Source\LwIP\src\core/tcp.c ****       TCP_RMV_ACTIVE(pcb);
ARM GAS  C:\Users\Phuong\AppData\Local\Temp\cczg95Bp.s 			page 8


 280:Source\LwIP\src\core/tcp.c ****       if (pcb->state == ESTABLISHED) {
 281:Source\LwIP\src\core/tcp.c ****         /* move to TIME_WAIT since we close actively */
 282:Source\LwIP\src\core/tcp.c ****         pcb->state = TIME_WAIT;
 283:Source\LwIP\src\core/tcp.c ****         TCP_REG(&tcp_tw_pcbs, pcb);
 284:Source\LwIP\src\core/tcp.c ****       } else {
 285:Source\LwIP\src\core/tcp.c ****         /* CLOSE_WAIT: deallocate the pcb since we already sent a RST for it */
 286:Source\LwIP\src\core/tcp.c ****         if (tcp_input_pcb == pcb) {
 287:Source\LwIP\src\core/tcp.c ****           /* prevent using a deallocated pcb: free it from tcp_input later */
 288:Source\LwIP\src\core/tcp.c ****           tcp_trigger_input_pcb_close();
 289:Source\LwIP\src\core/tcp.c ****         } else {
 290:Source\LwIP\src\core/tcp.c ****           memp_free(MEMP_TCP_PCB, pcb);
 291:Source\LwIP\src\core/tcp.c ****         }
 292:Source\LwIP\src\core/tcp.c ****       }
 293:Source\LwIP\src\core/tcp.c ****       return ERR_OK;
 294:Source\LwIP\src\core/tcp.c ****     }
 295:Source\LwIP\src\core/tcp.c ****   }
 296:Source\LwIP\src\core/tcp.c **** 
 297:Source\LwIP\src\core/tcp.c ****   /* - states which free the pcb are handled here,
 298:Source\LwIP\src\core/tcp.c ****      - states which send FIN and change state are handled in tcp_close_shutdown_fin() */
 299:Source\LwIP\src\core/tcp.c ****   switch (pcb->state) {
 300:Source\LwIP\src\core/tcp.c ****   case CLOSED:
 301:Source\LwIP\src\core/tcp.c ****     /* Closing a pcb in the CLOSED state might seem erroneous,
 302:Source\LwIP\src\core/tcp.c ****      * however, it is in this state once allocated and as yet unused
 303:Source\LwIP\src\core/tcp.c ****      * and the user needs some way to free it should the need arise.
 304:Source\LwIP\src\core/tcp.c ****      * Calling tcp_close() with a pcb that has already been closed, (i.e. twice)
 305:Source\LwIP\src\core/tcp.c ****      * or for a pcb that has been used and then entered the CLOSED state
 306:Source\LwIP\src\core/tcp.c ****      * is erroneous, but this should never happen as the pcb has in those cases
 307:Source\LwIP\src\core/tcp.c ****      * been freed, and so any remaining handles are bogus. */
 308:Source\LwIP\src\core/tcp.c ****     if (pcb->local_port != 0) {
 309:Source\LwIP\src\core/tcp.c ****       TCP_RMV(&tcp_bound_pcbs, pcb);
 310:Source\LwIP\src\core/tcp.c ****     }
 311:Source\LwIP\src\core/tcp.c ****     memp_free(MEMP_TCP_PCB, pcb);
 312:Source\LwIP\src\core/tcp.c ****     break;
 313:Source\LwIP\src\core/tcp.c ****   case LISTEN:
 314:Source\LwIP\src\core/tcp.c ****     tcp_listen_closed(pcb);
 315:Source\LwIP\src\core/tcp.c ****     tcp_pcb_remove(&tcp_listen_pcbs.pcbs, pcb);
 316:Source\LwIP\src\core/tcp.c ****     memp_free(MEMP_TCP_PCB_LISTEN, pcb);
 317:Source\LwIP\src\core/tcp.c ****     break;
 318:Source\LwIP\src\core/tcp.c ****   case SYN_SENT:
 319:Source\LwIP\src\core/tcp.c ****     TCP_PCB_REMOVE_ACTIVE(pcb);
 320:Source\LwIP\src\core/tcp.c ****     memp_free(MEMP_TCP_PCB, pcb);
 321:Source\LwIP\src\core/tcp.c ****     MIB2_STATS_INC(mib2.tcpattemptfails);
 322:Source\LwIP\src\core/tcp.c ****     break;
 323:Source\LwIP\src\core/tcp.c ****   default:
 324:Source\LwIP\src\core/tcp.c ****     return tcp_close_shutdown_fin(pcb);
 325:Source\LwIP\src\core/tcp.c ****   }
 326:Source\LwIP\src\core/tcp.c ****   return ERR_OK;
 327:Source\LwIP\src\core/tcp.c **** }
 328:Source\LwIP\src\core/tcp.c **** 
 329:Source\LwIP\src\core/tcp.c **** static err_t
 330:Source\LwIP\src\core/tcp.c **** tcp_close_shutdown_fin(struct tcp_pcb *pcb)
 331:Source\LwIP\src\core/tcp.c **** {
 332:Source\LwIP\src\core/tcp.c ****   err_t err;
 333:Source\LwIP\src\core/tcp.c ****   LWIP_ASSERT("pcb != NULL", pcb != NULL);
 334:Source\LwIP\src\core/tcp.c **** 
 335:Source\LwIP\src\core/tcp.c ****   switch (pcb->state) {
 336:Source\LwIP\src\core/tcp.c ****   case SYN_RCVD:
ARM GAS  C:\Users\Phuong\AppData\Local\Temp\cczg95Bp.s 			page 9


 337:Source\LwIP\src\core/tcp.c ****     err = tcp_send_fin(pcb);
 338:Source\LwIP\src\core/tcp.c ****     if (err == ERR_OK) {
 339:Source\LwIP\src\core/tcp.c ****       tcp_backlog_accepted(pcb);
 340:Source\LwIP\src\core/tcp.c ****       MIB2_STATS_INC(mib2.tcpattemptfails);
 341:Source\LwIP\src\core/tcp.c ****       pcb->state = FIN_WAIT_1;
 342:Source\LwIP\src\core/tcp.c ****     }
 343:Source\LwIP\src\core/tcp.c ****     break;
 344:Source\LwIP\src\core/tcp.c ****   case ESTABLISHED:
 345:Source\LwIP\src\core/tcp.c ****     err = tcp_send_fin(pcb);
 346:Source\LwIP\src\core/tcp.c ****     if (err == ERR_OK) {
 347:Source\LwIP\src\core/tcp.c ****       MIB2_STATS_INC(mib2.tcpestabresets);
 348:Source\LwIP\src\core/tcp.c ****       pcb->state = FIN_WAIT_1;
 349:Source\LwIP\src\core/tcp.c ****     }
 350:Source\LwIP\src\core/tcp.c ****     break;
 351:Source\LwIP\src\core/tcp.c ****   case CLOSE_WAIT:
 352:Source\LwIP\src\core/tcp.c ****     err = tcp_send_fin(pcb);
 353:Source\LwIP\src\core/tcp.c ****     if (err == ERR_OK) {
 354:Source\LwIP\src\core/tcp.c ****       MIB2_STATS_INC(mib2.tcpestabresets);
 355:Source\LwIP\src\core/tcp.c ****       pcb->state = LAST_ACK;
 356:Source\LwIP\src\core/tcp.c ****     }
 357:Source\LwIP\src\core/tcp.c ****     break;
 358:Source\LwIP\src\core/tcp.c ****   default:
 359:Source\LwIP\src\core/tcp.c ****     /* Has already been closed, do nothing. */
 360:Source\LwIP\src\core/tcp.c ****     return ERR_OK;
 361:Source\LwIP\src\core/tcp.c ****   }
 362:Source\LwIP\src\core/tcp.c **** 
 363:Source\LwIP\src\core/tcp.c ****   if (err == ERR_OK) {
 364:Source\LwIP\src\core/tcp.c ****     /* To ensure all data has been sent when tcp_close returns, we have
 365:Source\LwIP\src\core/tcp.c ****        to make sure tcp_output doesn't fail.
 366:Source\LwIP\src\core/tcp.c ****        Since we don't really have to ensure all data has been sent when tcp_close
 367:Source\LwIP\src\core/tcp.c ****        returns (unsent data is sent from tcp timer functions, also), we don't care
 368:Source\LwIP\src\core/tcp.c ****        for the return value of tcp_output for now. */
 369:Source\LwIP\src\core/tcp.c ****     tcp_output(pcb);
 370:Source\LwIP\src\core/tcp.c ****   } else if (err == ERR_MEM) {
 371:Source\LwIP\src\core/tcp.c ****     /* Mark this pcb for closing. Closing is retried from tcp_tmr. */
 372:Source\LwIP\src\core/tcp.c ****     pcb->flags |= TF_CLOSEPEND;
 373:Source\LwIP\src\core/tcp.c ****     /* We have to return ERR_OK from here to indicate to the callers that this
 374:Source\LwIP\src\core/tcp.c ****        pcb should not be used any more as it will be freed soon via tcp_tmr.
 375:Source\LwIP\src\core/tcp.c ****        This is OK here since sending FIN does not guarantee a time frime for
 376:Source\LwIP\src\core/tcp.c ****        actually freeing the pcb, either (it is left in closure states for
 377:Source\LwIP\src\core/tcp.c ****        remote ACK or timeout) */
 378:Source\LwIP\src\core/tcp.c ****     return ERR_OK;
 379:Source\LwIP\src\core/tcp.c ****   }
 380:Source\LwIP\src\core/tcp.c ****   return err;
 381:Source\LwIP\src\core/tcp.c **** }
 382:Source\LwIP\src\core/tcp.c **** 
 383:Source\LwIP\src\core/tcp.c **** /**
 384:Source\LwIP\src\core/tcp.c ****  * @ingroup tcp_raw
 385:Source\LwIP\src\core/tcp.c ****  * Closes the connection held by the PCB.
 386:Source\LwIP\src\core/tcp.c ****  *
 387:Source\LwIP\src\core/tcp.c ****  * Listening pcbs are freed and may not be referenced any more.
 388:Source\LwIP\src\core/tcp.c ****  * Connection pcbs are freed if not yet connected and may not be referenced
 389:Source\LwIP\src\core/tcp.c ****  * any more. If a connection is established (at least SYN received or in
 390:Source\LwIP\src\core/tcp.c ****  * a closing state), the connection is closed, and put in a closing state.
 391:Source\LwIP\src\core/tcp.c ****  * The pcb is then automatically freed in tcp_slowtmr(). It is therefore
 392:Source\LwIP\src\core/tcp.c ****  * unsafe to reference it (unless an error is returned).
 393:Source\LwIP\src\core/tcp.c ****  *
ARM GAS  C:\Users\Phuong\AppData\Local\Temp\cczg95Bp.s 			page 10


 394:Source\LwIP\src\core/tcp.c ****  * @param pcb the tcp_pcb to close
 395:Source\LwIP\src\core/tcp.c ****  * @return ERR_OK if connection has been closed
 396:Source\LwIP\src\core/tcp.c ****  *         another err_t if closing failed and pcb is not freed
 397:Source\LwIP\src\core/tcp.c ****  */
 398:Source\LwIP\src\core/tcp.c **** err_t
 399:Source\LwIP\src\core/tcp.c **** tcp_close(struct tcp_pcb *pcb)
 400:Source\LwIP\src\core/tcp.c **** {
 401:Source\LwIP\src\core/tcp.c ****   LWIP_DEBUGF(TCP_DEBUG, ("tcp_close: closing in "));
 402:Source\LwIP\src\core/tcp.c ****   tcp_debug_print_state(pcb->state);
 403:Source\LwIP\src\core/tcp.c **** 
 404:Source\LwIP\src\core/tcp.c ****   if (pcb->state != LISTEN) {
 405:Source\LwIP\src\core/tcp.c ****     /* Set a flag not to receive any more data... */
 406:Source\LwIP\src\core/tcp.c ****     pcb->flags |= TF_RXCLOSED;
 407:Source\LwIP\src\core/tcp.c ****   }
 408:Source\LwIP\src\core/tcp.c ****   /* ... and close */
 409:Source\LwIP\src\core/tcp.c ****   return tcp_close_shutdown(pcb, 1);
 410:Source\LwIP\src\core/tcp.c **** }
 411:Source\LwIP\src\core/tcp.c **** 
 412:Source\LwIP\src\core/tcp.c **** /**
 413:Source\LwIP\src\core/tcp.c ****  * @ingroup tcp_raw
 414:Source\LwIP\src\core/tcp.c ****  * Causes all or part of a full-duplex connection of this PCB to be shut down.
 415:Source\LwIP\src\core/tcp.c ****  * This doesn't deallocate the PCB unless shutting down both sides!
 416:Source\LwIP\src\core/tcp.c ****  * Shutting down both sides is the same as calling tcp_close, so if it succeds
 417:Source\LwIP\src\core/tcp.c ****  * (i.e. returns ER_OK), the PCB must not be referenced any more!
 418:Source\LwIP\src\core/tcp.c ****  *
 419:Source\LwIP\src\core/tcp.c ****  * @param pcb PCB to shutdown
 420:Source\LwIP\src\core/tcp.c ****  * @param shut_rx shut down receive side if this is != 0
 421:Source\LwIP\src\core/tcp.c ****  * @param shut_tx shut down send side if this is != 0
 422:Source\LwIP\src\core/tcp.c ****  * @return ERR_OK if shutdown succeeded (or the PCB has already been shut down)
 423:Source\LwIP\src\core/tcp.c ****  *         another err_t on error.
 424:Source\LwIP\src\core/tcp.c ****  */
 425:Source\LwIP\src\core/tcp.c **** err_t
 426:Source\LwIP\src\core/tcp.c **** tcp_shutdown(struct tcp_pcb *pcb, int shut_rx, int shut_tx)
 427:Source\LwIP\src\core/tcp.c **** {
 428:Source\LwIP\src\core/tcp.c ****   if (pcb->state == LISTEN) {
 429:Source\LwIP\src\core/tcp.c ****     return ERR_CONN;
 430:Source\LwIP\src\core/tcp.c ****   }
 431:Source\LwIP\src\core/tcp.c ****   if (shut_rx) {
 432:Source\LwIP\src\core/tcp.c ****     /* shut down the receive side: set a flag not to receive any more data... */
 433:Source\LwIP\src\core/tcp.c ****     pcb->flags |= TF_RXCLOSED;
 434:Source\LwIP\src\core/tcp.c ****     if (shut_tx) {
 435:Source\LwIP\src\core/tcp.c ****       /* shutting down the tx AND rx side is the same as closing for the raw API */
 436:Source\LwIP\src\core/tcp.c ****       return tcp_close_shutdown(pcb, 1);
 437:Source\LwIP\src\core/tcp.c ****     }
 438:Source\LwIP\src\core/tcp.c ****     /* ... and free buffered data */
 439:Source\LwIP\src\core/tcp.c ****     if (pcb->refused_data != NULL) {
 440:Source\LwIP\src\core/tcp.c ****       pbuf_free(pcb->refused_data);
 441:Source\LwIP\src\core/tcp.c ****       pcb->refused_data = NULL;
 442:Source\LwIP\src\core/tcp.c ****     }
 443:Source\LwIP\src\core/tcp.c ****   }
 444:Source\LwIP\src\core/tcp.c ****   if (shut_tx) {
 445:Source\LwIP\src\core/tcp.c ****     /* This can't happen twice since if it succeeds, the pcb's state is changed.
 446:Source\LwIP\src\core/tcp.c ****        Only close in these states as the others directly deallocate the PCB */
 447:Source\LwIP\src\core/tcp.c ****     switch (pcb->state) {
 448:Source\LwIP\src\core/tcp.c ****     case SYN_RCVD:
 449:Source\LwIP\src\core/tcp.c ****     case ESTABLISHED:
 450:Source\LwIP\src\core/tcp.c ****     case CLOSE_WAIT:
ARM GAS  C:\Users\Phuong\AppData\Local\Temp\cczg95Bp.s 			page 11


 451:Source\LwIP\src\core/tcp.c ****       return tcp_close_shutdown(pcb, (u8_t)shut_rx);
 452:Source\LwIP\src\core/tcp.c ****     default:
 453:Source\LwIP\src\core/tcp.c ****       /* Not (yet?) connected, cannot shutdown the TX side as that would bring us
 454:Source\LwIP\src\core/tcp.c ****         into CLOSED state, where the PCB is deallocated. */
 455:Source\LwIP\src\core/tcp.c ****       return ERR_CONN;
 456:Source\LwIP\src\core/tcp.c ****     }
 457:Source\LwIP\src\core/tcp.c ****   }
 458:Source\LwIP\src\core/tcp.c ****   return ERR_OK;
 459:Source\LwIP\src\core/tcp.c **** }
 460:Source\LwIP\src\core/tcp.c **** 
 461:Source\LwIP\src\core/tcp.c **** /**
 462:Source\LwIP\src\core/tcp.c ****  * Abandons a connection and optionally sends a RST to the remote
 463:Source\LwIP\src\core/tcp.c ****  * host.  Deletes the local protocol control block. This is done when
 464:Source\LwIP\src\core/tcp.c ****  * a connection is killed because of shortage of memory.
 465:Source\LwIP\src\core/tcp.c ****  *
 466:Source\LwIP\src\core/tcp.c ****  * @param pcb the tcp_pcb to abort
 467:Source\LwIP\src\core/tcp.c ****  * @param reset boolean to indicate whether a reset should be sent
 468:Source\LwIP\src\core/tcp.c ****  */
 469:Source\LwIP\src\core/tcp.c **** void
 470:Source\LwIP\src\core/tcp.c **** tcp_abandon(struct tcp_pcb *pcb, int reset)
 471:Source\LwIP\src\core/tcp.c **** {
 472:Source\LwIP\src\core/tcp.c ****   u32_t seqno, ackno;
 473:Source\LwIP\src\core/tcp.c **** #if LWIP_CALLBACK_API
 474:Source\LwIP\src\core/tcp.c ****   tcp_err_fn errf;
 475:Source\LwIP\src\core/tcp.c **** #endif /* LWIP_CALLBACK_API */
 476:Source\LwIP\src\core/tcp.c ****   void *errf_arg;
 477:Source\LwIP\src\core/tcp.c **** 
 478:Source\LwIP\src\core/tcp.c ****   /* pcb->state LISTEN not allowed here */
 479:Source\LwIP\src\core/tcp.c ****   LWIP_ASSERT("don't call tcp_abort/tcp_abandon for listen-pcbs",
 480:Source\LwIP\src\core/tcp.c ****     pcb->state != LISTEN);
 481:Source\LwIP\src\core/tcp.c ****   /* Figure out on which TCP PCB list we are, and remove us. If we
 482:Source\LwIP\src\core/tcp.c ****      are in an active state, call the receive function associated with
 483:Source\LwIP\src\core/tcp.c ****      the PCB with a NULL argument, and send an RST to the remote end. */
 484:Source\LwIP\src\core/tcp.c ****   if (pcb->state == TIME_WAIT) {
 485:Source\LwIP\src\core/tcp.c ****     tcp_pcb_remove(&tcp_tw_pcbs, pcb);
 486:Source\LwIP\src\core/tcp.c ****     memp_free(MEMP_TCP_PCB, pcb);
 487:Source\LwIP\src\core/tcp.c ****   } else {
 488:Source\LwIP\src\core/tcp.c ****     int send_rst = 0;
 489:Source\LwIP\src\core/tcp.c ****     u16_t local_port = 0;
 490:Source\LwIP\src\core/tcp.c ****     enum tcp_state last_state;
 491:Source\LwIP\src\core/tcp.c ****     seqno = pcb->snd_nxt;
 492:Source\LwIP\src\core/tcp.c ****     ackno = pcb->rcv_nxt;
 493:Source\LwIP\src\core/tcp.c **** #if LWIP_CALLBACK_API
 494:Source\LwIP\src\core/tcp.c ****     errf = pcb->errf;
 495:Source\LwIP\src\core/tcp.c **** #endif /* LWIP_CALLBACK_API */
 496:Source\LwIP\src\core/tcp.c ****     errf_arg = pcb->callback_arg;
 497:Source\LwIP\src\core/tcp.c ****     if (pcb->state == CLOSED) {
 498:Source\LwIP\src\core/tcp.c ****       if (pcb->local_port != 0) {
 499:Source\LwIP\src\core/tcp.c ****         /* bound, not yet opened */
 500:Source\LwIP\src\core/tcp.c ****         TCP_RMV(&tcp_bound_pcbs, pcb);
 501:Source\LwIP\src\core/tcp.c ****       }
 502:Source\LwIP\src\core/tcp.c ****     } else {
 503:Source\LwIP\src\core/tcp.c ****       send_rst = reset;
 504:Source\LwIP\src\core/tcp.c ****       local_port = pcb->local_port;
 505:Source\LwIP\src\core/tcp.c ****       TCP_PCB_REMOVE_ACTIVE(pcb);
 506:Source\LwIP\src\core/tcp.c ****     }
 507:Source\LwIP\src\core/tcp.c ****     if (pcb->unacked != NULL) {
ARM GAS  C:\Users\Phuong\AppData\Local\Temp\cczg95Bp.s 			page 12


 508:Source\LwIP\src\core/tcp.c ****       tcp_segs_free(pcb->unacked);
 509:Source\LwIP\src\core/tcp.c ****     }
 510:Source\LwIP\src\core/tcp.c ****     if (pcb->unsent != NULL) {
 511:Source\LwIP\src\core/tcp.c ****       tcp_segs_free(pcb->unsent);
 512:Source\LwIP\src\core/tcp.c ****     }
 513:Source\LwIP\src\core/tcp.c **** #if TCP_QUEUE_OOSEQ
 514:Source\LwIP\src\core/tcp.c ****     if (pcb->ooseq != NULL) {
 515:Source\LwIP\src\core/tcp.c ****       tcp_segs_free(pcb->ooseq);
 516:Source\LwIP\src\core/tcp.c ****     }
 517:Source\LwIP\src\core/tcp.c **** #endif /* TCP_QUEUE_OOSEQ */
 518:Source\LwIP\src\core/tcp.c ****     tcp_backlog_accepted(pcb);
 519:Source\LwIP\src\core/tcp.c ****     if (send_rst) {
 520:Source\LwIP\src\core/tcp.c ****       LWIP_DEBUGF(TCP_RST_DEBUG, ("tcp_abandon: sending RST\n"));
 521:Source\LwIP\src\core/tcp.c ****       tcp_rst(seqno, ackno, &pcb->local_ip, &pcb->remote_ip, local_port, pcb->remote_port);
 522:Source\LwIP\src\core/tcp.c ****     }
 523:Source\LwIP\src\core/tcp.c ****     last_state = pcb->state;
 524:Source\LwIP\src\core/tcp.c ****     memp_free(MEMP_TCP_PCB, pcb);
 525:Source\LwIP\src\core/tcp.c ****     TCP_EVENT_ERR(last_state, errf, errf_arg, ERR_ABRT);
 526:Source\LwIP\src\core/tcp.c ****   }
 527:Source\LwIP\src\core/tcp.c **** }
 528:Source\LwIP\src\core/tcp.c **** 
 529:Source\LwIP\src\core/tcp.c **** /**
 530:Source\LwIP\src\core/tcp.c ****  * @ingroup tcp_raw
 531:Source\LwIP\src\core/tcp.c ****  * Aborts the connection by sending a RST (reset) segment to the remote
 532:Source\LwIP\src\core/tcp.c ****  * host. The pcb is deallocated. This function never fails.
 533:Source\LwIP\src\core/tcp.c ****  *
 534:Source\LwIP\src\core/tcp.c ****  * ATTENTION: When calling this from one of the TCP callbacks, make
 535:Source\LwIP\src\core/tcp.c ****  * sure you always return ERR_ABRT (and never return ERR_ABRT otherwise
 536:Source\LwIP\src\core/tcp.c ****  * or you will risk accessing deallocated memory or memory leaks!
 537:Source\LwIP\src\core/tcp.c ****  *
 538:Source\LwIP\src\core/tcp.c ****  * @param pcb the tcp pcb to abort
 539:Source\LwIP\src\core/tcp.c ****  */
 540:Source\LwIP\src\core/tcp.c **** void
 541:Source\LwIP\src\core/tcp.c **** tcp_abort(struct tcp_pcb *pcb)
 542:Source\LwIP\src\core/tcp.c **** {
 543:Source\LwIP\src\core/tcp.c ****   tcp_abandon(pcb, 1);
 544:Source\LwIP\src\core/tcp.c **** }
 545:Source\LwIP\src\core/tcp.c **** 
 546:Source\LwIP\src\core/tcp.c **** /**
 547:Source\LwIP\src\core/tcp.c ****  * @ingroup tcp_raw
 548:Source\LwIP\src\core/tcp.c ****  * Binds the connection to a local port number and IP address. If the
 549:Source\LwIP\src\core/tcp.c ****  * IP address is not given (i.e., ipaddr == NULL), the IP address of
 550:Source\LwIP\src\core/tcp.c ****  * the outgoing network interface is used instead.
 551:Source\LwIP\src\core/tcp.c ****  *
 552:Source\LwIP\src\core/tcp.c ****  * @param pcb the tcp_pcb to bind (no check is done whether this pcb is
 553:Source\LwIP\src\core/tcp.c ****  *        already bound!)
 554:Source\LwIP\src\core/tcp.c ****  * @param ipaddr the local ip address to bind to (use IP4_ADDR_ANY to bind
 555:Source\LwIP\src\core/tcp.c ****  *        to any local address
 556:Source\LwIP\src\core/tcp.c ****  * @param port the local port to bind to
 557:Source\LwIP\src\core/tcp.c ****  * @return ERR_USE if the port is already in use
 558:Source\LwIP\src\core/tcp.c ****  *         ERR_VAL if bind failed because the PCB is not in a valid state
 559:Source\LwIP\src\core/tcp.c ****  *         ERR_OK if bound
 560:Source\LwIP\src\core/tcp.c ****  */
 561:Source\LwIP\src\core/tcp.c **** err_t
 562:Source\LwIP\src\core/tcp.c **** tcp_bind(struct tcp_pcb *pcb, const ip_addr_t *ipaddr, u16_t port)
 563:Source\LwIP\src\core/tcp.c **** {
 564:Source\LwIP\src\core/tcp.c ****   int i;
ARM GAS  C:\Users\Phuong\AppData\Local\Temp\cczg95Bp.s 			page 13


 565:Source\LwIP\src\core/tcp.c ****   int max_pcb_list = NUM_TCP_PCB_LISTS;
 566:Source\LwIP\src\core/tcp.c ****   struct tcp_pcb *cpcb;
 567:Source\LwIP\src\core/tcp.c **** 
 568:Source\LwIP\src\core/tcp.c **** #if LWIP_IPV4
 569:Source\LwIP\src\core/tcp.c ****   /* Don't propagate NULL pointer (IPv4 ANY) to subsequent functions */
 570:Source\LwIP\src\core/tcp.c ****   if (ipaddr == NULL) {
 571:Source\LwIP\src\core/tcp.c ****     ipaddr = IP4_ADDR_ANY;
 572:Source\LwIP\src\core/tcp.c ****   }
 573:Source\LwIP\src\core/tcp.c **** #endif /* LWIP_IPV4 */
 574:Source\LwIP\src\core/tcp.c **** 
 575:Source\LwIP\src\core/tcp.c ****   /* still need to check for ipaddr == NULL in IPv6 only case */
 576:Source\LwIP\src\core/tcp.c ****   if ((pcb == NULL) || (ipaddr == NULL)) {
 577:Source\LwIP\src\core/tcp.c ****     return ERR_VAL;
 578:Source\LwIP\src\core/tcp.c ****   }
 579:Source\LwIP\src\core/tcp.c **** 
 580:Source\LwIP\src\core/tcp.c ****   LWIP_ERROR("tcp_bind: can only bind in state CLOSED", pcb->state == CLOSED, return ERR_VAL);
 581:Source\LwIP\src\core/tcp.c **** 
 582:Source\LwIP\src\core/tcp.c **** #if SO_REUSE
 583:Source\LwIP\src\core/tcp.c ****   /* Unless the REUSEADDR flag is set,
 584:Source\LwIP\src\core/tcp.c ****      we have to check the pcbs in TIME-WAIT state, also.
 585:Source\LwIP\src\core/tcp.c ****      We do not dump TIME_WAIT pcb's; they can still be matched by incoming
 586:Source\LwIP\src\core/tcp.c ****      packets using both local and remote IP addresses and ports to distinguish.
 587:Source\LwIP\src\core/tcp.c ****    */
 588:Source\LwIP\src\core/tcp.c ****   if (ip_get_option(pcb, SOF_REUSEADDR)) {
 589:Source\LwIP\src\core/tcp.c ****     max_pcb_list = NUM_TCP_PCB_LISTS_NO_TIME_WAIT;
 590:Source\LwIP\src\core/tcp.c ****   }
 591:Source\LwIP\src\core/tcp.c **** #endif /* SO_REUSE */
 592:Source\LwIP\src\core/tcp.c **** 
 593:Source\LwIP\src\core/tcp.c ****   if (port == 0) {
 594:Source\LwIP\src\core/tcp.c ****     port = tcp_new_port();
 595:Source\LwIP\src\core/tcp.c ****     if (port == 0) {
 596:Source\LwIP\src\core/tcp.c ****       return ERR_BUF;
 597:Source\LwIP\src\core/tcp.c ****     }
 598:Source\LwIP\src\core/tcp.c ****   } else {
 599:Source\LwIP\src\core/tcp.c ****     /* Check if the address already is in use (on all lists) */
 600:Source\LwIP\src\core/tcp.c ****     for (i = 0; i < max_pcb_list; i++) {
 601:Source\LwIP\src\core/tcp.c ****       for (cpcb = *tcp_pcb_lists[i]; cpcb != NULL; cpcb = cpcb->next) {
 602:Source\LwIP\src\core/tcp.c ****         if (cpcb->local_port == port) {
 603:Source\LwIP\src\core/tcp.c **** #if SO_REUSE
 604:Source\LwIP\src\core/tcp.c ****           /* Omit checking for the same port if both pcbs have REUSEADDR set.
 605:Source\LwIP\src\core/tcp.c ****              For SO_REUSEADDR, the duplicate-check for a 5-tuple is done in
 606:Source\LwIP\src\core/tcp.c ****              tcp_connect. */
 607:Source\LwIP\src\core/tcp.c ****           if (!ip_get_option(pcb, SOF_REUSEADDR) ||
 608:Source\LwIP\src\core/tcp.c ****               !ip_get_option(cpcb, SOF_REUSEADDR))
 609:Source\LwIP\src\core/tcp.c **** #endif /* SO_REUSE */
 610:Source\LwIP\src\core/tcp.c ****           {
 611:Source\LwIP\src\core/tcp.c ****             /* @todo: check accept_any_ip_version */
 612:Source\LwIP\src\core/tcp.c ****             if ((IP_IS_V6(ipaddr) == IP_IS_V6_VAL(cpcb->local_ip)) &&
 613:Source\LwIP\src\core/tcp.c ****                 (ip_addr_isany(&cpcb->local_ip) ||
 614:Source\LwIP\src\core/tcp.c ****                 ip_addr_isany(ipaddr) ||
 615:Source\LwIP\src\core/tcp.c ****                 ip_addr_cmp(&cpcb->local_ip, ipaddr))) {
 616:Source\LwIP\src\core/tcp.c ****               return ERR_USE;
 617:Source\LwIP\src\core/tcp.c ****             }
 618:Source\LwIP\src\core/tcp.c ****           }
 619:Source\LwIP\src\core/tcp.c ****         }
 620:Source\LwIP\src\core/tcp.c ****       }
 621:Source\LwIP\src\core/tcp.c ****     }
ARM GAS  C:\Users\Phuong\AppData\Local\Temp\cczg95Bp.s 			page 14


 622:Source\LwIP\src\core/tcp.c ****   }
 623:Source\LwIP\src\core/tcp.c **** 
 624:Source\LwIP\src\core/tcp.c ****   if (!ip_addr_isany(ipaddr)) {
 625:Source\LwIP\src\core/tcp.c ****     ip_addr_set(&pcb->local_ip, ipaddr);
 626:Source\LwIP\src\core/tcp.c ****   }
 627:Source\LwIP\src\core/tcp.c ****   pcb->local_port = port;
 628:Source\LwIP\src\core/tcp.c ****   TCP_REG(&tcp_bound_pcbs, pcb);
 629:Source\LwIP\src\core/tcp.c ****   LWIP_DEBUGF(TCP_DEBUG, ("tcp_bind: bind to port %"U16_F"\n", port));
 630:Source\LwIP\src\core/tcp.c ****   return ERR_OK;
 631:Source\LwIP\src\core/tcp.c **** }
 632:Source\LwIP\src\core/tcp.c **** #if LWIP_CALLBACK_API
 633:Source\LwIP\src\core/tcp.c **** /**
 634:Source\LwIP\src\core/tcp.c ****  * Default accept callback if no accept callback is specified by the user.
 635:Source\LwIP\src\core/tcp.c ****  */
 636:Source\LwIP\src\core/tcp.c **** static err_t
 637:Source\LwIP\src\core/tcp.c **** tcp_accept_null(void *arg, struct tcp_pcb *pcb, err_t err)
 638:Source\LwIP\src\core/tcp.c **** {
 639:Source\LwIP\src\core/tcp.c ****   LWIP_UNUSED_ARG(arg);
 640:Source\LwIP\src\core/tcp.c ****   LWIP_UNUSED_ARG(err);
 641:Source\LwIP\src\core/tcp.c **** 
 642:Source\LwIP\src\core/tcp.c ****   tcp_abort(pcb);
 643:Source\LwIP\src\core/tcp.c **** 
 644:Source\LwIP\src\core/tcp.c ****   return ERR_ABRT;
 645:Source\LwIP\src\core/tcp.c **** }
 646:Source\LwIP\src\core/tcp.c **** #endif /* LWIP_CALLBACK_API */
 647:Source\LwIP\src\core/tcp.c **** 
 648:Source\LwIP\src\core/tcp.c **** /**
 649:Source\LwIP\src\core/tcp.c ****  * @ingroup tcp_raw
 650:Source\LwIP\src\core/tcp.c ****  * Set the state of the connection to be LISTEN, which means that it
 651:Source\LwIP\src\core/tcp.c ****  * is able to accept incoming connections. The protocol control block
 652:Source\LwIP\src\core/tcp.c ****  * is reallocated in order to consume less memory. Setting the
 653:Source\LwIP\src\core/tcp.c ****  * connection to LISTEN is an irreversible process.
 654:Source\LwIP\src\core/tcp.c ****  *
 655:Source\LwIP\src\core/tcp.c ****  * @param pcb the original tcp_pcb
 656:Source\LwIP\src\core/tcp.c ****  * @param backlog the incoming connections queue limit
 657:Source\LwIP\src\core/tcp.c ****  * @return tcp_pcb used for listening, consumes less memory.
 658:Source\LwIP\src\core/tcp.c ****  *
 659:Source\LwIP\src\core/tcp.c ****  * @note The original tcp_pcb is freed. This function therefore has to be
 660:Source\LwIP\src\core/tcp.c ****  *       called like this:
 661:Source\LwIP\src\core/tcp.c ****  *             tpcb = tcp_listen_with_backlog(tpcb, backlog);
 662:Source\LwIP\src\core/tcp.c ****  */
 663:Source\LwIP\src\core/tcp.c **** struct tcp_pcb *
 664:Source\LwIP\src\core/tcp.c **** tcp_listen_with_backlog(struct tcp_pcb *pcb, u8_t backlog)
 665:Source\LwIP\src\core/tcp.c **** {
 666:Source\LwIP\src\core/tcp.c ****   return tcp_listen_with_backlog_and_err(pcb, backlog, NULL);
 667:Source\LwIP\src\core/tcp.c **** }
 668:Source\LwIP\src\core/tcp.c **** 
 669:Source\LwIP\src\core/tcp.c **** /**
 670:Source\LwIP\src\core/tcp.c ****  * @ingroup tcp_raw
 671:Source\LwIP\src\core/tcp.c ****  * Set the state of the connection to be LISTEN, which means that it
 672:Source\LwIP\src\core/tcp.c ****  * is able to accept incoming connections. The protocol control block
 673:Source\LwIP\src\core/tcp.c ****  * is reallocated in order to consume less memory. Setting the
 674:Source\LwIP\src\core/tcp.c ****  * connection to LISTEN is an irreversible process.
 675:Source\LwIP\src\core/tcp.c ****  *
 676:Source\LwIP\src\core/tcp.c ****  * @param pcb the original tcp_pcb
 677:Source\LwIP\src\core/tcp.c ****  * @param backlog the incoming connections queue limit
 678:Source\LwIP\src\core/tcp.c ****  * @param err when NULL is returned, this contains the error reason
ARM GAS  C:\Users\Phuong\AppData\Local\Temp\cczg95Bp.s 			page 15


 679:Source\LwIP\src\core/tcp.c ****  * @return tcp_pcb used for listening, consumes less memory.
 680:Source\LwIP\src\core/tcp.c ****  *
 681:Source\LwIP\src\core/tcp.c ****  * @note The original tcp_pcb is freed. This function therefore has to be
 682:Source\LwIP\src\core/tcp.c ****  *       called like this:
 683:Source\LwIP\src\core/tcp.c ****  *             tpcb = tcp_listen_with_backlog_and_err(tpcb, backlog, &err);
 684:Source\LwIP\src\core/tcp.c ****  */
 685:Source\LwIP\src\core/tcp.c **** struct tcp_pcb *
 686:Source\LwIP\src\core/tcp.c **** tcp_listen_with_backlog_and_err(struct tcp_pcb *pcb, u8_t backlog, err_t *err)
 687:Source\LwIP\src\core/tcp.c **** {
 688:Source\LwIP\src\core/tcp.c ****   struct tcp_pcb_listen *lpcb = NULL;
 689:Source\LwIP\src\core/tcp.c ****   err_t res;
 690:Source\LwIP\src\core/tcp.c **** 
 691:Source\LwIP\src\core/tcp.c ****   LWIP_UNUSED_ARG(backlog);
 692:Source\LwIP\src\core/tcp.c ****   LWIP_ERROR("tcp_listen: pcb already connected", pcb->state == CLOSED, res = ERR_CLSD; goto done);
 693:Source\LwIP\src\core/tcp.c **** 
 694:Source\LwIP\src\core/tcp.c ****   /* already listening? */
 695:Source\LwIP\src\core/tcp.c ****   if (pcb->state == LISTEN) {
 696:Source\LwIP\src\core/tcp.c ****     lpcb = (struct tcp_pcb_listen*)pcb;
 697:Source\LwIP\src\core/tcp.c ****     res = ERR_ALREADY;
 698:Source\LwIP\src\core/tcp.c ****     goto done;
 699:Source\LwIP\src\core/tcp.c ****   }
 700:Source\LwIP\src\core/tcp.c **** #if SO_REUSE
 701:Source\LwIP\src\core/tcp.c ****   if (ip_get_option(pcb, SOF_REUSEADDR)) {
 702:Source\LwIP\src\core/tcp.c ****     /* Since SOF_REUSEADDR allows reusing a local address before the pcb's usage
 703:Source\LwIP\src\core/tcp.c ****        is declared (listen-/connection-pcb), we have to make sure now that
 704:Source\LwIP\src\core/tcp.c ****        this port is only used once for every local IP. */
 705:Source\LwIP\src\core/tcp.c ****     for (lpcb = tcp_listen_pcbs.listen_pcbs; lpcb != NULL; lpcb = lpcb->next) {
 706:Source\LwIP\src\core/tcp.c ****       if ((lpcb->local_port == pcb->local_port) &&
 707:Source\LwIP\src\core/tcp.c ****           ip_addr_cmp(&lpcb->local_ip, &pcb->local_ip)) {
 708:Source\LwIP\src\core/tcp.c ****         /* this address/port is already used */
 709:Source\LwIP\src\core/tcp.c ****         lpcb = NULL;
 710:Source\LwIP\src\core/tcp.c ****         res = ERR_USE;
 711:Source\LwIP\src\core/tcp.c ****         goto done;
 712:Source\LwIP\src\core/tcp.c ****       }
 713:Source\LwIP\src\core/tcp.c ****     }
 714:Source\LwIP\src\core/tcp.c ****   }
 715:Source\LwIP\src\core/tcp.c **** #endif /* SO_REUSE */
 716:Source\LwIP\src\core/tcp.c ****   lpcb = (struct tcp_pcb_listen *)memp_malloc(MEMP_TCP_PCB_LISTEN);
 717:Source\LwIP\src\core/tcp.c ****   if (lpcb == NULL) {
 718:Source\LwIP\src\core/tcp.c ****     res = ERR_MEM;
 719:Source\LwIP\src\core/tcp.c ****     goto done;
 720:Source\LwIP\src\core/tcp.c ****   }
 721:Source\LwIP\src\core/tcp.c ****   lpcb->callback_arg = pcb->callback_arg;
 722:Source\LwIP\src\core/tcp.c ****   lpcb->local_port = pcb->local_port;
 723:Source\LwIP\src\core/tcp.c ****   lpcb->state = LISTEN;
 724:Source\LwIP\src\core/tcp.c ****   lpcb->prio = pcb->prio;
 725:Source\LwIP\src\core/tcp.c ****   lpcb->so_options = pcb->so_options;
 726:Source\LwIP\src\core/tcp.c ****   lpcb->ttl = pcb->ttl;
 727:Source\LwIP\src\core/tcp.c ****   lpcb->tos = pcb->tos;
 728:Source\LwIP\src\core/tcp.c **** #if LWIP_IPV4 && LWIP_IPV6
 729:Source\LwIP\src\core/tcp.c ****   IP_SET_TYPE_VAL(lpcb->remote_ip, pcb->local_ip.type);
 730:Source\LwIP\src\core/tcp.c **** #endif /* LWIP_IPV4 && LWIP_IPV6 */
 731:Source\LwIP\src\core/tcp.c ****   ip_addr_copy(lpcb->local_ip, pcb->local_ip);
 732:Source\LwIP\src\core/tcp.c ****   if (pcb->local_port != 0) {
 733:Source\LwIP\src\core/tcp.c ****     TCP_RMV(&tcp_bound_pcbs, pcb);
 734:Source\LwIP\src\core/tcp.c ****   }
 735:Source\LwIP\src\core/tcp.c ****   memp_free(MEMP_TCP_PCB, pcb);
ARM GAS  C:\Users\Phuong\AppData\Local\Temp\cczg95Bp.s 			page 16


 736:Source\LwIP\src\core/tcp.c **** #if LWIP_CALLBACK_API
 737:Source\LwIP\src\core/tcp.c ****   lpcb->accept = tcp_accept_null;
 738:Source\LwIP\src\core/tcp.c **** #endif /* LWIP_CALLBACK_API */
 739:Source\LwIP\src\core/tcp.c **** #if TCP_LISTEN_BACKLOG
 740:Source\LwIP\src\core/tcp.c ****   lpcb->accepts_pending = 0;
 741:Source\LwIP\src\core/tcp.c ****   tcp_backlog_set(lpcb, backlog);
 742:Source\LwIP\src\core/tcp.c **** #endif /* TCP_LISTEN_BACKLOG */
 743:Source\LwIP\src\core/tcp.c ****   TCP_REG(&tcp_listen_pcbs.pcbs, (struct tcp_pcb *)lpcb);
 744:Source\LwIP\src\core/tcp.c ****   res = ERR_OK;
 745:Source\LwIP\src\core/tcp.c **** done:
 746:Source\LwIP\src\core/tcp.c ****   if (err != NULL) {
 747:Source\LwIP\src\core/tcp.c ****     *err = res;
 748:Source\LwIP\src\core/tcp.c ****   }
 749:Source\LwIP\src\core/tcp.c ****   return (struct tcp_pcb *)lpcb;
 750:Source\LwIP\src\core/tcp.c **** }
 751:Source\LwIP\src\core/tcp.c **** 
 752:Source\LwIP\src\core/tcp.c **** /**
 753:Source\LwIP\src\core/tcp.c ****  * Update the state that tracks the available window space to advertise.
 754:Source\LwIP\src\core/tcp.c ****  *
 755:Source\LwIP\src\core/tcp.c ****  * Returns how much extra window would be advertised if we sent an
 756:Source\LwIP\src\core/tcp.c ****  * update now.
 757:Source\LwIP\src\core/tcp.c ****  */
 758:Source\LwIP\src\core/tcp.c **** u32_t
 759:Source\LwIP\src\core/tcp.c **** tcp_update_rcv_ann_wnd(struct tcp_pcb *pcb)
 760:Source\LwIP\src\core/tcp.c **** {
 761:Source\LwIP\src\core/tcp.c ****   u32_t new_right_edge = pcb->rcv_nxt + pcb->rcv_wnd;
 762:Source\LwIP\src\core/tcp.c **** 
 763:Source\LwIP\src\core/tcp.c ****   if (TCP_SEQ_GEQ(new_right_edge, pcb->rcv_ann_right_edge + LWIP_MIN((TCP_WND / 2), pcb->mss))) {
 764:Source\LwIP\src\core/tcp.c ****     /* we can advertise more window */
 765:Source\LwIP\src\core/tcp.c ****     pcb->rcv_ann_wnd = pcb->rcv_wnd;
 766:Source\LwIP\src\core/tcp.c ****     return new_right_edge - pcb->rcv_ann_right_edge;
 767:Source\LwIP\src\core/tcp.c ****   } else {
 768:Source\LwIP\src\core/tcp.c ****     if (TCP_SEQ_GT(pcb->rcv_nxt, pcb->rcv_ann_right_edge)) {
 769:Source\LwIP\src\core/tcp.c ****       /* Can happen due to other end sending out of advertised window,
 770:Source\LwIP\src\core/tcp.c ****        * but within actual available (but not yet advertised) window */
 771:Source\LwIP\src\core/tcp.c ****       pcb->rcv_ann_wnd = 0;
 772:Source\LwIP\src\core/tcp.c ****     } else {
 773:Source\LwIP\src\core/tcp.c ****       /* keep the right edge of window constant */
 774:Source\LwIP\src\core/tcp.c ****       u32_t new_rcv_ann_wnd = pcb->rcv_ann_right_edge - pcb->rcv_nxt;
 775:Source\LwIP\src\core/tcp.c **** #if !LWIP_WND_SCALE
 776:Source\LwIP\src\core/tcp.c ****       LWIP_ASSERT("new_rcv_ann_wnd <= 0xffff", new_rcv_ann_wnd <= 0xffff);
 777:Source\LwIP\src\core/tcp.c **** #endif
 778:Source\LwIP\src\core/tcp.c ****       pcb->rcv_ann_wnd = (tcpwnd_size_t)new_rcv_ann_wnd;
 779:Source\LwIP\src\core/tcp.c ****     }
 780:Source\LwIP\src\core/tcp.c ****     return 0;
 781:Source\LwIP\src\core/tcp.c ****   }
 782:Source\LwIP\src\core/tcp.c **** }
 783:Source\LwIP\src\core/tcp.c **** 
 784:Source\LwIP\src\core/tcp.c **** /**
 785:Source\LwIP\src\core/tcp.c ****  * @ingroup tcp_raw
 786:Source\LwIP\src\core/tcp.c ****  * This function should be called by the application when it has
 787:Source\LwIP\src\core/tcp.c ****  * processed the data. The purpose is to advertise a larger window
 788:Source\LwIP\src\core/tcp.c ****  * when the data has been processed.
 789:Source\LwIP\src\core/tcp.c ****  *
 790:Source\LwIP\src\core/tcp.c ****  * @param pcb the tcp_pcb for which data is read
 791:Source\LwIP\src\core/tcp.c ****  * @param len the amount of bytes that have been read by the application
 792:Source\LwIP\src\core/tcp.c ****  */
ARM GAS  C:\Users\Phuong\AppData\Local\Temp\cczg95Bp.s 			page 17


 793:Source\LwIP\src\core/tcp.c **** void
 794:Source\LwIP\src\core/tcp.c **** tcp_recved(struct tcp_pcb *pcb, u16_t len)
 795:Source\LwIP\src\core/tcp.c **** {
 796:Source\LwIP\src\core/tcp.c ****   int wnd_inflation;
 797:Source\LwIP\src\core/tcp.c **** 
 798:Source\LwIP\src\core/tcp.c ****   /* pcb->state LISTEN not allowed here */
 799:Source\LwIP\src\core/tcp.c ****   LWIP_ASSERT("don't call tcp_recved for listen-pcbs",
 800:Source\LwIP\src\core/tcp.c ****     pcb->state != LISTEN);
 801:Source\LwIP\src\core/tcp.c **** 
 802:Source\LwIP\src\core/tcp.c ****   pcb->rcv_wnd += len;
 803:Source\LwIP\src\core/tcp.c ****   if (pcb->rcv_wnd > TCP_WND_MAX(pcb)) {
 804:Source\LwIP\src\core/tcp.c ****     pcb->rcv_wnd = TCP_WND_MAX(pcb);
 805:Source\LwIP\src\core/tcp.c ****   } else if (pcb->rcv_wnd == 0) {
 806:Source\LwIP\src\core/tcp.c ****     /* rcv_wnd overflowed */
 807:Source\LwIP\src\core/tcp.c ****     if ((pcb->state == CLOSE_WAIT) || (pcb->state == LAST_ACK)) {
 808:Source\LwIP\src\core/tcp.c ****       /* In passive close, we allow this, since the FIN bit is added to rcv_wnd
 809:Source\LwIP\src\core/tcp.c ****          by the stack itself, since it is not mandatory for an application
 810:Source\LwIP\src\core/tcp.c ****          to call tcp_recved() for the FIN bit, but e.g. the netconn API does so. */
 811:Source\LwIP\src\core/tcp.c ****       pcb->rcv_wnd = TCP_WND_MAX(pcb);
 812:Source\LwIP\src\core/tcp.c ****     } else {
 813:Source\LwIP\src\core/tcp.c ****       LWIP_ASSERT("tcp_recved: len wrapped rcv_wnd\n", 0);
 814:Source\LwIP\src\core/tcp.c ****     }
 815:Source\LwIP\src\core/tcp.c ****   }
 816:Source\LwIP\src\core/tcp.c **** 
 817:Source\LwIP\src\core/tcp.c ****   wnd_inflation = tcp_update_rcv_ann_wnd(pcb);
 818:Source\LwIP\src\core/tcp.c **** 
 819:Source\LwIP\src\core/tcp.c ****   /* If the change in the right edge of window is significant (default
 820:Source\LwIP\src\core/tcp.c ****    * watermark is TCP_WND/4), then send an explicit update now.
 821:Source\LwIP\src\core/tcp.c ****    * Otherwise wait for a packet to be sent in the normal course of
 822:Source\LwIP\src\core/tcp.c ****    * events (or more window to be available later) */
 823:Source\LwIP\src\core/tcp.c ****   if (wnd_inflation >= TCP_WND_UPDATE_THRESHOLD) {
 824:Source\LwIP\src\core/tcp.c ****     tcp_ack_now(pcb);
 825:Source\LwIP\src\core/tcp.c ****     tcp_output(pcb);
 826:Source\LwIP\src\core/tcp.c ****   }
 827:Source\LwIP\src\core/tcp.c **** 
 828:Source\LwIP\src\core/tcp.c ****   LWIP_DEBUGF(TCP_DEBUG, ("tcp_recved: received %"U16_F" bytes, wnd %"TCPWNDSIZE_F" (%"TCPWNDSIZE_F
 829:Source\LwIP\src\core/tcp.c ****          len, pcb->rcv_wnd, (u16_t)(TCP_WND_MAX(pcb) - pcb->rcv_wnd)));
 830:Source\LwIP\src\core/tcp.c **** }
 831:Source\LwIP\src\core/tcp.c **** 
 832:Source\LwIP\src\core/tcp.c **** /**
 833:Source\LwIP\src\core/tcp.c ****  * Allocate a new local TCP port.
 834:Source\LwIP\src\core/tcp.c ****  *
 835:Source\LwIP\src\core/tcp.c ****  * @return a new (free) local TCP port number
 836:Source\LwIP\src\core/tcp.c ****  */
 837:Source\LwIP\src\core/tcp.c **** static u16_t
 838:Source\LwIP\src\core/tcp.c **** tcp_new_port(void)
 839:Source\LwIP\src\core/tcp.c **** {
 117              		.loc 1 839 0
 118              		.cfi_startproc
 119              		@ args = 0, pretend = 0, frame = 0
 120              		@ frame_needed = 0, uses_anonymous_args = 0
 121 0000 10B5     		push	{r4, lr}
 122              		.cfi_def_cfa_offset 8
 123              		.cfi_offset 4, -8
 124              		.cfi_offset 14, -4
 125              	.LVL10:
 840:Source\LwIP\src\core/tcp.c ****   u8_t i;
ARM GAS  C:\Users\Phuong\AppData\Local\Temp\cczg95Bp.s 			page 18


 841:Source\LwIP\src\core/tcp.c ****   u16_t n = 0;
 126              		.loc 1 841 0
 127 0002 0024     		movs	r4, #0
 128              	.LVL11:
 129              	.L11:
 842:Source\LwIP\src\core/tcp.c ****   struct tcp_pcb *pcb;
 843:Source\LwIP\src\core/tcp.c **** 
 844:Source\LwIP\src\core/tcp.c **** again:
 845:Source\LwIP\src\core/tcp.c ****   if (tcp_port++ == TCP_LOCAL_PORT_RANGE_END) {
 130              		.loc 1 845 0
 131 0004 134A     		ldr	r2, .L20
 132 0006 1388     		ldrh	r3, [r2]
 133 0008 591C     		adds	r1, r3, #1
 134 000a 1180     		strh	r1, [r2]
 135 000c 124A     		ldr	r2, .L20+4
 136 000e 9342     		cmp	r3, r2
 137 0010 02D1     		bne	.L12
 846:Source\LwIP\src\core/tcp.c ****     tcp_port = TCP_LOCAL_PORT_RANGE_START;
 138              		.loc 1 846 0
 139 0012 124A     		ldr	r2, .L20+8
 140 0014 0F4B     		ldr	r3, .L20
 141 0016 1A80     		strh	r2, [r3]
 142              	.L12:
 143              	.LVL12:
 847:Source\LwIP\src\core/tcp.c ****   }
 848:Source\LwIP\src\core/tcp.c ****   /* Check all PCB lists. */
 849:Source\LwIP\src\core/tcp.c ****   for (i = 0; i < NUM_TCP_PCB_LISTS; i++) {
 144              		.loc 1 849 0
 145 0018 0020     		movs	r0, #0
 146 001a 14E0     		b	.L13
 147              	.LVL13:
 148              	.L18:
 850:Source\LwIP\src\core/tcp.c ****     for (pcb = *tcp_pcb_lists[i]; pcb != NULL; pcb = pcb->next) {
 149              		.loc 1 850 0
 150 001c 8300     		lsls	r3, r0, #2
 151 001e 104A     		ldr	r2, .L20+12
 152 0020 9B58     		ldr	r3, [r3, r2]
 153 0022 1B68     		ldr	r3, [r3]
 154              	.LVL14:
 155 0024 0BE0     		b	.L14
 156              	.L17:
 851:Source\LwIP\src\core/tcp.c ****       if (pcb->local_port == tcp_port) {
 157              		.loc 1 851 0
 158 0026 D98A     		ldrh	r1, [r3, #22]
 159 0028 0A4A     		ldr	r2, .L20
 160 002a 1288     		ldrh	r2, [r2]
 161 002c 9142     		cmp	r1, r2
 162 002e 05D1     		bne	.L15
 852:Source\LwIP\src\core/tcp.c ****         if (++n > (TCP_LOCAL_PORT_RANGE_END - TCP_LOCAL_PORT_RANGE_START)) {
 163              		.loc 1 852 0
 164 0030 0134     		adds	r4, r4, #1
 165              	.LVL15:
 166 0032 A4B2     		uxth	r4, r4
 167              	.LVL16:
 168 0034 0B4B     		ldr	r3, .L20+16
 169              	.LVL17:
 170 0036 9C42     		cmp	r4, r3
ARM GAS  C:\Users\Phuong\AppData\Local\Temp\cczg95Bp.s 			page 19


 171 0038 E4D9     		bls	.L11
 172 003a 09E0     		b	.L19
 173              	.LVL18:
 174              	.L15:
 850:Source\LwIP\src\core/tcp.c ****     for (pcb = *tcp_pcb_lists[i]; pcb != NULL; pcb = pcb->next) {
 175              		.loc 1 850 0 discriminator 2
 176 003c DB68     		ldr	r3, [r3, #12]
 177              	.LVL19:
 178              	.L14:
 850:Source\LwIP\src\core/tcp.c ****     for (pcb = *tcp_pcb_lists[i]; pcb != NULL; pcb = pcb->next) {
 179              		.loc 1 850 0 is_stmt 0 discriminator 1
 180 003e 002B     		cmp	r3, #0
 181 0040 F1D1     		bne	.L17
 849:Source\LwIP\src\core/tcp.c ****     for (pcb = *tcp_pcb_lists[i]; pcb != NULL; pcb = pcb->next) {
 182              		.loc 1 849 0 is_stmt 1 discriminator 2
 183 0042 0130     		adds	r0, r0, #1
 184              	.LVL20:
 185 0044 C0B2     		uxtb	r0, r0
 186              	.LVL21:
 187              	.L13:
 849:Source\LwIP\src\core/tcp.c ****     for (pcb = *tcp_pcb_lists[i]; pcb != NULL; pcb = pcb->next) {
 188              		.loc 1 849 0 is_stmt 0 discriminator 1
 189 0046 0328     		cmp	r0, #3
 190 0048 E8D9     		bls	.L18
 853:Source\LwIP\src\core/tcp.c ****           return 0;
 854:Source\LwIP\src\core/tcp.c ****         }
 855:Source\LwIP\src\core/tcp.c ****         goto again;
 856:Source\LwIP\src\core/tcp.c ****       }
 857:Source\LwIP\src\core/tcp.c ****     }
 858:Source\LwIP\src\core/tcp.c ****   }
 859:Source\LwIP\src\core/tcp.c ****   return tcp_port;
 191              		.loc 1 859 0 is_stmt 1
 192 004a 024B     		ldr	r3, .L20
 193 004c 1888     		ldrh	r0, [r3]
 194              	.LVL22:
 195 004e 00E0     		b	.L16
 196              	.LVL23:
 197              	.L19:
 853:Source\LwIP\src\core/tcp.c ****           return 0;
 198              		.loc 1 853 0
 199 0050 0020     		movs	r0, #0
 200              	.LVL24:
 201              	.L16:
 860:Source\LwIP\src\core/tcp.c **** }
 202              		.loc 1 860 0
 203              		@ sp needed
 204              	.LVL25:
 205 0052 10BD     		pop	{r4, pc}
 206              	.L21:
 207              		.align	2
 208              	.L20:
 209 0054 00000000 		.word	.LANCHOR1
 210 0058 FFFF0000 		.word	65535
 211 005c 00C0FFFF 		.word	-16384
 212 0060 00000000 		.word	.LANCHOR0
 213 0064 FF3F0000 		.word	16383
 214              		.cfi_endproc
ARM GAS  C:\Users\Phuong\AppData\Local\Temp\cczg95Bp.s 			page 20


 215              	.LFE71:
 216              		.size	tcp_new_port, .-tcp_new_port
 217              		.section	.text.tcp_init,"ax",%progbits
 218              		.align	2
 219              		.global	tcp_init
 220              		.code	16
 221              		.thumb_func
 222              		.type	tcp_init, %function
 223              	tcp_init:
 224              	.LFB53:
 146:Source\LwIP\src\core/tcp.c **** #if LWIP_RANDOMIZE_INITIAL_LOCAL_PORTS && defined(LWIP_RAND)
 225              		.loc 1 146 0
 226              		.cfi_startproc
 227              		@ args = 0, pretend = 0, frame = 0
 228              		@ frame_needed = 0, uses_anonymous_args = 0
 229 0000 10B5     		push	{r4, lr}
 230              		.cfi_def_cfa_offset 8
 231              		.cfi_offset 4, -8
 232              		.cfi_offset 14, -4
 148:Source\LwIP\src\core/tcp.c **** #endif /* LWIP_RANDOMIZE_INITIAL_LOCAL_PORTS && defined(LWIP_RAND) */
 233              		.loc 1 148 0
 234 0002 FFF7FEFF 		bl	sys_rand16
 235              	.LVL26:
 236 0006 8004     		lsls	r0, r0, #18
 237 0008 800C     		lsrs	r0, r0, #18
 238 000a 034B     		ldr	r3, .L23
 239 000c 9C46     		mov	ip, r3
 240 000e 6044     		add	r0, r0, ip
 241 0010 024B     		ldr	r3, .L23+4
 242 0012 1880     		strh	r0, [r3]
 150:Source\LwIP\src\core/tcp.c **** 
 243              		.loc 1 150 0
 244              		@ sp needed
 245 0014 10BD     		pop	{r4, pc}
 246              	.L24:
 247 0016 C046     		.align	2
 248              	.L23:
 249 0018 00C0FFFF 		.word	-16384
 250 001c 00000000 		.word	.LANCHOR1
 251              		.cfi_endproc
 252              	.LFE53:
 253              		.size	tcp_init, .-tcp_init
 254              		.section	.text.tcp_backlog_delayed,"ax",%progbits
 255              		.align	2
 256              		.global	tcp_backlog_delayed
 257              		.code	16
 258              		.thumb_func
 259              		.type	tcp_backlog_delayed, %function
 260              	tcp_backlog_delayed:
 261              	.LFB57:
 214:Source\LwIP\src\core/tcp.c ****   LWIP_ASSERT("pcb != NULL", pcb != NULL);
 262              		.loc 1 214 0
 263              		.cfi_startproc
 264              		@ args = 0, pretend = 0, frame = 0
 265              		@ frame_needed = 0, uses_anonymous_args = 0
 266              		@ link register save eliminated.
 267              	.LVL27:
ARM GAS  C:\Users\Phuong\AppData\Local\Temp\cczg95Bp.s 			page 21


 216:Source\LwIP\src\core/tcp.c ****     if (pcb->listener != NULL) {
 268              		.loc 1 216 0
 269 0000 438B     		ldrh	r3, [r0, #26]
 270 0002 9B05     		lsls	r3, r3, #22
 271 0004 0AD4     		bmi	.L25
 217:Source\LwIP\src\core/tcp.c ****       pcb->listener->accepts_pending++;
 272              		.loc 1 217 0
 273 0006 836F     		ldr	r3, [r0, #120]
 274 0008 002B     		cmp	r3, #0
 275 000a 07D0     		beq	.L25
 218:Source\LwIP\src\core/tcp.c ****       LWIP_ASSERT("accepts_pending != 0", pcb->listener->accepts_pending != 0);
 276              		.loc 1 218 0
 277 000c 5A7F     		ldrb	r2, [r3, #29]
 278 000e 0132     		adds	r2, r2, #1
 279 0010 5A77     		strb	r2, [r3, #29]
 220:Source\LwIP\src\core/tcp.c ****     }
 280              		.loc 1 220 0
 281 0012 438B     		ldrh	r3, [r0, #26]
 282 0014 8022     		movs	r2, #128
 283 0016 9200     		lsls	r2, r2, #2
 284 0018 1343     		orrs	r3, r2
 285 001a 4383     		strh	r3, [r0, #26]
 286              	.L25:
 223:Source\LwIP\src\core/tcp.c **** 
 287              		.loc 1 223 0
 288              		@ sp needed
 289 001c 7047     		bx	lr
 290              		.cfi_endproc
 291              	.LFE57:
 292              		.size	tcp_backlog_delayed, .-tcp_backlog_delayed
 293 001e C046     		.section	.text.tcp_backlog_accepted,"ax",%progbits
 294              		.align	2
 295              		.global	tcp_backlog_accepted
 296              		.code	16
 297              		.thumb_func
 298              		.type	tcp_backlog_accepted, %function
 299              	tcp_backlog_accepted:
 300              	.LFB58:
 236:Source\LwIP\src\core/tcp.c ****   LWIP_ASSERT("pcb != NULL", pcb != NULL);
 301              		.loc 1 236 0
 302              		.cfi_startproc
 303              		@ args = 0, pretend = 0, frame = 0
 304              		@ frame_needed = 0, uses_anonymous_args = 0
 305              		@ link register save eliminated.
 306              	.LVL28:
 238:Source\LwIP\src\core/tcp.c ****     if (pcb->listener != NULL) {
 307              		.loc 1 238 0
 308 0000 438B     		ldrh	r3, [r0, #26]
 309 0002 9B05     		lsls	r3, r3, #22
 310 0004 09D5     		bpl	.L27
 239:Source\LwIP\src\core/tcp.c ****       LWIP_ASSERT("accepts_pending != 0", pcb->listener->accepts_pending != 0);
 311              		.loc 1 239 0
 312 0006 836F     		ldr	r3, [r0, #120]
 313 0008 002B     		cmp	r3, #0
 314 000a 06D0     		beq	.L27
 241:Source\LwIP\src\core/tcp.c ****       pcb->flags &= ~TF_BACKLOGPEND;
 315              		.loc 1 241 0
ARM GAS  C:\Users\Phuong\AppData\Local\Temp\cczg95Bp.s 			page 22


 316 000c 5A7F     		ldrb	r2, [r3, #29]
 317 000e 013A     		subs	r2, r2, #1
 318 0010 5A77     		strb	r2, [r3, #29]
 242:Source\LwIP\src\core/tcp.c ****     }
 319              		.loc 1 242 0
 320 0012 428B     		ldrh	r2, [r0, #26]
 321 0014 014B     		ldr	r3, .L29
 322 0016 1340     		ands	r3, r2
 323 0018 4383     		strh	r3, [r0, #26]
 324              	.L27:
 245:Source\LwIP\src\core/tcp.c **** #endif /* TCP_LISTEN_BACKLOG */
 325              		.loc 1 245 0
 326              		@ sp needed
 327 001a 7047     		bx	lr
 328              	.L30:
 329              		.align	2
 330              	.L29:
 331 001c FFFDFFFF 		.word	-513
 332              		.cfi_endproc
 333              	.LFE58:
 334              		.size	tcp_backlog_accepted, .-tcp_backlog_accepted
 335              		.section	.text.tcp_close_shutdown_fin,"ax",%progbits
 336              		.align	2
 337              		.code	16
 338              		.thumb_func
 339              		.type	tcp_close_shutdown_fin, %function
 340              	tcp_close_shutdown_fin:
 341              	.LFB60:
 331:Source\LwIP\src\core/tcp.c ****   err_t err;
 342              		.loc 1 331 0
 343              		.cfi_startproc
 344              		@ args = 0, pretend = 0, frame = 0
 345              		@ frame_needed = 0, uses_anonymous_args = 0
 346              	.LVL29:
 347 0000 70B5     		push	{r4, r5, r6, lr}
 348              		.cfi_def_cfa_offset 16
 349              		.cfi_offset 4, -16
 350              		.cfi_offset 5, -12
 351              		.cfi_offset 6, -8
 352              		.cfi_offset 14, -4
 353 0002 0500     		movs	r5, r0
 335:Source\LwIP\src\core/tcp.c ****   case SYN_RCVD:
 354              		.loc 1 335 0
 355 0004 037D     		ldrb	r3, [r0, #20]
 356 0006 042B     		cmp	r3, #4
 357 0008 0DD0     		beq	.L33
 358 000a 072B     		cmp	r3, #7
 359 000c 12D0     		beq	.L34
 360 000e 032B     		cmp	r3, #3
 361 0010 25D1     		bne	.L40
 337:Source\LwIP\src\core/tcp.c ****     if (err == ERR_OK) {
 362              		.loc 1 337 0
 363 0012 FFF7FEFF 		bl	tcp_send_fin
 364              	.LVL30:
 365 0016 041E     		subs	r4, r0, #0
 366              	.LVL31:
 338:Source\LwIP\src\core/tcp.c ****       tcp_backlog_accepted(pcb);
ARM GAS  C:\Users\Phuong\AppData\Local\Temp\cczg95Bp.s 			page 23


 367              		.loc 1 338 0
 368 0018 12D1     		bne	.L36
 339:Source\LwIP\src\core/tcp.c ****       MIB2_STATS_INC(mib2.tcpattemptfails);
 369              		.loc 1 339 0
 370 001a 2800     		movs	r0, r5
 371              	.LVL32:
 372 001c FFF7FEFF 		bl	tcp_backlog_accepted
 373              	.LVL33:
 341:Source\LwIP\src\core/tcp.c ****     }
 374              		.loc 1 341 0
 375 0020 0523     		movs	r3, #5
 376 0022 2B75     		strb	r3, [r5, #20]
 377 0024 0CE0     		b	.L36
 378              	.LVL34:
 379              	.L33:
 345:Source\LwIP\src\core/tcp.c ****     if (err == ERR_OK) {
 380              		.loc 1 345 0
 381 0026 FFF7FEFF 		bl	tcp_send_fin
 382              	.LVL35:
 383 002a 041E     		subs	r4, r0, #0
 384              	.LVL36:
 346:Source\LwIP\src\core/tcp.c ****       MIB2_STATS_INC(mib2.tcpestabresets);
 385              		.loc 1 346 0
 386 002c 08D1     		bne	.L36
 348:Source\LwIP\src\core/tcp.c ****     }
 387              		.loc 1 348 0
 388 002e 0523     		movs	r3, #5
 389 0030 2B75     		strb	r3, [r5, #20]
 390 0032 05E0     		b	.L36
 391              	.LVL37:
 392              	.L34:
 352:Source\LwIP\src\core/tcp.c ****     if (err == ERR_OK) {
 393              		.loc 1 352 0
 394 0034 FFF7FEFF 		bl	tcp_send_fin
 395              	.LVL38:
 396 0038 041E     		subs	r4, r0, #0
 397              	.LVL39:
 353:Source\LwIP\src\core/tcp.c ****       MIB2_STATS_INC(mib2.tcpestabresets);
 398              		.loc 1 353 0
 399 003a 01D1     		bne	.L36
 355:Source\LwIP\src\core/tcp.c ****     }
 400              		.loc 1 355 0
 401 003c 0923     		movs	r3, #9
 402 003e 2B75     		strb	r3, [r5, #20]
 403              	.LVL40:
 404              	.L36:
 363:Source\LwIP\src\core/tcp.c ****     /* To ensure all data has been sent when tcp_close returns, we have
 405              		.loc 1 363 0
 406 0040 002C     		cmp	r4, #0
 407 0042 04D1     		bne	.L37
 369:Source\LwIP\src\core/tcp.c ****   } else if (err == ERR_MEM) {
 408              		.loc 1 369 0
 409 0044 2800     		movs	r0, r5
 410 0046 FFF7FEFF 		bl	tcp_output
 411              	.LVL41:
 380:Source\LwIP\src\core/tcp.c **** }
 412              		.loc 1 380 0
ARM GAS  C:\Users\Phuong\AppData\Local\Temp\cczg95Bp.s 			page 24


 413 004a 2000     		movs	r0, r4
 414 004c 0AE0     		b	.L32
 415              	.L37:
 370:Source\LwIP\src\core/tcp.c ****     /* Mark this pcb for closing. Closing is retried from tcp_tmr. */
 416              		.loc 1 370 0
 417 004e 631C     		adds	r3, r4, #1
 418 0050 07D1     		bne	.L39
 372:Source\LwIP\src\core/tcp.c ****     /* We have to return ERR_OK from here to indicate to the callers that this
 419              		.loc 1 372 0
 420 0052 6A8B     		ldrh	r2, [r5, #26]
 421 0054 0823     		movs	r3, #8
 422 0056 1343     		orrs	r3, r2
 423 0058 6B83     		strh	r3, [r5, #26]
 378:Source\LwIP\src\core/tcp.c ****   }
 424              		.loc 1 378 0
 425 005a 0020     		movs	r0, #0
 426 005c 02E0     		b	.L32
 427              	.LVL42:
 428              	.L40:
 360:Source\LwIP\src\core/tcp.c ****   }
 429              		.loc 1 360 0
 430 005e 0020     		movs	r0, #0
 431              	.LVL43:
 432 0060 00E0     		b	.L32
 433              	.LVL44:
 434              	.L39:
 380:Source\LwIP\src\core/tcp.c **** }
 435              		.loc 1 380 0
 436 0062 2000     		movs	r0, r4
 437              	.LVL45:
 438              	.L32:
 381:Source\LwIP\src\core/tcp.c **** 
 439              		.loc 1 381 0
 440              		@ sp needed
 441              	.LVL46:
 442 0064 70BD     		pop	{r4, r5, r6, pc}
 443              		.cfi_endproc
 444              	.LFE60:
 445              		.size	tcp_close_shutdown_fin, .-tcp_close_shutdown_fin
 446 0066 C046     		.section	.text.tcp_bind,"ax",%progbits
 447              		.align	2
 448              		.global	tcp_bind
 449              		.code	16
 450              		.thumb_func
 451              		.type	tcp_bind, %function
 452              	tcp_bind:
 453              	.LFB65:
 563:Source\LwIP\src\core/tcp.c ****   int i;
 454              		.loc 1 563 0
 455              		.cfi_startproc
 456              		@ args = 0, pretend = 0, frame = 0
 457              		@ frame_needed = 0, uses_anonymous_args = 0
 458              	.LVL47:
 459 0000 F8B5     		push	{r3, r4, r5, r6, r7, lr}
 460              		.cfi_def_cfa_offset 24
 461              		.cfi_offset 3, -24
 462              		.cfi_offset 4, -20
ARM GAS  C:\Users\Phuong\AppData\Local\Temp\cczg95Bp.s 			page 25


 463              		.cfi_offset 5, -16
 464              		.cfi_offset 6, -12
 465              		.cfi_offset 7, -8
 466              		.cfi_offset 14, -4
 467 0002 0600     		movs	r6, r0
 468 0004 0C1E     		subs	r4, r1, #0
 469              	.LVL48:
 570:Source\LwIP\src\core/tcp.c ****     ipaddr = IP4_ADDR_ANY;
 470              		.loc 1 570 0
 471 0006 00D1     		bne	.L42
 571:Source\LwIP\src\core/tcp.c ****   }
 472              		.loc 1 571 0
 473 0008 324C     		ldr	r4, .L67
 474              	.L42:
 475              	.LVL49:
 576:Source\LwIP\src\core/tcp.c ****     return ERR_VAL;
 476              		.loc 1 576 0
 477 000a 002E     		cmp	r6, #0
 478 000c 47D0     		beq	.L55
 576:Source\LwIP\src\core/tcp.c ****     return ERR_VAL;
 479              		.loc 1 576 0 is_stmt 0 discriminator 1
 480 000e 002C     		cmp	r4, #0
 481 0010 48D0     		beq	.L56
 580:Source\LwIP\src\core/tcp.c **** 
 482              		.loc 1 580 0 is_stmt 1
 483 0012 337D     		ldrb	r3, [r6, #20]
 484 0014 002B     		cmp	r3, #0
 485 0016 48D1     		bne	.L57
 588:Source\LwIP\src\core/tcp.c ****     max_pcb_list = NUM_TCP_PCB_LISTS_NO_TIME_WAIT;
 486              		.loc 1 588 0
 487 0018 337A     		ldrb	r3, [r6, #8]
 488 001a 0425     		movs	r5, #4
 489 001c 1D40     		ands	r5, r3
 490 001e 02D1     		bne	.L58
 565:Source\LwIP\src\core/tcp.c ****   struct tcp_pcb *cpcb;
 491              		.loc 1 565 0
 492 0020 0423     		movs	r3, #4
 493 0022 9C46     		mov	ip, r3
 494 0024 01E0     		b	.L44
 495              	.L58:
 589:Source\LwIP\src\core/tcp.c ****   }
 496              		.loc 1 589 0
 497 0026 0323     		movs	r3, #3
 498 0028 9C46     		mov	ip, r3
 499              	.L44:
 500              	.LVL50:
 593:Source\LwIP\src\core/tcp.c ****     port = tcp_new_port();
 501              		.loc 1 593 0
 502 002a 002A     		cmp	r2, #0
 503 002c 22D1     		bne	.L59
 594:Source\LwIP\src\core/tcp.c ****     if (port == 0) {
 504              		.loc 1 594 0
 505 002e FFF7FEFF 		bl	tcp_new_port
 506              	.LVL51:
 507 0032 021E     		subs	r2, r0, #0
 508              	.LVL52:
 595:Source\LwIP\src\core/tcp.c ****       return ERR_BUF;
ARM GAS  C:\Users\Phuong\AppData\Local\Temp\cczg95Bp.s 			page 26


 509              		.loc 1 595 0
 510 0034 21D1     		bne	.L46
 511 0036 3BE0     		b	.L60
 512              	.LVL53:
 513              	.L51:
 601:Source\LwIP\src\core/tcp.c ****         if (cpcb->local_port == port) {
 514              		.loc 1 601 0
 515 0038 BB00     		lsls	r3, r7, #2
 516 003a 2749     		ldr	r1, .L67+4
 517 003c 5B58     		ldr	r3, [r3, r1]
 518 003e 1B68     		ldr	r3, [r3]
 519              	.LVL54:
 520 0040 14E0     		b	.L47
 521              	.L50:
 602:Source\LwIP\src\core/tcp.c **** #if SO_REUSE
 522              		.loc 1 602 0
 523 0042 D98A     		ldrh	r1, [r3, #22]
 524 0044 8A42     		cmp	r2, r1
 525 0046 10D1     		bne	.L48
 607:Source\LwIP\src\core/tcp.c ****               !ip_get_option(cpcb, SOF_REUSEADDR))
 526              		.loc 1 607 0
 527 0048 002D     		cmp	r5, #0
 528 004a 02D0     		beq	.L49
 608:Source\LwIP\src\core/tcp.c **** #endif /* SO_REUSE */
 529              		.loc 1 608 0 discriminator 1
 530 004c 197A     		ldrb	r1, [r3, #8]
 607:Source\LwIP\src\core/tcp.c ****               !ip_get_option(cpcb, SOF_REUSEADDR))
 531              		.loc 1 607 0 discriminator 1
 532 004e 4907     		lsls	r1, r1, #29
 533 0050 0BD4     		bmi	.L48
 534              	.L49:
 612:Source\LwIP\src\core/tcp.c ****                 (ip_addr_isany(&cpcb->local_ip) ||
 535              		.loc 1 612 0
 536 0052 002B     		cmp	r3, #0
 537 0054 2FD0     		beq	.L61
 613:Source\LwIP\src\core/tcp.c ****                 ip_addr_isany(ipaddr) ||
 538              		.loc 1 613 0
 539 0056 1968     		ldr	r1, [r3]
 540 0058 0029     		cmp	r1, #0
 541 005a 2FD0     		beq	.L62
 613:Source\LwIP\src\core/tcp.c ****                 ip_addr_isany(ipaddr) ||
 542              		.loc 1 613 0 is_stmt 0 discriminator 1
 543 005c 002C     		cmp	r4, #0
 544 005e 30D0     		beq	.L63
 614:Source\LwIP\src\core/tcp.c ****                 ip_addr_cmp(&cpcb->local_ip, ipaddr))) {
 545              		.loc 1 614 0 is_stmt 1
 546 0060 2068     		ldr	r0, [r4]
 547 0062 0028     		cmp	r0, #0
 548 0064 30D0     		beq	.L64
 612:Source\LwIP\src\core/tcp.c ****                 (ip_addr_isany(&cpcb->local_ip) ||
 549              		.loc 1 612 0
 550 0066 8142     		cmp	r1, r0
 551 0068 31D0     		beq	.L65
 552              	.L48:
 601:Source\LwIP\src\core/tcp.c ****         if (cpcb->local_port == port) {
 553              		.loc 1 601 0 discriminator 2
 554 006a DB68     		ldr	r3, [r3, #12]
ARM GAS  C:\Users\Phuong\AppData\Local\Temp\cczg95Bp.s 			page 27


 555              	.LVL55:
 556              	.L47:
 601:Source\LwIP\src\core/tcp.c ****         if (cpcb->local_port == port) {
 557              		.loc 1 601 0 is_stmt 0 discriminator 1
 558 006c 002B     		cmp	r3, #0
 559 006e E8D1     		bne	.L50
 600:Source\LwIP\src\core/tcp.c ****       for (cpcb = *tcp_pcb_lists[i]; cpcb != NULL; cpcb = cpcb->next) {
 560              		.loc 1 600 0 is_stmt 1 discriminator 2
 561 0070 0137     		adds	r7, r7, #1
 562              	.LVL56:
 563 0072 00E0     		b	.L45
 564              	.LVL57:
 565              	.L59:
 566 0074 0027     		movs	r7, #0
 567              	.LVL58:
 568              	.L45:
 600:Source\LwIP\src\core/tcp.c ****       for (cpcb = *tcp_pcb_lists[i]; cpcb != NULL; cpcb = cpcb->next) {
 569              		.loc 1 600 0 is_stmt 0 discriminator 1
 570 0076 6745     		cmp	r7, ip
 571 0078 DEDB     		blt	.L51
 572              	.LVL59:
 573              	.L46:
 624:Source\LwIP\src\core/tcp.c ****     ip_addr_set(&pcb->local_ip, ipaddr);
 574              		.loc 1 624 0 is_stmt 1
 575 007a 002C     		cmp	r4, #0
 576 007c 06D0     		beq	.L52
 624:Source\LwIP\src\core/tcp.c ****     ip_addr_set(&pcb->local_ip, ipaddr);
 577              		.loc 1 624 0 is_stmt 0 discriminator 1
 578 007e 2368     		ldr	r3, [r4]
 579 0080 002B     		cmp	r3, #0
 580 0082 03D0     		beq	.L52
 625:Source\LwIP\src\core/tcp.c ****   }
 581              		.loc 1 625 0 is_stmt 1
 582 0084 002C     		cmp	r4, #0
 583 0086 00D1     		bne	.L53
 584 0088 0023     		movs	r3, #0
 585              	.L53:
 625:Source\LwIP\src\core/tcp.c ****   }
 586              		.loc 1 625 0 is_stmt 0 discriminator 4
 587 008a 3360     		str	r3, [r6]
 588              	.L52:
 627:Source\LwIP\src\core/tcp.c ****   TCP_REG(&tcp_bound_pcbs, pcb);
 589              		.loc 1 627 0 is_stmt 1
 590 008c F282     		strh	r2, [r6, #22]
 628:Source\LwIP\src\core/tcp.c ****   LWIP_DEBUGF(TCP_DEBUG, ("tcp_bind: bind to port %"U16_F"\n", port));
 591              		.loc 1 628 0
 592 008e 134B     		ldr	r3, .L67+8
 593 0090 1A68     		ldr	r2, [r3]
 594              	.LVL60:
 595 0092 F260     		str	r2, [r6, #12]
 596 0094 1E60     		str	r6, [r3]
 597 0096 FFF7FEFF 		bl	tcp_timer_needed
 598              	.LVL61:
 630:Source\LwIP\src\core/tcp.c **** }
 599              		.loc 1 630 0
 600 009a 0020     		movs	r0, #0
 601 009c 19E0     		b	.L43
ARM GAS  C:\Users\Phuong\AppData\Local\Temp\cczg95Bp.s 			page 28


 602              	.LVL62:
 603              	.L55:
 577:Source\LwIP\src\core/tcp.c ****   }
 604              		.loc 1 577 0
 605 009e 0620     		movs	r0, #6
 606              	.LVL63:
 607 00a0 4042     		rsbs	r0, r0, #0
 608 00a2 16E0     		b	.L43
 609              	.LVL64:
 610              	.L56:
 611 00a4 0620     		movs	r0, #6
 612              	.LVL65:
 613 00a6 4042     		rsbs	r0, r0, #0
 614 00a8 13E0     		b	.L43
 615              	.LVL66:
 616              	.L57:
 580:Source\LwIP\src\core/tcp.c **** 
 617              		.loc 1 580 0
 618 00aa 0620     		movs	r0, #6
 619              	.LVL67:
 620 00ac 4042     		rsbs	r0, r0, #0
 621 00ae 10E0     		b	.L43
 622              	.LVL68:
 623              	.L60:
 596:Source\LwIP\src\core/tcp.c ****     }
 624              		.loc 1 596 0
 625 00b0 0220     		movs	r0, #2
 626              	.LVL69:
 627 00b2 4042     		rsbs	r0, r0, #0
 628 00b4 0DE0     		b	.L43
 629              	.LVL70:
 630              	.L61:
 616:Source\LwIP\src\core/tcp.c ****             }
 631              		.loc 1 616 0
 632 00b6 0820     		movs	r0, #8
 633 00b8 4042     		rsbs	r0, r0, #0
 634 00ba 0AE0     		b	.L43
 635              	.L62:
 636 00bc 0820     		movs	r0, #8
 637 00be 4042     		rsbs	r0, r0, #0
 638 00c0 07E0     		b	.L43
 639              	.L63:
 640 00c2 0820     		movs	r0, #8
 641 00c4 4042     		rsbs	r0, r0, #0
 642 00c6 04E0     		b	.L43
 643              	.L64:
 644 00c8 0820     		movs	r0, #8
 645 00ca 4042     		rsbs	r0, r0, #0
 646 00cc 01E0     		b	.L43
 647              	.L65:
 648 00ce 0820     		movs	r0, #8
 649 00d0 4042     		rsbs	r0, r0, #0
 650              	.LVL71:
 651              	.L43:
 631:Source\LwIP\src\core/tcp.c **** #if LWIP_CALLBACK_API
 652              		.loc 1 631 0
 653              		@ sp needed
ARM GAS  C:\Users\Phuong\AppData\Local\Temp\cczg95Bp.s 			page 29


 654              	.LVL72:
 655              	.LVL73:
 656 00d2 F8BD     		pop	{r3, r4, r5, r6, r7, pc}
 657              	.L68:
 658              		.align	2
 659              	.L67:
 660 00d4 00000000 		.word	ip_addr_any
 661 00d8 00000000 		.word	.LANCHOR0
 662 00dc 00000000 		.word	tcp_bound_pcbs
 663              		.cfi_endproc
 664              	.LFE65:
 665              		.size	tcp_bind, .-tcp_bind
 666              		.section	.text.tcp_listen_with_backlog_and_err,"ax",%progbits
 667              		.align	2
 668              		.global	tcp_listen_with_backlog_and_err
 669              		.code	16
 670              		.thumb_func
 671              		.type	tcp_listen_with_backlog_and_err, %function
 672              	tcp_listen_with_backlog_and_err:
 673              	.LFB68:
 687:Source\LwIP\src\core/tcp.c ****   struct tcp_pcb_listen *lpcb = NULL;
 674              		.loc 1 687 0
 675              		.cfi_startproc
 676              		@ args = 0, pretend = 0, frame = 0
 677              		@ frame_needed = 0, uses_anonymous_args = 0
 678              	.LVL74:
 679 0000 F8B5     		push	{r3, r4, r5, r6, r7, lr}
 680              		.cfi_def_cfa_offset 24
 681              		.cfi_offset 3, -24
 682              		.cfi_offset 4, -20
 683              		.cfi_offset 5, -16
 684              		.cfi_offset 6, -12
 685              		.cfi_offset 7, -8
 686              		.cfi_offset 14, -4
 687 0002 0400     		movs	r4, r0
 688 0004 0D00     		movs	r5, r1
 689 0006 1700     		movs	r7, r2
 690              	.LVL75:
 692:Source\LwIP\src\core/tcp.c **** 
 691              		.loc 1 692 0
 692 0008 037D     		ldrb	r3, [r0, #20]
 693 000a 002B     		cmp	r3, #0
 694 000c 54D1     		bne	.L81
 695:Source\LwIP\src\core/tcp.c ****     lpcb = (struct tcp_pcb_listen*)pcb;
 695              		.loc 1 695 0
 696 000e 012B     		cmp	r3, #1
 697 0010 56D0     		beq	.L82
 701:Source\LwIP\src\core/tcp.c ****     /* Since SOF_REUSEADDR allows reusing a local address before the pcb's usage
 698              		.loc 1 701 0
 699 0012 037A     		ldrb	r3, [r0, #8]
 700 0014 5B07     		lsls	r3, r3, #29
 701 0016 0DD5     		bpl	.L71
 705:Source\LwIP\src\core/tcp.c ****       if ((lpcb->local_port == pcb->local_port) &&
 702              		.loc 1 705 0
 703 0018 314B     		ldr	r3, .L87
 704 001a 1B68     		ldr	r3, [r3]
 705              	.LVL76:
ARM GAS  C:\Users\Phuong\AppData\Local\Temp\cczg95Bp.s 			page 30


 706 001c 08E0     		b	.L72
 707              	.LVL77:
 708              	.L74:
 706:Source\LwIP\src\core/tcp.c ****           ip_addr_cmp(&lpcb->local_ip, &pcb->local_ip)) {
 709              		.loc 1 706 0
 710 001e D98A     		ldrh	r1, [r3, #22]
 711 0020 E28A     		ldrh	r2, [r4, #22]
 712 0022 9142     		cmp	r1, r2
 713 0024 03D1     		bne	.L73
 706:Source\LwIP\src\core/tcp.c ****           ip_addr_cmp(&lpcb->local_ip, &pcb->local_ip)) {
 714              		.loc 1 706 0 is_stmt 0 discriminator 1
 715 0026 1A68     		ldr	r2, [r3]
 716 0028 2168     		ldr	r1, [r4]
 717 002a 8A42     		cmp	r2, r1
 718 002c 4CD0     		beq	.L83
 719              	.L73:
 705:Source\LwIP\src\core/tcp.c ****       if ((lpcb->local_port == pcb->local_port) &&
 720              		.loc 1 705 0 is_stmt 1 discriminator 2
 721 002e DB68     		ldr	r3, [r3, #12]
 722              	.LVL78:
 723              	.L72:
 705:Source\LwIP\src\core/tcp.c ****       if ((lpcb->local_port == pcb->local_port) &&
 724              		.loc 1 705 0 is_stmt 0 discriminator 1
 725 0030 002B     		cmp	r3, #0
 726 0032 F4D1     		bne	.L74
 727              	.LVL79:
 728              	.L71:
 716:Source\LwIP\src\core/tcp.c ****   if (lpcb == NULL) {
 729              		.loc 1 716 0 is_stmt 1
 730 0034 B322     		movs	r2, #179
 731 0036 9200     		lsls	r2, r2, #2
 732 0038 2A49     		ldr	r1, .L87+4
 733 003a 0320     		movs	r0, #3
 734              	.LVL80:
 735 003c FFF7FEFF 		bl	memp_malloc_fn
 736              	.LVL81:
 737 0040 061E     		subs	r6, r0, #0
 738              	.LVL82:
 717:Source\LwIP\src\core/tcp.c ****     res = ERR_MEM;
 739              		.loc 1 717 0
 740 0042 45D0     		beq	.L84
 721:Source\LwIP\src\core/tcp.c ****   lpcb->local_port = pcb->local_port;
 741              		.loc 1 721 0
 742 0044 2369     		ldr	r3, [r4, #16]
 743 0046 0361     		str	r3, [r0, #16]
 722:Source\LwIP\src\core/tcp.c ****   lpcb->state = LISTEN;
 744              		.loc 1 722 0
 745 0048 E38A     		ldrh	r3, [r4, #22]
 746 004a C382     		strh	r3, [r0, #22]
 723:Source\LwIP\src\core/tcp.c ****   lpcb->prio = pcb->prio;
 747              		.loc 1 723 0
 748 004c 0123     		movs	r3, #1
 749 004e 0375     		strb	r3, [r0, #20]
 724:Source\LwIP\src\core/tcp.c ****   lpcb->so_options = pcb->so_options;
 750              		.loc 1 724 0
 751 0050 637D     		ldrb	r3, [r4, #21]
 752 0052 4375     		strb	r3, [r0, #21]
ARM GAS  C:\Users\Phuong\AppData\Local\Temp\cczg95Bp.s 			page 31


 725:Source\LwIP\src\core/tcp.c ****   lpcb->ttl = pcb->ttl;
 753              		.loc 1 725 0
 754 0054 237A     		ldrb	r3, [r4, #8]
 755 0056 0372     		strb	r3, [r0, #8]
 726:Source\LwIP\src\core/tcp.c ****   lpcb->tos = pcb->tos;
 756              		.loc 1 726 0
 757 0058 A37A     		ldrb	r3, [r4, #10]
 758 005a 8372     		strb	r3, [r0, #10]
 727:Source\LwIP\src\core/tcp.c **** #if LWIP_IPV4 && LWIP_IPV6
 759              		.loc 1 727 0
 760 005c 637A     		ldrb	r3, [r4, #9]
 761 005e 4372     		strb	r3, [r0, #9]
 731:Source\LwIP\src\core/tcp.c ****   if (pcb->local_port != 0) {
 762              		.loc 1 731 0
 763 0060 2368     		ldr	r3, [r4]
 764 0062 0360     		str	r3, [r0]
 732:Source\LwIP\src\core/tcp.c ****     TCP_RMV(&tcp_bound_pcbs, pcb);
 765              		.loc 1 732 0
 766 0064 E38A     		ldrh	r3, [r4, #22]
 767 0066 002B     		cmp	r3, #0
 768 0068 12D0     		beq	.L75
 733:Source\LwIP\src\core/tcp.c ****   }
 769              		.loc 1 733 0
 770 006a 1F4B     		ldr	r3, .L87+8
 771 006c 1B68     		ldr	r3, [r3]
 772 006e 9C42     		cmp	r4, r3
 773 0070 0AD1     		bne	.L76
 733:Source\LwIP\src\core/tcp.c ****   }
 774              		.loc 1 733 0 is_stmt 0 discriminator 1
 775 0072 DA68     		ldr	r2, [r3, #12]
 776 0074 1C4B     		ldr	r3, .L87+8
 777 0076 1A60     		str	r2, [r3]
 778 0078 08E0     		b	.L77
 779              	.LVL83:
 780              	.L78:
 781              	.LBB2:
 733:Source\LwIP\src\core/tcp.c ****   }
 782              		.loc 1 733 0 discriminator 9
 783 007a DA68     		ldr	r2, [r3, #12]
 784 007c 9442     		cmp	r4, r2
 785 007e 02D1     		bne	.L85
 733:Source\LwIP\src\core/tcp.c ****   }
 786              		.loc 1 733 0 discriminator 5
 787 0080 E268     		ldr	r2, [r4, #12]
 788 0082 DA60     		str	r2, [r3, #12]
 789 0084 02E0     		b	.L77
 790              	.L85:
 733:Source\LwIP\src\core/tcp.c ****   }
 791              		.loc 1 733 0
 792 0086 1300     		movs	r3, r2
 793              	.LVL84:
 794              	.L76:
 733:Source\LwIP\src\core/tcp.c ****   }
 795              		.loc 1 733 0 discriminator 8
 796 0088 002B     		cmp	r3, #0
 797 008a F6D1     		bne	.L78
 798              	.LVL85:
ARM GAS  C:\Users\Phuong\AppData\Local\Temp\cczg95Bp.s 			page 32


 799              	.L77:
 800              	.LBE2:
 733:Source\LwIP\src\core/tcp.c ****   }
 801              		.loc 1 733 0 discriminator 10
 802 008c 0023     		movs	r3, #0
 803 008e E360     		str	r3, [r4, #12]
 804              	.L75:
 735:Source\LwIP\src\core/tcp.c **** #if LWIP_CALLBACK_API
 805              		.loc 1 735 0 is_stmt 1
 806 0090 2100     		movs	r1, r4
 807 0092 0220     		movs	r0, #2
 808              	.LVL86:
 809 0094 FFF7FEFF 		bl	memp_free
 810              	.LVL87:
 737:Source\LwIP\src\core/tcp.c **** #endif /* LWIP_CALLBACK_API */
 811              		.loc 1 737 0
 812 0098 144B     		ldr	r3, .L87+12
 813 009a B361     		str	r3, [r6, #24]
 740:Source\LwIP\src\core/tcp.c ****   tcp_backlog_set(lpcb, backlog);
 814              		.loc 1 740 0
 815 009c 0023     		movs	r3, #0
 816 009e 7377     		strb	r3, [r6, #29]
 741:Source\LwIP\src\core/tcp.c **** #endif /* TCP_LISTEN_BACKLOG */
 817              		.loc 1 741 0
 818 00a0 002D     		cmp	r5, #0
 819 00a2 00D1     		bne	.L79
 820 00a4 0135     		adds	r5, r5, #1
 821              	.L79:
 741:Source\LwIP\src\core/tcp.c **** #endif /* TCP_LISTEN_BACKLOG */
 822              		.loc 1 741 0 is_stmt 0 discriminator 5
 823 00a6 3577     		strb	r5, [r6, #28]
 743:Source\LwIP\src\core/tcp.c ****   res = ERR_OK;
 824              		.loc 1 743 0 is_stmt 1 discriminator 5
 825 00a8 0D4B     		ldr	r3, .L87
 826 00aa 1A68     		ldr	r2, [r3]
 827 00ac F260     		str	r2, [r6, #12]
 828 00ae 1E60     		str	r6, [r3]
 829 00b0 FFF7FEFF 		bl	tcp_timer_needed
 830              	.LVL88:
 744:Source\LwIP\src\core/tcp.c **** done:
 831              		.loc 1 744 0 discriminator 5
 832 00b4 0023     		movs	r3, #0
 833 00b6 0DE0     		b	.L70
 834              	.LVL89:
 835              	.L81:
 692:Source\LwIP\src\core/tcp.c **** 
 836              		.loc 1 692 0
 837 00b8 0F23     		movs	r3, #15
 838 00ba 5B42     		rsbs	r3, r3, #0
 688:Source\LwIP\src\core/tcp.c ****   err_t res;
 839              		.loc 1 688 0
 840 00bc 0026     		movs	r6, #0
 841 00be 09E0     		b	.L70
 842              	.L82:
 696:Source\LwIP\src\core/tcp.c ****     res = ERR_ALREADY;
 843              		.loc 1 696 0
 844 00c0 0600     		movs	r6, r0
ARM GAS  C:\Users\Phuong\AppData\Local\Temp\cczg95Bp.s 			page 33


 697:Source\LwIP\src\core/tcp.c ****     goto done;
 845              		.loc 1 697 0
 846 00c2 0923     		movs	r3, #9
 847 00c4 5B42     		rsbs	r3, r3, #0
 848 00c6 05E0     		b	.L70
 849              	.LVL90:
 850              	.L83:
 710:Source\LwIP\src\core/tcp.c ****         goto done;
 851              		.loc 1 710 0
 852 00c8 0823     		movs	r3, #8
 853              	.LVL91:
 854 00ca 5B42     		rsbs	r3, r3, #0
 709:Source\LwIP\src\core/tcp.c ****         res = ERR_USE;
 855              		.loc 1 709 0
 856 00cc 0026     		movs	r6, #0
 857 00ce 01E0     		b	.L70
 858              	.LVL92:
 859              	.L84:
 718:Source\LwIP\src\core/tcp.c ****     goto done;
 860              		.loc 1 718 0
 861 00d0 0123     		movs	r3, #1
 862 00d2 5B42     		rsbs	r3, r3, #0
 863              	.LVL93:
 864              	.L70:
 746:Source\LwIP\src\core/tcp.c ****     *err = res;
 865              		.loc 1 746 0
 866 00d4 002F     		cmp	r7, #0
 867 00d6 00D0     		beq	.L80
 747:Source\LwIP\src\core/tcp.c ****   }
 868              		.loc 1 747 0
 869 00d8 3B70     		strb	r3, [r7]
 870              	.L80:
 750:Source\LwIP\src\core/tcp.c **** 
 871              		.loc 1 750 0
 872 00da 3000     		movs	r0, r6
 873              		@ sp needed
 874              	.LVL94:
 875              	.LVL95:
 876              	.LVL96:
 877 00dc F8BD     		pop	{r3, r4, r5, r6, r7, pc}
 878              	.L88:
 879 00de C046     		.align	2
 880              	.L87:
 881 00e0 00000000 		.word	tcp_listen_pcbs
 882 00e4 00000000 		.word	.LC8
 883 00e8 00000000 		.word	tcp_bound_pcbs
 884 00ec 00000000 		.word	tcp_accept_null
 885              		.cfi_endproc
 886              	.LFE68:
 887              		.size	tcp_listen_with_backlog_and_err, .-tcp_listen_with_backlog_and_err
 888              		.section	.text.tcp_listen_with_backlog,"ax",%progbits
 889              		.align	2
 890              		.global	tcp_listen_with_backlog
 891              		.code	16
 892              		.thumb_func
 893              		.type	tcp_listen_with_backlog, %function
 894              	tcp_listen_with_backlog:
ARM GAS  C:\Users\Phuong\AppData\Local\Temp\cczg95Bp.s 			page 34


 895              	.LFB67:
 665:Source\LwIP\src\core/tcp.c ****   return tcp_listen_with_backlog_and_err(pcb, backlog, NULL);
 896              		.loc 1 665 0
 897              		.cfi_startproc
 898              		@ args = 0, pretend = 0, frame = 0
 899              		@ frame_needed = 0, uses_anonymous_args = 0
 900              	.LVL97:
 901 0000 10B5     		push	{r4, lr}
 902              		.cfi_def_cfa_offset 8
 903              		.cfi_offset 4, -8
 904              		.cfi_offset 14, -4
 666:Source\LwIP\src\core/tcp.c **** }
 905              		.loc 1 666 0
 906 0002 0022     		movs	r2, #0
 907 0004 FFF7FEFF 		bl	tcp_listen_with_backlog_and_err
 908              	.LVL98:
 667:Source\LwIP\src\core/tcp.c **** 
 909              		.loc 1 667 0
 910              		@ sp needed
 911 0008 10BD     		pop	{r4, pc}
 912              		.cfi_endproc
 913              	.LFE67:
 914              		.size	tcp_listen_with_backlog, .-tcp_listen_with_backlog
 915 000a C046     		.section	.text.tcp_update_rcv_ann_wnd,"ax",%progbits
 916              		.align	2
 917              		.global	tcp_update_rcv_ann_wnd
 918              		.code	16
 919              		.thumb_func
 920              		.type	tcp_update_rcv_ann_wnd, %function
 921              	tcp_update_rcv_ann_wnd:
 922              	.LFB69:
 760:Source\LwIP\src\core/tcp.c ****   u32_t new_right_edge = pcb->rcv_nxt + pcb->rcv_wnd;
 923              		.loc 1 760 0
 924              		.cfi_startproc
 925              		@ args = 0, pretend = 0, frame = 0
 926              		@ frame_needed = 0, uses_anonymous_args = 0
 927              	.LVL99:
 928 0000 70B5     		push	{r4, r5, r6, lr}
 929              		.cfi_def_cfa_offset 16
 930              		.cfi_offset 4, -16
 931              		.cfi_offset 5, -12
 932              		.cfi_offset 6, -8
 933              		.cfi_offset 14, -4
 761:Source\LwIP\src\core/tcp.c **** 
 934              		.loc 1 761 0
 935 0002 456A     		ldr	r5, [r0, #36]
 936 0004 048D     		ldrh	r4, [r0, #40]
 937 0006 2A19     		adds	r2, r5, r4
 938              	.LVL100:
 763:Source\LwIP\src\core/tcp.c ****     /* we can advertise more window */
 939              		.loc 1 763 0
 940 0008 C16A     		ldr	r1, [r0, #44]
 941 000a 438E     		ldrh	r3, [r0, #50]
 942 000c 0A4E     		ldr	r6, .L96
 943 000e B342     		cmp	r3, r6
 944 0010 00D9     		bls	.L91
 945 0012 3300     		movs	r3, r6
ARM GAS  C:\Users\Phuong\AppData\Local\Temp\cczg95Bp.s 			page 35


 946              	.L91:
 763:Source\LwIP\src\core/tcp.c ****     /* we can advertise more window */
 947              		.loc 1 763 0 is_stmt 0 discriminator 4
 948 0014 5B18     		adds	r3, r3, r1
 949 0016 D31A     		subs	r3, r2, r3
 950 0018 02D4     		bmi	.L92
 765:Source\LwIP\src\core/tcp.c ****     return new_right_edge - pcb->rcv_ann_right_edge;
 951              		.loc 1 765 0 is_stmt 1
 952 001a 4485     		strh	r4, [r0, #42]
 766:Source\LwIP\src\core/tcp.c ****   } else {
 953              		.loc 1 766 0
 954 001c 501A     		subs	r0, r2, r1
 955              	.LVL101:
 956 001e 09E0     		b	.L93
 957              	.LVL102:
 958              	.L92:
 768:Source\LwIP\src\core/tcp.c ****       /* Can happen due to other end sending out of advertised window,
 959              		.loc 1 768 0
 960 0020 6B1A     		subs	r3, r5, r1
 961 0022 002B     		cmp	r3, #0
 962 0024 03DD     		ble	.L94
 771:Source\LwIP\src\core/tcp.c ****     } else {
 963              		.loc 1 771 0
 964 0026 0023     		movs	r3, #0
 965 0028 4385     		strh	r3, [r0, #42]
 780:Source\LwIP\src\core/tcp.c ****   }
 966              		.loc 1 780 0
 967 002a 0020     		movs	r0, #0
 968              	.LVL103:
 969 002c 02E0     		b	.L93
 970              	.LVL104:
 971              	.L94:
 972              	.LBB3:
 774:Source\LwIP\src\core/tcp.c **** #if !LWIP_WND_SCALE
 973              		.loc 1 774 0
 974 002e 491B     		subs	r1, r1, r5
 975              	.LVL105:
 778:Source\LwIP\src\core/tcp.c ****     }
 976              		.loc 1 778 0
 977 0030 4185     		strh	r1, [r0, #42]
 978              	.LBE3:
 780:Source\LwIP\src\core/tcp.c ****   }
 979              		.loc 1 780 0
 980 0032 0020     		movs	r0, #0
 981              	.LVL106:
 982              	.L93:
 782:Source\LwIP\src\core/tcp.c **** 
 983              		.loc 1 782 0
 984              		@ sp needed
 985 0034 70BD     		pop	{r4, r5, r6, pc}
 986              	.L97:
 987 0036 C046     		.align	2
 988              	.L96:
 989 0038 680B0000 		.word	2920
 990              		.cfi_endproc
 991              	.LFE69:
 992              		.size	tcp_update_rcv_ann_wnd, .-tcp_update_rcv_ann_wnd
ARM GAS  C:\Users\Phuong\AppData\Local\Temp\cczg95Bp.s 			page 36


 993              		.section	.text.tcp_recved,"ax",%progbits
 994              		.align	2
 995              		.global	tcp_recved
 996              		.code	16
 997              		.thumb_func
 998              		.type	tcp_recved, %function
 999              	tcp_recved:
 1000              	.LFB70:
 795:Source\LwIP\src\core/tcp.c ****   int wnd_inflation;
 1001              		.loc 1 795 0
 1002              		.cfi_startproc
 1003              		@ args = 0, pretend = 0, frame = 0
 1004              		@ frame_needed = 0, uses_anonymous_args = 0
 1005              	.LVL107:
 1006 0000 10B5     		push	{r4, lr}
 1007              		.cfi_def_cfa_offset 8
 1008              		.cfi_offset 4, -8
 1009              		.cfi_offset 14, -4
 1010 0002 0400     		movs	r4, r0
 802:Source\LwIP\src\core/tcp.c ****   if (pcb->rcv_wnd > TCP_WND_MAX(pcb)) {
 1011              		.loc 1 802 0
 1012 0004 038D     		ldrh	r3, [r0, #40]
 1013 0006 C918     		adds	r1, r1, r3
 1014              	.LVL108:
 1015 0008 89B2     		uxth	r1, r1
 1016 000a 0185     		strh	r1, [r0, #40]
 803:Source\LwIP\src\core/tcp.c ****     pcb->rcv_wnd = TCP_WND_MAX(pcb);
 1017              		.loc 1 803 0
 1018 000c 0D4B     		ldr	r3, .L103
 1019 000e 9942     		cmp	r1, r3
 1020 0010 01D9     		bls	.L99
 804:Source\LwIP\src\core/tcp.c ****   } else if (pcb->rcv_wnd == 0) {
 1021              		.loc 1 804 0
 1022 0012 0385     		strh	r3, [r0, #40]
 1023 0014 08E0     		b	.L100
 1024              	.L99:
 805:Source\LwIP\src\core/tcp.c ****     /* rcv_wnd overflowed */
 1025              		.loc 1 805 0
 1026 0016 0029     		cmp	r1, #0
 1027 0018 06D1     		bne	.L100
 807:Source\LwIP\src\core/tcp.c ****       /* In passive close, we allow this, since the FIN bit is added to rcv_wnd
 1028              		.loc 1 807 0
 1029 001a 037D     		ldrb	r3, [r0, #20]
 1030 001c 072B     		cmp	r3, #7
 1031 001e 01D0     		beq	.L101
 807:Source\LwIP\src\core/tcp.c ****       /* In passive close, we allow this, since the FIN bit is added to rcv_wnd
 1032              		.loc 1 807 0 is_stmt 0 discriminator 1
 1033 0020 092B     		cmp	r3, #9
 1034 0022 01D1     		bne	.L100
 1035              	.L101:
 811:Source\LwIP\src\core/tcp.c ****     } else {
 1036              		.loc 1 811 0 is_stmt 1
 1037 0024 074B     		ldr	r3, .L103
 1038 0026 2385     		strh	r3, [r4, #40]
 1039              	.L100:
 817:Source\LwIP\src\core/tcp.c **** 
 1040              		.loc 1 817 0
ARM GAS  C:\Users\Phuong\AppData\Local\Temp\cczg95Bp.s 			page 37


 1041 0028 2000     		movs	r0, r4
 1042              	.LVL109:
 1043 002a FFF7FEFF 		bl	tcp_update_rcv_ann_wnd
 1044              	.LVL110:
 823:Source\LwIP\src\core/tcp.c ****     tcp_ack_now(pcb);
 1045              		.loc 1 823 0
 1046 002e 064B     		ldr	r3, .L103+4
 1047 0030 9842     		cmp	r0, r3
 1048 0032 06DD     		ble	.L98
 824:Source\LwIP\src\core/tcp.c ****     tcp_output(pcb);
 1049              		.loc 1 824 0
 1050 0034 628B     		ldrh	r2, [r4, #26]
 1051 0036 0223     		movs	r3, #2
 1052 0038 1343     		orrs	r3, r2
 1053 003a 6383     		strh	r3, [r4, #26]
 825:Source\LwIP\src\core/tcp.c ****   }
 1054              		.loc 1 825 0
 1055 003c 2000     		movs	r0, r4
 1056              	.LVL111:
 1057 003e FFF7FEFF 		bl	tcp_output
 1058              	.LVL112:
 1059              	.L98:
 830:Source\LwIP\src\core/tcp.c **** 
 1060              		.loc 1 830 0
 1061              		@ sp needed
 1062              	.LVL113:
 1063 0042 10BD     		pop	{r4, pc}
 1064              	.L104:
 1065              		.align	2
 1066              	.L103:
 1067 0044 D0160000 		.word	5840
 1068 0048 B3050000 		.word	1459
 1069              		.cfi_endproc
 1070              	.LFE70:
 1071              		.size	tcp_recved, .-tcp_recved
 1072              		.section	.text.tcp_txnow,"ax",%progbits
 1073              		.align	2
 1074              		.global	tcp_txnow
 1075              		.code	16
 1076              		.thumb_func
 1077              		.type	tcp_txnow, %function
 1078              	tcp_txnow:
 1079              	.LFB75:
 861:Source\LwIP\src\core/tcp.c **** 
 862:Source\LwIP\src\core/tcp.c **** /**
 863:Source\LwIP\src\core/tcp.c ****  * @ingroup tcp_raw
 864:Source\LwIP\src\core/tcp.c ****  * Connects to another host. The function given as the "connected"
 865:Source\LwIP\src\core/tcp.c ****  * argument will be called when the connection has been established.
 866:Source\LwIP\src\core/tcp.c ****  *
 867:Source\LwIP\src\core/tcp.c ****  * @param pcb the tcp_pcb used to establish the connection
 868:Source\LwIP\src\core/tcp.c ****  * @param ipaddr the remote ip address to connect to
 869:Source\LwIP\src\core/tcp.c ****  * @param port the remote tcp port to connect to
 870:Source\LwIP\src\core/tcp.c ****  * @param connected callback function to call when connected (on error,
 871:Source\LwIP\src\core/tcp.c ****                     the err calback will be called)
 872:Source\LwIP\src\core/tcp.c ****  * @return ERR_VAL if invalid arguments are given
 873:Source\LwIP\src\core/tcp.c ****  *         ERR_OK if connect request has been sent
 874:Source\LwIP\src\core/tcp.c ****  *         other err_t values if connect request couldn't be sent
ARM GAS  C:\Users\Phuong\AppData\Local\Temp\cczg95Bp.s 			page 38


 875:Source\LwIP\src\core/tcp.c ****  */
 876:Source\LwIP\src\core/tcp.c **** err_t
 877:Source\LwIP\src\core/tcp.c **** tcp_connect(struct tcp_pcb *pcb, const ip_addr_t *ipaddr, u16_t port,
 878:Source\LwIP\src\core/tcp.c ****       tcp_connected_fn connected)
 879:Source\LwIP\src\core/tcp.c **** {
 880:Source\LwIP\src\core/tcp.c ****   err_t ret;
 881:Source\LwIP\src\core/tcp.c ****   u32_t iss;
 882:Source\LwIP\src\core/tcp.c ****   u16_t old_local_port;
 883:Source\LwIP\src\core/tcp.c **** 
 884:Source\LwIP\src\core/tcp.c ****   if ((pcb == NULL) || (ipaddr == NULL)) {
 885:Source\LwIP\src\core/tcp.c ****     return ERR_VAL;
 886:Source\LwIP\src\core/tcp.c ****   }
 887:Source\LwIP\src\core/tcp.c **** 
 888:Source\LwIP\src\core/tcp.c ****   LWIP_ERROR("tcp_connect: can only connect from state CLOSED", pcb->state == CLOSED, return ERR_IS
 889:Source\LwIP\src\core/tcp.c **** 
 890:Source\LwIP\src\core/tcp.c ****   LWIP_DEBUGF(TCP_DEBUG, ("tcp_connect to port %"U16_F"\n", port));
 891:Source\LwIP\src\core/tcp.c ****   ip_addr_set(&pcb->remote_ip, ipaddr);
 892:Source\LwIP\src\core/tcp.c ****   pcb->remote_port = port;
 893:Source\LwIP\src\core/tcp.c **** 
 894:Source\LwIP\src\core/tcp.c ****   /* check if we have a route to the remote host */
 895:Source\LwIP\src\core/tcp.c ****   if (ip_addr_isany(&pcb->local_ip)) {
 896:Source\LwIP\src\core/tcp.c ****     /* no local IP address set, yet. */
 897:Source\LwIP\src\core/tcp.c ****     struct netif *netif;
 898:Source\LwIP\src\core/tcp.c ****     const ip_addr_t *local_ip;
 899:Source\LwIP\src\core/tcp.c ****     ip_route_get_local_ip(&pcb->local_ip, &pcb->remote_ip, netif, local_ip);
 900:Source\LwIP\src\core/tcp.c ****     if ((netif == NULL) || (local_ip == NULL)) {
 901:Source\LwIP\src\core/tcp.c ****       /* Don't even try to send a SYN packet if we have no route
 902:Source\LwIP\src\core/tcp.c ****          since that will fail. */
 903:Source\LwIP\src\core/tcp.c ****       return ERR_RTE;
 904:Source\LwIP\src\core/tcp.c ****     }
 905:Source\LwIP\src\core/tcp.c ****     /* Use the address as local address of the pcb. */
 906:Source\LwIP\src\core/tcp.c ****     ip_addr_copy(pcb->local_ip, *local_ip);
 907:Source\LwIP\src\core/tcp.c ****   }
 908:Source\LwIP\src\core/tcp.c **** 
 909:Source\LwIP\src\core/tcp.c ****   old_local_port = pcb->local_port;
 910:Source\LwIP\src\core/tcp.c ****   if (pcb->local_port == 0) {
 911:Source\LwIP\src\core/tcp.c ****     pcb->local_port = tcp_new_port();
 912:Source\LwIP\src\core/tcp.c ****     if (pcb->local_port == 0) {
 913:Source\LwIP\src\core/tcp.c ****       return ERR_BUF;
 914:Source\LwIP\src\core/tcp.c ****     }
 915:Source\LwIP\src\core/tcp.c ****   } else {
 916:Source\LwIP\src\core/tcp.c **** #if SO_REUSE
 917:Source\LwIP\src\core/tcp.c ****     if (ip_get_option(pcb, SOF_REUSEADDR)) {
 918:Source\LwIP\src\core/tcp.c ****       /* Since SOF_REUSEADDR allows reusing a local address, we have to make sure
 919:Source\LwIP\src\core/tcp.c ****          now that the 5-tuple is unique. */
 920:Source\LwIP\src\core/tcp.c ****       struct tcp_pcb *cpcb;
 921:Source\LwIP\src\core/tcp.c ****       int i;
 922:Source\LwIP\src\core/tcp.c ****       /* Don't check listen- and bound-PCBs, check active- and TIME-WAIT PCBs. */
 923:Source\LwIP\src\core/tcp.c ****       for (i = 2; i < NUM_TCP_PCB_LISTS; i++) {
 924:Source\LwIP\src\core/tcp.c ****         for (cpcb = *tcp_pcb_lists[i]; cpcb != NULL; cpcb = cpcb->next) {
 925:Source\LwIP\src\core/tcp.c ****           if ((cpcb->local_port == pcb->local_port) &&
 926:Source\LwIP\src\core/tcp.c ****               (cpcb->remote_port == port) &&
 927:Source\LwIP\src\core/tcp.c ****               ip_addr_cmp(&cpcb->local_ip, &pcb->local_ip) &&
 928:Source\LwIP\src\core/tcp.c ****               ip_addr_cmp(&cpcb->remote_ip, ipaddr)) {
 929:Source\LwIP\src\core/tcp.c ****             /* linux returns EISCONN here, but ERR_USE should be OK for us */
 930:Source\LwIP\src\core/tcp.c ****             return ERR_USE;
 931:Source\LwIP\src\core/tcp.c ****           }
ARM GAS  C:\Users\Phuong\AppData\Local\Temp\cczg95Bp.s 			page 39


 932:Source\LwIP\src\core/tcp.c ****         }
 933:Source\LwIP\src\core/tcp.c ****       }
 934:Source\LwIP\src\core/tcp.c ****     }
 935:Source\LwIP\src\core/tcp.c **** #endif /* SO_REUSE */
 936:Source\LwIP\src\core/tcp.c ****   }
 937:Source\LwIP\src\core/tcp.c **** 
 938:Source\LwIP\src\core/tcp.c ****   iss = tcp_next_iss(pcb);
 939:Source\LwIP\src\core/tcp.c ****   pcb->rcv_nxt = 0;
 940:Source\LwIP\src\core/tcp.c ****   pcb->snd_nxt = iss;
 941:Source\LwIP\src\core/tcp.c ****   pcb->lastack = iss - 1;
 942:Source\LwIP\src\core/tcp.c ****   pcb->snd_wl2 = iss - 1;
 943:Source\LwIP\src\core/tcp.c ****   pcb->snd_lbb = iss - 1;
 944:Source\LwIP\src\core/tcp.c ****   /* Start with a window that does not need scaling. When window scaling is
 945:Source\LwIP\src\core/tcp.c ****      enabled and used, the window is enlarged when both sides agree on scaling. */
 946:Source\LwIP\src\core/tcp.c ****   pcb->rcv_wnd = pcb->rcv_ann_wnd = TCPWND_MIN16(TCP_WND);
 947:Source\LwIP\src\core/tcp.c ****   pcb->rcv_ann_right_edge = pcb->rcv_nxt;
 948:Source\LwIP\src\core/tcp.c ****   pcb->snd_wnd = TCP_WND;
 949:Source\LwIP\src\core/tcp.c ****   /* As initial send MSS, we use TCP_MSS but limit it to 536.
 950:Source\LwIP\src\core/tcp.c ****      The send MSS is updated when an MSS option is received. */
 951:Source\LwIP\src\core/tcp.c ****   pcb->mss = INITIAL_MSS;
 952:Source\LwIP\src\core/tcp.c **** #if TCP_CALCULATE_EFF_SEND_MSS
 953:Source\LwIP\src\core/tcp.c ****   pcb->mss = tcp_eff_send_mss(pcb->mss, &pcb->local_ip, &pcb->remote_ip);
 954:Source\LwIP\src\core/tcp.c **** #endif /* TCP_CALCULATE_EFF_SEND_MSS */
 955:Source\LwIP\src\core/tcp.c ****   pcb->cwnd = 1;
 956:Source\LwIP\src\core/tcp.c **** #if LWIP_CALLBACK_API
 957:Source\LwIP\src\core/tcp.c ****   pcb->connected = connected;
 958:Source\LwIP\src\core/tcp.c **** #else /* LWIP_CALLBACK_API */
 959:Source\LwIP\src\core/tcp.c ****   LWIP_UNUSED_ARG(connected);
 960:Source\LwIP\src\core/tcp.c **** #endif /* LWIP_CALLBACK_API */
 961:Source\LwIP\src\core/tcp.c **** 
 962:Source\LwIP\src\core/tcp.c ****   /* Send a SYN together with the MSS option. */
 963:Source\LwIP\src\core/tcp.c ****   ret = tcp_enqueue_flags(pcb, TCP_SYN);
 964:Source\LwIP\src\core/tcp.c ****   if (ret == ERR_OK) {
 965:Source\LwIP\src\core/tcp.c ****     /* SYN segment was enqueued, changed the pcbs state now */
 966:Source\LwIP\src\core/tcp.c ****     pcb->state = SYN_SENT;
 967:Source\LwIP\src\core/tcp.c ****     if (old_local_port != 0) {
 968:Source\LwIP\src\core/tcp.c ****       TCP_RMV(&tcp_bound_pcbs, pcb);
 969:Source\LwIP\src\core/tcp.c ****     }
 970:Source\LwIP\src\core/tcp.c ****     TCP_REG_ACTIVE(pcb);
 971:Source\LwIP\src\core/tcp.c ****     MIB2_STATS_INC(mib2.tcpactiveopens);
 972:Source\LwIP\src\core/tcp.c **** 
 973:Source\LwIP\src\core/tcp.c ****     tcp_output(pcb);
 974:Source\LwIP\src\core/tcp.c ****   }
 975:Source\LwIP\src\core/tcp.c ****   return ret;
 976:Source\LwIP\src\core/tcp.c **** }
 977:Source\LwIP\src\core/tcp.c **** 
 978:Source\LwIP\src\core/tcp.c **** /**
 979:Source\LwIP\src\core/tcp.c ****  * Called every 500 ms and implements the retransmission timer and the timer that
 980:Source\LwIP\src\core/tcp.c ****  * removes PCBs that have been in TIME-WAIT for enough time. It also increments
 981:Source\LwIP\src\core/tcp.c ****  * various timers such as the inactivity timer in each PCB.
 982:Source\LwIP\src\core/tcp.c ****  *
 983:Source\LwIP\src\core/tcp.c ****  * Automatically called from tcp_tmr().
 984:Source\LwIP\src\core/tcp.c ****  */
 985:Source\LwIP\src\core/tcp.c **** void
 986:Source\LwIP\src\core/tcp.c **** tcp_slowtmr(void)
 987:Source\LwIP\src\core/tcp.c **** {
 988:Source\LwIP\src\core/tcp.c ****   struct tcp_pcb *pcb, *prev;
ARM GAS  C:\Users\Phuong\AppData\Local\Temp\cczg95Bp.s 			page 40


 989:Source\LwIP\src\core/tcp.c ****   tcpwnd_size_t eff_wnd;
 990:Source\LwIP\src\core/tcp.c ****   u8_t pcb_remove;      /* flag if a PCB should be removed */
 991:Source\LwIP\src\core/tcp.c ****   u8_t pcb_reset;       /* flag if a RST should be sent when removing */
 992:Source\LwIP\src\core/tcp.c ****   err_t err;
 993:Source\LwIP\src\core/tcp.c **** 
 994:Source\LwIP\src\core/tcp.c ****   err = ERR_OK;
 995:Source\LwIP\src\core/tcp.c **** 
 996:Source\LwIP\src\core/tcp.c ****   ++tcp_ticks;
 997:Source\LwIP\src\core/tcp.c ****   ++tcp_timer_ctr;
 998:Source\LwIP\src\core/tcp.c **** 
 999:Source\LwIP\src\core/tcp.c **** tcp_slowtmr_start:
1000:Source\LwIP\src\core/tcp.c ****   /* Steps through all of the active PCBs. */
1001:Source\LwIP\src\core/tcp.c ****   prev = NULL;
1002:Source\LwIP\src\core/tcp.c ****   pcb = tcp_active_pcbs;
1003:Source\LwIP\src\core/tcp.c ****   if (pcb == NULL) {
1004:Source\LwIP\src\core/tcp.c ****     LWIP_DEBUGF(TCP_DEBUG, ("tcp_slowtmr: no active pcbs\n"));
1005:Source\LwIP\src\core/tcp.c ****   }
1006:Source\LwIP\src\core/tcp.c ****   while (pcb != NULL) {
1007:Source\LwIP\src\core/tcp.c ****     LWIP_DEBUGF(TCP_DEBUG, ("tcp_slowtmr: processing active pcb\n"));
1008:Source\LwIP\src\core/tcp.c ****     LWIP_ASSERT("tcp_slowtmr: active pcb->state != CLOSED\n", pcb->state != CLOSED);
1009:Source\LwIP\src\core/tcp.c ****     LWIP_ASSERT("tcp_slowtmr: active pcb->state != LISTEN\n", pcb->state != LISTEN);
1010:Source\LwIP\src\core/tcp.c ****     LWIP_ASSERT("tcp_slowtmr: active pcb->state != TIME-WAIT\n", pcb->state != TIME_WAIT);
1011:Source\LwIP\src\core/tcp.c ****     if (pcb->last_timer == tcp_timer_ctr) {
1012:Source\LwIP\src\core/tcp.c ****       /* skip this pcb, we have already processed it */
1013:Source\LwIP\src\core/tcp.c ****       pcb = pcb->next;
1014:Source\LwIP\src\core/tcp.c ****       continue;
1015:Source\LwIP\src\core/tcp.c ****     }
1016:Source\LwIP\src\core/tcp.c ****     pcb->last_timer = tcp_timer_ctr;
1017:Source\LwIP\src\core/tcp.c **** 
1018:Source\LwIP\src\core/tcp.c ****     pcb_remove = 0;
1019:Source\LwIP\src\core/tcp.c ****     pcb_reset = 0;
1020:Source\LwIP\src\core/tcp.c **** 
1021:Source\LwIP\src\core/tcp.c ****     if (pcb->state == SYN_SENT && pcb->nrtx >= TCP_SYNMAXRTX) {
1022:Source\LwIP\src\core/tcp.c ****       ++pcb_remove;
1023:Source\LwIP\src\core/tcp.c ****       LWIP_DEBUGF(TCP_DEBUG, ("tcp_slowtmr: max SYN retries reached\n"));
1024:Source\LwIP\src\core/tcp.c ****     }
1025:Source\LwIP\src\core/tcp.c ****     else if (pcb->nrtx >= TCP_MAXRTX) {
1026:Source\LwIP\src\core/tcp.c ****       ++pcb_remove;
1027:Source\LwIP\src\core/tcp.c ****       LWIP_DEBUGF(TCP_DEBUG, ("tcp_slowtmr: max DATA retries reached\n"));
1028:Source\LwIP\src\core/tcp.c ****     } else {
1029:Source\LwIP\src\core/tcp.c ****       if (pcb->persist_backoff > 0) {
1030:Source\LwIP\src\core/tcp.c ****         /* If snd_wnd is zero, use persist timer to send 1 byte probes
1031:Source\LwIP\src\core/tcp.c ****          * instead of using the standard retransmission mechanism. */
1032:Source\LwIP\src\core/tcp.c ****         u8_t backoff_cnt = tcp_persist_backoff[pcb->persist_backoff-1];
1033:Source\LwIP\src\core/tcp.c ****         if (pcb->persist_cnt < backoff_cnt) {
1034:Source\LwIP\src\core/tcp.c ****           pcb->persist_cnt++;
1035:Source\LwIP\src\core/tcp.c ****         }
1036:Source\LwIP\src\core/tcp.c ****         if (pcb->persist_cnt >= backoff_cnt) {
1037:Source\LwIP\src\core/tcp.c ****           if (tcp_zero_window_probe(pcb) == ERR_OK) {
1038:Source\LwIP\src\core/tcp.c ****             pcb->persist_cnt = 0;
1039:Source\LwIP\src\core/tcp.c ****             if (pcb->persist_backoff < sizeof(tcp_persist_backoff)) {
1040:Source\LwIP\src\core/tcp.c ****               pcb->persist_backoff++;
1041:Source\LwIP\src\core/tcp.c ****             }
1042:Source\LwIP\src\core/tcp.c ****           }
1043:Source\LwIP\src\core/tcp.c ****         }
1044:Source\LwIP\src\core/tcp.c ****       } else {
1045:Source\LwIP\src\core/tcp.c ****         /* Increase the retransmission timer if it is running */
ARM GAS  C:\Users\Phuong\AppData\Local\Temp\cczg95Bp.s 			page 41


1046:Source\LwIP\src\core/tcp.c ****         if (pcb->rtime >= 0) {
1047:Source\LwIP\src\core/tcp.c ****           ++pcb->rtime;
1048:Source\LwIP\src\core/tcp.c ****         }
1049:Source\LwIP\src\core/tcp.c **** 
1050:Source\LwIP\src\core/tcp.c ****         if (pcb->unacked != NULL && pcb->rtime >= pcb->rto) {
1051:Source\LwIP\src\core/tcp.c ****           /* Time for a retransmission. */
1052:Source\LwIP\src\core/tcp.c ****           LWIP_DEBUGF(TCP_RTO_DEBUG, ("tcp_slowtmr: rtime %"S16_F
1053:Source\LwIP\src\core/tcp.c ****                                       " pcb->rto %"S16_F"\n",
1054:Source\LwIP\src\core/tcp.c ****                                       pcb->rtime, pcb->rto));
1055:Source\LwIP\src\core/tcp.c **** 
1056:Source\LwIP\src\core/tcp.c ****           /* Double retransmission time-out unless we are trying to
1057:Source\LwIP\src\core/tcp.c ****            * connect to somebody (i.e., we are in SYN_SENT). */
1058:Source\LwIP\src\core/tcp.c ****           if (pcb->state != SYN_SENT) {
1059:Source\LwIP\src\core/tcp.c ****             u8_t backoff_idx = LWIP_MIN(pcb->nrtx, sizeof(tcp_backoff)-1);
1060:Source\LwIP\src\core/tcp.c ****             pcb->rto = ((pcb->sa >> 3) + pcb->sv) << tcp_backoff[backoff_idx];
1061:Source\LwIP\src\core/tcp.c ****           }
1062:Source\LwIP\src\core/tcp.c **** 
1063:Source\LwIP\src\core/tcp.c ****           /* Reset the retransmission timer. */
1064:Source\LwIP\src\core/tcp.c ****           pcb->rtime = 0;
1065:Source\LwIP\src\core/tcp.c **** 
1066:Source\LwIP\src\core/tcp.c ****           /* Reduce congestion window and ssthresh. */
1067:Source\LwIP\src\core/tcp.c ****           eff_wnd = LWIP_MIN(pcb->cwnd, pcb->snd_wnd);
1068:Source\LwIP\src\core/tcp.c ****           pcb->ssthresh = eff_wnd >> 1;
1069:Source\LwIP\src\core/tcp.c ****           if (pcb->ssthresh < (tcpwnd_size_t)(pcb->mss << 1)) {
1070:Source\LwIP\src\core/tcp.c ****             pcb->ssthresh = (pcb->mss << 1);
1071:Source\LwIP\src\core/tcp.c ****           }
1072:Source\LwIP\src\core/tcp.c ****           pcb->cwnd = pcb->mss;
1073:Source\LwIP\src\core/tcp.c ****           LWIP_DEBUGF(TCP_CWND_DEBUG, ("tcp_slowtmr: cwnd %"TCPWNDSIZE_F
1074:Source\LwIP\src\core/tcp.c ****                                        " ssthresh %"TCPWNDSIZE_F"\n",
1075:Source\LwIP\src\core/tcp.c ****                                        pcb->cwnd, pcb->ssthresh));
1076:Source\LwIP\src\core/tcp.c **** 
1077:Source\LwIP\src\core/tcp.c ****           /* The following needs to be called AFTER cwnd is set to one
1078:Source\LwIP\src\core/tcp.c ****              mss - STJ */
1079:Source\LwIP\src\core/tcp.c ****           tcp_rexmit_rto(pcb);
1080:Source\LwIP\src\core/tcp.c ****         }
1081:Source\LwIP\src\core/tcp.c ****       }
1082:Source\LwIP\src\core/tcp.c ****     }
1083:Source\LwIP\src\core/tcp.c ****     /* Check if this PCB has stayed too long in FIN-WAIT-2 */
1084:Source\LwIP\src\core/tcp.c ****     if (pcb->state == FIN_WAIT_2) {
1085:Source\LwIP\src\core/tcp.c ****       /* If this PCB is in FIN_WAIT_2 because of SHUT_WR don't let it time out. */
1086:Source\LwIP\src\core/tcp.c ****       if (pcb->flags & TF_RXCLOSED) {
1087:Source\LwIP\src\core/tcp.c ****         /* PCB was fully closed (either through close() or SHUT_RDWR):
1088:Source\LwIP\src\core/tcp.c ****            normal FIN-WAIT timeout handling. */
1089:Source\LwIP\src\core/tcp.c ****         if ((u32_t)(tcp_ticks - pcb->tmr) >
1090:Source\LwIP\src\core/tcp.c ****             TCP_FIN_WAIT_TIMEOUT / TCP_SLOW_INTERVAL) {
1091:Source\LwIP\src\core/tcp.c ****           ++pcb_remove;
1092:Source\LwIP\src\core/tcp.c ****           LWIP_DEBUGF(TCP_DEBUG, ("tcp_slowtmr: removing pcb stuck in FIN-WAIT-2\n"));
1093:Source\LwIP\src\core/tcp.c ****         }
1094:Source\LwIP\src\core/tcp.c ****       }
1095:Source\LwIP\src\core/tcp.c ****     }
1096:Source\LwIP\src\core/tcp.c **** 
1097:Source\LwIP\src\core/tcp.c ****     /* Check if KEEPALIVE should be sent */
1098:Source\LwIP\src\core/tcp.c ****     if (ip_get_option(pcb, SOF_KEEPALIVE) &&
1099:Source\LwIP\src\core/tcp.c ****        ((pcb->state == ESTABLISHED) ||
1100:Source\LwIP\src\core/tcp.c ****         (pcb->state == CLOSE_WAIT))) {
1101:Source\LwIP\src\core/tcp.c ****       if ((u32_t)(tcp_ticks - pcb->tmr) >
1102:Source\LwIP\src\core/tcp.c ****          (pcb->keep_idle + TCP_KEEP_DUR(pcb)) / TCP_SLOW_INTERVAL)
ARM GAS  C:\Users\Phuong\AppData\Local\Temp\cczg95Bp.s 			page 42


1103:Source\LwIP\src\core/tcp.c ****       {
1104:Source\LwIP\src\core/tcp.c ****         LWIP_DEBUGF(TCP_DEBUG, ("tcp_slowtmr: KEEPALIVE timeout. Aborting connection to "));
1105:Source\LwIP\src\core/tcp.c ****         ip_addr_debug_print(TCP_DEBUG, &pcb->remote_ip);
1106:Source\LwIP\src\core/tcp.c ****         LWIP_DEBUGF(TCP_DEBUG, ("\n"));
1107:Source\LwIP\src\core/tcp.c **** 
1108:Source\LwIP\src\core/tcp.c ****         ++pcb_remove;
1109:Source\LwIP\src\core/tcp.c ****         ++pcb_reset;
1110:Source\LwIP\src\core/tcp.c ****       } else if ((u32_t)(tcp_ticks - pcb->tmr) >
1111:Source\LwIP\src\core/tcp.c ****                 (pcb->keep_idle + pcb->keep_cnt_sent * TCP_KEEP_INTVL(pcb))
1112:Source\LwIP\src\core/tcp.c ****                 / TCP_SLOW_INTERVAL)
1113:Source\LwIP\src\core/tcp.c ****       {
1114:Source\LwIP\src\core/tcp.c ****         err = tcp_keepalive(pcb);
1115:Source\LwIP\src\core/tcp.c ****         if (err == ERR_OK) {
1116:Source\LwIP\src\core/tcp.c ****           pcb->keep_cnt_sent++;
1117:Source\LwIP\src\core/tcp.c ****         }
1118:Source\LwIP\src\core/tcp.c ****       }
1119:Source\LwIP\src\core/tcp.c ****     }
1120:Source\LwIP\src\core/tcp.c **** 
1121:Source\LwIP\src\core/tcp.c ****     /* If this PCB has queued out of sequence data, but has been
1122:Source\LwIP\src\core/tcp.c ****        inactive for too long, will drop the data (it will eventually
1123:Source\LwIP\src\core/tcp.c ****        be retransmitted). */
1124:Source\LwIP\src\core/tcp.c **** #if TCP_QUEUE_OOSEQ
1125:Source\LwIP\src\core/tcp.c ****     if (pcb->ooseq != NULL &&
1126:Source\LwIP\src\core/tcp.c ****         (u32_t)tcp_ticks - pcb->tmr >= pcb->rto * TCP_OOSEQ_TIMEOUT) {
1127:Source\LwIP\src\core/tcp.c ****       tcp_segs_free(pcb->ooseq);
1128:Source\LwIP\src\core/tcp.c ****       pcb->ooseq = NULL;
1129:Source\LwIP\src\core/tcp.c ****       LWIP_DEBUGF(TCP_CWND_DEBUG, ("tcp_slowtmr: dropping OOSEQ queued data\n"));
1130:Source\LwIP\src\core/tcp.c ****     }
1131:Source\LwIP\src\core/tcp.c **** #endif /* TCP_QUEUE_OOSEQ */
1132:Source\LwIP\src\core/tcp.c **** 
1133:Source\LwIP\src\core/tcp.c ****     /* Check if this PCB has stayed too long in SYN-RCVD */
1134:Source\LwIP\src\core/tcp.c ****     if (pcb->state == SYN_RCVD) {
1135:Source\LwIP\src\core/tcp.c ****       if ((u32_t)(tcp_ticks - pcb->tmr) >
1136:Source\LwIP\src\core/tcp.c ****           TCP_SYN_RCVD_TIMEOUT / TCP_SLOW_INTERVAL) {
1137:Source\LwIP\src\core/tcp.c ****         ++pcb_remove;
1138:Source\LwIP\src\core/tcp.c ****         LWIP_DEBUGF(TCP_DEBUG, ("tcp_slowtmr: removing pcb stuck in SYN-RCVD\n"));
1139:Source\LwIP\src\core/tcp.c ****       }
1140:Source\LwIP\src\core/tcp.c ****     }
1141:Source\LwIP\src\core/tcp.c **** 
1142:Source\LwIP\src\core/tcp.c ****     /* Check if this PCB has stayed too long in LAST-ACK */
1143:Source\LwIP\src\core/tcp.c ****     if (pcb->state == LAST_ACK) {
1144:Source\LwIP\src\core/tcp.c ****       if ((u32_t)(tcp_ticks - pcb->tmr) > 2 * TCP_MSL / TCP_SLOW_INTERVAL) {
1145:Source\LwIP\src\core/tcp.c ****         ++pcb_remove;
1146:Source\LwIP\src\core/tcp.c ****         LWIP_DEBUGF(TCP_DEBUG, ("tcp_slowtmr: removing pcb stuck in LAST-ACK\n"));
1147:Source\LwIP\src\core/tcp.c ****       }
1148:Source\LwIP\src\core/tcp.c ****     }
1149:Source\LwIP\src\core/tcp.c **** 
1150:Source\LwIP\src\core/tcp.c ****     /* If the PCB should be removed, do it. */
1151:Source\LwIP\src\core/tcp.c ****     if (pcb_remove) {
1152:Source\LwIP\src\core/tcp.c ****       struct tcp_pcb *pcb2;
1153:Source\LwIP\src\core/tcp.c **** #if LWIP_CALLBACK_API
1154:Source\LwIP\src\core/tcp.c ****       tcp_err_fn err_fn = pcb->errf;
1155:Source\LwIP\src\core/tcp.c **** #endif /* LWIP_CALLBACK_API */
1156:Source\LwIP\src\core/tcp.c ****       void *err_arg;
1157:Source\LwIP\src\core/tcp.c ****       enum tcp_state last_state;
1158:Source\LwIP\src\core/tcp.c ****       tcp_pcb_purge(pcb);
1159:Source\LwIP\src\core/tcp.c ****       /* Remove PCB from tcp_active_pcbs list. */
ARM GAS  C:\Users\Phuong\AppData\Local\Temp\cczg95Bp.s 			page 43


1160:Source\LwIP\src\core/tcp.c ****       if (prev != NULL) {
1161:Source\LwIP\src\core/tcp.c ****         LWIP_ASSERT("tcp_slowtmr: middle tcp != tcp_active_pcbs", pcb != tcp_active_pcbs);
1162:Source\LwIP\src\core/tcp.c ****         prev->next = pcb->next;
1163:Source\LwIP\src\core/tcp.c ****       } else {
1164:Source\LwIP\src\core/tcp.c ****         /* This PCB was the first. */
1165:Source\LwIP\src\core/tcp.c ****         LWIP_ASSERT("tcp_slowtmr: first pcb == tcp_active_pcbs", tcp_active_pcbs == pcb);
1166:Source\LwIP\src\core/tcp.c ****         tcp_active_pcbs = pcb->next;
1167:Source\LwIP\src\core/tcp.c ****       }
1168:Source\LwIP\src\core/tcp.c **** 
1169:Source\LwIP\src\core/tcp.c ****       if (pcb_reset) {
1170:Source\LwIP\src\core/tcp.c ****         tcp_rst(pcb->snd_nxt, pcb->rcv_nxt, &pcb->local_ip, &pcb->remote_ip,
1171:Source\LwIP\src\core/tcp.c ****                  pcb->local_port, pcb->remote_port);
1172:Source\LwIP\src\core/tcp.c ****       }
1173:Source\LwIP\src\core/tcp.c **** 
1174:Source\LwIP\src\core/tcp.c ****       err_arg = pcb->callback_arg;
1175:Source\LwIP\src\core/tcp.c ****       last_state = pcb->state;
1176:Source\LwIP\src\core/tcp.c ****       pcb2 = pcb;
1177:Source\LwIP\src\core/tcp.c ****       pcb = pcb->next;
1178:Source\LwIP\src\core/tcp.c ****       memp_free(MEMP_TCP_PCB, pcb2);
1179:Source\LwIP\src\core/tcp.c **** 
1180:Source\LwIP\src\core/tcp.c ****       tcp_active_pcbs_changed = 0;
1181:Source\LwIP\src\core/tcp.c ****       TCP_EVENT_ERR(last_state, err_fn, err_arg, ERR_ABRT);
1182:Source\LwIP\src\core/tcp.c ****       if (tcp_active_pcbs_changed) {
1183:Source\LwIP\src\core/tcp.c ****         goto tcp_slowtmr_start;
1184:Source\LwIP\src\core/tcp.c ****       }
1185:Source\LwIP\src\core/tcp.c ****     } else {
1186:Source\LwIP\src\core/tcp.c ****       /* get the 'next' element now and work with 'prev' below (in case of abort) */
1187:Source\LwIP\src\core/tcp.c ****       prev = pcb;
1188:Source\LwIP\src\core/tcp.c ****       pcb = pcb->next;
1189:Source\LwIP\src\core/tcp.c **** 
1190:Source\LwIP\src\core/tcp.c ****       /* We check if we should poll the connection. */
1191:Source\LwIP\src\core/tcp.c ****       ++prev->polltmr;
1192:Source\LwIP\src\core/tcp.c ****       if (prev->polltmr >= prev->pollinterval) {
1193:Source\LwIP\src\core/tcp.c ****         prev->polltmr = 0;
1194:Source\LwIP\src\core/tcp.c ****         LWIP_DEBUGF(TCP_DEBUG, ("tcp_slowtmr: polling application\n"));
1195:Source\LwIP\src\core/tcp.c ****         tcp_active_pcbs_changed = 0;
1196:Source\LwIP\src\core/tcp.c ****         TCP_EVENT_POLL(prev, err);
1197:Source\LwIP\src\core/tcp.c ****         if (tcp_active_pcbs_changed) {
1198:Source\LwIP\src\core/tcp.c ****           goto tcp_slowtmr_start;
1199:Source\LwIP\src\core/tcp.c ****         }
1200:Source\LwIP\src\core/tcp.c ****         /* if err == ERR_ABRT, 'prev' is already deallocated */
1201:Source\LwIP\src\core/tcp.c ****         if (err == ERR_OK) {
1202:Source\LwIP\src\core/tcp.c ****           tcp_output(prev);
1203:Source\LwIP\src\core/tcp.c ****         }
1204:Source\LwIP\src\core/tcp.c ****       }
1205:Source\LwIP\src\core/tcp.c ****     }
1206:Source\LwIP\src\core/tcp.c ****   }
1207:Source\LwIP\src\core/tcp.c **** 
1208:Source\LwIP\src\core/tcp.c **** 
1209:Source\LwIP\src\core/tcp.c ****   /* Steps through all of the TIME-WAIT PCBs. */
1210:Source\LwIP\src\core/tcp.c ****   prev = NULL;
1211:Source\LwIP\src\core/tcp.c ****   pcb = tcp_tw_pcbs;
1212:Source\LwIP\src\core/tcp.c ****   while (pcb != NULL) {
1213:Source\LwIP\src\core/tcp.c ****     LWIP_ASSERT("tcp_slowtmr: TIME-WAIT pcb->state == TIME-WAIT", pcb->state == TIME_WAIT);
1214:Source\LwIP\src\core/tcp.c ****     pcb_remove = 0;
1215:Source\LwIP\src\core/tcp.c **** 
1216:Source\LwIP\src\core/tcp.c ****     /* Check if this PCB has stayed long enough in TIME-WAIT */
ARM GAS  C:\Users\Phuong\AppData\Local\Temp\cczg95Bp.s 			page 44


1217:Source\LwIP\src\core/tcp.c ****     if ((u32_t)(tcp_ticks - pcb->tmr) > 2 * TCP_MSL / TCP_SLOW_INTERVAL) {
1218:Source\LwIP\src\core/tcp.c ****       ++pcb_remove;
1219:Source\LwIP\src\core/tcp.c ****     }
1220:Source\LwIP\src\core/tcp.c **** 
1221:Source\LwIP\src\core/tcp.c ****     /* If the PCB should be removed, do it. */
1222:Source\LwIP\src\core/tcp.c ****     if (pcb_remove) {
1223:Source\LwIP\src\core/tcp.c ****       struct tcp_pcb *pcb2;
1224:Source\LwIP\src\core/tcp.c ****       tcp_pcb_purge(pcb);
1225:Source\LwIP\src\core/tcp.c ****       /* Remove PCB from tcp_tw_pcbs list. */
1226:Source\LwIP\src\core/tcp.c ****       if (prev != NULL) {
1227:Source\LwIP\src\core/tcp.c ****         LWIP_ASSERT("tcp_slowtmr: middle tcp != tcp_tw_pcbs", pcb != tcp_tw_pcbs);
1228:Source\LwIP\src\core/tcp.c ****         prev->next = pcb->next;
1229:Source\LwIP\src\core/tcp.c ****       } else {
1230:Source\LwIP\src\core/tcp.c ****         /* This PCB was the first. */
1231:Source\LwIP\src\core/tcp.c ****         LWIP_ASSERT("tcp_slowtmr: first pcb == tcp_tw_pcbs", tcp_tw_pcbs == pcb);
1232:Source\LwIP\src\core/tcp.c ****         tcp_tw_pcbs = pcb->next;
1233:Source\LwIP\src\core/tcp.c ****       }
1234:Source\LwIP\src\core/tcp.c ****       pcb2 = pcb;
1235:Source\LwIP\src\core/tcp.c ****       pcb = pcb->next;
1236:Source\LwIP\src\core/tcp.c ****       memp_free(MEMP_TCP_PCB, pcb2);
1237:Source\LwIP\src\core/tcp.c ****     } else {
1238:Source\LwIP\src\core/tcp.c ****       prev = pcb;
1239:Source\LwIP\src\core/tcp.c ****       pcb = pcb->next;
1240:Source\LwIP\src\core/tcp.c ****     }
1241:Source\LwIP\src\core/tcp.c ****   }
1242:Source\LwIP\src\core/tcp.c **** }
1243:Source\LwIP\src\core/tcp.c **** 
1244:Source\LwIP\src\core/tcp.c **** /**
1245:Source\LwIP\src\core/tcp.c ****  * Is called every TCP_FAST_INTERVAL (250 ms) and process data previously
1246:Source\LwIP\src\core/tcp.c ****  * "refused" by upper layer (application) and sends delayed ACKs.
1247:Source\LwIP\src\core/tcp.c ****  *
1248:Source\LwIP\src\core/tcp.c ****  * Automatically called from tcp_tmr().
1249:Source\LwIP\src\core/tcp.c ****  */
1250:Source\LwIP\src\core/tcp.c **** void
1251:Source\LwIP\src\core/tcp.c **** tcp_fasttmr(void)
1252:Source\LwIP\src\core/tcp.c **** {
1253:Source\LwIP\src\core/tcp.c ****   struct tcp_pcb *pcb;
1254:Source\LwIP\src\core/tcp.c **** 
1255:Source\LwIP\src\core/tcp.c ****   ++tcp_timer_ctr;
1256:Source\LwIP\src\core/tcp.c **** 
1257:Source\LwIP\src\core/tcp.c **** tcp_fasttmr_start:
1258:Source\LwIP\src\core/tcp.c ****   pcb = tcp_active_pcbs;
1259:Source\LwIP\src\core/tcp.c **** 
1260:Source\LwIP\src\core/tcp.c ****   while (pcb != NULL) {
1261:Source\LwIP\src\core/tcp.c ****     if (pcb->last_timer != tcp_timer_ctr) {
1262:Source\LwIP\src\core/tcp.c ****       struct tcp_pcb *next;
1263:Source\LwIP\src\core/tcp.c ****       pcb->last_timer = tcp_timer_ctr;
1264:Source\LwIP\src\core/tcp.c ****       /* send delayed ACKs */
1265:Source\LwIP\src\core/tcp.c ****       if (pcb->flags & TF_ACK_DELAY) {
1266:Source\LwIP\src\core/tcp.c ****         LWIP_DEBUGF(TCP_DEBUG, ("tcp_fasttmr: delayed ACK\n"));
1267:Source\LwIP\src\core/tcp.c ****         tcp_ack_now(pcb);
1268:Source\LwIP\src\core/tcp.c ****         tcp_output(pcb);
1269:Source\LwIP\src\core/tcp.c ****         pcb->flags &= ~(TF_ACK_DELAY | TF_ACK_NOW);
1270:Source\LwIP\src\core/tcp.c ****       }
1271:Source\LwIP\src\core/tcp.c ****       /* send pending FIN */
1272:Source\LwIP\src\core/tcp.c ****       if (pcb->flags & TF_CLOSEPEND) {
1273:Source\LwIP\src\core/tcp.c ****         LWIP_DEBUGF(TCP_DEBUG, ("tcp_fasttmr: pending FIN\n"));
ARM GAS  C:\Users\Phuong\AppData\Local\Temp\cczg95Bp.s 			page 45


1274:Source\LwIP\src\core/tcp.c ****         pcb->flags &= ~(TF_CLOSEPEND);
1275:Source\LwIP\src\core/tcp.c ****         tcp_close_shutdown_fin(pcb);
1276:Source\LwIP\src\core/tcp.c ****       }
1277:Source\LwIP\src\core/tcp.c **** 
1278:Source\LwIP\src\core/tcp.c ****       next = pcb->next;
1279:Source\LwIP\src\core/tcp.c **** 
1280:Source\LwIP\src\core/tcp.c ****       /* If there is data which was previously "refused" by upper layer */
1281:Source\LwIP\src\core/tcp.c ****       if (pcb->refused_data != NULL) {
1282:Source\LwIP\src\core/tcp.c ****         tcp_active_pcbs_changed = 0;
1283:Source\LwIP\src\core/tcp.c ****         tcp_process_refused_data(pcb);
1284:Source\LwIP\src\core/tcp.c ****         if (tcp_active_pcbs_changed) {
1285:Source\LwIP\src\core/tcp.c ****           /* application callback has changed the pcb list: restart the loop */
1286:Source\LwIP\src\core/tcp.c ****           goto tcp_fasttmr_start;
1287:Source\LwIP\src\core/tcp.c ****         }
1288:Source\LwIP\src\core/tcp.c ****       }
1289:Source\LwIP\src\core/tcp.c ****       pcb = next;
1290:Source\LwIP\src\core/tcp.c ****     } else {
1291:Source\LwIP\src\core/tcp.c ****       pcb = pcb->next;
1292:Source\LwIP\src\core/tcp.c ****     }
1293:Source\LwIP\src\core/tcp.c ****   }
1294:Source\LwIP\src\core/tcp.c **** }
1295:Source\LwIP\src\core/tcp.c **** 
1296:Source\LwIP\src\core/tcp.c **** /** Call tcp_output for all active pcbs that have TF_NAGLEMEMERR set */
1297:Source\LwIP\src\core/tcp.c **** void
1298:Source\LwIP\src\core/tcp.c **** tcp_txnow(void)
1299:Source\LwIP\src\core/tcp.c **** {
 1080              		.loc 1 1299 0
 1081              		.cfi_startproc
 1082              		@ args = 0, pretend = 0, frame = 0
 1083              		@ frame_needed = 0, uses_anonymous_args = 0
 1084 0000 10B5     		push	{r4, lr}
 1085              		.cfi_def_cfa_offset 8
 1086              		.cfi_offset 4, -8
 1087              		.cfi_offset 14, -4
1300:Source\LwIP\src\core/tcp.c ****   struct tcp_pcb *pcb;
1301:Source\LwIP\src\core/tcp.c **** 
1302:Source\LwIP\src\core/tcp.c ****   for (pcb = tcp_active_pcbs; pcb != NULL; pcb = pcb->next) {
 1088              		.loc 1 1302 0
 1089 0002 064B     		ldr	r3, .L109
 1090 0004 1C68     		ldr	r4, [r3]
 1091              	.LVL114:
 1092 0006 06E0     		b	.L106
 1093              	.L108:
1303:Source\LwIP\src\core/tcp.c ****     if (pcb->flags & TF_NAGLEMEMERR) {
 1094              		.loc 1 1303 0
 1095 0008 638B     		ldrh	r3, [r4, #26]
 1096 000a 1B06     		lsls	r3, r3, #24
 1097 000c 02D5     		bpl	.L107
1304:Source\LwIP\src\core/tcp.c ****       tcp_output(pcb);
 1098              		.loc 1 1304 0
 1099 000e 2000     		movs	r0, r4
 1100 0010 FFF7FEFF 		bl	tcp_output
 1101              	.LVL115:
 1102              	.L107:
1302:Source\LwIP\src\core/tcp.c ****     if (pcb->flags & TF_NAGLEMEMERR) {
 1103              		.loc 1 1302 0 discriminator 2
 1104 0014 E468     		ldr	r4, [r4, #12]
ARM GAS  C:\Users\Phuong\AppData\Local\Temp\cczg95Bp.s 			page 46


 1105              	.LVL116:
 1106              	.L106:
1302:Source\LwIP\src\core/tcp.c ****     if (pcb->flags & TF_NAGLEMEMERR) {
 1107              		.loc 1 1302 0 is_stmt 0 discriminator 1
 1108 0016 002C     		cmp	r4, #0
 1109 0018 F6D1     		bne	.L108
1305:Source\LwIP\src\core/tcp.c ****     }
1306:Source\LwIP\src\core/tcp.c ****   }
1307:Source\LwIP\src\core/tcp.c **** }
 1110              		.loc 1 1307 0 is_stmt 1
 1111              		@ sp needed
 1112              	.LVL117:
 1113 001a 10BD     		pop	{r4, pc}
 1114              	.L110:
 1115              		.align	2
 1116              	.L109:
 1117 001c 00000000 		.word	tcp_active_pcbs
 1118              		.cfi_endproc
 1119              	.LFE75:
 1120              		.size	tcp_txnow, .-tcp_txnow
 1121              		.section	.text.tcp_seg_free,"ax",%progbits
 1122              		.align	2
 1123              		.global	tcp_seg_free
 1124              		.code	16
 1125              		.thumb_func
 1126              		.type	tcp_seg_free, %function
 1127              	tcp_seg_free:
 1128              	.LFB78:
1308:Source\LwIP\src\core/tcp.c **** 
1309:Source\LwIP\src\core/tcp.c **** /** Pass pcb->refused_data to the recv callback */
1310:Source\LwIP\src\core/tcp.c **** err_t
1311:Source\LwIP\src\core/tcp.c **** tcp_process_refused_data(struct tcp_pcb *pcb)
1312:Source\LwIP\src\core/tcp.c **** {
1313:Source\LwIP\src\core/tcp.c **** #if TCP_QUEUE_OOSEQ && LWIP_WND_SCALE
1314:Source\LwIP\src\core/tcp.c ****   struct pbuf *rest;
1315:Source\LwIP\src\core/tcp.c ****   while (pcb->refused_data != NULL)
1316:Source\LwIP\src\core/tcp.c **** #endif /* TCP_QUEUE_OOSEQ && LWIP_WND_SCALE */
1317:Source\LwIP\src\core/tcp.c ****   {
1318:Source\LwIP\src\core/tcp.c ****     err_t err;
1319:Source\LwIP\src\core/tcp.c ****     u8_t refused_flags = pcb->refused_data->flags;
1320:Source\LwIP\src\core/tcp.c ****     /* set pcb->refused_data to NULL in case the callback frees it and then
1321:Source\LwIP\src\core/tcp.c ****        closes the pcb */
1322:Source\LwIP\src\core/tcp.c ****     struct pbuf *refused_data = pcb->refused_data;
1323:Source\LwIP\src\core/tcp.c **** #if TCP_QUEUE_OOSEQ && LWIP_WND_SCALE
1324:Source\LwIP\src\core/tcp.c ****     pbuf_split_64k(refused_data, &rest);
1325:Source\LwIP\src\core/tcp.c ****     pcb->refused_data = rest;
1326:Source\LwIP\src\core/tcp.c **** #else /* TCP_QUEUE_OOSEQ && LWIP_WND_SCALE */
1327:Source\LwIP\src\core/tcp.c ****     pcb->refused_data = NULL;
1328:Source\LwIP\src\core/tcp.c **** #endif /* TCP_QUEUE_OOSEQ && LWIP_WND_SCALE */
1329:Source\LwIP\src\core/tcp.c ****     /* Notify again application with data previously received. */
1330:Source\LwIP\src\core/tcp.c ****     LWIP_DEBUGF(TCP_INPUT_DEBUG, ("tcp_input: notify kept packet\n"));
1331:Source\LwIP\src\core/tcp.c ****     TCP_EVENT_RECV(pcb, refused_data, ERR_OK, err);
1332:Source\LwIP\src\core/tcp.c ****     if (err == ERR_OK) {
1333:Source\LwIP\src\core/tcp.c ****       /* did refused_data include a FIN? */
1334:Source\LwIP\src\core/tcp.c ****       if (refused_flags & PBUF_FLAG_TCP_FIN
1335:Source\LwIP\src\core/tcp.c **** #if TCP_QUEUE_OOSEQ && LWIP_WND_SCALE
1336:Source\LwIP\src\core/tcp.c ****           && (rest == NULL)
ARM GAS  C:\Users\Phuong\AppData\Local\Temp\cczg95Bp.s 			page 47


1337:Source\LwIP\src\core/tcp.c **** #endif /* TCP_QUEUE_OOSEQ && LWIP_WND_SCALE */
1338:Source\LwIP\src\core/tcp.c ****          ) {
1339:Source\LwIP\src\core/tcp.c ****         /* correct rcv_wnd as the application won't call tcp_recved()
1340:Source\LwIP\src\core/tcp.c ****            for the FIN's seqno */
1341:Source\LwIP\src\core/tcp.c ****         if (pcb->rcv_wnd != TCP_WND_MAX(pcb)) {
1342:Source\LwIP\src\core/tcp.c ****           pcb->rcv_wnd++;
1343:Source\LwIP\src\core/tcp.c ****         }
1344:Source\LwIP\src\core/tcp.c ****         TCP_EVENT_CLOSED(pcb, err);
1345:Source\LwIP\src\core/tcp.c ****         if (err == ERR_ABRT) {
1346:Source\LwIP\src\core/tcp.c ****           return ERR_ABRT;
1347:Source\LwIP\src\core/tcp.c ****         }
1348:Source\LwIP\src\core/tcp.c ****       }
1349:Source\LwIP\src\core/tcp.c ****     } else if (err == ERR_ABRT) {
1350:Source\LwIP\src\core/tcp.c ****       /* if err == ERR_ABRT, 'pcb' is already deallocated */
1351:Source\LwIP\src\core/tcp.c ****       /* Drop incoming packets because pcb is "full" (only if the incoming
1352:Source\LwIP\src\core/tcp.c ****          segment contains data). */
1353:Source\LwIP\src\core/tcp.c ****       LWIP_DEBUGF(TCP_INPUT_DEBUG, ("tcp_input: drop incoming packets, because pcb is \"full\"\n"))
1354:Source\LwIP\src\core/tcp.c ****       return ERR_ABRT;
1355:Source\LwIP\src\core/tcp.c ****     } else {
1356:Source\LwIP\src\core/tcp.c ****       /* data is still refused, pbuf is still valid (go on for ACK-only packets) */
1357:Source\LwIP\src\core/tcp.c **** #if TCP_QUEUE_OOSEQ && LWIP_WND_SCALE
1358:Source\LwIP\src\core/tcp.c ****       if (rest != NULL) {
1359:Source\LwIP\src\core/tcp.c ****         pbuf_cat(refused_data, rest);
1360:Source\LwIP\src\core/tcp.c ****       }
1361:Source\LwIP\src\core/tcp.c **** #endif /* TCP_QUEUE_OOSEQ && LWIP_WND_SCALE */
1362:Source\LwIP\src\core/tcp.c ****       pcb->refused_data = refused_data;
1363:Source\LwIP\src\core/tcp.c ****       return ERR_INPROGRESS;
1364:Source\LwIP\src\core/tcp.c ****     }
1365:Source\LwIP\src\core/tcp.c ****   }
1366:Source\LwIP\src\core/tcp.c ****   return ERR_OK;
1367:Source\LwIP\src\core/tcp.c **** }
1368:Source\LwIP\src\core/tcp.c **** 
1369:Source\LwIP\src\core/tcp.c **** /**
1370:Source\LwIP\src\core/tcp.c ****  * Deallocates a list of TCP segments (tcp_seg structures).
1371:Source\LwIP\src\core/tcp.c ****  *
1372:Source\LwIP\src\core/tcp.c ****  * @param seg tcp_seg list of TCP segments to free
1373:Source\LwIP\src\core/tcp.c ****  */
1374:Source\LwIP\src\core/tcp.c **** void
1375:Source\LwIP\src\core/tcp.c **** tcp_segs_free(struct tcp_seg *seg)
1376:Source\LwIP\src\core/tcp.c **** {
1377:Source\LwIP\src\core/tcp.c ****   while (seg != NULL) {
1378:Source\LwIP\src\core/tcp.c ****     struct tcp_seg *next = seg->next;
1379:Source\LwIP\src\core/tcp.c ****     tcp_seg_free(seg);
1380:Source\LwIP\src\core/tcp.c ****     seg = next;
1381:Source\LwIP\src\core/tcp.c ****   }
1382:Source\LwIP\src\core/tcp.c **** }
1383:Source\LwIP\src\core/tcp.c **** 
1384:Source\LwIP\src\core/tcp.c **** /**
1385:Source\LwIP\src\core/tcp.c ****  * Frees a TCP segment (tcp_seg structure).
1386:Source\LwIP\src\core/tcp.c ****  *
1387:Source\LwIP\src\core/tcp.c ****  * @param seg single tcp_seg to free
1388:Source\LwIP\src\core/tcp.c ****  */
1389:Source\LwIP\src\core/tcp.c **** void
1390:Source\LwIP\src\core/tcp.c **** tcp_seg_free(struct tcp_seg *seg)
1391:Source\LwIP\src\core/tcp.c **** {
 1129              		.loc 1 1391 0
 1130              		.cfi_startproc
ARM GAS  C:\Users\Phuong\AppData\Local\Temp\cczg95Bp.s 			page 48


 1131              		@ args = 0, pretend = 0, frame = 0
 1132              		@ frame_needed = 0, uses_anonymous_args = 0
 1133              	.LVL118:
 1134 0000 10B5     		push	{r4, lr}
 1135              		.cfi_def_cfa_offset 8
 1136              		.cfi_offset 4, -8
 1137              		.cfi_offset 14, -4
 1138 0002 041E     		subs	r4, r0, #0
1392:Source\LwIP\src\core/tcp.c ****   if (seg != NULL) {
 1139              		.loc 1 1392 0
 1140 0004 08D0     		beq	.L111
1393:Source\LwIP\src\core/tcp.c ****     if (seg->p != NULL) {
 1141              		.loc 1 1393 0
 1142 0006 4068     		ldr	r0, [r0, #4]
 1143              	.LVL119:
 1144 0008 0028     		cmp	r0, #0
 1145 000a 01D0     		beq	.L113
1394:Source\LwIP\src\core/tcp.c ****       pbuf_free(seg->p);
 1146              		.loc 1 1394 0
 1147 000c FFF7FEFF 		bl	pbuf_free
 1148              	.LVL120:
 1149              	.L113:
1395:Source\LwIP\src\core/tcp.c **** #if TCP_DEBUG
1396:Source\LwIP\src\core/tcp.c ****       seg->p = NULL;
1397:Source\LwIP\src\core/tcp.c **** #endif /* TCP_DEBUG */
1398:Source\LwIP\src\core/tcp.c ****     }
1399:Source\LwIP\src\core/tcp.c ****     memp_free(MEMP_TCP_SEG, seg);
 1150              		.loc 1 1399 0
 1151 0010 2100     		movs	r1, r4
 1152 0012 0420     		movs	r0, #4
 1153 0014 FFF7FEFF 		bl	memp_free
 1154              	.LVL121:
 1155              	.L111:
1400:Source\LwIP\src\core/tcp.c ****   }
1401:Source\LwIP\src\core/tcp.c **** }
 1156              		.loc 1 1401 0
 1157              		@ sp needed
 1158              	.LVL122:
 1159 0018 10BD     		pop	{r4, pc}
 1160              		.cfi_endproc
 1161              	.LFE78:
 1162              		.size	tcp_seg_free, .-tcp_seg_free
 1163 001a C046     		.section	.text.tcp_segs_free,"ax",%progbits
 1164              		.align	2
 1165              		.global	tcp_segs_free
 1166              		.code	16
 1167              		.thumb_func
 1168              		.type	tcp_segs_free, %function
 1169              	tcp_segs_free:
 1170              	.LFB77:
1376:Source\LwIP\src\core/tcp.c ****   while (seg != NULL) {
 1171              		.loc 1 1376 0
 1172              		.cfi_startproc
 1173              		@ args = 0, pretend = 0, frame = 0
 1174              		@ frame_needed = 0, uses_anonymous_args = 0
 1175              	.LVL123:
 1176 0000 10B5     		push	{r4, lr}
ARM GAS  C:\Users\Phuong\AppData\Local\Temp\cczg95Bp.s 			page 49


 1177              		.cfi_def_cfa_offset 8
 1178              		.cfi_offset 4, -8
 1179              		.cfi_offset 14, -4
1377:Source\LwIP\src\core/tcp.c ****     struct tcp_seg *next = seg->next;
 1180              		.loc 1 1377 0
 1181 0002 03E0     		b	.L115
 1182              	.L116:
 1183              	.LBB4:
1378:Source\LwIP\src\core/tcp.c ****     tcp_seg_free(seg);
 1184              		.loc 1 1378 0
 1185 0004 0468     		ldr	r4, [r0]
 1186              	.LVL124:
1379:Source\LwIP\src\core/tcp.c ****     seg = next;
 1187              		.loc 1 1379 0
 1188 0006 FFF7FEFF 		bl	tcp_seg_free
 1189              	.LVL125:
1380:Source\LwIP\src\core/tcp.c ****   }
 1190              		.loc 1 1380 0
 1191 000a 2000     		movs	r0, r4
 1192              	.LVL126:
 1193              	.L115:
 1194              	.LBE4:
1377:Source\LwIP\src\core/tcp.c ****     struct tcp_seg *next = seg->next;
 1195              		.loc 1 1377 0
 1196 000c 0028     		cmp	r0, #0
 1197 000e F9D1     		bne	.L116
1382:Source\LwIP\src\core/tcp.c **** 
 1198              		.loc 1 1382 0
 1199              		@ sp needed
 1200 0010 10BD     		pop	{r4, pc}
 1201              		.cfi_endproc
 1202              	.LFE77:
 1203              		.size	tcp_segs_free, .-tcp_segs_free
 1204 0012 C046     		.section	.text.tcp_setprio,"ax",%progbits
 1205              		.align	2
 1206              		.global	tcp_setprio
 1207              		.code	16
 1208              		.thumb_func
 1209              		.type	tcp_setprio, %function
 1210              	tcp_setprio:
 1211              	.LFB79:
1402:Source\LwIP\src\core/tcp.c **** 
1403:Source\LwIP\src\core/tcp.c **** /**
1404:Source\LwIP\src\core/tcp.c ****  * Sets the priority of a connection.
1405:Source\LwIP\src\core/tcp.c ****  *
1406:Source\LwIP\src\core/tcp.c ****  * @param pcb the tcp_pcb to manipulate
1407:Source\LwIP\src\core/tcp.c ****  * @param prio new priority
1408:Source\LwIP\src\core/tcp.c ****  */
1409:Source\LwIP\src\core/tcp.c **** void
1410:Source\LwIP\src\core/tcp.c **** tcp_setprio(struct tcp_pcb *pcb, u8_t prio)
1411:Source\LwIP\src\core/tcp.c **** {
 1212              		.loc 1 1411 0
 1213              		.cfi_startproc
 1214              		@ args = 0, pretend = 0, frame = 0
 1215              		@ frame_needed = 0, uses_anonymous_args = 0
 1216              		@ link register save eliminated.
 1217              	.LVL127:
ARM GAS  C:\Users\Phuong\AppData\Local\Temp\cczg95Bp.s 			page 50


1412:Source\LwIP\src\core/tcp.c ****   pcb->prio = prio;
 1218              		.loc 1 1412 0
 1219 0000 4175     		strb	r1, [r0, #21]
1413:Source\LwIP\src\core/tcp.c **** }
 1220              		.loc 1 1413 0
 1221              		@ sp needed
 1222 0002 7047     		bx	lr
 1223              		.cfi_endproc
 1224              	.LFE79:
 1225              		.size	tcp_setprio, .-tcp_setprio
 1226              		.section	.text.tcp_seg_copy,"ax",%progbits
 1227              		.align	2
 1228              		.global	tcp_seg_copy
 1229              		.code	16
 1230              		.thumb_func
 1231              		.type	tcp_seg_copy, %function
 1232              	tcp_seg_copy:
 1233              	.LFB80:
1414:Source\LwIP\src\core/tcp.c **** 
1415:Source\LwIP\src\core/tcp.c **** #if TCP_QUEUE_OOSEQ
1416:Source\LwIP\src\core/tcp.c **** /**
1417:Source\LwIP\src\core/tcp.c ****  * Returns a copy of the given TCP segment.
1418:Source\LwIP\src\core/tcp.c ****  * The pbuf and data are not copied, only the pointers
1419:Source\LwIP\src\core/tcp.c ****  *
1420:Source\LwIP\src\core/tcp.c ****  * @param seg the old tcp_seg
1421:Source\LwIP\src\core/tcp.c ****  * @return a copy of seg
1422:Source\LwIP\src\core/tcp.c ****  */
1423:Source\LwIP\src\core/tcp.c **** struct tcp_seg *
1424:Source\LwIP\src\core/tcp.c **** tcp_seg_copy(struct tcp_seg *seg)
1425:Source\LwIP\src\core/tcp.c **** {
 1234              		.loc 1 1425 0
 1235              		.cfi_startproc
 1236              		@ args = 0, pretend = 0, frame = 0
 1237              		@ frame_needed = 0, uses_anonymous_args = 0
 1238              	.LVL128:
 1239 0000 70B5     		push	{r4, r5, r6, lr}
 1240              		.cfi_def_cfa_offset 16
 1241              		.cfi_offset 4, -16
 1242              		.cfi_offset 5, -12
 1243              		.cfi_offset 6, -8
 1244              		.cfi_offset 14, -4
 1245 0002 0500     		movs	r5, r0
1426:Source\LwIP\src\core/tcp.c ****   struct tcp_seg *cseg;
1427:Source\LwIP\src\core/tcp.c **** 
1428:Source\LwIP\src\core/tcp.c ****   cseg = (struct tcp_seg *)memp_malloc(MEMP_TCP_SEG);
 1246              		.loc 1 1428 0
 1247 0004 084A     		ldr	r2, .L121
 1248 0006 0949     		ldr	r1, .L121+4
 1249 0008 0420     		movs	r0, #4
 1250              	.LVL129:
 1251 000a FFF7FEFF 		bl	memp_malloc_fn
 1252              	.LVL130:
 1253 000e 041E     		subs	r4, r0, #0
 1254              	.LVL131:
1429:Source\LwIP\src\core/tcp.c ****   if (cseg == NULL) {
 1255              		.loc 1 1429 0
 1256 0010 08D0     		beq	.L120
ARM GAS  C:\Users\Phuong\AppData\Local\Temp\cczg95Bp.s 			page 51


1430:Source\LwIP\src\core/tcp.c ****     return NULL;
1431:Source\LwIP\src\core/tcp.c ****   }
1432:Source\LwIP\src\core/tcp.c ****   SMEMCPY((u8_t *)cseg, (const u8_t *)seg, sizeof(struct tcp_seg));
 1257              		.loc 1 1432 0
 1258 0012 1422     		movs	r2, #20
 1259 0014 2900     		movs	r1, r5
 1260 0016 FFF7FEFF 		bl	memcpy
 1261              	.LVL132:
1433:Source\LwIP\src\core/tcp.c ****   pbuf_ref(cseg->p);
 1262              		.loc 1 1433 0
 1263 001a 6068     		ldr	r0, [r4, #4]
 1264 001c FFF7FEFF 		bl	pbuf_ref
 1265              	.LVL133:
1434:Source\LwIP\src\core/tcp.c ****   return cseg;
 1266              		.loc 1 1434 0
 1267 0020 2000     		movs	r0, r4
 1268 0022 00E0     		b	.L119
 1269              	.L120:
1430:Source\LwIP\src\core/tcp.c ****     return NULL;
 1270              		.loc 1 1430 0
 1271 0024 0020     		movs	r0, #0
 1272              	.L119:
1435:Source\LwIP\src\core/tcp.c **** }
 1273              		.loc 1 1435 0
 1274              		@ sp needed
 1275              	.LVL134:
 1276              	.LVL135:
 1277 0026 70BD     		pop	{r4, r5, r6, pc}
 1278              	.L122:
 1279              		.align	2
 1280              	.L121:
 1281 0028 94050000 		.word	1428
 1282 002c 00000000 		.word	.LC8
 1283              		.cfi_endproc
 1284              	.LFE80:
 1285              		.size	tcp_seg_copy, .-tcp_seg_copy
 1286              		.section	.text.tcp_arg,"ax",%progbits
 1287              		.align	2
 1288              		.global	tcp_arg
 1289              		.code	16
 1290              		.thumb_func
 1291              		.type	tcp_arg, %function
 1292              	tcp_arg:
 1293              	.LFB88:
1436:Source\LwIP\src\core/tcp.c **** #endif /* TCP_QUEUE_OOSEQ */
1437:Source\LwIP\src\core/tcp.c **** 
1438:Source\LwIP\src\core/tcp.c **** #if LWIP_CALLBACK_API
1439:Source\LwIP\src\core/tcp.c **** /**
1440:Source\LwIP\src\core/tcp.c ****  * Default receive callback that is called if the user didn't register
1441:Source\LwIP\src\core/tcp.c ****  * a recv callback for the pcb.
1442:Source\LwIP\src\core/tcp.c ****  */
1443:Source\LwIP\src\core/tcp.c **** err_t
1444:Source\LwIP\src\core/tcp.c **** tcp_recv_null(void *arg, struct tcp_pcb *pcb, struct pbuf *p, err_t err)
1445:Source\LwIP\src\core/tcp.c **** {
1446:Source\LwIP\src\core/tcp.c ****   LWIP_UNUSED_ARG(arg);
1447:Source\LwIP\src\core/tcp.c ****   if (p != NULL) {
1448:Source\LwIP\src\core/tcp.c ****     tcp_recved(pcb, p->tot_len);
ARM GAS  C:\Users\Phuong\AppData\Local\Temp\cczg95Bp.s 			page 52


1449:Source\LwIP\src\core/tcp.c ****     pbuf_free(p);
1450:Source\LwIP\src\core/tcp.c ****   } else if (err == ERR_OK) {
1451:Source\LwIP\src\core/tcp.c ****     return tcp_close(pcb);
1452:Source\LwIP\src\core/tcp.c ****   }
1453:Source\LwIP\src\core/tcp.c ****   return ERR_OK;
1454:Source\LwIP\src\core/tcp.c **** }
1455:Source\LwIP\src\core/tcp.c **** #endif /* LWIP_CALLBACK_API */
1456:Source\LwIP\src\core/tcp.c **** 
1457:Source\LwIP\src\core/tcp.c **** /**
1458:Source\LwIP\src\core/tcp.c ****  * Kills the oldest active connection that has the same or lower priority than
1459:Source\LwIP\src\core/tcp.c ****  * 'prio'.
1460:Source\LwIP\src\core/tcp.c ****  *
1461:Source\LwIP\src\core/tcp.c ****  * @param prio minimum priority
1462:Source\LwIP\src\core/tcp.c ****  */
1463:Source\LwIP\src\core/tcp.c **** static void
1464:Source\LwIP\src\core/tcp.c **** tcp_kill_prio(u8_t prio)
1465:Source\LwIP\src\core/tcp.c **** {
1466:Source\LwIP\src\core/tcp.c ****   struct tcp_pcb *pcb, *inactive;
1467:Source\LwIP\src\core/tcp.c ****   u32_t inactivity;
1468:Source\LwIP\src\core/tcp.c ****   u8_t mprio;
1469:Source\LwIP\src\core/tcp.c **** 
1470:Source\LwIP\src\core/tcp.c ****   mprio = LWIP_MIN(TCP_PRIO_MAX, prio);
1471:Source\LwIP\src\core/tcp.c **** 
1472:Source\LwIP\src\core/tcp.c ****   /* We kill the oldest active connection that has lower priority than prio. */
1473:Source\LwIP\src\core/tcp.c ****   inactivity = 0;
1474:Source\LwIP\src\core/tcp.c ****   inactive = NULL;
1475:Source\LwIP\src\core/tcp.c ****   for (pcb = tcp_active_pcbs; pcb != NULL; pcb = pcb->next) {
1476:Source\LwIP\src\core/tcp.c ****     if (pcb->prio <= mprio &&
1477:Source\LwIP\src\core/tcp.c ****        (u32_t)(tcp_ticks - pcb->tmr) >= inactivity) {
1478:Source\LwIP\src\core/tcp.c ****       inactivity = tcp_ticks - pcb->tmr;
1479:Source\LwIP\src\core/tcp.c ****       inactive = pcb;
1480:Source\LwIP\src\core/tcp.c ****       mprio = pcb->prio;
1481:Source\LwIP\src\core/tcp.c ****     }
1482:Source\LwIP\src\core/tcp.c ****   }
1483:Source\LwIP\src\core/tcp.c ****   if (inactive != NULL) {
1484:Source\LwIP\src\core/tcp.c ****     LWIP_DEBUGF(TCP_DEBUG, ("tcp_kill_prio: killing oldest PCB %p (%"S32_F")\n",
1485:Source\LwIP\src\core/tcp.c ****            (void *)inactive, inactivity));
1486:Source\LwIP\src\core/tcp.c ****     tcp_abort(inactive);
1487:Source\LwIP\src\core/tcp.c ****   }
1488:Source\LwIP\src\core/tcp.c **** }
1489:Source\LwIP\src\core/tcp.c **** 
1490:Source\LwIP\src\core/tcp.c **** /**
1491:Source\LwIP\src\core/tcp.c ****  * Kills the oldest connection that is in specific state.
1492:Source\LwIP\src\core/tcp.c ****  * Called from tcp_alloc() for LAST_ACK and CLOSING if no more connections are available.
1493:Source\LwIP\src\core/tcp.c ****  */
1494:Source\LwIP\src\core/tcp.c **** static void
1495:Source\LwIP\src\core/tcp.c **** tcp_kill_state(enum tcp_state state)
1496:Source\LwIP\src\core/tcp.c **** {
1497:Source\LwIP\src\core/tcp.c ****   struct tcp_pcb *pcb, *inactive;
1498:Source\LwIP\src\core/tcp.c ****   u32_t inactivity;
1499:Source\LwIP\src\core/tcp.c **** 
1500:Source\LwIP\src\core/tcp.c ****   LWIP_ASSERT("invalid state", (state == CLOSING) || (state == LAST_ACK));
1501:Source\LwIP\src\core/tcp.c **** 
1502:Source\LwIP\src\core/tcp.c ****   inactivity = 0;
1503:Source\LwIP\src\core/tcp.c ****   inactive = NULL;
1504:Source\LwIP\src\core/tcp.c ****   /* Go through the list of active pcbs and get the oldest pcb that is in state
1505:Source\LwIP\src\core/tcp.c ****      CLOSING/LAST_ACK. */
ARM GAS  C:\Users\Phuong\AppData\Local\Temp\cczg95Bp.s 			page 53


1506:Source\LwIP\src\core/tcp.c ****   for (pcb = tcp_active_pcbs; pcb != NULL; pcb = pcb->next) {
1507:Source\LwIP\src\core/tcp.c ****     if (pcb->state == state) {
1508:Source\LwIP\src\core/tcp.c ****       if ((u32_t)(tcp_ticks - pcb->tmr) >= inactivity) {
1509:Source\LwIP\src\core/tcp.c ****         inactivity = tcp_ticks - pcb->tmr;
1510:Source\LwIP\src\core/tcp.c ****         inactive = pcb;
1511:Source\LwIP\src\core/tcp.c ****       }
1512:Source\LwIP\src\core/tcp.c ****     }
1513:Source\LwIP\src\core/tcp.c ****   }
1514:Source\LwIP\src\core/tcp.c ****   if (inactive != NULL) {
1515:Source\LwIP\src\core/tcp.c ****     LWIP_DEBUGF(TCP_DEBUG, ("tcp_kill_closing: killing oldest %s PCB %p (%"S32_F")\n",
1516:Source\LwIP\src\core/tcp.c ****            tcp_state_str[state], (void *)inactive, inactivity));
1517:Source\LwIP\src\core/tcp.c ****     /* Don't send a RST, since no data is lost. */
1518:Source\LwIP\src\core/tcp.c ****     tcp_abandon(inactive, 0);
1519:Source\LwIP\src\core/tcp.c ****   }
1520:Source\LwIP\src\core/tcp.c **** }
1521:Source\LwIP\src\core/tcp.c **** 
1522:Source\LwIP\src\core/tcp.c **** /**
1523:Source\LwIP\src\core/tcp.c ****  * Kills the oldest connection that is in TIME_WAIT state.
1524:Source\LwIP\src\core/tcp.c ****  * Called from tcp_alloc() if no more connections are available.
1525:Source\LwIP\src\core/tcp.c ****  */
1526:Source\LwIP\src\core/tcp.c **** static void
1527:Source\LwIP\src\core/tcp.c **** tcp_kill_timewait(void)
1528:Source\LwIP\src\core/tcp.c **** {
1529:Source\LwIP\src\core/tcp.c ****   struct tcp_pcb *pcb, *inactive;
1530:Source\LwIP\src\core/tcp.c ****   u32_t inactivity;
1531:Source\LwIP\src\core/tcp.c **** 
1532:Source\LwIP\src\core/tcp.c ****   inactivity = 0;
1533:Source\LwIP\src\core/tcp.c ****   inactive = NULL;
1534:Source\LwIP\src\core/tcp.c ****   /* Go through the list of TIME_WAIT pcbs and get the oldest pcb. */
1535:Source\LwIP\src\core/tcp.c ****   for (pcb = tcp_tw_pcbs; pcb != NULL; pcb = pcb->next) {
1536:Source\LwIP\src\core/tcp.c ****     if ((u32_t)(tcp_ticks - pcb->tmr) >= inactivity) {
1537:Source\LwIP\src\core/tcp.c ****       inactivity = tcp_ticks - pcb->tmr;
1538:Source\LwIP\src\core/tcp.c ****       inactive = pcb;
1539:Source\LwIP\src\core/tcp.c ****     }
1540:Source\LwIP\src\core/tcp.c ****   }
1541:Source\LwIP\src\core/tcp.c ****   if (inactive != NULL) {
1542:Source\LwIP\src\core/tcp.c ****     LWIP_DEBUGF(TCP_DEBUG, ("tcp_kill_timewait: killing oldest TIME-WAIT PCB %p (%"S32_F")\n",
1543:Source\LwIP\src\core/tcp.c ****            (void *)inactive, inactivity));
1544:Source\LwIP\src\core/tcp.c ****     tcp_abort(inactive);
1545:Source\LwIP\src\core/tcp.c ****   }
1546:Source\LwIP\src\core/tcp.c **** }
1547:Source\LwIP\src\core/tcp.c **** 
1548:Source\LwIP\src\core/tcp.c **** /**
1549:Source\LwIP\src\core/tcp.c ****  * Allocate a new tcp_pcb structure.
1550:Source\LwIP\src\core/tcp.c ****  *
1551:Source\LwIP\src\core/tcp.c ****  * @param prio priority for the new pcb
1552:Source\LwIP\src\core/tcp.c ****  * @return a new tcp_pcb that initially is in state CLOSED
1553:Source\LwIP\src\core/tcp.c ****  */
1554:Source\LwIP\src\core/tcp.c **** struct tcp_pcb *
1555:Source\LwIP\src\core/tcp.c **** tcp_alloc(u8_t prio)
1556:Source\LwIP\src\core/tcp.c **** {
1557:Source\LwIP\src\core/tcp.c ****   struct tcp_pcb *pcb;
1558:Source\LwIP\src\core/tcp.c **** 
1559:Source\LwIP\src\core/tcp.c ****   pcb = (struct tcp_pcb *)memp_malloc(MEMP_TCP_PCB);
1560:Source\LwIP\src\core/tcp.c ****   if (pcb == NULL) {
1561:Source\LwIP\src\core/tcp.c ****     /* Try killing oldest connection in TIME-WAIT. */
1562:Source\LwIP\src\core/tcp.c ****     LWIP_DEBUGF(TCP_DEBUG, ("tcp_alloc: killing off oldest TIME-WAIT connection\n"));
ARM GAS  C:\Users\Phuong\AppData\Local\Temp\cczg95Bp.s 			page 54


1563:Source\LwIP\src\core/tcp.c ****     tcp_kill_timewait();
1564:Source\LwIP\src\core/tcp.c ****     /* Try to allocate a tcp_pcb again. */
1565:Source\LwIP\src\core/tcp.c ****     pcb = (struct tcp_pcb *)memp_malloc(MEMP_TCP_PCB);
1566:Source\LwIP\src\core/tcp.c ****     if (pcb == NULL) {
1567:Source\LwIP\src\core/tcp.c ****       /* Try killing oldest connection in LAST-ACK (these wouldn't go to TIME-WAIT). */
1568:Source\LwIP\src\core/tcp.c ****       LWIP_DEBUGF(TCP_DEBUG, ("tcp_alloc: killing off oldest LAST-ACK connection\n"));
1569:Source\LwIP\src\core/tcp.c ****       tcp_kill_state(LAST_ACK);
1570:Source\LwIP\src\core/tcp.c ****       /* Try to allocate a tcp_pcb again. */
1571:Source\LwIP\src\core/tcp.c ****       pcb = (struct tcp_pcb *)memp_malloc(MEMP_TCP_PCB);
1572:Source\LwIP\src\core/tcp.c ****       if (pcb == NULL) {
1573:Source\LwIP\src\core/tcp.c ****         /* Try killing oldest connection in CLOSING. */
1574:Source\LwIP\src\core/tcp.c ****         LWIP_DEBUGF(TCP_DEBUG, ("tcp_alloc: killing off oldest CLOSING connection\n"));
1575:Source\LwIP\src\core/tcp.c ****         tcp_kill_state(CLOSING);
1576:Source\LwIP\src\core/tcp.c ****         /* Try to allocate a tcp_pcb again. */
1577:Source\LwIP\src\core/tcp.c ****         pcb = (struct tcp_pcb *)memp_malloc(MEMP_TCP_PCB);
1578:Source\LwIP\src\core/tcp.c ****         if (pcb == NULL) {
1579:Source\LwIP\src\core/tcp.c ****           /* Try killing active connections with lower priority than the new one. */
1580:Source\LwIP\src\core/tcp.c ****           LWIP_DEBUGF(TCP_DEBUG, ("tcp_alloc: killing connection with prio lower than %d\n", prio))
1581:Source\LwIP\src\core/tcp.c ****           tcp_kill_prio(prio);
1582:Source\LwIP\src\core/tcp.c ****           /* Try to allocate a tcp_pcb again. */
1583:Source\LwIP\src\core/tcp.c ****           pcb = (struct tcp_pcb *)memp_malloc(MEMP_TCP_PCB);
1584:Source\LwIP\src\core/tcp.c ****           if (pcb != NULL) {
1585:Source\LwIP\src\core/tcp.c ****             /* adjust err stats: memp_malloc failed multiple times before */
1586:Source\LwIP\src\core/tcp.c ****             MEMP_STATS_DEC(err, MEMP_TCP_PCB);
1587:Source\LwIP\src\core/tcp.c ****           }
1588:Source\LwIP\src\core/tcp.c ****         }
1589:Source\LwIP\src\core/tcp.c ****         if (pcb != NULL) {
1590:Source\LwIP\src\core/tcp.c ****           /* adjust err stats: memp_malloc failed multiple times before */
1591:Source\LwIP\src\core/tcp.c ****           MEMP_STATS_DEC(err, MEMP_TCP_PCB);
1592:Source\LwIP\src\core/tcp.c ****         }
1593:Source\LwIP\src\core/tcp.c ****       }
1594:Source\LwIP\src\core/tcp.c ****       if (pcb != NULL) {
1595:Source\LwIP\src\core/tcp.c ****         /* adjust err stats: memp_malloc failed multiple times before */
1596:Source\LwIP\src\core/tcp.c ****         MEMP_STATS_DEC(err, MEMP_TCP_PCB);
1597:Source\LwIP\src\core/tcp.c ****       }
1598:Source\LwIP\src\core/tcp.c ****     }
1599:Source\LwIP\src\core/tcp.c ****     if (pcb != NULL) {
1600:Source\LwIP\src\core/tcp.c ****       /* adjust err stats: memp_malloc failed above */
1601:Source\LwIP\src\core/tcp.c ****       MEMP_STATS_DEC(err, MEMP_TCP_PCB);
1602:Source\LwIP\src\core/tcp.c ****     }
1603:Source\LwIP\src\core/tcp.c ****   }
1604:Source\LwIP\src\core/tcp.c ****   if (pcb != NULL) {
1605:Source\LwIP\src\core/tcp.c ****     /* zero out the whole pcb, so there is no need to initialize members to zero */
1606:Source\LwIP\src\core/tcp.c ****     memset(pcb, 0, sizeof(struct tcp_pcb));
1607:Source\LwIP\src\core/tcp.c ****     pcb->prio = prio;
1608:Source\LwIP\src\core/tcp.c ****     pcb->snd_buf = TCP_SND_BUF;
1609:Source\LwIP\src\core/tcp.c ****     /* Start with a window that does not need scaling. When window scaling is
1610:Source\LwIP\src\core/tcp.c ****        enabled and used, the window is enlarged when both sides agree on scaling. */
1611:Source\LwIP\src\core/tcp.c ****     pcb->rcv_wnd = pcb->rcv_ann_wnd = TCPWND_MIN16(TCP_WND);
1612:Source\LwIP\src\core/tcp.c ****     pcb->ttl = TCP_TTL;
1613:Source\LwIP\src\core/tcp.c ****     /* As initial send MSS, we use TCP_MSS but limit it to 536.
1614:Source\LwIP\src\core/tcp.c ****        The send MSS is updated when an MSS option is received. */
1615:Source\LwIP\src\core/tcp.c ****     pcb->mss = INITIAL_MSS;
1616:Source\LwIP\src\core/tcp.c ****     pcb->rto = 3000 / TCP_SLOW_INTERVAL;
1617:Source\LwIP\src\core/tcp.c ****     pcb->sv = 3000 / TCP_SLOW_INTERVAL;
1618:Source\LwIP\src\core/tcp.c ****     pcb->rtime = -1;
1619:Source\LwIP\src\core/tcp.c ****     pcb->cwnd = 1;
ARM GAS  C:\Users\Phuong\AppData\Local\Temp\cczg95Bp.s 			page 55


1620:Source\LwIP\src\core/tcp.c ****     pcb->tmr = tcp_ticks;
1621:Source\LwIP\src\core/tcp.c ****     pcb->last_timer = tcp_timer_ctr;
1622:Source\LwIP\src\core/tcp.c **** 
1623:Source\LwIP\src\core/tcp.c ****     /* RFC 5681 recommends setting ssthresh abritrarily high and gives an example
1624:Source\LwIP\src\core/tcp.c ****     of using the largest advertised receive window.  We've seen complications with
1625:Source\LwIP\src\core/tcp.c ****     receiving TCPs that use window scaling and/or window auto-tuning where the
1626:Source\LwIP\src\core/tcp.c ****     initial advertised window is very small and then grows rapidly once the
1627:Source\LwIP\src\core/tcp.c ****     connection is established. To avoid these complications, we set ssthresh to the
1628:Source\LwIP\src\core/tcp.c ****     largest effective cwnd (amount of in-flight data) that the sender can have. */
1629:Source\LwIP\src\core/tcp.c ****     pcb->ssthresh = TCP_SND_BUF;
1630:Source\LwIP\src\core/tcp.c **** 
1631:Source\LwIP\src\core/tcp.c **** #if LWIP_CALLBACK_API
1632:Source\LwIP\src\core/tcp.c ****     pcb->recv = tcp_recv_null;
1633:Source\LwIP\src\core/tcp.c **** #endif /* LWIP_CALLBACK_API */
1634:Source\LwIP\src\core/tcp.c **** 
1635:Source\LwIP\src\core/tcp.c ****     /* Init KEEPALIVE timer */
1636:Source\LwIP\src\core/tcp.c ****     pcb->keep_idle  = TCP_KEEPIDLE_DEFAULT;
1637:Source\LwIP\src\core/tcp.c **** 
1638:Source\LwIP\src\core/tcp.c **** #if LWIP_TCP_KEEPALIVE
1639:Source\LwIP\src\core/tcp.c ****     pcb->keep_intvl = TCP_KEEPINTVL_DEFAULT;
1640:Source\LwIP\src\core/tcp.c ****     pcb->keep_cnt   = TCP_KEEPCNT_DEFAULT;
1641:Source\LwIP\src\core/tcp.c **** #endif /* LWIP_TCP_KEEPALIVE */
1642:Source\LwIP\src\core/tcp.c ****   }
1643:Source\LwIP\src\core/tcp.c ****   return pcb;
1644:Source\LwIP\src\core/tcp.c **** }
1645:Source\LwIP\src\core/tcp.c **** 
1646:Source\LwIP\src\core/tcp.c **** /**
1647:Source\LwIP\src\core/tcp.c ****  * @ingroup tcp_raw
1648:Source\LwIP\src\core/tcp.c ****  * Creates a new TCP protocol control block but doesn't place it on
1649:Source\LwIP\src\core/tcp.c ****  * any of the TCP PCB lists.
1650:Source\LwIP\src\core/tcp.c ****  * The pcb is not put on any list until binding using tcp_bind().
1651:Source\LwIP\src\core/tcp.c ****  *
1652:Source\LwIP\src\core/tcp.c ****  * @internal: Maybe there should be a idle TCP PCB list where these
1653:Source\LwIP\src\core/tcp.c ****  * PCBs are put on. Port reservation using tcp_bind() is implemented but
1654:Source\LwIP\src\core/tcp.c ****  * allocated pcbs that are not bound can't be killed automatically if wanting
1655:Source\LwIP\src\core/tcp.c ****  * to allocate a pcb with higher prio (@see tcp_kill_prio())
1656:Source\LwIP\src\core/tcp.c ****  *
1657:Source\LwIP\src\core/tcp.c ****  * @return a new tcp_pcb that initially is in state CLOSED
1658:Source\LwIP\src\core/tcp.c ****  */
1659:Source\LwIP\src\core/tcp.c **** struct tcp_pcb *
1660:Source\LwIP\src\core/tcp.c **** tcp_new(void)
1661:Source\LwIP\src\core/tcp.c **** {
1662:Source\LwIP\src\core/tcp.c ****   return tcp_alloc(TCP_PRIO_NORMAL);
1663:Source\LwIP\src\core/tcp.c **** }
1664:Source\LwIP\src\core/tcp.c **** 
1665:Source\LwIP\src\core/tcp.c **** /**
1666:Source\LwIP\src\core/tcp.c ****  * @ingroup tcp_raw
1667:Source\LwIP\src\core/tcp.c ****  * Creates a new TCP protocol control block but doesn't
1668:Source\LwIP\src\core/tcp.c ****  * place it on any of the TCP PCB lists.
1669:Source\LwIP\src\core/tcp.c ****  * The pcb is not put on any list until binding using tcp_bind().
1670:Source\LwIP\src\core/tcp.c ****  *
1671:Source\LwIP\src\core/tcp.c ****  * @param type IP address type, see @ref lwip_ip_addr_type definitions.
1672:Source\LwIP\src\core/tcp.c ****  * If you want to listen to IPv4 and IPv6 (dual-stack) connections,
1673:Source\LwIP\src\core/tcp.c ****  * supply @ref IPADDR_TYPE_ANY as argument and bind to @ref IP_ANY_TYPE.
1674:Source\LwIP\src\core/tcp.c ****  * @return a new tcp_pcb that initially is in state CLOSED
1675:Source\LwIP\src\core/tcp.c ****  */
1676:Source\LwIP\src\core/tcp.c **** struct tcp_pcb *
ARM GAS  C:\Users\Phuong\AppData\Local\Temp\cczg95Bp.s 			page 56


1677:Source\LwIP\src\core/tcp.c **** tcp_new_ip_type(u8_t type)
1678:Source\LwIP\src\core/tcp.c **** {
1679:Source\LwIP\src\core/tcp.c ****   struct tcp_pcb * pcb;
1680:Source\LwIP\src\core/tcp.c ****   pcb = tcp_alloc(TCP_PRIO_NORMAL);
1681:Source\LwIP\src\core/tcp.c **** #if LWIP_IPV4 && LWIP_IPV6
1682:Source\LwIP\src\core/tcp.c ****   if (pcb != NULL) {
1683:Source\LwIP\src\core/tcp.c ****     IP_SET_TYPE_VAL(pcb->local_ip, type);
1684:Source\LwIP\src\core/tcp.c ****     IP_SET_TYPE_VAL(pcb->remote_ip, type);
1685:Source\LwIP\src\core/tcp.c ****   }
1686:Source\LwIP\src\core/tcp.c **** #else
1687:Source\LwIP\src\core/tcp.c ****   LWIP_UNUSED_ARG(type);
1688:Source\LwIP\src\core/tcp.c **** #endif /* LWIP_IPV4 && LWIP_IPV6 */
1689:Source\LwIP\src\core/tcp.c ****   return pcb;
1690:Source\LwIP\src\core/tcp.c **** }
1691:Source\LwIP\src\core/tcp.c **** 
1692:Source\LwIP\src\core/tcp.c **** /**
1693:Source\LwIP\src\core/tcp.c ****  * @ingroup tcp_raw
1694:Source\LwIP\src\core/tcp.c ****  * Used to specify the argument that should be passed callback
1695:Source\LwIP\src\core/tcp.c ****  * functions.
1696:Source\LwIP\src\core/tcp.c ****  *
1697:Source\LwIP\src\core/tcp.c ****  * @param pcb tcp_pcb to set the callback argument
1698:Source\LwIP\src\core/tcp.c ****  * @param arg void pointer argument to pass to callback functions
1699:Source\LwIP\src\core/tcp.c ****  */
1700:Source\LwIP\src\core/tcp.c **** void
1701:Source\LwIP\src\core/tcp.c **** tcp_arg(struct tcp_pcb *pcb, void *arg)
1702:Source\LwIP\src\core/tcp.c **** {
 1294              		.loc 1 1702 0
 1295              		.cfi_startproc
 1296              		@ args = 0, pretend = 0, frame = 0
 1297              		@ frame_needed = 0, uses_anonymous_args = 0
 1298              		@ link register save eliminated.
 1299              	.LVL136:
1703:Source\LwIP\src\core/tcp.c ****   /* This function is allowed to be called for both listen pcbs and
1704:Source\LwIP\src\core/tcp.c ****      connection pcbs. */
1705:Source\LwIP\src\core/tcp.c ****   if (pcb != NULL) {
 1300              		.loc 1 1705 0
 1301 0000 0028     		cmp	r0, #0
 1302 0002 00D0     		beq	.L123
1706:Source\LwIP\src\core/tcp.c ****     pcb->callback_arg = arg;
 1303              		.loc 1 1706 0
 1304 0004 0161     		str	r1, [r0, #16]
 1305              	.L123:
1707:Source\LwIP\src\core/tcp.c ****   }
1708:Source\LwIP\src\core/tcp.c **** }
 1306              		.loc 1 1708 0
 1307              		@ sp needed
 1308 0006 7047     		bx	lr
 1309              		.cfi_endproc
 1310              	.LFE88:
 1311              		.size	tcp_arg, .-tcp_arg
 1312              		.section	.text.tcp_recv,"ax",%progbits
 1313              		.align	2
 1314              		.global	tcp_recv
 1315              		.code	16
 1316              		.thumb_func
 1317              		.type	tcp_recv, %function
 1318              	tcp_recv:
ARM GAS  C:\Users\Phuong\AppData\Local\Temp\cczg95Bp.s 			page 57


 1319              	.LFB89:
1709:Source\LwIP\src\core/tcp.c **** #if LWIP_CALLBACK_API
1710:Source\LwIP\src\core/tcp.c **** 
1711:Source\LwIP\src\core/tcp.c **** /**
1712:Source\LwIP\src\core/tcp.c ****  * @ingroup tcp_raw
1713:Source\LwIP\src\core/tcp.c ****  * Used to specify the function that should be called when a TCP
1714:Source\LwIP\src\core/tcp.c ****  * connection receives data.
1715:Source\LwIP\src\core/tcp.c ****  *
1716:Source\LwIP\src\core/tcp.c ****  * @param pcb tcp_pcb to set the recv callback
1717:Source\LwIP\src\core/tcp.c ****  * @param recv callback function to call for this pcb when data is received
1718:Source\LwIP\src\core/tcp.c ****  */
1719:Source\LwIP\src\core/tcp.c **** void
1720:Source\LwIP\src\core/tcp.c **** tcp_recv(struct tcp_pcb *pcb, tcp_recv_fn recv)
1721:Source\LwIP\src\core/tcp.c **** {
 1320              		.loc 1 1721 0
 1321              		.cfi_startproc
 1322              		@ args = 0, pretend = 0, frame = 0
 1323              		@ frame_needed = 0, uses_anonymous_args = 0
 1324              		@ link register save eliminated.
 1325              	.LVL137:
1722:Source\LwIP\src\core/tcp.c ****   if (pcb != NULL) {
 1326              		.loc 1 1722 0
 1327 0000 0028     		cmp	r0, #0
 1328 0002 01D0     		beq	.L125
1723:Source\LwIP\src\core/tcp.c ****     LWIP_ASSERT("invalid socket state for recv callback", pcb->state != LISTEN);
1724:Source\LwIP\src\core/tcp.c ****     pcb->recv = recv;
 1329              		.loc 1 1724 0
 1330 0004 8023     		movs	r3, #128
 1331 0006 C150     		str	r1, [r0, r3]
 1332              	.L125:
1725:Source\LwIP\src\core/tcp.c ****   }
1726:Source\LwIP\src\core/tcp.c **** }
 1333              		.loc 1 1726 0
 1334              		@ sp needed
 1335 0008 7047     		bx	lr
 1336              		.cfi_endproc
 1337              	.LFE89:
 1338              		.size	tcp_recv, .-tcp_recv
 1339 000a C046     		.section	.text.tcp_sent,"ax",%progbits
 1340              		.align	2
 1341              		.global	tcp_sent
 1342              		.code	16
 1343              		.thumb_func
 1344              		.type	tcp_sent, %function
 1345              	tcp_sent:
 1346              	.LFB90:
1727:Source\LwIP\src\core/tcp.c **** 
1728:Source\LwIP\src\core/tcp.c **** /**
1729:Source\LwIP\src\core/tcp.c ****  * @ingroup tcp_raw
1730:Source\LwIP\src\core/tcp.c ****  * Used to specify the function that should be called when TCP data
1731:Source\LwIP\src\core/tcp.c ****  * has been successfully delivered to the remote host.
1732:Source\LwIP\src\core/tcp.c ****  *
1733:Source\LwIP\src\core/tcp.c ****  * @param pcb tcp_pcb to set the sent callback
1734:Source\LwIP\src\core/tcp.c ****  * @param sent callback function to call for this pcb when data is successfully sent
1735:Source\LwIP\src\core/tcp.c ****  */
1736:Source\LwIP\src\core/tcp.c **** void
1737:Source\LwIP\src\core/tcp.c **** tcp_sent(struct tcp_pcb *pcb, tcp_sent_fn sent)
ARM GAS  C:\Users\Phuong\AppData\Local\Temp\cczg95Bp.s 			page 58


1738:Source\LwIP\src\core/tcp.c **** {
 1347              		.loc 1 1738 0
 1348              		.cfi_startproc
 1349              		@ args = 0, pretend = 0, frame = 0
 1350              		@ frame_needed = 0, uses_anonymous_args = 0
 1351              		@ link register save eliminated.
 1352              	.LVL138:
1739:Source\LwIP\src\core/tcp.c ****   if (pcb != NULL) {
 1353              		.loc 1 1739 0
 1354 0000 0028     		cmp	r0, #0
 1355 0002 00D0     		beq	.L127
1740:Source\LwIP\src\core/tcp.c ****     LWIP_ASSERT("invalid socket state for sent callback", pcb->state != LISTEN);
1741:Source\LwIP\src\core/tcp.c ****     pcb->sent = sent;
 1356              		.loc 1 1741 0
 1357 0004 C167     		str	r1, [r0, #124]
 1358              	.L127:
1742:Source\LwIP\src\core/tcp.c ****   }
1743:Source\LwIP\src\core/tcp.c **** }
 1359              		.loc 1 1743 0
 1360              		@ sp needed
 1361 0006 7047     		bx	lr
 1362              		.cfi_endproc
 1363              	.LFE90:
 1364              		.size	tcp_sent, .-tcp_sent
 1365              		.section	.text.tcp_err,"ax",%progbits
 1366              		.align	2
 1367              		.global	tcp_err
 1368              		.code	16
 1369              		.thumb_func
 1370              		.type	tcp_err, %function
 1371              	tcp_err:
 1372              	.LFB91:
1744:Source\LwIP\src\core/tcp.c **** 
1745:Source\LwIP\src\core/tcp.c **** /**
1746:Source\LwIP\src\core/tcp.c ****  * @ingroup tcp_raw
1747:Source\LwIP\src\core/tcp.c ****  * Used to specify the function that should be called when a fatal error
1748:Source\LwIP\src\core/tcp.c ****  * has occurred on the connection.
1749:Source\LwIP\src\core/tcp.c ****  *
1750:Source\LwIP\src\core/tcp.c ****  * @note The corresponding pcb is already freed when this callback is called!
1751:Source\LwIP\src\core/tcp.c ****  * 
1752:Source\LwIP\src\core/tcp.c ****  * @param pcb tcp_pcb to set the err callback
1753:Source\LwIP\src\core/tcp.c ****  * @param err callback function to call for this pcb when a fatal error
1754:Source\LwIP\src\core/tcp.c ****  *        has occurred on the connection
1755:Source\LwIP\src\core/tcp.c ****  */
1756:Source\LwIP\src\core/tcp.c **** void
1757:Source\LwIP\src\core/tcp.c **** tcp_err(struct tcp_pcb *pcb, tcp_err_fn err)
1758:Source\LwIP\src\core/tcp.c **** {
 1373              		.loc 1 1758 0
 1374              		.cfi_startproc
 1375              		@ args = 0, pretend = 0, frame = 0
 1376              		@ frame_needed = 0, uses_anonymous_args = 0
 1377              		@ link register save eliminated.
 1378              	.LVL139:
1759:Source\LwIP\src\core/tcp.c ****   if (pcb != NULL) {
 1379              		.loc 1 1759 0
 1380 0000 0028     		cmp	r0, #0
 1381 0002 01D0     		beq	.L129
ARM GAS  C:\Users\Phuong\AppData\Local\Temp\cczg95Bp.s 			page 59


1760:Source\LwIP\src\core/tcp.c ****     LWIP_ASSERT("invalid socket state for err callback", pcb->state != LISTEN);
1761:Source\LwIP\src\core/tcp.c ****     pcb->errf = err;
 1382              		.loc 1 1761 0
 1383 0004 8C23     		movs	r3, #140
 1384 0006 C150     		str	r1, [r0, r3]
 1385              	.L129:
1762:Source\LwIP\src\core/tcp.c ****   }
1763:Source\LwIP\src\core/tcp.c **** }
 1386              		.loc 1 1763 0
 1387              		@ sp needed
 1388 0008 7047     		bx	lr
 1389              		.cfi_endproc
 1390              	.LFE91:
 1391              		.size	tcp_err, .-tcp_err
 1392 000a C046     		.section	.text.tcp_accept,"ax",%progbits
 1393              		.align	2
 1394              		.global	tcp_accept
 1395              		.code	16
 1396              		.thumb_func
 1397              		.type	tcp_accept, %function
 1398              	tcp_accept:
 1399              	.LFB92:
1764:Source\LwIP\src\core/tcp.c **** 
1765:Source\LwIP\src\core/tcp.c **** /**
1766:Source\LwIP\src\core/tcp.c ****  * @ingroup tcp_raw
1767:Source\LwIP\src\core/tcp.c ****  * Used for specifying the function that should be called when a
1768:Source\LwIP\src\core/tcp.c ****  * LISTENing connection has been connected to another host.
1769:Source\LwIP\src\core/tcp.c ****  *
1770:Source\LwIP\src\core/tcp.c ****  * @param pcb tcp_pcb to set the accept callback
1771:Source\LwIP\src\core/tcp.c ****  * @param accept callback function to call for this pcb when LISTENing
1772:Source\LwIP\src\core/tcp.c ****  *        connection has been connected to another host
1773:Source\LwIP\src\core/tcp.c ****  */
1774:Source\LwIP\src\core/tcp.c **** void
1775:Source\LwIP\src\core/tcp.c **** tcp_accept(struct tcp_pcb *pcb, tcp_accept_fn accept)
1776:Source\LwIP\src\core/tcp.c **** {
 1400              		.loc 1 1776 0
 1401              		.cfi_startproc
 1402              		@ args = 0, pretend = 0, frame = 0
 1403              		@ frame_needed = 0, uses_anonymous_args = 0
 1404              		@ link register save eliminated.
 1405              	.LVL140:
1777:Source\LwIP\src\core/tcp.c ****   if ((pcb != NULL) && (pcb->state == LISTEN)) {
 1406              		.loc 1 1777 0
 1407 0000 0028     		cmp	r0, #0
 1408 0002 03D0     		beq	.L131
 1409              		.loc 1 1777 0 is_stmt 0 discriminator 1
 1410 0004 037D     		ldrb	r3, [r0, #20]
 1411 0006 012B     		cmp	r3, #1
 1412 0008 00D1     		bne	.L131
 1413              	.LVL141:
 1414              	.LBB5:
1778:Source\LwIP\src\core/tcp.c ****     struct tcp_pcb_listen *lpcb = (struct tcp_pcb_listen*)pcb;
1779:Source\LwIP\src\core/tcp.c ****     lpcb->accept = accept;
 1415              		.loc 1 1779 0 is_stmt 1
 1416 000a 8161     		str	r1, [r0, #24]
 1417              	.LVL142:
 1418              	.L131:
ARM GAS  C:\Users\Phuong\AppData\Local\Temp\cczg95Bp.s 			page 60


 1419              	.LBE5:
1780:Source\LwIP\src\core/tcp.c ****   }
1781:Source\LwIP\src\core/tcp.c **** }
 1420              		.loc 1 1781 0
 1421              		@ sp needed
 1422 000c 7047     		bx	lr
 1423              		.cfi_endproc
 1424              	.LFE92:
 1425              		.size	tcp_accept, .-tcp_accept
 1426 000e C046     		.section	.text.tcp_poll,"ax",%progbits
 1427              		.align	2
 1428              		.global	tcp_poll
 1429              		.code	16
 1430              		.thumb_func
 1431              		.type	tcp_poll, %function
 1432              	tcp_poll:
 1433              	.LFB93:
1782:Source\LwIP\src\core/tcp.c **** #endif /* LWIP_CALLBACK_API */
1783:Source\LwIP\src\core/tcp.c **** 
1784:Source\LwIP\src\core/tcp.c **** 
1785:Source\LwIP\src\core/tcp.c **** /**
1786:Source\LwIP\src\core/tcp.c ****  * @ingroup tcp_raw
1787:Source\LwIP\src\core/tcp.c ****  * Used to specify the function that should be called periodically
1788:Source\LwIP\src\core/tcp.c ****  * from TCP. The interval is specified in terms of the TCP coarse
1789:Source\LwIP\src\core/tcp.c ****  * timer interval, which is called twice a second.
1790:Source\LwIP\src\core/tcp.c ****  *
1791:Source\LwIP\src\core/tcp.c ****  */
1792:Source\LwIP\src\core/tcp.c **** void
1793:Source\LwIP\src\core/tcp.c **** tcp_poll(struct tcp_pcb *pcb, tcp_poll_fn poll, u8_t interval)
1794:Source\LwIP\src\core/tcp.c **** {
 1434              		.loc 1 1794 0
 1435              		.cfi_startproc
 1436              		@ args = 0, pretend = 0, frame = 0
 1437              		@ frame_needed = 0, uses_anonymous_args = 0
 1438              		@ link register save eliminated.
 1439              	.LVL143:
1795:Source\LwIP\src\core/tcp.c ****   LWIP_ASSERT("invalid socket state for poll", pcb->state != LISTEN);
1796:Source\LwIP\src\core/tcp.c **** #if LWIP_CALLBACK_API
1797:Source\LwIP\src\core/tcp.c ****   pcb->poll = poll;
 1440              		.loc 1 1797 0
 1441 0000 8823     		movs	r3, #136
 1442 0002 C150     		str	r1, [r0, r3]
1798:Source\LwIP\src\core/tcp.c **** #else /* LWIP_CALLBACK_API */
1799:Source\LwIP\src\core/tcp.c ****   LWIP_UNUSED_ARG(poll);
1800:Source\LwIP\src\core/tcp.c **** #endif /* LWIP_CALLBACK_API */
1801:Source\LwIP\src\core/tcp.c ****   pcb->pollinterval = interval;
 1443              		.loc 1 1801 0
 1444 0004 4277     		strb	r2, [r0, #29]
1802:Source\LwIP\src\core/tcp.c **** }
 1445              		.loc 1 1802 0
 1446              		@ sp needed
 1447 0006 7047     		bx	lr
 1448              		.cfi_endproc
 1449              	.LFE93:
 1450              		.size	tcp_poll, .-tcp_poll
 1451              		.section	.text.tcp_pcb_purge,"ax",%progbits
 1452              		.align	2
ARM GAS  C:\Users\Phuong\AppData\Local\Temp\cczg95Bp.s 			page 61


 1453              		.global	tcp_pcb_purge
 1454              		.code	16
 1455              		.thumb_func
 1456              		.type	tcp_pcb_purge, %function
 1457              	tcp_pcb_purge:
 1458              	.LFB94:
1803:Source\LwIP\src\core/tcp.c **** 
1804:Source\LwIP\src\core/tcp.c **** /**
1805:Source\LwIP\src\core/tcp.c ****  * Purges a TCP PCB. Removes any buffered data and frees the buffer memory
1806:Source\LwIP\src\core/tcp.c ****  * (pcb->ooseq, pcb->unsent and pcb->unacked are freed).
1807:Source\LwIP\src\core/tcp.c ****  *
1808:Source\LwIP\src\core/tcp.c ****  * @param pcb tcp_pcb to purge. The pcb itself is not deallocated!
1809:Source\LwIP\src\core/tcp.c ****  */
1810:Source\LwIP\src\core/tcp.c **** void
1811:Source\LwIP\src\core/tcp.c **** tcp_pcb_purge(struct tcp_pcb *pcb)
1812:Source\LwIP\src\core/tcp.c **** {
 1459              		.loc 1 1812 0
 1460              		.cfi_startproc
 1461              		@ args = 0, pretend = 0, frame = 0
 1462              		@ frame_needed = 0, uses_anonymous_args = 0
 1463              	.LVL144:
 1464 0000 70B5     		push	{r4, r5, r6, lr}
 1465              		.cfi_def_cfa_offset 16
 1466              		.cfi_offset 4, -16
 1467              		.cfi_offset 5, -12
 1468              		.cfi_offset 6, -8
 1469              		.cfi_offset 14, -4
 1470 0002 0400     		movs	r4, r0
1813:Source\LwIP\src\core/tcp.c ****   if (pcb->state != CLOSED &&
 1471              		.loc 1 1813 0
 1472 0004 037D     		ldrb	r3, [r0, #20]
 1473 0006 002B     		cmp	r3, #0
 1474 0008 1ED0     		beq	.L134
 1475              		.loc 1 1813 0 is_stmt 0 discriminator 1
 1476 000a 0A2B     		cmp	r3, #10
 1477 000c 1CD0     		beq	.L134
1814:Source\LwIP\src\core/tcp.c ****      pcb->state != TIME_WAIT &&
 1478              		.loc 1 1814 0 is_stmt 1
 1479 000e 012B     		cmp	r3, #1
 1480 0010 1AD0     		beq	.L134
1815:Source\LwIP\src\core/tcp.c ****      pcb->state != LISTEN) {
1816:Source\LwIP\src\core/tcp.c **** 
1817:Source\LwIP\src\core/tcp.c ****     LWIP_DEBUGF(TCP_DEBUG, ("tcp_pcb_purge\n"));
1818:Source\LwIP\src\core/tcp.c **** 
1819:Source\LwIP\src\core/tcp.c ****     tcp_backlog_accepted(pcb);
 1481              		.loc 1 1819 0
 1482 0012 FFF7FEFF 		bl	tcp_backlog_accepted
 1483              	.LVL145:
1820:Source\LwIP\src\core/tcp.c **** 
1821:Source\LwIP\src\core/tcp.c ****     if (pcb->refused_data != NULL) {
 1484              		.loc 1 1821 0
 1485 0016 606F     		ldr	r0, [r4, #116]
 1486 0018 0028     		cmp	r0, #0
 1487 001a 03D0     		beq	.L136
1822:Source\LwIP\src\core/tcp.c ****       LWIP_DEBUGF(TCP_DEBUG, ("tcp_pcb_purge: data left on ->refused_data\n"));
1823:Source\LwIP\src\core/tcp.c ****       pbuf_free(pcb->refused_data);
 1488              		.loc 1 1823 0
ARM GAS  C:\Users\Phuong\AppData\Local\Temp\cczg95Bp.s 			page 62


 1489 001c FFF7FEFF 		bl	pbuf_free
 1490              	.LVL146:
1824:Source\LwIP\src\core/tcp.c ****       pcb->refused_data = NULL;
 1491              		.loc 1 1824 0
 1492 0020 0023     		movs	r3, #0
 1493 0022 6367     		str	r3, [r4, #116]
 1494              	.L136:
1825:Source\LwIP\src\core/tcp.c ****     }
1826:Source\LwIP\src\core/tcp.c ****     if (pcb->unsent != NULL) {
1827:Source\LwIP\src\core/tcp.c ****       LWIP_DEBUGF(TCP_DEBUG, ("tcp_pcb_purge: not all data sent\n"));
1828:Source\LwIP\src\core/tcp.c ****     }
1829:Source\LwIP\src\core/tcp.c ****     if (pcb->unacked != NULL) {
1830:Source\LwIP\src\core/tcp.c ****       LWIP_DEBUGF(TCP_DEBUG, ("tcp_pcb_purge: data left on ->unacked\n"));
1831:Source\LwIP\src\core/tcp.c ****     }
1832:Source\LwIP\src\core/tcp.c **** #if TCP_QUEUE_OOSEQ
1833:Source\LwIP\src\core/tcp.c ****     if (pcb->ooseq != NULL) {
1834:Source\LwIP\src\core/tcp.c ****       LWIP_DEBUGF(TCP_DEBUG, ("tcp_pcb_purge: data left on ->ooseq\n"));
1835:Source\LwIP\src\core/tcp.c ****     }
1836:Source\LwIP\src\core/tcp.c ****     tcp_segs_free(pcb->ooseq);
 1495              		.loc 1 1836 0
 1496 0024 206F     		ldr	r0, [r4, #112]
 1497 0026 FFF7FEFF 		bl	tcp_segs_free
 1498              	.LVL147:
1837:Source\LwIP\src\core/tcp.c ****     pcb->ooseq = NULL;
 1499              		.loc 1 1837 0
 1500 002a 0025     		movs	r5, #0
 1501 002c 2567     		str	r5, [r4, #112]
1838:Source\LwIP\src\core/tcp.c **** #endif /* TCP_QUEUE_OOSEQ */
1839:Source\LwIP\src\core/tcp.c **** 
1840:Source\LwIP\src\core/tcp.c ****     /* Stop the retransmission timer as it will expect data on unacked
1841:Source\LwIP\src\core/tcp.c ****        queue if it fires */
1842:Source\LwIP\src\core/tcp.c ****     pcb->rtime = -1;
 1502              		.loc 1 1842 0
 1503 002e 0123     		movs	r3, #1
 1504 0030 5B42     		rsbs	r3, r3, #0
 1505 0032 2386     		strh	r3, [r4, #48]
1843:Source\LwIP\src\core/tcp.c **** 
1844:Source\LwIP\src\core/tcp.c ****     tcp_segs_free(pcb->unsent);
 1506              		.loc 1 1844 0
 1507 0034 A06E     		ldr	r0, [r4, #104]
 1508 0036 FFF7FEFF 		bl	tcp_segs_free
 1509              	.LVL148:
1845:Source\LwIP\src\core/tcp.c ****     tcp_segs_free(pcb->unacked);
 1510              		.loc 1 1845 0
 1511 003a E06E     		ldr	r0, [r4, #108]
 1512 003c FFF7FEFF 		bl	tcp_segs_free
 1513              	.LVL149:
1846:Source\LwIP\src\core/tcp.c ****     pcb->unacked = pcb->unsent = NULL;
 1514              		.loc 1 1846 0
 1515 0040 A566     		str	r5, [r4, #104]
 1516 0042 E566     		str	r5, [r4, #108]
1847:Source\LwIP\src\core/tcp.c **** #if TCP_OVERSIZE
1848:Source\LwIP\src\core/tcp.c ****     pcb->unsent_oversize = 0;
 1517              		.loc 1 1848 0
 1518 0044 6423     		movs	r3, #100
 1519 0046 E552     		strh	r5, [r4, r3]
 1520              	.L134:
ARM GAS  C:\Users\Phuong\AppData\Local\Temp\cczg95Bp.s 			page 63


1849:Source\LwIP\src\core/tcp.c **** #endif /* TCP_OVERSIZE */
1850:Source\LwIP\src\core/tcp.c ****   }
1851:Source\LwIP\src\core/tcp.c **** }
 1521              		.loc 1 1851 0
 1522              		@ sp needed
 1523              	.LVL150:
 1524 0048 70BD     		pop	{r4, r5, r6, pc}
 1525              		.cfi_endproc
 1526              	.LFE94:
 1527              		.size	tcp_pcb_purge, .-tcp_pcb_purge
 1528              		.global	__aeabi_uidiv
 1529 004a C046     		.section	.text.tcp_slowtmr,"ax",%progbits
 1530              		.align	2
 1531              		.global	tcp_slowtmr
 1532              		.code	16
 1533              		.thumb_func
 1534              		.type	tcp_slowtmr, %function
 1535              	tcp_slowtmr:
 1536              	.LFB73:
 987:Source\LwIP\src\core/tcp.c ****   struct tcp_pcb *pcb, *prev;
 1537              		.loc 1 987 0
 1538              		.cfi_startproc
 1539              		@ args = 0, pretend = 0, frame = 0
 1540              		@ frame_needed = 0, uses_anonymous_args = 0
 1541 0000 F0B5     		push	{r4, r5, r6, r7, lr}
 1542              		.cfi_def_cfa_offset 20
 1543              		.cfi_offset 4, -20
 1544              		.cfi_offset 5, -16
 1545              		.cfi_offset 6, -12
 1546              		.cfi_offset 7, -8
 1547              		.cfi_offset 14, -4
 1548 0002 4F46     		mov	r7, r9
 1549 0004 4646     		mov	r6, r8
 1550 0006 C0B4     		push	{r6, r7}
 1551              		.cfi_def_cfa_offset 28
 1552              		.cfi_offset 8, -28
 1553              		.cfi_offset 9, -24
 1554 0008 83B0     		sub	sp, sp, #12
 1555              		.cfi_def_cfa_offset 40
 1556              	.LVL151:
 996:Source\LwIP\src\core/tcp.c ****   ++tcp_timer_ctr;
 1557              		.loc 1 996 0
 1558 000a BE4A     		ldr	r2, .L188
 1559 000c 1368     		ldr	r3, [r2]
 1560 000e 0133     		adds	r3, r3, #1
 1561 0010 1360     		str	r3, [r2]
 997:Source\LwIP\src\core/tcp.c **** 
 1562              		.loc 1 997 0
 1563 0012 BD4A     		ldr	r2, .L188+4
 1564 0014 1378     		ldrb	r3, [r2]
 1565 0016 0133     		adds	r3, r3, #1
 1566 0018 1370     		strb	r3, [r2]
 1567              	.L139:
 1568              	.LVL152:
 1569              	.L138:
1002:Source\LwIP\src\core/tcp.c ****   if (pcb == NULL) {
 1570              		.loc 1 1002 0
ARM GAS  C:\Users\Phuong\AppData\Local\Temp\cczg95Bp.s 			page 64


 1571 001a BC4B     		ldr	r3, .L188+8
 1572 001c 1C68     		ldr	r4, [r3]
 1573              	.LVL153:
1001:Source\LwIP\src\core/tcp.c ****   pcb = tcp_active_pcbs;
 1574              		.loc 1 1001 0
 1575 001e 0026     		movs	r6, #0
 1576 0020 4CE1     		b	.L140
 1577              	.LVL154:
 1578              	.L165:
1011:Source\LwIP\src\core/tcp.c ****       /* skip this pcb, we have already processed it */
 1579              		.loc 1 1011 0
 1580 0022 A27F     		ldrb	r2, [r4, #30]
 1581 0024 B84B     		ldr	r3, .L188+4
 1582 0026 1B78     		ldrb	r3, [r3]
 1583 0028 9A42     		cmp	r2, r3
 1584 002a 01D1     		bne	.L141
1013:Source\LwIP\src\core/tcp.c ****       continue;
 1585              		.loc 1 1013 0
 1586 002c E468     		ldr	r4, [r4, #12]
 1587              	.LVL155:
1014:Source\LwIP\src\core/tcp.c ****     }
 1588              		.loc 1 1014 0
 1589 002e 45E1     		b	.L140
 1590              	.L141:
1016:Source\LwIP\src\core/tcp.c **** 
 1591              		.loc 1 1016 0
 1592 0030 A377     		strb	r3, [r4, #30]
 1593              	.LVL156:
1021:Source\LwIP\src\core/tcp.c ****       ++pcb_remove;
 1594              		.loc 1 1021 0
 1595 0032 237D     		ldrb	r3, [r4, #20]
 1596 0034 022B     		cmp	r3, #2
 1597 0036 03D1     		bne	.L143
1021:Source\LwIP\src\core/tcp.c ****       ++pcb_remove;
 1598              		.loc 1 1021 0 is_stmt 0 discriminator 1
 1599 0038 4222     		movs	r2, #66
 1600 003a A25C     		ldrb	r2, [r4, r2]
 1601 003c 052A     		cmp	r2, #5
 1602 003e 65D8     		bhi	.L173
 1603              	.L143:
1025:Source\LwIP\src\core/tcp.c ****       ++pcb_remove;
 1604              		.loc 1 1025 0 is_stmt 1
 1605 0040 4222     		movs	r2, #66
 1606 0042 A15C     		ldrb	r1, [r4, r2]
 1607 0044 0B29     		cmp	r1, #11
 1608 0046 63D8     		bhi	.L174
1029:Source\LwIP\src\core/tcp.c ****         /* If snd_wnd is zero, use persist timer to send 1 byte probes
 1609              		.loc 1 1029 0
 1610 0048 5B32     		adds	r2, r2, #91
 1611 004a A25C     		ldrb	r2, [r4, r2]
 1612 004c 002A     		cmp	r2, #0
 1613 004e 1FD0     		beq	.L145
 1614              	.LBB6:
1032:Source\LwIP\src\core/tcp.c ****         if (pcb->persist_cnt < backoff_cnt) {
 1615              		.loc 1 1032 0
 1616 0050 013A     		subs	r2, r2, #1
 1617 0052 AF4B     		ldr	r3, .L188+12
ARM GAS  C:\Users\Phuong\AppData\Local\Temp\cczg95Bp.s 			page 65


 1618 0054 9A18     		adds	r2, r3, r2
 1619 0056 127C     		ldrb	r2, [r2, #16]
 1620              	.LVL157:
1033:Source\LwIP\src\core/tcp.c ****           pcb->persist_cnt++;
 1621              		.loc 1 1033 0
 1622 0058 9C23     		movs	r3, #156
 1623 005a E35C     		ldrb	r3, [r4, r3]
 1624 005c 9A42     		cmp	r2, r3
 1625 005e 02D9     		bls	.L146
1034:Source\LwIP\src\core/tcp.c ****         }
 1626              		.loc 1 1034 0
 1627 0060 0133     		adds	r3, r3, #1
 1628 0062 9C21     		movs	r1, #156
 1629 0064 6354     		strb	r3, [r4, r1]
 1630              	.L146:
1036:Source\LwIP\src\core/tcp.c ****           if (tcp_zero_window_probe(pcb) == ERR_OK) {
 1631              		.loc 1 1036 0
 1632 0066 9C23     		movs	r3, #156
 1633 0068 E35C     		ldrb	r3, [r4, r3]
 1634 006a 9A42     		cmp	r2, r3
 1635 006c 52D8     		bhi	.L175
1037:Source\LwIP\src\core/tcp.c ****             pcb->persist_cnt = 0;
 1636              		.loc 1 1037 0
 1637 006e 2000     		movs	r0, r4
 1638 0070 FFF7FEFF 		bl	tcp_zero_window_probe
 1639              	.LVL158:
 1640 0074 0028     		cmp	r0, #0
 1641 0076 4FD1     		bne	.L176
1038:Source\LwIP\src\core/tcp.c ****             if (pcb->persist_backoff < sizeof(tcp_persist_backoff)) {
 1642              		.loc 1 1038 0
 1643 0078 0022     		movs	r2, #0
 1644 007a 9C23     		movs	r3, #156
 1645 007c E254     		strb	r2, [r4, r3]
1039:Source\LwIP\src\core/tcp.c ****               pcb->persist_backoff++;
 1646              		.loc 1 1039 0
 1647 007e 0133     		adds	r3, r3, #1
 1648 0080 E35C     		ldrb	r3, [r4, r3]
 1649 0082 062B     		cmp	r3, #6
 1650 0084 4AD8     		bhi	.L177
1040:Source\LwIP\src\core/tcp.c ****             }
 1651              		.loc 1 1040 0
 1652 0086 0133     		adds	r3, r3, #1
 1653 0088 9D32     		adds	r2, r2, #157
 1654 008a A354     		strb	r3, [r4, r2]
 1655              	.LBE6:
1018:Source\LwIP\src\core/tcp.c ****     pcb_reset = 0;
 1656              		.loc 1 1018 0
 1657 008c 0025     		movs	r5, #0
 1658 008e 4AE0     		b	.L144
 1659              	.L145:
1046:Source\LwIP\src\core/tcp.c ****           ++pcb->rtime;
 1660              		.loc 1 1046 0
 1661 0090 3020     		movs	r0, #48
 1662 0092 225E     		ldrsh	r2, [r4, r0]
 1663 0094 002A     		cmp	r2, #0
 1664 0096 01DB     		blt	.L147
1047:Source\LwIP\src\core/tcp.c ****         }
ARM GAS  C:\Users\Phuong\AppData\Local\Temp\cczg95Bp.s 			page 66


 1665              		.loc 1 1047 0
 1666 0098 0132     		adds	r2, r2, #1
 1667 009a 2286     		strh	r2, [r4, #48]
 1668              	.L147:
1050:Source\LwIP\src\core/tcp.c ****           /* Time for a retransmission. */
 1669              		.loc 1 1050 0
 1670 009c E26E     		ldr	r2, [r4, #108]
 1671 009e 002A     		cmp	r2, #0
 1672 00a0 3ED0     		beq	.L178
1050:Source\LwIP\src\core/tcp.c ****           /* Time for a retransmission. */
 1673              		.loc 1 1050 0 is_stmt 0 discriminator 1
 1674 00a2 3022     		movs	r2, #48
 1675 00a4 A05E     		ldrsh	r0, [r4, r2]
 1676 00a6 4022     		movs	r2, #64
 1677 00a8 A25E     		ldrsh	r2, [r4, r2]
 1678 00aa 9042     		cmp	r0, r2
 1679 00ac 3ADB     		blt	.L179
1058:Source\LwIP\src\core/tcp.c ****             u8_t backoff_idx = LWIP_MIN(pcb->nrtx, sizeof(tcp_backoff)-1);
 1680              		.loc 1 1058 0 is_stmt 1
 1681 00ae 022B     		cmp	r3, #2
 1682 00b0 10D0     		beq	.L148
 1683              	.LBB7:
1059:Source\LwIP\src\core/tcp.c ****             pcb->rto = ((pcb->sa >> 3) + pcb->sv) << tcp_backoff[backoff_idx];
 1684              		.loc 1 1059 0
 1685 00b2 0B1C     		adds	r3, r1, #0
 1686 00b4 0C29     		cmp	r1, #12
 1687 00b6 00D9     		bls	.L149
 1688 00b8 0C23     		movs	r3, #12
 1689              	.L149:
 1690 00ba DAB2     		uxtb	r2, r3
 1691              	.LVL159:
1060:Source\LwIP\src\core/tcp.c ****           }
 1692              		.loc 1 1060 0
 1693 00bc 3C21     		movs	r1, #60
 1694 00be 635E     		ldrsh	r3, [r4, r1]
 1695              	.LVL160:
 1696 00c0 DB10     		asrs	r3, r3, #3
 1697 00c2 3E20     		movs	r0, #62
 1698 00c4 215E     		ldrsh	r1, [r4, r0]
 1699 00c6 CB18     		adds	r3, r1, r3
 1700 00c8 9149     		ldr	r1, .L188+12
 1701 00ca 8A18     		adds	r2, r1, r2
 1702              	.LVL161:
 1703 00cc 127E     		ldrb	r2, [r2, #24]
 1704 00ce 9340     		lsls	r3, r3, r2
 1705 00d0 4022     		movs	r2, #64
 1706 00d2 A352     		strh	r3, [r4, r2]
 1707              	.L148:
 1708              	.LBE7:
1064:Source\LwIP\src\core/tcp.c **** 
 1709              		.loc 1 1064 0
 1710 00d4 0023     		movs	r3, #0
 1711 00d6 2386     		strh	r3, [r4, #48]
1067:Source\LwIP\src\core/tcp.c ****           pcb->ssthresh = eff_wnd >> 1;
 1712              		.loc 1 1067 0
 1713 00d8 5C33     		adds	r3, r3, #92
 1714 00da E25A     		ldrh	r2, [r4, r3]
ARM GAS  C:\Users\Phuong\AppData\Local\Temp\cczg95Bp.s 			page 67


 1715 00dc 143B     		subs	r3, r3, #20
 1716 00de E15A     		ldrh	r1, [r4, r3]
 1717 00e0 131C     		adds	r3, r2, #0
 1718 00e2 8A42     		cmp	r2, r1
 1719 00e4 00D9     		bls	.L150
 1720 00e6 0B1C     		adds	r3, r1, #0
 1721              	.L150:
 1722 00e8 9BB2     		uxth	r3, r3
 1723              	.LVL162:
1068:Source\LwIP\src\core/tcp.c ****           if (pcb->ssthresh < (tcpwnd_size_t)(pcb->mss << 1)) {
 1724              		.loc 1 1068 0
 1725 00ea 5B08     		lsrs	r3, r3, #1
 1726              	.LVL163:
 1727 00ec 4A22     		movs	r2, #74
 1728 00ee A352     		strh	r3, [r4, r2]
1069:Source\LwIP\src\core/tcp.c ****             pcb->ssthresh = (pcb->mss << 1);
 1729              		.loc 1 1069 0
 1730 00f0 618E     		ldrh	r1, [r4, #50]
 1731 00f2 4A00     		lsls	r2, r1, #1
 1732 00f4 92B2     		uxth	r2, r2
 1733 00f6 9342     		cmp	r3, r2
 1734 00f8 01D2     		bcs	.L151
1070:Source\LwIP\src\core/tcp.c ****           }
 1735              		.loc 1 1070 0
 1736 00fa 4A23     		movs	r3, #74
 1737 00fc E252     		strh	r2, [r4, r3]
 1738              	.L151:
1072:Source\LwIP\src\core/tcp.c ****           LWIP_DEBUGF(TCP_CWND_DEBUG, ("tcp_slowtmr: cwnd %"TCPWNDSIZE_F
 1739              		.loc 1 1072 0
 1740 00fe 4823     		movs	r3, #72
 1741 0100 E152     		strh	r1, [r4, r3]
1079:Source\LwIP\src\core/tcp.c ****         }
 1742              		.loc 1 1079 0
 1743 0102 2000     		movs	r0, r4
 1744 0104 FFF7FEFF 		bl	tcp_rexmit_rto
 1745              	.LVL164:
1018:Source\LwIP\src\core/tcp.c ****     pcb_reset = 0;
 1746              		.loc 1 1018 0
 1747 0108 0025     		movs	r5, #0
 1748 010a 0CE0     		b	.L144
 1749              	.L173:
1022:Source\LwIP\src\core/tcp.c ****       LWIP_DEBUGF(TCP_DEBUG, ("tcp_slowtmr: max SYN retries reached\n"));
 1750              		.loc 1 1022 0
 1751 010c 0125     		movs	r5, #1
 1752 010e 0AE0     		b	.L144
 1753              	.L174:
1026:Source\LwIP\src\core/tcp.c ****       LWIP_DEBUGF(TCP_DEBUG, ("tcp_slowtmr: max DATA retries reached\n"));
 1754              		.loc 1 1026 0
 1755 0110 0125     		movs	r5, #1
 1756 0112 08E0     		b	.L144
 1757              	.LVL165:
 1758              	.L175:
1018:Source\LwIP\src\core/tcp.c ****     pcb_reset = 0;
 1759              		.loc 1 1018 0
 1760 0114 0025     		movs	r5, #0
 1761 0116 06E0     		b	.L144
 1762              	.LVL166:
ARM GAS  C:\Users\Phuong\AppData\Local\Temp\cczg95Bp.s 			page 68


 1763              	.L176:
 1764 0118 0025     		movs	r5, #0
 1765 011a 04E0     		b	.L144
 1766              	.L177:
 1767 011c 0025     		movs	r5, #0
 1768 011e 02E0     		b	.L144
 1769              	.L178:
 1770 0120 0025     		movs	r5, #0
 1771 0122 00E0     		b	.L144
 1772              	.L179:
 1773 0124 0025     		movs	r5, #0
 1774              	.L144:
 1775              	.LVL167:
1084:Source\LwIP\src\core/tcp.c ****       /* If this PCB is in FIN_WAIT_2 because of SHUT_WR don't let it time out. */
 1776              		.loc 1 1084 0
 1777 0126 237D     		ldrb	r3, [r4, #20]
 1778 0128 062B     		cmp	r3, #6
 1779 012a 0AD1     		bne	.L152
1086:Source\LwIP\src\core/tcp.c ****         /* PCB was fully closed (either through close() or SHUT_RDWR):
 1780              		.loc 1 1086 0
 1781 012c 628B     		ldrh	r2, [r4, #26]
 1782 012e D206     		lsls	r2, r2, #27
 1783 0130 07D5     		bpl	.L152
1089:Source\LwIP\src\core/tcp.c ****             TCP_FIN_WAIT_TIMEOUT / TCP_SLOW_INTERVAL) {
 1784              		.loc 1 1089 0
 1785 0132 744A     		ldr	r2, .L188
 1786 0134 1268     		ldr	r2, [r2]
 1787 0136 216A     		ldr	r1, [r4, #32]
 1788 0138 521A     		subs	r2, r2, r1
 1789 013a 282A     		cmp	r2, #40
 1790 013c 01D9     		bls	.L152
1091:Source\LwIP\src\core/tcp.c ****           LWIP_DEBUGF(TCP_DEBUG, ("tcp_slowtmr: removing pcb stuck in FIN-WAIT-2\n"));
 1791              		.loc 1 1091 0
 1792 013e 0135     		adds	r5, r5, #1
 1793              	.LVL168:
 1794 0140 EDB2     		uxtb	r5, r5
 1795              	.LVL169:
 1796              	.L152:
1098:Source\LwIP\src\core/tcp.c ****        ((pcb->state == ESTABLISHED) ||
 1797              		.loc 1 1098 0
 1798 0142 227A     		ldrb	r2, [r4, #8]
 1799 0144 1207     		lsls	r2, r2, #28
 1800 0146 32D5     		bpl	.L180
1098:Source\LwIP\src\core/tcp.c ****        ((pcb->state == ESTABLISHED) ||
 1801              		.loc 1 1098 0 is_stmt 0 discriminator 1
 1802 0148 042B     		cmp	r3, #4
 1803 014a 01D0     		beq	.L154
1099:Source\LwIP\src\core/tcp.c ****         (pcb->state == CLOSE_WAIT))) {
 1804              		.loc 1 1099 0 is_stmt 1
 1805 014c 072B     		cmp	r3, #7
 1806 014e 30D1     		bne	.L181
 1807              	.L154:
1101:Source\LwIP\src\core/tcp.c ****          (pcb->keep_idle + TCP_KEEP_DUR(pcb)) / TCP_SLOW_INTERVAL)
 1808              		.loc 1 1101 0
 1809 0150 6C4B     		ldr	r3, .L188
 1810 0152 1F68     		ldr	r7, [r3]
 1811 0154 236A     		ldr	r3, [r4, #32]
ARM GAS  C:\Users\Phuong\AppData\Local\Temp\cczg95Bp.s 			page 69


 1812 0156 FF1A     		subs	r7, r7, r3
1102:Source\LwIP\src\core/tcp.c ****       {
 1813              		.loc 1 1102 0
 1814 0158 9023     		movs	r3, #144
 1815 015a E358     		ldr	r3, [r4, r3]
 1816 015c 9946     		mov	r9, r3
 1817 015e 9823     		movs	r3, #152
 1818 0160 E058     		ldr	r0, [r4, r3]
 1819 0162 043B     		subs	r3, r3, #4
 1820 0164 E358     		ldr	r3, [r4, r3]
 1821 0166 9846     		mov	r8, r3
 1822 0168 5843     		muls	r0, r3
 1823 016a 4844     		add	r0, r0, r9
 1824 016c FA21     		movs	r1, #250
 1825 016e 4900     		lsls	r1, r1, #1
 1826 0170 FFF7FEFF 		bl	__aeabi_uidiv
 1827              	.LVL170:
1101:Source\LwIP\src\core/tcp.c ****          (pcb->keep_idle + TCP_KEEP_DUR(pcb)) / TCP_SLOW_INTERVAL)
 1828              		.loc 1 1101 0
 1829 0174 8742     		cmp	r7, r0
 1830 0176 03D9     		bls	.L155
1108:Source\LwIP\src\core/tcp.c ****         ++pcb_reset;
 1831              		.loc 1 1108 0
 1832 0178 0135     		adds	r5, r5, #1
 1833              	.LVL171:
 1834 017a EDB2     		uxtb	r5, r5
 1835              	.LVL172:
1109:Source\LwIP\src\core/tcp.c ****       } else if ((u32_t)(tcp_ticks - pcb->tmr) >
 1836              		.loc 1 1109 0
 1837 017c 0127     		movs	r7, #1
 1838 017e 1DE0     		b	.L153
 1839              	.LVL173:
 1840              	.L155:
1111:Source\LwIP\src\core/tcp.c ****                 / TCP_SLOW_INTERVAL)
 1841              		.loc 1 1111 0
 1842 0180 9E23     		movs	r3, #158
 1843 0182 E05C     		ldrb	r0, [r4, r3]
 1844 0184 4346     		mov	r3, r8
 1845 0186 4343     		muls	r3, r0
 1846 0188 1800     		movs	r0, r3
 1847 018a 4844     		add	r0, r0, r9
1112:Source\LwIP\src\core/tcp.c ****       {
 1848              		.loc 1 1112 0
 1849 018c FA21     		movs	r1, #250
 1850 018e 4900     		lsls	r1, r1, #1
 1851 0190 FFF7FEFF 		bl	__aeabi_uidiv
 1852              	.LVL174:
1110:Source\LwIP\src\core/tcp.c ****                 (pcb->keep_idle + pcb->keep_cnt_sent * TCP_KEEP_INTVL(pcb))
 1853              		.loc 1 1110 0
 1854 0194 8742     		cmp	r7, r0
 1855 0196 0ED9     		bls	.L182
1114:Source\LwIP\src\core/tcp.c ****         if (err == ERR_OK) {
 1856              		.loc 1 1114 0
 1857 0198 2000     		movs	r0, r4
 1858 019a FFF7FEFF 		bl	tcp_keepalive
 1859              	.LVL175:
1115:Source\LwIP\src\core/tcp.c ****           pcb->keep_cnt_sent++;
ARM GAS  C:\Users\Phuong\AppData\Local\Temp\cczg95Bp.s 			page 70


 1860              		.loc 1 1115 0
 1861 019e 0028     		cmp	r0, #0
 1862 01a0 0BD1     		bne	.L183
1116:Source\LwIP\src\core/tcp.c ****         }
 1863              		.loc 1 1116 0
 1864 01a2 9E22     		movs	r2, #158
 1865 01a4 A35C     		ldrb	r3, [r4, r2]
 1866 01a6 0133     		adds	r3, r3, #1
 1867 01a8 A354     		strb	r3, [r4, r2]
1019:Source\LwIP\src\core/tcp.c **** 
 1868              		.loc 1 1019 0
 1869 01aa 0027     		movs	r7, #0
 1870 01ac 06E0     		b	.L153
 1871              	.LVL176:
 1872              	.L180:
 1873 01ae 0027     		movs	r7, #0
 1874 01b0 04E0     		b	.L153
 1875              	.L181:
 1876 01b2 0027     		movs	r7, #0
 1877 01b4 02E0     		b	.L153
 1878              	.L182:
 1879 01b6 0027     		movs	r7, #0
 1880 01b8 00E0     		b	.L153
 1881              	.LVL177:
 1882              	.L183:
 1883 01ba 0027     		movs	r7, #0
 1884              	.LVL178:
 1885              	.L153:
1125:Source\LwIP\src\core/tcp.c ****         (u32_t)tcp_ticks - pcb->tmr >= pcb->rto * TCP_OOSEQ_TIMEOUT) {
 1886              		.loc 1 1125 0
 1887 01bc 206F     		ldr	r0, [r4, #112]
 1888 01be 0028     		cmp	r0, #0
 1889 01c0 0ED0     		beq	.L156
1126:Source\LwIP\src\core/tcp.c ****       tcp_segs_free(pcb->ooseq);
 1890              		.loc 1 1126 0 discriminator 1
 1891 01c2 504B     		ldr	r3, .L188
 1892 01c4 1A68     		ldr	r2, [r3]
 1893 01c6 236A     		ldr	r3, [r4, #32]
 1894 01c8 D21A     		subs	r2, r2, r3
 1895 01ca 4023     		movs	r3, #64
 1896 01cc E35E     		ldrsh	r3, [r4, r3]
 1897 01ce 5900     		lsls	r1, r3, #1
 1898 01d0 CB18     		adds	r3, r1, r3
 1899 01d2 5900     		lsls	r1, r3, #1
1125:Source\LwIP\src\core/tcp.c ****         (u32_t)tcp_ticks - pcb->tmr >= pcb->rto * TCP_OOSEQ_TIMEOUT) {
 1900              		.loc 1 1125 0 discriminator 1
 1901 01d4 8A42     		cmp	r2, r1
 1902 01d6 03D3     		bcc	.L156
1127:Source\LwIP\src\core/tcp.c ****       pcb->ooseq = NULL;
 1903              		.loc 1 1127 0
 1904 01d8 FFF7FEFF 		bl	tcp_segs_free
 1905              	.LVL179:
1128:Source\LwIP\src\core/tcp.c ****       LWIP_DEBUGF(TCP_CWND_DEBUG, ("tcp_slowtmr: dropping OOSEQ queued data\n"));
 1906              		.loc 1 1128 0
 1907 01dc 0023     		movs	r3, #0
 1908 01de 2367     		str	r3, [r4, #112]
 1909              	.L156:
ARM GAS  C:\Users\Phuong\AppData\Local\Temp\cczg95Bp.s 			page 71


1134:Source\LwIP\src\core/tcp.c ****       if ((u32_t)(tcp_ticks - pcb->tmr) >
 1910              		.loc 1 1134 0
 1911 01e0 237D     		ldrb	r3, [r4, #20]
 1912 01e2 032B     		cmp	r3, #3
 1913 01e4 07D1     		bne	.L157
1135:Source\LwIP\src\core/tcp.c ****           TCP_SYN_RCVD_TIMEOUT / TCP_SLOW_INTERVAL) {
 1914              		.loc 1 1135 0
 1915 01e6 474A     		ldr	r2, .L188
 1916 01e8 1268     		ldr	r2, [r2]
 1917 01ea 216A     		ldr	r1, [r4, #32]
 1918 01ec 521A     		subs	r2, r2, r1
 1919 01ee 282A     		cmp	r2, #40
 1920 01f0 01D9     		bls	.L157
1137:Source\LwIP\src\core/tcp.c ****         LWIP_DEBUGF(TCP_DEBUG, ("tcp_slowtmr: removing pcb stuck in SYN-RCVD\n"));
 1921              		.loc 1 1137 0
 1922 01f2 0135     		adds	r5, r5, #1
 1923              	.LVL180:
 1924 01f4 EDB2     		uxtb	r5, r5
 1925              	.LVL181:
 1926              	.L157:
1143:Source\LwIP\src\core/tcp.c ****       if ((u32_t)(tcp_ticks - pcb->tmr) > 2 * TCP_MSL / TCP_SLOW_INTERVAL) {
 1927              		.loc 1 1143 0
 1928 01f6 092B     		cmp	r3, #9
 1929 01f8 07D1     		bne	.L158
1144:Source\LwIP\src\core/tcp.c ****         ++pcb_remove;
 1930              		.loc 1 1144 0
 1931 01fa 424B     		ldr	r3, .L188
 1932 01fc 1B68     		ldr	r3, [r3]
 1933 01fe 226A     		ldr	r2, [r4, #32]
 1934 0200 9B1A     		subs	r3, r3, r2
 1935 0202 F02B     		cmp	r3, #240
 1936 0204 01D9     		bls	.L158
1145:Source\LwIP\src\core/tcp.c ****         LWIP_DEBUGF(TCP_DEBUG, ("tcp_slowtmr: removing pcb stuck in LAST-ACK\n"));
 1937              		.loc 1 1145 0
 1938 0206 0135     		adds	r5, r5, #1
 1939              	.LVL182:
 1940 0208 EDB2     		uxtb	r5, r5
 1941              	.LVL183:
 1942              	.L158:
1151:Source\LwIP\src\core/tcp.c ****       struct tcp_pcb *pcb2;
 1943              		.loc 1 1151 0
 1944 020a 002D     		cmp	r5, #0
 1945 020c 2FD0     		beq	.L159
 1946              	.LBB8:
1154:Source\LwIP\src\core/tcp.c **** #endif /* LWIP_CALLBACK_API */
 1947              		.loc 1 1154 0
 1948 020e 8C23     		movs	r3, #140
 1949 0210 E558     		ldr	r5, [r4, r3]
 1950              	.LVL184:
1158:Source\LwIP\src\core/tcp.c ****       /* Remove PCB from tcp_active_pcbs list. */
 1951              		.loc 1 1158 0
 1952 0212 2000     		movs	r0, r4
 1953 0214 FFF7FEFF 		bl	tcp_pcb_purge
 1954              	.LVL185:
1160:Source\LwIP\src\core/tcp.c ****         LWIP_ASSERT("tcp_slowtmr: middle tcp != tcp_active_pcbs", pcb != tcp_active_pcbs);
 1955              		.loc 1 1160 0
 1956 0218 002E     		cmp	r6, #0
ARM GAS  C:\Users\Phuong\AppData\Local\Temp\cczg95Bp.s 			page 72


 1957 021a 02D0     		beq	.L160
1162:Source\LwIP\src\core/tcp.c ****       } else {
 1958              		.loc 1 1162 0
 1959 021c E368     		ldr	r3, [r4, #12]
 1960 021e F360     		str	r3, [r6, #12]
 1961 0220 02E0     		b	.L161
 1962              	.L160:
1166:Source\LwIP\src\core/tcp.c ****       }
 1963              		.loc 1 1166 0
 1964 0222 3A4B     		ldr	r3, .L188+8
 1965 0224 E268     		ldr	r2, [r4, #12]
 1966 0226 1A60     		str	r2, [r3]
 1967              	.L161:
1169:Source\LwIP\src\core/tcp.c ****         tcp_rst(pcb->snd_nxt, pcb->rcv_nxt, &pcb->local_ip, &pcb->remote_ip,
 1968              		.loc 1 1169 0
 1969 0228 002F     		cmp	r7, #0
 1970 022a 09D0     		beq	.L162
1170:Source\LwIP\src\core/tcp.c ****                  pcb->local_port, pcb->remote_port);
 1971              		.loc 1 1170 0
 1972 022c 231D     		adds	r3, r4, #4
 1973 022e 616A     		ldr	r1, [r4, #36]
 1974 0230 E06C     		ldr	r0, [r4, #76]
 1975 0232 228B     		ldrh	r2, [r4, #24]
 1976 0234 0192     		str	r2, [sp, #4]
 1977 0236 E28A     		ldrh	r2, [r4, #22]
 1978 0238 0092     		str	r2, [sp]
 1979 023a 2200     		movs	r2, r4
 1980 023c FFF7FEFF 		bl	tcp_rst
 1981              	.LVL186:
 1982              	.L162:
1174:Source\LwIP\src\core/tcp.c ****       last_state = pcb->state;
 1983              		.loc 1 1174 0
 1984 0240 2369     		ldr	r3, [r4, #16]
 1985 0242 9846     		mov	r8, r3
 1986              	.LVL187:
1177:Source\LwIP\src\core/tcp.c ****       memp_free(MEMP_TCP_PCB, pcb2);
 1987              		.loc 1 1177 0
 1988 0244 E768     		ldr	r7, [r4, #12]
 1989              	.LVL188:
1178:Source\LwIP\src\core/tcp.c **** 
 1990              		.loc 1 1178 0
 1991 0246 2100     		movs	r1, r4
 1992 0248 0220     		movs	r0, #2
 1993 024a FFF7FEFF 		bl	memp_free
 1994              	.LVL189:
1180:Source\LwIP\src\core/tcp.c ****       TCP_EVENT_ERR(last_state, err_fn, err_arg, ERR_ABRT);
 1995              		.loc 1 1180 0
 1996 024e 0022     		movs	r2, #0
 1997 0250 304B     		ldr	r3, .L188+16
 1998 0252 1A70     		strb	r2, [r3]
1181:Source\LwIP\src\core/tcp.c ****       if (tcp_active_pcbs_changed) {
 1999              		.loc 1 1181 0
 2000 0254 002D     		cmp	r5, #0
 2001 0256 03D0     		beq	.L163
1181:Source\LwIP\src\core/tcp.c ****       if (tcp_active_pcbs_changed) {
 2002              		.loc 1 1181 0 is_stmt 0 discriminator 1
 2003 0258 0D21     		movs	r1, #13
ARM GAS  C:\Users\Phuong\AppData\Local\Temp\cczg95Bp.s 			page 73


 2004 025a 4942     		rsbs	r1, r1, #0
 2005 025c 4046     		mov	r0, r8
 2006 025e A847     		blx	r5
 2007              	.LVL190:
 2008              	.L163:
1182:Source\LwIP\src\core/tcp.c ****         goto tcp_slowtmr_start;
 2009              		.loc 1 1182 0 is_stmt 1
 2010 0260 2C4B     		ldr	r3, .L188+16
 2011 0262 1B78     		ldrb	r3, [r3]
 2012 0264 002B     		cmp	r3, #0
 2013 0266 00D0     		beq	.LCB1956
 2014 0268 D7E6     		b	.L138	@long jump
 2015              	.LCB1956:
1177:Source\LwIP\src\core/tcp.c ****       memp_free(MEMP_TCP_PCB, pcb2);
 2016              		.loc 1 1177 0
 2017 026a 3C00     		movs	r4, r7
 2018              	.LVL191:
 2019 026c 26E0     		b	.L140
 2020              	.LVL192:
 2021              	.L159:
 2022              	.LBE8:
1188:Source\LwIP\src\core/tcp.c **** 
 2023              		.loc 1 1188 0
 2024 026e E568     		ldr	r5, [r4, #12]
 2025              	.LVL193:
1191:Source\LwIP\src\core/tcp.c ****       if (prev->polltmr >= prev->pollinterval) {
 2026              		.loc 1 1191 0
 2027 0270 237F     		ldrb	r3, [r4, #28]
 2028 0272 0133     		adds	r3, r3, #1
 2029 0274 DBB2     		uxtb	r3, r3
 2030 0276 2377     		strb	r3, [r4, #28]
1192:Source\LwIP\src\core/tcp.c ****         prev->polltmr = 0;
 2031              		.loc 1 1192 0
 2032 0278 627F     		ldrb	r2, [r4, #29]
 2033 027a 9342     		cmp	r3, r2
 2034 027c 19D3     		bcc	.L184
1193:Source\LwIP\src\core/tcp.c ****         LWIP_DEBUGF(TCP_DEBUG, ("tcp_slowtmr: polling application\n"));
 2035              		.loc 1 1193 0
 2036 027e 0023     		movs	r3, #0
 2037 0280 2377     		strb	r3, [r4, #28]
1195:Source\LwIP\src\core/tcp.c ****         TCP_EVENT_POLL(prev, err);
 2038              		.loc 1 1195 0
 2039 0282 244A     		ldr	r2, .L188+16
 2040 0284 1370     		strb	r3, [r2]
1196:Source\LwIP\src\core/tcp.c ****         if (tcp_active_pcbs_changed) {
 2041              		.loc 1 1196 0
 2042 0286 8833     		adds	r3, r3, #136
 2043 0288 E358     		ldr	r3, [r4, r3]
 2044 028a 002B     		cmp	r3, #0
 2045 028c 03D0     		beq	.L185
1196:Source\LwIP\src\core/tcp.c ****         if (tcp_active_pcbs_changed) {
 2046              		.loc 1 1196 0 is_stmt 0 discriminator 1
 2047 028e 2100     		movs	r1, r4
 2048 0290 2069     		ldr	r0, [r4, #16]
 2049 0292 9847     		blx	r3
 2050              	.LVL194:
 2051 0294 00E0     		b	.L164
ARM GAS  C:\Users\Phuong\AppData\Local\Temp\cczg95Bp.s 			page 74


 2052              	.LVL195:
 2053              	.L185:
1196:Source\LwIP\src\core/tcp.c ****         if (tcp_active_pcbs_changed) {
 2054              		.loc 1 1196 0
 2055 0296 0020     		movs	r0, #0
 2056              	.L164:
 2057              	.LVL196:
1197:Source\LwIP\src\core/tcp.c ****           goto tcp_slowtmr_start;
 2058              		.loc 1 1197 0 is_stmt 1
 2059 0298 1E4B     		ldr	r3, .L188+16
 2060 029a 1B78     		ldrb	r3, [r3]
 2061 029c 002B     		cmp	r3, #0
 2062 029e 00D0     		beq	.LCB2011
 2063 02a0 BBE6     		b	.L138	@long jump
 2064              	.LCB2011:
1201:Source\LwIP\src\core/tcp.c ****           tcp_output(prev);
 2065              		.loc 1 1201 0
 2066 02a2 0028     		cmp	r0, #0
 2067 02a4 08D1     		bne	.L186
1202:Source\LwIP\src\core/tcp.c ****         }
 2068              		.loc 1 1202 0
 2069 02a6 2000     		movs	r0, r4
 2070              	.LVL197:
 2071 02a8 FFF7FEFF 		bl	tcp_output
 2072              	.LVL198:
1187:Source\LwIP\src\core/tcp.c ****       pcb = pcb->next;
 2073              		.loc 1 1187 0
 2074 02ac 2600     		movs	r6, r4
1188:Source\LwIP\src\core/tcp.c **** 
 2075              		.loc 1 1188 0
 2076 02ae 2C00     		movs	r4, r5
 2077              	.LVL199:
 2078 02b0 04E0     		b	.L140
 2079              	.LVL200:
 2080              	.L184:
1187:Source\LwIP\src\core/tcp.c ****       pcb = pcb->next;
 2081              		.loc 1 1187 0
 2082 02b2 2600     		movs	r6, r4
1188:Source\LwIP\src\core/tcp.c **** 
 2083              		.loc 1 1188 0
 2084 02b4 2C00     		movs	r4, r5
 2085              	.LVL201:
 2086 02b6 01E0     		b	.L140
 2087              	.LVL202:
 2088              	.L186:
1187:Source\LwIP\src\core/tcp.c ****       pcb = pcb->next;
 2089              		.loc 1 1187 0
 2090 02b8 2600     		movs	r6, r4
1188:Source\LwIP\src\core/tcp.c **** 
 2091              		.loc 1 1188 0
 2092 02ba 2C00     		movs	r4, r5
 2093              	.LVL203:
 2094              	.L140:
1006:Source\LwIP\src\core/tcp.c ****     LWIP_DEBUGF(TCP_DEBUG, ("tcp_slowtmr: processing active pcb\n"));
 2095              		.loc 1 1006 0
 2096 02bc 002C     		cmp	r4, #0
 2097 02be 00D0     		beq	.LCB2051
ARM GAS  C:\Users\Phuong\AppData\Local\Temp\cczg95Bp.s 			page 75


 2098 02c0 AFE6     		b	.L165	@long jump
 2099              	.LCB2051:
 2100              	.LVL204:
1211:Source\LwIP\src\core/tcp.c ****   while (pcb != NULL) {
 2101              		.loc 1 1211 0
 2102 02c2 154B     		ldr	r3, .L188+20
 2103 02c4 1D68     		ldr	r5, [r3]
 2104              	.LVL205:
1212:Source\LwIP\src\core/tcp.c ****     LWIP_ASSERT("tcp_slowtmr: TIME-WAIT pcb->state == TIME-WAIT", pcb->state == TIME_WAIT);
 2105              		.loc 1 1212 0
 2106 02c6 2BE0     		b	.L166
 2107              	.LVL206:
 2108              	.L172:
1217:Source\LwIP\src\core/tcp.c ****       ++pcb_remove;
 2109              		.loc 1 1217 0
 2110 02c8 0E4B     		ldr	r3, .L188
 2111 02ca 1B68     		ldr	r3, [r3]
 2112 02cc 2A6A     		ldr	r2, [r5, #32]
 2113 02ce 9B1A     		subs	r3, r3, r2
 2114 02d0 F02B     		cmp	r3, #240
 2115 02d2 01D8     		bhi	.L187
1214:Source\LwIP\src\core/tcp.c **** 
 2116              		.loc 1 1214 0
 2117 02d4 0023     		movs	r3, #0
 2118 02d6 00E0     		b	.L167
 2119              	.L187:
1218:Source\LwIP\src\core/tcp.c ****     }
 2120              		.loc 1 1218 0
 2121 02d8 0123     		movs	r3, #1
 2122              	.L167:
 2123              	.LVL207:
1222:Source\LwIP\src\core/tcp.c ****       struct tcp_pcb *pcb2;
 2124              		.loc 1 1222 0
 2125 02da 002B     		cmp	r3, #0
 2126 02dc 1ED0     		beq	.L168
 2127              	.LBB9:
1224:Source\LwIP\src\core/tcp.c ****       /* Remove PCB from tcp_tw_pcbs list. */
 2128              		.loc 1 1224 0
 2129 02de 2800     		movs	r0, r5
 2130 02e0 FFF7FEFF 		bl	tcp_pcb_purge
 2131              	.LVL208:
1226:Source\LwIP\src\core/tcp.c ****         LWIP_ASSERT("tcp_slowtmr: middle tcp != tcp_tw_pcbs", pcb != tcp_tw_pcbs);
 2132              		.loc 1 1226 0
 2133 02e4 002C     		cmp	r4, #0
 2134 02e6 02D0     		beq	.L169
1228:Source\LwIP\src\core/tcp.c ****       } else {
 2135              		.loc 1 1228 0
 2136 02e8 EB68     		ldr	r3, [r5, #12]
 2137 02ea E360     		str	r3, [r4, #12]
 2138 02ec 02E0     		b	.L170
 2139              	.L169:
1232:Source\LwIP\src\core/tcp.c ****       }
 2140              		.loc 1 1232 0
 2141 02ee 0A4B     		ldr	r3, .L188+20
 2142 02f0 EA68     		ldr	r2, [r5, #12]
 2143 02f2 1A60     		str	r2, [r3]
 2144              	.L170:
ARM GAS  C:\Users\Phuong\AppData\Local\Temp\cczg95Bp.s 			page 76


 2145              	.LVL209:
1235:Source\LwIP\src\core/tcp.c ****       memp_free(MEMP_TCP_PCB, pcb2);
 2146              		.loc 1 1235 0
 2147 02f4 EE68     		ldr	r6, [r5, #12]
 2148              	.LVL210:
1236:Source\LwIP\src\core/tcp.c ****     } else {
 2149              		.loc 1 1236 0
 2150 02f6 2900     		movs	r1, r5
 2151 02f8 0220     		movs	r0, #2
 2152 02fa FFF7FEFF 		bl	memp_free
 2153              	.LVL211:
1235:Source\LwIP\src\core/tcp.c ****       memp_free(MEMP_TCP_PCB, pcb2);
 2154              		.loc 1 1235 0
 2155 02fe 3500     		movs	r5, r6
 2156              	.LVL212:
 2157              	.LBE9:
 2158 0300 0EE0     		b	.L166
 2159              	.L189:
 2160 0302 C046     		.align	2
 2161              	.L188:
 2162 0304 00000000 		.word	tcp_ticks
 2163 0308 00000000 		.word	.LANCHOR2
 2164 030c 00000000 		.word	tcp_active_pcbs
 2165 0310 00000000 		.word	.LANCHOR0
 2166 0314 00000000 		.word	tcp_active_pcbs_changed
 2167 0318 00000000 		.word	tcp_tw_pcbs
 2168              	.LVL213:
 2169              	.L168:
1238:Source\LwIP\src\core/tcp.c ****       pcb = pcb->next;
 2170              		.loc 1 1238 0
 2171 031c 2C00     		movs	r4, r5
1239:Source\LwIP\src\core/tcp.c ****     }
 2172              		.loc 1 1239 0
 2173 031e ED68     		ldr	r5, [r5, #12]
 2174              	.LVL214:
 2175              	.L166:
1212:Source\LwIP\src\core/tcp.c ****     LWIP_ASSERT("tcp_slowtmr: TIME-WAIT pcb->state == TIME-WAIT", pcb->state == TIME_WAIT);
 2176              		.loc 1 1212 0
 2177 0320 002D     		cmp	r5, #0
 2178 0322 D1D1     		bne	.L172
1242:Source\LwIP\src\core/tcp.c **** 
 2179              		.loc 1 1242 0
 2180 0324 03B0     		add	sp, sp, #12
 2181              		@ sp needed
 2182              	.LVL215:
 2183              	.LVL216:
 2184 0326 0CBC     		pop	{r2, r3}
 2185 0328 9046     		mov	r8, r2
 2186 032a 9946     		mov	r9, r3
 2187 032c F0BD     		pop	{r4, r5, r6, r7, pc}
 2188              		.cfi_endproc
 2189              	.LFE73:
 2190              		.size	tcp_slowtmr, .-tcp_slowtmr
 2191 032e C046     		.section	.text.tcp_pcb_remove,"ax",%progbits
 2192              		.align	2
 2193              		.global	tcp_pcb_remove
 2194              		.code	16
ARM GAS  C:\Users\Phuong\AppData\Local\Temp\cczg95Bp.s 			page 77


 2195              		.thumb_func
 2196              		.type	tcp_pcb_remove, %function
 2197              	tcp_pcb_remove:
 2198              	.LFB95:
1852:Source\LwIP\src\core/tcp.c **** 
1853:Source\LwIP\src\core/tcp.c **** /**
1854:Source\LwIP\src\core/tcp.c ****  * Purges the PCB and removes it from a PCB list. Any delayed ACKs are sent first.
1855:Source\LwIP\src\core/tcp.c ****  *
1856:Source\LwIP\src\core/tcp.c ****  * @param pcblist PCB list to purge.
1857:Source\LwIP\src\core/tcp.c ****  * @param pcb tcp_pcb to purge. The pcb itself is NOT deallocated!
1858:Source\LwIP\src\core/tcp.c ****  */
1859:Source\LwIP\src\core/tcp.c **** void
1860:Source\LwIP\src\core/tcp.c **** tcp_pcb_remove(struct tcp_pcb **pcblist, struct tcp_pcb *pcb)
1861:Source\LwIP\src\core/tcp.c **** {
 2199              		.loc 1 1861 0
 2200              		.cfi_startproc
 2201              		@ args = 0, pretend = 0, frame = 0
 2202              		@ frame_needed = 0, uses_anonymous_args = 0
 2203              	.LVL217:
 2204 0000 10B5     		push	{r4, lr}
 2205              		.cfi_def_cfa_offset 8
 2206              		.cfi_offset 4, -8
 2207              		.cfi_offset 14, -4
 2208 0002 0C00     		movs	r4, r1
1862:Source\LwIP\src\core/tcp.c ****   TCP_RMV(pcblist, pcb);
 2209              		.loc 1 1862 0
 2210 0004 0368     		ldr	r3, [r0]
 2211 0006 8B42     		cmp	r3, r1
 2212 0008 09D1     		bne	.L191
 2213              		.loc 1 1862 0 is_stmt 0 discriminator 1
 2214 000a DB68     		ldr	r3, [r3, #12]
 2215 000c 0360     		str	r3, [r0]
 2216 000e 08E0     		b	.L192
 2217              	.LVL218:
 2218              	.L193:
 2219              	.LBB10:
 2220              		.loc 1 1862 0 discriminator 9
 2221 0010 DA68     		ldr	r2, [r3, #12]
 2222 0012 9442     		cmp	r4, r2
 2223 0014 02D1     		bne	.L195
 2224              		.loc 1 1862 0 discriminator 5
 2225 0016 E268     		ldr	r2, [r4, #12]
 2226 0018 DA60     		str	r2, [r3, #12]
 2227 001a 02E0     		b	.L192
 2228              	.L195:
 2229              		.loc 1 1862 0
 2230 001c 1300     		movs	r3, r2
 2231              	.LVL219:
 2232              	.L191:
 2233              		.loc 1 1862 0 discriminator 8
 2234 001e 002B     		cmp	r3, #0
 2235 0020 F6D1     		bne	.L193
 2236              	.LVL220:
 2237              	.L192:
 2238              	.LBE10:
 2239              		.loc 1 1862 0 discriminator 10
 2240 0022 0023     		movs	r3, #0
ARM GAS  C:\Users\Phuong\AppData\Local\Temp\cczg95Bp.s 			page 78


 2241 0024 E360     		str	r3, [r4, #12]
1863:Source\LwIP\src\core/tcp.c **** 
1864:Source\LwIP\src\core/tcp.c ****   tcp_pcb_purge(pcb);
 2242              		.loc 1 1864 0 is_stmt 1 discriminator 10
 2243 0026 2000     		movs	r0, r4
 2244              	.LVL221:
 2245 0028 FFF7FEFF 		bl	tcp_pcb_purge
 2246              	.LVL222:
1865:Source\LwIP\src\core/tcp.c **** 
1866:Source\LwIP\src\core/tcp.c ****   /* if there is an outstanding delayed ACKs, send it */
1867:Source\LwIP\src\core/tcp.c ****   if (pcb->state != TIME_WAIT &&
 2247              		.loc 1 1867 0 discriminator 10
 2248 002c 237D     		ldrb	r3, [r4, #20]
 2249 002e 0A2B     		cmp	r3, #10
 2250 0030 0AD0     		beq	.L194
 2251              		.loc 1 1867 0 is_stmt 0 discriminator 1
 2252 0032 012B     		cmp	r3, #1
 2253 0034 08D0     		beq	.L194
1868:Source\LwIP\src\core/tcp.c ****      pcb->state != LISTEN &&
1869:Source\LwIP\src\core/tcp.c ****      pcb->flags & TF_ACK_DELAY) {
 2254              		.loc 1 1869 0 is_stmt 1
 2255 0036 638B     		ldrh	r3, [r4, #26]
1868:Source\LwIP\src\core/tcp.c ****      pcb->state != LISTEN &&
 2256              		.loc 1 1868 0
 2257 0038 DA07     		lsls	r2, r3, #31
 2258 003a 05D5     		bpl	.L194
1870:Source\LwIP\src\core/tcp.c ****     pcb->flags |= TF_ACK_NOW;
 2259              		.loc 1 1870 0
 2260 003c 0222     		movs	r2, #2
 2261 003e 1343     		orrs	r3, r2
 2262 0040 6383     		strh	r3, [r4, #26]
1871:Source\LwIP\src\core/tcp.c ****     tcp_output(pcb);
 2263              		.loc 1 1871 0
 2264 0042 2000     		movs	r0, r4
 2265 0044 FFF7FEFF 		bl	tcp_output
 2266              	.LVL223:
 2267              	.L194:
1872:Source\LwIP\src\core/tcp.c ****   }
1873:Source\LwIP\src\core/tcp.c **** 
1874:Source\LwIP\src\core/tcp.c ****   if (pcb->state != LISTEN) {
1875:Source\LwIP\src\core/tcp.c ****     LWIP_ASSERT("unsent segments leaking", pcb->unsent == NULL);
1876:Source\LwIP\src\core/tcp.c ****     LWIP_ASSERT("unacked segments leaking", pcb->unacked == NULL);
1877:Source\LwIP\src\core/tcp.c **** #if TCP_QUEUE_OOSEQ
1878:Source\LwIP\src\core/tcp.c ****     LWIP_ASSERT("ooseq segments leaking", pcb->ooseq == NULL);
1879:Source\LwIP\src\core/tcp.c **** #endif /* TCP_QUEUE_OOSEQ */
1880:Source\LwIP\src\core/tcp.c ****   }
1881:Source\LwIP\src\core/tcp.c **** 
1882:Source\LwIP\src\core/tcp.c ****   pcb->state = CLOSED;
 2268              		.loc 1 1882 0
 2269 0048 0023     		movs	r3, #0
 2270 004a 2375     		strb	r3, [r4, #20]
1883:Source\LwIP\src\core/tcp.c ****   /* reset the local port to prevent the pcb from being 'bound' */
1884:Source\LwIP\src\core/tcp.c ****   pcb->local_port = 0;
 2271              		.loc 1 1884 0
 2272 004c E382     		strh	r3, [r4, #22]
1885:Source\LwIP\src\core/tcp.c **** 
1886:Source\LwIP\src\core/tcp.c ****   LWIP_ASSERT("tcp_pcb_remove: tcp_pcbs_sane()", tcp_pcbs_sane());
ARM GAS  C:\Users\Phuong\AppData\Local\Temp\cczg95Bp.s 			page 79


1887:Source\LwIP\src\core/tcp.c **** }
 2273              		.loc 1 1887 0
 2274              		@ sp needed
 2275              	.LVL224:
 2276 004e 10BD     		pop	{r4, pc}
 2277              		.cfi_endproc
 2278              	.LFE95:
 2279              		.size	tcp_pcb_remove, .-tcp_pcb_remove
 2280              		.section	.text.tcp_close_shutdown,"ax",%progbits
 2281              		.align	2
 2282              		.code	16
 2283              		.thumb_func
 2284              		.type	tcp_close_shutdown, %function
 2285              	tcp_close_shutdown:
 2286              	.LFB59:
 266:Source\LwIP\src\core/tcp.c ****   if (rst_on_unacked_data && ((pcb->state == ESTABLISHED) || (pcb->state == CLOSE_WAIT))) {
 2287              		.loc 1 266 0
 2288              		.cfi_startproc
 2289              		@ args = 0, pretend = 0, frame = 0
 2290              		@ frame_needed = 0, uses_anonymous_args = 0
 2291              	.LVL225:
 2292 0000 10B5     		push	{r4, lr}
 2293              		.cfi_def_cfa_offset 8
 2294              		.cfi_offset 4, -8
 2295              		.cfi_offset 14, -4
 2296 0002 82B0     		sub	sp, sp, #8
 2297              		.cfi_def_cfa_offset 16
 2298 0004 0400     		movs	r4, r0
 267:Source\LwIP\src\core/tcp.c ****     if ((pcb->refused_data != NULL) || (pcb->rcv_wnd != TCP_WND_MAX(pcb))) {
 2299              		.loc 1 267 0
 2300 0006 0029     		cmp	r1, #0
 2301 0008 49D0     		beq	.L197
 267:Source\LwIP\src\core/tcp.c ****     if ((pcb->refused_data != NULL) || (pcb->rcv_wnd != TCP_WND_MAX(pcb))) {
 2302              		.loc 1 267 0 is_stmt 0 discriminator 1
 2303 000a 037D     		ldrb	r3, [r0, #20]
 2304 000c 042B     		cmp	r3, #4
 2305 000e 01D0     		beq	.L198
 267:Source\LwIP\src\core/tcp.c ****     if ((pcb->refused_data != NULL) || (pcb->rcv_wnd != TCP_WND_MAX(pcb))) {
 2306              		.loc 1 267 0 discriminator 2
 2307 0010 072B     		cmp	r3, #7
 2308 0012 44D1     		bne	.L197
 2309              	.L198:
 268:Source\LwIP\src\core/tcp.c ****       /* Not all data received by application, send RST to tell the remote
 2310              		.loc 1 268 0 is_stmt 1
 2311 0014 636F     		ldr	r3, [r4, #116]
 2312 0016 002B     		cmp	r3, #0
 2313 0018 03D1     		bne	.L199
 268:Source\LwIP\src\core/tcp.c ****       /* Not all data received by application, send RST to tell the remote
 2314              		.loc 1 268 0 is_stmt 0 discriminator 1
 2315 001a 228D     		ldrh	r2, [r4, #40]
 2316 001c 414B     		ldr	r3, .L217
 2317 001e 9A42     		cmp	r2, r3
 2318 0020 3DD0     		beq	.L197
 2319              	.L199:
 275:Source\LwIP\src\core/tcp.c ****                pcb->local_port, pcb->remote_port);
 2320              		.loc 1 275 0 is_stmt 1
 2321 0022 231D     		adds	r3, r4, #4
ARM GAS  C:\Users\Phuong\AppData\Local\Temp\cczg95Bp.s 			page 80


 2322 0024 228B     		ldrh	r2, [r4, #24]
 2323 0026 0192     		str	r2, [sp, #4]
 2324 0028 E28A     		ldrh	r2, [r4, #22]
 2325 002a 0092     		str	r2, [sp]
 2326 002c 2200     		movs	r2, r4
 2327 002e 616A     		ldr	r1, [r4, #36]
 2328              	.LVL226:
 2329 0030 E06C     		ldr	r0, [r4, #76]
 2330              	.LVL227:
 2331 0032 FFF7FEFF 		bl	tcp_rst
 2332              	.LVL228:
 278:Source\LwIP\src\core/tcp.c ****       TCP_RMV_ACTIVE(pcb);
 2333              		.loc 1 278 0
 2334 0036 2000     		movs	r0, r4
 2335 0038 FFF7FEFF 		bl	tcp_pcb_purge
 2336              	.LVL229:
 279:Source\LwIP\src\core/tcp.c ****       if (pcb->state == ESTABLISHED) {
 2337              		.loc 1 279 0
 2338 003c 3A4B     		ldr	r3, .L217+4
 2339 003e 1B68     		ldr	r3, [r3]
 2340 0040 9C42     		cmp	r4, r3
 2341 0042 0AD1     		bne	.L200
 279:Source\LwIP\src\core/tcp.c ****       if (pcb->state == ESTABLISHED) {
 2342              		.loc 1 279 0 is_stmt 0 discriminator 1
 2343 0044 DA68     		ldr	r2, [r3, #12]
 2344 0046 384B     		ldr	r3, .L217+4
 2345 0048 1A60     		str	r2, [r3]
 2346 004a 08E0     		b	.L201
 2347              	.LVL230:
 2348              	.L202:
 2349              	.LBB11:
 279:Source\LwIP\src\core/tcp.c ****       if (pcb->state == ESTABLISHED) {
 2350              		.loc 1 279 0 discriminator 9
 2351 004c DA68     		ldr	r2, [r3, #12]
 2352 004e 9442     		cmp	r4, r2
 2353 0050 02D1     		bne	.L214
 279:Source\LwIP\src\core/tcp.c ****       if (pcb->state == ESTABLISHED) {
 2354              		.loc 1 279 0 discriminator 5
 2355 0052 E268     		ldr	r2, [r4, #12]
 2356 0054 DA60     		str	r2, [r3, #12]
 2357 0056 02E0     		b	.L201
 2358              	.L214:
 279:Source\LwIP\src\core/tcp.c ****       if (pcb->state == ESTABLISHED) {
 2359              		.loc 1 279 0
 2360 0058 1300     		movs	r3, r2
 2361              	.LVL231:
 2362              	.L200:
 279:Source\LwIP\src\core/tcp.c ****       if (pcb->state == ESTABLISHED) {
 2363              		.loc 1 279 0 discriminator 8
 2364 005a 002B     		cmp	r3, #0
 2365 005c F6D1     		bne	.L202
 2366              	.LVL232:
 2367              	.L201:
 2368              	.LBE11:
 279:Source\LwIP\src\core/tcp.c ****       if (pcb->state == ESTABLISHED) {
 2369              		.loc 1 279 0 discriminator 10
 2370 005e 0023     		movs	r3, #0
ARM GAS  C:\Users\Phuong\AppData\Local\Temp\cczg95Bp.s 			page 81


 2371 0060 E360     		str	r3, [r4, #12]
 2372 0062 0122     		movs	r2, #1
 2373 0064 314B     		ldr	r3, .L217+8
 2374 0066 1A70     		strb	r2, [r3]
 280:Source\LwIP\src\core/tcp.c ****         /* move to TIME_WAIT since we close actively */
 2375              		.loc 1 280 0 is_stmt 1 discriminator 10
 2376 0068 237D     		ldrb	r3, [r4, #20]
 2377 006a 042B     		cmp	r3, #4
 2378 006c 09D1     		bne	.L203
 282:Source\LwIP\src\core/tcp.c ****         TCP_REG(&tcp_tw_pcbs, pcb);
 2379              		.loc 1 282 0
 2380 006e 0633     		adds	r3, r3, #6
 2381 0070 2375     		strb	r3, [r4, #20]
 283:Source\LwIP\src\core/tcp.c ****       } else {
 2382              		.loc 1 283 0
 2383 0072 2F4B     		ldr	r3, .L217+12
 2384 0074 1A68     		ldr	r2, [r3]
 2385 0076 E260     		str	r2, [r4, #12]
 2386 0078 1C60     		str	r4, [r3]
 2387 007a FFF7FEFF 		bl	tcp_timer_needed
 2388              	.LVL233:
 293:Source\LwIP\src\core/tcp.c ****     }
 2389              		.loc 1 293 0
 2390 007e 0020     		movs	r0, #0
 2391 0080 4EE0     		b	.L204
 2392              	.L203:
 286:Source\LwIP\src\core/tcp.c ****           /* prevent using a deallocated pcb: free it from tcp_input later */
 2393              		.loc 1 286 0
 2394 0082 2C4B     		ldr	r3, .L217+16
 2395 0084 1B68     		ldr	r3, [r3]
 2396 0086 9C42     		cmp	r4, r3
 2397 0088 03D1     		bne	.L205
 288:Source\LwIP\src\core/tcp.c ****         } else {
 2398              		.loc 1 288 0
 2399 008a FFF7FEFF 		bl	tcp_trigger_input_pcb_close
 2400              	.LVL234:
 293:Source\LwIP\src\core/tcp.c ****     }
 2401              		.loc 1 293 0
 2402 008e 0020     		movs	r0, #0
 2403 0090 46E0     		b	.L204
 2404              	.L205:
 290:Source\LwIP\src\core/tcp.c ****         }
 2405              		.loc 1 290 0
 2406 0092 2100     		movs	r1, r4
 2407 0094 0220     		movs	r0, #2
 2408 0096 FFF7FEFF 		bl	memp_free
 2409              	.LVL235:
 293:Source\LwIP\src\core/tcp.c ****     }
 2410              		.loc 1 293 0
 2411 009a 0020     		movs	r0, #0
 2412 009c 40E0     		b	.L204
 2413              	.LVL236:
 2414              	.L197:
 299:Source\LwIP\src\core/tcp.c ****   case CLOSED:
 2415              		.loc 1 299 0
 2416 009e 237D     		ldrb	r3, [r4, #20]
 2417 00a0 012B     		cmp	r3, #1
ARM GAS  C:\Users\Phuong\AppData\Local\Temp\cczg95Bp.s 			page 82


 2418 00a2 20D0     		beq	.L207
 2419 00a4 002B     		cmp	r3, #0
 2420 00a6 02D0     		beq	.L208
 2421 00a8 022B     		cmp	r3, #2
 2422 00aa 29D0     		beq	.L209
 2423 00ac 35E0     		b	.L216
 2424              	.L208:
 308:Source\LwIP\src\core/tcp.c ****       TCP_RMV(&tcp_bound_pcbs, pcb);
 2425              		.loc 1 308 0
 2426 00ae E38A     		ldrh	r3, [r4, #22]
 2427 00b0 002B     		cmp	r3, #0
 2428 00b2 12D0     		beq	.L210
 309:Source\LwIP\src\core/tcp.c ****     }
 2429              		.loc 1 309 0
 2430 00b4 204B     		ldr	r3, .L217+20
 2431 00b6 1B68     		ldr	r3, [r3]
 2432 00b8 9C42     		cmp	r4, r3
 2433 00ba 0AD1     		bne	.L211
 309:Source\LwIP\src\core/tcp.c ****     }
 2434              		.loc 1 309 0 is_stmt 0 discriminator 1
 2435 00bc DA68     		ldr	r2, [r3, #12]
 2436 00be 1E4B     		ldr	r3, .L217+20
 2437 00c0 1A60     		str	r2, [r3]
 2438 00c2 08E0     		b	.L212
 2439              	.LVL237:
 2440              	.L213:
 2441              	.LBB12:
 309:Source\LwIP\src\core/tcp.c ****     }
 2442              		.loc 1 309 0 discriminator 9
 2443 00c4 DA68     		ldr	r2, [r3, #12]
 2444 00c6 9442     		cmp	r4, r2
 2445 00c8 02D1     		bne	.L215
 309:Source\LwIP\src\core/tcp.c ****     }
 2446              		.loc 1 309 0 discriminator 5
 2447 00ca E268     		ldr	r2, [r4, #12]
 2448 00cc DA60     		str	r2, [r3, #12]
 2449 00ce 02E0     		b	.L212
 2450              	.L215:
 309:Source\LwIP\src\core/tcp.c ****     }
 2451              		.loc 1 309 0
 2452 00d0 1300     		movs	r3, r2
 2453              	.LVL238:
 2454              	.L211:
 309:Source\LwIP\src\core/tcp.c ****     }
 2455              		.loc 1 309 0 discriminator 8
 2456 00d2 002B     		cmp	r3, #0
 2457 00d4 F6D1     		bne	.L213
 2458              	.LVL239:
 2459              	.L212:
 2460              	.LBE12:
 309:Source\LwIP\src\core/tcp.c ****     }
 2461              		.loc 1 309 0 discriminator 10
 2462 00d6 0023     		movs	r3, #0
 2463 00d8 E360     		str	r3, [r4, #12]
 2464              	.L210:
 311:Source\LwIP\src\core/tcp.c ****     break;
 2465              		.loc 1 311 0 is_stmt 1
ARM GAS  C:\Users\Phuong\AppData\Local\Temp\cczg95Bp.s 			page 83


 2466 00da 2100     		movs	r1, r4
 2467              	.LVL240:
 2468 00dc 0220     		movs	r0, #2
 2469              	.LVL241:
 2470 00de FFF7FEFF 		bl	memp_free
 2471              	.LVL242:
 326:Source\LwIP\src\core/tcp.c **** }
 2472              		.loc 1 326 0
 2473 00e2 0020     		movs	r0, #0
 312:Source\LwIP\src\core/tcp.c ****   case LISTEN:
 2474              		.loc 1 312 0
 2475 00e4 1CE0     		b	.L204
 2476              	.LVL243:
 2477              	.L207:
 314:Source\LwIP\src\core/tcp.c ****     tcp_pcb_remove(&tcp_listen_pcbs.pcbs, pcb);
 2478              		.loc 1 314 0
